ARM GAS  /tmp/ccb32klv.s 			page 1


   1              		.syntax unified
   2              		.cpu cortex-m3
   3              		.fpu softvfp
   4              		.eabi_attribute 20, 1
   5              		.eabi_attribute 21, 1
   6              		.eabi_attribute 23, 3
   7              		.eabi_attribute 24, 1
   8              		.eabi_attribute 25, 1
   9              		.eabi_attribute 26, 1
  10              		.eabi_attribute 30, 2
  11              		.eabi_attribute 34, 1
  12              		.eabi_attribute 18, 4
  13              		.thumb
  14              		.file	"testmbox.c"
  15              		.section	.gnu.lto_.jmpfuncs.483f68c2f112b670,"",%progbits
  16 0000 789C9591 		.ascii	"x\234\225\2219z\3020\020Fgdl\003\331H\002\331CV\262"
  16      397AC230 
  16      10466764 
  16      6C03D948 
  16      02D94356 
  17 0015 B0245788 		.ascii	"\260$W\210Y\356@M\347\202\023\244Q\231*5M.\220#\246"
  17      59EE404D 
  17      E78213A4 
  17      51992A35 
  17      4D2E9023 
  18 002a 21966386 		.ascii	"!\226c\206\377#F\310n\374>\315\233\221\364K\221\242"
  18      FF2346C8 
  18      6EFC3ECD 
  18      9B91F44B 
  18      91A2
  19 003c BCEFD327 		.ascii	"\274\357\323'\012\223\177RUj\3141\323\253Y\316\370\005"
  19      0A937F52 
  19      556ACC31 
  19      D3AB59CE 
  19      F805
  20 004e B807DC35 		.ascii	"\270\007\3345\314\352\235~\364\207\256\305\314S&(w\200"
  20      CCEA9D7E 
  20      F487AEC5 
  20      CC532628 
  20      7780
  21 0060 DBC0CFC0 		.ascii	"\333\300\317\300O\011\231\376\231\351WM\342/={\213\331"
  21      4F0999FE 
  21      99E9574D 
  21      E22F3D7B 
  21      8BD9
  22 0072 4BE7B068 		.ascii	"K\347\260h\217\177-\377v\022\341\001\270\265FN\253\245"
  22      8F7F2DFF 
  22      7612E101 
  22      B8B5464E 
  22      ABA5
  23 0084 48BC7BAB 		.ascii	"H\274{\253\327\027\357\316\352\015\304\273\265zC\361"
  23      D717EFCE 
  23      EA0DC4BB 
  23      B57A43F1 
  24 0094 6EACDE48 		.ascii	"n\254\336H\274k\270\323\025p\023\370\322-\277\213M\371"
  24      BC6BB8D3 
  24      157013F8 
ARM GAS  /tmp/ccb32klv.s 			page 2


  24      D22DBF8B 
  24      4DF9
  25 00a6 9D039F39 		.ascii	"\235\003\2379\236\357\324\361\276'\216\371\035;\276"
  25      9EEFD4F1 
  25      BE278EF9 
  25      1D3BBE
  26 00b5 C791E3FB 		.ascii	"\307\221\343\3736\340Nu\340C\340\203M\301\354\033\366"
  26      36E04E75 
  26      E043E083 
  26      4DC1EC1B 
  26      F6
  27 00c6 720553F7 		.ascii	"r\005S\367\227\031\327\240k\017x\327>!\230\317=qw\012"
  27      9719D7A0 
  27      6B0F78D7 
  27      3E2198CF 
  27      3D71770A 
  28 00da B8DB6E4F 		.ascii	"\270\333nO\277U`d\025\216]\001.\003\207\326\364\307"
  28      BF556064 
  28      158E5D01 
  28      2E0387D6 
  28      F4C7
  29 00ec E2056BF6 		.ascii	"\342\005k\366]z+\371\371\216\203KE\007{\326\206(/\010"
  29      5D7A2BF9 
  29      F98E834B 
  29      45077BD6 
  29      86282F08 
  30 0100 5520B4B4 		.ascii	"U \264\264\242r7\220\225\260C\337Z\033*\013U\246\314"
  30      A2723790 
  30      95B043DF 
  30      5A1B2A0B 
  30      55A6CC
  31 0113 936CEC84 		.ascii	"\223l\354\204\027\363\263\035\252&\215 \352\017\206"
  31      17F3B31D 
  31      AA268D20 
  31      EA0F86
  32 0122 23FA0521 		.ascii	"#\372\005!I\312\216"
  32      49CA8E
  33              		.text
  34              		.section	.gnu.lto_.inline.483f68c2f112b670,"",%progbits
  35 0000 789C6362 		.ascii	"x\234cb`b\300\006\362\240\302L\014,\013X\0362020\275"
  35      6062C006 
  35      F2A0C24C 
  35      0C2C0B58 
  35      1E323032 
  36 0016 626E38C0 		.ascii	"bn8\300\304\300\266@\036,\303\302\013\222\233\340\207"
  36      C4C0B640 
  36      1E2CC3C2 
  36      0B929BE0 
  36      87
  37 0027 8B66E266 		.ascii	"\213f\342f\000j\302\257\212\201\211\233\221\201\021"
  37      006AC2AF 
  37      8A81899B 
  37      918111
  38 0036 C463848A 		.ascii	"\304c\204\212\202h\034\232\030\250\307\035\254\356\300"
  38      82681C9A 
  38      18A8C71D 
  38      ACEEC0
ARM GAS  /tmp/ccb32klv.s 			page 3


  39 0045 50C6CAC7 		.ascii	"P\306\312\307\300\300\214'\260\321\345!\374\011~\014"
  39      C0C08C27 
  39      B0D1E521 
  39      FC097E0C 
  40 0055 D8FDC5CA 		.ascii	"\330\375\305\312\307\210\3278\222\\\201S\032\301G\266"
  40      C788D738 
  40      925C8153 
  40      1AC147B6 
  41 0065 15EE2860 		.ascii	"\025\356(`\322``\347\007\0070Jb\002ia\000\000G\0305"
  41      D26060E7 
  41      0707304A 
  41      62026961 
  41      00004718 
  42 007a FA       		.ascii	"\372"
  43              		.text
  44              		.section	.gnu.lto_.pureconst.483f68c2f112b670,"",%progbits
  45 0000 789C6362 		.ascii	"x\234cb`b`e\200\000&\006+&\011\000\001f\000`"
  45      60626065 
  45      80002606 
  45      2B260900 
  45      01660060 
  46              		.text
  47              		.section	.gnu.lto_mbox1_execute.483f68c2f112b670,"",%progbits
  48 0000 789CCD5B 		.ascii	"x\234\315[iPTW\026\276\367u\263\210l\202l\262\330\010"
  48      69505457 
  48      16BEF775 
  48      B3886C82 
  48      6CB2D808 
  49 0014 6E8834A2 		.ascii	"n\2104\242\242\242\342n4\221\230\304\030c&\023\007["
  49      A2A2E26E 
  49      349198C4 
  49      18632613 
  49      075B
  50 0026 025D0EEA 		.ascii	"\002]\016\352\270L\342\370\303VD4\343\026c\021\242\243"
  50      B84CE2F8 
  50      C3564434 
  50      E3166311 
  50      A2A3
  51 0038 31267109 		.ascii	"1&q\011F\214X)G\231\012bPQ\324$e\022\\*\3038F\262Xn"
  51      468C5829 
  51      47990A62 
  51      5051D424 
  51      65125C2A 
  52 0052 954A524E 		.ascii	"\225JRNJ\346\236\363\356}\335\355\273\017iiS\364\217"
  52      4AE69EF3 
  52      EE7DDDED 
  52      BB0F6969 
  52      53F48F
  53 0065 D3EF9CFB 		.ascii	"\323\357\234\373\316y\3379\337\355{\317}\250B\024r\377"
  53      CE79DF39 
  53      DFED7BCF 
  53      7DA84214 
  53      72FF
  54 0077 A7BF9990 		.ascii	"\247\277\231\220\206a\2044\262k:\231Pe\303YB\226\371"
  54      86618434 
  54      B26B3A99 
  54      5065C359 
ARM GAS  /tmp/ccb32klv.s 			page 4


  54      4296F9
  55 008a 2B8A6955 		.ascii	"+\212iUO\342\0100\203\0144\321\034\325l\246~\352\205"
  55      4FE20830 
  55      830C34D1 
  55      1CD56CA6 
  55      7EEA85
  56 009d 8F925363 		.ascii	"\217\222Scb\343\276gO\021v\203\257j?\352\357\247\370"
  56      62E3BE67 
  56      4F117683 
  56      AF6A3FEA 
  56      EFA7F8
  57 00b0 546733BB 		.ascii	"Tg3\273\377g!\314\354\257\344T\015bZ\207\363\221L\353"
  57      FF6721CC 
  57      ECAFE454 
  57      0D625A87 
  57      F3914CEB 
  58 00c4 C0B500D4 		.ascii	"\300\265\000\324\002\270\326\021\265\216\\\013D-\220"
  58      02B8D611 
  58      B58E5C0B 
  58      442D90
  59 00d3 6B41A805 		.ascii	"kA\250\005)\301\250\205\240\026,\260\204(\241h\356\204"
  59      29C1A885 
  59      A0162CB0 
  59      8428A168 
  59      EE84
  60 00e5 E65061EE 		.ascii	"\346Pa\356\244\204!\362pD\036&\314\3414R\275\350\314"
  60      A48421F2 
  60      70441E26 
  60      CCE13452 
  60      BDE8CC
  61 00f8 9147A8C8 		.ascii	"\221G\250\310#T\373Q\377H\245\363\332\243\314\022\020"
  61      2354FB51 
  61      FF48A5F3 
  61      DAA3CC12 
  61      10
  62 0109 5514C4EC 		.ascii	"U\024\304\354Q\034B4F\217\346Z\014j1\\\353\202Z\027"
  62      511C4234 
  62      468FE65A 
  62      0C6A315C 
  62      EB825A17 
  63 011d AEC5A216 		.ascii	"\256\305\242\026\313\2658\324\342\270\026\217Z<\327"
  63      CBB538D4 
  63      E2B8168F 
  63      5A3CD7
  64 012c 12504B50 		.ascii	"\022PKP\272\242fA\255\253\000jQ\022\321\334\015\315"
  64      BAA26641 
  64      ADAB006A 
  64      5112D1DC 
  64      0DCD
  65 013e 89C2DC4D 		.ascii	"\211\302\334MIBs2\232\223\2049\231\207\354\216\346\356"
  65      49427332 
  65      9A938439 
  65      9987EC8E 
  65      E6EE
  66 0150 5CEB815A 		.ascii	"\\\353\201Z\017\256\365D\255'\327z\241\326\213k\275"
  66      0FAEF544 
  66      AD27D77A 
ARM GAS  /tmp/ccb32klv.s 			page 5


  66      A1D68B6B 
  66      BD
  67 0161 51EBADE4 		.ascii	"Q\353\255\344`\315R\260f)\264/\004\247}x\245R\325J\245"
  67      60CD52B0 
  67      6629B42F 
  67      04A77D78 
  67      A552D54A 
  68 0176 AAE6A3FE 		.ascii	"\252\346\243\376}\225>j\245\322\260Ri<\224\025CY\225"
  68      7D953E6A 
  68      A5D2B052 
  68      693C9415 
  68      435995
  69 0189 74D4FAA1 		.ascii	"t\324\372\241\226.p\366S2\320\334\037\315\031\302\334"
  69      962E70F6 
  69      5332D0DC 
  69      1FCD19C2 
  69      DC
  70 019a 9FFB0E40 		.ascii	"\237\373\016@\363\000\256\015Dm \3272Q\313\344\332 "
  70      F300AE0D 
  70      446D20D7 
  70      3251CBE4 
  70      DA20
  71 01ac D406716D 		.ascii	"\324\006qm0j\203\2716\004\265!<\231,L&\213\016\307d"
  71      306A83B9 
  71      3604B521 
  71      3C992C4C 
  71      268B0EC7 
  72 01c1 86F26486 		.ascii	"\206\362d\206\251\311\014S\315G\375\207+C\325d\2621"
  72      A9C90C53 
  72      CD47FD87 
  72      2B43D564 
  72      B231
  73 01d3 996C1E6A 		.ascii	"\231l\036j\004\206\032\241\214Dm\024j\325D\300>J\224"
  73      04861AA1 
  73      8C446D14 
  73      6AD544C0 
  73      3E4A94
  74 01e6 D1383006 		.ascii	"\32180\006\007j\264\201c\204\373\217\305\201O\2112\016"
  74      076AB481 
  74      6384FB8F 
  74      C5814F89 
  74      320E
  75 01f8 D5F1A8D6 		.ascii	"\325\361\250\326j\367\035'\312c80\001\007Nh\003'\211"
  75      6AF71D27 
  75      CA633830 
  75      01074E68 
  75      032789
  76 020b 3211071E 		.ascii	"2\021\007\036\307\201:m\340\024Q\2368oe\003\223\252"
  76      C7813A6D 
  76      E014519E 
  76      386F6503 
  76      93AA
  77 021d 12D8C069 		.ascii	"\022\330\300im\240\236\320'\325\2533\332\325YB)\\\021"
  77      6DA09ED0 
  77      27D5AB33 
  77      DAD55942 
  77      295C11
ARM GAS  /tmp/ccb32klv.s 			page 6


  78 0230 4A962A26 		.ascii	"J\226*&\263\217\257\237\177\207\200\216\201A\301!\241"
  78      B38FAF9F 
  78      7F87808E 
  78      8141C121 
  78      A1
  79 0241 9DC2C23B 		.ascii	"\235\302\302;GDFE\307t\211\215\213O\350jI\354\226\224"
  79      47444645 
  79      C774898D 
  79      8B4FE86A 
  79      49EC9694 
  80 0255 DCBD47CF 		.ascii	"\334\275G\317^\275S\372\244\366M\263\246\367\313\350"
  80      5EBD53FA 
  80      A4F64DB3 
  80      A6F7CBE8 
  81 0265 3F6060E6 		.ascii	"?``\346\240\301C\262\206\016\033\236=\242\232\034%5"
  81      A0C143B2 
  81      860E1B9E 
  81      3DA29A1C 
  81      2535
  82 0277 E418F994 		.ascii	"\344\030\371\224\324\222\343\344\0049I\352\310)r\232"
  82      D492E3E4 
  82      043949EA 
  82      C829729A 
  83 0287 D4933384 		.ascii	"\324\2233\204=e\351t\012\213\210\271\033y\307\341\330"
  83      3D65E974 
  83      0A8B88B9 
  83      1B79C7E1 
  83      D8
  84 0298 D058DCDC 		.ascii	"\320X\334\334\250\274\265\251z\305v\307o\315\315\224"
  84      A8BCB5A9 
  84      7AC576C7 
  84      6FCDCD94 
  85 02a8 DA295B70 		.ascii	"\332)[p\372Sb\243\344y\246P\013~)f\367\025H\365\255"
  85      FA5362A3 
  85      E479A650 
  85      0B7E2966 
  85      F71548F5 
  86 02bd 3E727C4D 		.ascii	">r|M\214c\373\362\015\216{\314\325NM\012\311j\215g\365"
  86      8C63FBF2 
  86      0D8E7BCC 
  86      D54E4D0A 
  86      C96A8D67 
  87 02d2 06C727B3 		.ascii	"\006\307'\263N:VT77\217@\257\021\255z\336\306\352\177"
  87      4E3A5654 
  87      37378F40 
  87      AF11AD7A 
  87      DEC6EA7F 
  88 02e6 AD5CE7FA 		.ascii	"\255\\\347\372<\263B\306>\310\263B\251nln\256\257|\357"
  88      3CB342C6 
  88      3EC8B342 
  88      A96E6C6E 
  88      AEAF7CEF 
  89 02fa 4A150DBF 		.ascii	"J\025\015\277\251P\222Kw\321n,G\365\333\304\277\315"
  89      A950924B 
  89      77D16E2C 
  89      47F5DBC4 
  89      BFCD
ARM GAS  /tmp/ccb32klv.s 			page 7


  90 030c FC3B88D8 		.ascii	"\374;\210\330\251O\010\2100&\314\341L\220\0106\366."
  90      A94F0888 
  90      3026CCE1 
  90      4C900836 
  90      F62E
  91 031e 1B8B0473 		.ascii	"\033\213\004s4\210\030~w,\037\211\003c\002\010\013\267"
  91      3488187E 
  91      772C1F89 
  91      03630208 
  91      0BB7
  92 0330 24829204 		.ascii	"$\202\222\004\242\007\267\364\002%\005D*\267\364\005"
  92      A207B7F4 
  92      02250544 
  92      2AB7F405 
  93 0340 C50A2283 		.ascii	"\305\012\"\203[\006\200\222\011b0\210,\020\331 F\202"
  93      5B068092 
  93      09623088 
  93      2C10D920 
  93      4682
  94 0352 18CB84EF 		.ascii	"\030\313\204\3578\020\343A\235\000b\022\367\314\001"
  94      3810E341 
  94      9D006212 
  94      F7CC01
  95 0361 653288A7 		.ascii	"e2\210\247\230\345\035fy\232)~S8\320\2510\362\034d4"
  95      98E51D66 
  95      799A297E 
  95      5338D0A9 
  95      30F21C64 
  96 0376 0D329ACE 		.ascii	"\0152\232\316\275^\000\363\213 ^\342\226\031\240\344"
  96      BD5E00F3 
  96      8B205EE2 
  96      9619A0E4 
  97 0386 8298090F 		.ascii	"\202\230\011\017\262\201\230\005\352\313 \362A-\000"
  97      B2819805 
  97      EACB20F2 
  97      412D00
  98 0395 61077536 		.ascii	"a\007u6\210B\3569\007\224y \026p\313\"P^\001\261\030"
  98      8842EE39 
  98      07947920 
  98      1670CB22 
  98      505E01B1 
  99 03aa C412104B 		.ascii	"\304\022\020KA,\243 \213A\372\256DY\202\226\325(\327"
  99      412CA320 
  99      8B41FAAE 
  99      44598296 
  99      D528D7
 100 03bd 51EEBF1E 		.ascii	"Q\356\277\036\325\327Q\276!\214\233P-EY&\214o\241\272"
 100      D5D751BE 
 100      218C9B50 
 100      2D455926 
 100      8C6FA1BA 
 101 03d1 05E55661 		.ascii	"\005\345Va\334\206\352v\224;\204\361=Tw\242\334\205"
 101      DC86EA76 
 101      943B84F1 
 101      3D5477A2 
 101      DC85
 102 03e3 8FDE8D72 		.ascii	"\217\336\215r\017Z\312Q\356\0237\357G\365\000\312J\312"
ARM GAS  /tmp/ccb32klv.s 			page 8


 102      0F5ACA51 
 102      EE1337EF 
 102      47F500CA 
 102      4ACA
 103 03f5 EB7A1054 		.ascii	"\353z\020T\277\217\305D:\204\243\207QV\241\254FY\203"
 103      BF8FC544 
 103      3A84A387 
 103      5156A1AC 
 103      465983
 104 0408 B216831F 		.ascii	"\262\026\203\037Gy\002-u(\353\305#\316\240z\016\345"
 104      4779022D 
 104      7528EBC5 
 104      23CEA07A 
 104      0EE5
 105 041a E7C2F805 		.ascii	"\347\302\370\005\252\347Q~%\214_\243z\001\345%a\274"
 105      AAE7517E 
 105      258C5FA3 
 105      7A01E525 
 105      61BC
 106 042c 8CEA3728 		.ascii	"\214\3527(\033\205\361\012\252WQ~\213\217\276\206\262"
 106      1B85F10A 
 106      AA57517E 
 106      8B8FBE86 
 106      B2
 107 043d 092DDFA3 		.ascii	"\011-\337\243\274.n\276\201\352-\224\267E\216w0\307"
 107      BC2E6EBE 
 107      81EA2D94 
 107      B7458E77 
 107      30C7
 108 044f 9F448E3F 		.ascii	"\237D\216?\343\350\257(\357\242\274\207\322\241\200"
 108      E3E8AF28 
 108      EFA2BC87 
 108      D2A180
 109 045e 2C02E9BB 		.ascii	",\002\351\273\002e1ZJP\276\206r\015\312\015(7\242,\305"
 109      0265315A 
 109      4A50BE86 
 109      720DCA0D 
 109      2837A22C 
 110 0473 3BDF4459 		.ascii	";\337DY\206\226\315(\267\241\345m\224\333\321\262\003"
 110      8696CD28 
 110      B7A1E56D 
 110      94DBD1B2 
 110      03
 111 0484 E52E9064 		.ascii	"\345.\220d7\312=(?@Y\216r/\312\017Q\356CY\201r?\312"
 111      37CA3D28 
 111      3F40598E 
 111      722FCA0F 
 111      51EE4359 
 112 049c 8F503688 		.ascii	"\217P6\210_\373eq\301>>d\005[\302,j\025r\351\373(\325"
 112      5FFB6571 
 112      C13E3E64 
 112      055BC22C 
 112      6A1572E9 
 113 04b3 311B2E90 		.ascii	"1\033.\220\3172y+\231L\245\012\3732\235%\313o\257;v"
 113      CF32792B 
 113      994CA50A 
 113      FB329D25 
ARM GAS  /tmp/ccb32klv.s 			page 9


 113      CB6FAF3B 
 114 04c8 608D89FB 		.ascii	"`\215\211\373\021v\367\036\352Cp\301\246\244\204\232"
 114      1176F71E 
 114      EA4370C1 
 114      A6A4849A 
 115 04d8 A05133A9 		.ascii	"\240Q3\251\335Z\002)\243[\035e#\355\324\037TX\227:X"
 115      DD5A0229 
 115      A35B1D65 
 115      23EDD41F 
 115      5458973A 
 116 04ed E04A1BDF 		.ascii	"\340J\033\337\302\307\003\324U\352\014Y~\270\266\242"
 116      C2C703D4 
 116      55EA0C59 
 116      7EB8B6A2 
 117 04fd F493DA60 		.ascii	"\364\223\332`B\362\351.e\013\331\274\314\341\010\265"
 117      42F2E92E 
 117      650BD9BC 
 117      CCE108B5 
 118 050d D38E4BC8 		.ascii	"\323\216K\310]\307*G\343\267?D\333i`!\025O\205\220A"
 118      5DC72A47 
 118      E3B73F44 
 118      DB696021 
 118      154F8590 
 119 0522 C9C2B9E8 		.ascii	"\311\302\271\350\234I\265\347\323 p\207Q\002\330\316"
 119      9C49B5E7 
 119      D3207087 
 119      5102D8CE 
 120 0532 111F3110 		.ascii	"\021\0371\020\242Fb1\203m\024\023\304 f\012Nv\032B\330"
 120      A2466231 
 120      836D1413 
 120      C420660A 
 120      4E761A42 
 121 0547 3EB1E23A 		.ascii	">\261\342:\325n\207A\037\327\225t*K\361P\030\024\342"
 121      D56E8741 
 121      1FD79574 
 121      2A4BF150 
 121      1814E2
 122 055a 235688C0 		.ascii	"#V\210\300\026\353\220K\367\262\013\314\233\270\344"
 122      16EB904B 
 122      F7B20BCC 
 122      9BB8E4
 123 0569 9D4B2B68 		.ascii	"\235K+h\202kD3\217H\275\022\315\207Tg\233X5V\035;}\371"
 123      826B4433 
 123      8F48BD12 
 123      CD875467 
 123      9B583556 
 124 0581 B69FC824 		.ascii	"\266\237\310$,\237R\314t\264Z\350\033E\007\264,\303"
 124      2C9F52CC 
 124      74B45AE8 
 124      1B4507B4 
 124      2CC3
 125 0593 D9305469 		.ascii	"\3310Tieu\027a\212\320\352\024j\243j\357\255Z\034\323"
 125      65751761 
 125      8AD0EA14 
 125      6AA36AEF 
 125      AD5A1CD3 
 126 05a7 DD1860CE 		.ascii	"\335\030`\316\020\265Ss\263\211\315\2610\225\206\242"
ARM GAS  /tmp/ccb32klv.s 			page 10


 126      10B55373 
 126      B389CDB1 
 126      309586A2 
 127 05b7 1FD76A05 		.ascii	"\037\327j\005\217d\261\220\010\342ND\264\001\021\012"
 127      8F64B190 
 127      08E24E44 
 127      B401110A 
 128 05c7 F8E88988 		.ascii	"\370\350\211\210\226\020\341K\032\206b\242E\377];Q\334"
 128      9610E14B 
 128      1A8662A2 
 128      45FF5D3B 
 128      51DC
 129 05d9 1823F2A4 		.ascii	"\030#\362\244\332}~\204u\024&\026\356\3322\255\034\352"
 129      DA7D7E84 
 129      75142616 
 129      EEDA32AD 
 129      1CEA
 130 05eb 3D262DDA 		.ascii	"=&-\332\005\242ZXG\260\333\304\242\370\226u\000W\177"
 130      05A25A58 
 130      47B0DBC4 
 130      A2F89675 
 130      00577F
 131 05fe F2598889 		.ascii	"\362Y\210\211\025\246\261\252\310W\270\306\272\226\306"
 131      15A6B1AA 
 131      C857B8C6 
 131      BA96C6
 132 060d E45A9A19 		.ascii	"\344Z\232\031\272\311i\032E$\345\371e\2556Q\343X<Yy"
 132      BAC9691A 
 132      4524E5F9 
 132      65AD3651 
 132      E3583C59 
 133 0622 120CCA63 		.ascii	"\022\014\312c\002\037}y\022$\345\351@>5#\366SN\354\026"
 133      021F7D79 
 133      1224E5E9 
 133      403E3523 
 133      F6534EEC 
 134 0637 435AA7EA 		.ascii	"CZ\247\352\261?\217_\341\324\005y\305:\015y\"\213\206"
 134      B13F8F5F 
 134      E1D40579 
 134      C53A0D79 
 134      228B86
 135 064a C89BC587 		.ascii	"\310\233\305\207.uK!\311 \00538\353SH\222\244\020@v"
 135      2E754B21 
 135      C9200533 
 135      38EB5348 
 135      92A41040 
 136 065f 538F7F6A 		.ascii	"S\217\177j\026\371\217\343\034)\276\365\305?\377$\036"
 136      16F98FE3 
 136      1C29BEF5 
 136      C53FFF24 
 136      1E
 137 0670 D74343D7 		.ascii	"\327CC\327\331F\315\256\225\230&\253\204\235F\020\322"
 137      D946CDAE 
 137      959826AB 
 137      849D4610 
 137      D2
 138 0681 BAD5EFC1 		.ascii	"\272\325\357\301\277S(\345\261\272&-\365^\014N\213\245"
ARM GAS  /tmp/ccb32klv.s 			page 11


 138      BF5328E5 
 138      B1BA262D 
 138      F55E0C4E 
 138      8BA5
 139 0693 4C312825 		.ascii	"L1(%:\353K\231\")eG\322\017'C\203s2\244z2\221%\223\241"
 139      3AEB4B99 
 139      22296547 
 139      D20F2743 
 139      837332A4 
 140 06ad C93919FA 		.ascii	"\3119\031\372\262h-f`5\310\300\027\234\365\031X%\031"
 140      B2682D66 
 140      6035C8C0 
 140      179CF519 
 140      582519
 141 06c0 0492606F 		.ascii	"\004\222`o\316\205\003G\264\271\220\341:\027|\\\013"
 141      CE850347 
 141      B4B990E1 
 141      3A177C5C 
 141      0B
 142 06d1 F197DF69 		.ascii	"\361\227\337i.\334\3202\037\300\340\264X\311L\203J\372"
 142      2EDCD032 
 142      1FC0E0B4 
 142      58C94C83 
 142      4AFA
 143 06e3 81B3BE92 		.ascii	"\201\263\276\222\231\222J\006\021\263\267*\351\276e"
 143      99924A06 
 143      11B3B72A 
 143      E9BE65
 144 06f2 EFD66FD9 		.ascii	"\357\326o\331\265w[\271e\017\006w\331R\230e\220\260"
 144      B5775BB9 
 144      650F0677 
 144      D9529865 
 144      90B0
 145 0704 3F38E913 		.ascii	"?8\351\023\316\222$\034LL\336\335\261C\010\365\306\206"
 145      CE92241C 
 145      4C4CDEDD 
 145      B14308F5 
 145      C686
 146 0716 ED498896 		.ascii	"\355I\210\226\011\370A%`\217\244g\222\021\020-! \033"
 146      09F84125 
 146      608FA467 
 146      9211102D 
 146      21201B
 147 0729 DC653DD3 		.ascii	"\334e=\323H\003\002:\200\223\236\200\221\022\002B\211"
 147      4803023A 
 147      80939E80 
 147      91120242 
 147      89
 148 073a E7EB788B 		.ascii	"\347\353x\213\004tbC\355\206\200\213\365\373CD\366c"
 148      04746243 
 148      ED86808B 
 148      F5FB4344 
 148      F663
 149 074c FB9014D6 		.ascii	"\373\220\024\326\272k4Dj\305\003\016x\351\002\321s\246"
 149      BA6B3444 
 149      6AC5030E 
 149      78E902D1 
ARM GAS  /tmp/ccb32klv.s 			page 12


 149      73A6
 150 075e 685120C6 		.ascii	"hQ \306\013\"\3008O\002P-\200\013\221\343\031\012\026"
 150      0B22C038 
 150      4F02502D 
 150      800B91E3 
 150      190A16
 151 0771 C78DC309 		.ascii	"\307\215\303\011\006\034\006\300\375z\016'H8\014SK\356"
 151      061C06C0 
 151      FD7A0E27 
 151      48380C53 
 151      4BEE
 152 0783 3D0EC3BD 		.ascii	"=\016\303\275\303\241\032\2543\233al\177\273\265\343"
 152      C3A11AAC 
 152      339B616C 
 152      7FBBB5E3 
 153 0793 930291C4 		.ascii	"\223\002\221\304$-\347(\033k\026\341\303\227\365?\270"
 153      242DE728 
 153      1B6B16E1 
 153      C397F53F 
 153      B8
 154 07a4 FD229690 		.ascii	"\375\"\226\220\277\261\202\213\303\217\366#\341M[4\337"
 154      BFB1828B 
 154      C38FF623 
 154      E14D5B34 
 154      DF
 155 07b5 ED6EAED7 		.ascii	"\355n\256\327\212\231\303b\313V\252\311\006E\356\010"
 155      8A99C362 
 155      CB56AAC9 
 155      0645EE08 
 156 07c5 3EFA224F 		.ascii	">\372\"O\226\0249\202\245\301f"
 156      96143982 
 156      A5C166
 157 07d0 435D5973 		.ascii	"C]Ys\243\"\356{J\205\206\323\344G\215\345\247\331\000"
 157      A322EE7B 
 157      4A8586D3 
 157      E4478DE5 
 157      A7D900
 158 07e3 3CDD2CAA 		.ascii	"<\335,\252\246=<\306\306Z^\370\260\233\354\264\013\342"
 158      A63D3CC6 
 158      C65A5EF8 
 158      B09BECB4 
 158      0BE2
 159 07f5 5F55D4B4 		.ascii	"_U\324\264~\270p\235\222O\225\373z\344H\366\\\367\016"
 159      7EB8709D 
 159      924F95FB 
 159      7AE448F6 
 159      5CF70E
 160 0808 59E1CD9A 		.ascii	"Y\341\315\232\370\\ \012\357\220\303\241C\236\022\321"
 160      F85C200A 
 160      EF90C3A1 
 160      439E12D1 
 161 0818 E0078E51 		.ascii	"\340\007\216Q\214\022\266\2356\336\263\011\307\251\032"
 161      8C12B69D 
 161      36DEB309 
 161      C7A91A
 162 0827 90589B7A 		.ascii	"\220X\233z\362S\253\020\210\010\331b\024\227@.\362\203"
 162      F253AB10 
ARM GAS  /tmp/ccb32klv.s 			page 13


 162      8808D962 
 162      1497402E 
 162      F283
 163 0839 5FBC28B8 		.ascii	"_\274(\270\035\330t\253\316TIu\030\027j\303_\261IK\346"
 163      1DD874AB 
 163      CE544975 
 163      18176AC3 
 163      5FB1494B 
 164 084e 3901553B 		.ascii	"9\001U;\330|\240\305\230\306\206\325\203M\2640Moe\007"
 164      D87CA0C5 
 164      98C686D5 
 164      834DB430 
 164      4D6F6507 
 165 0862 CC9C259D 		.ascii	"\314\234%\235{\345&\255\376/\260X\262I\360\242\301$"
 165      7BE526AD 
 165      FE2FB058 
 165      B249F0A2 
 165      C124
 166 0874 08021FFD 		.ascii	"\010\002\037\375$xQ\222f\014\326te\343\332b\255W{\311"
 166      24785192 
 166      660CD674 
 166      65E3DA62 
 166      AD577BC9 
 167 0888 702E4F7B 		.ascii	"p.O{\210\271|\304\231\306\014\026[\226F\256A\032\301"
 167      88B97CC4 
 167      99C60C16 
 167      5B9646AE 
 167      411AC1
 168 089b E0A34F23 		.ascii	"\340\243O#W\222F\027dk\371\305\357\336\325n\233\351"
 168      57924617 
 168      646BF9C5 
 168      EFDED56E 
 168      9BE9
 169 08ad C9E226FE 		.ascii	"\311\342&\376\344\343\272:\332\332\274:\316b(X\034\267"
 169      E4E3BA3A 
 169      DADABC3A 
 169      CE622858 
 169      1CB7
 170 08bf 645F3648 		.ascii	"d_6H6\004\356\327'\373\262$\331X\236\354\252\235\332"
 170      3604EED7 
 170      27FBB224 
 170      D9589EEC 
 170      AA9DDA
 171 08d2 6DF96D4D 		.ascii	"m\371mM\266\340\341\366\022\227d\355\014\005\213\343"
 171      B6E0E1F6 
 171      129764ED 
 171      0C058BE3 
 172 08e2 96EC6C83 		.ascii	"\226\354l\203dC\341~}\262\263%\311\306\361\011\272\325"
 172      6443E17E 
 172      7DB2B325 
 172      C9C6F109 
 172      BAD5
 173 08f4 39410BDB 		.ascii	"9A\013\3336A\361`!\246\347\377\234\323s\016\213\334"
 173      3641F160 
 173      21A6E7FF 
 173      9CD3730E 
 173      8BDC
ARM GAS  /tmp/ccb32klv.s 			page 14


 174 0906 623B3CCF 		.ascii	"b;<\317 \233N\340\254\317f\236$\233\370\207\330\330"
 174      209B4EE0 
 174      ACCF669E 
 174      249BF887 
 174      D8D8
 175 0918 2C30243F 		.ascii	",0$?X,\377R;X,\320\300u\265\361\375K\372\026ER\024;"
 175      582CFF52 
 175      3B582CD0 
 175      C075B5F1 
 175      FD4BFA16 
 176 0930 B578F990 		.ascii	"\265x\371\220\261\372KmGY\304\240\265X\325W\014\252"
 176      B1FA4B6D 
 176      4759C4A0 
 176      B558D557 
 176      0CAA
 177 0942 1A06CEFA 		.ascii	"\032\006\316\372\252\276\"\251j\202\367\252\352~\310"
 177      AABE22A9 
 177      6A82F7AA 
 177      EA7EC8
 178 0951 F840D2E3 		.ascii	"\370@\322\343\226\307\264\356\220\261\030\334e=\356"
 178      96C7B4EE 
 178      90B118DC 
 178      653DEE
 179 0960 128384C3 		.ascii	"\022\203\204\303\301I\237\360\022I\302]\275\335\037"
 179      C1499FF0 
 179      1249C25D 
 179      BDDD1F
 180 096f 59DA538F 		.ascii	"Y\332S\217\353r\310(\327\023P\274OB\200\354\220\261"
 180      EB72C828 
 180      D71350BC 
 180      4F4280EC 
 180      90B1
 181 0981 14DC65FB 		.ascii	"\024\334e\373\3152j\300@g\360\3223\260\214J(H\3646\005"
 181      CD326AC0 
 181      4067F0D2 
 181      33B08C4A 
 181      2848F436 
 182 0996 DDDA1305 		.ascii	"\335\332\023\005\027\353\257F\210\364\213i[\317\031"
 182      17EBAF46 
 182      88F48B69 
 182      5BCF19
 183 09a5 2B3D8A20 		.ascii	"+=\212 \335JK(\000\201PnT\2566\2422\002}\364\\\256\226"
 183      DD4A4B28 
 183      0081506E 
 183      54AE36A2 
 183      32027DF4 
 184 09bc 7199E46D 		.ascii	"q\231\344m.\223\333\015\227\260K\334\371Z\333%\3269"
 184      2E93DB0D 
 184      97B04BDC 
 184      F95ADB25 
 184      D639
 185 09ce EBD58A77 		.ascii	"\353\325\212w\221\243\324\367O\270Q\276[\252q\261\236"
 185      91A3D4F7 
 185      4FB851BE 
 185      5BAA71B1 
 185      9E
 186 09df 4220D92F 		.ascii	"B \331/\353u#:\"\321MO\307\3532:\272\363>\277\316\271"
ARM GAS  /tmp/ccb32klv.s 			page 15


 186      EB75233A 
 186      22D14D4F 
 186      C7EB323A 
 186      BAF33EBF 
 187 09f5 E5BFE111 		.ascii	"\345\277\341\021\356\321.\270\313\235\2707Q\010$\303"
 187      EED12EB8 
 187      CB9DB837 
 187      510824C3 
 188 0a05 5D6A843B 		.ascii	"]j\204;\012\335\364\270Ke\270{p\334\247\235\270\313"
 188      0ADDF4B8 
 188      4B65B87B 
 188      70DCA79D 
 188      B8CB
 189 0a17 3CC23DC6 		.ascii	"<\302=\306\005w\245\023\367[\024\002\311po1\302\035"
 189      0577A513 
 189      F75B1402 
 189      C9706F31 
 189      C21D
 190 0a29 8D6E7ADC 		.ascii	"\215nz\334[d\270{r\334g\234\270\267z\204{\254\013\356"
 190      5B64B87B 
 190      72DC679C 
 190      B8B77A84 
 190      7BAC0BEE 
 191 0a3d 234EDCDB 		.ascii	"#N\334\333(\004\222\341\336n\204;\006\335\364\270\267"
 191      280492E1 
 191      DE6E843B 
 191      06DDF4B8 
 191      B7
 192 0a4e CB70F7E2 		.ascii	"\313p\367\342\270\3179q\357\360\010\367\270G\361~\365"
 192      B8CF3971 
 192      EFF008F7 
 192      B847F17E 
 192      F5
 193 0a5f BAD6FABC 		.ascii	"\272\326\372\274G\001\220,\377\235F\371wA7}\376;e\371"
 193      4701902C 
 193      FF9D46F9 
 193      7741377D 
 193      FE3B65F9 
 194 0a73 F7E6E780 		.ascii	"\367\346\347\200\223\037k\367\355j\363Z\275\273\355"
 194      931F6BF7 
 194      ED6AF35A 
 194      BDBBED
 195 0a82 6BF51E0A 		.ascii	"k\365\036\012@ \224[\322\345FI\307\242\217>\351rY\322"
 195      4020945B 
 195      D2E54649 
 195      C7A28F3E 
 195      E97259D2 
 196 0a96 29507972 		.ascii	")Pyr\2014\210W\004\275\253.\025\300@\037u\315\365\214"
 196      81348857 
 196      04BDAB2E 
 196      15C0401F 
 196      75CDF58C 
 197 0aaa 498B9C49 		.ascii	"I\213\234I\374\003\316%\355\355\316>j\330\\\377\361"
 197      FC03CE25 
 197      EDEDCE3E 
 197      6AD85CFF 
 197      F1
ARM GAS  /tmp/ccb32klv.s 			page 16


 198 0abb F76FAE4F 		.ascii	"\367o\256O\337|F\000\333O\001\234l\206\0350*v\034\272"
 198      DF7C4600 
 198      DB4F019C 
 198      6C861D30 
 198      2A761CBA 
 199 0acf E98B7D40 		.ascii	"\351\213}@V\354Tu\206\325\225\035\376\2176\253+\251"
 199      56EC5475 
 199      86D5951D 
 199      FE8F36AB 
 199      2BA9
 200 0ae1 F41DD141 		.ascii	"\364\035\321A\012C\017|Kt\220:_\023\335,\325\336\254"
 200      0A430F7C 
 200      4B74903A 
 200      5F13DD2C 
 200      D5DEAC
 201 0af4 7CCCBC4D 		.ascii	"|\314\274M\367\275'\352\313\212\343\376\236\310\244"
 201      F7BD27EA 
 201      CB8AE3FE 
 201      9EC8A4
 202 0b03 7B4F64CA 		.ascii	"{Od\312\247\015J\012\205\000\251\352K\2424\276(\374"
 202      A70D4A0A 
 202      8500A9EA 
 202      4BA234BE 
 202      28FC
 203 0b15 9027BC0E 		.ascii	"\220'\274\0169K\341\376\226(\336\263\267D\207d\025\262"
 203      394BE1FE 
 203      9628DEB3 
 203      B7448764 
 203      15B2
 204 0b27 3EAAA3C7 		.ascii	">\252\243\307^\311\321\343p+\217\036\207)\370\313\316"
 204      5EC9D1E3 
 204      702B8F1E 
 204      8729F8CB 
 204      CE
 205 0b38 1E5546D3 		.ascii	"\036UF\323\"\001\335\364\323\242J\226t\272\267\373\245"
 205      2201DDF4 
 205      D3A24A96 
 205      74BAB7FB 
 205      A5
 206 0b49 7EEDA65F 		.ascii	"~\355\246_r?~|(9~\034i\345\361\243\232\202\277\354\267"
 206      723F7E7C 
 206      28397E1C 
 206      69E5F1A3 
 206      9A82BFEC 
 207 0b5e 59634442 		.ascii	"YcDBWt\323\223P##!\303\333$\364\367\016\011xz8\030%"
 207      5774D393 
 207      50232321 
 207      C3DB24F4 
 207      F70E0978 
 208 0b76 B0D7B679 		.ascii	"\260\327\266yG:\336\366\035\351\004\005 \020\312\215"
 208      473ADEF6 
 208      1DE90405 
 208      2010CA8D 
 209 0b86 883A2322 		.ascii	"\210:#\",\350\243'\242NF\304\000/\277\323\371\267\326"
 209      2CE8A327 
 209      A24E46C4 
 209      002FBFD3 
ARM GAS  /tmp/ccb32klv.s 			page 17


 209      F9B7D6
 210 0b99 ADD7BB75 		.ascii	"\255\327\273u3\017\372k\3618\227.\254\351M-\3673\024"
 210      330FFA6B 
 210      F138972E 
 210      ACE94D2D 
 210      F73314
 211 0bac 02C9E6E1 		.ascii	"\002\311\346\3419\243\364\023\321M\237\3769Y\372\003"
 211      39A3F413 
 211      D14D9FFE 
 211      3959FA03 
 212 0bbc F9827BD7 		.ascii	"\371\202{\327\331\205}\356\021n\327\356\361\246\023"
 212      D9857DEE 
 212      116ED7EE 
 212      F1A613
 213 0bcb F7171402 		.ascii	"\367\027\024\002\311p\2377\302\335\015\335\364\270\317"
 213      C9709F37 
 213      C2DD0DDD 
 213      F4B8CF
 214 0bda CB706772 		.ascii	"\313pgr\334\2779q\177\345\021n\327n\375\027'\356\257"
 214      DCBF3971 
 214      7FE5116E 
 214      D76EFD17 
 214      27EEAF
 215 0bed 290492E1 		.ascii	")\004\222\341\276`\204;\011\335\364\270/\310p\017\022"
 215      BE60843B 
 215      09DDF4B8 
 215      2FC8700F 
 215      12
 216 0bfe 7F0571E2 		.ascii	"\177\005q\342\276\344\021n\327\323Q\263\023\367e\012"
 216      BEE4116E 
 216      D7D351B3 
 216      13F7650A 
 217 0c0e 8164B8BF 		.ascii	"\201d\270\2771\302\235\214nz\334\337\310p\017\346\270"
 217      31C29D8C 
 217      6E7ADCDF 
 217      C8700FE6 
 217      B8
 218 0c1f 579568B8 		.ascii	"W\225h\270\033=\302=\352\021t\353\253k\265\374\257P"
 218      1B3DC23D 
 218      EA1174EB 
 218      AB6BB5FC 
 218      AF50
 219 0c31 0024CBFF 		.ascii	"\000$\313\377\252Q\376\335\321M\237\377UY\376C\304\237"
 219      AA51FEDD 
 219      D14D9FFF 
 219      5559FE43 
 219      C49F
 220 0c43 28AE68F7 		.ascii	"(\256h\367}\333\346\265\361Z\333\327\306&\012@ \224"
 220      7DDBE6B5 
 220      F15ADBD7 
 220      C6260A40 
 220      2094
 221 0c55 5BD2DF1B 		.ascii	"[\322\337\033%\335\003}\364I\177/K:\213w\353\227E\267"
 221      25DD037D 
 221      F4497F2F 
 221      4B3A8B77 
 221      EB9745B7 
ARM GAS  /tmp/ccb32klv.s 			page 18


 222 0c69 3EA4FE36 		.ascii	">\244\3766v\353C\275\334\255_\271\255u\353\327\333U"
 222      76EB43BD 
 222      DCAD5FB9 
 222      AD75EBD7 
 222      DB55
 223 0c7b B7FEF7FA 		.ascii	"\267\376\367\372)\002\330\015\012\340d3\354\226Q\261"
 223      2902D80D 
 223      0AE06433 
 223      EC9651B1 
 224 0c8b 7BA29BBE 		.ascii	"{\242\233\276\330\267d\305\036\306\273\365C\327\234"
 224      D8B764C5 
 224      1EC6BBF5 
 224      43D79C
 225 0c9a DDFA6D79 		.ascii	"\335\372my\267~\207\302\320\003\273\365;.\335z\345?"
 225      B77E87C2 
 225      D003BBF5 
 225      3B2EDD7A 
 225      E53F
 226 0cac B46EFD27 		.ascii	"\264n\375'\346m\276\257[\037\256\353\326\315\272n\335"
 226      E66DBEAF 
 226      5B1FAEEB 
 226      D6CDBA6E 
 226      DD
 227 0cbd CC960B25 		.ascii	"\314\226\013%\213B\200aj\267\236\315\027\205-\371\302"
 227      8B428061 
 227      6AB79ECD 
 227      17852DF9 
 227      C2
 228 0cce EB67A36E 		.ascii	"\353g\243n\275\227g\335\372\317\262\012\215xT\335\372"
 228      BD9767DD 
 228      FACFB20A 
 228      8D7854DD 
 228      FA
 229 0cdf 3E49A3D8 		.ascii	">I\243\330\324\312n\375W8\304I\273\365\273F\323\242"
 229      D4CA6EFD 
 229      5738C449 
 229      BBF5BB46 
 229      D3A2
 230 0cf1 37BAE9A7 		.ascii	"7\272\351\247\305]Y\322#\275\335(\216j\247\335z\205"
 230      C55D59D2 
 230      23BDDD28 
 230      8E6AA7DD 
 230      7A85
 231 0d03 9E84F765 		.ascii	"\236\204\367e$\310\272\365{\024\374e\277M\207b@B\012"
 231      24C8BAF5 
 231      7B14FC65 
 231      BF4D8762 
 231      40420A
 232 0d16 BAE94970 		.ascii	"\272\351Ip(\022\022F{\233\2041^\354\326\177\215\023"
 232      28121246 
 232      7B9B8431 
 232      5EECD67F 
 232      8D13
 233 0d28 D88B94B6 		.ascii	"\330\213\224\266\356H+<\212 \335\221\212\025\000\002"
 233      EE482B3C 
 233      8A20DD91 
 233      8A150002 
ARM GAS  /tmp/ccb32klv.s 			page 19


 234 0d38 A1DC8828 		.ascii	"\241\334\210(1\"\242\017\372\350\211(\221\0211\026W"
 234      3122A20F 
 234      FAE88928 
 234      91113116 
 234      57
 235 0d49 9C158DE5 		.ascii	"\234\025\215\345%~\272\225/\321\306\377{\000X\374\335"
 235      257EBA95 
 235      2FD1C6FF 
 235      7B0058FC 
 235      DD
 236 0d5a 268E1DD6 		.ascii	"&\216\035\326PomX\356k\307~\311\332q\243\225k\307k\012"
 236      506F6D58 
 236      EE6BC77E 
 236      C9DA71A3 
 236      956BC76B 
 237 0d6f F8CBD68E 		.ascii	"\370\313\326\2165F\325JE7}\265\326\310\2525\316\333"
 237      3546D54A 
 237      45377DB5 
 237      D6C8AA35 
 237      CEDB
 238 0d81 D3767C3B 		.ascii	"\323v|;];>\222\254\0352\022dk\307\006\005\374ek\307"
 238      5D3B3E92 
 238      AC1D3212 
 238      646BC706 
 238      05FC656B 
 239 0d96 462312FA 		.ascii	"F#\022\372\242\233\236\204\2152\022\036\3636\011\023"
 239      A29B9E84 
 239      8D32121E 
 239      F3360913 
 240 0da6 DA130917 		.ascii	"\332\023\011\027\353\277\213\027\351\227z\264x\310\376"
 240      EBBF8B17 
 240      E9977AB4 
 240      78C8FE
 241 0db5 1DCB9B6D 		.ascii	"\035\313\233m_~\312\024\000\002\241\334\270\334l\304"
 241      5F7ECA14 
 241      0002A1DC 
 241      B8DC6CC4 
 242 0dc5 651AFAE8 		.ascii	"e\032\372\350\271\334,\343r\242\267\271|\274}qy]\343"
 242      B9DC2CE3 
 242      72A2B7B9 
 242      7CBC7D71 
 242      795DE3
 243 0dd8 725B9BB9 		.ascii	"r[\233\271|\373!7#\027.\267+\000\004B\271q\271\303\210"
 243      7CFB2137 
 243      23172EB7 
 243      2B000442 
 243      B971B9C3 
 244 0ded 4B2BFAE8 		.ascii	"K+\372\350\271\334!\343\362\011os9\311[{z\315\217\374"
 244      B9DC21E3 
 244      F2096F73 
 244      39C95B7B 
 244      7ACD8FFC 
 245 0e01 00A036FF 		.ascii	"\000\2406\377\003H\245c\025\034\241\265'\345\300\377"
 245      0348A563 
 245      151CA1B5 
 245      27E5C0FF 
 246 0e11 B083FBEA 		.ascii	"\260\203\373\352\367\006\265|\347\223p\347\347d\231"
ARM GAS  /tmp/ccb32klv.s 			page 20


 246      F706B57C 
 246      E79370E7 
 246      E76499
 247 0e20 BF13E8B3 		.ascii	"\277\023\350\263\254b\267\222\341\251\351\326\202\271"
 247      AC62B792 
 247      E1A9E9D6 
 247      82B9
 248 0e2e 857956DB 		.ascii	"\205yV\333\334Y\213\255\263\362\376j\265\025\330g\332"
 248      DC598BAD 
 248      B3F2FE6A 
 248      B515D867 
 248      DA
 249 0e3f E72EB02E 		.ascii	"\347.\260.\234\277h\316l\353\302\274\005\013\255\363"
 249      9CBF68CE 
 249      6CEBC2BC 
 249      050BADF3 
 250 0e4f 17E277E1 		.ascii	"\027\342w\341\314\271\257\246\331\210o\341\202\374\214"
 250      CCB9AFA6 
 250      D9886FE1 
 250      82FC8C
 251 0e5e B47433FB 		.ascii	"\264t3\373\352\007\"\203\332G\266\030\203]\344\275\272"
 251      EA072283 
 251      DA47B618 
 251      835DE4BD 
 251      BA
 252 0e6f D03A2667 		.ascii	"\320:&g\312\304)V\373\034\333\237\027\315\202{\347\347"
 252      CAC42956 
 252      FB1CDB9F 
 252      17CD827B 
 252      E7E7
 253 0e81 CDB0158E 		.ascii	"\315\260\025\216_4\307\226V@Bs\246<c\231\231\273 o\336"
 253      5F34C796 
 253      56404273 
 253      A63C6399 
 253      99BB206F 
 254 0e96 7C7BAAA5 		.ascii	"|{\252\245{:Q\346\023\277\302\274\302\271\363\027\223"
 254      7B3A51E6 
 254      13BFC2BC 
 254      C2B9F317 
 254      93
 255 0ea7 CC070567 		.ascii	"\314\007\005g\360\264\250\005\0002o\001\013\351;j\364"
 255      F0B4A805 
 255      00326F01 
 255      0BE93B6A 
 255      F4
 256 0eb8 98B1E3C8 		.ascii	"\230\261\343\310\377\001\343zEj"
 256      FF01E37A 
 256      456A
 257              		.text
 258              		.section	.gnu.lto_mbox1_setup.483f68c2f112b670,"",%progbits
 259 0000 789C6362 		.ascii	"x\234cb`b@\007\222@|\031\210\215\200\230\221\231\201"
 259      60624007 
 259      92407C19 
 259      888D8098 
 259      919981
 260 0013 9169C239 		.ascii	"\221i\3029\006\206F\016&FF\020\203\201\221\241\236\211"
 260      0686460E 
ARM GAS  /tmp/ccb32klv.s 			page 21


 260      26464610 
 260      838191A1 
 260      9E89
 261 0025 B13E9211 		.ascii	"\261>\222\021\254v=\323\201\007\377\377\257\233wl\376"
 261      AC763DD3 
 261      8107FFFF 
 261      AF9B776C 
 261      FE
 262 0036 1AC6994C 		.ascii	"\032\306\231L\314@\021V\206\226\206\206\011\012\014"
 262      CC401156 
 262      86968686 
 262      090A0C
 263 0045 0CC96015 		.ascii	"\014\311`\025!@\022\244-\224\221\011D3\237gh{0s1W\""
 263      214012A4 
 263      2D949109 
 263      44339F67 
 263      687B3073 
 264 005c E3424656 		.ascii	"\343BFV\240t5\303\257\206\216\006\201LF\240r\210\211"
 264      A07435C3 
 264      AF868E06 
 264      814C46A0 
 264      728889
 265 006f 20118E4C 		.ascii	" \021\216LF\306\\F\006\250\"\210\232\206\311\214\231"
 265      46C65C46 
 265      06A82288 
 265      9A86C98C 
 265      99
 266 0080 8C4CDA0C 		.ascii	"\214L\332\014\253\032\200`#\220\315\014e\317\006\262"
 266      AB1A8060 
 266      2390CD0C 
 266      65CF06B2 
 267 0090 59721919 		.ascii	"Yr\031\031\223 \372\031\222\240\006AuG\000\245YY\031"
 267      9320FA19 
 267      92A00641 
 267      754700A5 
 267      595919
 268 00a3 3219D918 		.ascii	"2\031\331\030\030.24>\230\245\014\263\033\002B\200\312"
 268      182E3234 
 268      3E98A50C 
 268      B31B0242 
 268      80CA
 269 00b5 810E0305 		.ascii	"\201\016\003\005\203\201~F~n\252~r~J\245~Jj\231~rFf"
 269      83817E46 
 269      7E6EAA7E 
 269      727E4AA5 
 269      7E4A6A99 
 270 00cd 52667EB1 		.ascii	"Rf~\261~IQi^\266~Ijq\211~Q\011\230\316M\312\257\320"
 270      7E495169 
 270      5EB67E49 
 270      6A71897E 
 270      510998CE 
 271 00e5 4B660000 		.ascii	"Kf\000\000\266\353G\335"
 271      B6EB47DD 
 272              		.text
 273              		.section	.gnu.lto_.symbol_nodes.483f68c2f112b670,"",%progbits
 274 0000 789C4D91 		.ascii	"x\234M\221=K\003A\020\206g\366r\371\376\260\262\260"
 274      3D4B0341 
ARM GAS  /tmp/ccb32klv.s 			page 22


 274      108667F6 
 274      72F9FEB0 
 274      B2B0
 275 0012 D0CA3FE1 		.ascii	"\320\312?\341\277Q\301\200\202\202\202\205\205\0238"
 275      BF51C180 
 275      82828285 
 275      851338
 276 0021 10D442D1 		.ascii	"\020\324B\321\326\312\205\004\022M4Q\243\004\222\342"
 276      D6CA8504 
 276      124D3451 
 276      A30492E2 
 277 0031 0AC1229D 		.ascii	"\012\301\"\235\265\222\003\205\010\012\026\026\021?"
 277      B5920385 
 277      080A1616 
 277      113F
 278 003f 7667C0F5 		.ascii	"vg\300\365\212y\347\231}wgvO\201\202{\005\362\251\023"
 278      8A79E799 
 278      7D776776 
 278      4F81827B 
 278      05F2A913 
 279 0053 2480FD3E 		.ascii	"$\200\375>\000\321\321\366\254_E\210\221\247jH\370\257"
 279      00D1D1F6 
 279      AC5F4588 
 279      91A76A48 
 279      F8AF
 280 0065 7A830804 		.ascii	"z\203\010\004~\035\225o\344\024=#\330@R\342)\225\020"
 280      7E1D956F 
 280      E4143D23 
 280      D84052E2 
 280      299510
 281 0078 AF913C47 		.ascii	"\257\221<GWH1G\227H\276\2436R\334Q\013)\341\250\211"
 281      57483147 
 281      9748BEA3 
 281      3652DC51 
 281      0B29E1A8 
 282 008d 94747481 		.ascii	"\224tt\201\224rt\206\224vt\216\224q\324A\312\376\221"
 282      94727486 
 282      9476748E 
 282      9471D441 
 282      CAFE91
 283 00a0 0771881E 		.ascii	"\007q\210\036\277\215\346Ao=\3140\263\026 \272}\216"
 283      BF8DE641 
 283      6F3DCC30 
 283      B31620BA 
 283      7D8E
 284 00b2 5BD67756 		.ascii	"[\326wV\363\020\355|\261_\357Z\315B\320\237f\273\225"
 284      F310ED7C 
 284      B15FEF5A 
 284      CD42D09F 
 284      66BB95
 285 00c5 02E8BD1C 		.ascii	"\002\350\275\034\223\225\014\204\007b=d\011\307\031"
 285      93950C84 
 285      07623D64 
 285      09C719
 286 00d4 26384E7A 		.ascii	"&8Nz\220\003=\305f\023S\020\315y\220\204p\336\366\010"
 286      90033DC5 
 286      66135310 
ARM GAS  /tmp/ccb32klv.s 			page 23


 286      CD799084 
 286      70DEF608 
 287 00e8 176C3D28 		.ascii	"\027l=(ZOX\344|\221w-\3619\313\266\036\254pnb\032\364"
 287      5A4F58E4 
 287      7C91772D 
 287      F139CBB6 
 287      1EAC706E 
 288 00ff 2A7BD6D8 		.ascii	"*{\326\330\263\316\371\006\307M;\241&\356B\234\037\313"
 288      B3CEF906 
 288      C74D3BA1 
 288      26EE429C 
 288      1FCB
 289 0111 658F7976 		.ascii	"e\217yv\255\205\264PY\250,Ta\012\252r\205\032\332FA"
 289      AD85B450 
 289      59A82C54 
 289      610AAA72 
 289      851ADA46 
 290 0126 5D2C56CC 		.ascii	"],V\314\310\015\344\231\233Rl\311-\333\262\241\203\366"
 290      C80DE499 
 290      9B526CC9 
 290      2DDBB2A1 
 290      83F6
 291 0138 0582AE14 		.ascii	"\005\202\256\024\273B=\241\236\320@h \024\011EBOr\246"
 291      BB423DA1 
 291      9ED04068 
 291      20140945 
 291      424F72A6 
 292 014c 4830E4EE 		.ascii	"H0\344\356\321P,/\334=|\345\356\372M\212\357\322\366"
 292      D1502C2F 
 292      DC3D7CE5 
 292      EEFA4D8A 
 292      EFD2F6
 293 015f 43368C8C 		.ascii	"C6\214\214$ \034\311\332\247\254\375\210h\305RQ\236"
 293      24201CC9 
 293      DAA7ACFD 
 293      8868C552 
 293      519E
 294 0171 1A83C0FC 		.ascii	"\032\203\300\374v\370\005\337+\255\017"
 294      76F805DF 
 294      2BAD0F
 295              		.text
 296              		.section	.gnu.lto_.refs.483f68c2f112b670,"",%progbits
 297 0000 789C6362 		.ascii	"x\234cb`b\230\314\000\001\346\014\014\214LH\220\001"
 297      606298CC 
 297      0001E60C 
 297      0C8C4C48 
 297      9001
 298 0012 0A3179A8 		.ascii	"\0121y\25020\021b\304\031\220 \007#\0233\024\302\324"
 298      32301162 
 298      C4199020 
 298      07231333 
 298      14C2D4
 299 0025 33013133 		.ascii	"3\00113#\013\023+\0202110\000\000\247\272\001\204"
 299      230B132B 
 299      10323131 
 299      300000A7 
 299      BA0184
ARM GAS  /tmp/ccb32klv.s 			page 24


 300              		.text
 301              		.section	.gnu.lto_.decls.483f68c2f112b670,"",%progbits
 302 0000 789CBD5B 		.ascii	"x\234\275[{p\024E\032\357\236\315fw\223\360\360yXZ\272"
 302      7B701445 
 302      1AEF9ECD 
 302      667793F0 
 302      F079585A 
 303 0015 7A7AC5A1 		.ascii	"zz\305\241\022PN\341\017\005\365\312\307\037\336]YX"
 303      12504EE1 
 303      0F05F5CA 
 303      C71FDE5D 
 303      5958
 304 0027 75555EDD 		.ascii	"uU^\335:$\003Y\315>\334\235\010\324\375\341$\204\020"
 304      3A240359 
 304      CD3EDC9D 
 304      08D4FDE1 
 304      248410
 305 003a 03C40410 		.ascii	"\003\304\004\020\242$!P\202BN%\221G\024\204\201#!\202"
 305      A2242150 
 305      82424E25 
 305      91471484 
 305      81232182 
 306 004e BC141405 		.ascii	"\274\024\024\0051\250 \250w\300EE\345\261\367u\367\314"
 306      31A820A8 
 306      77C04545 
 306      E5B1F775 
 306      F7CC
 307 0060 ECCCECCC 		.ascii	"\354\314\354\314\356L\324\233\252~\314l\177\277\357"
 307      EE4CD49B 
 307      AA7ECC6C 
 307      7FBFEF
 308 006f D15F3FBE 		.ascii	"\321_?\276\356\204C\034:\210\021J\3013q,B\217\345#\344"
 308      EE84431C 
 308      3A88114A 
 308      C133712C 
 308      428FE523 
 309 0084 4108DD0D 		.ascii	"A\010\335\015\251\020\222\027\322RH\217A\233\277AZ\005"
 309      A9109217 
 309      D252488F 
 309      419BBF41 
 309      5A05
 310 0096 F5BF63D6 		.ascii	"\365\277c\326f\012\224e\220\222\220&B\342\340\3333P"
 310      660A9465 
 310      90929026 
 310      42E2E0DB 
 310      3350
 311 00a8 56401A04 		.ascii	"V@\032\004\365Z(\347@z\016\322\"H\213!-\205\264\234"
 311      F55A28E7 
 311      407A0ED2 
 311      22488B21 
 311      2D85B49C 
 312 00bc E0407A1D 		.ascii	"\340@z\035R\007\244\365\220\336\206\264\031R\036\320"
 312      5207A4F5 
 312      90DE86B4 
 312      19521ED0 
 313 00cc 7543B913 		.ascii	"uC\271\023\322\011H\027!\351\037\202\371[(AL4\030R\021"
 313      D2094817 
ARM GAS  /tmp/ccb32klv.s 			page 25


 313      21E91F82 
 313      F95B2841 
 313      4C341852 
 314 00e1 62321139 		.ascii	"b2\0219\033\341\267\225P\372\240\014\2000\007\241^\300"
 314      1BE1B795 
 314      50FAA00C 
 314      803007A1 
 314      5EC0
 315 00f3 31D9880E 		.ascii	"1\331\210\016EP\037\004\251\001\336\007sL\207.\314\364"
 315      45501F04 
 315      A901DE07 
 315      734C872E 
 315      CCF4
 316 0105 1902EFED 		.ascii	"\031\002\357\355P.\203oC\241\336\011\365K\240\\\006"
 316      502E836F 
 316      43A1DE09 
 316      F54BA05C 
 316      06
 317 0116 E5A55C5A 		.ascii	"\345\245\\Z\377fH\227\301\373\012(/\207\262I\261E\027"
 317      FF664897 
 317      C1FB0A28 
 317      2F87B249 
 317      B14517
 318 0129 A475905E 		.ascii	"\244u\220^Q\354V\253\350\255\352\366\272\242s\207b\203"
 318      51EC56AB 
 318      E8ADEAF6 
 318      BAA27387 
 318      6283
 319 013b C58A1D88 		.ascii	"\305\212\035\210]\260\242\263\376!v\363Ay\005\307d7"
 319      5DB0A2B3 
 319      FE2176F3 
 319      417905C7 
 319      6437
 320 014d DB5A36D9 		.ascii	"\333Z6\331\233Sh6+u\325\206\372\247\020\325IR\225\324"
 320      9B536836 
 320      2B75D586 
 320      FAA710D5 
 320      495295D4 
 321 0161 56233DD8 		.ascii	"V#=\330;\370R\324(\301\023\354\005+\376\025\363xp\000"
 321      3BF852D4 
 321      28C113EC 
 321      052BFE15 
 321      F3787000 
 322 0175 C91CAD15 		.ascii	"\311\034\255\025\005\320ph}\023zI\222\032\372f~>L\312"
 322      05D07068 
 322      7D137A49 
 322      921AFA66 
 322      7E3E4CCA 
 323 0189 E3F1327C 		.ascii	"\343\3612|)\340\216\303h\004Z\011d\015\222\364\331\015"
 323      29E08EC3 
 323      68045A09 
 323      640D92F4 
 323      D90D
 324 019b 2678FAE4 		.ascii	"&x\372\344\204E\210\307+\000\214\307\313\361\010\306"
 324      844588C7 
 324      2B008CC7 
 324      CBF108C6 
ARM GAS  /tmp/ccb32klv.s 			page 26


 325 01ab 4492FB85 		.ascii	"D\222\373\205 \373\212\224\357\026\317\365\250\015\244"
 325      20FB8A94 
 325      EF16CFF5 
 325      A80DA4
 326 01ba 97BF3BF9 		.ascii	"\227\277;\371\016\226\346\025\031t\011\240Z\302\224"
 326      0E96E615 
 326      197409A0 
 326      5AC294
 327 01c9 BD687C83 		.ascii	"\275h|\203*\333\274\2646kk\366\354\3033$\011~X\205\003"
 327      2ADBBCB4 
 327      366B6BF6 
 327      ECC33324 
 327      097E5885 
 328 01de A0D17C8C 		.ascii	"\240\321|\214\015,\235C\365\357\330\326\201\253(\324"
 328      0D2C9D43 
 328      F5EFD8D6 
 328      81AB28D4 
 329 01ee AB146AD3 		.ascii	"\253\024j\323\200\241Zv\257\037+I~\036\257\246@\347"
 329      80A15A76 
 329      AF1F2B49 
 329      7E1EAFA6 
 329      40E7
 330 0200 4C403CCE 		.ascii	"L@<\316\017\350-A\337\325\006\004\015^\011\247\037\310"
 330      0FE82D41 
 330      DFD50604 
 330      0D5E09A7 
 330      1FC8
 331 0212 20C6CF28 		.ascii	" \306\317(_\310\213\017\375\337\351\254\324$\020+q\241"
 331      5FC88B0F 
 331      FDDFE9AC 
 331      D424102B 
 331      71A1
 332 0224 8AC7A199 		.ascii	"\212\307\241\231\034V\334\300\252\271Re\217\322\300"
 332      1C56DCC0 
 332      AAB95265 
 332      8FD2C0
 333 0233 E0047D33 		.ascii	"\340\004}3\227\264\\%\265m\305\014\226C\317\271\306"
 333      97B45C25 
 333      B56DC50C 
 333      9643CFB9 
 333      C6
 334 0244 0B1A9CEA 		.ascii	"\013\032\234\352\274\320;J\305Z\350\004\313o+\233|Q"
 334      BCD03B4A 
 334      C55AE804 
 334      CB6F2B9B 
 334      7C51
 335 0256 87B5C435 		.ascii	"\207\265\3045\226^.In\354i\306DO\213Q\365\270J^\224"
 335      965E2E49 
 335      6EEC69C6 
 335      444F8B51 
 335      F5B84A5E 
 336 026b F6A38EF7 		.ascii	"\366\243\216\3677z\250\037m\240\243\3650g\364\243\\"
 336      377AA81F 
 336      6DA0A3F5 
 336      3067F4A3 
 336      5C
 337 027c 281C3A41 		.ascii	"(\034:A)6\231\207\347\241\2458\310>\347\032\237\222"
ARM GAS  /tmp/ccb32klv.s 			page 27


 337      29369987 
 337      E7A1A538 
 337      C83EE71A 
 337      9F92
 338 028e FCC9B100 		.ascii	"\374\311\261\000\014O\013V\023\364\372*\002\037X\264"
 338      0C4F0B56 
 338      13F4FA2A 
 338      021F58B4 
 339 029e BB1157D3 		.ascii	"\273\021W\3231\264\225\212\334\356\261\024\271m\202"
 339      31B4958A 
 339      DCEEB114 
 339      B96D82
 340 02ad 1D108736 		.ascii	"\035\020\2076P\222n\223\314}o\036\331_\211+)t\267\243"
 340      50926E93 
 340      CC7D6F1E 
 340      D95F892B 
 340      2974B7A3 
 341 02c1 89E5400D 		.ascii	"\211\345@\015\363\251\\\263d[\236\312\377\217iE\366"
 341      F3A95CB3 
 341      645B9ECA 
 341      FF8F6945 
 341      F6
 342 02d2 2FDA86A9 		.ascii	"/\332\206\251\345wP5*\363rZ\336\010\303\241:J\262+C"
 342      E5775035 
 342      2AF3725A 
 342      DE08C3A1 
 342      3A4AB22B 
 343 02e7 8DD623AA 		.ascii	"\215\326#\252\032\273\034\251q\256F\035\032\357P\027"
 343      1ABB1CA9 
 343      71AE461D 
 343      1AEF5017 
 344 02f7 5CA0E10E 		.ascii	"\\\240\341\016h\250\311\027{\212\032x\025l\261k0\343"
 344      68A8C917 
 344      7B8A1A78 
 344      156CB16B 
 344      30E3
 345 0309 389BBFBD 		.ascii	"8\233\277\275\231\012G\247\306*G\023v\317nu\302>@'\307"
 345      990A47A7 
 345      C62A4713 
 345      76CF6E75 
 345      C23E4027 
 346 031e 657916B3 		.ascii	"ey\026\263\254#\250\376\272\356-\312\204}\220B\255\032"
 346      AC23A8FE 
 346      BAEE2DCA 
 346      847D9042 
 346      AD1A
 347 0330 30544BFD 		.ascii	"0TK\375\306q\264\273\017Q\2407\362\314\023\266\3174"
 347      C671B4BB 
 347      0F51A037 
 347      F2CC13B6 
 347      CF34
 348 0342 61FB8C13 		.ascii	"a\373\214\023(\375Y\251\220ys\010\372\225\233\303\352"
 348      28FD59A9 
 348      90797308 
 348      FA959BC3 
 348      EA
 349 0353 E4A4EB6C 		.ascii	"\344\244\353l\2475\251\257\253\365\030~A\222\253=\352"
ARM GAS  /tmp/ccb32klv.s 			page 28


 349      A735A9AF 
 349      ABF5187E 
 349      4192AB3D 
 349      EA
 350 0364 90CCB7B3 		.ascii	"\220\314\267\263\021\207\272)\257>\263/o8\276\367\326"
 350      1187BA29 
 350      AF3EB32F 
 350      6F38BEF7 
 350      D6
 351 0375 26491ACA 		.ascii	"&I\032\312~\312\355\312\353w.r6\"\265\015\306\215\224"
 351      7ECAEDCA 
 351      EB772E72 
 351      3622B50D 
 351      C68D94
 352 0388 FD2C2F61 		.ascii	"\375,/a\177\314\314\376\303\257N\334\315\330\037s\304"
 352      7FCCCCFE 
 352      C3AF4EDC 
 352      CDD81F73 
 352      C4
 353 0399 BEE3BD05 		.ascii	"\276\343\275\005\231\354y|\367\025\331<c\303\361\323"
 353      99EC797C 
 353      F715D93C 
 353      63C3F1D3 
 354 03a9 C3975026 		.ascii	"\303\227P&'\351\210\331\3475\273\306\370B=/\372\256"
 354      27E988D9 
 354      E735BBC6 
 354      F8423D2F 
 354      FAAE
 355 03bb 6BC0A18F 		.ascii	"k\300\241\2175\351\007\2666~\370U\357C+;%\351\331|U"
 355      35E907B6 
 355      367EF855 
 355      EF432B3B 
 355      25E9D97C 
 356 03d0 864F5C23 		.ascii	"\206O\\#\006\015\206X\363\036\235\002\030X\237\023\260"
 356      060D8658 
 356      F31E9D02 
 356      18589F13 
 356      B0
 357 03e1 2CCBE33A 		.ascii	",\313\343:=\330\347\256\301\214\222u\351\301\216;\001"
 357      3DD8E7AE 
 357      C18C9275 
 357      E9C18E3B 
 357      01
 358 03f2 1B6A2FD9 		.ascii	"\033j/\331[z\260\223\256\301\214\222m\324\203}\343\004"
 358      5B7AB093 
 358      AEC18C92 
 358      6DD4837D 
 358      E304
 359 0404 6C98BD64 		.ascii	"l\230\275d\233\364`\247]\203\031%\333\253\007\373\326"
 359      9BF460A7 
 359      5D831925 
 359      DBAB07FB 
 359      D6
 360 0415 0958D042 		.ascii	"\011X\320B2\355\261\333\357}\241\337\357\235\365\252"
 360      32EDB1DB 
 360      EF7DA1DF 
 360      EF9DF5AA 
ARM GAS  /tmp/ccb32klv.s 			page 29


 361 0425 13824B9F 		.ascii	"\023\202K\237Fi\214s^\267\023\230AoXI\217/\305\363g"
 361      46698C73 
 361      5EB71398 
 361      416F5849 
 361      8F2FC5F3 
 362 043a 486477C6 		.ascii	"Hdw\306V\263\312|\007\210Y\034\346\305\355\272\245\361"
 362      56B3CA7C 
 362      0788591C 
 362      E6C5EDBA 
 362      A5F1
 363 044c 59D76026 		.ascii	"Y\327`&W&`\231QM\225\324\267\\\036\326\224\236\354\374"
 363      57266099 
 363      514D95D4 
 363      B75C1ED6 
 363      949EECFC 
 364 0460 2A1689BE 		.ascii	"*\026\211\276\330\314\006\301\030\2475\226\206\015\263"
 364      D8CC06C1 
 364      18A73596 
 364      860DB3
 365 046f 6ECBE31A 		.ascii	"n\313\343\032\356&\310gq\001M\012VWk)\032;6\346[\305"
 365      EE26C867 
 365      71014D0A 
 365      56576B29 
 365      1A3B36E6 
 366 0485 7514203B 		.ascii	"u\024 ;\251\235'Ts:OX\350\304LY\206\302\247\333\233"
 366      A99D2754 
 366      733A4F58 
 366      E8C44C59 
 366      86C2A7DB 
 367 049a 7F23F5C9 		.ascii	"\177#\365\311X\247oV\343\220\220o\227\272\203\230\315"
 367      58A76F56 
 367      E390906F 
 367      97BA8398 
 367      CD
 368 04ab 91D5BA25 		.ascii	"\221\325\272%\337r\331w\000\325_\367\352\315t\331\257"
 368      DF72D977 
 368      00D55FF7 
 368      EACD74D9 
 368      AF
 369 04bc A7402B06 		.ascii	"\247@+\006\014\324R\337\312\002\276F\012\364Z\276y\221"
 369      0CD452DF 
 369      CA02BE46 
 369      0AF45ABE 
 369      7991
 370 04ce C0A6FD03 		.ascii	"\300\246\375\0036\256\3608\220\256\244\214\335\365\213"
 370      36AEF038 
 370      90AEA48C 
 370      DDF58B
 371 04dd B6E55097 		.ascii	"\266\345P\227\271\277\014\352\344\234m`\033~\241\021"
 371      B9BF0CEA 
 371      E49C6D60 
 371      1B7EA111 
 372 04ed F757494D 		.ascii	"\367WIM\243\\\364X\317\273j\217-\244\366\2213\354S\317"
 372      A35CF458 
 372      CFBB6A8F 
 372      2DA4F691 
 372      33EC53CF 
ARM GAS  /tmp/ccb32klv.s 			page 30


 373 0501 B9331087 		.ascii	"\2713\020\207z]+2\334\250H\353\266y\356\025\321\\o1"
 373      7A5D2B32 
 373      DCA848EB 
 373      B679EE15 
 373      D15C6F31 
 374 0515 5564EF2F 		.ascii	"Ud\357/\240\310A\327\212\214\322)B\"\212\357\346\261"
 374      A0C841D7 
 374      8A8CD229 
 374      42228AEF 
 374      E6B1
 375 0527 79F03234 		.ascii	"y\36024/\373N\216\310\323\306]f\014\006?\332A\202A\362"
 375      2FFB4E8E 
 375      C8D3C65D 
 375      660C063F 
 375      DA418241 
 376 053c 39773078 		.ascii	"9w0xvG\263\022\214\260\323\226O\251\354\204v {\033I"
 376      7647B312 
 376      8CB0D396 
 376      4FA9EC84 
 376      76207B1B 
 377 0551 5EB093CE 		.ascii	"^\260\223\316\270\014\354\370\317\002\253\222\337\230"
 377      B80CECF8 
 377      CF02AB92 
 377      DF98
 378 055f AD464AE3 		.ascii	"\255FJ\343\311\004~\352g\302\355\333\351:\266\251\331"
 378      C9047EEA 
 378      67C2EDDB 
 378      E93AB6A9 
 378      D9
 379 0570 AFBAC74A 		.ascii	"\257\272\307J\352\036\337g\270\307A\363D\340d\253_\345"
 379      EA1EDF67 
 379      B8C741F3 
 379      44E064AB 
 379      5FE5
 380 0582 1BA026DA 		.ascii	"\033\240&\332\003\313\231\317\301<\035\264\355)\030"
 380      03CB99CF 
 380      C13C1DB4 
 380      ED2918
 381 0591 F767152F 		.ascii	"\367g\025/\313\031/\250g\001\037\366T*g\001\257s$\210"
 381      CB192FA8 
 381      67011FF6 
 381      542A6701 
 381      AF732488 
 382 05a5 9EEBB33E 		.ascii	"\236\353\263>\013\310\022x4S\222N.#\210\336\245\006"
 382      0BC81278 
 382      3453924E 
 382      2E2388DE 
 382      A506
 383 05b7 D1E43707 		.ascii	"\321\3447\007\221\207!\210\346\361>\314)\270\003\265"
 383      91872188 
 383      E6F13ECC 
 383      29B803B5 
 384 05c7 A8A113D3 		.ascii	"\250\241\023\323\002\362x\015]\224\327r\327\353\255"
 384      02F2780D 
 384      5D94D772 
 384      D7EBAD
 385 05d6 FF4FD7D6 		.ascii	"\377O\327\326\017\352\255/\237\333\311\316\215\324c"
ARM GAS  /tmp/ccb32klv.s 			page 31


 385      0FEAAD2F 
 385      9FDBC9CE 
 385      8DD463
 386 05e5 957566BC 		.ascii	"\225uf\274\011\372\015\223R\035n\333\233\362\274\335"
 386      09FA0D93 
 386      521D6EDB 
 386      9BF2BCDD 
 387 05f5 BA71B7C5 		.ascii	"\272q\267\305\211p\243\354\300\252\344V\006\306\\~\273"
 387      8970A3EC 
 387      C0AAE456 
 387      06C65C7E 
 387      BB
 388 0606 6BB0A001 		.ascii	"k\260\240\001\354\355zg\2476\022\326\357\3018\364\036"
 388      ECED7A67 
 388      A73612D6 
 388      EFC138F4 
 388      1E
 389 0617 E5BBD9EC 		.ascii	"\345\273\331\354)g.\356\235\245x\312f\007\236\0023\034"
 389      29672EEE 
 389      9DA578CA 
 389      66079E02 
 389      331C
 390 0629 3DEE52ED 		.ascii	"=\356R\355<\307\257\242f\261\263\225\237\250\2077\354"
 390      3CC7AFA2 
 390      66B1B395 
 390      9FA88737 
 390      EC
 391 063a 705B3BBB 		.ascii	"p[;\2731\303\271\214\265\310Q\244;\303\260\261(\037"
 391      31C3B98C 
 391      B5C851A4 
 391      3BC3B0B1 
 391      281F
 392 064c 7A93CCF1 		.ascii	"z\223\314\361\275t\0306\373\315\223\022\263\214\316"
 392      BD741836 
 392      FBCD9312 
 392      B38CCE
 393 065b 9F37EBFC 		.ascii	"\2377\353\374y\013\365\347\255\340\317<\336F\363\036"
 393      790BF5E7 
 393      ADE0CF3C 
 393      DE46F31E 
 394 066b BD6FDB2D 		.ascii	"\275o\333-3\333\365\233\304\227\\\353\0354\365\216\035"
 394      33DBF59B 
 394      C4975CEB 
 394      1D34F58E 
 394      1D
 395 067c 9B4D7A36 		.ascii	"\233Mz6\355~\007\2767\326\326\2740\255\034\230\257F"
 395      ED7E07BE 
 395      37D6D6BC 
 395      30AD1C98 
 395      AF46
 396 068e 14EC706A 		.ascii	"\024\354pj\255kD\2437\237\2517,I\262\023\270\011\026"
 396      AD6B44A3 
 396      379FA937 
 396      2C49B213 
 396      B80916
 397 06a1 025A3DFA 		.ascii	"\002Z=\372\303E\036\357\301\244\233\366b\322A\357\321"
 397      C3451EEF 
ARM GAS  /tmp/ccb32klv.s 			page 32


 397      C1A49BF6 
 397      62D241EF 
 397      D1
 398 06b2 7C3FCD3F 		.ascii	"|?\315?\245y\212\346\225\264\373f\320\274\216\346\317"
 398      A5798AE6 
 398      95B4FB66 
 398      D0BC8EE6 
 398      CF
 399 06c3 D3FC459A 		.ascii	"\323\374E\232/\241\371k4_O\3637i\276\201\346o\323|\027"
 399      2FA1F96B 
 399      345F4FF3 
 399      3769BE81 
 399      E66FD37C 
 400 06d8 CDF73871 		.ascii	"\315\3678q\0006\321jn\246\316\271\335\003>\270\374 "
 400      0036D16A 
 400      6EA6CEB9 
 400      DD033EB8 
 400      FC20
 401 06ea 7D70C9E3 		.ascii	"}p\311\343\367]\203\231=\312`\311n\235%\267SK\366R\213"
 401      F75D8399 
 401      3DCA60C9 
 401      6E9D25B7 
 401      534BF652 
 402 06ff ED334EE3 		.ascii	"\3553N\343\275~\3658} \323\201\324\3271\177\3438z\346"
 402      BD7EF538 
 402      7D20D381 
 402      D4D7317F 
 402      E3387AE6 
 403 0713 E6E682EB 		.ascii	"\346\346\202\353\200\272\247\330\317\266\234\031\303"
 403      80BAA7D8 
 403      CFB69C19 
 403      C3
 404 0720 F755F39E 		.ascii	"\367U\363\236\302\305\355\016\207>0\353\344tN\262\266"
 404      C2C5ED0E 
 404      873E30EB 
 404      E4744EB2 
 404      B6
 405 0731 E4269D25 		.ascii	"\344&\235%ej\311-\324\222\357\033-y\330o\272Hy\\eU\224"
 405      656AC92D 
 405      D492EF1B 
 405      2D79D86F 
 405      BA48795C 
 406 0748 E66A1BAA 		.ascii	"\346j\033\252K}\335\237\365z*\211%\325\273\221/\235"
 406      4B7DDD9F 
 406      F57A2A89 
 406      25D5BB91 
 406      2F9D
 407 075a 005AC535 		.ascii	"\000Z\3055\326j\254\320\251\3612U\343\025\252\306\032"
 407      D66AACD0 
 407      A9F13255 
 407      E315AAC6 
 407      1A
 408 076b 9AAFA379 		.ascii	"\232\257\243y\027\315\337\242\371GN\206\304\322\364"
 408      17CDDFA2 
 408      F9474E86 
 408      C4D2F4
 409 077a 118A6116 		.ascii	"\021\212a\026\277\0045\320Y\274i0\013\276\265m\276B"
ARM GAS  /tmp/ccb32klv.s 			page 33


 409      BF0435D0 
 409      59BC6930 
 409      0BBEB56D 
 409      BE42
 410 078c 9FAFD01F 		.ascii	"\237\257\320\037\346.\2415\203\367\320\026v\034?\321"
 410      E62EA135 
 410      83F7D016 
 410      761C3FD1 
 411 079c 05F84581 		.ascii	"\005\370E\201t\305\233C\322C\351iU\331\376J5\322\360"
 411      74C59B43 
 411      D243E969 
 411      55D9FE4A 
 411      35D2F0
 412 07af 57D2AE3A 		.ascii	"W\322\256:T\245 w\323\332\345\317\372\0214\010>B\035"
 412      54A52077 
 412      D3DAE5CF 
 412      FA113408 
 412      3E421D
 413 07c2 B5DFE4A8 		.ascii	"\265\337\344\250\216\201\332\372\353\256$W\324G"
 413      8E81DAFA 
 413      EBAE2457 
 413      D447
 414 07d0 29CC8581 		.ascii	")\314\205\201\302@P\3762;\324\377\202\002\325\004\314"
 414      C24050FE 
 414      323BD4FF 
 414      8202D504 
 414      CC
 415 07e1 03C7631A 		.ascii	"\003\307c\0327\036\343\270\361\004\322\225T\312\203"
 415      371EE3B8 
 415      F104D295 
 415      54CA83
 416 07f0 7EC5C696 		.ascii	"~\305\306\226\356P\373\271\032{\3105R-\256\354\270F"
 416      EE50FBB9 
 416      1A7BC835 
 416      522DAEEC 
 416      B846
 417 0802 53D730EF 		.ascii	"S\3270\357\244O\252\177\277\212\235TS}\033\003\226\206"
 417      A44FAA7F 
 417      BF8A9D54 
 417      537D1B03 
 417      9686
 418 0814 7384D55F 		.ascii	"s\204\325_\267G\275Z\371\206\2025\017\034\254\255e\367"
 418      B747BD5A 
 418      F9868235 
 418      0F1CACAD 
 418      65F7
 419 0826 35A43B4F 		.ascii	"5\244;OQ\240\345\031\275\0200\365B\300h\253@ ]I\251"
 419      51A0E519 
 419      BD1030F5 
 419      42C068AB 
 419      40205D49 
 420 083b 8FF9D8E3 		.ascii	"\217\371\330\343W\244Q\024\223/W5\353\345\024\200\023"
 420      57A45114 
 420      932F5735 
 420      EBE51480 
 420      13
 421 084c AE87E37F 		.ascii	"\256\207\343\177m\206\243r2aK\367ez8\252;>p\216\264"
ARM GAS  /tmp/ccb32klv.s 			page 34


 421      6D86A372 
 421      32614BF7 
 421      657A38AA 
 421      3B3E708E 
 422 0861 6C935582 		.ascii	"l\223U\202\023E\012E\277y#\274\257\375\3500\266\214"
 422      13450A45 
 422      BF7923BC 
 422      AFFDE830 
 422      B68C
 423 0873 F43BDA07 		.ascii	"\364;\332\007/\356)\220>\2231\323\222C\237\320n\353"
 423      2FEE2990 
 423      3E9331D3 
 423      92439FD0 
 423      6EEB
 424 0885 4FEFE04C 		.ascii	"O\357\340L\366\310\271\366\311\315\3677\324\024\251"
 424      F6C8B9F6 
 424      C9CDF737 
 424      D414A9
 425 0894 707DCEE0 		.ascii	"p}\316\340\024S[\342\265\352\361>w\206\327\340\265\307"
 425      14535BE2 
 425      B5EAF13E 
 425      7786D7E0 
 425      B5C7
 426 08a6 5BADC73B 		.ascii	"[\255\307;\356\014\357\240\317\036\257S\217w\322\031"
 426      EE0CEFA0 
 426      CF1EAF53 
 426      8F77D219 
 427 08b6 5E5B8105 		.ascii	"^[\201\005\236\271g\3260\340~\272\231\377\006\200\225"
 427      9EB967D6 
 427      30E07EBA 
 427      99FF0680 
 427      95
 428 08c7 639F6C2E 		.ascii	"c\237l.\301\241ST\202J\217\351\360gQ\217'\310>gq\011"
 428      C1A15354 
 428      824A8FE9 
 428      F067518F 
 428      27C83E67 
 429 08dd D83FC2F2 		.ascii	"\330?\302\362\246\260_\3373\027\223\003[\375\242U\237"
 429      A6B05FDF 
 429      33179303 
 429      5BFDA255 
 429      9F
 430 08ee 5EB42C7C 		.ascii	"^\264,|q\246\307\3558\251\361X\217\223/\213\024\211"
 430      71A6C7ED 
 430      38A9F158 
 430      8F932F8B 
 430      1489
 431 0900 38745ED3 		.ascii	"8t^\323\307\232q\026\207\324\036\327\224\327\241VI>"
 431      C79A7116 
 431      87D41ED7 
 431      94D7A156 
 431      493E
 432 0912 DDB7A8F3 		.ascii	"\335\267\250\363\350U-\344FN\272\230z\006_\211\236W"
 432      E8552DE4 
 432      464EBA98 
 432      7A065F89 
 432      9E57
ARM GAS  /tmp/ccb32klv.s 			page 35


 433 0924 D492B068 		.ascii	"\324\222\260h{\235H\324z\326s\245R{\324\243\352\261"
 433      7B9D48D4 
 433      7AD673A5 
 433      527BD4A3 
 433      EAB1
 434 0936 A6009B0C 		.ascii	"\246\000\233\014\377;\264\234\340I\257H\036\212F\332"
 434      FF3BB49C 
 434      E049AF48 
 434      1E8A46DA 
 435 0946 D77AAE33 		.ascii	"\327z\2563vH\235\207\323\177`\202\311\255\260E\256\354"
 435      76489D87 
 435      D37F6082 
 435      C9ADB045 
 435      AEEC
 436 0958 4BA5AE63 		.ascii	"K\245\256c\2748\264\325\021\372\0343\372\334L\364\276"
 436      BC38B4D5 
 436      11FA1C33 
 436      FADC4CF4 
 436      BE
 437 0969 069842B6 		.ascii	"\006\230B\266\\\335\324)U[\250\355G\263\350\021\352"
 437      5CDDD429 
 437      555BA8ED 
 437      47B3E811 
 437      EA
 438 097a 4CA9123F 		.ascii	"L\251\022?\245Y\315\346j\203\307\215\036?\010\267\273"
 438      A559CDE6 
 438      6A83C78D 
 438      1E3F08B7 
 438      BB
 439 098b C0F66282 		.ascii	"\300\366b\2024P\315\317\352j-\313\275D\203b^\017\335"
 439      3450CDCF 
 439      EA6A2DCB 
 439      BD448362 
 439      5E0FDD
 440 099e 04C0076F 		.ascii	"\004\300\007o ]W\020\323\246\247\326\337\237a\037\326"
 440      205D5710 
 440      D3A6A7D6 
 440      DF9F611F 
 440      D6
 441 09af 68A1A501 		.ascii	"h\241\245\001\252\177\352\305\265\363\244\363d\311v"
 441      AA7FEAC5 
 441      B5F3A4F3 
 441      64C976
 442 09be DEEB4D66 		.ascii	"\336\353Mf\261\226\322\010\306 \307Q\0339^\264\224c"
 442      B196D208 
 442      C620C751 
 442      1B395EB4 
 442      9463
 443 09d0 6FFB3B57 		.ascii	"o\373;W\277 m\255\226R\251g\314\202\020=\355$i\2667"
 443      BF206DAD 
 443      9652A967 
 443      CC82103D 
 443      ED2469B6 
 444 09e5 90E94E5C 		.ascii	"\220\351N\\\267\013\315@Y\342)4\310hP\344k\033E\332"
 444      B70BCD40 
 444      59E22934 
 444      C86850E4 
ARM GAS  /tmp/ccb32klv.s 			page 36


 444      6B1B45DA 
 445 09f9 AC14910F 		.ascii	"\254\024\221\017\367\314\2210\363X\347\366\\f\326\202"
 445      F7CC9130 
 445      F358E7F6 
 445      5C66D682 
 446 0a09 086B12A3 		.ascii	"\010k\022\243\262\320Z\214\227,\355\331}\261\027\333"
 446      B2D05A8C 
 446      972CEDD9 
 446      7DB117DB 
 447 0a19 D9931C91 		.ascii	"\331\223\034\221\331I\262\302\252g\265\027\345\017\344"
 447      D949B2C2 
 447      AA67B517 
 447      E50FE4
 448 0a28 4C9235DA 		.ascii	"L\2225\332H\266\322\322@G\266\333\031(\233\\\355Y\345"
 448      48B6D2D2 
 448      4047B6DB 
 448      19289B5C 
 448      ED59E5
 449 0a3b 5AC5C245 		.ascii	"Z\305\302E\223\\\3156r\275f)\327\301\264\\\214\035\207"
 449      935CCD36 
 449      72BD6629 
 449      D7C1B45C 
 449      8C1D87
 450 0a4e DA6D0056 		.ascii	"\332m\000V[\002\234\036\220b\235N\014\256\275\037\341"
 450      5B029C1E 
 450      90629D4E 
 450      0CAEBD1F 
 450      E1
 451 0a5f AC145D6B 		.ascii	"\254\024]k#\347:K9\367\017H\316.'\035\220C\316\3156"
 451      23E73A4B 
 451      39F70F48 
 451      CE2E271D 
 451      9043CECD 
 452 0a74 726EB494 		.ascii	"rn\264\224\363c}\207t\321\016\351\265\001\330d\011\260"
 452      F3637D87 
 452      74D10EE9 
 452      B501D864 
 452      09B0
 453 0a86 79D69CAB 		.ascii	"y\326\234\253\244\245Ur*5\336\305\334&\273\352\220\375"
 453      A4A55572 
 453      2A35DEC5 
 453      DC26BBEA 
 453      90FD
 454 0a98 968A7E60 		.ascii	"\226\212~`#\3476\243\2347\240\245\222\274\267oa\347"
 454      23E736A3 
 454      9C37A0A5 
 454      92BCB76F 
 454      61E7
 455 0aaa 511F09FC 		.ascii	"Q\037\011\374%2\015c\254\376!\3631\015D]\3243\376H\271"
 455      25320D63 
 455      ACFE21F3 
 455      310D445D 
 455      D433FE48 
 456 0abf 47C11B83 		.ascii	"G\301\033\203\336\220j\345\307\031%\213\353\377\201"
 456      DE906AE5 
 456      C719258B 
 456      EBFF81
ARM GAS  /tmp/ccb32klv.s 			page 37


 457 0ace 7E227122 		.ascii	"~\"q\"\331f\337\214F\260M\033\255\220M\026aLW\2773\267"
 457      D966DF8C 
 457      46B04D1B 
 457      AD904D16 
 457      614C57BF 
 458 0ae4 6CA892AA 		.ascii	"l\250\222\252;\3002)\234\032\3176\037\260\265\313\340"
 458      3BC03229 
 458      9C1ACF36 
 458      1FB0B5CB 
 458      E0
 459 0af5 9CB9037A 		.ascii	"\234\271\003z7\255\012\333K)\325\357t\247\006\354l\341"
 459      37AD0ADB 
 459      4B29D5EF 
 459      74A706EC 
 459      6CE1
 460 0b07 8FE85F52 		.ascii	"\217\350_R\255Dv\030\263\210r\304\202Y\205\343\361N"
 460      AD447618 
 460      B38872C4 
 460      825985E3 
 460      F14E
 461 0b19 CF0DF6A0 		.ascii	"\317\015\366\240\212 \227\263_\326\345R5\007\032;\362"
 461      8A2097B3 
 461      5FD6E552 
 461      35071A3B 
 461      F2
 462 0b2a F87908E4 		.ascii	"\370y\010\344\270\204\365@\220\035\335\260\003\"\355"
 462      B884F540 
 462      901DDDB0 
 462      0322ED
 463 0b39 D356FAA9 		.ascii	"\323V\372\251W\345cZ\227\266\332\034S\021\344\217\323"
 463      57E5635A 
 463      97B6DA1C 
 463      5311E48F 
 463      D3
 464 0b4a EB121587 		.ascii	"\353\022\025\207\264\245\025\306\245\233\312E\330+\355"
 464      B4A515C6 
 464      A59BCA45 
 464      D82BED
 465 0b59 B760BD5C 		.ascii	"\267`\275\\\344\244O\321\214\000\271F@\354\210K9]\243"
 465      E4A44FD1 
 465      8C00B946 
 465      40EC884B 
 465      395DA3
 466 0b6c EFE44CC8 		.ascii	"\357\344L\310\205\252\271\030\177\304\375\\\321m\020"
 466      85AAB918 
 466      7FC4FD5C 
 466      D16D10
 467 0b7b 8CA27BD5 		.ascii	"\214\242{\325\301\266Z\226\327\356Y\201\245\266*\011"
 467      C1B65A96 
 467      D7EE5981 
 467      A5B62A09 
 468 0b8b 367C2975 		.ascii	"6|)u\303O\376tW\353\0259}\007\001\301\001\316r?\363"
 468      C34FFE74 
 468      57EB1539 
 468      7D0701C1 
 468      01CE723F 
 469 0ba0 1F182639 		.ascii	"\037\030&9o+x\374\215\207\234\353\376\333\223\021\275"
ARM GAS  /tmp/ccb32klv.s 			page 38


 469      6F2B78FC 
 469      8D879CEB 
 469      FEDB9311 
 469      BD
 470 0bb1 7EA45EE3 		.ascii	"~\244^\343\220\337r_\370\375x\241\227]\274\220?V\341"
 470      90DF725F 
 470      F8FD78A1 
 470      975DBC90 
 470      3F56E1
 471 0bc4 D0593A48 		.ascii	"\320Y:H\011\251\225\367\344\012^\311=No\306?)\260=\266"
 471      09A995F7 
 471      E40A5EC9 
 471      3D4E6FC6 
 471      3F29B03D 
 472 0bd9 6DA8EFD1 		.ascii	"m\250\357\321]L\234w\315>h`\317\376\234\235@r\250\252"
 472      5D4C9C77 
 472      CD3E6860 
 472      CFFE9C9D 
 472      4072A8AA 
 473 0bed C80156CE 		.ascii	"\310\001V\316?ggX\263]c\005M\346V\373\201\307\247<\344"
 473      3F676758 
 473      B35D6305 
 473      4DE656FB 
 473      81C7A73C 
 474 0c02 1CF40CCD 		.ascii	"\034\364\014\315\277\245\371\367\236\234g\242&\203~"
 474      BFA5F9F7 
 474      9E9C67A2 
 474      26837E
 475 0c11 6D2309C1 		.ascii	"m#\011\301\377\301\260\355\324AN0\012\252sSFd\335\214"
 475      FFC1B0ED 
 475      D4414E30 
 475      0AAA7353 
 475      4664DD8C 
 476 0c25 C73FBA0E 		.ascii	"\307?\272\016K\177\262\011K\365aL\272\025\330w~\221"
 476      4B7FB209 
 476      4BF5614C 
 476      BA15D877 
 476      7E91
 477 0c37 696DC810 		.ascii	"im\310\020\342\234aQ\202I\341$H\245\365\033\031\325"
 477      E29C6151 
 477      8249E124 
 477      48A5F51B 
 477      19D5
 478 0c49 4D7435B8 		.ascii	"Mt5\270\313\303\224!\003\363\364^\371B}Kz`2\273qh\211"
 478      CBC39421 
 478      03F3F45E 
 478      F9427D4B 
 478      7A6032BB 
 479 0c60 999B7170 		.ascii	"\231\233qp\321\265\007\330]\213V\026\265H~\035\333\011"
 479      D1B507D8 
 479      5D8B5616 
 479      B5487E1D 
 479      DB09
 480 0c72 0C81F521 		.ascii	"\014\201\365!\343)\247vc'g\324\222\266\314\006\025\026"
 480      E329A776 
 480      632767D4 
 480      92B6CC06 
ARM GAS  /tmp/ccb32klv.s 			page 39


 480      1516
 481 0c84 D5796ECD 		.ascii	"\325yn\315:3\317\332\254jPjG7#O\363\210k\321\006\320"
 481      3A33CFDA 
 481      AC6A506A 
 481      4737234F 
 481      F3886BD1 
 482 0c9a A969429A 		.ascii	"\251iB\232=sE\242L\255$7\014a\036\257\205\272\314E\011"
 482      3D7345A2 
 482      4CAD2437 
 482      0C611EAF 
 482      85BACC45 
 483 0caf 1E1BA7CC 		.ascii	"\036\033\247\314Y\225\326\013\264\326\372\260[\221\202"
 483      5995D60B 
 483      B4D6FAB0 
 483      5B9182
 484 0cbe 99547546 		.ascii	"\231TuF\315\331Lf1\034G\323\320_\023Ks\017\033\213\216"
 484      CDD94C66 
 484      311C47D3 
 484      D05F134B 
 484      730F1B8B 
 485 0cd3 55497D0A 		.ascii	"UI}\012A\235k\203\316\2661h\276\242\212i\324m\310\262"
 485      419D6B83 
 485      CEB63168 
 485      BEA28A69 
 485      D46DC8B2 
 486 0ce7 A8CEC9B3 		.ascii	"\250\316\311\263\276\262`\321\266\035\325\\[\252\256"
 486      BEB260D1 
 486      B61DD55C 
 486      5BAAAE
 487 0cf6 2C54F5B6 		.ascii	",T\365\266T\355Y\250\236\263\245\352\314B\325`K\265"
 487      54ED59A8 
 487      9EB3A5EA 
 487      CC42D560 
 487      4BB5
 488 0d08 2C0B55A3 		.ascii	",\013U\243-Us\026\252y\266T+\262P\315\267\245j\312B"
 488      2D557316 
 488      AA79B654 
 488      2BB250CD 
 488      B7A56ACA 
 489 0d1d B5C0964A 		.ascii	"\265\300\226J\316B\365|\232\012\335Q\\\026\213\010\305"
 489      CE42F57C 
 489      9A0ADD51 
 489      5C168B08 
 489      C5
 490 0d2e 25B1D2E9 		.ascii	"%\261\322\351\305\245\302\323\305%e\341I\341X\262XL"
 490      C5A5C2D3 
 490      C52565E1 
 490      49E158B2 
 490      584C
 491 0d40 54449F2C 		.ascii	"TD\237,\206JB,\016GK\312+J\241QYdRl\232\220\034Y\206"
 491      864A422C 
 491      0E474BCA 
 491      2B4AA151 
 491      5964526C 
 492 0d59 02113E5C 		.ascii	"\002\021>\\\016/!1\377\201?=\032\274\017=\350\000'\036"
 492      0E2F2131 
 492      FF813F3D 
ARM GAS  /tmp/ccb32klv.s 			page 40


 492      1ABC0F3D 
 492      E800271E 
 493 0d6d 4B88C9E2 		.ascii	"K\210\311\342{\036y\370\276\207\247A\313H<\\.$\222\305"
 493      7B1E79F8 
 493      BE87A741 
 493      CB483C5C 
 493      2E2492C5 
 494 0d81 0FDC771F 		.ascii	"\017\334w\0374\027\247\307)\2627\222\234\022\022o,\256"
 494      3417A7C7 
 494      29B23792 
 494      9C12126F 
 494      2CAE
 495 0d93 48268AF9 		.ascii	"H&\212\371D\344\326h,*\334*\360\223\302\232\030I\261"
 495      44E4D668 
 495      2C2ADC2A 
 495      F093C29A 
 495      1849B1
 496 0da6 341C15A1 		.ascii	"4\034\025\241\251\017\212\333o\013\211c\2624\216\360"
 496      A90F8ADB 
 496      6F0B8963 
 496      B2348EF0 
 497 0db6 20495428 		.ascii	" IT(\016\225\012\223\371\212r1\244\362\011\204B\012"
 497      0E950A93 
 497      F98A7231 
 497      A4F20984 
 497      420A
 498 0dc8 79203229 		.ascii	"y 2)4\251b\362d!\221\01751\026\367C15\021\027\023\244"
 498      34A962F2 
 498      6421910F 
 498      353116F7 
 498      43313511 
 499 0ddf 922885CA 		.ascii	"\222(\205\312\355\256\254\224\024\"\300\240\020\012"
 499      EDAEAC94 
 499      1422C0A0 
 499      100A
 500 0ded 3E5E164B 		.ascii	">^\026K\010\300B\253\217u\2074=\251\312;D,K\010|i2\364"
 500      08C042AB 
 500      8F758734 
 500      3DA9CA3B 
 500      442C4B08 
 501 0e05 54855001 		.ascii	"T\205P\001\220CK\312B\206Oc\334!\227\224\225\002\252"
 501      90434BCA 
 501      42864F63 
 501      DC219794 
 501      9502AA
 502 0e18 9F418084 		.ascii	"\237A\200\204\032\\~<\024\025\246\211P\304\023\302\323"
 502      1A5C7E3C 
 502      1415A689 
 502      50C413C2 
 502      D3
 503 0e29 3E319E08 		.ascii	">1\236\010\307B\242\277B\261VA(\244Vi\223p\314W\022"
 503      C742A2BF 
 503      42B15641 
 503      28A45669 
 503      9370CC57 
 504 0e3e 8B8A4031 		.ascii	"\213\212@1\316\265\013\224\225\200E\210\251\310g\322"
 504      CEB50B94 
ARM GAS  /tmp/ccb32klv.s 			page 41


 504      95804588 
 504      A9C867D2 
 505 0e4e 1D25E2B4 		.ascii	"\035%\342\264\273\006\206\022z\372Nbt\177B\230\002\216"
 505      BB068612 
 505      7AFA4E62 
 505      747F4298 
 505      028E
 506 0e60 1012B9C4 		.ascii	"\020\022\271\304\030.\361\007.q\007\227\270\223K\214"
 506      182EF107 
 506      2E710797 
 506      B8934B8C 
 507 0e70 E512E33C 		.ascii	"\345\022\343<\211\321\243 \215\346\312\023P\334\356"
 507      89D1A320 
 507      8DE6CA13 
 507      50DCEE
 508 0e7f 8D87809B 		.ascii	"\215\207\200\233\217(;UH@\031+/\025\022y%e|\202X\200"
 508      8F283B55 
 508      4840192B 
 508      2F151279 
 508      25657C82 
 509 0e95 8F087E31 		.ascii	"\217\010~1)\362\"\230\332G\024\036\0136b\252C\015\232"
 509      29F22298 
 509      DA47141E 
 509      0B3662AA 
 509      430D9A
 510 0ea8 D3DF7C62 		.ascii	"\323\337|b$V*\320\367\311\345\374\224\244OL\010\223"
 510      24562AD0 
 510      F7C9E5FC 
 510      94A44F4C 
 510      0893
 511 0eba 93D432A4 		.ascii	"\223\3242\244\222\237(\235\016\356\354\027\246\205E"
 511      929F289D 
 511      0EEEEC17 
 511      A68545
 512 0ec9 5048C89F 		.ascii	"PH\310\237*\306&=\021/\024\236\026\242b\204O>\011-\205"
 512      2AC6263D 
 512      112F149E 
 512      16A26284 
 512      4F3E092D 
 513 0ede A9A4E289 		.ascii	"\251\244\342\211\207*\006\253\335Y\036N\202\237\016"
 513      872A06AB 
 513      DD591E4E 
 513      829F0E
 514 0eed D17530F9 		.ascii	"\321u0\371\022\210\207\246\362a1\034\235R\020\017\001"
 514      128887A6 
 514      F261311C 
 514      9D52100F 
 514      01
 515 0efe 2AED742F 		.ascii	"*\355t/\255\302\007!.DaXL\361F*\240/\334\371kD\234F"
 515      ADC20721 
 515      2E446158 
 515      4CF1462A 
 515      A02FDCF9 
 516 0f16 465384F9 		.ascii	"FS\204\371\021\224\261\251Q0\011E\002\011#\324\037\200"
 516      1194B1A9 
 516      51300945 
 516      020923D4 
ARM GAS  /tmp/ccb32klv.s 			page 42


 516      1F80
 517 0f28 3DB42382 		.ascii	"=\264#\202\024\020\345\370r\332\365\3601\036\213\225"
 517      1410E5F8 
 517      72DAF5F0 
 517      311E8B95 
 518 0f38 FB141FF4 		.ascii	"\373\024\037\364\226DAro2\004e\001\014\236\311\025\345"
 518      96444172 
 518      6F320465 
 518      010C9EC9 
 518      15E5
 519 0f4a E5E0FA85 		.ascii	"\345\340\372\205P\025\"qq:\324\003\304\247\303\021A"
 519      50152271 
 519      713AD403 
 519      C4A7C311 
 519      41
 520 0f5b 71A9D177 		.ascii	"q\251\321wh.E\253I\361I\276<<%\252\374|\307\030\355"
 520      682E45AB 
 520      49F149BE 
 520      3C3C25AA 
 520      FC7CC718 
 521 0f70 6752BD25 		.ascii	"gR\275%\253^\242\220\024\211f\244\004\205\270\211\243"
 521      AB5EA290 
 521      148966A4 
 521      0485B889 
 521      A3
 522 0f81 B889A3B9 		.ascii	"\270\211\243\271\211\267q\023o\347&\216\341\246\362"
 522      89B77113 
 522      6FE7268E 
 522      E1A6F2
 523 0f90 45E41765 		.ascii	"E\344\027e\254'\363Y9\3121$\231\374F\226"
 523      AC27F359 
 523      39CA3124 
 523      99FC4696 
 524 0fa0 A041A41C 		.ascii	"\240A\244\034\035\022\246\011%`\240B\366\226\024\304"
 524      1D12A609 
 524      2560A042 
 524      F69614C4 
 525 0fb0 8AB83774 		.ascii	"\212\2707t/\330\242(D\271\360\311\244\220 \303\352\341"
 525      2FD8A228 
 525      44B9F0C9 
 525      A49020C3 
 525      EAE1
 526 0fc2 7B1F11E0 		.ascii	"{\037\021\340\347+\364\237\241=\330+Z\"\014\241\037"
 526      E72BF49F 
 526      A13DD82B 
 526      5A220CA1 
 526      1F
 527 0fd3 854818CC 		.ascii	"\205H\030\314\026{R\210\026\220\366\367\013bI\331C\203"
 527      167B5288 
 527      1690F6F7 
 527      0B6249D9 
 527      4383
 528 0fe5 49F52FB1 		.ascii	"I\365/\261\244xO\031\370\300C\001\365\225\325h\033\277"
 528      A4784F19 
 528      F8C04301 
 528      F595D568 
 528      1BBF
ARM GAS  /tmp/ccb32klv.s 			page 43


 529 0ff7 FA6D90A1 		.ascii	"\372m\220\241-\245\374\363\244"
 529      2DA5FCF3 
 529      A4
 530 1000 278412F1 		.ascii	"'\204\022\361\241hX\364D&\215\316#|\374$+\341\223B\036"
 530      A16858F4 
 530      44268DCE 
 530      237CFC24 
 530      2BE19342 
 531 1015 716F2F95 		.ascii	"qo/\225\031\276\361\211R\350p\237\252P\234\027E!\021"
 531      19BEF189 
 531      52E8709F 
 531      AA509C17 
 531      452111
 532 1028 257A0554 		.ascii	"%z\005T\265G_22\021+\345E~\244\366%\3700[\001\204\344"
 532      B5475F32 
 532      32112BE5 
 532      457EA4F6 
 532      25F8305B 
 533 103f 2D41D2F7 		.ascii	"-A\322\367\340{A>Z\032$}\033\253\020\223\350\177\356"
 533      E07B413E 
 533      5A1A247D 
 533      1BAB1093 
 533      E87FEE
 534 1052 C9C00F   		.ascii	"\311\300\017"
 535              		.text
 536              		.section	.gnu.lto_.symtab.483f68c2f112b670,"",%progbits
 537 0000 70617474 		.ascii	"patternmbox\000\000\000\000\000\000\000\000\000\000"
 537      65726E6D 
 537      626F7800 
 537      00000000 
 537      00000000 
 538 0015 0000E801 		.ascii	"\000\000\350\001\000\000testmbox1\000\000\000\000\000"
 538      00007465 
 538      73746D62 
 538      6F783100 
 538      00000000 
 539 0029 00000000 		.ascii	"\000\000\000\000\000\000\000\376\001\000\000test\000"
 539      000000FE 
 539      01000074 
 539      65737400 
 540 0039 00020000 		.ascii	"\000\002\000\000\000\000\000\000\000\000\000\313\001"
 540      00000000 
 540      000000CB 
 540      01
 541 0046 00005F74 		.ascii	"\000\000_test_assert\000\000\002\000\000\000\000\000"
 541      6573745F 
 541      61737365 
 541      72740000 
 541      02000000 
 542 005c 00000000 		.ascii	"\000\000\000\000\217\001\000\000chMBReset\000\000\002"
 542      8F010000 
 542      63684D42 
 542      52657365 
 542      74000002 
 543 0070 00000000 		.ascii	"\000\000\000\000\000\000\000\000\000\227\001\000\000"
 543      00000000 
 543      00970100 
ARM GAS  /tmp/ccb32klv.s 			page 44


 543      00
 544 007d 5F746573 		.ascii	"_test_assert_sequence\000\000\002\000\000\000\000\000"
 544      745F6173 
 544      73657274 
 544      5F736571 
 544      75656E63 
 545 009a 00000000 		.ascii	"\000\000\000\000\233\001\000\000test_emit_token\000"
 545      9B010000 
 545      74657374 
 545      5F656D69 
 545      745F746F 
 546 00b2 00020000 		.ascii	"\000\002\000\000\000\000\000\000\000\000\000\241\001"
 546      00000000 
 546      000000A1 
 546      01
 547 00bf 00006368 		.ascii	"\000\000chMBFetchI\000\000\002\000\000\000\000\000\000"
 547      4D424665 
 547      74636849 
 547      00000200 
 547      00000000 
 548 00d4 000000A5 		.ascii	"\000\000\000\245\001\000\000chMBPostAheadI\000\000\002"
 548      01000063 
 548      684D4250 
 548      6F737441 
 548      68656164 
 549 00ec 00000000 		.ascii	"\000\000\000\000\000\000\000\000\000\252\001\000\000"
 549      00000000 
 549      00AA0100 
 549      00
 550 00f9 63684D42 		.ascii	"chMBPostI\000\000\002\000\000\000\000\000\000\000\000"
 550      506F7374 
 550      49000002 
 550      00000000 
 550      00000000 
 551 010d 00AF0100 		.ascii	"\000\257\001\000\000chMBFetch\000\000\002\000\000\000"
 551      0063684D 
 551      42466574 
 551      63680000 
 551      02000000 
 552 0121 00000000 		.ascii	"\000\000\000\000\000\000\261\001\000\000chMBPost\000"
 552      0000B101 
 552      00006368 
 552      4D42506F 
 552      737400
 553 0134 00020000 		.ascii	"\000\002\000\000\000\000\000\000\000\000\000\267\001"
 553      00000000 
 553      000000B7 
 553      01
 554 0141 00006368 		.ascii	"\000\000chMBPostAhead\000\000\002\000\000\000\000\000"
 554      4D42506F 
 554      73744168 
 554      65616400 
 554      00020000 
 555 0158 00000000 		.ascii	"\000\000\000\000\275\001\000\000chMBObjectInit\000\000"
 555      BD010000 
 555      63684D42 
 555      4F626A65 
ARM GAS  /tmp/ccb32klv.s 			page 45


 555      6374496E 
 556 0170 02000000 		.ascii	"\002\000\000\000\000\000\000\000\000\000\277\001\000"
 556      00000000 
 556      0000BF01 
 556      00
 557 017d 00       		.ascii	"\000"
 558              		.text
 559              		.section	.gnu.lto_.opts,"",%progbits
 560 0000 272D6D63 		.ascii	"'-mcpu=cortex-m3' '-mno-thumb-interwork' '-mthumb' "
 560      70753D63 
 560      6F727465 
 560      782D6D33 
 560      2720272D 
 561 0033 272D4F32 		.ascii	"'-O2' '-fomit-frame-pointer' '-falign-functions=16'"
 561      2720272D 
 561      666F6D69 
 561      742D6672 
 561      616D652D 
 562 0066 20272D66 		.ascii	" '-ffunction-sections' '-fdata-sections' '-fno-comm"
 562      66756E63 
 562      74696F6E 
 562      2D736563 
 562      74696F6E 
 563 0099 6F6E2720 		.ascii	"on' '-flto'\000"
 563      272D666C 
 563      746F2700 
 564              		.text
 565              		.section	.text.mbox1_execute,"ax",%progbits
 566              		.align	2
 567              		.p2align 4,,15
 568              		.thumb
 569              		.thumb_func
 570              		.type	mbox1_execute, %function
 571              	mbox1_execute:
 572              		@ args = 0, pretend = 0, frame = 8
 573              		@ frame_needed = 0, uses_anonymous_args = 0
 574 0000 2DE9F041 		push	{r4, r5, r6, r7, r8, lr}
 575 0004 2023     		movs	r3, #32
 576 0006 82B0     		sub	sp, sp, #8
 577              	@ 546 "/home/cody/dev/chibios/trunk/os/ext/CMSIS/include/core_cmFunc.h" 1
 578 0008 83F31188 		MSR basepri, r3
 579              	@ 0 "" 2
 580              		.thumb
 581 000c 9A4E     		ldr	r6, .L36
 582 000e 0120     		movs	r0, #1
 583 0010 716A     		ldr	r1, [r6, #36]
 584 0012 B1F1050E 		subs	lr, r1, #5
 585 0016 DEF10001 		rsbs	r1, lr, #0
 586 001a 51EB0E01 		adcs	r1, r1, lr
 587 001e FFF7FEFF 		bl	_test_assert
 588 0022 0028     		cmp	r0, #0
 589 0024 40F02281 		bne	.L31
 590              	@ 546 "/home/cody/dev/chibios/trunk/os/ext/CMSIS/include/core_cmFunc.h" 1
 591 0028 80F31188 		MSR basepri, r0
 592              	@ 0 "" 2
 593              		.thumb
 594 002c 4224     		movs	r4, #66
ARM GAS  /tmp/ccb32klv.s 			page 46


 595              	.L6:
 596 002e 924D     		ldr	r5, .L36
 597 0030 2146     		mov	r1, r4
 598 0032 2846     		mov	r0, r5
 599 0034 4FF6FF72 		movw	r2, #65535
 600 0038 FFF7FEFF 		bl	chMBPost
 601 003c D0F10101 		rsbs	r1, r0, #1
 602 0040 38BF     		it	cc
 603 0042 0021     		movcc	r1, #0
 604 0044 0220     		movs	r0, #2
 605 0046 0134     		adds	r4, r4, #1
 606 0048 FFF7FEFF 		bl	_test_assert
 607 004c 88B9     		cbnz	r0, .L1
 608 004e 462C     		cmp	r4, #70
 609 0050 EDD1     		bne	.L6
 610 0052 4121     		movs	r1, #65
 611 0054 2846     		mov	r0, r5
 612 0056 4FF6FF72 		movw	r2, #65535
 613 005a FFF7FEFF 		bl	chMBPostAhead
 614 005e D0F10101 		rsbs	r1, r0, #1
 615 0062 38BF     		it	cc
 616 0064 0021     		movcc	r1, #0
 617 0066 0320     		movs	r0, #3
 618 0068 FFF7FEFF 		bl	_test_assert
 619 006c 0028     		cmp	r0, #0
 620 006e 00F00781 		beq	.L33
 621              	.L1:
 622 0072 02B0     		add	sp, sp, #8
 623              		@ sp needed
 624 0074 BDE8F081 		pop	{r4, r5, r6, r7, r8, pc}
 625              	.L17:
 626              	@ 546 "/home/cody/dev/chibios/trunk/os/ext/CMSIS/include/core_cmFunc.h" 1
 627 0078 85F31188 		MSR basepri, r5
 628              	@ 0 "" 2
 629              	@ 546 "/home/cody/dev/chibios/trunk/os/ext/CMSIS/include/core_cmFunc.h" 1
 630 007c 86F31188 		MSR basepri, r6
 631              	@ 0 "" 2
 632              		.thumb
 633 0080 A169     		ldr	r1, [r4, #24]
 634 0082 1F20     		movs	r0, #31
 635 0084 D1F10101 		rsbs	r1, r1, #1
 636 0088 38BF     		it	cc
 637 008a 0021     		movcc	r1, #0
 638 008c FFF7FEFF 		bl	_test_assert
 639 0090 0028     		cmp	r0, #0
 640 0092 40F0B282 		bne	.L30
 641              	@ 546 "/home/cody/dev/chibios/trunk/os/ext/CMSIS/include/core_cmFunc.h" 1
 642 0096 85F31188 		MSR basepri, r5
 643              	@ 0 "" 2
 644              		.thumb
 645 009a E168     		ldr	r1, [r4, #12]
 646 009c A368     		ldr	r3, [r4, #8]
 647 009e 3046     		mov	r0, r6
 648 00a0 CA1A     		subs	r2, r1, r3
 649 00a2 5142     		rsbs	r1, r2, #0
 650 00a4 5141     		adcs	r1, r1, r2
 651 00a6 FFF7FEFF 		bl	_test_assert
ARM GAS  /tmp/ccb32klv.s 			page 47


 652 00aa 0028     		cmp	r0, #0
 653 00ac E1D1     		bne	.L1
 654              	@ 546 "/home/cody/dev/chibios/trunk/os/ext/CMSIS/include/core_cmFunc.h" 1
 655 00ae 86F31188 		MSR basepri, r6
 656              	@ 0 "" 2
 657              		.thumb
 658 00b2 4521     		movs	r1, #69
 659 00b4 2046     		mov	r0, r4
 660 00b6 FFF7FEFF 		bl	chMBPostAheadI
 661 00ba D0F10101 		rsbs	r1, r0, #1
 662 00be 38BF     		it	cc
 663 00c0 0021     		movcc	r1, #0
 664 00c2 2120     		movs	r0, #33
 665 00c4 FFF7FEFF 		bl	_test_assert
 666 00c8 0028     		cmp	r0, #0
 667 00ca D2D1     		bne	.L1
 668 00cc 4421     		movs	r1, #68
 669 00ce 2046     		mov	r0, r4
 670 00d0 FFF7FEFF 		bl	chMBPostAheadI
 671 00d4 D0F10101 		rsbs	r1, r0, #1
 672 00d8 38BF     		it	cc
 673 00da 0021     		movcc	r1, #0
 674 00dc 2220     		movs	r0, #34
 675 00de FFF7FEFF 		bl	_test_assert
 676 00e2 0028     		cmp	r0, #0
 677 00e4 C5D1     		bne	.L1
 678 00e6 4321     		movs	r1, #67
 679 00e8 2046     		mov	r0, r4
 680 00ea FFF7FEFF 		bl	chMBPostAheadI
 681 00ee D0F10101 		rsbs	r1, r0, #1
 682 00f2 38BF     		it	cc
 683 00f4 0021     		movcc	r1, #0
 684 00f6 2320     		movs	r0, #35
 685 00f8 FFF7FEFF 		bl	_test_assert
 686 00fc 0028     		cmp	r0, #0
 687 00fe B8D1     		bne	.L1
 688 0100 4221     		movs	r1, #66
 689 0102 2046     		mov	r0, r4
 690 0104 FFF7FEFF 		bl	chMBPostAheadI
 691 0108 D0F10101 		rsbs	r1, r0, #1
 692 010c 38BF     		it	cc
 693 010e 0021     		movcc	r1, #0
 694 0110 2420     		movs	r0, #36
 695 0112 FFF7FEFF 		bl	_test_assert
 696 0116 0028     		cmp	r0, #0
 697 0118 ABD1     		bne	.L1
 698 011a 574C     		ldr	r4, .L36
 699 011c 4121     		movs	r1, #65
 700 011e 2046     		mov	r0, r4
 701 0120 FFF7FEFF 		bl	chMBPostAheadI
 702 0124 0023     		movs	r3, #0
 703 0126 0146     		mov	r1, r0
 704              	@ 546 "/home/cody/dev/chibios/trunk/os/ext/CMSIS/include/core_cmFunc.h" 1
 705 0128 83F31188 		MSR basepri, r3
 706              	@ 0 "" 2
 707              		.thumb
 708 012c CB1A     		subs	r3, r1, r3
ARM GAS  /tmp/ccb32klv.s 			page 48


 709 012e 5942     		rsbs	r1, r3, #0
 710 0130 5941     		adcs	r1, r1, r3
 711 0132 2520     		movs	r0, #37
 712 0134 FFF7FEFF 		bl	_test_assert
 713 0138 0028     		cmp	r0, #0
 714 013a 9AD1     		bne	.L1
 715 013c E168     		ldr	r1, [r4, #12]
 716 013e A368     		ldr	r3, [r4, #8]
 717 0140 2620     		movs	r0, #38
 718 0142 B1EB0308 		subs	r8, r1, r3
 719 0146 D8F10001 		rsbs	r1, r8, #0
 720 014a 51EB0801 		adcs	r1, r1, r8
 721 014e FFF7FEFF 		bl	_test_assert
 722 0152 0028     		cmp	r0, #0
 723 0154 8DD1     		bne	.L1
 724 0156 8046     		mov	r8, r0
 725 0158 0524     		movs	r4, #5
 726 015a 2027     		movs	r7, #32
 727              	.L20:
 728 015c 2026     		movs	r6, #32
 729              	@ 546 "/home/cody/dev/chibios/trunk/os/ext/CMSIS/include/core_cmFunc.h" 1
 730 015e 87F31188 		MSR basepri, r7
 731              	@ 0 "" 2
 732              		.thumb
 733 0162 454D     		ldr	r5, .L36
 734 0164 01A9     		add	r1, sp, #4
 735 0166 2846     		mov	r0, r5
 736 0168 FFF7FEFF 		bl	chMBFetchI
 737 016c 0146     		mov	r1, r0
 738              	@ 546 "/home/cody/dev/chibios/trunk/os/ext/CMSIS/include/core_cmFunc.h" 1
 739 016e 88F31188 		MSR basepri, r8
 740              	@ 0 "" 2
 741              		.thumb
 742 0172 D1F10101 		rsbs	r1, r1, #1
 743 0176 38BF     		it	cc
 744 0178 0021     		movcc	r1, #0
 745 017a 2720     		movs	r0, #39
 746 017c FFF7FEFF 		bl	_test_assert
 747 0180 0028     		cmp	r0, #0
 748 0182 7FF476AF 		bne	.L1
 749 0186 9DF80400 		ldrb	r0, [sp, #4]	@ zero_extendqisi2
 750 018a FFF7FEFF 		bl	test_emit_token
 751 018e 013C     		subs	r4, r4, #1
 752 0190 E4D1     		bne	.L20
 753 0192 2820     		movs	r0, #40
 754 0194 3949     		ldr	r1, .L36+4
 755 0196 FFF7FEFF 		bl	_test_assert_sequence
 756 019a 0028     		cmp	r0, #0
 757 019c 7FF469AF 		bne	.L1
 758              	@ 546 "/home/cody/dev/chibios/trunk/os/ext/CMSIS/include/core_cmFunc.h" 1
 759 01a0 86F31188 		MSR basepri, r6
 760              	@ 0 "" 2
 761              		.thumb
 762 01a4 696A     		ldr	r1, [r5, #36]
 763 01a6 2920     		movs	r0, #41
 764 01a8 B1F1050C 		subs	ip, r1, #5
 765 01ac DCF10001 		rsbs	r1, ip, #0
ARM GAS  /tmp/ccb32klv.s 			page 49


 766 01b0 51EB0C01 		adcs	r1, r1, ip
 767 01b4 FFF7FEFF 		bl	_test_assert
 768 01b8 0028     		cmp	r0, #0
 769 01ba 40F0C880 		bne	.L29
 770              	@ 546 "/home/cody/dev/chibios/trunk/os/ext/CMSIS/include/core_cmFunc.h" 1
 771 01be 84F31188 		MSR basepri, r4
 772              	@ 0 "" 2
 773              	@ 546 "/home/cody/dev/chibios/trunk/os/ext/CMSIS/include/core_cmFunc.h" 1
 774 01c2 86F31188 		MSR basepri, r6
 775              	@ 0 "" 2
 776              		.thumb
 777 01c6 A969     		ldr	r1, [r5, #24]
 778 01c8 2A20     		movs	r0, #42
 779 01ca D1F10101 		rsbs	r1, r1, #1
 780 01ce 38BF     		it	cc
 781 01d0 0021     		movcc	r1, #0
 782 01d2 FFF7FEFF 		bl	_test_assert
 783 01d6 0028     		cmp	r0, #0
 784 01d8 40F0B980 		bne	.L29
 785              	@ 546 "/home/cody/dev/chibios/trunk/os/ext/CMSIS/include/core_cmFunc.h" 1
 786 01dc 84F31188 		MSR basepri, r4
 787              	@ 0 "" 2
 788              		.thumb
 789 01e0 E968     		ldr	r1, [r5, #12]
 790 01e2 AB68     		ldr	r3, [r5, #8]
 791 01e4 2B20     		movs	r0, #43
 792 01e6 B1EB030E 		subs	lr, r1, r3
 793 01ea DEF10001 		rsbs	r1, lr, #0
 794 01ee 51EB0E01 		adcs	r1, r1, lr
 795 01f2 FFF7FEFF 		bl	_test_assert
 796 01f6 0028     		cmp	r0, #0
 797 01f8 7FF43BAF 		bne	.L1
 798 01fc 2846     		mov	r0, r5
 799 01fe FFF7FEFF 		bl	chMBReset
 800              	@ 546 "/home/cody/dev/chibios/trunk/os/ext/CMSIS/include/core_cmFunc.h" 1
 801 0202 86F31188 		MSR basepri, r6
 802              	@ 0 "" 2
 803              		.thumb
 804 0206 696A     		ldr	r1, [r5, #36]
 805 0208 2C20     		movs	r0, #44
 806 020a 4F1F     		subs	r7, r1, #5
 807 020c 7942     		rsbs	r1, r7, #0
 808 020e 7941     		adcs	r1, r1, r7
 809 0210 FFF7FEFF 		bl	_test_assert
 810 0214 0028     		cmp	r0, #0
 811 0216 40F09A80 		bne	.L29
 812              	@ 546 "/home/cody/dev/chibios/trunk/os/ext/CMSIS/include/core_cmFunc.h" 1
 813 021a 84F31188 		MSR basepri, r4
 814              	@ 0 "" 2
 815              	@ 546 "/home/cody/dev/chibios/trunk/os/ext/CMSIS/include/core_cmFunc.h" 1
 816 021e 86F31188 		MSR basepri, r6
 817              	@ 0 "" 2
 818              		.thumb
 819 0222 A969     		ldr	r1, [r5, #24]
 820 0224 2D20     		movs	r0, #45
 821 0226 D1F10101 		rsbs	r1, r1, #1
 822 022a 38BF     		it	cc
ARM GAS  /tmp/ccb32klv.s 			page 50


 823 022c 0021     		movcc	r1, #0
 824 022e FFF7FEFF 		bl	_test_assert
 825 0232 0028     		cmp	r0, #0
 826 0234 40F08B80 		bne	.L29
 827              	@ 546 "/home/cody/dev/chibios/trunk/os/ext/CMSIS/include/core_cmFunc.h" 1
 828 0238 84F31188 		MSR basepri, r4
 829              	@ 0 "" 2
 830              	@ 546 "/home/cody/dev/chibios/trunk/os/ext/CMSIS/include/core_cmFunc.h" 1
 831 023c 86F31188 		MSR basepri, r6
 832              	@ 0 "" 2
 833              		.thumb
 834 0240 2968     		ldr	r1, [r5]
 835 0242 AB68     		ldr	r3, [r5, #8]
 836 0244 2E20     		movs	r0, #46
 837 0246 CA1A     		subs	r2, r1, r3
 838 0248 5142     		rsbs	r1, r2, #0
 839 024a 5141     		adcs	r1, r1, r2
 840 024c FFF7FEFF 		bl	_test_assert
 841 0250 0028     		cmp	r0, #0
 842 0252 7CD1     		bne	.L29
 843              	@ 546 "/home/cody/dev/chibios/trunk/os/ext/CMSIS/include/core_cmFunc.h" 1
 844 0254 84F31188 		MSR basepri, r4
 845              	@ 0 "" 2
 846              	@ 546 "/home/cody/dev/chibios/trunk/os/ext/CMSIS/include/core_cmFunc.h" 1
 847 0258 86F31188 		MSR basepri, r6
 848              	@ 0 "" 2
 849              		.thumb
 850 025c 2968     		ldr	r1, [r5]
 851 025e EB68     		ldr	r3, [r5, #12]
 852 0260 2F20     		movs	r0, #47
 853 0262 CB1A     		subs	r3, r1, r3
 854 0264 5942     		rsbs	r1, r3, #0
 855 0266 5941     		adcs	r1, r1, r3
 856 0268 FFF7FEFF 		bl	_test_assert
 857              	.L31:
 858 026c 0023     		movs	r3, #0
 859              	.L26:
 860              	@ 546 "/home/cody/dev/chibios/trunk/os/ext/CMSIS/include/core_cmFunc.h" 1
 861 026e 83F31188 		MSR basepri, r3
 862              	@ 0 "" 2
 863              		.thumb
 864 0272 02B0     		add	sp, sp, #8
 865              		@ sp needed
 866 0274 BDE8F081 		pop	{r4, r5, r6, r7, r8, pc}
 867              	.L37:
 868              		.align	2
 869              	.L36:
 870 0278 00000000 		.word	.LANCHOR0
 871 027c 00000000 		.word	.LC0
 872              	.L33:
 873 0280 5821     		movs	r1, #88
 874 0282 0122     		movs	r2, #1
 875 0284 2846     		mov	r0, r5
 876 0286 FFF7FEFF 		bl	chMBPost
 877 028a B0F1FF37 		subs	r7, r0, #-1
 878 028e 7942     		rsbs	r1, r7, #0
 879 0290 7941     		adcs	r1, r1, r7
ARM GAS  /tmp/ccb32klv.s 			page 51


 880 0292 0420     		movs	r0, #4
 881 0294 FFF7FEFF 		bl	_test_assert
 882 0298 0446     		mov	r4, r0
 883 029a 0028     		cmp	r0, #0
 884 029c 7FF4E9AE 		bne	.L1
 885 02a0 2027     		movs	r7, #32
 886              	@ 546 "/home/cody/dev/chibios/trunk/os/ext/CMSIS/include/core_cmFunc.h" 1
 887 02a2 87F31188 		MSR basepri, r7
 888              	@ 0 "" 2
 889              		.thumb
 890 02a6 5821     		movs	r1, #88
 891 02a8 2846     		mov	r0, r5
 892 02aa FFF7FEFF 		bl	chMBPostI
 893 02ae 0146     		mov	r1, r0
 894              	@ 546 "/home/cody/dev/chibios/trunk/os/ext/CMSIS/include/core_cmFunc.h" 1
 895 02b0 84F31188 		MSR basepri, r4
 896              	@ 0 "" 2
 897              		.thumb
 898 02b4 B1F1FF34 		subs	r4, r1, #-1
 899 02b8 6142     		rsbs	r1, r4, #0
 900 02ba 6141     		adcs	r1, r1, r4
 901 02bc 0520     		movs	r0, #5
 902 02be FFF7FEFF 		bl	_test_assert
 903 02c2 0028     		cmp	r0, #0
 904 02c4 7FF4D5AE 		bne	.L1
 905 02c8 5821     		movs	r1, #88
 906 02ca 0122     		movs	r2, #1
 907 02cc 2846     		mov	r0, r5
 908 02ce FFF7FEFF 		bl	chMBPostAhead
 909 02d2 B0F1FF32 		subs	r2, r0, #-1
 910 02d6 5142     		rsbs	r1, r2, #0
 911 02d8 5141     		adcs	r1, r1, r2
 912 02da 0620     		movs	r0, #6
 913 02dc FFF7FEFF 		bl	_test_assert
 914 02e0 0446     		mov	r4, r0
 915 02e2 0028     		cmp	r0, #0
 916 02e4 7FF4C5AE 		bne	.L1
 917              	@ 546 "/home/cody/dev/chibios/trunk/os/ext/CMSIS/include/core_cmFunc.h" 1
 918 02e8 87F31188 		MSR basepri, r7
 919              	@ 0 "" 2
 920              		.thumb
 921 02ec 5821     		movs	r1, #88
 922 02ee 2846     		mov	r0, r5
 923 02f0 FFF7FEFF 		bl	chMBPostAheadI
 924 02f4 0146     		mov	r1, r0
 925              	@ 546 "/home/cody/dev/chibios/trunk/os/ext/CMSIS/include/core_cmFunc.h" 1
 926 02f6 84F31188 		MSR basepri, r4
 927              	@ 0 "" 2
 928              		.thumb
 929 02fa B1F1FF33 		subs	r3, r1, #-1
 930 02fe 5942     		rsbs	r1, r3, #0
 931 0300 4FF00700 		mov	r0, #7
 932 0304 5941     		adcs	r1, r1, r3
 933 0306 FFF7FEFF 		bl	_test_assert
 934 030a 8046     		mov	r8, r0
 935 030c 0028     		cmp	r0, #0
 936 030e 7FF4B0AE 		bne	.L1
ARM GAS  /tmp/ccb32klv.s 			page 52


 937              	@ 546 "/home/cody/dev/chibios/trunk/os/ext/CMSIS/include/core_cmFunc.h" 1
 938 0312 87F31188 		MSR basepri, r7
 939              	@ 0 "" 2
 940              		.thumb
 941 0316 696A     		ldr	r1, [r5, #36]
 942 0318 0820     		movs	r0, #8
 943 031a D1F10101 		rsbs	r1, r1, #1
 944 031e 38BF     		it	cc
 945 0320 0021     		movcc	r1, #0
 946 0322 FFF7FEFF 		bl	_test_assert
 947 0326 0446     		mov	r4, r0
 948 0328 10B1     		cbz	r0, .L7
 949              	@ 546 "/home/cody/dev/chibios/trunk/os/ext/CMSIS/include/core_cmFunc.h" 1
 950 032a 88F31188 		MSR basepri, r8
 951              	@ 0 "" 2
 952              		.thumb
 953 032e A0E6     		b	.L1
 954              	.L7:
 955              	@ 546 "/home/cody/dev/chibios/trunk/os/ext/CMSIS/include/core_cmFunc.h" 1
 956 0330 80F31188 		MSR basepri, r0
 957              	@ 0 "" 2
 958              	@ 546 "/home/cody/dev/chibios/trunk/os/ext/CMSIS/include/core_cmFunc.h" 1
 959 0334 87F31188 		MSR basepri, r7
 960              	@ 0 "" 2
 961              		.thumb
 962 0338 A969     		ldr	r1, [r5, #24]
 963 033a 0920     		movs	r0, #9
 964 033c B1F10508 		subs	r8, r1, #5
 965 0340 D8F10001 		rsbs	r1, r8, #0
 966 0344 51EB0801 		adcs	r1, r1, r8
 967 0348 FFF7FEFF 		bl	_test_assert
 968 034c 10B1     		cbz	r0, .L8
 969              	.L29:
 970              	@ 546 "/home/cody/dev/chibios/trunk/os/ext/CMSIS/include/core_cmFunc.h" 1
 971 034e 84F31188 		MSR basepri, r4
 972              	@ 0 "" 2
 973              		.thumb
 974 0352 8EE6     		b	.L1
 975              	.L8:
 976              	@ 546 "/home/cody/dev/chibios/trunk/os/ext/CMSIS/include/core_cmFunc.h" 1
 977 0354 80F31188 		MSR basepri, r0
 978              	@ 0 "" 2
 979              	@ 546 "/home/cody/dev/chibios/trunk/os/ext/CMSIS/include/core_cmFunc.h" 1
 980 0358 87F31188 		MSR basepri, r7
 981              	@ 0 "" 2
 982              		.thumb
 983 035c E968     		ldr	r1, [r5, #12]
 984 035e AB68     		ldr	r3, [r5, #8]
 985 0360 0A20     		movs	r0, #10
 986 0362 B1EB030C 		subs	ip, r1, r3
 987 0366 DCF10001 		rsbs	r1, ip, #0
 988 036a 51EB0C01 		adcs	r1, r1, ip
 989 036e FFF7FEFF 		bl	_test_assert
 990 0372 0023     		movs	r3, #0
 991 0374 0028     		cmp	r0, #0
 992 0376 7FF47AAF 		bne	.L26
 993              	@ 546 "/home/cody/dev/chibios/trunk/os/ext/CMSIS/include/core_cmFunc.h" 1
ARM GAS  /tmp/ccb32klv.s 			page 53


 994 037a 83F31188 		MSR basepri, r3
 995              	@ 0 "" 2
 996              		.thumb
 997 037e 0525     		movs	r5, #5
 998 0380 05E0     		b	.L11
 999              	.L35:
 1000 0382 9DF80400 		ldrb	r0, [sp, #4]	@ zero_extendqisi2
 1001 0386 FFF7FEFF 		bl	test_emit_token
 1002 038a 013D     		subs	r5, r5, #1
 1003 038c 10D0     		beq	.L34
 1004              	.L11:
 1005 038e 9C4C     		ldr	r4, .L38
 1006 0390 01A9     		add	r1, sp, #4
 1007 0392 2046     		mov	r0, r4
 1008 0394 4FF6FF72 		movw	r2, #65535
 1009 0398 FFF7FEFF 		bl	chMBFetch
 1010 039c D0F10101 		rsbs	r1, r0, #1
 1011 03a0 38BF     		it	cc
 1012 03a2 0021     		movcc	r1, #0
 1013 03a4 0B20     		movs	r0, #11
 1014 03a6 FFF7FEFF 		bl	_test_assert
 1015 03aa 0028     		cmp	r0, #0
 1016 03ac E9D0     		beq	.L35
 1017 03ae 60E6     		b	.L1
 1018              	.L34:
 1019 03b0 0C20     		movs	r0, #12
 1020 03b2 9449     		ldr	r1, .L38+4
 1021 03b4 FFF7FEFF 		bl	_test_assert_sequence
 1022 03b8 0028     		cmp	r0, #0
 1023 03ba 7FF45AAE 		bne	.L1
 1024 03be 4721     		movs	r1, #71
 1025 03c0 2046     		mov	r0, r4
 1026 03c2 4FF6FF72 		movw	r2, #65535
 1027 03c6 FFF7FEFF 		bl	chMBPost
 1028 03ca D0F10101 		rsbs	r1, r0, #1
 1029 03ce 38BF     		it	cc
 1030 03d0 0021     		movcc	r1, #0
 1031 03d2 0D20     		movs	r0, #13
 1032 03d4 FFF7FEFF 		bl	_test_assert
 1033 03d8 0028     		cmp	r0, #0
 1034 03da 7FF44AAE 		bne	.L1
 1035 03de 01A9     		add	r1, sp, #4
 1036 03e0 2046     		mov	r0, r4
 1037 03e2 4FF6FF72 		movw	r2, #65535
 1038 03e6 FFF7FEFF 		bl	chMBFetch
 1039 03ea D0F10101 		rsbs	r1, r0, #1
 1040 03ee 38BF     		it	cc
 1041 03f0 0021     		movcc	r1, #0
 1042 03f2 0E20     		movs	r0, #14
 1043 03f4 FFF7FEFF 		bl	_test_assert
 1044 03f8 0028     		cmp	r0, #0
 1045 03fa 7FF43AAE 		bne	.L1
 1046 03fe 2168     		ldr	r1, [r4]
 1047 0400 A368     		ldr	r3, [r4, #8]
 1048 0402 0F20     		movs	r0, #15
 1049 0404 B1EB030E 		subs	lr, r1, r3
 1050 0408 DEF10001 		rsbs	r1, lr, #0
ARM GAS  /tmp/ccb32klv.s 			page 54


 1051 040c 51EB0E01 		adcs	r1, r1, lr
 1052 0410 FFF7FEFF 		bl	_test_assert
 1053 0414 0028     		cmp	r0, #0
 1054 0416 7FF42CAE 		bne	.L1
 1055 041a 2168     		ldr	r1, [r4]
 1056 041c E368     		ldr	r3, [r4, #12]
 1057 041e 1020     		movs	r0, #16
 1058 0420 CF1A     		subs	r7, r1, r3
 1059 0422 7942     		rsbs	r1, r7, #0
 1060 0424 7941     		adcs	r1, r1, r7
 1061 0426 FFF7FEFF 		bl	_test_assert
 1062 042a 0028     		cmp	r0, #0
 1063 042c 7FF421AE 		bne	.L1
 1064 0430 01A9     		add	r1, sp, #4
 1065 0432 2046     		mov	r0, r4
 1066 0434 0122     		movs	r2, #1
 1067 0436 FFF7FEFF 		bl	chMBFetch
 1068 043a B0F1FF30 		subs	r0, r0, #-1
 1069 043e 4142     		rsbs	r1, r0, #0
 1070 0440 4141     		adcs	r1, r1, r0
 1071 0442 1120     		movs	r0, #17
 1072 0444 FFF7FEFF 		bl	_test_assert
 1073 0448 0028     		cmp	r0, #0
 1074 044a 7FF412AE 		bne	.L1
 1075 044e 2027     		movs	r7, #32
 1076              	@ 546 "/home/cody/dev/chibios/trunk/os/ext/CMSIS/include/core_cmFunc.h" 1
 1077 0450 87F31188 		MSR basepri, r7
 1078              	@ 0 "" 2
 1079              		.thumb
 1080 0454 01A9     		add	r1, sp, #4
 1081 0456 2046     		mov	r0, r4
 1082 0458 FFF7FEFF 		bl	chMBFetchI
 1083 045c 0146     		mov	r1, r0
 1084              	@ 546 "/home/cody/dev/chibios/trunk/os/ext/CMSIS/include/core_cmFunc.h" 1
 1085 045e 85F31188 		MSR basepri, r5
 1086              	@ 0 "" 2
 1087              		.thumb
 1088 0462 B1F1FF32 		subs	r2, r1, #-1
 1089 0466 5142     		rsbs	r1, r2, #0
 1090 0468 5141     		adcs	r1, r1, r2
 1091 046a 1220     		movs	r0, #18
 1092 046c FFF7FEFF 		bl	_test_assert
 1093 0470 0028     		cmp	r0, #0
 1094 0472 7FF4FEAD 		bne	.L1
 1095              	@ 546 "/home/cody/dev/chibios/trunk/os/ext/CMSIS/include/core_cmFunc.h" 1
 1096 0476 87F31188 		MSR basepri, r7
 1097              	@ 0 "" 2
 1098              		.thumb
 1099 047a 616A     		ldr	r1, [r4, #36]
 1100 047c 1320     		movs	r0, #19
 1101 047e 4B1F     		subs	r3, r1, #5
 1102 0480 5942     		rsbs	r1, r3, #0
 1103 0482 5941     		adcs	r1, r1, r3
 1104 0484 FFF7FEFF 		bl	_test_assert
 1105 0488 0028     		cmp	r0, #0
 1106 048a 7FF4EFAE 		bne	.L31
 1107 048e 0027     		movs	r7, #0
ARM GAS  /tmp/ccb32klv.s 			page 55


 1108              	@ 546 "/home/cody/dev/chibios/trunk/os/ext/CMSIS/include/core_cmFunc.h" 1
 1109 0490 87F31188 		MSR basepri, r7
 1110              	@ 0 "" 2
 1111              		.thumb
 1112 0494 2025     		movs	r5, #32
 1113              	@ 546 "/home/cody/dev/chibios/trunk/os/ext/CMSIS/include/core_cmFunc.h" 1
 1114 0496 85F31188 		MSR basepri, r5
 1115              	@ 0 "" 2
 1116              		.thumb
 1117 049a B169     		ldr	r1, [r6, #24]
 1118 049c 1420     		movs	r0, #20
 1119 049e B1EB0708 		subs	r8, r1, r7
 1120 04a2 D8F10001 		rsbs	r1, r8, #0
 1121 04a6 51EB0801 		adcs	r1, r1, r8
 1122 04aa FFF7FEFF 		bl	_test_assert
 1123 04ae 544C     		ldr	r4, .L38
 1124 04b0 0646     		mov	r6, r0
 1125 04b2 10B1     		cbz	r0, .L13
 1126              	@ 546 "/home/cody/dev/chibios/trunk/os/ext/CMSIS/include/core_cmFunc.h" 1
 1127 04b4 87F31188 		MSR basepri, r7
 1128              	@ 0 "" 2
 1129              		.thumb
 1130 04b8 DBE5     		b	.L1
 1131              	.L13:
 1132              	@ 546 "/home/cody/dev/chibios/trunk/os/ext/CMSIS/include/core_cmFunc.h" 1
 1133 04ba 80F31188 		MSR basepri, r0
 1134              	@ 0 "" 2
 1135              	@ 546 "/home/cody/dev/chibios/trunk/os/ext/CMSIS/include/core_cmFunc.h" 1
 1136 04be 85F31188 		MSR basepri, r5
 1137              	@ 0 "" 2
 1138              		.thumb
 1139 04c2 E168     		ldr	r1, [r4, #12]
 1140 04c4 A368     		ldr	r3, [r4, #8]
 1141 04c6 1520     		movs	r0, #21
 1142 04c8 B1EB030C 		subs	ip, r1, r3
 1143 04cc DCF10001 		rsbs	r1, ip, #0
 1144 04d0 51EB0C01 		adcs	r1, r1, ip
 1145 04d4 FFF7FEFF 		bl	_test_assert
 1146 04d8 10B1     		cbz	r0, .L14
 1147              	@ 546 "/home/cody/dev/chibios/trunk/os/ext/CMSIS/include/core_cmFunc.h" 1
 1148 04da 86F31188 		MSR basepri, r6
 1149              	@ 0 "" 2
 1150              		.thumb
 1151 04de C8E5     		b	.L1
 1152              	.L14:
 1153              	@ 546 "/home/cody/dev/chibios/trunk/os/ext/CMSIS/include/core_cmFunc.h" 1
 1154 04e0 80F31188 		MSR basepri, r0
 1155              	@ 0 "" 2
 1156              	@ 546 "/home/cody/dev/chibios/trunk/os/ext/CMSIS/include/core_cmFunc.h" 1
 1157 04e4 85F31188 		MSR basepri, r5
 1158              	@ 0 "" 2
 1159              		.thumb
 1160 04e8 4121     		movs	r1, #65
 1161 04ea 2046     		mov	r0, r4
 1162 04ec FFF7FEFF 		bl	chMBPostI
 1163 04f0 D0F10101 		rsbs	r1, r0, #1
 1164 04f4 38BF     		it	cc
ARM GAS  /tmp/ccb32klv.s 			page 56


 1165 04f6 0021     		movcc	r1, #0
 1166 04f8 1620     		movs	r0, #22
 1167 04fa FFF7FEFF 		bl	_test_assert
 1168 04fe 0028     		cmp	r0, #0
 1169 0500 7FF4B7AD 		bne	.L1
 1170 0504 4221     		movs	r1, #66
 1171 0506 2046     		mov	r0, r4
 1172 0508 FFF7FEFF 		bl	chMBPostI
 1173 050c D0F10101 		rsbs	r1, r0, #1
 1174 0510 38BF     		it	cc
 1175 0512 0021     		movcc	r1, #0
 1176 0514 1720     		movs	r0, #23
 1177 0516 FFF7FEFF 		bl	_test_assert
 1178 051a 0028     		cmp	r0, #0
 1179 051c 7FF4A9AD 		bne	.L1
 1180 0520 4321     		movs	r1, #67
 1181 0522 2046     		mov	r0, r4
 1182 0524 FFF7FEFF 		bl	chMBPostI
 1183 0528 D0F10101 		rsbs	r1, r0, #1
 1184 052c 38BF     		it	cc
 1185 052e 0021     		movcc	r1, #0
 1186 0530 1820     		movs	r0, #24
 1187 0532 FFF7FEFF 		bl	_test_assert
 1188 0536 0028     		cmp	r0, #0
 1189 0538 7FF49BAD 		bne	.L1
 1190 053c 4421     		movs	r1, #68
 1191 053e 2046     		mov	r0, r4
 1192 0540 FFF7FEFF 		bl	chMBPostI
 1193 0544 D0F10101 		rsbs	r1, r0, #1
 1194 0548 38BF     		it	cc
 1195 054a 0021     		movcc	r1, #0
 1196 054c 1920     		movs	r0, #25
 1197 054e FFF7FEFF 		bl	_test_assert
 1198 0552 0646     		mov	r6, r0
 1199 0554 0028     		cmp	r0, #0
 1200 0556 7FF48CAD 		bne	.L1
 1201 055a 2046     		mov	r0, r4
 1202 055c 4521     		movs	r1, #69
 1203 055e FFF7FEFF 		bl	chMBPostI
 1204 0562 0146     		mov	r1, r0
 1205              	@ 546 "/home/cody/dev/chibios/trunk/os/ext/CMSIS/include/core_cmFunc.h" 1
 1206 0564 86F31188 		MSR basepri, r6
 1207              	@ 0 "" 2
 1208              		.thumb
 1209 0568 D1F10101 		rsbs	r1, r1, #1
 1210 056c 38BF     		it	cc
 1211 056e 0021     		movcc	r1, #0
 1212 0570 1A20     		movs	r0, #26
 1213 0572 FFF7FEFF 		bl	_test_assert
 1214 0576 0028     		cmp	r0, #0
 1215 0578 7FF47BAD 		bne	.L1
 1216 057c E168     		ldr	r1, [r4, #12]
 1217 057e A368     		ldr	r3, [r4, #8]
 1218 0580 1B20     		movs	r0, #27
 1219 0582 B1EB030E 		subs	lr, r1, r3
 1220 0586 DEF10001 		rsbs	r1, lr, #0
 1221 058a 51EB0E01 		adcs	r1, r1, lr
ARM GAS  /tmp/ccb32klv.s 			page 57


 1222 058e FFF7FEFF 		bl	_test_assert
 1223 0592 0028     		cmp	r0, #0
 1224 0594 7FF46DAD 		bne	.L1
 1225 0598 A846     		mov	r8, r5
 1226 059a 0746     		mov	r7, r0
 1227 059c 0525     		movs	r5, #5
 1228              	.L16:
 1229 059e 2026     		movs	r6, #32
 1230              	@ 546 "/home/cody/dev/chibios/trunk/os/ext/CMSIS/include/core_cmFunc.h" 1
 1231 05a0 88F31188 		MSR basepri, r8
 1232              	@ 0 "" 2
 1233              		.thumb
 1234 05a4 164C     		ldr	r4, .L38
 1235 05a6 01A9     		add	r1, sp, #4
 1236 05a8 2046     		mov	r0, r4
 1237 05aa FFF7FEFF 		bl	chMBFetchI
 1238 05ae 0146     		mov	r1, r0
 1239              	@ 546 "/home/cody/dev/chibios/trunk/os/ext/CMSIS/include/core_cmFunc.h" 1
 1240 05b0 87F31188 		MSR basepri, r7
 1241              	@ 0 "" 2
 1242              		.thumb
 1243 05b4 D1F10101 		rsbs	r1, r1, #1
 1244 05b8 38BF     		it	cc
 1245 05ba 0021     		movcc	r1, #0
 1246 05bc 1C20     		movs	r0, #28
 1247 05be FFF7FEFF 		bl	_test_assert
 1248 05c2 0028     		cmp	r0, #0
 1249 05c4 7FF455AD 		bne	.L1
 1250 05c8 9DF80400 		ldrb	r0, [sp, #4]	@ zero_extendqisi2
 1251 05cc FFF7FEFF 		bl	test_emit_token
 1252 05d0 013D     		subs	r5, r5, #1
 1253 05d2 E4D1     		bne	.L16
 1254 05d4 1D20     		movs	r0, #29
 1255 05d6 0B49     		ldr	r1, .L38+4
 1256 05d8 FFF7FEFF 		bl	_test_assert_sequence
 1257 05dc 0028     		cmp	r0, #0
 1258 05de 7FF448AD 		bne	.L1
 1259              	@ 546 "/home/cody/dev/chibios/trunk/os/ext/CMSIS/include/core_cmFunc.h" 1
 1260 05e2 86F31188 		MSR basepri, r6
 1261              	@ 0 "" 2
 1262              		.thumb
 1263 05e6 616A     		ldr	r1, [r4, #36]
 1264 05e8 1E20     		movs	r0, #30
 1265 05ea 4F1F     		subs	r7, r1, #5
 1266 05ec 7942     		rsbs	r1, r7, #0
 1267 05ee 7941     		adcs	r1, r1, r7
 1268 05f0 FFF7FEFF 		bl	_test_assert
 1269 05f4 0028     		cmp	r0, #0
 1270 05f6 3FF43FAD 		beq	.L17
 1271              	.L30:
 1272              	@ 546 "/home/cody/dev/chibios/trunk/os/ext/CMSIS/include/core_cmFunc.h" 1
 1273 05fa 85F31188 		MSR basepri, r5
 1274              	@ 0 "" 2
 1275              		.thumb
 1276 05fe 38E5     		b	.L1
 1277              	.L39:
 1278              		.align	2
ARM GAS  /tmp/ccb32klv.s 			page 58


 1279              	.L38:
 1280 0600 00000000 		.word	.LANCHOR0
 1281 0604 00000000 		.word	.LC0
 1282              		.size	mbox1_execute, .-mbox1_execute
 1283 0608 AFF30080 		.section	.text.mbox1_setup,"ax",%progbits
 1283      AFF30080 
 1284              		.align	2
 1285              		.p2align 4,,15
 1286              		.thumb
 1287              		.thumb_func
 1288              		.type	mbox1_setup, %function
 1289              	mbox1_setup:
 1290              		@ args = 0, pretend = 0, frame = 0
 1291              		@ frame_needed = 0, uses_anonymous_args = 0
 1292              		@ link register save eliminated.
 1293 0000 0248     		ldr	r0, .L41
 1294 0002 0349     		ldr	r1, .L41+4
 1295 0004 0522     		movs	r2, #5
 1296 0006 FFF7FEBF 		b	chMBObjectInit
 1297              	.L42:
 1298 000a 00BF     		.align	2
 1299              	.L41:
 1300 000c 00000000 		.word	.LANCHOR0
 1301 0010 00000000 		.word	test
 1302              		.size	mbox1_setup, .-mbox1_setup
 1303              		.global	patternmbox
 1304              		.global	testmbox1
 1305 0014 AFF30080 		.section	.data.mb1,"aw",%progbits
 1305      AFF30080 
 1305      AFF30080 
 1306              		.align	2
 1307              		.set	.LANCHOR0,. + 0
 1308              		.type	mb1, %object
 1309              		.size	mb1, 40
 1310              	mb1:
 1311 0000 00000000 		.word	test
 1312 0004 14000000 		.word	test+20
 1313 0008 00000000 		.word	test
 1314 000c 00000000 		.word	test
 1315 0010 10000000 		.word	mb1+16
 1316 0014 10000000 		.word	mb1+16
 1317 0018 00000000 		.word	0
 1318 001c 1C000000 		.word	mb1+28
 1319 0020 1C000000 		.word	mb1+28
 1320 0024 05000000 		.word	5
 1321              		.section	.rodata.patternmbox,"a",%progbits
 1322              		.align	2
 1323              		.type	patternmbox, %object
 1324              		.size	patternmbox, 8
 1325              	patternmbox:
 1326 0000 00000000 		.word	testmbox1
 1327 0004 00000000 		.word	0
 1328              		.section	.rodata.str1.4,"aMS",%progbits,1
 1329              		.align	2
 1330              	.LC0:
 1331 0000 41424344 		.ascii	"ABCDE\000"
 1331      4500
ARM GAS  /tmp/ccb32klv.s 			page 59


 1332 0006 0000     		.space	2
 1333              	.LC1:
 1334 0008 4D61696C 		.ascii	"Mailboxes, queuing and timeouts\000"
 1334      626F7865 
 1334      732C2071 
 1334      75657569 
 1334      6E672061 
 1335              		.section	.rodata.testmbox1,"a",%progbits
 1336              		.align	2
 1337              		.type	testmbox1, %object
 1338              		.size	testmbox1, 16
 1339              	testmbox1:
 1340 0000 08000000 		.word	.LC1
 1341 0004 00000000 		.word	mbox1_setup
 1342 0008 00000000 		.word	0
 1343 000c 00000000 		.word	mbox1_execute
 1344              		.comm	__gnu_lto_v1,1,1
 1345              		.ident	"GCC: (GNU Tools for ARM Embedded Processors) 4.8.4 20140526 (release) [ARM/embedded-4_8-br
ARM GAS  /tmp/ccb32klv.s 			page 60


DEFINED SYMBOLS
                            *ABS*:0000000000000000 testmbox.c
     /tmp/ccb32klv.s:566    .text.mbox1_execute:0000000000000000 $t
     /tmp/ccb32klv.s:571    .text.mbox1_execute:0000000000000000 mbox1_execute
     /tmp/ccb32klv.s:870    .text.mbox1_execute:0000000000000278 $d
     /tmp/ccb32klv.s:873    .text.mbox1_execute:0000000000000280 $t
     /tmp/ccb32klv.s:1280   .text.mbox1_execute:0000000000000600 $d
     /tmp/ccb32klv.s:1284   .text.mbox1_setup:0000000000000000 $t
     /tmp/ccb32klv.s:1289   .text.mbox1_setup:0000000000000000 mbox1_setup
     /tmp/ccb32klv.s:1300   .text.mbox1_setup:000000000000000c $d
     /tmp/ccb32klv.s:1325   .rodata.patternmbox:0000000000000000 patternmbox
     /tmp/ccb32klv.s:1339   .rodata.testmbox1:0000000000000000 testmbox1
     /tmp/ccb32klv.s:1306   .data.mb1:0000000000000000 $d
     /tmp/ccb32klv.s:1310   .data.mb1:0000000000000000 mb1
     /tmp/ccb32klv.s:1322   .rodata.patternmbox:0000000000000000 $d
     /tmp/ccb32klv.s:1329   .rodata.str1.4:0000000000000000 $d
     /tmp/ccb32klv.s:1336   .rodata.testmbox1:0000000000000000 $d
                            *COM*:0000000000000001 __gnu_lto_v1
     /tmp/ccb32klv.s:1283   .text.mbox1_execute:0000000000000608 $t
     /tmp/ccb32klv.s:1305   .text.mbox1_setup:0000000000000014 $t

UNDEFINED SYMBOLS
_test_assert
chMBPost
chMBPostAhead
chMBPostAheadI
chMBFetchI
test_emit_token
_test_assert_sequence
chMBReset
chMBPostI
chMBFetch
chMBObjectInit
test
