ARM GAS  /tmp/cclMOOKo.s 			page 1


   1              		.syntax unified
   2              		.cpu cortex-m4
   3              		.eabi_attribute 27, 3
   4              		.eabi_attribute 28, 1
   5              		.fpu fpv4-sp-d16
   6              		.eabi_attribute 20, 1
   7              		.eabi_attribute 21, 1
   8              		.eabi_attribute 23, 3
   9              		.eabi_attribute 24, 1
  10              		.eabi_attribute 25, 1
  11              		.eabi_attribute 26, 1
  12              		.eabi_attribute 30, 2
  13              		.eabi_attribute 34, 1
  14              		.eabi_attribute 18, 4
  15              		.thumb
  16              		.file	"ustr.c"
  17              		.section	.gnu.lto_.jmpfuncs.d8608bb67e019447,"",%progbits
  18 0000 789C6362 		.ascii	"x\234cb`b\300\006x\2404+\003##3\023333\0133\003\000"
  18      6062C006 
  18      78A0342B 
  18      03232333 
  18      13333333 
  19 0018 027C002D 		.ascii	"\002|\000-"
  20              		.text
  21              		.section	.gnu.lto_.inline.d8608bb67e019447,"",%progbits
  22 0000 789C6362 		.ascii	"x\234cb`b\300\0062\2414+\003\003\207%#\003\023\327\266"
  22      6062C006 
  22      32A1342B 
  22      03038725 
  22      230313D7 
  23 0015 2B6C0C6C 		.ascii	"+l\014l\013\344\301\252\031\031\370\033\031\201\202"
  23      0BE4C1AA 
  23      1919F81B 
  23      198182
  24 0024 12278EF2 		.ascii	"\022'\216\362\303\005\231\030xl\201bB\337&\261\303\305"
  24      C3059918 
  24      786C8162 
  24      42DF26B1 
  24      C3C5
  25 0036 9819847A 		.ascii	"\230\031\204zA\012e\377\375\022``\357P\007\013\2620"
  25      410A65FF 
  25      FD126060 
  25      EF50070B 
  25      B230
  26 0048 881E0209 		.ascii	"\210\036\002\011\252\374\331.\016W\311\000\000I\326"
  26      AAFCD92E 
  26      0E57C900 
  26      0049D6
  27 0057 0FF5     		.ascii	"\017\365"
  28              		.text
  29              		.section	.gnu.lto_.pureconst.d8608bb67e019447,"",%progbits
  30 0000 789C6362 		.ascii	"x\234cb`b\340f\200\000V\006VF)&)f)\026)\000\003l\000"
  30      6062E066 
  30      80005606 
  30      56462926 
  30      29662916 
  31 0019 8C       		.ascii	"\214"
ARM GAS  /tmp/cclMOOKo.s 			page 2


  32              		.text
  33              		.section	.gnu.lto_uStrLen.d8608bb67e019447,"",%progbits
  34 0000 789C8552 		.ascii	"x\234\205R\273JCA\020=g\367\276\010\202\202\225]\310"
  34      BB4A4341 
  34      103D67F7 
  34      BE088282 
  34      955DC8
  35 0013 0704C1DA 		.ascii	"\007\004\301\332\277H@\313\020$\004T\360U\347\276\004"
  35      BF4840CB 
  35      10240454 
  35      F055E7BE 
  35      04
  36 0024 D12021A5 		.ascii	"\321 !\245i\014\222N\024[\253\330h\032\005;\355.X(("
  36      690C924E 
  36      145BABD8 
  36      681A053B 
  36      ED2E5828 
  37 0039 E20788D7 		.ascii	"\342\007\210\327\331\344&\242\215\003;3;sf\346\314\262"
  37      D9E426A2 
  37      8D033B33 
  37      3B7366E6 
  37      CCB2
  38 004b 0A0A7F65 		.ascii	"\012\012\177eQ\316\031\201Y\261t@\325\272\003\002O\321"
  38      51CE1981 
  38      59B17440 
  38      D5BA0302 
  38      4FD1
  39 005d 1A397AE4 		.ascii	"\0329z\344\\y\226\322\315\033\300\317\331\261\013\177"
  39      5C7996D2 
  39      CD1BC0CF 
  39      D9B10B7F 
  40 006d CA264D1C 		.ascii	"\312&M\034DCi\313fc\231\246\235*\240\353\373\355\244"
  40      444369CB 
  40      666399A6 
  40      9D2AA0EB 
  40      FBEDA4
  41 0080 777D38B7 		.ascii	"w}8\267\177\034\266\374\2574e\23528GT\211%\2710?4\260"
  41      7F1CB6FC 
  41      AF34659D 
  41      32384754 
  41      8925B930 
  42 0097 7E331956 		.ascii	"~3\031V\266\372\027\311\200~\333\017>\322t\272N\245"
  42      B6FA17C9 
  42      807EDB0F 
  42      3ED274BA 
  42      4EA5
  43 00a9 30F35FE1 		.ascii	"0\363_\341\271\352'i\372\031nxD\205',\310\264\012\273"
  43      B9EA2769 
  43      FA196E78 
  43      4485272C 
  43      C8B40ABB 
  44 00bd 6235D70C 		.ascii	"b5\327\014\272N\355\210\262\334,-b#\226a\371\361\275"
  44      BA4EED88 
  44      B2DC2C2D 
  44      62239661 
  44      F9F1BD
  45 00d0 3A245F12 		.ascii	":$_\022-\313\225\250\304\35025dc}\213h/z}`\205=\332"
ARM GAS  /tmp/cclMOOKo.s 			page 3


  45      2DCB95A8 
  45      C4E83235 
  45      64637D8B 
  45      682F7A7D 
  46 00e8 A8D1AD91 		.ascii	"\250\321\255\221\206\206b6\277L\013\362\026\002\014"
  46      86866236 
  46      BF4C0BF2 
  46      16020C
  47 00f7 DFA3E797 		.ascii	"\337\243\347\227\011P\011\020\220\362\003=\016Y5jI\230"
  47      09500910 
  47      90F2033D 
  47      0E59356A 
  47      4998
  48 0109 6878B97B 		.ascii	"hx\271{6\201:\035\034IK[\020\246\265\316:\017\020\277"
  48      36813A1D 
  48      1C494B5B 
  48      10A6B5CE 
  48      3A0F10BF 
  49 011d 050B1390 		.ascii	"\005\013\023\220I9?{?b\304C^\275\0319BL\237>9\206\216"
  49      49393F7B 
  49      3F62C443 
  49      5EBD1939 
  49      424C9F3E 
  50 0134 6DE8DF23 		.ascii	"m\350\337#H:\336\2706\343Z\022'v\315/pw\266\2667\213"
  50      483ADEB8 
  50      36E35A12 
  50      2776CD2F 
  50      7077B6B6 
  51 014a 55D8AB2B 		.ascii	"U\330\253+\353\305y-\372\033\2666i\310"
  51      EBC5792D 
  51      FA1BB636 
  51      69C8
  52              		.text
  53              		.section	.gnu.lto_uStrCpy.d8608bb67e019447,"",%progbits
  54 0000 789C8552 		.ascii	"x\234\205RMk\024A\020\255\327==3\311\256\273\233D\017"
  54      4D6B1441 
  54      10ADD73D 
  54      3D33C9AE 
  54      BB9B440F 
  55 0014 8287901F 		.ascii	"\202\207\220\037\020\024\377\205\347\004\314\315\020"
  55      1014FF85 
  55      E704CCCD 
  55      10
  56 0021 6458500F 		.ascii	"dXP\017~\\M\317\316\012A\367\260\344\250\027\027\011"
  56      7E5C4DCF 
  56      CE0A41F7 
  56      B0E4A817 
  56      1709
  57 0033 4A087AF0 		.ascii	"J\010z\360\340\307\305\315\311((\021<\270\267\005\361"
  57      E0C7C5CD 
  57      C9282811 
  57      3CB8B705 
  57      F1
  58 0044 0314F1E0 		.ascii	"\003\024\361\340\301\223\343\353\351\331\335(\202\015"
  58      C193E3EB 
  58      E9D9DD28 
  58      820D
ARM GAS  /tmp/cclMOOKo.s 			page 4


  59 0052 53D5F3EA 		.ascii	"S\325\363\352U\327\253\352V\242\344\357u\206\337)-r"
  59      55D7ABEA 
  59      56A2E4EF 
  59      7586DF29 
  59      2D72
  60 0064 841E5302 		.ascii	"\204\036S\002\325}-\222\306\012\201\337h\277\331\215"
  60      D57D2D92 
  60      C60A81DF 
  60      68BFD98D 
  61 0074 03A53BCF 		.ascii	"\003\245;\317E\354t\330\216\304VC\304\016\207\361~7"
  61      45EC74D8 
  61      8EC45643 
  61      C40E87F1 
  61      7E37
  62 0086 8E95F1F1 		.ascii	"\216\225\361\361\250\210G\200\303\005\262\256t\020\232"
  62      A8884780 
  62      C305B2AE 
  62      74109A
  63 0095 38C2FA0A 		.ascii	"8\302\372\012\\E\275 =k\273\303\017/;G\355\355V\327"
  63      5C45BD20 
  63      3D6BBBC3 
  63      0F2F3B47 
  63      EDED56D7 
  64 00a9 FECA7334 		.ascii	"\376\312s4Am\323\2205\310i\376`\276p*\370Sl\221\271"
  64      416DD390 
  64      35C869FE 
  64      60BE702A 
  64      F8536C91 
  65 00be D91FFCEC 		.ascii	"\331\037\374\354\303^\267\351\367<\2577\241\225\324"
  65      C35EB7E9 
  65      F73CAF37 
  65      A195D4
  66 00cd 26890D9F 		.ascii	"&\211\015\237\250\376\231\370\360\307^\017vs\224IV\343"
  66      A8FE99F8 
  66      F0C75E0F 
  66      76739449 
  66      56E3
  67 00df 7F251FA8 		.ascii	"\177%\037\250\3760\317w\266\366\217\035\206\254\342"
  67      FE30CF77 
  67      B6F68F1D 
  67      86ACE2
  68 00ee 0E1624C0 		.ascii	"\016\026$\300y\210)\177B\241\364\210F\305\2049\301&"
  68      7988297F 
  68      42A1F488 
  68      46C58439 
  68      C126
  69 0100 820A8DA9 		.ascii	"\202\012\215\251\322\204\265\222U\247\357\3217J?C\277"
  69      D284B592 
  69      55A7EFD1 
  69      374A3F43 
  69      BF
  70 0111 453FEB98 		.ascii	"E?\353\230s\216\311RF\332\234\313\274g\370<q\352\270"
  70      738EC952 
  70      46DA9CCB 
  70      BC67F83C 
  70      71EAB8
  71 0124 966839D6 		.ascii	"\226h9\326%(:\275\014-\234\265~%\331F\366\345\035\312"
ARM GAS  /tmp/cclMOOKo.s 			page 5


  71      25283ABD 
  71      0C2D9CB5 
  71      7E25D946 
  71      F6E51DCA 
  72 0138 4461D25D 		.ascii	"Da\322]\376p%h$\250\273~\004e#\313\010\2047\302\244"
  72      FE702568 
  72      24A8BB7E 
  72      046523CB 
  72      088437C2 
  73 014d D6B7ECD3 		.ascii	"\326\267\354\323g\254\342\036\271\011fH\024\341Q7\364"
  73      67ACE21E 
  73      B9096648 
  73      14E15137 
  73      F4
  74 015e 089A4D10 		.ascii	"\010\232M\0200\340\320\326\323k\367\307\324\271[r3\265"
  74      30E0D0D6 
  74      D36BF7C7 
  74      D4B95B72 
  74      33B5
  75 0170 B6D14444 		.ascii	"\266\321DD\222;\335\224\207\357I\373kzr\314s\241x2\303"
  75      923BDD94 
  75      87EF49FB 
  75      6B7A72CC 
  75      73A17832 
  76 0185 81782922 		.ascii	"\201x)\"\252\223\205\324\246w\336\207NQ\350\272qq\343"
  76      AA9385D4 
  76      A677DE87 
  76      4E51E8BA 
  76      7171E3
  77 0198 E2DC056F 		.ascii	"\342\334\005o\215\303M\331\036\225>;\341\233J\\M\214"
  77      8DC34DD9 
  77      1E953E3B 
  77      E19B4A5C 
  77      4D8C
  78 01aa 857A682A 		.ascii	"\205zh*A\314\200G\263\253#\270R\350\217\274~3B\253T"
  78      41CC8047 
  78      B3AB23B8 
  78      52E88FBC 
  78      7E3342AB 
  79 01bf 8F427AE5 		.ascii	"\217Bz\345\240tr^\354\207\236\344\373\263\207x\037<"
  79      A074725E 
  79      EC879EE4 
  79      FBB38778 
  79      1F3C
  80 01d1 DCB1FC6B 		.ascii	"\334\261\374k`rQc#{4\030\027\257QO!{2\341\330M\030\205"
  80      60725163 
  80      237B3418 
  80      17AF514F 
  80      217B32E1 
  81 01e9 EE6D8C78 		.ascii	"\356m\214xa\241\233\023\372\230V\016`\365\311t\220\300"
  81      61A19B13 
  81      FA98560E 
  81      60F5C974 
  81      90C0
  82 01fb 843435F3 		.ascii	"\20445\3638r\307Dn,o$\035>Q\343\033\025\377\014\300"
  82      3872C744 
  82      6E2C6F24 
ARM GAS  /tmp/cclMOOKo.s 			page 6


  82      1D3E51E3 
  82      1B15FF0C 
  83 0210 907BDBD1 		.ascii	"\220{\333\321\225K\227/.\256\211>w\366\002\232\206v"
  83      954B972F 
  83      2EAE893E 
  83      77F6029A 
  83      8676
  84 0222 F1F86F6D 		.ascii	"\361\370om}\303\367"
  84      7DC3F7
  85              		.text
  86              		.section	.gnu.lto_uStrAppendChar.d8608bb67e019447,"",%progbits
  87 0000 789C8552 		.ascii	"x\234\205R1K\034A\024\376\336\314\316\336\335z\311\011"
  87      314B1C41 
  87      14FEDECC 
  87      CEDEDD7A 
  87      C909
  88 0012 567622D8 		.ascii	"Vv\"\330\036\202\265\377BCR\312!\213\240\026&\3267{"
  88      1E82B5FF 
  88      424352CA 
  88      218BA016 
  88      26D6377B 
  89 0026 7B82902B 		.ascii	"{\202\220+\016\313\244\311\021\222 \210\0126b\245\225"
  89      0ECBA4C9 
  89      11922088 
  89      0A3662A5 
  89      95
  90 0037 8218A295 		.ascii	"\202\030\242\225v\007)\"$\204\024\226\342\372\315\316"
  90      76072922 
  90      24841496 
  90      E2FACDCE 
  91 0047 7A922064 		.ascii	"z\222 d`\336\233\235\367\275\357}\357\315*(\374\273"
  91      60DE9B9D 
  91      F7BDEF7D 
  91      EFCD2A28 
  91      FCBB
  92 0059 A6B95FF0 		.ascii	"\246\271_\360z\204^B\210\352~\005\222\262\222\300\037"
  92      7A845E42 
  92      88EA7E05 
  92      92B292C0 
  92      1F
  93 006a B43F1C95 		.ascii	"\264?\034\225\003\245;\307\200\215L\273\004[5\"\356"
  93      03A53BC7 
  93      808D4CBB 
  93      045B3522 
  93      EE
  94 007b 1E82A6D2 		.ascii	"\036\202\246\322\201\221\346+qtj\034=k\273\375\265\213"
  94      8191E62B 
  94      71746A1C 
  94      3D6BBBFD 
  94      B58B
  95 008d CEA8FDD0 		.ascii	"\316\250\375\320\352\332\273,\223\005a\341H\320\020"
  95      EADABB2C 
  95      930561E1 
  95      48D010
  96 009c BCE4878C 		.ascii	"\274\344\207\214\345N\005\177+\31137\016\367nNzb7l\362"
  96      E54E057F 
  96      2BC93337 
ARM GAS  /tmp/cclMOOKo.s 			page 7


  96      0EF76E4E 
  96      7A62376C 
  97 00b1 27CB6A44 		.ascii	"'\313jD)<\377_\346\216:\354g\331\355\227o\023\317\224"
  97      293CFF5F 
  97      E68E3AEC 
  97      67D9ED97 
  97      6F13CF94 
  98 00c5 2C09348D 		.ascii	",\0114\215\030\020\030\322\3502\346\244'\343\250\024"
  98      181018D2 
  98      E832E6A4 
  98      27E3A814 
  99 00d5 3EA2FF48 		.ascii	">\242\377H?\304`P\2451\3440hS\367\230G\300\025\344\232"
  99      3FC46050 
  99      A531E430 
  99      6853F798 
  99      47C015E4 
 100 00ea A165B733 		.ascii	"\241e\2673\242\350\364\254hp\004\372\014\351z\372\363"
 100      A2E8F4AC 
 100      687004FA 
 100      0CE97AFA 
 100      F3
 101 00fb 528A1490 		.ascii	"R\212\024\220\356S\316\201X*\261\224\235DH\241mV\002"
 101      EE53CE81 
 101      582AB194 
 101      9D4448A1 
 101      6D5602
 102 010e 70504C6A 		.ascii	"pPLj\375N\177\\\313\234|&6\226\210@\200To\365\303\325"
 102      FD4E7F5C 
 102      CB9C7C26 
 102      36968840 
 102      80546FF5 
 103 0124 502C8A01 		.ascii	"P,\212\001w\333:X\333\036@\253\357\361.\261vxAB\202"
 103      77DB3A58 
 103      DB1E40AB 
 103      EFF12EB1 
 103      76784142 
 104 0139 1CFB43FF 		.ascii	"\034\373C\377'h\377J\246\0068\027*=\216\345\012^\012"
 104      2768FF4A 
 104      A6063817 
 104      2A3D8EE5 
 104      0A5E0A
 105 014c 5FA59332 		.ascii	"_\245\2232\265\242\267\276\207N\221q\335\260\310\351"
 105      B5A2B7BE 
 105      874E9171 
 105      DDB0C8E9 
 106 015c FE45CD6B 		.ascii	"\376E\315k\367\025\354\024gQ\224\320\360\015\351\\\344"
 106      F715EC14 
 106      675194D0 
 106      F00DE95C 
 106      E4
 107 016d 7ABAA93C 		.ascii	"z\272\251<2v\210(\177\005\307\\4\340#a\336\200\311\033"
 107      32768828 
 107      7F05C75C 
 107      34E02361 
 107      DE80C91B 
 108 0181 D8DF8D9E 		.ascii	"\330\337\215\236\240\016\037\251\335)\037\3329\222\376"
 108      A00E1FA9 
ARM GAS  /tmp/cclMOOKo.s 			page 8


 108      DD291FDA 
 108      3992FE
 109 0190 A91ACC10 		.ascii	"\251\032\314\020~\360B\215\356o-\255\276~\263Ro@/\316"
 109      7EF0428D 
 109      EE6F2DAD 
 109      BE7EB352 
 109      6F402FCE 
 110 01a4 2F1BEEFA 		.ascii	"/\033\356\372\344=D\241\215\277"
 110      E43D44A1 
 110      8DBF
 111              		.text
 112              		.section	.gnu.lto_uStrPrependChar.d8608bb67e019447,"",%progbits
 113 0000 789C8D52 		.ascii	"x\234\215R\317k\023A\024~ofgg\023\223&m\275x+\375\003"
 113      CF6B1341 
 113      147E6F66 
 113      67671393 
 113      266DBD78 
 114 0017 8218EFFE 		.ascii	"\202\030\357\376\023-\330c(%,\250\007\177\234\263\233"
 114      132DD863 
 114      28252CA8 
 114      077F9CB3 
 114      9B
 115 0028 4428D843 		.ascii	"D(\330C\311EQ/\251\210TE\017\242\210\247\024\024W\212"
 115      C945512F 
 115      A9885445 
 115      0FA288A7 
 115      1414578A 
 116 003c 52C1837A 		.ascii	"R\301\203z\012\212\277PD\321\233\207\365\233\231\335"
 116      0A8ABF50 
 116      44D19B87 
 116      F59B99DD 
 117 004c A4A9073B 		.ascii	"\244\251\007;\260\373f\336|\337\233\357{3\202\004\355"
 117      B0FB66DE 
 117      7CDF9BEF 
 117      7B338204 
 117      ED
 118 005d 1D0D7CAF 		.ascii	"\035\015|\257$\321!D.\020\213\365\027Dq \330s\023\351"
 118      24D12144 
 118      2E108BF5 
 118      17447120 
 118      D87313E9 
 119 0071 265B8127 		.ascii	"&[\201'\344\332S\242\250\250\272\232\242\222b\355\000"
 119      E4DA53A2 
 119      A8A8BA9A 
 119      A29262ED 
 119      00
 120 0082 BE9B6C05 		.ascii	"\276\233l\005Z\370\016\020X@\300l\362\304\324\022\322"
 120      5AF80E10 
 120      5840C06C 
 120      F2C4D412 
 120      D2
 121 0093 53BE0EB8 		.ascii	"S\276\016\270\265\304\346Ho\236\372Q\324\033>\271\270"
 121      B5C4E648 
 121      6F9EFA51 
 121      D41B3EB9 
 121      B8
 122 00a4 DDE7A817 		.ascii	"\335\347\250\027\305?\322\264\0222\304\025\231\226\231"
ARM GAS  /tmp/cclMOOKo.s 			page 9


 122      C53FD2B4 
 122      1232C415 
 122      999699
 123 00b3 8E73C83C 		.ascii	"\216s\310<g\003y\223j-s}p\377C\262\213(\004M\355\223"
 123      67037993 
 123      6A2D737D 
 123      70FF43B2 
 123      8B28044D 
 124 00c9 F8602589 		.ascii	"\370`%\211\272\2034=fY\325}\261z\203{\277\223=B\017"
 124      BA83343D 
 124      6659D57D 
 124      B17A837B 
 124      BF933D42 
 125 00de FE8F7957 		.ascii	"\376\217yW\014\206iz\365\326\316Q@\033|\215\347\311"
 125      0C86697A 
 125      F5D6CE51 
 125      401B7C8D 
 125      E7C9
 126 00f0 E3934C2A 		.ascii	"\343\223L*[\370\210}DM!\313\000?*\230Y\021?\257\224"
 126      5BF8887D 
 126      444D21CB 
 126      003F2A98 
 126      59113FAF 
 127 0105 61CA2070 		.ascii	"a\312 p\005\213\353XT\2638\215x\003q\006H5k\3408MQ\027"
 127      058BEB58 
 127      54B3388D 
 127      78037106 
 127      48356BE0 
 128 011d EEE61CCD 		.ascii	"\356\346\034\315\341\310\010\304X\300\037\367\261\300"
 128      E1C808C4 
 128      58C01FF7 
 128      B1C0
 129 012b 02412EB2 		.ascii	"\002A.\262$\\\222|N\235\325\316\327\327\234\021\361"
 129      245C927C 
 129      4E9DD5CE 
 129      D7D79C11 
 129      F1
 130 013c 0C78130B 		.ascii	"\014x\023\013\214&W\233\\1\226\004g^\026q\006\256\022"
 130      8C26579B 
 130      5C319604 
 130      675E1671 
 130      06AE12
 131 014f A4F6F7CE 		.ascii	"\244\366\367\316\247\317\334\340\233\3006y\032@\"\224"
 131      A7CFDCE0 
 131      9BC03679 
 131      1A402294 
 132 015f BA20F3D4 		.ascii	"\272 \363\324L\223=l\230l\373\321\371;#\350\354\025"
 132      4C933D6C 
 132      986CFBD1 
 132      F93B23E8 
 132      EC15
 133 0171 BA1C4751 		.ascii	"\272\034GQ5d\037 S]e\305\023\352~\213\353#\234\331\322"
 133      35641F20 
 133      535D65C5 
 133      13EA7E8B 
 133      EB239CD9 
 134 0186 E336BE21 		.ascii	"\3436\276!'\205H\254u@\255\312\333\357}\243H\0317\326"
ARM GAS  /tmp/cclMOOKo.s 			page 10


 134      278548AC 
 134      7540ADCA 
 134      DBEF7DA3 
 134      481937D6 
 135 019a C54FE1B4 		.ascii	"\305O\341\2647Y\375+\334\317\334B\370\237#9\016ux\244"
 135      3759FD2B 
 135      DCCFDC42 
 135      F89F2339 
 135      0E7578A4 
 136 01ae DBA5B4D5 		.ascii	"\333\245\264\325\355\333\354jg\203\363|\200\244\275"
 136      EDDBEC6A 
 136      6783F37C 
 136      80A4BD
 137 01bd DE140366 		.ascii	"\336\024\003f'Y\005\313\012\234[\225g\213\360\012\012"
 137      275905CB 
 137      0A9C5B95 
 137      678BF00A 
 137      0A
 138 01ce 760A862A 		.ascii	"v\012\206*31\300<\333\361\035\310u#*[\224\036\243@\316"
 138      3331C03C 
 138      DBF11DC8 
 138      75232A5B 
 138      941EA340 
 139 01e3 24FC7A37 		.ascii	"$\374z7:\245\004\271\326V\232\017n\345\376\264\275\230"
 139      3AA504B9 
 139      D6569A0F 
 139      6EE5FEB4 
 139      BD98
 140 01f5 841E7F8C 		.ascii	"\204\036\177\214\017\344x\316:6\356!\2437\352\241D)"
 140      0FE478CE 
 140      3A36EE21 
 140      A337EAA1 
 140      4429
 141 0207 3FD18616 		.ascii	"?\321\206\026\270\356\265\267/\275\235\232PT\267\212"
 141      B8EEB5B7 
 141      2FBD9D9A 
 141      5054B78A 
 142 0217 BCDD8ACA 		.ascii	"\274\335\212\312D/)\036~\021\243'B\356]1\212\230c\364"
 142      442F291E 
 142      7E11A327 
 142      42EE5D31 
 142      8A9863F4 
 143 022b B933674F 		.ascii	"\2713gO\327\226I\206\265:\207\362\304\312)\205\257v"
 143      D7964986 
 143      B53A87F2 
 143      C4CA2985 
 143      AF76
 144 023d F82FDE0D 		.ascii	"\370/\336\015\356\201"
 144      EE81
 145              		.text
 146              		.section	.gnu.lto_uStrCat.d8608bb67e019447,"",%progbits
 147 0000 789C8D54 		.ascii	"x\234\215TKkSA\024>g\356\373\336\3044M\333\244qa\351"
 147      4B6B5341 
 147      143E67EE 
 147      FBDEC434 
 147      4DDBA471 
 148 0016 0F28BEF6 		.ascii	"\017(\276\366\375\023-\350\262\224r\011\250\013\037"
ARM GAS  /tmp/cclMOOKo.s 			page 11


 148      FD132DE8 
 148      B2947209 
 148      A80B1F
 149 0025 EB4E9A08 		.ascii	"\353N\232\010E\273(]\270\320M\213\024_\255\005\025\027"
 149      45BB285D 
 149      B8D04D8B 
 149      145FAD05 
 149      1517
 150 0037 AE525C18 		.ascii	"\256R\\\030\027\212\356te\241\370\000E\253\024\334\024"
 150      178AEE74 
 150      65A1F800 
 150      45AB14DC 
 150      14
 151 0048 AFDFDCB9 		.ascii	"\257\337\334\271\3676\215B3\2209w\316\367}3\347;3D\220"
 151      F7368D42 
 151      33903977 
 151      CEF77D33 
 151      E73B3344 
 152 005d A0EED1C0 		.ascii	"\240\356\321\300\257l\021\035C\344\034\261X|MTw\005"
 152      AF6C111D 
 152      43E41CB1 
 152      587C4D54 
 152      7705
 153 006f 9BFAC3D0 		.ascii	"\233\372\303\320\037\233\256)\214\205\027D\322\267\233"
 153      1F9BAE29 
 153      8C851744 
 153      D2B79B
 154 007e 0EC99CCD 		.ascii	"\016\311\234\315\201\312\263\245\343\246\033\010K\343"
 154      81CAB3A5 
 154      E3A61B08 
 154      4BE3
 155 008c 6E8CBBEC 		.ascii	"n\214\273\354\307\270\243\343\246\353\013G\343^\214"
 155      C7B8A3E3 
 155      A6EB0B47 
 155      E35E8C
 156 009b 7BCC2A4F 		.ascii	"{\314*OL\263\3020m+p\035\337\343\331\263\254\212\262"
 156      4CB3C230 
 156      6D2B701D 
 156      DFE3D9B3 
 156      AC8AB2
 157 00ae 476945CA 		.ascii	"GiE\312\245\255\325\0177\206\257-\317-\312?Q\3045F\371"
 157      A5ADD50F 
 157      3786AF2D 
 157      CF2DCA3F 
 157      51C43546 
 158 00c3 3ED334D3 		.ascii	">\3234\323\031,x$\016d\036\364\023+\027[??\266Y.\311"
 158      192C7824 
 158      0E641EF4 
 158      132B175B 
 158      3F3FB659 
 159 00d9 FA4E1415 		.ascii	"\372N\024\025j,\004\035\351Q\370k\246-\233\255(\032"
 159      6A2C041D 
 159      E951F86B 
 159      A62D9BAD 
 159      281A
 160 00eb 8F55A51E 		.ascii	"\217U\245\036U\273\007T\225\236TK\255\307\273\355\225"
 160      55BB0754 
ARM GAS  /tmp/cclMOOKo.s 			page 12


 160      959E544B 
 160      ADC7BBED 
 160      95
 161 00fc 8E2A61AF 		.ascii	"\216*a\257\332\233R>\272+\275e\271\027E\006(S|\237\305"
 161      DA9B523E 
 161      BA2BBD65 
 161      B9174506 
 161      28537C9F 
 162 0111 21BA0DD1 		.ascii	"!\272\015\321\332\212\242\275\3657\343G\225\340\016"
 162      DA8AA2BD 
 162      F537E347 
 162      95E00E
 163 0120 8F92C9E7 		.ascii	"\217\222\311\347\231\254dac\301.\241|\017\023\371\230"
 163      99AC6461 
 163      63C12EA1 
 163      7C0F13F9 
 163      98
 164 0131 8C00D80A 		.ascii	"\214\000\330\012\260\034\026f\036\223UH\330}\210\267"
 164      B01C1666 
 164      1E935548 
 164      D87D88B7 
 165 0141 118B49EC 		.ascii	"\021\213I\354G\274\207XR\314\001\305\034Df\025\231\241"
 165      47BC8758 
 165      52CC01C5 
 165      1C446615 
 165      99A1
 166 0153 2496111F 		.ascii	"$\226\021\037 V\024cX1\252\011\202aQ\023M\034\321{\351"
 166      20561463 
 166      5831AA09 
 166      82615113 
 166      4D1CD17B 
 167 0168 AC3E8794 		.ascii	"\254>\207\224+\214\011\314x5\023\260\331t\214I6\010"
 167      2B8C09CC 
 167      783513B0 
 167      D9748C49 
 167      3608
 168 017a 4FC97845 		.ascii	"O\311xE\215\371\306\327w\234\310\011\2425,0B.\206\334"
 168      8DF9C6D7 
 168      779CC809 
 168      A2352C30 
 168      422E86DC 
 169 018e A7FA2038 		.ascii	"\247\372 8i\300$\233\204\007\007\321\334\367\306\347"
 169      69C0249B 
 169      840707D1 
 169      DCF7C6E7 
 170 019e 2F3CC5EB 		.ascii	"/<\305\353\340\206\334\017\"\021\266\272n\244\251R\310"
 170      E086DC0F 
 170      2211B6BA 
 170      6EA4A952 
 170      C8
 171 01af 2600959D 		.ascii	"&\000\225\235{v\365aF\035\270E7\353R\366\325\330\006"
 171      7B76F561 
 171      461DB845 
 171      37EB52F6 
 171      D5D806
 172 01c2 49ED9E36 		.ascii	"I\355\2366\271M\315o\365S\031OA\316~\357\337\223.\205"
 172      B94DCD6F 
ARM GAS  /tmp/cclMOOKo.s 			page 13


 172      F553194F 
 172      41CE7EEF 
 172      DF932E85 
 173 01d6 482C3420 		.ascii	"H,4 -\032k\333\266\252\310Vn\024^Mp\023\270\002\254"
 173      2D1A6BDB 
 173      B6AAC856 
 173      6E145E4D 
 173      7013B802 
 174 01eb 43FD0D85 		.ascii	"C\375\015\205<\330\345/P\376x\337\337F\\L\031\304\314"
 174      3CD8E52F 
 174      50FE78DF 
 174      DF465C4C 
 174      19C4CC
 175 01fe 9F4E5542 		.ascii	"\237NUBe\240\334\341O\347\207;\375U\376\347/\341\375"
 175      65A0DCE1 
 175      4FE7873B 
 175      FD55FEE7 
 175      2FE1FD
 176 0211 E36F30E4 		.ascii	"\343o0\344\252\315\250\312J\234\271\2513+q\026<)\250"
 176      AACDA8CA 
 176      4A9CB9A9 
 176      332B7116 
 176      3C29A8
 177 0224 BCB36FEC 		.ascii	"\274\263o\354\367s\326~BvC\346\344\032P|5M{@\262\322"
 177      F773D67E 
 177      427643E6 
 177      E41A507C 
 177      354D7B40 
 178 023a 75CA8FAF 		.ascii	"u\312\217\257\306K\230O\263\035\002\354\320E\315\305"
 178      C64B984F 
 178      B31D02EC 
 178      D045CDC5 
 179 024a 2E03EDD2 		.ascii	".\003\355\322J\263yx\344\330`\256\323 8/w\034M\322]"
 179      4AB37978 
 179      E4D860AE 
 179      D320382F 
 179      771C4DD2 
 180 025f 9079BC51 		.ascii	"\220y\274Q\034\250X\006\351\246\347\343#\346\033?\266"
 180      1CA85806 
 180      E9A6E7E3 
 180      23E61B3F 
 180      B6
 181 0270 B3530A38 		.ascii	"\263S\0128\270\353\036\374\370\036\320\262O\365 \245"
 181      B8EB1EFC 
 181      F81ED0B2 
 181      4FF520A5 
 182 0280 717C0B69 		.ascii	"q|\013i\273\260\262\\L\005\247\355(\205\247\272\365"
 182      BBB0B25C 
 182      4C05A7ED 
 182      2885A7BA 
 182      F5
 183 0291 96EA5B91 		.ascii	"\226\352[\221\310\256\230\364\273g@\352O\333\271r\351"
 183      C8AE98F4 
 183      BB6740EA 
 183      4FDBB972 
 183      E9
 184 02a2 F2C5B169 		.ascii	"\362\305\261i2jc\247\315s3\027N\250\351$\327,\204\261"
ARM GAS  /tmp/cclMOOKo.s 			page 14


 184      326A63A7 
 184      CD733317 
 184      4EA8E924 
 184      D72C84B1 
 185 02b6 E37F0128 		.ascii	"\343\177\001(\361-\321"
 185      F12DD1
 186              		.text
 187              		.section	.gnu.lto_.symbol_nodes.d8608bb67e019447,"",%progbits
 188 0000 789C4DC7 		.ascii	"x\234M\3071\021\000 \014\004\301\313'\342p\365-%\012"
 188      31110020 
 188      0C04C1CB 
 188      27E270F5 
 188      2D250A
 189 0013 9084261A 		.ascii	"\220\204&\032f\310v+\304\340\021\206u\300\3363\024\216"
 189      66C8762B 
 189      C4E01186 
 189      75C0DE33 
 189      148E
 190 0025 36596DE9 		.ascii	"6Ym\351l+\327\037\027\335X\024u"
 190      6C2BD71F 
 190      17DD5814 
 190      75
 191              		.text
 192              		.section	.gnu.lto_.refs.d8608bb67e019447,"",%progbits
 193 0000 789C6362 		.ascii	"x\234cb`b`d\200\002\000\000F\000\006"
 193      60626064 
 193      80020000 
 193      460006
 194              		.text
 195              		.section	.gnu.lto_.decls.d8608bb67e019447,"",%progbits
 196 0000 789C9554 		.ascii	"x\234\225T\317k\023A\024~\263\211m\322\2264\027KN\266"
 196      CF6B1341 
 196      147EB389 
 196      6DD29634 
 196      174B4EB6 
 197 0014 482B5268 		.ascii	"H+RhCU\004/\005\315\301\"\"\202\024D\220\260MV\032i"
 197      4355042F 
 197      05CDC122 
 197      22821444 
 197      90B04D56 
 198 002a D3B0D91C 		.ascii	"\323\260\331\034z\033\205VQ\204\"\024\364\240m5\265"
 198      7A1B8556 
 198      51842214 
 198      F4A06D35 
 198      B5
 199 003b D642DBE0 		.ascii	"\326B\333\340\017\210\240\226ha\025\241\240\210\026"
 199      0F88A096 
 199      686115A1 
 199      A08816
 200 004a 3C44FF82 		.ascii	"<D\377\202\202\007\021\204\365\315\356d\343N7\333t\340"
 200      82071184 
 200      F5CDEE64 
 200      E34E37DB 
 200      74E0
 201 005c CBCCEEBE 		.ascii	"\313\314\356\276\367\275\367}3\031\011$X%\000\006\016"
 201      F7BDF77D 
 201      33190924 
ARM GAS  /tmp/cclMOOKo.s 			page 15


 201      58250006 
 201      0E
 202 006d BD01E007 		.ascii	"\275\001\340\007\000\340\004\375P\035{\020s\210eD\021"
 202      00E004FD 
 202      501D7B10 
 202      73886544 
 202      11
 203 007e 5142E8B0 		.ascii	"QB\350\260}\260\230FD\013\"\204\360#\362\210\005\304"
 203      7DB09846 
 203      440B2284 
 203      F023F288 
 203      05C4
 204 0090 3C82F038 		.ascii	"<\202\3608\302c\331\274$p\260\032A\236\033\342\\\033"
 204      C263D9BC 
 204      2470B01A 
 204      419E1BE2 
 204      5C1B
 205 00a2 88820717 		.ascii	"\210\202\007\027\313\221\020/\020\317\004>\326o@\340"
 205      CB91102F 
 205      10CF043E 
 205      D66F40E0 
 206 00b2 F3E22A72 		.ascii	"\363\342*r\256\327\2107\002W\211s\375\257\257\300y\362"
 206      AED78837 
 206      02578973 
 206      FDAFAFC0 
 206      79F2
 207 00c4 2E5C25CE 		.ascii	".\\%\316\365\016\261.p\3515\270j\365\245s\256\017\210"
 207      F50EB12E 
 207      70E935B8 
 207      6AF5A573 
 207      AE0F88
 208 00d7 8F02573B 		.ascii	"\217\002W;\334\247\345\255\362\372\227\226\251+e\303"
 208      DCA7E5AD 
 208      F2FA9796 
 208      A92B65C3 
 209 00e7 9859A381 		.ascii	"\230Y\243\2016\230\2468f')%\232L\374A8Od\022\012B\207"
 209      3698A638 
 209      66272925 
 209      9A4CFC41 
 209      384F6412 
 210 00fe B968099A 		.ascii	"\271h\011\232\005\001d\362\200\264\231+\237I\017\315"
 210      050164F2 
 210      80B4992B 
 210      9F490FCD 
 211 010e 7083D2AB 		.ascii	"p\203\322\253,q@\307\360\353\354\241<\277\026\271\203"
 211      2C7140C7 
 211      F0EBECA1 
 211      3CBF16B9 
 211      83
 212 011f 4D728A40 		.ascii	"Mr\212@\205\202\365\325\005y\2543E\251d\007\323H\304"
 212      8582F5D5 
 212      0579AC33 
 212      45A96407 
 212      D348C4
 213 0132 3D56268F 		.ascii	"=V&\217H\027\376.\220\240Y\222}\262\326\225\225A\230"
 213      4817FE2E 
 213      90A05992 
ARM GAS  /tmp/cclMOOKo.s 			page 16


 213      7DB2D695 
 213      954198
 214 0145 CA2602AE 		.ascii	"\312&\002\256c\247\314Z\022\363\244\271J1\350\263\371"
 214      63A7CC5A 
 214      12F3A4B9 
 214      4A31E8B3 
 214      F9
 215 0156 246825D0 		.ascii	"$h%\320\015\213\226\200\237\315\260}t\302CJo\323_\311"
 215      0D8B9680 
 215      9FCDB07D 
 215      74C2434A 
 215      6FD35FC9 
 216 016a 018B4682 		.ascii	"\001\213F\202}\004I\346H\273k5\273\326\001\230g\376"
 216      7D0449E6 
 216      48BB6B35 
 216      BBD60198 
 216      67FE
 217 017c 2F4D4E84 		.ascii	"/MN\204\375\246\375\340\221\305;[$\222\270\253\263\345"
 217      FDA6FDE0 
 217      91C53B5B 
 217      2492B8AB 
 217      B3E5
 218 018e B5CFDFAC 		.ascii	"\265\317\337\254]m\027\266\264\177oM\275+\036[j\271"
 218      5D6D17B6 
 218      B47F6F4D 
 218      BD2B1E5B 
 218      6AB9
 219 01a0 552BB350 		.ascii	"U+\263Pu\212'\333\212\004\347\3663\033\236\220n\247"
 219      758A27DB 
 219      8A04E7F6 
 219      331B9E90 
 219      6EA7
 220 01b2 4F9BCCA7 		.ascii	"O\233\314\247\202\351S7\013X\256\351\223Y\211g\335S"
 220      82E95337 
 220      0B58AEE9 
 220      93598967 
 220      DD53
 221 01c4 6C77A3DE 		.ascii	"lw\243\336YNwo\321\21101\235\000\236\3458,O]\375\374"
 221      594E776F 
 221      D1893031 
 221      9D009EE5 
 221      382C4F5D 
 222 01da 9BD4E996 		.ascii	"\233\324\351\226a\264\326o\347K\247\235V\357\366\003"
 222      61B4D66F 
 222      E74BA79D 
 222      56EFF603 
 223 01ea 3F92823D 		.ascii	"?\222\202=\207]\355\371]\261G&\317\2619\231\024\353"
 223      875DEDF9 
 223      5DB14726 
 223      CFB13999 
 223      14EB
 224 01fc F3E762C4 		.ascii	"\363\347b\304\252#\301\011\342\314\022\376_\274\031"
 224      AA23C109 
 224      E2CC12FE 
 224      5FBC19
 225 020b 577F8AA2 		.ascii	"W\177\212\242?\257\\\375YU,\177,\335\022\234rU\362G"
 225      3FAF5CFD 
ARM GAS  /tmp/cclMOOKo.s 			page 17


 225      59552C7F 
 225      2CDD129C 
 225      7255F247 
 226 021f 5452AA4B 		.ascii	"TR\252K\311LU\311\005\342\314\332\205\222\222\250\344"
 226      C94C55C9 
 226      05E2CCDA 
 226      859292A8 
 226      E4
 227 0230 ADAB92EF 		.ascii	"\255\253\222\357\266\222\025S\311\320NG\3662\013\320"
 227      B6921553 
 227      C9D04E47 
 227      F6320BD0 
 228 0240 777B64C7 		.ascii	"w{d\307\274\263\274\216\254.\012y\357\024\302\257T:"
 228      BCB3BC8E 
 228      AC2E0A79 
 228      EF14C2AF 
 228      543A
 229 0252 490F3EAE 		.ascii	"I\017>\256\336\277\341J\001\026k\336\277S\263\233\327"
 229      DEBFE14A 
 229      01166BDE 
 229      BF53B39B 
 229      D7
 230 0263 DA285E34 		.ascii	"\332(^4\033\246\265w\211Si\3354\345\351\233\013\307"
 230      1BA6B577 
 230      895369DD 
 230      34E5E99B 
 230      0BC7
 231 0275 280DC8E4 		.ascii	"(\015\310\344\223I\364U \222\211/\350l\030\237+\001"
 231      9349F455 
 231      2092892F 
 231      E86C189F 
 231      2B01
 232 0287 8CCD17AC 		.ascii	"\214\315\027\254.\014\303\007\273\014n\314e5\2657\001"
 232      2E0CC307 
 232      BB0C6ECC 
 232      6535B537 
 232      01
 233 0298 FEC4B0AC 		.ascii	"\376\304\260\2546\346\316i\352i%\335p\362\314`G\014"
 233      36E6CE69 
 233      EA6925DD 
 233      70F2CC60 
 233      470C
 234 02aa 7CF8C97C 		.ascii	"|\370\311|\025\313\214\373\223JV\363e\325D\210\2758"
 234      15CB8CFB 
 234      934A56F3 
 234      65D54488 
 234      BD38
 235 02bc 9EC928E9 		.ascii	"\236\311(\351d\214\245\310\231\014\233[\331\353\263"
 235      648CA5C8 
 235      990C9B5B 
 235      D9EBB3
 236 02cb AA62BFCF 		.ascii	"\252b\277\317\250J\254B\031\2235?r\365\261\237C\235"
 236      A84AAC42 
 236      1993353F 
 236      72F5B19F 
 236      439D
 237 02dd D15C568D 		.ascii	"\321\\V\215\312\352hOz,\255\364(\362P*\232J'FrI%\232"
ARM GAS  /tmp/cclMOOKo.s 			page 18


 237      CAEA684F 
 237      7A2CADF4 
 237      28F2502A 
 237      9A4A2746 
 238 02f5 D592A9B4 		.ascii	"\325\222\251\264\326;\014\201\034\316}G\343\332\021"
 238      D63B0C81 
 238      1CCE7D47 
 238      E3DA11
 239 0304 8FE85139 		.ascii	"\217\350Q91\234J+\321xR\271$\347F\264\2706\236Q\262"
 239      319C4A2B 
 239      D17852B9 
 239      24E746B4 
 239      B8369E51 
 240 0319 98DD148F 		.ascii	"\230\335\024\217W\362\377\001\202?\250\340"
 240      57F2FF01 
 240      823FA8E0 
 241              		.text
 242              		.section	.gnu.lto_.symtab.d8608bb67e019447,"",%progbits
 243 0000 75537472 		.ascii	"uStrLen\000\000\000\000\000\000\000\000\000\000\000"
 243      4C656E00 
 243      00000000 
 243      00000000 
 243      0000
 244 0012 00A10000 		.ascii	"\000\241\000\000\000uStrCpy\000\000\000\000\000\000"
 244      00755374 
 244      72437079 
 244      00000000 
 244      0000
 245 0024 00000000 		.ascii	"\000\000\000\000\000\000\256\000\000\000uStrAppendC"
 245      0000AE00 
 245      00007553 
 245      74724170 
 245      70656E64 
 246 0039 68617200 		.ascii	"har\000\000\000\000\000\000\000\000\000\000\000\000"
 246      00000000 
 246      00000000 
 246      000000
 247 0048 B9000000 		.ascii	"\271\000\000\000uStrPrependChar\000\000\000\000\000"
 247      75537472 
 247      50726570 
 247      656E6443 
 247      68617200 
 248 0060 00000000 		.ascii	"\000\000\000\000\000\000\000\302\000\000\000uStrCat"
 248      000000C2 
 248      00000075 
 248      53747243 
 248      6174
 249 0072 00000000 		.ascii	"\000\000\000\000\000\000\000\000\000\000\000\000\310"
 249      00000000 
 249      00000000 
 249      C8
 250 007f 000000   		.ascii	"\000\000\000"
 251              		.text
 252              		.section	.gnu.lto_.opts,"",%progbits
 253 0000 272D6D63 		.ascii	"'-mcpu=cortex-m4' '-mfloat-abi=hard' '-mfpu=fpv4-sp"
 253      70753D63 
 253      6F727465 
ARM GAS  /tmp/cclMOOKo.s 			page 19


 253      782D6D34 
 253      2720272D 
 254 0033 2D643136 		.ascii	"-d16' '-mno-thumb-interwork' '-mthumb' '-O2' '-fomi"
 254      2720272D 
 254      6D6E6F2D 
 254      7468756D 
 254      622D696E 
 255 0066 742D6672 		.ascii	"t-frame-pointer' '-falign-functions=16' '-ffunction"
 255      616D652D 
 255      706F696E 
 255      74657227 
 255      20272D66 
 256 0099 2D736563 		.ascii	"-sections' '-fdata-sections' '-fno-common' '-flto' "
 256      74696F6E 
 256      73272027 
 256      2D666461 
 256      74612D73 
 257 00cc 272D6673 		.ascii	"'-fsingle-precision-constant'\000"
 257      696E676C 
 257      652D7072 
 257      65636973 
 257      696F6E2D 
 258              		.text
 259              		.section	.text.uStrLen,"ax",%progbits
 260              		.align	2
 261              		.p2align 4,,15
 262              		.global	uStrLen
 263              		.thumb
 264              		.thumb_func
 265              		.type	uStrLen, %function
 266              	uStrLen:
 267              		@ args = 0, pretend = 0, frame = 0
 268              		@ frame_needed = 0, uses_anonymous_args = 0
 269              		@ link register save eliminated.
 270 0000 0378     		ldrb	r3, [r0]	@ zero_extendqisi2
 271 0002 3BB1     		cbz	r3, .L4
 272 0004 0346     		mov	r3, r0
 273 0006 0020     		movs	r0, #0
 274              	.L3:
 275 0008 13F8012F 		ldrb	r2, [r3, #1]!	@ zero_extendqisi2
 276 000c 0130     		adds	r0, r0, #1
 277 000e 002A     		cmp	r2, #0
 278 0010 FAD1     		bne	.L3
 279 0012 7047     		bx	lr
 280              	.L4:
 281 0014 1846     		mov	r0, r3
 282 0016 7047     		bx	lr
 283              		.size	uStrLen, .-uStrLen
 284 0018 AFF30080 		.section	.text.uStrCpy,"ax",%progbits
 284      AFF30080 
 285              		.align	2
 286              		.p2align 4,,15
 287              		.global	uStrCpy
 288              		.thumb
 289              		.thumb_func
 290              		.type	uStrCpy, %function
 291              	uStrCpy:
ARM GAS  /tmp/cclMOOKo.s 			page 20


 292              		@ args = 0, pretend = 0, frame = 0
 293              		@ frame_needed = 0, uses_anonymous_args = 0
 294              		@ link register save eliminated.
 295 0000 0A78     		ldrb	r2, [r1]	@ zero_extendqisi2
 296 0002 10B4     		push	{r4}
 297 0004 32B1     		cbz	r2, .L12
 298 0006 0B46     		mov	r3, r1
 299 0008 0022     		movs	r2, #0
 300              	.L13:
 301 000a 13F8014F 		ldrb	r4, [r3, #1]!	@ zero_extendqisi2
 302 000e 0132     		adds	r2, r2, #1
 303 0010 002C     		cmp	r4, #0
 304 0012 FAD1     		bne	.L13
 305              	.L12:
 306 0014 0023     		movs	r3, #0
 307              	.L11:
 308 0016 CC5C     		ldrb	r4, [r1, r3]	@ zero_extendqisi2
 309 0018 C454     		strb	r4, [r0, r3]
 310 001a 0133     		adds	r3, r3, #1
 311 001c 9BB2     		uxth	r3, r3
 312 001e 9A42     		cmp	r2, r3
 313 0020 F9DA     		bge	.L11
 314 0022 5DF8044B 		ldr	r4, [sp], #4
 315 0026 7047     		bx	lr
 316              		.size	uStrCpy, .-uStrCpy
 317 0028 AFF30080 		.section	.text.uStrAppendChar,"ax",%progbits
 317      AFF30080 
 318              		.align	2
 319              		.p2align 4,,15
 320              		.global	uStrAppendChar
 321              		.thumb
 322              		.thumb_func
 323              		.type	uStrAppendChar, %function
 324              	uStrAppendChar:
 325              		@ args = 0, pretend = 0, frame = 0
 326              		@ frame_needed = 0, uses_anonymous_args = 0
 327              		@ link register save eliminated.
 328 0000 0378     		ldrb	r3, [r0]	@ zero_extendqisi2
 329 0002 30B4     		push	{r4, r5}
 330 0004 6BB1     		cbz	r3, .L22
 331 0006 441C     		adds	r4, r0, #1
 332 0008 0022     		movs	r2, #0
 333              	.L21:
 334 000a 2578     		ldrb	r5, [r4]	@ zero_extendqisi2
 335 000c 2346     		mov	r3, r4
 336 000e 0132     		adds	r2, r2, #1
 337 0010 0134     		adds	r4, r4, #1
 338 0012 002D     		cmp	r5, #0
 339 0014 F9D1     		bne	.L21
 340 0016 0132     		adds	r2, r2, #1
 341              	.L19:
 342 0018 0024     		movs	r4, #0
 343 001a 1970     		strb	r1, [r3]
 344 001c 8454     		strb	r4, [r0, r2]
 345 001e 30BC     		pop	{r4, r5}
 346 0020 7047     		bx	lr
 347              	.L22:
ARM GAS  /tmp/cclMOOKo.s 			page 21


 348 0022 0346     		mov	r3, r0
 349 0024 0122     		movs	r2, #1
 350 0026 F7E7     		b	.L19
 351              		.size	uStrAppendChar, .-uStrAppendChar
 352 0028 AFF30080 		.section	.text.uStrPrependChar,"ax",%progbits
 352      AFF30080 
 353              		.align	2
 354              		.p2align 4,,15
 355              		.global	uStrPrependChar
 356              		.thumb
 357              		.thumb_func
 358              		.type	uStrPrependChar, %function
 359              	uStrPrependChar:
 360              		@ args = 0, pretend = 0, frame = 0
 361              		@ frame_needed = 0, uses_anonymous_args = 0
 362              		@ link register save eliminated.
 363 0000 0378     		ldrb	r3, [r0]	@ zero_extendqisi2
 364 0002 10B4     		push	{r4}
 365 0004 93B1     		cbz	r3, .L29
 366 0006 0246     		mov	r2, r0
 367 0008 0023     		movs	r3, #0
 368              	.L26:
 369 000a 12F8014F 		ldrb	r4, [r2, #1]!	@ zero_extendqisi2
 370 000e 0133     		adds	r3, r3, #1
 371 0010 002C     		cmp	r4, #0
 372 0012 FAD1     		bne	.L26
 373 0014 0133     		adds	r3, r3, #1
 374              	.L24:
 375 0016 C218     		adds	r2, r0, r3
 376              	.L28:
 377 0018 12F8014C 		ldrb	r4, [r2, #-1]	@ zero_extendqisi2
 378 001c 02F80149 		strb	r4, [r2], #-1
 379 0020 013B     		subs	r3, r3, #1
 380 0022 F9D1     		bne	.L28
 381 0024 0170     		strb	r1, [r0]
 382 0026 5DF8044B 		ldr	r4, [sp], #4
 383 002a 7047     		bx	lr
 384              	.L29:
 385 002c 0123     		movs	r3, #1
 386 002e F2E7     		b	.L24
 387              		.size	uStrPrependChar, .-uStrPrependChar
 388              		.section	.text.uStrCat,"ax",%progbits
 389              		.align	2
 390              		.p2align 4,,15
 391              		.global	uStrCat
 392              		.thumb
 393              		.thumb_func
 394              		.type	uStrCat, %function
 395              	uStrCat:
 396              		@ args = 0, pretend = 0, frame = 0
 397              		@ frame_needed = 0, uses_anonymous_args = 0
 398              		@ link register save eliminated.
 399 0000 30B4     		push	{r4, r5}
 400 0002 0378     		ldrb	r3, [r0]	@ zero_extendqisi2
 401 0004 33B1     		cbz	r3, .L32
 402 0006 0246     		mov	r2, r0
 403 0008 0023     		movs	r3, #0
ARM GAS  /tmp/cclMOOKo.s 			page 22


 404              	.L33:
 405 000a 12F8014F 		ldrb	r4, [r2, #1]!	@ zero_extendqisi2
 406 000e 0133     		adds	r3, r3, #1
 407 0010 002C     		cmp	r4, #0
 408 0012 FAD1     		bne	.L33
 409              	.L32:
 410 0014 0A78     		ldrb	r2, [r1]	@ zero_extendqisi2
 411 0016 32B1     		cbz	r2, .L34
 412 0018 0C46     		mov	r4, r1
 413 001a 0022     		movs	r2, #0
 414              	.L35:
 415 001c 14F8015F 		ldrb	r5, [r4, #1]!	@ zero_extendqisi2
 416 0020 0132     		adds	r2, r2, #1
 417 0022 002D     		cmp	r5, #0
 418 0024 FAD1     		bne	.L35
 419              	.L34:
 420 0026 1844     		add	r0, r0, r3
 421 0028 0023     		movs	r3, #0
 422              	.L37:
 423 002a CC5C     		ldrb	r4, [r1, r3]	@ zero_extendqisi2
 424 002c C454     		strb	r4, [r0, r3]
 425 002e 0133     		adds	r3, r3, #1
 426 0030 9342     		cmp	r3, r2
 427 0032 FADD     		ble	.L37
 428 0034 30BC     		pop	{r4, r5}
 429 0036 7047     		bx	lr
 430              		.size	uStrCat, .-uStrCat
 431              		.comm	__gnu_lto_v1,1,1
 432 0038 AFF30080 		.ident	"GCC: (GNU Tools for ARM Embedded Processors) 4.8.4 20140526 (release) [ARM/embedded-4_8-br
 432      AFF30080 
ARM GAS  /tmp/cclMOOKo.s 			page 23


DEFINED SYMBOLS
                            *ABS*:0000000000000000 ustr.c
     /tmp/cclMOOKo.s:260    .text.uStrLen:0000000000000000 $t
     /tmp/cclMOOKo.s:266    .text.uStrLen:0000000000000000 uStrLen
     /tmp/cclMOOKo.s:285    .text.uStrCpy:0000000000000000 $t
     /tmp/cclMOOKo.s:291    .text.uStrCpy:0000000000000000 uStrCpy
     /tmp/cclMOOKo.s:318    .text.uStrAppendChar:0000000000000000 $t
     /tmp/cclMOOKo.s:324    .text.uStrAppendChar:0000000000000000 uStrAppendChar
     /tmp/cclMOOKo.s:353    .text.uStrPrependChar:0000000000000000 $t
     /tmp/cclMOOKo.s:359    .text.uStrPrependChar:0000000000000000 uStrPrependChar
     /tmp/cclMOOKo.s:389    .text.uStrCat:0000000000000000 $t
     /tmp/cclMOOKo.s:395    .text.uStrCat:0000000000000000 uStrCat
                            *COM*:0000000000000001 __gnu_lto_v1

NO UNDEFINED SYMBOLS
