ARM GAS  /tmp/cc70fhEt.s 			page 1


   1              		.syntax unified
   2              		.cpu cortex-m4
   3              		.eabi_attribute 27, 3
   4              		.eabi_attribute 28, 1
   5              		.fpu fpv4-sp-d16
   6              		.eabi_attribute 20, 1
   7              		.eabi_attribute 21, 1
   8              		.eabi_attribute 23, 3
   9              		.eabi_attribute 24, 1
  10              		.eabi_attribute 25, 1
  11              		.eabi_attribute 26, 1
  12              		.eabi_attribute 30, 2
  13              		.eabi_attribute 34, 1
  14              		.eabi_attribute 18, 4
  15              		.thumb
  16              		.file	"ustr.c"
  17              		.section	.gnu.lto_.jmpfuncs.21fd17d72e7038aa,"",%progbits
  18 0000 789C6362 		.ascii	"x\234cb`b\300\006\204\2404\007\003##3\023333\013;+3"
  18      6062C006 
  18      84A03407 
  18      03232333 
  18      13333333 
  19 0018 1B333B3B 		.ascii	"\0333;;\003\000\004\376\000Y"
  19      030004FE 
  19      0059
  20              		.text
  21              		.section	.gnu.lto_.inline.21fd17d72e7038aa,"",%progbits
  22 0000 789C6362 		.ascii	"x\234cb`b\300\006\266Ci\016 \262dd`\342\332v\205\215"
  22      6062C006 
  22      B643690E 
  22      20B26464 
  22      60E2DA76 
  23 0016 816D813C 		.ascii	"\201m\201<X5#\003\177##PP\342\304Q~\270 \023\003\217"
  23      58352303 
  23      7F232350 
  23      50E2C451 
  23      7EB82013 
  24 002c 2D504CE8 		.ascii	"-PL\350\333$v\270\0303\203P/H\241\354\277_\002\014\354"
  24      DB2476B8 
  24      18338350 
  24      2F48A1EC 
  24      BF5F020C 
  25 0041 1DEA6041 		.ascii	"\035\352`A\026\006\341>FF&&F\210Q@Ur\317\232\004!z\230"
  25      1606E13E 
  25      46462626 
  25      46885140 
  25      5572CF9A 
  26 0059 2EF0F380 		.ascii	".\360\363\200\204Y\031D\017\2014\252\374\331.\0167\215"
  26      84591944 
  26      0F8134AA 
  26      FCD92E0E 
  26      378D
  27 006b 8D81EB02 		.ascii	"\215\201\353\002P\003\023\337\274\335\234pAv\006\336"
  27      500313DF 
  27      BCDD9C70 
  27      417606DE 
  28 007b 17204191 		.ascii	"\027 A\221W{y\340\202\014\000\273\203\032\351"
ARM GAS  /tmp/cc70fhEt.s 			page 2


  28      577B79E0 
  28      820C00BB 
  28      831AE9
  29              		.text
  30              		.section	.gnu.lto_.pureconst.21fd17d72e7038aa,"",%progbits
  31 0000 789C6362 		.ascii	"x\234cb`b\020d\200\000\016\006VF)&)f)\026)V)6VvV\000"
  31      60621064 
  31      80000E06 
  31      56462926 
  31      29662916 
  32 001c 085700CB 		.ascii	"\010W\000\313"
  33              		.text
  34              		.section	.gnu.lto_uStrLen.21fd17d72e7038aa,"",%progbits
  35 0000 789C8552 		.ascii	"x\234\205R\273JCA\020=g\367\276\010\202\202\225]\310"
  35      BB4A4341 
  35      103D67F7 
  35      BE088282 
  35      955DC8
  36 0013 0704C1DA 		.ascii	"\007\004\301\332\277H@\313\020$\004T\360U\347\276\004"
  36      BF4840CB 
  36      10240454 
  36      F055E7BE 
  36      04
  37 0024 D12021A5 		.ascii	"\321 !\245i\014\222N\024[\253\330h\032\005;\355.X(("
  37      690C924E 
  37      145BABD8 
  37      681A053B 
  37      ED2E5828 
  38 0039 E20788D7 		.ascii	"\342\007\210\327\331\344&\242\215\003;3;sf\346\314\262"
  38      D9E426A2 
  38      8D033B33 
  38      3B7366E6 
  38      CCB2
  39 004b 0A0A7F65 		.ascii	"\012\012\177eQ\316\031\201Y\261t@\325\272\003\002O\321"
  39      51CE1981 
  39      59B17440 
  39      D5BA0302 
  39      4FD1
  40 005d 1A397AE4 		.ascii	"\0329z\344\\y\226\322\315\033\300\317\331\261\013\177"
  40      5C7996D2 
  40      CD1BC0CF 
  40      D9B10B7F 
  41 006d CA264D1C 		.ascii	"\312&M\034DCi\313fc\231\246\235*\240\353\373\355\244"
  41      444369CB 
  41      666399A6 
  41      9D2AA0EB 
  41      FBEDA4
  42 0080 777D38B7 		.ascii	"w}8\267\177\034\266\374\2574e\23528GT\211%\2710?4\260"
  42      7F1CB6FC 
  42      AF34659D 
  42      32384754 
  42      8925B930 
  43 0097 7E331956 		.ascii	"~3\031V\266\372\027\311\200~\333\017>\322t\272N\245"
  43      B6FA17C9 
  43      807EDB0F 
  43      3ED274BA 
  43      4EA5
ARM GAS  /tmp/cc70fhEt.s 			page 3


  44 00a9 30F35FE1 		.ascii	"0\363_\341\271\352'i\372\031nxD\205',\310\264\012\273"
  44      B9EA2769 
  44      FA196E78 
  44      4485272C 
  44      C8B40ABB 
  45 00bd 6235D70C 		.ascii	"b5\327\014\272N\355\210\262\334,-b#\226a\371\361\275"
  45      BA4EED88 
  45      B2DC2C2D 
  45      62239661 
  45      F9F1BD
  46 00d0 3A245F12 		.ascii	":$_\022-\313\225\250\304\35025dc}\213h/z}`\205=\332"
  46      2DCB95A8 
  46      C4E83235 
  46      64637D8B 
  46      682F7A7D 
  47 00e8 A8D1AD91 		.ascii	"\250\321\255\221\206\206b6\277L\013\362\026\002\014"
  47      86866236 
  47      BF4C0BF2 
  47      16020C
  48 00f7 DFA3E797 		.ascii	"\337\243\347\227\011P\011\020\220\362\003=\016Y5jI\230"
  48      09500910 
  48      90F2033D 
  48      0E59356A 
  48      4998
  49 0109 6878B97B 		.ascii	"hx\271{6\201:\035\034IK[\020\246\265\316:\017\020\277"
  49      36813A1D 
  49      1C494B5B 
  49      10A6B5CE 
  49      3A0F10BF 
  50 011d 050B1390 		.ascii	"\005\013\023\220I9?{?b\304C^\275\0319BL\237>9\206\216"
  50      49393F7B 
  50      3F62C443 
  50      5EBD1939 
  50      424C9F3E 
  51 0134 6DE8DF23 		.ascii	"m\350\337#H:\336\2706\343Z\022'v\315/pw\266\2667\213"
  51      483ADEB8 
  51      36E35A12 
  51      2776CD2F 
  51      7077B6B6 
  52 014a 55D8AB2B 		.ascii	"U\330\253+\353\305y-\372\033\2666i\310"
  52      EBC5792D 
  52      FA1BB636 
  52      69C8
  53              		.text
  54              		.section	.gnu.lto_uStrCpy.21fd17d72e7038aa,"",%progbits
  55 0000 789C8552 		.ascii	"x\234\205RMk\024A\020\255\327==3\311\256\273\233D\017"
  55      4D6B1441 
  55      10ADD73D 
  55      3D33C9AE 
  55      BB9B440F 
  56 0014 8287901F 		.ascii	"\202\207\220\037\020\024\377\205\347\004\314\315\020"
  56      1014FF85 
  56      E704CCCD 
  56      10
  57 0021 6458500F 		.ascii	"dXP\017~\\M\317\316\012A\367\260\344\250\027\027\011"
  57      7E5C4DCF 
  57      CE0A41F7 
ARM GAS  /tmp/cc70fhEt.s 			page 4


  57      B0E4A817 
  57      1709
  58 0033 4A087AF0 		.ascii	"J\010z\360\340\307\305\315\311((\021<\270\267\005\361"
  58      E0C7C5CD 
  58      C9282811 
  58      3CB8B705 
  58      F1
  59 0044 0314F1E0 		.ascii	"\003\024\361\340\301\223\343\353\351\331\335(\202\015"
  59      C193E3EB 
  59      E9D9DD28 
  59      820D
  60 0052 53D5F3EA 		.ascii	"S\325\363\352U\327\253\352V\242\344\357u\206\337)-r"
  60      55D7ABEA 
  60      56A2E4EF 
  60      7586DF29 
  60      2D72
  61 0064 841E5302 		.ascii	"\204\036S\002\325}-\222\306\012\201\337h\277\331\215"
  61      D57D2D92 
  61      C60A81DF 
  61      68BFD98D 
  62 0074 03A53BCF 		.ascii	"\003\245;\317E\354t\330\216\304VC\304\016\207\361~7"
  62      45EC74D8 
  62      8EC45643 
  62      C40E87F1 
  62      7E37
  63 0086 8E95F1F1 		.ascii	"\216\225\361\361\250\210G\200\303\005\262\256t\020\232"
  63      A8884780 
  63      C305B2AE 
  63      74109A
  64 0095 38C2FA0A 		.ascii	"8\302\372\012\\E\275 =k\273\303\017/;G\355\355V\327"
  64      5C45BD20 
  64      3D6BBBC3 
  64      0F2F3B47 
  64      EDED56D7 
  65 00a9 FECA7334 		.ascii	"\376\312s4Am\323\2205\310i\376`\276p*\370Sl\221\271"
  65      416DD390 
  65      35C869FE 
  65      60BE702A 
  65      F8536C91 
  66 00be D91FFCEC 		.ascii	"\331\037\374\354\303^\267\351\367<\2577\241\225\324"
  66      C35EB7E9 
  66      F73CAF37 
  66      A195D4
  67 00cd 26890D9F 		.ascii	"&\211\015\237\250\376\231\370\360\307^\017vs\224IV\343"
  67      A8FE99F8 
  67      F0C75E0F 
  67      76739449 
  67      56E3
  68 00df 7F251FA8 		.ascii	"\177%\037\250\3760\317w\266\366\217\035\206\254\342"
  68      FE30CF77 
  68      B6F68F1D 
  68      86ACE2
  69 00ee 0E1624C0 		.ascii	"\016\026$\300y\210)\177B\241\364\210F\305\2049\301&"
  69      7988297F 
  69      42A1F488 
  69      46C58439 
  69      C126
ARM GAS  /tmp/cc70fhEt.s 			page 5


  70 0100 820A8DA9 		.ascii	"\202\012\215\251\322\204\265\222U\247\357\3217J?C\277"
  70      D284B592 
  70      55A7EFD1 
  70      374A3F43 
  70      BF
  71 0111 453FEB98 		.ascii	"E?\353\230s\216\311RF\332\234\313\274g\370<q\352\270"
  71      738EC952 
  71      46DA9CCB 
  71      BC67F83C 
  71      71EAB8
  72 0124 966839D6 		.ascii	"\226h9\326%(:\275\014-\234\265~%\331F\366\345\035\312"
  72      25283ABD 
  72      0C2D9CB5 
  72      7E25D946 
  72      F6E51DCA 
  73 0138 4461D25D 		.ascii	"Da\322]\376p%h$\250\273~\004e#\313\010\2047\302\244"
  73      FE702568 
  73      24A8BB7E 
  73      046523CB 
  73      088437C2 
  74 014d D6B7ECD3 		.ascii	"\326\267\354\323g\254\342\036\271\011fH\024\341Q7\364"
  74      67ACE21E 
  74      B9096648 
  74      14E15137 
  74      F4
  75 015e 089A4D10 		.ascii	"\010\232M\0200\340\320\326\323k\367\307\324\271[r3\265"
  75      30E0D0D6 
  75      D36BF7C7 
  75      D4B95B72 
  75      33B5
  76 0170 B6D14444 		.ascii	"\266\321DD\222;\335\224\207\357I\373kzr\314s\241x2\303"
  76      923BDD94 
  76      87EF49FB 
  76      6B7A72CC 
  76      73A17832 
  77 0185 81782922 		.ascii	"\201x)\"\252\223\205\324\246w\336\207NQ\350\272qq\343"
  77      AA9385D4 
  77      A677DE87 
  77      4E51E8BA 
  77      7171E3
  78 0198 E2DC056F 		.ascii	"\342\334\005o\215\303M\331\036\225>;\341\233J\\M\214"
  78      8DC34DD9 
  78      1E953E3B 
  78      E19B4A5C 
  78      4D8C
  79 01aa 857A682A 		.ascii	"\205zh*A\314\200G\263\253#\270R\350\217\274~3B\253T"
  79      41CC8047 
  79      B3AB23B8 
  79      52E88FBC 
  79      7E3342AB 
  80 01bf 8F427AE5 		.ascii	"\217Bz\345\240tr^\354\207\236\344\373\263\207x\037<"
  80      A074725E 
  80      EC879EE4 
  80      FBB38778 
  80      1F3C
  81 01d1 DCB1FC6B 		.ascii	"\334\261\374k`rQc#{4\030\027\257QO!{2\341\330M\030\205"
  81      60725163 
ARM GAS  /tmp/cc70fhEt.s 			page 6


  81      237B3418 
  81      17AF514F 
  81      217B32E1 
  82 01e9 EE6D8C78 		.ascii	"\356m\214xa\241\233\023\372\230V\016`\365\311t\220\300"
  82      61A19B13 
  82      FA98560E 
  82      60F5C974 
  82      90C0
  83 01fb 843435F3 		.ascii	"\20445\3638r\307Dn,o$\035>Q\343\033\025\377\014\300"
  83      3872C744 
  83      6E2C6F24 
  83      1D3E51E3 
  83      1B15FF0C 
  84 0210 907BDBD1 		.ascii	"\220{\333\321\225K\227/.\256\211>w\366\002\232\206v"
  84      954B972F 
  84      2EAE893E 
  84      77F6029A 
  84      8676
  85 0222 F1F86F6D 		.ascii	"\361\370om}\303\367"
  85      7DC3F7
  86              		.text
  87              		.section	.gnu.lto_uStrAppendChar.21fd17d72e7038aa,"",%progbits
  88 0000 789C8552 		.ascii	"x\234\205R1K\034A\024\376\336\314\316\336\335z\311\011"
  88      314B1C41 
  88      14FEDECC 
  88      CEDEDD7A 
  88      C909
  89 0012 567622D8 		.ascii	"Vv\"\330\036\202\265\377BCR\312!\213\240\026&\3267{"
  89      1E82B5FF 
  89      424352CA 
  89      218BA016 
  89      26D6377B 
  90 0026 7B82902B 		.ascii	"{\202\220+\016\313\244\311\021\222 \210\0126b\245\225"
  90      0ECBA4C9 
  90      11922088 
  90      0A3662A5 
  90      95
  91 0037 8218A295 		.ascii	"\202\030\242\225v\007)\"$\204\024\226\342\372\315\316"
  91      76072922 
  91      24841496 
  91      E2FACDCE 
  92 0047 7A922064 		.ascii	"z\222 d`\336\233\235\367\275\357}\357\315*(\374\273"
  92      60DE9B9D 
  92      F7BDEF7D 
  92      EFCD2A28 
  92      FCBB
  93 0059 A6B95FF0 		.ascii	"\246\271_\360z\204^B\210\352~\005\222\262\222\300\037"
  93      7A845E42 
  93      88EA7E05 
  93      92B292C0 
  93      1F
  94 006a B43F1C95 		.ascii	"\264?\034\225\003\245;\307\200\215L\273\004[5\"\356"
  94      03A53BC7 
  94      808D4CBB 
  94      045B3522 
  94      EE
  95 007b 1E82A6D2 		.ascii	"\036\202\246\322\201\221\346+qtj\034=k\273\375\265\213"
ARM GAS  /tmp/cc70fhEt.s 			page 7


  95      8191E62B 
  95      71746A1C 
  95      3D6BBBFD 
  95      B58B
  96 008d CEA8FDD0 		.ascii	"\316\250\375\320\352\332\273,\223\005a\341H\320\020"
  96      EADABB2C 
  96      930561E1 
  96      48D010
  97 009c BCE4878C 		.ascii	"\274\344\207\214\345N\005\177+\31137\016\367nNzb7l\362"
  97      E54E057F 
  97      2BC93337 
  97      0EF76E4E 
  97      7A62376C 
  98 00b1 27CB6A44 		.ascii	"'\313jD)<\377_\346\216:\354g\331\355\227o\023\317\224"
  98      293CFF5F 
  98      E68E3AEC 
  98      67D9ED97 
  98      6F13CF94 
  99 00c5 2C09348D 		.ascii	",\0114\215\030\020\030\322\3502\346\244'\343\250\024"
  99      181018D2 
  99      E832E6A4 
  99      27E3A814 
 100 00d5 3EA2FF48 		.ascii	">\242\377H?\304`P\2451\3440hS\367\230G\300\025\344\232"
 100      3FC46050 
 100      A531E430 
 100      6853F798 
 100      47C015E4 
 101 00ea A165B733 		.ascii	"\241e\2673\242\350\364\254hp\004\372\014\351z\372\363"
 101      A2E8F4AC 
 101      687004FA 
 101      0CE97AFA 
 101      F3
 102 00fb 528A1490 		.ascii	"R\212\024\220\356S\316\201X*\261\224\235DH\241mV\002"
 102      EE53CE81 
 102      582AB194 
 102      9D4448A1 
 102      6D5602
 103 010e 70504C6A 		.ascii	"pPLj\375N\177\\\313\234|&6\226\210@\200To\365\303\325"
 103      FD4E7F5C 
 103      CB9C7C26 
 103      36968840 
 103      80546FF5 
 104 0124 502C8A01 		.ascii	"P,\212\001w\333:X\333\036@\253\357\361.\261vxAB\202"
 104      77DB3A58 
 104      DB1E40AB 
 104      EFF12EB1 
 104      76784142 
 105 0139 1CFB43FF 		.ascii	"\034\373C\377'h\377J\246\0068\027*=\216\345\012^\012"
 105      2768FF4A 
 105      A6063817 
 105      2A3D8EE5 
 105      0A5E0A
 106 014c 5FA59332 		.ascii	"_\245\2232\265\242\267\276\207N\221q\335\260\310\351"
 106      B5A2B7BE 
 106      874E9171 
 106      DDB0C8E9 
 107 015c FE45CD6B 		.ascii	"\376E\315k\367\025\354\024gQ\224\320\360\015\351\\\344"
ARM GAS  /tmp/cc70fhEt.s 			page 8


 107      F715EC14 
 107      675194D0 
 107      F00DE95C 
 107      E4
 108 016d 7ABAA93C 		.ascii	"z\272\251<2v\210(\177\005\307\\4\340#a\336\200\311\033"
 108      32768828 
 108      7F05C75C 
 108      34E02361 
 108      DE80C91B 
 109 0181 D8DF8D9E 		.ascii	"\330\337\215\236\240\016\037\251\335)\037\3329\222\376"
 109      A00E1FA9 
 109      DD291FDA 
 109      3992FE
 110 0190 A91ACC10 		.ascii	"\251\032\314\020~\360B\215\356o-\255\276~\263Ro@/\316"
 110      7EF0428D 
 110      EE6F2DAD 
 110      BE7EB352 
 110      6F402FCE 
 111 01a4 2F1BEEFA 		.ascii	"/\033\356\372\344=D\241\215\277"
 111      E43D44A1 
 111      8DBF
 112              		.text
 113              		.section	.gnu.lto_uStrPrependChar.21fd17d72e7038aa,"",%progbits
 114 0000 789C8D52 		.ascii	"x\234\215R\317k\023A\024~ofgg\023\223&m\275x+\375\003"
 114      CF6B1341 
 114      147E6F66 
 114      67671393 
 114      266DBD78 
 115 0017 8218EFFE 		.ascii	"\202\030\357\376\023-\330c(%,\250\007\177\234\263\233"
 115      132DD863 
 115      28252CA8 
 115      077F9CB3 
 115      9B
 116 0028 4428D843 		.ascii	"D(\330C\311EQ/\251\210TE\017\242\210\247\024\024W\212"
 116      C945512F 
 116      A9885445 
 116      0FA288A7 
 116      1414578A 
 117 003c 52C1837A 		.ascii	"R\301\203z\012\212\277PD\321\233\207\365\233\231\335"
 117      0A8ABF50 
 117      44D19B87 
 117      F59B99DD 
 118 004c A4A9073B 		.ascii	"\244\251\007;\260\373f\336|\337\233\357{3\202\004\355"
 118      B0FB66DE 
 118      7CDF9BEF 
 118      7B338204 
 118      ED
 119 005d 1D0D7CAF 		.ascii	"\035\015|\257$\321!D.\020\213\365\027Dq \330s\023\351"
 119      24D12144 
 119      2E108BF5 
 119      17447120 
 119      D87313E9 
 120 0071 265B8127 		.ascii	"&[\201'\344\332S\242\250\250\272\232\242\222b\355\000"
 120      E4DA53A2 
 120      A8A8BA9A 
 120      A29262ED 
 120      00
ARM GAS  /tmp/cc70fhEt.s 			page 9


 121 0082 BE9B6C05 		.ascii	"\276\233l\005Z\370\016\020X@\300l\362\304\324\022\322"
 121      5AF80E10 
 121      5840C06C 
 121      F2C4D412 
 121      D2
 122 0093 53BE0EB8 		.ascii	"S\276\016\270\265\304\346Ho\236\372Q\324\033>\271\270"
 122      B5C4E648 
 122      6F9EFA51 
 122      D41B3EB9 
 122      B8
 123 00a4 DDE7A817 		.ascii	"\335\347\250\027\305?\322\264\0222\304\025\231\226\231"
 123      C53FD2B4 
 123      1232C415 
 123      999699
 124 00b3 8E73C83C 		.ascii	"\216s\310<g\003y\223j-s}p\377C\262\213(\004M\355\223"
 124      67037993 
 124      6A2D737D 
 124      70FF43B2 
 124      8B28044D 
 125 00c9 F8602589 		.ascii	"\370`%\211\272\2034=fY\325}\261z\203{\277\223=B\017"
 125      BA83343D 
 125      6659D57D 
 125      B17A837B 
 125      BF933D42 
 126 00de FE8F7957 		.ascii	"\376\217yW\014\206iz\365\326\316Q@\033|\215\347\311"
 126      0C86697A 
 126      F5D6CE51 
 126      401B7C8D 
 126      E7C9
 127 00f0 E3934C2A 		.ascii	"\343\223L*[\370\210}DM!\313\000?*\230Y\021?\257\224"
 127      5BF8887D 
 127      444D21CB 
 127      003F2A98 
 127      59113FAF 
 128 0105 61CA2070 		.ascii	"a\312 p\005\213\353XT\2638\215x\003q\006H5k\3408MQ\027"
 128      058BEB58 
 128      54B3388D 
 128      78037106 
 128      48356BE0 
 129 011d EEE61CCD 		.ascii	"\356\346\034\315\341\310\010\304X\300\037\367\261\300"
 129      E1C808C4 
 129      58C01FF7 
 129      B1C0
 130 012b 02412EB2 		.ascii	"\002A.\262$\\\222|N\235\325\316\327\327\234\021\361"
 130      245C927C 
 130      4E9DD5CE 
 130      D7D79C11 
 130      F1
 131 013c 0C78130B 		.ascii	"\014x\023\013\214&W\233\\1\226\004g^\026q\006\256\022"
 131      8C26579B 
 131      5C319604 
 131      675E1671 
 131      06AE12
 132 014f A4F6F7CE 		.ascii	"\244\366\367\316\247\317\334\340\233\3006y\032@\"\224"
 132      A7CFDCE0 
 132      9BC03679 
 132      1A402294 
ARM GAS  /tmp/cc70fhEt.s 			page 10


 133 015f BA20F3D4 		.ascii	"\272 \363\324L\223=l\230l\373\321\371;#\350\354\025"
 133      4C933D6C 
 133      986CFBD1 
 133      F93B23E8 
 133      EC15
 134 0171 BA1C4751 		.ascii	"\272\034GQ5d\037 S]e\305\023\352~\213\353#\234\331\322"
 134      35641F20 
 134      535D65C5 
 134      13EA7E8B 
 134      EB239CD9 
 135 0186 E336BE21 		.ascii	"\3436\276!'\205H\254u@\255\312\333\357}\243H\0317\326"
 135      278548AC 
 135      7540ADCA 
 135      DBEF7DA3 
 135      481937D6 
 136 019a C54FE1B4 		.ascii	"\305O\341\2647Y\375+\334\317\334B\370\237#9\016ux\244"
 136      3759FD2B 
 136      DCCFDC42 
 136      F89F2339 
 136      0E7578A4 
 137 01ae DBA5B4D5 		.ascii	"\333\245\264\325\355\333\354jg\203\363|\200\244\275"
 137      EDDBEC6A 
 137      6783F37C 
 137      80A4BD
 138 01bd DE140366 		.ascii	"\336\024\003f'Y\005\313\012\234[\225g\213\360\012\012"
 138      275905CB 
 138      0A9C5B95 
 138      678BF00A 
 138      0A
 139 01ce 760A862A 		.ascii	"v\012\206*31\300<\333\361\035\310u#*[\224\036\243@\316"
 139      3331C03C 
 139      DBF11DC8 
 139      75232A5B 
 139      941EA340 
 140 01e3 24FC7A37 		.ascii	"$\374z7:\245\004\271\326V\232\017n\345\376\264\275\230"
 140      3AA504B9 
 140      D6569A0F 
 140      6EE5FEB4 
 140      BD98
 141 01f5 841E7F8C 		.ascii	"\204\036\177\214\017\344x\316:6\356!\2437\352\241D)"
 141      0FE478CE 
 141      3A36EE21 
 141      A337EAA1 
 141      4429
 142 0207 3FD18616 		.ascii	"?\321\206\026\270\356\265\267/\275\235\232PT\267\212"
 142      B8EEB5B7 
 142      2FBD9D9A 
 142      5054B78A 
 143 0217 BCDD8ACA 		.ascii	"\274\335\212\312D/)\036~\021\243'B\356]1\212\230c\364"
 143      442F291E 
 143      7E11A327 
 143      42EE5D31 
 143      8A9863F4 
 144 022b B933674F 		.ascii	"\2713gO\327\226I\206\265:\207\362\304\312)\205\257v"
 144      D7964986 
 144      B53A87F2 
 144      C4CA2985 
ARM GAS  /tmp/cc70fhEt.s 			page 11


 144      AF76
 145 023d F82FDE0D 		.ascii	"\370/\336\015\356\201"
 145      EE81
 146              		.text
 147              		.section	.gnu.lto_uStrInsertChar.21fd17d72e7038aa,"",%progbits
 148 0000 789C8D54 		.ascii	"x\234\215TMh\023A\030\375\276\231\235\335Mb\223\320"
 148      4D681341 
 148      18FDBE99 
 148      9DDD4D62 
 148      93D0
 149 0012 3F8FD682 		.ascii	"?\217\326\202\027\017A\250\236{\361\350\261\005=\206"
 149      170F41A8 
 149      9E7BF1E8 
 149      B1053D86 
 150 0022 5296054D 		.ascii	"R\226\005M\241\255\347n\232\024\012\366Pz\022=H\024"
 150      A1ADE76E 
 150      9A140AF6 
 150      507A123D 
 150      4814
 151 0034 11B1EAC1 		.ascii	"\021\261\352\301\213xJA0\022\224x\323[A\374\243\"E\275"
 151      8B784A41 
 151      30129478 
 151      D35B41FC 
 151      A32245BD 
 152 0048 A9AC6F66 		.ascii	"\251\254ofv\267&=\330\201\235o\346\233\367\276yofXA"
 152      76B7263D 
 152      D8819D6F 
 152      E69BF7BE 
 152      796F6658 
 153 005d 82065B15 		.ascii	"\202\006[\025\337y\207\3504\"\347\210\305\346k\242\272"
 153      DF7987E8 
 153      3422E788 
 153      C5E66BA2 
 153      BA
 154 006e 2FD8B103 		.ascii	"/\330\261\003i\007;\276#\344\306\013\242(\257\232\036"
 154      69073BBE 
 154      23E4C60B 
 154      A228AF9A 
 154      1E
 155 007f 45C7147B 		.ascii	"E\307\024{\026\340\332\301\216\357\011\327\002|\003"
 155      16E0DAC1 
 155      8EEF09D7 
 155      027C03
 156 008e F099759E 		.ascii	"\360\231u\236\230V\204t\224\353\371\274r\211\365\226"
 156      98568474 
 156      94EBF9BC 
 156      7289F596 
 157 009e 6A925A51 		.ascii	"j\222ZQ\264\265\273v\253\333\342h+\252\357\307q)d\210"
 157      B4B5BB76 
 157      ABDBE268 
 157      2BAAEFC7 
 157      71296488 
 158 00b2 CB33CD31 		.ascii	"\3133\3151]\344\220y\302\004r\372\325Zf\373\317\207"
 158      5DE49079 
 158      C20472FA 
 158      D55A66FB 
 158      CF87
ARM GAS  /tmp/cc70fhEt.s 			page 12


 159 00c4 CE00B378 		.ascii	"\316\000\263x$\346f{\177\276\0235\333q<\035\262\020"
 159      24E6667B 
 159      7FBE1335 
 159      DB713C1D 
 159      B210
 160 00d6 74E288AC 		.ascii	"t\342\210\254\357}\254\223GT\371\344\347\240\312S\377"
 160      EF7DAC93 
 160      4754F9E4 
 160      E7A0CA53 
 160      FF
 161 00e7 633E16ED 		.ascii	"c>\026\355\3358\376\375\2607}\234\251\312wy\222\034"
 161      DD38FEFD 
 161      B0377D9C 
 161      A9CA7779 
 161      921C
 162 00f9 BEC2A492 		.ascii	"\276\302\244\222\211\213\011{\230\2640\361)d\231CGy"
 162      898B097B 
 162      98B430F1 
 162      29649943 
 162      4779
 163 010b 3D2AA073 		.ascii	"=*\240s\206\022`\021\361\016bI\257\224\301\022\303\310"
 163      86126011 
 163      F10E6249 
 163      AF94C112 
 163      C3C8
 164 011d DC436624 		.ascii	"\334Cf$\211\243\210\367\021\307\200P\343\232\253\257"
 164      89A388F7 
 164      11C78050 
 164      E39AABAF 
 165 012d 869AF03B 		.ascii	"\206\232\360;akX\034i\311h3\350q\2613,\020\344,K\302"
 165      616B581C 
 165      69C96833 
 165      E871B133 
 165      2C10E42C 
 166 0143 6DCB57D4 		.ascii	"m\313W\324Xo\354\275\345\204\210\367\304\0170A\013x"
 166      586FECBD 
 166      E58488F7 
 166      C40F3041 
 166      0B78
 167 0155 24E0616D 		.ascii	"$\340amRp\342n\026{\340M\200\264\372\255\361\3513Wy"
 167      5270E26E 
 167      167BE04D 
 167      80B4FAAD 
 167      F1E93357 
 168 016a 1BD88047 		.ascii	"\033\330\200G\001$B\251k2M\215\005\354`AgW\237\255="
 168      012442A9 
 168      6B324D8D 
 168      05EC6041 
 168      67579FAD 
 169 017f CAA0E337 		.ascii	"\312\240\3437\351F=\212\312!\273\000\351\352*)\336\241"
 169      E9463D8A 
 169      CA21BB00 
 169      E9EA2A29 
 169      DEA1
 170 0191 E6D7FA54 		.ascii	"\346\327\372T\206\323K\336\301\301\276#+\205Hl4@\035"
 170      86D34BDE 
 170      C1C1BE23 
ARM GAS  /tmp/cc70fhEt.s 			page 13


 170      2B85486C 
 170      34401D
 171 01a4 91DBEF5D 		.ascii	"\221\333\357]\255Hi7\306\305\027i\265\007\254\016\013"
 171      AD486937 
 171      C6C51769 
 171      B507AC0E 
 171      0B
 172 01b5 7713B710 		.ascii	"w\023\267\020\376c*\305y\001s\246\333\246|\243\3333"
 172      FE632AC5 
 172      790173A6 
 172      DBA67CA3 
 172      DB33
 173 01c7 D9F5C66D 		.ascii	"\331\365\306mN\3639$\315\205\307h%\032`\345\015+g\335"
 173      4EF33924 
 173      CD85C768 
 173      251A60E5 
 173      0D2B67DD 
 174 01db AA345B80 		.ascii	"\2524[\200WP\260\222\327T\231\210\001\346e\317\265 "
 174      5750B092 
 174      D7549988 
 174      01E665CF 
 174      B520
 175 01ed 7B1AD190 		.ascii	"{\032\321\220A\371\007(\220\023\011{\335\254\336\020"
 175      41F90728 
 175      9013097B 
 175      DDACDE10 
 176 01fd E41A5B71 		.ascii	"\344\032[q\332x%\365\347\231\213\351\320\363\217\365"
 176      DA7825F5 
 176      E7998BE9 
 176      D0F38FF5 
 177 020d 428AE700 		.ascii	"B\212\347\000\266\263\363\303L\251\247\022e\334\353"
 177      B6B3F3C3 
 177      4CA9A712 
 177      65DCEB
 178 021c 054DF1ED 		.ascii	"\005M\361\355\311\341D~u3\237E\303\3513W2\346\212Fx"
 178      C9E1447E 
 178      75339F45 
 178      C3E93357 
 178      32E68A46 
 179 0231 B757EC13 		.ascii	"\267W\354\023>e\204\227\376\025^&zC\365\335Xd/\211\354"
 179      3E658497 
 179      FE155E26 
 179      7A43F5DD 
 179      58642F89 
 180 0246 F363ECA7 		.ascii	"\363c\354\247\377_\336\325\245\345\305\312\034\311\260"
 180      FF5FDED5 
 180      A5E5C5CA 
 180      1CC9B0
 181 0255 72B61CD6 		.ascii	"r\266\034\326\226\346\027\227/,\314U\227\303\205Z\345"
 181      96E61797 
 181      2F2CCC55 
 181      97C3855A 
 181      E5
 182 0266 1C87F2F2 		.ascii	"\034\207\362\362|M\341\253\234\371\013%\270\015\340"
 182      7C4DE1AB 
 182      9CF90B25 
 182      B80DE0
ARM GAS  /tmp/cc70fhEt.s 			page 14


 183              		.text
 184              		.section	.gnu.lto_uStrCat.21fd17d72e7038aa,"",%progbits
 185 0000 789C8D54 		.ascii	"x\234\215TKkSA\024>g\356\373\336\304\364\335$\"\226"
 185      4B6B5341 
 185      143E67EE 
 185      FBDEC4F4 
 185      DD242296 
 186 0014 BA2F6AC1 		.ascii	"\272/j\301\225?\243\005]\226\"\227\200\272\360\261\356"
 186      953FA305 
 186      5D962297 
 186      80BAF0B1 
 186      EE
 187 0025 A4895030 		.ascii	"\244\211P0\213P\272Q\251\264\210\370\252\326\007\270"
 187      8B50BA51 
 187      A9B488F8 
 187      AAD607B8 
 188 0035 70956E6A 		.ascii	"p\225nj](\270SpQ\020\333\242\242]\270\024\257\337\314"
 188      5D28B853 
 188      705110DB 
 188      A2A25DB8 
 188      14AFDFCC 
 189 0049 DC9BB651 		.ascii	"\334\233\266Qh\0072\347\316\371\276o\346|g\206\010\022"
 189      680732E7 
 189      CEF9BE6F 
 189      E67C6786 
 189      0812
 190 005b D4396AF8 		.ascii	"\3249j\370\035q\210\216\"r\216X4\337\021U}\301\266\371"
 190      1D71888E 
 190      22728E58 
 190      34DF1155 
 190      7DC1B6F9 
 191 006f B0CCC78A 		.ascii	"\260\314\307\212o\013\253\361\232H\206n\335#\231s9R"
 191      6F0BABF1 
 191      9A48866E 
 191      DD239973 
 191      3952
 192 0081 79764C5C 		.ascii	"yvL\\\361#\341\030\334\327\270\317\241\306=\023W\374"
 192      F123E118 
 192      DCD7B8CF 
 192      A1C63D13 
 192      57FC
 193 0093 5078060F 		.ascii	"Px\006\0174\0360\253<1M\011\313v\235\310\367\302\200"
 193      341E30AB 
 193      3C314D09 
 193      CB769DC8 
 193      F7C280
 194 00a6 A7CEB22A 		.ascii	"\247\316\262*\312\035\246E)g\327\277ll\211\033s\255"
 194      CA1DA645 
 194      2967D7BF 
 194      6C6C891B 
 194      73AD
 195 00b8 FA82FC9D 		.ascii	"\372\202\374\235$\314\025\206\201\220i\222\351\014\026"
 195      24CC1586 
 195      81906992 
 195      E90C16
 196 00c7 3CA403D9 		.ascii	"<\244\003\331{\035im\2635\277\332(\311\205\351\246\374"
 196      7B1D696D 
ARM GAS  /tmp/cc70fhEt.s 			page 15


 196      B335BFDA 
 196      28C985E9 
 196      A6FC
 197 00d9 03698585 		.ascii	"\003i\205\205\240C\007T\336^\3155\25332I\246\264\254"
 197      A0430754 
 197      DE5ECD35 
 197      AB333249 
 197      A6B4AC
 198 00ec F780B2A7 		.ascii	"\367\200\262\247{e\305\003\311f[/~\255-\262\234\225"
 198      7B65C503 
 198      C9665B2F 
 198      7EAD2DB2 
 198      9C95
 199 00fe D5ED2429 		.ascii	"\325\355$)h\207\345\203)\345\363\3732\320\235\261@\231"
 199      6887E583 
 199      29E5F3FB 
 199      32D09DB1 
 199      4099
 200 0110 E0872CF6 		.ascii	"\340\207,\366\321-\213\326z\222|zV\377Z:\254\024\367"
 200      D12D8BD6 
 200      7A927C7A 
 200      56FF5A3A 
 200      AC14F7
 201 0123 78986CBE 		.ascii	"x\230l\276\300\344\244\013\027\013\366\011\365\007\230"
 201      C0E4A40B 
 201      170BF609 
 201      F50798
 202 0132 28C46445 		.ascii	"(\304dE\300\026\201\345\260\260\363\230\234B\312\356"
 202      C01681E5 
 202      B0B0F398 
 202      9C42CAEE 
 203 0142 42BC83D8 		.ascii	"B\274\203\330\235\306\036\304\007\210\275\212\331\247"
 203      9DC61EC4 
 203      0788BD8A 
 203      D9A7
 204 0150 98FDC8DC 		.ascii	"\230\375\310\334Ef \215\203\210\217\020\213\212QR\214"
 204      4566208D 
 204      83888F10 
 204      8B8A5152 
 204      8C
 205 0161 728A6038 		.ascii	"r\212`8TG\033\207\314^&k\316!e\013c\0143\336\316\030"
 205      54471B87 
 205      CC5E266B 
 205      CE21650B 
 205      630C33DE 
 206 0177 7CD63D6B 		.ascii	"|\326=k\234-\302\203\262\336Rm\246\366\355\003\247r"
 206      9C2DC283 
 206      B2DE526D 
 206      A6F6ED03 
 206      A772
 207 0189 8268090B 		.ascii	"\202h\011\013\214\230\273c\356R\215\020\234v`\234m\302"
 207      8C98BB63 
 207      EE528D10 
 207      9C76609C 
 207      6DC2
 208 019b B38368FA 		.ascii	"\263\203h\372Gms\213'\3701\2701\367\200H\204\255\256"
 208      476D738B 
ARM GAS  /tmp/cc70fhEt.s 			page 16


 208      27F831B8 
 208      31F78048 
 208      84ADAE
 209 01ae 5B59AA37 		.ascii	"[Y\2527f\033\200\312N\277\272\366\244M\355\273E7\253"
 209      661B80CA 
 209      4EBFBAF6 
 209      A44DEDBB 
 209      4537AB
 210 01c1 527655D8 		.ascii	"RvU\330\005I\355\236uy\215\352\337\253\243m\236\202"
 210      0549ED9E 
 210      75798DEA 
 210      DFABA36D 
 210      9E82
 211 01d3 BC9DE67F 		.ascii	"\274\235\346\177$S\012\221h\324 \355\266\226>\273\252"
 211      24530A91 
 211      68D420ED 
 211      B6963EBB 
 211      AA
 212 01e4 2257B951 		.ascii	"\"W\271Qx9\305m\340\012p\366\3657\020s\177\207\277H"
 212      7839C56D 
 212      E00A70F6 
 212      F5371073 
 212      7F87BF48 
 213 01f8 F9E31D7F 		.ascii	"\371\343\035\177\313\272\230A\020\333\376L\252\030+"
 213      CBBA9841 
 213      10DBFE4C 
 213      AA182B
 214 0207 0383BBFC 		.ascii	"\003\203\273\374\231|i\267\277\342\377\374\245\274\177"
 214      997C69B7 
 214      BFE2FFFC 
 214      A5BC7F
 215 0216 FCF5C75C 		.ascii	"\374\365\307\\v\031U9\2513?s\346\244\316\242\271Q\225"
 215      76195539 
 215      A9333F73 
 215      E6A4CEA2 
 215      B95195
 216 0229 F7768CFD 		.ascii	"\367v\214\375l\024\215\237\230\375\2309\275\006\024"
 216      6C148D9F 
 216      98FD9839 
 216      BD0614
 217 0238 5FCED201 		.ascii	"_\316\322\001\220v\351&\025\352\253\011R\346K\316\362"
 217      9076E926 
 217      15EAAB09 
 217      52E64BCE 
 217      F2
 218 0249 1176E8A0 		.ascii	"\021v\350\240\346\264\313\310\270t\262l\036\036Y\033"
 218      E6B4CBC8 
 218      B874B26C 
 218      1E1E591B 
 219 0259 CCED3608 		.ascii	"\314\3556\010\316\233m\317\220L\027d\036o\024\007*\226"
 219      CE9B6DCF 
 219      904C1764 
 219      1E6F1407 
 219      2A96
 220 026b 45A6E979 		.ascii	"E\246\351y}\304Lm\263q:\333\257\200\203;\356!\324\367"
 220      7DC44C6D 
 220      B3713ADB 
ARM GAS  /tmp/cc70fhEt.s 			page 17


 220      AF80833B 
 220      EE21D4F7 
 221 027f 80966D54 		.ascii	"\200\226mT\243\214\306\372\026\262va\345\370\230\012"
 221      A38CC6FA 
 221      16B27661 
 221      E5F8980A 
 222 028f DE9AA714 		.ascii	"\336\232\247\024\201\352\326{\252\256\317\037k_1\231"
 222      81EAD67B 
 222      AAAECF1F 
 222      6B5F3199 
 223 029f 77CF80D4 		.ascii	"w\317\200\324_\267w\365\362\225K#\223dUFN\331\347\317"
 223      5FB777F5 
 223      F2954B23 
 223      93645546 
 223      4ED9E7CF 
 224 02b3 5D3CA1A6 		.ascii	"]<\241\246\223\\q\020F\216\377\005\035\225.\344"
 224      935C7110 
 224      468EFF05 
 224      1D952EE4 
 225              		.text
 226              		.section	.gnu.lto_uStrFindChar.21fd17d72e7038aa,"",%progbits
 227 0000 789C8552 		.ascii	"x\234\205R\273J\003Q\020=\347>6\017\2026\026\212 \301"
 227      BB4A0351 
 227      103DE73E 
 227      360F8236 
 227      168A20C1 
 228 0014 0FB013BF 		.ascii	"\017\260\023\277\302NAK\211\020R\330\370\250\263y(\202"
 228      C24E414B 
 228      891052D8 
 228      F8A8B379 
 228      2882
 229 0026 0682D8F8 		.ascii	"\006\202\330\370(\"bcc\025\002\222\"\212\250\210\006"
 229      28226263 
 229      63150292 
 229      228AA888 
 229      06
 230 0037 2CAD1441 		.ascii	",\255\024A,\024\261W\\\347nL\2026\016\354\235\235\231"
 230      2C14B157 
 230      5CE76E4C 
 230      82360EEC 
 230      9D9D99
 231 004a 7366CE9D 		.ascii	"sf\316\235]\005\205\2776.\317\007\201^\361\214\200\252"
 231      5D0585BF 
 231      362ECF07 
 231      815EF18C 
 231      80AA
 232 005c DC047251 		.ascii	"\334\004rQE\333z\321\312;\325\360\343\246y\005\370\011"
 232      45DB7AD1 
 232      CA3BD5F0 
 232      E3A67905 
 232      F809
 233 006e D3CA9F44 		.ascii	"\323\312\237D\255\322a&\036\226\023\036\351\362 \262"
 233      ADD26126 
 233      1E96131E 
 233      E9F220B2 
 234 007e 4A1BEB31 		.ascii	"J\033\3531;M\327^\015c\317\3677\036\236^\032\334\332"
 234      3B4DD75E 
ARM GAS  /tmp/cc70fhEt.s 			page 18


 234      0D63CFF7 
 234      371E9E5E 
 234      1ADCDA
 235 0091 6C142BFE 		.ascii	"l\024+\376g\020\220\031\212\2248\221\"\246$`2t0\277"
 235      67109019 
 235      8A943891 
 235      22A62460 
 235      327430BF 
 236 00a5 B585DC72 		.ascii	"\265\205\334r\343\356|}\300\257\344\313\376\227P3T\012"
 236      E3EE7C7D 
 236      C0AFE4CB 
 236      FE975033 
 236      540A
 237 00b7 3DFF318F 		.ascii	"=\3771\217T\343!\010\352\325\342\343\240L\231\341>\207"
 237      54E32108 
 237      EAD5E2E3 
 237      A04C99E1 
 237      3E87
 238 00c9 65A070B5 		.ascii	"e\240p\265\004{\022\030\316\021V2:\"\207\211J\310\330"
 238      047B1218 
 238      CE115632 
 238      3A228789 
 238      4AC8D8
 239 00dc 0F50CCA2 		.ascii	"\017P\314\242(\223\223\3558\025\336eB\316wO\234\022"
 239      289393ED 
 239      3815DE65 
 239      42CE774F 
 239      9C12
 240 00ee A727A921 		.ascii	"\247'\251!\033\320\2278{>\271_Q3<\240E\232\2214\243"
 240      1BD09738 
 240      7B3EB95F 
 240      51333CA0 
 240      459A9134 
 241 0103 5D219334 		.ascii	"]!\2234\250\\@\337\240\260Zx.\3516*\226&\235p\305\016"
 241      A85C40DF 
 241      A0B05A78 
 241      2EE9362A 
 241      96269D70 
 242 0119 D0423628 		.ascii	"\320B6(\300\374[\241V\032j\003\265\000\001\241\257u"
 242      C0FC5BA1 
 242      561A6A03 
 242      B50001A1 
 242      AF75
 243 012b B8364D23 		.ascii	"\2706M#\005\227\315\037/\037\2623y\007\333\322R\312"
 243      0597CD1F 
 243      2F1FB233 
 243      7907DBD2 
 243      52CA
 244 013d D6B5D63F 		.ascii	"\326\265\326?\235/Q|\315\215v@\256\344u\005\336\241"
 244      9D2F517C 
 244      CD8D7640 
 244      AEE47505 
 244      DEA1
 245 014f A5433ED5 		.ascii	"\245C>\325uuV\204\231\335Z\302\311\361\334%o\345\017"
 245      75755684 
 245      99DD5AC2 
 245      C9F1DC25 
ARM GAS  /tmp/cc70fhEt.s 			page 19


 245      6FE50F
 246 0162 80B0540B 		.ascii	"\200\260T\013\252D\214^\257\365\207\214\240m\314\332"
 246      AA448C5E 
 246      AFF5878C 
 246      A06DCCDA 
 247 0172 7AADCFED 		.ascii	"z\255\317\355\207\302q\320\310\322\302\342\374H\012"
 247      87C271D0 
 247      C8D2C2E2 
 247      FC480A
 248 0181 3A3332C6 		.ascii	":32\306\3147\255K\206["
 248      CC37AD4B 
 248      865B
 249              		.text
 250              		.section	.gnu.lto_uStrFindCharN.21fd17d72e7038aa,"",%progbits
 251 0000 789C8D53 		.ascii	"x\234\215SKk\023Q\030\375\316}\314L\322\251\270\210"
 251      4B6B1351 
 251      18FDCE7D 
 251      CC4CD2A9 
 251      B888
 252 0012 A08252FA 		.ascii	"\240\202R\372\003\272\023\372C,\3502D\034g\241\013\255"
 252      03BA13FA 
 252      432CE832 
 252      441C67A1 
 252      0BAD
 253 0024 EB4C1E62 		.ascii	"\353L\036b\301\022\202\010\276\026\246H)H\301\205\013"
 253      C1128208 
 253      BE16A648 
 253      2948C185 
 253      0B
 254 0035 A9E92215 		.ascii	"\251\351\"\025%E\264\3402\340\242 \342F\264\324\255"
 254      2545B4E0 
 254      32E0A220 
 254      E246B4D4 
 254      AD
 255 0046 389E3B93 		.ascii	"8\236;\223I\260\033\2750\367\233\357\334s\316\234{g"
 255      49B01BBD 
 255      30F79BEF 
 255      DC73CE9C 
 255      7B67
 256 0058 468992A3 		.ascii	"F\211\222\243\3432\257\267\204+\254(\011TwO\244\021"
 256      E332AFB7 
 256      842BAC28 
 256      0954774F 
 256      A411
 257 006a 28F8F98D 		.ascii	"(\370\371\215V\346\340\204$e\333[\224$4\2609lU\360Z"
 257      56E6E084 
 257      2465DB5B 
 257      942434B0 
 257      396C55F0 
 258 007f 13F6F6DE 		.ascii	"\023\366\366\336\011q/\247\357\004\276\322\031R\316"
 258      09712FA7 
 258      EF04BED2 
 258      1952CE
 259 008e 96C30070 		.ascii	"\226\303\000p\270@\352J\033\353\371\001\352\027\341"
 259      B840EA4A 
 259      1BEBF901 
 259      EA17E1
ARM GAS  /tmp/cc70fhEt.s 			page 20


 260 009d 9EABE765 		.ascii	"\236\253\347e-I\356\356\177\3719\300\303{\203v/\371"
 260      2D49EEEE 
 260      7FF939C0 
 260      C37B8376 
 260      2FF9
 261 00af 95A6400C 		.ascii	"\225\246@\014f,Cj\220\013l0\227\0251\177\207\316\264"
 261      662C436A 
 261      900B6C30 
 261      9715317F 
 261      87CEB4
 262 00c2 DDC1FDE1 		.ascii	"\335\301\375\341\352\251\244\327\354&\277)\215\241\224"
 262      EAA9A4D7 
 262      EC26BF29 
 262      8DA194
 263 00d1 1CFB4FE5 		.ascii	"\034\373O\345\203a\330m\254$iZ\317d\307\377%{\256\006"
 263      8361D86D 
 263      AC24695A 
 263      CF64C7FF 
 263      257BAE06 
 264 00e5 FB69BAB9 		.ascii	"\373i\272\271\325><\303GT\361\024\363\314Y\305:\253"
 264      D53E3CC3 
 264      4754F114 
 264      F3CC59C5 
 264      3AAB
 265 00f7 1E5723F4 		.ascii	"\036W#\364\262l\326\330x\270\012\361\211\350\022'Sf"
 265      B26CD6D8 
 265      78B80AF1 
 265      89E81227 
 265      5366
 266 0109 8B993131 		.ascii	"\213\23111d\243f\307.\034V\332\3144\227\3679E\\\036"
 266      64A366C7 
 266      2E1C56DA 
 266      CC3497F7 
 266      39455C1E 
 267 011d 8EF39C0F 		.ascii	"\216\363\234\017<\026\305\242\227\240\205\247\253w\345"
 267      3C16C5A2 
 267      97A085A7 
 267      AB77E5
 268 012c CDD79D27 		.ascii	"\315\327\235'\267U\025\033\260\022\241\024\241<\315"
 268      B755151B 
 268      B012A114 
 268      A13CCD
 269 013b BA042387 		.ascii	"\272\004#\207\025\375AZ+\255\317\235\323\005i&\202v"
 269      15FD415A 
 269      2BADCF9D 
 269      D3056926 
 269      8276
 270 014d 5B5398F0 		.ascii	"[S\230\360\354\324\355\305\324ME\010\013\257\221\260"
 270      ECD4EDC5 
 270      D44D4508 
 270      0BAF91B0 
 271 015d D31A949B 		.ascii	"\323\032\224\233\325\376\025'\362\2447\224\334\375G"
 271      D5FE1527 
 271      F2A43794 
 271      DCFD47
 272 016c 4717A2D9 		.ascii	"G\027\242\331\0108\342\356\013_=\211\315\357\255\227"
 272      0838E2EE 
ARM GAS  /tmp/cc70fhEt.s 			page 21


 272      0B5F3D89 
 272      CDEFAD97 
 273 017c 9DB305D1 		.ascii	"\235\263\005\321\222(B\371\235\211\326\217\340q\301"
 273      922842F9 
 273      9D89D68F 
 273      E071C1
 274 018b A1CD57B7 		.ascii	"\241\315W\267\236a\262\255\307\362\210\226T\370\316"
 274      9E61B2AD 
 274      C7F28896 
 274      54F8CE
 275 019a 5A8F9D77 		.ascii	"Z\217\235w\245\375\255qnBrK\336t\367#\311s\210\250\355"
 275      A5FDAD71 
 275      6E42724B 
 275      DE74F723 
 275      C97388A8 
 276 01af AD4B0CE6 		.ascii	"\255K\014\346m\367\303\221\350\002|\357@\345\301%\014"
 276      6DF7C391 
 276      E8027CEF 
 276      40E5C125 
 276      0C
 277 01c0 DCA17EE4 		.ascii	"\334\241~\344\327,42\271\3320\237\335\354\237\314\370"
 277      D72C3432 
 277      B9DA309F 
 277      DDEC9FCC 
 277      F8
 278 01d1 693150F7 		.ascii	"i1P\367?\365+\356}\200\032\367\027\3717o,__\250\211"
 278      3FF52BEE 
 278      7D801AF7 
 278      17F9376F 
 278      2C5F5FA8 
 279 01e6 8E171611 		.ascii	"\216\027\026\021\233\270vm\371\017\312\210\265\342"
 279      9BB8766D 
 279      F90FCA88 
 279      B5E2
 280              		.text
 281              		.section	.gnu.lto_.symbol_nodes.21fd17d72e7038aa,"",%progbits
 282 0000 789C4DC7 		.ascii	"x\234M\307\271\021\2000\024CA}\371\352\227\006^J\350"
 282      B9118030 
 282      1443417D 
 282      F9EA9706 
 282      5E4AE8
 283 0013 0A5C1235 		.ascii	"\012\\\0225\2210\2036[\313\272\364\261\220\366#\301"
 283      91308336 
 283      5BCBBAF4 
 283      B190F623 
 283      C1
 284 0024 B9CB45C5 		.ascii	"\271\313E\305\214c\215\026\353\364\330`\304&3\266X\377"
 284      8C638D16 
 284      EBF4D860 
 284      C42633B6 
 284      58FF
 285 0036 F4024FF7 		.ascii	"\364\002O\367 \317"
 285      20CF
 286              		.text
 287              		.section	.gnu.lto_.refs.21fd17d72e7038aa,"",%progbits
 288 0000 789C6362 		.ascii	"x\234cb`b`d\200\002\000\000F\000\006"
 288      60626064 
ARM GAS  /tmp/cc70fhEt.s 			page 22


 288      80020000 
 288      460006
 289              		.text
 290              		.section	.gnu.lto_.decls.21fd17d72e7038aa,"",%progbits
 291 0000 789C9556 		.ascii	"x\234\225Voh\034E\024\177\263\273\232\333$&\371b\311"
 291      6F681C45 
 291      147FB3BB 
 291      9ADB2426 
 291      F962C9
 292 0013 2753A415 		.ascii	"'S\244\025\0116GU\004\277\0244\240UJ\021\244 \202\034"
 292      09364755 
 292      04BF1434 
 292      A0554A11 
 292      A420821C 
 293 0027 D3BB2D39 		.ascii	"\323\273-9h7\347\336\036\322oc\245A\004kh\021\362E\233"
 293      6837E7DE 
 293      1ED26F63 
 293      A541046B 
 293      6811F245 
 294 003c EAC5D856 		.ascii	"\352\305\330V\252G\375w\2026\234\266\236\202\226\322"
 294      AA47FD77 
 294      82369CB6 
 294      9E8296D2 
 295 004c 8B5652F0 		.ascii	"\213VR\360,\261P\025Z\352\007\021*\353\233\331\271\275"
 295      2CB15015 
 295      5AEA0711 
 295      2AEB9BD9 
 295      B9BD
 296 005e EC7477B3 		.ascii	"\354tw\2637\360\273\235\235{\357\367\346\375\336\314"
 296      37F0BB9D 
 296      9D7BEFF7 
 296      E6FDDECC 
 297 006e EC68A0C1 		.ascii	"\354h\240\301\274\006\340ak\367\003L\020\000\023\000"
 297      BC06E061 
 297      6BF7034C 
 297      10001300 
 298 007e B641B765 		.ascii	"\266A\267e\020\307\020\247\020uD\003\321D\264\020+\210"
 298      10C710A7 
 298      10754403 
 298      D144B410 
 298      2B88
 299 0090 55B8BD71 		.ascii	"U\270\275q\373>\304 b\010a \252\210E\304\002\202H;\""
 299      FB3EC420 
 299      62086120 
 299      AA8845C4 
 299      0282483B 
 300 00a5 6DF9F3A4 		.ascii	"m\371\363\244\302\301\343\231\322wHr]G\324\022\270\270"
 300      C2C1E399 
 300      D2774872 
 300      5D47D412 
 300      B8B8
 301 00b7 0FA6039F 		.ascii	"\017\246\003\237\">V\370\3522\227\265|I\\u\311\365\025"
 301      223E56F8 
 301      EA3297B5 
 301      7C495C75 
 301      C9F515
 302 00ca E28CC2D5 		.ascii	"\342\214\302\325\220\\k\363\253I\236j\004WCr}\2038\253"
ARM GAS  /tmp/cc70fhEt.s 			page 23


 302      905C6BF3 
 302      AB499E6A 
 302      04574372 
 302      7D8338AB 
 303 00de 70357BE4 		.ascii	"p5{\344\342\366:\342G\304\005\304y\205\257\025\303\027"
 303      E2F63AE2 
 303      47C405C4 
 303      7985AF15 
 303      C317
 304 00f0 97674BCE 		.ascii	"\227gK\316\355'\304%\205\213\3277m\035W$O\033\361\233"
 304      ED27C425 
 304      858BD737 
 304      6D1D5724 
 304      4F1BF19B 
 305 0104 C2B3DA03 		.ascii	"\302\263\332\003\317\252\314\357\017\304\237\210\277"
 305      CFAACCEF 
 305      0FC49F88 
 305      BF
 306 0111 14AE3178 		.ascii	"\024\2561x\233\265o\264\317.\017\316\276\334\366\274"
 306      9BB56FB4 
 306      CF2E0FCE 
 306      BEDCF6BC 
 307 0121 A34B2CB3 		.ascii	"\243K,\263\001\336d\330\346g\030#.%\206\011\317\021"
 307      01DE64D8 
 307      E6671823 
 307      2E258609 
 307      CF11
 308 0133 4A864CD8 		.ascii	"J\206L\330(:\203\246\010\010@\311;d\203\350\351b\252"
 308      283A83A6 
 308      080840C9 
 308      3B6483E8 
 308      E962AA
 309 0146 3000AF31 		.ascii	"0\000\2571v\200;no\242\371\253\374\245\275\2604:\207"
 309      76803B6E 
 309      6FA2F9AB 
 309      FCA5BDB0 
 309      343A87
 310 0159 93941499 		.ascii	"\223\224\024\231\016\005\237\333f\250b\234Y\306\264"
 310      0E059FDB 
 310      66A8629C 
 310      59C6B4
 311 0168 C0988D8E 		.ascii	"\300\230\215\216F\333R\362\036\331\214\277\213\304\024"
 311      46DB52F2 
 311      1ED98CBF 
 311      8BC414
 312 0177 21F95F7E 		.ascii	"!\371_~\277\323\363\010W\254\237@d[\3173.\305*\031\350"
 312      BFD3F308 
 312      57AC9F40 
 312      645BCF33 
 312      2EC52A19 
 313 018c 52ECD203 		.ascii	"R\354\322\003>\015\206\011\214\303q?\201+\003p{\333"
 313      3E0D8609 
 313      8CC3713F 
 313      812B0370 
 313      7BDB
 314 019e 04EF3276 		.ascii	"\004\3572v\230\375]\330\356\323hp\017A\222cd,2Z\020"
 314      98FD5DD8 
ARM GAS  /tmp/cc70fhEt.s 			page 24


 314      EED36870 
 314      0F419263 
 314      642C325A 
 315 01b3 EB3E58E0 		.ascii	"\353>X\340\372\237\23498b\010\371!\301K\316\3548\321"
 315      FA9F9C39 
 315      386208F9 
 315      21C14BCE 
 315      EC38D1
 316 01c6 D4AACEB7 		.ascii	"\324\252\316\267\227.^\362\253:\246\224t\333\335\261"
 316      972E5EF2 
 316      AB3AA694 
 316      74DBDDB1 
 317 01d6 F97E9850 		.ascii	"\371~\230PR_\2558\317ZW)\351\034d\244(w/\227\341\004"
 317      525FAD38 
 317      CF5A5729 
 317      E91C64A4 
 317      28772F97 
 318 01ec 190FEBF4 		.ascii	"\031\017\353\364\013\327\251&t\032\347\006\247bu\022"
 318      0BD7A926 
 318      741AE706 
 318      A7627512 
 319 01fc 91A4D75B 		.ascii	"\221\244\327[V\240n6\331+\254\356\353\354\340\010\021"
 319      56A06E36 
 319      D92BACEE 
 319      EBECE008 
 319      11
 320 020d 4A80F40A 		.ascii	"J\200\364\012-\226\323\221z\336*4\331\015\317\033N/"
 320      2D96D391 
 320      7ADE2A34 
 320      D90DCF1B 
 320      4E2F
 321 021f E7176139 		.ascii	"\347\027a9\375\271\007/rI*\362<\024)\317?\035y(\371"
 321      FDB9072F 
 321      72492AF2 
 321      3C1429CF 
 321      3F1D7928 
 322 0234 04274749 		.ascii	"\004'GI=\235>/\214\372q4x\234\204\275\224\375%'\023"
 322      3D9D3E2F 
 322      8CFA7134 
 322      789C84BD 
 322      94FD2527 
 323 0249 A94F5DD5 		.ascii	"\251O]\325\347\313H}>\262|}\374\2745x:2\223\177\325"
 323      E7CB487D 
 323      3EB27C7D 
 323      FCBC3578 
 323      3A32937F 
 324 025e 4C1AA932 		.ascii	"L\032\25129\332\315\344y\022\366\352!\223\206\232\311"
 324      39DACDE4 
 324      7912F6EA 
 324      2193869A 
 324      C9
 325 026f D791995C 		.ascii	"\327\221\231\\\266z\255\364wi*\035\274\033Q\205\337"
 325      B67AADF4 
 325      77692A1D 
 325      BC1B5185 
 325      DF
 326 0280 9DAEF0CD 		.ascii	"\235\256\360\315^\013\377\"\011{E\311%\274f\331E\276"
ARM GAS  /tmp/cc70fhEt.s 			page 25


 326      5E0BFF22 
 326      097B45C9 
 326      25BC66D9 
 326      45BE
 327 0292 9D0CEEF4 		.ascii	"\235\014\356\364\022I\014e\304K\334T%\376!R\342\271"
 327      12490C65 
 327      C44BDC54 
 327      25FE2152 
 327      E2B9
 328 02a4 73F270F2 		.ascii	"s\362p\362\017\035\015f\310z\347\302!a\321\352\365`"
 328      0F1D0D66 
 328      C87AE7C2 
 328      2161D1EA 
 328      F560
 329 02b6 38B28E5B 		.ascii	"8\262\216[\322\311\320R\223Y\216Lf\371\334\367\004\203"
 329      D2C9D052 
 329      93598E4C 
 329      66F9DCF7 
 329      0483
 330 02c8 DEF2BC57 		.ascii	"\336\362\274Wp\245@\372O\350eu\331T\327? \346\242\205"
 330      70A540FA 
 330      4FE86575 
 330      D954D73F 
 330      20E6A285 
 331 02dc FAAFF3A1 		.ascii	"\372\257\363\241\241\344\003\261PV\2223\226n\265\356"
 331      A1E403B1 
 331      50569233 
 331      966EB5EE 
 332 02ec 425910C4 		.ascii	"BY\020\304+)7V\370\003\025\027L\346\371k\244l\207\277"
 332      2B293756 
 332      F8031517 
 332      4CE6F96B 
 332      A46C87BF 
 333 0300 95D70ED6 		.ascii	"\225\327\016\326\313\265\343\3674\232%o\265\023\321"
 333      CBB5E3F7 
 333      349A256F 
 333      B513D1
 334 030f 127AAA84 		.ascii	"\022z\252\204\253\251$<\335\221\220\222+\252[\302f\373"
 334      ABA9243C 
 334      DD919092 
 334      2BAA5BC2 
 334      66FB
 335 0321 39D86C9F 		.ascii	"9\330l\237\213\351\304\0073\342u\217s\222Z]\013\353"
 335      8BE9C407 
 335      33E2758F 
 335      73925A5D 
 335      0BEB
 336 0333 2E2F5A6C 		.ascii	"./Zl\206\335\377~\367V6\322q\344\266\342V6\333>r\350"
 336      86DDFF7E 
 336      F75636D2 
 336      71E4B6E2 
 336      5636DB3E 
 337 0349 B307B02A 		.ascii	"\263\007\260*\224\\\027K\343\252\"Xz\2423o,>*\210n\012"
 337      945C174B 
 337      E3AA2258 
 337      7AA2336F 
 337      2C3E2A88 
ARM GAS  /tmp/cc70fhEt.s 			page 26


 338 035f A2AA1626 		.ascii	"\242\252\026&\242D7\303;L7\003\003\316\246\233\335\216"
 338      A24437C3 
 338      3B4C3703 
 338      03CEA69B 
 338      DD8E
 339 0371 E7E9D0A3 		.ascii	"\347\351\320\243q_\245\354:\023y0\362S\324\351\253<"
 339      715FA5EC 
 339      3A137930 
 339      F253D4E9 
 339      AB3C
 340 0383 EB3A3B2C 		.ascii	"\353:;,\373\316'w\356\3328\011:\376%\206&K\373\215\202"
 340      FBCE2777 
 340      EEDA3809 
 340      3AFE2586 
 340      264BFB8D 
 341 0398 5576F5B2 		.ascii	"Uv\365\262\223\037\342\003\217\225J\226]\230\344.\264"
 341      931FE203 
 341      8F954A96 
 341      5D98E42E 
 341      B4
 342 03a9 54E2CF61 		.ascii	"T\342\317a>\374\214c\005\343%\307\342Oa\376\224]\266"
 342      3EFC8C63 
 342      05E325C7 
 342      E24F61FE 
 342      945DB6
 343 03bc 1C97BFDE 		.ascii	"\034\227\277\336Q\024\203E1\260c:O\335\342\264\355\307"
 343      51148345 
 343      31B0633A 
 343      4FDDE2B4 
 343      EDC7
 344 03ce A0AE81F1 		.ascii	"\240\256\201\361\266\362\237\007\007\371\310\023E\237"
 344      B6F29F07 
 344      07F9C813 
 344      459F
 345 03dc CAD8839D 		.ascii	"\312\330\203\235\273\326\216\354\314 \201K\355\274\265"
 345      BBD68EEC 
 345      CC20814B 
 345      EDBCB5
 346 03eb 295B293B 		.ascii	")[);Y\352\354\333bO\333\326\026\213\356.f\213v~o\245"
 346      59EAECDB 
 346      624FDBD6 
 346      168BEE2E 
 346      668B767E 
 347 0401 6065CB6E 		.ascii	"`e\313n\241h\273\023S\220\251\340s\353#9\367\341\004"
 347      A168BB13 
 347      5390A9E0 
 347      73EB2339 
 347      F7E104
 348 0414 EB7D343F 		.ascii	"\353}4?U\264\255l\256`\355\241\225\275n\316\335_\262"
 348      55B4AD6C 
 348      AE60EDA1 
 348      95BD6ECE 
 348      DD5FB2
 349 0427 CAE8DD9F 		.ascii	"\312\350\335\237\313u\374\377\007\272B\220\316"
 349      CB75FCFF 
 349      07BA4290 
 349      CE
ARM GAS  /tmp/cc70fhEt.s 			page 27


 350              		.text
 351              		.section	.gnu.lto_.symtab.21fd17d72e7038aa,"",%progbits
 352 0000 75537472 		.ascii	"uStrLen\000\000\000\000\000\000\000\000\000\000\000"
 352      4C656E00 
 352      00000000 
 352      00000000 
 352      0000
 353 0012 00A10000 		.ascii	"\000\241\000\000\000uStrCpy\000\000\000\000\000\000"
 353      00755374 
 353      72437079 
 353      00000000 
 353      0000
 354 0024 00000000 		.ascii	"\000\000\000\000\000\000\256\000\000\000uStrAppendC"
 354      0000AE00 
 354      00007553 
 354      74724170 
 354      70656E64 
 355 0039 68617200 		.ascii	"har\000\000\000\000\000\000\000\000\000\000\000\000"
 355      00000000 
 355      00000000 
 355      000000
 356 0048 B9000000 		.ascii	"\271\000\000\000uStrPrependChar\000\000\000\000\000"
 356      75537472 
 356      50726570 
 356      656E6443 
 356      68617200 
 357 0060 00000000 		.ascii	"\000\000\000\000\000\000\000\302\000\000\000uStrIns"
 357      000000C2 
 357      00000075 
 357      53747249 
 357      6E73
 358 0072 65727443 		.ascii	"ertChar\000\000\000\000\000\000\000\000\000\000\000"
 358      68617200 
 358      00000000 
 358      00000000 
 358      0000
 359 0084 00C80000 		.ascii	"\000\310\000\000\000uStrCat\000\000\000\000\000\000"
 359      00755374 
 359      72436174 
 359      00000000 
 359      0000
 360 0096 00000000 		.ascii	"\000\000\000\000\000\000\324\000\000\000uStrFindCha"
 360      0000D400 
 360      00007553 
 360      74724669 
 360      6E644368 
 361 00ab 72000000 		.ascii	"r\000\000\000\000\000\000\000\000\000\000\000\000\333"
 361      00000000 
 361      00000000 
 361      00DB
 362 00b9 00000075 		.ascii	"\000\000\000uStrFindCharN\000\000\000\000\000\000\000"
 362      53747246 
 362      696E6443 
 362      6861724E 
 362      00000000 
 363 00d0 00000000 		.ascii	"\000\000\000\000\000\344\000\000\000"
 363      00E40000 
ARM GAS  /tmp/cc70fhEt.s 			page 28


 363      00
 364              		.text
 365              		.section	.gnu.lto_.opts,"",%progbits
 366 0000 272D6D63 		.ascii	"'-mcpu=cortex-m4' '-mfloat-abi=hard' '-mfpu=fpv4-sp"
 366      70753D63 
 366      6F727465 
 366      782D6D34 
 366      2720272D 
 367 0033 2D643136 		.ascii	"-d16' '-mno-thumb-interwork' '-mthumb' '-O2' '-fomi"
 367      2720272D 
 367      6D6E6F2D 
 367      7468756D 
 367      622D696E 
 368 0066 742D6672 		.ascii	"t-frame-pointer' '-falign-functions=16' '-ffunction"
 368      616D652D 
 368      706F696E 
 368      74657227 
 368      20272D66 
 369 0099 2D736563 		.ascii	"-sections' '-fdata-sections' '-fno-common' '-flto' "
 369      74696F6E 
 369      73272027 
 369      2D666461 
 369      74612D73 
 370 00cc 272D6673 		.ascii	"'-fsingle-precision-constant'\000"
 370      696E676C 
 370      652D7072 
 370      65636973 
 370      696F6E2D 
 371              		.text
 372              		.section	.text.uStrLen,"ax",%progbits
 373              		.align	2
 374              		.p2align 4,,15
 375              		.global	uStrLen
 376              		.thumb
 377              		.thumb_func
 378              		.type	uStrLen, %function
 379              	uStrLen:
 380              		@ args = 0, pretend = 0, frame = 0
 381              		@ frame_needed = 0, uses_anonymous_args = 0
 382              		@ link register save eliminated.
 383 0000 0378     		ldrb	r3, [r0]	@ zero_extendqisi2
 384 0002 3BB1     		cbz	r3, .L4
 385 0004 0346     		mov	r3, r0
 386 0006 0020     		movs	r0, #0
 387              	.L3:
 388 0008 13F8012F 		ldrb	r2, [r3, #1]!	@ zero_extendqisi2
 389 000c 0130     		adds	r0, r0, #1
 390 000e 002A     		cmp	r2, #0
 391 0010 FAD1     		bne	.L3
 392 0012 7047     		bx	lr
 393              	.L4:
 394 0014 1846     		mov	r0, r3
 395 0016 7047     		bx	lr
 396              		.size	uStrLen, .-uStrLen
 397 0018 AFF30080 		.section	.text.uStrCpy,"ax",%progbits
 397      AFF30080 
 398              		.align	2
ARM GAS  /tmp/cc70fhEt.s 			page 29


 399              		.p2align 4,,15
 400              		.global	uStrCpy
 401              		.thumb
 402              		.thumb_func
 403              		.type	uStrCpy, %function
 404              	uStrCpy:
 405              		@ args = 0, pretend = 0, frame = 0
 406              		@ frame_needed = 0, uses_anonymous_args = 0
 407              		@ link register save eliminated.
 408 0000 0A78     		ldrb	r2, [r1]	@ zero_extendqisi2
 409 0002 10B4     		push	{r4}
 410 0004 32B1     		cbz	r2, .L12
 411 0006 0B46     		mov	r3, r1
 412 0008 0022     		movs	r2, #0
 413              	.L13:
 414 000a 13F8014F 		ldrb	r4, [r3, #1]!	@ zero_extendqisi2
 415 000e 0132     		adds	r2, r2, #1
 416 0010 002C     		cmp	r4, #0
 417 0012 FAD1     		bne	.L13
 418              	.L12:
 419 0014 0023     		movs	r3, #0
 420              	.L11:
 421 0016 CC5C     		ldrb	r4, [r1, r3]	@ zero_extendqisi2
 422 0018 C454     		strb	r4, [r0, r3]
 423 001a 0133     		adds	r3, r3, #1
 424 001c 9BB2     		uxth	r3, r3
 425 001e 9A42     		cmp	r2, r3
 426 0020 F9DA     		bge	.L11
 427 0022 5DF8044B 		ldr	r4, [sp], #4
 428 0026 7047     		bx	lr
 429              		.size	uStrCpy, .-uStrCpy
 430 0028 AFF30080 		.section	.text.uStrAppendChar,"ax",%progbits
 430      AFF30080 
 431              		.align	2
 432              		.p2align 4,,15
 433              		.global	uStrAppendChar
 434              		.thumb
 435              		.thumb_func
 436              		.type	uStrAppendChar, %function
 437              	uStrAppendChar:
 438              		@ args = 0, pretend = 0, frame = 0
 439              		@ frame_needed = 0, uses_anonymous_args = 0
 440              		@ link register save eliminated.
 441 0000 0378     		ldrb	r3, [r0]	@ zero_extendqisi2
 442 0002 30B4     		push	{r4, r5}
 443 0004 6BB1     		cbz	r3, .L22
 444 0006 441C     		adds	r4, r0, #1
 445 0008 0022     		movs	r2, #0
 446              	.L21:
 447 000a 2578     		ldrb	r5, [r4]	@ zero_extendqisi2
 448 000c 2346     		mov	r3, r4
 449 000e 0132     		adds	r2, r2, #1
 450 0010 0134     		adds	r4, r4, #1
 451 0012 002D     		cmp	r5, #0
 452 0014 F9D1     		bne	.L21
 453 0016 0132     		adds	r2, r2, #1
 454              	.L19:
ARM GAS  /tmp/cc70fhEt.s 			page 30


 455 0018 0024     		movs	r4, #0
 456 001a 1970     		strb	r1, [r3]
 457 001c 8454     		strb	r4, [r0, r2]
 458 001e 30BC     		pop	{r4, r5}
 459 0020 7047     		bx	lr
 460              	.L22:
 461 0022 0346     		mov	r3, r0
 462 0024 0122     		movs	r2, #1
 463 0026 F7E7     		b	.L19
 464              		.size	uStrAppendChar, .-uStrAppendChar
 465 0028 AFF30080 		.section	.text.uStrPrependChar,"ax",%progbits
 465      AFF30080 
 466              		.align	2
 467              		.p2align 4,,15
 468              		.global	uStrPrependChar
 469              		.thumb
 470              		.thumb_func
 471              		.type	uStrPrependChar, %function
 472              	uStrPrependChar:
 473              		@ args = 0, pretend = 0, frame = 0
 474              		@ frame_needed = 0, uses_anonymous_args = 0
 475              		@ link register save eliminated.
 476 0000 0378     		ldrb	r3, [r0]	@ zero_extendqisi2
 477 0002 10B4     		push	{r4}
 478 0004 93B1     		cbz	r3, .L29
 479 0006 0246     		mov	r2, r0
 480 0008 0023     		movs	r3, #0
 481              	.L26:
 482 000a 12F8014F 		ldrb	r4, [r2, #1]!	@ zero_extendqisi2
 483 000e 0133     		adds	r3, r3, #1
 484 0010 002C     		cmp	r4, #0
 485 0012 FAD1     		bne	.L26
 486 0014 0133     		adds	r3, r3, #1
 487              	.L24:
 488 0016 C218     		adds	r2, r0, r3
 489              	.L28:
 490 0018 12F8014C 		ldrb	r4, [r2, #-1]	@ zero_extendqisi2
 491 001c 02F80149 		strb	r4, [r2], #-1
 492 0020 013B     		subs	r3, r3, #1
 493 0022 F9D1     		bne	.L28
 494 0024 0170     		strb	r1, [r0]
 495 0026 5DF8044B 		ldr	r4, [sp], #4
 496 002a 7047     		bx	lr
 497              	.L29:
 498 002c 0123     		movs	r3, #1
 499 002e F2E7     		b	.L24
 500              		.size	uStrPrependChar, .-uStrPrependChar
 501              		.section	.text.uStrInsertChar,"ax",%progbits
 502              		.align	2
 503              		.p2align 4,,15
 504              		.global	uStrInsertChar
 505              		.thumb
 506              		.thumb_func
 507              		.type	uStrInsertChar, %function
 508              	uStrInsertChar:
 509              		@ args = 0, pretend = 0, frame = 0
 510              		@ frame_needed = 0, uses_anonymous_args = 0
ARM GAS  /tmp/cc70fhEt.s 			page 31


 511              		@ link register save eliminated.
 512 0000 0378     		ldrb	r3, [r0]	@ zero_extendqisi2
 513 0002 30B4     		push	{r4, r5}
 514 0004 A3B1     		cbz	r3, .L38
 515 0006 0446     		mov	r4, r0
 516 0008 0023     		movs	r3, #0
 517              	.L34:
 518 000a 14F8015F 		ldrb	r5, [r4, #1]!	@ zero_extendqisi2
 519 000e 0133     		adds	r3, r3, #1
 520 0010 002D     		cmp	r5, #0
 521 0012 FAD1     		bne	.L34
 522 0014 0133     		adds	r3, r3, #1
 523              	.L32:
 524 0016 9A42     		cmp	r2, r3
 525 0018 07DA     		bge	.L36
 526 001a 0344     		add	r3, r3, r0
 527 001c 8518     		adds	r5, r0, r2
 528              	.L37:
 529 001e 13F8014C 		ldrb	r4, [r3, #-1]	@ zero_extendqisi2
 530 0022 03F80149 		strb	r4, [r3], #-1
 531 0026 AB42     		cmp	r3, r5
 532 0028 F9D1     		bne	.L37
 533              	.L36:
 534 002a 8154     		strb	r1, [r0, r2]
 535 002c 30BC     		pop	{r4, r5}
 536 002e 7047     		bx	lr
 537              	.L38:
 538 0030 0123     		movs	r3, #1
 539 0032 F0E7     		b	.L32
 540              		.size	uStrInsertChar, .-uStrInsertChar
 541 0034 AFF30080 		.section	.text.uStrCat,"ax",%progbits
 541      AFF30080 
 541      AFF30080 
 542              		.align	2
 543              		.p2align 4,,15
 544              		.global	uStrCat
 545              		.thumb
 546              		.thumb_func
 547              		.type	uStrCat, %function
 548              	uStrCat:
 549              		@ args = 0, pretend = 0, frame = 0
 550              		@ frame_needed = 0, uses_anonymous_args = 0
 551              		@ link register save eliminated.
 552 0000 30B4     		push	{r4, r5}
 553 0002 0378     		ldrb	r3, [r0]	@ zero_extendqisi2
 554 0004 33B1     		cbz	r3, .L42
 555 0006 0246     		mov	r2, r0
 556 0008 0023     		movs	r3, #0
 557              	.L43:
 558 000a 12F8014F 		ldrb	r4, [r2, #1]!	@ zero_extendqisi2
 559 000e 0133     		adds	r3, r3, #1
 560 0010 002C     		cmp	r4, #0
 561 0012 FAD1     		bne	.L43
 562              	.L42:
 563 0014 0A78     		ldrb	r2, [r1]	@ zero_extendqisi2
 564 0016 32B1     		cbz	r2, .L44
 565 0018 0C46     		mov	r4, r1
ARM GAS  /tmp/cc70fhEt.s 			page 32


 566 001a 0022     		movs	r2, #0
 567              	.L45:
 568 001c 14F8015F 		ldrb	r5, [r4, #1]!	@ zero_extendqisi2
 569 0020 0132     		adds	r2, r2, #1
 570 0022 002D     		cmp	r5, #0
 571 0024 FAD1     		bne	.L45
 572              	.L44:
 573 0026 1844     		add	r0, r0, r3
 574 0028 0023     		movs	r3, #0
 575              	.L47:
 576 002a CC5C     		ldrb	r4, [r1, r3]	@ zero_extendqisi2
 577 002c C454     		strb	r4, [r0, r3]
 578 002e 0133     		adds	r3, r3, #1
 579 0030 9342     		cmp	r3, r2
 580 0032 FADD     		ble	.L47
 581 0034 30BC     		pop	{r4, r5}
 582 0036 7047     		bx	lr
 583              		.size	uStrCat, .-uStrCat
 584 0038 AFF30080 		.section	.text.uStrFindChar,"ax",%progbits
 584      AFF30080 
 585              		.align	2
 586              		.p2align 4,,15
 587              		.global	uStrFindChar
 588              		.thumb
 589              		.thumb_func
 590              		.type	uStrFindChar, %function
 591              	uStrFindChar:
 592              		@ args = 0, pretend = 0, frame = 0
 593              		@ frame_needed = 0, uses_anonymous_args = 0
 594              		@ link register save eliminated.
 595 0000 0378     		ldrb	r3, [r0]	@ zero_extendqisi2
 596 0002 53B1     		cbz	r3, .L60
 597 0004 8B42     		cmp	r3, r1
 598 0006 0DD0     		beq	.L61
 599 0008 0022     		movs	r2, #0
 600 000a 01E0     		b	.L58
 601              	.L59:
 602 000c 8B42     		cmp	r3, r1
 603 000e 07D0     		beq	.L62
 604              	.L58:
 605 0010 10F8013F 		ldrb	r3, [r0, #1]!	@ zero_extendqisi2
 606 0014 0132     		adds	r2, r2, #1
 607 0016 002B     		cmp	r3, #0
 608 0018 F8D1     		bne	.L59
 609              	.L60:
 610 001a 4FF0FF30 		mov	r0, #-1
 611 001e 7047     		bx	lr
 612              	.L62:
 613 0020 1046     		mov	r0, r2
 614 0022 7047     		bx	lr
 615              	.L61:
 616 0024 0020     		movs	r0, #0
 617 0026 7047     		bx	lr
 618              		.size	uStrFindChar, .-uStrFindChar
 619 0028 AFF30080 		.section	.text.uStrFindCharN,"ax",%progbits
 619      AFF30080 
 620              		.align	2
ARM GAS  /tmp/cc70fhEt.s 			page 33


 621              		.p2align 4,,15
 622              		.global	uStrFindCharN
 623              		.thumb
 624              		.thumb_func
 625              		.type	uStrFindCharN, %function
 626              	uStrFindCharN:
 627              		@ args = 0, pretend = 0, frame = 0
 628              		@ frame_needed = 0, uses_anonymous_args = 0
 629              		@ link register save eliminated.
 630 0000 30B4     		push	{r4, r5}
 631 0002 0378     		ldrb	r3, [r0]	@ zero_extendqisi2
 632 0004 73B1     		cbz	r3, .L69
 633 0006 0025     		movs	r5, #0
 634 0008 2C46     		mov	r4, r5
 635 000a 03E0     		b	.L66
 636              	.L70:
 637 000c 10F8013F 		ldrb	r3, [r0, #1]!	@ zero_extendqisi2
 638 0010 0134     		adds	r4, r4, #1
 639 0012 3BB1     		cbz	r3, .L69
 640              	.L66:
 641 0014 8B42     		cmp	r3, r1
 642 0016 08BF     		it	eq
 643 0018 0135     		addeq	r5, r5, #1
 644 001a 9542     		cmp	r5, r2
 645 001c F6D1     		bne	.L70
 646 001e 2046     		mov	r0, r4
 647 0020 30BC     		pop	{r4, r5}
 648 0022 7047     		bx	lr
 649              	.L69:
 650 0024 4FF0FF30 		mov	r0, #-1
 651 0028 30BC     		pop	{r4, r5}
 652 002a 7047     		bx	lr
 653              		.size	uStrFindCharN, .-uStrFindCharN
 654              		.comm	__gnu_lto_v1,1,1
 655 002c AFF30080 		.ident	"GCC: (GNU Tools for ARM Embedded Processors) 4.8.4 20140526 (release) [ARM/embedded-4_8-br
ARM GAS  /tmp/cc70fhEt.s 			page 34


DEFINED SYMBOLS
                            *ABS*:0000000000000000 ustr.c
     /tmp/cc70fhEt.s:373    .text.uStrLen:0000000000000000 $t
     /tmp/cc70fhEt.s:379    .text.uStrLen:0000000000000000 uStrLen
     /tmp/cc70fhEt.s:398    .text.uStrCpy:0000000000000000 $t
     /tmp/cc70fhEt.s:404    .text.uStrCpy:0000000000000000 uStrCpy
     /tmp/cc70fhEt.s:431    .text.uStrAppendChar:0000000000000000 $t
     /tmp/cc70fhEt.s:437    .text.uStrAppendChar:0000000000000000 uStrAppendChar
     /tmp/cc70fhEt.s:466    .text.uStrPrependChar:0000000000000000 $t
     /tmp/cc70fhEt.s:472    .text.uStrPrependChar:0000000000000000 uStrPrependChar
     /tmp/cc70fhEt.s:502    .text.uStrInsertChar:0000000000000000 $t
     /tmp/cc70fhEt.s:508    .text.uStrInsertChar:0000000000000000 uStrInsertChar
     /tmp/cc70fhEt.s:542    .text.uStrCat:0000000000000000 $t
     /tmp/cc70fhEt.s:548    .text.uStrCat:0000000000000000 uStrCat
     /tmp/cc70fhEt.s:585    .text.uStrFindChar:0000000000000000 $t
     /tmp/cc70fhEt.s:591    .text.uStrFindChar:0000000000000000 uStrFindChar
     /tmp/cc70fhEt.s:620    .text.uStrFindCharN:0000000000000000 $t
     /tmp/cc70fhEt.s:626    .text.uStrFindCharN:0000000000000000 uStrFindCharN
                            *COM*:0000000000000001 __gnu_lto_v1

NO UNDEFINED SYMBOLS
