ARM GAS  /tmp/ccHEGGeI.s 			page 1


   1              		.syntax unified
   2              		.cpu cortex-m4
   3              		.eabi_attribute 27, 3
   4              		.eabi_attribute 28, 1
   5              		.fpu fpv4-sp-d16
   6              		.eabi_attribute 20, 1
   7              		.eabi_attribute 21, 1
   8              		.eabi_attribute 23, 3
   9              		.eabi_attribute 24, 1
  10              		.eabi_attribute 25, 1
  11              		.eabi_attribute 26, 1
  12              		.eabi_attribute 30, 2
  13              		.eabi_attribute 34, 1
  14              		.eabi_attribute 18, 4
  15              		.thumb
  16              		.file	"ustr.c"
  17              		.section	.gnu.lto_.jmpfuncs.2ef6e9609b0f90b8,"",%progbits
  18 0000 789C6362 		.ascii	"x\234cb`b\300\0068\24043\003##3\0233\003\000\001\177"
  18      6062C006 
  18      38A03433 
  18      03232333 
  18      13330300 
  19 0016 001A     		.ascii	"\000\032"
  20              		.text
  21              		.section	.gnu.lto_.inline.2ef6e9609b0f90b8,"",%progbits
  22 0000 789C6362 		.ascii	"x\234cb`b\300\006\354\24143\003\003\207%#\003\023\327"
  22      6062C006 
  22      ECA13433 
  22      03038725 
  22      230313D7 
  23 0014 B62B6C0C 		.ascii	"\266+l\014l\013\344\301\252\031\031\370\033\031\201"
  23      6C0BE4C1 
  23      AA1919F8 
  23      1B1981
  24 0023 8212278E 		.ascii	"\202\022'\216\362\303\005\231\030xl\201bB\337&\261\303"
  24      F2C30599 
  24      18786C81 
  24      6242DF26 
  24      B1C3
  25 0035 C5180023 		.ascii	"\305\030\000#t\010\262"
  25      7408B2
  26              		.text
  27              		.section	.gnu.lto_.pureconst.2ef6e9609b0f90b8,"",%progbits
  28 0000 789C6362 		.ascii	"x\234cb`b`g\200\000f\006VF)&)\000\001b\000K"
  28      60626067 
  28      80006606 
  28      56462926 
  28      29000162 
  29              		.text
  30              		.section	.gnu.lto_uStrLen.2ef6e9609b0f90b8,"",%progbits
  31 0000 789C8552 		.ascii	"x\234\205R\273JCA\020=g\367\276\010\202\202\225]\310"
  31      BB4A4341 
  31      103D67F7 
  31      BE088282 
  31      955DC8
  32 0013 0704C1DA 		.ascii	"\007\004\301\332\277H@\313\020$\004T\360U\347\276\004"
  32      BF4840CB 
ARM GAS  /tmp/ccHEGGeI.s 			page 2


  32      10240454 
  32      F055E7BE 
  32      04
  33 0024 D12021A5 		.ascii	"\321 !\245i\014\222N\024[\253\330h\032\005;\355.X(("
  33      690C924E 
  33      145BABD8 
  33      681A053B 
  33      ED2E5828 
  34 0039 E20788D7 		.ascii	"\342\007\210\327\331\344&\242\215\003;3;sf\346\314\262"
  34      D9E426A2 
  34      8D033B33 
  34      3B7366E6 
  34      CCB2
  35 004b 0A0A7F65 		.ascii	"\012\012\177eQ\316\031\201Y\261t@\325\272\003\002O\321"
  35      51CE1981 
  35      59B17440 
  35      D5BA0302 
  35      4FD1
  36 005d 1A397AE4 		.ascii	"\0329z\344\\y\226\322\315\033\300\317\331\261\013\177"
  36      5C7996D2 
  36      CD1BC0CF 
  36      D9B10B7F 
  37 006d CA264D1C 		.ascii	"\312&M\034DCi\313fc\231\246\235*\240\353\373\355\244"
  37      444369CB 
  37      666399A6 
  37      9D2AA0EB 
  37      FBEDA4
  38 0080 777D38B7 		.ascii	"w}8\267\177\034\266\374\2574e\23528GT\211%\2710?4\260"
  38      7F1CB6FC 
  38      AF34659D 
  38      32384754 
  38      8925B930 
  39 0097 7E331956 		.ascii	"~3\031V\266\372\027\311\200~\333\017>\322t\272N\245"
  39      B6FA17C9 
  39      807EDB0F 
  39      3ED274BA 
  39      4EA5
  40 00a9 30F35FE1 		.ascii	"0\363_\341\271\352'i\372\031nxD\205',\310\264\012\273"
  40      B9EA2769 
  40      FA196E78 
  40      4485272C 
  40      C8B40ABB 
  41 00bd 6235D70C 		.ascii	"b5\327\014\272N\355\210\262\334,-b#\226a\371\361\275"
  41      BA4EED88 
  41      B2DC2C2D 
  41      62239661 
  41      F9F1BD
  42 00d0 3A245F12 		.ascii	":$_\022-\313\225\250\304\35025dc}\213h/z}`\205=\332"
  42      2DCB95A8 
  42      C4E83235 
  42      64637D8B 
  42      682F7A7D 
  43 00e8 A8D1AD91 		.ascii	"\250\321\255\221\206\206b6\277L\013\362\026\002\014"
  43      86866236 
  43      BF4C0BF2 
  43      16020C
  44 00f7 DFA3E797 		.ascii	"\337\243\347\227\011P\011\020\220\362\003=\016Y5jI\230"
ARM GAS  /tmp/ccHEGGeI.s 			page 3


  44      09500910 
  44      90F2033D 
  44      0E59356A 
  44      4998
  45 0109 6878B97B 		.ascii	"hx\271{6\201:\035\034IKI[\246\265\316:\017\020\277\005"
  45      36813A1D 
  45      1C494B49 
  45      5BA6B5CE 
  45      3A0F10BF 
  46 011e 0B139049 		.ascii	"\013\023\220I\331?{?b\304C^\275\0319BL\237>9\206\216"
  46      D93F7B3F 
  46      62C4435E 
  46      BD193942 
  46      4C9F3E39 
  47 0134 6DE8DF23 		.ascii	"m\350\337#H:\336\2706\343Z\022'v\315/pw\266\2667\213"
  47      483ADEB8 
  47      36E35A12 
  47      2776CD2F 
  47      7077B6B6 
  48 014a 55D8AB2B 		.ascii	"U\330\253+\353\305y-\372\033\265_i\306"
  48      EBC5792D 
  48      FA1BB55F 
  48      69C6
  49              		.text
  50              		.section	.gnu.lto_uStrCpy.2ef6e9609b0f90b8,"",%progbits
  51 0000 789C8552 		.ascii	"x\234\205RMk\024A\020\255\327=\3353\233]w'\211\036\004"
  51      4D6B1441 
  51      10ADD73D 
  51      DD339B5D 
  51      7727891E 
  52 0015 0F213F20 		.ascii	"\017!? (\376\013\317\011\350\315\020dXP\017~\\M\317"
  52      28FE0BCF 
  52      09E8CD10 
  52      6458500F 
  52      7E5C4DCF 
  53 0029 CE0A41F7 		.ascii	"\316\012A\367\260\344\250\027\027\011\212\004=x\360"
  53      B0E4A817 
  53      17098A04 
  53      3D78F0
  54 0038 E3E2E664 		.ascii	"\343\342\346d\024\224\010\036\334\333\202\370\001\212"
  54      1494081E 
  54      DCDB82F8 
  54      018A
  55 0046 78F0E0C9 		.ascii	"x\360\340\311\261\272{>\242\010\016LU\317\253W\335\257"
  55      B1BA7B3E 
  55      A2080E4C 
  55      55CFAB57 
  55      DDAF
  56 0058 5E8F2041 		.ascii	"^\217 A\177?\247\371=!\211\016qF\203 \206\257\211\322"
  56      7F3FA7F9 
  56      3D21890E 
  56      71468320 
  56      86AF89D2 
  57 006c 4820F00B 		.ascii	"H \360\013\351\027;Q \344\3409\221\231\321\375\220L"
  57      E9173B51 
  57      20E4E039 
  57      9199D1FD 
ARM GAS  /tmp/ccHEGGeI.s 			page 4


  57      904C
  58 007e 4B23B238 		.ascii	"K#\2628\224\317;Q$\224\257\207\256\036\002\026'\320"
  58      94CF3B51 
  58      2494AF87 
  58      AE1E0216 
  58      27D0
  59 0090 BA908156 		.ascii	"\272\220\201VQ\210\365S\260'\312E\032\0313\234~x98l"
  59      5188F553 
  59      B027CA45 
  59      1A19339C 
  59      7E783938 
  60 00a5 6EF586E6 		.ascii	"n\365\206\346W\236\243\013\3266\003Z\003\235\344\017"
  60      579EA30B 
  60      D636035A 
  60      039DE40F 
  61 00b5 2CB82482 		.ascii	",\270$\202?\305\272\316\315\361\344\347\030\346\232"
  61      3FC5BACE 
  61      CDF1E4E7 
  61      18E69A
  62 00c4 49BFE779 		.ascii	"I\277\347y\247\013)\250]7\306\276Q\374\263\361\341\217"
  62      A70B29A8 
  62      5D37C6BE 
  62      51FCB3F1 
  62      E18F
  63 00d6 DD11CC66 		.ascii	"\335\021\314f\331\311\254\370\177G>\020\343i\236oo\355"
  63      D9C9ACF8 
  63      7F473E10 
  63      E3699E6F 
  63      6FED
  64 00e8 1D39085A 		.ascii	"\0359\010Z\305m,R\200s U|hb\351!\007\0211\314\016v\021"
  64      C56D2C52 
  64      80732055 
  64      7C6862E9 
  64      21071131 
  65 0100 346D6871 		.ascii	"4mhqP\355\202\325\341<\342\034\027y\226\363\026\347"
  65      50ED82D5 
  65      E13CE21C 
  65      177996F3 
  65      16E7
  66 0112 39CB9CB7 		.ascii	"9\313\234\267L>JQ\237}Y\360\014\337GV\035?\313\034\331"
  66      4C3E4A51 
  66      9F7D59F0 
  66      0CDF4756 
  66      1D3FCB1C 
  67 0127 D665084E 		.ascii	"\326e\010Nr\005\222\330k\371\212\262\215\354\313;\024"
  67      720592D8 
  67      6BF98AB2 
  67      8DECCB3B 
  67      14
  68 0138 8DC44D77 		.ascii	"\215\304Mw\334N\224 N\320\261\363\020\212AV\020\020"
  68      DC4E9420 
  68      4ED0B1F3 
  68      108A4156 
  68      1010
  69 014a DF0837F5 		.ascii	"\337\0107\365\276e\237>c\025w\231\233`\226\211D\274"
  69      BE659F3E 
  69      63157799 
ARM GAS  /tmp/ccHEGGeI.s 			page 5


  69      9B609689 
  69      44BC
  70 015c D5755942 		.ascii	"\325uYBs\011\002.X\264\367\364\352\375\212:\177\223"
  70      7309022E 
  70      58B4F7F4 
  70      EAFD8A3A 
  70      7F93
  71 016e 6EA4C6C4 		.ascii	"n\244\306\304,\227Iv\367\322\254]\352\177M\217W<[\322"
  71      2C974976 
  71      F7D2AC5D 
  71      EA7F4D8F 
  71      573C5BD2 
  72 0182 B58713F2 		.ascii	"\265\207\023\362R\210\304 \323\254Mn\277\327V\221\266"
  72      5288C420 
  72      D3AC4D6E 
  72      BFD75691 
  72      B6
  73 0193 D3D8BAB2 		.ascii	"\323\330\272\262u^\005o\225\305U1\036+}v\314\017\225"
  73      755E056F 
  73      95C55531 
  73      1E2B7D76 
  73      CC0F95
  74 01a6 204C804A 		.ascii	" L\200J\250\207\032\011\".x4\273R\302M\247?\364\372"
  74      A8871A09 
  74      222E7834 
  74      BB52C24D 
  74      A73FF4FA 
  75 01ba 5589B658 		.ascii	"U\211\266X=\234\364\346~\351\314y\261\247=\311\317g"
  75      3D9CF4E6 
  75      7EE9CC79 
  75      B1A73DC9 
  75      CF67
  76 01cc 0E3856A3 		.ascii	"\0168V\243fq\263;c#{4\251\016o\263\036'\273v8\262\016"
  76      6671B33B 
  76      63237B34 
  76      A90E6FB3 
  76      1E27BB76 
  77 01e3 C3E9BE87 		.ascii	"\303\351\276\207\222\247\235nv\350c\332\334\207ujw\220"
  77      92A79D6E 
  77      76E863DA 
  77      DC87756A 
  77      7790
  78 01f5 40690E6D 		.ascii	"@i\016m\3658\264\333\204\326\2267\224N\237\210\352F"
  78      F538B4DB 
  78      84D69637 
  78      944E9F88 
  78      EA46
  79 0207 C9FF06E0 		.ascii	"\311\377\006\340\222\375\267\303\313\027/]XZ#y\366\314"
  79      92FDB7C3 
  79      CB172F5D 
  79      585A2379 
  79      F6CC
  80 0219 797415C7 		.ascii	"yt\025\307\245\243\277\001Y:\303\352"
  80      A5A3BF01 
  80      593AC3EA 
  81              		.text
  82              		.section	.gnu.lto_uStrAppendChar.2ef6e9609b0f90b8,"",%progbits
ARM GAS  /tmp/ccHEGGeI.s 			page 6


  83 0000 789C8552 		.ascii	"x\234\205R=K\003A\020\235\331\315\236\311%\032\301\312"
  83      3D4B0341 
  83      109DD9CD 
  83      9EC9251A 
  83      C1CA
  84 0012 2E046C45 		.ascii	".\004lE\260\366_\030\3212\0049\004\265\360\243\316^"
  84      B0F65F18 
  84      D1320439 
  84      04B5F0A3 
  84      CE5E
  85 0024 12413045 		.ascii	"\022A0EH\251\215AT\004Q\301F\254\264R\010\212\246\322"
  85      48A98D41 
  85      540451C1 
  85      46ACB452 
  85      088AA6D2 
  86 0038 2E60A1A0 		.ascii	".`\241\240\210\205\245x\276\275=#\006\301\205\235\331"
  86      8885A578 
  86      BEBD3D23 
  86      06C1859D 
  86      D9
  87 0049 9B7DF3E6 		.ascii	"\233}\363\346\315\354\011\022\324\275\306\260'\020\036"
  87      CDEC0912 
  87      D4BDC6B0 
  87      27101E
  88 0058 80678758 		.ascii	"\200g\207X\324\256\211\374\270\340\230=H{8\217\307\204"
  88      D4AE89FC 
  88      B8E0983D 
  88      487B388F 
  88      C784
  89 006a AC5E1069 		.ascii	"\254^\020iWUzH\247\024\263\211\023SQ\310\230\342\342"
  89      57557A48 
  89      A714B389 
  89      135351C8 
  89      98E2E2
  90 007d 141B3A91 		.ascii	"\024\033:\221\245\206\326\265\366J\253:\2507K5\375\031"
  90      A586D6B5 
  90      F64AAB3A 
  90      A8374B35 
  90      FD19
  91 008f 043CC328 		.ascii	"\004<\303(\3542\025\230&\361\301\231\320\211\330o%a"
  91      EC321598 
  91      26F1C199 
  91      D089D86F 
  91      2561
  92 00a1 66FDECF8 		.ascii	"f\375\354\370\375\262\301\272\256\375\267 H\003%\250"
  92      FDB2C1BA 
  92      AEFDB720 
  92      480325A8 
  93 00b1 EFBFCC43 		.ascii	"\357\277\314Cq\326\016\202\217\335\233\241^\301sL\022"
  93      71D60E82 
  93      8FDD9BA1 
  93      5EC1734C 
  93      12
  94 00c2 861501E8 		.ascii	"\206\025\001\350\300\3108\345\271\301YJD\336\205\337"
  94      C0C838E5 
  94      B9C1594A 
  94      44DE85DF 
ARM GAS  /tmp/ccHEGGeI.s 			page 7


  95 00d2 824F9ACB 		.ascii	"\202O\232\313\024\214\241ST\201\356\214E\220)\2105\016"
  95      148CA153 
  95      5481EE8C 
  95      45902988 
  95      350E
  96 00e4 8B6EC759 		.ascii	"\213n\307Y\300\311\034K\302\010\344\025\225W\313\317"
  96      C0C91C4B 
  96      C208E415 
  96      9557CBCF 
  97 00f4 771CA510 		.ascii	"w\034\245\020\350\266\361\201\345q\302\343\270\221H"
  97      E8B6F181 
  97      E571C2E3 
  97      B89148
  98 0103 1C69CB81 		.ascii	"\034i\313\201\035\203BR\351\265\374\370\304y\336\001"
  98      1D834252 
  98      E9B5FCF8 
  98      C479DE01 
  99 0113 D6631740 		.ascii	"\326c\027@\"P\255\311\357P\322c\201\013\023-\235\256"
  99      2250ADC9 
  99      EF50D263 
  99      810B132D 
  99      9DAE
 100 0125 1C74A0A9 		.ascii	"\034t\240\251\015Z\367\265\356\207P\200\014\273\214"
 100      0D5AF7B5 
 100      EE875080 
 100      0CBB8C
 101 0134 C82FA9F2 		.ascii	"\310/\251\362\342\217vp\346J\375\214\345\236\254\024"
 101      E28F7670 
 101      E64AFD8C 
 101      E59EAC14 
 102 0144 BC4AB5EC 		.ascii	"\274J\265\354@\233\334\177p\214\"e\272A\221\346I+m\265"
 102      409BDC7F 
 102      708C2265 
 102      BA4191E6 
 102      492B6DB5 
 103 0158 DB0A7AB4 		.ascii	"\333\012z\264\273\204g|\330\357\236\260H\217\0254\206"
 103      BB84677C 
 103      D8EF9EB0 
 103      488F1534 
 103      86
 104 0169 AF6098A3 		.ascii	"\257`\230\243\006\354\215\0236\240\302\006N\216\334"
 104      06EC8D13 
 104      36A0C206 
 104      4E8EDC
 105 0178 3FA89D1F 		.ascii	"?\250\235\037js\012\337\361\226\374vStfHv\360\014\215"
 105      6A730ADF 
 105      F196FC76 
 105      53746648 
 105      76F00C8D 
 106 018c E66FED59 		.ascii	"\346o\355Y^\\Z\030.\220\234\235\236W\330\303#_;W\215"
 106      5E5C5A18 
 106      2E909C9D 
 106      9E57D8C3 
 106      235F3B57 
 107 01a1 B5       		.ascii	"\265"
 108              		.text
 109              		.section	.gnu.lto_.symbol_nodes.2ef6e9609b0f90b8,"",%progbits
ARM GAS  /tmp/ccHEGGeI.s 			page 8


 110 0000 789C6362 		.ascii	"x\234cb`b\320a\200\002&\206z\006\206\011\347\030\030"
 110      6062D061 
 110      80022686 
 110      7A068609 
 110      E71818
 111 0013 EAEBE775 		.ascii	"\352\353\347u021\3263\"\361\230\352\231\020<\006\000"
 111      303231D6 
 111      3322F198 
 111      EA99103C 
 111      0600
 112 0025 0A070C43 		.ascii	"\012\007\014C"
 113              		.text
 114              		.section	.gnu.lto_.refs.2ef6e9609b0f90b8,"",%progbits
 115 0000 789C6362 		.ascii	"x\234cb`b`d\200\002\000\000F\000\006"
 115      60626064 
 115      80020000 
 115      460006
 116              		.text
 117              		.section	.gnu.lto_.decls.2ef6e9609b0f90b8,"",%progbits
 118 0000 789C9553 		.ascii	"x\234\225S\317k\023A\024~o74I\023\322\\,9\231\"U$\330"
 118      CF6B1341 
 118      147E6F37 
 118      344913D2 
 118      5C2C3999 
 119 0018 86A2085E 		.ascii	"\206\242\010^\012\232\203=\210\027)x\2210fW\022h\267"
 119      0A9A833D 
 119      88172978 
 119      91306657 
 119      1268B7
 120 002b 617773E8 		.ascii	"aws\350m\024\032E\020\242\340Qm5\301V\211\340/\"\250"
 120      6D141A45 
 120      10A2E051 
 120      6D35C156 
 120      89E02F22 
 121 0040 102842EF 		.ascii	"\020(B\357\"\352m\361/\250'/\205ufwv\343n7!>x\314\233"
 121      22EA6DF1 
 121      2FA8272F 
 121      85756677 
 121      76E36E37 
 122 0059 9DF77DEF 		.ascii	"\235\367}\357\275ov$\220\340\000\000lf\2731\200\036"
 122      BD6F7624 
 122      90E00000 
 122      6C66BB31 
 122      801E
 123 006b 8BD9028B 		.ascii	"\213\331\002\21300\231\371\026\363.\270\347a\343g\023"
 123      303099F9 
 123      16F32EB8 
 123      E761E367 
 123      13
 124 007c CCD3CC33 		.ascii	"\314\323\3143\002\337f\336a\216\"\007E\036__\204\360"
 124      02DF66DE 
 124      618E2207 
 124      451E5F5F 
 124      84F0
 125 008e 9C372E70 		.ascii	"\2347.p\031\301\323\037\302\301s%\346\357\230\277\011"
 125      19C1D31F 
 125      C2C17325 
ARM GAS  /tmp/ccHEGGeI.s 			page 9


 125      E6EF98BF 
 125      09
 126 009f F1F4441F 		.ascii	"\361\364D\037\377\362Dq\364\004\307'\346\237C\034yx"
 126      FFF24471 
 126      F404C727 
 126      E69F431C 
 126      7978
 127 00b1 4CAD7DEB 		.ascii	"L\255}\353\313\267t\353\246e\333O\37241\015\017)\263"
 127      CBB774EB 
 127      A665DB4F 
 127      FA34310D 
 127      0F29B3
 128 00c4 CD26A568 		.ascii	"\315&\245h\022\214%\341*\022\314$a\306\011\322I\247"
 128      128C25E1 
 128      2A12CC24 
 128      61C609D2 
 128      49A7
 129 00d6 2000C1A7 		.ascii	" \000\301\2478-\004\343\364\220\202\273\224\336\342"
 129      382D04E3 
 129      F49082BB 
 129      94DEE2
 130 00e5 C0A53D96 		.ascii	"\300\245=\226~\207o\254\016\315\345\300cHx\014\274\255"
 130      7E876FAC 
 130      0ECDE5C0 
 130      6348780C 
 130      BCAD
 131 00f7 E3D06665 		.ascii	"\343\320feZ\224J\004;\230d\034\223\010\221\346\236s"
 131      5A944A04 
 131      3B98641C 
 131      930891E6 
 131      9E73
 132 0109 E37037F6 		.ascii	"\343p7\366\"\033ah\177mL\015(\226e\237O\202)\204\002"
 132      221B6168 
 132      7F6D4C0D 
 132      2896659F 
 132      4F822984 
 133 011e ECB8E57F 		.ascii	"\354\270\345\177\245\340\260\315\3023J\037\320\357\312"
 133      A5E0B0CD 
 133      C2334A1F 
 133      D0EFCA
 134 012d 924B23C1 		.ascii	"\222K#\301Qd$[\230\217\254\346\327:\001\035.\336\313"
 134      5164245B 
 134      988FACE6 
 134      D73A011D 
 134      2EDECB
 135 0140 E64636E6 		.ascii	"\346F6\346h\007#P\242\263m\224\302W\262i\365\277\376"
 135      68072350 
 135      A2B36D94 
 135      C257B269 
 135      F5BFFE
 136 0153 70AF241F 		.ascii	"p\257$\037\272\217\305#C\347}\025\274\017\267\251\300"
 136      BA8FC523 
 136      43E77D15 
 136      BC0FB7A9 
 136      C0
 137 0164 E6B012C7 		.ascii	"\346\260\022\307\370X;X\010\316\375s0w\201'tG\317-P"
 137      F8583B58 
ARM GAS  /tmp/ccHEGGeI.s 			page 10


 137      08CEFD73 
 137      30778127 
 137      7447CF2D 
 138 0179 F7551F55 		.ascii	"\367U\037U\034\003\345\253u\217nd\321\231\014\004*p"
 138      1C03E5AB 
 138      758F6E64 
 138      D1990C04 
 138      2A70
 139 018b F9AF23F5 		.ascii	"\371\257#\3659P\366\350\276mO\215/\317\207\221\362\210"
 139      3950F6E8 
 139      BE6D4F8D 
 139      2FCF8791 
 139      F288
 140 019d 5F2C24CF 		.ascii	"_,$\317\351Hy\376x\362\020|\313\232#\330\033K\237G\327"
 140      E94879FE 
 140      78F2107C 
 140      CB9A23D8 
 140      1B4B9F47 
 141 01b2 72DEAF7E 		.ascii	"r\336\257~\001\203\250\300\313\360\233\211\324\247\027"
 141      0183A8C0 
 141      CBF09B89 
 141      D4A717
 142 01c1 D6E76350 		.ascii	"\326\347cP\037\361\362h\223\236\334\316\370\217#\353"
 142      1FF1F268 
 142      939EDCCE 
 142      F88F23EB 
 143 01d1 15E0B9CE 		.ascii	"\025\340\271\316\323kY\357\233\275S\224&\010\366\235"
 143      D36B59EF 
 143      9BBD5394 
 143      2608F69D 
 144 01e1 9ED682B3 		.ascii	"\236\326\202\263\216\317\363\373\366\363s\016\317\256"
 144      8ECFF3FB 
 144      F6F3730E 
 144      CFAE
 145 01ef C3D3C520 		.ascii	"\303\323\305 \021A9\031\354\230\355\275\004\316&'\007"
 145      11413919 
 145      EC98EDBD 
 145      04CE2627 
 145      07
 146 0200 816DCBF0 		.ascii	"\201m\313\360\237\311\361\206a\352\363\025\210U\252"
 146      9FC9F186 
 146      61EAF315 
 146      8855AA
 147 020f 448F37AE 		.ascii	"D\2177\256\230\372%U\233\270xyy\246\0042;r>\225\352"
 147      98FA2555 
 147      9BB87879 
 147      79A60432 
 147      3B723E95 
 148 0224 EB314535 		.ascii	"\3531E5L\331\320+\031\376\341|\275\256jJ\211CH\275\316"
 148      4CD9D02B 
 148      19FEE17C 
 148      BDAE6A4A 
 148      894348BD 
 149 0239 D7D962C3 		.ascii	"\327\331b\303\320\213D_\235\323\3264uN%\327k\305\232"
 149      D08B445F 
 149      9DD3D634 
 149      754E25D7 
ARM GAS  /tmp/ccHEGGeI.s 			page 11


 149      6BC59A
 150 024c 56596928 		.ascii	"VYi(j\3210\225\232f\316W!\321`\353\302\331\262yfD\366"
 150      6AD13095 
 150      9A66CE57 
 150      21D160EB 
 150      C2D9B279 
 151 0263 2AA9546B 		.ascii	"*\251Tk\232Z,+\352\015\322X1\313\346z]5\030z\262\\\366"
 151      9A5A2C2B 
 151      EA0DD258 
 151      31CBE67A 
 151      5D35187A 
 152 027a F07F0132 		.ascii	"\360\177\0012a'\000"
 152      612700
 153              		.text
 154              		.section	.gnu.lto_.symtab.2ef6e9609b0f90b8,"",%progbits
 155 0000 75537472 		.ascii	"uStrLen\000\000\000\000\000\000\000\000\000\000\000"
 155      4C656E00 
 155      00000000 
 155      00000000 
 155      0000
 156 0012 00A10000 		.ascii	"\000\241\000\000\000uStrCpy\000\000\000\000\000\000"
 156      00755374 
 156      72437079 
 156      00000000 
 156      0000
 157 0024 00000000 		.ascii	"\000\000\000\000\000\000\255\000\000\000uStrAppendC"
 157      0000AD00 
 157      00007553 
 157      74724170 
 157      70656E64 
 158 0039 68617200 		.ascii	"har\000\000\000\000\000\000\000\000\000\000\000\000"
 158      00000000 
 158      00000000 
 158      000000
 159 0048 B7000000 		.ascii	"\267\000\000\000"
 160              		.text
 161              		.section	.gnu.lto_.opts,"",%progbits
 162 0000 272D6D63 		.ascii	"'-mcpu=cortex-m4' '-mfloat-abi=hard' '-mfpu=fpv4-sp"
 162      70753D63 
 162      6F727465 
 162      782D6D34 
 162      2720272D 
 163 0033 2D643136 		.ascii	"-d16' '-mno-thumb-interwork' '-mthumb' '-O2' '-fomi"
 163      2720272D 
 163      6D6E6F2D 
 163      7468756D 
 163      622D696E 
 164 0066 742D6672 		.ascii	"t-frame-pointer' '-falign-functions=16' '-ffunction"
 164      616D652D 
 164      706F696E 
 164      74657227 
 164      20272D66 
 165 0099 2D736563 		.ascii	"-sections' '-fdata-sections' '-fno-common' '-flto' "
 165      74696F6E 
 165      73272027 
 165      2D666461 
 165      74612D73 
ARM GAS  /tmp/ccHEGGeI.s 			page 12


 166 00cc 272D6673 		.ascii	"'-fsingle-precision-constant'\000"
 166      696E676C 
 166      652D7072 
 166      65636973 
 166      696F6E2D 
 167              		.text
 168              		.section	.text.uStrLen,"ax",%progbits
 169              		.align	2
 170              		.p2align 4,,15
 171              		.global	uStrLen
 172              		.thumb
 173              		.thumb_func
 174              		.type	uStrLen, %function
 175              	uStrLen:
 176              		@ args = 0, pretend = 0, frame = 0
 177              		@ frame_needed = 0, uses_anonymous_args = 0
 178              		@ link register save eliminated.
 179 0000 0378     		ldrb	r3, [r0]	@ zero_extendqisi2
 180 0002 3BB1     		cbz	r3, .L4
 181 0004 0346     		mov	r3, r0
 182 0006 0020     		movs	r0, #0
 183              	.L3:
 184 0008 13F8012F 		ldrb	r2, [r3, #1]!	@ zero_extendqisi2
 185 000c 0130     		adds	r0, r0, #1
 186 000e 002A     		cmp	r2, #0
 187 0010 FAD1     		bne	.L3
 188 0012 7047     		bx	lr
 189              	.L4:
 190 0014 1846     		mov	r0, r3
 191 0016 7047     		bx	lr
 192              		.size	uStrLen, .-uStrLen
 193 0018 AFF30080 		.section	.text.uStrCpy,"ax",%progbits
 193      AFF30080 
 194              		.align	2
 195              		.p2align 4,,15
 196              		.global	uStrCpy
 197              		.thumb
 198              		.thumb_func
 199              		.type	uStrCpy, %function
 200              	uStrCpy:
 201              		@ args = 0, pretend = 0, frame = 0
 202              		@ frame_needed = 0, uses_anonymous_args = 0
 203              		@ link register save eliminated.
 204 0000 0A78     		ldrb	r2, [r1]	@ zero_extendqisi2
 205 0002 10B4     		push	{r4}
 206 0004 32B1     		cbz	r2, .L12
 207 0006 0B46     		mov	r3, r1
 208 0008 0022     		movs	r2, #0
 209              	.L13:
 210 000a 13F8014F 		ldrb	r4, [r3, #1]!	@ zero_extendqisi2
 211 000e 0132     		adds	r2, r2, #1
 212 0010 002C     		cmp	r4, #0
 213 0012 FAD1     		bne	.L13
 214              	.L12:
 215 0014 0023     		movs	r3, #0
 216              	.L11:
 217 0016 CC5C     		ldrb	r4, [r1, r3]	@ zero_extendqisi2
ARM GAS  /tmp/ccHEGGeI.s 			page 13


 218 0018 C454     		strb	r4, [r0, r3]
 219 001a 0133     		adds	r3, r3, #1
 220 001c 9BB2     		uxth	r3, r3
 221 001e 9A42     		cmp	r2, r3
 222 0020 F9DA     		bge	.L11
 223 0022 5DF8044B 		ldr	r4, [sp], #4
 224 0026 7047     		bx	lr
 225              		.size	uStrCpy, .-uStrCpy
 226 0028 AFF30080 		.section	.text.uStrAppendChar,"ax",%progbits
 226      AFF30080 
 227              		.align	2
 228              		.p2align 4,,15
 229              		.global	uStrAppendChar
 230              		.thumb
 231              		.thumb_func
 232              		.type	uStrAppendChar, %function
 233              	uStrAppendChar:
 234              		@ args = 0, pretend = 0, frame = 0
 235              		@ frame_needed = 0, uses_anonymous_args = 0
 236              		@ link register save eliminated.
 237 0000 0378     		ldrb	r3, [r0]	@ zero_extendqisi2
 238 0002 30B4     		push	{r4, r5}
 239 0004 6BB1     		cbz	r3, .L22
 240 0006 441C     		adds	r4, r0, #1
 241 0008 0022     		movs	r2, #0
 242              	.L21:
 243 000a 2578     		ldrb	r5, [r4]	@ zero_extendqisi2
 244 000c 2346     		mov	r3, r4
 245 000e 0132     		adds	r2, r2, #1
 246 0010 0134     		adds	r4, r4, #1
 247 0012 002D     		cmp	r5, #0
 248 0014 F9D1     		bne	.L21
 249 0016 0132     		adds	r2, r2, #1
 250              	.L19:
 251 0018 0024     		movs	r4, #0
 252 001a 1970     		strb	r1, [r3]
 253 001c 8454     		strb	r4, [r0, r2]
 254 001e 30BC     		pop	{r4, r5}
 255 0020 7047     		bx	lr
 256              	.L22:
 257 0022 0346     		mov	r3, r0
 258 0024 0122     		movs	r2, #1
 259 0026 F7E7     		b	.L19
 260              		.size	uStrAppendChar, .-uStrAppendChar
 261              		.comm	__gnu_lto_v1,1,1
 262 0028 AFF30080 		.ident	"GCC: (GNU Tools for ARM Embedded Processors) 4.8.4 20140526 (release) [ARM/embedded-4_8-br
 262      AFF30080 
ARM GAS  /tmp/ccHEGGeI.s 			page 14

