ARM GAS  /tmp/cceabomF.s 			page 1


   1              		.syntax unified
   2              		.cpu cortex-m4
   3              		.eabi_attribute 27, 3
   4              		.eabi_attribute 28, 1
   5              		.fpu fpv4-sp-d16
   6              		.eabi_attribute 20, 1
   7              		.eabi_attribute 21, 1
   8              		.eabi_attribute 23, 3
   9              		.eabi_attribute 24, 1
  10              		.eabi_attribute 25, 1
  11              		.eabi_attribute 26, 1
  12              		.eabi_attribute 30, 2
  13              		.eabi_attribute 34, 1
  14              		.eabi_attribute 18, 4
  15              		.thumb
  16              		.file	"bmp280.c"
  17              		.section	.gnu.lto_.jmpfuncs.b9c28f35c85857dd,"",%progbits
  18 0000 789C6D8B 		.ascii	"x\234m\213\301\015\2000\014\003\317n*Va$V\250\304\273"
  18      C10D8030 
  18      0C03CF6E 
  18      2A566124 
  18      56A8C4BB 
  19 0014 F3320A01 		.ascii	"\3632\012\001\302\003\211H\211-\347l\314\337\354\245"
  19      C2038948 
  19      892DE76C 
  19      CCDFECA5 
  20 0024 9D258221 		.ascii	"\235%\202!\020-\317\274\3053w\323\220\326\314\232?D"
  20      102DCFBC 
  20      C53377D3 
  20      90D6CC9A 
  20      3F44
  21 0036 BED4DF04 		.ascii	"\276\324\337\004\211\013\364\241\247aU5\331J\3224\002"
  21      890BF4A1 
  21      A7615535 
  21      D94AD234 
  21      02
  22 0047 4EC5AC08 		.ascii	"N\305\254\010@"
  22      40
  23              		.text
  24              		.section	.gnu.lto_.inline.b9c28f35c85857dd,"",%progbits
  25 0000 789C6362 		.ascii	"x\234cb`b\300\006z\2404+\003\003\207\000##\003#\220"
  25      6062C006 
  25      7AA0342B 
  25      03038700 
  25      23230323 
  26 0015 0D52C9B6 		.ascii	"\015R\311\266@\036\254\201\225\217\201\201e\202\037"
  26      401EAC81 
  26      958F8181 
  26      65821F
  27 0024 0802E5D8 		.ascii	"\010\002\345\330\371\261(a\341\005\362A\012\230\030"
  27      F9B12861 
  27      E105F241 
  27      0A9818
  28 0033 B98561F2 		.ascii	"\271\205a\362L\027\370\341\012\330\005\200\346\000\365"
  28      4C17F8E1 
  28      0AD80580 
  28      E600F5
ARM GAS  /tmp/cceabomF.s 			page 2


  29 0042 03013303 		.ascii	"\003\0013\0033\023#\252n\014\021\006\000p\353\013J"
  29      331323AA 
  29      6E0C1106 
  29      0070EB0B 
  29      4A
  30              		.text
  31              		.section	.gnu.lto_.pureconst.b9c28f35c85857dd,"",%progbits
  32 0000 789C6362 		.ascii	"x\234cb`b\340f\200\000V\006\011F\011&\011f\006\026\006"
  32      6062E066 
  32      80005606 
  32      09460926 
  32      09660616 
  33 0015 00039700 		.ascii	"\000\003\227\000g"
  33      67
  34              		.text
  35              		.section	.gnu.lto_bmp280_init.b9c28f35c85857dd,"",%progbits
  36 0000 789C6362 		.ascii	"x\234cb`b@\007\222@|\017\210\205\201\230\221\231\201"
  36      60624007 
  36      92407C0F 
  36      88858198 
  36      919981
  37 0013 9169C239 		.ascii	"\221i\3029\006\206F\016&FF\020\203\201\221\241\236\211"
  37      0686460E 
  37      26464610 
  37      838191A1 
  37      9E89
  38 0025 B13E9211 		.ascii	"\261>\222\021\254v=\323\201\007\377\377\257\333\322"
  38      AC763DD3 
  38      8107FFFF 
  38      AFDBD2
  39 0034 F28A919D 		.ascii	"\362\212\221\235\2211\227\021h\\&#\003\013\220\305\310"
  39      91319711 
  39      685C2623 
  39      030B90C5 
  39      C8
  40 0045 0A244086 		.ascii	"\012$@\206\2632\26444LP``H\006k\011\001\222 sB\201\222"
  40      B332B434 
  40      344C5060 
  40      6048066B 
  40      09019220 
  41 005d 409AF92C 		.ascii	"@\232\371,C\323\257\346\3677\230\022\031\0272\2622\244"
  41      43D3AFE6 
  41      F7379812 
  41      191732B2 
  41      32A4
  42 006f 33325533 		.ascii	"32U3T\001\215\320fX\325\000\004\205\231\214\214\263"
  42      54018DD0 
  42      6658D500 
  42      0485998C 
  42      8CB3
  43 0081 19663166 		.ascii	"\031f1f22\24532F\000if\260\275I\214H\016>\317\320~@"
  43      3232A533 
  43      32460069 
  43      66B0BD49 
  43      8C480E3E 
  44 0099 1BA29F81 		.ascii	"\033\242\237\201\241\232\341WCG\203@&#K2#DQ:H/K:#+H"
  44      A19AE157 
ARM GAS  /tmp/cceabomF.s 			page 3


  44      43478340 
  44      26234B32 
  44      2344513A 
  45 00b4 3BAB06D0 		.ascii	";\253\006\320\201l\014\014\027\031\032\037\314e\202"
  45      816C0C0C 
  45      17191A1F 
  45      CC6582
  46 00c3 69828010 		.ascii	"i\202\200\020\240\006\240\223@\216\026t)\312,K-*\326"
  46      A006A093 
  46      408E1674 
  46      29CA2C4B 
  46      2D2AD6
  47 00d6 4FCA2D30 		.ascii	"O\312-0\2620\320Kf\000\000tu7\343"
  47      B230D04B 
  47      66000074 
  47      7537E3
  48              		.text
  49              		.section	.gnu.lto_bmp280_stop.b9c28f35c85857dd,"",%progbits
  50 0000 789C5D50 		.ascii	"x\234]P1j\002Q\024\234y\273k,\015\251\354\354\205D\254"
  50      316A0251 
  50      149C79BB 
  50      6B2C0DA9 
  50      ECEC8544 
  51 0015 3C804758 		.ascii	"<\200GX\301\224q\221\345\027\202\030H\021\213\375\352"
  51      C1947191 
  51      E5178218 
  51      48118BFD 
  51      EA
  52 0026 0A96D6B1 		.ascii	"\012\226\326\261J\233B\017\220\306\013\250\210\235U"
  52      4A9B420F 
  52      90C60BA8 
  52      889D55
  53 0035 CEB18DBE 		.ascii	"\316\261\215\276\277\242\004\037\314\177S\314\314\033"
  53      BFA2041F 
  53      CC7F53CC 
  53      CC1B
  54 0043 BE40703F 		.ascii	"\276@p?e\305A\361\244\240\007\312|\013\214\212B:\002"
  54      65C541F1 
  54      A4A007CA 
  54      7C0B8C8A 
  54      423A02
  55 0056 221126AF 		.ascii	"\"\021&\257\314\265+Y\377\235N\313c\232\311\003\331"
  55      CCB52B59 
  55      FF9D4ECB 
  55      639AC903 
  55      D9
  56 0067 A3C619C2 		.ascii	"\243\306\031\302W\306\2022'\012\220Z;\257\000Qn\011"
  56      57C68232 
  56      270A905A 
  56      3BAF0051 
  56      6E09
  57 0079 F575392D 		.ascii	"\365u9-\212\333\336\006\343l\362\273\367\336\370\315"
  57      8ADBDE06 
  57      E36CF2BB 
  57      F7DEF8CD 
  58 0089 00316588 		.ascii	"\0001e\210O\215\250\342\307\352$\206\262\300\027\015"
  58      4F8DA8E2 
ARM GAS  /tmp/cceabomF.s 			page 4


  58      C7EA2486 
  58      B2C0170D 
  59 0099 BD986CEB 		.ascii	"\275\230l\353\366\363\273\035\376+\274\303t\035\\\375"
  59      F6F3BB1D 
  59      FE2BBCC3 
  59      741D5CFD 
  60 00a9 8521323B 		.ascii	"\205!2;\263%\303 \342E\245\2411}\243\215\260\007o\302"
  60      B325C320 
  60      E245A5A1 
  60      317DA38D 
  60      B0076FC2 
  61 00bd 8B395491 		.ascii	"\2139T\221\366p\337\360\330\034\230\217\356\340\375"
  61      F670DFF0 
  61      D81C988F 
  61      EEE0FD
  62 00cc A5D3EBD7 		.ascii	"\245\323\353\327\033\265\347\010g\020\3645:"
  62      1BB5E708 
  62      6710F435 
  62      3A
  63              		.text
  64              		.section	.gnu.lto_bmp280_reset.b9c28f35c85857dd,"",%progbits
  65 0000 789C5D51 		.ascii	"x\234]Q=K\003A\020}o\367.^,DA\020;\021\254\004\025\261"
  65      3D4B0341 
  65      107D6FF7 
  65      2E5E2C44 
  65      41103B11 
  66 0018 F007D8D8 		.ascii	"\360\007\330\330G\210e\022\303qE@\242X\030$\033? \225"
  66      47886512 
  66      C3714540 
  66      A2581824 
  66      1B3F2095 
  67 002c 1C3606AD 		.ascii	"\0346\006\255\202E\300\306\302\3062\330\253\230_p\275"
  67      8245C0C6 
  67      C2C632D8 
  67      AB985F70 
  67      BD
  68 003d 9D6510CF 		.ascii	"\235e\020\317\331[\225\350\300\316\3540o\337{\303*("
  68      D95B95E8 
  68      C0CEEC30 
  68      6FDF7BC3 
  68      2A28
  69 004f FC8F5939 		.ascii	"\374\217Y9\373t\225\032T\3613\320\012\024i/ \232\212"
  69      FB74951A 
  69      54F133D0 
  69      0A14692F 
  69      209A8A
  70 0062 CD6D5A28 		.ascii	"\315mZ(\347\3215\375\213\344lp>c\022\023\233\3174eD"
  70      E7D135FD 
  70      8BE46C70 
  70      3E631213 
  70      9BCF3465 
  71 0077 219D262A 		.ascii	"!\235&*DQ\032\006YQ\374\253r\247\372I\232~\364\342\205"
  71      44511A06 
  71      5951FCAB 
  71      72A7FA49 
  71      9A7EF4E2 
  72 008c 40B34678 		.ascii	"@\263Fx\210\250s\222<\031\37285&\236+\261+\012\260L"
ARM GAS  /tmp/cceabomF.s 			page 5


  72      88A87392 
  72      3C19FA38 
  72      35269E2B 
  72      B12B0AB0 
  73 00a1 1205C9D6 		.ascii	"\022\005\311\326\301\026\225\255\372\011\307\017\235"
  73      C11695AD 
  73      FA09C70F 
  73      9D
  74 00ae C1448937 		.ascii	"\301D\2117\364\341\240V\010\211E\313px\322{\327n\032"
  74      F4E1A056 
  74      088945CB 
  74      7078D27B 
  74      D76E1A
  75 00c1 D26BE050 		.ascii	"\322k\340P\004\026qk$.\005\347_\343JJ.\244\266\317\306"
  75      0416716B 
  75      242E05E7 
  75      5FE34A4A 
  75      2EA4B6CF 
  76 00d6 3257E551 		.ascii	"2W\345Q\227/\350\230\342\017A\256\201\241i\233\311\210"
  76      972FE898 
  76      E20F41AE 
  76      81A1699B 
  76      C988
  77 00e8 41850E95 		.ascii	"A\205\016\225\261\016-\337Q\304\274s\340\340\316\210"
  77      B10E2DDF 
  77      51C4BC73 
  77      E0E0CE88 
  78 00f8 DB3FFFDD 		.ascii	"\333?\377\335Av\033\267\306\036\337\324\250\3475\334"
  78      41761BB7 
  78      C61EDFD4 
  78      A8E735DC 
  79 0108 9BB603E0 		.ascii	"\233\266\003\340\025\255\276\377\253\350\\\024DM\326"
  79      15ADBEFF 
  79      ABE85C14 
  79      444DD6
  80 0117 B5FF34B5 		.ascii	"\265\3774\265Q\217\016\252\365\275\345rmwu}e\251\002"
  80      518F0EAA 
  80      F5BDE572 
  80      6D77757D 
  80      65A902
  81 012a BF5E0D37 		.ascii	"\277^\0157w\276\000$\241]="
  81      77BE0024 
  81      A15D3D
  82              		.text
  83              		.section	.gnu.lto_bmp280_readPressure.b9c28f35c85857dd,"",%progbits
  84 0000 789C6362 		.ascii	"x\234cb`b@\007\222@<\033\210\245\200\230\221\231\201"
  84      60624007 
  84      92403C1B 
  84      88A58098 
  84      919981
  85 0013 9169C239 		.ascii	"\221i\3029\006\206F\016&FF\020\203\201\221\241\236\211"
  85      0686460E 
  85      26464610 
  85      838191A1 
  85      9E89
  86 0025 B13E9211 		.ascii	"\261>\222\021\244\224Q\211aaC\303\214\007\255\327{%"
  86      A4945189 
ARM GAS  /tmp/cceabomF.s 			page 6


  86      616143C3 
  86      8C07ADD7 
  86      7B25
  87 0037 1B16344D 		.ascii	"\033\0264Mh\370\367\377?c&#\320P\021F\206dF\206\010"
  87      68F8F7FF 
  87      3F632623 
  87      D0501146 
  87      86644686 
  88 004c 20875101 		.ascii	" \207Q\001L1\261\240\332\262\236\351\300\203\377\377"
  88      4C31B1A0 
  88      DAB29EE9 
  88      C083FFFF 
  89 005c F7AC9E60 		.ascii	"\367\254\236`\306\314\310\230\310\270\020h\024\020\260"
  89      C6CCC898 
  89      C8B81068 
  89      1410B0
  90 006b 32B43434 		.ascii	"2\26444LP\200\361\223\301\266\204\000I\220\325\241\214"
  90      4C5080F1 
  90      93C1B684 
  90      004990D5 
  90      A18C
  91 007d 4C209AF9 		.ascii	"L \232\371\"C\343\203\327\\\211\214\213\031Y\031\322"
  91      2243E383 
  91      D75C898C 
  91      8B195919 
  91      D2
  92 008e 191921E6 		.ascii	"\031\031!\346\205\000\031@I\220w\004]\2122\313R\213"
  92      85001940 
  92      49907704 
  92      5D8A32CB 
  92      528B
  93 00a0 8AF59372 		.ascii	"\212\365\223r\013\214,\014\364\222\031\330\212K\022"
  93      0B8C2C0C 
  93      F49219D8 
  93      8A4B12
  94 00af 4B4A8B01 		.ascii	"KJ\213\001\24290X"
  94      A2393058 
  95              		.text
  96              		.section	.gnu.lto_bmp280_readTemperature.b9c28f35c85857dd,"",%progbits
  97 0000 789C6362 		.ascii	"x\234cb`b@\007\222@<\027\210\245\200\230\221\231\201"
  97      60624007 
  97      92403C17 
  97      88A58098 
  97      919981
  98 0013 9169C239 		.ascii	"\221i\3029\006\206F\016&FF\020\203\201\221\241\236\211"
  98      0686460E 
  98      26464610 
  98      838191A1 
  98      9E89
  99 0025 B13E9211 		.ascii	"\261>\222\021\244\224Q\211aaC\303\214\007G\357\367J"
  99      A4945189 
  99      616143C3 
  99      8C0747EF 
  99      F74A
 100 0037 362C689A 		.ascii	"6,h\232\320\360\357\377\177\306LF\240\241\"\214\014"
 100      D0F0EFFF 
 100      7FC64C46 
ARM GAS  /tmp/cceabomF.s 			page 7


 100      A0A1228C 
 100      0C
 101 0048 C98C0C11 		.ascii	"\311\214\014\021@\016\243\002\230bbA\265e=\323\201\007"
 101      400EA302 
 101      98626241 
 101      B5653DD3 
 101      8107
 102 005a FFFFDF59 		.ascii	"\377\377\337Y?\3418#3#c\"\343B\240Y@\300\312\320\322"
 102      3FE13823 
 102      33236322 
 102      E342A059 
 102      40C0CAD0 
 103 006f D0304101 		.ascii	"\3200A\001\306O\006[\023\002$Av\20722\201h\346\213\014"
 103      C64F065B 
 103      13022441 
 103      76873232 
 103      8168E68B 
 104 0084 8D0F7A17 		.ascii	"\215\017z\027\0035-fdeHgd\204\230\030\002d\000eA\036"
 104      03352D66 
 104      64654867 
 104      64849818 
 104      02640065 
 105 009a 127429CA 		.ascii	"\022t)\312,K-*\326O\312-0\2620\320Kf`+.I,)-\006\000"
 105      2C4B2D2A 
 105      D64FCA2D 
 105      30B230D0 
 105      4B66602B 
 106 00b5 6BDF3194 		.ascii	"k\3371\224"
 107              		.text
 108              		.section	.gnu.lto_.symbol_nodes.b9c28f35c85857dd,"",%progbits
 109 0000 789C4DC7 		.ascii	"x\234M\307\271\015\2000\024\004\321\375kl\227\275\346"
 109      B90D8030 
 109      1404D1FD 
 109      6B6C97BD 
 109      E6
 110 0011 14195440 		.ascii	"\024\031T@B)\344\324@%\034\222\021x\222\321#\210\011"
 110      4229E4D4 
 110      40251C92 
 110      117892D1 
 110      238809
 111 0024 6FBC4CC0 		.ascii	"o\274L\300\274\003\3222\032\023e\005k\212\005\033\312"
 111      BC03D232 
 111      1A136505 
 111      6B8A051B 
 111      CA
 112 0035 156CA9EA 		.ascii	"\025l\251\352\247u\224\317L\311\254\247\302\257\201"
 112      A77594CF 
 112      4CC9ACA7 
 112      C2AF81
 113 0044 8A9F1C3C 		.ascii	"\212\237\034<\326\3434g!\237\021\333s\334L\273+E"
 113      D6E33467 
 113      219F11DB 
 113      73DC4CBB 
 113      2B45
 114              		.text
 115              		.section	.gnu.lto_.refs.b9c28f35c85857dd,"",%progbits
 116 0000 789C6362 		.ascii	"x\234cb`b`d\200\002\000\000F\000\006"
ARM GAS  /tmp/cceabomF.s 			page 8


 116      60626064 
 116      80020000 
 116      460006
 117              		.text
 118              		.section	.gnu.lto_.decls.b9c28f35c85857dd,"",%progbits
 119 0000 789CBD5B 		.ascii	"x\234\275[yp\024\307\271\237c\245\335E\212\270\236\375"
 119      797014C7 
 119      B99F63A5 
 119      DD458AB8 
 119      9EFD
 120 0012 70E22A6F 		.ascii	"p\342*o\252\234WTb\243\213`(\347\031\210$\202\352q\225"
 120      AA9C5754 
 120      62A38B60 
 120      28E71988 
 120      2482EA71 
 121 0027 24F24C55 		.ascii	"$\362LUR\353aw@\033K\332\315\354\010\304_\031\204Q\014"
 121      52EB6177 
 121      401B4BDA 
 121      CDEC08C4 
 121      5F198451 
 122 003c 182CC44D 		.ascii	"\030,\304M8ds\030\333\230X\026\030D\300,\2661\002l\300"
 122      38647318 
 122      DB985816 
 122      1844C02C 
 122      B631026C 
 123 0051 C11C0213 		.ascii	"\301\034\002\023\326~\2009B\036`\313\2009\364\272\277"
 123      D67E8039 
 123      421E60CB 
 123      8039F4BA 
 123      BF
 124 0062 99D9ED19 		.ascii	"\231\331\355\031\315\354\366(\316\233\252\371\246\247"
 124      CDECF628 
 124      CE9BAAF9 
 124      A6A7
 125 0070 B7FBD7DF 		.ascii	"\267\373\327\337\325\375u\367\364r\014\307le\031\246"
 125      D5FD75F7 
 125      F4720CC7 
 125      6C6519A6 
 126 0080 0B5D7525 		.ascii	"\013]u%\0143\317\3030\231\014\303<\203n\027\272_A\267"
 126      0C33CFC3 
 126      30990CC3 
 126      3C836E17 
 126      BA5F41B7 
 127 0094 1BDDDBD0 		.ascii	"\033\335\333\320\335\227c\340BE\230~(]\210\356\341\350"
 127      DD9763E0 
 127      4245987E 
 127      285D88EE 
 127      E1E8
 128 00a6 2E41F738 		.ascii	".A\3678tW\240\3737\350\026\264r\344\205\313c\234\377"
 128      7457A0FB 
 128      37E816B4 
 128      72E485CB 
 128      639CFF
 129 00b9 E654CC87 		.ascii	"\346T\314\207\321\363!t\207\264\374\211\350\211\330"
 129      D1F32174 
 129      87B4FC89 
 129      E889D8
ARM GAS  /tmp/cceabomF.s 			page 9


 130 00c8 607E849E 		.ascii	"`~\204\236\234V\036\343\361(\375\004z\016Bw\236\011"
 130      9C561EE3 
 130      F128FD04 
 130      7A0E4277 
 130      9E09
 131 00da B790C0AC 		.ascii	"\267\220\300\254g\215\270\277C\367oM\230\205\032\177"
 131      678DB8BF 
 131      43F76F4D 
 131      98851A7F 
 132 00ea 38FD3422 		.ascii	"8\3754\"\2770\341aY\2624Ys\320\235m\203\375<\247\352"
 132      BF30E161 
 132      59B23459 
 132      73D09D6D 
 132      83FD3CA7 
 133 00ff 62B2097F 		.ascii	"b\262\011\177\270&;\316+2a\227h\262`,\035\033_\254\366"
 133      B8263BCE 
 133      2B326197 
 133      68B2602C 
 133      1D1B5FAC 
 134 0114 9BF91A97 		.ascii	"\233\371\032\227\242\3748+\3752\013\025t\371\332Q\341"
 134      A2FC382B 
 134      FD320B15 
 134      74F9DA51 
 134      E1
 135 0125 675981CD 		.ascii	"gY\201\315\3612\317A\"\333\013u\177\302\254W\224\306"
 135      F132CF41 
 135      22DB0B75 
 135      7FC2AC57 
 135      94C6
 136 0137 F8EC79AC 		.ascii	"\370\354y\254O`_a\373!\206\007\260\314O\231\327Q\245"
 136      4F605F61 
 136      FB218607 
 136      B0CC4F99 
 136      D751A5
 137 014a 4645A9EF 		.ascii	"FE\251\357\337\0352-&\222\226\335\200\240\004v=\373"
 137      DF1D322D 
 137      269296DD 
 137      80A00476 
 137      3DFB
 138 015c 53B50525 		.ascii	"S\265\005%\266;\350Ss\031-\337\342\3721\323\214\232"
 138      B63BE853 
 138      73192DDF 
 138      E2FA31D3 
 138      8C9A
 139 016e 8C7DBAB5 		.ascii	"\214}\272\265\215U\032\262\335L\003zS\342\263\353\007"
 139      8D551AB2 
 139      DD4C037A 
 139      53E2B3EB 
 139      07
 140 017f 2C4FB6E4 		.ascii	",O\266\344\321[b\023\334\307\332<\234\300nb\335\210"
 140      D15B6213 
 140      DCC7DA3C 
 140      9CC06E62 
 140      DD88
 141 0191 F99FB106 		.ascii	"\371\237\261\006x\012\014\314\317\233\250\256\201\333"
 141      780A0CCC 
 141      CF9BA8AE 
ARM GAS  /tmp/cceabomF.s 			page 10


 141      81DB
 142 019f 1617A7E6 		.ascii	"\026\027\247\346\246\340\226g\300\276O\263\200\346\362"
 142      A6E09667 
 142      C0BE4FB3 
 142      80E6F2
 143 01ae 26B38A13 		.ascii	"&\263\212\023Y,Q\2604\221\253\333\011\277\262\336d\242"
 143      592C51B0 
 143      3491ABDB 
 143      09BFB2DE 
 143      64A2
 144 01c0 8B353440 		.ascii	"\21354@\362%\260\233\331\237 \372\026\313[V\343\230"
 144      F225B09B 
 144      D99F20FA 
 144      16CB5B56 
 144      E398
 145 01d2 71ACA676 		.ascii	"q\254\246v+!\265d\262\331\034\375EW\372\261ov`\245{"
 145      2B21B564 
 145      B2D91CFD 
 145      4557FAB1 
 145      6F7660A5 
 146 01e7 99174161 		.ascii	"\231\027Aa\033\2244J\217w4\274\3653E\361\010\3546\026"
 146      1B94344A 
 146      8F7734BC 
 146      F53345F1 
 146      08EC3616 
 147 01fb 4B34C3A8 		.ascii	"K4\303\250xz\234Es\327\014\005\234\035\200\363.k\004"
 147      787A9C45 
 147      73D70C05 
 147      9C1D80F3 
 147      2E6B04
 148 020e D2442594 		.ascii	"\322D%\224\202\336\365\002i\025\230\246,\307\304X\247"
 148      82DEF502 
 148      691598A6 
 148      2CC7C458 
 148      A7
 149 021f 6AF3906A 		.ascii	"j\363\220j\213\357\233\273\370\021\245\371}6\213\231"
 149      8BEF9BBB 
 149      F811A5F9 
 149      7D368B99 
 150 022f 8BE56D6E 		.ascii	"\213\345mnPF\267\347Xt\220\030\257\203\015M\212\336"
 150      5046B7E7 
 150      58749018 
 150      AF830D4D 
 150      8ADE
 151 0241 72F8F846 		.ascii	"r\370\370Fv\226\242\240\037\336\203\2567\2373\012\237"
 151      7696A2A0 
 151      1FDE83AE 
 151      379F330A 
 151      9F
 152 0252 16486063 		.ascii	"\026H`c,\207\350^sw\273\2612[q\251\371\351;\334\235"
 152      2C87E85E 
 152      7377BBB1 
 152      325B71A9 
 152      F9E93BDC 
 153 0267 D36BFE5D 		.ascii	"\323k\376]\211\307X\352\036\027?\367\327\223\371`\264"
 153      89C758EA 
 153      1E173FF7 
ARM GAS  /tmp/cceabomF.s 			page 11


 153      D793F960 
 153      B4
 154 0278 0FA1D71D 		.ascii	"\017\241\327\035\344z\324\355\366\233\273\335\247\015"
 154      E47AD4ED 
 154      F69BBBDD 
 154      A70D
 155 0286 BD31D7FB 		.ascii	"\2751\327\373\251:\336q\256{\317\213s\226]\3572g\354"
 155      A93ADE71 
 155      AE7BCF8B 
 155      73965DEF 
 155      3267EC
 156 0299 7B5AF6D7 		.ascii	"{Z\366\327\311l\236\310\236\311'\262]D\366\313\311\354"
 156      C96C9EC8 
 156      9EC927B2 
 156      5D44F6CB 
 156      C9EC
 157 02ab 0CC22552 		.ascii	"\014\302%R\372\337~\242\003\267C\007>`\323\201\005\266"
 157      FADF7EA2 
 157      03B74307 
 157      3E60D381 
 157      05B6
 158 02bd 3561C91E 		.ascii	"5a\311\036\365\340x\313\202\363\027\331E\263\224\366"
 158      F5E078CB 
 158      82F317D9 
 158      45B394F6 
 159 02cd 3C2B6744 		.ascii	"<+gDE\330\324A \266\3734\353K7\266\013\354)$\006M\004"
 159      45D8D441 
 159      20B6FB34 
 159      EB4B37B6 
 159      0BEC2924 
 160 02e4 386D76C9 		.ascii	"8mv\311\325\247\301%OS\271d\313\351%\316\\2v\343$\016"
 160      D5A7C125 
 160      4F53B964 
 160      CBE925CE 
 160      5C3276E3 
 161 02fa 6167C11F 		.ascii	"ag\301\037W\362=\362\307\270\331\037;\226\201?\306\251"
 161      57F23DF2 
 161      C7B8D91F 
 161      3B96813F 
 161      C6A9
 162 030c FC71234F 		.ascii	"\374q#O\370\236\226\327\302[:\336>\336\350x4\256\024"
 162      F89E96D7 
 162      C25B3ADE 
 162      3EDEE878 
 162      34AE14
 163 031f 275CE90B 		.ascii	"'\\\351\013p\245/mc\301I\220\377t\217\203A\353\351%"
 163      70A52F6D 
 163      63C14990 
 163      FF748F83 
 163      41EBE925 
 164 0333 30AA69A3 		.ascii	"0\252i\243\270\352H\211\262>\035\301\305\020\321`\337"
 164      B8EA4889 
 164      B23E1DC1 
 164      C510D160 
 164      DF
 165 0344 5EB61E86 		.ascii	"^\266\036\206\262+0\216\237\343-\003\002\005\324\242"
 165      B22B308E 
ARM GAS  /tmp/cceabomF.s 			page 12


 165      9FE32D03 
 165      0205D4A2 
 166 0354 B9BB86C1 		.ascii	"\271\273\206\301\330r\015\200.\361\346\200\3406\005"
 166      D8720D80 
 166      2EF1E680 
 166      E03605
 167 0363 04B77190 		.ascii	"\004\267q\220w{\223\011<}\355\3158-\216F\006\263\002"
 167      777B9309 
 167      3C7DEDCD 
 167      382D8E46 
 167      06B302
 168 0376 0D8C5A29 		.ascii	"\015\214Z)\320G*\020\365\305\303\357\2627\353\225\345"
 168      D0472A10 
 168      F5C5C3EF 
 168      B237EB95 
 168      E5
 169 0387 79F40EBC 		.ascii	"y\364\016\274\3504v\340\233\340\300]=s\340N\263\003"
 169      E83476E0 
 169      9BE0C05D 
 169      3D73E04E 
 169      B303
 170 0399 DF551DB8 		.ascii	"\337U\035\270\223\312\201\027\270\272;\360j\227\245"
 170      93CA8117 
 170      B8BA3BF0 
 170      6A97A5
 171 03a8 03FFD9E5 		.ascii	"\003\377\331\345\334\201;\011\007\376\026\034\370\226"
 171      DC813B09 
 171      07FE161C 
 171      F896
 172 03b6 AD037FE8 		.ascii	"\255\003\177\350\242p`\217\205\003\023\355\251-\235"
 172      A270608F 
 172      850313ED 
 172      A92D9D
 173 03c5 81963E67 		.ascii	"\201\226>g\177\214\350e\2407\020M\\\034s\304e\366/u"
 173      7F8CE865 
 173      A037104D 
 173      5C1C73C4 
 173      65F62F75 
 174 03d9 84229092 		.ascii	"\204\"\220\222C\031\223\012\313\312Up\205\023lV\262"
 174      4319930A 
 174      CBCA5570 
 174      85136C56 
 174      B2
 175 03ea B90E686E 		.ascii	"\271\016hnoO=+\266\342\314\032g]3\266g\331C\330\007"
 175      6F4F3D2B 
 175      B6E2CC1A 
 175      675D33B6 
 175      67D943D8 
 176 03ff 6672D884 		.ascii	"fr\330\204\361n\322^1\317\257h\372\307U\032)\254\354"
 176      F16ED25E 
 176      31CFAF68 
 176      FAC7551A 
 176      29ACEC
 177 0412 035228B1 		.ascii	"\003R(\261\3263kX,\205E QX\275~\237\204\014\361\343"
 177      D6336B58 
 177      2C854520 
 177      5158BD7E 
ARM GAS  /tmp/cceabomF.s 			page 13


 177      9F840CF1 
 178 0427 5F5DBAA8 		.ascii	"_]\272\250\015/\015\034\236)m\314H;S2\002q\314\026\250"
 178      0D2F0D1C 
 178      9E296DCC 
 178      483B5332 
 178      0271CC16 
 179 043c 32873385 		.ascii	"2\2073\205\245N\301\247\346\246\013JJ\354\326\005\257"
 179      A54EC1A7 
 179      E6A60B4A 
 179      4AECD605 
 179      AF
 180 044d D2946DD1 		.ascii	"\322\224m\321\324\010Rd}D\274\032\177\344\200\242\364"
 180      D4085264 
 180      7D44BC1A 
 180      7FE480A2 
 180      F4
 181 045e 11D8F9C0 		.ascii	"\021\330\371\300\3615k\216\233G\330\341p\314}\250\322"
 181      F1356B8E 
 181      9B47D8E1 
 181      70CC7DA8 
 181      D2
 182 046f 68E238BE 		.ascii	"h\3428\276\373f\373\017\227\003r#\005\333\365\261\343"
 182      FB66FB0F 
 182      97037223 
 182      05DBF5B1 
 182      E3
 183 0480 0DABA9E6 		.ascii	"\015\253\251\346\250\315.\275\371\342\244\030\247\256"
 183      A8CD2EBD 
 183      F9E2A418 
 183      A7AE
 184 048e C606C068 		.ascii	"\306\006\300h\274\004\244\370 3\255\336\2150\034\363"
 184      BC04A4F8 
 184      2033ADDE 
 184      8D301CF3 
 185 049e 315459DE 		.ascii	"1TY\336]\212\370\217T)\226SIqW\223B`\027sY\010\366D"
 185      5D8AF88F 
 185      54299653 
 185      49715793 
 185      42601773 
 186 04b6 0296B623 		.ascii	"\002\226\266#\031\361\036|\224\335(\350`g\035\203\371"
 186      19F11E7C 
 186      94DD28E8 
 186      60671D83 
 186      F9
 187 04c7 0C608BF6 		.ascii	"\014`\213\366\257r\0300W\334\272\364\310n\020\277\031"
 187      AF721830 
 187      57DCBAF4 
 187      C86E10BF 
 187      19
 188 04d8 3AE65BEE 		.ascii	":\346[\356\357\245cnsS\010b\3371\221U\216>\332\366\216"
 188      EFA5636E 
 188      73530862 
 188      DF319155 
 188      8E3EDAF6 
 189 04ed A2CCC9D4 		.ascii	"\242\314\311\324\3753\323N\020\216\331\005\215m0[v\305"
 189      FD33D34E 
 189      108ED905 
ARM GAS  /tmp/cceabomF.s 			page 14


 189      8D6D305B 
 189      76C5
 190 04ff 83A34FAA 		.ascii	"\203\243O\252\226\335@e\331\355\207\226\321\371g\246"
 190      96DD4065 
 190      D9ED8796 
 190      D1F967A6 
 191 050f DE7C109A 		.ascii	"\336|\020\232\177\000\315\277an~\333\253\227\237Q\233"
 191      7F00CDBF 
 191      616E7EDB 
 191      AB979F51 
 191      9B
 192 0520 7F83AAF9 		.ascii	"\177\203\252\371sG,\226p\002\373\314C)\315\367\340\372"
 192      73472C96 
 192      7002FBCC 
 192      4329CDF7 
 192      E0FA
 193 0532 C0B5D0C8 		.ascii	"\300\265\320\310\026p\240v\217\331|\303\263\310\266"
 193      1670A076 
 193      8FD97CC3 
 193      B3C8B6
 194 0541 E09D28C0 		.ascii	"\340\235(\3001\237zt\356{\344\277H\314\275\303_\007"
 194      319F7A74 
 194      EE7BE4BF 
 194      48CCBDC3 
 194      5F07
 195 0553 4BE93C1C 		.ascii	"K\351<\034w\214ht\342\233G\240G\250`\0354`\266\216T"
 195      778C6874 
 195      E29B47A0 
 195      47A8601D 
 195      3460B68E 
 196 0568 1FFB8604 		.ascii	"\037\373\206\004;\353\030\314\310\331\267$\330\0274"
 196      3BEB18CC 
 196      C8D9B724 
 196      D81734
 197 0577 607DEC39 		.ascii	"`}\3549\273M\202]p\014f\344\354;\022\3542\015\330\000"
 197      BB4D825D 
 197      700C66E4 
 197      EC3B12EC 
 197      320DD800 
 198 058b 7BCEEE91 		.ascii	"{\316\356\221`\327\034\203\0319{@\202\335\240\001\363"
 198      60D71C83 
 198      19397B40 
 198      82DDA001 
 198      F3
 199 059c D973D6F8 		.ascii	"\331s\326\370W\002\254\3231\230\221\263&\022\354\016"
 199      5702ACD3 
 199      319891B3 
 199      2612EC0E 
 200 05ac 0DD8407B 		.ascii	"\015\330@{\316\026\223`\367\035\203\0319[J\202\315\364"
 200      CE169360 
 200      F71D8319 
 200      395B4A82 
 200      CDF4
 201 05be 5280E5D9 		.ascii	"R\200\345\331s\266\234\004\233\355\030\314\310\331J"
 201      73B69C04 
 201      9BED18CC 
 201      C8D94A
ARM GAS  /tmp/cceabomF.s 			page 15


 202 05cd 126C0E0D 		.ascii	"\022l\016\015\330P{\316V\221`\363\035\203\0319{\233"
 202      D8507BCE 
 202      569160F3 
 202      1D831939 
 202      7B9B
 203 05df 045B4803 		.ascii	"\004[H\0036\302\236\263wH\260\305\216\301\214\234m%"
 203      36C29EB3 
 203      7748B0C5 
 203      8EC18C9C 
 203      6D25
 204 05f1 C196D180 		.ascii	"\301\226\321\200\215\266\347\354]\022l\245c0#g;H\260"
 204      8DB6E7EC 
 204      5D126CA5 
 204      63302367 
 204      3B48B0
 205 0604 D5346013 		.ascii	"\3254`\023\3549\333I\2025;\0063r\266\213\004[G\003\366"
 205      EC39DB49 
 205      82353B06 
 205      3372B68B 
 205      045B4703 
 206 0619 AC3D67EF 		.ascii	"\254=g\357\221`\2579\0063rv\224\004{\223\006\3549\013"
 206      9160AF39 
 206      06337276 
 206      94047B93 
 206      06EC390B 
 207 062d CE129755 		.ascii	"\316\022\227U=\034\246_\347\210\305\332\026\257>\301"
 207      3D1CA65F 
 207      E788C5DA 
 207      16AF3EC1 
 208 063d 7118A399 		.ascii	"q\030\243\231$\306;^\24732\203\334x\236\374\350N-\316"
 208      24C63B5E 
 208      A7333283 
 208      DC789EFC 
 208      E84E2DCE 
 209 0651 AB93D51D 		.ascii	"\253\223\325\0354\210)\002\340\312\375\304\3147\346"
 209      34882902 
 209      E0CAFDC4 
 209      CC37E6
 210 0660 18CCE4CA 		.ascii	"\030\314\344\312\030\3140uJl\375\307R\357x\340\357K"
 210      18CC3075 
 210      4A6CFDC7 
 210      52EF78E0 
 210      EF4B
 211 0672 1CF19D60 		.ascii	"\034\361\235`\200uY\201\275\312\341%\374\3379o\202\013"
 211      80755981 
 211      BDCAE125 
 211      FCDF396F 
 211      820B
 212 0684 35ADA7D4 		.ascii	"5\255\247\324-\203v\257q\303!q\245\253j\347\011\227"
 212      2D8376AF 
 212      71C32171 
 212      A5AB6AE7 
 212      0997
 213 0696 494FF884 		.ascii	"IO\370\204FM)B\373\271\375\253`?\223\376\273\310\212"
 213      464D2942 
 213      FBB9FDAB 
 213      603F93FE 
ARM GAS  /tmp/cceabomF.s 			page 16


 213      BBC88A
 214 06a9 5B47B505 		.ascii	"[G\265\005\302uX |\3465\3170\2679\3742\202\346af)\254"
 214      C2755820 
 214      7CE635CF 
 214      30B739FC 
 214      3282E661 
 215 06c0 B655ECE7 		.ascii	"\266U\354\347\024\310\027O=\326\266EQfe:\221\243]\223"
 215      14C8174F 
 215      3DD6B645 
 215      5166653A 
 215      91A35D93 
 216 06d4 A313E4B8 		.ascii	"\243\023\344\270\360=\310q\315\261\034\003Mr\304\006"
 216      F03DC871 
 216      CDB11C03 
 216      4D72C406 
 217 06e4 3A97E394 		.ascii	":\227\343\224&\307w G\347\367 \307}\307r\344\021r\300"
 217      26C77720 
 217      47E7F720 
 217      C77DC772 
 217      E41172C0 
 218 06f8 6A6D90BA 		.ascii	"jm\220\272Z\353\3174\245^\255a~\272\270\376\246\375"
 218      5AEBCF34 
 218      A55EAD61 
 218      7EBAB8FE 
 218      A6FD
 219 070a ED8378CB 		.ascii	"\355\203x\313\021gSl~\034$\226\270\012\335\022\367\272"
 219      1167536C 
 219      7E1C2496 
 219      B80ADD12 
 219      F7BA
 220 071c A6B17A1E 		.ascii	"\246\261z\036k\354\205^\026[\302TH\035\037}\330\242"
 220      6BEC855E 
 220      165BC254 
 220      481D1F7D 
 220      D8A2
 221 072e 6DFFCC06 		.ascii	"m\377\314\006\250\271=\206Ztp\273\372\271\361E\000j"
 221      A8B93D86 
 221      5A7470BB 
 221      FAB9F145 
 221      006A
 222 0740 EA65B662 		.ascii	"\352e\266b\246\311\210\231F#\242W\334\322m\274\342f"
 222      A6C98899 
 222      4623A257 
 222      DCD26DBC 
 222      E266
 223 0752 FFA0E5E0 		.ascii	"\377\240\345\340\0277\363\377^\217cV\001\373\330\200"
 223      1737F3FF 
 223      5E8F6356 
 223      01FBD880 
 224 0762 0E0354D2 		.ascii	"\016\003T\322\201\236h\323\202\213j\244u\377\024b}\254"
 224      819E68D3 
 224      828B6AA4 
 224      75FF1462 
 224      7DAC
 225 0774 759EBE4D 		.ascii	"u\236\276M3\034\207\227\315\377$\334\247\207\234o\254"
 225      331C8797 
 225      CDFF24DC 
ARM GAS  /tmp/cceabomF.s 			page 17


 225      A7879C6F 
 225      AC
 226 0785 C47EA87A 		.ascii	"\304~\250z\335B\020\250\265\233\205{\264\261\262\247"
 226      DD4210A8 
 226      B59B857B 
 226      B4B1B2A7 
 227 0795 A782242E 		.ascii	"\247\202$.\216\371\250\027E\020\361\245\262\326\355"
 227      8EF9A817 
 227      4510F1A5 
 227      B2D6ED
 228 07a4 41949B33 		.ascii	"A\224\2333\211M\310K\003\332A\031\313x\274}w\320\244"
 228      894DC84B 
 228      03DA4119 
 228      CB78BC7D 
 228      77D0A4
 229 07b7 0C8A4D9E 		.ascii	"\014\212M\236\016\250\262\222\357\266}w\364\021u\227"
 229      0EA8B292 
 229      EFB67D77 
 229      F4117597 
 230 07c7 05FF44B1 		.ascii	"\005\377D\261\311c\330\276\023"
 230      C963D8BE 
 230      13
 231 07d0 D8551CA7 		.ascii	"\330U\034\247\301\366T\237\006\023&\371C\320<\236/\254"
 231      C1F6549F 
 231      061326F9 
 231      43D03C9E 
 231      2FAC
 232 07e2 E60DDBFC 		.ascii	"\346\015\333\374\227\035\353\336G\352>v\367\320*V\345"
 232      971DEBDE 
 232      47EA3E76 
 232      F7D02A56 
 232      E5
 233 07f3 5FDDCEFD 		.ascii	"_\335\316\375\332\2147\202\234\313iI\333u\253\022k:"
 233      DA8C3782 
 233      9CCB6949 
 233      DB75AB12 
 233      6B3A
 234 0805 0C9330B5 		.ascii	"\014\2230\265\323=\240a.\305Rs\215\012\246:\374\013"
 234      D33DA061 
 234      2EC55273 
 234      8D0AA63A 
 234      FC0B
 235 0817 594EC17C 		.ascii	"YN\301|\006\260\335\013,\266\213\325-r\273\300\262\221"
 235      06B0DD0B 
 235      2CB68BD5 
 235      2D72BBC0 
 235      B291
 236 0829 27A64A2F 		.ascii	"'\246J/\323\264\237buz\374\360*\315S\324\235\321\025"
 236      D3B49F62 
 236      757AFCF0 
 236      2ACD53D4 
 236      9DD115
 237 083c 8EF18CF2 		.ascii	"\216\361\214\362\334X`\030\221\326\323\300\215\240v"
 237      DC586018 
 237      91D6D3C0 
 237      8DA076
 238 084b BCE4BE36 		.ascii	"\274\344\2766rB\230\250\376\211\303_\206V\003]\013t"
ARM GAS  /tmp/cceabomF.s 			page 18


 238      724298A8 
 238      FE89C35F 
 238      8656035D 
 238      0B74
 239 085d 3DD0F340 		.ascii	"=\320\363@/\002\275\004\364\177\201~\003\364\016\320"
 239      2F02BD04 
 239      F47F817E 
 239      03F40ED0 
 240 086d 074097F2 		.ascii	"\007@\227\362P\027\350+@\327\001\335\000t\023\3207H"
 240      5017E82B 
 240      40D701DD 
 240      007413D0 
 240      3748
 241 087f F7B6B38B 		.ascii	"\367\266\263\213\332\325\022\035S\357u\215=\3364?\221"
 241      DAD5121D 
 241      53EF758D 
 241      3DDE343F 
 241      91
 242 0890 DC3417D8 		.ascii	"\3344\027\3305\216\301|\2514\331Hh\262\0114\271\010"
 242      358EC17C 
 242      A934D948 
 242      68B20934 
 242      B908
 243 08a2 B4B1D9D8 		.ascii	"\264\261\331\330\2217g\351\237qRt<{\021\342\237}u\311"
 243      913767E9 
 243      9F715274 
 243      3C7B11E2 
 243      9F7D75C9 
 244 08b6 BD4289BD 		.ascii	"\275B\211\275\300\353+\240\255f\300\264\0134\243N\036"
 244      C0EB2BA0 
 244      AD66C0B4 
 244      0B34A34E 
 244      1E
 245 08c7 88A61317 		.ascii	"\210\246\023\027\3527*;\233\264\220}e\227\343\266S\252"
 245      EA372A3B 
 245      9BB4907D 
 245      6597E3B6 
 245      53AA
 246 08d9 700EA1C2 		.ascii	"p\016\241\302y\240\302\227@\205[\300e\336&\025)\260"
 246      79A0C297 
 246      40855BC0 
 246      65DE2615 
 246      29B0
 247 08eb 7339D379 		.ascii	"s9\323y\023\343\007\263\024\215'>rw\236\2608p\242~*"
 247      13E307B3 
 247      148D273E 
 247      72779EB0 
 247      3870A27E 
 248 0900 4A119496 		.ascii	"J\021\224\226\275\327\361\350f\010\035[yl\200\273Y\346"
 248      BDD7F1E8 
 248      66081D5B 
 248      796C80BB 
 248      59E6
 249 0912 08BD9833 		.ascii	"\010\275\2303m\236\233\034\231c\026dS|\200L\261\222"
 249      6D9E9B1C 
 249      99631664 
 249      537C804C 
ARM GAS  /tmp/cceabomF.s 			page 19


 249      B192
 250 0924 695970EB 		.ascii	"iYp\353\004;k\226\262)O\233Y(\015\312\300M\311 \330"
 250      043B6B96 
 250      B2294F9B 
 250      59280DCA 
 250      C04DC920 
 251 0939 47C7E012 		.ascii	"G\307\340\022|\307\266\251\037R\333`\224]\222my\276"
 251      7CC7B6A9 
 251      1F52DB60 
 251      945D926D 
 251      79BE
 252 094b 213D4CBC 		.ascii	"!=L\274\243a\373\0230\003\335\005@k{\014\264h\356k\352"
 252      A361FB13 
 252      3003DD05 
 252      406B7B0C 
 252      B468EE6B 
 253 0960 41893D00 		.ascii	"A\211=\000\264)\333\254F\3364\317\341\215\363\034\336"
 253      B429DBAC 
 253      46DE34CF 
 253      E18DF31C 
 253      DE
 254 0971 9B4C7475 		.ascii	"\233Ltu\361\314\277\2600\232\206\231\015f\220(\335\334"
 254      F1CCBFB0 
 254      309A8699 
 254      0D669028 
 254      DDDC
 255 0983 071BECBE 		.ascii	"\007\033\354\276\346l\372\011\223\0354.`@4\270@\354"
 255      E66CFA09 
 255      931D342E 
 255      604034B8 
 255      40EC
 256 0995 DE1918CB 		.ascii	"\336\031\030\313T\260\367i\300RlC/Y\263\326\366\033"
 256      54B0F769 
 256      C0526C43 
 256      2F59B3D6 
 256      F61B
 257 09a7 5673DAA3 		.ascii	"Vs\332\243W\361\266\213\007~\201\017\002\246?~u\220"
 257      57F1B68B 
 257      077E810F 
 257      02A63F7E 
 257      7590
 258 09b9 A73B7EF5 		.ascii	"\247;~\3651o\376\316}\030\216_}L5[\273e5\007\260:\215"
 258      316FFECE 
 258      7D188E5F 
 258      7D4C355B 
 258      BB653507 
 259 09d0 98183206 		.ascii	"\230\0302\006$\2059y\345\3003\352\251\306\2430\351<"
 259      24853979 
 259      E5C033EA 
 259      A9C6A330 
 259      E93C
 260 09e2 F283F4A7 		.ascii	"\362\203\364\247\032\0158\230\277cf\376[\217\000\377"
 260      1A0D3898 
 260      BF6366FE 
 260      5B8F00FF 
 261 09f2 C7D2F3FF 		.ascii	"\307\322\363\377\302\254\330v\355\233\036t\246Y)\227"
 261      C2ACD876 
ARM GAS  /tmp/cceabomF.s 			page 20


 261      ED9B1E74 
 261      A6592997 
 262 0a02 0D027B15 		.ascii	"\015\002{\025\216\210\320,\002\276\004I\2169\237\264"
 262      8E88D02C 
 262      02BE0449 
 262      8E399FB4 
 263 0a12 6A6CED50 		.ascii	"jl\355P\277\311\234\200\376z\3011\230\317\000\266\223"
 263      BFC99C80 
 263      FE7AC131 
 263      98CF00B6 
 263      93
 264 0a23 04BB4203 		.ascii	"\004\273B\003f\027\304\020\330.\022\354\037\216\301"
 264      6617C410 
 264      D82E12EC 
 264      1F8EC1
 265 0a32 8C9CBD47 		.ascii	"\214\234\275G\202}M\003f\267[\211\300\216\222`\267\035"
 265      827D4D03 
 265      66B75B89 
 265      C08E9260 
 265      B71D
 266 0a44 83F9ACBC 		.ascii	"\203\371\254\274\204\351\346d\002\373\031\254\032\216"
 266      84E9E664 
 266      02FB19AC 
 266      1A8E
 267 0a52 43A43C05 		.ascii	"C\244<\005\3644\320\317\201\376\015h\234f\322u\204\014"
 267      F434D0CF 
 267      81FE0D68 
 267      9C66D275 
 267      840C
 268 0a64 F0F780E1 		.ascii	"\360\367\200\341\217{\3461h\330k\273\370\305\323\352"
 268      8F7BE631 
 268      68D86BBB 
 268      F8C5D3EA 
 269 0a74 EEAF29C6 		.ascii	"\356\257)\306b}\330qp\236\344`V\216S\016|$\007\261\273"
 269      627DD871 
 269      709EE460 
 269      568E530E 
 269      7C2407B1 
 270 0a89 87D59D4B 		.ascii	"\207\325\235K\375\240\367\213f<\332\243Y\372t\351p\326"
 270      FDA0F78B 
 270      663CDAA3 
 270      59FA74E9 
 270      70D6
 271 0a9b DBCFE960 		.ascii	"\333\317\351`/;\0063\034\277\2165\036!\300V8\006\353"
 271      2F3B0633 
 271      1CBF8E35 
 271      1E21C056 
 271      3806EB
 272 0aae D3CD2354 		.ascii	"\323\315#T_\370\004|\3410\330\374\177\200^\004z\011"
 272      5FF8047C 
 272      E130D8FC 
 272      7F805E04 
 272      7A09
 273 0ac0 E815E384 		.ascii	"\350\025\343\204\2649\307\034w\3251\226@M\016\306\014"
 273      B439C71C 
 273      77D53196 
 273      404D0EC6 
ARM GAS  /tmp/cceabomF.s 			page 21


 273      0C
 274 0ad1 2DAE9D6D 		.ascii	"-\256\235m\333I\333\266\3468\215Z\006\333\242\240\272"
 274      DB49DBB6 
 274      E6388D5A 
 274      06DBA2A0 
 274      BA
 275 0ae2 FF2B3DA8 		.ascii	"\377+=\250\266\303\\\254\215\0061\305Jt\353\337\314"
 275      B6C35CAC 
 275      8D0631C5 
 275      4A74EBDF 
 275      CC
 276 0af3 9F03AC46 		.ascii	"\237\003\254F{\216\344-\0215\366NR\243\306M\210\032"
 276      7B8EE42D 
 276      1135F64E 
 276      52A3C64D 
 276      881A
 277 0b05 7B72D247 		.ascii	"{r\322G\015\316(\243\300v\232\243\306\235c\0205:\251"
 277      0DCE28A3 
 277      C0769AA3 
 277      C69D6310 
 277      353AA9
 278 0b18 A2C6FD63 		.ascii	"\242\306\375c\213\265\225\242:\332\034\002\026:{<\334"
 278      8BB595A2 
 278      3ADA1C02 
 278      163A7B3C 
 278      DC
 279 0b29 3F38460C 		.ascii	"?8F\014]G\034\203\371\014`\215'\010\260c4`)\206\373"
 279      5D471C83 
 279      F90C608D 
 279      2708B063 
 279      34602986 
 280 0b3e 2612EC94 		.ascii	"&\022\354\224c0#g\213I\260\2634`)\206\373\245$X\334"
 280      63302367 
 280      8B49B0B3 
 280      34602986 
 280      FBA52458 
 281 0b53 319891B3 		.ascii	"1\230\221\263\345$\330y\0320\273O8\010l%\011v\3111\230"
 281      E524D879 
 281      1A30BB4F 
 281      38086C25 
 281      0976C931 
 282 0b68 91B35524 		.ascii	"\221\263U$\330\337i\300|\366\234\255!\301n:\006\363"
 282      D8DF69C0 
 282      7CF69CAD 
 282      21C16E3A 
 282      06F3
 283 0b7a 597509F5 		.ascii	"Yu\011\365\"{\224\300~\013\303\342-\030\254\356\000"
 283      227B94C0 
 283      7E0BC3E2 
 283      2D18ACEE 
 283      00
 284 0b8b BD0BF43E 		.ascii	"\275\013\364>\320.\2403]\230\316\002:\033\350\037\201"
 284      D02EA033 
 284      5D98CE02 
 284      3A1BE81F 
 284      81
 285 0b9c CE71510C 		.ascii	"\316qQ\014n7\310\301\355\226\343\241(\245 \311\277\310"
ARM GAS  /tmp/cceabomF.s 			page 22


 285      6E37C8C1 
 285      ED96E3A1 
 285      28A520C9 
 285      BFC8
 286 0bae 08ECFB30 		.ascii	"\010\354\3730\343\373\000\216\360\036\007\252\300:y"
 286      E3FB008E 
 286      F01E07AA 
 286      C03A79
 287 0bbd 36D05610 		.ascii	"6\320V\020d\007\320\017\200\356\003\272\037\350?\200"
 287      6407D00F 
 287      80EE03BA 
 287      1FE83F80 
 288 0bcd 5EA719AB 		.ascii	"^\247\031\253w'\017\376\242\365\270\013/\2677\364\370"
 288      77270FFE 
 288      A2F5B80B 
 288      2FB737F4 
 288      F8
 289 0bde 48F98583 		.ascii	"H\371\205\203/;=\223\1775\276Q\373j2\037\316o\337\355"
 289      2F3B3D93 
 289      7F35BE51 
 289      FB6A321F 
 289      CE6FDFED 
 290 0bf2 16A97AB4 		.ascii	"\026\251z\264\025>\2737\233^\222\224\207\263\015Mn "
 290      153EBB37 
 290      9B5E9294 
 290      87B30D4D 
 290      6E20
 291 0c04 0CB3110C 		.ascii	"\014\263\021\014\363\032\230d+\320]@_\"\275\3074\023"
 291      F31A9864 
 291      2BD05D40 
 291      5F22BDC7 
 291      3413
 292 0c16 C2C1DFCE 		.ascii	"\302\301\337\316\002\013]\011\013<\306\254Q\232\343"
 292      020B5D09 
 292      0B3CC6AC 
 292      519AE3
 293 0c25 F1BF7C77 		.ascii	"\361\277|w@\300\333?JW\327\037\230\207\231%\332g#\205"
 293      40C0DB3F 
 293      4A57D71F 
 293      98879925 
 293      DA672385 
 294 0c39 956D8FFC 		.ascii	"\225m\217\374a\240E\256\207!\305\253\307\340{t\224\266"
 294      61A045AE 
 294      8721C5AB 
 294      C7E07B74 
 294      94B6
 295 0c4b EBBB2F1E 		.ascii	"\353\273/\036\207\365\372R\027\016p-\275\323\0068#\014"
 295      87F5FA52 
 295      170E702D 
 295      BDD30638 
 295      230C
 296 0c5d E66385CB 		.ascii	"\346c\205\313\024\340\356\342\377U\342\334\364_\360"
 296      14E0EEE2 
 296      FF55E2DC 
 296      F45FF0
 297 0c6c BAD6E3E3 		.ascii	"\272\326\343\343\313\372\337<wB\363\270\246\326\230"
 297      CBFADF3C 
ARM GAS  /tmp/cceabomF.s 			page 23


 297      7742F3B8 
 297      A6D698
 298 0c7b 6109996E 		.ascii	"a\011\231nf\252\304\026^[\316\003\334\240^\010m\257"
 298      66AAC416 
 298      5E5BCE03 
 298      DCA05E08 
 298      6DAF
 299 0c8d 19CD490C 		.ascii	"\031\315I\014\301\333\341\237\260x\022\002X\007i\260"
 299      C1DBE19F 
 299      B0781202 
 299      580769B0 
 300 0c9d 6CCF3728 		.ascii	"l\3177(\261%\235\036\304X_\246QS\247\372\321\320JJ\254"
 300      B1259D1E 
 300      C4585FA6 
 300      5153A7FA 
 300      D1D04A4A 
 301 0cb2 B3575D7D 		.ascii	"\263W]}!e\370\204\010%\354|a\235+y\234 \333\233L\350"
 301      2165F884 
 301      0825EC7C 
 301      619D2B79 
 301      9C20DB9B 
 302 0cc8 7FEBE498 		.ascii	"\177\353\344\230\2234\272\265=T\241\304\226f\264\347"
 302      9334BAB5 
 302      3D54A1C4 
 302      9666B4E7 
 303 0cd8 D9F0DF9C 		.ascii	"\331\360\337\234\230\363<\256\261\263\321\261\000\257"
 303      98F33CAE 
 303      B1B3D1B1 
 303      00AF
 304 0ce6 D908E049 		.ascii	"\331\010\340I\010\320a\026\300\330l\212\220du\221n+"
 304      08D06116 
 304      C0D86C8A 
 304      90647591 
 304      6E2B
 305 0cf8 B02B5DB0 		.ascii	"\260+]\260K\016Qa5\320\265@_\001\272\201&N,Ivk\255C"
 305      4B0E5161 
 305      35D0B540 
 305      5F01BA81 
 305      264E2C49 
 306 0d10 2606DBC4 		.ascii	"&\006\333\304\273\3665^`'&7\2538\346\214\251\323=\316"
 306      BBF6355E 
 306      60272637 
 306      AB38E68C 
 306      A9D33DCE 
 307 0d24 AC539426 		.ascii	"\254S\224&<*\354\305\023\341\321*6\307|\005\345\232"
 307      3C2AECC5 
 307      13E1D12A 
 307      36C77C05 
 307      E59A
 308 0d36 5C8F59F2 		.ascii	"\\\217Y\362\240q\240VV\332\304\321j\363\034s5M5`R\253"
 308      A071A056 
 308      56DAC4D1 
 308      6AF31C73 
 308      354D3560 
 309 0d4c 76E7B703 		.ascii	"v\347\267\003\364\225\313Ms5\323\011\030M\226\377`6"
 309      F495CB4D 
 309      7335D309 
ARM GAS  /tmp/cceabomF.s 			page 24


 309      184D96FF 
 309      6036
 310 0d5e 600BCF57 		.ascii	"`\013\317Wf\367aa\264b\264Z\006]\277\3512\374\017\\"
 310      66F76161 
 310      B462B45A 
 310      065DBFE9 
 310      32FC0F5C 
 311 0d72 1DF7621D 		.ascii	"\035\367b\035\237g7\316\214wu=f\032\363\352S\254#\267"
 311      9F6737CE 
 311      8C77753D 
 311      661AF3EA 
 311      53AC23B7 
 312 0d86 1A073D55 		.ascii	"\032\007=Uj\355\305\303\374Q\375G\2222\223\375=c\311"
 312      6AEDC5C3 
 312      FC51FD47 
 312      923293FD 
 312      3D63C9
 313 0d99 77F2948F 		.ascii	"w\362\224\217\300nwyp\000\352\315\332y\010.\240\233"
 313      C06E7779 
 313      7000EACD 
 313      DA79082E 
 313      A09B
 314 0dab 5C4DEB29 		.ascii	"\\M\353)\226\261\260\343\314>VvT\356\0065\013\012\354"
 314      96B1B0E3 
 314      CC3E5676 
 314      54EE0635 
 314      0B0AEC
 315 0dbe 5B106F5B 		.ascii	"[\020o[\251,\270\026\233Beq>\000\267\332\232B\343S3"
 315      A92CB816 
 315      9B426571 
 315      3E00B7DA 
 315      9A42E353 
 316 0dd3 C59F1B66 		.ascii	"\305\237\033f\367q\251JdR\264\246I\260\323\3222\367"
 316      F771A94A 
 316      6452B4A6 
 316      49B0D3D2 
 316      32F7
 317 0de5 82EDCA75 		.ascii	"\202\355\312u\024Z\035\030&fe\030\223\206\226Xk\350"
 317      145A1D18 
 317      26666518 
 317      93869658 
 317      6BE8
 318 0df7 BE59437B 		.ascii	"\276YC{Rk\310NT\273j\032\207\357w\027\365\355xl\253"
 318      526BC84E 
 318      54BB6A1A 
 318      87EF7717 
 318      F5ED786C 
 319 0e0c E858D48F 		.ascii	"\350X\324\217R\370\240\300\016\311\262\360\215W\255"
 319      52F8A0C0 
 319      0EC9B2F0 
 319      8D57AD
 320 0e1b 24AF57FE 		.ascii	"$\257W\376$\232$\337G\341\033\365\3121\\m\010\356\334"
 320      249A24DF 
 320      47E11BF5 
 320      CA315C6D 
 320      08EEDC
 321 0e2e EF02AE7D 		.ascii	"\357\002\256}\255!)\324eWK\223\362\200\245\272nk\352"
ARM GAS  /tmp/cceabomF.s 			page 25


 321      AD2129D4 
 321      65574B93 
 321      F280A5BA 
 321      6E6BEA
 322 0e41 52B58096 		.ascii	"R\265\200\226\304\326\202\265\230\005;L%XGB\260\023"
 322      C4D682B5 
 322      98053B4C 
 322      25584742 
 322      B013
 323 0e53 806B5F2B 		.ascii	"\200k_+\225`v\2654\301\216t\027,\336\030\3377\357\020"
 323      956076B5 
 323      34C18E74 
 323      172CDE18 
 323      DF37EF10 
 324 0e67 FB629372 		.ascii	"\373b\223r\017\177\033\240\237\203\035O1\007Sg5v5O\322"
 324      0F7F1BA0 
 324      9F831D4F 
 324      31075367 
 324      3576354F 
 325 0e7c C78BC4FB 		.ascii	"\307\213\304\373|\227e\3740\231@\227\363\214\225\234"
 325      7C9765FC 
 325      30994097 
 325      F38C959C 
 326 0e8c B1739FBF 		.ascii	"\261s\237\277\244\260\216\207\335\263f\227?I\272\274"
 326      A4B08E87 
 326      DDB36697 
 326      3F49BABC 
 327 0e9c 360099F8 		.ascii	"6\000\231\370\272b\303W\334\222\257\353\347\025\217"
 327      BA62C357 
 327      DC92AFEB 
 327      E7158F
 328 0eab E39EF865 		.ascii	"\343\236\370eJ\266\264\231\266\255:m~7\211q\307F\214"
 328      4AB6B499 
 328      B6AD3A6D 
 328      7E378971 
 328      C7468C
 329 0ebe 4B46314C 		.ascii	"KF1L\246\307\216a\307\365\345\244\351M\265\316\246\250"
 329      A6C78E61 
 329      C7F5E5A4 
 329      E94DB5CE 
 329      A6A8
 330 0ed0 75C5B6D6 		.ascii	"u\305\266\326\227)j]M\326b\036*\226B\323D)\232\033*"
 330      97296A5D 
 330      4DD6621E 
 330      2A9642D3 
 330      44299A1B 
 331 0ee5 08F8A362 		.ascii	"\010\370\243bM4,\015\252d\262J\013\212\312\341\305/"
 331      4D342C0D 
 331      AA64B24A 
 331      0B8ACAE1 
 331      C52F
 332 0ef7 67FE6ADC 		.ascii	"g\376j\334D_\021\323;\231\025\225\005Y\364\224\216\033"
 332      445F11D3 
 332      3B991595 
 332      0559F494 
 332      8E1B
 333 0f09 595451FA 		.ascii	"YTQ\372\353\022Wi\361\230\022\327/'\226O\312\200\037"
ARM GAS  /tmp/cceabomF.s 			page 26


 333      EB125769 
 333      F19812D7 
 333      2F27964F 
 333      CA801F
 334 0f1c 1ECFAD8D 		.ascii	"\036\317\255\215J\271\202T\375dM\270F|R\024&\207rC5"
 334      4AB98254 
 334      FD644DB8 
 334      467C5214 
 334      26877243 
 335 0f31 81AADAA0 		.ascii	"\201\252\332\240\230\033\225\203\241\032\0315\340\256"
 335      981B9583 
 335      A11A1935 
 335      E0AE
 336 0f3f 45CFA17E 		.ascii	"E\317\241~yp\212\302\325B\2402T#\346\372\203\342\024"
 336      79708AC2 
 336      D542A032 
 336      5423E6FA 
 336      83E214
 337 0f52 A1B64AF6 		.ascii	"\241\266J\366\3133\"b\024U\366\372\375Zu\267\020\014"
 337      CB332262 
 337      1455F6FA 
 337      FD5A75B7 
 337      100C
 338 0f64 4A62345A 		.ascii	"Jb4Z\234[\031\256\026s\003\341\340\214\334\2408-\027"
 338      9C5B19AE 
 338      167303E1 
 338      E08CDCA0 
 338      382D17
 339 0f77 559C1C0A 		.ascii	"U\234\034\012Gse\251\266\346\371\\\224\250\024\252r"
 339      477365A9 
 339      B6E6F95C 
 339      94A814AA 
 339      72
 340 0f88 2361498E 		.ascii	"#aI\216\346\226W\214-,\310\0353\2468\027\0114-\037\344"
 340      E696578C 
 340      2D2CC81D 
 340      33A63817 
 340      09342D1F 
 341 0f9d AEAA0A   		.ascii	"\256\252\012"
 342 0fa0 625894A1 		.ascii	"bX\224\241j\243\200\006Ng\023\001\240\312\275\320\003"
 342      6AA38006 
 342      4E671301 
 342      A0CABDD0 
 342      03
 343 0fb1 C4F7CBBD 		.ascii	"\304\367\313\275\020\216\177\342\270\322q\245\025\036"
 343      108E7FE2 
 343      B8D271A5 
 343      151E
 344 0fbf 9C2CAF18 		.ascii	"\234,\257\030?\001c\373\313JF\026O\372\001N\251\232"
 344      3F0163FB 
 344      CB4A4616 
 344      4FFA014E 
 344      A99A
 345 0fd1 F3573C4B 		.ascii	"\363W<K\276\225=\0135\307\214/\372\257\222\342,\204"
 345      BE953D0B 
 345      35C78C2F 
 345      FAAF92E2 
ARM GAS  /tmp/cceabomF.s 			page 27


 345      2C84
 346 0fe3 178E5487 		.ascii	"\027\216T\207\203\030p\374\204\261\343\213K\374\350"
 346      831870FC 
 346      84B1E38B 
 346      4BFCE8
 347 0ff2 D7FE5AB2 		.ascii	"\327\376Z\262|,R\270\277\270\344\327\245E"
 347      7C2C52B8 
 347      BFB8E4D7 
 347      A545
 348 1000 257D0D79 		.ascii	"%}\015y\243\307\227W\270\303\021?\256\352\301j*,@\010"
 348      A3C79757 
 348      B8C3113F 
 348      AEEAC16A 
 348      2A2C4008 
 349 1014 AAC67032 		.ascii	"\252\306p2+P\025\016<\357\217FD1\230\203\032\011\326"
 349      2B50150E 
 349      3CEF8F46 
 349      44319883 
 349      1A09D6
 350 1027 CA330233 		.ascii	"\3123\0023\002U\250\235\234\362\212b\177\361\304\212"
 350      0255A89D 
 350      9CF28A62 
 350      7FF1C48A 
 351 1037 49FEA249 		.ascii	"I\376\242IEcJ\372\216\032Y^A\274\373\013\376\315\234"
 351      45634AFA 
 351      8E1A595E 
 351      41BCFB0B 
 351      FECD9C
 352 104a 933FC43F 		.ascii	"\223?\304?\254\027F\360\003\004\226\262(\\3%453\000"
 352      AC1746F0 
 352      030496B2 
 352      285C3325 
 352      34353300 
 353 105e 0FAC9529 		.ascii	"\017\254\225)U\302\324(r#Q\222\302R\2640\235j%9\241"
 353      55C2D428 
 353      72235192 
 353      C252B430 
 353      9D6A2539 
 354 1073 D94065B5 		.ascii	"\331@e\265\\\207\235\245\272V\026\353\374r\006<\207"
 354      5C879DA5 
 354      BA5616EB 
 354      FC72063C 
 354      87
 355 1084 3A4288CE 		.ascii	":B\210\316\210\352n\323[\256\224D!\030\365\377\276V"
 355      88EA6ED3 
 355      5BAE9444 
 355      2118F5FF 
 355      BE56
 356 1096 AC45E2F6 		.ascii	"\254E\342\366\011T\372\015Y\203\235!\007*\261\327xT"
 356      0954FA0D 
 356      59839D21 
 356      072AB1D7 
 356      7854
 357 10a8 08BFEC4D 		.ascii	"\010\277\354M\300eF\3745b\235\214\036\021I\2346\232"
 357      C06546FC 
 357      35629D8C 
 357      1E11499C 
ARM GAS  /tmp/cceabomF.s 			page 28


 357      369A
 358 10ba 025575CD 		.ascii	"\002Uu\315\221ec\213\306\326\241\222\325\221P\025\356"
 358      9165638B 
 358      C6D6A192 
 358      D5915015 
 358      EE
 359 10cb 93BF2A2A 		.ascii	"\223\277**B\305u\376\335rD\012\205\375*n(\354F*F\352"
 359      42C575FE 
 359      DD72440A 
 359      85FD2A6E 
 359      28EC462A 
 360 10e1 908739C6 		.ascii	"\220\2079\306\257\014\204%\021\367r\234\355G~\021\220"
 360      AF0C8425 
 360      11F7729C 
 360      ED477E11 
 360      90
 361 10f2 EBFEB367 		.ascii	"\353\376\263g(\376iOUc%H\342T\324\211\3752\037\315\037"
 361      28FE694F 
 361      55632548 
 361      E254D489 
 361      FD321FCD 
 362 1107 82EEA7D0 		.ascii	"\202\356\247\320=\024\335\303\370hA\036\272\363\321"
 362      3D14DDC3 
 362      F868411E 
 362      BAF3D1
 363 1116 5D80EE42 		.ascii	"]\200\356Bt\017F\367\317\321\215\312\025\240r\005\250"
 363      740F46F7 
 363      CFD18DCA 
 363      15A07205 
 363      A8
 364 1127 5C012A57 		.ascii	"\\\001*W\210\312\025\346s\322`N\3729'\015\341\244\247"
 364      88CA15E6 
 364      73D2604E 
 364      FA39270D 
 364      E1A4A7
 365 113a 38692827 		.ascii	"8i('\015\343\245\374<t\347sU\022z\024fD\374\210[7\326"
 365      0DE3A5FC 
 365      3C74E773 
 365      55127A14 
 365      6644FC88 
 366 1151 F0745142 		.ascii	"\360tQB\317pUP\224\\\201JA\302j\027\252E\217\254\365"
 366      CF705550 
 366      945C814A 
 366      41C26A17 
 366      AA458FAC 
 367 1166 43F423A4 		.ascii	"C\364#\244\334\262\332\215\320;\370\242[\226\304)Q\320"
 367      DCB2DA8D 
 367      D03BF8A2 
 367      5B96C429 
 367      51D0
 368 1178 234E6454 		.ascii	"#NdTG\247\242\037\265\356\201\306\026-\225)\005g\240"
 368      47A7A21F 
 368      B5EE81C6 
 368      162D9529 
 368      0567A0
 369 118b 9F3C625D 		.ascii	"\237<b]HFj\0213\247\313\341\311\277\213d\211\323\304"
 369      48466A11 
ARM GAS  /tmp/cceabomF.s 			page 29


 369      33A7CBE1 
 369      C9BF8B64 
 369      89D3C4
 370 119e 1AB95A88 		.ascii	"\032\271Z\210>\217}z:N\360\021\177m\216\356IU\241(\032"
 370      3E8F7D7A 
 370      3A4EF011 
 370      7F6D8EEE 
 370      4955A128 
 371 11b3 A97A13BE 		.ascii	"\251z\023\276\205s\274\021\377t!$\207j\246\366B]3:\025"
 371      8573BC11 
 371      FF742124 
 371      876AA6F6 
 371      425D333A 
 372 11c8 FC2D0392 		.ascii	"\374-\003\222(C\214\2105h`\234\212J!\217\307\345{a\336"
 372      28438C88 
 372      3568609C 
 372      8A4A218F 
 372      C7E57B61 
 373 11dd 842AB033 		.ascii	"\204*\2603\312\214\204\303U\356j\325K\3213<\275F\224"
 373      CA8C84C3 
 373      55EE6AD5 
 373      4BD1333C 
 373      BD4694
 374 11f0 32ABC1CB 		.ascii	"2\253\301\313\236r\344\264\032O\310d\3754\277E*\020"
 374      9E72E4B4 
 374      1A4FC864 
 374      FD34BF45 
 374      2A10
 375 1202 25B12680 		.ascii	"%\261&\200\024\224\251fyQ\247\305\343\252_\206\361\003"
 375      1494A966 
 375      7951A7C5 
 375      E3AA5F86 
 375      F103
 376 1214 F5717DFC 		.ascii	"\365q}\374\300I\027\376\311+\325\005\253\005\254V\257"
 376      C04917FE 
 376      C92BD505 
 376      AB05AC56 
 376      AF
 377 1225 ACA74639 		.ascii	"\254\247F9\035\203\201\216\032\\W\207\302B5\3228\302"
 377      1D83818E 
 377      1A5C5787 
 377      C24235D2 
 377      38C2
 378 1237 417C3D9D 		.ascii	"A|=\235\016\006\311\234[4\266\274\264\034\001\2505\247"
 378      0E06C99C 
 378      5B34B6BC 
 378      B41C01A8 
 378      35A7
 379 1249 0CCECBAF 		.ascii	"\014\316\313\257\303\016\335\257x\354H\17792\257P\355"
 379      C30EDDAF 
 379      78EC487F 
 379      3932AF50 
 379      ED
 380 125a AF40BDA6 		.ascii	"\257@\275\246X\234\302\025\225\271\306\025W\224\361"
 380      589CC215 
 380      95B9C615 
 380      5794F1
ARM GAS  /tmp/cceabomF.s 			page 30


 381 1269 134696B9 		.ascii	"\023F\226\271\306\346a\222?\262\214\037UT\226\031\205"
 381      C6E66192 
 381      3FB28C1F 
 381      55549619 
 381      85
 382 127a 82AED094 		.ascii	"\202\256\320\224\200\224\031\212V\206\246\310\336\250"
 382      8094198A 
 382      5686A6C8 
 382      DEA8
 383 1288 58352554 		.ascii	"X5%T\023\024\3532\247\211\0019,\365Kp\346WK\243A\010"
 383      1314EB32 
 383      A7890139 
 383      2CF54B70 
 383      E6574BA3 
 384 129e BD487598 		.ascii	"\275Hu\230\312u8L\352\015\361Ee\371\350.p\215\037Y\226"
 384      CA75384C 
 384      EA0DF145 
 384      65F9E82E 
 384      708D1F59 
 385 12b3 8F490157 		.ascii	"\217I\001W\\\306\227\243\314\362\262\002\276\250\250"
 385      5CC697A3 
 385      CCF2B202 
 385      BEA8A8
 386 12c2 2CA3A2AC 		.ascii	",\243\242\254\264\274\3045j\014b\006i\330\213G\246P"
 386      B4BCC435 
 386      6A0C6206 
 386      69D88B47 
 386      A650
 387 12d4 35F64BFC 		.ascii	"5\366K\374\010\327\312}\365P<\271:R04oP\2001\347\240"
 387      08D7CA7D 
 387      F5503CB9 
 387      3A523034 
 387      6F508031 
 388 12ea 8EA6A690 		.ascii	"\216\246\246\220\255\324X\355\251\022\242r\205X\035"
 388      ADD458ED 
 388      A912A272 
 388      85581D
 389 12f9 C9C68909 		.ascii	"\311\306\211\0118\026\326J\"[\301N\310\322J\206jB2\217"
 389      3816D64A 
 389      225BC14E 
 389      C8D24A86 
 389      6A42328F 
 390 130d D29941C0 		.ascii	"\322\231A\300\362L\026\242\342Hd\302\014\377/\221S\351"
 390      F24C16A2 
 390      E24864C2 
 390      0CFF2F91 
 390      53E9
 391 131f A5A27238 		.ascii	"\245\242r8\342\306\004I\224\255\345!0Q\356\237x\021"
 391      E2C60449 
 391      94ADE521 
 391      3051EE9F 
 391      7811
 392 1331 823ABC27 		.ascii	"\202:\274'\242%\036&~\304L\210\222 \243l\227\214\322"
 392      A2251E26 
 392      7EC44C88 
 392      9220A36C 
 392      978CD2
ARM GAS  /tmp/cceabomF.s 			page 31


 393 1344 39C9F902 		.ascii	"9\311\371\002f!\207\234>\204#\375\210\011\206$\324D"
 393      6621879C 
 393      3E8423FD 
 393      88098624 
 393      D444
 394 1356 8580FC7F 		.ascii	"\205\200\374\177\202\010\002>"
 394      8208023E 
 395              		.text
 396              		.section	.gnu.lto_.symtab.b9c28f35c85857dd,"",%progbits
 397 0000 626D7032 		.ascii	"bmp280_init\000\000\000\000\000\000\000\000\000\000"
 397      38305F69 
 397      6E697400 
 397      00000000 
 397      00000000 
 398 0015 00001202 		.ascii	"\000\000\022\002\000\000bmp280_stop\000\000\000\000"
 398      0000626D 
 398      70323830 
 398      5F73746F 
 398      70000000 
 399 002a 00000000 		.ascii	"\000\000\000\000\000\000\000\0003\002\000\000bmp280"
 399      00000000 
 399      33020000 
 399      626D7032 
 399      3830
 400 003c 5F726573 		.ascii	"_reset\000\000\000\000\000\000\000\000\000\000\000\000"
 400      65740000 
 400      00000000 
 400      00000000 
 400      0000
 401 004e 3F020000 		.ascii	"?\002\000\000bmp280_readPressure\000\000\000\000\000"
 401      626D7032 
 401      38305F72 
 401      65616450 
 401      72657373 
 402 006a 00000000 		.ascii	"\000\000\000\000\000\000\000E\002\000\000bmp280_rea"
 402      00000045 
 402      02000062 
 402      6D703238 
 402      305F7265 
 403 007f 6454656D 		.ascii	"dTemperature\000\000\000\000\000\000\000\000\000\000"
 403      70657261 
 403      74757265 
 403      00000000 
 403      00000000 
 404 0095 00004E02 		.ascii	"\000\000N\002\000\000I2CSensor_init\000\000\002\000"
 404      00004932 
 404      4353656E 
 404      736F725F 
 404      696E6974 
 405 00ad 00000000 		.ascii	"\000\000\000\000\000\000\000\000T\002\000\000I2CSen"
 405      00000000 
 405      54020000 
 405      49324353 
 405      656E
 406 00bf 736F725F 		.ascii	"sor_stop\000\000\002\000\000\000\000\000\000\000\000"
 406      73746F70 
 406      00000200 
ARM GAS  /tmp/cceabomF.s 			page 32


 406      00000000 
 406      000000
 407 00d2 005C0200 		.ascii	"\000\\\002\000\000I2CSensor_transact\000\000\002\000"
 407      00493243 
 407      53656E73 
 407      6F725F74 
 407      72616E73 
 408 00ed 00000000 		.ascii	"\000\000\000\000\000\000\000\000a\002\000\000"
 408      00000000 
 408      61020000 
 409              		.text
 410              		.section	.gnu.lto_.opts,"",%progbits
 411 0000 272D6D63 		.ascii	"'-mcpu=cortex-m4' '-mfloat-abi=hard' '-mfpu=fpv4-sp"
 411      70753D63 
 411      6F727465 
 411      782D6D34 
 411      2720272D 
 412 0033 2D643136 		.ascii	"-d16' '-mno-thumb-interwork' '-mthumb' '-O2' '-fomi"
 412      2720272D 
 412      6D6E6F2D 
 412      7468756D 
 412      622D696E 
 413 0066 742D6672 		.ascii	"t-frame-pointer' '-falign-functions=16' '-ffunction"
 413      616D652D 
 413      706F696E 
 413      74657227 
 413      20272D66 
 414 0099 2D736563 		.ascii	"-sections' '-fdata-sections' '-fno-common' '-flto' "
 414      74696F6E 
 414      73272027 
 414      2D666461 
 414      74612D73 
 415 00cc 272D6673 		.ascii	"'-fsingle-precision-constant'\000"
 415      696E676C 
 415      652D7072 
 415      65636973 
 415      696F6E2D 
 416              		.text
 417              		.section	.text.bmp280_init,"ax",%progbits
 418              		.align	2
 419              		.p2align 4,,15
 420              		.global	bmp280_init
 421              		.thumb
 422              		.thumb_func
 423              		.type	bmp280_init, %function
 424              	bmp280_init:
 425              		@ args = 0, pretend = 0, frame = 0
 426              		@ frame_needed = 0, uses_anonymous_args = 0
 427              		@ link register save eliminated.
 428 0000 2823     		movs	r3, #40
 429 0002 FFF7FEBF 		b	I2CSensor_init
 430              		.size	bmp280_init, .-bmp280_init
 431 0006 00BFAFF3 		.section	.text.bmp280_stop,"ax",%progbits
 431      0080AFF3 
 431      0080
 432              		.align	2
 433              		.p2align 4,,15
ARM GAS  /tmp/cceabomF.s 			page 33


 434              		.global	bmp280_stop
 435              		.thumb
 436              		.thumb_func
 437              		.type	bmp280_stop, %function
 438              	bmp280_stop:
 439              		@ args = 0, pretend = 0, frame = 0
 440              		@ frame_needed = 0, uses_anonymous_args = 0
 441              		@ link register save eliminated.
 442 0000 FFF7FEBF 		b	I2CSensor_stop
 443              		.size	bmp280_stop, .-bmp280_stop
 444 0004 AFF30080 		.section	.text.bmp280_reset,"ax",%progbits
 444      AFF30080 
 444      AFF30080 
 445              		.align	2
 446              		.p2align 4,,15
 447              		.global	bmp280_reset
 448              		.thumb
 449              		.thumb_func
 450              		.type	bmp280_reset, %function
 451              	bmp280_reset:
 452              		@ args = 0, pretend = 0, frame = 8
 453              		@ frame_needed = 0, uses_anonymous_args = 0
 454 0000 00B5     		push	{lr}
 455 0002 85B0     		sub	sp, sp, #20
 456 0004 04A9     		add	r1, sp, #16
 457 0006 E023     		movs	r3, #224
 458 0008 01F8013D 		strb	r3, [r1, #-1]!
 459 000c 0023     		movs	r3, #0
 460 000e 0093     		str	r3, [sp]
 461 0010 0122     		movs	r2, #1
 462 0012 FFF7FEFF 		bl	I2CSensor_transact
 463 0016 05B0     		add	sp, sp, #20
 464              		@ sp needed
 465 0018 5DF804FB 		ldr	pc, [sp], #4
 466              		.size	bmp280_reset, .-bmp280_reset
 467 001c AFF30080 		.section	.text.bmp280_readPressure,"ax",%progbits
 468              		.align	2
 469              		.p2align 4,,15
 470              		.global	bmp280_readPressure
 471              		.thumb
 472              		.thumb_func
 473              		.type	bmp280_readPressure, %function
 474              	bmp280_readPressure:
 475              		@ args = 0, pretend = 0, frame = 0
 476              		@ frame_needed = 0, uses_anonymous_args = 0
 477              		@ link register save eliminated.
 478 0000 0020     		movs	r0, #0
 479 0002 7047     		bx	lr
 480              		.size	bmp280_readPressure, .-bmp280_readPressure
 481 0004 AFF30080 		.section	.text.bmp280_readTemperature,"ax",%progbits
 481      AFF30080 
 481      AFF30080 
 482              		.align	2
 483              		.p2align 4,,15
 484              		.global	bmp280_readTemperature
 485              		.thumb
 486              		.thumb_func
ARM GAS  /tmp/cceabomF.s 			page 34


 487              		.type	bmp280_readTemperature, %function
 488              	bmp280_readTemperature:
 489              		@ args = 0, pretend = 0, frame = 0
 490              		@ frame_needed = 0, uses_anonymous_args = 0
 491              		@ link register save eliminated.
 492 0000 0020     		movs	r0, #0
 493 0002 7047     		bx	lr
 494              		.size	bmp280_readTemperature, .-bmp280_readTemperature
 495              		.comm	__gnu_lto_v1,1,1
 496 0004 AFF30080 		.ident	"GCC: (GNU Tools for ARM Embedded Processors) 4.8.4 20140526 (release) [ARM/embedded-4_8-br
 496      AFF30080 
 496      AFF30080 
ARM GAS  /tmp/cceabomF.s 			page 35

