ARM GAS  /tmp/cciJnn8i.s 			page 1


   1              		.syntax unified
   2              		.cpu cortex-m4
   3              		.eabi_attribute 27, 3
   4              		.eabi_attribute 28, 1
   5              		.fpu fpv4-sp-d16
   6              		.eabi_attribute 20, 1
   7              		.eabi_attribute 21, 1
   8              		.eabi_attribute 23, 3
   9              		.eabi_attribute 24, 1
  10              		.eabi_attribute 25, 1
  11              		.eabi_attribute 26, 1
  12              		.eabi_attribute 30, 2
  13              		.eabi_attribute 34, 1
  14              		.eabi_attribute 18, 4
  15              		.thumb
  16              		.file	"board.c"
  17              		.section	.gnu.lto_.jmpfuncs.91f8dd435cb26833,"",%progbits
  18 0000 789C85D1 		.ascii	"x\234\205\3211\016\200 \014\005\320\266Vetu\363(L\236"
  18      310E8020 
  18      0C05D0B6 
  18      56657475 
  18      F3284C9E 
  19 0014 C12B788B 		.ascii	"\301+x\213\306\311\321\321xZ\211Qd\370\015$$@_(\341"
  19      C6C9D1D1 
  19      785A8951 
  19      64F80D24 
  19      24405F28 
  20 0029 0B09A131 		.ascii	"\013\011\2411\277\307]\232\234LC\215,\2742\331\276\233"
  20      BFC75D9A 
  20      9C4C438D 
  20      2CBC32D9 
  20      BE9B
  21 003b 123D1B9E 		.ascii	"\022=\033\236\336\205\214\004\353\001\324\255\250\233"
  21      DE858C04 
  21      EB01D4AD 
  21      A89B
  22 0049 7C60D35F 		.ascii	"|`\323_\034\245P$\312\036\261\006\214\2210\364\314\255"
  22      1CA55024 
  22      CA1EB106 
  22      8C9130F4 
  22      CCAD
  23 005b C7401170 		.ascii	"\307@\021pz8\"\"p\340+\002\026\261\006l\310\242sDN\354"
  23      7A382222 
  23      70E02B02 
  23      16B1066C 
  23      C8A27344 
  24 0071 F24440E2 		.ascii	"\362D@\342D\23719\241\376\251\246\330\225[\246\033\302"
  24      449F3139 
  24      A1FEA9A6 
  24      D8955BA6 
  24      1BC2
  25 0083 23593B   		.ascii	"#Y;"
  26              		.text
  27              		.section	.gnu.lto_.inline.91f8dd435cb26833,"",%progbits
  28 0000 789C6362 		.ascii	"x\234cb`b\300\006\374\030!4\033\003\003\013\017#X\021"
  28      6062C006 
  28      FC182134 
ARM GAS  /tmp/cciJnn8i.s 			page 2


  28      1B03030B 
  28      0F235811 
  29 0014 DB0279B0 		.ascii	"\333\002y\260ZF.\020\301\300\316\006\024\3468`\007\027"
  29      5A462E10 
  29      C1C0CE06 
  29      14E63860 
  29      0717
  30 0026 67626066 		.ascii	"gb`fBU\311\314p\234\341>#\252\030\013/H|\020\320\014"
  30      4255C9CC 
  30      709CE13E 
  30      23AA180B 
  30      2F487C10 
  31 003c ECAC8CCC 		.ascii	"\354\254\214\314\014\031\021\214\231\214 >C:\234\005"
  31      0C19118C 
  31      998C203E 
  31      433A9C05 
  32 004c F23A2BCC 		.ascii	"\362:+\314\311,\013\344\005\030\230\216pr00\365\260"
  32      C92C0BE4 
  32      0518988E 
  32      70723030 
  32      F5B0
  33 005e B13080A5 		.ascii	"\2610\200\245\310\325\311\000\000\266%\022\263"
  33      C8D5C900 
  33      00B62512 
  33      B3
  34              		.text
  35              		.section	.gnu.lto_.pureconst.91f8dd435cb26833,"",%progbits
  36 0000 789C6362 		.ascii	"x\234cb`b\340e\200\0006\006\011F)&\006f\011\026)V)\000"
  36      6062E065 
  36      80003606 
  36      09462926 
  36      06660916 
  37 0018 04F000A5 		.ascii	"\004\360\000\245"
  38              		.text
  39              		.section	.gnu.lto___early_init.91f8dd435cb26833,"",%progbits
  40 0000 789C6362 		.ascii	"x\234cb`b@\007\222@\\\015\304\\@\314\310\314\300\310"
  40      60624007 
  40      92405C0D 
  40      C45C40CC 
  40      C8CCC0C8 
  41 0014 34E11C03 		.ascii	"4\341\034\003C#\007\023##\210\301\300\310P\317\304X"
  41      43230713 
  41      232388C1 
  41      C0C850CF 
  41      C458
  42 0026 1FC90856 		.ascii	"\037\311\010V\273\236\351\300\203\377\377\327m9\266"
  42      BB9EE9C0 
  42      83FFFFD7 
  42      6D39B6
  43 0035 600E2350 		.ascii	"`\016#P-\003\003+CKC\303\004\005\006\206d\260\202\020"
  43      2D03032B 
  43      434B43C3 
  43      04050686 
  43      64B08210 
  44 0049 2009D215 		.ascii	" \011\322\025\312\310\004\242\231\31734?\230\375\230"
  44      CAC804A2 
  44      99CF3334 
ARM GAS  /tmp/cciJnn8i.s 			page 3


  44      3F98FD98 
  45 0059 2B917121 		.ascii	"+\221q!#+\330\232_\015\035\015\002\231\214@\345\020"
  45      232BD89A 
  45      5F0D1D0D 
  45      02998C40 
  45      E510
  46 006b 033341F4 		.ascii	"\0033A\364E\206\306\007s\224a\212  \004(\0014\001\344"
  46      4586C607 
  46      7394618A 
  46      20200428 
  46      013401E4 
  47 007f 5C8EA4FC 		.ascii	"\\\216\244\374\304\242\024\275d\006\000\372\352$k"
  47      C4A214BD 
  47      640600FA 
  47      EA246B
  48              		.text
  49              		.section	.gnu.lto_mmc_lld_is_card_inserted.91f8dd435cb26833,"",%progbits
  50 0000 789C5D4F 		.ascii	"x\234]O=\217AQ\020=g\356\273\"\012\275n\373M\374\032"
  50      3D8F4151 
  50      103D67EE 
  50      BB220ABD 
  50      6EFB4DFC 
  51 0015 9B507A4F 		.ascii	"\233PzO\"\252M\374\001W(\224\312\015\015\255\302n\257"
  51      22AA4DFC 
  51      01572894 
  51      CA0D0DAD 
  51      C26EAF
  52 0028 118D8AD0 		.ascii	"\021\215\212\320\011\215_\241\2653\367\345)Lr\316Lr"
  52      098D5FA1 
  52      B533F7E5 
  52      294C72CE 
  52      4C72
  53 003a E6E38C40 		.ascii	"\346\343\214@\360\0365\305CQQ\320\2012=\002\303\262"
  53      F01E35C5 
  53      435151D0 
  53      81323D02 
  53      C3B2
  54 004c 90568018 		.ascii	"\220V\200\030\010\007-\306\336_\331\336\237\317\365"
  54      08072DC6 
  54      DE5FD9DE 
  54      9FCFF5
  55 005b DF7E7123 		.ascii	"\337~q#K\202\036\341\214\022#\257dm\036\343\020\246"
  55      4B821EE1 
  55      8C1223AF 
  55      646D1EE3 
  55      10A6
  56 006d 1F401687 		.ascii	"\037@\026\207\032\312\266\351\213b\331\035\260\273^"
  56      1ACAB6E9 
  56      8B62D91D 
  56      B0BB5E
  57 007c 1E27B6B9 		.ascii	"\036'\266\271\244G\227\362\211U\030\263G\231c\246\311"
  57      A44797F2 
  57      895518B3 
  57      479963A6 
  57      C9
  58 008d 359592F0 		.ascii	"5\225\222\3603\011\011b\031/\247,\374\0360Z\273b\330"
  58      33090962 
ARM GAS  /tmp/cciJnn8i.s 			page 4


  58      192FA72C 
  58      FC1E305A 
  58      BB62D8
  59 00a0 E9BC3579 		.ascii	"\351\2745y\311\225\315KI\272\371&0W.\243j!yU\243dq\306"
  59      C995CD4B 
  59      49BAF926 
  59      30572EA3 
  59      6A217955 
  60 00b8 CB89CF0F 		.ascii	"\313\211\317\0174\364\0135j\033\313\351w\273\337\251"
  60      34F40B35 
  60      6A1BCBE9 
  60      77BBDFA9 
  61 00c8 67F80730 		.ascii	"g\370\0070\3339R"
  61      DB3952
  62              		.text
  63              		.section	.gnu.lto_mmc_lld_is_write_protected.91f8dd435cb26833,"",%progbits
  64 0000 789C6362 		.ascii	"x\234cb`b@\007\222@\034\005\304\\@\314\310\314\300\310"
  64      60624007 
  64      92401C05 
  64      C45C40CC 
  64      C8CCC0C8 
  65 0014 34E11C03 		.ascii	"4\341\034\003C#\007\023##\210\301\300\310P\317\304X"
  65      43230713 
  65      232388C1 
  65      C0C850CF 
  65      C458
  66 0026 1FC90856 		.ascii	"\037\311\010V\273\236\351\300\203\377\377\327]8\276"
  66      BB9EE9C0 
  66      83FFFFD7 
  66      5D38BE
  67 0035 E0352323 		.ascii	"\3405##\310(V\206\226\206\206\011\012\014\014\311`\005"
  67      C8285686 
  67      96868609 
  67      0A0C0CC9 
  67      6005
  68 0047 214012A4 		.ascii	"!@\022\244+\024(\011\244\231/24>x\225\234\310\270\220"
  68      2B142809 
  68      A4992F32 
  68      343E7895 
  68      9CC8B890 
  69 005b 91952182 		.ascii	"\221\225!\2021\223\021ni\010##H\001\310\010\216\244"
  69      3193116E 
  69      69082323 
  69      4801C808 
  69      8EA4
  70 006d FCC4A214 		.ascii	"\374\304\242\024\275d\006\000\203|\034\374"
  70      BD640600 
  70      837C1CFC 
  71              		.text
  72              		.section	.gnu.lto_boardInit.91f8dd435cb26833,"",%progbits
  73 0000 789C9DD4 		.ascii	"x\234\235\324\275N\3030\020\000\340\273s\002\026S%\246"
  73      BD4EC330 
  73      1000E0BB 
  73      73021653 
  73      25A6
  74 0012 6E595879 		.ascii	"nYXy\006\036\242H0\226\262dBbe\250\213\020\212T~2V\374"
  74      061EA248 
ARM GAS  /tmp/cciJnn8i.s 			page 5


  74      3096B264 
  74      426265A8 
  74      8B108A54 
  75 002a A9880989 		.ascii	"\251\210\011\211\302+\260\261\201x\203<\004\023\002"
  75      C22BB0B1 
  75      8178833C 
  75      041302
  76 0039 C225A6B5 		.ascii	"\302%\246\265\251\207\350j\311\361\311\361\347sb\331"
  76      A987E86A 
  76      C9F1C9F1 
  76      E77362D9 
  77 0049 0404F3A5 		.ascii	"\004\004\363\245\315u\030\001\254p\213\012\220\362W"
  77      CD751801 
  77      AC708B0A 
  77      90F257
  78 0058 808126C4 		.ascii	"\200\201&\304*\000\204>a\177\033\353\261O\364\\\224"
  78      2A00843E 
  78      617F1BEB 
  78      B14FF45C 
  78      94
  79 0069 E5E3C7CB 		.ascii	"\345\343\307\313x\202\264\312\0351\034\031\223'\000"
  79      7882B4CA 
  79      1D311C19 
  79      932700
  80 0078 BD7A4087 		.ascii	"\275z@\207\237\225\332D\252Z\365\006\307\305\327\035"
  80      9F95DA44 
  80      AA5AF506 
  80      C7C5D71D 
  81 0088 76F11663 		.ascii	"v\361\026c~}\000\237&3\255\024y\270\235p\013SD\303\235"
  81      7E7D009F 
  81      2633AD14 
  81      79B89D70 
  81      0B5344C3 
  82 009d 511D9231 		.ascii	"Q\035\2221T\007\252\015)\362\242x\202\361\267j\362\243"
  82      5407AA0D 
  82      29F2A278 
  82      82F1B76A 
  82      F2A3
  83 00af 99B78D4A 		.ascii	"\231\267\215J\234\376i\324\271\313\256-\277Xr\276\224"
  83      9CFE69D4 
  83      B9CBAE2D 
  83      BF5872BE 
  83      94
  84 00c0 F824F459 		.ascii	"\370$\364Y,\360-\353\017=?\024\370\215?\256\035?\221"
  84      2CF02DEB 
  84      0F3D3F14 
  84      F88D3FAE 
  84      1D3F91
  85 00d3 A4C7D09F 		.ascii	"\244\307\320\2376\372,H\277\354\370\231\200\317\322"
  85      36FA2C48 
  85      BFECF899 
  85      80CFD2
  86 00e2 7BFEBCD1 		.ascii	"{\376\274\321\233\371\275\367\371H\300u\310/\027Y}\344"
  86      9BF9BDF7 
  86      F948C075 
  86      C82F1759 
  86      7DE4
ARM GAS  /tmp/cciJnn8i.s 			page 6


  87 00f4 FCD5023F 		.ascii	"\374\325\002?\317\343\327\222\275\213B\177#\370\372"
  87      CFE3D792 
  87      BD8B427F 
  87      23F8FA
  88 0103 E9B9F3FD 		.ascii	"\351\271\363\375\275`\371:8\266\017\002\235\374\323"
  88      BD60F93A 
  88      38B60F02 
  88      9DFCD3
  89 0112 EF302826 		.ascii	"\3570(&kSmK\207%\337(\325\365\245w\366\272\373\273\353"
  89      6B536D4B 
  89      8725DF28 
  89      D5F5A577 
  89      F6BAFBBB 
  90 0127 3DF80578 		.ascii	"=\370\005x\016\374\360"
  90      0EFCF0
  91              		.text
  92              		.section	.gnu.lto_boardSetBuzzer.91f8dd435cb26833,"",%progbits
  93 0000 789CAD50 		.ascii	"x\234\255P\261J\003A\020}of\3678\202\215?\020l\254\004"
  93      B14A0341 
  93      107D6F66 
  93      F738828D 
  93      3F106CAC 
  94 0015 F303F98C 		.ascii	"\363\003\371\214\004\264\314% \026\"\370\003\331\300"
  94      04B4CC25 
  94      201622F8 
  94      03D9C0
  95 0024 1529536B 		.ascii	"\025)Sk\243\255\205\327\246H\241VG@A\310\007\244\264"
  95      A3AD85D7 
  95      A648A156 
  95      474041C8 
  95      07A4B4
  96 0037 B016AC92 		.ascii	"\260\026\254\222\335\275\234\220\2202\003\273\357\355"
  96      DDBD9C90 
  96      903203BB 
  96      EFED
  97 0045 ECCC7BC3 		.ascii	"\354\314{\303\010\004\273\321\366g@\240\341\221\011"
  97      0804BBD1 
  97      F66740A0 
  97      E19109
  98 0054 28934F60 		.ascii	"(\223O`\224\212\350\254\011\3270\213\026\334\221\322"
  98      948AE8AC 
  98      09D7308B 
  98      16DC91D2 
  99 0064 56695313 		.ascii	"ViS\023K\006\002b(j,\207\227\214r\205\274.W\253\227"
  99      4B060262 
  99      286A2C87 
  99      978C7285 
  99      BC2E57AB 
 100 0079 DFF96349 		.ascii	"\337\371cII\20471m\221;79\001\372\361\331\361w\350\356"
 100      49843731 
 100      6D913B37 
 100      3901FAF1 
 100      D9F177E8 
 101 008e 52026A89 		.ascii	"R\002j\211\374\347\355o\256=>\321\342\212r\301knM\331"
 101      FCE7ED6F 
 101      AE3D3ED1 
 101      E28A72C1 
ARM GAS  /tmp/cciJnn8i.s 			page 7


 101      6B6E4DD9 
 102 00a2 A562D6D4 		.ascii	"\245b\326\324\017\274O\247\305qUw\206g\227\373B\326"
 102      0FBC4FA7 
 102      C5715577 
 102      866797FB 
 102      42D6
 103 00b4 446AA20F 		.ascii	"Dj\242\017\270\367`\202\214u\343\2613\2104Je\033\345"
 103      B8F76082 
 103      8C75E3B1 
 103      3388344A 
 103      651BE5
 104 00c7 8CDC60B5 		.ascii	"\214\334`\265\224P\221\244\377~\006\213V\364\373.x`"
 104      945091A4 
 104      FF7E068B 
 104      56F4FB2E 
 104      7860
 105 00d9 3FDDE767 		.ascii	"?\335\347g\343&\2760Z\226\247\225_\035\035\337\350\377"
 105      E326BE30 
 105      5A96A795 
 105      5F1D1DDF 
 105      E8FF
 106 00eb C2946976 		.ascii	"\302\224iv\333\273\033\234\367\261\006\377\217T\232"
 106      DBBB1B9C 
 106      F7B106FF 
 106      8F549A
 107              		.text
 108              		.section	.gnu.lto_boardSetLED.91f8dd435cb26833,"",%progbits
 109 0000 789CAD50 		.ascii	"x\234\255P1jBA\020}of\367#\222&\027\020\033\253@\274"
 109      316A4241 
 109      107D6F66 
 109      F7239226 
 109      17101BAB 
 110 0016 408EA1A0 		.ascii	"@\216\241\240\245_AR\004!\027p\205_XZ\206$\020\323Z"
 110      A55F4152 
 110      04211770 
 110      855F585A 
 110      862410D3 
 111 002b 249DA4B0 		.ascii	"$\235\244\260H\254\004I `g\343\001r\007\335\335\357"
 111      48AC0449 
 111      206067E3 
 111      017207DD 
 111      DDEF
 112 003d 0F24A4CC 		.ascii	"\017$\244\314\300\356{;;\363\3360\002\301\357\270\360"
 112      C0EE7B3B 
 112      3BF3DE30 
 112      02C1EFB8 
 112      F0
 113 004e A747A0EC 		.ascii	"\247G\240\354\221\011(\223\017`T\022\321E\005\256l6"
 113      91092893 
 113      0F605412 
 113      D14505AE 
 113      6C36
 114 0060 75B813A5 		.ascii	"u\270\023\245\315\323\246 \226\014\004\304P\324X\016"
 114      CDD3A620 
 114      960C04C4 
 114      50D4580E 
 115 0070 DB8C72CF 		.ascii	"\333\214r\317\362\272\333\357\237\356\327\323-%\021"
ARM GAS  /tmp/cciJnn8i.s 			page 8


 115      F2BADBEF 
 115      9FEED7D3 
 115      2D2511
 116 007f 5EC5B445 		.ascii	"^\305\264E\346\334\244\012t\343\263\341\357\320\335"
 116      E6DCA40A 
 116      74E3B3E1 
 116      EFD0DD
 117 008e A404D415 		.ascii	"\244\004\324\025\262\257\267\207\265v\370H\213>\245"
 117      B2AFB787 
 117      B576F848 
 117      8B3EA5
 118 009d C54BFE98 		.ascii	"\305K\376\230\262I\305\242\242\357X\276\334\314O\363"
 118      B249C5A2 
 118      A2EF58BE 
 118      DCCC4FF3 
 119 00ad BA33CC5C 		.ascii	"\2723\314\\\346\013Y\020)\210\336\341\326\203\0112\326"
 119      E60B5910 
 119      2988DEE1 
 119      D6830932 
 119      D6
 120 00be 8DC7CE20 		.ascii	"\215\307\316 \322(\225\036\225S\362\210\371RBER\375"
 120      D228951E 
 120      9553F288 
 120      F9524245 
 120      52FD
 121 00d0 F633D8D4 		.ascii	"\3663\330\324\243\337j\316\177\366\323\277\374l\334"
 121      A3DF6ACE 
 121      7FF6D3BF 
 121      FC6CDC
 122 00df C42746BB 		.ascii	"\304'F\273m-\367+\242\341\033\375_\230\262\224\016:"
 122      6D2DF72B 
 122      A2E11BFD 
 122      5F98B294 
 122      0E3A
 123 00f1 D7BDF32E 		.ascii	"\327\275\363.\016&\003T\014"
 123      0E260354 
 123      0C
 124              		.text
 125              		.section	.gnu.lto_.symbol_nodes.91f8dd435cb26833,"",%progbits
 126 0000 789C4DC9 		.ascii	"x\234M\311\261\021\3020\020D\321\275\025\302d\224\340"
 126      B111C230 
 126      1044D1BD 
 126      15C26494 
 126      E0
 127 0011 524F20B0 		.ascii	"RO \260\031\"* \241\024\345\324\000\243\3245\0003x1"
 127      19222A20 
 127      A114E5D4 
 127      00A3D435 
 127      00337831 
 128 0025 BAE4CDBF 		.ascii	"\272\344\315\277%\210\255a>&:p\271\003\356\327\223q"
 128      2588AD61 
 128      3E263A70 
 128      B903EED7 
 128      9371
 129 0037 47B726F7 		.ascii	"G\267&\367t6\231\351\241\311\003}\325\344\221\036\377"
 129      743699E9 
 129      A1C9037D 
ARM GAS  /tmp/cciJnn8i.s 			page 9


 129      D5E4911E 
 129      FF
 130 0048 19DF86E8 		.ascii	"\031\337\206\350\260\201\276\236\277)\231\215\364n\251"
 130      B081BE9E 
 130      BF29998D 
 130      F46EA9
 131 0057 800EF9F1 		.ascii	"\200\016\371\361\262\0206\2137Yd\375\355O\355\262\310"
 131      B210368B 
 131      375964FD 
 131      ED4FEDB2 
 131      C8
 132 0068 2AF330F5 		.ascii	"*\3630\365\337]\026Ye\036\265\313\"\253\314\347\251"
 132      DF5D1659 
 132      651EB5CB 
 132      22ABCCE7 
 132      A9
 133 0079 C707A6A9 		.ascii	"\307\007\246\251P\344"
 133      50E4
 134              		.text
 135              		.section	.gnu.lto_.refs.91f8dd435cb26833,"",%progbits
 136 0000 789C6362 		.ascii	"x\234cb`b`d\200\002\000\000F\000\006"
 136      60626064 
 136      80020000 
 136      460006
 137              		.text
 138              		.section	.gnu.lto_.decls.91f8dd435cb26833,"",%progbits
 139 0000 789CBD5C 		.ascii	"x\234\275\\\013t\024E\272\356\356y$!\221\227\272\027"
 139      0B741445 
 139      BAEEEE79 
 139      24219197 
 139      BA17
 140 0012 BC9EEBEC 		.ascii	"\274\236\353\354=z\217\327UB\200U\334\275W\036I\024"
 140      3D7A8FD7 
 140      55428055 
 140      DCBD571E 
 140      4914
 141 0024 CEF2C899 		.ascii	"\316\362\310\231\340\256\236s\317\031\233\231\016\231"
 141      E0AE9E73 
 141      CF199B99 
 141      0E99
 142 0032 35C9CCCE 		.ascii	"5\311\314\316L x\35796\011\004\015\017c\010o\010\341"
 142      4C2078EF 
 142      39360904 
 142      0D0F6308 
 142      6F08E1
 143 0045 0DAE20F2 		.ascii	"\015\256 \362\020\303s@\336q\003\021\"`\204\314\342"
 143      10C37340 
 143      DE710311 
 143      226084CC 
 143      E2
 144 0056 A2A0C84B 		.ascii	"\242\240\310K\336\010\271U\177w\317Tw\272g\252\007\317"
 144      DE08B955 
 144      7F77CF54 
 144      77BA67AA 
 144      07CF
 145 0068 CE39FD4F 		.ascii	"\3169\375OMM\365W_\375\365\327\377WU?8\206c\216\261"
 145      4D4DF557 
ARM GAS  /tmp/cciJnn8i.s 			page 10


 145      5FFDF5D7 
 145      FF57553F 
 145      3886638E 
 146 007d 0CD38E3F 		.ascii	"\014\323\216?\2573L\240\023\303\2440\014\363\022:\254"
 146      AF334CA0 
 146      13C3A430 
 146      0CF3123A 
 146      AC
 147 008e E858CC48 		.ascii	"\350X\314H\277O\240\243\225\221>\251\3508\215\2163\350"
 147      BF4FA0A3 
 147      95913EA9 
 147      E8388D8E 
 147      33E8
 148 00a0 A8E418A6 		.ascii	"\250\344\030\246\012\035\323\320Q\213\2169\350\230\207"
 148      0A1DD3D0 
 148      518B8E39 
 148      E89887
 149 00af 0E04C92C 		.ascii	"\016\004\311,\345\030\325\007\237\203\263\276@\242M"
 149      E518D507 
 149      9F83B3BE 
 149      40A24D
 150 00be CEE3E4FC 		.ascii	"\316\343\344\3749\232\262\214\214o\227\353\307u\257"
 150      399AB28C 
 150      8C6F97EB 
 150      C775AF
 151 00cd 46C71299 		.ascii	"F\307\022\231\023\346\206\353\330,\177\237\351x:pc\011"
 151      13E686EB 
 151      D82C7F9F 
 151      E9783A70 
 151      6309
 152 00df DEAC9CA7 		.ascii	"\336\254\234\247\375`\3766\364}\224S\267w>\027\343X"
 152      FD60FE36 
 152      F47D9453 
 152      B7773E17 
 152      E358
 153 00f1 25B74BFB 		.ascii	"%\267K\373\301\355V\370\035C\351\026tl#xZd\256[\321"
 153      C1ED56F8 
 153      1D43E916 
 153      746C2378 
 153      5A64AE5B 
 154 0106 B10B1D7B 		.ascii	"\261\013\035{\320\361\271\314e\232\314\357}\015n\355"
 154      D0F1B9CC 
 154      659ACCEF 
 154      7D0D6EED 
 155 0116 0360D6CA 		.ascii	"\003`\326\312\230\2634\230\351L\225(\226\213\365\225"
 155      98B33498 
 155      E94C9528 
 155      968BF595 
 156 0126 E290039D 		.ascii	"\342\220\003\235\2733\357\213\350\3438\320\231a^cy\266"
 156      BB33EF8B 
 156      E8E338D0 
 156      99615E63 
 156      79B6
 157 0138 731A13E1 		.ascii	"s\032\023\341 \225\221\306<\213J?\305,\023\305\352\310"
 157      209591C6 
 157      3C8B4A3F 
 157      C52C13C5 
ARM GAS  /tmp/cciJnn8i.s 			page 11


 157      EAC8
 158 014a A49D3D45 		.ascii	"\244\235=E+\317.a\273#\035\014a\231g\230\325\350\264"
 158      2BCF2E61 
 158      BB231D0C 
 158      61996798 
 158      D5E8B4
 159 015d 6A515CF2 		.ascii	"jQ\\\362\033VG\337\011a\031\206gW 0\236]\316>#U\"\206"
 159      1B5647DF 
 159      09611986 
 159      67572030 
 159      9E5DCE3E 
 160 0175 373466E0 		.ascii	"74f\340Jp>#\377\243\363\3715S/N\254\010on\\\320S\254"
 160      4A703E23 
 160      FFA3F3F9 
 160      35532F4E 
 160      AC086F6E 
 161 018d DFCDA631 		.ascii	"\337\315\2461\357\210b\205\334\234hm\016\2452k\254\015"
 161      EF886285 
 161      DC9C686D 
 161      0EA5326B 
 161      AC0D
 162 019f B72BF7EE 		.ascii	"\267+\367\356b\313EQ:\245<\356)<\373\001\373\024\222"
 162      62CB4551 
 162      3AA53CEE 
 162      293CFB01 
 162      FB1492
 163 01b2 29695122 		.ascii	")iQ\"\370_\3643\232\300\303\244\0136\211\011,\253bK"
 163      F85FF433 
 163      9AC0C3A4 
 163      0B368909 
 163      2CAB624B 
 164 01c6 012F33DA 		.ascii	"\001/3\332T\265\355EQL\345\3315\210\023\307\354\324"
 164      54B5ED45 
 164      514CE5D9 
 164      358813C7 
 164      ECD4
 165 01d8 00C9F545 		.ascii	"\000\311\365E?4tL\026\347\230CP)\326\271\036Q9)}\344"
 165      3F34744C 
 165      16E79843 
 165      5029D6B9 
 165      1E513929 
 166 01ee 02AA7E88 		.ascii	"\002\252~\210L\334|\220\025k2xv5\264\341\210i8\207\252"
 166      4CDC7C90 
 166      156B3278 
 166      7635B4E1 
 166      88693887 
 167 0203 5BB73466 		.ascii	"[\2674fT\363\012\330q\032\260TCn\341m$X\233i05\263\035"
 167      54F30AD8 
 167      711AB054 
 167      436EE16D 
 167      24589B69 
 168 021b 24D8591A 		.ascii	"$\330Y\032\260\256\306\314\216\220`\347M\203\221\314"
 168      B0AEC6CC 
 168      8E9060E7 
 168      4D8391CC 
 169 022b 2684DB1A 		.ascii	"&\204\333\032\017\341.x\230\251\021\305\011b\275\335"
 169      0FE12E78 
ARM GAS  /tmp/cciJnn8i.s 			page 12


 169      98A911C5 
 169      0962BDDD 
 170 023b C8EA1806 		.ascii	"\310\352\030\006\212\210q\213\360\354v\366a\365\270"
 170      8A88718B 
 170      F0EC76F6 
 170      61F5B8
 171 024a 3C3AA533 		.ascii	"<:\2453\036\2278?\301\270\024\313\303-\362\270\344\331"
 171      1E97383F 
 171      C1B814CB 
 171      C32DF2B8 
 171      E4D9
 172 025c BF42E37E 		.ascii	"\277B\343~\204\306\341s\223\260/T\371\251\306t\261*"
 172      84C6E173 
 172      93B02F54 
 172      F9A9C674 
 172      B12A
 173 026e 437628F5 		.ascii	"Cv(\365\003W\305!\276[\353P\2167r\016);1\357\223\215"
 173      0357C521 
 173      BE5BEB50 
 173      8E37720E 
 173      293B31EF 
 174 0284 0B7A88F5 		.ascii	"\013z\210\365\273\024\347 V\212O\023uuU\352\302\316"
 174      BB14E720 
 174      568A4F13 
 174      757555EA 
 174      C2CE
 175 0296 34EA4F36 		.ascii	"4\352O6?\013\243w/4\364\222\276\033\240\000\332T\265"
 175      3F0BA377 
 175      2F34F492 
 175      BE1BA000 
 175      DA54B5
 176 02a9 52720307 		.ascii	"Rr\003\007\000\350V\0077`\321\270\001\213z\\[\322b\211"
 176      00E85607 
 176      3760D1B8 
 176      018B7A5C 
 176      5BD26289 
 177 02bd F6760B63 		.ascii	"\366v\013c\2560\307Tp\254\254==\222\211\272\250<\262"
 177      AE30C754 
 177      70ACAC3D 
 177      3D9289BA 
 177      A83CB2
 178 02d0 6CEB2E16 		.ascii	"l\353.\026\365\221\242\210\311\246\341\272j\272\204"
 178      F591A288 
 178      C9A6E1BA 
 178      6ABA84
 179 02df 43013149 		.ascii	"C\0011I\253!\032.\265\231gw\262\277Fr\027\222D\005\357"
 179      AB211A2E 
 179      B5996777 
 179      B2BF4672 
 179      17924405 
 180 02f4 711463AE 		.ascii	"q\024c\256\207A\233\321\000\276L\016\340Z\323`\016\025"
 180      87419BD1 
 180      00BE4C0E 
 180      E05AD360 
 180      0E15
 181 0306 D855126C 		.ascii	"\330U\022l.\015\230\303\230\3315\022\254\3164\230\232"
 181      2E0D98C3 
ARM GAS  /tmp/cciJnn8i.s 			page 13


 181      98D93512 
 181      ACCE3498 
 181      9A
 182 0317 D90D126C 		.ascii	"\331\015\022l)\015\330\323\361:E\325?\261\370\317\263"
 182      290DD8D3 
 182      F13A45D5 
 182      3FB1F8CF 
 182      B3
 183 0328 2B21DAAE 		.ascii	"+!\332\256\202\236\372\030\344\006\220\233@n\006\331"
 183      829EFA18 
 183      E406909B 
 183      406E06D9 
 184 0338 00722BC8 		.ascii	"\000r+\310# \277\000y\014\344\227d\377\032y\210\305"
 184      2320BF00 
 184      790CE497 
 184      64FF1A79 
 184      88C5
 185 034a 6C3A39B4 		.ascii	"l:9\264\250#u\370x\315\243\330\005\236\000=\254\344"
 185      A82375F8 
 185      78CDA3D8 
 185      059E003D 
 185      ACE4
 186 035c B40314BB 		.ascii	"\264\003\024\273:U\333\022G\336Tf2\256;2I\234\300\376"
 186      3A55DB12 
 186      47DE5466 
 186      32AE3B32 
 186      499CC0FE 
 187 0370 255A77AA 		.ascii	"%Zw\252R7\253\324\215'Y\034\317\266\262\251\250\346"
 187      5237ABD4 
 187      8D27591C 
 187      CFB6B2A9 
 187      A8E6
 188 0382 759CDE6C 		.ascii	"u\234\336l\013j\304\005\224\246Ki%\205Ny\202\251\023"
 188      0B6AC405 
 188      94A64B69 
 188      25854E79 
 188      82A913
 189 0395 EB239153 		.ascii	"\353#\221SG?\347\347\212\341\211b{\373\333\314\257\230"
 189      473FE7E7 
 189      8AE18962 
 189      7BFBDBCC 
 189      AF98
 190 03a7 99E0522B 		.ascii	"\231\340R+\321\214(\304\263/=j\250\2656\366Wr\352U\331"
 190      D18C28C4 
 190      B32F3D6A 
 190      A8B536F6 
 190      5772EA55 
 191 03bc B9A0B98A 		.ascii	"\271\240\271\212F\007\014\363\037\314r\214'\256\022"
 191      46070CF3 
 191      1FCC728C 
 191      27AE12
 192 03cb 2D8086CB 		.ascii	"-\200\206\313\237f\237P\263\214\260\252\331\250\304"
 192      9F669F50 
 192      B38CB0AA 
 192      D9A8C4
 193 03da 2B5CB73F 		.ascii	"+\\\267?\243zB\244\275\375\011\015'\314\336\210\324"
 193      A37A42A4 
ARM GAS  /tmp/cciJnn8i.s 			page 14


 193      BDFD090D 
 193      27CCDE88 
 193      D4
 194 03eb 3732290B 		.ascii	"72)\013x\225\204\263\332z\213\002\320/\332\253\221\206"
 194      789584B3 
 194      DA7A8B02 
 194      D02FDAAB 
 194      9186
 195 03fd 597BFA80 		.ascii	"Y{\372\200\343\375\026\346\265\025\026u\233\022\302"
 195      E3FD16E6 
 195      B5151675 
 195      9B12C2
 196 040c 601EE7B5 		.ascii	"`\036\347\265A\247e?\314b\317SE\235S\223\027A\264\324"
 196      41A7653F 
 196      CC62CF53 
 196      459D5393 
 196      1741B4D4 
 197 0420 A38F0AB0 		.ascii	"\243\217\012\260D\325\"G\216W\344\"\021[\035\206\352"
 197      44D52247 
 197      8E57E422 
 197      115B1D86 
 197      EA
 198 0431 623C7B11 		.ascii	"b<{\021i\234g/u\230kO\006\226\227\250Xn\332\017s<\025"
 198      699C672F 
 198      75986B4F 
 198      069697A8 
 198      586EDA0F 
 199 0448 49135DF5 		.ascii	"I\023]\365\223\272\253xv@:aK\214\361p\275\212\364\302"
 199      93BAAB78 
 199      76403A61 
 199      4B8CF170 
 199      BD8AF4C2 
 200 045c 2816370F 		.ascii	"(\0267\017z\347Rr\023UD{\275(\246\331%L\216Ya\032\314"
 200      7AE75272 
 200      1355447B 
 200      BD28A6D9 
 200      254C8E59 
 201 0473 610CB681 		.ascii	"a\014\266\201\006\314h\232\252\005\333j\032L\207Y\262"
 201      06CC689A 
 201      AA05DB6A 
 201      1A4C8759 
 201      B2
 202 0484 3D755FA7 		.ascii	"=u_\247\247\242i\331\311\351\0158\331\221F\226\213="
 202      A7A269D9 
 202      C9E90D38 
 202      D9914696 
 202      8B3D
 203 0496 E6748EE3 		.ascii	"\346t\216\343\314\360\244i\315o`\310Up\330\225\356\263"
 203      CCF0A469 
 203      CD6F60C8 
 203      5570D895 
 203      EEB3
 204 04a8 E84E9A28 		.ascii	"\350N\232(\2006U\325\365\007\240J\000j\262h}\262\326"
 204      803655D5 
 204      F507A04A 
 204      006AB268 
 204      7DB2D6
ARM GAS  /tmp/cciJnn8i.s 			page 15


 205 04bb 25B36A97 		.ascii	"%\263j\227\314\246\305\022\355j\257\232\260\254\221"
 205      CCA6C512 
 205      ED6AAF9A 
 205      B0AC91
 206 04ca FACAB974 		.ascii	"\372\312\271t\002F\2538*\223\277G\232\374\011\032[0"
 206      0246AB38 
 206      2A93BF47 
 206      9AFC091A 
 206      5B30
 207 04dc 5A65A089 		.ascii	"Ze\240\211Y\303\254\037\263\260\277\267$k\017\323\270"
 207      59C3AC1F 
 207      B3B0BFB7 
 207      246B0FD3 
 207      B8
 208 04ed 07B487B0 		.ascii	"\007\264\207\260a7\362\354D\356\251\344U\375\376\203"
 208      6137F2EC 
 208      44EEA9E4 
 208      55FDFE83 
 209 04fd AB7A2A47 		.ascii	"\253z*G\250\372\224iU;HU\253\307\36074`F\223\313\007"
 209      A8FA9469 
 209      553B4855 
 209      ABC7F037 
 209      34604693 
 210 0513 1DC3738D 		.ascii	"\035\303s\215\373L7\312\014$\202\307@\322\301\310\003"
 210      FB4C37CA 
 210      0C2482C7 
 210      40D2C1C8 
 210      03
 211 0524 6DDDA201 		.ascii	"m\335\242\0018R,\344p\210\\j\325\015\221\306 \230@="
 211      38522CE4 
 211      70885C6A 
 211      D50D91C6 
 211      2098403D 
 212 0538 A7093E37 		.ascii	"\247\011>7\005\207\224\2338\364\334^.o/H\253\311\015"
 212      0587949B 
 212      38F4DC5E 
 212      2E6F2F48 
 212      ABC90D
 213 054b 503F3E35 		.ascii	"P?>5\251 \020\276#\034\350\255`m3\215\345\320#\312t"
 213      A92010BE 
 213      231CE8AD 
 213      606D338D 
 213      E5D023CA 
 214 0560 68259A67 		.ascii	"h%\232g\202i/\341\360\304t\031G11]\2402g*\363\235C\232"
 214      82692FE1 
 214      F0C47419 
 214      4731315D 
 214      A032672A 
 215 0578 EF1EAB59 		.ascii	"\357\036\253Y\213\323\266%\266^\272\002\363\351\033"
 215      8BD3B625 
 215      B65EBA02 
 215      F3E91B
 216 0587 206F81BC 		.ascii	" o\201\274\003\362g\220S\240Q3A\316\246i\332\005\322"
 216      03F26790 
 216      53A05133 
 216      41CEA669 
 216      DA05D2
ARM GAS  /tmp/cciJnn8i.s 			page 16


 217 059a A3FD0D78 		.ascii	"\243\375\015x\236O6\210G\032\276\274\2315[\014O\260"
 217      9E4F3688 
 217      471ABEBC 
 217      99355B0C 
 217      4FB0
 218 05ac A43095D2 		.ascii	"\2440\225\322\364\271<Q\240X\267\350\005l\277\253\271"
 218      F4B93C51 
 218      A058B7E8 
 218      056CBFAB 
 218      B9
 219 05bd 14547FB3 		.ascii	"\024T\177\263\306~)`p\033>D'\253,\270a\274C\312\215"
 219      C67E2960 
 219      701B3E44 
 219      27AB2CB8 
 219      61BC43CA 
 220 05d2 63C130E8 		.ascii	"c\3010\3508\346kT%\206\263\246\305\362\276\213\345\261"
 220      38E66B54 
 220      2586B3A6 
 220      C5F2BE8B 
 220      E5B1
 221 05e4 44D1CBB1 		.ascii	"D\321\313\261l\216\310\276\033\313\266\020\331U\266"
 221      6C8EC8BE 
 221      1BCBB610 
 221      D955B6
 222 05f3 68B695C8 		.ascii	"h\266\225\310^\020\313\266\021\331+b\331v\"{},;\205"
 222      5E10CBB6 
 222      11D92B62 
 222      D976227B 
 222      7D2C3B85 
 223 0607 C8DE11CB 		.ascii	"\310\336\021\313N%\372#n\320\214)\211g\327\300\000X"
 223      4E25FA23 
 223      6ED08C29 
 223      8967D7C0 
 223      0058
 224 0619 CB59744F 		.ascii	"\313YtO\343\230C6\215\035\250T\236h\376%\202\035L\300"
 224      E3984336 
 224      8D1DA854 
 224      9E68FE25 
 224      821D4CC0 
 225 062d 91AD1B53 		.ascii	"\221\255\033S-\317\200\245a\255\314\202Y\265\317\346"
 225      2DCF80A5 
 225      61ADCC82 
 225      59B5CFE6 
 226 063d D9DD5C37 		.ascii	"\331\335\\7HAh\022e\037\010%\214\014\3673.-J #-\226"
 226      48416812 
 226      651F0825 
 226      8C0CF733 
 226      2E2D4A20 
 227 0654 508626C7 		.ascii	"P\206&\307\034\321\266B]m\242\231\037l\017\341\250\201"
 227      1CD1B642 
 227      5D6DA299 
 227      1F6C0FE1 
 227      A881
 228 0666 B971CC31 		.ascii	"\271q\3141*\264DaC\361n'\264h\264\213u\331S\336\234"
 228      2AB44461 
 228      43F16E27 
 228      B468B48B 
ARM GAS  /tmp/cciJnn8i.s 			page 17


 228      75D953DE 
 229 067b BC907665 		.ascii	"\274\220ve\362\206\002\227\021\035u\341\333\373X\207"
 229      F2860297 
 229      111D75E1 
 229      DBFB5887 
 230 068b CEEA4455 		.ascii	"\316\352DU\224g?Gf\222\250\024.\327\244\215 ;\367\301"
 230      94673F47 
 230      6692A814 
 230      2ED7A48D 
 230      203BF7C1 
 231 069f F2A5892A 		.ascii	"\362\245\211*\206\034\2574n\212j\351\024]\334\365\216"
 231      861CAF34 
 231      6E8A6AE9 
 231      145DDCF5 
 231      8E
 232 06b0 36245273 		.ascii	"6$Rs\351\362\237a\236\371\005\004\300\025\366\204kD"
 232      E9F29F61 
 232      9EF90504 
 232      C015F684 
 232      6B44
 233 06c2 350CCF1E 		.ascii	"5\014\317\036\343\360\012\254E\333\204\353\363\241\011"
 233      E3F00AAC 
 233      45DB84EB 
 233      F3A109
 234 06d1 2D544DB8 		.ascii	"-TM\270\327Z\367/b$\314\322\273\275\346\237\302\217"
 234      D75AF72F 
 234      6224CCD2 
 234      BBBDE69F 
 234      C28F
 235 06e3 55A07EE2 		.ascii	"U\240~\342\331\023\340\371\276\261'\345\371Z\265\236"
 235      D913E0F9 
 235      BEB127E5 
 235      F95AB59E 
 236 06f3 6F536517 		.ascii	"oSe\027L\273\225\312\367]\264w\364}\267\355\272\276"
 236      4CBB95CA 
 236      F75DB477 
 236      F47DB7ED 
 236      BABE
 237 0705 AF3C45D7 		.ascii	"\257<E\327\367MM\321\365}\263S\324\276\217\241\360O"
 237      F74D4DD1 
 237      F57DB353 
 237      D4BE8FA1 
 237      F04F
 238 0717 AD847FFA 		.ascii	"\255\204\177\372\032\374\323)\003\377\304\263\341h\237"
 238      1AFCD329 
 238      03FFC4B3 
 238      E1689F
 239 0726 D1FA2755 		.ascii	"\321\372'U\177Ef\\:R\266\003\215\307w\355I\216\237\326"
 239      7F45665C 
 239      3A52B603 
 239      8DC777ED 
 239      498E9FD6 
 240 073a 569AF1F3 		.ascii	"V\232\361\363=\345\370\271\2405\276\331\255`|\027\250"
 240      3DE5F8B9 
 240      A035BED9 
 240      AD607C17 
 240      A8
ARM GAS  /tmp/cciJnn8i.s 			page 18


 241 074b 8C6F516B 		.ascii	"\214oQk]\307\361C\277}tY;!m\346(\326\377\262\036\356"
 241      5DC7F143 
 241      BF7D7459 
 241      3B216DE6 
 241      28D6FFB2 
 242 0761 CD7B04F6 		.ascii	"\315{\004\366)8<\257^\226\242\266a\025!\251\"#\022\327"
 242      29383CAF 
 242      5E96A2B6 
 242      611521A9 
 242      222312D7 
 243 0775 B8748376 		.ascii	"\270t\203vv\370\017\005E\250\347B\322\263\314\006=\205"
 243      76F80F05 
 243      45A8E742 
 243      D2B3CC06 
 243      3D85
 244 0787 49574F8D 		.ascii	"IWO\215\233\0329\273v\267\005<\315MhlC\212vE\273\230"
 244      9B1A39BB 
 244      76B7053C 
 244      CD4D686C 
 244      438A7645 
 245 079d 4D5713D7 		.ascii	"MW\023\327lg\242i\240i\342\016\215\331\206K\266\257"
 245      6C67A269 
 245      A069E20E 
 245      8DD9864B 
 245      B6AF
 246 07af 13C54976 		.ascii	"\023\305Ive3\277Q\213\250\267\231o\274\267\021>1?\343"
 246      6533BF51 
 246      8BA8B799 
 246      6FBCB711 
 246      3E313FE3 
 247 07c3 C81B0A58 		.ascii	"\310\033\012X\263i0\355\225\001e\374\376"
 247      B36930ED 
 247      950165FC 
 247      FE
 248 07d0 08E3F722 		.ascii	"\010\343\367\"\314Bo\200\274\013\362\0369#\345\230\226"
 248      CC426F80 
 248      BC0BF21E 
 248      3923E598 
 248      96
 249 07e1 0E3A942C 		.ascii	"\016:\224,\236\300\213\015\015&1\242\221u\235#\347\342"
 249      9EC08B0D 
 249      0D2631A2 
 249      91759D23 
 249      E7E2
 250 07f3 6D50694B 		.ascii	"mPiK\262\235\020\256;\235Q\315'\334\317\264*H91\013"
 250      B29D10AE 
 250      3B9D51CD 
 250      27DCCFB4 
 250      2A483931 
 251 0808 5AD81EEE 		.ascii	"Z\330\036\356\261E\024\273\362l\205\005\007\253E\251"
 251      B14514BB 
 251      F26C8505 
 251      07AB45A9 
 252 0818 89373455 		.ascii	"\21174U8\034\263\012N\251\264\250\375E\244e\351\337"
 252      381CB30A 
 252      4EA9B4A8 
 252      FD45A465 
ARM GAS  /tmp/cciJnn8i.s 			page 19


 252      E9DF
 253 082a FF750E20 		.ascii	"\377u\016 \343\277\022\273\214\273z!W\242e\244\303*"
 253      E3BF12BB 
 253      8CBB7A21 
 253      57A265A4 
 253      C32A
 254 083c 8BC698BF 		.ascii	"\213\306\230\277\213RIn\024\336\337\007\327.0.\212D"
 254      8B52496E 
 254      14DEDF07 
 254      D72E302E 
 254      8A44
 255 084e A6C1D49D 		.ascii	"\246\301\324\2352c?q\273\001\325\305\375\326\225\347"
 255      32633F71 
 255      BB01D5C5 
 255      FDD695E7 
 256 085e 7B6E0795 		.ascii	"{n\007\225\275g\301\006\276#\355\027\270j\3001\373\322"
 256      BD67C106 
 256      BE23ED17 
 256      B86AC031 
 256      FBD2
 257 0870 281A623C 		.ascii	"(\032b<\345D=\331\374x\003D&%\030\031^\014F\3135\250"
 257      E5443DD9 
 257      FC780344 
 257      26251819 
 257      5E0C46CB 
 258 0886 AC566B0D 		.ascii	"\254Vk\015\255k\233\237\223\254\241\226\312\03267\316"
 258      AD6B9B9F 
 258      93ACA196 
 258      CA1A3637 
 258      CE
 259 0897 A69A80D5 		.ascii	"\246\232\200\325\333\225\352=P\375{\235p\365s\265\325"
 259      DB95EA3D 
 259      50FD7B9D 
 259      70F573B5 
 259      D5
 260 08a8 DF5C7FFE 		.ascii	"\337\\\177\376%\251\372\271T\325\267\035\256\3253F\203"
 260      25A9FAB9 
 260      54D5B71D 
 260      AED53346 
 260      83
 261 08b9 90A574DF 		.ascii	"\220\245t\337\332+O/\202J\026\202\001\235\354\244\355"
 261      DA2B4F2F 
 261      824A1682 
 261      019DECA4 
 261      ED
 262 08ca BE011A6F 		.ascii	"\276\001\032o<@c\277g\242\354\223\262_\324\314]\003"
 262      3C4063BF 
 262      67A2EC93 
 262      B25FD4CC 
 262      5D03
 263 08dc 56434F29 		.ascii	"VCO)\034\2765\215\2506\342\253\207aDH`\337\323\200\305"
 263      1CBE358D 
 263      A836E2AB 
 263      87614448 
 263      60DFD380 
 264 08f1 F1ECD748 		.ascii	"\361\354\327H\260\213\246\301\324\314n\220`Wi\300\214"
 264      B08BA6C1 
ARM GAS  /tmp/cciJnn8i.s 			page 20


 264      D4CC6E90 
 264      605769C0 
 264      8C
 265 0902 B73DC3B7 		.ascii	"\267=\303\267H\260\033\246\301\324\314\356\220`wh\300"
 265      48B01BA6 
 265      C1D4CCEE 
 265      90607768 
 265      C0
 266 0913 8C5768E1 		.ascii	"\214Wh\341\237I\260\373\246\301\324\314\356\223`\345"
 266      9F49B0FB 
 266      A6C1D4CC 
 266      EE9360E5 
 267 0923 E914600E 		.ascii	"\351\024`\016cf\325_\020`\225\246\301\324\314jH\260"
 267      6366D55F 
 267      106095A6 
 267      C1D4CC6A 
 267      48B0
 268 0935 2A1AB038 		.ascii	"*\032\2608\013\321Z\022l\272i05\263Y$X\015\015Xocfs"
 268      0BD15A12 
 268      6CBA6930 
 268      35B35924 
 268      580D0D58 
 269 094d 48B059A6 		.ascii	"H\260Y\246\301\324\314\346\221`\363h\300\372\0333[@"
 269      C1D4CCE6 
 269      9160F368 
 269      C0FA1B33 
 269      5B40
 270 095f 82D59906 		.ascii	"\202\325\231\006S3[G\202-\241\001\033h\314l=\011\266"
 270      53335B47 
 270      822DA101 
 270      1B68CC6C 
 270      3D09B6
 271 0972 DC34989A 		.ascii	"\3344\230\232\331F\022l\025\015\330\020cf\237\220`\177"
 271      D946126C 
 271      150DD810 
 271      63669F90 
 271      607F
 272 0984 350DA666 		.ascii	"5\015\246f\366)\011\266\226\006,\317\230\331\026\022"
 272      F62909B6 
 272      96062CCF 
 272      98D91612 
 273 0994 EC63D360 		.ascii	"\354c\323`jf\333H\260\2154`\257\0313\333A\202}j\032"
 273      6A66DB48 
 273      B08D3460 
 273      AF1933DB 
 273      41827D6A 
 274 09a9 4CCDEC08 		.ascii	"L\315\354\010\011\266\215\006\354\015\035f\321\217\321"
 274      09B68D06 
 274      EC0D1D66 
 274      D18FD1
 275 09b8 3C738E85 		.ascii	"<s\216\205\230\253\357LW&8&c4\023\303\370,\335\354\214"
 275      98ABEF4C 
 275      57263826 
 275      633413C3 
 275      F82CDDEC 
 276 09cd 4CD56E3C 		.ascii	"L\325n<\267~|\213\034\347\245\311\352A\032\3048\001"
 276      B77E7C8B 
ARM GAS  /tmp/cciJnn8i.s 			page 21


 276      1CE7A5C9 
 276      EA411AC4 
 276      3801
 277 09df 70DE7E62 		.ascii	"p\336~b\346\333l\032Lc\312\373\265\313\021\212\253{"
 277      E6DB6C1A 
 277      4C63CAFB 
 277      B5CB118A 
 277      AB7B
 278 09f1 B15B5788 		.ascii	"\261[W\210+\272=\364\313\362\354W\026\274\232k\325\334"
 278      2BBA3DF4 
 278      CBF2EC57 
 278      16BC9A6B 
 278      D5DC
 279 0a03 A9D61ABD 		.ascii	"\251\326\032\275U\015\247\244}\343\223\351\3067\300"
 279      550DA7A4 
 279      7DE393E9 
 279      C637C0
 280 0a12 243CDDC8 		.ascii	"$<\335\310\"N\220\026q\232F]qB|\333\376\005\260SG\177"
 280      224E9016 
 280      719A465D 
 280      71427CDB 
 280      FE05B053 
 281 0a28 25BB7565 		.ascii	"%\273ue\263\274Ph\203\205\302\331t\355L\263\2023w-\033"
 281      B3BC5068 
 281      8385C2D9 
 281      74ED4CB3 
 281      8233772D 
 282 0a3d CDC7B4AD 		.ascii	"\315\307\264\255\320\333\2772\236[ \233<\371D\303ZQ"
 282      D0DBBF32 
 282      9E5B209B 
 282      3CF944C3 
 282      5A51
 283 0a4f ACB09B69 		.ascii	"\254\260\233i\307A\271\035\377\200v\334\370\005\332"
 283      C741B91D 
 283      FF8076DC 
 283      F805DA
 284 0a5e 71DF743B 		.ascii	"q\337t;\236\326\264c\327\323\346\333qRn\307yhGe\306"
 284      9ED6B463 
 284      D7D3E6DB 
 284      71526EC7 
 284      79684765 
 285 0a73 83B7637A 		.ascii	"\203\267cz\206\331v\364&\332\001\253\266^\322\252\215"
 285      86D976F4 
 285      26DA01AB 
 285      B65ED2AA 
 285      8D
 286 0a84 EA16DE8B 		.ascii	"\352\026\336\213\026\315-\274'\017\261\016);\321rI\014"
 286      16CD2DBC 
 286      270FB10E 
 286      293BD172 
 286      490C
 287 0a96 DF3C442C 		.ascii	"\337<D,uE\272\245\356\025YcW@c35\032\243G\272\275o\317"
 287      7545BAA5 
 287      EE155963 
 287      57406333 
 287      351AA347 
 288 0aae C7708F3E 		.ascii	"\307p\217>\317^\003\250\371ICm:\264Y\272A\344&\000-"
ARM GAS  /tmp/cciJnn8i.s 			page 22


 288      CF5E03A8 
 288      F949436D 
 288      3AB459BA 
 288      41E42600 
 289 0ac3 EDD08B76 		.ascii	"\355\320\213vM'\332\325\235\210~\342\232n\341\2257\373"
 289      4D27DAD5 
 289      9D887EE2 
 289      9A6EE195 
 289      37FB
 290 0ad5 B69C837F 		.ascii	"\266\234\203\177\2440\377\364\3638f\015\320\307\035"
 290      A430FFF4 
 290      F338660D 
 290      D0C71D
 291 0ae4 683250C5 		.ascii	"h2P\305\014\350\331\0069\310H\235\264\361\201\020\313"
 291      0CE8D906 
 291      39C8489D 
 291      B4F18110 
 291      CB
 292 0af5 C31BA62C 		.ascii	"\303\033\246,\224o\364\036\200\303\314\366\007\204k"
 292      946FF41E 
 292      80C3CCF6 
 292      07846B
 293 0b04 6E34BFC1 		.ascii	"n4\277\301\262\3531\311\352D\270h\260\247C\017'\265"
 293      B2EB31C9 
 293      EA44B868 
 293      B0A7430F 
 293      27B5
 294 0b16 C17224D9 		.ascii	"\301r$\331\206D?\034s\\;\334M\255\306po\335\356E\271"
 294      86443F1C 
 294      735C3BDC 
 294      4DADC670 
 294      6FDDEE45 
 295 0b2b 4913DDFA 		.ascii	"I\023\335\372;\327\343\200\264Ag\305[\177\255\032eP"
 295      3BD7E380 
 295      B44167C5 
 295      5B7FAD1A 
 295      6550
 296 0b3d 6CF67C0F 		.ascii	"l\366|\017\247\274k\355\260\365\327\334S\332m\301\177"
 296      A7BC6BED 
 296      B0F5D7DC 
 296      53DA6DC1 
 296      7F
 297 0b4e 516CF654 		.ascii	"Ql\366T*v!\355\350M\261p2l\262\372Tua\214\037\202\266"
 297      2A7621ED 
 297      E84DB170 
 297      326CB2FA 
 297      5475618C 
 298 0b65 E279C354 		.ascii	"\342y\303T\253j\317\367\216i\335;H\335\207\3576.`1\177"
 298      AB6ACFF7 
 298      8E69DD3B 
 298      48DD87EF 
 298      362E6031 
 299 0b7a 9DFDA981 		.ascii	"\235\375\251\201\344l.\252\370H\317\203\3226\037(~\342"
 299      E46C2EAA 
 299      F848CF83 
 299      D2361F28 
 299      7EE2
ARM GAS  /tmp/cciJnn8i.s 			page 23


 300 0b8c 4326EF90 		.ascii	"C&\357\220\341\230Z8\245\246\243\342\017>&)\276\206"
 300      E1985A38 
 300      A5A6A3E2 
 300      0F3E2629 
 300      BE86
 301 0b9e 4AF12DBA 		.ascii	"J\361-\272\212\2571\257x\031\357\313\330\376)\317N3"
 301      8AAF31AF 
 301      7819EFCB 
 301      D8FE29CF 
 301      4E33
 302 0bb0 0DE688D7 		.ascii	"\015\346\210\327\2135D/\326B/\316\264\342\335\366Y\352"
 302      8B35442F 
 302      D6422FCE 
 302      B4E2DDF6 
 302      59EA
 303 0bc2 BE5CFE90 		.ascii	"\276\\\376\220\246/U\232\223\223\206{\007bxF\223\362"
 303      A62F559A 
 303      9393867B 
 303      07627846 
 303      93F2
 304 0bd4 308AE4F3 		.ascii	"0\212\344\363\326i\361\364Z\021g\305_\327\004*\221\374"
 304      D669F1F4 
 304      5A1167C5 
 304      5FD7042A 
 304      91FC
 305 0be6 CD27A6C1 		.ascii	"\315'\246\301\034*\260\355\323)/K\253n\003\340\230]"
 305      1C2AB0ED 
 305      D3292F4B 
 305      AB6E03E0 
 305      985D
 306 0bf8 506F9DD6 		.ascii	"Po\235\326\\\026]l\236\314N\200\320YGa/(\316\237M\203"
 306      5C165D6C 
 306      9ECC4E80 
 306      D0594761 
 306      2F28CE9F 
 307 0c0e 3BAB24BB 		.ascii	";\253$\273\275\033E\215\243\3528\326r\367\274|\243\226"
 307      BD1B458D 
 307      A3EA38D6 
 307      72F7BC7C 
 307      A396
 308 0c20 B4EAA8E8 		.ascii	"\264\352\250\350\254\201K\270(R\303\335\027\016\364"
 308      AC814BB8 
 308      2852C3DD 
 308      170EF4
 309 0c2f 36A718E5 		.ascii	"6\247\030\345\302i\003\236\351\254\2046M\351\254\215"
 309      C269039E 
 309      E9AC8436 
 309      4DE9AC8D 
 310 0c3f 08926608 		.ascii	"\010\222f\010C\254#\014\261\036\014q1\030\342R\220\313"
 310      43AC230C 
 310      B11E0C71 
 310      3118E252 
 310      90CB
 311 0c51 4973349A 		.ascii	"Is4\232l\255\260\022\313\207\031\246\333\355\320\364"
 311      6CADB012 
 311      CB8719A6 
 311      DBEDD0F4 
ARM GAS  /tmp/cciJnn8i.s 			page 24


 312 0c61 8E51350B 		.ascii	"\216Q5\013\311j\346u\246\260=\343\015\"\354\324\177"
 312      C96AE675 
 312      A6B03DE3 
 312      0D22ECD4 
 312      7F
 313 0c72 A74C07A4 		.ascii	"\247L\007\244\313\023\313L#\252\255\371\312t\325t\340"
 313      CB13CB4C 
 313      23AAADF9 
 313      CA74D574 
 313      E0
 314 0c83 231AB881 		.ascii	"#\032\270\201:\004\365>\344\005)\236}\007V\213\357Z"
 314      3A04F53E 
 314      E405299E 
 314      7D07568B 
 314      EF5A
 315 0c95 70074D05 		.ascii	"p\007M\0059\035\344\014\220GA\266\200<\016\3624\310"
 315      391DE40C 
 315      904741B6 
 315      803C0EF2 
 315      34C8
 316 0ca7 6F409E03 		.ascii	"o@\236\003\371#\310I\320\305\323A\316\0019\017\344\002"
 316      F923C849 
 316      D0C5D341 
 316      CE01390F 
 316      E402
 317 0cb9 901F825C 		.ascii	"\220\037\202\\\233\310\000\344(\320\366\323\311\307"
 317      9BC800E4 
 317      28D0F6D3 
 317      C9C7
 318 0cc7 3F045F5D 		.ascii	"?\004_]\016\346\177\251\203\345UY4\227\013:\\\357*\357"
 318      0EE67FA9 
 318      83E55559 
 318      34970B3A 
 318      5CEF2AEF 
 319 0cdb 4271DD30 		.ascii	"Bq\3350\316\225\235\031\227\316\215\337^.\365\351J0"
 319      CE959D19 
 319      97CE8DDF 
 319      5E2EF5E9 
 319      4A30
 320 0ced EB4556CD 		.ascii	"\353EV\315]\014\211\357ORw\352\251:\343\307\023T\027"
 320      5D0C89EF 
 320      4F5277EA 
 320      A93AE3C7 
 320      135417
 321 0d00 6EA20F1D 		.ascii	"n\242\017\035<\031\323\311\206;'\377O\272\003\345\023"
 321      3C19D3C9 
 321      863B27FF 
 321      4FBA03E5 
 321      13
 322 0d11 188D7BBB 		.ascii	"\030\215{\273$\276\032\251\302\301Zj\320\270\271\360"
 322      24BE1AA9 
 322      C2C15A6A 
 322      D0B8B9F0 
 323 0d21 95D370E7 		.ascii	"\225\323p\347BCb\0277\261\"|\375t\255l\224\322\023L"
 323      42436217 
 323      37B1227C 
 323      FD74AD6C 
ARM GAS  /tmp/cciJnn8i.s 			page 25


 323      94D2134C 
 324 0d35 CD40A121 		.ascii	"\315@\241!\271\220\210\037\207:M<\016\325b\032\314\241"
 324      B990881F 
 324      873A4D3C 
 324      0ED5621A 
 324      CCA1
 325 0d47 02BB4582 		.ascii	"\002\273E\202\235\244\001\213\363\250\353\035\022\354"
 325      9DA4018B 
 325      F3A8EB1D 
 325      12EC
 326 0d55 6BD3606A 		.ascii	"k\323`jf?\223`m4`q\036u\275O\202\2355\015\246fV\335"
 326      663F9360 
 326      6D346071 
 326      1E75BD4F 
 326      829D350D 
 327 0d6d 46805DA0 		.ascii	"F\200]\240\001\213\363\014_\015\011\366\223i05\263Z"
 327      018BF30C 
 327      5F0D09F6 
 327      93693035 
 327      B35A
 328 0d7f 12EC2E0D 		.ascii	"\022\354.\015\230C\207\231\336\207\034\004<\273\005"
 328      98438799 
 328      DE871C04 
 328      3CBB05
 329 0d8e 82D456F0 		.ascii	"\202\324V\360N\333A\356\004\271\013\344g \367\202\334"
 329      4EDB41EE 
 329      04B90BE4 
 329      6720F782 
 329      DC
 330 0d9f 0FF220C8 		.ascii	"\017\362 \310F\232@\266\211\2140\023\272Rx\2438;H3."
 330      469A40B6 
 330      898C3013 
 330      BA5278A3 
 330      383B4833 
 331 0db4 1DF9DF07 		.ascii	"\035\371\337\007\271\003*2\177\311\241\377\302\356#"
 331      B9032A32 
 331      7FC9A1FF 
 331      C2EE23
 332 0dc3 F15D50CD 		.ascii	"\361]P\315V\272\273\240\216j}\311\365&\360%G\251\246"
 332      56BABBA0 
 332      8E6A7DC9 
 332      F526F025 
 332      47A9A6
 333 0dd6 D73729A7 		.ascii	"\3277)\247ka\226\324N\324\027\036|I\362\205\307\301"
 333      6B6196D4 
 333      4ED4171E 
 333      7C49F285 
 333      C7C1
 334 0de8 177EDE35 		.ascii	"\027~\3365\241/T\343\3006\251\226\377\206\303\300\377"
 334      A12F54E3 
 334      C036A996 
 334      FF86C3C0 
 334      FF
 335 0df9 2B2A5FB8 		.ascii	"+*_\270\371\260\332\027\266\001\205\257\222\366\205"
 335      F9B0DA17 
 335      B60185AF 
 335      92F685
ARM GAS  /tmp/cciJnn8i.s 			page 26


 336 0e08 9F1E260C 		.ascii	"\237\036&\014\376\214i0\207\012l\013\011\366\035\015"
 336      FE8C6930 
 336      870A6C0B 
 336      09F61D0D 
 337 0e18 58BCC7FE 		.ascii	"X\274\307\376I\260\037L\203\251\231\355 \301.\323\200"
 337      49B01F4C 
 337      83A999ED 
 337      20C12ED3 
 337      80
 338 0e29 C57BEC9F 		.ascii	"\305{\354\237\004\273n\032\314\241\327\275L\007\353"
 338      04BB6E1A 
 338      CCA1D7BD 
 338      4C07EB
 339 0e38 E0D95670 		.ascii	"\340\331Vp\022_\303\320?\0152\002\362\014\310\177\200"
 339      125FC3D0 
 339      3F0D3202 
 339      F20CC87F 
 339      80
 340 0e49 FC96C625 		.ascii	"\374\226\306%|I\272\204\333@\370h\262\013J4\242\317"
 340      7C49BA84 
 340      DB40F868 
 340      B20B4A34 
 340      A2CF
 341 0e5b FC7E4B47 		.ascii	"\374~KG\227 \351\303\210\301\367$\003\261\233Y\006\016"
 341      9720E9C3 
 341      88C1F724 
 341      03B19B59 
 341      060E
 342 0e6d 9241F86E 		.ascii	"\222A\370n\223\2649\257<~6I\213\247\267-\033o\225\322"
 342      93B439AF 
 342      3C7E3649 
 342      8BA7B72D 
 342      1B6F95D2 
 343 0e81 94BEEE0D 		.ascii	"\224\276\356\015\005l\252i\260T\025X\365a\002l\226i"
 343      056CAA69 
 343      B0541558 
 343      F561026C 
 343      9669
 344 0e93 30A35BE5 		.ascii	"0\243[\345\216\201-\264@\237\237\007y\001\344E\220\227"
 344      8E812DB4 
 344      409F9F07 
 344      7901E445 
 344      9097
 345 0ea5 D50BEE85 		.ascii	"\325\013\356\205\335\264\363\326\243\332\025S\314\213"
 345      DDB4F3D6 
 345      A3DA1553 
 345      CC8B
 346 0eb3 32B4B846 		.ascii	"2\264\270F}{\230\354\333u\335(\002\216\303\330\272f"
 346      7D7B98EC 
 346      DB75DD28 
 346      028EC3D8 
 346      BA66
 347 0ec5 5CBA2C07 		.ascii	"\\\272,\007\034\011\030-\320M#\252\255ef[\235\352U\026"
 347      1C09182D 
 347      D04D23AA 
 347      AD65665B 
 347      9DEA5516 
ARM GAS  /tmp/cciJnn8i.s 			page 27


 348 0ed9 DB68F0E2 		.ascii	"\333h\360\342\334\311\260@\232\"H`\373L\2039\030\303"
 348      DCC9B040 
 348      9A224860 
 348      FB4C8339 
 348      18C3
 349 0eeb 0F797B39 		.ascii	"\017y{9\032\264ps\344q\270}\361;\220\023`\301\263\001"
 349      1AB47073 
 349      E471B87D 
 349      F13B9013 
 349      60C1B301 
 350 0eff 7A6623C8 		.ascii	"zf#\310&\220\327@\336\000y\213\246\307\232\311\033\035"
 350      2690D740 
 350      DE00798B 
 350      A6C79AC9 
 350      1B1D
 351 0f11 8F40139A 		.ascii	"\217@\023\232\222\275M6\322\360\345\361\305\354\214"
 351      92BD4D36 
 351      D2F0E5F1 
 351      C5EC8C
 352 0f20 0A113F92 		.ascii	"\012\021?\222u\016\356ym1\215\250\356\261\033\322\226"
 352      750EEE79 
 352      6D318DA8 
 352      EEB11BD2 
 352      96
 353 0f31 9504D64A 		.ascii	"\225\004\326J\003\2467\270\011\265J\012=\014\012=\""
 353      03A637B8 
 353      09B54A0A 
 353      3D0C0A3D 
 353      22
 354 0f42 DD150ACA 		.ascii	"\335\025\012\312\272\247\0366\177\3570l\232\264\367"
 354      BAA71E36 
 354      7FEF306C 
 354      9AB4F7
 355 0f51 9936A9EE 		.ascii	"\2316\251\35635\3042R\374\241\230\342yV\204\31583\317"
 355      3335C432 
 355      52FCA198 
 355      E2795684 
 355      CD3833CF 
 356 0f65 76A8D5D4 		.ascii	"v\250\325\324\276_q\203\322k\005~\000\372\011\236\306"
 356      BE5F7183 
 356      D26B057E 
 356      00FA099E 
 356      C6
 357 0f76 D1DB16D3 		.ascii	"\321\333\026\323\373\220\217\304#\367\015/v\370\001"
 357      FB908FC4 
 357      23F70D2F 
 357      76F801
 358 0f85 1E1D5B05 		.ascii	"\036\035[\005\215\336\005r/\310\375 \017\202\024m\024"
 358      8DDE0572 
 358      2FC8FD20 
 358      0F82146D 
 358      14
 359 0f96 6A38CB12 		.ascii	"j8\313\022j \356 GS"
 359      6A20EE20 
 359      4753
 360 0fa0 6E4D173C 		.ascii	"nM\027<\311,\025\305\232\310\251\243\337-fgV\210C\244"
 360      C92C15C5 
ARM GAS  /tmp/cciJnn8i.s 			page 28


 360      9AC8A9A3 
 360      DF2D6667 
 360      568843A4 
 361 0fb4 7339A6B6 		.ascii	"s9\246\266;.w\206}B\267\216h\015\3606\203r\361\307I"
 361      3B2E7786 
 361      7D42B78E 
 361      680DF036 
 361      8372F1C7 
 362 0fc9 93BAB2CA 		.ascii	"\223\272\262\312\013\025T\247i\236\224\200\277\313m"
 362      0B1554A7 
 362      699E9480 
 362      BFCB6D
 363 0fd8 1DDE6EB0 		.ascii	"\035\336n\260.\022\336\241\274\335@zi\001\307\314\355"
 363      2E12DEA1 
 363      BCDD407A 
 363      6901C7CC 
 363      ED
 364 0fe9 AE47556C 		.ascii	"\256GUl\020d\222<;\321\206;\270\322\226\024I\3424=\222"
 364      1064923C 
 364      3BD1863B 
 364      B8D29614 
 364      49E2343D 
 365 0ffe 933B     		.ascii	"\223;"
 366 1000 92AC8F84 		.ascii	"\222\254\217\204\257\306H\266\001\311\215\032\222\372"
 366      AFC648B6 
 366      01C98D1A 
 366      92FA
 367 100e 2F78A8B2 		.ascii	"/x\250\262i^\3600E\027\375\332!\375\027<\304yj`\272"
 367      695EF030 
 367      4517FDDA 
 367      21FD173C 
 367      C4796A60 
 368 1023 4DF3D400 		.ascii	"M\363\324\000n\236\246\317w\350+\362\372\377\364P,\373"
 368      6E9EA6CF 
 368      77E82BF2 
 368      FAFFF450 
 368      2CFB
 369 1035 6F50629A 		.ascii	"oPb\232\201F\242o\315\220\2336M\004E\312m\233\246m["
 369      8146A26F 
 369      CD909B36 
 369      4D0445CA 
 369      6D9BA66D 
 370 104a B56EDBE6 		.ascii	"\265n\333\3465F5\2079#\267\250\317\252Ma\305\2635\320"
 370      35463587 
 370      3923B7A8 
 370      CFAA4D61 
 370      C5B335D0 
 371 105e BDB549B1 		.ascii	"\275\265I\261\252\325\262\232\331\221U\244:r\373\223"
 371      AAD5B29A 
 371      D99155A4 
 371      3A72FB93 
 372 106e DDB7D9F2 		.ascii	"\335\267\331\362\245\225a\314\355\355h\257.~X\333\253"
 372      A59561CC 
 372      EDED68AF 
 372      2E7E58DB 
 372      AB
 373 107f 12C85C5D 		.ascii	"\022\310\\]\220\211W\033\331wj\304\237\361{\202\350"
ARM GAS  /tmp/cciJnn8i.s 			page 29


 373      9089571B 
 373      D9776AC4 
 373      9FF17B82 
 373      E8
 374 1090 7B6EBEB6 		.ascii	"{n\276\266\347\360\363\014\362\017\3727\256l\227\336"
 374      E7F0F30C 
 374      F20FFA37 
 374      AE6C97DE 
 375 10a0 B85267C3 		.ascii	"\270Rg\303\301r\375\303Z\377\232\304\245=\222\322\011"
 375      C172FDC3 
 375      5AFF9AC4 
 375      A53D92D2 
 375      09
 376 10b1 9DE7C439 		.ascii	"\235\347\3049f\247\201v\226\250\265\363\357\314bq]\030"
 376      66A78176 
 376      96A8B5F3 
 376      EFCC6271 
 376      5D18
 377 10c3 B99685FF 		.ascii	"\271\226\205\377\211\237A\024\261\202XV\177e\033\356"
 377      899F4114 
 377      B1825856 
 377      7F651BEE 
 378 10d3 A4B46D15 		.ascii	"\244\264m\025q\213\301\336\366\236\242Uo\315\247.\215"
 378      718BC1DE 
 378      F69EA255 
 378      6FCDA72E 
 378      8D
 379 10e4 B8D87497 		.ascii	"\270\330t\227\266\232r\270\344J\233fq\370\223\264\270"
 379      B69A72B8 
 379      E44A9B66 
 379      71F893B4 
 379      B8
 380 10f5 C5F989AF 		.ascii	"\305\371\211\257\005\334n2\274\350\025\211\256C\037"
 380      05DC6E32 
 380      BCE81589 
 380      AE431F
 381 1104 8FF54E73 		.ascii	"\217\365Ns\023\336e\377\300\206\327\262-\032\255%\304"
 381      13DE65FF 
 381      C086D7B2 
 381      2D1AAD25 
 381      C4
 382 1115 C074D668 		.ascii	"\300t\326h\351\316\220\350\256\241\240[\036\236\335"
 382      E9CE90E8 
 382      AEA1A05B 
 382      1E9EDD
 383 1124 A47EC9D8 		.ascii	"\244~\311\3309\240\200\317Mj&\022\236\327D\314\314."
 383      39A080CF 
 383      4D6A2612 
 383      9ED744CC 
 383      CC2E
 384 1136 9A0673A8 		.ascii	"\232\006s\250\300\352H\260\3534`qV\030\353I\260{\246"
 384      C0EA48B0 
 384      EB346071 
 384      5618EB49 
 384      B07BA6
 385 1149 C1D4CC3E 		.ascii	"\301\324\314>!\301*\036\241\000\213s\223\331\026\022"
 385      21C12A1E 
ARM GAS  /tmp/cciJnn8i.s 			page 30


 385      A1008B73 
 385      93D91612 
 386 1159 6CB26930 		.ascii	"l\262i05\263\035$\330T\0320\275}=\275\017ij<\273\326"
 386      35B31D24 
 386      D8541A30 
 386      BD7D3DBD 
 386      0F696A3C 
 387 116f 86A7231F 		.ascii	"\206\247#\037\331\360\204\343c\220\033@n\002\271\031"
 387      D9F084E3 
 387      63901B40 
 387      6E02B919 
 388 117f 6403C8AD 		.ascii	"d\003\310\2556\325\014\357}\340\2642\306Im\322\211L"
 388      36D50CEF 
 388      7DE0B432 
 388      C6496DD2 
 388      894C
 389 1191 4C0C578F 		.ascii	"L\014W\217\304\015\224F\314\034*0\303\31551<\207\000"
 389      C40D9446 
 389      CC1C2A30 
 389      C3CD3531 
 389      3C8700
 390 11a4 5B440566 		.ascii	"[D\005fx-H\014\257#\300VP\201\031\336^*\206?%\300\326"
 390      782D480C 
 390      AF23C056 
 390      508119DE 
 390      5E2A863F 
 391 11bb 5081F98D 		.ascii	"P\201\371\215\231]&\3006R\201\275\303\352P#lA\262\202"
 391      995D26C0 
 391      365281BD 
 391      C3EA5023 
 391      6C41B282 
 392 11cf 556005AB 		.ascii	"U`\005\253\241\237w\200\014\203\334\015r\017\310}\352"
 392      A19F7780 
 392      0C83DC0D 
 392      720FC87D 
 392      EA
 393 11e0 FEDFFA88 		.ascii	"\376\337\372\2106\002I\216\225\300\216y`\306,\372\336"
 393      3602498E 
 393      95C08E79 
 393      60C62CFA 
 393      DE
 394 11f1 28BAB183 		.ascii	"(\272\261\203?\210\202\320\2771'\036Y(J#\274\037\263"
 394      3F8882D0 
 394      BF31271E 
 394      59284A23 
 394      BC1FB3
 395 1204 417C27FC 		.ascii	"A|'\374\006\317.\203zq}R\226_R\231d\346r\010\254\177"
 395      06CF2E83 
 395      7A717D52 
 395      965F5299 
 395      64E67208 
 396 121a 573CC6C9 		.ascii	"W<\306\3116\037\015\217\222\361\313??\272\211\203\244"
 396      361F0D8F 
 396      92F1CB3F 
 396      3FBA8983 
 396      A4
 397 122b 3412E4AC 		.ascii	"4\022\344\254IKZ\352\355\362\260\220\263\332\320L@\032"
ARM GAS  /tmp/cciJnn8i.s 			page 31


 397      494B5AEA 
 397      EDF2B090 
 397      B3DAD04C 
 397      401A
 398 123d 21728678 		.ascii	"!r\206x\221\225\007\213\222\021~\206\221\033nLGd\343"
 398      9195078B 
 398      92117E86 
 398      911B6E4C 
 398      4764E3
 399 1250 729102B6 		.ascii	"r\221\002\266\212K\313\007-\037\330\324\\\332\265\\"
 399      8A4BCB07 
 399      2D1FD8D4 
 399      5CDAB55C 
 400 1260 183513F8 		.ascii	"\0305\023\370\035\216\313\203I\202FU24v\377\3424\222"
 400      1D8ECB83 
 400      49824655 
 400      323476FF 
 400      E23492
 401 1273 D2C69E5F 		.ascii	"\322\306\236_\226Fn\022\024\366\375\262\024\030\323"
 401      96466E12 
 401      14F6FDB2 
 401      1418D3
 402 1282 143A3C36 		.ascii	"\024:<6\214g\306Fs\331/l\321\365\246\346,<\3135:\353"
 402      8C67C646 
 402      73D92F6C 
 402      D1F5A6E6 
 402      2C3CCB35 
 403 1298 68EC2CF9 		.ascii	"h\354,\371\365\304\361\336\002\212t\002\213\344D/\352"
 403      F5C4F1DE 
 403      028A7402 
 403      8BE4442F 
 403      EA
 404 12a9 8479D504 		.ascii	"\204y\325\004\352w\240B\177\303\272\373s\362\325\210"
 404      EA77A042 
 404      7FC3BAFB 
 404      73F2D588 
 405 12b9 4C6E66A1 		.ascii	"Lnf\241\257X\310t\373<\3433=\302\330Lw\241w\264\327"
 405      AF58C874 
 405      FB3CE333 
 405      3DC2D84C 
 405      77A177B4 
 406 12ce 17CC0C05 		.ascii	"\027\314\014\005JK\336\314D\211B\276(\323\357\013\204"
 406      4A4BDECC 
 406      448942BE 
 406      28D3EF0B 
 406      84
 407 12df 8299F9A3 		.ascii	"\202\231\371\243\206\367\355\2239lXN\346+yCG\216\355"
 407      86F7ED93 
 407      396C584E 
 407      E62B7943 
 407      478EED
 408 12f2 93E9E78B 		.ascii	"\223\351\347\213\\EE\236^\205LF0T\334\267\217k\214\337"
 408      5C45459E 
 408      5E854C46 
 408      3054DCB7 
 408      8F6B8CDF 
 409 1306 EB7385EC 		.ascii	"\353s\205\354\257\214x\325\221\315<\231Y\032\014d\362"
ARM GAS  /tmp/cciJnn8i.s 			page 32


 409      AF8C78D5 
 409      91CD3C99 
 409      591A0C64 
 409      F2
 410 1317 81E2E74A 		.ascii	"\201\342\347J|%\302s\002?\332\233\351-q\027\225z\204"
 410      7C25C273 
 410      023FDA9B 
 410      E92D7117 
 410      957A84
 411 132a CC60C8E3 		.ascii	"\314`\310\343-\011\241\023SK\3217:3\324/N\351b\036\261"
 411      2D09A113 
 411      534BD137 
 411      3A33D42F 
 411      4EE9621E 
 412 133f 2A11325D 		.ascii	"*\0212]\036\241\200/-\012\271B\343\375B\020\235\335"
 412      1EA1802F 
 412      2D0AB942 
 412      E3FD4210 
 412      9DDD
 413 1351 C9E552CE 		.ascii	"\311\345R\316\267\015\037\231\223\353\264\217\034\365"
 413      B70D1F99 
 413      93EBB48F 
 413      1CF5
 414 135f 7A5EAE33 		.ascii	"z^\2563ed~^nn\216\323\226\367j^\216\3232\024\035#s\234"
 414      65647E5E 
 414      6E6E8ED3 
 414      96F76A5E 
 414      8ED33214 
 415 1377 EC9FA0B6 		.ascii	"\354\237\240\266\254\347]!\371D\234\264\004\205\220"
 415      ACE75D21 
 415      F9449CB4 
 415      048590
 416 1386 CD5D24F0 		.ascii	"\315]$\360\001v\210up\276\323i\035\226\375\007\247u"
 416      01768875 
 416      70BED369 
 416      1D96FD07 
 416      A775
 417 1398 D0CBCE61 		.ascii	"\320\313\316aX\014\261\014v:S\275\276b\237G@\265\270"
 417      580CB10C 
 417      763A53BD 
 417      BE629F47 
 417      40B5B8
 418 13ab 06FB7C45 		.ascii	"\006\373|E\251\243}|\300\323\313\315d\270\\\350\274"
 418      A9A37D7C 
 418      C0D3CBCD 
 418      64B85CE8 
 418      BC
 419 13bc A2F12E6F 		.ascii	"\242\361.o\2117\364<\215&\243M*v\273\202~/jC\332\360"
 419      8937F43C 
 419      8D26A34D 
 419      2A76BB82 
 419      7E2F6A43 
 420 13d2 E1D93901 		.ascii	"\341\3319\001\357X!\220\021M\375q\370\250to\020\241"
 420      EF582190 
 420      114DFD71 
 420      F8A8746F 
 420      10A1
ARM GAS  /tmp/cciJnn8i.s 			page 33


 421 13e4 06854048 		.ascii	"\006\205@H\360d\240\264?\340\013\011n\364#\305\355+"
 421      F064A0B4 
 421      3FE00B09 
 421      6EF423C5 
 421      ED2B
 422 13f6 2941A94E 		.ascii	")A\251N\036oPN\246\340\266\364w\205\322\244V\241\224"
 422      1E6F504E 
 422      A6E0B6F4 
 422      7785D2A4 
 422      56A194
 423 1409 3520F01E 		.ascii	"5 \360\036\333\270\2007$X\203\343K\334\2773\303\015"
 423      DBB88037 
 423      245883E3 
 423      4BDCBF33 
 423      C30D
 424 141b A55D5EDF 		.ascii	"\245]^\337\350\"\237\373M\304\257\313`\234\310\021\306"
 424      E8229FFB 
 424      4DC4AFCB 
 424      609CC811 
 424      C6
 425 142c 7ADDC2D0 		.ascii	"z\335\302\320\222\002_\352\350\2427]A\357[B\012N\224"
 425      92025FEA 
 425      E8A2375D 
 425      41EF5B42 
 425      0A4E94
 426 143f 9416A78E 		.ascii	"\224\026\247\216\021B\210j\201\3172\2668\324\011e\006"
 426      1142886A 
 426      81CF32B6 
 426      38D40965 
 426      06
 427 1450 437C08E9 		.ascii	"C|\010\351\252\323\340a\177p\275:b\350\210\241\243R"
 427      AAD3E061 
 427      7F70BD3A 
 427      62E888A1 
 427      A352
 428 1462 71327FD4 		.ascii	"q2\177\324\310<\310\033\224=j\350\037s;\343d\366\310"
 428      C83CC81B 
 428      943D6AE8 
 428      1F733BE3 
 428      64F6C8
 429 1475 112372D1 		.ascii	"\021#r\321\317\021\257t\303?s\206\346\307r\322p\216"
 429      CF11AF74 
 429      C33F7386 
 429      E6C772D2 
 429      708E
 430 1487 337750CE 		.ascii	"3wP\316\353\351J\012\345B\372O\316\241\243\224t\376"
 430      EBE94A0A 
 430      E542FA4F 
 430      CEA1A394 
 430      74FE
 431 1499 EB23B251 		.ascii	"\353#\262Q\332\006\265Z\334^\217\305\035\364\244\272"
 431      DA06B55A 
 431      DC5E8FC5 
 431      1DF4A4BA 
 432 14a9 793FEFF6 		.ascii	"y?\357\366\206\306\347$c\336\371yC\307fe\242\356\221"
 432      86C6E724 
 432      63DEF979 
ARM GAS  /tmp/cciJnn8i.s 			page 34


 432      43C76665 
 432      A2EE91
 433 14bc AD3B0D65 		.ascii	"\255;\015eH\035\323\307\214\036\245\376\355\204\276"
 433      481DD3C7 
 433      8C1EA5FE 
 433      ED84BE
 434 14cb 148D201C 		.ascii	"\024\215 \034E#8\2115\202\261\245V\302\277\222n2p2{"
 434      45233889 
 434      3582B1A5 
 434      56C2BF92 
 434      6E327032 
 435 14e0 E4F0BC61 		.ascii	"\344\360\274a\271\243r\037B\000n\276\250h4\357~\023"
 435      B9A3721F 
 435      42006EBE 
 435      A86834EF 
 435      7E13
 436 14f2 0D2EA1C4 		.ascii	"\015.\241\304\343r\217\356\344\365a\326^\017\312\011"
 436      E3728FEE 
 436      E4F561D6 
 436      5E0FCA09 
 437 1502 0671D286 		.ascii	"\006q\322\206\276x\324\370@\026\206\314\366\225\024"
 437      BE78D4F8 
 437      401686CC 
 437      F69514
 438 1511 78C7D8DD 		.ascii	"x\307\330\335\360\325?\021\353@(J\332]\030\034\037T"
 438      F0D53F11 
 438      EB40284A 
 438      DA5D181C 
 438      1F54
 439 1523 C6576AA8 		.ascii	"\306Wj\250\020\033\022\262,w\241KJ\3673\207\345.\304"
 439      101B12B2 
 439      2C77A14B 
 439      4AF73387 
 439      E52EC4
 440 1536 0AB4FB5D 		.ascii	"\012\264\373]%BY\010}\371\003\302\330!\024\020R\227"
 440      25425908 
 440      7DF903C2 
 440      D8211410 
 440      5297
 441 1548 0C720ECF 		.ascii	"\014r\016\317\036^\206J\026\373\275EB \230\371Jv6*\256"
 441      1E5E864A 
 441      16FBBD45 
 441      422098F9 
 441      4A76362A 
 442 155d D04B09F9 		.ascii	"\320K\011\371\003\340p0\256\327\207GF\010U\363\242i"
 442      03E07030 
 442      AED78747 
 442      460855F3 
 442      A269
 443 156f FC42B72F 		.ascii	"\374B\267/  \300t\234\215l9\344\016\225\375wr(\256\261"
 443      2020C074 
 443      9C8D6C39 
 443      E40E95FD 
 443      777228AE 
 444 1584 2F1463CD 		.ascii	"/\024c\315\005\2041\310\231a\367\222\365<:^@G\177t\274"
 444      058431C8 
 444      9961F792 
ARM GAS  /tmp/cciJnn8i.s 			page 35


 444      F53C3A5E 
 444      40477F74 
 445 1599 6809F6E9 		.ascii	"h\011\366\351\215\216,t\364AG_t\364C\307o\321\201\312"
 445      8D8E2C74 
 445      F441475F 
 445      74F443C7 
 445      6FD181CA 
 446 15ad F541E5FA 		.ascii	"\365A\345\372\240r}P\271\276\250\\\337,.\320\217\013"
 446      A0727D50 
 446      B9BEA85C 
 446      DF2C2ED0 
 446      8F0B
 447 15bf FC960B3C 		.ascii	"\374\226\013<\317\005^\340\002\375\271\300\213\226@"
 447      CF055EE0 
 447      02FDB9C0 
 447      8B9640
 448 15ce 566F7464 		.ascii	"VotdqE\001\364\325\327\346w!\266)X\303\343\204\000\372"
 448      714501F4 
 448      D5D7E677 
 448      21B62958 
 448      C3E38400 
 449 15e3 F6157984 		.ascii	"\366\025y\204\200\325]\310\007\260\332\371b!5$\333\037"
 449      80D55DC8 
 449      07B0DAF9 
 449      62213524 
 449      DB1F
 450 15f5 FA135229 		.ascii	"\372\023R)!\311\233\241\337\005E\374\230`J( \024\004"
 450      21C99BA1 
 450      DF0545FC 
 450      98604A28 
 450      201404
 451 1608 418F3861 		.ascii	"A\2178a+\016\216A\177\312\216\0259\0259e\017x\306\243"
 451      2B0E8E41 
 451      7FCA8E15 
 451      39153965 
 451      0F78C6A3 
 452 161c BF528532 		.ascii	"\277R\2052o\010\251E\260\217\013\371F\377\331\237.\214"
 452      6F08A945 
 452      B08F0BF9 
 452      46FFD99F 
 452      2E8C
 453 162e 154A42C5 		.ascii	"\025JB\305|\020\254s\034NX\374\256\322\316\222\275\004"
 453      7C10AC73 
 453      1C4E58FC 
 453      AED2CE92 
 453      BD04
 454 1640 5D45C8FC 		.ascii	"]E\310\374]\241.Q\013\222r\322\374\256q\2747\344-\031"
 454      5DA12E51 
 454      0B9272D2 
 454      FCAE71BC 
 454      37E42D19 
 455 1654 D345C9FE 		.ascii	"\323E\311\376K\251P\212Xu%JBV'\277\013U\013I\033$Q\206"
 455      4BA9508A 
 455      5875254A 
 455      425627BF 
 455      0B550B49 
 456 166c E047E300 		.ascii	"\340G\343\000\235l+.E]\336\327\224Q\026\207\312\260"
ARM GAS  /tmp/cciJnn8i.s 			page 36


 456      9D6C2B2E 
 456      455DDED7 
 456      94511687 
 456      CAB0
 457 167e F1144BE8 		.ascii	"\361\024K\350\350\3337\256\004i\016\220P\023\212\301"
 457      E8DB37AE 
 457      04690E90 
 457      50138AC1 
 458 168e 56113F54 		.ascii	"V\021?T\0163\355\204\265\302\027\201\205\241L?\012\000"
 458      0E33ED84 
 458      B5C21781 
 458      85A14C3F 
 458      0A00
 459 16a0 2F98AA4F 		.ascii	"/\230\252On\014\252\263\273<\236\220\226\205\200P\342"
 459      6E0CAAB3 
 459      BB3C9E90 
 459      96858050 
 459      E2
 460 16b1 46ADB54B 		.ascii	"F\255\265KY\277O\204\210(ef\017\317\037\232\217\374"
 460      59BF4F84 
 460      88286566 
 460      0FCF1F9A 
 460      8FFC
 461 16c3 542644DB 		.ascii	"T&D\333\202~\275\263\312\300j\261\267\030\205\306D\216"
 461      827EBDB3 
 461      CAC06AB1 
 461      B71885C6 
 461      448E
 462 16d5 5060C976 		.ascii	"P`\311vf\241\243\017\227\357\344P\374\313vf\3479\355"
 462      66A1A30F 
 462      97EFE450 
 462      FCCB7666 
 462      E739ED
 463 16e8 CED7D0B7 		.ascii	"\316\327\320\267\323>\012\276R\206\366\311\317~\371"
 463      D33E0ABE 
 463      5286F6C9 
 463      CF7EF9
 464 16f7 15A70D7D 		.ascii	"\025\247\015}\3479-\310\271\274l\326G\202|\271_Y\231"
 464      E7392DC8 
 464      B9BC6CD6 
 464      47827CB9 
 464      5F5999
 465 170a 44C4E529 		.ascii	"D\304\345)\346q\343r\206\017r\345#S\342\213\0256\\\266"
 465      E671E372 
 465      860F72E5 
 465      2353E28B 
 465      15365CB6 
 466 171e D33A2267 		.ascii	"\323:\"g\224\323\2227\310i\035\336\033\213\254AN\313"
 466      94D39237 
 466      C8691DDE 
 466      1B8BAC41 
 466      4ECB
 467 1730 CB884C10 		.ascii	"\313\210L\020\012Z\275\005\356\200\335\033,\364\026"
 467      0A5ABD05 
 467      EE80DD1B 
 467      2CF416
 468 173f 84D28242 		.ascii	"\204\322\202BQ\201\267\304#\224\331\307\242\240\346"
ARM GAS  /tmp/cciJnn8i.s 			page 37


 468      5181B7C4 
 468      2394D9C7 
 468      A2A0E6
 469 174e 0B748FA2 		.ascii	"\013t\217\242\273\244\322(\376\242\037\2012,Cei\201"
 469      BBA4D228 
 469      FEA21F81 
 469      322C4365 
 469      6981
 470 1760 32F48D2D 		.ascii	"2\364\215-9-\244\244\254\2509~[Q\320]0\306V\210%\216"
 470      392DA4A4 
 470      ACA8397E 
 470      5B51D05D 
 470      30C65688 
 471 1776 AE922FEC 		.ascii	"\256\222/\354\002\001\315\305{<\001!\030\024\202=p\010"
 471      0201CDC5 
 471      7B3C0121 
 471      1814823D 
 471      7008
 472 1788 46FEDD85 		.ascii	"F\376\335\205\202\253\033\205\363h\264\265\242?\374"
 472      82AB1B85 
 472      F368B4B5 
 472      A23FFC
 473 1797 8F11FF42 		.ascii	"\217\021\377B\030\215\005\3404\210\376CQ\304\357\014"
 473      188D05E0 
 473      3488FE43 
 473      51C4EF0C 
 474 17a7 A97C2134 		.ascii	"\251|!4\270\364\255\267\204\000\347+IWr\206\345\346"
 474      B8F4ADB7 
 474      8400E72B 
 474      49577286 
 474      E5E6
 475 17b9 980E3D31 		.ascii	"\230\016=1\265\026F'V]%\035\270\201;\236edH\216_\032"
 475      B5164627 
 475      565D251D 
 475      B8813B9E 
 475      6564488E 
 476 17cf 6E       		.ascii	"n"
 477 17d0 8FBAE429 		.ascii	"\217\272\344)\230\013Mb\306\004|\245~\254\204\356\304"
 477      980B4D62 
 477      C6047CA5 
 477      7EAC84EE 
 477      C4
 478 17e1 640CE597 		.ascii	"d\014\345\227\372\221\336p~\300\356\303\2363\220\342"
 478      FA91DE70 
 478      7EC0EEC3 
 478      9E3390E2 
 479 17f1 0BFA05C1 		.ascii	"\013\372\005\301\023\260\371K\375\236\200\305\347\011"
 479      13B0F94B 
 479      FD9E80C5 
 479      E709
 480 17ff 58F98240 		.ascii	"X\371\202@\021\026\205\366\274A9|\210\267\347\015\226"
 480      111685F6 
 480      BC41397C 
 480      88B7E70D 
 480      96
 481 1810 BEB2A5AF 		.ascii	"\276\262\245\257\034\351+W\372\032\202\277\322\362\006"
 481      1CE92B57 
ARM GAS  /tmp/cciJnn8i.s 			page 38


 481      FA1A82BF 
 481      D2F206
 482 181f 0D9334DB 		.ascii	"\015\2234\333\035\223P\246fR\304y\254W\300\347A\205"
 482      1D9350A6 
 482      6652C479 
 482      AC57C0E7 
 482      4185
 483 1831 7A75FCEB 		.ascii	"zu\374\353\377\001N\270g\204"
 483      FF014EB8 
 483      6784
 484              		.text
 485              		.section	.gnu.lto_.symtab.91f8dd435cb26833,"",%progbits
 486 0000 5F5F6561 		.ascii	"__early_init\000\000\000\000\000\000\000\000\000\000"
 486      726C795F 
 486      696E6974 
 486      00000000 
 486      00000000 
 487 0016 0000DE00 		.ascii	"\000\000\336\000\000\000mmc_lld_is_card_inserted\000"
 487      00006D6D 
 487      635F6C6C 
 487      645F6973 
 487      5F636172 
 488 0035 00000000 		.ascii	"\000\000\000\000\000\000\000\000\000\000\000\342\000"
 488      00000000 
 488      000000E2 
 488      00
 489 0042 00006D6D 		.ascii	"\000\000mmc_lld_is_write_protected\000\000\000\000\000"
 489      635F6C6C 
 489      645F6973 
 489      5F777269 
 489      74655F70 
 490 0063 00000000 		.ascii	"\000\000\000\000\000\000\000\206\002\000\000boardIn"
 490      00000086 
 490      02000062 
 490      6F617264 
 490      496E
 491 0075 69740000 		.ascii	"it\000\000\000\000\000\000\000\000\000\000\000\000\212"
 491      00000000 
 491      00000000 
 491      00008A
 492 0084 02000062 		.ascii	"\002\000\000boardSetBuzzer\000\000\000\000\000\000\000"
 492      6F617264 
 492      53657442 
 492      757A7A65 
 492      72000000 
 493 009c 00000000 		.ascii	"\000\000\000\000\000\215\002\000\000boardSetLED\000"
 493      008D0200 
 493      00626F61 
 493      72645365 
 493      744C4544 
 494 00b1 00000000 		.ascii	"\000\000\000\000\000\000\000\000\000\000\000\224\002"
 494      00000000 
 494      00000094 
 494      02
 495 00be 00007061 		.ascii	"\000\000pal_default_config\000\000\000\000\000\000\000"
 495      6C5F6465 
 495      6661756C 
ARM GAS  /tmp/cciJnn8i.s 			page 39


 495      745F636F 
 495      6E666967 
 496 00d9 00000000 		.ascii	"\000\000\000\000\000\243\002\000\000stm32_clock_ini"
 496      00A30200 
 496      0073746D 
 496      33325F63 
 496      6C6F636B 
 497 00f1 74000002 		.ascii	"t\000\000\002\000\000\000\000\000\000\000\000\000\230"
 497      00000000 
 497      00000000 
 497      0098
 498 00ff 0200005F 		.ascii	"\002\000\000_pal_lld_setgroupmode\000\000\002\000\000"
 498      70616C5F 
 498      6C6C645F 
 498      73657467 
 498      726F7570 
 499 011c 00000000 		.ascii	"\000\000\000\000\000\000\000\232\002\000\000"
 499      0000009A 
 499      020000
 500              		.text
 501              		.section	.gnu.lto_.opts,"",%progbits
 502 0000 272D6D63 		.ascii	"'-mcpu=cortex-m4' '-mfloat-abi=hard' '-mfpu=fpv4-sp"
 502      70753D63 
 502      6F727465 
 502      782D6D34 
 502      2720272D 
 503 0033 2D643136 		.ascii	"-d16' '-mno-thumb-interwork' '-mthumb' '-O2' '-fomi"
 503      2720272D 
 503      6D6E6F2D 
 503      7468756D 
 503      622D696E 
 504 0066 742D6672 		.ascii	"t-frame-pointer' '-falign-functions=16' '-ffunction"
 504      616D652D 
 504      706F696E 
 504      74657227 
 504      20272D66 
 505 0099 2D736563 		.ascii	"-sections' '-fdata-sections' '-fno-common' '-flto' "
 505      74696F6E 
 505      73272027 
 505      2D666461 
 505      74612D73 
 506 00cc 272D6673 		.ascii	"'-fsingle-precision-constant'\000"
 506      696E676C 
 506      652D7072 
 506      65636973 
 506      696F6E2D 
 507              		.text
 508              		.section	.text.__early_init,"ax",%progbits
 509              		.align	2
 510              		.p2align 4,,15
 511              		.global	__early_init
 512              		.thumb
 513              		.thumb_func
 514              		.type	__early_init, %function
 515              	__early_init:
 516              		@ args = 0, pretend = 0, frame = 0
 517              		@ frame_needed = 0, uses_anonymous_args = 0
ARM GAS  /tmp/cciJnn8i.s 			page 40


 518              		@ link register save eliminated.
 519 0000 FFF7FEBF 		b	stm32_clock_init
 520              		.size	__early_init, .-__early_init
 521 0004 AFF30080 		.section	.text.mmc_lld_is_card_inserted,"ax",%progbits
 521      AFF30080 
 521      AFF30080 
 522              		.align	2
 523              		.p2align 4,,15
 524              		.global	mmc_lld_is_card_inserted
 525              		.thumb
 526              		.thumb_func
 527              		.type	mmc_lld_is_card_inserted, %function
 528              	mmc_lld_is_card_inserted:
 529              		@ args = 0, pretend = 0, frame = 0
 530              		@ frame_needed = 0, uses_anonymous_args = 0
 531              		@ link register save eliminated.
 532 0000 024B     		ldr	r3, .L3
 533 0002 1869     		ldr	r0, [r3, #16]
 534 0004 C0F38000 		ubfx	r0, r0, #2, #1
 535 0008 7047     		bx	lr
 536              	.L4:
 537 000a 00BF     		.align	2
 538              	.L3:
 539 000c 000C0240 		.word	1073875968
 540              		.size	mmc_lld_is_card_inserted, .-mmc_lld_is_card_inserted
 541              		.section	.text.mmc_lld_is_write_protected,"ax",%progbits
 542              		.align	2
 543              		.p2align 4,,15
 544              		.global	mmc_lld_is_write_protected
 545              		.thumb
 546              		.thumb_func
 547              		.type	mmc_lld_is_write_protected, %function
 548              	mmc_lld_is_write_protected:
 549              		@ args = 0, pretend = 0, frame = 0
 550              		@ frame_needed = 0, uses_anonymous_args = 0
 551              		@ link register save eliminated.
 552 0000 0020     		movs	r0, #0
 553 0002 7047     		bx	lr
 554              		.size	mmc_lld_is_write_protected, .-mmc_lld_is_write_protected
 555 0004 AFF30080 		.section	.text.boardInit,"ax",%progbits
 555      AFF30080 
 555      AFF30080 
 556              		.align	2
 557              		.p2align 4,,15
 558              		.global	boardInit
 559              		.thumb
 560              		.thumb_func
 561              		.type	boardInit, %function
 562              	boardInit:
 563              		@ args = 0, pretend = 0, frame = 0
 564              		@ frame_needed = 0, uses_anonymous_args = 0
 565 0000 70B5     		push	{r4, r5, r6, lr}
 566 0002 364E     		ldr	r6, .L7
 567 0004 364D     		ldr	r5, .L7+4
 568 0006 374C     		ldr	r4, .L7+8
 569 0008 3046     		mov	r0, r6
 570 000a 4FF40041 		mov	r1, #32768
ARM GAS  /tmp/cciJnn8i.s 			page 41


 571 000e 1922     		movs	r2, #25
 572 0010 FFF7FEFF 		bl	_pal_lld_setgroupmode
 573 0014 3448     		ldr	r0, .L7+12
 574 0016 0421     		movs	r1, #4
 575 0018 2022     		movs	r2, #32
 576 001a FFF7FEFF 		bl	_pal_lld_setgroupmode
 577 001e 2846     		mov	r0, r5
 578 0020 4FF48061 		mov	r1, #1024
 579 0024 40F21A32 		movw	r2, #794
 580 0028 FFF7FEFF 		bl	_pal_lld_setgroupmode
 581 002c 2846     		mov	r0, r5
 582 002e 4FF48051 		mov	r1, #4096
 583 0032 40F21A32 		movw	r2, #794
 584 0036 FFF7FEFF 		bl	_pal_lld_setgroupmode
 585 003a 2846     		mov	r0, r5
 586 003c 4FF40061 		mov	r1, #2048
 587 0040 40F20232 		movw	r2, #770
 588 0044 FFF7FEFF 		bl	_pal_lld_setgroupmode
 589 0048 2846     		mov	r0, r5
 590 004a 4021     		movs	r1, #64
 591 004c 40F20242 		movw	r2, #1026
 592 0050 FFF7FEFF 		bl	_pal_lld_setgroupmode
 593 0054 2846     		mov	r0, r5
 594 0056 8021     		movs	r1, #128
 595 0058 40F20242 		movw	r2, #1026
 596 005c FFF7FEFF 		bl	_pal_lld_setgroupmode
 597 0060 2046     		mov	r0, r4
 598 0062 4021     		movs	r1, #64
 599 0064 40F28232 		movw	r2, #898
 600 0068 FFF7FEFF 		bl	_pal_lld_setgroupmode
 601 006c 2046     		mov	r0, r4
 602 006e 8021     		movs	r1, #128
 603 0070 40F28232 		movw	r2, #898
 604 0074 FFF7FEFF 		bl	_pal_lld_setgroupmode
 605 0078 3046     		mov	r0, r6
 606 007a 0421     		movs	r1, #4
 607 007c 40F28232 		movw	r2, #898
 608 0080 FFF7FEFF 		bl	_pal_lld_setgroupmode
 609 0084 3046     		mov	r0, r6
 610 0086 0821     		movs	r1, #8
 611 0088 40F28232 		movw	r2, #898
 612 008c FFF7FEFF 		bl	_pal_lld_setgroupmode
 613 0090 2046     		mov	r0, r4
 614 0092 8021     		movs	r1, #128
 615 0094 40F20222 		movw	r2, #514
 616 0098 FFF7FEFF 		bl	_pal_lld_setgroupmode
 617 009c 2046     		mov	r0, r4
 618 009e 4021     		movs	r1, #64
 619 00a0 40F20222 		movw	r2, #514
 620 00a4 FFF7FEFF 		bl	_pal_lld_setgroupmode
 621 00a8 2846     		mov	r0, r5
 622 00aa 4FF40071 		mov	r1, #512
 623 00ae 40F20222 		movw	r2, #514
 624 00b2 FFF7FEFF 		bl	_pal_lld_setgroupmode
 625 00b6 3046     		mov	r0, r6
 626 00b8 4FF48071 		mov	r1, #256
 627 00bc 40F20222 		movw	r2, #514
ARM GAS  /tmp/cciJnn8i.s 			page 42


 628 00c0 FFF7FEFF 		bl	_pal_lld_setgroupmode
 629 00c4 2046     		mov	r0, r4
 630 00c6 0821     		movs	r1, #8
 631 00c8 1922     		movs	r2, #25
 632 00ca FFF7FEFF 		bl	_pal_lld_setgroupmode
 633 00ce 2046     		mov	r0, r4
 634 00d0 2021     		movs	r1, #32
 635 00d2 1922     		movs	r2, #25
 636 00d4 BDE87040 		pop	{r4, r5, r6, lr}
 637 00d8 FFF7FEBF 		b	_pal_lld_setgroupmode
 638              	.L8:
 639              		.align	2
 640              	.L7:
 641 00dc 00000240 		.word	1073872896
 642 00e0 00080240 		.word	1073874944
 643 00e4 00040240 		.word	1073873920
 644 00e8 000C0240 		.word	1073875968
 645              		.size	boardInit, .-boardInit
 646 00ec AFF30080 		.section	.text.boardSetBuzzer,"ax",%progbits
 647              		.align	2
 648              		.p2align 4,,15
 649              		.global	boardSetBuzzer
 650              		.thumb
 651              		.thumb_func
 652              		.type	boardSetBuzzer, %function
 653              	boardSetBuzzer:
 654              		@ args = 0, pretend = 0, frame = 0
 655              		@ frame_needed = 0, uses_anonymous_args = 0
 656              		@ link register save eliminated.
 657 0000 034B     		ldr	r3, .L14
 658 0002 0822     		movs	r2, #8
 659 0004 08B9     		cbnz	r0, .L13
 660 0006 5A83     		strh	r2, [r3, #26]	@ movhi
 661 0008 7047     		bx	lr
 662              	.L13:
 663 000a 1A83     		strh	r2, [r3, #24]	@ movhi
 664 000c 7047     		bx	lr
 665              	.L15:
 666 000e 00BF     		.align	2
 667              	.L14:
 668 0010 00040240 		.word	1073873920
 669              		.size	boardSetBuzzer, .-boardSetBuzzer
 670 0014 AFF30080 		.section	.text.boardSetLED,"ax",%progbits
 670      AFF30080 
 670      AFF30080 
 671              		.align	2
 672              		.p2align 4,,15
 673              		.global	boardSetLED
 674              		.thumb
 675              		.thumb_func
 676              		.type	boardSetLED, %function
 677              	boardSetLED:
 678              		@ args = 0, pretend = 0, frame = 0
 679              		@ frame_needed = 0, uses_anonymous_args = 0
 680              		@ link register save eliminated.
 681 0000 034B     		ldr	r3, .L20
 682 0002 2022     		movs	r2, #32
ARM GAS  /tmp/cciJnn8i.s 			page 43


 683 0004 08B9     		cbnz	r0, .L19
 684 0006 5A83     		strh	r2, [r3, #26]	@ movhi
 685 0008 7047     		bx	lr
 686              	.L19:
 687 000a 1A83     		strh	r2, [r3, #24]	@ movhi
 688 000c 7047     		bx	lr
 689              	.L21:
 690 000e 00BF     		.align	2
 691              	.L20:
 692 0010 00040240 		.word	1073873920
 693              		.size	boardSetLED, .-boardSetLED
 694              		.global	pal_default_config
 695 0014 AFF30080 		.section	.rodata.pal_default_config,"a",%progbits
 695      AFF30080 
 695      AFF30080 
 696              		.align	2
 697              		.type	pal_default_config, %object
 698              		.size	pal_default_config, 168
 699              	pal_default_config:
 700 0000 A004802A 		.word	713032864
 701 0004 00000000 		.word	0
 702 0008 AFFBFFFF 		.word	-1105
 703 000c 05511564 		.word	1679118597
 704 0010 DFFF0000 		.word	65503
 705 0014 00770000 		.word	30464
 706 0018 00A00A00 		.word	696320
 707 001c 80000000 		.word	128
 708 0020 00000000 		.word	0
 709 0024 FFFFFFFF 		.word	-1
 710 0028 55555555 		.word	1431655765
 711 002c FFFF0000 		.word	65535
 712 0030 00000000 		.word	0
 713 0034 00000000 		.word	0
 714 0038 00000000 		.word	0
 715 003c 00000000 		.word	0
 716 0040 FFFFFFFF 		.word	-1
 717 0044 55555551 		.word	1364546901
 718 0048 FFFF0000 		.word	65535
 719 004c 00000000 		.word	0
 720 0050 00000000 		.word	0
 721 0054 00000000 		.word	0
 722 0058 00000000 		.word	0
 723 005c FFFFFFFF 		.word	-1
 724 0060 55555555 		.word	1431655765
 725 0064 FFFF0000 		.word	65535
 726 0068 00000000 		.word	0
 727 006c 00000000 		.word	0
 728 0070 00000000 		.word	0
 729 0074 00000000 		.word	0
 730 0078 FFFFFFFF 		.word	-1
 731 007c 45000000 		.word	69
 732 0080 FFFF0000 		.word	65535
 733 0084 00000000 		.word	0
 734 0088 00000000 		.word	0
 735 008c 00000000 		.word	0
 736 0090 00000000 		.word	0
 737 0094 FFFFFFFF 		.word	-1
ARM GAS  /tmp/cciJnn8i.s 			page 44


 738 0098 00000000 		.word	0
 739 009c FFFF0000 		.word	65535
 740 00a0 00000000 		.word	0
 741 00a4 00000000 		.word	0
 742              		.comm	__gnu_lto_v1,1,1
 743              		.ident	"GCC: (GNU Tools for ARM Embedded Processors) 4.8.4 20140526 (release) [ARM/embedded-4_8-br
ARM GAS  /tmp/cciJnn8i.s 			page 45

