ARM GAS  /tmp/ccZcvrAT.s 			page 1


   1              		.syntax unified
   2              		.cpu cortex-m4
   3              		.eabi_attribute 27, 3
   4              		.eabi_attribute 28, 1
   5              		.fpu fpv4-sp-d16
   6              		.eabi_attribute 20, 1
   7              		.eabi_attribute 21, 1
   8              		.eabi_attribute 23, 3
   9              		.eabi_attribute 24, 1
  10              		.eabi_attribute 25, 1
  11              		.eabi_attribute 26, 1
  12              		.eabi_attribute 30, 2
  13              		.eabi_attribute 34, 1
  14              		.eabi_attribute 18, 4
  15              		.thumb
  16              		.file	"board.c"
  17              		.section	.gnu.lto_.jmpfuncs.c2aeebe24eb6f644,"",%progbits
  18 0000 789C75D0 		.ascii	"x\234u\320\315\015\200 \014\006\320\266\326\237\025"
  18      CD0D8020 
  18      0C06D0B6 
  18      D69F15
  19 000f BC310A89 		.ascii	"\2741\012\211K\270\202[4\2368z4N+1\"\230|%!)\364A)B"
  19      4BB8825B 
  19      349E387A 
  19      344E2B31 
  19      22987C25 
  20 0029 42682CEF 		.ascii	"Bh,\357\366\220'g\323Q'+oLf\311\224\350Yp|\003\331{"
  20      F6902767 
  20      D351272B 
  20      6F4C66C9 
  20      94E85970 
  21 0041 82C0B888 		.ascii	"\202\300\270\210\313\021\001\201\263\001%\220P\363G"
  21      CB110181 
  21      B3012590 
  21      50F347
  22 0050 5B622A60 		.ascii	"[b*`\256 \241\012N\036\235\377\365 _\227\352<A\221H"
  22      AE20A10A 
  22      4E1E9DFF 
  22      F5205F97 
  22      EA3C4191 
  23 0065 F0A31C50 		.ascii	"\360\243\034P?\252\025\206\236\271\217\030(\002N\015"
  23      3FAA1586 
  23      9EB98F18 
  23      28024E0D 
  24 0075 4744040E 		.ascii	"GD\004\016|\305\204El\201r\317t\003\036#W\304"
  24      7CC58445 
  24      6C8172CF 
  24      74031E23 
  24      57C4
  25              		.text
  26              		.section	.gnu.lto_.inline.c2aeebe24eb6f644,"",%progbits
  27 0000 789C6362 		.ascii	"x\234cb`b\300\006|\031!4\033\003\003\013\017#X\021\333"
  27      6062C006 
  27      7C192134 
  27      1B03030B 
  27      0F235811 
  28 0015 0279B05A 		.ascii	"\002y\260ZF.\020\301\300\314\204*\314\204!\302\314p"
ARM GAS  /tmp/ccZcvrAT.s 			page 2


  28      462E10C1 
  28      C0CC842A 
  28      CC8421C2 
  28      CC70
  29 0027 9CE13E23 		.ascii	"\234\341>#\252\030\013/H|\020\320\014\354\254\214\314"
  29      AA180B2F 
  29      487C10D0 
  29      0CECAC8C 
  29      CC
  30 0038 0C19118C 		.ascii	"\014\031\021\214\231\214 >C:\234\005\3629+\314\311,"
  30      998C203E 
  30      433A9C05 
  30      F2392BCC 
  30      C92C
  31 004a 0BE40518 		.ascii	"\013\344\005\030\230\216pr00\365\260\2610\200\245\310"
  31      988E7072 
  31      3030F5B0 
  31      B13080A5 
  31      C8
  32 005b D5C90000 		.ascii	"\325\311\000\000t\377\021\244"
  32      74FF11A4 
  33              		.text
  34              		.section	.gnu.lto_.pureconst.c2aeebe24eb6f644,"",%progbits
  35 0000 789C6362 		.ascii	"x\234cb`b\340e\200\0006\006\011F \227Y\202E\212U\012"
  35      6062E065 
  35      80003606 
  35      09462097 
  35      5982458A 
  36 0016 00040600 		.ascii	"\000\004\006\000\213"
  36      8B
  37              		.text
  38              		.section	.gnu.lto___early_init.c2aeebe24eb6f644,"",%progbits
  39 0000 789C6362 		.ascii	"x\234cb`b@\007\222@\\\015\304\\@\314\310\314\300\310"
  39      60624007 
  39      92405C0D 
  39      C45C40CC 
  39      C8CCC0C8 
  40 0014 34E11C03 		.ascii	"4\341\034\003C#\007\023##\210\301\300\310P\317\304X"
  40      43230713 
  40      232388C1 
  40      C0C850CF 
  40      C458
  41 0026 1FC90856 		.ascii	"\037\311\010V\273\236\351\300\203\377\377\327m9\266"
  41      BB9EE9C0 
  41      83FFFFD7 
  41      6D39B6
  42 0035 600E2350 		.ascii	"`\016#P-\003\003+CKC\303\004\005\006\206d\260\202\020"
  42      2D03032B 
  42      434B43C3 
  42      04050686 
  42      64B08210 
  43 0049 2009D215 		.ascii	" \011\322\025\312\310\004\242\231\31734?\230\375\230"
  43      CAC804A2 
  43      99CF3334 
  43      3F98FD98 
  44 0059 2B917121 		.ascii	"+\221q!#+\330\232_\015\035\015\002\231\214@\345\020"
  44      232BD89A 
ARM GAS  /tmp/ccZcvrAT.s 			page 3


  44      5F0D1D0D 
  44      02998C40 
  44      E510
  45 006b 033341F4 		.ascii	"\0033A\364E\206\306\007s\224a\212  \004(\0014\001\344"
  45      4586C607 
  45      7394618A 
  45      20200428 
  45      013401E4 
  46 007f 5C8EA4FC 		.ascii	"\\\216\244\374\304\242\024\275d\006\000\372\352$k"
  46      C4A214BD 
  46      640600FA 
  46      EA246B
  47              		.text
  48              		.section	.gnu.lto_mmc_lld_is_card_inserted.c2aeebe24eb6f644,"",%progbits
  49 0000 789C6362 		.ascii	"x\234cb`b@\007\222@\034\005\304\\@\314\310\314\300\310"
  49      60624007 
  49      92401C05 
  49      C45C40CC 
  49      C8CCC0C8 
  50 0014 34E11C03 		.ascii	"4\341\034\003C#\007\023##\210\301\300\310P\317\304X"
  50      43230713 
  50      232388C1 
  50      C0C850CF 
  50      C458
  51 0026 1FC90856 		.ascii	"\037\311\010V\273\236\351\300\203\377\377\327m8\276"
  51      BB9EE9C0 
  51      83FFFFD7 
  51      6D38BE
  52 0035 E00E2323 		.ascii	"\340\016##\310(V\206\226\206\206\011\012\014\014\311"
  52      C8285686 
  52      96868609 
  52      0A0C0CC9 
  53 0045 60052140 		.ascii	"`\005!@\022\244+\024(\011\244\231/24>\270\235\234\310"
  53      12A42B14 
  53      2809A499 
  53      2F32343E 
  53      B89D9CC8 
  54 0059 B8909195 		.ascii	"\270\220\221\225!\2021\223\221\201\021ji\010##H\001"
  54      21823193 
  54      9181116A 
  54      69082323 
  54      4801
  55 006b C8088EA4 		.ascii	"\310\010\216\244\374\304\242\024\275d\006\000q\224\034"
  55      FCC4A214 
  55      BD640600 
  55      71941C
  56 007a BF       		.ascii	"\277"
  57              		.text
  58              		.section	.gnu.lto_mmc_lld_is_write_protected.c2aeebe24eb6f644,"",%progbits
  59 0000 789C6362 		.ascii	"x\234cb`b@\007\222@\034\005\304\\@\314\310\314\300\310"
  59      60624007 
  59      92401C05 
  59      C45C40CC 
  59      C8CCC0C8 
  60 0014 34E11C03 		.ascii	"4\341\034\003C#\007\023##\210\301\300\310P\317\304X"
  60      43230713 
  60      232388C1 
ARM GAS  /tmp/ccZcvrAT.s 			page 4


  60      C0C850CF 
  60      C458
  61 0026 1FC90856 		.ascii	"\037\311\010V\273\236\351\300\203\377\377\327]:\276"
  61      BB9EE9C0 
  61      83FFFFD7 
  61      5D3ABE
  62 0035 E00D2323 		.ascii	"\340\015##\310(V\206\226\206\206\011\012\014\014\311"
  62      C8285686 
  62      96868609 
  62      0A0C0CC9 
  63 0045 60052140 		.ascii	"`\005!@\022\244+\024(\011\244\231/24>x\235\234\310\270"
  63      12A42B14 
  63      2809A499 
  63      2F32343E 
  63      789D9CC8 
  64 005a 90919521 		.ascii	"\220\221\225!\2021\223\021ni\010##H\001\310\010\216"
  64      82319311 
  64      6E690823 
  64      234801C8 
  64      088E
  65 006c A4FCC4A2 		.ascii	"\244\374\304\242\024\275d\006\000\204\244\035\000"
  65      14BD6406 
  65      0084A41D 
  65      00
  66              		.text
  67              		.section	.gnu.lto_boardInit.c2aeebe24eb6f644,"",%progbits
  68 0000 789C9DD4 		.ascii	"x\234\235\3241K\303@\024\007\360\367\177\271`p\022\234"
  68      314BC340 
  68      1407F0F7 
  68      7FB96070 
  68      129C
  69 0012 BA6571F5 		.ascii	"\272eq\3653\370!*\350X\353\222Ipu\350\265\210\\\025"
  69      33F8212A 
  69      E858EB92 
  69      497075E8 
  69      B5885C15 
  70 0026 346315C1 		.ascii	"4c\025\301\212\233\202]\225.nn\212\337 \237\302\241"
  70      8A9B825D 
  70      952E6E6E 
  70      8ADF209F 
  70      C2A1
  71 0038 A0F5254D 		.ascii	"\240\365%M{\2417\304\353ArG\362~\271w/\30711-\267\206"
  71      7BA137C4 
  71      EB417247 
  71      F27EB977 
  71      2FC73131 
  72 004f 5C4611AD 		.ascii	"\\F\021\255K\217\200\300\351\007Q7b \037\020\250\303"
  72      4B8F80C0 
  72      E9075137 
  72      62201F10 
  72      A8C3
  73 0061 E8ECA388 		.ascii	"\350\354\243\210\035\361[6\235>\177\277\017\307\340"
  73      1DF15B36 
  73      9D3E7FBF 
  73      0FC7E0
  74 0070 4D7910D2 		.ascii	"My\020\322\251\326iL\324.\002\232r\317\325.8\357\203"
  74      A9D6694C 
ARM GAS  /tmp/ccZcvrAT.s 			page 5


  74      D42E029A 
  74      72CFD52E 
  74      38EF83
  75 0083 4F3ACB7E 		.ascii	"O:\313~\036\320\302=By}B\023m\364F\002\011\237}p\017"
  75      1ED0C23D 
  75      42797D42 
  75      136DF446 
  75      02099F7D 
  76 0099 09A053A3 		.ascii	"\011\240S\243U1\344\235\242\013z\021%\220\234\304\017"
  76      5531E49D 
  76      A20B7A11 
  76      25909CC4 
  76      0F
  77 00aa 7F83FF73 		.ascii	"\177\203\377s\015\327\233\260\316\033g\3725\313\373"
  77      0DD79BB0 
  77      CE1B67FA 
  77      35CBFB
  78 00b9 1E7C317D 		.ascii	"\036|1}\305\237\327z\275\360\312\345\027\036<r\371\345"
  78      C59FD77A 
  78      BDF0CAE5 
  78      171E3C72 
  78      F9E5
  79 00cb 2AD92BEB 		.ascii	"*\331+\353\257V(^\205\017jy\345\337)\327_{\254^\263"
  79      AF56285E 
  79      850F6A79 
  79      E5DF29D7 
  79      5F7BAC5E 
  80 00e0 EB6F3DD2 		.ascii	"\353o=\322/\253\327\260\372\316C\307\216~\364Y\273;"
  80      2FABD7B0 
  80      FACE43C7 
  80      8E7EF459 
  80      BB3B
  81 00f2 F9532D1F 		.ascii	"\371S-\037,\357\233\330\352\221G\341\312\324oB\313_"
  81      2CEF9BD8 
  81      EA9147E1 
  81      CAD46F42 
  81      CB5F
  82 0104 7CEA0ED7 		.ascii	"|\352\016\327\277z\370\371\266)\371\027u\263\361\326"
  82      BF7AF8F9 
  82      B629F917 
  82      75B3F1D6 
  83 0114 9CCF5A53 		.ascii	"\234\317ZS\250\034'\371\331\025\035\034\265\216\017"
  83      A81C27F9 
  83      D9151D1C 
  83      B58E0F
  84 0123 B7DBF407 		.ascii	"\267\333\364\007\036\336\373\034"
  84      1EDEFB1C 
  85              		.text
  86              		.section	.gnu.lto_boardSetBuzzer.c2aeebe24eb6f644,"",%progbits
  87 0000 789C6362 		.ascii	"x\234cb`b@\0076@\234\302\310\300\300\005\244\031\331"
  87      60624007 
  87      36409CC2 
  87      C8C0C005 
  87      A419D9
  88 0013 18189926 		.ascii	"\030\030\231&\234c`h\344`bb\336#\307\320\300\305rE\237"
  88      9C636068 
  88      E4606262 
ARM GAS  /tmp/ccZcvrAT.s 			page 6


  88      DE23C7D0 
  88      C0C57245 
  89 0028 A1818799 		.ascii	"\241\201\207\231\221\025\"\314\002c\26022\202\030\014"
  89      911522CC 
  89      0263B032 
  89      3282180C 
  90 0038 8C0CF54C 		.ascii	"\214\014\365L\314,\254\214\365\221\214`\343\3263\035"
  90      CC2CAC8C 
  90      F5918C60 
  90      E3D6331D 
  91 0048 78F0FFFF 		.ascii	"x\360\377\377\272I\247\027\234cdbcb\314\005\013\263"
  91      BA49A717 
  91      9C636462 
  91      6362CC05 
  91      0BB3
  92 005a 32B43434 		.ascii	"2\26444LP``H\006sC\200$Hw(#\023\210f>\301\320\362\346"
  92      4C506060 
  92      48067343 
  92      80244877 
  92      28231388 
  93 0074 E0D4D3CC 		.ascii	"\340\324\323\314\211\214\013\031Y\031\322\031\231\""
  93      898C0B19 
  93      5919D219 
  93      9922
  94 0082 18331951 		.ascii	"\0303\031Q\\\031\312\310\314\260G\216\371,\303\241\035"
  94      5C19CAC8 
  94      CCB0478E 
  94      F92CC3A1 
  94      1D
  95 0093 3F360942 		.ascii	"?6\011B\324i3\254jh\001*d\2041\230`\014\346\331\014"
  95      D46933AC 
  95      6A68012A 
  95      64843198 
  95      600CE6D9 
  96 00a8 B380140B 		.ascii	"\263\200\024\013\310\030\326\206\216\216\006\026\006"
  96      C818D686 
  96      8E8E0616 
  96      06
  97 00b5 30136C54 		.ascii	"0\023lT\022\324\344$FF(\015\011\024\220\0126\016\270"
  97      12D4E424 
  97      4646280D 
  97      0914900A 
  97      360EB8
  98 00c8 7D2C0C57 		.ascii	"},\014W\364\301\366\255\330\314He\373\230\261\331\307"
  98      F4C1F6AD 
  98      D8CC4865 
  98      FB98B1D9 
  98      C7
  99 00d9 0A0E898B 		.ascii	"\012\016\211\213\014\215\017\316\251B\354\203\201\020"
  99      0C8D0FCE 
  99      A942EC83 
  99      8110
 100 00e7 A046A01C 		.ascii	"\240F\240\034\310\225\034I\371\211E)z\311\014\000-h"
 100      C8951C49 
 100      F9894529 
 100      7AC90C00 
 100      2D68
ARM GAS  /tmp/ccZcvrAT.s 			page 7


 101 00f9 53E7     		.ascii	"S\347"
 102              		.text
 103              		.section	.gnu.lto_boardSetLED.c2aeebe24eb6f644,"",%progbits
 104 0000 789CAD50 		.ascii	"x\234\255P\261JCA\020\234\331\275{\204`\223\037\010"
 104      B14A4341 
 104      109CD9BD 
 104      7B846093 
 104      1F08
 105 0012 69AC04F3 		.ascii	"i\254\004\363\003~F\002\246\314K@,D\360\007r\201W\274"
 105      037E4602 
 105      A6CC4B40 
 105      2C44F007 
 105      728157BC 
 106 0026 32B536DA 		.ascii	"2\2656\332\246\210\245!I\241\251\002AAHa\2316\340?\304"
 106      A688A521 
 106      49A1A902 
 106      41414861 
 106      9936E03F 
 107 003b BB7B7982 		.ascii	"\273{y\202b\351\302\335\314\355\355\316,+\020\374\216"
 107      62E9C2DD 
 107      CCEDEDCE 
 107      2C2B10FC 
 107      8E
 108 004c 337FFA04 		.ascii	"3\177\372\004\252\036\231\2002z\003\206\025\021]\324"
 108      AA1E9980 
 108      327A0386 
 108      15115DD4 
 109 005c E1AA66D3 		.ascii	"\341\252f\323\204;R\332\"mJb\311@@\014D\215\345\240"
 109      843B52DA 
 109      226D4A62 
 109      C940400C 
 109      448DE5A0 
 110 0070 C328F728 		.ascii	"\303(\367(\317\333\375~2]\337\357(\211\360*\246-2\347"
 110      CFDBFD7E 
 110      325DDFEF 
 110      2889F02A 
 110      A62D32E7 
 111 0084 460DA017 		.ascii	"F\015\240\027\237-\177\207\3566%\240\256\220}\276\314"
 111      9F2D7F87 
 111      EE3625A0 
 111      AE907DBE 
 111      CC
 112 0095 D7DAE503 		.ascii	"\327\332\345\003-.(\347\274\344\217)\333T,\352\372\212"
 112      2D2E28E7 
 112      BCE48F29 
 112      DB542CEA 
 112      FA8A
 113 00a7 E5F4E3A9 		.ascii	"\345\364\343\251V\324\235`\3542_\310\222HI\364\016\267"
 113      56D49D60 
 113      EC325FC8 
 113      924849F4 
 113      0EB7
 114 00b9 1E4C90B1 		.ascii	"\036L\220\261.\317\235A\244Q*=(\247\344\001\213\245"
 114      2ECF9D41 
 114      A4512A3D 
 114      28A7E401 
 114      8BA5
ARM GAS  /tmp/ccZcvrAT.s 			page 8


 115 00cb 848AA4F1 		.ascii	"\204\212\244\361\355g\260iF\277|\306\177\366\323\277"
 115      ED67B069 
 115      46BF7CC6 
 115      7FF6D3BF 
 116 00db FC6CDCC4 		.ascii	"\374l\334\304;\206\333\335q\341WF\3137\372\2770e%\275"
 116      3B86DBDD 
 116      71E15746 
 116      CB37FABF 
 116      306525BD 
 117 00ef EEDEF44F 		.ascii	"\356\336\364O{\370\002\241\321Te"
 117      7BF802A1 
 117      D15465
 118              		.text
 119              		.section	.gnu.lto_.symbol_nodes.c2aeebe24eb6f644,"",%progbits
 120 0000 789C4DC9 		.ascii	"x\234M\311\261\021\3020\020D\321\275\025\302d\224\340"
 120      B111C230 
 120      1044D1BD 
 120      15C26494 
 120      E0
 121 0011 524F20B0 		.ascii	"RO \260\031\"* \241\024\345\324\000\243\3245\0003x1"
 121      19222A20 
 121      A114E5D4 
 121      00A3D435 
 121      00337831 
 122 0025 BAE4CDBF 		.ascii	"\272\344\315\277%\210\255a>&:p\271\003\356\327\223q"
 122      2588AD61 
 122      3E263A70 
 122      B903EED7 
 122      9371
 123 0037 47B726F7 		.ascii	"G\267&\367t6\231\351\241\311\003}\325\344\221\036\377"
 123      743699E9 
 123      A1C9037D 
 123      D5E4911E 
 123      FF
 124 0048 19DF86E8 		.ascii	"\031\337\206\350\260\201\276\236\277)\231\215\364n\251"
 124      B081BE9E 
 124      BF29998D 
 124      F46EA9
 125 0057 800EF9F1 		.ascii	"\200\016\371\361\262\0206\2137Yd\375\355O\355\262\310"
 125      B210368B 
 125      375964FD 
 125      ED4FEDB2 
 125      C8
 126 0068 2AF330F5 		.ascii	"*\3630\365\337]\026Ye\036\265\313\"\253\314\347\251"
 126      DF5D1659 
 126      651EB5CB 
 126      22ABCCE7 
 126      A9
 127 0079 C707A6A9 		.ascii	"\307\007\246\251P\344"
 127      50E4
 128              		.text
 129              		.section	.gnu.lto_.refs.c2aeebe24eb6f644,"",%progbits
 130 0000 789C6362 		.ascii	"x\234cb`b`d\200\002\000\000F\000\006"
 130      60626064 
 130      80020000 
 130      460006
 131              		.text
ARM GAS  /tmp/ccZcvrAT.s 			page 9


 132              		.section	.gnu.lto_.decls.c2aeebe24eb6f644,"",%progbits
 133 0000 789CBD5C 		.ascii	"x\234\275\\\013t\024E\272\356\356y$!\221\227\272\027"
 133      0B741445 
 133      BAEEEE79 
 133      24219197 
 133      BA17
 134 0012 BC9EEBEC 		.ascii	"\274\236\353\354=z\217\327UB\200U\334\275W\204$J\316"
 134      3D7A8FD7 
 134      55428055 
 134      DCBD5784 
 134      244ACE
 135 0025 F2C899E0 		.ascii	"\362\310\231\340\256\236s\317\031\233\231\016\2315\311"
 135      AE9E73CF 
 135      199B990E 
 135      9935C9
 136 0034 CCCE4C20 		.ascii	"\314\316L x\35796\011\004\015\017c\010o\010\341\215"
 136      78EF3936 
 136      09040D0F 
 136      63086F08 
 136      E18D
 137 0046 AE20F234 		.ascii	"\256 \3624<\007\344\0357\020!\002F\310,.\012\212<\224"
 137      3C07E41D 
 137      37102102 
 137      46C82C2E 
 137      0A8A3C94 
 138 005a 37426ED5 		.ascii	"7Bn\325\337\3353\325\235\356\231\352\301\263sN\377S"
 138      DFDD33D5 
 138      9DEE99EA 
 138      C1B3734E 
 138      FF53
 139 006c 5353FDD5 		.ascii	"SS\375\325W\177\375\365\377U\325\017\216\341\230m,\303"
 139      577FFDF5 
 139      FF55D50F 
 139      8EE1986D 
 139      2CC3
 140 007e 74E0CF6B 		.ascii	"t\340\317k\014\023\350\3020)\014\303\274\200\016+:\026"
 140      0C13E8C2 
 140      30290CC3 
 140      BC800E2B 
 140      3A16
 141 0090 33D2EF13 		.ascii	"3\322\357\023\350hc\244O*:N\243\343\014:\2528\206\251"
 141      E86863A4 
 141      4F2A3A4E 
 141      A3E30C3A 
 141      AA3886A9 
 142 00a4 46C73474 		.ascii	"F\3074t\324\241c\016:\346\241\003A2K9F\365\301\347\340"
 142      D4A1630E 
 142      3AE6A103 
 142      41324B39 
 142      46F5C1E7 
 143 00b9 ACCF9168 		.ascii	"\254\317\221h\227\36389\177\216\246,#\343\263D\275\254"
 143      97F33839 
 143      7F8EA62C 
 143      23E3B344 
 143      BDAC
 144 00cb 9CA7FD54 		.ascii	"\234\247\375Tq\235\313U\351\340a\2366\364}\224S\267"
 144      719DCB55 
ARM GAS  /tmp/ccZcvrAT.s 			page 10


 144      E9E0619E 
 144      36F47D94 
 144      53B7
 145 00dd 6B3E17E3 		.ascii	"k>\027\343R-\363\327~p\373R\344:\216\241t+:\266\241"
 145      522DF3D7 
 145      7E70FB52 
 145      E43A8EA1 
 145      742B3AB6 
 146 00f2 F4125947 		.ascii	"\364\022YG\026F\322\327Vt\354B\307\036t|&s\231&\363"
 146      1646D2D7 
 146      5674EC42 
 146      C71E747C 
 146      26739926 
 147 0107 7B4F835B 		.ascii	"{O\203[w\037\230u2\346,\015f:S-\212\025bC\2258\364@"
 147      771F9875 
 147      32E62C0D 
 147      663A532D 
 147      8A156243 
 148 011f D79ECC7B 		.ascii	"\327\236\314{\"\3728\016te\230WY\236\355\232\306D8H"
 148      22FA380E 
 148      74659857 
 148      599EED9A 
 148      C6443848 
 149 0133 65A4314F 		.ascii	"e\2441O\243\322O0\313D\261&2igo\321\312\263K\330\236"
 149      A3D24F30 
 149      CB44B126 
 149      3269676F 
 149      D1CAB34B 
 150 0149 48074359 		.ascii	"H\007CY\346)\346}tZ\215(.\371\015\253\243\357\204\260"
 150      E629E67D 
 150      745A8D28 
 150      2EF90DAB 
 150      A3EF84B0 
 151 015d 0CC3B32B 		.ascii	"\014\303\263+\020\030\317.g\237\222*\021\303\353\233"
 151      1018CF2E 
 151      679F922A 
 151      11C3EB9B 
 152 016d 32702538 		.ascii	"2p%8\237\221\377\321\371\374\232i\020'V\20677-\350-"
 152      9F91FFD1 
 152      F9FC9A69 
 152      10275686 
 152      37372DE8 
 153 0182 36EC66D3 		.ascii	"6\354f\323\230\267E\261RnN\2646\207R\2315\326\206[U"
 153      98B745B1 
 153      526E4EB4 
 153      36875299 
 153      35D6865B 
 154 0197 7B77B115 		.ascii	"{w\261\025\242(\235R\021\367\024\236\375\200}\002\311"
 154      A2289D52 
 154      11F7149E 
 154      FD807D02 
 154      C9
 155 01a8 94B42811 		.ascii	"\224\264(\021\374/\372\031M\340\341\320\015\233\304"
 155      FC2FFA19 
 155      4DE0E1D0 
 155      0D9BC4
 156 01b7 049655B1 		.ascii	"\004\226U\261\245\200\227\031m\254\336\366\274(\246"
ARM GAS  /tmp/ccZcvrAT.s 			page 11


 156      A5809719 
 156      6DACDEF6 
 156      BC28A6
 157 01c6 F2EC6AC4 		.ascii	"\362\354j\304\211cvj\200\344\372\242\037\032:&\213s"
 157      8963766A 
 157      80E4FAA2 
 157      1F1A3A26 
 157      8B73
 158 01d8 CC21A814 		.ascii	"\314!\250\024\353\\\217\250\234\224>r\001U?D&n>\310"
 158      EB5C8FA8 
 158      9C943E72 
 158      01553F44 
 158      266E3EC8 
 159 01ec 8AB5193C 		.ascii	"\212\265\031<\373>\264\341\210i8\207\252[\2674e\324"
 159      FB3EB4E1 
 159      88693887 
 159      AA5BB734 
 159      65D4
 160 01fe F00AD871 		.ascii	"\360\012\330q\032\260TCn\341m$X\273i05\263\035$\330"
 160      1AB05443 
 160      6EE16D24 
 160      58BB6930 
 160      35B31D24 
 161 0213 591AB0EE 		.ascii	"Y\032\260\356\306\314\216\220`\347M\203\221\314&\204"
 161      C6CC8E90 
 161      60E74D83 
 161      91CC2684 
 162 0223 DB9B0EE1 		.ascii	"\333\233\016\341.x\220\251\025\305\011b\203\335\310"
 162      2E7890A9 
 162      15C50962 
 162      83DDC8
 163 0232 EA18068A 		.ascii	"\352\030\006\212\210q\213\360\354v\366A\365\270<:\245"
 163      88718BF0 
 163      EC76F641 
 163      F5B83C3A 
 163      A5
 164 0243 2B1E9738 		.ascii	"+\036\2278?\301\270\024+\302\255\362\270\344\331\277"
 164      3FC1B814 
 164      2BC2ADF2 
 164      B8E4D9BF 
 165 0253 42E37E80 		.ascii	"B\343~\200\306\341s\223\260/T\371\251\246t\261:Cv(\015"
 165      C6E17393 
 165      B02F54F9 
 165      A9A674B1 
 165      3A437628 
 166 0268 2FAE8A43 		.ascii	"/\256\212C|\267\326\241\034o\342\034Rvb\336'\233\026"
 166      7CB7D6A1 
 166      1C6FE21C 
 166      527662DE 
 166      279B16
 167 027b F4121B76 		.ascii	"\364\022\033v)\316A\254\022\237$\352\352\256\324\205"
 167      29CE41AC 
 167      129F24EA 
 167      EAAED485 
 168 028b 9D69D49F 		.ascii	"\235i\324\237l~\032F\357^h\350%}7@\001\264\261z\245"
 168      6C7E1A46 
 168      EF5E68E8 
ARM GAS  /tmp/ccZcvrAT.s 			page 12


 168      257D3740 
 168      01B4B17A 
 169 02a0 E4060E00 		.ascii	"\344\006\016\000\320\315Nn\300\242q\003\026\365\270"
 169      D0CD4E6E 
 169      C0A27103 
 169      16F5B8
 170 02af B6A4C512 		.ascii	"\266\244\305\022\035\035\026\306\\a\216\251\344XY{z"
 170      1D1D16C6 
 170      5C618EA9 
 170      E458597B 
 170      7A
 171 02c0 24137551 		.ascii	"$\023uQEd\331\326],\352#E\021\223M\303u\327t\011\207"
 171      4564D9D6 
 171      5D2CEA23 
 171      4511934D 
 171      C375D774 
 172 02d6 02629256 		.ascii	"\002b\222VC4\\j3\317\356d\177\215\344.$\211\012\336"
 172      43345C6A 
 172      33CFEE64 
 172      7F8DE42E 
 172      24890ADE 
 173 02ea E528C65C 		.ascii	"\345(\306\\/\2036\243\001|\231\034\300u\246\301\034"
 173      2F8336A3 
 173      017C991C 
 173      C075A6C1 
 173      1C
 174 02fb 2AB01F49 		.ascii	"*\260\037I\260\2714`\016cfWI\260z\323`jf\327I\260\245"
 174      B0B93460 
 174      0E636657 
 174      49B07AD3 
 174      606A66D7 
 175 0312 34604FC6 		.ascii	"4`O\306\353\024U\377\304\342?\317\256\204h\273\012z"
 175      EB1455FF 
 175      C4E23FCF 
 175      AE8468BB 
 175      0A7A
 176 0324 EA6390EB 		.ascii	"\352c\220\353An\004\271\031d#\310\255 \217\200\374\034"
 176      416E04B9 
 176      196423C8 
 176      AD208F80 
 176      FC1C
 177 0336 E431905F 		.ascii	"\3441\220_\220\375k\344!\026\263\351\344\320\242\216"
 177      90FD6BE4 
 177      2116B3E9 
 177      E4D0A28E 
 178 0346 D4E1E3B5 		.ascii	"\324\341\343\265\017c\027x\002\364\260\222\323\016P"
 178      0F631778 
 178      02F4B092 
 178      D30E50
 179 0355 ECEA546D 		.ascii	"\354\352TmK\034yS\231\311\270\356\310$q\002\373\227"
 179      4B1C7953 
 179      99C9B8EE 
 179      C8247102 
 179      FB97
 180 0367 68DDA94A 		.ascii	"h\335\251J\335\254R7\236dq<\333\306\246\242\232\327"
 180      DDAC5237 
 180      9E64713C 
ARM GAS  /tmp/ccZcvrAT.s 			page 13


 180      DBC6A6A2 
 180      9AD7
 181 0379 727AB32D 		.ascii	"rz\263-\250\021\027P\232.\245\225\024:\3451\246^l\210"
 181      A8111750 
 181      9A2EA595 
 181      143AE531 
 181      A65E6C88 
 182 038d 444E1DFD 		.ascii	"DN\035\375\214\237+\206'\212\035\035o1\277bf\202K\255"
 182      8C9F2B86 
 182      278A1D1D 
 182      6F31BF62 
 182      66824BAD 
 183 03a1 4233A210 		.ascii	"B3\242\020\317\276\360\260\241\326\332\331_\311\251"
 183      CFBEF0B0 
 183      A1D6DAD9 
 183      5FC9A9
 184 03b0 5764E782 		.ascii	"Wd\347\202\346*\032\0350\314\1770\3131\236\270J\264"
 184      E62A1A1D 
 184      30CC7F30 
 184      CB319EB8 
 184      4AB4
 185 03c2 001A2E7F 		.ascii	"\000\032.\177\232}L\3152\302\252f\243\230\327\332H\270"
 185      9A7D4CCD 
 185      32C2AA66 
 185      A398D7DA 
 185      48B8
 186 03d4 7E7F46CD 		.ascii	"~\177F\315\204HG\307c\032N\230\275\021\251\257eR\026"
 186      844847C7 
 186      631A4E98 
 186      BD11A9AF 
 186      655216
 187 03e7 F02A0967 		.ascii	"\360*\011g\265\015\026\005`@\264W#\215\263\366\364\003"
 187      B50D1605 
 187      6040B457 
 187      238DB3F6 
 187      F403
 188 03f9 C7FB0DCC 		.ascii	"\307\373\015\314k+-\3526%\204\301<\316k\203N\353~\230"
 188      6B2B2DEA 
 188      362584C1 
 188      3CCE6B83 
 188      4EEB7E98 
 189 040d C59EA78A 		.ascii	"\305\236\247\212:\247&/\202h\251G\037\025`\211\252E"
 189      3AA7262F 
 189      8268A947 
 189      1F156089 
 189      AA45
 190 041f 8E1CAFC8 		.ascii	"\216\034\257\310E\"\266:\014\325\305x\366\"\3228\317"
 190      4522B63A 
 190      0CD5C578 
 190      F622D238 
 190      CF
 191 0430 5EEA34D7 		.ascii	"^\3524\327\236\014,/Q\261\334\270\037\346x*\222&\272"
 191      9E0C2C2F 
 191      51B1DCB8 
 191      1FE6782A 
 191      9226BA
 192 0443 EA277557 		.ascii	"\352'uW\361\354\240t\302\226\030\343\341\372#\322\013"
ARM GAS  /tmp/ccZcvrAT.s 			page 14


 192      F1ECA074 
 192      C29618E3 
 192      E1FA23D2 
 192      0B
 193 0454 A358DC3C 		.ascii	"\243X\334<\350\235K\311MT\021\355u\242\230f\22709f\205"
 193      E89D4BC9 
 193      4D5411ED 
 193      75A29866 
 193      97303966 
 194 0469 69308731 		.ascii	"i0\2071\330z\0320\243i\252\026l\253i0\035f\311\366\324"
 194      D87A1A30 
 194      A369AA16 
 194      6CAB6930 
 194      1D66C9F6 
 195 047e 3D9D9E8A 		.ascii	"=\235\236\212\246e'\2477\340dG\032Y.\366\232\3235\216"
 195      A66527A7 
 195      37E06447 
 195      1A592EF6 
 195      9AD3358E 
 196 0492 33C393A6 		.ascii	"3\303\223\246\325\277\201!W\311aW\272\317\242;i\242"
 196      D5BF8121 
 196      57C96157 
 196      BACFA23B 
 196      69A2
 197 04a4 00DA585D 		.ascii	"\000\332X]?\020\200\252\000\250\331\242\365\311Z\227"
 197      3F1080AA 
 197      00A8D9A2 
 197      F5C95A97 
 198 04b4 CCAA5D32 		.ascii	"\314\252]2\233\026Kt\250\275j\302\262F\352\253\340\322"
 198      9B164B74 
 198      A8BD6AC2 
 198      B246EAAB 
 198      E0D2
 199 04c6 0918ADE2 		.ascii	"\011\030\255\342\250L\376.i\362'hl\301h\225\201&f\215"
 199      A84CFE2E 
 199      69F22768 
 199      6CC16895 
 199      8126668D 
 200 04da B37EC8C2 		.ascii	"\263~\310\302\376\336\222\254=L\343\356\323\036\302"
 200      FEDE92AC 
 200      3D4CE3EE 
 200      D31EC2
 201 04e9 86DDC8B3 		.ascii	"\206\335\310\263\023\271'\222W\365{\367\257\352\251"
 201      13B92792 
 201      57F57BF7 
 201      AFEAA9
 202 04f8 1CA1EA53 		.ascii	"\034\241\352S\246U\355 U\255\036\303_\323\200\031M."
 202      A655ED20 
 202      55AD1EC3 
 202      5FD38019 
 202      4D2E
 203 050a EF770CCF 		.ascii	"\357w\014\3175\3563\335(\363\"\021<^$\035\214<\320\326"
 203      35EE33DD 
 203      28F32211 
 203      3C5E241D 
 203      8C3CD0D6 
 204 051e 2E1A8423 		.ascii	".\032\204#\305B\016\207\310\245V\335\020i\014\202\011"
ARM GAS  /tmp/ccZcvrAT.s 			page 15


 204      C5420E87 
 204      C8A556DD 
 204      10690C82 
 204      09
 205 052f 34709AE0 		.ascii	"4p\232\340sCpH\271\211C\317\255\345\362\366\202\264"
 205      73437048 
 205      B98943CF 
 205      ADE5F2F6 
 205      82B4
 206 0541 9A5C0FF5 		.ascii	"\232\\\017\365\343S\223\012\002\341\333\302\201\276"
 206      E353930A 
 206      02E1DBC2 
 206      81BE
 207 054f 0AD636D3 		.ascii	"\012\3266\323X\016=\242L\247V\242y&\230\366\022\016"
 207      580E3DA2 
 207      4CA756A2 
 207      792698F6 
 207      120E
 208 0561 4F4C9771 		.ascii	"OL\227q\024\023\323\005*s\2462\3379\244\371\356\261"
 208      1413D305 
 208      2A73A632 
 208      DF39A4F9 
 208      EEB1
 209 0573 9AB5386D 		.ascii	"\232\2658m[b\353\245+0\237\276\016\362&\310\333 \177"
 209      5B62EBA5 
 209      2B309FBE 
 209      0EF226C8 
 209      DB207F
 210 0586 0639051A 		.ascii	"\0069\005\0325\023\344l\232\246] =\332\337\200\347\371"
 210      3513E46C 
 210      9AA65D20 
 210      3DDADF80 
 210      E7F9
 211 0598 648378A4 		.ascii	"d\203x\244\361\213\033Y\263\305\360\004K\012S%M\237"
 211      F18B1B59 
 211      B3C5F004 
 211      4B0A5325 
 211      4D9F
 212 05aa 2B12058A 		.ascii	"+\022\005\212\265\213\236\303\366\373>\227\202\352o"
 212      B58B9EC3 
 212      F6FB3E97 
 212      82EA6F
 213 05b9 D1D82F05 		.ascii	"\321\330/\005\014n\303\207\350d\225\0057\216wH\271q"
 213      0C6EC387 
 213      E8649505 
 213      378E7748 
 213      B971
 214 05cb 2C18061D 		.ascii	",\030\006\035\307|\205\252\304p\326\264X\336\267\261"
 214      C77C85AA 
 214      C470D6B4 
 214      58DEB7B1 
 215 05db 3C96287A 		.ascii	"<\226(z9\226\315\021\331wb\331\026\"\273\332\026\315"
 215      3996CD11 
 215      D97762D9 
 215      1622BBDA 
 215      16CD
 216 05ed B612D90B 		.ascii	"\266\022\331\013b\3316\"{E,\333Nd\257\213e\247\020\331"
ARM GAS  /tmp/ccZcvrAT.s 			page 16


 216      62D93622 
 216      7B452CDB 
 216      4E64AF8B 
 216      65A710D9 
 217 0601 3B62D9A9 		.ascii	";b\331\251D\177\304\015\2321%\361\354j\030\000k8\213"
 217      447FC40D 
 217      9A3125F1 
 217      EC6A1800 
 217      6B388B
 218 0614 EE691C73 		.ascii	"\356i\034s\310\246\261\003\225\312\023\315\277D\260"
 218      C8A6B103 
 218      95CA13CD 
 218      BF44B0
 219 0623 830938B2 		.ascii	"\203\0118\262\365`j\344\031\2604\254\225Y0\253\366\331"
 219      F5606AE4 
 219      19B034AC 
 219      955930AB 
 219      F6D9
 220 0635 3CBB9BEB 		.ascii	"<\273\233\353\001)\010M\242\354\003\241\204\221\341"
 220      0129084D 
 220      A2EC03A1 
 220      8491E1
 221 0644 7ECAA545 		.ascii	"~\312\245E\011d\244\305\022\312\320\344\230#\332V\250"
 221      0964A4C5 
 221      12CAD0E4 
 221      9823DA56 
 221      A8
 222 0655 AB4D34F3 		.ascii	"\253M4\363\203\355!\034507\2169F\205\226(l(\336\355"
 222      83ED211C 
 222      3530378E 
 222      39468596 
 222      286C28DE 
 223 066a 84168D76 		.ascii	"\204\026\215v\261.{\312\033\223\027\322\256L^W\3402"
 223      B12E7BCA 
 223      1B9317D2 
 223      AE4C5E57 
 223      E032
 224 067c A2A32E7C 		.ascii	"\242\243.|k\037\353\320Y\235\250\212\362\354g\310L\022"
 224      6B1FEBD0 
 224      599DA88A 
 224      F2EC67C8 
 224      4C12
 225 068e 95C2E59A 		.ascii	"\225\302\345\232\265\021d\347>X\2764S\305\220\343U\306"
 225      B51164E7 
 225      3E58BE34 
 225      53C590E3 
 225      55C6
 226 06a0 4D512D9D 		.ascii	"MQ-\235\242\213\273\276\321\206Dj/]\3763\3143?\207\000"
 226      A28BBBBE 
 226      D186446A 
 226      2F5DFE33 
 226      CC333F87 
 227 06b5 B8C29E70 		.ascii	"\270\302\236p\215\250\206\341\331c\034^\201\265j\233"
 227      8DA886E1 
 227      D9631C5E 
 227      81B56A9B 
 228 06c5 706D3E34 		.ascii	"pm>4\241\225\252\011w\333\352\377E\214\204Yz\267\327"
ARM GAS  /tmp/ccZcvrAT.s 			page 17


 228      A195AA09 
 228      77DBEAFF 
 228      458C8459 
 228      7AB7D7
 229 06d8 F253F891 		.ascii	"\362S\370\221J\324O<{\002<\337\327\366\244<_\233\326"
 229      4AD44F3C 
 229      7B023CDF 
 229      D7F6A43C 
 229      5F9BD6
 230 06eb F36DACEA 		.ascii	"\363m\254\352\206i\267Q\371\276\213\366\316\276\357"
 230      8669B751 
 230      F9BE8BF6 
 230      CEBEEF
 231 06fa 965DD7F7 		.ascii	"\226]\327\367U\244\350\372\276\251)\272\276ov\212\332"
 231      55A4E8FA 
 231      BEA929BA 
 231      BE6F768A 
 231      DA
 232 070b F73114FE 		.ascii	"\3671\024\376\251\215\360O_\201\177:e\340\237x6\034"
 232      A98DF04F 
 232      5F817F3A 
 232      65E09F78 
 232      361C
 233 071d ED335AFF 		.ascii	"\3553Z\377\244\352\257\310\214KG\312w\240\361\370\216"
 233      A4EAAFC8 
 233      8C4B47CA 
 233      77A0F1F8 
 233      8E
 234 072e 3DC9F1D3 		.ascii	"=\311\361\323\326F3~\276\243\034?\027\264\3067\273\015"
 234      D646337E 
 234      BEA31C3F 
 234      17B4C637 
 234      BB0D
 235 0740 8CEF0295 		.ascii	"\214\357\002\225\361-j\253\357<~\350\267\217.k'\244"
 235      F12D6AAB 
 235      EF3C7EE8 
 235      B78F2E6B 
 235      27A4
 236 0752 2D1CC5FA 		.ascii	"-\034\305\372_\326\303\335y\017\301>\005\207\347\325"
 236      5FD6C3DD 
 236      790FC13E 
 236      0587E7D5 
 237 0762 CB52D436 		.ascii	"\313R\3246\254\"$UdD\342*\227n\320\316N\377\241\240"
 237      AC222455 
 237      6444E22A 
 237      976ED0CE 
 237      4EFFA1A0 
 238 0776 08F55C48 		.ascii	"\010\365\\Hz\226\331\250\2470\351\352\251qS#g\327\354"
 238      7A96D9A8 
 238      A730E9EA 
 238      A9715323 
 238      67D7EC
 239 0789 B680A7B9 		.ascii	"\266\200\247\271\001\215mL\321\256h\027\263\351j\342"
 239      018D6D4C 
 239      D1AE6817 
 239      B3E96AE2 
 240 0799 9AED4C34 		.ascii	"\232\355L4\0154M\334\2411\333p\351\366\265\2428\311"
ARM GAS  /tmp/ccZcvrAT.s 			page 18


 240      0D344DDC 
 240      A131DB70 
 240      E9F6B5A2 
 240      38C9
 241 07ab AE6CE637 		.ascii	"\256l\3467i\021\3656\363\215\3676\302'\346g\034y]\001"
 241      6911F536 
 241      F38DF736 
 241      C227E667 
 241      1C795D01 
 242 07bf 6B310DA6 		.ascii	"k1\015\246\2752\240\214\337\037`\374^\204Y\350u"
 242      BD32A08C 
 242      DF1F60FC 
 242      5E8459E8 
 242      75
 243 07d0 907740DE 		.ascii	"\220w@\336%g\244\034\323\332I\207\222\305\023x\261\241"
 243      2567A41C 
 243      D3DA4987 
 243      92C51378 
 243      B1A1
 244 07e2 C1244634 		.ascii	"\301$F4\262\256s\344\\\274\035*mM\266\023\302\365\247"
 244      B2AE73E4 
 244      5CBC1D2A 
 244      6D4DB613 
 244      C2F5A7
 245 07f5 336AF884 		.ascii	"3j\370\204\373\231V\005)'fA\013;\302\275\266\210bw\236"
 245      FB995605 
 245      29276641 
 245      0B3BC2BD 
 245      B6886277 
 246 080a ADB4E060 		.ascii	"\255\264\340`\265(5\361\206\246\012\207cV\301)U\026"
 246      B52835F1 
 246      86A60A87 
 246      6356C129 
 246      5516
 247 081c B5BF88B4 		.ascii	"\265\277\210\264.\375\373\277\316\001d\374Wb\227qG/"
 247      2EFDFBBF 
 247      CE0164FC 
 247      57629771 
 247      472F
 248 082e E44AB48C 		.ascii	"\344J\264\214tXm\321\030\363\267Q*\311\215\302{\373"
 248      74586DD1 
 248      18F3B751 
 248      2AC98DC2 
 248      7BFB
 249 0840 E0DA05C6 		.ascii	"\340\332\005\306E\221\3104\230\272Sf\354'n7\240\272"
 249      4591C834 
 249      98BA5366 
 249      EC276E37 
 249      A0BA
 250 0852 B8DFB6F2 		.ascii	"\270\337\266\362|\357\355\240\262w-\330\300w\244\375"
 250      7CEFEDA0 
 250      B2772DD8 
 250      C077A4FD 
 251 0862 02570D38 		.ascii	"\002W\0158f_\032EC\214\247\234\250'[\036m\204\310\244"
 251      665F1A45 
 251      438CA79C 
 251      A8275B1E 
ARM GAS  /tmp/ccZcvrAT.s 			page 19


 251      6D84C8A4 
 252 0876 0423C38B 		.ascii	"\004#\303\213\301h\271\006\225\325i\255\241mM\3133\222"
 252      C168B906 
 252      95D569AD 
 252      A16D4DCB 
 252      3392
 253 0888 35D45159 		.ascii	"5\324QY\303\346\246\331T\023\260\006\273R\275\007\252"
 253      C3E6A6D9 
 253      5413B006 
 253      BB52BD07 
 253      AA
 254 0899 7FB70BAE 		.ascii	"\177\267\013\256~\256\266\372\033\353\316\277 U?\227"
 254      7EAEB6FA 
 254      1BEBCEBF 
 254      20553F97 
 255 08a9 AAFAF6C3 		.ascii	"\252\372\366\303uz\306h\020\262\224\356[s\345\311EP"
 255      757AC668 
 255      10B294EE 
 255      5B73E5C9 
 255      4550
 256 08bb C94230A0 		.ascii	"\311B0\240\223]\264\3357H\343\215\007i\354\367L\224"
 256      935DB4DD 
 256      3748E38D 
 256      0769ECF7 
 256      4C94
 257 08cd 7D52F68B 		.ascii	"}R\366\213\232\271k\320\373\320S\012\207oL#\252\215"
 257      9AB96BD0 
 257      FBD0530A 
 257      876F4C23 
 257      AA8D
 258 08df F8C7C330 		.ascii	"\370\307\3030\"$\260\357h\300\342x\366\253$\330E\323"
 258      2224B0EF 
 258      68C0E278 
 258      F6AB24D8 
 258      45D3
 259 08f1 606A66D7 		.ascii	"`jf\327I\260\037i\300\214\267=\3037I\260\353\246\301"
 259      49B01F69 
 259      C08CB73D 
 259      C33749B0 
 259      EBA6C1
 260 0904 D4CC6E93 		.ascii	"\324\314n\223`\267i\300\214Wh\341\237I\260{\246\301"
 260      60B769C0 
 260      8C5768E1 
 260      9F49B07B 
 260      A6C1
 261 0916 D4CCEE91 		.ascii	"\324\314\356\221`\025\351\024`\016cf5\237\023`U\246"
 261      6015E914 
 261      600E6366 
 261      359F1360 
 261      55A6
 262 0928 C1D4CC6A 		.ascii	"\301\324\314jI\260j\032\2608\013\321:\022l\272i05\263"
 262      49B06A1A 
 262      B0380BD1 
 262      3A126CBA 
 262      693035B3 
 263 093c 5924582D 		.ascii	"Y$X-\015X_cfsH\260Y\246\301\324\314\346\221`\363h\300"
 263      0D585F63 
ARM GAS  /tmp/ccZcvrAT.s 			page 20


 263      667348B0 
 263      59A6C1D4 
 263      CCE69160 
 264 0953 061A335B 		.ascii	"\006\0323[@\202\325\233\006S3[K\202-\241\001{\321\230"
 264      4082D59B 
 264      0653335B 
 264      4B822DA1 
 264      017BD198 
 265 0967 D93A126C 		.ascii	"\331:\022l\271i05\263\015$\330*\032\260\241\306\314"
 265      B9693035 
 265      B30D24D8 
 265      2A1AB0A1 
 265      C6CC
 266 0979 3691607F 		.ascii	"6\221`\1775\015\246f\366\011\011\266\206\006,\337\230"
 266      350DA666 
 266      F60909B6 
 266      86062CDF 
 266      98
 267 098a D91612EC 		.ascii	"\331\026\022\354c\323`jf\333H\260\0154`\257\0323\333"
 267      63D3606A 
 267      66DB48B0 
 267      0D3460AF 
 267      1A33DB
 268 099d 41827D62 		.ascii	"A\202}b\032L\315\354\010\011\266\215\006\354u\035f\321"
 268      1A4CCDEC 
 268      0809B68D 
 268      06EC751D 
 268      66D1
 269 09af 8FD13C73 		.ascii	"\217\321<s\216\205\230\253\357LW&8&c4\023\303\3704\335"
 269      8E8598AB 
 269      EF4C5726 
 269      38266334 
 269      13C3F834 
 270 09c4 EC8C4CD5 		.ascii	"\354\214L\325n<\267~t\213\034\347\245\311\352A\032\304"
 270      6E3CB77E 
 270      748B1CE7 
 270      A5C9EA41 
 270      1AC4
 271 09d6 380170DE 		.ascii	"8\001p\336~b\346\333b\032Lc\312\373\265\313\021\212"
 271      7E62E6DB 
 271      621A4C63 
 271      CAFBB5CB 
 271      118A
 272 09e8 AB7BB15B 		.ascii	"\253{\261[W\210+\272\275\364\313\362\354\227\026\274"
 272      57882BBA 
 272      BDF4CBF2 
 272      EC9716BC 
 273 09f8 9A6BD3DC 		.ascii	"\232k\323\334\251\326\026\275U\015\247\244}\343\223"
 273      A9D616BD 
 273      550DA7A4 
 273      7DE393
 274 0a07 E9C637C0 		.ascii	"\351\3067\300$<\335\310\"N\220\026q\232F]qB|\373\376"
 274      243CDDC8 
 274      224E9016 
 274      719A465D 
 274      71427CFB 
 275 0a1c 05B05347 		.ascii	"\005\260SG\177%\273me\213\274Ph\207\205\302\331t\355"
ARM GAS  /tmp/ccZcvrAT.s 			page 21


 275      7F25BB6D 
 275      658BBC50 
 275      688785C2 
 275      D974ED
 276 0a2f 4CB39233 		.ascii	"L\263\2223w-\033\315\307\264\255\320\333\2772\236[ "
 276      772D1BCD 
 276      C7B4ADD0 
 276      DBBF329E 
 276      5B20
 277 0a41 9B3CF958 		.ascii	"\233<\371X\343\032Q\254\264\233i\307A\271\035\377\200"
 277      E31A51AC 
 277      B49B69C7 
 277      41B91DFF 
 277      80
 278 0a52 765CFF05 		.ascii	"v\\\377\005\332q\317t;\236\324\264c\327\223\346\333"
 278      DA71CF74 
 278      3B9ED4B4 
 278      63D793E6 
 278      DB
 279 0a63 71526EC7 		.ascii	"qRn\307yhGU\306\375\267cz\206\331v\364%\332\001\253"
 279      79684755 
 279      C6FDB763 
 279      7A86D976 
 279      F425DA01 
 280 0a78 B63ED2AA 		.ascii	"\266>\322\252\215\352\026\336\213\026\315-\274'\017"
 280      8DEA16DE 
 280      8B16CD2D 
 280      BC270F
 281 0a87 B10E293B 		.ascii	"\261\016);\321rI\014\3378D,uE\272\245\356\025YcW@c3"
 281      D172490C 
 281      DF38442C 
 281      7545BAA5 
 281      EE155963 
 282 0a9f 351AA347 		.ascii	"5\032\243G\272\265o\317\307p\217>\317^\005\250\371I"
 282      BAB56FCF 
 282      C7708F3E 
 282      CF5E05A8 
 282      F949
 283 0ab1 436D3CB4 		.ascii	"Cm<\264Y\272A\344\006\000-\355\324\213vM'\332\325\235"
 283      59BA41E4 
 283      06002DED 
 283      D48B764D 
 283      27DAD59D 
 284 0ac5 887EE29A 		.ascii	"\210~\342\232n\342\2257\373\226\234\203\177\2440\377"
 284      6EE29537 
 284      FB969C83 
 284      7FA430FF 
 285 0ad5 F4F33866 		.ascii	"\364\3638f5\320\307\035h2P\305\014\350\351F9\310H\235"
 285      35D0C71D 
 285      683250C5 
 285      0CE8E946 
 285      39C8489D 
 286 0ae9 B4E1BE10 		.ascii	"\264\341\276\020+\302\353\247,\224o\364\036\204\303"
 286      2BC2EBA7 
 286      2C946FF4 
 286      1E84C3
 287 0af8 CCF6FB84 		.ascii	"\314\366\373\204ki2\277\301\262\353\021\311\352D\270"
ARM GAS  /tmp/ccZcvrAT.s 			page 22


 287      6B6932BF 
 287      C1B2EB11 
 287      C9EA44B8 
 288 0b08 68B0A753 		.ascii	"h\260\247S\017'\265\301r$\331\206D?\034s\\;\334M\255"
 288      0F27B5C1 
 288      7224D986 
 288      443F1C73 
 288      5C3BDC4D 
 289 0b1d C6706FDD 		.ascii	"\306po\335\352C\271I\023\335\372;\327\353\200\264Ag"
 289      EA43B949 
 289      13DDFA3B 
 289      D7EB80B4 
 289      4167
 290 0b2f C55B7F6D 		.ascii	"\305[\177m\032ePl\366|\007\247\274c\355\264\365\327"
 290      1A65506C 
 290      F67C07A7 
 290      BC63EDB4 
 290      F5D7
 291 0b41 D25BDA6D 		.ascii	"\322[\332m\301\177Ql\366T)v!\355\350M\261p2l\262\372"
 291      C17F516C 
 291      F6542976 
 291      21EDE84D 
 291      B170326C 
 292 0b57 5475618C 		.ascii	"Tua\214\037\202\266\342y\303T\253j\317\367\266i\335"
 292      1F82B6E2 
 292      79C354AB 
 292      6ACFF7B6 
 292      69DD
 293 0b69 3B48DD87 		.ascii	";H\335\207\3574-`1\177\235\375\251\027\311\331\\T\361"
 293      EF342D60 
 293      317F9DFD 
 293      A917C9D9 
 293      5C54F1
 294 0b7c 91DE07A5 		.ascii	"\221\336\007\245m>P\374\304\007L\336!\3031upJmg\305"
 294      6D3E50FC 
 294      C4074CDE 
 294      21C33175 
 294      704A6D67 
 295 0b91 1F7C4452 		.ascii	"\037|DR|-\225\342[u\025_k^\3612\336\027\261\375S\236"
 295      7C2D95E2 
 295      5B75155F 
 295      6B5EF132 
 295      DE17B1FD 
 296 0ba7 9D661ACC 		.ascii	"\235f\032\314\021\257\027k\211^\254\203^\234i\305\273"
 296      11AF176B 
 296      895EAC83 
 296      5E9C69C5 
 296      BB
 297 0bb8 EDB3D47D 		.ascii	"\355\263\324}\271\374\001M_\2524''\015\367\016\304\360"
 297      B9FC014D 
 297      5FAA3427 
 297      270DF70E 
 297      C4F0
 298 0bca 8C66E561 		.ascii	"\214f\345a\024\311\347\255\325\342\351\265\"\316\212"
 298      14C9E7AD 
 298      D5E2E9B5 
 298      22CE8A
ARM GAS  /tmp/ccZcvrAT.s 			page 23


 299 0bd9 BFBE1954 		.ascii	"\277\276\031T\"\371\233M\246\301\034*\260\355\323)/"
 299      22F99B4D 
 299      A6C11C2A 
 299      B0EDD329 
 299      2F
 300 0bea 4BAB6E03 		.ascii	"K\253n\003\340\230]Po\275\326\\\026]l\231\314N\200\320"
 300      E0985D50 
 300      6FBDD65C 
 300      165D6C99 
 300      CC4E80D0 
 301 0bfe 594F612F 		.ascii	"YOa/(\316\237M\203;\253$\273\275\023E\215\243\3528\326"
 301      28CE9F4D 
 301      833BAB24 
 301      BBBD1345 
 301      8DA3EA38 
 302 0c13 72E7BC7C 		.ascii	"r\347\274|\243\226\264\352\250\354\252\201K\270(R\303"
 302      A396B4EA 
 302      A8ECAA81 
 302      4BB82852 
 302      C3
 303 0c24 DD130EF4 		.ascii	"\335\023\016\3645\247\030\345\302i#\236\351\254\204"
 303      35A718E5 
 303      C269239E 
 303      E9AC84
 304 0c33 364DE9AA 		.ascii	"6M\351\252\215\010\222f\010C\254'\014\261\001\014q1"
 304      8D089266 
 304      0843AC27 
 304      0CB1010C 
 304      7131
 305 0c45 18E25290 		.ascii	"\030\342R\220\313Is4\232l\255\260\022\313\207\031\246"
 305      CB497334 
 305      9A6CADB0 
 305      12CB8719 
 305      A6
 306 0c56 DBEDD0F4 		.ascii	"\333\355\320\364\216Q5\013\311j\346u\245\260=\343\015"
 306      8E51350B 
 306      C96AE675 
 306      A5B03DE3 
 306      0D
 307 0c67 22ECD47F 		.ascii	"\"\354\324\177\247L\007\244\313\023\313L#\252\255\371"
 307      A74C07A4 
 307      CB13CB4C 
 307      23AAADF9 
 308 0c77 CA74D574 		.ascii	"\312t\325t\340#\032\270\027u\010\352}\310\013R<\373"
 308      E0231AB8 
 308      177508EA 
 308      7DC80B52 
 308      3CFB
 309 0c89 36AC16DF 		.ascii	"6\254\026\337\261\340\016\232\012r:\310\031 \217\202"
 309      B1E00E9A 
 309      0A723AC8 
 309      19208F82 
 310 0c99 6C05791C 		.ascii	"l\005y\034\344i\220_\203<\007\362\007\220\223\240\213"
 310      E469905F 
 310      833C07F2 
 310      079093A0 
 310      8B
ARM GAS  /tmp/ccZcvrAT.s 			page 24


 311 0caa A7839C03 		.ascii	"\247\203\234\003r\036\310\005 ?\004\271&\221\001\310"
 311      721EC805 
 311      203F04B9 
 311      269101C8 
 312 0cba 51A0FDA7 		.ascii	"Q\240\375\247\223\217~\010\276\272\002\314\377R'\313"
 312      938F7E08 
 312      BEBA02CC 
 312      FF5227CB 
 313 0cca ABB6682E 		.ascii	"\253\266h.\027t\272\336U\321\215\342\272a\234+;3.\235"
 313      1774BADE 
 313      55D18DE2 
 313      BA619C2B 
 313      3B332E9D 
 314 0cde 1BBFBD42 		.ascii	"\033\277\275B\352\323\225`\326\213\254\232\273\030\022"
 314      EAD39560 
 314      D68BAC9A 
 314      BB1812
 315 0ced DF9FA4EE 		.ascii	"\337\237\244\356\324S\365\306\217'\250.\334D\037:x<"
 315      D453F5C6 
 315      8F27A82E 
 315      DC441F3A 
 315      783C
 316 0cff A693F5B7 		.ascii	"\246\223\365\267O\376\237t\007\312&\030\215{\273%\276"
 316      4FFE9F74 
 316      07CA2618 
 316      8D7BBB25 
 316      BE
 317 0d10 1AA9C2C1 		.ascii	"\032\251\302\301Zj\324\270\271\360\225\323p\347Bcb\027"
 317      5A6AD4B8 
 317      B9F095D3 
 317      70E74263 
 317      6217
 318 0d22 37B1327C 		.ascii	"7\2612|\355t\235l\224\322\023L-@\2411\271\220\210\037"
 318      ED749D6C 
 318      94D2134C 
 318      2D40A131 
 318      B990881F 
 319 0d36 873A4D3C 		.ascii	"\207:M<\016\325j\032\314\241\002\273I\202\235\244\001"
 319      0ED56A1A 
 319      CCA102BB 
 319      49829DA4 
 319      01
 320 0d47 8BF3A8EB 		.ascii	"\213\363\250\353m\022\354+\323`jf?\223`\3554`q\036u"
 320      6D12EC2B 
 320      D3606A66 
 320      3F9360ED 
 320      3460711E 
 321 0d5c BD47829D 		.ascii	"\275G\202\2355\015\246fV\323N\200]\240\001\213\363\014"
 321      350DA666 
 321      56D34E80 
 321      5DA0018B 
 321      F30C
 322 0d6e 5F2D09F6 		.ascii	"_-\011\366\223i05\263:\022\354\016\015\230C\207\231"
 322      93693035 
 322      B33A12EC 
 322      0E0D9843 
 322      8799
ARM GAS  /tmp/ccZcvrAT.s 			page 25


 323 0d80 DE871C04 		.ascii	"\336\207\034\004<\273\005\202\324V\360N\333A\356\004"
 323      3CBB0582 
 323      D456F04E 
 323      DB41EE04 
 324 0d90 B90BE4A7 		.ascii	"\271\013\344\247 \367\202\334\017\362 \310&\232@\266"
 324      20F782DC 
 324      0FF220C8 
 324      269A40B6 
 325 0da0 918C3013 		.ascii	"\221\2140\023\272Sx\2438;H3.\035\371\337\373\271\003"
 325      BA5378A3 
 325      383B4833 
 325      2E1DF9DF 
 325      FBB903
 326 0db3 2A327FC9 		.ascii	"*2\177\311\241\377\302\356#\361]P-V\272\273\240\216"
 326      A1FFC2EE 
 326      23F15D50 
 326      2D56BABB 
 326      A08E
 327 0dc5 6A7DC9B5 		.ascii	"j}\311\265f\360%G\251\246\3277(\247ka\226\324N\324\027"
 327      66F02547 
 327      A9A6D737 
 327      28A76B61 
 327      96D44ED4 
 328 0dda 1E7C41F2 		.ascii	"\036|A\362\205\307\301\027~\326=\241/T\343\3006\251"
 328      85C7C117 
 328      7ED63DA1 
 328      2F54E3C0 
 328      36A9
 329 0dec 96FFFAC3 		.ascii	"\226\377\372\303\300\377K*_\270\371\260\332\027\266"
 329      C0FF4B2A 
 329      5FB8F9B0 
 329      DA17B6
 330 0dfb 03852F93 		.ascii	"\003\205/\223\366\205\237\034&\014\376\214i0\207\012"
 330      F6859F1C 
 330      260CFE8C 
 330      6930870A 
 331 0e0b 6C0B09F6 		.ascii	"l\013\011\366-\015X\274\307\376I\260\357M\203\251\231"
 331      2D0D58BC 
 331      C7FE49B0 
 331      EF4D83A9 
 331      99
 332 0e1c ED20C12E 		.ascii	"\355 \301.\323\200\305{\354\237\004\273f\032\314\241"
 332      D380C57B 
 332      EC9F04BB 
 332      661ACCA1 
 333 0e2c D7BD4C27 		.ascii	"\327\275L'\353\340\3316p\022_\301\320?\0152\002\362"
 333      EBE0D936 
 333      70125FC1 
 333      D03F0D32 
 333      02F2
 334 0e3e 0CC87F80 		.ascii	"\014\310\177\200\374\206\306%|A\272\204[@\370h\262\013"
 334      FC86C625 
 334      7C41BA84 
 334      5B40F868 
 334      B20B
 335 0e50 4A34A2CF 		.ascii	"J4\242\317\374~Kg\227 \351\303\210\301w$\003\261\207"
 335      FC7E4B67 
ARM GAS  /tmp/ccZcvrAT.s 			page 26


 335      9720E9C3 
 335      88C17724 
 335      03B187
 336 0e63 59060E92 		.ascii	"Y\006\016\222A\370N\263\2649\257<~6I\213\247\267-\033"
 336      41F84EB3 
 336      B439AF3C 
 336      7E36498B 
 336      A7B72D1B 
 337 0e77 6F95D29C 		.ascii	"o\225\322\234\276\366u\005l\252i\260T\025X\315a\002"
 337      BEF67505 
 337      6CAA69B0 
 337      541558CD 
 337      6102
 338 0e89 6C966930 		.ascii	"l\226i0\243[\345\216\201-\264B\237\237\007y\001\344"
 338      A35BE58E 
 338      812DB442 
 338      9F9F0779 
 338      01E4
 339 0e9b 459097D5 		.ascii	"E\220\227\325\013\356\205=\264\363\326\243\332\025S"
 339      0BEE853D 
 339      B4F3D6A3 
 339      DA1553
 340 0eaa CC8B32B4 		.ascii	"\314\2132\264\270F}{\230\354\333\265=(\002\216\303\330"
 340      B8467D7B 
 340      98ECDBB5 
 340      3D28028E 
 340      C3D8
 341 0ebc BA665CBA 		.ascii	"\272f\\\272,\007\034\011\030-\320M#\252\255ef{\275\352"
 341      2C071C09 
 341      182DD04D 
 341      23AAAD65 
 341      667BBDEA 
 342 0ed0 5516DB68 		.ascii	"U\026\333h\360\342\334\311\260@\232\"H`\373L\2039\030"
 342      F0E2DCC9 
 342      B0409A22 
 342      4860FB4C 
 342      833918
 343 0ee3 C30F797B 		.ascii	"\303\017y{9\032\264ps\344q\270}\361[\220\023`\301\263"
 343      391AB470 
 343      73E471B8 
 343      7DF15B90 
 343      1360C1B3 
 344 0ef7 1E7A6603 		.ascii	"\036zf\003\310f\220WA^\007y\223\246\307Z\310\033\035"
 344      C8669057 
 344      415E0779 
 344      93A6C75A 
 344      C81B1D
 345 0f0a 8F40139A 		.ascii	"\217@\023\232\223\275M6\322\370\305\361\305\354\214"
 345      93BD4D36 
 345      D2F8C5F1 
 345      C5EC8C
 346 0f19 4A113F92 		.ascii	"J\021?\222u\016\356ym5\215\250\356\261\353\322\226\225"
 346      750EEE79 
 346      6D358DA8 
 346      EEB1EBD2 
 346      9695
 347 0f2b 04D64603 		.ascii	"\004\326F\003\2467\270\011\265J\012=\014\012=\"\335"
ARM GAS  /tmp/ccZcvrAT.s 			page 27


 347      A637B809 
 347      B54A0A3D 
 347      0C0A3D22 
 347      DD
 348 0f3c 150ACABA 		.ascii	"\025\012\312\272\253\0366\177\3574l\232\265\367\231"
 348      AB1E367F 
 348      EF346C9A 
 348      B5F799
 349 0f4b 36ABEE33 		.ascii	"6\253\35635\3042R\374\241\230\342yV\204\31583\317v\250"
 349      35C43252 
 349      FCA198E2 
 349      795684CD 
 349      3833CF76 
 350 0f60 D5D4B15F 		.ascii	"\325\324\261_q\203\322k\005\276\007\372\011\236\306"
 350      7183D26B 
 350      05BE07FA 
 350      099EC6
 351 0f6f D1DB16D3 		.ascii	"\321\333\026\323\373\220\217\304#\367\015/v\370\036"
 351      FB908FC4 
 351      23F70D2F 
 351      76F81E
 352 0f7e 1E1D5B05 		.ascii	"\036\035[\005\215\336\005r/\310\375 \017\202\024m\024"
 352      8DDE0572 
 352      2FC8FD20 
 352      0F82146D 
 352      14
 353 0f8f 6A38CB12 		.ascii	"j8\313\022j \356 GSnM\027<\316,\025"
 353      6A20EE20 
 353      47536E4D 
 353      173CCE2C 
 353      15
 354 0fa0 C5DAC8A9 		.ascii	"\305\332\310\251\243\337.fgV\212C\245s9\246\256'.w\206"
 354      A3DF2E66 
 354      67568A43 
 354      A57339A6 
 354      AE272E77 
 355 0fb5 7D4CB78E 		.ascii	"}L\267\216h\015\3606\203\012\361\207I\223\272\263\312"
 355      680DF036 
 355      830AF187 
 355      4993BAB3 
 355      CA
 356 0fc6 0B1554A7 		.ascii	"\013\025T\247i\236\224\200\277+lzo78\242\274\335@zi"
 356      699E9480 
 356      BF2B6C7A 
 356      6F3738A2 
 356      BCDD407A 
 357 0fdb 01C7CCED 		.ascii	"\001\307\314\355\251GUl\024d\222<;\321\206;\270\312"
 357      A947556C 
 357      1464923C 
 357      3BD1863B 
 357      B8CA
 358 0fed 961449E2 		.ascii	"\226\024I\3424=\222\223;\223l\210\204\257\306H\266\003"
 358      343D9293 
 358      3B936C88 
 358      84AFC648 
 358      B603
 359 0fff C9       		.ascii	"\311"
ARM GAS  /tmp/ccZcvrAT.s 			page 28


 360 1000 0D1A92FA 		.ascii	"\015\032\222\372/x\250\266i^\3600E\027\275\246I\377"
 360      2F78A8B6 
 360      695EF030 
 360      4517BDA6 
 360      49FF
 361 1012 050F719E 		.ascii	"\005\017q\236\032\230n\323<5\200\233\247\351\363\035"
 361      1A986ED3 
 361      3C35809B 
 361      A7E9F31D 
 362 1022 FA8ABCF6 		.ascii	"\372\212\274\366?\275\024\313\376\033\224\230f\240\221"
 362      3FBD14CB 
 362      FE1B9498 
 362      66A091
 363 1031 E85B33E4 		.ascii	"\350[3\344\246M\023A\221r\333\246i\333V\243\333\266"
 363      A64D1341 
 363      9172DBA6 
 363      69DB56A3 
 363      DBB6
 364 1043 4D4D51CD 		.ascii	"MMQ\315a\316\310-\352\263jWX\361l-to]R\254\352\264\254"
 364      61CEC82D 
 364      EAB36A57 
 364      58F16C2D 
 364      746F5D52 
 365 105b 66766615 		.ascii	"fvf\025\251\211\334\332\264\373\026[\261\264*\214\271"
 365      A989DCDA 
 365      B4FB165B 
 365      B1B42A8C 
 365      B9
 366 106c BD15EDD5 		.ascii	"\275\025\355\325\305\017j{U\002\231\253\0132\361\307"
 366      C50F6A7B 
 366      550299AB 
 366      0B32F1C7 
 367 107c 26F6ED5A 		.ascii	"&\366\355Z\361g\374\236 \372\236\233\257\3559\374<\203"
 367      F167FC9E 
 367      20FA9E9B 
 367      AFED39FC 
 367      3C83
 368 108e FC83FE8D 		.ascii	"\374\203\376\215+\333\2457\256\324\333p\260\\\367\240"
 368      2BDBA537 
 368      AED4DB70 
 368      B05CF7A0 
 369 109e D6BF2671 		.ascii	"\326\277&qi\217\244tB\3479q\216\331i\240\235%j\355\374"
 369      698FA474 
 369      42E73971 
 369      8ED969A0 
 369      9D256AED 
 370 10b3 3BB3585C 		.ascii	";\263X\\\033F\256e\341\177\342g\020E\254 \226\325_\331"
 370      1B46AE65 
 370      E17FE267 
 370      1045AC20 
 370      96D55FD9 
 371 10c7 86BB286D 		.ascii	"\206\273(m[E\334b\260\267\243\267h\325[\363\251K#.6"
 371      5B45DC62 
 371      B0B7A3B7 
 371      68D55BF3 
 371      A94B232E 
 372 10dc DDA5ADA6 		.ascii	"\335\245\255\246\034.\271\322\246Y\034\376$-nq~\342"
ARM GAS  /tmp/ccZcvrAT.s 			page 29


 372      1C2EB9D2 
 372      A6591CFE 
 372      242D6E71 
 372      7EE2
 373 10ee 6B01B79A 		.ascii	"k\001\267\232\015/zE\242\353\320Gc\275\323\322\214w"
 373      0D2F7A45 
 373      A2EBD047 
 373      63BDD3D2 
 373      8C77
 374 1100 D93FB0E1 		.ascii	"\331?\260\341\265l\253Fk\01110\235\325Z\2723$\272\253"
 374      B56CAB46 
 374      6B093130 
 374      9DD55ABA 
 374      3324BAAB 
 375 1114 29E85684 		.ascii	")\350V\204g7\253_2v\016(\340s\223\232\211\204\3475\023"
 375      6737AB5F 
 375      32760E28 
 375      E073939A 
 375      8984E735 
 376 1129 33B38BA6 		.ascii	"3\263\213\246\301\034*\260z\022\354\032\015X\234\025"
 376      C11C2AB0 
 376      7A12EC1A 
 376      0D589C15 
 377 1139 C63A12EC 		.ascii	"\306:\022\354\256i05\263M$X\345C\024`qn2\333B\202M6"
 377      AE693035 
 377      B34D2458 
 377      E5431460 
 377      716E32DB 
 378 1151 0DA666B6 		.ascii	"\015\246f\266\203\004\233J\003\246\267\257\247\367!"
 378      83049B4A 
 378      03A6B7AF 
 378      A7F721
 379 1160 4D8D67D7 		.ascii	"M\215g\327\330\360t\344#\033\236p|\014r=\310\215 7\203"
 379      D8F074E4 
 379      231B9E70 
 379      7C0C723D 
 379      C88D2037 
 380 1175 6C04B9D5 		.ascii	"l\004\271\325\246\232\341\275\007\234V\3068\251M:\221"
 380      A69AE1BD 
 380      079C56C6 
 380      38A94D3A 
 380      91
 381 1186 8989E19A 		.ascii	"\211\211\341\232\221\270\201\322\210\231C\005f\270\271"
 381      91B881D2 
 381      88994305 
 381      66B8B9
 382 1195 2686E710 		.ascii	"&\206\347\020`\213\250\300\014\257\005\211\341\265\004"
 382      608BA8C0 
 382      0CAF0589 
 382      E1B504
 383 11a4 D80A2A30 		.ascii	"\330\012*0\303\333K\305\360'\004\330j*0\2771\263\313"
 383      C3DB4BC5 
 383      F02704D8 
 383      6A2A30BF 
 383      31B3CB
 384 11b7 04D8062A 		.ascii	"\004\330\006*\260\267Y\035j\204-HV\260\012\254\340}"
 384      B0B7591D 
ARM GAS  /tmp/ccZcvrAT.s 			page 30


 384      6A842D48 
 384      56B00AAC 
 384      E07D
 385 11c9 E8E71D20 		.ascii	"\350\347\035 \303 w\203\334\003r\237\272\377\267>\244"
 385      C3207783 
 385      DC03729F 
 385      BAFFB73E 
 385      A4
 386 11da 8D409263 		.ascii	"\215@\222c%\260c\036\2301\213\2767\212n\354\340\017"
 386      25B0631E 
 386      98318BBE 
 386      378A6EEC 
 386      E00F
 387 11ec A220F46F 		.ascii	"\242 \364o\314\211\207\026\212\322\010\037\300\254\027"
 387      CC898716 
 387      8AD2081F 
 387      C0AC17
 388 11fb DF0EBFCE 		.ascii	"\337\016\277\316\263\313\240^\\\237\224\345\227T&\231"
 388      B3CBA05E 
 388      5C9F94E5 
 388      97542699 
 389 120b B91C021B 		.ascii	"\271\034\002\033\336\021\217q\262\315G\303\243d\374"
 389      DE118F71 
 389      B2CD47C3 
 389      A364FC
 390 121a F2CF8F6E 		.ascii	"\362\317\217n\340 )\215\0049k\322\222\326\006\273<,"
 390      E020298D 
 390      04396BD2 
 390      92D606BB 
 390      3C2C
 391 122c E4AC7634 		.ascii	"\344\254v4\023\220F\210\234!^d\345\301\242d\204\237"
 391      13904688 
 391      9C215E64 
 391      E5C1A264 
 391      849F
 392 123e 62E4861B 		.ascii	"b\344\206\033\323\021\331\270\\\244\200\255\342\322"
 392      D311D9B8 
 392      5CA480AD 
 392      E2D2
 393 124c FA41EB07 		.ascii	"\372A\353\00765\227\016-\027F\315\004~\207\343\362`"
 393      3635970E 
 393      2D1746CD 
 393      047E87E3 
 393      F260
 394 125e 92A0519D 		.ascii	"\222\240Q\235\014\215\335\2778\215\244\264\261\347\227"
 394      0C8DDDBF 
 394      388DA4B4 
 394      B1E797
 395 126d A5919B04 		.ascii	"\245\221\233\004\205}\277,\005\3064\205N\217\015\343"
 395      857DBF2C 
 395      05C63485 
 395      4E8F0DE3 
 396 127d 99B1D15C 		.ascii	"\231\261\321\\\366s[t\275\2519\013\317r\215\316:\032"
 396      F6735B74 
 396      BDA9390B 
 396      CF728DCE 
 396      3A1A
ARM GAS  /tmp/ccZcvrAT.s 			page 31


 397 128f 3B4B7E3D 		.ascii	";K~=q\274\267\200\"\235\300\"9\321\213:a^5\201\372\035"
 397      71BCB780 
 397      229DC022 
 397      39D18B3A 
 397      615E3581 
 398 12a5 A8D0DFB0 		.ascii	"\250\320\337\260\356\376\214|5\"\223\233Y\344+\0212"
 398      EEFE8C7C 
 398      3522939B 
 398      59E42B11 
 398      32
 399 12b6 DD3ECFF8 		.ascii	"\335>\317\370L\21706\323]\344\035\355\365\0053C\201"
 399      4C8F3036 
 399      D35DE41D 
 399      EDF50533 
 399      4381
 400 12c8 B2D23732 		.ascii	"\262\32272Q\242\210/\316\364\373\002\241`f\301\250\341"
 400      51A2882F 
 400      CEF4FB02 
 400      A16066C1 
 400      A8E1
 401 12da FDFB650E 		.ascii	"\375\373e\016\033\226\223\371r~\336\310\261\3752\375"
 401      1B9693F9 
 401      727EDEC8 
 401      B1FD32FD 
 402 12ea 7CB1ABB8 		.ascii	"|\261\253\270\330\323\247\210\311\010\206J\372\367s"
 402      D8D3A788 
 402      C908864A 
 402      FAF773
 403 12f9 8DF17B7D 		.ascii	"\215\361{}\256\220\375\345\021\2578\262\231\3073\313"
 403      AE90FDE5 
 403      11AF38B2 
 403      99C733CB 
 404 1309 82814C3E 		.ascii	"\202\201L>P\362L\251\257TxF\340G{3\275\245\356\3422"
 404      50F24CA9 
 404      AF547846 
 404      E0477B33 
 404      BDA5EEE2 
 405 131e 8F90190C 		.ascii	"\217\220\031\014y\274\245!tbj\031\372Fg\206\006\304"
 405      79BCA521 
 405      74626A19 
 405      FA466786 
 405      06C4
 406 1330 295DC223 		.ascii	")]\302#V\245B\246\313#\024\362e\305!Wh\274_\010\242"
 406      56A542A6 
 406      CB2314F2 
 406      65C52157 
 406      68BC5F08 
 407 1345 B3BBB85C 		.ascii	"\263\273\270\\\312\371\266\341#sr\235\366\221\243^\313"
 407      CAF9B6E1 
 407      2373729D 
 407      F691A35E 
 407      CB
 408 1356 CF75A68C 		.ascii	"\317u\246\214,\310\317\315\315q\332\362_\311\317qZ\362"
 408      2CC8CFCD 
 408      CD71DAF2 
 408      5FC9CF71 
 408      5AF2
ARM GAS  /tmp/ccZcvrAT.s 			page 32


 409 1368 D03132C7 		.ascii	"\32012\307\311\376\011j\313z\326\025\222O\304IKP\010"
 409      C9FE096A 
 409      CB7AD615 
 409      924FC449 
 409      4B5008
 410 137b D9DCC502 		.ascii	"\331\334\305\002\037`\207Z\207\0248\235\326a\331\177"
 410      1F60875A 
 410      8714389D 
 410      D661D97F 
 411 138b 705A07BF 		.ascii	"pZ\007\277\344\034\206\305P\313\020\2473\325\353+\361"
 411      E41C86C5 
 411      50CB10A7 
 411      33D5EB2B 
 411      F1
 412 139c 7904548B 		.ascii	"y\004T\213k\210\317W\234:\332\307\007<}\334L\206\313"
 412      6B88CF57 
 412      9C3ADAC7 
 412      073C7DDC 
 412      4C86CB
 413 13af 85CE2B1E 		.ascii	"\205\316+\036\357\362\226zC\317\322h2\332\244\022\267"
 413      EFF2967A 
 413      43CFD268 
 413      32DAA412 
 413      B7
 414 13c0 2BE8F7A2 		.ascii	"+\350\367\2426\244\015\037\236\235\023\360\216\025\002"
 414      36A40D1F 
 414      9E9D13F0 
 414      8E1502
 415 13cf 19D1D41F 		.ascii	"\031\321\324\037\207\217J\367\006\021jP\010\204\004"
 415      878F4AF7 
 415      06116A50 
 415      088404
 416 13de 4F064AFB 		.ascii	"O\006J\373\003\276\220\340F?R\334\276\322R\224\352\342"
 416      03BE90E0 
 416      463F52DC 
 416      BED25294 
 416      EAE2
 417 13f0 F106E564 		.ascii	"\361\006\345d\012n\313@W(Mj\025JY\003\002\357\261\215"
 417      0A6ECB40 
 417      57284D6A 
 417      154A5903 
 417      02EFB18D 
 418 1404 0B784382 		.ascii	"\013xC\20258\276\324\375;3\334P\332\345\365\215.\366"
 418      3538BED4 
 418      FD3B33DC 
 418      50DAE5F5 
 418      8D2EF6
 419 1417 B9DF40FC 		.ascii	"\271\337@\374\272\015\301\211\034a\254\327-\344\225"
 419      BA0DC189 
 419      1C61ACD7 
 419      2DE495
 420 1426 16FA5247 		.ascii	"\026\372RG\027\277\341\012z\337\024Rp\242\264\254$u"
 420      17BFE10A 
 420      7ADF1452 
 420      70A2B4AC 
 420      2475
 421 1438 8C104254 		.ascii	"\214\020BT\013}\226\261%\241.(3\030\342CHW]\206\014"
ARM GAS  /tmp/ccZcvrAT.s 			page 33


 421      0B7D96B1 
 421      25A12E28 
 421      3318E243 
 421      48575D86 
 422 144d FB83EB95 		.ascii	"\373\203\353\225\021y#\362F\245\342d\301\250\221\371"
 422      117923F2 
 422      46A5E264 
 422      C1A891F9 
 423 145d 9037387B 		.ascii	"\22078{T\336\037s\273\342d\366\310\021#r\321\317\021"
 423      54DE1F73 
 423      BBE264F6 
 423      C8112372 
 423      D1CF11
 424 1470 2FF7C03F 		.ascii	"/\367\300?s\362\012b9i8\307\231;8\347\265t%\205r!\375"
 424      73F20A62 
 424      396938C7 
 424      993B38E7 
 424      B5742585 
 425 1487 2767DE28 		.ascii	"'g\336(%]\360\332\210l\224\266A\255\026\267\327cq\007"
 425      255DF0DA 
 425      886C94B6 
 425      41AD16B7 
 425      D7637107 
 426 149b 3DA96EDE 		.ascii	"=\251n\336\317\273\275\241\3619\311\230wA~\336\330\254"
 426      CFBBBDA1 
 426      F139C998 
 426      77417EDE 
 426      D8AC
 427 14ad 4CD43DB2 		.ascii	"L\324=\262u\247\241\014\251c\372\231\321\243\324\277"
 427      75A7A10C 
 427      A963FA99 
 427      D1A3D4BF 
 428 14bd 5DD097A2 		.ascii	"]\320\227\242\021\204\243h\004'\261F0\266\324J\370W"
 428      1184A368 
 428      0427B146 
 428      30B6D44A 
 428      F857
 429 14cf D24D064E 		.ascii	"\322M\006Nf\217\034\236?,wT\356\003\010\300\315\027"
 429      668F1C9E 
 429      3F2C7754 
 429      EE0308C0 
 429      CD17
 430 14e1 178FE6DD 		.ascii	"\027\217\346\335o\240\301%\224z\\\356\321]\274>\314"
 430      6FA0C125 
 430      947A5CEE 
 430      D15DBC3E 
 430      CC
 431 14f2 DAEB4139 		.ascii	"\332\353A9\301 N\332\320\027\217\032\037\310\302\220"
 431      C1204EDA 
 431      D0178F1A 
 431      1FC8C290 
 432 1502 D9BED242 		.ascii	"\331\276\322B\357\030\273\033\276\006&b\035\010EI\273"
 432      EF18BB1B 
 432      BE062662 
 432      1D084549 
 432      BB
 433 1513 8B82E383 		.ascii	"\213\202\343\203\312\370J\015\025aCB\226\345.rI\351"
ARM GAS  /tmp/ccZcvrAT.s 			page 34


 433      CAF84A0D 
 433      15614342 
 433      96E52E72 
 433      49E9
 434 1525 01E6B0DC 		.ascii	"\001\346\260\334EX\201v\277\253T(\017\241/\177@\030"
 434      45588176 
 434      BFAB5428 
 434      0FA12F7F 
 434      4018
 435 1537 3B940242 		.ascii	";\224\002B\352\222\301\316\341\331\303\313Q\311\022"
 435      EA92C1CE 
 435      E1D9C3CB 
 435      51C912
 436 1546 BFB75808 		.ascii	"\277\267X\010\0043_\316\316F\305\025z)!\177\000\034"
 436      04335FCE 
 436      CE46C515 
 436      7A29217F 
 436      001C
 437 1558 0EC6F5FA 		.ascii	"\016\306\365\372\360\310\010\241j\2367\215_\344\366"
 437      F0C808A1 
 437      6A9E378D 
 437      5FE4F6
 438 1567 05040498 		.ascii	"\005\004\004\230\216\263\221-\207\334\241\362\377N\016"
 438      8EB3912D 
 438      87DCA1F2 
 438      FF4E0E
 439 1576 C535F6B9 		.ascii	"\3055\366\271\022\254\271\2000\00693\354^\262\236E\307"
 439      12ACB980 
 439      30063933 
 439      EC5EB29E 
 439      45C7
 440 1588 73E81888 		.ascii	"s\350\030\210\216\347-\301~}\321\221\205\216~\350\350"
 440      8EE72DC1 
 440      7E7DD191 
 440      858E7EE8 
 440      E8
 441 1599 8F8E01E8 		.ascii	"\217\216\001\350\370-:P\271~\250\\?T\256\037*\327\037"
 441      F82D3A50 
 441      B97EA85C 
 441      3F54AE1F 
 441      2AD71F
 442 15ac 95EB9FC5 		.ascii	"\225\353\237\305\005\006p\201\337r\201g\271\300s\\`"
 442      05067081 
 442      DF728167 
 442      B9C0735C 
 442      60
 443 15bd 201778DE 		.ascii	" \027x\336\022\310\352\213\216,\2568\200\276\372\333"
 443      12C8EA8B 
 443      8E2CAE38 
 443      80BEFADB 
 444 15cd FC2EC436 		.ascii	"\374.\3046\005kx\234\020@\337\276b\217\020\260\272\213"
 444      056B789C 
 444      1040DFBE 
 444      628F10B0 
 444      BA8B
 445 15df F800563B 		.ascii	"\370\000V;_\"\244\206d\373C\177B*%$y3\364\273\260\230"
 445      5F22A486 
ARM GAS  /tmp/ccZcvrAT.s 			page 35


 445      64FB437F 
 445      422A2524 
 445      7933F4BB 
 446 15f5 1F134C09 		.ascii	"\037\023L\011\005\204\302 \350\021'l%\3011\350O\331"
 446      0584C220 
 446      E811276C 
 446      25C131E8 
 446      4FD9
 447 1607 B122A722 		.ascii	"\261\"\247\"\247\354\001\317x\364W\252P\356\015!\265"
 447      A7EC01CF 
 447      78F457AA 
 447      50EE0D21 
 447      B5
 448 1618 08F67121 		.ascii	"\010\366q!\337\350?\373\323\205\261Bi\250\204\017\202"
 448      DFE83FFB 
 448      D385B142 
 448      69A8840F 
 448      82
 449 1629 758EC309 		.ascii	"u\216\303\011\213\337U\326U\262\227\240\253\030\231"
 449      8BDF55D6 
 449      55B297A0 
 449      AB1899
 450 1638 BF2BD42D 		.ascii	"\277+\324-jARN\232\3375\216\367\206\274\245c\272)\331"
 450      6A41524E 
 450      9ADF358E 
 450      F786BCA5 
 450      63BA29D9 
 451 164c 7F2913CA 		.ascii	"\177)\023\312\020\253\356DI\310\352\342w\241j!i\203"
 451      10ABEE44 
 451      49C8EAE2 
 451      77A16A21 
 451      6983
 452 165e 24CA10FC 		.ascii	"$\312\020\374h\034\240\223m%e\250\313\373\2332\312\222"
 452      681CA093 
 452      6D2565A8 
 452      CBFB9B32 
 452      CA92
 453 1670 5039369E 		.ascii	"P96\236\022\011\035}\373\306\225\"\315\001\022jB\011"
 453      12091D7D 
 453      FBC69522 
 453      CD01126A 
 453      4209
 454 1682 D82AE287 		.ascii	"\330*\342\207\312a\246]\260V\370b\2600\224\351G\001"
 454      CA61A65D 
 454      B056F862 
 454      B03094E9 
 454      4701
 455 1694 E03953F5 		.ascii	"\3409S\365\311\215Au\366\224\307\023\322\262\020\020"
 455      C98D4175 
 455      F694C713 
 455      D2B21010 
 456 16a4 4ADDA8B5 		.ascii	"J\335\250\265v)\353\367\211\020\021\245\314\354\341"
 456      7629EBF7 
 456      891011A5 
 456      CCECE1
 457 16b3 057905C8 		.ascii	"\005y\005\310OeB\264-\034\3207\253\034\254\026{\213"
 457      4F6542B4 
ARM GAS  /tmp/ccZcvrAT.s 			page 36


 457      2D1CD037 
 457      AB1CAC16 
 457      7B8B
 458 16c5 51684CE4 		.ascii	"QhL\344\010\205\226lg\026:\372q\005N\016\305\277lgv"
 458      0885966C 
 458      67163AFA 
 458      71054E0E 
 458      C5BF6C67 
 459 16da BED3EE7C 		.ascii	"\276\323\356|\025};\355\243\340+%\257_A\366K/;m\350"
 459      157D3BED 
 459      A3E02B25 
 459      AF5F41F6 
 459      4B2F3B6D 
 460 16ef 3BDF6941 		.ascii	";\337iA\316\345%\263>\022\344K\003\312\313%\".O\011"
 460      CEE525B3 
 460      3E12E44B 
 460      03CACB25 
 460      222E4F09 
 461 1703 8F1B9733 		.ascii	"\217\033\2273|\260\253\000\231\022_\242\260\341\262"
 461      7CB0AB00 
 461      99125FA2 
 461      B0E1B2
 462 1712 9DD61139 		.ascii	"\235\326\0219\243\234\226\374\301N\353\360\276Xd\015"
 462      A39C96FC 
 462      C14EEBF0 
 462      BE58640D 
 463 1722 765A5E42 		.ascii	"vZ^Bd\202P\320\352-t\007\354\336`\221\2670\224\026\024"
 463      648250D0 
 463      EA2D7407 
 463      ECDE6091 
 463      B7309416 
 464 1737 8A0BBDA5 		.ascii	"\212\013\275\245\036\241\334>\026\0055_\240g\024\335"
 464      1EA1DC3E 
 464      1605355F 
 464      A06714DD 
 465 1747 259546F1 		.ascii	"%\225F\361\027\375\010\224c\031*O\013\224\243ol\311"
 465      17FD0894 
 465      63192A4F 
 465      0B94A36F 
 465      6CC9
 466 1759 69212565 		.ascii	"i!%eE\315\361\333\212\203\356\3021\266\",qt\225|a7\010"
 466      45CDF1DB 
 466      8A83EEC2 
 466      31B6222C 
 466      7174957C 
 467 1770 682EDEE3 		.ascii	"h.\336\343\011\010\301\240\020\354\205C0\362\357.\024"
 467      0908C1A0 
 467      10EC8543 
 467      30F2EF2E 
 467      14
 468 1781 5CDD289C 		.ascii	"\\\335(\234G\243\255\025\375\341\177\204\370\027\302"
 468      47A3AD15 
 468      FDE17F84 
 468      F817C2
 469 1790 682C00A7 		.ascii	"h,\000\247A\364\317C\021\277+\244\012\204\320\220\262"
 469      41F4CF43 
 469      11BF2BA4 
ARM GAS  /tmp/ccZcvrAT.s 			page 37


 469      0A84D090 
 469      B2
 470 17a1 37DF1402 		.ascii	"7\337\024\002\234\2574]\311\031\226\233c:\364\304\324"
 470      9CAF345D 
 470      C919969B 
 470      633AF4C4 
 470      D4
 471 17b2 5A149D58 		.ascii	"Z\024\235Xu\227t\340\006\356x\226\221!9~i\270=\354\222"
 471      759774E0 
 471      06EE7896 
 471      9121397E 
 471      69B83DEC 
 472 17c7 A7602E34 		.ascii	"\247`.4\211\031\023\360\225"
 472      891913F0 
 472      95
 473 17d0 F9B1127A 		.ascii	"\371\261\022z\022\2231\224_\346Gz\303\371\001\273\017"
 473      12933194 
 473      5FE6477A 
 473      C3F901BB 
 473      0F
 474 17e1 7BCE408A 		.ascii	"{\316@\212/\350\027\004O\300\346/\363{\002\026\237'"
 474      2FE81704 
 474      4FC0E62F 
 474      F37B0216 
 474      9F27
 475 17f3 60E50B03 		.ascii	"`\345\013\003\305X\024\331\363\007\347\360!\336\236"
 475      C55814D9 
 475      F307E7F0 
 475      21DE9E
 476 1802 3F44FACA 		.ascii	"?D\372\312\226\276r\244\257\\\351k(\376J\313\037<L\322"
 476      96BE72A4 
 476      AF5CE96B 
 476      28FE4ACB 
 476      1F3C4CD2 
 477 1816 6C4F4C42 		.ascii	"lOLB\231\232I\021\347\221>\001\237\007\025\352\323\371"
 477      999A4911 
 477      E7913E01 
 477      9F0715EA 
 477      D3F9
 478 1828 AFFF07C4 		.ascii	"\257\377\007\304(d\225"
 478      286495
 479              		.text
 480              		.section	.gnu.lto_.symtab.c2aeebe24eb6f644,"",%progbits
 481 0000 5F5F6561 		.ascii	"__early_init\000\000\000\000\000\000\000\000\000\000"
 481      726C795F 
 481      696E6974 
 481      00000000 
 481      00000000 
 482 0016 0000DE00 		.ascii	"\000\000\336\000\000\000mmc_lld_is_card_inserted\000"
 482      00006D6D 
 482      635F6C6C 
 482      645F6973 
 482      5F636172 
 483 0035 00000000 		.ascii	"\000\000\000\000\000\000\000\000\000\000\000\342\000"
 483      00000000 
 483      000000E2 
 483      00
ARM GAS  /tmp/ccZcvrAT.s 			page 38


 484 0042 00006D6D 		.ascii	"\000\000mmc_lld_is_write_protected\000\000\000\000\000"
 484      635F6C6C 
 484      645F6973 
 484      5F777269 
 484      74655F70 
 485 0063 00000000 		.ascii	"\000\000\000\000\000\000\000\206\002\000\000boardIn"
 485      00000086 
 485      02000062 
 485      6F617264 
 485      496E
 486 0075 69740000 		.ascii	"it\000\000\000\000\000\000\000\000\000\000\000\000\212"
 486      00000000 
 486      00000000 
 486      00008A
 487 0084 02000062 		.ascii	"\002\000\000boardSetBuzzer\000\000\000\000\000\000\000"
 487      6F617264 
 487      53657442 
 487      757A7A65 
 487      72000000 
 488 009c 00000000 		.ascii	"\000\000\000\000\000\215\002\000\000boardSetLED\000"
 488      008D0200 
 488      00626F61 
 488      72645365 
 488      744C4544 
 489 00b1 00000000 		.ascii	"\000\000\000\000\000\000\000\000\000\000\000\224\002"
 489      00000000 
 489      00000094 
 489      02
 490 00be 00007061 		.ascii	"\000\000pal_default_config\000\000\000\000\000\000\000"
 490      6C5F6465 
 490      6661756C 
 490      745F636F 
 490      6E666967 
 491 00d9 00000000 		.ascii	"\000\000\000\000\000\243\002\000\000stm32_clock_ini"
 491      00A30200 
 491      0073746D 
 491      33325F63 
 491      6C6F636B 
 492 00f1 74000002 		.ascii	"t\000\000\002\000\000\000\000\000\000\000\000\000\230"
 492      00000000 
 492      00000000 
 492      0098
 493 00ff 0200005F 		.ascii	"\002\000\000_pal_lld_setgroupmode\000\000\002\000\000"
 493      70616C5F 
 493      6C6C645F 
 493      73657467 
 493      726F7570 
 494 011c 00000000 		.ascii	"\000\000\000\000\000\000\000\232\002\000\000"
 494      0000009A 
 494      020000
 495              		.text
 496              		.section	.gnu.lto_.opts,"",%progbits
 497 0000 272D6D63 		.ascii	"'-mcpu=cortex-m4' '-mfloat-abi=hard' '-mfpu=fpv4-sp"
 497      70753D63 
 497      6F727465 
 497      782D6D34 
 497      2720272D 
ARM GAS  /tmp/ccZcvrAT.s 			page 39


 498 0033 2D643136 		.ascii	"-d16' '-mno-thumb-interwork' '-mthumb' '-O2' '-fomi"
 498      2720272D 
 498      6D6E6F2D 
 498      7468756D 
 498      622D696E 
 499 0066 742D6672 		.ascii	"t-frame-pointer' '-falign-functions=16' '-ffunction"
 499      616D652D 
 499      706F696E 
 499      74657227 
 499      20272D66 
 500 0099 2D736563 		.ascii	"-sections' '-fdata-sections' '-fno-common' '-flto' "
 500      74696F6E 
 500      73272027 
 500      2D666461 
 500      74612D73 
 501 00cc 272D6673 		.ascii	"'-fsingle-precision-constant'\000"
 501      696E676C 
 501      652D7072 
 501      65636973 
 501      696F6E2D 
 502              		.text
 503              		.section	.text.__early_init,"ax",%progbits
 504              		.align	2
 505              		.p2align 4,,15
 506              		.global	__early_init
 507              		.thumb
 508              		.thumb_func
 509              		.type	__early_init, %function
 510              	__early_init:
 511              		@ args = 0, pretend = 0, frame = 0
 512              		@ frame_needed = 0, uses_anonymous_args = 0
 513              		@ link register save eliminated.
 514 0000 FFF7FEBF 		b	stm32_clock_init
 515              		.size	__early_init, .-__early_init
 516 0004 AFF30080 		.section	.text.mmc_lld_is_card_inserted,"ax",%progbits
 516      AFF30080 
 516      AFF30080 
 517              		.align	2
 518              		.p2align 4,,15
 519              		.global	mmc_lld_is_card_inserted
 520              		.thumb
 521              		.thumb_func
 522              		.type	mmc_lld_is_card_inserted, %function
 523              	mmc_lld_is_card_inserted:
 524              		@ args = 0, pretend = 0, frame = 0
 525              		@ frame_needed = 0, uses_anonymous_args = 0
 526              		@ link register save eliminated.
 527 0000 0120     		movs	r0, #1
 528 0002 7047     		bx	lr
 529              		.size	mmc_lld_is_card_inserted, .-mmc_lld_is_card_inserted
 530 0004 AFF30080 		.section	.text.mmc_lld_is_write_protected,"ax",%progbits
 530      AFF30080 
 530      AFF30080 
 531              		.align	2
 532              		.p2align 4,,15
 533              		.global	mmc_lld_is_write_protected
 534              		.thumb
ARM GAS  /tmp/ccZcvrAT.s 			page 40


 535              		.thumb_func
 536              		.type	mmc_lld_is_write_protected, %function
 537              	mmc_lld_is_write_protected:
 538              		@ args = 0, pretend = 0, frame = 0
 539              		@ frame_needed = 0, uses_anonymous_args = 0
 540              		@ link register save eliminated.
 541 0000 0020     		movs	r0, #0
 542 0002 7047     		bx	lr
 543              		.size	mmc_lld_is_write_protected, .-mmc_lld_is_write_protected
 544 0004 AFF30080 		.section	.text.boardInit,"ax",%progbits
 544      AFF30080 
 544      AFF30080 
 545              		.align	2
 546              		.p2align 4,,15
 547              		.global	boardInit
 548              		.thumb
 549              		.thumb_func
 550              		.type	boardInit, %function
 551              	boardInit:
 552              		@ args = 0, pretend = 0, frame = 0
 553              		@ frame_needed = 0, uses_anonymous_args = 0
 554 0000 70B5     		push	{r4, r5, r6, lr}
 555 0002 354E     		ldr	r6, .L5
 556 0004 354D     		ldr	r5, .L5+4
 557 0006 364C     		ldr	r4, .L5+8
 558 0008 3046     		mov	r0, r6
 559 000a 4021     		movs	r1, #64
 560 000c 40F20242 		movw	r2, #1026
 561 0010 FFF7FEFF 		bl	_pal_lld_setgroupmode
 562 0014 3046     		mov	r0, r6
 563 0016 8021     		movs	r1, #128
 564 0018 40F20242 		movw	r2, #1026
 565 001c FFF7FEFF 		bl	_pal_lld_setgroupmode
 566 0020 2846     		mov	r0, r5
 567 0022 4021     		movs	r1, #64
 568 0024 40F28232 		movw	r2, #898
 569 0028 FFF7FEFF 		bl	_pal_lld_setgroupmode
 570 002c 2846     		mov	r0, r5
 571 002e 8021     		movs	r1, #128
 572 0030 40F28232 		movw	r2, #898
 573 0034 FFF7FEFF 		bl	_pal_lld_setgroupmode
 574 0038 2046     		mov	r0, r4
 575 003a 0421     		movs	r1, #4
 576 003c 40F28232 		movw	r2, #898
 577 0040 FFF7FEFF 		bl	_pal_lld_setgroupmode
 578 0044 2046     		mov	r0, r4
 579 0046 0821     		movs	r1, #8
 580 0048 40F28232 		movw	r2, #898
 581 004c FFF7FEFF 		bl	_pal_lld_setgroupmode
 582 0050 2846     		mov	r0, r5
 583 0052 8021     		movs	r1, #128
 584 0054 40F20222 		movw	r2, #514
 585 0058 FFF7FEFF 		bl	_pal_lld_setgroupmode
 586 005c 2846     		mov	r0, r5
 587 005e 4021     		movs	r1, #64
 588 0060 40F20222 		movw	r2, #514
 589 0064 FFF7FEFF 		bl	_pal_lld_setgroupmode
ARM GAS  /tmp/ccZcvrAT.s 			page 41


 590 0068 3046     		mov	r0, r6
 591 006a 4FF40071 		mov	r1, #512
 592 006e 40F20222 		movw	r2, #514
 593 0072 FFF7FEFF 		bl	_pal_lld_setgroupmode
 594 0076 2046     		mov	r0, r4
 595 0078 4FF48071 		mov	r1, #256
 596 007c 40F20222 		movw	r2, #514
 597 0080 FFF7FEFF 		bl	_pal_lld_setgroupmode
 598 0084 2846     		mov	r0, r5
 599 0086 0821     		movs	r1, #8
 600 0088 1922     		movs	r2, #25
 601 008a FFF7FEFF 		bl	_pal_lld_setgroupmode
 602 008e 2846     		mov	r0, r5
 603 0090 2021     		movs	r1, #32
 604 0092 1922     		movs	r2, #25
 605 0094 FFF7FEFF 		bl	_pal_lld_setgroupmode
 606 0098 3046     		mov	r0, r6
 607 009a 4FF48061 		mov	r1, #1024
 608 009e 1922     		movs	r2, #25
 609 00a0 FFF7FEFF 		bl	_pal_lld_setgroupmode
 610 00a4 0F48     		ldr	r0, .L5+12
 611 00a6 0421     		movs	r1, #4
 612 00a8 2022     		movs	r2, #32
 613 00aa FFF7FEFF 		bl	_pal_lld_setgroupmode
 614 00ae 2046     		mov	r0, r4
 615 00b0 2021     		movs	r1, #32
 616 00b2 40F29A22 		movw	r2, #666
 617 00b6 FFF7FEFF 		bl	_pal_lld_setgroupmode
 618 00ba 2046     		mov	r0, r4
 619 00bc 8021     		movs	r1, #128
 620 00be 40F29A22 		movw	r2, #666
 621 00c2 FFF7FEFF 		bl	_pal_lld_setgroupmode
 622 00c6 2046     		mov	r0, r4
 623 00c8 4021     		movs	r1, #64
 624 00ca 40F28222 		movw	r2, #642
 625 00ce BDE87040 		pop	{r4, r5, r6, lr}
 626 00d2 FFF7FEBF 		b	_pal_lld_setgroupmode
 627              	.L6:
 628 00d6 00BF     		.align	2
 629              	.L5:
 630 00d8 00080240 		.word	1073874944
 631 00dc 00040240 		.word	1073873920
 632 00e0 00000240 		.word	1073872896
 633 00e4 000C0240 		.word	1073875968
 634              		.size	boardInit, .-boardInit
 635 00e8 AFF30080 		.section	.text.boardSetBuzzer,"ax",%progbits
 635      AFF30080 
 636              		.align	2
 637              		.p2align 4,,15
 638              		.global	boardSetBuzzer
 639              		.thumb
 640              		.thumb_func
 641              		.type	boardSetBuzzer, %function
 642              	boardSetBuzzer:
 643              		@ args = 0, pretend = 0, frame = 0
 644              		@ frame_needed = 0, uses_anonymous_args = 0
 645              		@ link register save eliminated.
ARM GAS  /tmp/ccZcvrAT.s 			page 42


 646 0000 034B     		ldr	r3, .L12
 647 0002 0822     		movs	r2, #8
 648 0004 08B9     		cbnz	r0, .L11
 649 0006 5A83     		strh	r2, [r3, #26]	@ movhi
 650 0008 7047     		bx	lr
 651              	.L11:
 652 000a 1A83     		strh	r2, [r3, #24]	@ movhi
 653 000c 7047     		bx	lr
 654              	.L13:
 655 000e 00BF     		.align	2
 656              	.L12:
 657 0010 00040240 		.word	1073873920
 658              		.size	boardSetBuzzer, .-boardSetBuzzer
 659 0014 AFF30080 		.section	.text.boardSetLED,"ax",%progbits
 659      AFF30080 
 659      AFF30080 
 660              		.align	2
 661              		.p2align 4,,15
 662              		.global	boardSetLED
 663              		.thumb
 664              		.thumb_func
 665              		.type	boardSetLED, %function
 666              	boardSetLED:
 667              		@ args = 0, pretend = 0, frame = 0
 668              		@ frame_needed = 0, uses_anonymous_args = 0
 669              		@ link register save eliminated.
 670 0000 034B     		ldr	r3, .L18
 671 0002 2022     		movs	r2, #32
 672 0004 08B9     		cbnz	r0, .L17
 673 0006 5A83     		strh	r2, [r3, #26]	@ movhi
 674 0008 7047     		bx	lr
 675              	.L17:
 676 000a 1A83     		strh	r2, [r3, #24]	@ movhi
 677 000c 7047     		bx	lr
 678              	.L19:
 679 000e 00BF     		.align	2
 680              	.L18:
 681 0010 00040240 		.word	1073873920
 682              		.size	boardSetLED, .-boardSetLED
 683              		.global	pal_default_config
 684 0014 AFF30080 		.section	.rodata.pal_default_config,"a",%progbits
 684      AFF30080 
 684      AFF30080 
 685              		.align	2
 686              		.type	pal_default_config, %object
 687              		.size	pal_default_config, 168
 688              	pal_default_config:
 689 0000 A004802A 		.word	713032864
 690 0004 00000000 		.word	0
 691 0008 AFFBFFFF 		.word	-1105
 692 000c 05511564 		.word	1679118597
 693 0010 DFFF0000 		.word	65503
 694 0014 00770000 		.word	30464
 695 0018 00A00A00 		.word	696320
 696 001c 80000000 		.word	128
 697 0020 00000000 		.word	0
 698 0024 FFFFFFFF 		.word	-1
ARM GAS  /tmp/ccZcvrAT.s 			page 43


 699 0028 55555555 		.word	1431655765
 700 002c FFFF0000 		.word	65535
 701 0030 00000000 		.word	0
 702 0034 00000000 		.word	0
 703 0038 00000000 		.word	0
 704 003c 00000000 		.word	0
 705 0040 FFFFFFFF 		.word	-1
 706 0044 55555551 		.word	1364546901
 707 0048 FFFF0000 		.word	65535
 708 004c 00000000 		.word	0
 709 0050 00000000 		.word	0
 710 0054 00000000 		.word	0
 711 0058 00000000 		.word	0
 712 005c FFFFFFFF 		.word	-1
 713 0060 55555555 		.word	1431655765
 714 0064 FFFF0000 		.word	65535
 715 0068 00000000 		.word	0
 716 006c 00000000 		.word	0
 717 0070 00000000 		.word	0
 718 0074 00000000 		.word	0
 719 0078 FFFFFFFF 		.word	-1
 720 007c 45000000 		.word	69
 721 0080 FFFF0000 		.word	65535
 722 0084 00000000 		.word	0
 723 0088 00000000 		.word	0
 724 008c 00000000 		.word	0
 725 0090 00000000 		.word	0
 726 0094 FFFFFFFF 		.word	-1
 727 0098 00000000 		.word	0
 728 009c FFFF0000 		.word	65535
 729 00a0 00000000 		.word	0
 730 00a4 00000000 		.word	0
 731              		.comm	__gnu_lto_v1,1,1
 732              		.ident	"GCC: (GNU Tools for ARM Embedded Processors) 4.8.4 20140526 (release) [ARM/embedded-4_8-br
ARM GAS  /tmp/ccZcvrAT.s 			page 44


DEFINED SYMBOLS
                            *ABS*:0000000000000000 board.c
     /tmp/ccZcvrAT.s:504    .text.__early_init:0000000000000000 $t
     /tmp/ccZcvrAT.s:510    .text.__early_init:0000000000000000 __early_init
     /tmp/ccZcvrAT.s:517    .text.mmc_lld_is_card_inserted:0000000000000000 $t
     /tmp/ccZcvrAT.s:523    .text.mmc_lld_is_card_inserted:0000000000000000 mmc_lld_is_card_inserted
     /tmp/ccZcvrAT.s:531    .text.mmc_lld_is_write_protected:0000000000000000 $t
     /tmp/ccZcvrAT.s:537    .text.mmc_lld_is_write_protected:0000000000000000 mmc_lld_is_write_protected
     /tmp/ccZcvrAT.s:545    .text.boardInit:0000000000000000 $t
     /tmp/ccZcvrAT.s:551    .text.boardInit:0000000000000000 boardInit
     /tmp/ccZcvrAT.s:630    .text.boardInit:00000000000000d8 $d
     /tmp/ccZcvrAT.s:636    .text.boardSetBuzzer:0000000000000000 $t
     /tmp/ccZcvrAT.s:642    .text.boardSetBuzzer:0000000000000000 boardSetBuzzer
     /tmp/ccZcvrAT.s:657    .text.boardSetBuzzer:0000000000000010 $d
     /tmp/ccZcvrAT.s:660    .text.boardSetLED:0000000000000000 $t
     /tmp/ccZcvrAT.s:666    .text.boardSetLED:0000000000000000 boardSetLED
     /tmp/ccZcvrAT.s:681    .text.boardSetLED:0000000000000010 $d
     /tmp/ccZcvrAT.s:688    .rodata.pal_default_config:0000000000000000 pal_default_config
     /tmp/ccZcvrAT.s:685    .rodata.pal_default_config:0000000000000000 $d
                            *COM*:0000000000000001 __gnu_lto_v1
     /tmp/ccZcvrAT.s:635    .text.boardInit:00000000000000e8 $t
     /tmp/ccZcvrAT.s:659    .text.boardSetBuzzer:0000000000000014 $t
     /tmp/ccZcvrAT.s:684    .text.boardSetLED:0000000000000014 $t

UNDEFINED SYMBOLS
stm32_clock_init
_pal_lld_setgroupmode
