ARM GAS  /tmp/ccfDNcA4.s 			page 1


   1              		.syntax unified
   2              		.cpu cortex-m4
   3              		.eabi_attribute 27, 3
   4              		.eabi_attribute 28, 1
   5              		.fpu fpv4-sp-d16
   6              		.eabi_attribute 20, 1
   7              		.eabi_attribute 21, 1
   8              		.eabi_attribute 23, 3
   9              		.eabi_attribute 24, 1
  10              		.eabi_attribute 25, 1
  11              		.eabi_attribute 26, 1
  12              		.eabi_attribute 30, 2
  13              		.eabi_attribute 34, 1
  14              		.eabi_attribute 18, 4
  15              		.thumb
  16              		.file	"board.c"
  17              		.section	.gnu.lto_.jmpfuncs.fd75a0704f9ba4ec,"",%progbits
  18 0000 789C6362 		.ascii	"x\234cb`b\300\006f3Bh\026 f\004\252af`f\212`\314ddh"
  18      6062C006 
  18      66334268 
  18      16206604 
  18      AA616660 
  19 001b E8E86800 		.ascii	"\350\350h\000\012\2029\214\034P\006\223$\003\\\276\001"
  19      0A82398C 
  19      1C500693 
  19      24035CBE 
  19      01
  20 002c 9B7C133B 		.ascii	"\233|\023;v\005,\330\024 \333\320\300HH\205\0036\005"
  20      76052CD8 
  20      1420DBD0 
  20      C0484885 
  20      033605
  21 003f 13081A31 		.ascii	"\023\010\0321\201$#\004\340*Xq\250P\200\251\230\205"
  21      81242304 
  21      E02A5871 
  21      A85080A9 
  21      9885
  22 0051 4B050736 		.ascii	"K\005\0076\0253\260\005\206\002\366\300jh`B\012o\006"
  22      1533B005 
  22      8602F6C0 
  22      6A686042 
  22      0A6F06
  23 0064 004B763F 		.ascii	"\000Kv?X"
  23      58
  24              		.text
  25              		.section	.gnu.lto_.inline.fd75a0704f9ba4ec,"",%progbits
  26 0000 789C6362 		.ascii	"x\234cb`b\300\0066Bi\026 \342a\004+b[ \017V\313\310"
  26      6062C006 
  26      36426916 
  26      20E26104 
  26      2B625B20 
  27 0018 052218D8 		.ascii	"\005\"\030\330\331\200\302\034\007\354\340\342L\014"
  27      D980C21C 
  27      07ECE0E2 
  27      4C0C
  28 0026 CC4CA82A 		.ascii	"\314L\250*\231\031\214\3471\242\012\261\360\202\204"
  28      99198CE7 
ARM GAS  /tmp/ccfDNcA4.s 			page 2


  28      31A20AB1 
  28      F08284
  29 0035 69473300 		.ascii	"iG3\000\000k\264\006\335"
  29      006BB406 
  29      DD
  30              		.text
  31              		.section	.gnu.lto_.pureconst.fd75a0704f9ba4ec,"",%progbits
  32 0000 789C6362 		.ascii	"x\234cb`b\340d\200\000\026\006\011F)&\006f\011\000\002"
  32      6062E064 
  32      80001606 
  32      09462926 
  32      06660900 
  33 0015 780062   		.ascii	"x\000b"
  34              		.text
  35              		.section	.gnu.lto___early_init.fd75a0704f9ba4ec,"",%progbits
  36 0000 789C6362 		.ascii	"x\234cb`b@\007\222@\\\015\304\\@\314\310\314\300\310"
  36      60624007 
  36      92405C0D 
  36      C45C40CC 
  36      C8CCC0C8 
  37 0014 34E11C03 		.ascii	"4\341\034\003C#\007\023##\210\301\300\310P\317\304X"
  37      43230713 
  37      232388C1 
  37      C0C850CF 
  37      C458
  38 0026 1FC90856 		.ascii	"\037\311\010V\273\236\351\300\203\377\377\327m9\266"
  38      BB9EE9C0 
  38      83FFFFD7 
  38      6D39B6
  39 0035 600E2350 		.ascii	"`\016#P-\003\003+CKC\303\004\005\006\206d\260\202\020"
  39      2D03032B 
  39      434B43C3 
  39      04050686 
  39      64B08210 
  40 0049 2009D215 		.ascii	" \011\322\025\312\310\004\242\231\31734?\230\375\230"
  40      CAC804A2 
  40      99CF3334 
  40      3F98FD98 
  41 0059 2B917121 		.ascii	"+\221q!#+\330\232_\015\035\015\002\231\214@\345\020"
  41      232BD89A 
  41      5F0D1D0D 
  41      02998C40 
  41      E510
  42 006b 033341F4 		.ascii	"\0033A\364E\206\306\007s\224a\212  \004(\0014\001\344"
  42      4586C607 
  42      7394618A 
  42      20200428 
  42      013401E4 
  43 007f 5C8EA4FC 		.ascii	"\\\216\244\374\304\242\024\275d\006\000\372\352$k"
  43      C4A214BD 
  43      640600FA 
  43      EA246B
  44              		.text
  45              		.section	.gnu.lto_mmc_lld_is_card_inserted.fd75a0704f9ba4ec,"",%progbits
  46 0000 789C5D4F 		.ascii	"x\234]O-\213BQ\020=g\356\273\"\206\3556\273\340\257"
  46      2D8B4251 
  46      103D67EE 
ARM GAS  /tmp/ccfDNcA4.s 			page 3


  46      BB2286ED 
  46      36BBE0AF 
  47 0014 716137FA 		.ascii	"qa7\372\001b\022\374\003^\321`|qY\213[\015\012\326-"
  47      016212FC 
  47      035ED160 
  47      7C71598B 
  47      5B0D0AD6 
  48 0029 623129DA 		.ascii	"b1)\332D\014\376\012\261\351\314}<\203\003\347\314\300"
  48      440CFE0A 
  48      B1E9CC7D 
  48      3C8303E7 
  48      CCC0
  49 003b 998F3302 		.ascii	"\231\2173\002\301{\224\0257EIA\007J\272\007\206E!\255"
  49      C17B9415 
  49      37454941 
  49      074ABA07 
  49      864521AD 
  50 004f 0031100E 		.ascii	"\0001\020\016\276\031{\227\262\276>\036\213\325vv!\013"
  50      BE197B97 
  50      B2BE3E1E 
  50      8BD57676 
  50      210B
  51 0061 822EE18C 		.ascii	"\202.\341\214\022#\257dm\036\343\020\322\012\320\212"
  51      1223AF64 
  51      6D1EE310 
  51      D20AD08A 
  52 0071 437565DB 		.ascii	"Cue\333\364I\261\354v\330\234\357\267\003\033\374\243"
  52      F449B1EC 
  52      76D89CEF 
  52      B7031BFC 
  52      A3
  53 0082 478752C5 		.ascii	"G\207R\305<\214\331\245L\361\253\311})%\341g\022\022"
  53      3C8CD9A5 
  53      4CF1ABC9 
  53      7D2925E1 
  53      671212
  54 0095 C4325E6E 		.ascii	"\3042^n2\367\273\303h\341\362a\247\363\326\344%S\376"
  54      32F7BBC3 
  54      68E1F261 
  54      A7F3D6E4 
  54      2553FE
  55 00a8 5F4AD2C9 		.ascii	"_J\322\3116\201\231r\032}\344\222W5J\026G\274\234\370"
  55      36819972 
  55      1A7DE492 
  55      57354A16 
  55      47BC9CF8 
  56 00bc EC405DBF 		.ascii	"\354@]\277P\243\266\261\330\3545\372\355Z\013OI\316"
  56      50A3B6B1 
  56      D8EC35FA 
  56      ED5A0B4F 
  56      49CE
  57 00ce 3975     		.ascii	"9u"
  58              		.text
  59              		.section	.gnu.lto_mmc_lld_is_write_protected.fd75a0704f9ba4ec,"",%progbits
  60 0000 789C6362 		.ascii	"x\234cb`b@\007\222@\034\005\304\\@\314\310\314\300\310"
  60      60624007 
  60      92401C05 
ARM GAS  /tmp/ccfDNcA4.s 			page 4


  60      C45C40CC 
  60      C8CCC0C8 
  61 0014 34E11C03 		.ascii	"4\341\034\003C#\007\023##\210\301\300\310P\317\304X"
  61      43230713 
  61      232388C1 
  61      C0C850CF 
  61      C458
  62 0026 1FC90856 		.ascii	"\037\311\010V\273\236\351\300\203\377\377\327]:\276"
  62      BB9EE9C0 
  62      83FFFFD7 
  62      5D3ABE
  63 0035 E00D2323 		.ascii	"\340\015##\310(V\206\226\206\206\011\012\014\014\311"
  63      C8285686 
  63      96868609 
  63      0A0C0CC9 
  64 0045 60052140 		.ascii	"`\005!@\022\244+\024(\011\244\231/24>x\235\234\310\270"
  64      12A42B14 
  64      2809A499 
  64      2F32343E 
  64      789D9CC8 
  65 005a 90919521 		.ascii	"\220\221\225!\2021\223\021ni\010##H\001\310\010\216"
  65      82319311 
  65      6E690823 
  65      234801C8 
  65      088E
  66 006c A4FCC4A2 		.ascii	"\244\374\304\242\024\275d\006\000\204\244\035\000"
  66      14BD6406 
  66      0084A41D 
  66      00
  67              		.text
  68              		.section	.gnu.lto_boardInit.fd75a0704f9ba4ec,"",%progbits
  69 0000 789C6362 		.ascii	"x\234cb`b@\007\222@\354\307\314\300\300\005\244\031"
  69      60624007 
  69      9240ECC7 
  69      CCC0C005 
  69      A419
  70 0012 99191899 		.ascii	"\231\031\030\231&\234c`h\344`bd\0041\030\030\031\352"
  70      269C6360 
  70      68E46062 
  70      64043118 
  70      1819EA
  71 0025 9918EB23 		.ascii	"\231\030\353#\031\301j\3273\035x\360\377\377\272o\307"
  71      19C16AD7 
  71      331D78F0 
  71      FFFFBA6F 
  71      C7
  72 0036 17EC6464 		.ascii	"\027\354dd\342\003\012\2602\26444LP``H\006+\010\001"
  72      E2030AB0 
  72      32B43434 
  72      4C506060 
  72      48062B08 
  73 004b 92205DA1 		.ascii	"\222 ]\241\214L \232\371<C\333\203\277\213\031\023\031"
  73      8C4C209A 
  73      F93C43DB 
  73      83BF8B19 
  73      1319
  74 005d 1732B202 		.ascii	"\0272\262\002\245\253\031~5t4\010d2\002\225C\014\214"
ARM GAS  /tmp/ccfDNcA4.s 			page 5


  74      A5AB197E 
  74      35743408 
  74      64320295 
  74      430C8C
  75 0070 60CC6464 		.ascii	"`\314ddl\000\012\262\200\231L\015\015L`\006\263$C&#"
  75      6C000AB2 
  75      80994C0D 
  75      0D4C6006 
  75      B3244326 
  76 0085 0B0303D0 		.ascii	"\013\003\003\320\200\005\377\230\011\351\237\001\327"
  76      8005FF98 
  76      09E99F01 
  76      D7
  77 0092 0FA19815 		.ascii	"\017\241\230\025\020\272\377\023\324=\001a;\007D\373"
  77      10BAFF13 
  77      D43D0161 
  77      3B0744FB 
  78 00a2 2C5684FE 		.ascii	",V\204\376\016V\022\364+`\352\357$E\277\000D\177\023"
  78      0E5612F4 
  78      2B60EAEF 
  78      2445BF00 
  78      447F13
  79 00b5 92FE1E12 		.ascii	"\222\376\036\022\364;@\265\263#\264\367\222b=#\246\376"
  79      F43B40B5 
  79      B323B4F7 
  79      92623D23 
  79      A6FE
  80 00c7 3E82FA3B 		.ascii	">\202\372;\360Y\337O\202vl\326\317 \250\277\001=\356"
  80      F059DF4F 
  80      82766CD6 
  80      CF20A8BF 
  80      013DEE
  81 00da 91B5CF24 		.ascii	"\221\265\317$A;\007\246\366\035$\270\236\003%\335^d"
  81      413B07A6 
  81      F61D24B8 
  81      9E0325DD 
  81      5E64
  82 00ec 687CB053 		.ascii	"h|\260S\025\246\033\002B\200:\201\231\002\224\0039\222"
  82      15A61B02 
  82      42803A81 
  82      99029403 
  82      3992
  83 00fe F2138B52 		.ascii	"\362\023\213R\364\222\031\000\374\252\272\310"
  83      F4921900 
  83      FCAABAC8 
  84              		.text
  85              		.section	.gnu.lto_.symbol_nodes.fd75a0704f9ba4ec,"",%progbits
  86 0000 789C4DC9 		.ascii	"x\234M\311\273\021\0021\020\203a\255\214i\203Re0\334"
  86      BB110231 
  86      108361AD 
  86      8C698352 
  86      6530DC
  87 0013 1052C125 		.ascii	"\020R\301%W\212#\022j\200qJ\015<\006\304q\233|\363\257"
  87      578A2312 
  87      6A80714A 
  87      0D3C06C4 
  87      719B7CF3 
ARM GAS  /tmp/ccfDNcA4.s 			page 6


  88 0028 08E20C1F 		.ascii	"\010\342\014\037\013\005\234.\2004\036\203[*\026\271"
  88      0B059C2E 
  88      80341E83 
  88      5B2A16B9 
  89 0038 A3B8C84A 		.ascii	"\243\270\310J\245\177\346g \013\261\247V\337o)\021\007"
  89      A57FE667 
  89      200BB1A7 
  89      56DF6F29 
  89      1107
  90 004a 2ACF9590 		.ascii	"*\317\225\220Q\257\217Hi=;\331f\373o\277y\267\315v["
  90      51AF8F48 
  90      693D3BD9 
  90      66FB6FBF 
  90      79B7CD76 
  91 005f 87FBE6B3 		.ascii	"\207\373\346\263\333f\373[\274\000\323\273<\353"
  91      DB66FB5B 
  91      BC00D3BB 
  91      3CEB
  92              		.text
  93              		.section	.gnu.lto_.refs.fd75a0704f9ba4ec,"",%progbits
  94 0000 789C6362 		.ascii	"x\234cb`b`d\200\002\000\000F\000\006"
  94      60626064 
  94      80020000 
  94      460006
  95              		.text
  96              		.section	.gnu.lto_.decls.fd75a0704f9ba4ec,"",%progbits
  97 0000 789CBD5C 		.ascii	"x\234\275\\{t\024E\272\357\356y$!Y^\352^\360z\256\263"
  97      7B741445 
  97      BAEFEE79 
  97      2421595E 
  97      EA5EF07A 
  98 0016 F7E83D5E 		.ascii	"\367\350=^W\011\011\254\342\356\275\"$(9\313#g\022W"
  98      570909AC 
  98      E2EEBD22 
  98      242839CB 
  98      23671257 
  99 002a FD6B6C66 		.ascii	"\375klf:d\326$3;3\201p\357=\307&\201\200A1\033\336\010"
  99      3A64D624 
  99      333B3381 
  99      70EF3DC7 
  99      26818041 
 100 0042 21BCD155 		.ascii	"!\274\321U\026E\304\360\034T\010\020oH\304\010\030 "
 100      1645C4F0 
 100      1C540810 
 100      6F48C408 
 100      1820
 101 0054 A32E2A8A 		.ascii	"\243.*\212<\004y\012\271U_\365\314Tw\272g\252\007\317"
 101      3C04790A 
 101      B9555FF5 
 101      CC5477BA 
 101      67AA07CF 
 102 0068 9D73FAEB 		.ascii	"\235s\372\353\232\232\352_\375\352\253\257\276\257\252"
 102      9A9AEA5F 
 102      FDEAABAF 
 102      BEAFAA
 103 0077 BA7B044E 		.ascii	"\272{\004N\340\034<\307\365\240\317\345g8\256\270\017"
 103      E01C3CC7 
ARM GAS  /tmp/ccfDNcA4.s 			page 7


 103      F5A0CFE5 
 103      6738AEB8 
 103      0F
 104 0088 C7D9388E 		.ascii	"\307\3318\216{\034\035\026t\254DG\032:\216r\344cGG\027"
 104      7B1C1D16 
 104      74AC4447 
 104      1A3A8E72 
 104      E4634747 
 105 009d 3ABAD151 		.ascii	":\272\321Q+p\\\035:^A\307\253\350@0\334b\201S}pY\234"
 105      2B705C1D 
 105      3A5E41C7 
 105      ABE84030 
 105      DC628153 
 106 00b5 D582C471 		.ascii	"\325\202\304q%OP\362_\321\224\345\024\\\273R\347\027"
 106      254F50F2 
 106      5FD194E5 
 106      145CBB52 
 106      E717
 107 00c7 E8781D1D 		.ascii	"\350x\035\035\253\024\036V\216\324\261U9w\367\276\034"
 107      AB141E56 
 107      8ED4B155 
 107      3977F7BE 
 107      1C
 108 00d8 38F1CAB5 		.ascii	"8\361\312\265\234R\256V\247\036\314\033\267s\277\240"
 108      9C52AE56 
 108      A71ECC1B 
 108      B773BFA0 
 109 00e8 6E63BD10 		.ascii	"nc\275\020\347X\247\264K\373\311\344\352d\271Zn\252"
 109      E758A7B4 
 109      4BFBC9E4 
 109      EA64B95A 
 109      6EAA
 110 00fa 95C7EEEF 		.ascii	"\225\307\356\357;\220\373\253\214>\216\375}9\356Y^\344"
 110      3B90FBAB 
 110      8C3E8EFD 
 110      7D39EE59 
 110      5EE4
 111 010c FB667011 		.ascii	"\373fp\021\001RY\031\334C\250\364\375\334\032Y\256\217"
 111      01525919 
 111      DC43A8F4 
 111      FDDC1A59 
 111      AE8F
 112 011e CCDC3D58 		.ascii	"\314\334=X\266\212\374*~ \302\036\313s\017r\257\243"
 112      B68AFC2A 
 112      7E20C21E 
 112      CB730F72 
 112      AFA3
 113 0130 CBEA6579 		.ascii	"\313\352ey\325oy\235v$\205\3458\221_\207\300D~-\377"
 113      D56F799D 
 113      762485E5 
 113      38915F87 
 113      C0447E2D 
 114 0145 20A9440E 		.ascii	" \251D\016on\315\302\225\340|N\371E\347\363\033\256"
 114      6F6ECDC2 
 114      95E07C4E 
 114      F945E7F3 
 114      1BAE
ARM GAS  /tmp/ccfDNcA4.s 			page 8


 115 0157 499E5113 		.ascii	"I\236Q\023\336\332\272l\260\334\364\001\237\301\315"
 115      DEDABA6C 
 115      B0DCF401 
 115      9FC1CD
 116 0166 96E51AA5 		.ascii	"\226\345\032\2459\261\332\034\321\312\254\3616\\\253"
 116      39B1DA1C 
 116      D1CAACF1 
 116      365CAB
 117 0175 DDBB87AF 		.ascii	"\335\273\207\257\226erIu\302KD\376\015\376~$\3232bD"
 117      96657249 
 117      75C24B44 
 117      FE0DFE7E 
 117      24D33262 
 118 018a F0AFE86B 		.ascii	"\360\257\350k,\201m\256\037V\365t\236W\261e\200W\030"
 118      2C816DAE 
 118      1F56F574 
 118      9E57B165 
 118      805718
 119 019d 6DA9DBF1 		.ascii	"m\251\333\361\230,\247\213\374[\210\223\300\355\326"
 119      982CA78B 
 119      FC5B8893 
 119      C0EDD6
 120 01ac 0029F5C5 		.ascii	"\000)\365\305>,tL\026\027\270\203P)\326\271\036Q%I>"
 120      3E2C744C 
 120      1617B883 
 120      5029D6B9 
 120      1E512549 
 121 01c1 4A01553F 		.ascii	"J\001U?Dfl=\300\313\015Y\"\377:\264\241\3354\234C\325"
 121      44666C3D 
 121      C0CB0D59 
 121      22FF3AB4 
 121      A1DD349C 
 122 01d7 ADDB5AB3 		.ascii	"\255\333Z\263\352\305(\330\021\026\260tCn\341\0354X"
 122      EAC528D8 
 122      1116B074 
 122      436EE11D 
 122      3458
 123 01e9 B7693035 		.ascii	"\267i05\263]4\330)\026\260\376\306\314\332i\260\323"
 123      B35D34D8 
 123      2916B0FE 
 123      C6CCDA69 
 123      B0D3
 124 01fb A6C16866 		.ascii	"\246\301hf\323\303\335\255\007q\027\334\3015\310\362"
 124      D3C3DDAD 
 124      077117DC 
 124      C135C8F2 
 125 020b 74B9C96E 		.ascii	"t\271\311ndu\034\007E\344\204ED~'\177\207z\\\036\236"
 125      64751C07 
 125      45E48445 
 125      447E277F 
 125      877A5C1E 
 126 0220 D3178F4B 		.ascii	"\323\027\217K\234\237d\\\312\325\341Ne\\\212\374\337"
 126      9C9F645C 
 126      CAD5E14E 
 126      655C8AFC 
 126      DF
 127 0231 A0713F40 		.ascii	"\240q?@\343\360\265)\330\027\252\374Dk\246\\\227\245"
ARM GAS  /tmp/ccfDNcA4.s 			page 9


 127      E3F0B529 
 127      D817AAFC 
 127      446BA65C 
 127      97A5
 128 0243 3894A627 		.ascii	"8\224\246'6$ \376\201\326\241\034i\025\034$;9\357c\255"
 128      362420FE 
 128      81D6A11C 
 128      69151C24 
 128      3B39EF63 
 129 0258 CB06C94D 		.ascii	"\313\006\311M{\242\316A\256\225\037\240\352\352\037"
 129      7BA2CE41 
 129      AE951FA0 
 129      EAEA1F
 130 0267 AD0B3BD4 		.ascii	"\255\013;\324\230?\331\372\020\214\336\275\320\320s"
 130      983FD9FA 
 130      108CDEBD 
 130      D0D073
 131 0276 FA6E8001 		.ascii	"\372n\200\001hK\335z\342\006\366\003\320\325^n\300\242"
 131      684BDD7A 
 131      E206F603 
 131      D0D55E6E 
 131      C0A2
 132 0288 710316F5 		.ascii	"q\003\026\365\270\266d\304\023==\026\316\\a\201\253"
 132      B8B664C4 
 132      133D3D16 
 132      CE5C6181 
 132      AB
 133 0299 1178457B 		.ascii	"\021xE{z$\223uQud\315\366=<\352\243\250\"f\231\206\353"
 133      7A249375 
 133      517564CD 
 133      F63D3CEA 
 133      A3A82266 
 134 02b0 AFE91201 		.ascii	"\257\351\022\001\005\327\024\255\206j8i\263\310\357"
 134      05D714AD 
 134      866A3869 
 134      B3C8EF
 135 02bf E67F83E4 		.ascii	"\346\177\203\344\036$\251\012^\025\030\306\334 \203"
 135      1E24A90A 
 135      5E1518C6 
 135      DC2083
 136 02ce 36A3017C 		.ascii	"6\243\001|\236\036\300\363M\2039T`?\322`KX\300\034\306"
 136      9E1EC0F3 
 136      4D833954 
 136      603FD260 
 136      4B58C01C 
 137 02e3 CC2ED160 		.ascii	"\314.\321`\215\246\301\324\314.\323`\253Y\300\036H\324"
 137      8DA6C1D4 
 137      CC2ED360 
 137      AB59C01E 
 137      48D4
 138 02f5 29AAFE89 		.ascii	")\252\376\211\307\177\221_\017\321v\003\364\324\333"
 138      C77F915F 
 138      0FD17603 
 138      F4D4DB
 139 0304 203783DC 		.ascii	" 7\203\334\002r+\310f\220\333A\266\203\374\004\344\247"
 139      02722BC8 
 139      6690DB41 
ARM GAS  /tmp/ccfDNcA4.s 			page 10


 139      B683FC04 
 139      E4A7
 140 0316 203FA3FB 		.ascii	" ?\243\373\327\310C\254\3443\351\241\305\034\251\303"
 140      D7C843AC 
 140      E433E9A1 
 140      C51CA9C3 
 141 0326 471AEEC2 		.ascii	"G\032\356\302.\360(\350a\275\240\035\240\330\325\251"
 141      2EF028E8 
 141      61BDA01D 
 141      A0D8D5A9 
 142 0336 DA963CF2 		.ascii	"\332\226<\362\336\3135\312M\221H\307\341\217\305%rx"
 142      DECB35CA 
 142      4D9148C7 
 142      E18FC525 
 142      7278
 143 0348 86DCD3F3 		.ascii	"\206\334\323\363\"\367kn\001x\271Z4I\011\211\374\343"
 143      22F76B6E 
 143      0178B95A 
 143      34490989 
 143      FCE3
 144 035a 771936E4 		.ascii	"w\0316\3448\377k%\365\264%j\322\315\032Z\034\367o\334"
 144      38FF6B25 
 144      F5B4256A 
 144      D2CD1A5A 
 144      1CF76FDC 
 145 036e 5A8C276F 		.ascii	"Z\214'o\220-\200\206\313w\361\367\252\251\236\340U\223"
 145      902D8086 
 145      CB77F1F7 
 145      AAA99EE0 
 145      5593
 146 0380 44C22BBC 		.ascii	"D\302+\274\251%\253~z\244\247\347^\025\247tn\026VXd"
 146      A925AB7E 
 146      7AA4A7E7 
 146      5E15A774 
 146      6E165658 
 147 0395 A63C9DFF 		.ascii	"\246<\235\377KLa\351Qv|Taxf(\210\374\027|:\342\265O"
 147      4B4C61E9 
 147      51767C54 
 147      61786628 
 147      88FC177C 
 148 03ad D09B2242 		.ascii	"\320\233\"B\335\270@\264\277H:\232\342\215;1\242\264"
 148      DDB840B4 
 148      BF483A9A 
 148      E28D3B31 
 148      A2B4
 149 03bf DD02FE24 		.ascii	"\335\002\376$\351|\266\311\022\005\030\036\353\317H"
 149      E97CB6C9 
 149      1205181E 
 149      EBCF48
 150 03ce F3C28F72 		.ascii	"\363\302\217r\301\345~\0153\332\032\213ZuIa0\217\323"
 150      C1E57E0D 
 150      33DA1A8B 
 150      5A754961 
 150      308FD3
 151 03e1 DA70D3D9 		.ascii	"\332p\323\331\002\363\327\323L\361\346\304\254\025\020"
 151      02F3D7D3 
 151      4CF1E6C4 
ARM GAS  /tmp/ccfDNcA4.s 			page 11


 151      AC1510
 152 03f0 27F5E8A3 		.ascii	"'\365\350\243\002<U\265,\320#\0259G\304V\207\241\272"
 152      023C55B5 
 152      2CD02315 
 152      3947C456 
 152      87A1BA
 153 0403 98C89F45 		.ascii	"\230\310\237E\035+\362\347z\315\262g\001\313sL,\267"
 153      1D2BF2E7 
 153      7ACDB267 
 153      01CB734C 
 153      2CB7
 154 0415 B4C0EC4E 		.ascii	"\264\300\354NERc\245\270\267\214\272\352\242\272\253"
 154      455263A5 
 154      B8B78CBA 
 154      EAA2BAAB 
 155 0425 447E6426 		.ascii	"D~d&e\262\234q\037\377\210\364\242|\004n)\364\316\271"
 155      65B29C71 
 155      1FFF88F4 
 155      A27C046E 
 155      29F4CEB9 
 156 0439 D4A6A888 		.ascii	"\324\246\250\210\366;\262\234a'\230\002\267\3164\230"
 156      F63BB29C 
 156      61279802 
 156      B7CE3498 
 157 0449 C3186C33 		.ascii	"\303\030l3\013\230\321\004U\013\266\3354\230\016\263"
 157      0B98D104 
 157      550BB6DD 
 157      34980EB3 
 158 0459 547BEA96 		.ascii	"T{\352\226NO\305\322\212{\323\033p\212\013\215\254\225"
 158      4E4FC5D2 
 158      8A7BD31B 
 158      708A0B8D 
 158      AC95
 159 046b 072DEE9B 		.ascii	"\007-\356\233\300#\340\351\322[\277\205!W#`'\272\317"
 159      C023E0E9 
 159      D25BBF85 
 159      21572360 
 159      27BACF
 160 047e A23B5D62 		.ascii	"\242;]b\000\332R\3278\002\200j\001\250\315\242\365\306"
 160      00DA52D7 
 160      3802806A 
 160      01A8CDA2 
 160      F5C6
 161 0490 5A67CCAB 		.ascii	"Zg\314\253\2351\237\021O\364\250]S\322\262F\352\253"
 161      9D319F11 
 161      4FF4A85D 
 161      53D2B246 
 161      EAAB
 162 04a2 16322918 		.ascii	"\0262)\030\255\342\230L\376&m\362GYl\301h}\201\246d"
 162      ADE2984C 
 162      FE266DF2 
 162      47596CC1 
 162      687D81A6 
 163 04b7 CD0B7FC8 		.ascii	"\315\013\177\310\301a\305\222\252=\274\"\334\246=\204"
 163      C161C592 
 163      AA3DBC22 
 163      DCA63D84 
ARM GAS  /tmp/ccfDNcA4.s 			page 12


 164 04c7 0DBB51E4 		.ascii	"\015\273Q\344g\010\367\247\256\352\277\336\276\252_"
 164      6708F7A7 
 164      AEEABFDE 
 164      BEAA5F
 165 04d6 1628559F 		.ascii	"\026(U\2370\255j\007\255j\365\030\376\212\005\314hZ"
 165      30AD6A07 
 165      AD6AF518 
 165      FE8A05CC 
 165      685A
 166 04e8 79BB6378 		.ascii	"y\273cx\211q\237\351F\231'\250\340\361\004\355`\224"
 166      89719FE9 
 166      469927A8 
 166      E0F104ED 
 166      6094
 167 04fa 81B669C5 		.ascii	"\201\266i\305H\034)\226\0138D\256\266\352\206Hc\020"
 167      481C2996 
 167      0B3844AE 
 167      B6EA8648 
 167      6310
 168 050c 4CA049D0 		.ascii	"L\240I\320\004\237+\222\203\344&\017=\327\326*\033\013"
 168      049F2B92 
 168      83E4260F 
 168      3DD7D62A 
 168      1B0B
 169 051e 641DB919 		.ascii	"d\035\271\031\352\307\227\246\024\004\302\327\245\375"
 169      EAC797A6 
 169      1404C2D7 
 169      A5FD
 170 052c 43A3583B 		.ascii	"C\243X;Lc9\364\210r\275Z\211f\230`\332\253\004<%]#0"
 170      4C6339F4 
 170      8872BD5A 
 170      89669860 
 170      DAAB043C 
 171 0544 4C4997A9 		.ascii	"LI\227\251\314\231\311|\027\323\346\373\221\325\254"
 171      CC99C97C 
 171      17D3E6FB 
 171      91D5AC
 172 0553 C569DB12 		.ascii	"\305i\333\022_)]\200\231\364e\220WA^\007\3713\3109\320"
 172      5F295D80 
 172      99F46590 
 172      57415E07 
 172      F933C839 
 173 0568 A8052017 		.ascii	"\250\005 \027\2614\355\014\355\321\376\027x\236N5\210"
 173      B134ED0C 
 173      EDD1FE17 
 173      789E4E35 
 173      88
 174 0579 479A3FBB 		.ascii	"G\232?\273\222\263H\016O\267\244q\265d\016Z\235,PlZ"
 174      92B3480E 
 174      4FB7A471 
 174      B5640E5A 
 174      9D2C506C 
 175 058e F128B6DF 		.ascii	"\361(\266\337\327\2054T\177\207\306~\031`p\033\336D"
 175      D7853454 
 175      7F87C67E 
 175      1960701B 
 175      DE44
ARM GAS  /tmp/ccfDNcA4.s 			page 13


 176 05a0 17AB2CB8 		.ascii	"\027\253,\270y\232\203\344&\260`\030t\002w\034U\211"
 176      799A83E4 
 176      26B06018 
 176      7402771C 
 176      5589
 177 05b2 E1AC19F1 		.ascii	"\341\254\031\361\274o\342y<U\364|<[\240\262o\304\263"
 177      BC6FE279 
 177      3C55F47C 
 177      3C5BA0B2 
 177      6FC4B3
 178 05c5 2D54769D 		.ascii	"-Tv\235-\226m\245\262\227\305\263mT\366\272x\266\235"
 178      2D966DA5 
 178      B297C5B3 
 178      6D54F6BA 
 178      78B69D
 179 05d8 CA7E279E 		.ascii	"\312~'\236\235Fe\357\212g\247S\375\2210h\306\225$\362"
 179      9D4665EF 
 179      8A67A753 
 179      FD913068 
 179      C69524F2 
 180 05ec 6FC100D8 		.ascii	"o\301\000\330(Xt/\023\270\2036\215\035\250T\236l\376"
 180      2858742F 
 180      13B88336 
 180      8D1DA854 
 180      9E6CFE
 181 05ff 25831D4C 		.ascii	"%\203\035L\307\221m\000W\257\314\200\311\260\216\316"
 181      C7916D00 
 181      57AFCC80 
 181      C9B08ECE 
 182 060f 8279B5CF 		.ascii	"\202y\265\317\026\371\017\204\001\220\202\320$+>\020"
 182      16F90F84 
 182      019082D0 
 182      242B3E10 
 183 061f 4A1819EE 		.ascii	"J\030\031\356\207BF\214@VF<\021\035\232\002\327\256"
 183      8742468C 
 183      4056463C 
 183      111D9A02 
 183      D7AE
 184 0631 6D85BADA 		.ascii	"m\205\272\332d3?\330\030\302Q\003s\023\270O\231\320"
 184      64333FD8 
 184      18C25103 
 184      7313B84F 
 184      99D0
 185 0643 92858DA8 		.ascii	"\222\205\215\250w;\252Ec]\246+\236\362\312\254\345\254"
 185      773BAA45 
 185      635DA62B 
 185      9EF2CAAC 
 185      E5AC
 186 0655 2B93E7A3 		.ascii	"+\223\347\243pY\261Q\027\276\266\217w\350\254NTEE\376"
 186      7059B151 
 186      17BEB68F 
 186      77E8AC4E 
 186      544545FE 
 187 0669 636426C9 		.ascii	"cd&\311J\341rm\332\010\262{\037,_\332\230b\310\221Z"
 187      4AE1726D 
 187      DA08B27B 
 187      1F2C5FDA 
ARM GAS  /tmp/ccfDNcA4.s 			page 14


 187      9862C891 
 188 067e E3A6A896 		.ascii	"\343\246\250\226N\261\305\335\320XC\"\015\347\316\377"
 188      4EB1C5DD 
 188      D0584322 
 188      0DE7CEFF 
 189 068e 19E6999F 		.ascii	"\031\346\231\237@\000\\gO\272FT\303\210\374\247\002"
 189      40005C67 
 189      4FBA4654 
 189      C388FCA7 
 189      02
 190 069f 5E81756A 		.ascii	"^\201uj\233\360\323k\320\204N\246&\334\354j\374'9\022"
 190      9BF0D36B 
 190      D0844EA6 
 190      26DCEC6A 
 190      FC273912 
 191 06b3 E6D9DD5E 		.ascii	"\346\331\335^\307\305\360\3355\250\237D\376(x\276\257"
 191      C7C5F0DD 
 191      35A89F44 
 191      FE2878BE 
 191      AF
 192 06c4 EC2979BE 		.ascii	"\354)y\276.\255\347\333R\333\017\323\356b\362}g\355"
 192      2EADE7DB 
 192      52DB0FD3 
 192      EE62F27D 
 192      67ED
 193 06d6 BD7DDF35 		.ascii	"\275}\3375\273\256\357\253N\323\365}/\247\351\372\276"
 193      BBAEEFAB 
 193      4ED3F57D 
 193      2FA7E9FA 
 193      BE
 194 06e7 45696ADF 		.ascii	"Eij\337\3071\370\247.\312?\035\007\377t\302\300?\211"
 194      C731F8A7 
 194      2ECA3F1D 
 194      07FF74C2 
 194      C03F89
 195 06fa 7C38D667 		.ascii	"|8\326g\254\376I\325_\221y\347\332\253v\241\361\370"
 195      ACFE49D5 
 195      5F9179E7 
 195      DAAB76A1 
 195      F1F8
 196 070c 923DC5F1 		.ascii	"\222=\305\361\323\325\3052~\276c\034?g\264\306\267\250"
 196      D3D5C532 
 196      7EBE631C 
 196      3F67B4C6 
 196      B7A8
 197 071e 0B8CEF0C 		.ascii	"\013\214\357\014\223\361\255\350j\354=~\330w\251\316"
 197      93F1ADE8 
 197      6AEC3D7E 
 197      D877A9CE 
 198 072e 6B27A41D 		.ascii	"k'\244\035\002\303\372_\321\303\315\245w\302>\205\200"
 198      02C3FA5F 
 198      D1C3CDA5 
 198      77C23E85 
 198      80
 199 073f E7D56BD2 		.ascii	"\347\325k\322\3246\254\"D*2\"qI\3104hg\257\337PP\204"
 199      D436AC22 
 199      442A3222 
ARM GAS  /tmp/ccfDNcA4.s 			page 15


 199      7149C834 
 199      6867AFDF 
 200 0756 7ACEA43C 		.ascii	"z\316\244<\313l\326S\030\271oj\334\324\310\251\215\037"
 200      CB6CD653 
 200      18B96F6A 
 200      DCD4C8A9 
 200      8D1F
 201 0768 58C0D35C 		.ascii	"X\300\323\\\201\3066\247iW\264+\371L5q\315F&\232\006"
 201      81C636A7 
 201      6957B42B 
 201      F94C3571 
 201      CD46269A 
 202 077d 9A26EED0 		.ascii	"\232&\356\320\230m\270b\347&Y\236i\217n\343\267j\021"
 202      986DB862 
 202      E726599E 
 202      698F6EE3 
 202      B76A11
 203 0790 F5B6F18D 		.ascii	"\365\266\361\215\3676\302G_\313j\177>\012\326a\032L"
 203      F736C247 
 203      5FCB6A7F 
 203      3E0AD661 
 203      1A4C
 204 07a2 7B4F203A 		.ascii	"{O :~\177\200\361{\026f\241\227A\336\000y\223\236\221"
 204      7E7F80F1 
 204      7B1666A1 
 204      9741DE00 
 204      79939E91 
 205 07b6 0A5C672F 		.ascii	"\012\\g/\035\022\213\247\360\342C\203K\216hd]\337\322"
 205      1D128BA7 
 205      F0E24383 
 205      4B8E6864 
 205      5DDFD2
 206 07c9 73F16EA8 		.ascii	"s\361n\250\2643\325"
 206      B433D5
 207 07d0 4E08379E 		.ascii	"N\0107\236\314\252\027\223\356gZ\243H\371q\013Z\336"
 207      CCAA1793 
 207      EE675AA3 
 207      48F9710B 
 207      5ADE
 208 07e2 131EB44D 		.ascii	"\023\036\264M\226\373\213|\215\005\007\253\025\351\311"
 208      96FB8B7C 
 208      8D0507AB 
 208      15E9C9
 209 07f1 37345538 		.ascii	"74U8\002\267\001.\251\265\250\375E\244s\365\027\377"
 209      02B7012E 
 209      A9B5A8FD 
 209      45A473F5 
 209      17FF
 210 0803 BC1890F1 		.ascii	"\274\030\220\361O\311]\306\015\275\220Kh\031\351\260"
 210      4FC95DC6 
 210      0DBD904B 
 210      6819E9B0 
 211 0813 CEA231E6 		.ascii	"\316\2421\346obTR\033\205\267\366\301]\013\214\213\""
 211      6F625452 
 211      1B85B7F6 
 211      C15D0B8C 
 211      8B22
ARM GAS  /tmp/ccfDNcA4.s 			page 16


 212 0825 91693075 		.ascii	"\221i0u\247\314k\241\0364`\272\255\337\265\376\364\340"
 212      A7CC6BA1 
 212      1E3460BA 
 212      ADDFB5FE 
 212      F4E0
 213 0837 9DA0B257 		.ascii	"\235\240\262W-\330\300we\374\002\367\013\004n_\006C"
 213      2DD8C077 
 213      65FC02F7 
 213      0B046E5F 
 213      0643
 214 0849 438CA79C 		.ascii	"C\214\247\234\250';\356i\206\310\024\015F\206\267\201"
 214      A8273BEE 
 214      6986C814 
 214      0D4686B7 
 214      81
 215 085a D1720D2A 		.ascii	"\321r\015*\233\257\265\206\256\215\035\017\023k\230"
 215      9BAFB586 
 215      AE8D1D0F 
 215      136B98
 216 0869 CF640D5B 		.ascii	"\317d\015[[\0271M\300\232\354\321\352=P\375\253}p\365"
 216      5B17314D 
 216      C09AECD1 
 216      EA3D50FD 
 216      AB7D70F5 
 217 087d 4BB4D55F 		.ascii	"K\264\325_y\347\364\343\244\372%L\325w\037\232\257g"
 217      79E7F4E3 
 217      A4FA254C 
 217      D5771F9A 
 217      AF67
 218 088f 8C06212B 		.ascii	"\214\006!+\332}\033/<\260\002*Y\016\006t\254\217\266"
 218      DA7D1B2F 
 218      3CB0022A 
 218      590E0674 
 218      AC8FB6
 219 08a2 FB466ABC 		.ascii	"\373Fj\274\361H\215\375~\031c\237\222\375\242f\356\031"
 219      F1488DFD 
 219      7E19639F 
 219      92FDA266 
 219      EE19
 220 08b4 F93AF454 		.ascii	"\371:\364T\224\303\327\246\021\325F\374\343!\030\021"
 220      94C3D7A6 
 220      11D546FC 
 220      E3211811 
 221 08c4 04EC3B16 		.ascii	"\004\354;\026\260\004\236\375\022\015v\3264\230\232"
 221      B0049EFD 
 221      120D76D6 
 221      34989A
 222 08d3 D9651AEC 		.ascii	"\331e\032\354G\0260\343m\317\360U\032\354\262i05\263"
 222      471630E3 
 222      6DCFF055 
 222      1AECB269 
 222      3035B3
 223 08e6 EB34D875 		.ascii	"\3534\330u\0260\343\025Z\370g\032\354\226i05\263[4X"
 223      1630E315 
 223      5AF8671A 
 223      EC966930 
 223      35B35B34 
ARM GAS  /tmp/ccfDNcA4.s 			page 17


 224 08fb 75260398 		.ascii	"u&\003\230\303\230Y\375'\024X\255i05\263\006\032\254"
 224      C39859FD 
 224      271458AD 
 224      693035B3 
 224      061AAC
 225 090e 8E052CC1 		.ascii	"\216\005,\301Bt>\0156\3274\230\232\331B\032\254\201"
 225      42743E0D 
 225      36D73498 
 225      9AD9421A 
 225      AC81
 226 0920 056CA831 		.ascii	"\005l\2501\263\3054\330B\323`jfKi\260\245,`#\214\231"
 226      B3C534D8 
 226      42D3606A 
 226      664B69B0 
 226      A52C6023 
 227 0936 2DA3C11A 		.ascii	"-\243\301\032M\203\251\231m\242\301V\261\200=a\314\354"
 227      4D83A999 
 227      6DA2C156 
 227      B1803D61 
 227      CCEC
 228 0948 1D1A6CAD 		.ascii	"\035\032l\255i05\263wi\260\015,`c\215\231\275G\203\375"
 228      693035B3 
 228      7769B00D 
 228      2C60638D 
 228      99BD4783 
 229 095d CD34989A 		.ascii	"\3154\230\232\331\3734\330F\026\260Bcf\333h\260\267"
 229      D9FB34D8 
 229      4616B042 
 229      6366DB68 
 229      B0B7
 230 096f 4D83A999 		.ascii	"M\203\251\231\355\240\301\336e\001{\326\230\331.\032"
 230      EDA0C1DE 
 230      65017BD6 
 230      98D92E1A 
 231 097f EC7DD360 		.ascii	"\354}\323`jf\3554\330\016\026\260\347u\230\305>F\363"
 231      6A66ED34 
 231      D80E16B0 
 231      E77598C5 
 231      3E46F3
 232 0992 CCC5166A 		.ascii	"\314\305\026j\256\276;3:\3011\031\243\2718\306\207\231"
 232      AEBE3B33 
 232      3AC13119 
 232      A3B938C6 
 232      8799
 233 09a4 666764AA 		.ascii	"fgd\252v\343\271\365=\333\2248O&\253\007X\020\023\004"
 233      76E3B9F5 
 233      3DDB9438 
 233      4F26AB07 
 233      58101304 
 234 09b8 C0A52DD4 		.ascii	"\300\245-\324\314\267\3034\230\306\224[\264\313\021"
 234      CCB7C334 
 234      98C6945B 
 234      B4CB11
 235 09c7 86BB7BF1 		.ascii	"\206\273{\361\347?\250;\272\203\364\313\212\374\347"
 235      E73FA83B 
 235      BA83F4CB 
 235      8AFCE7
ARM GAS  /tmp/ccfDNcA4.s 			page 18


 236 09d6 16BC9AEB 		.ascii	"\026\274\232\353\322<\243\326\025{H\015\247\310\276"
 236      D23CA3D6 
 236      157B480D 
 236      A7C8BE
 237 09e5 F1B14CC3 		.ascii	"\361\261L\303\247H\222_nd\021Gi\2138\311\242\256\004"
 237      A748925F 
 237      6E641147 
 237      698B38C9 
 237      A2AE04
 238 09f8 21BEBB65 		.ascii	"!\276\273e\031\354\324\261\337\311\356Z\337\241,\024"
 238      19ECD4B1 
 238      DFC9EE5A 
 238      DFA12C14 
 239 0a08 BA61A170 		.ascii	"\272a\241p*S;\323\254\021\314\335\313F\3631m+\364\366"
 239      2A533BD3 
 239      AC11CCDD 
 239      CB46F331 
 239      6D2BF4F6 
 240 0a1c AF8CE716 		.ascii	"\257\214\347\026\310&\217\335\333\274Q\226k\354f\332"
 240      C8268FDD 
 240      DBBC5196 
 240      6BEC66DA 
 241 0a2c 714069C7 		.ascii	"q@i\307?\240\035\227\177\201v\3342\335\216\0074\355"
 241      3FA01D97 
 241      7F8176DC 
 241      32DD8E07 
 241      34ED
 242 0a3e D8F380F9 		.ascii	"\330\363\200\371v\034S\332q\032\332Q\233u\373\355\230"
 242      761C53DA 
 242      711ADA51 
 242      9B75FBED 
 242      98
 243 0a4f 9B65B61D 		.ascii	"\233e\266\035C\251v\300\252m\010Y\2651=\274{\326\242"
 243      43A976C0 
 243      AA6D0859 
 243      B5313DBC 
 243      7BD6A2
 244 0a62 7978F7D8 		.ascii	"yx\367\330A\336A\262\223-\227\344\360\225\203\324RW"
 244      41DE41B2 
 244      932D97E4 
 244      F09583D4 
 244      5257
 245 0a74 665BEA5E 		.ascii	"f[\352^P4v\0014\266@\2431v\244k\373>z\033\236\316\027"
 245      50347601 
 245      34B640A3 
 245      3176A46B 
 245      FB3E7A1B 
 246 0a8b F94B00F5 		.ascii	"\371K\000\365Z\312P[\016n%\017\210\\\001\240\325\275"
 246      5ACA505B 
 246      0E6E250F 
 246      885C01A0 
 246      D5BD
 247 0a9d 7AD1AEE9 		.ascii	"z\321\256\351D\273\272\023\321W\\\323U\274\362\346_"
 247      44BBBA13 
 247      D1575CD3 
 247      55BCF2E6 
 247      5F
ARM GAS  /tmp/ccfDNcA4.s 			page 19


 248 0aae 5472F097 		.ascii	"Tr\360\2274\356\377\375:\201{\013\350\343\0164\031\250"
 248      34EEFFFD 
 248      3A817B0B 
 248      E8E30E34 
 248      19A8
 249 0ac0 E206F450 		.ascii	"\342\006\364P\263\022dH'\275{[\210\325\341\315s\226"
 249      B3126448 
 249      27BD7B5B 
 249      88D5E1CD 
 249      7396
 250 0ad2 2B8F788F 		.ascii	"+\217x\217\304af\347m\302u\264\232\337`\331s7\261:\031"
 250      C46166E7 
 250      6DC275B4 
 250      9ADF60D9 
 250      7337B13A 
 251 0ae7 6E1A7CD4 		.ascii	"n\032|\324\253\207S\332`iO\265!\261\217\300\035\321"
 251      AB8753DA 
 251      60694FB5 
 251      21B18FC0 
 251      1DD1
 252 0af9 0E7753AB 		.ascii	"\016wS\2531\334[\327\2060n\322\304\266\376\276\035\264"
 252      31DC5BD7 
 252      86306ED2 
 252      C4B6FEBE 
 252      1DB4
 253 0b0b 9F6CD059 		.ascii	"\237l\320Y\361\326_\227F\031\014\233=\337\301%/Y{m\375"
 253      F1D65F97 
 253      46190C9B 
 253      3DDFC125 
 253      2F597B6D 
 254 0b20 750C26BB 		.ascii	"u\014&\273-\370'\206\315\236\332\250]\220\035\2759\026"
 254      2DF82786 
 254      CD9EDAA8 
 254      5D901DBD 
 254      3916
 255 0b32 41814D55 		.ascii	"A\201MU\237\252.\214\363C\320V<ox\331\252\332\363\275"
 255      9FAA2E8C 
 255      F343D056 
 255      3C6F78D9 
 255      AADAF3BD 
 256 0b46 6E5AF70E 		.ascii	"nZ\367\016Z\367\341\033\255\313x\314_g\177\352\011z"
 256      5AF7E11B 
 256      ADCB78CC 
 256      5F677FEA 
 256      097A
 257 0b58 3617537C 		.ascii	"6\027S|d\360\001\262\315\007\212\237\361+\223O\310\010"
 257      64F001B2 
 257      CD078A9F 
 257      F12B934F 
 257      C808
 258 0b6a DC7CB8A4 		.ascii	"\334|\270\244\241\267\342\017\334M\024\337\300\244\370"
 258      A1B7E20F 
 258      DC4D14DF 
 258      C0A4F8
 259 0b79 4E5DC537 		.ascii	"N]\3057\230W\274\202\367Y|\377T\344_1\015\346H\324\213"
 259      9857BC82 
 259      F7597CFF 
ARM GAS  /tmp/ccfDNcA4.s 			page 20


 259      54E45F31 
 259      0DE648D4 
 260 0b8e 0D542FCE 		.ascii	"\015T/\316\207^\\`\305\273\355\013\325}\271\366W\232"
 260      875E5C60 
 260      C5BBED0B 
 260      D57DB9F6 
 260      579A
 261 0ba0 BE54694E 		.ascii	"\276TiNI\032\356\035\310\341ym\321\327P\210\317\333"
 261      491AEE1D 
 261      C8E1796D 
 261      D1D75088 
 261      CFDB
 262 0bb2 A4C5D36B 		.ascii	"\244\305\323kE\202\025\177c\033\250\204\370\233\367"
 262      4582157F 
 262      631BA884 
 262      F89BF7
 263 0bc1 4C833954 		.ascii	"L\2039T`;\3472\336\226V=\006 p{\240\336F\255\271\254"
 263      603BE732 
 263      DE96563D 
 263      0620707B 
 263      A0DE46AD 
 264 0bd7 38DB318B 		.ascii	"8\3331\213\237\016\241\263\221\301^P\234?\225\001OV"
 264      9F0EA1B3 
 264      91C15E50 
 264      9C3F9501 
 264      4F56
 265 0be9 11BBBD11 		.ascii	"\021\273\275\021CM\240\352\004\326r\343\264\362\240"
 265      434DA0EA 
 265      04D672E3 
 265      B4F2A0
 266 0bf8 165975D4 		.ascii	"\026Yu\324\364\325\300%]\024\251\341nI\373\207\232S"
 266      F4D5C025 
 266      5D14A9E1 
 266      6E49FB87 
 266      9A53
 267 0c0a 4CF4C669 		.ascii	"L\364\306i3\236\351\254\2076\315\351\253\215\010D3\224"
 267      339EE9AC 
 267      8736CDE9 
 267      AB8D0844 
 267      3394
 268 0c1c 21365286 		.ascii	"!6R\206\330\004\206\270\022\014q5\310\265\2649\032M"
 268      D80486B8 
 268      120C7135 
 268      C8B5B439 
 268      1A4D
 269 0c2e B6D659A9 		.ascii	"\266\326Y\251\345\303<\323\355vhz\307\250\232\345t5"
 269      E5C33CD3 
 269      ED76687A 
 269      C7A89AE5 
 269      7435
 270 0c40 4BFB32D8 		.ascii	"K\3732\330\236\361\006\021v\352\277\217N\007\310\355"
 270      9EF10611 
 270      76EABF8F 
 270      4E07C8ED 
 271 0c50 8935A611 		.ascii	"\2115\246\021\325\326|a\256j:\360w\026\270't\010\352"
 271      D5D67C61 
 271      AE6A3AF0 
ARM GAS  /tmp/ccfDNcA4.s 			page 21


 271      7716B827 
 271      7408EA
 272 0c63 7DE81B52 		.ascii	"}\350\033R\"?\033V\213/Yp\007\275\014r.\310y \017\203"
 272      223F1B56 
 272      8B2F5970 
 272      07BD0C72 
 272      2EC87920 
 273 0c79 EC047904 		.ascii	"\354\004y\004\344I\220_\201\374\026\344\017 gB\027\317"
 273      E449905F 
 273      81FC16E4 
 273      0F206742 
 273      17CF
 274 0c8b 05B918E4 		.ascii	"\005\271\030\344R\220\313@\276\011rc2\003P\242@\367"
 274      5290CB40 
 274      BE097263 
 274      320350A2 
 274      40F7
 275 0c9d C563F7BC 		.ascii	"\305c\367\274\011\276\272\032\314\377\\/\313\253\263"
 275      09BEBA1A 
 275      CCFF5C2F 
 275      CBABB3
 276 0cac 686E17F4 		.ascii	"hn\027\364\272\337U\335\217\341\276a\202;;\363\316}"
 276      BADF55DD 
 276      8FE1BE61 
 276      823B3BF3 
 276      CE7D
 277 0cbe 3B6D6735 		.ascii	";mg5\351\323\365`\326+\254\232\247\030\222?\237\244"
 277      E9D3F560 
 277      D62BAC9A 
 277      A718923F 
 277      9FA4
 278 0cd0 EED4138D 		.ascii	"\356\324\023\215\306\257'\250n\334\304^:\270/\256\223"
 278      C6AF27A8 
 278      6EDCC45E 
 278      3AB82FAE 
 278      93
 279 0ce1 CDD78FFD 		.ascii	"\315\327\217\375\017y\002\345=\030\215{\373%\277\033"
 279      0F7902E5 
 279      3D188D7B 
 279      FB25BF1B 
 280 0cf1 A9C2C15A 		.ascii	"\251\302\301Zj\326\270\271\360\205\223\360\344Bsr\027"
 280      6AD6B8B9 
 280      F08593F0 
 280      E4427372 
 280      17
 281 0d02 37A326FC 		.ascii	"7\243&\374\323\311\371\212Q\222w\227:\200Bsj!\021\277"
 281      D3C9F98A 
 281      51927797 
 281      3A804273 
 281      6A2111BF 
 282 0d16 0875927A 		.ascii	"\010u\222z\021\252\3234\230C\005v\225\006;\306\002\226"
 282      11AAD334 
 282      98430576 
 282      95063BC6 
 282      0296
 283 0d28 E025D7EB 		.ascii	"\340%\327\3534\330q\323`jf?\323`\335,`\011^r\275E\203"
 283      34D871D3 
ARM GAS  /tmp/ccfDNcA4.s 			page 22


 283      606A663F 
 283      D360DD2C 
 283      60095E72 
 284 0d3f 9D320DA6 		.ascii	"\2352\015\246fV\337M\201\235a\001K\360\366^\003\015"
 284      6656DF4D 
 284      819D6101 
 284      4BF0F65E 
 284      030D
 285 0d51 76D13498 		.ascii	"v\3214\230\232\331|\032\354\006\013\230C\207\231\336"
 285      9AD97C1A 
 285      EC060B98 
 285      438799DE 
 286 0d61 871E0422 		.ascii	"\207\036\004\"\277\015\202\324v\360N;A\356\006\271\007"
 286      BF0D82D4 
 286      76F04E3B 
 286      41EE06B9 
 286      07
 287 0d72 E48720F7 		.ascii	"\344\207 \367\202l\001y\000d+K \333BG\230\351\375\031"
 287      826C0179 
 287      00642B4B 
 287      20DB4247 
 287      98E9FD19 
 288 0d86 BC51821D 		.ascii	"\274Q\202\035\244y\347\332\377\373v\236\200\212\274"
 288      A479E7DA 
 288      FFFB769E 
 288      808ABC
 289 0d95 B6EAE07F 		.ascii	"\266\352\340\177`\367\221\374)\250\016+\333SP\207\265"
 289      60F791FC 
 289      29A80E2B 
 289      DB535087 
 289      B5
 290 0da6 BEE4A736 		.ascii	"\276\344\2476\360%\207\231\246\327W\030\247ka\236\326"
 290      F0258799 
 290      A6D75718 
 290      A76B619E 
 290      D6
 291 0db7 4ECC171E 		.ascii	"N\314\027\036x\234\370\302#\340\013?\356\237\324\027"
 291      789CF8C2 
 291      23E00B3F 
 291      EE9FD417 
 292 0dc7 AA71609B 		.ascii	"\252q`\233T\313\177\363!\340\3779\223/\334zH\355\013"
 292      54CB7FF3 
 292      21E0FF39 
 292      932FDC7A 
 292      48ED0B
 293 0dda BB81C2E7 		.ascii	"\273\201\302\347)\373\302\367\017Q\006\377\245i0\207"
 293      29FBC2F7 
 293      0F5106FF 
 293      A5693087 
 294 0dea 0A6C1B0D 		.ascii	"\012l\033\015\366\015\013X\242\027\376i\260\357M\203"
 294      F60D0B58 
 294      A217FE69 
 294      B0EF4D83 
 295 0dfa A999EDA2 		.ascii	"\251\231\355\242\301\316\263\200%z\341\237\006\373\311"
 295      C1CEB380 
 295      257AE19F 
 295      06FBC9
ARM GAS  /tmp/ccfDNcA4.s 			page 23


 296 0e09 349843AF 		.ascii	"4\230C\257{\271^\326!\362]\340$\216\303\320?\0112\002"
 296      7BB95ED6 
 296      21F25DE0 
 296      248EC3D0 
 296      3F093202 
 297 0e1d F24B90FF 		.ascii	"\362K\220\377\000\3715\213K\370\214v\011\327\200\360"
 297      00F9358B 
 297      4BF88C76 
 297      09D780F0 
 298 0e2d E1541794 		.ascii	"\341T\027\224hD\177\371\207m\275]\002\321\207\021\203"
 298      68447FF9 
 298      876DBD5D 
 298      02D18711 
 298      83
 299 0e3e EF6806F2 		.ascii	"\357h\006\362\000\263\014\0344\203\360\2156\2629\037"
 299      00B30C1C 
 299      3483F08D 
 299      36B2391F 
 300 0e4e 7DFD6CA6 		.ascii	"}\375l\246\026Oo[6\321*\245-s\323\363Q\260\227M\203"
 300      164F6F5B 
 300      36D12AA5 
 300      2D73D3F3 
 300      51B0974D 
 301 0e63 A5ABC0EA 		.ascii	"\245\253\300\352\017Q`\013M\203\031=*\367)\330B'\364"
 301      0F51600B 
 301      4D83193D 
 301      2AF729D8 
 301      4227F4
 302 0e76 F9699067 		.ascii	"\371i\220g@\236\005y^\275\340^>@;o=\254]1\305\275(\307"
 302      409E0579 
 302      5EBDE05E 
 302      3E403B6F 
 302      3DAC5D31 
 303 0e8e 8A6BD4B7 		.ascii	"\212k\324\267\207\350\276\3354\200!\3408\214\255k\336"
 303      87E8BEDD 
 303      348021E0 
 303      388CAD6B 
 303      DE
 304 0e9f B9F34AC0 		.ascii	"\271\363J\300!\300h\201n\032Qm-\013\272\033U\177b\261"
 304      21C06881 
 304      6E1A516D 
 304      2D0BBA1B 
 304      557F62B1 
 305 0eb3 83052FC1 		.ascii	"\203\005/\301\223\014\313\310\024\201\200\3553\015\346"
 305      930CCBC8 
 305      148180ED 
 305      330DE6
 306 0ec2 E00C3FF4 		.ascii	"\340\014?\364\343\345h\320\302\303\221G\340\361\305"
 306      E3E568D0 
 306      C2C39147 
 306      E0F1C5
 307 0ed1 6F404E87 		.ascii	"o@N\207\005\317f\350\231wA\266\201\274\004\3622\310"
 307      05CF66E8 
 307      997741B6 
 307      81BC04F2 
 307      32C8
 308 0ee3 AB2C3DD6 		.ascii	"\253,=\326A?\350\330\016MhK\3651\331H\363gGV\362\363"
ARM GAS  /tmp/ccfDNcA4.s 			page 24


 308      413FE8D8 
 308      0E4D684B 
 308      F531D948 
 308      F3674756 
 309 0ef9 6A64FC4A 		.ascii	"jd\374J\326\267\360\314k\247iDu\217]&[V\004\254\213"
 309      D6B7F0CC 
 309      6BA76944 
 309      758F5D26 
 309      5B5604AC 
 310 0f0e 054C6F70 		.ascii	"\005LopSj%\012=\004\012m'O\205\202\262n\252\207\315"
 310      536A250A 
 310      3D040A6D 
 310      274F8582 
 310      B26EAA87 
 311 0f23 17BD864D 		.ascii	"\027\275\206M\233\3669\3236\325s\246\206XF\212?\030"
 311      9BF639D3 
 311      36D573A6 
 311      8658468A 
 311      3F18
 312 0f35 57BCC8CB 		.ascii	"W\274\310\313\260\031g\346\335\016\265\232zZ\242n\220"
 312      B01967E6 
 312      DD0EB59A 
 312      7A5AA26E 
 312      90
 313 0f46 BC9BFF3D 		.ascii	"\274\233\377=\320O\3626\216\336\266\230\336\207~%\036"
 313      D04FF236 
 313      8EDEB698 
 313      DE877E25 
 313      1E
 314 0f57 B96FF84B 		.ascii	"\271o\370K\207\357\341\325\261\015\320\350= \367\202"
 314      87EFE1D5 
 314      B10DD0E8 
 314      3D20F782 
 315 0f67 6C017900 		.ascii	"l\001y\000\244lcP\303)\236R\003\365\0049\232rk\272\340"
 315      A46C6350 
 315      C3299E52 
 315      03F50439 
 315      9A726BBA 
 316 0f7c 3E6EB52C 		.ascii	">n\265,7D:\346\235Y\311/\250\221\307\222k\005n\376@"
 316      37443AE6 
 316      9D59C92F 
 316      A891C792 
 316      6B056EFE 
 317 0f91 5CAE9BBF 		.ascii	"\\\256\233\277W\267\216X\015\360\247\011\325\362\017"
 317      57B78E58 
 317      0DF0A709 
 317      D5F20F
 318 0fa0 3367F6E7 		.ascii	"3g\366\347\243\377J\240\272L\363\246\004\374\\m\353"
 318      A3FF4AA0 
 318      BA4CF3A6 
 318      04FC5C6D 
 318      EB
 319 0fb1 F5270A9B 		.ascii	"\365'\012\233\"\341\366\350\237(\220?-\020\270%\003"
 319      22E1F6E8 
 319      9F28903F 
 319      2D10B825 
 319      03
ARM GAS  /tmp/ccfDNcA4.s 			page 25


 320 0fc2 F5A8CACD 		.ascii	"\365\250\312\315\222BR\344g\330p\007\327\332R\"I]\246"
 320      924252E4 
 320      67D87007 
 320      D7DA5222 
 320      495DA6
 321 0fd5 4772566F 		.ascii	"GrVo\222M\221\360\2458\311\343@\362]\015I\375\377\221"
 321      924D91F0 
 321      A538C9E3 
 321      40F25D0D 
 321      49FDFF91 
 322 0fe9 A8B369FE 		.ascii	"\250\263i\376GbNo\364H}\344\346\346\017\256\361\325"
 322      47624E6F 
 322      F4487DE4 
 322      E6E60FAE 
 322      F1D5
 323 0ffb AB6BC3B8 		.ascii	"\253k\303\270\216"
 323      8E
 324 1000 176375D4 		.ascii	"\027cu\324\334\241\255\203\200\314\325\005\231\361c"
 324      DCA1AD83 
 324      80CCD505 
 324      99F163
 325 100f 2B3FBB41 		.ascii	"+?\273A\376\031\377_\015\373\333\007\3656\315\333\007"
 325      FE19FF5F 
 325      0DFBDB07 
 325      F536CDDB 
 325      07
 326 1020 F8E97AE5 		.ascii	"\370\351z\345\013\373?\177\354$\377\3741\317\006\177"
 326      0BFB3F7F 
 326      EC24FFFC 
 326      31CF067F 
 327 1030 F4728776 		.ascii	"\364r\207v\264\247p\243\211\246tT\347\255e\201[i\240"
 327      B4A770A3 
 327      89A67454 
 327      E7AD6581 
 327      5B69A0
 328 1043 9D456AED 		.ascii	"\235Ej\355\374+\267R\336\024\216t\034^\376\357\370\215"
 328      FC2BB752 
 328      DE148E74 
 328      1C5EFEEF 
 328      F88D
 329 1055 38192B88 		.ascii	"8\031+\210\347\365\327Y\341>\321\266m\240nx\357\355"
 329      E7F5D759 
 329      E13ED1B6 
 329      6DA06E78 
 329      EFED
 330 1067 192C5BF5 		.ascii	"\031,[\365V \352\322\"\277\324\246\273\320\322\224\203"
 330      5620EAD2 
 330      22BFD4A6 
 330      BBD0D294 
 330      83
 331 1078 F7596D9A 		.ascii	"\367Ym\232\245\312E\262\324\302\371\311w\246\257\265"
 331      A5CA45B2 
 331      D4C2F9C9 
 331      77A6AFB5 
 332 1088 19DE8289 		.ascii	"\031\336\202\211\304VE\367\304{\247\243\015\357\371"
 332      C45645F7 
 332      C47BA7A3 
ARM GAS  /tmp/ccfDNcA4.s 			page 26


 332      0DEFF9
 333 1097 AEB0E195 		.ascii	"\256\260\341\225\325V\215\326\222b`:\253\264t\347\021"
 333      D5568DD6 
 333      9262603A 
 333      ABB474E7 
 333      11
 334 10a8 BAAB18E8 		.ascii	"\272\253\030\350V\207\027\265\251\377\354\352 P\300"
 334      568717B5 
 334      A9FFECEA 
 334      2050C0
 335 10b7 D7A61417 		.ascii	"\327\246\024\027\303K\333\250yB\273i0\207\012\254\221"
 335      C34BDBA8 
 335      7942BB69 
 335      30870AAC 
 335      91
 336 10c8 063BC202 		.ascii	"\006;\302\002\226`\276\373\016\015\326m\032L\315\354"
 336      9660BEFB 
 336      0E0DD66D 
 336      1A4CCDEC 
 337 10d8 3D1AEC14 		.ascii	"=\032\354\024\013X\202G\236\266\321`\247M\203\251\231"
 337      0B588247 
 337      9EB6D160 
 337      A74D83A9 
 337      99
 338 10e9 EDA2C1CE 		.ascii	"\355\242\301\316\262\200\351\3552\351}hS\023\371\325"
 338      B280E9ED 
 338      32E97D68 
 338      5313F9D5 
 339 10f9 361C1CD7 		.ascii	"6\034\034\327\330p\370[\007r\003\3107@\276\011r#\310"
 339      D870F85B 
 339      077203C8 
 339      3740BE09 
 339      7223C8
 340 110c 4D36D57C 		.ascii	"M6\325|\343\"pZ\026\347\2446\351d&&\207\353'\342\006"
 340      E322705A 
 340      16E7A436 
 340      E9642626 
 340      87EB27E2 
 341 1121 9211739D 		.ascii	"\222\021s\235\011\314p\253G\016/\246\300\246\337\311"
 341      09CC70AB 
 341      470E2FA6 
 341      C0A6DFC9 
 342 1131 02667867 		.ascii	"\002fxgB\016o\242\300f3\201\031>\354(\207\337\247\300"
 342      420E6FA2 
 342      C0663381 
 342      193EEC28 
 342      87DFA7C0 
 343 1145 5E6502F3 		.ascii	"^e\002\363\0333;O\201-d\002\233\315\353P\243l\201X\301"
 343      1B333B4F 
 343      812D6402 
 343      9BCDEB50 
 343      A36C8158 
 344 115a 72B08246 		.ascii	"r\260\202F\350\347\315 \267\200\334\012\262\031\344"
 344      E8E7CD20 
 344      B780DC0A 
 344      B219E4
 345 1169 7675FF2F 		.ascii	"vu\377/\277S\033\201\210c\245\260\343\036\2303\213\276"
ARM GAS  /tmp/ccfDNcA4.s 			page 27


 345      BF531B81 
 345      8863A5B0 
 345      E31E9833 
 345      8BBE
 346 117b 3E866EEC 		.ascii	">\206n\354\340w\241 \364/\334\266;\227\313d\204\017"
 346      E077A120 
 346      F42FDCB6 
 346      3B97CB64 
 346      840F
 347 118d E736CBB3 		.ascii	"\3476\313\263\303\317\213\374\022\250\027\327G\262\374"
 347      C3CF8BFC 
 347      12A817D7 
 347      47B2FC
 348 119c 4465C4CC 		.ascii	"De\304\314\225\020\330\364\222\374\251\240\330|,<\022"
 348      9510D8F4 
 348      92FCA9A0 
 348      D87C2C3C 
 348      12
 349 11ad E357BEFE 		.ascii	"\343W\276\376\375\012\016\222d$(Y3Wu6\331\225a\241d"
 349      FD0A0E92 
 349      64242859 
 349      33577536 
 349      D99561A1 
 350 11c2 75A39900 		.ascii	"u\243\231\000\031!J\206|\226W\006K4#\374 \2474\334\230"
 350      19214A86 
 350      7C965706 
 350      4B3423FC 
 350      20A734DC 
 351 11d7 8ECC27E4 		.ascii	"\216\314'\344B\002\266\212K\347\033\235o\330\324\\z"
 351      4202B68A 
 351      4BE71B9D 
 351      6FD8D45C 
 351      7A
 352 11e8 B45C3835 		.ascii	"\264\\85\023\370\276%!\017.\005\032u\251\320\330\372"
 352      13F8BE25 
 352      210F2E05 
 352      1A75A9D0 
 352      D8FA
 353 11fa 8BD34849 		.ascii	"\213\323HI\033\315\277,\2151)P\330\376\313R\340LS\350"
 353      1BCDBF2C 
 353      8D312950 
 353      D8FECB52 
 353      E04C53E8 
 354 120e F5122B9E 		.ascii	"\365\022+\236\031\033\315e[l\261\325\217\346*<\3135"
 354      191BCD65 
 354      5B6CB1D5 
 354      8FE62A3C 
 354      CB35
 355 1220 BA6A7FFC 		.ascii	"\272j\177\374*nLv\251\257\\\312v\373<\323\262=\322\224"
 355      2A6E4C76 
 355      A9AF5CCA 
 355      76FB3CD3 
 355      B23DD294 
 356 1234 6C77A977 		.ascii	"lw\251w\222\327\027\314\016\005*+^\310F\211R\261,\333"
 356      92D717CC 
 356      0E052A2B 
 356      5EC84689 
ARM GAS  /tmp/ccfDNcA4.s 			page 28


 356      52B12CDB 
 357 1248 EF0B8482 		.ascii	"\357\013\204\202\331E\305\343\207\345f\217\033\227\237"
 357      D945C5E3 
 357      87E5668F 
 357      1B979F
 358 1257 FD5461C1 		.ascii	"\375Ta\301\304)\271\331~\261\314UV\346\031R\312e\005"
 358      C429B9D9 
 358      7EB1CC55 
 358      56E61952 
 358      CA6505
 359 126a 43E5C372 		.ascii	"C\345\303r]\223\375^\237+d\177j\302\323\216<\356\276"
 359      5D93FD5E 
 359      9F2B647F 
 359      6AC2D38E 
 359      3CEEBE
 360 127d ECCA6020 		.ascii	"\354\312` [\014\224?\\\341\253\220\036\226\304I\336"
 360      5B0C943F 
 360      5CE1AB90 
 360      1E96C449 
 360      DE
 361 128e 6C6F85BB 		.ascii	"lo\205\273\254\322#e\007C\036oE\010]\230^\211\316\350"
 361      ACD22365 
 361      07431E6F 
 361      45085D98 
 361      5E89CEE8 
 362 12a2 CAD0F004 		.ascii	"\312\320\360\004\245\313E\304\252B\312vy\244\022\261"
 362      A5CB45C4 
 362      AA42CA76 
 362      79A412B1 
 363 12b2 B22CE40A 		.ascii	"\262,\344\012M\363KAtu\037\227+z\275m\374\304\3741N"
 363      4DF34B41 
 363      74751F97 
 363      2B7ABD6D 
 363      FCC4FC31 
 364 12c7 FBC4E2E7 		.ascii	"\373\304\342\347\012\3078\323&\026\025\216\031\223\357"
 364      0AC738D3 
 364      2616158E 
 364      1993EF
 365 12d6 B4153E5D 		.ascii	"\264\025>]\230\357\264\024\240cb\276\223\177\006j\313"
 365      98EFB414 
 365      A06362BE 
 365      937F066A 
 365      CB
 366 12e7 79C41552 		.ascii	"y\304\025R.\304IKP\012\331\334e\222\030\340\307ZG\027"
 366      2EC4494B 
 366      500AD9DC 
 366      659218E0 
 366      C75A4717 
 367 12fb 399DD671 		.ascii	"9\235\326qy\177tZG=\351\034\207\305X\313h\2473\335\353"
 367      797F745A 
 367      473DE91C 
 367      87C558CB 
 367      68A733DD 
 368 1310 2BF77924 		.ascii	"+\367y$W(}\222O\014x\206\270\271,\227\013]Q6\315\345"
 368      57287D92 
 368      4F0C7886 
 368      B8B92C97 
ARM GAS  /tmp/ccfDNcA4.s 			page 29


 368      0B5D5136 
 369 1326 ADF0866C 		.ascii	"\255\360\206l\256\321>_\331#,\232\2145\251\334\355\012"
 369      AED13E5F 
 369      D9232C9A 
 369      8C35A9DC 
 369      ED0A
 370 1338 FABDA80D 		.ascii	"\372\275\250\015\031\343\307\347\345\007\274S\244@V"
 370      19E3C7E7 
 370      E507BC53 
 370      A44056
 371 1347 2CF5A7F1 		.ascii	",\365\247\361\305\231\336 \302\016J\201\220\344\311"
 371      C599DE20 
 371      C20E4A81 
 371      90E4C9
 372 1356 42697FC0 		.ascii	"Bi\177\300\027\222\334\350K\232\333WQ\201R}<\336\240"
 372      1792DCE8 
 372      4B9ADB57 
 372      5181527D 
 372      3CDEA0
 373 1369 924CC36D 		.ascii	"\222L\303m\031\341\012e\220V\241\2245 \211\036\333\324"
 373      19E10A65 
 373      9056A194 
 373      3520891E 
 373      DBD4
 374 137b 80372459 		.ascii	"\2007$Y\203\323*\334\2777\303\015\245]^\337\2442\237"
 374      83D32ADC 
 374      BF37C30D 
 374      A55D5EDF 
 374      A4329F
 375 138e FB05C4AF 		.ascii	"\373\005\304\257\337h\234\310\227\246x\335RAE\211/}"
 375      DF689CC8 
 375      97A678DD 
 375      52414589 
 375      2F7D
 376 13a0 52D90BAE 		.ascii	"R\331\013\256\240\367\277\2444\234\250\250,O\237,\205"
 376      A0F7BFA4 
 376      349CA8A8 
 376      2C4F9F2C 
 376      85
 377 13b1 10D5129F 		.ascii	"\020\325\022\237eJy\250\017\312\014\206\304\020\322"
 377      654A79A8 
 377      0FCA0C86 
 377      C410D2
 378 13c0 559FD1E3 		.ascii	"U\237\321\343\376\350zzB\301\204\202\342t\234,*\236"
 378      FEE87A7A 
 378      42C18482 
 378      E2749C2C 
 378      2A9E
 379 13d2 580879A3 		.ascii	"X\010y\243\362\212\013\3764\246/N\346M\2340a\014\372"
 379      F28A0BFE 
 379      34A62F4E 
 379      E64D9C30 
 379      610CFA
 380 13e5 3AE1A901 		.ascii	":\341\251\001\370k~AQ<'\003\3478\307\214\312\177.3\232"
 380      F86B7E41 
 380      513C2703 
 380      E738C78C 
ARM GAS  /tmp/ccfDNcA4.s 			page 30


 380      CA7F2E33 
 381 13fa 42B9907E 		.ascii	"B\271\220~\306YP\034M\027=7!\017\245mP\253\305\355\365"
 381      C659501C 
 381      4D173D37 
 381      210FA56D 
 381      50ABC5ED 
 382 140f 58DC414F 		.ascii	"X\334AO\272[\364\213nohZ~*\346]TX0%'\033u\217b\335\031"
 382      BA5BF48B 
 382      6E6F685A 
 382      7E2AE65D 
 382      54583025 
 383 142a 2883744C 		.ascii	"(\203tL\256\031=\222\376\355\203NQ\215 \234\250Fp\022"
 383      AE193D92 
 383      FEED834E 
 383      518D209C 
 383      A8467012 
 384 143e 6B046393 		.ascii	"k\004c\223V\302\257D7Y8\2317q|\341\2701\305c~\205\000"
 384      56C2AF44 
 384      37593899 
 384      37717CE1 
 384      B831C563 
 385 1455 DC6259D9 		.ascii	"\334bY\331$\321\375\002\032\\R\205\307\345\236\324\307"
 385      24D1FD02 
 385      1A5C5285 
 385      C7E59ED4 
 385      C7
 386 1466 EBC3ACBD 		.ascii	"\353\303\254\275\036\224\023\014\342\244\015\235D\324"
 386      1E94130C 
 386      E2A40D9D 
 386      44D4
 387 1474 F8400E86 		.ascii	"\370@\016\206\314\363U\224x'\333\335p\032\221\214u "
 387      CCF35594 
 387      7827DBDD 
 387      701A918C 
 387      7520
 388 1486 1423ED2E 		.ascii	"\024#\355.\015N\013F\307Wz\250\024\033\022\262,w\251"
 388      0D4E0B46 
 388      C7577AA8 
 388      141B12B2 
 388      2C77A9
 389 1499 8BA4879B 		.ascii	"\213\244\207\233\303r\227b\005\332\375\256\012\251*"
 389      C3729762 
 389      05DAFDAE 
 389      0AA92A
 390 14a8 844EFE80 		.ascii	"\204N\376\2004e,\003\004\351\222Q\316\361y\343\253P"
 390      34652C03 
 390      04E99251 
 390      CEF179E3 
 390      AB50
 391 14ba C972BFB7 		.ascii	"\311r\277\267L\012\004\263\237\312\313C\305\243\364"
 391      4C0A04B3 
 391      9FCACB43 
 391      C5A3F4
 392 14c9 D242FE00 		.ascii	"\322B\376\0008\034\214\353\365\341\221\021B\325<f\032"
 392      381C8CEB 
 392      F5E19111 
 392      42D53C66 
ARM GAS  /tmp/ccfDNcA4.s 			page 31


 392      1A
 393 14da BFD4ED0B 		.ascii	"\277\324\355\013H\0100\023g#[\016\271CU\377\231\032"
 393      48083013 
 393      67235B0E 
 393      B94355FF 
 393      991A
 394 14ec 8A6BCAA3 		.ascii	"\212k\312\243\345Xs\001i2rf\330\275\344<\202\216G\321"
 394      E5587301 
 394      69327266 
 394      D8BDE43C 
 394      828E47D1 
 395 1500 31021D8F 		.ascii	"1\002\035\217Y\202\271C\321\221\203\216\\t\014C\307"
 395      5982B943 
 395      D191838E 
 395      5C740C43 
 395      C7
 396 1511 7074FC0E 		.ascii	"pt\374\016\035\250\\.*\227\213\312\345\242r\303P\271"
 396      1DA85C2E 
 396      2A978BCA 
 396      E5A272C3 
 396      50B9
 397 1523 61394260 		.ascii	"a9B`\270\020\370\235\020xD\010<*\004F\010\201\307,\201"
 397      B810F89D 
 397      10784408 
 397      3C2A0446 
 397      0881C72C 
 398 1538 9CA1E8C8 		.ascii	"\234\241\350\310\021\312\002\3504\314\346w!\266iX\303"
 398      11CA02E8 
 398      34CCE677 
 398      21B66958 
 398      C3
 399 1549 53A5003A 		.ascii	"S\245\000:\373\312<R\300\352.\025\003X\355b\271\224"
 399      FBCA3C52 
 399      C0EA2E15 
 399      0358ED62 
 399      B994
 400 155b 1E52EC0F 		.ascii	"\036R\354\017\375\010\251\264\020\361f\350{I\23189\230"
 400      FD08A9B4 
 400      10F166E8 
 400      7B499938 
 400      3998
 401 156d 160A4825 		.ascii	"\026\012H%A\320#N\330\312\203\223\321\217\212cENEI\331"
 401      41D0234E 
 401      D8CA8393 
 401      D18F8A63 
 401      454E4549 
 402 1582 039E69E8 		.ascii	"\003\236i\350\247t\251\312\033Bj\221\354SC\276I\177"
 402      A774A9CA 
 402      1B426A91 
 402      EC5343BE 
 402      497F
 403 1594 F6674A53 		.ascii	"\366gJS\244\212P\271\030\004\353\234\212\023\026\277"
 403      A48A50B9 
 403      1804EB9C 
 403      8A1316BF 
 404 15a4 ABB22FB1 		.ascii	"\253\262/\261\227\240\253\014\231\277+\324/fA$'\303"
 404      97A0AB0C 
ARM GAS  /tmp/ccfDNcA4.s 			page 32


 404      99BF2BD4 
 404      2F664124 
 404      27C3
 405 15b6 EF9A2A7A 		.ascii	"\357\232*zC\336\212\311\375\242\331\177\251\224*\021"
 405      43DE8AC9 
 405      FDA2D97F 
 405      A9942A11 
 406 15c6 ABFE5449 		.ascii	"\253\376TI\310\352\343w\241j!i\203$\312\220\374h\034"
 406      C8EAE377 
 406      A16A2169 
 406      8324CA90 
 406      FC681C
 407 15d9 A08B6DE5 		.ascii	"\240\213m\345\225\250\313\207\2312\312\362P\0256\236"
 407      95A8CB87 
 407      9932CAF2 
 407      5015369E 
 408 15e9 72828ECE 		.ascii	"r\202\216\316\276\251\025Hs\200\204\232P\016\266\212"
 408      BEA91548 
 408      7380849A 
 408      500EB68A 
 409 15f9 F8A17298 		.ascii	"\370\241r\230i\037\254\025\261\014,\014e\372\221\253"
 409      691FAC15 
 409      B10C2C0C 
 409      65FA91AB 
 410 1609 7FD4547D 		.ascii	"\177\324T}JcP\235\003\225\361\204\264,\005\244\0127"
 410      4A63509D 
 410      0395F184 
 410      B42C05A4 
 410      0A37
 411 161b 6AAD9D64 		.ascii	"j\255\235d\375!\031\"\242\224\2357\276\250\240\010\371"
 411      FD211922 
 411      A2949D37 
 411      BEA8A008 
 411      F9
 412 162c A96C88B6 		.ascii	"\251l\210\266%\303\207\346T\201\325boQ\214\306D\276"
 412      25C387E6 
 412      5481D562 
 412      6F518CC6 
 412      44BE
 413 163e 5462C973 		.ascii	"Tb\311s\346\240#W(r\012(\376\3459\363\012\235v\347\263"
 413      E6A02357 
 413      28720A28 
 413      FEE539F3 
 413      0A9D76E7 
 414 1653 E8ECB417 		.ascii	"\350\354\264\027\303)\255 \267(\357\311\247\2346t.t"
 414      C329AD20 
 414      B728EFC9 
 414      A79C3674 
 414      2E74
 415 1665 5A907379 		.ascii	"Z\220sy\322\254\217\004\371\344\360\252*B\304\345)\027"
 415      D2AC8F04 
 415      F9E4F0AA 
 415      2A42C4E5 
 415      2917
 416 1677 71E3F2C7 		.ascii	"q\343\362\307\217r\025!S\022\313\243l\204<\247uB~\261"
 416      8F721521 
 416      5312CBA3 
ARM GAS  /tmp/ccfDNcA4.s 			page 33


 416      6C843CA7 
 416      75427EB1 
 417 168b D35238CA 		.ascii	"\323R8\312i\035?\024\213\234QN\313\223\210L\020\012"
 417      691D3F14 
 417      8B9C514E 
 417      CB93884C 
 417      100A
 418 169d 5ABD25EE 		.ascii	"Z\275%\356\200\335\033,\365\226\2042\202RY\211\267\302"
 418      80DD1B2C 
 418      F5968432 
 418      82525989 
 418      B7C2
 419 16af 2355D9A7 		.ascii	"#U\331\247\240\240\346\013\014\214\241\273Hi\024\345"
 419      A0A0E60B 
 419      0C8CA1BB 
 419      486914E5 
 420 16bf D1974015 		.ascii	"\321\227@\025\226\241\252\214@\025:cK\316\010ESV\324"
 420      96A1AA8C 
 420      40153A63 
 420      4BCE0845 
 420      5356D4
 421 16d2 1CBFAD2C 		.ascii	"\034\277\255,\350.\231l+\305\022GW\342\013\373A@s\211"
 421      E82E996C 
 421      2BC51247 
 421      57E20BFB 
 421      41407389 
 422 16e6 1E4F400A 		.ascii	"\036O@\012\006\245\340 \034\202\221\177w\241\340\352"
 422      06A5E020 
 422      1C82917F 
 422      77A1E0EA 
 423 16f6 46413D16 		.ascii	"FA=\026m\255\350\007\377\335\324\257\020F\343\0018\003"
 423      6DADE807 
 423      FFDDD4AF 
 423      1046E301 
 423      3803
 424 1708 E6000528 		.ascii	"\346\000\005(\356\233\016.q\305\225\306\246N\375I+\335"
 424      EE9B0E2E 
 424      71C595C6 
 424      A64EFD49 
 424      2BDD
 425 171a C00ECF26 		.ascii	"\300\016\317&\262\210k'\003\352.\2272\311r\241i\312"
 425      B2886B27 
 425      03EA2E97 
 425      32C972A1 
 425      69CA
 426 172c E480AFD2 		.ascii	"\344\200\257\322\217\2339\220\232n\241\374J?\322\014"
 426      8F9B3990 
 426      9A6EA1FC 
 426      4A3FD20C 
 427 173c CE0FD87D 		.ascii	"\316\017\330}\3307\006\322|A\277$y\0026\177\245\337"
 427      D83706D2 
 427      7C41BF24 
 427      7902367F 
 427      A5DF
 428 174e 13B0F83C 		.ascii	"\023\260\370<\001\253X\022(\303\242\324^8*_\014\211"
 428      01AB5812 
 428      28C3A2D4 
ARM GAS  /tmp/ccfDNcA4.s 			page 34


 428      5E382A5F 
 428      0C89
 429 1760 F6C2D1E4 		.ascii	"\366\302\321\344\224GN\371\3444\206\234\306\342SF\341"
 429      94474EF9 
 429      E434869C 
 429      C6E25346 
 429      E1
 430 1771 A8714477 		.ascii	"\250qDw\0031\211\350\344\213\304\224\273\207\004|\036"
 430      033189E8 
 430      E48BC494 
 430      BB87047C 
 430      1E
 431 1782 546848EF 		.ascii	"ThH\357\237\376\017|%\343\021"
 431      9FFE0F7C 
 431      25E311
 432              		.text
 433              		.section	.gnu.lto_.symtab.fd75a0704f9ba4ec,"",%progbits
 434 0000 5F5F6561 		.ascii	"__early_init\000\000\000\000\000\000\000\000\000\000"
 434      726C795F 
 434      696E6974 
 434      00000000 
 434      00000000 
 435 0016 0000DB00 		.ascii	"\000\000\333\000\000\000mmc_lld_is_card_inserted\000"
 435      00006D6D 
 435      635F6C6C 
 435      645F6973 
 435      5F636172 
 436 0035 00000000 		.ascii	"\000\000\000\000\000\000\000\000\000\000\000\337\000"
 436      00000000 
 436      000000DF 
 436      00
 437 0042 00006D6D 		.ascii	"\000\000mmc_lld_is_write_protected\000\000\000\000\000"
 437      635F6C6C 
 437      645F6973 
 437      5F777269 
 437      74655F70 
 438 0063 00000000 		.ascii	"\000\000\000\000\000\000\000\206\002\000\000boardIn"
 438      00000086 
 438      02000062 
 438      6F617264 
 438      496E
 439 0075 69740000 		.ascii	"it\000\000\000\000\000\000\000\000\000\000\000\000\212"
 439      00000000 
 439      00000000 
 439      00008A
 440 0084 02000070 		.ascii	"\002\000\000pal_default_config\000\000\000\000\000\000"
 440      616C5F64 
 440      65666175 
 440      6C745F63 
 440      6F6E6669 
 441 009f 00000000 		.ascii	"\000\000\000\000\000\000\230\002\000\000stm32_clock"
 441      00009802 
 441      00007374 
 441      6D33325F 
 441      636C6F63 
 442 00b4 5F696E69 		.ascii	"_init\000\000\002\000\000\000\000\000\000\000\000\000"
 442      74000002 
ARM GAS  /tmp/ccfDNcA4.s 			page 35


 442      00000000 
 442      00000000 
 442      00
 443 00c5 8D020000 		.ascii	"\215\002\000\000_pal_lld_setgroupmode\000\000\002\000"
 443      5F70616C 
 443      5F6C6C64 
 443      5F736574 
 443      67726F75 
 444 00e2 00000000 		.ascii	"\000\000\000\000\000\000\000\000\217\002\000\000"
 444      00000000 
 444      8F020000 
 445              		.text
 446              		.section	.gnu.lto_.opts,"",%progbits
 447 0000 272D6D63 		.ascii	"'-mcpu=cortex-m4' '-mfloat-abi=hard' '-mfpu=fpv4-sp"
 447      70753D63 
 447      6F727465 
 447      782D6D34 
 447      2720272D 
 448 0033 2D643136 		.ascii	"-d16' '-mno-thumb-interwork' '-mthumb' '-O2' '-fomi"
 448      2720272D 
 448      6D6E6F2D 
 448      7468756D 
 448      622D696E 
 449 0066 742D6672 		.ascii	"t-frame-pointer' '-falign-functions=16' '-ffunction"
 449      616D652D 
 449      706F696E 
 449      74657227 
 449      20272D66 
 450 0099 2D736563 		.ascii	"-sections' '-fdata-sections' '-fno-common' '-flto' "
 450      74696F6E 
 450      73272027 
 450      2D666461 
 450      74612D73 
 451 00cc 272D6673 		.ascii	"'-fsingle-precision-constant'\000"
 451      696E676C 
 451      652D7072 
 451      65636973 
 451      696F6E2D 
 452              		.text
 453              		.section	.text.__early_init,"ax",%progbits
 454              		.align	2
 455              		.p2align 4,,15
 456              		.global	__early_init
 457              		.thumb
 458              		.thumb_func
 459              		.type	__early_init, %function
 460              	__early_init:
 461              		@ args = 0, pretend = 0, frame = 0
 462              		@ frame_needed = 0, uses_anonymous_args = 0
 463              		@ link register save eliminated.
 464 0000 FFF7FEBF 		b	stm32_clock_init
 465              		.size	__early_init, .-__early_init
 466 0004 AFF30080 		.section	.text.mmc_lld_is_card_inserted,"ax",%progbits
 466      AFF30080 
 466      AFF30080 
 467              		.align	2
 468              		.p2align 4,,15
ARM GAS  /tmp/ccfDNcA4.s 			page 36


 469              		.global	mmc_lld_is_card_inserted
 470              		.thumb
 471              		.thumb_func
 472              		.type	mmc_lld_is_card_inserted, %function
 473              	mmc_lld_is_card_inserted:
 474              		@ args = 0, pretend = 0, frame = 0
 475              		@ frame_needed = 0, uses_anonymous_args = 0
 476              		@ link register save eliminated.
 477 0000 024B     		ldr	r3, .L3
 478 0002 1869     		ldr	r0, [r3, #16]
 479 0004 C0F38000 		ubfx	r0, r0, #2, #1
 480 0008 7047     		bx	lr
 481              	.L4:
 482 000a 00BF     		.align	2
 483              	.L3:
 484 000c 000C0240 		.word	1073875968
 485              		.size	mmc_lld_is_card_inserted, .-mmc_lld_is_card_inserted
 486              		.section	.text.mmc_lld_is_write_protected,"ax",%progbits
 487              		.align	2
 488              		.p2align 4,,15
 489              		.global	mmc_lld_is_write_protected
 490              		.thumb
 491              		.thumb_func
 492              		.type	mmc_lld_is_write_protected, %function
 493              	mmc_lld_is_write_protected:
 494              		@ args = 0, pretend = 0, frame = 0
 495              		@ frame_needed = 0, uses_anonymous_args = 0
 496              		@ link register save eliminated.
 497 0000 0020     		movs	r0, #0
 498 0002 7047     		bx	lr
 499              		.size	mmc_lld_is_write_protected, .-mmc_lld_is_write_protected
 500 0004 AFF30080 		.section	.text.boardInit,"ax",%progbits
 500      AFF30080 
 500      AFF30080 
 501              		.align	2
 502              		.p2align 4,,15
 503              		.global	boardInit
 504              		.thumb
 505              		.thumb_func
 506              		.type	boardInit, %function
 507              	boardInit:
 508              		@ args = 0, pretend = 0, frame = 0
 509              		@ frame_needed = 0, uses_anonymous_args = 0
 510 0000 70B5     		push	{r4, r5, r6, lr}
 511 0002 274E     		ldr	r6, .L7
 512 0004 274C     		ldr	r4, .L7+4
 513 0006 284D     		ldr	r5, .L7+8
 514 0008 3046     		mov	r0, r6
 515 000a 4FF40041 		mov	r1, #32768
 516 000e 1922     		movs	r2, #25
 517 0010 FFF7FEFF 		bl	_pal_lld_setgroupmode
 518 0014 2548     		ldr	r0, .L7+12
 519 0016 0421     		movs	r1, #4
 520 0018 2022     		movs	r2, #32
 521 001a FFF7FEFF 		bl	_pal_lld_setgroupmode
 522 001e 2046     		mov	r0, r4
 523 0020 4FF48061 		mov	r1, #1024
ARM GAS  /tmp/ccfDNcA4.s 			page 37


 524 0024 40F29A22 		movw	r2, #666
 525 0028 FFF7FEFF 		bl	_pal_lld_setgroupmode
 526 002c 2046     		mov	r0, r4
 527 002e 4FF48051 		mov	r1, #4096
 528 0032 40F29A22 		movw	r2, #666
 529 0036 FFF7FEFF 		bl	_pal_lld_setgroupmode
 530 003a 2046     		mov	r0, r4
 531 003c 4FF40061 		mov	r1, #2048
 532 0040 40F28222 		movw	r2, #642
 533 0044 FFF7FEFF 		bl	_pal_lld_setgroupmode
 534 0048 2046     		mov	r0, r4
 535 004a 4021     		movs	r1, #64
 536 004c 40F28232 		movw	r2, #898
 537 0050 FFF7FEFF 		bl	_pal_lld_setgroupmode
 538 0054 2046     		mov	r0, r4
 539 0056 8021     		movs	r1, #128
 540 0058 40F28232 		movw	r2, #898
 541 005c FFF7FEFF 		bl	_pal_lld_setgroupmode
 542 0060 2846     		mov	r0, r5
 543 0062 4021     		movs	r1, #64
 544 0064 40F28232 		movw	r2, #898
 545 0068 FFF7FEFF 		bl	_pal_lld_setgroupmode
 546 006c 2846     		mov	r0, r5
 547 006e 8021     		movs	r1, #128
 548 0070 40F28232 		movw	r2, #898
 549 0074 FFF7FEFF 		bl	_pal_lld_setgroupmode
 550 0078 3046     		mov	r0, r6
 551 007a 0421     		movs	r1, #4
 552 007c 40F28232 		movw	r2, #898
 553 0080 FFF7FEFF 		bl	_pal_lld_setgroupmode
 554 0084 3046     		mov	r0, r6
 555 0086 0821     		movs	r1, #8
 556 0088 40F28232 		movw	r2, #898
 557 008c FFF7FEFF 		bl	_pal_lld_setgroupmode
 558 0090 2846     		mov	r0, r5
 559 0092 0821     		movs	r1, #8
 560 0094 1922     		movs	r2, #25
 561 0096 BDE87040 		pop	{r4, r5, r6, lr}
 562 009a FFF7FEBF 		b	_pal_lld_setgroupmode
 563              	.L8:
 564 009e 00BF     		.align	2
 565              	.L7:
 566 00a0 00000240 		.word	1073872896
 567 00a4 00080240 		.word	1073874944
 568 00a8 00040240 		.word	1073873920
 569 00ac 000C0240 		.word	1073875968
 570              		.size	boardInit, .-boardInit
 571              		.global	pal_default_config
 572              		.section	.rodata.pal_default_config,"a",%progbits
 573              		.align	2
 574              		.type	pal_default_config, %object
 575              		.size	pal_default_config, 168
 576              	pal_default_config:
 577 0000 A004802A 		.word	713032864
 578 0004 00000000 		.word	0
 579 0008 AFFBFFFF 		.word	-1105
 580 000c 05511564 		.word	1679118597
ARM GAS  /tmp/ccfDNcA4.s 			page 38


 581 0010 DFFF0000 		.word	65503
 582 0014 00770000 		.word	30464
 583 0018 00A00A00 		.word	696320
 584 001c 80000000 		.word	128
 585 0020 00000000 		.word	0
 586 0024 FFFFFFFF 		.word	-1
 587 0028 55555555 		.word	1431655765
 588 002c FFFF0000 		.word	65535
 589 0030 00000000 		.word	0
 590 0034 00000000 		.word	0
 591 0038 00000000 		.word	0
 592 003c 00000000 		.word	0
 593 0040 FFFFFFFF 		.word	-1
 594 0044 55555551 		.word	1364546901
 595 0048 FFFF0000 		.word	65535
 596 004c 00000000 		.word	0
 597 0050 00000000 		.word	0
 598 0054 00000000 		.word	0
 599 0058 00000000 		.word	0
 600 005c FFFFFFFF 		.word	-1
 601 0060 55555555 		.word	1431655765
 602 0064 FFFF0000 		.word	65535
 603 0068 00000000 		.word	0
 604 006c 00000000 		.word	0
 605 0070 00000000 		.word	0
 606 0074 00000000 		.word	0
 607 0078 FFFFFFFF 		.word	-1
 608 007c 45000000 		.word	69
 609 0080 FFFF0000 		.word	65535
 610 0084 00000000 		.word	0
 611 0088 00000000 		.word	0
 612 008c 00000000 		.word	0
 613 0090 00000000 		.word	0
 614 0094 FFFFFFFF 		.word	-1
 615 0098 00000000 		.word	0
 616 009c FFFF0000 		.word	65535
 617 00a0 00000000 		.word	0
 618 00a4 00000000 		.word	0
 619              		.comm	__gnu_lto_v1,1,1
 620              		.ident	"GCC: (GNU Tools for ARM Embedded Processors) 4.8.4 20140526 (release) [ARM/embedded-4_8-br
ARM GAS  /tmp/ccfDNcA4.s 			page 39


DEFINED SYMBOLS
                            *ABS*:0000000000000000 board.c
     /tmp/ccfDNcA4.s:454    .text.__early_init:0000000000000000 $t
     /tmp/ccfDNcA4.s:460    .text.__early_init:0000000000000000 __early_init
     /tmp/ccfDNcA4.s:467    .text.mmc_lld_is_card_inserted:0000000000000000 $t
     /tmp/ccfDNcA4.s:473    .text.mmc_lld_is_card_inserted:0000000000000000 mmc_lld_is_card_inserted
     /tmp/ccfDNcA4.s:484    .text.mmc_lld_is_card_inserted:000000000000000c $d
     /tmp/ccfDNcA4.s:487    .text.mmc_lld_is_write_protected:0000000000000000 $t
     /tmp/ccfDNcA4.s:493    .text.mmc_lld_is_write_protected:0000000000000000 mmc_lld_is_write_protected
     /tmp/ccfDNcA4.s:501    .text.boardInit:0000000000000000 $t
     /tmp/ccfDNcA4.s:507    .text.boardInit:0000000000000000 boardInit
     /tmp/ccfDNcA4.s:566    .text.boardInit:00000000000000a0 $d
     /tmp/ccfDNcA4.s:576    .rodata.pal_default_config:0000000000000000 pal_default_config
     /tmp/ccfDNcA4.s:573    .rodata.pal_default_config:0000000000000000 $d
                            *COM*:0000000000000001 __gnu_lto_v1

UNDEFINED SYMBOLS
stm32_clock_init
_pal_lld_setgroupmode
