ARM GAS  /tmp/ccEpvBvh.s 			page 1


   1              		.syntax unified
   2              		.cpu cortex-m4
   3              		.eabi_attribute 27, 3
   4              		.eabi_attribute 28, 1
   5              		.fpu fpv4-sp-d16
   6              		.eabi_attribute 20, 1
   7              		.eabi_attribute 21, 1
   8              		.eabi_attribute 23, 3
   9              		.eabi_attribute 24, 1
  10              		.eabi_attribute 25, 1
  11              		.eabi_attribute 26, 1
  12              		.eabi_attribute 30, 2
  13              		.eabi_attribute 34, 1
  14              		.eabi_attribute 18, 4
  15              		.thumb
  16              		.file	"board.c"
  17              		.section	.gnu.lto_.jmpfuncs.5aaaa7388a2d381e,"",%progbits
  18 0000 789C85D1 		.ascii	"x\234\205\3211\016\200 \014\005\320\266\026etu\363("
  18      310E8020 
  18      0C05D0B6 
  18      16657475 
  18      F328
  19 0012 4C9EC12B 		.ascii	"L\236\301+x\213\306\311\321\321xZ\211Qd\370\215$$@_"
  19      788BC6C9 
  19      D1D1785A 
  19      895164F8 
  19      8D242440 
  20 0027 28E10B09 		.ascii	"(\341\013\011\2411=\307m\236\234MC\215\314\2740\331"
  20      A1313DC7 
  20      6D9E9C4D 
  20      438DCCBC 
  20      30D9
  21 0039 B69912DD 		.ascii	"\266\231\022\335\033\036\237\205\014\004\353\021\324"
  21      1B1E9F85 
  21      0C04EB11 
  21      D4
  22 0046 ADAA9BBC 		.ascii	"\255\252\233\274`\325O\354\265P$\352\036\351\017\030"
  22      60D54FEC 
  22      B55024EA 
  22      1EE90F18 
  23 0056 2361E899 		.ascii	"#a\350\231k\207\201\"\340\364pDB`\307WD,\322\037\260"
  23      6B878122 
  23      E0F47044 
  23      4260C757 
  23      442CD21F 
  24 006b BE88E088 		.ascii	"\276\210\340\210\222\330\351\211\210\304\201>ctB\375"
  24      92D8E989 
  24      88C4813E 
  24      637442FD 
  25 007b 52CDB12B 		.ascii	"R\315\261+\007\246\013\300\337Y8"
  25      07A60BC0 
  25      DF5938
  26              		.text
  27              		.section	.gnu.lto_.inline.5aaaa7388a2d381e,"",%progbits
  28 0000 789C6362 		.ascii	"x\234cb`b\300\006\374\030!4\033\003\003\013\017#X\021"
  28      6062C006 
  28      FC182134 
ARM GAS  /tmp/ccEpvBvh.s 			page 2


  28      1B03030B 
  28      0F235811 
  29 0014 DB0279B0 		.ascii	"\333\002y\260ZF.\020\301\300\316\006\024\3468`\007\027"
  29      5A462E10 
  29      C1C0CE06 
  29      14E63860 
  29      0717
  30 0026 67626066 		.ascii	"gb`fBU\311\314p\234\341>#\252\030\013/H|\020\320\014"
  30      4255C9CC 
  30      709CE13E 
  30      23AA180B 
  30      2F487C10 
  31 003c ECAC8CCC 		.ascii	"\354\254\214\314\014\031\021\214\231\214 >C:\234\005"
  31      0C19118C 
  31      998C203E 
  31      433A9C05 
  32 004c F23A2BCC 		.ascii	"\362:+\314\311,\013\344\005\030\230\216pr00\365\260"
  32      C92C0BE4 
  32      0518988E 
  32      70723030 
  32      F5B0
  33 005e B13080A5 		.ascii	"\2610\200\245\310\325\311\000\000\266%\022\263"
  33      C8D5C900 
  33      00B62512 
  33      B3
  34              		.text
  35              		.section	.gnu.lto_.pureconst.5aaaa7388a2d381e,"",%progbits
  36 0000 789C6362 		.ascii	"x\234cb`b\340e\200\0006\006\011F)&\006f\011\026)V)\000"
  36      6062E065 
  36      80003606 
  36      09462926 
  36      06660916 
  37 0018 04F000A5 		.ascii	"\004\360\000\245"
  38              		.text
  39              		.section	.gnu.lto___early_init.5aaaa7388a2d381e,"",%progbits
  40 0000 789C6362 		.ascii	"x\234cb`b@\007\222@\\\015\304\\@\314\310\314\300\310"
  40      60624007 
  40      92405C0D 
  40      C45C40CC 
  40      C8CCC0C8 
  41 0014 34E11C03 		.ascii	"4\341\034\003C#\007\023##\210\301\300\310P\317\304X"
  41      43230713 
  41      232388C1 
  41      C0C850CF 
  41      C458
  42 0026 1FC90856 		.ascii	"\037\311\010V\273\236\351\300\203\377\377\327m9\266"
  42      BB9EE9C0 
  42      83FFFFD7 
  42      6D39B6
  43 0035 600E2350 		.ascii	"`\016#P-\003\003+CKC\303\004\005\006\206d\260\202\020"
  43      2D03032B 
  43      434B43C3 
  43      04050686 
  43      64B08210 
  44 0049 2009D215 		.ascii	" \011\322\025\312\310\004\242\231\31734?\230\375\230"
  44      CAC804A2 
  44      99CF3334 
ARM GAS  /tmp/ccEpvBvh.s 			page 3


  44      3F98FD98 
  45 0059 2B917121 		.ascii	"+\221q!#+\330\232_\015\035\015\002\231\214@\345\020"
  45      232BD89A 
  45      5F0D1D0D 
  45      02998C40 
  45      E510
  46 006b 033341F4 		.ascii	"\0033A\364E\206\306\007s\224a\212  \004(\0014\001\344"
  46      4586C607 
  46      7394618A 
  46      20200428 
  46      013401E4 
  47 007f 5C8EA4FC 		.ascii	"\\\216\244\374\304\242\024\275d\006\000\372\352$k"
  47      C4A214BD 
  47      640600FA 
  47      EA246B
  48              		.text
  49              		.section	.gnu.lto_mmc_lld_is_card_inserted.5aaaa7388a2d381e,"",%progbits
  50 0000 789C5D4F 		.ascii	"x\234]O-\213BQ\020=g\356\273\"\206\3556\273\340\257"
  50      2D8B4251 
  50      103D67EE 
  50      BB2286ED 
  50      36BBE0AF 
  51 0014 716137FA 		.ascii	"qa7\372\001b\022\374\003^\321`|qY\213[\015\012\326-"
  51      016212FC 
  51      035ED160 
  51      7C71598B 
  51      5B0D0AD6 
  52 0029 623129DA 		.ascii	"b1)\332D\014\376\012\261\351\314}<\203\003\347\314\300"
  52      440CFE0A 
  52      B1E9CC7D 
  52      3C8303E7 
  52      CCC0
  53 003b 998F3302 		.ascii	"\231\2173\002\301{\224\0257EIA\007J\272\007\206E!\255"
  53      C17B9415 
  53      37454941 
  53      074ABA07 
  53      864521AD 
  54 004f 0031100E 		.ascii	"\0001\020\016\276\031{\227\262\276>\036\213\325vv!\013"
  54      BE197B97 
  54      B2BE3E1E 
  54      8BD57676 
  54      210B
  55 0061 822EE18C 		.ascii	"\202.\341\214\022#\257dm\036\343\020\322\012\320\212"
  55      1223AF64 
  55      6D1EE310 
  55      D20AD08A 
  56 0071 437565DB 		.ascii	"Cue\333\364I\261\354v\330\234\357\267\003\033\374\243"
  56      F449B1EC 
  56      76D89CEF 
  56      B7031BFC 
  56      A3
  57 0082 478752C5 		.ascii	"G\207R\305<\214\331\245L\361\253\311})%\341g\022\022"
  57      3C8CD9A5 
  57      4CF1ABC9 
  57      7D2925E1 
  57      671212
  58 0095 C4325E6E 		.ascii	"\3042^n2\367\273\303h\341\362a\247\363\326\344%S\376"
ARM GAS  /tmp/ccEpvBvh.s 			page 4


  58      32F7BBC3 
  58      68E1F261 
  58      A7F3D6E4 
  58      2553FE
  59 00a8 5F4AD2C9 		.ascii	"_J\322\3116\201\231r\032}\344\222W5J\026G\274\234\370"
  59      36819972 
  59      1A7DE492 
  59      57354A16 
  59      47BC9CF8 
  60 00bc EC405DBF 		.ascii	"\354@]\277P\243\266\261\330\3545\372\355Z\013OI\316"
  60      50A3B6B1 
  60      D8EC35FA 
  60      ED5A0B4F 
  60      49CE
  61 00ce 3975     		.ascii	"9u"
  62              		.text
  63              		.section	.gnu.lto_mmc_lld_is_write_protected.5aaaa7388a2d381e,"",%progbits
  64 0000 789C6362 		.ascii	"x\234cb`b@\007\222@\034\005\304\\@\314\310\314\300\310"
  64      60624007 
  64      92401C05 
  64      C45C40CC 
  64      C8CCC0C8 
  65 0014 34E11C03 		.ascii	"4\341\034\003C#\007\023##\210\301\300\310P\317\304X"
  65      43230713 
  65      232388C1 
  65      C0C850CF 
  65      C458
  66 0026 1FC90856 		.ascii	"\037\311\010V\273\236\351\300\203\377\377\327]:\276"
  66      BB9EE9C0 
  66      83FFFFD7 
  66      5D3ABE
  67 0035 E00D2323 		.ascii	"\340\015##\310(V\206\226\206\206\011\012\014\014\311"
  67      C8285686 
  67      96868609 
  67      0A0C0CC9 
  68 0045 60052140 		.ascii	"`\005!@\022\244+\024(\011\244\231/24>x\235\234\310\270"
  68      12A42B14 
  68      2809A499 
  68      2F32343E 
  68      789D9CC8 
  69 005a 90919521 		.ascii	"\220\221\225!\2021\223\021ni\010##H\001\310\010\216"
  69      82319311 
  69      6E690823 
  69      234801C8 
  69      088E
  70 006c A4FCC4A2 		.ascii	"\244\374\304\242\024\275d\006\000\204\244\035\000"
  70      14BD6406 
  70      0084A41D 
  70      00
  71              		.text
  72              		.section	.gnu.lto_boardInit.5aaaa7388a2d381e,"",%progbits
  73 0000 789C9DD4 		.ascii	"x\234\235\324\275N\3030\020\000\340\273s\",\246JL\335"
  73      BD4EC330 
  73      1000E0BB 
  73      73222CA6 
  73      4A4CDD
  74 0013 B2B0F20C 		.ascii	"\262\260\362\014<D\221`,e\311\204\304\312P\027!\024"
ARM GAS  /tmp/ccEpvBvh.s 			page 5


  74      3C449160 
  74      2C65C984 
  74      C4CA5017 
  74      2114
  75 0025 C45FC682 		.ascii	"\304_\306\202\370)bC\"\274\002\033\033\2107\310S0 A"
  75      F8296243 
  75      22BC021B 
  75      1B8837C8 
  75      53302041 
  76 0039 B8C4B436 		.ascii	"\270\304\2646\365\020]-9>9\376|N,\233\200`\276t\271"
  76      F5105D2D 
  76      393E39FE 
  76      7C4E2C9B 
  76      8060BE74 
  77 004e 9E4400CB 		.ascii	"\236D\000\313\334\242\002\244\374\015`\244\011\261\016"
  77      DCA202A4 
  77      FC0D60A4 
  77      09B10E
  78 005d 00614838 		.ascii	"\000aH8\334\302f\3543\275\224UU|\276N\012\244\025\356"
  78      DCC266EC 
  78      33BD9455 
  78      557CBE4E 
  78      0AA415EE 
  79 0071 88E1D098 		.ascii	"\210\341\320\230<\001\0304\003z\374\254\325\006R\335"
  79      3C011834 
  79      037AFCAC 
  79      D50652DD 
  80 0081 AA77382A 		.ascii	"\252w8*\277\037\260\217\367\030\363\353}\3702\231\351"
  80      BF1FB08F 
  80      F718F3EB 
  80      7DF83299 
  80      E9
  81 0092 A4C8C3ED 		.ascii	"\244\310\303\355\204\233\230\"\032\356\214\232\220\214"
  81      849B9822 
  81      1AEE8C9A 
  81      908C
  82 00a0 A126505D 		.ascii	"\241&P]H\221\027\305\023L~T\233\037\317\274mT\342t\325"
  82      489117C5 
  82      134C7E54 
  82      9B1FCFBC 
  82      6D54E274 
  83 00b5 AA73975D 		.ascii	"\252s\227][~\025;\237\305\002\237\204\376X\342;\326"
  83      5B7E153B 
  83      9FC5029F 
  83      84FE58E2 
  83      3BD6
  84 00c7 1F78FE54 		.ascii	"\037x\376T\340\327\377\270v\374L\222\036C\177\336\352"
  84      E0D7FFB8 
  84      76FC4C92 
  84      1E437FDE 
  84      EA
  85 00d8 B320FD92 		.ascii	"\263 \375\222\343\027\002>K\357\371q\2537\363{\357\363"
  85      E317023E 
  85      4BEFF971 
  85      AB37F37B 
  85      EFF3
  86 00ea 4B01D721 		.ascii	"K\001\327!\277^d\365\221\3637\013\374<\217\337J\366"
ARM GAS  /tmp/ccEpvBvh.s 			page 6


  86      BF5E64F5 
  86      91F3370B 
  86      FC3C8FDF 
  86      4AF6
  87 00fc 2E0AFD9D 		.ascii	".\012\375\235\340\353\247\347\316\367\217\202\345\353"
  87      E0EBA7E7 
  87      CEF78F82 
  87      E5EB
  88 010a E0D83E09 		.ascii	"\340\330>\011t\362O\177\300\250,V\247\332\226\036K\276"
  88      74F24F7F 
  88      C0A82C56 
  88      A7DA961E 
  88      4BBE
  89 011c 51EAEB4B 		.ascii	"Q\352\353Ko\357\366\367v\326\006\360\013\013&\374\224"
  89      6FEFF6F7 
  89      76D606F0 
  89      0B0B26FC 
  89      94
  90              		.text
  91              		.section	.gnu.lto_boardSetBuzzer.5aaaa7388a2d381e,"",%progbits
  92 0000 789C6362 		.ascii	"x\234cb`b@\0076@\234\302\310\300\300\005\244\031\331"
  92      60624007 
  92      36409CC2 
  92      C8C0C005 
  92      A419D9
  93 0013 18189926 		.ascii	"\030\030\231&\234c`h\344`bb\336#\307\320\300\305rE\237"
  93      9C636068 
  93      E4606262 
  93      DE23C7D0 
  93      C0C57245 
  94 0028 A1818799 		.ascii	"\241\201\207\231\221\025\"\314\002c\26022\202\030\014"
  94      911522CC 
  94      0263B032 
  94      3282180C 
  95 0038 8C0CF54C 		.ascii	"\214\014\365L\314,\254\214\365\221\214`\343\3263\035"
  95      CC2CAC8C 
  95      F5918C60 
  95      E3D6331D 
  96 0048 78F0FFFF 		.ascii	"x\360\377\377\272\037\247\026\234ddbcb\314\005\013\263"
  96      BA1FA716 
  96      9C646462 
  96      6362CC05 
  96      0BB3
  97 005a 32B43434 		.ascii	"2\26444LP``H\006sC\200$Hw(#\023\210f>\301\320\362\346"
  97      4C506060 
  97      48067343 
  97      80244877 
  97      28231388 
  98 0074 E0EF53CC 		.ascii	"\340\357S\314\211\214\013\031Y\031\322\031\231\"\030"
  98      898C0B19 
  98      5919D219 
  98      992218
  99 0083 3319515C 		.ascii	"3\031Q\\\031\312\310\314\260G\216\371,\303\241\0357"
  99      19CAC8CC 
  99      B0478EF9 
  99      2CC3A11D 
  99      37
ARM GAS  /tmp/ccEpvBvh.s 			page 7


 100 0094 D60B42D4 		.ascii	"\326\013B\324i3\254jh\001*d\2041\230`\014\346\331\014"
 100      6933AC6A 
 100      68012A64 
 100      84319860 
 100      0CE6D90C 
 101 00a8 B380140B 		.ascii	"\263\200\024\013\310\030\326\206\216\216\006\026\006"
 101      C818D686 
 101      8E8E0616 
 101      06
 102 00b5 30136C54 		.ascii	"0\023lT\022\324\344$FF(\015\011\024\220\0126\016\270"
 102      12D4E424 
 102      4646280D 
 102      0914900A 
 102      360EB8
 103 00c8 7D2C0C57 		.ascii	"},\014W\364\301\366ulb\244\262}\314\330\354c\005\207"
 103      F4C1F675 
 103      6C62A4B2 
 103      7DCCD8EC 
 103      630587
 104 00db C44586C6 		.ascii	"\304E\206\306\007'U!\366\301@\010P#P\016\344J\216\244"
 104      07275521 
 104      F6C14008 
 104      5023500E 
 104      E44A8EA4 
 105 00ef FCC4A214 		.ascii	"\374\304\242\024\275d\006\000\360\246Tc"
 105      BD640600 
 105      F0A65463 
 106              		.text
 107              		.section	.gnu.lto_boardSetLED.5aaaa7388a2d381e,"",%progbits
 108 0000 789C6362 		.ascii	"x\234cb`b@\0076@\234\302\310\300\300\005\244\031\331"
 108      60624007 
 108      36409CC2 
 108      C8C0C005 
 108      A419D9
 109 0013 18189926 		.ascii	"\030\030\231&\234c`h\344`bb\336#\307\320\300\305rE\237"
 109      9C636068 
 109      E4606262 
 109      DE23C7D0 
 109      C0C57245 
 110 0028 A1818799 		.ascii	"\241\201\207\231\221\025\"\314\002c\26022\202\030\014"
 110      911522CC 
 110      0263B032 
 110      3282180C 
 111 0038 8C0CF54C 		.ascii	"\214\014\365L\314,\254\214\365\221\214`\343\3263\035"
 111      CC2CAC8C 
 111      F5918C60 
 111      E3D6331D 
 112 0048 78F0FFFF 		.ascii	"x\360\377\377\272y\247\027\334adbcb\314\005\013\263"
 112      BA79A717 
 112      DC616462 
 112      6362CC05 
 112      0BB3
 113 005a 32B43434 		.ascii	"2\26444LP``H\006sC\200$Hw(#\023\210f>\301\320\362\346"
 113      4C506060 
 113      48067343 
 113      80244877 
 113      28231388 
ARM GAS  /tmp/ccEpvBvh.s 			page 8


 114 0074 E0C6D3CC 		.ascii	"\340\306\323\314\211\214\013\031Y\031\322\031\231\""
 114      898C0B19 
 114      5919D219 
 114      9922
 115 0082 18331951 		.ascii	"\0303\031Q\\\031\312\310\314\260G\216\371,\303\241\035"
 115      5C19CAC8 
 115      CCB0478E 
 115      F92CC3A1 
 115      1D
 116 0093 3BB60942 		.ascii	";\266\011B\324i3\254jh\001*d\2041\230`\014\346\331\014"
 116      D46933AC 
 116      6A68012A 
 116      64843198 
 116      600CE6D9 
 117 00a8 B380140B 		.ascii	"\263\200\024\013\310\030\326\206\216\216\006\026\006"
 117      C818D686 
 117      8E8E0616 
 117      06
 118 00b5 30136C54 		.ascii	"0\023lT\022\324\344$FF(\015\011\024\220\0126\005\270"
 118      12D4E424 
 118      4646280D 
 118      0914900A 
 118      3605B8
 119 00c8 7D2C0C57 		.ascii	"},\014W\364\301\366\275\330\306He\373\230\261\331\307"
 119      F4C1F6BD 
 119      D8C64865 
 119      FB98B1D9 
 119      C7
 120 00d9 0A0E898B 		.ascii	"\012\016\211\213\014\215\017\356\250B\354\203\201\020"
 120      0C8D0FEE 
 120      A842EC83 
 120      8110
 121 00e7 A046A01C 		.ascii	"\240F\240\034\310\225\034I\371\211E)z\311\014\000r\256"
 121      C8951C49 
 121      F9894529 
 121      7AC90C00 
 121      72AE
 122 00f9 5462     		.ascii	"Tb"
 123              		.text
 124              		.section	.gnu.lto_.symbol_nodes.5aaaa7388a2d381e,"",%progbits
 125 0000 789C4DC9 		.ascii	"x\234M\311\261\021\3020\020D\321\275\025\302d\224\340"
 125      B111C230 
 125      1044D1BD 
 125      15C26494 
 125      E0
 126 0011 524F20B0 		.ascii	"RO \260\031\"* \241\024\345\324\000\243\3245\0003x1"
 126      19222A20 
 126      A114E5D4 
 126      00A3D435 
 126      00337831 
 127 0025 BAE4CDBF 		.ascii	"\272\344\315\277%\210\255a>&:p\271\003\356\327\223q"
 127      2588AD61 
 127      3E263A70 
 127      B903EED7 
 127      9371
 128 0037 47B726F7 		.ascii	"G\267&\367t6\231\351\241\311\003}\325\344\221\036\377"
 128      743699E9 
ARM GAS  /tmp/ccEpvBvh.s 			page 9


 128      A1C9037D 
 128      D5E4911E 
 128      FF
 129 0048 19DF86E8 		.ascii	"\031\337\206\350\260\201\276\236\277)\231\215\364n\251"
 129      B081BE9E 
 129      BF29998D 
 129      F46EA9
 130 0057 800EF9F1 		.ascii	"\200\016\371\361\262\0206\2137Yd\375\355O\355\262\310"
 130      B210368B 
 130      375964FD 
 130      ED4FEDB2 
 130      C8
 131 0068 2AF330F5 		.ascii	"*\3630\365\337]\026Ye\036\265\313\"\253\314\347\251"
 131      DF5D1659 
 131      651EB5CB 
 131      22ABCCE7 
 131      A9
 132 0079 C707A6A9 		.ascii	"\307\007\246\251P\344"
 132      50E4
 133              		.text
 134              		.section	.gnu.lto_.refs.5aaaa7388a2d381e,"",%progbits
 135 0000 789C6362 		.ascii	"x\234cb`b`d\200\002\000\000F\000\006"
 135      60626064 
 135      80020000 
 135      460006
 136              		.text
 137              		.section	.gnu.lto_.decls.5aaaa7388a2d381e,"",%progbits
 138 0000 789CBD5C 		.ascii	"x\234\275\\\013t\024E\272\356\356y$!\221\227\272\027"
 138      0B741445 
 138      BAEEEE79 
 138      24219197 
 138      BA17
 139 0012 BC9EEBEC 		.ascii	"\274\236\353\354=z\217\327UB\002\253\270{\257\010I\024"
 139      3D7A8FD7 
 139      554202AB 
 139      B87BAF08 
 139      4914
 140 0024 CEF2C899 		.ascii	"\316\362\310\231\340\256\236s\317\031\233\231\016\231"
 140      E0AE9E73 
 140      CF199B99 
 140      0E99
 141 0032 35C9CCCE 		.ascii	"5\311\314\316L x\35796\011\004\015\0171\2047\204\360"
 141      4C2078EF 
 141      39360904 
 141      0D0F3184 
 141      3784F0
 142 0045 065730F2 		.ascii	"\006W0\362\020\303s@\336q\003\021\"`\204\314\342\242"
 142      10C37340 
 142      DE710311 
 142      226084CC 
 142      E2A2
 143 0057 A0C84379 		.ascii	"\240\310Cy#\344V\375\335=S\335\351\236\251\036<;\347"
 143      23E456FD 
 143      DD3D53DD 
 143      E99EA91E 
 143      3C3BE7
 144 006a F43F3535 		.ascii	"\364?55\325_}\365\327_\377_U\375\340\030\2169\3062L"
ARM GAS  /tmp/ccEpvBvh.s 			page 10


 144      D55F7DF5 
 144      D75FFF5F 
 144      55FDE018 
 144      8E39C632 
 145 007f 07FEBCC6 		.ascii	"\007\376\274\3060\201.\014\223\3020\314\013\350\260"
 145      30812E0C 
 145      93C230CC 
 145      0BE8B0
 146 008e A2630923 		.ascii	"\242c\011#\375>\201\2166F\372\244\242\3434:\316\240"
 146      FD3E818E 
 146      3646FAA4 
 146      A2E3343A 
 146      CEA0
 147 00a0 A38A6398 		.ascii	"\243\212c\230jtLCG-:\346\242c>:\020$\263\214cT\037|"
 147      6A744C43 
 147      472D3AE6 
 147      A2633E3A 
 147      1024B38C 
 148 00b8 0ECEFA1C 		.ascii	"\016\316\372\034\211v9\217\223\363\347j\31222\276]\256"
 148      8976398F 
 148      93F3E76A 
 148      CA3232BE 
 148      5DAE
 149 00ca 1FD7BD06 		.ascii	"\037\327\275\006\035KeN\230\033\256c\263\374}\246\363"
 149      1D4B654E 
 149      981BAE63 
 149      B3FC7DA6 
 149      F3
 150 00db E9C08D25 		.ascii	"\351\300\215%x\263r\236\366\203\371\333\320\367QN\335"
 150      78B3729E 
 150      F683F9DB 
 150      D0F7514E 
 150      DD
 151 00ec DE055C8C 		.ascii	"\336\005\\\214c\265\334.\355\007\267[\341w\014\245["
 151      63B5DC2E 
 151      ED07B75B 
 151      E1770CA5 
 151      5B
 152 00fd D1B18DE0 		.ascii	"\321\261\215\340i\221\271nE\307.t\354A\307g2\227i2\277"
 152      6991B96E 
 152      45C72E74 
 152      EC41C767 
 152      32976932 
 153 0112 F734B8B5 		.ascii	"\3674\270\265\367\201Y+c\316\326`\2463\325\242X!\326"
 153      F781592B 
 153      63CED660 
 153      A633D5A2 
 153      5821D6
 154 0125 5789430E 		.ascii	"W\211C\016t\355\311\274'\242\217\343@W\206y\225\345"
 154      74EDC9BC 
 154      27A28FE3 
 154      40578679 
 154      95E5
 155 0137 D9AE694C 		.ascii	"\331\256iL\204\203TF\032\3634*\375\004\263\\\024gD&"
 155      84835446 
 155      1AF3342A 
 155      FD04B35C 
ARM GAS  /tmp/ccEpvBvh.s 			page 11


 155      14674426 
 156 014b EDEC2D5A 		.ascii	"\355\354-Zyv)\333\023\351`\010\313<\305\254A\247\315"
 156      797629DB 
 156      13E96008 
 156      CB3CC5AC 
 156      41A7CD
 157 015e 10C5A5BF 		.ascii	"\020\305\245\277au\364\235\020\226axv%\002\343\331\025"
 157      6175F49D 
 157      10966178 
 157      762502E3 
 157      D915
 158 0170 EC535225 		.ascii	"\354SR%bxCS\006\256\004\3473\362?:\237_3\365\342\304"
 158      62784353 
 158      06AE04E7 
 158      33F23F3A 
 158      9F5F33F5 
 159 0186 CAF0E6A6 		.ascii	"\312\360\346\246\205\275\305\372\335l\032\363\266(V"
 159      85BDC5FA 
 159      DD6C1AF3 
 159      B62856
 160 0195 CACD89D6 		.ascii	"\312\315\211\326\346P*\263\306\332p\253j\357.\266B\024"
 160      E6502AB3 
 160      C6DA70AB 
 160      6AEF2EB6 
 160      4214
 161 01a7 A5532AE2 		.ascii	"\245S*\342\236\302\263\357\263O \231\222\026%\202\377"
 161      9EC2B3EF 
 161      B34F2099 
 161      92162582 
 161      FF
 162 01b8 453FA309 		.ascii	"E?\243\011<L\272a\223\230\300\262*\266\024\3602\243"
 162      3C4CBA61 
 162      9398C0B2 
 162      2AB614F0 
 162      32A3
 163 01ca 4DD5DB9E 		.ascii	"M\325\333\236\027\305T\236]\2138q\314N\015\220\\_\364"
 163      17C5549E 
 163      5D8B3871 
 163      CC4E0D90 
 163      5C5FF4
 164 01dd 4343C764 		.ascii	"CC\307dq\2169\004\225b\235\353\021\225\223\322G.\240"
 164      718E3904 
 164      95629DEB 
 164      119593D2 
 164      472EA0
 165 01f0 EA87C8C4 		.ascii	"\352\207\310\304\315\007Y\261&\203g\327@\033\216\230"
 165      CD0759B1 
 165      268367D7 
 165      401B8E98 
 166 0200 8673A8BA 		.ascii	"\206s\250\272uKS\306\014^\001;N\003\226j\310-\274\215"
 166      754B53C6 
 166      0C5E013B 
 166      4E03966A 
 166      C82DBC8D 
 167 0214 046B370D 		.ascii	"\004k7\015\246f\266\203\004;K\003\326\335\230\331\021"
 167      A666B683 
 167      043B4B03 
ARM GAS  /tmp/ccEpvBvh.s 			page 12


 167      D6DD98D9 
 167      11
 168 0225 12ECBC69 		.ascii	"\022\354\274i0\222\331\204p{\323!\334\005\01725\242"
 168      3092D984 
 168      707BD321 
 168      DC050F32 
 168      35A2
 169 0237 3841ACB7 		.ascii	"8A\254\267\033Y\035\303@\0211n\021\236\335\316>\250"
 169      1B591DC3 
 169      4011316E 
 169      119EDDCE 
 169      3EA8
 170 0249 1E9747A7 		.ascii	"\036\227G\247t\305\343\022\347'\030\227bE\270U\036\227"
 170      74C5E312 
 170      E7271897 
 170      6245B855 
 170      1E97
 171 025b 3CFB5768 		.ascii	"<\373Wh\334\017\3208|n\022\366\205*?\325\224.Vg\310"
 171      DC0FD038 
 171      7C6E12F6 
 171      852A3FD5 
 171      942E5667 
 172 0270 0EA5FEC5 		.ascii	"\016\245\376\305\325q\210\357\326:\224\343M\234C\312"
 172      D57188EF 
 172      D63A94E3 
 172      4D9C43CA 
 173 0280 4ECCFB64 		.ascii	"N\314\373d\323\302^b\375.\3059\210U\342\223D]\335\225"
 173      D3C25E62 
 173      FD2EC539 
 173      8855E293 
 173      445DDD95 
 174 0294 BAB0338D 		.ascii	"\272\2603\215\372\223\315O\303\350\335\013\015\275\244"
 174      FA93CD4F 
 174      C3E8DD0B 
 174      0DBDA4
 175 02a3 EF062880 		.ascii	"\357\006(\2006U\257\222\334\300\001\000\272\331\311"
 175      3655AF92 
 175      DCC00100 
 175      BAD9C9
 176 02b2 0D58346E 		.ascii	"\015X4n\300\242\036\327\226\264X\242\243\303\302\230"
 176      C0A21ED7 
 176      96B458A2 
 176      A3C3C298 
 177 02c2 2BCC3195 		.ascii	"+\3141\225\034+kO\217d\242.\252\210,\337\272\213E}\244"
 177      1C2B6B4F 
 177      8F64A22E 
 177      AA882CDF 
 177      BA8B457D 
 178 02d7 2862B269 		.ascii	"(b\262i\270\356\232.\341P@L\322j\210\206Km\346\331\235"
 178      B8EE9A2E 
 178      E150404C 
 178      D26A8886 
 178      4B6DE6D9 
 179 02ec ECAF91DC 		.ascii	"\354\257\221\334\205$Q\301\273\034\305\230\353e\320"
 179      852451C1 
 179      BB1CC598 
 179      EB65D0
ARM GAS  /tmp/ccEpvBvh.s 			page 13


 180 02fb 6634802F 		.ascii	"f4\200/\223\003\270\3264\230C\005\366#\0116\217\006"
 180      9303B8D6 
 180      34984305 
 180      F6230936 
 180      8F06
 181 030d CC61CCEC 		.ascii	"\314a\314\354*\011Vg\032L\315\354:\011\266\214\006\354"
 181      2A095667 
 181      1A4CCDEC 
 181      3A09B68C 
 181      06EC
 182 031f C9789DA2 		.ascii	"\311x\235\242\352\237X\374\347\331U\020mWCO}\004r\003"
 182      EA9F58FC 
 182      E7D95510 
 182      6D57434F 
 182      7D047203 
 183 0333 C84D2037 		.ascii	"\310M 7\203l\004\271\025\344\021\220\237\203<\006\362"
 183      836C04B9 
 183      15E41190 
 183      9F833C06 
 183      F2
 184 0344 0BB27F8D 		.ascii	"\013\262\177\215<\304\0226\235\034Z\324\221:|\274\346"
 184      3CC41236 
 184      9D1C5AD4 
 184      913A7CBC 
 184      E6
 185 0355 61EC024F 		.ascii	"a\354\002O\200\036Vq\332\001\212]\235\252m\211#o*3\031"
 185      801E5671 
 185      DA018A5D 
 185      9DAA6D89 
 185      236F2A33 
 186 036a D71D9924 		.ascii	"\327\035\231$N`\377\022\255;U\251\233U\352\306\223,"
 186      4E60FF12 
 186      AD3B55A9 
 186      9B55EAC6 
 186      932C
 187 037c 8E67DBD8 		.ascii	"\216g\333\330TTs\003\2477\333\202\032q\001\245\351R"
 187      54547303 
 187      A737DB82 
 187      1A7101A5 
 187      E952
 188 038e 5A49A153 		.ascii	"ZI\241S\036c\352\304\372H\344\324\321\317\370ybx\242"
 188      1E63EAC4 
 188      FA48E4D4 
 188      D1CFF879 
 188      6278A2
 189 03a1 D8D1F116 		.ascii	"\330\321\361\026\363+f\026\270\324*4#\012\361\354\013"
 189      F32B6616 
 189      B8D42A34 
 189      230AF1EC 
 189      0B
 190 03b2 0F1B6AAD 		.ascii	"\017\033j\255\235\375\225\234zEv.h\256\242\321\001\303"
 190      9DFD959C 
 190      7A45762E 
 190      68AEA2D1 
 190      01C3
 191 03c4 FC07B302 		.ascii	"\374\007\263\002\343\211\253E\013\240\341\362\247\331"
 191      E389AB45 
ARM GAS  /tmp/ccEpvBvh.s 			page 14


 191      0BA0E1F2 
 191      A7D9
 192 03d2 C7D42C23 		.ascii	"\307\324,#\254j6*\361\0127\354\317\2301!\322\321\361"
 192      AC6A362A 
 192      F10A37EC 
 192      CF983121 
 192      D2D1F1
 193 03e5 98861366 		.ascii	"\230\206\023foD\352k\231\224\005\274J\302Ym\275E\001"
 193      6F44EA6B 
 193      999405BC 
 193      4AC2596D 
 193      BD4501
 194 03f8 E81FEDD5 		.ascii	"\350\037\355\325H\343\354=\331\340x\277\201ym\245E\335"
 194      48E3EC3D 
 194      D9E078BF 
 194      81796DA5 
 194      45DD
 195 040a A6843098 		.ascii	"\246\2040\230\307ym\320i\335\017\263\330\363TQ\347\324"
 195      C7796DD0 
 195      69DD0FB3 
 195      D8F35451 
 195      E7D4
 196 041c E4C5102D 		.ascii	"\344\305\020-\365\350\243\002,Q\265\310\221\343\025"
 196      F5E8A302 
 196      2C51B5C8 
 196      91E315
 197 042b B948C456 		.ascii	"\271H\304V\207\241\272\030\317^D\032\347\331K\235\346"
 197      87A1BA18 
 197      CF5E441A 
 197      E7D94B9D 
 197      E6
 198 043c DA9381E5 		.ascii	"\332\223\201\345%*\226\233\366\303\034OE\322DW\375\244"
 198      252A969B 
 198      F6C31C4F 
 198      45D24457 
 198      FDA4
 199 044e EE2A9E1D 		.ascii	"\356*\236\035\230N\330\022c<\\\177Dza\024\213\233\017"
 199      984ED812 
 199      633C5C7F 
 199      447A6114 
 199      8B9B0F
 200 0461 BD7329B9 		.ascii	"\275s)\271\211*\242\275^\024\323\354\022&\307\2544\015"
 200      892AA2BD 
 200      5E14D3EC 
 200      1226C7AC 
 200      340D
 201 0473 E63006DB 		.ascii	"\3460\006\333@\003f4M\325\202m5\015\246\303,\331\236"
 201      40036634 
 201      4DD5826D 
 201      350DA6C3 
 201      2CD99E
 202 0486 BAA7D353 		.ascii	"\272\247\323S\321\264\354\344\364\006\234\354H#+\304"
 202      D1B4ECE4 
 202      F4069CEC 
 202      48232BC4 
 203 0496 5E73BBC6 		.ascii	"^s\273\306qfx\322\264\36670\344*9\354J\367Yt'M\024@"
 203      716678D2 
ARM GAS  /tmp/ccEpvBvh.s 			page 15


 203      B4F63730 
 203      E42A39EC 
 203      4AF75974 
 204 04ae 9BAAEB06 		.ascii	"\233\252\353\006\000P\025\0005[\264>Y\353\222Y\265K"
 204      00501500 
 204      355BB43E 
 204      59EB9259 
 204      B54B
 205 04c0 66D36289 		.ascii	"f\323b\211\016\265WMX\326H}\025\\:\001\243U\034\225"
 205      0EB5574D 
 205      58D6487D 
 205      155C3A01 
 205      A3551C95 
 206 04d4 C9DF254D 		.ascii	"\311\337%M\376\004\215-\030\2552\320\304\254q\366\017"
 206      FE048D2D 
 206      18AD32D0 
 206      C4AC71F6 
 206      0F
 207 04e5 59D8DF5B 		.ascii	"Y\330\337[\222\265\207i\334}\332C\330\260\033yv\"\367"
 207      92B58769 
 207      DC7DDA43 
 207      D8B01B79 
 207      7622F7
 208 04f8 44F2AA7E 		.ascii	"D\362\252~\357\376U=\225#T}\312\264\252\035\244\252"
 208      EFFE553D 
 208      9523547D 
 208      CAB4AA1D 
 208      A4AA
 209 050a D563F86B 		.ascii	"\325c\370k\0320\243\311\345\375\216\341y\306}\246\033"
 209      1A30A3C9 
 209      E5FD8EE1 
 209      79C67DA6 
 209      1B
 210 051b 655E2482 		.ascii	"e^$\202\307\213\244\203\221\007Z\303\342\2018R,\342"
 210      C78BA483 
 210      91075AC3 
 210      E2813852 
 210      2CE2
 211 052d 70885C66 		.ascii	"p\210\\f\325\015\221\306 \230@=\247\011>7\004\207\224"
 211      D50D91C6 
 211      2098403D 
 211      A7093E37 
 211      048794
 212 0540 9B38F4DC 		.ascii	"\2338\364\334Z!o/H\253\311\015P?>5\251 \020\276-\034"
 212      5A216F2F 
 212      48ABC90D 
 212      503F3E35 
 212      A92010BE 
 213 0556 E8AB606D 		.ascii	"\350\253`m3\215\345\320#\312tj%\232g\202i/\345\360\304"
 213      338DE5D0 
 213      23CA746A 
 213      259A6782 
 213      692FE5F0 
 214 056b 74394731 		.ascii	"t9G11]\2502g*\363\235K\232\357\036\253Y\213\323\266"
 214      315DA832 
 214      672AF39D 
 214      4B9AEF1E 
ARM GAS  /tmp/ccEpvBvh.s 			page 16


 214      AB598BD3 
 215 0580 25B65EBA 		.ascii	"%\266^\272\002\363\351\353 o\202\274\015\362g\220S\240"
 215      02F3E9EB 
 215      206F82BC 
 215      0DF26790 
 215      53A0
 216 0592 51B340CE 		.ascii	"Q\263@\316\241i\332\005\322\243\375\015x\236O6\210G"
 216      A169DA05 
 216      D2A3FD0D 
 216      789E4F36 
 216      8847
 217 05a4 1ABFB891 		.ascii	"\032\277\270\2215G\014O\260\2440U\322\364\271\"Q\240"
 217      35470C4F 
 217      B0A43055 
 217      D2F4B922 
 217      51A0
 218 05b6 6858FC1C 		.ascii	"hX\374\034\266\3375\\\012\252\277Ec\277\0240\270\015"
 218      B6DF355C 
 218      0AAABF45 
 218      63BF1430 
 218      B80D
 219 05c8 1FA09355 		.ascii	"\037\240\223U\026\3348\336!\345\306\261`\030t\034\363"
 219      16DC38DE 
 219      21E5C6B1 
 219      6018741C 
 219      F3
 220 05d9 15AA12C3 		.ascii	"\025\252\022\303Y\323by\337\306\362X\242\350\345X6G"
 220      59D36279 
 220      DFC6F258 
 220      A2E8E558 
 220      3647
 221 05eb 64DF8965 		.ascii	"d\337\211e[\210\354j[4\333Jd/\214e\333\210\354\225\261"
 221      5B88EC6A 
 221      5B34DB4A 
 221      642F8C65 
 221      DB88EC95 
 222 0600 6C3B91BD 		.ascii	"l;\221\275>\226\235Bd\357\210e\247\022\375\0217h\306"
 222      3E969D42 
 222      64EF8865 
 222      A712FD11 
 222      3768C6
 223 0613 94C4B36B 		.ascii	"\224\304\263ka\000\254\343,\272\247q\314!\233\306\016"
 223      6100ACE3 
 223      2CBAA771 
 223      CC219BC6 
 223      0E
 224 0624 542A4F34 		.ascii	"T*O4\377\022\301\016&\340\310\326\203\231!\317\200\245"
 224      FF12C10E 
 224      26E0C8D6 
 224      839921CF 
 224      80A5
 225 0636 61ADCC82 		.ascii	"a\255\314\202Y\265\317\346\331\335\\\017HAh\022e\037"
 225      59B5CFE6 
 225      D9DD5C0F 
 225      48416812 
 225      651F
 226 0648 08258C0C 		.ascii	"\010%\214\014\367S.-J #-\226P\206&\307\034\321\266B"
ARM GAS  /tmp/ccEpvBvh.s 			page 17


 226      F7532E2D 
 226      4A20232D 
 226      96508626 
 226      C71CD1B6 
 227 065d 5D6DA299 		.ascii	"]m\242\231\037l\017\341\250\201\271q\3141*\264DaC\361"
 227      1F6C0FE1 
 227      A881B971 
 227      CC312AB4 
 227      446143F1 
 228 0671 6E27B468 		.ascii	"n'\264h\264\213u\331S\336\230\274\210ve\362\272\002"
 228      B48B75D9 
 228      53DE98BC 
 228      887665F2 
 228      BA02
 229 0683 97111D75 		.ascii	"\227\021\035u\341[\373X\207\316\352DU\224g?Cf\222\250"
 229      E15BFB58 
 229      87CEEA44 
 229      5594673F 
 229      436692A8 
 230 0697 142ED7AC 		.ascii	"\024.\327\254\215 ;\367\301\362\245\231*\206\034\257"
 230      8D203BF7 
 230      C1F2A599 
 230      2A861CAF 
 231 06a7 326E8A6A 		.ascii	"2n\212j\351\024]\334\365\2156$Rs\351\362\237a\236\371"
 231      E9145DDC 
 231      F58D3624 
 231      5273E9F2 
 231      9F619EF9 
 232 06bb 3904C095 		.ascii	"9\004\300\225\366\204kD5\014\317\036\343\360\012\254"
 232      F6846B44 
 232      350CCF1E 
 232      E3F00AAC 
 233 06cb 55DB846B 		.ascii	"U\333\204k\013\240\011\255TM\270\333V\367/b$\314\322"
 233      0BA009AD 
 233      544DB8DB 
 233      56F72F62 
 233      24CCD2
 234 06de BBBD969F 		.ascii	"\273\275\226\237\302\217T\242~\342\331\023\340\371\276"
 234      C28F54A2 
 234      7EE2D913 
 234      E0F9BE
 235 06ed B627E5F9 		.ascii	"\266'\345\371\332\264\236oSU7L\273\215\312\367]\264"
 235      DAB49E6F 
 235      5355374C 
 235      BB8DCAF7 
 235      5DB4
 236 06ff 77F67DB7 		.ascii	"w\366}\267\354\272\276\257\"E\327\367MM\321\365}sR\324"
 236      ECBABEAF 
 236      2245D7F7 
 236      4D4DD1F5 
 236      7D7352D4 
 237 0713 BE8FA1F0 		.ascii	"\276\217\241\360Om\204\177\372\012\374\323)\003\377"
 237      4F6D847F 
 237      FA0AFCD3 
 237      2903FF
 238 0722 C4B3E168 		.ascii	"\304\263\341h\237\321\372'U\177Ef^:R\276\003\215\307"
 238      9FD1FA27 
ARM GAS  /tmp/ccEpvBvh.s 			page 18


 238      557F4566 
 238      5E3A52BE 
 238      038DC7
 239 0735 77EC498E 		.ascii	"w\354I\216\237\2666\232\361\363\035\345\370\271\240"
 239      9FB6369A 
 239      F1F31DE5 
 239      F8B9A0
 240 0744 35BE396D 		.ascii	"5\2769m`|\027\250\214oq[]\347\361C\277}tY;!m\341(\326"
 240      607C17A8 
 240      8C6F715B 
 240      5DE7F143 
 240      BF7D7459 
 241 075e FFB21EEE 		.ascii	"\377\262\036\356\316\177\010\366)8<\257^\236\242\266"
 241      CE7F08F6 
 241      29383CAF 
 241      5E9EA2B6 
 242 076e 611521A9 		.ascii	"a\025!\251\"#\022W\271t\203vv\372\017\005E\250\347B"
 242      22231257 
 242      B9748376 
 242      76FA0F05 
 242      45A8E742 
 243 0782 D2B3CC46 		.ascii	"\322\263\314F=\205IWO\215\233\0329\273n\267\005<\315"
 243      3D854957 
 243      4F8D9B1A 
 243      39BB6EB7 
 243      053CCD
 244 0795 0D686C63 		.ascii	"\015hlc\212vE\273\204MW\023\327lg\242i\240i\342\016"
 244      8A7645BB 
 244      844D5713 
 244      D76C67A2 
 244      69A069E2 
 245 07aa 8DD9864B 		.ascii	"\215\331\206K\2677\210\342$\273\262\231\337\244E\324"
 245      B73788E2 
 245      24BBB299 
 245      DFA445D4 
 246 07ba DBCC37DE 		.ascii	"\333\3147\336\333\010\237X\220q\344u\005\254\3054\230"
 246      DB089F58 
 246      9071E475 
 246      05ACC534 
 246      98
 247 07cb F6CA8032 		.ascii	"\366\312\2002~"
 247      7E
 248 07d0 7F80F17B 		.ascii	"\177\200\361{\021f\241\327A\336\001y\227\234\221rLk"
 248      1166A1D7 
 248      41DE0179 
 248      979C9172 
 248      4C6B
 249 07e2 271D4A16 		.ascii	"'\035J\026O\340\305\206\006\223\030\321\310\272\316"
 249      4FE0C586 
 249      069318D1 
 249      C8BACE
 250 07f1 9173F176 		.ascii	"\221s\361v\250\2645\331N\010\327\235\316\230\301'\334"
 250      A8B435D9 
 250      4E08D79D 
 250      CE98C127 
 250      DC
 251 0802 CFB42A48 		.ascii	"\317\264*H\2711\013Z\324\021\356\265E\024\273\363l\245"
ARM GAS  /tmp/ccEpvBvh.s 			page 19


 251      B9310B5A 
 251      D411EEB5 
 251      4514BBF3 
 251      6CA5
 252 0814 0507ABC5 		.ascii	"\005\007\253\305\251\21174U8\034\263\032N\251\262\250"
 252      A9893734 
 252      55381CB3 
 252      1A4EA9B2 
 252      A8
 253 0825 FD45A475 		.ascii	"\375E\244u\331\337\377u. \343\277\022\273\214;z!W\242"
 253      D9DFFF75 
 253      2E20E3BF 
 253      12BB8C3B 
 253      7A2157A2 
 254 0839 65A4C36A 		.ascii	"e\244\303j\213\306\230\277\215RIn\024\336\333\007\327"
 254      8BC698BF 
 254      8D52496E 
 254      14DEDB07 
 254      D7
 255 084a 2E302E8A 		.ascii	".0.\212D\246\301\324\2352s?q\273\001\325\305\375\266"
 255      44A6C1D4 
 255      9D32733F 
 255      71BB01D5 
 255      C5FDB6
 256 085d 55E77B6F 		.ascii	"U\347{o\007\225\275k\301\006\276#\355\027\270j\3001"
 256      0795BD6B 
 256      C106BE23 
 256      ED17B86A 
 256      C031
 257 086f FBD2281A 		.ascii	"\373\322(\032b<\345D=\331\362h#D&%\030\031^\014F\313"
 257      623CE544 
 257      3DD9F268 
 257      23442625 
 257      18195E0C 
 258 0885 35A8AC56 		.ascii	"5\250\254Vk\015m\353Z\236\221\254\241\226\312\03267"
 258      6B0D6DEB 
 258      5A9E91AC 
 258      A196CA1A 
 258      3637
 259 0897 CDA19A80 		.ascii	"\315\241\232\200\325\333\225\352=P\375\273]p\365\363"
 259      D5DB95EA 
 259      3D50FDBB 
 259      5D70F5F3 
 260 08a7 B4D5DF58 		.ascii	"\264\325\337X\177\376\005\251\372yT\325\267\037\256"
 260      7FFE05A9 
 260      FA7954D5 
 260      B71FAE
 261 08b6 D5334683 		.ascii	"\3253F\203\220\245t\337\272+O.\206J\026\201\001\235"
 261      90A574DF 
 261      BA2B4F2E 
 261      864A1681 
 261      019D
 262 08c8 ECA2EDBE 		.ascii	"\354\242\355\276\201\032o<Pc\277g\242\354\223\262_\324"
 262      811A6F3C 
 262      5063BF67 
 262      A2EC93B2 
 262      5FD4
ARM GAS  /tmp/ccEpvBvh.s 			page 20


 263 08da CC5D03D7 		.ascii	"\314]\003\327@O)\034\2761\215\2506\342\037\017\303\210"
 263      404F291C 
 263      BE318DA8 
 263      36E21F0F 
 263      C388
 264 08ec 90C0BEA3 		.ascii	"\220\300\276\243\001\213\343\331\257\222`\027M\203\251"
 264      018BE3D9 
 264      AF926017 
 264      4D83A9
 265 08fb 995D27C1 		.ascii	"\231]'\301~\244\0013\336\366\014\337$\301\256\233\006"
 265      7EA40133 
 265      DEF60CDF 
 265      24C1AE9B 
 265      06
 266 090c 5333BB4D 		.ascii	"S3\273M\202\335\246\0013^\241\205\177&\301\356\231\006"
 266      82DDA601 
 266      335EA185 
 266      7F26C1EE 
 266      9906
 267 091e 5333BB47 		.ascii	"S3\273G\202U\244S\2009\214\231\315\370\234\000\2532"
 267      8255A453 
 267      80398C99 
 267      CDF89C00 
 267      AB32
 268 0930 0DA66656 		.ascii	"\015\246fVC\202U\323\200\305Y\210\326\222`\323M\203"
 268      438255D3 
 268      80C55988 
 268      D69260D3 
 268      4D83
 269 0942 A999CD26 		.ascii	"\251\231\315&\301jh\300\372\0323\233K\202\3156\015\246"
 269      C16A68C0 
 269      FA1A339B 
 269      4B82CD36 
 269      0DA6
 270 0954 66369F04 		.ascii	"f6\237\004\233O\0036\300\230\331B\022\254\3164\230\232"
 270      9B4F0336 
 270      C098D942 
 270      12ACCE34 
 270      989A
 271 0966 590309B6 		.ascii	"Y\003\011\266\224\006\354Ecf\353I\260\025\246\301\324"
 271      9406EC45 
 271      6366EB49 
 271      B015A6C1 
 271      D4
 272 0977 CC369260 		.ascii	"\3146\222`\253i\300\206\0303\373\230\004\373\253i05"
 272      AB69C086 
 272      1833FB98 
 272      04FBAB69 
 272      3035
 273 0989 B34F48B0 		.ascii	"\263OH\260u4`\371\306\314\266\220`\037\231\006S3\333"
 273      753460F9 
 273      C6CCB690 
 273      601F9906 
 273      5333DB
 274 099c 46826DA4 		.ascii	"F\202m\244\001{\325\230\331\016\022\354\023\323`jfG"
 274      017BD598 
 274      D90E12EC 
ARM GAS  /tmp/ccEpvBvh.s 			page 21


 274      13D3606A 
 274      6647
 275 09ae 48B06D34 		.ascii	"H\260m4`\257\3530\213~\214\346\231s-\304\\}g\2722\301"
 275      60AFEB30 
 275      8B7E8CE6 
 275      99732DC4 
 275      5C7D67BA 
 276 09c4 3119A399 		.ascii	"1\031\243\231\030\306\247\351fgd\252v\343\271\365\243"
 276      18C6A7E9 
 276      666764AA 
 276      76E3B9F5 
 276      A3
 277 09d5 5BE4382F 		.ascii	"[\3448/MV\017\322 \306\011\200\363\367\0233\337\026"
 277      4D560FD2 
 277      20C60980 
 277      F3F71333 
 277      DF16
 278 09e7 D3601A53 		.ascii	"\323`\032S\336\257]\216P\\\335\213\335\272B\\\321\355"
 278      DEAF5D8E 
 278      505CDD8B 
 278      DDBA425C 
 278      D1ED
 279 09f9 A55F9667 		.ascii	"\245_\226g\277\264\340\325\\\233\346N\265\266\350\255"
 279      BFB4E0D5 
 279      5C9BE64E 
 279      B5B6E8AD 
 280 0a09 6A3825ED 		.ascii	"j8%\355\033\237L7\276\001&\341\351F\026q\202\264\210"
 280      1B9F4C37 
 280      BE0126E1 
 280      E9461671 
 280      82B488
 281 0a1c D334EA8A 		.ascii	"\3234\352\212\023\342\333\367/\204\235:\372+\331m\253"
 281      13E2DBF7 
 281      2F849D3A 
 281      FA2BD96D 
 281      AB
 282 0a2d 5AE48542 		.ascii	"Z\344\205B;,\024\316\246kg\232\225\234\271k\331h>\246"
 282      3B2C14CE 
 282      A66B679A 
 282      959CB96B 
 282      D9683EA6 
 283 0a41 6D85DEFE 		.ascii	"m\205\336\376\225\361\334\002\331\344\311\307\032\327"
 283      95F1DC02 
 283      D9E4C9C7 
 283      1AD7
 284 0a4f 8962A5DD 		.ascii	"\211b\245\335L;\016\312\355\370\007\264\343\372/\320"
 284      4C3B0ECA 
 284      EDF807B4 
 284      E3FA2FD0 
 285 0a5f 8E7BA6DB 		.ascii	"\216{\246\333\361\244\246\035\273\2364\337\216\223r"
 285      F1A4A61D 
 285      BB9E34DF 
 285      8E9372
 286 0a6e 3BCE433B 		.ascii	";\316C;\2522\356\277\035\3233\314\266\243/\321\016X"
 286      AA32EEBF 
 286      1DD333CC 
 286      B6A32FD1 
ARM GAS  /tmp/ccEpvBvh.s 			page 22


 286      0E58
 287 0a80 B5F59156 		.ascii	"\265\365\221VmT\267\360^\264hn\341=y\210uH\331\211\226"
 287      6D54B7F0 
 287      5EB4686E 
 287      E13D7988 
 287      7548D989 
 288 0a95 4B62F8C6 		.ascii	"Kb\370\306!b\251+\322-u\257\310\032\273\002\032\233"
 288      2162A92B 
 288      D22D75AF 
 288      C81ABB02 
 288      1A9B
 289 0aa7 A5D1183D 		.ascii	"\245\321\030=\322\255}{>\202{\364y\366*@-H\032j\323"
 289      D2AD7D7B 
 289      3E827BF4 
 289      79F62A40 
 289      2D481A6A 
 290 0abc A1CDD20D 		.ascii	"\241\315\322\015\"7\000hY\247^\264k:\321\256\356D\364"
 290      22370068 
 290      59A75EB4 
 290      6B3AD1AE 
 290      EE44F4
 291 0acf 13D77413 		.ascii	"\023\327t\023\257\274\331\267\344\034\374#\205\371\247"
 291      AFBCD9B7 
 291      E41CFC23 
 291      85F9A7
 292 0ade 9FC7316B 		.ascii	"\237\3071k\201>\356@\223\201*f@O7\312AF\352\244\215"
 292      813EEE40 
 292      93812A66 
 292      404F37CA 
 292      4146EAA4 
 293 0af3 F7855811 		.ascii	"\367\205X\021\3360e\221|\243\367@\034f\266\337'\\K\223"
 293      DE306591 
 293      7CA3F740 
 293      1C66B6DF 
 293      275C4B93 
 294 0b07 F90D965D 		.ascii	"\371\015\226]\217HV'\302E\203=\235z8\251\015\226#\311"
 294      8F485627 
 294      C245833D 
 294      9D7A38A9 
 294      0D9623C9 
 295 0b1b 3624FAE1 		.ascii	"6$\372\341\230\343\332\341nj5\206{\353V\037\312M\232"
 295      98E3DAE1 
 295      6E6A3586 
 295      7BEB561F 
 295      CA4D9A
 296 0b2e E8D6DFB9 		.ascii	"\350\326\337\271^\007\244\015:+\336\372k\323(\203b\263"
 296      5E07A40D 
 296      3A2BDEFA 
 296      6BD32883 
 296      62B3
 297 0b40 E73B38E5 		.ascii	"\347;8\345\035k\247\255\277\226\336\322n\013\376\213"
 297      1D6BA7AD 
 297      BF96DED2 
 297      6E0BFE8B 
 298 0b50 62B3A74A 		.ascii	"b\263\247J\261\013iGo\212\205\223a\223\325\247\252\013"
 298      B10B6947 
 298      6F8A8593 
ARM GAS  /tmp/ccEpvBvh.s 			page 23


 298      6193D5A7 
 298      AA0B
 299 0b62 63FC10B4 		.ascii	"c\374\020\264\025\317\033\246ZU{\276\267M\353\336A\352"
 299      15CF1BA6 
 299      5A557BBE 
 299      B74DEBDE 
 299      41EA
 300 0b74 3E7CA769 		.ascii	">|\247i!\213\371\353\354O\275H\316\346\242\212\217\364"
 300      218BF9EB 
 300      EC4FBD48 
 300      CEE6A28A 
 300      8FF4
 301 0b86 3E286DF3 		.ascii	">(m\363\201\342'>`\362\016\031\216\251\205Sj:+\376\340"
 301      81E2273E 
 301      60F20E19 
 301      8EA98553 
 301      6A3A2BFE 
 302 0b9b 2392E26B 		.ascii	"#\222\342k\250\024\337\252\253\370\032\363\212\227\361"
 302      A814DFAA 
 302      ABF81AF3 
 302      8A97F1
 303 0baa BE88ED9F 		.ascii	"\276\210\355\237\362\3544\323`\216x\275XC\364b-\364"
 303      F2EC34D3 
 303      608E78BD 
 303      5843F462 
 303      2DF4
 304 0bbc E22C2BDE 		.ascii	"\342,+\336m\237\255\356\313\025\017h\372R\24599i\270"
 304      6D9FADEE 
 304      CB150F68 
 304      FA52A539 
 304      3969B8
 305 0bcf 77208667 		.ascii	"w \206g6+\017\243H>\257A\213\247\327\2128+\376\272f"
 305      362B0FA3 
 305      483EAF41 
 305      8BA7D78A 
 305      382BFEBA 
 306 0be4 5089E46F 		.ascii	"P\211\344o>6\015\346P\201m\237NyYZu\033\000\307\354"
 306      3E360DE6 
 306      50816D9F 
 306      4E79595A 
 306      751B00C7 
 307 0bf9 827AEBB4 		.ascii	"\202z\353\264\346\262\370b\313dv\002\204\316:\012{A"
 307      E6B2F862 
 307      CB647602 
 307      84CE3A0A 
 307      7B41
 308 0c0b 71FE6C1A 		.ascii	"q\376l\032\334Y%\331\355\235(j\034U\307\261\226;\347"
 308      DC5925D9 
 308      ED9D286A 
 308      1C55C7B1 
 308      963BE7
 309 0c1e E51BB5A4 		.ascii	"\345\033\265\244UGeW\015\\\302E\221\032\356\236p\240"
 309      55476557 
 309      0D5CC245 
 309      911AEE9E 
 309      70A0
 310 0c30 AF39C528 		.ascii	"\2579\305(\027N\033\361Lg\025\264iJWmD\2204C\030b\035"
ARM GAS  /tmp/ccEpvBvh.s 			page 24


 310      174E1BF1 
 310      4C6715B4 
 310      694A576D 
 310      44903443 
 311 0c47 6188F560 		.ascii	"a\210\365`\210K\300\020\227\201\\A\232\243\321dk\245"
 311      884BC010 
 311      97815C41 
 311      9AA3D164 
 311      6BA5
 312 0c59 95583ECC 		.ascii	"\225X>\3144\335n\207\246w\214\252YDV3\277+\205\355\031"
 312      34DD6E87 
 312      A6778CAA 
 312      59445633 
 312      BF2B85ED 
 313 0c6e 6F1061A7 		.ascii	"o\020a\247\376;e: ]\236Xn\032Qm\315W\246\253\246\003"
 313      FE3B653A 
 313      205D9E58 
 313      6E1A516D 
 313      CD57A6AB 
 314 0c84 1FD2C0BD 		.ascii	"\037\322\300\275\250CP\357C^\220\342\331\267a\265\370"
 314      A84350EF 
 314      435E90E2 
 314      D9B761B5 
 314      F8
 315 0c95 8E0577D0 		.ascii	"\216\005w\320T\220\323A\316\004y\024d+\310\343 O\203"
 315      5490D341 
 315      CE047914 
 315      642BC8E3 
 315      204F83
 316 0ca8 FC1AE439 		.ascii	"\374\032\3449\220?\200\234\004]<\035\344\\\220\363A"
 316      903F809C 
 316      045D3C1D 
 316      E45C90F3 
 316      41
 317 0cb9 2E04F901 		.ascii	".\004\371\001\310u\211\014@\216\002\355?\235|\364\003"
 317      C875890C 
 317      408E02ED 
 317      3F9D7CF4 
 317      03
 318 0cca F0D51560 		.ascii	"\360\325\025`\376\227:Y^\265Es\271\240\323\365\256\212"
 318      FE973A59 
 318      5EB54573 
 318      B9A0D3F5 
 318      AE8A
 319 0cdc 6E14D70D 		.ascii	"n\024\327\015\343\\\331\231y\351\334\370\355\025R\237"
 319      E35CD999 
 319      79E9DCF8 
 319      ED15529F 
 320 0cec AE02B35E 		.ascii	"\256\002\263^l\325\334\305\220\370\376$u\247\236\252"
 320      6CD5DCC5 
 320      90F8FE24 
 320      75A79EAA 
 321 0cfc 337E3C41 		.ascii	"3~<Au\341&\372\320\301\3431\235l\270}\362\377\244;P"
 321      75E126FA 
 321      D0C1E331 
 321      9D6CB87D 
 321      F2FFA43B 
ARM GAS  /tmp/ccEpvBvh.s 			page 25


 322 0d11 3E86D1B8 		.ascii	">\206\321\270\267[\342\253\221*\034\254\245F\215\233"
 322      B75BE2AB 
 322      912A1CAC 
 322      A5468D9B 
 323 0d21 0B5F390D 		.ascii	"\013_9\015w.4&vq\023+\303\327N\327\312F)=\301\324\002"
 323      772E3426 
 323      7671132B 
 323      C3D74ED7 
 323      CA46293D 
 324 0d38 141A930B 		.ascii	"\024\032\223\013\211\370q\250\323\304\343P\255\246\301"
 324      89F871A8 
 324      D3C4E350 
 324      ADA6C1
 325 0d47 1C2AB09B 		.ascii	"\034*\260\233$\330I\032\2608\217\272\336&\301\2762\015"
 325      24D8491A 
 325      B0388FBA 
 325      DE26C1BE 
 325      320D
 326 0d59 A666F633 		.ascii	"\246f\3663\011\326N\003\026\347Q\327{$\330Y\323`jf3"
 326      09D64E03 
 326      16E751D7 
 326      7B24D859 
 326      D3606A66 
 327 0d6e DA09B00B 		.ascii	"\332\011\260\0134`q\236\341\253!\301~2\015\246fVK\202"
 327      3460719E 
 327      E1AB21C1 
 327      7E320DA6 
 327      66564B82 
 328 0d82 DDA10173 		.ascii	"\335\241\001s\3500\323\373\220\203\200g\267@\220\332"
 328      E830D3FB 
 328      90838067 
 328      B74090DA 
 329 0d92 0ADE693B 		.ascii	"\012\336i;\310\235 w\201\374\024\344^\220\373A\036\004"
 329      C89D2077 
 329      81FC14E4 
 329      5E90FB41 
 329      1E04
 330 0da4 D94413C8 		.ascii	"\331D\023\3106\221\021fBw\012o\024g\007i\346\245#\377"
 330      36911166 
 330      42770A6F 
 330      14670769 
 330      E6A523FF 
 331 0db8 7B3F7740 		.ascii	"{?w@E\026,=\364_\330}$\276\013\252\305Jw\027\324Q\255"
 331      45162C3D 
 331      F45FD87D 
 331      24BE0BAA 
 331      C54A7717 
 332 0dcf 2FB9D60C 		.ascii	"/\271\326\014\276\344(\325\364\372\006\345t-\314\222"
 332      BEE428D5 
 332      F4FA06E5 
 332      742DCC92 
 333 0ddf DA89FAC2 		.ascii	"\332\211\372\302\203/H\276\3608\370\302\317\272'\364"
 333      832F48BE 
 333      F038F8C2 
 333      CFBA27F4 
 334 0def 856A1CD8 		.ascii	"\205j\034\330&\325\362\337p\030\370\177I\345\0137\037"
 334      26D5F2DF 
ARM GAS  /tmp/ccEpvBvh.s 			page 26


 334      7018F87F 
 334      49E50B37 
 334      1F
 335 0e00 56FBC276 		.ascii	"V\373\302v\240\360e\322\276\360\223\303\204\301\237"
 335      A0F065D2 
 335      BEF093C3 
 335      84C19F
 336 0e0f 310DE650 		.ascii	"1\015\346P\201m!\301\276\245\001\213\367\330?\011\366"
 336      816D21C1 
 336      BEA5018B 
 336      F7D83F09 
 336      F6
 337 0e20 BD693035 		.ascii	"\275i05\263\035$\330e\032\260x\217\375\223`\327L\203"
 337      B31D24D8 
 337      651AB078 
 337      8FFD9360 
 337      D74C83
 338 0e33 39F4BA97 		.ascii	"9\364\272\227\351d\035<\333\006N\342+\030\372\247AF"
 338      E9641D3C 
 338      DB064EE2 
 338      2B18FAA7 
 338      4146
 339 0e45 409E01F9 		.ascii	"@\236\001\371\017\220\337\320\270\204/H\227p\013\010"
 339      0F90DFD0 
 339      B8842F48 
 339      97700B08 
 340 0e55 1F4D7641 		.ascii	"\037MvA\211F\364\231\337o\351\354\022$}\0301\370\216"
 340      8946F499 
 340      DF6FE9EC 
 340      12247D18 
 340      31F88E
 341 0e68 6420F630 		.ascii	"d \3660\313\300A2\010\337i\2266\347\225\307\317&i\361"
 341      CBC04132 
 341      08DF6996 
 341      36E795C7 
 341      CF2669F1 
 342 0e7c F4B665E3 		.ascii	"\364\266e\343\255R\232\323\033^W\300\246\232\006KU\201"
 342      AD529AD3 
 342      1B5E57C0 
 342      A69A064B 
 342      5581
 343 0e8e CD384C80 		.ascii	"\3158L\200\3156\015ft\253\3341\260\205V\350\363\363"
 343      CD360D66 
 343      74ABDC31 
 343      B08556E8 
 343      F3F3
 344 0ea0 202F80BC 		.ascii	" /\200\274\010\362\262z\301\275\250\207v\336zT\273b"
 344      08F2B27A 
 344      C1BDA887 
 344      76DE7A54 
 344      BB62
 345 0eb2 8A795186 		.ascii	"\212yQ\206\026\327\250o\017\223}\333\320\203\"\3408"
 345      16D7A86F 
 345      0F937DDB 
 345      D08322E0 
 345      38
 346 0ec3 8CAD6BE6 		.ascii	"\214\255k\346\245\313r\300\221\200\321\002\3354\242"
ARM GAS  /tmp/ccEpvBvh.s 			page 27


 346      A5CB72C0 
 346      9180D102 
 346      DD34A2
 347 0ed2 DA5A66B5 		.ascii	"\332Zf\265\327\251^e\261\215\006/\316\235\014\013\245"
 347      D7A95E65 
 347      B18D062F 
 347      CE9D0C0B 
 347      A5
 348 0ee3 298204B6 		.ascii	")\202\004\266\3174\230\2031\374\220\267\227\243A\013"
 348      CF349883 
 348      31FC90B7 
 348      97A3410B 
 349 0ef3 37471E87 		.ascii	"7G\036\207\333\027\277\0059\001\026<\033\240g6\202l"
 349      DB17BF05 
 349      3901163C 
 349      1BA06736 
 349      826C
 350 0f05 067915E4 		.ascii	"\006y\025\344u\2207iz\254\205\274\321\361\0104\2419"
 350      75903769 
 350      7AAC85BC 
 350      D1F10834 
 350      A139
 351 0f17 D9DB6423 		.ascii	"\331\333d#\215_\034_\302\316\254\024\361#Y\347\340\236"
 351      8D5F1C5F 
 351      C2CEAC14 
 351      F12359E7 
 351      E09E
 352 0f29 D756D388 		.ascii	"\327V\323\210\352\036\273.mYI`m4`z\203\233P\253\244"
 352      EA1EBB2E 
 352      6D594960 
 352      6D34607A 
 352      839B50AB 
 353 0f3e D0C3A0D0 		.ascii	"\320\303\240\320#\322]\241\240\254\273\352a\363\367"
 353      23D25DA1 
 353      A0ACBBEA 
 353      61F3F7
 354 0f4d 4EC3A659 		.ascii	"N\303\246Y{\237i\263\352>SC,#\305\037\212)\236gE\330"
 354      7B9F69B3 
 354      EA3E5343 
 354      2C23C51F 
 354      8A299E67 
 355 0f63 8C33F36C 		.ascii	"\2143\363l\207ZM\035\373\0257(\275V\340{\240\237\340"
 355      875A4D1D 
 355      FB153728 
 355      BD56E07B 
 355      A09FE0
 356 0f76 691CBD6D 		.ascii	"i\034\275m1\275\017\371H<r\337\360b\207\357\341\321"
 356      31BD0FF9 
 356      483C72DF 
 356      F06287EF 
 356      E1D1
 357 0f88 B1D5D0E8 		.ascii	"\261\325\320\350] \367\202\334\017\362 H\321F\241\206"
 357      5D20F782 
 357      DC0FF220 
 357      48D146A1 
 357      86
 358 0f99 B32CA106 		.ascii	"\263,\241\006\342\016r"
ARM GAS  /tmp/ccEpvBvh.s 			page 28


 358      E20E72
 359 0fa0 34E5D674 		.ascii	"4\345\326t\301\343\3142Q\254\211\234\232ya\011;\253"
 359      C1E3CC32 
 359      51AC899C 
 359      9A796109 
 359      3BAB
 360 0fb2 521C229D 		.ascii	"R\034\"\235\3131\265=q\2713\354c\272uDk\200\267\031"
 360      CB31B53D 
 360      71B933EC 
 360      63BA7544 
 360      6B80B719 
 361 0fc6 54883F4C 		.ascii	"T\210?L\232\324\235U^\250\240:M\363\244\004\374]a\353"
 361      9AD49D55 
 361      5EA8A03A 
 361      4DF3A404 
 361      FC5D61EB 
 362 0fda F4768386 		.ascii	"\364v\203\206H\370\210\362v\003\351\245\005\0343\257"
 362      48F888F2 
 362      7603E9A5 
 362      051C33AF 
 363 0fea A71E55B1 		.ascii	"\247\036U\261Q\220I\362\354D\033\356\340*[R$\211\323"
 363      519049F2 
 363      EC441BEE 
 363      E02A5B52 
 363      2489D3
 364 0ffd F4484E   		.ascii	"\364HN"
 365 1000 EE4CB23E 		.ascii	"\356L\262>\022\276\032#\331\016$7jH\352\277\340\241"
 365      12BE1A23 
 365      D90E2437 
 365      6A48EABF 
 365      E0A1
 366 1012 DAA679C1 		.ascii	"\332\246y\301\303\024]\364\353\207\364_\360\020\347"
 366      C3145DF4 
 366      EB87F45F 
 366      F010E7
 367 1021 A981E936 		.ascii	"\251\201\3516\315S\003\270y\232>\337\241\257\310k\377"
 367      CD5303B8 
 367      799A3EDF 
 367      A1AFC86B 
 367      FF
 368 1032 D34BB1EC 		.ascii	"\323K\261\354\277A\211i\006\032\211\2765Cn\3324\021"
 368      BF418969 
 368      061A89BE 
 368      35436EDA 
 368      3411
 369 1044 1429B76D 		.ascii	"\024)\267m\232\266m3t\333\266\260)\2529\314\031\271"
 369      9AB66D33 
 369      74DBB6B0 
 369      29AA39CC 
 369      19B9
 370 1056 457D56ED 		.ascii	"E}V\355\012+\236\255\201\356\255M\212U\255\226\325\254"
 370      0A2B9EAD 
 370      81EEAD4D 
 370      8A55AD96 
 370      D5AC
 371 1068 CEAC2233 		.ascii	"\316\254\"3\"\267>\336}\213\255XV\025\306\334\336\212"
 371      22B73EDE 
ARM GAS  /tmp/ccEpvBvh.s 			page 29


 371      7D8BAD58 
 371      5615C6DC 
 371      DE8A
 372 107a F6EA9207 		.ascii	"\366\352\222\007\265\275*\201\314\323\005\231\370c\023"
 372      B5BD2A81 
 372      CCD30599 
 372      F86313
 373 1089 FB768DF8 		.ascii	"\373v\215\3703~O\020}\317-\320\366\034~\236A\376A\377"
 373      337E4F10 
 373      7DCF2DD0 
 373      F61C7E9E 
 373      41FE41FF 
 374 109d C695EDD2 		.ascii	"\306\225\355\322\033W\352l8X\256\177P\353_\223\270\264"
 374      1B57EA6C 
 374      3858AE7F 
 374      50EB5F93 
 374      B8B4
 375 10af 47523AA1 		.ascii	"GR:\241\363\2348\307\3544\320\316R\265v\376\235Y\"6"
 375      F39C38C7 
 375      EC34D0CE 
 375      52B576FE 
 375      9D592236 
 376 10c3 8423A78E 		.ascii	"\204#\247\216.\372O\374\014\242\210\025\304\262\372"
 376      2EFA4FFC 
 376      0CA28815 
 376      C4B2FA
 377 10d2 2BDB7017 		.ascii	"+\333p\027\245m\253\211[\014\366v\364\026\255zk>ui\304"
 377      A56DAB89 
 377      5B0CF676 
 377      F416AD7A 
 377      6B3E7569 
 378 10e7 C5A6BBB4 		.ascii	"\305\246\273\264\325\224\303%W\3314\213\303\237\244"
 378      D594C325 
 378      57D9348B 
 378      C39FA4
 379 10f6 C52DCE4F 		.ascii	"\305-\316O|-\340V\263\341E\257Ht\035\372h\254wZ\232"
 379      7C2DE056 
 379      B3E145AF 
 379      48741DFA 
 379      68AC775A 
 380 110b F12EFBFB 		.ascii	"\361.\373\3736\274\226m\325h-!\006\246\263VKw\246Dw"
 380      36BC966D 
 380      D5682D21 
 380      06A6B356 
 380      4B77A644 
 381 1120 2D05DD8A 		.ascii	"-\005\335\212\360\234f\365K\306\316\001\005|nR3\221"
 381      F09C66F5 
 381      4BC6CE01 
 381      057C6E52 
 381      3391
 382 1132 F0FC6662 		.ascii	"\360\374fbfv\3214\230C\005VG\202]\243\001\213\263\302"
 382      6676D134 
 382      98430556 
 382      47825DA3 
 382      018BB3C2 
 383 1146 584F82DD 		.ascii	"XO\202\3355\015\246f\3661\011V\371\020\005X\234\233"
 383      350DA666 
ARM GAS  /tmp/ccEpvBvh.s 			page 30


 383      F6310956 
 383      F9100558 
 383      9C9B
 384 1158 CCB69060 		.ascii	"\314\266\220`\223M\203\251\231\355 \301\246\322\200"
 384      934D83A9 
 384      99ED20C1 
 384      A6D280
 385 1167 E9EDEBE9 		.ascii	"\351\355\353\351}HS\343\331u6<\035\371\320\206'\034"
 385      7D4853E3 
 385      D975363C 
 385      1DF9D086 
 385      271C
 386 1179 1F81DC00 		.ascii	"\037\201\334\000r\023\310\315 \033An\265\251fx\357\001"
 386      7213C8CD 
 386      201B416E 
 386      B5A96678 
 386      EF01
 387 118b A755314E 		.ascii	"\247U1Nj\223Ndbbx\306H\334@i\304\314\245\0023\334\\"
 387      6A934E64 
 387      626278C6 
 387      48DC4069 
 387      C4CCA502 
 388 11a2 13C37309 		.ascii	"\023\303s\011\260\305T`\206\327\202\304p\003\001\266"
 388      B0C55460 
 388      86D782C4 
 388      700301B6 
 389 11b2 920ACCF0 		.ascii	"\222\012\314\360\366R1\374\011\001\266\226\012\314o"
 389      F65231FC 
 389      0901B696 
 389      0ACC6F
 390 11c1 CCEC3201 		.ascii	"\314\3542\001\266\221\012\354mV\207\032a\013\222\025"
 390      B6910AEC 
 390      6D56871A 
 390      610B9215 
 391 11d1 AC062B58 		.ascii	"\254\006+X\003\375\274\003d\030\344n\220{@\356S\367"
 391      03FDBC03 
 391      6418E46E 
 391      907B40EE 
 391      53F7
 392 11e3 FFD687B4 		.ascii	"\377\326\207\264\021Hr\254\004v\314\0033f\321\367F\321"
 392      114872AC 
 392      0476CC03 
 392      3366D1F7 
 392      46D1
 393 11f5 8D1DFC41 		.ascii	"\215\035\374A\024\204\376\2159\361\320\"Q\032\341\375"
 393      1484FE8D 
 393      39F1D022 
 393      511AE1FD 
 394 1205 990DE2DB 		.ascii	"\231\015\342\333\341\327yv9\324\213\353\223\262\374"
 394      E1D77976 
 394      39D48BEB 
 394      93B2FC
 395 1214 92CA2433 		.ascii	"\222\312$3\227C`\375;\3421N\266\371hx\224\214_\376\371"
 395      974360FD 
 395      3BE2314E 
 395      B6F96878 
 395      948C5FFE 
ARM GAS  /tmp/ccEpvBvh.s 			page 31


 396 1229 E10D1C24 		.ascii	"\341\015\034$\245\221 gMZ\332Zo\227\207\205\234\325"
 396      A5912067 
 396      4D5ADA5A 
 396      6F978785 
 396      9CD5
 397 123b 8E6602D2 		.ascii	"\216f\002\322\010\2213\304\213\254<X\224\214\360S\214"
 397      089133C4 
 397      8BAC3C58 
 397      948CF053 
 397      8C
 398 124c DC70633A 		.ascii	"\334pc:\"\033\227\213\024\260U\\Z\337o}\337\246\346"
 398      221B978B 
 398      14B0555C 
 398      5ADF6F7D 
 398      DFA6E6
 399 125f D2A1E5C2 		.ascii	"\322\241\345\302\250\231\300\357p\\\036L\0224\252\223"
 399      A899C0EF 
 399      705C1E4C 
 399      1234AA93 
 400 126f A1B1FB17 		.ascii	"\241\261\373\027\247\221\2246\366\374\2624\362\222\240"
 400      A7919436 
 400      F6FCB234 
 400      F292A0
 401 127e B0EF97A5 		.ascii	"\260\357\227\245\300\230\246\320\351\261a<36\232\313"
 401      C098A6D0 
 401      E9B1613C 
 401      33369ACB 
 402 128e 7E6E8BAE 		.ascii	"~n\213\25675g\341Y\256\321YGcg\311\257'\216\367\026"
 402      373567E1 
 402      59AED159 
 402      476367C9 
 402      AF278EF7 
 403 12a3 50A41358 		.ascii	"P\244\023X$'zQ'\314\253&P\277\003\025\372\033\326\335"
 403      24277A51 
 403      27CCAB26 
 403      50BF0315 
 403      FA1BD6DD 
 404 12b7 9F91AF46 		.ascii	"\237\221\257Fd\3622\213|%B\246\333\347\031\237\351\021"
 404      64F2328B 
 404      7C2542A6 
 404      DBE7199F 
 404      E911
 405 12c9 C666BA8B 		.ascii	"\306f\272\213\274\243\275\276`f(PV\372F&J\024\361\305"
 405      BCA3BDBE 
 405      60662850 
 405      56FA4626 
 405      4A14F1C5 
 406 12dd 997E5F20 		.ascii	"\231~_ \024\314,\0305\274_v\346\260a\271\231/\347\017"
 406      14CC2C18 
 406      35BC5F76 
 406      E6B061B9 
 406      992FE70F 
 407 12f1 1D39363B 		.ascii	"\03596;\323\317\027\273\212\213=}\212\230\214`\250\244"
 407      D3CF17BB 
 407      8A8B3D7D 
 407      8A988C60 
 407      A8A4
ARM GAS  /tmp/ccEpvBvh.s 			page 32


 408 1303 5FB66B8C 		.ascii	"_\266k\214\337\353s\205\354/\217x\305\221\303<\236Y"
 408      DFEB7385 
 408      EC2F8F78 
 408      C591C33C 
 408      9E59
 409 1315 160C64F2 		.ascii	"\026\014d\362\201\222gJ}\245\3023\002?\332\233\351-"
 409      8192674A 
 409      7DA5C233 
 409      023FDA9B 
 409      E92D
 410 1327 75179779 		.ascii	"u\027\227y\204\314`\310\343-\015\241\023S\313\3207:"
 410      84CC60C8 
 410      E32D0DA1 
 410      1353CBD0 
 410      373A
 411 1339 33D43F4E 		.ascii	"3\324?N\351\022\036\261*\0252]\036\241\220/+\016\271"
 411      E9121EB1 
 411      2A15325D 
 411      1EA1902F 
 411      2B0EB9
 412 134c 42E3FD42 		.ascii	"B\343\375B\020\235\335\305\345R\316\267\015\037\231"
 412      109DDDC5 
 412      E552CEB7 
 412      0D1F99
 413 135b 9BE7B48F 		.ascii	"\233\347\264\217\034\365Z~\2363edA~^^\256\323\226\377"
 413      1CF55A7E 
 413      9E336564 
 413      417E5E5E 
 413      AED396FF 
 414 136f 4A7EAED3 		.ascii	"J~\256\3232\024\035#s\235\354\237\240\266\254g]!\371"
 414      32141D23 
 414      739DEC9F 
 414      A0B6AC67 
 414      5D21F9
 415 1382 449CB404 		.ascii	"D\234\264\004\205\220\315],\360\001v\210up\201\323i"
 415      8590CD5D 
 415      2CF00176 
 415      88757081 
 415      D369
 416 1394 1D96F307 		.ascii	"\035\226\363\007\247u\320K\316aX\014\261\014v:S\275"
 416      A775D04B 
 416      CE61580C 
 416      B10C763A 
 416      53BD
 417 13a6 BE129F47 		.ascii	"\276\022\237G@\265\270\006\373|\305\251\243}|\300\323"
 417      40B5B806 
 417      FB7CC5A9 
 417      A37D7CC0 
 417      D3
 418 13b7 C7CD64B8 		.ascii	"\307\315d\270\\\350\274\342\361.o\2517\364,\215&\243"
 418      5CE8BCE2 
 418      F12E6FA9 
 418      37F42C8D 
 418      26A3
 419 13c9 4D2A71BB 		.ascii	"M*q\273\202~/jC\332\360\3419\271\001\357X!\220\021M"
 419      827E2F6A 
 419      43DAF0E1 
ARM GAS  /tmp/ccEpvBvh.s 			page 33


 419      39B901EF 
 419      58219011 
 420 13de FD71F8A8 		.ascii	"\375q\370\250to\020\241\006\205@H\360d\240\264?\340"
 420      746F10A1 
 420      06854048 
 420      F064A0B4 
 420      3FE0
 421 13f0 0B096EF4 		.ascii	"\013\011n\364#\305\355+-E\251.\036oPN\246\340\266\014"
 421      23C5ED2B 
 421      2D45A92E 
 421      1E6F504E 
 421      A6E0B60C 
 422 1404 7085D2A4 		.ascii	"p\205\322\244V\241\2245 \360\036\333\270\2007$X\203"
 422      56A19435 
 422      20F01EDB 
 422      B8803724 
 422      5883
 423 1416 E34BDDBF 		.ascii	"\343K\335\2773\303\015\245]^\337\350b\237\373\015\304"
 423      33C30DA5 
 423      5D5EDFE8 
 423      629FFB0D 
 423      C4
 424 1427 AFDB609C 		.ascii	"\257\333`\234\310\025\306z\335\302\320\322B_\352\350"
 424      C815C67A 
 424      DDC2D0D2 
 424      425FEAE8 
 425 1437 E2375C41 		.ascii	"\3427\\A\357\233B\012N\224\226\225\244\216\021B\210"
 425      EF9B420A 
 425      4E949695 
 425      A48E1142 
 425      88
 426 1448 6AA1CF32 		.ascii	"j\241\3172\266$\324\005e\006C|\010\351\252\313\340a"
 426      B624D405 
 426      6506437C 
 426      08E9AACB 
 426      E061
 427 145a 7F70BD32 		.ascii	"\177p\2752b\350\210\241\243Rq\262`\324\310|\310\033"
 427      62E888A1 
 427      A35271B2 
 427      60D4C87C 
 427      C81B
 428 146c 94336AE8 		.ascii	"\2243j\350\037\363\272\342d\316\310\021#\362\320\317"
 428      1FF3BAE2 
 428      64CEC811 
 428      23F2D0CF 
 429 147c 112FF7C0 		.ascii	"\021/\367\300?s\207\026\304r\322p\2163oP\356k\351J\012"
 429      3F738716 
 429      C472D270 
 429      8E336F50 
 429      EE6BE94A 
 430 1491 E542FA4F 		.ascii	"\345B\372O\316\241\243\224t\301k#rP\332\006\265Z\334"
 430      CEA1A394 
 430      74C16B23 
 430      7250DA06 
 430      B55ADC
 431 14a4 5E8FC51D 		.ascii	"^\217\305\035\364\244\272y?\357\366\206\306\347&c\336"
 431      F4A4BA79 
ARM GAS  /tmp/ccEpvBvh.s 			page 34


 431      3FEFF686 
 431      C6E72663 
 431      DE
 432 14b5 05F943C7 		.ascii	"\005\371C\307fe\242\356\221\255;\015eH\035\223mF\217"
 432      6665A2EE 
 432      91AD3B0D 
 432      65481D93 
 432      6D468F
 433 14c8 52FF7641 		.ascii	"R\377vA_\212F\020\216\242\021\234\304\032\301\330R+"
 433      5F8A4610 
 433      8EA2119C 
 433      C41AC1D8 
 433      522B
 434 14da E15F4937 		.ascii	"\341_I7\0318\2313rx\376\260\274Qy\017 \0007_\\<\232"
 434      19389933 
 434      7278FEB0 
 434      BC51790F 
 434      2000375F 
 435 14f1 77BF8106 		.ascii	"w\277\201\006\227P\352q\271Gw\361\3720k\257\007\345"
 435      9750EA71 
 435      B94777F1 
 435      FA306BAF 
 435      07E5
 436 1503 04833869 		.ascii	"\004\2038iC_<j| \013C\346\370J\013\275c\354n\370\032"
 436      435F3C6A 
 436      7C200B43 
 436      E6F84A0B 
 436      BD63EC6E 
 437 1519 90887520 		.ascii	"\220\210u \024%\355.\012\216\017*\343+5T\204\015\011"
 437      1425ED2E 
 437      0A8E0F2A 
 437      E32B3554 
 437      840D09
 438 152c 5996BBC8 		.ascii	"Y\226\273\310%\245\373\233\303r\027a\005\332\375\256"
 438      25A5FB9B 
 438      C3721761 
 438      05DAFDAE 
 439 153c 52A13C84 		.ascii	"R\241<\204\276\374\001a\354\020\012\010\251K\0069\207"
 439      BEFC0161 
 439      EC100A08 
 439      A94B0639 
 439      87
 440 154d E70C2F47 		.ascii	"\347\014/G%K\374\336b!\020\314|9'\007\025W\350\245\204"
 440      254BFCDE 
 440      622110CC 
 440      7C392707 
 440      1557E8A5 
 441 1562 FC017038 		.ascii	"\374\001p8\030\327\353\303##\204\252y\3364~\221\333"
 441      18D7EBC3 
 441      232384AA 
 441      79DE347E 
 441      91DB
 442 1574 17101060 		.ascii	"\027\020\020`:\316F\266\034r\207\312\377;9\024\327\330"
 442      3ACE46B6 
 442      1C7287CA 
 442      FF3B3914 
 442      D7D8
ARM GAS  /tmp/ccEpvBvh.s 			page 35


 443 1586 E74AB0E6 		.ascii	"\347J\260\346\002\302\030\344\314\260{\311z\026\035"
 443      02C218E4 
 443      CCB07BC9 
 443      7A161D
 444 1595 CFA16300 		.ascii	"\317\241c\000:\236\267\004\263\373\242#\013\035\331"
 444      3A9EB704 
 444      B3FBA223 
 444      0B1DD9
 445 15a4 E8E8878E 		.ascii	"\350\350\207\216\376\350\370-:P\271lT.\033\225\313F"
 445      FEE8F82D 
 445      3A50B96C 
 445      542E1B95 
 445      CB46
 446 15b6 E5FAA172 		.ascii	"\345\372\241r\375\262\270@\177.\360[.\360,\027x\216"
 446      FDB2B840 
 446      7F2EF05B 
 446      2EF02C17 
 446      788E
 447 15c8 0B0CE002 		.ascii	"\013\014\340\002\317[\002Y}\321\221\305\025\007\320"
 447      CF5B0259 
 447      7DD191C5 
 447      1507D0
 448 15d7 573F9BDF 		.ascii	"W?\233\337\205\330\246`\015\217\023\002\350\333W\354"
 448      85D8A660 
 448      0D8F1302 
 448      E8DB57EC 
 449 15e7 11025677 		.ascii	"\021\002Vw\021\037\300j\347K\204\324\220l\177\350OH"
 449      111FC06A 
 449      E74B84D4 
 449      906C7FE8 
 449      4F48
 450 15f9 A584246F 		.ascii	"\245\204$o\206~\027\026\363c\202)\241\200P\030\004="
 450      867E1716 
 450      F3638229 
 450      A1805018 
 450      043D
 451 160b E284AD24 		.ascii	"\342\204\255$8\006\375);V\344T\344\224=\340\031\217"
 451      3806FD29 
 451      3B56E454 
 451      E4943DE0 
 451      198F
 452 161d FE4A15CA 		.ascii	"\376J\025\312\275!\244\026\301>.\344\033\375g\177\272"
 452      BD21A416 
 452      C13E2EE4 
 452      1BFD677F 
 452      BA
 453 162e 3056280D 		.ascii	"0V(\015\225\360A\260\316q8a\361\273\312\272J\366\022"
 453      95F041B0 
 453      CE713861 
 453      F1BBCABA 
 453      4AF612
 454 1641 741523F3 		.ascii	"t\025#\363w\205\272E-H\312I\363\273\306\361\336\220"
 454      7785BA45 
 454      2D48CA49 
 454      F3BBC6F1 
 454      DE90
 455 1653 B7744C37 		.ascii	"\267tL7%\373/eB\031b\325\235(\011Y]\374.T-$m\220D\031"
ARM GAS  /tmp/ccEpvBvh.s 			page 36


 455      25FB2F65 
 455      421962D5 
 455      9D280959 
 455      5DFC2E54 
 456 166d 821F8D03 		.ascii	"\202\037\215\003t\262\255\244\014uy?SFY\022*\307\306"
 456      74B2ADA4 
 456      0C75793F 
 456      53465912 
 456      2AC7C6
 457 1680 5322A1A3 		.ascii	"S\"\241\243o\337\270R\2449@BM(\001[E\374P9\314\264\013"
 457      6FDFB852 
 457      A4394042 
 457      4D28015B 
 457      45FC5039 
 458 1697 D60A5F0C 		.ascii	"\326\012_\014\026\2062\375(\000<g\252>\2711\250\316"
 458      168632FD 
 458      28003C67 
 458      AA3EB931 
 458      A8CE
 459 16a9 9EF27842 		.ascii	"\236\362xBZ\026\002B\251\033\265\326.e\375>\021\"\242"
 459      5A160242 
 459      A91BB5D6 
 459      2E65FD3E 
 459      1122A2
 460 16bc 949933BC 		.ascii	"\224\2313\274`h\001\362S\231\020m\013\373\367\315*\007"
 460      606801F2 
 460      5399106D 
 460      0BFBF7CD 
 460      2A07
 461 16ce ABC5DE62 		.ascii	"\253\305\336b\024\032\023\271B\241%\307\231\205\216"
 461      141A13B9 
 461      42A125C7 
 461      99858E
 462 16dd 6CAEC0C9 		.ascii	"l\256\300\311\241\370\227\343\314\311w\332\235\257\242"
 462      A1F897E3 
 462      CCC977DA 
 462      9DAFA2
 463 16ec 6FA77D14 		.ascii	"o\247}\024|\245\014\315.\310y\351e\247\015}\347;-\310"
 463      7CA50CCD 
 463      2EC879E9 
 463      65A70D7D 
 463      E73B2DC8 
 464 1700 B9BC64D6 		.ascii	"\271\274d\326G\202|\251\177y\271D\304\345)\341q\343"
 464      47827CA9 
 464      7F79B944 
 464      C4E529E1 
 464      71E3
 465 1712 72870F72 		.ascii	"r\207\017r\025 S\342K\0246\\\216\323:\"w\224\323\222"
 465      152053E2 
 465      4B14365C 
 465      8ED33A22 
 465      7794D392 
 466 1726 3FC8691D 		.ascii	"?\310i\035\336\027\213\254AN\313K\210L\020\012Z\275"
 466      DE178BAC 
 466      414ECB4B 
 466      884C100A 
 466      5ABD
ARM GAS  /tmp/ccEpvBvh.s 			page 37


 467 1738 85EE80DD 		.ascii	"\205\356\200\335\033,\362\026\206\322\202Bq\241\267"
 467      1B2CF216 
 467      86D28242 
 467      71A1B7
 468 1747 D42394DB 		.ascii	"\324#\224\333\307\242\240\346\013\364\214\242\273\244"
 468      C7A2A0E6 
 468      0BF48CA2 
 468      BBA4
 469 1755 D228FEA2 		.ascii	"\322(\376\242\037\201r,C\345i\201r\364\215-9-\244\244"
 469      1F81722C 
 469      43E56981 
 469      72F48D2D 
 469      392DA4A4 
 470 1769 ACA8397E 		.ascii	"\254\2509~[q\320]8\306V\204%\216\256\222/\354\006\001"
 470      5B71D05D 
 470      38C65684 
 470      258EAE92 
 470      2FEC0601 
 471 177d CDC57B3C 		.ascii	"\315\305{<\001!\030\024\202\275p\010F\376\335\205\202"
 471      01211814 
 471      82BD7008 
 471      46FEDD85 
 471      82
 472 178e AB1B85F3 		.ascii	"\253\033\205\363h\264\265\242?\374\217\020\377B\030"
 472      68B4B5A2 
 472      3FFC8F10 
 472      FF4218
 473 179d 8D05E034 		.ascii	"\215\005\3404\210\376CQ\304\357\012\251\002!4\270\354"
 473      88FE4351 
 473      C4EF0AA9 
 473      022134B8 
 473      EC
 474 17ae CD378500 		.ascii	"\3157\205\000\347+MWr\206\345\345\232\016=1\265\026"
 474      E72B4D57 
 474      7286E5E5 
 474      9A0E3D31 
 474      B516
 475 17c0 452756DD 		.ascii	"E'V\335%\035\270\201;\236edH\216_\032"
 475      251DB881 
 475      3B9E6564 
 475      488E5F1A 
 476 17d0 6E0FBBE4 		.ascii	"n\017\273\344)\230\013Mb\306\004|e~\254\204\236\304"
 476      29980B4D 
 476      62C6047C 
 476      657EAC84 
 476      9EC4
 477 17e2 640CE597 		.ascii	"d\014\345\227\371\221\336p~\300\356\303\2363\220\342"
 477      F991DE70 
 477      7EC0EEC3 
 477      9E3390E2 
 478 17f2 0BFA05C1 		.ascii	"\013\372\005\301\023\260\371\313\374\236\200\305\347"
 478      13B0F9CB 
 478      FC9E80C5 
 478      E7
 479 17ff 0958F9C2 		.ascii	"\011X\371\302@1\026E\366\374A\271|\210\267\347\017\226"
 479      40311645 
 479      F6FC41B9 
ARM GAS  /tmp/ccEpvBvh.s 			page 38


 479      7C88B7E7 
 479      0F96
 480 1811 BE72A4AF 		.ascii	"\276r\244\257\\\351+O\372\032\202\277\322\362\007\015"
 480      5CE92B4F 
 480      FA1A82BF 
 480      D2F2070D 
 481 1821 9334DB13 		.ascii	"\2234\333\023\223P\246fR\304y\244O\300\347A\205\372"
 481      9350A666 
 481      52C479A4 
 481      4FC0E741 
 481      85FA
 482 1833 74FEEBFF 		.ascii	"t\376\353\377\001\020xgs"
 482      01107867 
 482      73
 483              		.text
 484              		.section	.gnu.lto_.symtab.5aaaa7388a2d381e,"",%progbits
 485 0000 5F5F6561 		.ascii	"__early_init\000\000\000\000\000\000\000\000\000\000"
 485      726C795F 
 485      696E6974 
 485      00000000 
 485      00000000 
 486 0016 0000DE00 		.ascii	"\000\000\336\000\000\000mmc_lld_is_card_inserted\000"
 486      00006D6D 
 486      635F6C6C 
 486      645F6973 
 486      5F636172 
 487 0035 00000000 		.ascii	"\000\000\000\000\000\000\000\000\000\000\000\342\000"
 487      00000000 
 487      000000E2 
 487      00
 488 0042 00006D6D 		.ascii	"\000\000mmc_lld_is_write_protected\000\000\000\000\000"
 488      635F6C6C 
 488      645F6973 
 488      5F777269 
 488      74655F70 
 489 0063 00000000 		.ascii	"\000\000\000\000\000\000\000\206\002\000\000boardIn"
 489      00000086 
 489      02000062 
 489      6F617264 
 489      496E
 490 0075 69740000 		.ascii	"it\000\000\000\000\000\000\000\000\000\000\000\000\212"
 490      00000000 
 490      00000000 
 490      00008A
 491 0084 02000062 		.ascii	"\002\000\000boardSetBuzzer\000\000\000\000\000\000\000"
 491      6F617264 
 491      53657442 
 491      757A7A65 
 491      72000000 
 492 009c 00000000 		.ascii	"\000\000\000\000\000\215\002\000\000boardSetLED\000"
 492      008D0200 
 492      00626F61 
 492      72645365 
 492      744C4544 
 493 00b1 00000000 		.ascii	"\000\000\000\000\000\000\000\000\000\000\000\224\002"
 493      00000000 
 493      00000094 
ARM GAS  /tmp/ccEpvBvh.s 			page 39


 493      02
 494 00be 00007061 		.ascii	"\000\000pal_default_config\000\000\000\000\000\000\000"
 494      6C5F6465 
 494      6661756C 
 494      745F636F 
 494      6E666967 
 495 00d9 00000000 		.ascii	"\000\000\000\000\000\243\002\000\000stm32_clock_ini"
 495      00A30200 
 495      0073746D 
 495      33325F63 
 495      6C6F636B 
 496 00f1 74000002 		.ascii	"t\000\000\002\000\000\000\000\000\000\000\000\000\230"
 496      00000000 
 496      00000000 
 496      0098
 497 00ff 0200005F 		.ascii	"\002\000\000_pal_lld_setgroupmode\000\000\002\000\000"
 497      70616C5F 
 497      6C6C645F 
 497      73657467 
 497      726F7570 
 498 011c 00000000 		.ascii	"\000\000\000\000\000\000\000\232\002\000\000"
 498      0000009A 
 498      020000
 499              		.text
 500              		.section	.gnu.lto_.opts,"",%progbits
 501 0000 272D6D63 		.ascii	"'-mcpu=cortex-m4' '-mfloat-abi=hard' '-mfpu=fpv4-sp"
 501      70753D63 
 501      6F727465 
 501      782D6D34 
 501      2720272D 
 502 0033 2D643136 		.ascii	"-d16' '-mno-thumb-interwork' '-mthumb' '-O2' '-fomi"
 502      2720272D 
 502      6D6E6F2D 
 502      7468756D 
 502      622D696E 
 503 0066 742D6672 		.ascii	"t-frame-pointer' '-falign-functions=16' '-ffunction"
 503      616D652D 
 503      706F696E 
 503      74657227 
 503      20272D66 
 504 0099 2D736563 		.ascii	"-sections' '-fdata-sections' '-fno-common' '-flto' "
 504      74696F6E 
 504      73272027 
 504      2D666461 
 504      74612D73 
 505 00cc 272D6673 		.ascii	"'-fsingle-precision-constant'\000"
 505      696E676C 
 505      652D7072 
 505      65636973 
 505      696F6E2D 
 506              		.text
 507              		.section	.text.__early_init,"ax",%progbits
 508              		.align	2
 509              		.p2align 4,,15
 510              		.global	__early_init
 511              		.thumb
 512              		.thumb_func
ARM GAS  /tmp/ccEpvBvh.s 			page 40


 513              		.type	__early_init, %function
 514              	__early_init:
 515              		@ args = 0, pretend = 0, frame = 0
 516              		@ frame_needed = 0, uses_anonymous_args = 0
 517              		@ link register save eliminated.
 518 0000 FFF7FEBF 		b	stm32_clock_init
 519              		.size	__early_init, .-__early_init
 520 0004 AFF30080 		.section	.text.mmc_lld_is_card_inserted,"ax",%progbits
 520      AFF30080 
 520      AFF30080 
 521              		.align	2
 522              		.p2align 4,,15
 523              		.global	mmc_lld_is_card_inserted
 524              		.thumb
 525              		.thumb_func
 526              		.type	mmc_lld_is_card_inserted, %function
 527              	mmc_lld_is_card_inserted:
 528              		@ args = 0, pretend = 0, frame = 0
 529              		@ frame_needed = 0, uses_anonymous_args = 0
 530              		@ link register save eliminated.
 531 0000 024B     		ldr	r3, .L3
 532 0002 1869     		ldr	r0, [r3, #16]
 533 0004 C0F38000 		ubfx	r0, r0, #2, #1
 534 0008 7047     		bx	lr
 535              	.L4:
 536 000a 00BF     		.align	2
 537              	.L3:
 538 000c 000C0240 		.word	1073875968
 539              		.size	mmc_lld_is_card_inserted, .-mmc_lld_is_card_inserted
 540              		.section	.text.mmc_lld_is_write_protected,"ax",%progbits
 541              		.align	2
 542              		.p2align 4,,15
 543              		.global	mmc_lld_is_write_protected
 544              		.thumb
 545              		.thumb_func
 546              		.type	mmc_lld_is_write_protected, %function
 547              	mmc_lld_is_write_protected:
 548              		@ args = 0, pretend = 0, frame = 0
 549              		@ frame_needed = 0, uses_anonymous_args = 0
 550              		@ link register save eliminated.
 551 0000 0020     		movs	r0, #0
 552 0002 7047     		bx	lr
 553              		.size	mmc_lld_is_write_protected, .-mmc_lld_is_write_protected
 554 0004 AFF30080 		.section	.text.boardInit,"ax",%progbits
 554      AFF30080 
 554      AFF30080 
 555              		.align	2
 556              		.p2align 4,,15
 557              		.global	boardInit
 558              		.thumb
 559              		.thumb_func
 560              		.type	boardInit, %function
 561              	boardInit:
 562              		@ args = 0, pretend = 0, frame = 0
 563              		@ frame_needed = 0, uses_anonymous_args = 0
 564 0000 70B5     		push	{r4, r5, r6, lr}
 565 0002 364E     		ldr	r6, .L7
ARM GAS  /tmp/ccEpvBvh.s 			page 41


 566 0004 364D     		ldr	r5, .L7+4
 567 0006 374C     		ldr	r4, .L7+8
 568 0008 3046     		mov	r0, r6
 569 000a 4FF40041 		mov	r1, #32768
 570 000e 1922     		movs	r2, #25
 571 0010 FFF7FEFF 		bl	_pal_lld_setgroupmode
 572 0014 3448     		ldr	r0, .L7+12
 573 0016 0421     		movs	r1, #4
 574 0018 2022     		movs	r2, #32
 575 001a FFF7FEFF 		bl	_pal_lld_setgroupmode
 576 001e 2846     		mov	r0, r5
 577 0020 4FF48061 		mov	r1, #1024
 578 0024 40F29A22 		movw	r2, #666
 579 0028 FFF7FEFF 		bl	_pal_lld_setgroupmode
 580 002c 2846     		mov	r0, r5
 581 002e 4FF48051 		mov	r1, #4096
 582 0032 40F29A22 		movw	r2, #666
 583 0036 FFF7FEFF 		bl	_pal_lld_setgroupmode
 584 003a 2846     		mov	r0, r5
 585 003c 4FF40061 		mov	r1, #2048
 586 0040 40F28222 		movw	r2, #642
 587 0044 FFF7FEFF 		bl	_pal_lld_setgroupmode
 588 0048 2846     		mov	r0, r5
 589 004a 4021     		movs	r1, #64
 590 004c 40F20242 		movw	r2, #1026
 591 0050 FFF7FEFF 		bl	_pal_lld_setgroupmode
 592 0054 2846     		mov	r0, r5
 593 0056 8021     		movs	r1, #128
 594 0058 40F20242 		movw	r2, #1026
 595 005c FFF7FEFF 		bl	_pal_lld_setgroupmode
 596 0060 2046     		mov	r0, r4
 597 0062 4021     		movs	r1, #64
 598 0064 40F28232 		movw	r2, #898
 599 0068 FFF7FEFF 		bl	_pal_lld_setgroupmode
 600 006c 2046     		mov	r0, r4
 601 006e 8021     		movs	r1, #128
 602 0070 40F28232 		movw	r2, #898
 603 0074 FFF7FEFF 		bl	_pal_lld_setgroupmode
 604 0078 3046     		mov	r0, r6
 605 007a 0421     		movs	r1, #4
 606 007c 40F28232 		movw	r2, #898
 607 0080 FFF7FEFF 		bl	_pal_lld_setgroupmode
 608 0084 3046     		mov	r0, r6
 609 0086 0821     		movs	r1, #8
 610 0088 40F28232 		movw	r2, #898
 611 008c FFF7FEFF 		bl	_pal_lld_setgroupmode
 612 0090 2046     		mov	r0, r4
 613 0092 8021     		movs	r1, #128
 614 0094 40F20222 		movw	r2, #514
 615 0098 FFF7FEFF 		bl	_pal_lld_setgroupmode
 616 009c 2046     		mov	r0, r4
 617 009e 4021     		movs	r1, #64
 618 00a0 40F20222 		movw	r2, #514
 619 00a4 FFF7FEFF 		bl	_pal_lld_setgroupmode
 620 00a8 2846     		mov	r0, r5
 621 00aa 4FF40071 		mov	r1, #512
 622 00ae 40F20222 		movw	r2, #514
ARM GAS  /tmp/ccEpvBvh.s 			page 42


 623 00b2 FFF7FEFF 		bl	_pal_lld_setgroupmode
 624 00b6 3046     		mov	r0, r6
 625 00b8 4FF48071 		mov	r1, #256
 626 00bc 40F20222 		movw	r2, #514
 627 00c0 FFF7FEFF 		bl	_pal_lld_setgroupmode
 628 00c4 2046     		mov	r0, r4
 629 00c6 0821     		movs	r1, #8
 630 00c8 1922     		movs	r2, #25
 631 00ca FFF7FEFF 		bl	_pal_lld_setgroupmode
 632 00ce 2046     		mov	r0, r4
 633 00d0 2021     		movs	r1, #32
 634 00d2 1922     		movs	r2, #25
 635 00d4 BDE87040 		pop	{r4, r5, r6, lr}
 636 00d8 FFF7FEBF 		b	_pal_lld_setgroupmode
 637              	.L8:
 638              		.align	2
 639              	.L7:
 640 00dc 00000240 		.word	1073872896
 641 00e0 00080240 		.word	1073874944
 642 00e4 00040240 		.word	1073873920
 643 00e8 000C0240 		.word	1073875968
 644              		.size	boardInit, .-boardInit
 645 00ec AFF30080 		.section	.text.boardSetBuzzer,"ax",%progbits
 646              		.align	2
 647              		.p2align 4,,15
 648              		.global	boardSetBuzzer
 649              		.thumb
 650              		.thumb_func
 651              		.type	boardSetBuzzer, %function
 652              	boardSetBuzzer:
 653              		@ args = 0, pretend = 0, frame = 0
 654              		@ frame_needed = 0, uses_anonymous_args = 0
 655              		@ link register save eliminated.
 656 0000 034B     		ldr	r3, .L14
 657 0002 0822     		movs	r2, #8
 658 0004 08B9     		cbnz	r0, .L13
 659 0006 5A83     		strh	r2, [r3, #26]	@ movhi
 660 0008 7047     		bx	lr
 661              	.L13:
 662 000a 1A83     		strh	r2, [r3, #24]	@ movhi
 663 000c 7047     		bx	lr
 664              	.L15:
 665 000e 00BF     		.align	2
 666              	.L14:
 667 0010 00040240 		.word	1073873920
 668              		.size	boardSetBuzzer, .-boardSetBuzzer
 669 0014 AFF30080 		.section	.text.boardSetLED,"ax",%progbits
 669      AFF30080 
 669      AFF30080 
 670              		.align	2
 671              		.p2align 4,,15
 672              		.global	boardSetLED
 673              		.thumb
 674              		.thumb_func
 675              		.type	boardSetLED, %function
 676              	boardSetLED:
 677              		@ args = 0, pretend = 0, frame = 0
ARM GAS  /tmp/ccEpvBvh.s 			page 43


 678              		@ frame_needed = 0, uses_anonymous_args = 0
 679              		@ link register save eliminated.
 680 0000 034B     		ldr	r3, .L20
 681 0002 2022     		movs	r2, #32
 682 0004 08B9     		cbnz	r0, .L19
 683 0006 5A83     		strh	r2, [r3, #26]	@ movhi
 684 0008 7047     		bx	lr
 685              	.L19:
 686 000a 1A83     		strh	r2, [r3, #24]	@ movhi
 687 000c 7047     		bx	lr
 688              	.L21:
 689 000e 00BF     		.align	2
 690              	.L20:
 691 0010 00040240 		.word	1073873920
 692              		.size	boardSetLED, .-boardSetLED
 693              		.global	pal_default_config
 694 0014 AFF30080 		.section	.rodata.pal_default_config,"a",%progbits
 694      AFF30080 
 694      AFF30080 
 695              		.align	2
 696              		.type	pal_default_config, %object
 697              		.size	pal_default_config, 168
 698              	pal_default_config:
 699 0000 A004802A 		.word	713032864
 700 0004 00000000 		.word	0
 701 0008 AFFBFFFF 		.word	-1105
 702 000c 05511564 		.word	1679118597
 703 0010 DFFF0000 		.word	65503
 704 0014 00770000 		.word	30464
 705 0018 00A00A00 		.word	696320
 706 001c 80000000 		.word	128
 707 0020 00000000 		.word	0
 708 0024 FFFFFFFF 		.word	-1
 709 0028 55555555 		.word	1431655765
 710 002c FFFF0000 		.word	65535
 711 0030 00000000 		.word	0
 712 0034 00000000 		.word	0
 713 0038 00000000 		.word	0
 714 003c 00000000 		.word	0
 715 0040 FFFFFFFF 		.word	-1
 716 0044 55555551 		.word	1364546901
 717 0048 FFFF0000 		.word	65535
 718 004c 00000000 		.word	0
 719 0050 00000000 		.word	0
 720 0054 00000000 		.word	0
 721 0058 00000000 		.word	0
 722 005c FFFFFFFF 		.word	-1
 723 0060 55555555 		.word	1431655765
 724 0064 FFFF0000 		.word	65535
 725 0068 00000000 		.word	0
 726 006c 00000000 		.word	0
 727 0070 00000000 		.word	0
 728 0074 00000000 		.word	0
 729 0078 FFFFFFFF 		.word	-1
 730 007c 45000000 		.word	69
 731 0080 FFFF0000 		.word	65535
 732 0084 00000000 		.word	0
ARM GAS  /tmp/ccEpvBvh.s 			page 44


 733 0088 00000000 		.word	0
 734 008c 00000000 		.word	0
 735 0090 00000000 		.word	0
 736 0094 FFFFFFFF 		.word	-1
 737 0098 00000000 		.word	0
 738 009c FFFF0000 		.word	65535
 739 00a0 00000000 		.word	0
 740 00a4 00000000 		.word	0
 741              		.comm	__gnu_lto_v1,1,1
 742              		.ident	"GCC: (GNU Tools for ARM Embedded Processors) 4.8.4 20140526 (release) [ARM/embedded-4_8-br
ARM GAS  /tmp/ccEpvBvh.s 			page 45


DEFINED SYMBOLS
                            *ABS*:0000000000000000 board.c
     /tmp/ccEpvBvh.s:508    .text.__early_init:0000000000000000 $t
     /tmp/ccEpvBvh.s:514    .text.__early_init:0000000000000000 __early_init
     /tmp/ccEpvBvh.s:521    .text.mmc_lld_is_card_inserted:0000000000000000 $t
     /tmp/ccEpvBvh.s:527    .text.mmc_lld_is_card_inserted:0000000000000000 mmc_lld_is_card_inserted
     /tmp/ccEpvBvh.s:538    .text.mmc_lld_is_card_inserted:000000000000000c $d
     /tmp/ccEpvBvh.s:541    .text.mmc_lld_is_write_protected:0000000000000000 $t
     /tmp/ccEpvBvh.s:547    .text.mmc_lld_is_write_protected:0000000000000000 mmc_lld_is_write_protected
     /tmp/ccEpvBvh.s:555    .text.boardInit:0000000000000000 $t
     /tmp/ccEpvBvh.s:561    .text.boardInit:0000000000000000 boardInit
     /tmp/ccEpvBvh.s:640    .text.boardInit:00000000000000dc $d
     /tmp/ccEpvBvh.s:646    .text.boardSetBuzzer:0000000000000000 $t
     /tmp/ccEpvBvh.s:652    .text.boardSetBuzzer:0000000000000000 boardSetBuzzer
     /tmp/ccEpvBvh.s:667    .text.boardSetBuzzer:0000000000000010 $d
     /tmp/ccEpvBvh.s:670    .text.boardSetLED:0000000000000000 $t
     /tmp/ccEpvBvh.s:676    .text.boardSetLED:0000000000000000 boardSetLED
     /tmp/ccEpvBvh.s:691    .text.boardSetLED:0000000000000010 $d
     /tmp/ccEpvBvh.s:698    .rodata.pal_default_config:0000000000000000 pal_default_config
     /tmp/ccEpvBvh.s:695    .rodata.pal_default_config:0000000000000000 $d
                            *COM*:0000000000000001 __gnu_lto_v1
     /tmp/ccEpvBvh.s:645    .text.boardInit:00000000000000ec $t
     /tmp/ccEpvBvh.s:669    .text.boardSetBuzzer:0000000000000014 $t
     /tmp/ccEpvBvh.s:694    .text.boardSetLED:0000000000000014 $t

UNDEFINED SYMBOLS
stm32_clock_init
_pal_lld_setgroupmode
