ARM GAS  /tmp/ccAVppXH.s 			page 1


   1              		.syntax unified
   2              		.cpu cortex-m4
   3              		.eabi_attribute 27, 3
   4              		.eabi_attribute 28, 1
   5              		.fpu fpv4-sp-d16
   6              		.eabi_attribute 20, 1
   7              		.eabi_attribute 21, 1
   8              		.eabi_attribute 23, 3
   9              		.eabi_attribute 24, 1
  10              		.eabi_attribute 25, 1
  11              		.eabi_attribute 26, 1
  12              		.eabi_attribute 30, 2
  13              		.eabi_attribute 34, 1
  14              		.eabi_attribute 18, 4
  15              		.thumb
  16              		.file	"chdynamic.c"
  17              		.section	.gnu.lto_.jmpfuncs.4d7b55470f52ebea,"",%progbits
  18 0000 789C758C 		.ascii	"x\234u\214\313\015\2000\014\305\342\327rf\204\256\305"
  18      CB0D8030 
  18      0CC5E2D7 
  18      726684AE 
  18      C5
  19 0011 0A2CD059 		.ascii	"\012,\320Y\030\2211x\375 \201\004\2718\211,+\024_sL"
  19      18913178 
  19      FD208104 
  19      B938892C 
  19      2B145F73 
  20 0026 2E8185E4 		.ascii	".\201\205\344\255F\200\300\360\243\310\327\311\306\216"
  20      AD4680C0 
  20      F0A3C8D7 
  20      C9C68E
  21 0035 6F35D2F5 		.ascii	"o5\322\365\346R;4\220\006\262\241\036\342v\362\372\250"
  21      E6523B34 
  21      9006B2A1 
  21      1EE276F2 
  21      FAA8
  22 0047 E855F9E9 		.ascii	"\350U\371\3510\003q\001h\027\013#"
  22      30037101 
  22      68170B23 
  23              		.text
  24              		.section	.gnu.lto_.inline.4d7b55470f52ebea,"",%progbits
  25 0000 789C6362 		.ascii	"x\234cb`b\300\006\336BiV\006\006\036\021Ff\006F\006"
  25      6062C006 
  25      DE426956 
  25      06061E11 
  25      46660646 
  26 0015 06E6058C 		.ascii	"\006\346\005\214`\252\001J\261p\260v\2503\260w\2503"
  26      60AA014A 
  26      B170B076 
  26      A833B077 
  26      A833
  27 0027 3130BE60 		.ascii	"10\276`g\201\220 \202\003\314\344\000\021\002`\246\000"
  27      67819020 
  27      8203CCE4 
  27      00110260 
  27      A600
  28 0039 C824661E 		.ascii	"\310$f\036\006\006\246\011~\023\374\030\0318\330\031"
ARM GAS  /tmp/ccAVppXH.s 			page 2


  28      0606A609 
  28      7E13FC18 
  28      1938D819 
  29 0049 1998380E 		.ascii	"\031\2308\016\3301p|\320\003[\317\304 \307\007\024R"
  29      D831707C 
  29      D0035BCF 
  29      C420C707 
  29      1452
  30 005b 5FD1C6C8 		.ascii	"_\321\306\310\300;\307\034\"\306\315\300\3008\301\017"
  30      C03BC71C 
  30      22C6CDC0 
  30      C038C10F 
  31 006b 4A313388 		.ascii	"J13\210\351\003Up\375\361f`[ \317\204d \003\310xV\220"
  31      E9035570 
  31      FDF16660 
  31      5B20CF84 
  31      642003C8 
  32 0082 C110C8C2 		.ascii	"\301\020\310\302\013\265\207\205A\034\244\205wU\022"
  32      0BB58785 
  32      411CA485 
  32      775512
  33 0091 03FB2D35 		.ascii	"\003\373-5|Z@\302@;\030\000\221/$\277"
  33      7C5A40C2 
  33      403B1800 
  33      912F24BF 
  34              		.text
  35              		.section	.gnu.lto_.pureconst.4d7b55470f52ebea,"",%progbits
  36 0000 789C6362 		.ascii	"x\234cb`b\340f\200\000V\006)F+&+f+\026+\000\006)\001"
  36      6062E066 
  36      80005606 
  36      29462B26 
  36      2B662B16 
  37 0019 21       		.ascii	"!"
  38              		.text
  39              		.section	.gnu.lto_chThdRelease.part.0.4d7b55470f52ebea,"",%progbits
  40 0000 789CAD92 		.ascii	"x\234\255\2221K\303P\020\307\357\377\336\213\026'?\202"
  40      314BC350 
  40      10C7EFFF 
  40      DE8B1627 
  40      3F82
  41 0012 E8A40533 		.ascii	"\350\244\0053\010\"~\001qoA\335\332\244\266A\332BZ\205"
  41      08227E01 
  41      716F41DD 
  41      DAA4B641 
  41      DA425A85 
  42 0026 E2D017B1 		.ascii	"\342\320\027\261\340X\\\004],\375\000\256\216\335E\305"
  42      E0585C04 
  42      5D2CFD00 
  42      AE8EDD45 
  42      C5
  43 0037 4D9DF20D 		.ascii	"M\235\362\015\\\245\212\361^B\252\266\210\213\017rw"
  43      5CA58AF1 
  43      5E42AAB6 
  43      888B0F72 
  43      77
  44 0048 EFB8DFFD 		.ascii	"\357\270\337\375\357\222\010\0224~\262\374lpz\235=,"
  44      EF920812 
ARM GAS  /tmp/ccAVppXH.s 			page 3


  44      347EB2FC 
  44      6C707A9D 
  44      3D2C
  45 005a 82EADE71 		.ascii	"\202\352\336q\240 b/ \215\0172\0220\001\201\332JH\264"
  45      A020622F 
  45      208D0F32 
  45      12300181 
  45      DA4A48B4 
  46 006e B76160CC 		.ascii	"\267a`\314SO\353\323\260\363\362\2103=\010.\365{\024"
  46      534FEBD3 
  46      B0F3F288 
  46      333D082E 
  46      F57B14
  47 0081 011E5868 		.ascii	"\001\036Xh\025\344\200\266\370\202L\354\004~*_\011\035"
  47      15E480B6 
  47      F8824CEC 
  47      047E2A5F 
  47      091D
  48 0093 46D1D347 		.ascii	"F\321\323Gf\006\250\032\302\203\224\306(c,6\212\253"
  48      6606A81A 
  48      C28394C6 
  48      28632C36 
  48      8AAB
  49 00a5 2C3AD6BA 		.ascii	",:\326\272;W@\217\305\310\264\344\223ck\306\311q\011"
  49      3B57408F 
  49      C5C8B4E4 
  49      93636BC6 
  49      C97109
  50 00b8 7B998788 		.ascii	"{\231\207\210\375\015OZ@\237\367p\301%\267t\364\374"
  50      FD0D4F5A 
  50      409FF770 
  50      C125B774 
  50      F4FC
  51 00ca 3A5C4B32 		.ascii	":\\K2e\210,-q\347\013:\017\264\236\365`\225\0013\230"
  51      65882C2D 
  51      71E70B3A 
  51      0FB49EF5 
  51      60950133 
  52 00df 8CC7298E 		.ascii	"\214\307)\216\306cl'e\344\037\014\276\230\315\204\231"
  52      C6636C27 
  52      65E41F0C 
  52      BE98CD84 
  52      99
  53 00f0 04C42450 		.ascii	"\004\304$P6\367\357:\352\037t\324\3442,\236\274\206"
  53      36F7EF3A 
  53      EA1F74D4 
  53      E4322C9E 
  53      BC86
  54 0102 EBB750A4 		.ascii	"\353\267P\244ZV\214\252_\265\322\237\344\236:\203\305"
  54      5A568CAA 
  54      5FB5D29F 
  54      E49E3A83 
  54      C5
  55 0113 04223AA4 		.ascii	"\004\":\244\241>1\325S\316h\007\003z\230N\252\363\314"
  55      A13E31D5 
  55      53CE6807 
  55      037A984E 
ARM GAS  /tmp/ccAVppXH.s 			page 4


  55      AAF3CC
  56 0126 8F7F03EE 		.ascii	"\217\177\003\356\364@A8\\H\273$'\307\035\270\324\350"
  56      F4404138 
  56      5C48BB24 
  56      27C71DB8 
  56      D4E8
  57 0138 ACD8957A 		.ascii	"\254\330\225z\265d;u\267e\273\245\003\333\251xE\257"
  57      B5643B75 
  57      B765BBA5 
  57      03DBA978 
  57      45AF
  58 014a DEB09BFE 		.ascii	"\336\260\233\376~m\317\346\300o\332\015\337\341\274"
  58      7E6DCFE6 
  58      C06FDA0D 
  58      DFE1BC
  59 0159 DBAA15AA 		.ascii	"\333\252\025\252\236\263\354\220\362K\273\215O\311\004"
  59      9EB3EC90 
  59      F24BBB8D 
  59      4FC904
  60 0168 8BC3     		.ascii	"\213\303"
  61              		.text
  62              		.section	.gnu.lto_chThdAddRef.4d7b55470f52ebea,"",%progbits
  63 0000 789C8D50 		.ascii	"x\234\215P=K\003A\020\235\331\273S\321\306R\233p\215"
  63      3D4B0341 
  63      109DD9BB 
  63      53D1C652 
  63      9B708D
  64 0013 8D91AC90 		.ascii	"\215\221\254\220?\020\020\204\024iL\004\255\344\262"
  64      3F101084 
  64      14694C04 
  64      ADE4B2
  65 0022 77248BDE 		.ascii	"w$\213\336\235\\>4U.\211E@\221 \026\032\261\020D\301"
  65      9D5C3E34 
  65      552E8945 
  65      40912016 
  65      1AB11044 
  66 0037 42C55F60 		.ascii	"B\305_`ee\002\266b!h-\370\013\342\356]\022\304&\016"
  66      656502B6 
  66      6221682D 
  66      F80BE2EE 
  66      5D12C426 
  67 004c ECCCECCE 		.ascii	"\354\314\354\316\233\267\363\206\000\201\2776+\316!"
  67      9BB7F386 
  67      0081BF36 
  67      2BCE21
  68 005b 021C8988 		.ascii	"\002\034\211\210\012 iu\001j\023\004Q&\200P%X]\307\000"
  68      0A206975 
  68      016A1304 
  68      51268050 
  68      25585DC7 
  69 0070 7B471EDF 		.ascii	"{G\036\337{\275\333\366\323\3253\236\222I\005m\004\025"
  69      7BBDDBF6 
  69      D3D5339E 
  69      9249056D 
  69      0415
  70 0082 3882269D 		.ascii	"8\202&\2350\015\366|\277\245\003\260\340\232\021^\262"
  70      300DF67C 
ARM GAS  /tmp/ccAVppXH.s 			page 5


  70      BFA503B0 
  70      E09A115E 
  70      B2
  71 0093 AC229151 		.ascii	"\254\"\221Q\351B\375\373\353\370cf\0103\360\0025\010"
  71      E942FDFB 
  71      EBF86366 
  71      0833F002 
  71      3508
  72 00a5 BE41D851 		.ascii	"\276A\330Q\344xJ8c\004\232x\356\237$8\006Lk\310\221"
  72      E4784A38 
  72      63049A78 
  72      EE9F2438 
  72      064C6BC8 
  73 00ba E8321BD6 		.ascii	"\3502\033\326\367\373u%\324\321\201\372\353\333\347"
  73      F7FB7525 
  73      D4D181FA 
  73      EBDBE7
  74 00c9 811652E6 		.ascii	"\201\026R\346P\215\302<G\365\014\332\242U\313\241\""
  74      508DC23C 
  74      47F50CDA 
  74      A255CBA1 
  74      22
  75 00da 29C60268 		.ascii	")\306\002h\026\007\342;\320h6\312\203\026\201R%J\305"
  75      1607E23B 
  75      D06836CA 
  75      83168152 
  75      254AC5
  76 00ed 902F1916 		.ascii	"\220/\031\026\242p\343\013\233\032\301\226\223J\376"
  76      A270E30B 
  76      9B1AC196 
  76      934AFE
  77 00fc A3D0C04B 		.ascii	"\243\320\300K1t\240\010~)2\360\032#!\325\013\324\356"
  77      3174A008 
  77      7E2932F0 
  77      1A2321D5 
  77      0BD4EE
  78 010f 1FE283B1 		.ascii	"\037\342\203\261\372\0023b\023b\211\022\033\247y\327"
  78      FA023362 
  78      13628912 
  78      1BA779D7 
  79 011f B62873CD 		.ascii	"\266(s\315\0125\2552ey\236\345n\201\026\275\222\263"
  79      0A35AD32 
  79      65799EE5 
  79      6E8116BD 
  79      92B3
  80 0131 4945E215 		.ascii	"IE\342\025i\301c\342\335\2548\206\315Y\214AbT\217\265"
  80      69C163E2 
  80      DDAC3886 
  80      CD598C41 
  80      62548FB5 
  81 0145 5BA44BA9 		.ascii	"[\244K\251t2M\271\303\266J\246\304z\326\006\263\227"
  81      74324DB9 
  81      C3B64AA6 
  81      C47AD606 
  81      B397
  82 0157 4B0E8BE5 		.ascii	"K\016\213\345a:\225^\321\263F\301\332\366\370\202>\267"
  82      613A955E 
ARM GAS  /tmp/ccAVppXH.s 			page 6


  82      D1B346C1 
  82      DAF6F882 
  82      3EB7
  83 0169 08C48371 		.ascii	"\010\304\203q\333\262]\257\002?\000\320\201\252"
  83      DBB25DAF 
  83      023F00D0 
  83      81AA
  84              		.text
  85              		.section	.gnu.lto_chThdRelease.4d7b55470f52ebea,"",%progbits
  86 0000 789CA553 		.ascii	"x\234\245SMh\023Q\020\236yo\377\2226Z\244\202\010\206"
  86      4D681351 
  86      109E796F 
  86      FF92365A 
  86      A4820886 
  87 0014 8078B1D2 		.ascii	"\200x\261\322\015x\361\"\024\004\241\207^L\213?\227"
  87      0D78F122 
  87      1404A187 
  87      5E4C8B3F 
  87      97
  88 0025 926C42BA 		.ascii	"\222lB\272j\022\331\266\332\340\241\233&B\301\037\202"
  88      6A12D9B6 
  88      DAE0A19B 
  88      2642C11F 
  88      82
  89 0036 78104554 		.ascii	"x\020ET,\010\"*^\365\320\203\026\377ZQz\022\205\212"
  89      2C08222A 
  89      5EF5D083 
  89      16FF5A51 
  89      7A12858A 
  90 004a A037410A 		.ascii	"\2407A\012\245\364R\337\274\227]\233\246X\301\007\231"
  90      A5F452DF 
  90      BC975D9B 
  90      A658C107 
  90      99
  91 005b F733F37D 		.ascii	"\3673\363}3\337d\226\001\203\365kP\374\3064\200\253"
  91      33DF6496 
  91      0183F56B 
  91      50FCC634 
  91      80AB
  92 006d 62470B90 		.ascii	"bG\013\220\325\347\000*\026c|\336\006?j>\217\203\337"
  92      D5E7002A 
  92      16637CDE 
  92      063F6A3E 
  92      8F83DF
  93 0080 CE9936B3 		.ascii	"\316\2316\263\213no\222\342\246q\363\302N\360-]ZC\235"
  93      8B6E6F92 
  93      E2A671F3 
  93      C24EF02D 
  93      5D5A439D 
  94 0094 D1544043 		.ascii	"\321T@C\035\320D\244\035\020\306\031\327t\303\304\361"
  94      1DD044A4 
  94      1D10C619 
  94      D774C3C4 
  94      F1
  95 00a5 E328333E 		.ascii	"\343(3>f\323\013\253\253\217\226f\246\036\342m\266\235"
  95      66D30BAB 
  95      AB8F9666 
ARM GAS  /tmp/ccAVppXH.s 			page 7


  95      A61EE26D 
  95      B69D
  96 00b7 63014103 		.ascii	"c\001A\003\027A'c\221\211\220\211\012\203mdbd:\351M"
  96      17412763 
  96      91899089 
  96      0A836D64 
  96      62643AE9 
  97 00cc 2C1D6ABE 		.ascii	",\035j\276_O\0008\362\332/,%\032@F;\237\203\211_?\257"
  97      5F4F0038 
  97      F2DA2F2C 
  97      251A4046 
  97      3B9F8389 
  98 00e3 7DDB1186 		.ascii	"}\333\021\206\245\361.\352 +A8\307\251\005\\\365!\016"
  98      A5F12EEA 
  98      202B4138 
  98      C7A9055C 
  98      F5210E
  99 00f6 9378CBBF 		.ascii	"\223x\313\277\336\343\242\274\036C\027y\202N\241\377"
  99      DEE3A2BC 
  99      1E431779 
  99      824EA1FF 
 100 0106 62C3AFA9 		.ascii	"b\303\257\251^\315\302\304\247\317w\256\304\025e\036"
 100      5ECDC2C4 
 100      A7CF77AE 
 100      C415651E 
 101 0116 B52ED8EB 		.ascii	"\265.\330\353\242~\023n\010\250\221GN\024Jd\006\203"
 101      A27E136E 
 101      08A89147 
 101      4E144A64 
 101      0683
 102 0128 06CF4275 		.ascii	"\006\317Bu\262z2\200\350\002EQ\372**\302\327uC\371\272"
 102      B27A3280 
 102      E8024551 
 102      FA2A2AC2 
 102      D77543F9 
 103 013d E0812FD6 		.ascii	"\340\201/\326\301M\010\363$\346_D\246q\012\271\022\005"
 103      C14D08F3 
 103      24E65F44 
 103      A6710AB9 
 103      1205
 104 014f 6B44A5F1 		.ascii	"kD\245\361>\306\025\325+x\361\343\353\313\305dX\033"
 104      3EC615D5 
 104      2B78F1E3 
 104      EBCBC564 
 104      581B
 105 0161 05370DC7 		.ascii	"\0057\015\307\200\300\316\333\234t?\331\022\204YR\265"
 105      80C0CEDB 
 105      9C743FD9 
 105      12845952 
 105      B5
 106 0172 B9719101 		.ascii	"\271q\221\001\236\270+GC\210d\336\332\304\254Au\233"
 106      9EB82B47 
 106      438864DE 
 106      DAC4AC41 
 106      759B
 107 0184 645E5E5C 		.ascii	"d^^\\\306 0\"\271\255\215\271\203\341\025\035}V\375"
 107      C6203022 
ARM GAS  /tmp/ccAVppXH.s 			page 8


 107      B9AD8DB9 
 107      83E1151D 
 107      7D56FD
 108 0197 1E623A05 		.ascii	"\036b:\005L\362\223\316wP\233\326C\317e\270T\251\371"
 108      4CF293CE 
 108      77509BD6 
 108      43CF65B8 
 108      54A9F9
 109 01aa 1D2E4608 		.ascii	"\035.F\010\227m0\251\327\351\247\246\333\000\242t\262"
 109      976D30A9 
 109      D7E9A7A6 
 109      DB00A274 
 109      B2
 110 01bb B5CE8FA1 		.ascii	"\265\316\217\241\223I'o\252]\207\212\301\337\212iW\231"
 110      9349276F 
 110      AA5D878A 
 110      C1DF8A69 
 110      5799
 111 01cd 24564A59 		.ascii	"$VJY:\020\344\216J%\270\261\022\036*\2318\021\000\332"
 111      3A10E48E 
 111      4A25B8B1 
 111      121E2A99 
 111      381100DA 
 112 01e1 FE06D0FE 		.ascii	"\376\006\320\376\000z\203qi\212\216\266F\013\312\346"
 112      007A8371 
 112      698A8EB6 
 112      460BCAE6 
 113 01f1 0CB1FFCA 		.ascii	"\014\261\377\312\020k\025 \322\002\274\207\332\302\227"
 113      106B1520 
 113      D202BC87 
 113      DAC297
 114 0200 7BD16002 		.ascii	"{\321`\002\317\303\212?I-\217:\215h\221\310\245RT\353"
 114      CFC38A3F 
 114      492D8F3A 
 114      8D6891C8 
 114      A55254EB 
 115 0214 8CF5ADE3 		.ascii	"\214\365\255\343\222\302j\301\267;\215\177D\342c\001"
 115      92C26AC1 
 115      B73B8D7F 
 115      44E26301 
 116 0224 DE945FF9 		.ascii	"\336\224_\371Z\002\221\345\003T\026Vv\207\037\201\\"
 116      5A0291E5 
 116      03541656 
 116      76871F81 
 116      5C
 117 0235 FDC22142 		.ascii	"\375\302!B\211c\277=T*\344l\247\224-\333\331\334Y\333"
 117      8963BF3D 
 117      542AE46C 
 117      A7942DDB 
 117      D9DC59DB 
 118 0249 1972336E 		.ascii	"\031r3ni\330\036\361F\213\247lq\360F\354a\317\021\357"
 118      69D81EF1 
 118      468BA76C 
 118      71F046EC 
 118      61CF11EF 
 119 025d D972315D 		.ascii	"\331r1]p\235n\007z6\303\344\306F\354C}\251\336\224\355"
 119      709D6E07 
ARM GAS  /tmp/ccAVppXH.s 			page 9


 119      7A36C3E4 
 119      C646EC43 
 119      7DA9DE94 
 120 0272 169DD3A3 		.ascii	"\026\235\323\243Y\212\365r\203N\341\360h\321\351\036"
 120      598AF572 
 120      834EE1F0 
 120      68D1E91E 
 121 0282 828EBED4 		.ascii	"\202\216\276\324\221D&=\234;\343\271\373\022{\222\300"
 121      9144263D 
 121      9C3BE3B9 
 121      FB127B92 
 121      C0
 122 0293 3C300BB9 		.ascii	"<0\013\271B\311+\303o\225\032\022\012"
 122      42C92BC3 
 122      6F951A12 
 122      0A
 123              		.text
 124              		.section	.gnu.lto_chThdCreateFromHeap.4d7b55470f52ebea,"",%progbits
 125 0000 789C8D52 		.ascii	"x\234\215RMh\023Q\020\236yo\3436\177Z\360\242\227\022"
 125      4D681351 
 125      109E796F 
 125      E3367F5A 
 125      F0A29712 
 126 0014 0A9E94AE 		.ascii	"\012\236\224\256P\360\340\251 \010\036z1\026\364$\233"
 126      50F0E0A9 
 126      20081E7A 
 126      3116F424 
 126      9B
 127 0025 9765F3D0 		.ascii	"\227e\363\320M\302&Q\203`\237\241\005Q\321P<\264\376"
 127      4DC22651 
 127      83609FA1 
 127      0551D150 
 127      3CB4FE
 128 0038 408BF4A0 		.ascii	"@\213\364\240\326*x\351\301C\012\"\032\264\305\203\240"
 128      D62A78E9 
 128      C1430A22 
 128      1AB4C583 
 128      A0
 129 0049 881090E2 		.ascii	"\210\020\220\342Y\364\240\242\306y\273\333\320z\251"
 129      59F4A0A2 
 129      C679BBDB 
 129      D07AA9
 130 0058 0FF6FD7C 		.ascii	"\017\366\375|3\337\31473\313\200\301\277k\230\276e\202"
 130      33DFCC37 
 130      33CB80C1 
 130      BF6B98BE 
 130      6582
 131 006a 67E8C418 		.ascii	"g\350\304\030 k\256\000\\\354c\314hsP\011\376\274\015"
 131      206BAE00 
 131      5CEC63CC 
 131      68735009 
 131      FEBC0D
 132 007d A0521C8D 		.ascii	"\240R\034\215\0207\020\365\005\020\306\0317p\374\004"
 132      103710F5 
 132      0510C619 
 132      3770FC04 
 133 008d EA206C10 		.ascii	"\352 l\020\346\224\232\352\314?x\2113\25251\253~u\273"
ARM GAS  /tmp/ccAVppXH.s 			page 10


 133      E6949AEA 
 133      CC3F7889 
 133      33AA3531 
 133      AB7E75BB 
 134 00a1 881229E1 		.ascii	"\210\022)\341\001\004\201p\234\036\230\011\016flV\020"
 134      01048170 
 134      9C1E9809 
 134      0E666C56 
 134      10
 135 00b2 725B1FDB 		.ascii	"r[\037\333\327v\253\331FS\375!\252D\316\340\340V\314"
 135      D776ABD9 
 135      4653FD21 
 135      AA44CEE0 
 135      E056CC
 136 00c5 47ACD5E9 		.ascii	"G\254\325\351v_\275}|\365)>d;\021\210f\240\207\020\243"
 136      765FBD7D 
 136      7CF5293E 
 136      643B1188 
 136      66A08710 
 137 00da 0D4DB071 		.ascii	"\015M\260q\016\007!N\017\226\240\215'i3\322\004\337"
 137      0E07214E 
 137      0F96A08D 
 137      276933D2 
 137      04DF
 138 00ec 2598560C 		.ascii	"%\230V\014&\224jfB\267uT\004\025\035\243]\027:\206L"
 138      26946A66 
 138      42B77554 
 138      04151DA3 
 138      5D173A86 
 139 0101 9F7C1526 		.ascii	"\237|\025&;Kkh\343<5\311E\363<\374T\227T\277DC`@ \320"
 139      3B4B6B68 
 139      E33C35C9 
 139      45F33CFC 
 139      549754BF 
 140 011b 703126C9 		.ascii	"p1&\311\014/\340\331\347\345\257\227y\317[\213\337\244"
 140      0C2FE0D9 
 140      E7E5AF97 
 140      79CF5B8B 
 140      DFA4
 141 012d 7C0C3950 		.ascii	"|\0149Pg\371\0124\276\374\276\361iW\244\004 \244\004"
 141      67F90A34 
 141      BEFCBEF1 
 141      6957A404 
 141      20A404
 142 0140 0D46B8C0 		.ascii	"\015F\270\300\365\300x8\265\001\270\216w\324\364\210"
 142      F5C07838 
 142      B501B88E 
 142      77D4F488 
 143 0150 C46DFAA9 		.ascii	"\304m\372\251C\232\031}\353\331\247\"{_\230c\025\246"
 143      439A197D 
 143      EBD9A722 
 143      7B5F9863 
 143      15A6
 144 0162 D5E2ED2B 		.ascii	"\325\342\355+=\025\351\236\346\270@\026i6I\263\213q"
 144      3D15E99E 
 144      E6B84016 
 144      693649B3 
ARM GAS  /tmp/ccAVppXH.s 			page 11


 144      8B71
 145 0174 17132E26 		.ascii	"\027\023.&%&\000^Cc\351\373\223\037Q\251{\341\276\242"
 145      2526005E 
 145      4363E9FB 
 145      931F51A9 
 145      7BE1BEA2 
 146 0188 45A6E42D 		.ascii	"E\246\344-\270I9S\024H\347\346A\200\\T\226F\222\030"
 146      B8493953 
 146      1448E7E6 
 146      41805C54 
 146      96469218 
 147 019c 249DECBC 		.ascii	"$\235\354\274[3\327\313\350\245L\213\210\021\321\267"
 147      5B33D7CB 
 147      E8A54C8B 
 147      8811D1B7 
 148 01ac 030D6B07 		.ascii	"\003\015k\007\300\3774\300\306{D\016\012\206\015\005"
 148      C0FF34C0 
 148      C67B440E 
 148      0A860D05 
 149 01bc DBB88003 		.ascii	"\333\270\200\003\033[j\004\223zC\177\251N\023({\017"
 149      1B5B6A04 
 149      937A437F 
 149      A94E1328 
 149      7B0F
 150 01ce 1889658B 		.ascii	"\030\211e\213\337\332\214\222\363\205\017)=^\324\316"
 150      DFDA8C92 
 150      F3850F29 
 150      3D5ED4CE 
 151 01de 3ACEB055 		.ascii	":\316\260U(y\216%J\371\272\225w\316X\242 s\262T\261"
 151      28798E25 
 151      4AF9BA95 
 151      77CE58A2 
 151      2073B254 
 152 01f3 AA7EAD78 		.ascii	"\252~\255x\312\242\213_\265*\276 <_/\332\236\024C\002"
 152      CAA28B5F 
 152      B52ABE20 
 152      3C5F2FDA 
 152      9E144302 
 153 0207 F8D94A99 		.ascii	"\370\331J\231U\313#[Q\235sU\353\320h\366H\326\222Eq"
 153      55CB235B 
 153      519D7355 
 153      EBD068F6 
 153      48D69245 
 154 021c BA96D7BE 		.ascii	"\272\226\327\276\276sRx\207kE1T\200\376\321\354\321"
 154      BE735278 
 154      876B4531 
 154      5480FED1 
 154      ECD1
 155 022e 4CCEAE38 		.ascii	"L\316\2568e_\356\313\354\331\017\314\007\323s\274\222"
 155      655FEECB 
 155      ECD90FCC 
 155      07D373BC 
 155      92
 156 023f 5F87BF9C 		.ascii	"_\207\277\234\371\317\373"
 156      F9CFFB
 157              		.text
 158              		.section	.gnu.lto_chThdCreateFromMemoryPool.4d7b55470f52ebea,"",%progbits
ARM GAS  /tmp/ccAVppXH.s 			page 12


 159 0000 789C8D53 		.ascii	"x\234\215SMh\023A\024~of\233\2776\266Z\017z)\241\340"
 159      4D681341 
 159      147E6F66 
 159      9BBF36B6 
 159      5A0F7A29 
 160 0016 C5D6AE50 		.ascii	"\305\326\256P\360\340\251 \010\036z1\026\364$\233IH"
 160      F0E0A920 
 160      081E7A31 
 160      16F4249B 
 160      4948
 161 0028 06DDA46C 		.ascii	"\006\335\244l\0225\010v\032\"x\252\241xH\325B\213xP"
 161      12350876 
 161      1A2278AA 
 161      A17848D5 
 161      428B7850 
 162 003c 44F126A8 		.ascii	"D\361&\250PA\244VL\361\250x\010\024\251\007\321\366"
 162      5041A456 
 162      4CF1A878 
 162      0814A907 
 162      D1F6
 163 004e E40FD5F8 		.ascii	"\344\017\325\370fw\023Z\025\352\300\316\317{\357{\337"
 163      6677135A 
 163      15EAC0CE 
 163      CF7BEF7B 
 163      DF
 164 005f F7DECC32 		.ascii	"\367\336\3142`\360\347\030\246\357\000\007\230\241\025"
 164      60F0E718 
 164      A6EF0007 
 164      98A115
 165 006e 3B0059B5 		.ascii	";\000Y\265\0160\031b\314X\342\240\"\374\305\022\200"
 165      0E301962 
 165      CC58E2A0 
 165      22FCC512 
 165      80
 166 007f EAE26878 		.ascii	"\352\342hxv\003Qo\000a\202q\003'N\241N\302\372a^\251"
 166      7603516F 
 166      00618271 
 166      03274EA1 
 166      4EC2FA61 
 167 0095 E9C68795 		.ascii	"\351\306\207\225\2278\243\026*sj\243\331D\224H\204\207"
 167      9738A316 
 167      2A736AA3 
 167      D9449448 
 167      8487
 168 00a7 1004C249 		.ascii	"\020\004\302I:`\314]\230\261U\201\207]xX\237\332\253"
 168      3A60CC5D 
 168      98B15581 
 168      875D7858 
 168      9FDAAB
 169 00ba E6CA55F5 		.ascii	"\346\312U\365\213\240\0229\203\303\333!\037\260\205"
 169      8BA01239 
 169      83C3DB21 
 169      1FB085
 170 00c9 46B3F969 		.ascii	"F\263\371i}me\021{w#\020\312@\033!\000\026\316c?\204"
 170      7D6D6511 
 170      7B772310 
 170      CA401B21 
ARM GAS  /tmp/ccAVppXH.s 			page 13


 170      0016CE63 
 171 00df C86284C9 		.ascii	"\310b\204\311\202\021\232X'M<J\276[\344\243\321\001"
 171      82119A58 
 171      274D3C4A 
 171      BE5BE4A3 
 171      D101
 172 00f1 15A5AA31 		.ascii	"\025\245\2521/\266e\025nA'h\326u\216!\323+_\206J\343"
 172      2FB66515 
 172      6E412768 
 172      D6758E21 
 172      D32B5F86 
 173 0107 E62A5A78 		.ascii	"\346*Zx\233z\224\306\300E\370\241\256\250\036\211\035"
 173      9B7A94C6 
 173      C045F8A1 
 173      AEA81E89 
 173      1D
 174 0118 025D0019 		.ascii	"\002]\000\031\015\211\001\200Ex\276\372\354\361\024"
 174      0D890180 
 174      4578BEFA 
 174      ECF114
 175 0127 6F876AE1 		.ascii	"o\207j\341[T\217!\007\352*\257Cy\375\347\265\225=\276"
 175      5B548F21 
 175      07EA2AAF 
 175      4379FDE7 
 175      B5953DBE 
 176 013b 0C000FE2 		.ascii	"\014\000\017\3426\027\341\022\327\227\305\275\033\353"
 176      3617E112 
 176      D797C5BD 
 176      1BEB
 177 0149 83AB38AB 		.ascii	"\203\2538\253j#\022\203\372\250S\206bz\327\366O\373"
 177      6A231283 
 177      FAA85386 
 177      627AD7F6 
 177      4FFB
 178 015b FEB0C7F1 		.ascii	"\376\260\307\361\032\312\357\336\177\234\035l\251\010"
 178      1ACAEFDE 
 178      7F9C1D6C 
 178      A908
 179 0169 0DC07E89 		.ascii	"\015\300~\211\221\033p}R)U\222\330Izu\232.7<\321V\270"
 179      911B707D 
 179      52295592 
 179      D8497A75 
 179      9A2E373C 
 180 0180 0C359569 		.ascii	"\0145\225i\241\242\3552\243\002\231_f\200\262\2451\234"
 180      A1A2ED32 
 180      A302995F 
 180      6680B2A5 
 180      319C
 181 0192 C6481A3B 		.ascii	"\306H\032;%\356p\311\036}\373\374\335\357\316\000\334"
 181      25EE70C9 
 181      1E7DFBFC 
 181      DDEFCE00 
 181      DC
 182 01a3 250A45AE 		.ascii	"%\012E\256n\242#\212\036J\244\251\270O\345qiK7\363\244"
 182      6EA2238A 
 182      1E4AA4A9 
 182      B84FE571 
ARM GAS  /tmp/ccAVppXH.s 			page 14


 182      694B37F3 
 183 01b8 BEAA7DF9 		.ascii	"\276\252}\371\033\015\377F\267d\030Z\353\345\306\323"
 183      1B0DFF46 
 183      B764185A 
 183      EBE5C6D3 
 184 01c8 D560AB6D 		.ascii	"\325`\253mm\261;\205\037\355Cw\001\275\203^\200\377"
 184      6DB13B85 
 184      1FED4377 
 184      01BD835E 
 184      80FF
 185 01da 69B88577 		.ascii	"i\270\205w\010\3546\03065\330\302{\330\267\371\012\015"
 185      08EC3618 
 185      3635D8C2 
 185      7BD8B7F9 
 185      0A0D
 186 01ec F759BCA1 		.ascii	"\367Y\274\241?B\323\270%\275\005\364\205\262\373O\352"
 186      3F42D3B8 
 186      25BD05F4 
 186      85B2FB4F 
 186      EA
 187 01fd 8CC8F9C6 		.ascii	"\214\310\371\306\327.\375\226P\007\353<\303f&g\247L"
 187      D72EFD96 
 187      5007EB3C 
 187      C3662667 
 187      A74C
 188 020f 914B96CC 		.ascii	"\221K\226\314d\352\234)22!sy\263\340\024\263gL\3328"
 188      64EA9C29 
 188      32322173 
 188      79B3E014 
 188      B3674CDA 
 189 0224 0533EF08 		.ascii	"\0053\357\010\262'KY\313\226bH\000?\237\037g\205\361"
 189      B2274B59 
 189      CB966248 
 189      003F9F1F 
 189      6785F1
 190 0237 91EDA0A9 		.ascii	"\221\355\240\251\013\005\363\310h\374X\334\224Yq\266"
 190      0B05F3C8 
 190      68FC58DC 
 190      945971B6 
 191 0247 98D4B14E 		.ascii	"\230\324\261N\352\264\260\217\026\263b(\003=\243\361"
 191      EAB4B08F 
 191      16B36228 
 191      033DA3F1 
 192 0257 E3B18495 		.ascii	"\343\261\204\225O\215;r0\266\357 0\007\202v\312\316"
 192      4F8D3B72 
 192      30B6EF20 
 192      30078276 
 192      CACE
 193 0269 3925F80D 		.ascii	"9%\370\015\256\313\347\273"
 193      AECBE7BB 
 194              		.text
 195              		.section	.gnu.lto_.symbol_nodes.4d7b55470f52ebea,"",%progbits
 196 0000 789C4DC8 		.ascii	"x\234M\310K\016\2020\000\204\341\231\026h\341\322C\302"
 196      4B0E8230 
 196      0084E199 
 196      1668E1D2 
 196      43C2
ARM GAS  /tmp/ccAVppXH.s 			page 15


 197 0012 C6B8F202 		.ascii	"\306\270\362\002\272\341>\234A\251&4>v\306\235\261\012"
 197      BAE13E9C 
 197      41A92634 
 197      3E76C69D 
 197      B10A
 198 0024 B1CCE6CF 		.ascii	"\261\314\346\3177\006\006\021\313\314\223\002v\003 "
 198      37060611 
 198      CBCC9302 
 198      760320
 199 0033 ED373423 		.ascii	"\35574#\305\205\207\304@\231\025\317\224]\361B\025\231"
 199      C58587C4 
 199      409915CF 
 199      945DF142 
 199      1599
 200 0045 8C5439B3 		.ascii	"\214T9\263m\311\211\252\262\356\224\313\272Q>\353J\325"
 200      6DC989AA 
 200      B2EE94CB 
 200      BA513EEB 
 200      4AD5
 201 0057 590FAAF9 		.ascii	"Y\017\252\371\313\242D8\275iM\205~;\244\002\343\267"
 201      CBA24438 
 201      BD694D85 
 201      7E3BA402 
 201      E3B7
 202 0069 B646774C 		.ascii	"\266FwL\277\365\010\323+\325\241\217\251E3\377\205G"
 202      BFF508D3 
 202      2BD5A18F 
 202      A94533FF 
 202      8547
 203 007b F7B34348 		.ascii	"\367\263CH\305\007m\375J\032"
 203      C5076DFD 
 203      4A1A
 204              		.text
 205              		.section	.gnu.lto_.refs.4d7b55470f52ebea,"",%progbits
 206 0000 789C6362 		.ascii	"x\234cb`b`d\200\002\000\000F\000\006"
 206      60626064 
 206      80020000 
 206      460006
 207              		.text
 208              		.section	.gnu.lto_.decls.4d7b55470f52ebea,"",%progbits
 209 0000 789CBD5B 		.ascii	"x\234\275[{p\024E\032\237\236\311\356f\223\010\250w"
 209      7B701445 
 209      1A9F9EC9 
 209      EE669308 
 209      A877
 210 0012 1E58226B 		.ascii	"\036X\"k\225^Y^I\302C\010W\245\301\342J\271\272\362"
 210      955E595E 
 210      49C24308 
 210      57A5C1E2 
 210      4AB9BAF2 
 211 0026 CAD3B3CE 		.ascii	"\312\323\263\316?\254Z\206\315$\273G6\273\267;\341q"
 211      3FAC5A86 
 211      CD24BB47 
 211      36BBB73B 
 211      E171
 212 0038 75554C02 		.ascii	"uUL\002\004D\301@ $\274\022\300\024pxh\000\015\301\300"
 212      0444C140 
ARM GAS  /tmp/ccAVppXH.s 			page 16


 212      2024BC12 
 212      C0147078 
 212      68000DC1 
 213 004d 0D0F170C 		.ascii	"\015\017\027\014\030\014\0224\242\030\343\001\242\205"
 213      180C1234 
 213      A218E301 
 213      A285
 214 005b 148FC82B 		.ascii	"\024\217\310+a\357\353\236\231\335\231\311\314\356L"
 214      61EFEB9E 
 214      99DD99C9 
 214      CCEE4C
 215 006a F46E8A9E 		.ascii	"\364n\212\236\351\355\351\357\327\337\253\277\376\272"
 215      E9EDE9EF 
 215      D7DFABBF 
 215      FEBA
 216 0078 27D0144D 		.ascii	"'\320\024M\275EST\034\256\312\011\024\365\216\223\242"
 216      BD455354 
 216      1CAECA09 
 216      14F58E93 
 216      A2
 217 0089 E01FF514 		.ascii	"\340\037\365\024\024h\2466@\331FIW6\224]P\246#\212\362"
 217      1468A636 
 217      40D94649 
 217      5736945D 
 217      50A6238A 
 218 009e 432985D2 		.ascii	"C)\205\322\002\3453(_B\371\032\3129(?@\271\212\250\001"
 218      02E53328 
 218      5F42F91A 
 218      CA39283F 
 218      40B98AA8 
 219 00b3 17A6CD84 		.ascii	"\027\246\315\204\342\201wC\340\231\003\245\031J\001"
 219      E2817743 
 219      E09903A5 
 219      194A01
 220 00c2 94DD50AE 		.ascii	"\224\335P\256C{\027\024\006\352C\341y\027\224W\220\304"
 220      437B1714 
 220      06EA43E1 
 220      79179457 
 220      90C4
 221 00d4 07A6FD4C 		.ascii	"\007\246\375L~\347\205\347\015(7uc`\276\\\360\304\315"
 221      7EE785E7 
 221      0D283775 
 221      6360BE5C 
 221      F0C4CD
 222 00e7 B7E01683 		.ascii	"\267\340\026\203g\037\222\306\333-\217\205\337\215B"
 222      671F92C6 
 222      DB2D8F85 
 222      DF8D42
 223 00f6 D273BAFC 		.ascii	"\322s\272\374,\322\341\370e\376\220Lc\2045\002I\272"
 223      2CD2E1F8 
 223      65FE904C 
 223      63843502 
 223      49BA
 224 0108 C17ABA03 		.ascii	"\301z\272\003\3653P\342P\336\205\337\016y\214\341PF"
 224      F53350E2 
 224      50DE85DF 
 224      0E798CE1 
ARM GAS  /tmp/ccAVppXH.s 			page 17


 224      5046
 225 011a A2A42C8C 		.ascii	"\242\244,\214\214\215u\205\345\311\200R\202$E#(4\255"
 225      8C8D7585 
 225      E5C98052 
 225      82244523 
 225      2834AD
 226 012d E503EB77 		.ascii	"\345\003\353w\230\254\037\265\276\030\350w\011i\371"
 226      98AC1FB5 
 226      BE18E877 
 226      0969F9
 227 013c CA80B6F3 		.ascii	"\312\200\266\3632O\230?\007-\331\255G\226\021\363\221"
 227      324F983F 
 227      072DD9AD 
 227      479611F3 
 227      91
 228 014d 2163FE20 		.ascii	"!c\376 \333\011\333\013\363\3726<\233\240\354\300|A"
 228      DB09DB0B 
 228      F3FA363C 
 228      9BA0ECC0 
 228      7C41
 229 015f 794FA70F 		.ascii	"yO\247\017l\343_\030\360\201i\2350\3165\035/\377\200"
 229      6CE35F18 
 229      F081699D 
 229      30CE351D 
 229      2FFF80
 230 0172 B2174A6B 		.ascii	"\262\027Jk\032\276\260>\332d\035\275\"\363\327\"\373"
 230      1ABEB03E 
 230      DA641DBD 
 230      22F3D722 
 230      FB
 231 0183 8EC21F6E 		.ascii	"\216\302\037n;\001\317\223P:\241\234\322\361\346\246"
 231      3B01CF93 
 231      503AA19C 
 231      D2F1E6A6 
 232 0193 16094285 		.ascii	"\026\011B\205\320\335(\014\257\005\336^F,\032\342\006"
 232      D0DD280C 
 232      AF05DE5E 
 232      462C1AE2 
 232      06
 233 01a4 2FC3951C 		.ascii	"/\303\225\0347\021\375\021\352MA\250\352n<\367-#\010"
 233      3711FD11 
 233      EA4D41A8 
 233      EA6E3CF7 
 233      2D2308
 234 01b7 992CDA80 		.ascii	"\231,\332\200\334\240\361? \3521j\253\000o\004\241\347"
 234      DCA0F13F 
 234      20EA316A 
 234      AB006F04 
 234      A1E7
 235 01c9 31036FB5 		.ascii	"1\003o\265\001\335[\371\257\337\020\350F\002=\027Q,"
 235      01DD5BF9 
 235      AFDF10E8 
 235      46023D17 
 235      512C
 236 01db 7A133D66 		.ascii	"z\023=f\033\247~\361\372|\202\263\205\340\264\"-\020"
 236      1BA77EF1 
 236      FA7C82B3 
ARM GAS  /tmp/ccAVppXH.s 			page 18


 236      85E0B422 
 236      2D10
 237 01ed 8BA05975 		.ascii	"\213\240Yu\221\337J\007\214F^\313\225\270V\244\237\265"
 237      91DF4A07 
 237      8C465ECB 
 237      95B856A4 
 237      9FB5
 238 01ff 2F914810 		.ascii	"/\221H\020\032*\205\251G\222\022y\024\2112\222\022}"
 238      1A2A85A9 
 238      47921279 
 238      14893292 
 238      127D
 239 0211 705E56FA 		.ascii	"p^V\3726\"Q\014\031\250\306\022Po\354P\023\252\020\004"
 239      3622510C 
 239      19A8C612 
 239      506FEC50 
 239      13AA1004 
 240 0225 78B19D40 		.ascii	"x\261\235@\035\0334T}[\263\244\345&\002tr\200\226\235"
 240      1D1B3454 
 240      7D5BB3A4 
 240      E5260274 
 240      7280969D 
 241 0239 3A2D3BB5 		.ascii	":-;\265\332\200\237x\244\0338d\242\271r\013\376\341"
 241      DA809F78 
 241      A41B3864 
 241      A2B9720B 
 241      FEE1
 242 024b A2FEEF74 		.ascii	"\242\376\357t\243\250\365\202\330\335\335\337\376%["
 242      A3A8F582 
 242      D8DDDDDF 
 242      FE255B
 243 025a 5725CE17 		.ascii	"W%\316\027\342\361\271\324}\324JY\023\002\342Y\364\324"
 243      E2F1B9D4 
 243      7DD44A59 
 243      1302E259 
 243      F4D4
 244 026c 2F0D9581 		.ascii	"/\015\225\201\007z\027\335Gj\014\011\261\020\337\027"
 244      077A17DD 
 244      476A0C09 
 244      B110DF17 
 245 027c 63479554 		.ascii	"cG\225Tx\017\265\014\243xT\312l\310P\000~\227\324f\347"
 245      780FB50C 
 245      A37854CA 
 245      6CC85000 
 245      7E97D466 
 246 0291 F2431BD0 		.ascii	"\362C\033\320<b\230\335\350\036\000:Jk\365\231\026\010"
 246      3C6298DD 
 246      E81E003A 
 246      4A6BF599 
 246      1608
 247 02a3 4C4048DE 		.ascii	"L@H\336\007r\211\220@\013\335\3755g\312Q9\201\306\357"
 247      07728990 
 247      400BDDFD 
 247      3567CA51 
 247      3981C6EF 
 248 02b7 280DACE6 		.ascii	"(\015\254\346z\210j\000\316\305\333\225\353F\010\015"
 248      7A886A00 
ARM GAS  /tmp/ccAVppXH.s 			page 19


 248      CEC5DB95 
 248      EB46080D 
 249 02c7 07A07F33 		.ascii	"\007\240\1773\312\006\334jF\3015\322\200\\\225.\271"
 249      CA06DC6A 
 249      46C135D2 
 249      805C952E 
 249      B9
 250 02d8 8316EF4E 		.ascii	"\203\026\357N,\247\212U\300V\333\006\363h\300\252\017"
 250      2CA78A55 
 250      C056DB06 
 250      F368C0AA 
 250      0F
 251 02e9 AF25CCC9 		.ascii	"\257%\314\311\341\300\202\2436*\223\347 q\324\015\214"
 251      E1C082A3 
 251      362A93E7 
 251      2071D40D 
 251      8C
 252 02fa 615CB132 		.ascii	"a\\\2612y*?\330/O\236\030\201\332:h\250\372\305\255"
 252      792A3FD8 
 252      2F4F9E18 
 252      81DA3A68 
 252      A8FAC5AD 
 253 030e 93084F1F 		.ascii	"\223\010O\037\022\240\035\214~\362\270t\223\307\245"
 253      12A01D8C 
 253      7EF2B874 
 253      93C7A5
 254 031d 7566973B 		.ascii	"uf\227;Y\301><\224\372\037w\247\251\275V\014\227i\346"
 254      59C13E3C 
 254      94FA1F77 
 254      A7A9BD56 
 254      0C9769E6 
 255 0331 0542775F 		.ascii	"\005Bw_\315YT'\210\363\031\331\223\033\234f:\242\251"
 255      CD595427 
 255      88F319D9 
 255      931B9C66 
 255      3AA2A9
 256 0344 4364AC76 		.ascii	"Cd\254v\275'\267\254\277X!{r\273%On>\272\2128K\332)"
 256      BD27B7AC 
 256      BF58217B 
 256      72BB254F 
 256      6E3EBA8A 
 257 035c E954C62F 		.ascii	"\351T\306/$\343Wf\340\361?\321\217\337\331\363\355S"
 257      24E35766 
 257      E0F13FD1 
 257      8FDFD9F3 
 257      ED53
 258 036e B582304C 		.ascii	"\265\2020Lz\225~\370\257\216\257\0308\274i(\221]\243"
 258      7A957EF8 
 258      AF8EAF18 
 258      38BC6928 
 258      915DA3
 259 0381 65FDE12B 		.ascii	"e\375\341+\262\220\237\222\031\363q\206\3369\012\262"
 259      B2909F92 
 259      19F37186 
 259      DE390AB2 
 260 0391 B5E683DF 		.ascii	"\265\346\203\337\252\0164\325\225`\177P\023\026\344"
 260      AA0E34D5 
ARM GAS  /tmp/ccAVppXH.s 			page 20


 260      95607F50 
 260      1316E4
 261 03a0 140BB6EE 		.ascii	"\024\013\266\356\020\204W\235\012\017_\332F\364h4q\345"
 261      1084579D 
 261      0A0F5FDA 
 261      46F46834 
 261      71E5
 262 03b2 38090112 		.ascii	"8\011\001\022\330\327V\300L=\251B\274\246\006;k\033"
 262      D8D756C0 
 262      4C3DA942 
 262      BCA6063B 
 262      6B1B
 263 03c4 4CCBD98F 		.ascii	"L\313\331\217j\260\013V\300\206\231svC\015v\3216\230"
 263      6AB00B56 
 263      C0869973 
 263      76430D76 
 263      D13698
 264 03d7 96B35B6A 		.ascii	"\226\263[j\260\313V\300\206\233s\326\247\006\353\265"
 264      B0CB56C0 
 264      869B73D6 
 264      A706EBB5 
 265 03e7 0DA6E5EC 		.ascii	"\015\246\345\354\216\032\354\246\0250\2179gU'T`\375"
 265      8E1AECA6 
 265      15308F39 
 265      67552754 
 265      60FD
 266 03f9 B6C1B49C 		.ascii	"\266\301\264\234-W\203\225;,\200=j\316\331\0125\330"
 266      2D578395 
 266      3B2C803D 
 266      6ACED90A 
 266      35D8
 267 040b 02DB605A 		.ascii	"\002\333`Z\316j\324`\257Z\001\3133\347\254V\015\266"
 267      CE6AD460 
 267      AF5A01CB 
 267      33E7AC56 
 267      0DB6
 268 041d C4369896 		.ascii	"\3046\230\226\263\325j\260eV\300\362\3159[\253\006["
 268      B3D56AB0 
 268      6556C0F2 
 268      CD395BAB 
 268      065B
 269 042f 691B4CCB 		.ascii	"i\033L\313\331;j\260:+`\223\3159\333\241\006[k\033L"
 269      D93B6AB0 
 269      3A2B6093 
 269      CD39DBA1 
 269      065B6B1B 
 270 0444 CBD92E35 		.ascii	"\313\331.5X\275\025\260\251\346\234\275\247\006\333"
 270      58BD15B0 
 270      A9E69CBD 
 270      A706DB
 271 0453 681B4CCB 		.ascii	"h\033L\313\331n5X\243\025\260\347\3159\333\243\006\333"
 271      D96E3558 
 271      A315B0E7 
 271      CD39DBA3 
 271      06DB
 272 0465 621B4CCB 		.ascii	"b\033L\313Y\253\032l\233\025\260\227\3159\333\247\006"
 272      59AB1A6C 
ARM GAS  /tmp/ccAVppXH.s 			page 21


 272      9B15B097 
 272      CD39DBA7 
 272      06
 273 0476 7BDB3698 		.ascii	"{\3336\230\226\263\217\325`;\255\200M3\340,q\031\321"
 273      96B38FD5 
 273      603BAD80 
 273      4D33E02C 
 273      7119D1
 274 0489 E165FA04 		.ascii	"\341e\372\004J\254\3334\365\236CIql\256\321T\022c\217"
 274      4AACDB34 
 274      F59E4349 
 274      716CAED1 
 274      5412638F 
 275 049d C36E4AA6 		.ascii	"\303nJ\246\221\033v\006\3476\240\352y\302\221<%;\027"
 275      911B7606 
 275      E736A0EA 
 275      79C2913C 
 275      253B17
 276 04b0 AD20A658 		.ascii	"\255 \246X\000W\037V\245\372Gl\203\351\\\031\203ir\247"
 276      00571F56 
 276      A5FA476C 
 276      83E95C19 
 276      836972A7 
 277 04c4 C4198098 		.ascii	"\304\031\200\230\372\014\000\237F\320\252\003\203\341"
 277      FA0C009F 
 277      46D0AA03 
 277      83E1
 278 04d2 C67D59B4 		.ascii	"\306}Y\264\202~\004\356+iw\202\013\251\256\324\3606"
 278      827E04EE 
 278      2B697782 
 278      0BA9AED4 
 278      F036
 279 04e4 1D323087 		.ascii	"\03520\207\321\301\006\001HMj\346\011\313i\225'tZQS"
 279      D1C10601 
 279      484D6AE6 
 279      09CB6995 
 279      27745A51 
 280 04f9 8AA5FDAB 		.ascii	"\212\245\375\253\303k\177%t\213\310\372\001\311\007"
 280      C36B7F25 
 280      748BC8FA 
 280      01C907
 281 0508 CA194E1D 		.ascii	"\312\031N\035\215w\037_8\364\011f\243\315\023\022H\303"
 281      8D771F5F 
 281      38F40966 
 281      A3CD1312 
 281      48C3
 282 051a F44268C6 		.ascii	"\364Bh\306M\233Rt\367\237\352_\206\256V\010\265y\312"
 282      4D9B5274 
 282      F79FEA5F 
 282      86AE5608 
 282      B579CA
 283 052d C9D245DB 		.ascii	"\311\322E\333\210\217j\324R\325\226\375\3164\353:9\253"
 283      888F6AD4 
 283      52D596FD 
 283      CE34EB3A 
 283      39AB
 284 053f E8A481E8 		.ascii	"\350\244\201\350\244\367g\320I\277m\011\362T\022\340"
ARM GAS  /tmp/ccAVppXH.s 			page 22


 284      A4F767D0 
 284      49BF6D09 
 284      F25412E0 
 285 054f 8D7BEF72 		.ascii	"\215{\357riz\336K-O\275e\"\014\322\367j\266+bW\033\362"
 285      697ADE4B 
 285      2D4FBD65 
 285      220CD2F7 
 285      6AB62B62 
 286 0566 48CDE9B6 		.ascii	"H\315\351\266*\202x\275m\255\274\347\227\216\230\346"
 286      2A8278BD 
 286      6DADBCE7 
 286      978E98E6 
 287 0576 3B910C69 		.ascii	";\221\014i3<\311x+\216\222@ \201\275\366\223\300*\304"
 287      333CC978 
 287      2B8E9240 
 287      2081BDF6 
 287      93C02AC4 
 288 058a 9DAF2907 		.ascii	"\235\257)\007\022\0058\256\254\370\211p\035G\355\036"
 288      120538AE 
 288      ACF88970 
 288      1D47ED1E 
 289 059a 212CF84E 		.ascii	"!,\370Nv\216\355\3049\3268\365\316\021\323;\207\225"
 289      768EEDC4 
 289      39D638F5 
 289      CE11D33B 
 289      8795
 290 05ac 1DF5E6C1 		.ascii	"\035\365\346\301\312\221\270hj\273\323B\360\360\230"
 290      CA91B868 
 290      6ABBD342 
 290      F0F098
 291 05bb DA09E6DD 		.ascii	"\332\011\346\335u\331\307\322n\313\225\223\252\023\261"
 291      75D9C7D2 
 291      6ECB9593 
 291      AA13B1
 292 05ca 72349FEC 		.ascii	"r4\237\354Ow\321\370\244j\207N\033\026\366\367\373\011"
 292      4F77D1F8 
 292      A46A874E 
 292      1B16F6F7 
 292      FB09
 293 05dc 49333DE0 		.ascii	"I3=\340\244\352#\345\244\012\277\263\260\277\327\234"
 293      A4EA23E5 
 293      A40ABFB3 
 293      B0BFD79C 
 294 05ec 54B1E8DF 		.ascii	"T\261\350\337\210\226q\007\253Q\215\021\223\014\262"
 294      88967107 
 294      AB518D11 
 294      930CB2
 295 05fb A885AC14 		.ascii	"\250\205\254\024{\350\207\324\332\357\260\255}\217Z"
 295      7BE887D4 
 295      DAEFB0AD 
 295      7D8F5A
 296 060a FBE2EDA3 		.ascii	"\373\342\355\243k\021\346\337\340Hb\262z\375N\034\022"
 296      6B11E6DF 
 296      E04862B2 
 296      7AFD4E1C 
 296      12
 297 061b B62F9355 		.ascii	"\266/\223U\277\227\250\376\264\211\352'\233\001\321"
ARM GAS  /tmp/ccAVppXH.s 			page 23


 297      BF97A8FE 
 297      B489EA27 
 297      9B01D1
 298 062a D4F78444 		.ascii	"\324\367\204D\034\240\372S'\025\325\213\226T\337i\250"
 298      1CA0FA53 
 298      2715D58B 
 298      9654DF69 
 298      A8
 299 063b 7AD1BEEA 		.ascii	"z\321\276\352e\274S\311CB\026\355\267\015\346IeGQe\307"
 299      65BC53C9 
 299      434216ED 
 299      B70DE649 
 299      65475165 
 300 0650 03C48E07 		.ascii	"\003\304\216\007\301\216,:\244\265f\237\336\232\032"
 300      C18E2C3A 
 300      A4B5669F 
 300      DE9A1A
 301 065f D5C955D3 		.ascii	"\325\311U\323\375\242 V\267kc\350B\227\005\357H\261"
 301      FDA22056 
 301      B76B63E8 
 301      429705EF 
 301      48B1
 302 0671 CB5BDF4E 		.ascii	"\313[\337NT\"\305\234%\266\301<\032\260\275K\327Y:\012"
 302      5422C59C 
 302      25B6C13C 
 302      1AB0BD4B 
 302      D7593A0A 
 303 0685 13903A33 		.ascii	"\023\220:3\243\251Z2\356\261\001\376r\353\343\205\262"
 303      A3A95A32 
 303      EEB101FE 
 303      72EBE385 
 303      B2
 304 0696 BF1CB3E0 		.ascii	"\277\034\263\340/\260\300\234u\013\313s\024\307=\221"
 304      2FB0C09C 
 304      750BCB73 
 304      14C73D91 
 305 06a6 404DA1EA 		.ascii	"@M\241\352\024\336r\373\302\207\210\300I\231\346\347"
 305      14DE72FB 
 305      C28788C0 
 305      4999E6E7 
 306 06b6 7AB8B489 		.ascii	"z\270\264\211\260\026\356\016w$\317\236b\244\031)\236"
 306      B016EE0E 
 306      7724CF9E 
 306      62A41929 
 306      9E
 307 06c7 6EC14B6C 		.ascii	"n\301Kl'\221\251\307\245_\025$\315\250\034\361\230\312"
 307      2791A9C7 
 307      A55F1524 
 307      CDA81CF1 
 307      98CA
 308 06d9 11DB8923 		.ascii	"\021\333\211#\036'\216\330A\356\237\250\335\321l\225"
 308      1E278ED8 
 308      41EE9FA8 
 308      DDD16C95 
 309 06e9 3FA94E1D 		.ascii	"?\251N\035\277\263-\267Gg\035\263a\216\252\207\271l"
 309      BFB32DB7 
 309      47671DB3 
ARM GAS  /tmp/ccAVppXH.s 			page 24


 309      618EAA87 
 309      B96C
 310 06fb C5F7CC0F 		.ascii	"\305\367\314\017\005 \256wV+\373\014\351\020\376\266"
 310      0520AE77 
 310      562BFB0C 
 310      E910FEB6 
 311 070b 6D44AD37 		.ascii	"mD\2557_^\252\311\010*3-\300M6`\320\350R\177B\001\177"
 311      5F5EAAC9 
 311      082A332D 
 311      C04D3660 
 311      D0E8527F 
 312 0722 45D84CFB 		.ascii	"E\330L\373\0206\220H\356\007\310\375#r_B\014\367\006"
 312      10369048 
 312      EE07C8FD 
 312      23725F42 
 312      0CF706
 313 0735 B92F23F7 		.ascii	"\271/#\367Zr_G\356\365\344\376&\271\357$\367Vr\217\221"
 313      5A725F47 
 313      EEF5E4FE 
 313      26B9EF24 
 313      F756728F 
 314 074a FB11726F 		.ascii	"\373\021ro#\367\317\311\375\013+\016 E\310\204\233\261"
 314      23F7CFC9 
 314      FD0B2B0E 
 314      2045C884 
 314      9BB1
 315 075c E8252641 		.ascii	"\350%&ACSK3\265N\3700\265I\020\226\343/[\035\330\002"
 315      43534B33 
 315      B54EF830 
 315      B5491096 
 315      E32F5B1D 
 316 0772 539519B3 		.ascii	"S\225\031\263\221\364\333\205F\031\216#\365\202\353"
 316      91F4DB85 
 316      46198E23 
 316      F582EB
 317 0781 D75423DE 		.ascii	"\327T#\336L-\021\026\014C\344\340\232\222\2514\372:"
 317      4C2D1116 
 317      0C43E4E0 
 317      9A92A934 
 317      FA3A
 318 0793 A3FDE48E 		.ascii	"\243\375\344\216\277\2465t\213kbK\300F\025b<^\240\377"
 318      BFA63574 
 318      8B6B624B 
 318      C0461562 
 318      3C5EA0FF 
 319 07a7 9886D1CD 		.ascii	"\230\206\321\315\344\373\206\326|MS\004\326H\331h(\245"
 319      E4FB86D6 
 319      7C4D5304 
 319      D648D968 
 319      28A5
 320 07b9 50CD4D55 		.ascii	"P\315MU\272w\323x\005\351\241\255\310W!4\377\347\371"
 320      BA77D378 
 320      05E9A1AD 
 320      C8572134 
 320      FFE7F9
 321 07cc A94A9B39 		.ascii	"\251J\2339"
 322 07d0 95CCE059 		.ascii	"\225\314\340YCi\257W\036\205\210$\364\305\343\3632m"
ARM GAS  /tmp/ccAVppXH.s 			page 25


 322      4369AF57 
 322      1E858824 
 322      F4C5E3F3 
 322      326D
 323 07e2 7C3BBC60 		.ascii	"|;\274`A\332&cio\027\352\244\375\326\222\264\202\316"
 323      41DA2663 
 323      696F17EA 
 323      A4FDD692 
 323      B482CE
 324 07f5 9A984A63 		.ascii	"\232\230Jc\315\357\015\345\373\264mP\326\274D\247\377"
 324      CDEF0DE5 
 324      FBB46D50 
 324      D6BC44A7 
 324      FF
 325 0806 36BAE89B 		.ascii	"6\272\350\233\344VY\240\325i\223\234\367\364o\272pX"
 325      E45659A0 
 325      D569939C 
 325      F7F46FBA 
 325      7058
 326 0818 FE387A85 		.ascii	"\3768z\205\204\332\253:\215\244G\242\251r7\246\351\325"
 326      84DAAB3A 
 326      8DA447A2 
 326      A97237A6 
 326      E9D5
 327 082a 2D646247 		.ascii	"-dbGe\216\220!\265\247Oz>\211\255\035\270\210\352\264"
 327      658E9021 
 327      B5A74F7A 
 327      3E89AD1D 
 327      B888EAB4 
 328 083e 5160AE8C 		.ascii	"Q`\256\214[ZeX\337\177\274\377\317\257\177\3736\371"
 328      5B5A6558 
 328      DF7FBCFF 
 328      CFAF7FFB 
 328      36F9
 329 0850 F0D44792 		.ascii	"\360\324G\222\001\321\255_j\034\272\375\207C\273\377"
 329      01D1AD5F 
 329      6A1CBAFD 
 329      8743BBFF 
 330 0860 70B89315 		.ascii	"p\270\223\025y\377\241q\262\024c\327o\277Y#\177\365"
 330      79FFA171 
 330      B21463D7 
 330      6FBF5923 
 330      7FF5
 331 0872 BC49E3D0 		.ascii	"\274I\343\320\021\327\015\256\373\272\205\2054S@9\223"
 331      11D70DAE 
 331      FBBA8585 
 331      34534039 
 331      93
 332 0883 6DA2E301 		.ascii	"m\242\343\001\357h\352\365,\305`\203\332\202\202\327"
 332      EF68EAF5 
 332      2CC56083 
 332      DA8282D7 
 333 0893 74DDDFB2 		.ascii	"t\335\337\262K\020\232\246\311\333g\321\251\366\017"
 333      4B109AA6 
 333      C9DB67D1 
 333      A9F60F
 334 08a2 5D5EBC8A 		.ascii	"]^\274\212\2146\237\321\355\241W\306\030\217\324\234"
ARM GAS  /tmp/ccAVppXH.s 			page 26


 334      8C369FD1 
 334      EDA157C6 
 334      188FD49C 
 335 08b2 DE3B5655 		.ascii	"\336;VU\276q\277\320\360\372p\331\256b\245\260\010\225"
 335      BE71BFD0 
 335      F0FA70D9 
 335      AE62A5B0 
 335      0895
 336 08c4 373D9032 		.ascii	"7=\2202\245oY\177|\243\254\335E\0146\355\246,\303o\312"
 336      A56F597F 
 336      7CA3ACDD 
 336      450C36ED 
 336      A62CC36F 
 337 08d9 96C07A2B 		.ascii	"\226\300z+\217+\037\250_#`\333\007\017\326P\337\366"
 337      8F2B1FA8 
 337      5F2360DB 
 337      070FD650 
 337      DFF6
 338 08eb 009E184B 		.ascii	"\000\236\030K\011Ps\226\336\341\334:\207sk\035\316\355"
 338      09507396 
 338      DEE1DC3A 
 338      87736B1D 
 338      CEED
 339 08fd 4E56E2CA 		.ascii	"NV\342\312\245\377\373\230\377!\015M\035H\030t0)&v\237"
 339      A5FFFB98 
 339      FF210D4D 
 339      1D481874 
 339      30292676 
 340 0912 8E1130B1 		.ascii	"\216\0210\261\223\033c\323M\025f\253\232\321\305\225"
 340      931B63D3 
 340      4D1566AB 
 340      9AD1C595 
 341 0922 BA18CE0C 		.ascii	"\272\030\316\014qs\372\334\270)\206\327\216\034K\247"
 341      7173FADC 
 341      B82986D7 
 341      8E1C4BA7 
 342 0932 3C357A0F 		.ascii	"<5z\017]\023\243=Rsz\017]Wi\260\011\320(i\300xu\214"
 342      5D13A33D 
 342      52737A0F 
 342      5D5769B0 
 342      09D02869 
 343 094a 2A113C42 		.ascii	"*\021<BtZc\322=}\332\276^\332\344]&q\344\243\301\202"
 343      745A63D2 
 343      3D7DDABE 
 343      5EDAE45D 
 343      2671E4A3 
 344 0960 252ED847 		.ascii	"%.\330G\020\014\254\345\3011\2643\246l\331\244\300z"
 344      100CACE5 
 344      C131B433 
 344      A66CD9A4 
 344      C07A
 345 0972 D2369E67 		.ascii	"\3226\236g\000O]\203u<\025\306i}\3543\3020\377c\013"
 345      004F5D83 
 345      753C15C6 
 345      697DEC33 
 345      C230FF63 
 346 0987 F1F367B0 		.ascii	"\361\363g\260\236\345}\211\036K\273\223QU\255e\307\275"
ARM GAS  /tmp/ccAVppXH.s 			page 27


 346      9EE57D89 
 346      1E4BBB93 
 346      5155AD65 
 346      C7BD
 347 0999 AA4DCC75 		.ascii	"\252M\314u\262\211\271A\262\327y\014\276od,\344\260"
 347      B289B941 
 347      B2D7790C 
 347      BE6F642C 
 347      E4B0
 348 09ab 9793BB8B 		.ascii	"\227\223\273\213D\342\323'\235\244'~\037D\352\337\251"
 348      44E2D327 
 348      9DA4277E 
 348      1F44EADF 
 348      A9
 349 09bc 565CBCDB 		.ascii	"V\\\274\3336\033i\013\243\313\257\012t\351U\212\225"
 349      361B690B 
 349      A3CBAF0A 
 349      74E9558A 
 349      95
 350 09cd AFA979FF 		.ascii	"\257\251y\377\310\255d\325\335\314`\207m\310N\271\360"
 350      C8AD64D5 
 350      DDCC6087 
 350      6DC84EB9 
 350      F0
 351 09de E1A1CCD8 		.ascii	"\341\241\314\330x+\305\3027\360\235\232Yj@\212\277%"
 351      782BC5C2 
 351      37F09D9A 
 351      596A408A 
 351      BF25
 352 09f0 DB24C5EF 		.ascii	"\333$\305\357\354A+I\212/\315\257V\322\357\007\323\244"
 352      EC412B49 
 352      8A2FCDAF 
 352      56D2EF07 
 352      D3A4
 353 0a02 901841CE 		.ascii	"\220\030A\316%o\342\314\031[\0006-\014\235\222\214\330"
 353      256FE2CC 
 353      195B0036 
 353      2D0C9D92 
 353      8CD8
 354 0a14 492213BB 		.ascii	"I\"\023\273\3326\303\364\241\225]\335\2014#\022\223"
 354      DA36C3F4 
 354      A1955DDD 
 354      81342312 
 354      93
 355 0a25 CA239EC6 		.ascii	"\312#\236\306#Jz=\234\206\014\367R\310\342\230\214\354"
 355      234A7A3D 
 355      9C860CF7 
 355      52C8E298 
 355      8CEC
 356 0a37 F9DAD250 		.ascii	"\371\332\322P\025\250\022|\222\275.\306\214*9\276\031"
 356      15A8127C 
 356      92BD2EC6 
 356      8C2A39BE 
 356      19
 357 0a48 9D6C93ED 		.ascii	"\235l\223\355\214Q\016\274\272=\247\252\274;\036\037"
 357      8C510EBC 
 357      BA3DA7AA 
ARM GAS  /tmp/ccAVppXH.s 			page 28


 357      BC3B1E1F 
 358 0a58 652301DE 		.ascii	"e#\001\336\303\330\372\343\300i\012}N\322\017\367\356"
 358      C3D8FAE3 
 358      C0690A7D 
 358      4ED20FF7 
 358      EE
 359 0a69 BB395CCA 		.ascii	"\2739\\\312~\3672xB/\314I\373\247\201\032\030r\004\246"
 359      7EF73278 
 359      422FCC49 
 359      FBA7811A 
 359      187204A6 
 360 0a7d 5F9FAA63 		.ascii	"_\237\252c$\357\025-,P\025\342J\243u\303\3029\357J\302"
 360      24EF152D 
 360      2C5015E2 
 360      4AA375C3 
 360      C239EF4A 
 361 0a92 E921FDD8 		.ascii	"\351!\375\330WY\217\324\232~\344^\345\240\347 q\225"
 361      57598FD4 
 361      9A7EE45E 
 361      E5A0E720 
 361      7195
 362 0aa4 0D09C0C1 		.ascii	"\015\011\300\301\256\031fv:\250^\347\266\222a\304A/"
 362      AE196676 
 362      3AA85EE7 
 362      B69261C4 
 362      412F
 363 0ab6 2BAB74CB 		.ascii	"+\253t\313J\223m<\217\006o\265\264nJ\371\267h\005\314"
 363      4A936D3C 
 363      8F066FB5 
 363      B46E4AF9 
 363      B76805CC 
 364 0aca 686D30BA 		.ascii	"hm0\272\324\236\301\242\375\014\016\347\007H o#\367"
 364      D49EC1A2 
 364      FD0C0EE7 
 364      0748206F 
 364      23F7
 365 0adc 6356C279 		.ascii	"cV\302y+30\234k\303\267<\211\323\205\266c9&\241-v\020"
 365      2B33309C 
 365      6BC3B73C 
 365      89D385B6 
 365      633926A1 
 366 0af3 D590D0D6 		.ascii	"\325\220\320\326J\334\340\034\351\327\302\230\315\375"
 366      4ADCE01C 
 366      E9D7C298 
 366      CDFD
 367 0b01 5655C458 		.ascii	"VU\304X\006\272C\022?,\332I\202\2339\241*B\211\353\332"
 367      06BA4312 
 367      3F2CDA49 
 367      829B39A1 
 367      2A4289EB 
 368 0b16 B74BC16D 		.ascii	"\267K\301m3\011\320\357\246!UG\251\257\344(\005\241"
 368      3309D0EF 
 368      A6215547 
 368      A9AFE428 
 368      05A1
 369 0b28 210D9526 		.ascii	"!\015\225&J\255i\327E)3:Y\357\035\003\243T7\016\027"
 369      4AAD69D7 
ARM GAS  /tmp/ccAVppXH.s 			page 29


 369      4529333A 
 369      59EF1D03 
 369      A354370E 
 370 0b3d 1D0FD6EE 		.ascii	"\035\017\326\356\020\346\277*\334\211\317E\326\217\""
 370      10E6BF2A 
 370      DC89CF45 
 370      D68F22
 371 0b4c BAF44B25 		.ascii	"\272\364K%\326bj{]\320\331Ka\354\013C\306\3726}8\262"
 371      D6626A7B 
 371      5DD0D94B 
 371      61EC0B43 
 371      C6FA367D 
 372 0b62 4E3860F7 		.ascii	"N8`\367\317\253\317\244[\302i\352\232\011\037\335\306"
 372      CFABCFA4 
 372      5BC269EA 
 372      9A091FDD 
 372      C6
 373 0b73 7CD4B43B 		.ascii	"|\324\264;\007\301G\217\236\017l\245\304\217m\222\277"
 373      07C1478F 
 373      9E0F6CA5 
 373      C48F6D92 
 373      BF
 374 0b84 EB188B9B 		.ascii	"\353\030\213\2330v\326\220\261\246\346\313O\2563\263"
 374      3076D690 
 374      B1A6E6CB 
 374      4FAE33B3 
 375 0b94 5CAA45E6 		.ascii	"\\\252E\346\274\201\212,&V\026g\346\353w\031\013r\321"
 375      BC818A2C 
 375      26561667 
 375      E6EB7719 
 375      0B72D1
 376 0ba7 5090FE4D 		.ascii	"P\220\376M\373G\326\231\011\222\342\200\344\222^\016"
 376      FB47D699 
 376      0992E280 
 376      E4925E0E 
 377 0bb7 9CA3E805 		.ascii	"\234\243\350\005\321qVg\302\331\025C\316Z\367\355\177"
 377      D1715667 
 377      C2D91543 
 377      CE5AF7ED 
 377      7F
 378 0bc8 D0CCF629 		.ascii	"\320\314\366)\030\273f47\364\207\222&\214\374\250eD"
 378      18BB6634 
 378      37F48792 
 378      268CFCA8 
 378      6544
 379 0bda 973576A5 		.ascii	"\2275v\245\310\032\257'\343\252\207\252''a\355\327\376"
 379      C81AAF27 
 379      E3AA87AA 
 379      272761ED 
 379      D7FE
 380 0bec 24ACC834 		.ascii	"$\254\3104>\212\225\372T\011\013h\343\367wSU\322F\266"
 380      3E8A95FA 
 380      54090B68 
 380      E3F77753 
 380      55D246B6 
 381 0c00 7688F427 		.ascii	"v\210\364'*\362\270\303\224qiy\334[\314\335\244\246"
 381      2AF2B8C3 
ARM GAS  /tmp/ccAVppXH.s 			page 30


 381      94716979 
 381      DC5BCCDD 
 381      A4A6
 382 0c12 F9CF20A4 		.ascii	"\371\317 \244\207\031\247\267\231\344\237\301\344\270"
 382      8719A7B7 
 382      99E49FC1 
 382      E4B8
 383 0c20 9315A41D 		.ascii	"\223\025\244\035\332\243\0339_\351\347\222q\372l\217"
 383      DAA31B39 
 383      5FE9E792 
 383      71FA6C8F 
 384 0c30 DC6F32B2 		.ascii	"\334o2\262\323X\335gR\250\373\2166\021\327Q\342\377"
 384      D358DD67 
 384      52A8FB8E 
 384      3611D751 
 384      E2FF
 385 0c42 E5614619 		.ascii	"\345aF\031\327\033Jc\004\315\011\253\364^\334\261P\310"
 385      D71B4A63 
 385      04CD09AB 
 385      F45EDCB1 
 385      50C8
 386 0c54 4ADDE384 		.ascii	"J\335\343\204y\017\035g\227R\3104/#\333\204\352|\012"
 386      790F1D67 
 386      9752C834 
 386      2F23DB84 
 386      EA7C0A
 387 0c67 AAF9A654 		.ascii	"\252\371\246T=)\250\026\230R]KAU\231\244\242\246\346"
 387      3D29A816 
 387      98525D4B 
 387      415599A4 
 387      A2A6E6
 388 0c7a FA43412E 		.ascii	"\372CA.\327\027*\234\223[\310\315\314\365\371\003\323"
 388      D7172A9C 
 388      935BC8CD 
 388      CCF5F903 
 388      D3
 389 0c8b 03A1682E 		.ascii	"\003\241h.\037)+\235\221\013\225\010\237\033\016E\370"
 389      1F292B9D 
 389      910B9508 
 389      9F1B0E45 
 389      F8
 390 0c9c 68EED32F 		.ascii	"h\356\323/<7\345\271\331\3203\030\016\224p\221h\356"
 390      3C37E5B9 
 390      D9D03318 
 390      0E947091 
 390      68EE
 391 0cae B353A640 		.ascii	"\263S\246@w~N\230\213\216\366S.>\030*\344\274\274\363"
 391      777E4E98 
 391      8B8EF653 
 391      2E3E182A 
 391      E4BCBCF3 
 392 0cc2 D93FBEE4 		.ascii	"\331?\276\344\231B=\234[\026\215\344\262\221\340\343"
 392      99423D9C 
 392      5B168DE4 
 392      B291E0E3 
 393 0cd2 A5A152EE 		.ascii	"\245\241R\356q\216\235\036\310\015\224\372J\312\012"
 393      718E9D1E 
ARM GAS  /tmp/ccAVppXH.s 			page 31


 393      C80D94FA 
 393      4ACA0A
 394 0ce1 B9DC285F 		.ascii	"\271\334(_\030(\3451M\031<\363\275\374\370\024\235\203"
 394      1828E531 
 394      4D193CF3 
 394      BDFCF814 
 394      9D83
 395 0cf3 2CB054CA 		.ascii	",\260T\312\345z\013\271\"\266\254\204\367*\003\272\275"
 395      E57A0BB9 
 395      22B6AC84 
 395      F72A03BA 
 395      BD
 396 0d04 5E99DC11 		.ascii	"^\231\334\021\214\026{y\027\374\0307\326\313C\273\\"
 396      8C167B79 
 396      17FC1837 
 396      D6CB43BB 
 396      5C
 397 0d15 1B6741B6 		.ascii	"\033gA\266h\304\007\355\205sJ\331`\3007\332G\345[\240"
 397      68C407ED 
 397      85734AD9 
 397      60C037DA 
 397      47E55BA0 
 398 0d29 5158F3F9 		.ascii	"QX\363\371\243s\242\012;\231\274?\302\261\2050\276\317"
 398      A373A20A 
 398      3B99BC3F 
 398      C2B18530 
 398      BECF
 399 0d3b EF95EAE3 		.ascii	"\357\225\352\343\355a\001\033\200\343\014{K\271\331"
 399      ED61011B 
 399      80E30C7B 
 399      4BB9D9
 400 0d4a 3C3CC211 		.ascii	"<<\302\021n\246\213\017G\002!/\237Y&\313\224%I\215\253"
 400      6EA68B0F 
 400      4702212F 
 400      9F5926CB 
 400      9425498D 
 401 0d5f A44B20E4 		.ascii	"\244K \344\362\205Jy\240\230d\333\222~_(\302\301\220"
 401      F2854A79 
 401      A09864DB 
 401      927E5F28 
 401      C2C190
 402 0d72 D9B8192B 		.ascii	"\331\270\031+\315\307\317~rp(\336\231\023\203X\011\021"
 402      CDC7CF7E 
 402      727028DE 
 402      99138358 
 402      0911
 403 0d84 AE18CCE8 		.ascii	"\256\030\314\350\345\231\350\230\011P&B\311\2072\211"
 403      E599E898 
 403      09502642 
 403      C9873289 
 404 0d94 898ECD83 		.ascii	"\211\216\315\2032\006\312X(\343\240\214\207\362\004"
 404      3206CA58 
 404      28E3A08C 
 404      87F204
 405 0da3 14E83716 		.ascii	"\024\3507\026\372\215\205~c\241\3378\3507n\014\035\031"
 405      FA8D857E 
 405      63A1DF38 
ARM GAS  /tmp/ccAVppXH.s 			page 32


 405      E8376E0C 
 405      1D19
 406 0db5 4F479EA0 		.ascii	"OG\236\240#\023\350\310D:\222OG&1\2211yP\306\320%\021"
 406      2313E8C8 
 406      443A924F 
 406      47263191 
 406      317950C6 
 407 0dcc 788C7384 		.ascii	"x\214s\204\275\300\255\013+k\026\027\201g\250\244\220"
 407      BDC0AD0B 
 407      2B6B1617 
 407      8167A8A4 
 407      90
 408 0ddd 8B64F8FC 		.ascii	"\213d\370\374l\004k\220\015r\231|\224gy\360HxIj\360"
 408      6C046B90 
 408      0D72997C 
 408      946779F0 
 408      4878496A 
 409 0df2 2C2A618B 		.ascii	",*a\213\243.>\302\025E\211\376p\305\031)\234\003\016"
 409      A32E3EC2 
 409      154589FE 
 409      70C51929 
 409      9C030E
 410 0e05 94C9CD0E 		.ascii	"\224\311\315\016\360 6\347\234\305\207\246\3775\234"
 410      F02036E7 
 410      9CC587A6 
 410      FF359C
 411 0e14 CDCDE44A 		.ascii	"\315\315\344J\371 \033\235\001=\271Y\270\302\204\275"
 411      F9201B9D 
 411      013DB959 
 411      B8C284BD 
 412 0e24 654324D3 		.ascii	"eC$\323F\275%\201(\370\342\320\204\261\245\026w\330"
 412      46BD2581 
 412      28F8E2D0 
 412      84B1A516 
 412      77D8
 413 0e36 3B8B0DF0 		.ascii	";\213\015\360\201\322\342\241J\363\337\312\2702\340"
 413      81D2E2A1 
 413      4AF3DFCA 
 413      B832E0
 414 0e45 6298AA27 		.ascii	"b\230\252'i\312\012{aXRu\220*4pa\256\024\346F\261#X"
 414      69CA0A7B 
 414      61585275 
 414      902A3470 
 414      61AE14E6 
 415 0e5d 0626B5E2 		.ascii	"\006&\265\342\277I\377\011\362\263\361\224\012J\350"
 415      BF49FF09 
 415      F2B3F194 
 415      0A4AE8
 416 0e6c F00CCD2A 		.ascii	"\360\014\315*\005\315\020$\020!H\334\012\370\203~\230"
 416      05CD1024 
 416      102148DC 
 416      0AF8837E 
 416      98
 417 0e7d D32C2C3D 		.ascii	"\323,,=[B<\010\032\303\241P\311\275>\377\237\375\205"
 417      5B423C08 
 417      1AC3A150 
 417      C9BD3EFF 
ARM GAS  /tmp/ccAVppXH.s 			page 33


 417      9FFD85
 418 0e90 2F70251C 		.ascii	"/p%\034\033\345F\207\331\010?:\217\346\303\331\244\371"
 418      1BE54687 
 418      D9083F3A 
 418      8FE6C3D9 
 418      A4F9
 419 0ea2 E9427853 		.ascii	"\351BxS\224\243\356b\317\277\375\034\033\006\006\357"
 419      94A3EE62 
 419      CFBFFD1C 
 419      1B0606EF 
 420 0eb2 0A72C150 		.ascii	"\012r\301Pd\216\027\377\364\362\331\252_cI\024(\011"
 420      648E17FF 
 420      F4F2D9AA 
 420      5F634914 
 420      2809
 421 0ec4 4CCF2DF6 		.ascii	"L\317-\366\371t\321`\374\350\374\321\343\325\001\004"
 421      F974D160 
 421      FCE8FCD1 
 421      E3D50104 
 422 0ed4 A2019E2C 		.ascii	"\242\001\236,\321\300\337A\267\023\355)\212\013\312"
 422      D1C0DF41 
 422      B713ED29 
 422      8A0BCA
 423 0ee3 8E9F03D5 		.ascii	"\216\237\003\325b\216/*+\365\301\314\362\303t\012\315"
 423      628E2F2A 
 423      2BF5C1CC 
 423      F2C3740A 
 423      CD
 424 0ef4 0C801B65 		.ascii	"\014\200\033e\023\346\340\006\365\254(?\203-\011\024"
 424      13E6E006 
 424      F5AC283F 
 424      832D0914 
 425 0f04 97CA9370 		.ascii	"\227\312\223p\302\370\304$\304U\007y\227\201u\233\201"
 425      C2F8C424 
 425      C4550779 
 425      9781759B 
 425      81
 426 0f15 A9505906 		.ascii	"\251PY\006\346\011\371\235~oQ\204\343\034~\254p{\014"
 426      E609F99D 
 426      7E6F5184 
 426      E31C7EAC 
 426      707B0C
 427 0f28 CA6E4282 		.ascii	"\312nB\202\252\304\233d\231)\320\314s\317DB\301\251"
 427      AAC49B64 
 427      9929D0CC 
 427      73CF4442 
 427      C1A9
 428 0f3a 3092030F 		.ascii	"0\222\003\017\027\316\300\006\244\303E\014\033)\266"
 428      17CEC006 
 428      A4C3450C 
 428      1B29B6
 429 0f49 17BB4076 		.ascii	"\027\273@vl\364\250\312&\3707\330\204<$\351]a?\361\033"
 429      6CF4A8CA 
 429      26F837D8 
 429      843C24E9 
 429      5D613FF1 
 430 0f5e 57500A4B 		.ascii	"WP\012KC\340\011\263\203\363\361^,fv0\234P\332\010\035"
ARM GAS  /tmp/ccAVppXH.s 			page 34


 430      43E009B3 
 430      83F3F15E 
 430      2C667630 
 430      9C50DA08 
 431 0f73 8FCF11CC 		.ascii	"\217\317\021\314\347\001\213\016\206\263|~\\{\0064\002"
 431      E7018B0E 
 431      86B37C7E 
 431      5C7B0634 
 431      02
 432 0f84 55CC3EAE 		.ascii	"U\314>\256\2027\275\350\363\377\205\235\301\225\205"
 432      8237BDE8 
 432      F3FF859D 
 432      C19585
 433 0f93 5FCC51D1 		.ascii	"_\314Q\321\377>[\352\364tII\310"
 433      FF3E5BEA 
 433      F4744949 
 433      C8
 434 0fa0 972DD192 		.ascii	"\227-\321\222\372\177\001\370]s\344"
 434      FA7F01F8 
 434      5D73E4
 435              		.text
 436              		.section	.gnu.lto_.symtab.4d7b55470f52ebea,"",%progbits
 437 0000 63685468 		.ascii	"chThdAddRef\000\000\000\000\000\000\000\000\000\000"
 437      64416464 
 437      52656600 
 437      00000000 
 437      00000000 
 438 0015 00006201 		.ascii	"\000\000b\001\000\000chThdRelease\000\000\000\000\000"
 438      00006368 
 438      54686452 
 438      656C6561 
 438      73650000 
 439 002c 00000000 		.ascii	"\000\000\000\000\000\000\000h\001\000\000chThdCreat"
 439      00000068 
 439      01000063 
 439      68546864 
 439      43726561 
 440 0041 6546726F 		.ascii	"eFromHeap\000\000\000\000\000\000\000\000\000\000\000"
 440      6D486561 
 440      70000000 
 440      00000000 
 440      00000000 
 441 0055 006E0100 		.ascii	"\000n\001\000\000chThdCreateFromMemoryPool\000\000\000"
 441      00636854 
 441      68644372 
 441      65617465 
 441      46726F6D 
 442 0076 00000000 		.ascii	"\000\000\000\000\000\000\000\000\000\271\001\000\000"
 442      00000000 
 442      00B90100 
 442      00
 443 0083 6368506F 		.ascii	"chPoolFree\000\000\002\000\000\000\000\000\000\000\000"
 443      6F6C4672 
 443      65650000 
 443      02000000 
 443      00000000 
 444 0098 00D80100 		.ascii	"\000\330\001\000\000chHeapFree\000\000\002\000\000\000"
ARM GAS  /tmp/ccAVppXH.s 			page 35


 444      00636848 
 444      65617046 
 444      72656500 
 444      00020000 
 445 00ad 00000000 		.ascii	"\000\000\000\000\000\000\335\001\000\000chSchWakeup"
 445      0000DD01 
 445      00006368 
 445      53636857 
 445      616B6575 
 446 00c2 53000002 		.ascii	"S\000\000\002\000\000\000\000\000\000\000\000\000\341"
 446      00000000 
 446      00000000 
 446      00E1
 447 00d0 01000063 		.ascii	"\001\000\000chThdCreateI\000\000\002\000\000\000\000"
 447      68546864 
 447      43726561 
 447      74654900 
 447      00020000 
 448 00e6 00000000 		.ascii	"\000\000\000\000\000\346\001\000\000chHeapAlloc\000"
 448      00E60100 
 448      00636848 
 448      65617041 
 448      6C6C6F63 
 449 00fb 00020000 		.ascii	"\000\002\000\000\000\000\000\000\000\000\000\356\001"
 449      00000000 
 449      000000EE 
 449      01
 450 0108 00006368 		.ascii	"\000\000chPoolAlloc\000\000\002\000\000\000\000\000"
 450      506F6F6C 
 450      416C6C6F 
 450      63000002 
 450      00000000 
 451 011d 00000000 		.ascii	"\000\000\000\000\363\001\000\000"
 451      F3010000 
 452              		.text
 453              		.section	.gnu.lto_.opts,"",%progbits
 454 0000 272D6D63 		.ascii	"'-mcpu=cortex-m4' '-mfloat-abi=hard' '-mfpu=fpv4-sp"
 454      70753D63 
 454      6F727465 
 454      782D6D34 
 454      2720272D 
 455 0033 2D643136 		.ascii	"-d16' '-mno-thumb-interwork' '-mthumb' '-O2' '-fomi"
 455      2720272D 
 455      6D6E6F2D 
 455      7468756D 
 455      622D696E 
 456 0066 742D6672 		.ascii	"t-frame-pointer' '-falign-functions=16' '-ffunction"
 456      616D652D 
 456      706F696E 
 456      74657227 
 456      20272D66 
 457 0099 2D736563 		.ascii	"-sections' '-fdata-sections' '-fno-common' '-flto' "
 457      74696F6E 
 457      73272027 
 457      2D666461 
 457      74612D73 
 458 00cc 272D6673 		.ascii	"'-fsingle-precision-constant'\000"
ARM GAS  /tmp/ccAVppXH.s 			page 36


 458      696E676C 
 458      652D7072 
 458      65636973 
 458      696F6E2D 
 459              		.text
 460              		.section	.text.chThdAddRef,"ax",%progbits
 461              		.align	2
 462              		.p2align 4,,15
 463              		.global	chThdAddRef
 464              		.thumb
 465              		.thumb_func
 466              		.type	chThdAddRef, %function
 467              	chThdAddRef:
 468              		@ args = 0, pretend = 0, frame = 0
 469              		@ frame_needed = 0, uses_anonymous_args = 0
 470              		@ link register save eliminated.
 471 0000 2022     		movs	r2, #32
 472              	@ 546 "/home/cody/dev/chibios/trunk/os/ext/CMSIS/include/core_cmFunc.h" 1
 473 0002 82F31188 		MSR basepri, r2
 474              	@ 0 "" 2
 475              		.thumb
 476 0006 827F     		ldrb	r2, [r0, #30]	@ zero_extendqisi2
 477 0008 0132     		adds	r2, r2, #1
 478 000a 8277     		strb	r2, [r0, #30]
 479 000c 0023     		movs	r3, #0
 480              	@ 546 "/home/cody/dev/chibios/trunk/os/ext/CMSIS/include/core_cmFunc.h" 1
 481 000e 83F31188 		MSR basepri, r3
 482              	@ 0 "" 2
 483              		.thumb
 484 0012 7047     		bx	lr
 485              		.size	chThdAddRef, .-chThdAddRef
 486 0014 AFF30080 		.section	.text.chThdRelease,"ax",%progbits
 486      AFF30080 
 486      AFF30080 
 487              		.align	2
 488              		.p2align 4,,15
 489              		.global	chThdRelease
 490              		.thumb
 491              		.thumb_func
 492              		.type	chThdRelease, %function
 493              	chThdRelease:
 494              		@ args = 0, pretend = 0, frame = 0
 495              		@ frame_needed = 0, uses_anonymous_args = 0
 496              		@ link register save eliminated.
 497 0000 0146     		mov	r1, r0
 498 0002 2023     		movs	r3, #32
 499              	@ 546 "/home/cody/dev/chibios/trunk/os/ext/CMSIS/include/core_cmFunc.h" 1
 500 0004 83F31188 		MSR basepri, r3
 501              	@ 0 "" 2
 502              		.thumb
 503 0008 837F     		ldrb	r3, [r0, #30]	@ zero_extendqisi2
 504 000a 013B     		subs	r3, r3, #1
 505 000c DBB2     		uxtb	r3, r3
 506 000e 8377     		strb	r3, [r0, #30]
 507 0010 0022     		movs	r2, #0
 508              	@ 546 "/home/cody/dev/chibios/trunk/os/ext/CMSIS/include/core_cmFunc.h" 1
 509 0012 82F31188 		MSR basepri, r2
ARM GAS  /tmp/ccAVppXH.s 			page 37


 510              	@ 0 "" 2
 511              		.thumb
 512 0016 13B9     		cbnz	r3, .L2
 513 0018 037F     		ldrb	r3, [r0, #28]	@ zero_extendqisi2
 514 001a 0F2B     		cmp	r3, #15
 515 001c 00D0     		beq	.L7
 516              	.L2:
 517 001e 7047     		bx	lr
 518              	.L7:
 519 0020 437F     		ldrb	r3, [r0, #29]	@ zero_extendqisi2
 520 0022 03F00303 		and	r3, r3, #3
 521 0026 012B     		cmp	r3, #1
 522 0028 02D0     		beq	.L4
 523 002a 022B     		cmp	r3, #2
 524 002c 07D0     		beq	.L5
 525 002e 7047     		bx	lr
 526              	.L4:
 527 0030 4369     		ldr	r3, [r0, #20]
 528 0032 0269     		ldr	r2, [r0, #16]
 529 0034 1A61     		str	r2, [r3, #16]
 530 0036 0269     		ldr	r2, [r0, #16]
 531 0038 5361     		str	r3, [r2, #20]
 532 003a FFF7FEBF 		b	chHeapFree
 533              	.L5:
 534 003e 4369     		ldr	r3, [r0, #20]
 535 0040 0269     		ldr	r2, [r0, #16]
 536 0042 1A61     		str	r2, [r3, #16]
 537 0044 0269     		ldr	r2, [r0, #16]
 538 0046 006C     		ldr	r0, [r0, #64]
 539 0048 5361     		str	r3, [r2, #20]
 540 004a FFF7FEBF 		b	chPoolFree
 541              		.size	chThdRelease, .-chThdRelease
 542 004e 00BF     		.section	.text.chThdCreateFromHeap,"ax",%progbits
 543              		.align	2
 544              		.p2align 4,,15
 545              		.global	chThdCreateFromHeap
 546              		.thumb
 547              		.thumb_func
 548              		.type	chThdCreateFromHeap, %function
 549              	chThdCreateFromHeap:
 550              		@ args = 4, pretend = 0, frame = 0
 551              		@ frame_needed = 0, uses_anonymous_args = 0
 552 0000 F0B5     		push	{r4, r5, r6, r7, lr}
 553 0002 83B0     		sub	sp, sp, #12
 554 0004 1746     		mov	r7, r2
 555 0006 1E46     		mov	r6, r3
 556 0008 0D46     		mov	r5, r1
 557 000a FFF7FEFF 		bl	chHeapAlloc
 558 000e 98B1     		cbz	r0, .L9
 559 0010 2023     		movs	r3, #32
 560              	@ 546 "/home/cody/dev/chibios/trunk/os/ext/CMSIS/include/core_cmFunc.h" 1
 561 0012 83F31188 		MSR basepri, r3
 562              	@ 0 "" 2
 563              		.thumb
 564 0016 089B     		ldr	r3, [sp, #32]
 565 0018 0093     		str	r3, [sp]
 566 001a 2946     		mov	r1, r5
ARM GAS  /tmp/ccAVppXH.s 			page 38


 567 001c 3A46     		mov	r2, r7
 568 001e 3346     		mov	r3, r6
 569 0020 FFF7FEFF 		bl	chThdCreateI
 570 0024 0123     		movs	r3, #1
 571 0026 4377     		strb	r3, [r0, #29]
 572 0028 0021     		movs	r1, #0
 573 002a 0446     		mov	r4, r0
 574 002c FFF7FEFF 		bl	chSchWakeupS
 575 0030 0023     		movs	r3, #0
 576              	@ 546 "/home/cody/dev/chibios/trunk/os/ext/CMSIS/include/core_cmFunc.h" 1
 577 0032 83F31188 		MSR basepri, r3
 578              	@ 0 "" 2
 579              		.thumb
 580 0036 2046     		mov	r0, r4
 581              	.L9:
 582 0038 03B0     		add	sp, sp, #12
 583              		@ sp needed
 584 003a F0BD     		pop	{r4, r5, r6, r7, pc}
 585              		.size	chThdCreateFromHeap, .-chThdCreateFromHeap
 586 003c AFF30080 		.section	.text.chThdCreateFromMemoryPool,"ax",%progbits
 587              		.align	2
 588              		.p2align 4,,15
 589              		.global	chThdCreateFromMemoryPool
 590              		.thumb
 591              		.thumb_func
 592              		.type	chThdCreateFromMemoryPool, %function
 593              	chThdCreateFromMemoryPool:
 594              		@ args = 0, pretend = 0, frame = 0
 595              		@ frame_needed = 0, uses_anonymous_args = 0
 596 0000 F0B5     		push	{r4, r5, r6, r7, lr}
 597 0002 83B0     		sub	sp, sp, #12
 598 0004 0F46     		mov	r7, r1
 599 0006 1646     		mov	r6, r2
 600 0008 1C46     		mov	r4, r3
 601 000a 0546     		mov	r5, r0
 602 000c FFF7FEFF 		bl	chPoolAlloc
 603 0010 98B1     		cbz	r0, .L12
 604 0012 2023     		movs	r3, #32
 605              	@ 546 "/home/cody/dev/chibios/trunk/os/ext/CMSIS/include/core_cmFunc.h" 1
 606 0014 83F31188 		MSR basepri, r3
 607              	@ 0 "" 2
 608              		.thumb
 609 0018 6968     		ldr	r1, [r5, #4]
 610 001a 0094     		str	r4, [sp]
 611 001c 3A46     		mov	r2, r7
 612 001e 3346     		mov	r3, r6
 613 0020 FFF7FEFF 		bl	chThdCreateI
 614 0024 0223     		movs	r3, #2
 615 0026 4377     		strb	r3, [r0, #29]
 616 0028 0564     		str	r5, [r0, #64]
 617 002a 0021     		movs	r1, #0
 618 002c 0446     		mov	r4, r0
 619 002e FFF7FEFF 		bl	chSchWakeupS
 620 0032 0023     		movs	r3, #0
 621              	@ 546 "/home/cody/dev/chibios/trunk/os/ext/CMSIS/include/core_cmFunc.h" 1
 622 0034 83F31188 		MSR basepri, r3
 623              	@ 0 "" 2
ARM GAS  /tmp/ccAVppXH.s 			page 39


 624              		.thumb
 625 0038 2046     		mov	r0, r4
 626              	.L12:
 627 003a 03B0     		add	sp, sp, #12
 628              		@ sp needed
 629 003c F0BD     		pop	{r4, r5, r6, r7, pc}
 630              		.size	chThdCreateFromMemoryPool, .-chThdCreateFromMemoryPool
 631              		.comm	__gnu_lto_v1,1,1
 632 003e 00BF     		.ident	"GCC: (GNU Tools for ARM Embedded Processors) 4.8.4 20140526 (release) [ARM/embedded-4_8-br
ARM GAS  /tmp/ccAVppXH.s 			page 40

