ARM GAS  /tmp/ccZ28IsQ.s 			page 1


   1              		.syntax unified
   2              		.cpu cortex-m4
   3              		.eabi_attribute 27, 3
   4              		.eabi_attribute 28, 1
   5              		.fpu fpv4-sp-d16
   6              		.eabi_attribute 20, 1
   7              		.eabi_attribute 21, 1
   8              		.eabi_attribute 23, 3
   9              		.eabi_attribute 24, 1
  10              		.eabi_attribute 25, 1
  11              		.eabi_attribute 26, 1
  12              		.eabi_attribute 30, 2
  13              		.eabi_attribute 34, 1
  14              		.eabi_attribute 18, 4
  15              		.thumb
  16              		.file	"chheap.c"
  17              		.section	.gnu.lto_.jmpfuncs.3519627ca107015,"",%progbits
  18 0000 789C6362 		.ascii	"x\234cb`b\300\0062\2404+\003\003#S5\303\257\206\216"
  18      6062C006 
  18      32A0342B 
  18      03032353 
  18      35C3AF86 
  19 0015 06814C46 		.ascii	"\006\201LF\006m\206U\015\015 \026c.#C\022#\\9#\343\203"
  19      066D8655 
  19      0D0D2016 
  19      632E2343 
  19      12235C39 
  20 002c FF50C018 		.ascii	"\377P\300\030\301\230\311\0104\224\231\235\221\245\001"
  20      C198C908 
  20      3494999D 
  20      91A501
  21 003b C8042962 		.ascii	"\310\004)ba\006\222pT\0174\226\021\302d\203J0\000\000"
  21      61069270 
  21      540F3496 
  21      11C26483 
  21      4A300000 
  22 004f 14D512C5 		.ascii	"\024\325\022\305"
  23              		.text
  24              		.section	.gnu.lto_.inline.3519627ca107015,"",%progbits
  25 0000 789C6362 		.ascii	"x\234cb`b\300\006L\031!4+\003\003\207\000#\003\023\333"
  25      6062C006 
  25      4C192134 
  25      2B030387 
  25      00230313 
  26 0015 073D06B6 		.ascii	"\007=\006\266\005\362`\305L\334\014\014\214\014\314"
  26      05F260C5 
  26      4CDC0C0C 
  26      8C0CCC
  27 0024 0CDCC28C 		.ascii	"\014\334\302\214LL`u \202\231\265C\235\201{\205\033"
  27      4C4C6075 
  27      208299B5 
  27      439D817B 
  27      851B
  28 0036 1303D305 		.ascii	"\023\003\323\005~\026\270\272\011~,\014\372\037\030"
  28      7E16B8BA 
  28      097E2C0C 
  28      FA1F18
ARM GAS  /tmp/ccZ28IsQ.s 			page 2


  29 0045 185918D2 		.ascii	"\030Y\030\322#\0303\031\231A\022\031p\026H##\210`1\353"
  29      23183319 
  29      99411219 
  29      70164823 
  29      23886031 
  30 005a E8E184D8 		.ascii	"\350\341\204\330\300\262@^\200\201c\237\236\002\222"
  30      C0B2405E 
  30      8081639F 
  30      9E0292
  31 0069 19A814AB 		.ascii	"\031\250\024\253 \204b\320\331\303\010\324\015\266\335"
  31      208462D0 
  31      D9C308D4 
  31      0DB6DD
  32 0078 61D53561 		.ascii	"a\3255a\006\276\031\316\030\326C)6\006\241\273\014\214"
  32      06BE19CE 
  32      18D64329 
  32      3606A1BB 
  32      0C8C
  33 008a 6CD85CC1 		.ascii	"l\330\\\301\010f\201\3640\246\303X\010\227\261\361<"
  33      086681F4 
  33      30A6C358 
  33      0897B1F1 
  33      3C
  34 009b 79C40E77 		.ascii	"y\304\016w\231\003\210h\000\332\331\304.\300\004&1\255"
  34      99038868 
  34      00DAD9C4 
  34      2EC00426 
  34      31AD
  35 00ad 62000049 		.ascii	"b\000\000I\345%f"
  35      E52566
  36              		.text
  37              		.section	.gnu.lto_.pureconst.3519627ca107015,"",%progbits
  38 0000 789C6362 		.ascii	"x\234cb`b\340f\200\000V\006\011f)\026)V)6)\000\004?"
  38      6062E066 
  38      80005606 
  38      09662916 
  38      29562936 
  39 0018 00A7     		.ascii	"\000\247"
  40              		.text
  41              		.section	.gnu.lto__heap_init.3519627ca107015,"",%progbits
  42 0000 789CAD91 		.ascii	"x\234\255\221?K\003A\020\305\347\355\335\3053Z\330\332"
  42      3F4B0341 
  42      10C5E7ED 
  42      DDC5335A 
  42      D8DA
  43 0012 0996822B 		.ascii	"\011\226\202+\266\026~\211\010ZX$\233@\026\211\321\374"
  43      B6167E89 
  43      085A5824 
  43      9B401689 
  43      D1FC
  44 0024 11C4221B 		.ascii	"\021\304\"\033Ma#\304J1\225\255\205\266\001\213\004"
  44      4D6123C4 
  44      4A3195AD 
  44      85B6018B 
  44      04
  45 0035 043B157B 		.ascii	"\004;\025{\213|\202`c\023\2048{\267\247\304\312\302"
  45      8B7C8260 
ARM GAS  /tmp/ccZ28IsQ.s 			page 3


  45      63138438 
  45      7BB7A7C4 
  45      CAC2
  46 0047 81BB793B 		.ascii	"\201\273y;7\363~\303\236 A\277c\236\237\017\020\255"
  46      37F37EC3 
  46      9E2041BF 
  46      639E9F0F 
  46      10AD
  47 0059 72864710 		.ascii	"r\206G\020\355g\242f(\000+\010\324\020hl!\352\275\023"
  47      ED67A266 
  47      28002B08 
  47      D410686C 
  47      21EABD13 
  48 006d FDC1787C 		.ascii	"\375\301x|\373\366x\361\211\216Hq%\240\2261\355\005"
  48      FBF678F1 
  48      898E4871 
  48      25A09631 
  48      ED05
  49 007f 22157564 		.ascii	"\"\025ud\370m\3076 l\366\236\350xt\322;[\313\342\032"
  49      F86DC736 
  49      206CF69E 
  49      E87874D2 
  49      3B5BCBE2 
  50 0094 012DD18D 		.ascii	"\001-\321\215\341X\327\240\016]5\215\231\323\300\021"
  50      E158D7A0 
  50      0E5D358D 
  50      99D3C011 
  51 00a4 8DCCA955 		.ascii	"\215\314\251U\242\024Yl\202eD\313\305P\212;\314\221"
  51      A214596C 
  51      826544CB 
  51      C5508A3B 
  51      CC91
  52 00b6 86A710D7 		.ascii	"\206\247\020\327\330\267{9\354\373\023\276u\015\337"
  52      D8B77B39 
  52      ECFB13BE 
  52      750DDF
  53 00c5 C97D8DC0 		.ascii	"\311}\215\300\311m\215\324\017x\352o`\270\234\234=\227"
  53      C96D8DD4 
  53      0F78EA6F 
  53      60B89C9C 
  53      3D97
  54 00d7 7D4A3AFD 		.ascii	"}J:\375d\215\356\360\335\233X\203\331\341\177\262\203"
  54      648DEEF0 
  54      DD9B5883 
  54      D9E17FB2 
  54      83
  55 00e8 6F6668C5 		.ascii	"ofh\305\013\265\006\367\017\351\030\231\\\016;M+7a+"
  55      0BB506F7 
  55      0FE91899 
  55      5C0E3B4D 
  55      2B37612B 
  56 00fc A146DA81 		.ascii	"\241F\332\201\317yp\206)9\244\242\317nPc\226\350\225"
  56      CF797086 
  56      2939A4A2 
  56      CF6E5063 
  56      96E895
  57 010f 9A83DE62 		.ascii	"\232\203\336bb\025G\206\027\340_g\275Vd\261\\*HU\316"
ARM GAS  /tmp/ccZ28IsQ.s 			page 4


  57      62154786 
  57      17E05F67 
  57      BD5664B1 
  57      5C2A4855 
  58 0124 1FCA7CE1 		.ascii	"\037\312|\341@\252\242\316\351rU\326*\365\335\035\311"
  58      40AAA2CE 
  58      E97255D6 
  58      2AF5DD1D 
  58      C9
  59 0135 A25293D5 		.ascii	"\242R\223\325\212\342z\261\220\335[V\364\005\376\207"
  59      8AE27AB1 
  59      90DD5B56 
  59      F405FE87 
  60 0145 8BEB     		.ascii	"\213\353"
  61              		.text
  62              		.section	.gnu.lto_chHeapObjectInit.3519627ca107015,"",%progbits
  63 0000 789CA552 		.ascii	"x\234\245R1O\302P\020\276{\245P\250DW7\0236\215VL\374"
  63      314FC250 
  63      10BE7BA5 
  63      50A84457 
  63      3713368D 
  64 0017 212698C8 		.ascii	"!&\230\310\010\205\300\213A\014\240\2112P\204\201\015"
  64      0885C08B 
  64      410CA089 
  64      32508481 
  64      0D
  65 0028 46A393AB 		.ascii	"F\243\223\253\203\216vR\\4\016(n\216\214\376\004R\206"
  65      838E7652 
  65      5C340E28 
  65      6E8E8CFE 
  65      045286
  66 003b 7AAF7D40 		.ascii	"z\257}@ \304\230\370\222w\337\345\365\356\373\356\256"
  66      20C498F8 
  66      9277DFE5 
  66      F5EEFBEE 
  66      AE
  67 004c C780C1FC 		.ascii	"\307\200\301\374Y\245\373H\317;\204\250\000\262\316"
  67      59A5FB48 
  67      CF3B84A8 
  67      00B2CE
  68 005b 3B405D63 		.ascii	";@]c\210\302\001\204\032\303Z\022\275\330{\326\035\270"
  68      88C20184 
  68      1AC35A12 
  68      BDD87BD6 
  68      1DB8
  69 006d EE9DFDFA 		.ascii	"\356\235\375\372\362\214\243X\224a\001!@\00652,\014"
  69      F28CA358 
  69      94610121 
  69      40063532 
  69      2C0C
  70 007f 1C412723 		.ascii	"\034A'#\202UhZVg\015\300\364R\023d\005\337>2\201J\017"
  70      8255685A 
  70      56670DC0 
  70      F4521364 
  70      05DF3E32 
  71 0096 2E6CDBF9 		.ascii	".l\333\371f)\274A\0256\340\326\242\023\347\310\256\341"
  71      6629BC41 
ARM GAS  /tmp/ccZ28IsQ.s 			page 5


  71      1536E0D6 
  71      A213E7C8 
  71      AEE1
  72 00a8 0A392A39 		.ascii	"\0129*9d\007\204\001O6\355\253\203xQ\205C\331o_N_\231"
  72      64078401 
  72      4F36EDAB 
  72      83785185 
  72      43D96F5F 
  73 00bf C94E720C 		.ascii	"\311Nr\014Jw\237cH\272{\034\265)}x1=Jd\022\025\211\376"
  73      4A779F63 
  73      48BA7B1C 
  73      B5297D78 
  73      313D4A64 
  74 00d7 F79C4051 		.ascii	"\367\234@Q\360\320\351\316J\222N\344?:\352\244\255\210"
  74      F0D0E9CE 
  74      4A924EE4 
  74      3F3AEAA4 
  74      AD88
  75 00e9 6CCBBE1C 		.ascii	"l\313\276\034ug\207\262;m+>mK'9_#L\345\011\206\340\257"
  75      756787B2 
  75      3B6D2B3E 
  75      6D4B2739 
  75      5F234CE5 
  76 0101 3D4C227A 		.ascii	"=L\"z\320h5\036\332\233\276FN\244k^\001C\327u\227\345"
  76      D068351E 
  76      DA9BBE46 
  76      4EA46B5E 
  76      0143D775 
  77 0117 6CFBA1F9 		.ascii	"l\373\241\371\377\022\371\263\256*g\026\366\250\234"
  77      FF12F9B3 
  77      AE2A6716 
  77      F6A89C
  78 0126 C6537B7D 		.ascii	"\306S{}\254\245W\341\234\266CR\2259\352\213\307\024"
  78      ACA557E1 
  78      9CB64352 
  78      9539EA8B 
  78      C714
  79 0138 9C6EE707 		.ascii	"\234n\347\0074\2732\037\240\012\216\325\262V8.\231r"
  79      34BB321F 
  79      A00A8ED5 
  79      B256382E 
  79      9972
  80 014a 94C4C931 		.ascii	"\224\304\3111\012\360\011\365\301(6\216\363O\202bh\325"
  80      0AF009F5 
  80      C128368E 
  80      F34F8262 
  80      68D5
  81 015c 445DDB46 		.ascii	"D]\333F\276X\310\032f1sfd\262\247\206\231\347i^,\033"
  81      BE58C81A 
  81      66317366 
  81      64B2A786 
  81      99E7695E 
  82 0172 95D2C9D1 		.ascii	"\225\322\311\321\241AN\251b\224K&\275\347\263\251\343"
  82      A1414EA9 
  82      62944B26 
  82      BDE7B3A9 
  82      E3
ARM GAS  /tmp/ccZ28IsQ.s 			page 6


  83 0183 2D137E00 		.ascii	"-\023~\000>h\256<"
  83      3E68AE3C 
  84              		.text
  85              		.section	.gnu.lto_chHeapAlloc.3519627ca107015,"",%progbits
  86 0000 789CC556 		.ascii	"x\234\305V\335k\034U\024?\347\336\335\231\331\235\331"
  86      DD6B1C55 
  86      143FE7DE 
  86      DD99D99D 
  86      D9
  87 0011 D9AD0949 		.ascii	"\331\255\011I\221\226.\013\265`\301\265\004\225PB\361"
  87      91962E0B 
  87      B560C1B5 
  87      04955042 
  87      F1
  88 0022 4F10B2A0 		.ascii	"O\020\262\240O\232lb2\224\230\230\266\202\006\351lv"
  88      4F9A6C62 
  88      32949898 
  88      B68206E9 
  88      6C76
  89 0034 1F627D89 		.ascii	"\037b}\211B\332\252/-Z\012\026\0330b\003Q\331\206\252"
  89      42DAAA2F 
  89      2D5A0A16 
  89      1B306203 
  89      51D986AA 
  90 0048 F9A8B5A1 		.ascii	"\371\250\265\241\024\333t\301\024)\025\252`\360\301"
  90      14DB74C1 
  90      142915AA 
  90      60F0C1
  91 0057 58C4F59C 		.ascii	"X\304\365\234;3\373\021W\263}\020\007\366~\236\337o"
  91      3B33FB11 
  91      57B37D10 
  91      07F67E9E 
  91      DF6F
  92 0069 7EE7DC73 		.ascii	"~\347\334s\317\254\000\001\233\237\317\351w,\002\260"
  92      CFAC0001 
  92      9B9FCFE9 
  92      772C02B0 
  93 0079 9F7A4C00 		.ascii	"\237zL\000\212\311+\0009C\010Y2\301\215\206>\231\007"
  93      8AC92B00 
  93      39430859 
  93      32C18D86 
  93      3E9907
  94 008c 702D8921 		.ascii	"p-\211!o=\204Qo\020\026\332\274$\203\370\225%6\320\204"
  94      6F3D8451 
  94      6F1016DA 
  94      BC2483F8 
  94      952536D0 
  95 00a1 3EB187A6 		.ascii	">\261\207\246\006\267\226\216\021\317\312\010\006\021"
  95      06B7968E 
  95      11CFCA08 
  95      0611
  96 00af B4BD41DC 		.ascii	"\264\275A\334#x:*\302\012\0315\231\3062\205\365\225"
  96      23783A2A 
  96      C20A1935 
  96      99C63285 
  96      F595
  97 00c1 9ADA4B3C 		.ascii	"\232\332K<\265D\354\352e5-\"Mc\001\332F\344\001 \034"
ARM GAS  /tmp/ccZ28IsQ.s 			page 7


  97      B544ECEA 
  97      65352D22 
  97      4D6301DA 
  97      46E40120 
  98 00d6 153214D6 		.ascii	"\0252\024\326t#\022\217\232V\314\306\243\317!\273#S"
  98      7423128F 
  98      9A56CCC6 
  98      A3CF21BB 
  98      2353
  99 00e8 70DA75DF 		.ascii	"p\332u\337^\373\362\354\272x\307-\026N\271\177\224\313"
  99      5EFBF2EC 
  99      BA78C72D 
  99      164EB97F 
  99      94CB
 100 00fa 880E92EB 		.ascii	"\210\016\222\353\035\010Y\204gi\202I\325\211P},<\254"
 100      1D085984 
 100      67698249 
 100      D589507D 
 100      2C3CAC
 101 010d FB5BDF82 		.ascii	"\373[\337\202[(\226\313\007\024\352\311&Qo\365\327\242"
 101      5B2896CB 
 101      0714EAC9 
 101      26516FF5 
 101      D7A2
 102 011f 3AB7424D 		.ascii	":\267BM\213\342Z\271\\\2726\373\303\237\370\320#\010"
 102      8BE25AB9 
 102      5CBA36FB 
 102      C39FF8D0 
 102      2308
 103 0131 438CEAC1 		.ascii	"C\214\352\301\323\230\002\011\016J\015iE\247\006\015"
 103      D3980209 
 103      0E4A0D69 
 103      45A7060D 
 104 0141 9A862264 		.ascii	"\232\206\"d\200Q\337\300\244\225\260M\015\304y/\301"
 104      8051DFC0 
 104      A495B04D 
 104      0DC4792F 
 104      C1
 105 0152 CD369EB6 		.ascii	"\3156\236\266\220\301\0312h\345I\033/\267s\263\223\011"
 105      90C11932 
 105      68E5491B 
 105      2FB773B3 
 105      9309
 106 0164 7751A325 		.ascii	"wQ\243%y\232\"\253\367\311j\267\337\323\023\206\202"
 106      799A22AB 
 106      F7C96AB7 
 106      DFD31386 
 106      82
 107 0175 EB4E263D 		.ascii	"\353N&=zo\325c\002v\203\236nj\177\321 \203\202:\271"
 107      7A6FD563 
 107      0276839E 
 107      6E6A7FD1 
 107      2083823A 
 108 018a 0097EE5E 		.ascii	"\000\227\356^\\9&{\360,\206a\0005\366P\257u\257\033"
 108      5C39267B 
 108      F02C8661 
 108      0035F650 
ARM GAS  /tmp/ccZ28IsQ.s 			page 8


 108      AF75AF1B 
 109 019e 25145066 		.ascii	"%\024Pf0\304\366\337@~\"?=\365p`o\014\240\316\020\203"
 109      30C4F6DF 
 109      407E223F 
 109      3DF57060 
 109      6F0CA0CE 
 110 01b4 31B43997 		.ascii	"1\2649\227\357\015\266\"\264\253\2666\312\345r\\m\217"
 110      EF0DB622 
 110      B4ABB636 
 110      CAE5725C 
 110      6D8F
 111 01c6 DFCFCF4C 		.ascii	"\337\317\317Li\201At\014\356\273\364\354#\027\367\302"
 111      69814174 
 111      0CEEBBF4 
 111      EC2317F7 
 111      C2
 112 01d7 873CEC72 		.ascii	"\207<\354r0\362\036\274K\250\350\000bUK/\326(R<\027"
 112      30F21EBC 
 112      4BA8E800 
 112      62554B2F 
 112      D628523C 
 113 01ec A62A9ACD 		.ascii	"\246*\232\3151x\215\302\270\027\036u\320l\214\256\201"
 113      31788DC2 
 113      B8171E75 
 113      D06C8CAE 
 113      81
 114 01fd 7F0B210F 		.ascii	"\177\013!\017\010\300\357\237p\023\016ZY\337\202\310"
 114      08C0EF9F 
 114      70130E5A 
 114      59DF82C8 
 115 020d 1C8CF1E8 		.ascii	"\034\214\361\350& EC\240gS\274\266d\023\333\020\362"
 115      26204543 
 115      A06753BC 
 115      B66413DB 
 115      10F2
 116 021f B593B312 		.ascii	"\265\223\263\022(~a\240\264\247\200\214\257\316\236"
 116      287E61A0 
 116      B4A7808C 
 116      AFCE9E
 117 022e 5FC7404C 		.ascii	"_\307@L\\\3110|\177\236r\320\366\024Q4lV\004\276\"\341"
 117      5CC9307C 
 117      7F9E72D0 
 117      F6145134 
 117      6C5604BE 
 118 0244 F7D297B5 		.ascii	"\367\322\227\265\000\205\273\271}\025\026\012_Ur\006"
 118      0085BBB9 
 118      7D15160A 
 118      5F557206 
 119 0254 35382FBD 		.ascii	"58/\275\330\337\233\352\012\214\022d\244\002l(\374\245"
 119      D8DF9BEA 
 119      0A8C1264 
 119      A4026C28 
 119      FCA5
 120 0266 3BB9276A 		.ascii	";\271'j\360\211Z\274\016\337\241\222zc\372\367J\334"
 120      F0895ABC 
 120      0EDFA192 
 120      7A63FAF7 
ARM GAS  /tmp/ccZ28IsQ.s 			page 9


 120      4ADC
 121 0278 B629A941 		.ascii	"\266)\251A\350\307\034\326\256\206G\266T\035\362\373"
 121      E8C71CD6 
 121      AE8647B6 
 121      541DF2FB 
 122 0288 70F54816 		.ascii	"p\365H\026\257\232\036\261O\362L\335\251\306\033\005"
 122      AF9A1EB1 
 122      4FF24CDD 
 122      A9C61B05 
 123 0298 446C4D4D 		.ascii	"DlMM*\003\037\014\317\207\374\233\371s\307w\004>\264"
 123      2A031F0C 
 123      CF87FC9B 
 123      F973C777 
 123      043EB4
 124 02ab 9040E52B 		.ascii	"\220@\345+;\267\361q\325\271\326\377\333\271\226f\234"
 124      3BB7F171 
 124      D5B9D6FF 
 124      DBB99666 
 124      9C
 125 02bc 6B5597E6 		.ascii	"kU\227\346\215\374\314\361\327\003\341m\301\351\363"
 125      8DFCCCF1 
 125      D703E16D 
 125      C1E9F3
 126 02cb 7157DC69 		.ascii	"qW\334i\247\215\315\227iq\262^T\327?\344]C%\322W\320"
 126      A78DCD97 
 126      6971B25E 
 126      54D73FE4 
 126      5D4325D2 
 127 02e1 EE51CDCE 		.ascii	"\356Q\315\316\254\213\377\344\370Z\024\377\362\215\231"
 127      AC8BFFE4 
 127      F85A14FF 
 127      F28D99
 128 02f0 DBA229B1 		.ascii	"\333\242)\261\377rI*w\"C\003u\037\306\227O~\372w^\335"
 128      FF72492A 
 128      77224303 
 128      751FC697 
 128      4F7EFA77 
 129 0306 1F765675 		.ascii	"\037vVuw4}\350\232\377*\344JQX[\275\203\215\252\205"
 129      77347DE8 
 129      9AFF2AE4 
 129      4A51585B 
 129      BD838DAA 
 130 031b F0ADBC6A 		.ascii	"\360\255\274j\241\222\362\347\266\340\254v\372\257\020"
 130      A192F2E7 
 130      B6E0AC76 
 130      FAAF10
 131 032a 869F40DD 		.ascii	"\206\237@\335\030\207S_\003f\250\356\323GO]\304\215"
 131      1887535F 
 131      0366A8EE 
 131      D3474F5D 
 131      C48D
 132 033c 738B2200 		.ascii	"s\213\"\000\330u\271z\240*\273\363\001\303\255\312\310"
 132      D875B97A 
 132      A02ABBF3 
 132      01C3ADCA 
 132      C8
 133 034d 4FB98E0A 		.ascii	"O\271\216\012q\025\242\236\233 \250\354\206._\337N{"
ARM GAS  /tmp/ccZ28IsQ.s 			page 10


 133      7115A29E 
 133      9B20A8EC 
 133      862E5FDF 
 133      4E7B
 134 035f F1D2AD17 		.ascii	"\361\322\255\0278\226&\314K\311\276\376\330\337\214"
 134      389626CC 
 134      4BC9BEFE 
 134      D8DF8C
 135 036e ABE3AB27 		.ascii	"\253\343\253'\347nW\312\335.%=\321\270\352\352\265\242"
 135      E76E57CA 
 135      DD2E253D 
 135      D1B8EAEA 
 135      B5A2
 136 0380 6215089B 		.ascii	"b\025\010\233\324T'\326`\301G~}\273pb\177`\230\254\255"
 136      D45427D6 
 136      60C1477E 
 136      7DBB7062 
 136      7F6098AC 
 137 0395 6F24B0B8 		.ascii	"o$\260\270=\330I\021\013kJ:\\\036\230\376b\311\254l"
 137      3DD84911 
 137      0B6B4A3A 
 137      5C1E98FE 
 137      62C9AC6C 
 138 03a9 6E729AF9 		.ascii	"nr\232\371cp\306\313\227\215\271\007\317\227T\223\371"
 138      6370C6CB 
 138      978DB907 
 138      CF975493 
 138      F9
 139 03ba A2F2F18B 		.ascii	"\242\362\361\213\225z\376\316j\236oMZ\223\347\352#w"
 139      957AFECE 
 139      6A9E6F4D 
 139      5A93E7EA 
 139      2377
 140 03cc EF841E78 		.ascii	"\357\204\036x\265\333\373X\026\177]\266\010G49\227\017"
 140      B5DBFB58 
 140      167F5DB6 
 140      08473439 
 140      970F
 141 03de 2860922A 		.ascii	"(`\222*\327\202\363\363\275\266\371\213\275B\177\266"
 141      D782F3F3 
 141      BDB6F98B 
 141      BD427FB6 
 142 03ee 98537A09 		.ascii	"\230Sz\011 )?#\237\335\332A\214\261\017\236WP\000\253"
 142      20293F23 
 142      9FDDDA41 
 142      8CB10F9E 
 142      575000AB 
 143 0402 F4BDE50F 		.ascii	"\364\275\345\017M\225\257HH\026\365xzpx\250?\235\035"
 143      4D95AF48 
 143      4816F578 
 143      7A7078A8 
 143      3F9D1D
 144 0415 EE7B35DD 		.ascii	"\356{5\335\327\377J:;\350\364:\303\207\322\207G\217"
 144      D7FF4A3A 
 144      3BE8F43A 
 144      C387D287 
 144      478F
ARM GAS  /tmp/ccZ28IsQ.s 			page 11


 145 0427 BC74304D 		.ascii	"\274t0M\203\321\303\351C\243YZ\037\354\357\031y,\013"
 145      83D1C3E9 
 145      43A3595A 
 145      1FECEF19 
 145      792C0B
 146 043a E2E51131 		.ascii	"\342\345\02118\"^\034\371\0135\3737\312"
 146      38225E1C 
 146      F90B35FB 
 146      37CA
 147              		.text
 148              		.section	.gnu.lto_chHeapFree.3519627ca107015,"",%progbits
 149 0000 789CAD55 		.ascii	"x\234\255U]h\024W\024>\347\316\314\356\314\316\304\335"
 149      5D681457 
 149      143EE7CE 
 149      CCEECCCE 
 149      C4DD
 150 0012 18094954 		.ascii	"\030\011IT\"\333BAK\267E\332\022\244\372\354\243h@\037"
 150      22DB4241 
 150      4BB745DA 
 150      12A4FAEC 
 150      A368401F 
 151 0026 934DD80C 		.ascii	"\223M\330\014\305&M\264\320\346\301I6B@\220P\250\177"
 151      C5264DB4 
 151      D0E6C149 
 151      36424090 
 151      50A87F
 152 0039 458C4811 		.ascii	"E\214H\021\372\"\250\017\202>d\245\017Fj\254\320\007"
 152      FA22A80F 
 152      823E64A5 
 152      0F466AAC 
 152      D007
 153 004b 95D2260F 		.ascii	"\225\322&\017\255\322\207Z]\264i(\235\236\37373\273"
 153      ADD2875A 
 153      5DB46928 
 153      9D9EFB37 
 153      33BB
 154 005d 2C261B7A 		.ascii	",&\033za\317\275\347\336{\276s\316w\316\235e\300\240"
 154      61CFBDE7 
 154      DE7BBE73 
 154      CE77CE9D 
 154      65C0A0
 155 0070 7ECCD2EF 		.ascii	"~\314\322\357G\007`7\315\330\002\310f\026\000&l\206"
 155      47076037 
 155      CDD802C8 
 155      66160026 
 155      6C86
 156 0082 865C18CC 		.ascii	"\206\\\030\314\372\311\205 c^\277\015\020x&\263\246"
 156      FAC98520 
 156      635EBF0D 
 156      107826B3 
 156      A6
 157 0093 DF22D5E5 		.ascii	"\337\"\325\345\322\263X\372\266AZj\341.?L)\325\225j"
 157      D2B358FA 
 157      B6415A6A 
 157      E12E3F4C 
 157      29D5956A 
 158 00a7 9AD9C2D4 		.ascii	"\232\331\302\324\221\2466:\022\322a\031\261\357\311"
ARM GAS  /tmp/ccZ28IsQ.s 			page 12


 158      91A6363A 
 158      12D26119 
 158      B1EFC9
 159 00b6 FD0C7A72 		.ascii	"\375\014zr\337\225>+\266\207\310\027\200p\214\031\246"
 159      DF953E2B 
 159      B687C817 
 159      80708C19 
 159      A6
 160 00c7 954ADB4E 		.ascii	"\225J\333N\306\365\360\330!\344\021\033y\270\030\004"
 160      C6F5F0D8 
 160      21E4111B 
 160      79B81804 
 161 00d7 5F2E1E7F 		.ascii	"_.\036\177\362\234\235\015\346\246f\203\177\302\020"
 161      F29C9D0D 
 161      E6A66683 
 161      7FC210
 162 00e6 D147CA6E 		.ascii	"\321G\312n'B\021\341 )\270ML\314\254MW\332\006\177\015"
 162      274211E1 
 162      2029B84D 
 162      4CCCAC4D 
 162      57DA067F 
 163 00fb DC09A6E6 		.ascii	"\334\011\246\346\302p\217\260\372`mVs7O~\325\031\314"
 163      C2708FB0 
 163      FA606D56 
 163      73374F7E 
 163      D519CC
 164 010e 4ECE04FF 		.ascii	"N\316\004\377\222C\037\015\006=\253Y^as\213ax\253\372"
 164      92431F0D 
 164      063DAB59 
 164      5E61738B 
 164      6178ABFA 
 165 0122 74E929B6 		.ascii	"t\351)\266\275\201\320\207\0271\017&\036F\260H\271D"
 165      BD81D087 
 165      17310F26 
 165      1E46B048 
 165      B944
 166 0134 4A9AE66F 		.ascii	"J\232\346oh\266\325\241\003>\232.\011\330@\302\312\222"
 166      68B6D5A1 
 166      033E9A2E 
 166      09D840C2 
 166      CA92
 167 0146 6039AEB6 		.ascii	"`9\256\266r\261\221\357\265q\261\211\213v\276\327\301"
 167      72B191EF 
 167      B571B189 
 167      8B76BED7 
 167      C1
 168 0157 579DFC5E 		.ascii	"W\235\374^\027W7su\013\027[\271\350\346{y\005N\303\202"
 168      17573773 
 168      750B175B 
 168      B9E8E67B 
 168      79054EC3 
 169 016c A92098D9 		.ascii	"\251 \230\331&u\031\202\014\000x.4\016\220\\1\240\027"
 169      26751982 
 169      0C00782E 
 169      340E905C 
 169      31A017
 170 017f 194DC63D 		.ascii	"\031M\306=(\237(_>\237\352\303\313hA\011\255\022\232"
ARM GAS  /tmp/ccZ28IsQ.s 			page 13


 170      289F285F 
 170      3E9FEAC3 
 170      CB684109 
 170      AD129A
 171 0192 22D3E530 		.ascii	"\"\323\3450\014\263t\375\036L>~\370\373<\352\013\351"
 171      0CB374FD 
 171      1E4C3E7E 
 171      F8FB3CEA 
 171      0BE9
 172 01a4 1DF06D40 		.ascii	"\035\360m@\243\227\030R\313}>\246\324r\227\217\351\257"
 172      A3971852 
 172      CB7D3EA6 
 172      D472978F 
 172      E9AF
 173 01b6 E11C01D8 		.ascii	"\341\034\001\330\012\0104\020\364\243$\255\037Q\315"
 173      0A083410 
 173      F4A324AD 
 173      1F51CD
 174 01c5 BA5FC9C7 		.ascii	"\272_\311\307J\371J\034\204=\016+\034\355=2W\300\037"
 174      4AF94A1C 
 174      843D0E2B 
 174      1CED3D32 
 174      57C01F
 175 01d8 11A20476 		.ascii	"\021\242\004v(\006\016l(\020#.\207\300\271v\336\320"
 175      28060E6C 
 175      2810232E 
 175      87C0B976 
 175      DED0
 176 01ea 38CE387C 		.ascii	"8\3168|Al\357\200\355>f\032['\012z\037Li\010\300\375"
 176      416CEF80 
 176      ED3E661A 
 176      5B270A7A 
 176      1F4C6908 
 177 0200 4F07391F 		.ascii	"O\0079\037\335\242\012\226\300|\364\344\305^\262\246"
 177      DDA20A96 
 177      C07CF4E4 
 177      C55EB2A6 
 178 0210 0E36EEC0 		.ascii	"\0166\356\300wO*\325\223\236v\207\024\271\006{\004\244"
 178      774F2AD5 
 178      939E7687 
 178      14B9067B 
 178      04A4
 179 0222 E5DDEBE3 		.ascii	"\345\335\353\343\264\307n\275\354\340V&\320\223\340"
 179      B4C76EBD 
 179      ECE05626 
 179      D093E0
 180 0231 56BF55AA 		.ascii	"V\277U\252\013o&\030\3078\210^\332{\365\266!X\377\343"
 180      0B6F2618 
 180      C738885E 
 180      DA7BF5B6 
 180      2158FFE3 
 181 0245 01D3975C 		.ascii	"\001\323\227\\\221\003\254B8\012\302\2411\331\226\362"
 181      9103AC42 
 181      380AC2A1 
 181      31D996F2 
 182 0255 20A35E28 		.ascii	" \243^(D\320\261Q\024C\012\252\333y\240\277V^\326\004"
 182      44D0B151 
ARM GAS  /tmp/ccZ28IsQ.s 			page 14


 182      14430AAA 
 182      DB79A0BF 
 182      565ED604 
 183 0269 EA262FA5 		.ascii	"\352&/\245e\377L\316\237y\266\244\002\215\213\245\227"
 183      65FF4CCE 
 183      9F79B6A4 
 183      028D8BA5 
 183      97
 184 027a 3D71A83B 		.ascii	"=q\250;\233\352\015K\321\356\212\262\316\337X\207\217"
 184      9BEA0D4B 
 184      D1EE8AB2 
 184      CEDF5887 
 184      8F
 185 028b 35D051E2 		.ascii	"5\320Q\3423'{\371\331\243\250\3057\010\262[\204\\C\304"
 185      33277BF9 
 185      D9A3A8C5 
 185      3708B25B 
 185      845C43C4 
 186 029f A9A8FBCA 		.ascii	"\251\250\373\312\323Q\353e\011F\274#[\236\234\210Nr"
 186      D351EB65 
 186      0946BC23 
 186      5B9E9C88 
 186      4E72
 187 02b1 82C9AC74 		.ascii	"\202\311\254t\373gVo\267\326Tx<N\351\350:h\223U\236"
 187      FB67566F 
 187      B7D65478 
 187      3C4EE9E8 
 187      3A689355 
 188 02c6 783FE1B3 		.ascii	"x?\341\2635Y:\033\276\007\321c7^<7\365\245\215:m\341"
 188      35593A1B 
 188      BE07D163 
 188      375E3C37 
 188      F5A58D3A 
 189 02dc F63426FD 		.ascii	"\3664&\375\2666\2422\231x\371jD_\033\245Nhu\204l\242"
 189      B636A232 
 189      9978F96A 
 189      445F1BA5 
 189      4E687584 
 190 02f2 030ED222 		.ascii	"\003\016\322\"\011\231\334\233\254f.\362\233k\202r\002"
 190      0999DC9B 
 190      AC662EF2 
 190      9B6B8272 
 190      02
 191 0303 55DFA717 		.ascii	"U\337\247\027\363\226\366\323^\303\343\005\214\211<"
 191      F396F6D3 
 191      5EC3E305 
 191      8C893C
 192 0312 BB7A46F5 		.ascii	"\273zF\365,\362\316\373\301\255\351\273}5\337$\215\375"
 192      2CF2CEFB 
 192      C1ADE9BB 
 192      7D35DF24 
 192      8DFD
 193 0324 E1BA7ABB 		.ascii	"\341\272z\273]\327\303QO\351\361\231\352R\304cG\303"
 193      5DD7C351 
 193      4FE9F199 
 193      EA52C463 
 193      47C3
ARM GAS  /tmp/ccZ28IsQ.s 			page 15


 194 0336 366CD8D4 		.ascii	"6l\330\324\015[\260\223 \032\267`\227\370Vu\326wIW)"
 194      0D5BB093 
 194      201AB760 
 194      97F85675 
 194      D6774957 
 195 034b 4A5C4495 		.ascii	"J\\D\225\321]\362\260\272\024\331n\256\351\222\261\246"
 195      D15DF2B0 
 195      BA14D96E 
 195      AEE992B1 
 195      A6
 196 035c 5F48A251 		.ascii	"_H\242Q\266P\200\004X\027\366V:h\266Q^C\012\001\252"
 196      B6508004 
 196      5817F656 
 196      3A68B651 
 196      5E430A01 
 197 0371 175EFD3B 		.ascii	"\027^\375;\362\321\375\377>\266\365\265\311\232>O\335"
 197      F2D1FDFF 
 197      3EB6F5B5 
 197      C99A3E4F 
 197      DD
 198 0382 BA182E9C 		.ascii	"\272\030.\234\272+\253\261\374\252\022Q\230W\300\373"
 198      BA2BABB1 
 198      FCAA1251 
 198      9857C0FB 
 199 0392 63777B62 		.ascii	"cw{bw=M\3779H_\036o\307\3730\265\370s\251\321?\"S\261"
 199      773D4DFF 
 199      39485F1E 
 199      6FC7FB30 
 199      B5F873A9 
 200 03ab C97FC407 		.ascii	"\311\177\304\00701\373KZ\337\223\343\000\001\257\030"
 200      3031FB4B 
 200      5ADF93E3 
 200      0001AF18 
 201 03bb FCDEBB85 		.ascii	"\374\336\273\205\241\341\303\203\205\342\360\300\347"
 201      A1E1C383 
 201      85E2F0C0 
 201      E7
 202 03c8 8581C1CF 		.ascii	"\205\201\301\317\012\305!\277\337\037\036+\034\031="
 202      0AC521BF 
 202      DF1F1E2B 
 202      1C193D
 203 03d7 FAC9C705 		.ascii	"\372\311\307\005Z\214\036)\214\215\026i\177h\260o\344"
 203      5A8C1E29 
 203      8C8D1669 
 203      7F68B06F 
 203      E4
 204 03e8 9D22B04F 		.ascii	"\235\"\260OG\330\320\210\305\265\221\377\000\354xLY"
 204      47D8D088 
 204      C5B591FF 
 204      00EC784C 
 204      59
 205              		.text
 206              		.section	.gnu.lto_chHeapStatus.3519627ca107015,"",%progbits
 207 0000 789C8D52 		.ascii	"x\234\215R\317k\023Q\020\236y\357\355n\222MR\021\021"
 207      CF6B1351 
 207      109E79EF 
 207      ED6E924D 
ARM GAS  /tmp/ccZ28IsQ.s 			page 16


 207      521111
 208 0013 7A2B3DB6 		.ascii	"z+=\266\342\012\202\210\027\377\211\006\354I\322\244"
 208      E20A8288 
 208      17FF8906 
 208      EC49D2A4 
 209 0023 A44BE9CF 		.ascii	"\244K\351\317\264\202\355\241/\355\212=T\010\351A[Q"
 209      B482EDA1 
 209      2FED8A3D 
 209      5408E941 
 209      5B51
 210 0035 5B8D368A 		.ascii	"[\2156\212\340A\301B/\251\210\326C-\366d\305C\321C="
 210      E041C142 
 210      2FA988D6 
 210      432DF664 
 210      C543D143 
 211 004a F4201E3C 		.ascii	"\364 \036<\224\322u^\336n\232JA\037dg\336\274\357\233"
 211      94D2755E 
 211      DE6E9A4A 
 211      411F6467 
 211      DEBCEF9B 
 212 005e F966320C 		.ascii	"\371f2\014\030\374}\206\350wF\000\\\"\2131@V\374\010"
 212      18FC7D86 
 212      E8774600 
 212      5C228B31 
 212      4056FC08 
 213 0072 508830C6 		.ascii	"P\2100\306\277\332 c\342\325\033\000\031\347(t\\\240"
 213      BFDA2063 
 213      E2D51B00 
 213      19E72874 
 213      5CA0
 214 0084 A91D433B 		.ascii	"\251\035C;\253\021\223\0313\357\011\023\263<\213\220"
 214      AB119319 
 214      33EF0913 
 214      B33C8B90 
 215 0094 168BCCBF 		.ascii	"\026\213\314\277S\327\350ou\215`T\343\243\210\312\001"
 215      53D7E86F 
 215      758D6054 
 215      E3A388CA 
 215      01
 216 00a5 8409C685 		.ascii	"\204\011\306\205aZ\024\231\350D%\201\267\302\242\224"
 216      615A1499 
 216      E8442581 
 216      B7C2A294 
 217 00b5 A5ED1B0F 		.ascii	"\245\355\033\017\177\2619Y\365\026\344\276\357#\272"
 217      7FB13959 
 217      F516E4BE 
 217      EF23BA
 218 00c4 4872CF23 		.ascii	"Hr\317#d\020\256\320\005[j\206\211\243\3725\267:[\272"
 218      6410AED0 
 218      055B6A86 
 218      89A3FA35 
 218      B73A5BBA 
 219 00d8 D52C1726 		.ascii	"\325,\027&\213\362\200\250.r\006\027\376\217)W\262k"
 219      8BF280A8 
 219      2E720617 
 219      FE8F2957 
 219      B26B
ARM GAS  /tmp/ccZ28IsQ.s 			page 17


 220 00ea D2ABFAFE 		.ascii	"\322\253\372\376\345\032\353\342\277X/Xu\333\367\367"
 220      E51AEBE2 
 220      BF582F58 
 220      75DBF7F7 
 221 00fa FD1FDF2B 		.ascii	"\375\037\337+x\352$B\237R\231\306El\005N\366\021YA\366"
 221      78EA2442 
 221      9F5299C6 
 221      456C054E 
 221      F6115941 
 222 010f 315913E9 		.ascii	"1Y\023\351\321\002\027E,@\330t\2018}\214D\200I\006\234"
 222      D1021745 
 222      2C40D874 
 222      81387D8C 
 222      44804906 
 223 0124 26C2AA61 		.ascii	"&\302\252a\030\340IYl\321p\375\244\201\240t\321\351"
 223      18E04959 
 223      6CD170FD 
 223      A481A074 
 223      D1E9
 224 0136 A02F0D3A 		.ascii	"\240/\015:\205\214\014_\203\267;\253\267K<\215Kh@\016"
 224      858C0C5F 
 224      83B73BAB 
 224      B74B3C8D 
 224      4B68400E 
 225 014a 4D25D96C 		.ascii	"M%\331l\324\333\201\034n\"O\241P\370u\230\334\233Z)"
 225      D4DB811C 
 225      6E224FA1 
 225      50F87598 
 225      DC9B5A29 
 226 015e D7F1D638 		.ascii	"\327\361\3268\214\221\276vhs\321\272\013\363\304\216"
 226      8C91BE76 
 226      6873D1BA 
 226      0BF3C48E 
 227 016e E4100FB3 		.ascii	"\344\020\017\263taC\256\015\020\232\0100\016{rZ\236"
 227      746143AE 
 227      0D109A08 
 227      300E7B72 
 227      5A9E
 228 0180 70319A41 		.ascii	"p1\232A\015\241d.-\020\324J\354\224\333\302\0221\005"
 228      0DA1642E 
 228      2D10D44A 
 228      EC94DBC2 
 228      123105
 229 0193 A5D349AD 		.ascii	"\245\323I\255\267\3033\345\216\272h\037_\254\261\032"
 229      B7C333E5 
 229      8EBA681F 
 229      5FACB11A 
 230 01a3 6C015247 		.ascii	"l\001RG\014u\255\352\334f\222\200}\250v\230/s\240\031"
 230      0C75ADEA 
 230      DC669280 
 230      7DA87698 
 230      2F73A019 
 231 01b7 1840ABA7 		.ascii	"\030@\253\247\232\372\362\371\311f\275\251x\255\035"
 231      9AFAF2F9 
 231      C966BDA9 
 231      78AD1D
 232 01c6 1E14BBEA 		.ascii	"\036\024\273\352b\\\027\263sh\253b\020\024c\201\345"
ARM GAS  /tmp/ccZ28IsQ.s 			page 18


 232      625C17B3 
 232      7368AB62 
 232      10146381 
 232      E5
 233 01d7 41BD7598 		.ascii	"A\275u\230\232\236\352\012\263$(Q\216\246\246\303;\345"
 233      9A9EEA0A 
 233      B3242851 
 233      8EA6A6C3 
 233      3BE5
 234 01e9 DEF02199 		.ascii	"\336\360!\231C\256\322\360Pl\212\344\323n\327t\374<"
 234      43AED2F0 
 234      506C8AE4 
 234      D36ED774 
 234      FC3C
 235 01fb 1DC2EC9A 		.ascii	"\035\302\354\232\212\260\345\227DH\004\376=l\224\304"
 235      8AB0E597 
 235      444804FE 
 235      3D6C94C4 
 236 020b 8E932402 		.ascii	"\216\223$\002k\004%\326\300\333-X\365\324\207\224`P"
 236      6B0425D6 
 236      C0DB2D58 
 236      F5D48794 
 236      6050
 237 021d 8CE62C2A 		.ascii	"\214\346,*\006=\031\225\246-\320\372\000D\205\223^c"
 237      063D1995 
 237      A62DD0FA 
 237      00448593 
 237      5E63
 238 022f 39B10522 		.ascii	"9\261\005\"\014\315\3146Ss\306\363\331\264Rn\351-\362"
 238      0CCDCC36 
 238      5373C6F3 
 238      D9B4526E 
 238      E92DF2
 239 0242 76575F1F 		.ascii	"vW_\037nQ\223\302&\033\377\212\024F\340\251\251:\374"
 239      6E5193C2 
 239      261BFF8A 
 239      1446E0A9 
 239      A93AFC
 240 0255 7067E91B 		.ascii	"pg\351\033j \265P\240vl\312{\204\223\013\344\023+\252"
 240      6A20B550 
 240      A0766CCA 
 240      7B84930B 
 240      E4132BAA 
 241 0269 D26F80B7 		.ascii	"\322o\200\267}\337=ns\330\221\315\371\004\205\205\007"
 241      7DDF3D6E 
 241      73D891CD 
 241      F9048585 
 241      07
 242 027a D150040F 		.ascii	"\321P\004\017\367\027)\207\002\236sz\006\372\272\235"
 242      F7172987 
 242      029E737A 
 242      06FABA9D 
 243 028a CC40F6BA 		.ascii	"\314@\366\272\223\355\276\346dz\334.w \357\214\014\217"
 243      93EDBEE6 
 243      647ADC2E 
 243      7720EF8C 
 243      0C8F
ARM GAS  /tmp/ccZ28IsQ.s 			page 19


 244 029c F6F73AE4 		.ascii	"\366\367:\344\014\2178\371\341\014\305{\272\323\203"
 244      0C8F38F9 
 244      E10CC57B 
 244      BAD383
 245 02ab 6733C086 		.ascii	"g3\300\206\006\261\237\345\307\376\0003\274\003)"
 245      06B19FE5 
 245      C7FE0033 
 245      BC0329
 246              		.text
 247              		.section	.gnu.lto_.symbol_nodes.3519627ca107015,"",%progbits
 248 0000 789C4D8C 		.ascii	"x\234M\214\301\015\202@\020E\377\337\331e\227*(u0&\306"
 248      C10D8240 
 248      1045FFDF 
 248      D965972A 
 248      28753026 
 249 0015 C48BB100 		.ascii	"\304\213\261\000/\224`\011\334\261\000/*(\032\267\006"
 249      2F946009 
 249      DCB1002F 
 249      2A281AB7 
 249      06
 250 0026 15900873 		.ascii	"\025\220\010syy3\377\217\201\301\011\343\230\232\012"
 250      797933FF 
 250      8F81C109 
 250      E3989A0A 
 251 0036 6C2B4075 		.ascii	"l+@u\277\246\273\022V\205\017*\177\333|A\323P\315\224"
 251      BFA6BB12 
 251      56850F2A 
 251      7FDB7C41 
 251      D350CD94 
 252 004a 3137AACC 		.ascii	"17\252\314\364N\2653m\251nR>\251\311\370)'#\325O\366"
 252      F44EB533 
 252      6DA96E52 
 252      3EA9C9F8 
 252      292723D5 
 253 0060 A286BF09 		.ascii	"\242\206\277\011<\352\363\233\"\035/\035m\212b`@\261"
 253      3CEAF39B 
 253      221D2F1D 
 253      6D8A6260 
 253      40B1
 254 0072 897E60F5 		.ascii	"\211~`\365\361\326\342pl\275\270\024\313\376\354\002"
 254      F1D6E270 
 254      6CBDB814 
 254      CBFEEC02 
 255 0082 CA5DCC24 		.ascii	"\312]\314$IQ\366\365$\240^\305\014_\357\312E\243"
 255      4951F6F5 
 255      24A05EC5 
 255      0C5FEFCA 
 255      45A3
 256              		.text
 257              		.section	.gnu.lto_.refs.3519627ca107015,"",%progbits
 258 0000 789C6362 		.ascii	"x\234cb`b\020e\200\000V\006FF&&F \000\022,@\314\306"
 258      60621065 
 258      80005606 
 258      46462626 
 258      46200012 
 259 0018 C4C80000 		.ascii	"\304\310\000\000\004\212\000>"
 259      048A003E 
ARM GAS  /tmp/ccZ28IsQ.s 			page 20


 260              		.text
 261              		.section	.gnu.lto_.decls.3519627ca107015,"",%progbits
 262 0000 789CBD5A 		.ascii	"x\234\275Z\015p\024\325\035\177o/w\311%\021\030\235"
 262      0D7014D5 
 262      1D7F6F2F 
 262      77C92511 
 262      189D
 263 0012 2A3A748C 		.ascii	"*:t\214\035\3558\266\232\020\"\204\316\324\340\320*"
 263      1DED38B6 
 263      9A102284 
 263      CED4E0D0 
 263      2A
 264 0023 9DA9ADD3 		.ascii	"\235\251\255\323\2163\3160\343\271\\6\271\223\334G\357"
 264      8E33CE30 
 264      E3B95C36 
 264      B993DC47 
 264      EF
 265 0034 36103A75 		.ascii	"6\020:u\\\002\244 1@ \201\220\020\223(H\254\010\001"
 265      5C02A420 
 265      31402081 
 265      90109328 
 265      48AC0801 
 266 0048 1113414E 		.ascii	"\021\023AN\201$%@\214(L\354\010\021E\253\035\035E#~"
 266      81242540 
 266      8C284CEC 
 266      081145AB 
 266      1D1D4523 
 267 005d 91EBFFBD 		.ascii	"\221\353\377\275\335\275{\273\267{\331=kw\356\275}\273"
 267      DDBD7BBB 
 267      B77BD93D 
 267      6B77EEBD 
 267      7DBB
 268 006f FBDEEFFF 		.ascii	"\373\336\357\377\373\177\274}\037{\034\342\320\014\007"
 268      FB7FBC7D 
 268      1F7B1CE2 
 268      D00C07
 269 007e 42713846 		.ascii	"Bq8F~\211\3201'B.\204\320]\220\240\210:!uAZ\210\021"
 269      7E89D031 
 269      27422E84 
 269      D05D90A0 
 269      883A2175 
 270 0096 7A085203 		.ascii	"z\010R\003$\370\241z\310\334p^\007\347\215\220\232 "
 270      24F8A17A 
 270      C8DC705E 
 270      07E78D90 
 270      9A20
 271 00a8 7542EA86 		.ascii	"uB\352\206\264\007R/\244C\220\016+\365_%\031s\220vW"
 271      B407522F 
 271      A443900E 
 271      2BF55F25 
 271      19739076 
 272 00bd C1B902CE 		.ascii	"\301\271\002\316\036\005{1\244\025\220$H\217B\012bY"
 272      1E057B31 
 272      A4159024 
 272      488F420A 
 272      6259
 273 00cf EE119CE4 		.ascii	"\356\021\234\344\321\007\345l8\013p\016@\372\033\244"
ARM GAS  /tmp/ccZ28IsQ.s 			page 21


 273      D107E56C 
 273      380B700E 
 273      40FA1BA4 
 274 00df C720D542 		.ascii	"\307 \325BZ\215e^\016\206W\257\211|\302w\012\243\243"
 274      5A8D655E 
 274      0E8657AF 
 274      897CC277 
 274      0AA3A3
 275 00f2 151E443E 		.ascii	"\025\036D>\341b\205\003\247\310\350U\370\264\302y\033"
 275      E1628503 
 275      A7C8E855 
 275      F8B4C279 
 275      1B
 276 0103 A427753C 		.ascii	"\244'u<\210\315\256F\262<\302'\037R\031\303k\261\302"
 276      88CDAE46 
 276      B23CC227 
 276      1F5219C3 
 276      6BB1C2
 277 0116 69A1C2C3 		.ascii	"i\241\302\303\243\343\361\250\302\223\360\257\204\224"
 277      A3E3F1A8 
 277      C293F0AF 
 277      8494
 278 0124 83644EF5 		.ascii	"\203dN\365\012\257\325\014\267UX\346\354P\344\036V|"
 278      0AAFD50C 
 278      B75558E6 
 278      EC50E41E 
 278      567C
 279 0136 44AE77C0 		.ascii	"D\256w\300\371\031\234j\247n\205\027\313\357!\305\037"
 279      F9199C6A 
 279      A76E8517 
 279      CBEF21C5 
 279      1F
 280 0147 84236B23 		.ascii	"\204#k#=\267\205\212\235T\373\254\302In\252\255\034"
 280      3DB7858A 
 280      9D54FBAC 
 280      C2496EAA 
 280      AD1C
 281 0159 8A0C950B 		.ascii	"\212\014\225\013\021\277K\307\201\304\323T\035\207\205"
 281      11BF4BC7 
 281      81C4D354 
 281      1D8785
 282 0168 0C878714 		.ascii	"\014\207\207\024\271\036\234\224\035dlCb\326\245\304"
 282      B91E9C94 
 282      1D646C43 
 282      62D6A5C4 
 283 0178 ACEA2FD6 		.ascii	"\254\352/\326.\016E\006k\217\375p~\321\300\036y\350"
 283      2E0E4506 
 283      6B8FFD70 
 283      7ED1C01E 
 283      79E8
 284 018a 7149AA95 		.ascii	"qI\252\225:\352\244\005\203S\256F\033$8\012\006\201"
 284      3AEAA405 
 284      8353AE46 
 284      1B24380A 
 284      0681
 285 019c D58398C7 		.ascii	"\325\203\230\307S\334D\036)\345\273\3214\250}\013zZ"
 285      53DC441E 
ARM GAS  /tmp/ccZ28IsQ.s 			page 22


 285      29E5BBD1 
 285      34A87D0B 
 285      7A5A
 286 01ae 92D68F6D 		.ascii	"\222\326\217mo\275N\312\342q\027\276\032\342b6F\267"
 286      6FBD4ECA 
 286      E27117BE 
 286      1AE26236 
 286      46B7
 287 01c0 A16E68B6 		.ascii	"\241nh\266^\222^\273\021\245\036\223\242r\350\267\030"
 287      5E925EBB 
 287      11A51E93 
 287      A272E8B7 
 287      18
 288 01d1 F17807C0 		.ascii	"\361x\007\300\361x;\276M\026#\305\306\371\002\371.R"
 288      F1783BBE 
 288      4D1623C5 
 288      C6F902F9 
 288      2E52
 289 01e3 EE1B1C37 		.ascii	"\356\033\0347\241\016R\365\362E\267\324\230o i\236*"
 289      A10E52F5 
 289      F245B7D4 
 289      986F2069 
 289      9E2A
 290 01f5 282749FF 		.ascii	"('I\377@\335\251\015x\245$\301\203g\251\012+1\326HP"
 290      40DDA90D 
 290      78A524C1 
 290      8367A90A 
 290      2B31D648 
 291 020a 703AE699 		.ascii	"p:\346\231\001qh\023m\262KGy\254u\350\315\345x9\205"
 291      01716813 
 291      6DB24B47 
 291      79AC75E8 
 291      CDE57839 
 292 021f DE658178 		.ascii	"\336e\201xm\354\255\272m\327K\035\257\341\311\374\320"
 292      6DECADBA 
 292      6DD74B1D 
 292      AFE1C9FC 
 292      D0
 293 0230 91A5CAFF 		.ascii	"\221\245\312\377MR\221\027\353\216bI\312\341\361^\252"
 293      4D529117 
 293      EB8E6249 
 293      CAE1F15E 
 293      AA
 294 0241 C6DBC66A 		.ascii	"\306\333\306j\230\303p\350=\332d\177\212\032k\317\251"
 294      98C370E8 
 294      3DDA647F 
 294      8A1A6BCF 
 294      A9
 295 0252 6AECB7A4 		.ascii	"j\354\267\244\306w\212\032<\356\001U8\364I\002W\021"
 295      C6778A1A 
 295      3CEE0155 
 295      38F44902 
 295      5711
 296 0264 5CA0CACD 		.ascii	"\\\240\312\315BH-\312\207RA\2137\321\237\277\236W\301"
 296      42482DCA 
 296      8752418B 
 296      37D19FBF 
ARM GAS  /tmp/ccZ28IsQ.s 			page 23


 296      9E57C1
 297 0277 BEB40D56 		.ascii	"\276\264\015V\240\001\3338\320F\311\271\321\352\244"
 297      A001DB38 
 297      D046C9B9 
 297      D1EAA4
 298 0286 8D912198 		.ascii	"\215\221!\230b\330\313\303\247F\360\012\252\377!h\306"
 298      62D8CBC3 
 298      A746F00A 
 298      AAFF2168 
 298      C6
 299 0297 A1A39CD6 		.ascii	"\241\243\234\326\264\326\241z\233\217\275\212k)T\214"
 299      B4D6A17A 
 299      9B8FBD8A 
 299      6B29548C 
 300 02a7 427D9E31 		.ascii	"B}\2361\324\370\346\203s\251\273\217P\240\335\016-\020"
 300      D4F8E683 
 300      73A9BB8F 
 300      50A0DD0E 
 300      2D10
 301 02b9 8FB31366 		.ascii	"\217\263\023fL\\\253\025\010\032}\254\024\310\3708\025"
 301      4C5CAB15 
 301      081A7DAC 
 301      14C8F838 
 301      15
 302 02ca FDC8D539 		.ascii	"\375\310\3259\324\347\260\340\272\034\2638\220\306\266"
 302      D4E7B0E0 
 302      BA1CB338 
 302      90C6B6
 303 02d9 AEBD885B 		.ascii	"\256\275\210[\244\330J\207\332%]f6\342\320\253T\326"
 303      A4D84A87 
 303      DA255D66 
 303      36E2D0AB 
 303      54D6
 304 02eb A03E96F7 		.ascii	"\240>\226\367\265\177R\253\304\362\240\245X>0\264\331"
 304      B57F52AB 
 304      C4F2A0A5 
 304      583E30B4 
 304      D9
 305 02fc 5A9774A9 		.ascii	"Z\227t\251\362\313\251\374\025YD\376I\275\374\303\027"
 305      F2CBA9FC 
 305      155944FE 
 305      49BDFCC3 
 305      17
 306 030d FE7DD716 		.ascii	"\376}\327\026I\232&?\232\\\374\371\341M\251\342y|\327"
 306      499A263F 
 306      9A5CFCF9 
 306      E14DA9E2 
 306      797CD7
 307 0320 4FD285C6 		.ascii	"O\322\205\306\276\366\201K\212\222#\264\317\234\314"
 307      BEF6814B 
 307      8A9223B4 
 307      CF9CCC
 308 032f D2074759 		.ascii	"\322\007GY\236\326}p\315T\340\320\231\004\375\214\272"
 308      9ED67D70 
 308      CD54E0D0 
 308      9904FD8C 
 308      BA
ARM GAS  /tmp/ccZ28IsQ.s 			page 24


 309 0340 2CE8192B 		.ascii	",\350\031+\353\336+Ik\\*\207\267m#\026h,qi\230\276\004"
 309      EBDE2B49 
 309      6B5C2A87 
 309      B76D2316 
 309      682C7169 
 310 0357 64B07356 		.ascii	"d\260sV\300L#\2516\366%\013v\3016\230\226\331W,\330"
 310      C04C23A9 
 310      36F6250B 
 310      76C13698 
 310      96D9572C 
 311 036c 0756C0A6 		.ascii	"\007V\300\246\2313\373\232\005\373\3306\230\226\331"
 311      9933FB9A 
 311      05FBD836 
 311      9896D9
 312 037b B72CD8A7 		.ascii	"\267,\330\247V\300\246\2333\373\236\005\273d\033L\313"
 312      56C0A69B 
 312      33FB9E05 
 312      BB641B4C 
 312      CB
 313 038c 6C8205FB 		.ascii	"l\202\005\373\312\012X\2019\263\365o0`\337\332\006\323"
 313      CA0A5881 
 313      39B3F56F 
 313      3060DFDA 
 313      06D3
 314 039e 326B64C1 		.ascii	"2kd\301&\254\200\335j\316l\023\013V\353\264\013\246"
 314      26AC80DD 
 314      6ACE6C13 
 314      0B56EBB4 
 314      0BA6
 315 03b0 65D6CC82 		.ascii	"e\326\314\202\325Y\001+2g\266\205\005{\3346\230\226"
 315      D559012B 
 315      3267B685 
 315      057BDC36 
 315      9896
 316 03c2 D95616AC 		.ascii	"\331V\026\254\301\012X\2519\2636\026\254\3216\230\226"
 316      C10A58A9 
 316      39B33616 
 316      ACD13698 
 316      96
 317 03d3 D91E16AC 		.ascii	"\331\036\026\254\331\012\330<sf{Y\260\026\333`Zf/\260"
 317      D90AD83C 
 317      73667B59 
 317      B016DB60 
 317      5A662FB0 
 318 03e7 606D56C0 		.ascii	"`mV\300\026\2303{\221\005{\3226\230\226\331K,X\227\025"
 318      1698337B 
 318      91057BD2 
 318      369896D9 
 318      4B2C5897 
 319 03fc B0FBCD99 		.ascii	"\260\373\315\231\365\261`\333m\203i\231\035d\301vZ\001"
 319      F5B160DB 
 319      6D836999 
 319      1D64C176 
 319      5A01
 320 040e 7BD09CD9 		.ascii	"{\320\234\331+,\330s\266\301\264\314^g\301\366X\001"
 320      2B2CD873 
 320      B6C1B4CC 
ARM GAS  /tmp/ccZ28IsQ.s 			page 25


 320      5E67C1F6 
 320      5801
 321 0420 7BD88059 		.ascii	"{\330\200Y\3420jG\206\351\02381nsh\237S\235\342\330"
 321      E2306A47 
 321      86E91338 
 321      316E7368 
 321      9F539DE2 
 322 0435 1CA35112 		.ascii	"\034\243Q\022\343\200\323\356\224L\2437\254\015>\350"
 322      E380D3EE 
 322      944CA337 
 322      AC0D3EE8 
 323 0445 C41B5748 		.ascii	"\304\033WH\203E\352\374\374\220\025\3044\003\340\326"
 323      8345EAFC 
 323      FC9015C4 
 323      3403E0D6 
 324 0455 0166B27F 		.ascii	"\001f\262\177\3146\230.\224\011\230f\356\244L\260\307"
 324      CC36982E 
 324      94099866 
 324      EEA44CB0 
 324      C7
 325 0466 B6C7A66F 		.ascii	"\266\307\246oI\316\336rT,\262 \226\247j\260\200\345"
 325      49CEDE72 
 325      542CB220 
 325      96A76AB0 
 325      80E5
 326 0478 1295A5E9 		.ascii	"\022\225\245\351\323\215\353\362\270\201\273\005\362"
 326      D38DEBF2 
 326      B881BB05 
 326      F2
 327 0485 759C3BC1 		.ascii	"u\234;\301B.\253\2458&v>\351\324-\265\325c\262\246f"
 327      422EABA5 
 327      3826763E 
 327      E9D42DB5 
 327      D563B2A6 
 328 049a 9150CF31 		.ascii	"\221P\3171\221\360\206\0253\245\031\332\317\017\264"
 328      91F08615 
 328      33A519DA 
 328      CF0FB4
 329 04a9 5D278DC5 		.ascii	"]'\215\3050\243oZ\343\300\232h\335IuM\264\221#\353\217"
 329      30A36F5A 
 329      E3C09A68 
 329      DD49754D 
 329      B49123EB 
 330 04be 51A7E142 		.ascii	"Q\247\341B\306\002To\363\256_\320\205L3\005\272\220"
 330      C602546F 
 330      F3AE5FD0 
 330      854C3305 
 330      BA90
 331 04d0 31D0F8E6 		.ascii	"1\320\370\346\366R\012\324B\201>\326\001\361\030\353"
 331      F6520AD4 
 331      42813ED6 
 331      01F118EB 
 332 04e0 564458BB 		.ascii	"VDX\273f\301\356d!\256u\327\377\264.\254a\365\376\322"
 332      66C1EE64 
 332      21AE75D7 
 332      FFB42EAC 
 332      61F5FED2 
ARM GAS  /tmp/ccZ28IsQ.s 			page 26


 333 04f4 A833E9EC 		.ascii	"\2503\351\354i\254u\350\312\006\374E\255\264\245\310"
 333      69AC75E8 
 333      CA06FC45 
 333      ADB4A5C8 
 334 0504 86C7864F 		.ascii	"\206\307\206O\250\036k\247\366\371>\305>\315\234=\003"
 334      A81E6BA7 
 334      F6F93EC5 
 334      3ECD9C3D 
 334      03
 335 0515 7168A5CB 		.ascii	"qh\245\313\256\"\267j\025Y{\264\321\276\"\211\320{\212"
 335      AE22B76A 
 335      15597BB4 
 335      D1BE2289 
 335      D07B8A
 336 0528 2A52EFFA 		.ascii	"*R\357\372\341\212l\262\255H\021\243\010\331#\031o\224"
 336      E18A6CB2 
 336      AD4811A3 
 336      08D92319 
 336      6F94
 337 053a DF83D7A0 		.ascii	"\337\203\327\240\306\364kS\302g'w\215vwk\3648.\220o"
 337      C6F46B53 
 337      C2672777 
 337      8D76776B 
 337      F4382E90 
 338 054f 5BD8DE3A 		.ascii	"[\330\336:\316\354`H\226v0\326\015\253&\373\0075Y\253"
 338      CEEC6048 
 338      967630D6 
 338      0DAB26FB 
 338      073559AB 
 339 0563 CBA09359 		.ascii	"\313\240\223Y\202\352=s\264G\331\301x\236Buf\0145~\366"
 339      82EA3D73 
 339      B447D9C1 
 339      789E4275 
 339      660C357E 
 340 0578 80DC5F7B 		.ascii	"\200\334_{(Pw\212\033]:/\272\264^\204K\"\351k\262\277"
 340      2850778A 
 340      1B5D3A2F 
 340      BAB45E84 
 340      4B22E96B 
 341 058e 801F53EE 		.ascii	"\200\037S\356\220\213l\364\177o\007\2431\245O<hs4ND"
 341      908B6CF4 
 341      7F6F07A3 
 341      31A54F3C 
 341      6873344E 
 342 05a3 D0C54675 		.ascii	"\320\305Fu$\225\235\324\367\203\020kc\373\326\252\333"
 342      24959DD4 
 342      F783106B 
 342      63FBD6AA 
 342      DB
 343 05b4 7065642C 		.ascii	"ped,=\362\003\341F\206lo\234\255{S\015\273>\252\321"
 343      3DF203E1 
 343      46866C6F 
 343      9CAD7B53 
 343      0DBB3EAA 
 344 05c9 F11417C7 		.ascii	"\361\024\027\307\364\357d+\373Hg2\325$qp\350\035}\207"
 344      F4EF642B 
 344      FB486732 
ARM GAS  /tmp/ccZ28IsQ.s 			page 27


 344      D5247170 
 344      E81D7D87 
 345 05dd B7B5E624 		.ascii	"\267\265\346${\273\227\025wM\272\031\245n4\367\367/"
 345      7BBB9715 
 345      774DBA19 
 345      A56E34F7 
 345      F72F
 346 05ef 57369A63 		.ascii	"W6\232c\034\331\241}Wg\015\013\273Z\237\321&G\270\224"
 346      1CD9A17D 
 346      57670D0B 
 346      BB5A9FD1 
 346      2647B894 
 347 0603 1DDA93EA 		.ascii	"\035\332\223\352\016-yfaWK\263C\313\343^\314)\270\231"
 347      0E2D7966 
 347      61574BB3 
 347      43CBE35E 
 347      CC29B899 
 348 0617 5A54E3C4 		.ascii	"ZT\343\304$A\036\037\243\363\243~\356&\326\372R\266"
 348      24411E1F 
 348      A3F3A37E 
 348      EE26D6FA 
 348      52B6
 349 0629 5DEB17B0 		.ascii	"]\353\027\260\326\217}7\324\206e\376\362\236\375\343"
 349      D68F7D37 
 349      D48665FE 
 349      F29EFDE3 
 350 0639 7ABC79EC 		.ascii	"z\274y\354\334U)\232\256\323\245X\343):\351\224\373"
 350      DC55299A 
 350      AED3A558 
 350      E3293AE9 
 350      94FB
 351 064b 5D931572 		.ascii	"]\223\025ri\226\326\3552\230\034\362\255\266\301\012"
 351      6996D6ED 
 351      32981CF2 
 351      ADB6C10A 
 352 065b 3460871A 		.ascii	"4`\207\032\014>\011\310\037B\314\006\227avj\270\303"
 352      0C3E09C8 
 352      1F42CC06 
 352      9761766A 
 352      B8C3
 353 066d 8AFC34AB 		.ascii	"\212\3744\253\361\267N\265)\221\"\357}\357\261\215\247"
 353      F1B74EB5 
 353      299122EF 
 353      7DEFB18D 
 353      A7
 354 067e D5E7F306 		.ascii	"\325\347\363\006\315K\351e+p\363,\007^\362\333\005\217"
 354      CD4BE965 
 354      2B70F32C 
 354      075EF2DB 
 354      058F
 355 0690 0F601278 		.ascii	"\017`\022x/\341\233 \357\243\371A\232\017\320\374\357"
 355      2FE19B20 
 355      EFA3F941 
 355      9A0FD0FC 
 355      EF
 356 06a1 1CC9D7D0 		.ascii	"\034\311\327\320|-\315\033i\276\215\346]4\177\206\346"
 356      7C2DCD1B 
ARM GAS  /tmp/ccZ28IsQ.s 			page 28


 356      69BE8DE6 
 356      5D347F86 
 356      E6
 357 06b2 87693E48 		.ascii	"\207i>H\363\3434?A\363S4\037\241\371i6\274\315\374\""
 357      F3E3343F 
 357      41F35334 
 357      1FA1F969 
 357      36BCCDFC 
 358 06c7 77B544C7 		.ascii	"w\265D\307T{\335\256\214\277\213\234I~\027\341\361\313"
 358      547BDDAE 
 358      8CBF8B9C 
 358      497E17E1 
 358      F1CB
 359 06d9 B6C10AD2 		.ascii	"\266\301\012\322Yr\027c\311\335\324\222{\250\335\336"
 359      59721763 
 359      C9DDD492 
 359      7BA8DDDE 
 360 06e9 D276E423 		.ascii	"\322v\344#\331\352\307\2724\035\317\\\205\261\247\317"
 360      D9EAC7BA 
 360      341DCF5C 
 360      85B1A7CF 
 361 06f9 33ABBD21 		.ascii	"3\253\275!=\330\244\213Q\255=&\0042xvR\254\323\266\261"
 361      3DD8A48B 
 361      51AD3D26 
 361      04327876 
 361      52ACD3B6 
 362 070e D29A6307 		.ascii	"\322\232c\007c\216\235\324\034\335\324\034g\251\373"
 362      638E9DD4 
 362      1CDDD41C 
 362      67A9FB
 363 071d 47ADB8BF 		.ascii	"G\255\270\2773\271v\267\361\225gb\354W\273\351\367\202"
 363      33B976B7 
 363      F1956762 
 363      EC57BBE9 
 363      F782
 364 072f 7FD1D7C9 		.ascii	"\177\321\327\311\0239\372\021\324\251\033@\235\332\001"
 364      1339FA11 
 364      D4A91B40 
 364      9DDA01
 365 073e D4E94E16 		.ascii	"\324\351N\026\224\001\324\360S\306\352\367\222\213M"
 365      9401D4F0 
 365      53C6EAF7 
 365      928B4D
 366 074d 89635FC1 		.ascii	"\211c_\301\012\223\321\256\217\006\224\301\374<\035"
 366      0A93D1AE 
 366      8F0694C1 
 366      FC3C1D
 367 075c BEFEA9A3 		.ascii	"\276\376\251\24329\022\207\316\3226\027t\343Wl\244."
 367      32391287 
 367      CED23617 
 367      74E3576C 
 367      A42E
 368 076e 9F7C42BE 		.ascii	"\237|B\276`i\354:\335\337\226\372F\274\0265)\263N\011"
 368      6069EC3A 
 368      DDDF96FA 
 368      46BC1635 
 368      29B34E09 
ARM GAS  /tmp/ccZ28IsQ.s 			page 29


 369 0782 8BF4DD62 		.ascii	"\213\364\335b\346\206\017\271ki\311A\377\305\200d\303"
 369      E6860FB9 
 369      6B69C941 
 369      FFC58064 
 369      C3
 370 0793 F2F80147 		.ascii	"\362\370\001GZ\007*F\330\374\3147\315\312\354\367\003"
 370      5A072A46 
 370      D8FCCC37 
 370      CDCAECF7 
 370      03
 371 07a4 8E8459AB 		.ascii	"\216\204Y\253[k\004\335k\232\0103#\362\037.\317D\327"
 371      5B6B04DD 
 371      6B9A0833 
 371      23F21F2E 
 371      CF44D7
 372 07b7 94671CDA 		.ascii	"\224g\034\332\351V\015\227\331\354r\264k\364\206\336"
 372      E9560D97 
 372      D9EC72B4 
 372      6BF486DE 
 373 07c7 1724A9E7 		.ascii	"\027$\251\347ae}\022s"
 373      61657D12 
 373      73
 374 07d0 B17ED2F4 		.ascii	"\261~\322\364Z\230\313Ri\237\352\027)M\375\216\002\371"
 374      5A98CB52 
 374      699FEA17 
 374      294DFD8E 
 374      02F9
 375 07e2 F6E45EDA 		.ascii	"\366\344^\332\\\267\356\006\251\243~\272\022\352\261"
 375      5CB7EE06 
 375      A9A37EBA 
 375      12EAB1
 376 07f1 3A69355E 		.ascii	":i5^\3363\303Xb\342\273\325p\227b\335K4\332\017\353"
 376      DE33C358 
 376      62E2BBD5 
 376      709762DD 
 376      4B34DA0F 
 377 0806 AC6B07AC 		.ascii	"\254k\007\254\267yX\375\324:.O>3\007\353\030?;\203\004"
 377      B77958FD 
 377      D43A2E4F 
 377      3E3307EB 
 377      183F3B83 
 378 081b E8D714E8 		.ascii	"\350\327\024\350\264[\337\007\335\272>\350\326\366A"
 378      B45BDF07 
 378      DDBA3EE8 
 378      D6F641
 379 082a B73B5988 		.ascii	"\267;Y\210\253\207~\323\340Gl\303\241s\011\207f\362"
 379      AB877ED3 
 379      E0476CC3 
 379      A1730987 
 379      66F2
 380 083c 9A26E133 		.ascii	"\232&\3413r=t\260\344d\327\364\317\020\204\326\025}"
 380      723D74B0 
 380      E464D7F4 
 380      CF1084D6 
 380      157D
 381 084e FF6EE927 		.ascii	"\377n\351'\253\333+\026\272\267\024\353\351\037\302"
 381      ABDB2B16 
ARM GAS  /tmp/ccZ28IsQ.s 			page 30


 381      BAB714EB 
 381      E91FC2
 382 085d 5263BEA5 		.ascii	"Rc\276\245e\264\344\320Ehk?W \337\236<B\267\031\375"
 382      65B4E4D0 
 382      45686B3F 
 382      5720DF9E 
 382      3C42B719 
 383 0872 D94263A4 		.ascii	"\331Bc\244\024y+\034\314\314\352}jS\"+\263\321\273]"
 383      14792B1C 
 383      CCCCEA7D 
 383      6A53222B 
 383      B3D1BB5D 
 384 0886 1EBDCFD1 		.ascii	"\036\275\317\321\367\310G\231\202%\016\016}J1\256d\370"
 384      F7C84799 
 384      82250E0E 
 384      7D4A31AE 
 384      64F8
 385 0898 8E80F562 		.ascii	"\216\200\365b\277:\325\223\307\232\317l\343\025\244"
 385      BF3AD593 
 385      C79ACF6C 
 385      E315A4
 386 08a7 701ACF34 		.ascii	"p\032\3174\360\030\214\313\372w\237\021\206\371\337"
 386      F0188CCB 
 386      FA779F11 
 386      86F9DF
 387 08b6 06626FDF 		.ascii	"\006bo\337C\354,\377?iB\217\245\375\363\021S\2646\341"
 387      43EC2CFF 
 387      3F69428F 
 387      A5FDF311 
 387      53B436E1 
 388 08ca BCC0AC74 		.ascii	"\274\300\254t\336\247+\235\213tF\360\011\315\353\035"
 388      DEA72B9D 
 388      8B7446F0 
 388      09CDEB1D 
 389 08da 16E605E7 		.ascii	"\026\346\005\347\222\323u](\0227\230\265jH\206\342\215"
 389      92D3755D 
 389      28123798 
 389      B56A4886 
 389      E28D
 390 08ec A85DEA18 		.ascii	"\250]\352\030\033k\331\373\371\015\315\260 \225>#\243"
 390      1B6BD9FB 
 390      F90DCDB0 
 390      20953E23 
 390      A3
 391 08fd BC6E4034 		.ascii	"\274n@4\371\303\000AZ\357\270V)\251c \207\366\347b]"
 391      F9C30041 
 391      5AEFB856 
 391      29A96320 
 391      87F6E762 
 392 0912 FFF939DA 		.ascii	"\377\3719\332N\360\244\235\222\203\242\321\235k\207"
 392      4EF0A49D 
 392      9283A2D1 
 392      9D6B87
 393 0921 E61F5E3C 		.ascii	"\346\037^<\336\340\340\330\033\204\330\030\0314Gg\264"
 393      DEE0E0D8 
 393      1B84D818 
 393      19344767 
ARM GAS  /tmp/ccZ28IsQ.s 			page 31


 393      B4
 394 0932 EC9556AE 		.ascii	"\354\225V\256\221&\342\217ayP\344P,E\204\214\261)\025"
 394      9126E28F 
 394      617950E4 
 394      502C4584 
 394      8CB12915 
 395 0946 832AF7EE 		.ascii	"\203*\367\356O3Q\256\331\241\033\355\211\265\023\027"
 395      4F3351AE 
 395      D9A11BED 
 395      89B51317 
 396 0956 F2BF2034 		.ascii	"\362\277 43\001\215!\250-N\350\210\336\214\236\222\244"
 396      33018D21 
 396      A82D4EE8 
 396      88DE8C9E 
 396      92A4
 397 0968 46699BB0 		.ascii	"Fi\233\260@\355\274\357\320\032M`\015#\032\212\207\225"
 397      40EDBCEF 
 397      D01A4D60 
 397      0D231A8A 
 397      8795
 398 097a 66674933 		.ascii	"fgI3\272\364yo\222Ve\311Fq\322H\236\247\254qpi[):(\356"
 398      BAF4796F 
 398      925665C9 
 398      4671D248 
 398      9EA7AC71 
 399 0995 7A425A35 		.ascii	"zBZ5\015'\374\325\244\367\327V#[\307^>N\336\300\322"
 399      0D27FCD5 
 399      A4F7D756 
 399      235BC75E 
 399      3E4EDEC0 
 400 09aa F7F1B843 		.ascii	"\367\361\270Co\3514\363\252\256\264\22666\355\207\306"
 400      6FE934F3 
 400      AAAEB496 
 400      3636ED87 
 400      C6
 401 09bb A66D524D 		.ascii	"\246mRM\313\3436\252n\247%\323\216\350\255d\336\214"
 401      CBE336AA 
 401      6EA725D3 
 401      8EE8AD64 
 401      DE8C
 402 09cd B552ADB4 		.ascii	"\265R\255\264\273n\325\264,%\032\314[)zn7\264\331\201"
 402      BB6ED5B4 
 402      2C251ACC 
 402      5B297A6E 
 402      37B4D981 
 403 09e1 06539BA5 		.ascii	"\006S\233\245\211\316g\3656\243\177\303\321\230\350"
 403      89CE67F5 
 403      36A37FC3 
 403      D198E8
 404 09f0 0B63139D 		.ascii	"\013c\023\235/W\303h\202V\350N\033F&\361\320\255\217"
 404      2F57C368 
 404      8256E84E 
 404      1B4626F1 
 404      D0AD8F
 405 0a03 87E70C75 		.ascii	"\207\347\014u\213\257\253\207q\2416\026\217\227\351"
 405      8BAFAB87 
 405      71A13616 
ARM GAS  /tmp/ccZ28IsQ.s 			page 32


 405      8F97E9
 406 0a12 754BF786 		.ascii	"uK\367\206\352I\033\020\312\373K\247\255\224g\250m\213"
 406      EA491B10 
 406      CAFB4BA7 
 406      AD9467A8 
 406      6D8B
 407 0a24 3E20F658 		.ascii	"> \366X\357kD\020\254\233(\260y3\205\216\022\020=\357"
 407      EF6B4410 
 407      AC9B28B0 
 407      7933858E 
 407      12103DEF 
 408 0a38 DFBF400D 		.ascii	"\337\277@\015\022\363V\212\236/\030\276\364V~5\210W"
 408      12F3568A 
 408      9E2F18BE 
 408      F4567E35 
 408      8857
 409 0a4a DB0E883E 		.ascii	"\333\016\210>\275\315:qJDl\3143~q\0364\342\021\353\033"
 409      BDCD3A71 
 409      4A446CCC 
 409      337E711E 
 409      34E211EB 
 410 0a5f A897F0FA 		.ascii	"\250\227\360\372\345c\361\370\2152<\207\2362\001x\305"
 410      E563F1F8 
 410      8D323C87 
 410      9E320178 
 410      C5
 411 0a70 10606F2A 		.ascii	"\020`o*\300n\023\200\230\026\340g\250S\212\275\016\257"
 411      C06E1380 
 411      9816E067 
 411      A8538ABD 
 411      0EAF
 412 0a82 EE6FA63F 		.ascii	"\356o\246?\017\023\361\0360A\034\307\313\324\365co\002"
 412      0F13F11E 
 412      30411CC7 
 412      CBD4F563 
 412      6F02
 413 0a94 C570B148 		.ascii	"\305p\261H\000_K\002\352\206FB\304\314\210G\222C#\232"
 413      005F4B02 
 413      EA864642 
 413      C4CC8847 
 413      9243239A 
 414 0aa8 55E80B05 		.ascii	"U\350\013\005\204Bo\250|Ya\271\260\244\320\353\363/"
 414      84426FA8 
 414      7C5961B9 
 414      B0A4D0EB 
 414      F32F
 415 0aba F287A285 		.ascii	"\362\207\242\205b\244:\270\270\020\012\021\261\320\037"
 415      62A43AB8 
 415      B8100A11 
 415      B1D01F
 416 0ac9 F4565597 		.ascii	"\364VU\227C%_@\254\271\303\207\262\003\325\242P\343"
 416      43255F40 
 416      ACB9C387 
 416      B203D5A2 
 416      50E3
 417 0adb 115DF7FE 		.ascii	"\021]\367\376\341\201\202\371\310I/Km\001E\227E\305"
 417      E18182F9 
ARM GAS  /tmp/ccZ28IsQ.s 			page 33


 417      C8492F4B 
 417      6D014597 
 417      45C5
 418 0aed 6561210A 		.ascii	"ea!\012hSE_D\340\313\243\236\277T\013\325\202G\234\346"
 418      6853455F 
 418      44E0CBA3 
 418      9EBF540B 
 418      D582479C 
 419 0b02 F57934B7 		.ascii	"\365y4\267J\354!{}\345\200\232#CxDw\002\316\025\366"
 419      4AEC217B 
 419      7DE5809A 
 419      23437844 
 419      7702CE15 
 420 0b17 04851A11 		.ascii	"\004\205\032\021N\341\210\260d\201\005\324p(\"F\013"
 420      4EE188B0 
 420      648105D4 
 420      70282246 
 420      0B
 421 0b28 EFFED37D 		.ascii	"\357\376\323}\363\357\253\201\232\201\260\277J\210D"
 421      F3EFAB81 
 421      9A81B0BF 
 421      4A8844
 422 0b37 0BEF9D3F 		.ascii	"\013\357\235?\037\252\253\374\263\305p\304\037\362\210"
 422      1FAAABFC 
 422      B3C570C4 
 422      1FF288
 423 0b46 37175647 		.ascii	"7\027VG#\205|$p{0\024\024n\027\370E\376\004\255\250"
 423      23857C24 
 423      707B3014 
 423      146E17F8 
 423      45FE04AD 
 424 0b5b 58EE0F8A 		.ascii	"X\356\017\212\204V5\234g\025{\304\2224\265\003<\220"
 424      8456359C 
 424      67157BC4 
 424      9234B503 
 424      3C90
 425 0b6d 090A859E 		.ascii	"\011\012\205\236r\241\202\257\256\022=\252\250\\\217"
 425      72A182AF 
 425      AE123DAA 
 425      A85C8F
 426 0b7c 476D4FB5 		.ascii	"GmO\265\360\207\262\275\241 \030_\234k[\033\2377\024"
 426      F087B2BD 
 426      A120185F 
 426      9C6B5B1B 
 426      9F3714
 427 0b8f 1100338F 		.ascii	"\021\0003\217\334\366\000\252W\254\371uf(\236%s\002"
 427      DCF600AA 
 427      57ACF975 
 427      66289E25 
 427      7302
 428 0ba1 44B78850 		.ascii	"D\267\210P\011\012yDGt\346lHs \225B\232\353\210\026"
 428      090A7944 
 428      4774E66C 
 428      48732095 
 428      429AEB88 
 429 0bb6 17419A09 		.ascii	"\027A\232\011\251\030\322,H%\220\356\204\004\365\212"
 429      A918D22C 
ARM GAS  /tmp/ccZ28IsQ.s 			page 34


 429      482590EE 
 429      8404F58A 
 430 0bc6 A15E31D4 		.ascii	"\241^1\324+\206z\263\240\336\254\231\\\244\204\213\334"
 430      2B867AB3 
 430      A0DEAC99 
 430      5CA4848B 
 430      DC
 431 0bd7 C9456673 		.ascii	"\311Efs\2219\\\244\224\213\314uDf\026A\232\311UE\340"
 431      91395CA4 
 431      948BCC75 
 431      44661641 
 431      9AC95545 
 432 0bec 34CB19F6 		.ascii	"4\313\031\366\000\333l\342\317\245B\004\316\241\252"
 432      00DB6CE2 
 432      CFA54204 
 432      CEA1AA
 433 0bfb 722192E5 		.ascii	"r!\222\345\365\361\021\342d> \344\210Q\221\027!\232"
 433      F5F111E2 
 433      643E20E4 
 433      88519117 
 433      219A
 434 0c0d B289C14A 		.ascii	"\262\211\301J!\014d\323A\011\252\323g\331b T.\320\353"
 434      210C64D3 
 434      4109AAD3 
 434      67D96220 
 434      542ED0EB 
 435 0c21 8A2ABE32 		.ascii	"\212*\2762\232-F\204\212(\265,)8\003\321Jx\250\230\033"
 435      9A2D4684 
 435      8A28B52C 
 435      293803D1 
 435      4A78A898 
 436 0c36 9AAB868F 		.ascii	"\232\253\206\217\224/\203G9B\215_\004C\011\256\245b"
 436      942F8347 
 436      39428D5F 
 436      044309AE 
 436      A562
 437 0c48 68D123E1 		.ascii	"h\321#\341<a\211\020\024\003|t1T\021\226\222\202#\354"
 437      3C618910 
 437      14037C74 
 437      31541196 
 437      928223EC 
 438 0c5c A99EA246 		.ascii	"\251\236\242Fr\225?\012~\234\312\3046\271\343\016{\226"
 438      72953F0A 
 438      7E9CCAC4 
 438      36B9E30E 
 438      7B96
 439 0c6e F27ED11F 		.ascii	"\362~\321\037\254\314\015{\000\225\306\273\223\026\341"
 439      ACCC0D7B 
 439      0095C6BB 
 439      9316E1
 440 0c7d 86101682 		.ascii	"\206\020\026\202\0207\225P\013:\036\251\237K\270\361"
 440      10379550 
 440      0B3A1EA9 
 440      9F4BB8F1 
 441 0c8d 55D4F370 		.ascii	"U\324\363p3\034\012Ue\007\344^\002\347\320\322\240\020"
 441      331C0A55 
 441      6507E45E 
ARM GAS  /tmp/ccZ28IsQ.s 			page 35


 441      02E7D0D2 
 441      A010
 442 0c9f 71056894 		.ascii	"q\005h\224\027\323\370\252\362/*\254\364zuqVrG\351\035"
 442      17D3F8AA 
 442      F22F2AAC 
 442      F47A7571 
 442      567247E9 
 443 0cb4 256C6C42 		.ascii	"%llB\234\201\377\\Q\377_\005\022\231v\272\233O\340\303"
 443      9C81FF5C 
 443      51FF5F05 
 443      129976BA 
 443      9B4FE0C3 
 444 0cc8 D0F6AA80 		.ascii	"\320\366\252\200\020\010E\226y\310\245G\314c\256\346"
 444      10084596 
 444      79C8A547 
 444      CC63AEE6 
 445 0cd8 D87BC108 		.ascii	"\330{\301\010\001%.\363\241X)\210\025\325A\257G\314"
 445      01252EF3 
 445      A1582988 
 445      15D541AF 
 445      47CC
 446 0cea F541B487 		.ascii	"\365A\264\207\226\370\301\313yT\004dP\316\215\212\213"
 446      96F8C1CB 
 446      79540464 
 446      50CE8D8A 
 446      8B
 447 0cfb F92A7F65 		.ascii	"\371*\177e\320#\322\2165\273\004\252\312\216&E'}\226"
 447      D023D28E 
 447      35BB04AA 
 447      CA8E2645 
 447      277D96
 448 0d0e 45CC9145 		.ascii	"E\314\221EZ\341\352,\242\"\366\271|\236\212\210 8}\304"
 448      5AE1EA2C 
 448      A222F6B9 
 448      7C9E8A88 
 448      20387DC4 
 449 0d22 AE451608 		.ascii	"\256E\026\010F#^UW/\364BJ\301\037\364\213y^\337|\240"
 449      46235E55 
 449      572FF442 
 449      4AC11FF4 
 449      8B795EDF 
 450 0d38 7B775555 		.ascii	"{wUU\310\013\357\255\005p\377\217\213\036\021\274\342"
 450      C80BEFAD 
 450      0570FF8F 
 450      8B1E11BC 
 450      E2
 451 0d49 EFE0A193 		.ascii	"\357\340\241\223T\013;\026UW\344\311\217h\265\\\271"
 451      540B3B16 
 451      5557E4C9 
 451      8F68B55C 
 451      B9
 452 0d5a 7C0FC8C7 		.ascii	"|\017\310\307\341|\371\342\317\020\217\325Q'!\027\206"
 452      E17CF9E2 
 452      CF108FD5 
 452      51272117 
 452      86
 453 0d6b 10B94FAC 		.ascii	"\020\271O\254I\242\344\321\353\007\202\320t\261\233"
ARM GAS  /tmp/ccZ28IsQ.s 			page 36


 453      49A2E4D1 
 453      EB0782D0 
 453      74B19B
 454 0d7a 967F0FA5 		.ascii	"\226\177\017\245|\365\325@d\374\027|uw\201"
 454      7CF5D540 
 454      64FC177C 
 454      757781
 455              		.text
 456              		.section	.gnu.lto_.symtab.3519627ca107015,"",%progbits
 457 0000 5F686561 		.ascii	"_heap_init\000\000\000\000\000\000\000\000\000\000\000"
 457      705F696E 
 457      69740000 
 457      00000000 
 457      00000000 
 458 0015 008F0100 		.ascii	"\000\217\001\000\000chHeapObjectInit\000\000\000\000"
 458      00636848 
 458      6561704F 
 458      626A6563 
 458      74496E69 
 459 002e 00000000 		.ascii	"\000\000\000\000\000\000\000\000\225\001\000\000chH"
 459      00000000 
 459      95010000 
 459      636848
 460 003d 65617041 		.ascii	"eapAlloc\000\000\000\000\000\000\000\000\000\000\000"
 460      6C6C6F63 
 460      00000000 
 460      00000000 
 460      000000
 461 0050 00A10100 		.ascii	"\000\241\001\000\000chHeapFree\000\000\000\000\000\000"
 461      00636848 
 461      65617046 
 461      72656500 
 461      00000000 
 462 0065 00000000 		.ascii	"\000\000\000\000\000\000\251\001\000\000chHeapStatu"
 462      0000A901 
 462      00006368 
 462      48656170 
 462      53746174 
 463 007a 73000000 		.ascii	"s\000\000\000\000\000\000\000\000\000\000\000\000\260"
 463      00000000 
 463      00000000 
 463      00B0
 464 0088 01000063 		.ascii	"\001\000\000chCoreAlloc\000\000\002\000\000\000\000"
 464      68436F72 
 464      65416C6C 
 464      6F630000 
 464      02000000 
 465 009d 00000000 		.ascii	"\000\000\000\000\000\223\001\000\000chMtxObjectInit"
 465      00930100 
 465      0063684D 
 465      74784F62 
 465      6A656374 
 466 00b5 00000200 		.ascii	"\000\000\002\000\000\000\000\000\000\000\000\000\271"
 466      00000000 
 466      00000000 
 466      B9
 467 00c2 01000063 		.ascii	"\001\000\000chMtxUnlock\000\000\002\000\000\000\000"
ARM GAS  /tmp/ccZ28IsQ.s 			page 37


 467      684D7478 
 467      556E6C6F 
 467      636B0000 
 467      02000000 
 468 00d7 00000000 		.ascii	"\000\000\000\000\000\275\001\000\000chMtxLock\000\000"
 468      00BD0100 
 468      0063684D 
 468      74784C6F 
 468      636B0000 
 469 00eb 02000000 		.ascii	"\002\000\000\000\000\000\000\000\000\000\277\001\000"
 469      00000000 
 469      0000BF01 
 469      00
 470 00f8 00       		.ascii	"\000"
 471              		.text
 472              		.section	.gnu.lto_.opts,"",%progbits
 473 0000 272D6D63 		.ascii	"'-mcpu=cortex-m4' '-mfloat-abi=hard' '-mfpu=fpv4-sp"
 473      70753D63 
 473      6F727465 
 473      782D6D34 
 473      2720272D 
 474 0033 2D643136 		.ascii	"-d16' '-mno-thumb-interwork' '-mthumb' '-O2' '-fomi"
 474      2720272D 
 474      6D6E6F2D 
 474      7468756D 
 474      622D696E 
 475 0066 742D6672 		.ascii	"t-frame-pointer' '-falign-functions=16' '-ffunction"
 475      616D652D 
 475      706F696E 
 475      74657227 
 475      20272D66 
 476 0099 2D736563 		.ascii	"-sections' '-fdata-sections' '-fno-common' '-flto' "
 476      74696F6E 
 476      73272027 
 476      2D666461 
 476      74612D73 
 477 00cc 272D6673 		.ascii	"'-fsingle-precision-constant'\000"
 477      696E676C 
 477      652D7072 
 477      65636973 
 477      696F6E2D 
 478              		.text
 479              		.section	.text._heap_init,"ax",%progbits
 480              		.align	2
 481              		.p2align 4,,15
 482              		.global	_heap_init
 483              		.thumb
 484              		.thumb_func
 485              		.type	_heap_init, %function
 486              	_heap_init:
 487              		@ args = 0, pretend = 0, frame = 0
 488              		@ frame_needed = 0, uses_anonymous_args = 0
 489              		@ link register save eliminated.
 490 0000 044B     		ldr	r3, .L2
 491 0002 054A     		ldr	r2, .L2+4
 492 0004 1A60     		str	r2, [r3]
 493 0006 03F11000 		add	r0, r3, #16
ARM GAS  /tmp/ccZ28IsQ.s 			page 38


 494 000a 0022     		movs	r2, #0
 495 000c 9A60     		str	r2, [r3, #8]
 496 000e DA60     		str	r2, [r3, #12]
 497 0010 FFF7FEBF 		b	chMtxObjectInit
 498              	.L3:
 499              		.align	2
 500              	.L2:
 501 0014 00000000 		.word	.LANCHOR0
 502 0018 00000000 		.word	chCoreAlloc
 503              		.size	_heap_init, .-_heap_init
 504 001c AFF30080 		.section	.text.chHeapObjectInit,"ax",%progbits
 505              		.align	2
 506              		.p2align 4,,15
 507              		.global	chHeapObjectInit
 508              		.thumb
 509              		.thumb_func
 510              		.type	chHeapObjectInit, %function
 511              	chHeapObjectInit:
 512              		@ args = 0, pretend = 0, frame = 0
 513              		@ frame_needed = 0, uses_anonymous_args = 0
 514              		@ link register save eliminated.
 515 0000 0023     		movs	r3, #0
 516 0002 083A     		subs	r2, r2, #8
 517 0004 8160     		str	r1, [r0, #8]
 518 0006 0360     		str	r3, [r0]
 519 0008 C360     		str	r3, [r0, #12]
 520 000a 1030     		adds	r0, r0, #16
 521 000c 4A60     		str	r2, [r1, #4]
 522 000e 0B60     		str	r3, [r1]
 523 0010 FFF7FEBF 		b	chMtxObjectInit
 524              		.size	chHeapObjectInit, .-chHeapObjectInit
 525 0014 AFF30080 		.section	.text.chHeapAlloc,"ax",%progbits
 525      AFF30080 
 525      AFF30080 
 526              		.align	2
 527              		.p2align 4,,15
 528              		.global	chHeapAlloc
 529              		.thumb
 530              		.thumb_func
 531              		.type	chHeapAlloc, %function
 532              	chHeapAlloc:
 533              		@ args = 0, pretend = 0, frame = 0
 534              		@ frame_needed = 0, uses_anonymous_args = 0
 535 0000 F8B5     		push	{r3, r4, r5, r6, r7, lr}
 536 0002 214E     		ldr	r6, .L21
 537 0004 0028     		cmp	r0, #0
 538 0006 18BF     		it	ne
 539 0008 0646     		movne	r6, r0
 540 000a 06F11007 		add	r7, r6, #16
 541 000e 0731     		adds	r1, r1, #7
 542 0010 3846     		mov	r0, r7
 543 0012 21F00705 		bic	r5, r1, #7
 544 0016 06F10804 		add	r4, r6, #8
 545 001a FFF7FEFF 		bl	chMtxLock
 546 001e 03E0     		b	.L7
 547              	.L12:
 548 0020 5A68     		ldr	r2, [r3, #4]
ARM GAS  /tmp/ccZ28IsQ.s 			page 39


 549 0022 9542     		cmp	r5, r2
 550 0024 12D9     		bls	.L20
 551 0026 1C46     		mov	r4, r3
 552              	.L7:
 553 0028 2368     		ldr	r3, [r4]
 554 002a 002B     		cmp	r3, #0
 555 002c F8D1     		bne	.L12
 556 002e 3846     		mov	r0, r7
 557 0030 FFF7FEFF 		bl	chMtxUnlock
 558 0034 3368     		ldr	r3, [r6]
 559 0036 2BB3     		cbz	r3, .L14
 560 0038 05F10800 		add	r0, r5, #8
 561 003c 9847     		blx	r3
 562 003e 08B3     		cbz	r0, .L14
 563 0040 0660     		str	r6, [r0]
 564 0042 4560     		str	r5, [r0, #4]
 565 0044 00F10804 		add	r4, r0, #8
 566              	.L11:
 567 0048 2046     		mov	r0, r4
 568 004a F8BD     		pop	{r3, r4, r5, r6, r7, pc}
 569              	.L20:
 570 004c 05F10801 		add	r1, r5, #8
 571 0050 9142     		cmp	r1, r2
 572 0052 09D9     		bls	.L9
 573 0054 1A68     		ldr	r2, [r3]
 574 0056 2260     		str	r2, [r4]
 575              	.L10:
 576 0058 1C46     		mov	r4, r3
 577 005a 3846     		mov	r0, r7
 578 005c 44F8086B 		str	r6, [r4], #8
 579 0060 FFF7FEFF 		bl	chMtxUnlock
 580 0064 2046     		mov	r0, r4
 581 0066 F8BD     		pop	{r3, r4, r5, r6, r7, pc}
 582              	.L9:
 583 0068 6FF00700 		mvn	r0, #7
 584 006c 401B     		subs	r0, r0, r5
 585 006e 03EB010E 		add	lr, r3, r1
 586 0072 0244     		add	r2, r2, r0
 587 0074 1868     		ldr	r0, [r3]
 588 0076 5850     		str	r0, [r3, r1]
 589 0078 CEF80420 		str	r2, [lr, #4]
 590 007c C4F800E0 		str	lr, [r4]
 591 0080 5D60     		str	r5, [r3, #4]
 592 0082 E9E7     		b	.L10
 593              	.L14:
 594 0084 0024     		movs	r4, #0
 595 0086 DFE7     		b	.L11
 596              	.L22:
 597              		.align	2
 598              	.L21:
 599 0088 00000000 		.word	.LANCHOR0
 600              		.size	chHeapAlloc, .-chHeapAlloc
 601 008c AFF30080 		.section	.text.chHeapFree,"ax",%progbits
 602              		.align	2
 603              		.p2align 4,,15
 604              		.global	chHeapFree
 605              		.thumb
ARM GAS  /tmp/ccZ28IsQ.s 			page 40


 606              		.thumb_func
 607              		.type	chHeapFree, %function
 608              	chHeapFree:
 609              		@ args = 0, pretend = 0, frame = 0
 610              		@ frame_needed = 0, uses_anonymous_args = 0
 611 0000 F8B5     		push	{r3, r4, r5, r6, r7, lr}
 612 0002 50F8085C 		ldr	r5, [r0, #-8]
 613 0006 05F11007 		add	r7, r5, #16
 614 000a 0646     		mov	r6, r0
 615 000c A0F10804 		sub	r4, r0, #8
 616 0010 0835     		adds	r5, r5, #8
 617 0012 3846     		mov	r0, r7
 618 0014 FFF7FEFF 		bl	chMtxLock
 619 0018 2B46     		mov	r3, r5
 620              	.L30:
 621 001a AB42     		cmp	r3, r5
 622 001c 04D0     		beq	.L24
 623              	.L35:
 624 001e A342     		cmp	r3, r4
 625 0020 02D3     		bcc	.L24
 626 0022 1B68     		ldr	r3, [r3]
 627 0024 AB42     		cmp	r3, r5
 628 0026 FAD1     		bne	.L35
 629              	.L24:
 630 0028 1A68     		ldr	r2, [r3]
 631 002a 1AB1     		cbz	r2, .L26
 632 002c 9442     		cmp	r4, r2
 633 002e 01D3     		bcc	.L26
 634 0030 1346     		mov	r3, r2
 635 0032 F2E7     		b	.L30
 636              	.L26:
 637 0034 56F8041C 		ldr	r1, [r6, #-4]
 638 0038 46F8082C 		str	r2, [r6, #-8]
 639 003c 1C60     		str	r4, [r3]
 640 003e 01F10802 		add	r2, r1, #8
 641 0042 56F8085C 		ldr	r5, [r6, #-8]
 642 0046 A018     		adds	r0, r4, r2
 643 0048 A842     		cmp	r0, r5
 644 004a 0AD0     		beq	.L36
 645 004c 5A68     		ldr	r2, [r3, #4]
 646 004e 02F10801 		add	r1, r2, #8
 647 0052 1944     		add	r1, r1, r3
 648 0054 8C42     		cmp	r4, r1
 649 0056 12D0     		beq	.L37
 650              	.L29:
 651 0058 3846     		mov	r0, r7
 652 005a BDE8F840 		pop	{r3, r4, r5, r6, r7, lr}
 653 005e FFF7FEBF 		b	chMtxUnlock
 654              	.L36:
 655 0062 4068     		ldr	r0, [r0, #4]
 656 0064 A258     		ldr	r2, [r4, r2]
 657 0066 46F8082C 		str	r2, [r6, #-8]
 658 006a 0A18     		adds	r2, r1, r0
 659 006c 0832     		adds	r2, r2, #8
 660 006e 46F8042C 		str	r2, [r6, #-4]
 661 0072 5A68     		ldr	r2, [r3, #4]
 662 0074 02F10801 		add	r1, r2, #8
ARM GAS  /tmp/ccZ28IsQ.s 			page 41


 663 0078 1944     		add	r1, r1, r3
 664 007a 8C42     		cmp	r4, r1
 665 007c ECD1     		bne	.L29
 666              	.L37:
 667 007e 56F8040C 		ldr	r0, [r6, #-4]
 668 0082 56F8081C 		ldr	r1, [r6, #-8]
 669 0086 1960     		str	r1, [r3]
 670 0088 0244     		add	r2, r2, r0
 671 008a 0832     		adds	r2, r2, #8
 672 008c 5A60     		str	r2, [r3, #4]
 673 008e 3846     		mov	r0, r7
 674 0090 BDE8F840 		pop	{r3, r4, r5, r6, r7, lr}
 675 0094 FFF7FEBF 		b	chMtxUnlock
 676              		.size	chHeapFree, .-chHeapFree
 677 0098 AFF30080 		.section	.text.chHeapStatus,"ax",%progbits
 677      AFF30080 
 678              		.align	2
 679              		.p2align 4,,15
 680              		.global	chHeapStatus
 681              		.thumb
 682              		.thumb_func
 683              		.type	chHeapStatus, %function
 684              	chHeapStatus:
 685              		@ args = 0, pretend = 0, frame = 0
 686              		@ frame_needed = 0, uses_anonymous_args = 0
 687 0000 F8B5     		push	{r3, r4, r5, r6, r7, lr}
 688 0002 0E4C     		ldr	r4, .L51
 689 0004 0028     		cmp	r0, #0
 690 0006 18BF     		it	ne
 691 0008 0446     		movne	r4, r0
 692 000a 04F11006 		add	r6, r4, #16
 693 000e 3046     		mov	r0, r6
 694 0010 0F46     		mov	r7, r1
 695 0012 FFF7FEFF 		bl	chMtxLock
 696 0016 A368     		ldr	r3, [r4, #8]
 697 0018 6BB1     		cbz	r3, .L44
 698 001a 0022     		movs	r2, #0
 699 001c 1446     		mov	r4, r2
 700              	.L41:
 701 001e 28CB     		ldmia	r3, {r3, r5}
 702 0020 0134     		adds	r4, r4, #1
 703 0022 2A44     		add	r2, r2, r5
 704 0024 002B     		cmp	r3, #0
 705 0026 FAD1     		bne	.L41
 706              	.L40:
 707 0028 07B1     		cbz	r7, .L42
 708 002a 3A60     		str	r2, [r7]
 709              	.L42:
 710 002c 3046     		mov	r0, r6
 711 002e FFF7FEFF 		bl	chMtxUnlock
 712 0032 2046     		mov	r0, r4
 713 0034 F8BD     		pop	{r3, r4, r5, r6, r7, pc}
 714              	.L44:
 715 0036 1A46     		mov	r2, r3
 716 0038 1C46     		mov	r4, r3
 717 003a F5E7     		b	.L40
 718              	.L52:
ARM GAS  /tmp/ccZ28IsQ.s 			page 42


 719              		.align	2
 720              	.L51:
 721 003c 00000000 		.word	.LANCHOR0
 722              		.size	chHeapStatus, .-chHeapStatus
 723              		.section	.bss.default_heap,"aw",%nobits
 724              		.align	3
 725              		.set	.LANCHOR0,. + 0
 726              		.type	default_heap, %object
 727              		.size	default_heap, 32
 728              	default_heap:
 729 0000 00000000 		.space	32
 729      00000000 
 729      00000000 
 729      00000000 
 729      00000000 
 730              		.comm	__gnu_lto_v1,1,1
 731              		.ident	"GCC: (GNU Tools for ARM Embedded Processors) 4.8.4 20140526 (release) [ARM/embedded-4_8-br
ARM GAS  /tmp/ccZ28IsQ.s 			page 43

