ARM GAS  /tmp/ccz8ljrh.s 			page 1


   1              		.syntax unified
   2              		.cpu cortex-m4
   3              		.eabi_attribute 27, 3
   4              		.eabi_attribute 28, 1
   5              		.fpu fpv4-sp-d16
   6              		.eabi_attribute 20, 1
   7              		.eabi_attribute 21, 1
   8              		.eabi_attribute 23, 3
   9              		.eabi_attribute 24, 1
  10              		.eabi_attribute 25, 1
  11              		.eabi_attribute 26, 1
  12              		.eabi_attribute 30, 2
  13              		.eabi_attribute 34, 1
  14              		.eabi_attribute 18, 4
  15              		.thumb
  16              		.file	"chmemcore.c"
  17              		.section	.gnu.lto_.jmpfuncs.9ce1044801c0c84b,"",%progbits
  18 0000 789C6362 		.ascii	"x\234cb`b\300\006\270\2404\013\003\003+#\033#;\003\003"
  18      6062C006 
  18      B8A0340B 
  18      03032B23 
  18      1B233B03 
  19 0015 00020A00 		.ascii	"\000\002\012\000'"
  19      27
  20              		.text
  21              		.section	.gnu.lto_.inline.9ce1044801c0c84b,"",%progbits
  22 0000 789C6362 		.ascii	"x\234cb`b\300\006\222\2414\013\003\003+\013#\003\023"
  22      6062C006 
  22      92A1340B 
  22      03032B0B 
  22      230313
  23 0013 CB027906 		.ascii	"\313\002y\006\266\005\362`\305\254\014|\274\214\214"
  23      B605F260 
  23      C5AC0C7C 
  23      BC8C8C
  24 0022 0C8C4026 		.ascii	"\014\214@&\263\320\201NF\210\004P\005\013H\226\215\201"
  24      B3D0814E 
  24      46880450 
  24      050B4896 
  24      8D81
  25 0034 871B26CB 		.ascii	"\207\033&\313\267 \013U\222\235\201\215\025h\032\333"
  25      B7200B55 
  25      929D818D 
  25      15681ADB 
  26 0044 073DB869 		.ascii	"\007=\270i\014\000\350g\011\333"
  26      0C00E867 
  26      09DB
  27              		.text
  28              		.section	.gnu.lto_.pureconst.9ce1044801c0c84b,"",%progbits
  29 0000 789C6362 		.ascii	"x\234cb`b\340d\200\000\026\006\011V+6\011v\026\000\003"
  29      6062E064 
  29      80001606 
  29      09562B36 
  29      09761600 
  30 0015 7C0092   		.ascii	"|\000\222"
  31              		.text
  32              		.section	.gnu.lto__core_init.9ce1044801c0c84b,"",%progbits
ARM GAS  /tmp/ccz8ljrh.s 			page 2


  33 0000 789C8D51 		.ascii	"x\234\215Q=H\303P\020\276{I5E\360gt\023\335\033\177"
  33      3D48C350 
  33      10BE7B49 
  33      3545F067 
  33      7413DD1B 
  34 0015 40DCDC9C 		.ascii	"@\334\334\234\035\024t\0125\0156HZI\253(\016\276\376"
  34      1D14740A 
  34      350D3648 
  34      5A49AB28 
  34      0EBEFE
  35 0028 08220845 		.ascii	"\010\"\010EDQ\027ED\234\034\034D\354\220ItPtv\251\340"
  35      44511745 
  35      449C1C1C 
  35      44EC9049 
  35      74507476 
  36 003e 2688A388 		.ascii	"&\210\243\210\370\274\227\030\213\365\007\017\362\356"
  36      F8BC9718 
  36      8BF5070F 
  36      F2EE
  37 004c BDEFBBBB 		.ascii	"\275\357\273\273\357\343\302\200Am\264\322\267F\360"
  37      EFE3C280 
  37      416DB4D2 
  37      B746F0
  38 005b 38655400 		.ascii	"8eT\000Y\351\012 \2471Dy\001\204y\206\363\243(K\325"
  38      59E90A20 
  38      A7314479 
  38      01847986 
  38      F3A3284B 
  39 0070 76D8E17C 		.ascii	"v\330\341|\245\262\360\340)\033\253^q\233\277\012\201"
  39      A5B2F0E0 
  39      291BAB5E 
  39      719BBF0A 
  39      81
  40 0081 68238DED 		.ascii	"h#\215\355E0\021F\350\201m~b\352W\235\240\227\237\336"
  40      45301146 
  40      E8816D7E 
  40      62EA579D 
  40      A0979FDE 
  41 0095 5FABE7BC 		.ascii	"_\253\347\274\350\011\321o\243\302`\340\307>\007k\033"
  41      E809D16F 
  41      A3C260E0 
  41      C73E076B 
  41      1B
  42 00a6 BDDBB3F5 		.ascii	"\275\333\263\365\326\245\355|\211\277\221\246/9\370"
  42      D6A5ED7C 
  42      89BF91A6 
  42      2F39F8
  43 00b5 4FC9931A 		.ascii	"O\311\223\032I\343\027\311\252\346!\363*B\274\036\225"
  43      49E317C9 
  43      AAE621F3 
  43      2A42BC1E 
  43      95
  44 00c6 EFCAD8D2 		.ascii	"\357\312\330\322\200\020\307\035l'E\222U\344\241\022"
  44      8010C71D 
  44      6C274592 
  44      55E4A112 
  45 00d6 B24B483D 		.ascii	"\262KH=\345=\312\232\004\243\364\330\247\007E\004\212"
ARM GAS  /tmp/ccz8ljrh.s 			page 3


  45      E53DCA9A 
  45      04A3F4D8 
  45      A7074504 
  45      8A
  46 00e7 9C97DA40 		.ascii	"\234\227\332@\352P\014\321)\2279\214Lf\345\022\362\217"
  46      EA500CD1 
  46      2997398C 
  46      4C66E512 
  46      F28F
  47 00f9 85A3E5BE 		.ascii	"\205\243\345\2768\036`\004\306\021\347\340\205k6\252"
  47      381E6004 
  47      C611E7E0 
  47      856B36AA 
  48 0109 0E06FFE7 		.ascii	"\016\006\377\347\022\012\213J\3102*\220.I\315gN?\031"
  48      120A8B4A 
  48      C8322A90 
  48      2E49CD67 
  48      4E3F19
  49 011c 85489F79 		.ascii	"\205H\237y\026B4\371l\376\2410\035\322*U\370\330\305"
  49      164234F9 
  49      6CFEA130 
  49      1DD22A55 
  49      F8D8C5
  50 012f 535D806D 		.ascii	"S]\200m\301f\216\363f\332\202T\\\224\267H\260j9&\342"
  50      C1668EF3 
  50      66DA8254 
  50      5C94B748 
  50      B06A3926 
  51 0144 6B539FDF 		.ascii	"kS\237\337\364X8^\326\303Q\365U\207J\350\260\352C\243"
  51      F458385E 
  51      D6C351F5 
  51      55874AE8 
  51      B0EA43A3 
  52 0158 82EF3EDC 		.ascii	"\202\357>\334\220\216RE\340\343\372O\037X\343#\012p"
  52      908E5245 
  52      E0E3FA4F 
  52      1F58E323 
  52      0A70
  53 016a 03B94AB9 		.ascii	"\003\271J\271#h\012c\210\012i\213rS=z2\355X\272\231"
  53      23680A63 
  53      880A698B 
  53      72533D7A 
  53      32ED58BA 
  54 017f 4ECCEA09 		.ascii	"N\314\352\011kZ7\223\366\230\235\316\350Yw*5\241\323"
  54      6B5A3793 
  54      F6989DCE 
  54      E859772A 
  54      35A1D3
  55 0192 C5CDEA19 		.ascii	"\305\315\352\031\327$\334\261\0343\355Z1\023\232\014"
  55      D724DCB1 
  55      1C33ED5A 
  55      31139A0C 
  56 01a2 2369C527 		.ascii	"#i\305'\215\261x\3062\214Xg4e\315d\211\216u5~0V*AD\267"
  56      8DB178C6 
  56      328C5867 
  56      3465CD64 
  56      898E7535 
ARM GAS  /tmp/ccz8ljrh.s 			page 4


  57 01bd 4659E23D 		.ascii	"FY\342=\357\324\365\305E"
  57      EFD4F5C5 
  57      45
  58              		.text
  59              		.section	.gnu.lto_chCoreAlloc.9ce1044801c0c84b,"",%progbits
  60 0000 789C9D53 		.ascii	"x\234\235S]H\024Q\024>\347\336\331_w\325\300\207$\220"
  60      5D481451 
  60      143EE7DE 
  60      D95F77D5 
  60      C0872490 
  61 0014 45E82D9C 		.ascii	"E\350-\234\300\262 \002!\014|\220 \023\362)\326\331"
  61      C0B22002 
  61      210C7C90 
  61      2013F229 
  61      D6D9
  62 0026 611D6A77 		.ascii	"a\035jwcV#\353\301\273\273=XV,!\024Y\240Iddd\332\203"
  62      635623EB 
  62      C1BBBB3D 
  62      58562C21 
  62      1459A049 
  63 003f 20C18265 		.ascii	" \301\202e%$\210O\321\213\024DQ\004\275D\1774\235;\343"
  63      2524884F 
  63      D18B1444 
  63      5104BD44 
  63      7F349D3B 
  64 0054 ECAA485A 		.ascii	"\354\252HZ\0033\337\271\347\236\357;\347\336s\206\001"
  64      0333DFB9 
  64      E79EEF3B 
  64      E7DE7386 
  64      01
  65 0065 83B54F3D 		.ascii	"\203\265O=\275M\012\3003B\364\000\262\374<@\306\317"
  65      BD4D0AC0 
  65      3342F400 
  65      B2FC3C40 
  65      C6CF
  66 0077 98F2DE07 		.ascii	"\230\362\336\007\"\310Gg\001D\210\243\342\370\025Di"
  66      22C84767 
  66      014488A3 
  66      E2F81544 
  66      69
  67 0088 00422FE3 		.ascii	"\000B/\343\012\366\266\243\024\361\326\302\260\020W"
  67      0AF6B6A3 
  67      14F1D6C2 
  67      B01057
  68 0097 969E7E9D 		.ascii	"\226\236~\235\252\026C\331\274\370mYh \245k@\320\020"
  68      AA1643D9 
  68      BCF86D59 
  68      6820A56B 
  68      40D010
  69 00aa 8ED20223 		.ascii	"\216\322\002#60eu~\207Yx8w\251z\256\304\344\014\366"
  69      36306575 
  69      7E875978 
  69      3877A97A 
  69      AEC4E40C 
  70 00bf ADCB4CE0 		.ascii	"\255\313L\340\032j\27608w\265\372B\211\2520h\332\\R"
  70      1A6ABE30 
  70      3877B5FA 
ARM GAS  /tmp/ccz8ljrh.s 			page 5


  70      4289AA30 
  70      68DA5C52 
  71 00d3 31312A02 		.ascii	"11*\002C\342\227eq;\343\241M\321\362\253h\224\255\375"
  71      43E29765 
  71      713BE3A1 
  71      4DD1F2AB 
  71      6894ADFD 
  72 00e7 FFB2756C 		.ascii	"\377\262ulD{\300\012K\22656=\364\346\003n\251\342\230"
  72      447BC00A 
  72      4B963536 
  72      3DF4E603 
  72      6EA9E298 
  73 00fb 40F48281 		.ascii	"@\364\202\201\036\037Dq\030k\301Ox\2170@x\2270Hx\207"
  73      1E1F4471 
  73      186BC14F 
  73      788F3040 
  73      78973048 
  74 0111 B08CF036 		.ascii	"\260\214\3606a\210\202\225\260d\224\223g\204<\025\264"
  74      61888295 
  74      B0649493 
  74      67843C15 
  74      B4
  75 0122 F092B207 		.ascii	"\360\222\262\007\316\3219\" \013\240\347\010}eS\333"
  75      CED13922 
  75      200BA0E7 
  75      087D6553 
  75      DB
  76 0133 9049E4F3 		.ascii	"\220I\344\363\220\375\362zf\342\"/\306E\361>\315\206"
  76      90FDF27A 
  76      66E2222F 
  76      C645F13E 
  76      CD86
  77 0145 DD768431 		.ascii	"\335v\2041\344r\216\2703L5\360\030o\212k\215\006\372"
  77      E4728EB8 
  77      334C35F0 
  77      186F8A6B 
  77      8D06FA
  78 0158 E4521EC4 		.ascii	"\344R\036\304\037\221Vq\277\260\274\037p\216\365\022"
  78      1F915671 
  78      BFB0BC1F 
  78      708EF512 
  79 0168 727D33FD 		.ascii	"r}3\375\263\267J\352\216!~^\3668\007s\363ih\227\027"
  79      B3B74AEA 
  79      8E217E5E 
  79      F6380773 
  79      F3696897 
  80 017d 476F1CB9 		.ascii	"Go\034\271\024\006\237\303\237\316M\016l\215\342#\212"
  80      14069FC3 
  80      9FCE4D0E 
  80      6C8DE223 
  80      8A
  81 018e 89A38FF6 		.ascii	"\211\243\217\366\355\315o\226eU\330\001\331\027S#\337"
  81      EDCD6F96 
  81      6555D801 
  81      D9175323 
  81      DF
  82 019f 991BE01F 		.ascii	"\231\033\340\037\204\353\031!*\351\326\317\302\017\321"
ARM GAS  /tmp/ccz8ljrh.s 			page 6


  82      84EB1921 
  82      2AE9D6CF 
  82      C20FD1
  83 01ae 27AD6002 		.ascii	"'\255`\002\331r\265Ap\353\312~\344.'@4\333\325\354z"
  83      D972B541 
  83      70EBCA7E 
  83      E42E2740 
  83      34DBD5EC 
  84 01c3 82EBABC0 		.ascii	"\202\353\253\300\337T\312\342\322O\005\237/\272B\266"
  84      DF54CAE2 
  84      D24F059F 
  84      2FBA42B6 
  85 01d3 76991DF8 		.ascii	"v\231\035\3709W\343\272\303\264\003\360\034\236\274"
  85      3957E3BA 
  85      C3B403F0 
  85      1C9EBC
  86 01e2 CB84571C 		.ascii	"\313\204W\034,\\\232\2066\272u\372\0279\251\365\347"
  86      2C5C9A86 
  86      36BA75FA 
  86      1739A9F5 
  86      E7
  87 01f3 DE0E6C73 		.ascii	"\336\016ls\243\312)G\\\336}\251\330\315TJDWW\371\207"
  87      A3CA2947 
  87      5CDE7DA9 
  87      D8CD544A 
  87      445757F9 
  88 0208 A647719C 		.ascii	"\246Gq\234\014\273\311\260\242\311Q\234\304\032Go\001"
  88      0CBBC9B0 
  88      A2C9519C 
  88      C41A476F 
  88      01
  89 0219 32E3D9FD 		.ascii	"2\343\331\375\0167\216\262\037\360\012*$\203&\217}Z"
  89      0E378EB2 
  89      1FF00A2A 
  89      2483268F 
  89      7D5A
  90 022b A8A27AF9 		.ascii	"\250\242z\371\215\305\220\034;\224\231\245@\275\332"
  90      8DC5901C 
  90      3B9499A5 
  90      40BDDA
  91 023a 994AE8AA 		.ascii	"\231J\350\252\226\212\365\2501\375\224\252u\032\035"
  91      968AF5A8 
  91      31FD94AA 
  91      751A1D
  92 0249 462AAD76 		.ascii	"F*\255v\231\335\311\343*\031f\227\23265\362'\364\204"
  92      99DDC9E3 
  92      2A196697 
  92      9A3635F2 
  92      27F484
  93 025c 9632F53A 		.ascii	"\2262\365:\015\224\264qF\017$\365\323]\344\253\333["
  93      0D94B471 
  93      460F24F5 
  93      D35DE4AB 
  93      DB5B
  94 026e B4F614AD 		.ascii	"\264\366\024\255\006\277\236\214Ic\267k\354j\334(\021"
  94      06BF9E8C 
  94      4963B76B 
ARM GAS  /tmp/ccz8ljrh.s 			page 7


  94      EC6ADC28 
  94      11
  95 027f 51D5032D 		.ascii	"Q\325\003-\255\315\255\252\221\324Nt\307d\254\251\037"
  95      ADCDADAA 
  95      91D44E74 
  95      C764ACA9 
  95      1F
  96 0290 D31207BB 		.ascii	"\323\022\007\273\223Z]'T\266\264\036\216tD\323\372I"
  96      935A5D27 
  96      54B6B41E 
  96      8E7444D3 
  96      FA49
  97 02a2 D3D811D9 		.ascii	"\323\330\021\331\276\023\230\011>\222N\231=\360\007"
  97      BE139809 
  97      3E924E99 
  97      3DF007
  98 02b1 BC253B28 		.ascii	"\274%;("
  99              		.text
 100              		.section	.gnu.lto_chCoreAllocI.9ce1044801c0c84b,"",%progbits
 101 0000 789C9D53 		.ascii	"x\234\235SAk\023Q\020\236yo\327M\322\204\212xQAJ\177"
 101      416B1351 
 101      109E796F 
 101      D74DD284 
 101      8A785141 
 102 0016 40F750AD 		.ascii	"@\367P\255z\362\252W\261\240\340\245\335,\351\"\233"
 102      7AF2AA57 
 102      B1A0E0A5 
 102      DD2CE922 
 102      9B
 103 0027 401A45F1 		.ascii	"@\032E\361\320\227n\017\025\021B\311\305\352\241\245"
 103      D0976E0F 
 103      151142C9 
 103      C5EAA1A5 
 104 0037 162B1E44 		.ascii	"\026+\036D\275\010\036\314AD\013\012\305\223\267\242"
 104      BD081ECC 
 104      41440B0A 
 104      C593B7A2 
 105 0047 0882E259 		.ascii	"\010\202\342Y\245\270~\363t\023+E\202\013\2733\357\233"
 105      A5B87EF3 
 105      74132B45 
 105      820BBB33 
 105      EF9B
 106 0059 EF9B99F7 		.ascii	"\357\233\231\367\346\255\"E\177?\243x\217i\242\020\226"
 106      E6AD2245 
 106      7F3FA378 
 106      8F69A210 
 106      96
 107 006a 5D62D57A 		.ascii	"]b\325zM\324\314)\345|\364\310\024\364\332s\"S\324\354"
 107      4DD4CC29 
 107      E57CF4C8 
 107      14F4DA73 
 107      2253D4EC 
 108 007e FCC21D66 		.ascii	"\374\302\035fq\210iFi\207g\316\262$q\207i\331\230\205"
 108      71886946 
 108      698767CE 
 108      B2247187 
 108      69D99885 
ARM GAS  /tmp/ccz8ljrh.s 			page 8


 109 0092 CDD5956F 		.ascii	"\315\325\225o\352F\2733\267d\266\322\2249b\024\034c"
 109      EA46BB33 
 109      B764B6D2 
 109      94396214 
 109      1C63
 110 00a4 0A98CE60 		.ascii	"\012\230\316`\301C\326(g{\007V\3332\017\327L\336\352"
 110      C143D628 
 110      677B0756 
 110      DB320FD7 
 110      4CDEEA
 111 00b7 74C45AD1 		.ascii	"t\304Z\321\361\276d\013\333d\250v\342\377\252\235\352"
 111      F1BE640B 
 111      DB64A876 
 111      E2FFAA9D 
 111      EA
 112 00c8 AF5AE7C1 		.ascii	"\257Z\347\301\372\365}\353K\263-\363\003\373\263\005"
 112      FAF57DEB 
 112      4BB32DF3 
 112      03FBB305 
 113 00d8 CFEDA88C 		.ascii	"\317\355\250\214\271'\275\257:\233i\272\365\364\366"
 113      B927BDAF 
 113      3A9B69BA 
 113      F5F4F6
 114 00e7 BB45DE33 		.ascii	"\273E\3363\310\024\261\2439fv\340\271.\250\354\321\004"
 114      C814B1A3 
 114      396676E0 
 114      B92EA8EC 
 114      D104
 115 00f9 2FF330E5 		.ascii	"/\3630\345`W`\363\260\253\260\005\330;\260\003`\352"
 115      605760F3 
 115      B0ABB005 
 115      D83BB003 
 115      60EA
 116 010b A2D04B40 		.ascii	"\242\320K@\356\002\2213\2479ld\210\244<\236\323\370"
 116      EE029133 
 116      A7396C64 
 116      88A43C9E 
 116      D3F8
 117 011d CA64C659 		.ascii	"\312d\306Y\211\325\257(\231O\036\265\367O\360=\214\265"
 117      89D5AF28 
 117      994F1EB5 
 117      F74FF03D 
 117      8CB5
 118 012f C24E85B5 		.ascii	"\302N\205\265\264\267\313\003\031\301'\311d\026r\021"
 118      B4B7CB03 
 118      19C127C9 
 118      64167211 
 119 013f B5A1AF69 		.ascii	"\265\241\257i\232\016\332\360\354\313\307\030eF\360"
 119      9A0EDAF0 
 119      ECCBC718 
 119      6546F0
 120 014e 6ED262D3 		.ascii	"n\322b\323\230\335\330\360\025\372n\346\305\363b\226"
 120      98DDD8F0 
 120      15FA6EE6 
 120      C5F36296 
 121 015e CB243AEF 		.ascii	"\313$:\357\367F!\373\2443M\256\"8\240\223\031\222\337"
 121      F74621FB 
ARM GAS  /tmp/ccz8ljrh.s 			page 9


 121      A4334DAE 
 121      2238A093 
 121      1992DF
 122 0171 390BFD2B 		.ascii	"9\013\375+K\0012\333\356\325.4`s\027,\361Kr0\203\213"
 122      4B0132DB 
 122      EED52E34 
 122      6073172C 
 122      F14B7230 
 123 0187 8810BDA0 		.ascii	"\210\020\275\240g\037\232\245?0\2677\207q\326\204\333"
 123      671F9AA5 
 123      3F30B737 
 123      8771D684 
 123      DB
 124 0198 2C27732D 		.ascii	",'s-y\337>\220\261J\250a\211\275f\373\351\024\302,\257"
 124      79DF3E90 
 124      B14AA861 
 124      89BD66FB 
 124      E914C22C 
 125 01ad 634F7C03 		.ascii	"cO|\003\277\207\300\226\367\226X\250\270\013\352\363"
 125      BF87C096 
 125      F79658A8 
 125      B80BEAF3 
 126 01bd C65E54D0 		.ascii	"\306^T\320\267\336\024eJ,\\9\271Q\177\252\026\207~P"
 126      B7DE1465 
 126      4A2C5C39 
 126      B9517FAA 
 126      16877E50 
 127 01d1 2B5FF6CB 		.ascii	"+_\366\313\341E?\230\212&\243\332\264\337\250_\250\236"
 127      E1453F98 
 127      8A26A3DA 
 127      B4DFA85F 
 127      A89E
 128 01e3 F7E1D41B 		.ascii	"\367\341\324\033\376t=\000\036\207qP\253\207#\001\345"
 128      FE743D00 
 128      1E877150 
 128      AB872301 
 128      E5
 129 01f4 C26A19AB 		.ascii	"\302j\031\253\221C\231s8_\015/5\304\033\353zG\272\336"
 129      91439973 
 129      385F0D2F 
 129      35C41BEB 
 129      7A47BADE 
 130 0208 D19F610E 		.ascii	"\321\237a\016\342\036"
 130      E21E
 131              		.text
 132              		.section	.gnu.lto_chCoreGetStatusX.9ce1044801c0c84b,"",%progbits
 133 0000 789C9D52 		.ascii	"x\234\235R1K\303@\030\375\276K\316\266\016\"N\272\225"
 133      314BC340 
 133      18FDBE4B 
 133      CEB60E22 
 133      4EBA95
 134 0013 FE809E55 		.ascii	"\376\200\236U\020\234\234\273W\320E\250ih\203\244\201"
 134      109C9CBB 
 134      57D045A8 
 134      696883A4 
 134      81
 135 0024 B48AE2D0 		.ascii	"\264\212\342\320\253\355\240[).\352b\221\242\"(898t"
ARM GAS  /tmp/ccz8ljrh.s 			page 10


 135      ABEDA05B 
 135      292EEA62 
 135      91A22228 
 135      38393874 
 136 0038 75A8D0C1 		.ascii	"u\250\320\301\275\316\202?@\012\361\273\263\255TD\305"
 136      BDCE823F 
 136      400AF1BB 
 136      B3AD5444 
 136      C5
 137 0049 83E4BD7B 		.ascii	"\203\344\275{\271\367\336\335\021\006\014\276\216\031"
 137      B9F7DEDD 
 137      11060CBE 
 137      8E19
 138 0057 7AA6495E 		.ascii	"z\246I^#D\003\220\325\036\001\312a\206\250\010 \224"
 138      23440390 
 138      D51E01CA 
 138      6186A808 
 138      2094
 139 0069 18965651 		.ascii	"\030\226VQ-5c\320\220\262\336m^u\214\243\303V\365T\366"
 139      2D3563D0 
 139      90B2DE6D 
 139      5E758CA3 
 139      C356F554 
 140 007e 8200D141 		.ascii	"\202\000\321A\212]@\260\020Vh\202Q\015\314\034\355\321"
 140      8A5D40B0 
 140      10566882 
 140      510DCC1C 
 140      EDD1
 141 0090 DE9ABCBD 		.ascii	"\336\232\274\275\220\021\3553\0344\030,\375\311V\037"
 141      9011ED33 
 141      1C34182C 
 141      FDC9561F 
 142 00a0 B1515BF2 		.ascii	"\261Q[\362\177m\251\337l7\254\325\015\202\373\247\336"
 142      7F6DA9DF 
 142      6C37ACD5 
 142      0D82FBA7 
 142      DE
 143 00b1 F3354E85 		.ascii	"\3635N\205\031\244\261\20110\010\317\010M\302&!'<'\034"
 143      19A4B181 
 143      313008CF 
 143      084DC226 
 143      21273C27 
 144 00c6 034A0DD1 		.ascii	"\003J\015\321K\245p\250Rc\024T\003\015\252\002u\201"
 144      4BA570A8 
 144      52631454 
 144      030DAA02 
 144      7581
 145 00d8 CBC8141A 		.ascii	"\313\310\024\032m\330{\270\243{K\343%r\310\";\201\343"
 145      6DD87BB8 
 145      A37B4BE3 
 145      2572C822 
 145      3B81E3
 146 00eb B2949374 		.ascii	"\262\224\223t\234]x\223\373\212qW[\325\306x\177Cd{\031"
 146      9C5D7893 
 146      FB8A7157 
 146      5BD5C678 
 146      7F43647B 
ARM GAS  /tmp/ccz8ljrh.s 			page 11


 147 0100 7A0CB269 		.ascii	"z\014\262i)9P\314\357S\360\247\024\236U\373mC\345`("
 147      293950CC 
 147      EF53F0A7 
 147      149E55FB 
 147      6D43E560 
 148 0115 8DE96CAE 		.ascii	"\215\351l\256\027\276V&\006r\210\276\000t\000\207\302"
 148      17BE5626 
 148      067288BE 
 148      00740087 
 148      C2
 149 0126 475C8A0A 		.ascii	"G\\\212\012\350L\352_\232\0279\317\265\205\345evD\306"
 149      E84CEA5F 
 149      9A1739CF 
 149      B585E565 
 149      7644C6
 150 0139 DE1256CE 		.ascii	"\336\022V\316Yw\274\202(\372\233\371\015A\304/\212\202"
 150      5977BC82 
 150      28FA9BF9 
 150      0D41C42F 
 150      8A82
 151 014b 6F91EEDA 		.ascii	"o\221\356\332\256\345\371v\334\202\260\235\317\320,"
 151      AEE5F976 
 151      DC82B09D 
 151      CFD02C
 152 015a BE18E993 		.ascii	"\276\030\351\223\304\354x\336\336.j\232\370\244s\357"
 152      C4EC78DE 
 152      DE2E6A9A 
 152      F8A473EF 
 153 016a 6DE598C3 		.ascii	"m\345\230\303"
 154              		.text
 155              		.section	.gnu.lto_.symbol_nodes.9ce1044801c0c84b,"",%progbits
 156 0000 789C4DCA 		.ascii	"x\234M\312\311\015\2000\020CQ\333\3034I3\276\346H\005"
 156      C90D8030 
 156      104351DB 
 156      C3344933 
 156      BEE64805 
 157 0014 944411EC 		.ascii	"\224D\021\354\351\202 !\005\237\376\223,\010#\276i\247"
 157      E9822021 
 157      059FFE93 
 157      2C0823BE 
 157      69A7
 158 0026 816901EC 		.ascii	"\201i\001\354\2710o\266B\256\344\340\310J\275\332\030"
 158      B9306FB6 
 158      42AEE4E0 
 158      C84ABDDA 
 158      18
 159 0037 4D3A68F6 		.ascii	"M:h\366\253NZ?^tt\342\001q;\031\315"
 159      AB4E5A3F 
 159      5E7474E2 
 159      01713B19 
 159      CD
 160              		.text
 161              		.section	.gnu.lto_.refs.9ce1044801c0c84b,"",%progbits
 162 0000 789C6362 		.ascii	"x\234cb`bPd\200\000\026\006&FF&&fF\026fV0\207\211\231"
 162      60625064 
 162      80001606 
 162      26464626 
ARM GAS  /tmp/ccz8ljrh.s 			page 12


 162      26664616 
 163 001a 0D4233B1 		.ascii	"\015B3\261\203h\006\000\012\332\000l"
 163      83680600 
 163      0ADA006C 
 164              		.text
 165              		.section	.gnu.lto_.decls.9ce1044801c0c84b,"",%progbits
 166 0000 789C9D55 		.ascii	"x\234\235UMl\033E\024~\263vlomB8P\225S\243\252p(jVj"
 166      4D6C1B45 
 166      147EB376 
 166      6C6F6D42 
 166      38509553 
 167 001b 23142E4D 		.ascii	"#\024.MQ\017-\027.\250R\305e5Y/x\205\275\256\3545\242"
 167      510F2D17 
 167      2EA852C5 
 167      6535592F 
 167      7885BDAE 
 168 0032 70192C88 		.ascii	"p\031,\210P\213\242\320R\251\034(N\377h\004\205\264"
 168      508BA2D0 
 168      52A91C28 
 168      4EFF6804 
 168      85B4
 169 0044 A4081048 		.ascii	"\244\010\020Hni~\332 Z5Jzd9T\\\221\220\340B\273\274"
 169      6E697EDA 
 169      205A354A 
 169      7A643954 
 169      5C9190E0 
 170 005b D99DF5FE 		.ascii	"\331\235\365\376d7\244\214\364\342\347\361{\337\373"
 170      6437A48C 
 170      F4E2E7F1 
 170      7BDFFB
 171 006a DE9B6F26 		.ascii	"\336\233o&\022H\360.\001pp\275R\000P\321\357\003\200"
 171      1248F02E 
 171      017070BD 
 171      520050D1 
 171      EF0380
 172 007d 3D10AC2C 		.ascii	"=\020\254,\332\024\332\005\264\031\264Y\261\367-\332"
 172      DA14DA05 
 172      B419B459 
 172      B1F72DDA 
 173 008d 35B41B68 		.ascii	"5\264\033h\363\020]<>\007\036V?Z\011\355:\332\"\332"
 173      F3105D3C 
 173      3E071E56 
 173      3F5A09ED 
 173      3ADA22DA 
 174 00a1 4D114344 		.ascii	"M\021CD\\V\340\314\013\314\0331,^\267\2106\035\303\312"
 174      5C56E0CC 
 174      0BCC1B31 
 174      2C5EB788 
 174      361DC3CA 
 175 00b5 0AFC51B4 		.ascii	"\012\374Q\264[h\267\321VB\370R\210sF\324\270\224\300"
 175      5B68B7D1 
 175      5642F852 
 175      887346D4 
 175      B894C0
 176 00c8 95FF5E10 		.ascii	"\225\377^\020\230>~V\340\366\211\272a\316a\274+\011"
 176      983E7E56 
 176      E0F689BA 
ARM GAS  /tmp/ccz8ljrh.s 			page 13


 176      61CE61BC 
 176      2B09
 177 00da 78B3A2F7 		.ascii	"x\263\242\3678^\034gVp\234\027X\341\265\025N\263\216"
 177      385E1C67 
 177      56709C17 
 177      58E1B515 
 177      4EB38E
 178 00ed 6DDFFF7D 		.ascii	"m\337\377}\346)\326iw\035g\0246\303I\206\2533\316\030"
 178      E629D669 
 178      771D6714 
 178      36C34986 
 178      AB33CE18 
 179 0101 B128D9F3 		.ascii	"\261(\331\363$\034\"\224\364\3130\350:%\331-\002@\311"
 179      241C2294 
 179      F4CB30E8 
 179      3A25D92D 
 179      0240C9
 180 0114 19B25978 		.ascii	"\031\262Yx\0073\376(\236#\260\003\2461\177\222\2613"
 180      0733FE28 
 180      9E23B003 
 180      A6317F92 
 180      B133
 181 0126 DB0824AD 		.ascii	"\333\010$\255g\340<\257\300.\262\214\213\317\021\246"
 181      67E03CAF 
 181      C02EB28C 
 181      8BCF11A6 
 182 0136 C8D67008 		.ascii	"\310\326p\010%g\211\264\226h\367\352\302\022a\307\331"
 182      256789B4 
 182      9668F7EA 
 182      C21261C7 
 182      D9
 183 0147 3F8E9389 		.ascii	"?\216\223\211\023\035-\246\022\375L\020\315\270s\000"
 183      131D2DA6 
 183      12FD4C10 
 183      CDB87300 
 184 0157 19DE67AC 		.ascii	"\031\336g\254\315\023\017,\342\340\222\262\236\206s"
 184      CD130F2C 
 184      E2E092B2 
 184      9E8673
 185 0166 D8827D79 		.ascii	"\330\202}y|\365O\322F|J\246\211\214\331o\023\204;Gv"
 185      7CF54FD2 
 185      467C4AA6 
 185      898CD96F 
 185      13843B47 
 186 017b F468F6C9 		.ascii	"\364h\366\311Q\332\370\335\017\340p\356\317\302\341"
 186      51DAF8DD 
 186      0FE070EE 
 186      CFC2E1
 187 018a DA7F3C3C 		.ascii	"\332\177<<-w`m\022\205\334\016g\031;n\317\375u'\363"
 187      2D77606D 
 187      1285DC0E 
 187      67193B6E 
 187      CFFD7527 
 188 019f 31EB66FD 		.ascii	"1\353f\375\302\023n\330\005\234R\022]/\312\037m\233"
 188      C2136ED8 
 188      059C5212 
 188      5D2FCA1F 
ARM GAS  /tmp/ccz8ljrh.s 			page 14


 188      6D9B
 189 01b1 7D35FEDE 		.ascii	"}5\376\336@\326\035\011\254\223%(\177\261v\322\366\037"
 189      40D61D09 
 189      AC932528 
 189      7FB176D2 
 189      F61F
 190 01c3 DD870BA5 		.ascii	"\335\207\013\245\311wl\307\371t\2577?\011N$2e\177\227"
 190      C9776CC7 
 190      F974AF37 
 190      3F094E24 
 190      32657F97 
 191 01d7 0F78E529 		.ascii	"\017x\345)\371\022\221(\231\371_$\323\262\004\311\313"
 191      F9129128 
 191      99F95F24 
 191      D3B204C9 
 191      CB
 192 01e8 8972B877 		.ascii	"\211r\270w\364\003_\267\205\230\034x\2554=\\M\020n'"
 192      F4035FB7 
 192      85981C78 
 192      AD343D5C 
 192      4D106E27 
 193 01fc D65D8FE6 		.ascii	"\326]\217\346\225\213L\366\251S2\273>\315o\2424\267"
 193      958B4CF6 
 193      A95332BB 
 193      3ECD6FA2 
 193      34B7
 194 020e C114B327 		.ascii	"\301\024\263'\273\313\343'\011\373\015\311=t\034\362"
 194      BBCBE327 
 194      09FB0DC9 
 194      3D741CF2 
 195 021e 044C729E 		.ascii	"\004Lr\236\203\247\372\205\016\355\363l\313\251@\207"
 195      83A7FA85 
 195      0EEDF36C 
 195      CBA94087 
 196 022e 051F9604 		.ascii	"\005\037\226\004:\\>v\351Y\306\012\224|\357\212a5\306"
 196      3A5C3E76 
 196      E959C60A 
 196      947CEF8A 
 196      6135C6
 197 0241 75E3400F 		.ascii	"u\343@\017&N\217\270@?\272@'\244\270\236IL\317$\252"
 197      264E8FB8 
 197      403FBA40 
 197      27A4B89E 
 197      494CCF24 
 198 0256 6722078E 		.ascii	"g\"\007\216\023\275\335\033\216\245\344;\034BhI\360"
 198      13BDDD1B 
 198      8EA5E43B 
 198      1C426849 
 198      F0
 199 0267 89442248 		.ascii	"\211D\"H\335`\214|\204\354\256}\377\327\217\370I{#,"
 199      DD608C7C 
 199      84ECAE7D 
 199      FFD78FF8 
 199      497B232C 
 200 027b C2D1E002 		.ascii	"\302\321\340\002{CI;\352\353\244\030\224\371\274\327"
 200      7B43493B 
 200      EAEBA418 
ARM GAS  /tmp/ccz8ljrh.s 			page 15


 200      94F9BCD7 
 201 028b 6E5AF84F 		.ascii	"nZ\370O\321\302xv+\341\263\363\250K\360u\214\357\\\234"
 201      D1C27876 
 201      2BE1B3F3 
 201      A84BF075 
 201      8CEF5C9C 
 202 029f 6FF7C3F9 		.ascii	"o\367\303\371\020_\217\206\004\335\377\254\277\020\000"
 202      105F8F86 
 202      04DDFFAC 
 202      BF1000
 203 02ae C59AE485 		.ascii	"\305\232\344\205\323\262\026\203&cY\274nZ\326\315 K"
 203      D3B21683 
 203      266359BC 
 203      6E5AD6CD 
 203      204B
 204 02c0 68B2B337 		.ascii	"h\262\2637\"\312-\353H\211\277\357\022%K\256\214\026"
 204      22CA2DEB 
 204      4889BFEF 
 204      12254BAE 
 204      8C16
 205 02d2 A4E4871E 		.ascii	"\244\344\207\036\274\000\020:X\352)bIHB\300\017\370"
 205      BC00103A 
 205      58EA2962 
 205      494842C0 
 205      0FF8
 206 02e4 F092C8BA 		.ascii	"\360\222\310\272%\004\342\222a\275nJ\351\347\374K\250"
 206      2504E292 
 206      61BD6E4A 
 206      E9E7FC4B 
 206      A8
 207 02f5 4E490E1C 		.ascii	"NI\016\034\237\330\306\337\374\345cs\327\304\233\177"
 207      9FD8C6DF 
 207      FCE56373 
 207      D7C49B7F 
 208 0305 DBEDEE67 		.ascii	"\333\355\356g)\361\266m\000\352\301\304\017\317\273"
 208      29F1B66D 
 208      00EAC1C4 
 208      0FCFBB
 209 0314 B7EDAE0B 		.ascii	"\267\355\256\013\264\262\346\266\345c\267-\037\275A"
 209      B4B2E6B6 
 209      E563B72D 
 209      1FBD41
 210 0323 793970C4 		.ascii	"y9p\304\177\217G\014\017\036\033o\350\202\354\210O6"
 210      7F8F470C 
 210      0F1E1B6F 
 210      E882EC88 
 210      4F36
 211 0335 2F90561E 		.ascii	"/\220V\036y\340\253)\003\317\371\364v+\225zMW\264z\371"
 211      79E0AB29 
 211      03CFF9F4 
 211      762B957A 
 211      4D57B47A 
 212 034a 8852D6DF 		.ascii	"\210R\326\337P\264\2121f\324\233\212\325h\231\257+\350"
 212      50B48A31 
 212      66D49B8A 
 212      D56899AF 
 212      2BE8
ARM GAS  /tmp/ccz8ljrh.s 			page 16


 213 035c 342CA5D9 		.ascii	"4,\245\331\320p\277\246\327\264zC\037\322`\223\312\035"
 213      D070BFA6 
 213      D7B47A43 
 213      1FD26093 
 213      CA1D
 214 036e D5300D2B 		.ascii	"\3250\015+\267\377\245\203\203\373`\227\322j6\224\252"
 214      B7FFA583 
 214      83FB6097 
 214      D26A3694 
 214      AA
 215 037f 31A6BCA6 		.ascii	"1\246\274\246i\012m\324v\232uS\337\251\3231C\031\036"
 215      690A6DD4 
 215      769A7553 
 215      DFA9D331 
 215      43191E
 216 0392 1A191A56 		.ascii	"\032\031\032V\014S\253\266\312\272\322\264\312e\375"
 216      0C53ABB6 
 216      CABAD2B4 
 216      CA65FD
 217 03a1 D5A10AE4 		.ascii	"\325\241\012\344\232\306[\272j\025\265\312>\004{\241"
 217      9AC65BBA 
 217      6A15B5CA 
 217      3E047BA1 
 218 03b1 5AAD6B59 		.ascii	"Z\255kY\276U\012m\2748\340}\331\257[/[\324j5\017mw\013"
 218      BE550A6D 
 218      BC38E07D 
 218      D9AF5B2F 
 218      5BD46A35 
 219 03c9 450B84A0 		.ascii	"E\013\204\240\015\323B\350|\013?GTkx\235\340\032\305"
 219      0DD342E8 
 219      7C0B3F47 
 219      546B789D 
 219      E01AC5
 220 03dc 4E4D5D51 		.ascii	"NM]Q\221\015mU-\325:rXob\262\254\252\"\3751U\255\350"
 220      910D6D55 
 220      2DD53A72 
 220      586F62B2 
 220      ACAA22FD 
 221 03f4 F4B03A46 		.ascii	"\364\260:F\233\272\252\346M\375M\013gP\022\273\272Y"
 221      9BBAAAE6 
 221      4DFD4D0B 
 221      675012BB 
 221      BA59
 222 0406 56D51CFE 		.ascii	"V\325\034\376\305\275\254V\241\215\002O\333\275K\265"
 222      C5BDAC56 
 222      A18D024F 
 222      DBBD4BB5 
 223 0416 367908DC 		.ascii	"6y\010\334\375\027\225\2479J"
 223      FD1795A7 
 223      394A
 224              		.text
 225              		.section	.gnu.lto_.symtab.9ce1044801c0c84b,"",%progbits
 226 0000 5F636F72 		.ascii	"_core_init\000\000\000\000\000\000\000\000\000\000\000"
 226      655F696E 
 226      69740000 
 226      00000000 
 226      00000000 
ARM GAS  /tmp/ccz8ljrh.s 			page 17


 227 0015 00A10000 		.ascii	"\000\241\000\000\000chCoreAlloc\000\000\000\000\000"
 227      00636843 
 227      6F726541 
 227      6C6C6F63 
 227      00000000 
 228 002a 00000000 		.ascii	"\000\000\000\000\000\000\000\246\000\000\000chCoreA"
 228      000000A6 
 228      00000063 
 228      68436F72 
 228      6541
 229 003c 6C6C6F63 		.ascii	"llocI\000\000\000\000\000\000\000\000\000\000\000\000"
 229      49000000 
 229      00000000 
 229      00000000 
 229      00
 230 004d B0000000 		.ascii	"\260\000\000\000chCoreGetStatusX\000\000\000\000\000"
 230      6368436F 
 230      72654765 
 230      74537461 
 230      74757358 
 231 0066 00000000 		.ascii	"\000\000\000\000\000\000\000\264\000\000\000__heap_"
 231      000000B4 
 231      0000005F 
 231      5F686561 
 231      705F
 232 0078 62617365 		.ascii	"base__\000\000\002\000\000\000\000\000\000\000\000\000"
 232      5F5F0000 
 232      02000000 
 232      00000000 
 232      0000
 233 008a B8000000 		.ascii	"\270\000\000\000__heap_end__\000\000\002\000\000\000"
 233      5F5F6865 
 233      61705F65 
 233      6E645F5F 
 233      00000200 
 234 00a0 00000000 		.ascii	"\000\000\000\000\000\000\304\000\000\000"
 234      0000C400 
 234      0000
 235              		.text
 236              		.section	.gnu.lto_.opts,"",%progbits
 237 0000 272D6D63 		.ascii	"'-mcpu=cortex-m4' '-mfloat-abi=hard' '-mfpu=fpv4-sp"
 237      70753D63 
 237      6F727465 
 237      782D6D34 
 237      2720272D 
 238 0033 2D643136 		.ascii	"-d16' '-mno-thumb-interwork' '-mthumb' '-O2' '-fomi"
 238      2720272D 
 238      6D6E6F2D 
 238      7468756D 
 238      622D696E 
 239 0066 742D6672 		.ascii	"t-frame-pointer' '-falign-functions=16' '-ffunction"
 239      616D652D 
 239      706F696E 
 239      74657227 
 239      20272D66 
 240 0099 2D736563 		.ascii	"-sections' '-fdata-sections' '-fno-common' '-flto' "
 240      74696F6E 
ARM GAS  /tmp/ccz8ljrh.s 			page 18


 240      73272027 
 240      2D666461 
 240      74612D73 
 241 00cc 272D6673 		.ascii	"'-fsingle-precision-constant'\000"
 241      696E676C 
 241      652D7072 
 241      65636973 
 241      696F6E2D 
 242              		.text
 243              		.section	.text._core_init,"ax",%progbits
 244              		.align	2
 245              		.p2align 4,,15
 246              		.global	_core_init
 247              		.thumb
 248              		.thumb_func
 249              		.type	_core_init, %function
 250              	_core_init:
 251              		@ args = 0, pretend = 0, frame = 0
 252              		@ frame_needed = 0, uses_anonymous_args = 0
 253              		@ link register save eliminated.
 254 0000 0548     		ldr	r0, .L2
 255 0002 064A     		ldr	r2, .L2+4
 256 0004 0649     		ldr	r1, .L2+8
 257 0006 074B     		ldr	r3, .L2+12
 258 0008 20F00700 		bic	r0, r0, #7
 259 000c 22F00702 		bic	r2, r2, #7
 260 0010 0860     		str	r0, [r1]
 261 0012 1A60     		str	r2, [r3]
 262 0014 7047     		bx	lr
 263              	.L3:
 264 0016 00BF     		.align	2
 265              	.L2:
 266 0018 07000000 		.word	__heap_base__+7
 267 001c 00000000 		.word	__heap_end__
 268 0020 00000000 		.word	.LANCHOR0
 269 0024 00000000 		.word	.LANCHOR1
 270              		.size	_core_init, .-_core_init
 271 0028 AFF30080 		.section	.text.chCoreAlloc,"ax",%progbits
 271      AFF30080 
 272              		.align	2
 273              		.p2align 4,,15
 274              		.global	chCoreAlloc
 275              		.thumb
 276              		.thumb_func
 277              		.type	chCoreAlloc, %function
 278              	chCoreAlloc:
 279              		@ args = 0, pretend = 0, frame = 0
 280              		@ frame_needed = 0, uses_anonymous_args = 0
 281              		@ link register save eliminated.
 282 0000 2023     		movs	r3, #32
 283              	@ 546 "/home/cody/dev/chibios/trunk/os/ext/CMSIS/include/core_cmFunc.h" 1
 284 0002 83F31188 		MSR basepri, r3
 285              	@ 0 "" 2
 286              		.thumb
 287 0006 094A     		ldr	r2, .L7
 288 0008 0949     		ldr	r1, .L7+4
 289 000a 1368     		ldr	r3, [r2]
ARM GAS  /tmp/ccz8ljrh.s 			page 19


 290 000c 0968     		ldr	r1, [r1]
 291 000e 0730     		adds	r0, r0, #7
 292 0010 20F00700 		bic	r0, r0, #7
 293 0014 C91A     		subs	r1, r1, r3
 294 0016 8842     		cmp	r0, r1
 295 0018 9BBF     		ittet	ls
 296 001a C018     		addls	r0, r0, r3
 297 001c 1060     		strls	r0, [r2]
 298 001e 0020     		movhi	r0, #0
 299 0020 1846     		movls	r0, r3
 300 0022 0023     		movs	r3, #0
 301              	@ 546 "/home/cody/dev/chibios/trunk/os/ext/CMSIS/include/core_cmFunc.h" 1
 302 0024 83F31188 		MSR basepri, r3
 303              	@ 0 "" 2
 304              		.thumb
 305 0028 7047     		bx	lr
 306              	.L8:
 307 002a 00BF     		.align	2
 308              	.L7:
 309 002c 00000000 		.word	.LANCHOR0
 310 0030 00000000 		.word	.LANCHOR1
 311              		.size	chCoreAlloc, .-chCoreAlloc
 312 0034 AFF30080 		.section	.text.chCoreAllocI,"ax",%progbits
 312      AFF30080 
 312      AFF30080 
 313              		.align	2
 314              		.p2align 4,,15
 315              		.global	chCoreAllocI
 316              		.thumb
 317              		.thumb_func
 318              		.type	chCoreAllocI, %function
 319              	chCoreAllocI:
 320              		@ args = 0, pretend = 0, frame = 0
 321              		@ frame_needed = 0, uses_anonymous_args = 0
 322              		@ link register save eliminated.
 323 0000 074A     		ldr	r2, .L12
 324 0002 0849     		ldr	r1, .L12+4
 325 0004 1368     		ldr	r3, [r2]
 326 0006 0968     		ldr	r1, [r1]
 327 0008 0730     		adds	r0, r0, #7
 328 000a 20F00700 		bic	r0, r0, #7
 329 000e C91A     		subs	r1, r1, r3
 330 0010 8842     		cmp	r0, r1
 331 0012 9DBF     		ittte	ls
 332 0014 C018     		addls	r0, r0, r3
 333 0016 1060     		strls	r0, [r2]
 334 0018 1846     		movls	r0, r3
 335 001a 0020     		movhi	r0, #0
 336 001c 7047     		bx	lr
 337              	.L13:
 338 001e 00BF     		.align	2
 339              	.L12:
 340 0020 00000000 		.word	.LANCHOR0
 341 0024 00000000 		.word	.LANCHOR1
 342              		.size	chCoreAllocI, .-chCoreAllocI
 343 0028 AFF30080 		.section	.text.chCoreGetStatusX,"ax",%progbits
 343      AFF30080 
ARM GAS  /tmp/ccz8ljrh.s 			page 20


 344              		.align	2
 345              		.p2align 4,,15
 346              		.global	chCoreGetStatusX
 347              		.thumb
 348              		.thumb_func
 349              		.type	chCoreGetStatusX, %function
 350              	chCoreGetStatusX:
 351              		@ args = 0, pretend = 0, frame = 0
 352              		@ frame_needed = 0, uses_anonymous_args = 0
 353              		@ link register save eliminated.
 354 0000 024A     		ldr	r2, .L15
 355 0002 034B     		ldr	r3, .L15+4
 356 0004 1068     		ldr	r0, [r2]
 357 0006 1B68     		ldr	r3, [r3]
 358 0008 C01A     		subs	r0, r0, r3
 359 000a 7047     		bx	lr
 360              	.L16:
 361              		.align	2
 362              	.L15:
 363 000c 00000000 		.word	.LANCHOR1
 364 0010 00000000 		.word	.LANCHOR0
 365              		.size	chCoreGetStatusX, .-chCoreGetStatusX
 366 0014 AFF30080 		.section	.bss.endmem,"aw",%nobits
 366      AFF30080 
 366      AFF30080 
 367              		.align	2
 368              		.set	.LANCHOR1,. + 0
 369              		.type	endmem, %object
 370              		.size	endmem, 4
 371              	endmem:
 372 0000 00000000 		.space	4
 373              		.section	.bss.nextmem,"aw",%nobits
 374              		.align	2
 375              		.set	.LANCHOR0,. + 0
 376              		.type	nextmem, %object
 377              		.size	nextmem, 4
 378              	nextmem:
 379 0000 00000000 		.space	4
 380              		.comm	__gnu_lto_v1,1,1
 381              		.ident	"GCC: (GNU Tools for ARM Embedded Processors) 4.8.4 20140526 (release) [ARM/embedded-4_8-br
ARM GAS  /tmp/ccz8ljrh.s 			page 21

