ARM GAS  /tmp/ccGVqVeD.s 			page 1


   1              		.syntax unified
   2              		.cpu cortex-m4
   3              		.eabi_attribute 27, 3
   4              		.eabi_attribute 28, 1
   5              		.fpu fpv4-sp-d16
   6              		.eabi_attribute 20, 1
   7              		.eabi_attribute 21, 1
   8              		.eabi_attribute 23, 3
   9              		.eabi_attribute 24, 1
  10              		.eabi_attribute 25, 1
  11              		.eabi_attribute 26, 1
  12              		.eabi_attribute 30, 2
  13              		.eabi_attribute 34, 1
  14              		.eabi_attribute 18, 4
  15              		.thumb
  16              		.file	"chmsg.c"
  17              		.section	.gnu.lto_.jmpfuncs.4af4a5012a35a736,"",%progbits
  18 0000 789C6362 		.ascii	"x\234cb`b\300\0064\24143\0033#S\004c&#\003\017\003\003"
  18      6062C006 
  18      34A13433 
  18      03332353 
  18      04632623 
  19 0018 23035035 		.ascii	"#\003P5\224\313\007\224cf\002)``,\003*\004\0009\234"
  19      94CB0794 
  19      63660229 
  19      60602C03 
  19      2A040039 
  20 002d 025F     		.ascii	"\002_"
  21              		.text
  22              		.section	.gnu.lto_.inline.4af4a5012a35a736,"",%progbits
  23 0000 789C6362 		.ascii	"x\234cb`b\300\006\342\24043\003\203\250,##\003#\220"
  23      6062C006 
  23      E2A03433 
  23      0383A82C 
  23      23230323 
  24 0015 CD24B9E2 		.ascii	"\315$\271\3420#\003\347\0153\260\026&n\006\240(\230"
  24      302303E7 
  24      0D33B016 
  24      266E06A0 
  24      2898
  25 0027 9CE0C7C4 		.ascii	"\234\340\307\304 \310\017\344H\034\330\315\310\300\266"
  25      20C80FE4 
  25      481CD8CD 
  25      C8C0B6
  26 0036 401E4901 		.ascii	"@\036I\0013\003\207\000P\206e\201<\\\202\231\007(9\301"
  26      33038700 
  26      50866581 
  26      3C5C8299 
  26      072839C1 
  27 004a 6F821F03 		.ascii	"o\202\037\003\000\332\004\0128"
  27      00DA040A 
  27      38
  28              		.text
  29              		.section	.gnu.lto_.pureconst.4af4a5012a35a736,"",%progbits
  30 0000 789C6362 		.ascii	"x\234cb`b`g\200\000f\006+&+f+\000\002\361\000\302"
  30      60626067 
  30      80006606 
ARM GAS  /tmp/ccGVqVeD.s 			page 2


  30      2B262B66 
  30      2B0002F1 
  31              		.text
  32              		.section	.gnu.lto_chMsgSend.4af4a5012a35a736,"",%progbits
  33 0000 789C9553 		.ascii	"x\234\225SAH\024Q\030\376\377\231Yg\335uu\254\240\272"
  33      41481451 
  33      18FEFF99 
  33      5967DD75 
  33      75ACA0BA 
  34 0014 C8120491 		.ascii	"\310\022\004\221\345\224\004\345!\021\202\240\203\227"
  34      E59404E5 
  34      211182A0 
  34      8397
  35 0022 56A94EB1 		.ascii	"V\251N\261\216\313\356\243\326\265\335\2652\017\316"
  35      8ECBEEA3 
  35      D6B5DDB5 
  35      320FCE
  36 0031 AA07C90C 		.ascii	"\252\007\311\014\211\016V\004Ju\021\242N\351\321CX)"
  36      890E5604 
  36      4A7511A2 
  36      4EE9D143 
  36      5829
  37 0043 299D0AF1 		.ascii	")\235\012\361\260i\221\020H\321%D\232\3767of\3265E{"
  37      B0699110 
  37      48D12544 
  37      9AFE376F 
  37      66D63545 
  38 0058 B0EFFDFB 		.ascii	"\260\357\375\373\346}\337\377}\377{\277\004\022l\034"
  38      E67DDFFF 
  38      7DFF7BBF 
  38      04126C1C 
  39 0068 B5F4FBAA 		.ascii	"\265\364\373\252\000\274\241\025}\200\322\320,@\316"
  39      00BCA115 
  39      7D80D2D0 
  39      2C40CE
  40 0077 2F49F254 		.ascii	"/I\362T\005\230\001e\272\036\3142\031\025\261\255 \362"
  40      05980165 
  40      BA1ECC32 
  40      1915B1AD 
  40      20F2
  41 0089 0010BA25 		.ascii	"\000\020\272%Y\301\356K\3109\360\000\214\232\346\275"
  41      59C1EE4B 
  41      C839F000 
  41      8C9AE6BD 
  42 0099 FCB39565 		.ascii	"\374\263\225e|`N\366\215\230k\226\205\310\220\362\325"
  42      7C604EF6 
  42      8D986B96 
  42      85C890F2 
  42      D5
  43 00aa 22180817 		.ascii	"\"\030\010\027\351\017\206\355ER\212\005\274\220&\363"
  43      E90F86ED 
  43      45528A05 
  43      BC9026F3 
  44 00ba 9675677C 		.ascii	"\226ug|yq\016+\367\312\020\305Q\342\363a\022A\245\011"
  44      79710E2B 
  44      F7CA10C5 
  44      51E2F361 
ARM GAS  /tmp/ccGVqVeD.s 			page 3


  44      1241A509 
  45 00ce FDC0500E 		.ascii	"\375\300P\016\322\244\224\003\355i\024q\230\017\372"
  45      D2A49403 
  45      ED691471 
  45      980FFA
  46 00dd 4C73282C 		.ascii	"Ls(,N\003\317A\243\211f\256\257\031%\276\312\357\241"
  46      4E03CF41 
  46      A38966AE 
  46      AF1925BE 
  46      CAEFA1
  47 00f0 677E8244 		.ascii	"g~\202DE\361\011y\213\243\\\015c&\215\013\304Q\015\207"
  47      45F10979 
  47      8BA35C0D 
  47      63268D0B 
  47      C4510D87 
  48 0104 19FA1EC1 		.ascii	"\031\372\036\301\303\234ij\014K\272`\325\354\347\221"
  48      C39C696A 
  48      0C4BBA60 
  48      D5ECE791 
  49 0114 9A445E26 		.ascii	"\232D^&\256U\265\025\266 8\253\023\300,\364\374\\\271"
  49      AE55B515 
  49      B62038AB 
  49      13C02CF4 
  49      FC5CB9
  50 0127 BFB4CF11 		.ascii	"\277\264\317\021\001 \022\330\205A\270!\363:\313\242"
  50      012012D8 
  50      8541B821 
  50      F33ACBA2 
  51 0137 D855D08F 		.ascii	"\330U\320\217\217\315\341\006FF\034\326\3220\217\274"
  51      8FCDE106 
  51      46461CD6 
  51      D2308FBC 
  52 0147 EF03CEF7 		.ascii	"\357\003\316\367\200\340&\3153\013\277\007\253\004\245"
  52      80E026CD 
  52      330BBF07 
  52      AB04A5
  53 0156 2338C430 		.ascii	"#8\3040HR\011\\F.8\211+I\334h\234g'\344j\2575x\324u"
  53      4852095C 
  53      462E3889 
  53      2B49DC68 
  53      9C6727E4 
  54 0170 EBEF825B 		.ascii	"\353\357\202[\314\363|\215a\310\243P\327S\310\205\313"
  54      CCF37C8D 
  54      61C8A350 
  54      D753C885 
  54      CB
  55 0181 208A773F 		.ascii	" \212w?\002E\251O2,/\250\250\330\\\205\342\254>G\215"
  55      0245A94F 
  55      322C2FA8 
  55      A8D85C85 
  55      E2AC3E47 
  56 0196 5FF8581B 		.ascii	"_\370X\033\373l\325{E\022\301\344\300\227\343n\301\014"
  56      FB6CD57B 
  56      4512C1E4 
  56      C097E36E 
  56      C10C
  57 01a8 5151419F 		.ascii	"QQA\237\377x\373O\234(\275+\331\230\244\204\303\306"
ARM GAS  /tmp/ccGVqVeD.s 			page 4


  57      FF78FB4F 
  57      9C28BD2B 
  57      D998A484 
  57      C3C6
  58 01ba 790E37C1 		.ascii	"y\0167\301\374\204\265$E\361\225mW\263o\264\000\017"
  58      FC84B524 
  58      45F1956D 
  58      57B36FB4 
  58      000F
  59 01cc 3936E543 		.ascii	"96\345C\002\256zp\307\247*\220\005s[\247\366\257K\255"
  59      02AE7A70 
  59      C7A72A90 
  59      05735BA7 
  59      F6AF4BAD 
  60 01e0 096F9FAC 		.ascii	"\011o\237\254\357J\021A\347\316\222\307y\275\355\374"
  60      EF4A1141 
  60      E7CE92C7 
  60      79BDEDFC 
  61 01f0 C122F8E9 		.ascii	"\301\"\370\351\015\371\265\255\254\013\370\374\302\323"
  61      0DF9B5AD 
  61      AC0BF8FC 
  61      C2D3
  62 01fe BBFBDD9B 		.ascii	"\273\373\335\233\016\332\326\265\315\257\267\324\271"
  62      0EDAD6B5 
  62      CDAFB7D4 
  62      B9
  63 020b DBB7F0FA 		.ascii	"\333\267\360\372[.\344A\370\021j\251\302h&\346\251\012"
  63      5B2EE441 
  63      F8116AA9 
  63      C26826E6 
  63      A90A
  64 021d 790EFAF2 		.ascii	"y\016\372\362\323\275\001\367E{mQixoMe\270\313\305("
  64      D3BD01F7 
  64      457B6D51 
  64      69786F4D 
  64      65B8CBC5 
  65 0232 76A31168 		.ascii	"v\243\021hdF\376\007\263\333p\036\027O\246\225Q\353"
  65      6446FE07 
  65      B3DB701E 
  65      174FA695 
  65      51EB
  66 0244 EE11E287 		.ascii	"\356\021\342\207\177\235r\205\270\217+\302\270\015;"
  66      7F9D7285 
  66      B88F2BC2 
  66      B80D3B
  67 0253 ACDBF69D 		.ascii	"\254\333\366\235\005\376\243\021\2438F*\354\306\203"
  67      05FEA311 
  67      A338462A 
  67      ECC683
  68 0262 758D17C5 		.ascii	"u\215\027\305\347X%X>@\356\345b\235'Hl6\321\333$k\374"
  68      E7582558 
  68      3E40EEE5 
  68      629D2748 
  68      6C36D1DB 
  69 0279 ACAE2752 		.ascii	"\254\256'R\311\230n\244Z;\365\326\330u\335H\260\026"
  69      C9986EA4 
  69      5A3BF5D6 
ARM GAS  /tmp/ccGVqVeD.s 			page 5


  69      D875DD48 
  69      B016
  70 028b 96CAE8D9 		.ascii	"\226\312\350\331tG\333\025\235\202tV\317\244\015\332"
  70      7447DB15 
  70      9D827456 
  70      CFA40DDA 
  71 029b 4F66E235 		.ascii	"Of\3425\006\310F\266\275a;L\354fV?\323\0309\027\321"
  71      06C846B6 
  71      BD613B4C 
  71      EC66563F 
  71      D3183917 
  72 02b0 599B71B5 		.ascii	"Y\233q\265\243\225\237M\307.\033\311\263\035mFM\002"
  72      A3959F4D 
  72      C72E1BC9 
  72      B31D6D46 
  72      4D02
  73 02c2 B4C6C8F9 		.ascii	"\264\306\310\371pK4\023kO\263#\341\203\307@J\203\232"
  73      704B3413 
  73      6B4FB323 
  73      E183C740 
  73      4A839A
  74 02d5 8C2553E9 		.ascii	"\214%S\351N8\261\003A\036k\"c$Z\211\360/\276\026Z\274"
  74      4E38B103 
  74      411E6B22 
  74      63245A89 
  74      F02FBE16 
  75              		.text
  76              		.section	.gnu.lto_chMsgWait.4af4a5012a35a736,"",%progbits
  77 0000 789CA553 		.ascii	"x\234\245S\337K\024Q\024>gfvG\367\027\222/>\331\022"
  77      DF4B1451 
  77      143E6766 
  77      7647F717 
  77      922F3ED9 
  78 0015 04A1E558 		.ascii	"\004\241\345X\366\007\010A\320C\017\245R=\305\356\354"
  78      F6070841 
  78      D0430FA5 
  78      523DC5EE 
  78      EC
  79 0026 B23BD4BA 		.ascii	"\262;\324\2726\273J&\345\370#\262\210\264\350\301\024"
  79      36BB4A26 
  79      E5F823B2 
  79      88B4E8C1 
  79      14
  80 0037 2111827C 		.ascii	"!\021\202|H\037%\250\004+2\311\022\012B|X\221~<\030"
  80      481F25A8 
  80      042B32C9 
  80      120A427C 
  80      58917E3C 
  81 004c 2421C462 		.ascii	"$!\304bn\347\316\235\231\335\265\2076\272\260\367\236"
  81      6EE7CE9D 
  81      99DDB587 
  81      36BAB0F7 
  81      9E
  82 005d BD73CFF7 		.ascii	"\275s\317\367}\347|\367\012 \300\316\321@\277w\022@"
  82      7DE77CF7 
  82      0A20C0CE 
  82      D140BF77 
ARM GAS  /tmp/ccGVqVeD.s 			page 6


  82      1240
  83 006f 96567401 		.ascii	"\226Vt\001\012C\213\000=e\202 n\312`x\244\321\227\000"
  83      0A438B00 
  83      3D658220 
  83      6ECA6078 
  83      A4D19700 
  84 0083 864F4489 		.ascii	"\206OD\211\357K\210,\000\204nA\224\260\373\0142\020"
  84      EF4B882C 
  84      00846E41 
  84      94B0FB0C 
  84      3210
  85 0095 DC03E386 		.ascii	"\334\003\343\206q'su\373+\3363f\373\357\033[\271\034"
  85      71277375 
  85      FB2BDE33 
  85      66FBEF1B 
  85      5BB91C
  86 00a8 A2864478 		.ascii	"\242\206Dx\010AE8M\1770h.\202T\254`J\230\315\344r[O"
  86      08414538 
  86      4D7F3068 
  86      2E8254AC 
  86      604A98CD 
  87 00c0 D657AFE3 		.ascii	"\326W\257\343\256J\011(\313\315&\231&\321\313\"\037"
  87      AE4A0928 
  87      CBCD2699 
  87      26D1CB22 
  87      1F
  88 00d1 8BFC10C2 		.ascii	"\213\374\020\302q\"\012\260\035\032.\3507\214\241 \337"
  88      71220AB0 
  88      1D1A2EE8 
  88      378CA120 
  88      DF
  89 00e2 04C641A3 		.ascii	"\004\306A\243\231f\246\257\005\005\266\212\213\320\273"
  89      9966A6AF 
  89      0505B68A 
  89      8BD0BB
  90 00f1 F1EDEE5A 		.ascii	"\361\355\356Z\225u\030\010c\202\2524\013@\350\020YC"
  90      95751808 
  90      6382AA34 
  90      0B40E810 
  90      5943
  91 0103 44DE956A 		.ascii	"D\336\225j\270\206c\306p\243\206\246>\246\324\025d\221"
  91      B88663C6 
  91      70A386A6 
  91      3EA6D415 
  91      6491
  92 0115 F3FD86F5 		.ascii	"\363\375\206\365\335\315u\277\201\336\345\225\365A\205"
  92      DDCD75BF 
  92      81DEE595 
  92      F54185
  93 0124 43C650AA 		.ascii	"C\306P\252\205\032\222V\013\223\006\215\013\032\312"
  93      851A9256 
  93      0B93068D 
  93      0B1ACA
  94 0133 A330D263 		.ascii	"\2430\322c\030\025\032\226uA\326\030`Qy\002m\364r\023"
  94      18151A96 
  94      7541D618 
  94      60517902 
ARM GAS  /tmp/ccGVqVeD.s 			page 7


  94      6DF47213 
  95 0147 258C60AD 		.ascii	"%\214`\255V\300q'\347G\2568\242y0\273\360k\303eW\240"
  95      56C07127 
  95      E747AE38 
  95      A27930BB 
  95      F06BC365 
  96 015d F2E331F4 		.ascii	"\362\3431\364r\276\314\207\327\3577P\314\363\237\322"
  96      72BECC87 
  96      D7EF3750 
  96      CCF39FD2 
  97 016d D0E3F07B 		.ascii	"\320\343\360{I\035\243\264\251\004\0063\305\032\021"
  97      491DA3B4 
  97      A9040633 
  97      C51A11
  98 017c 46D1894D 		.ascii	"F\321\211M\352l\337c1\204\217\314\212|]p\211:o!\376"
  98      EA6CDF63 
  98      31848FCC 
  98      8A7C5D70 
  98      893A6F21 
  99 0191 C0D2201D 		.ascii	"\300\322 \035\264W\360\374\313\352\247\355z\273A\224"
  99      B457F0FC 
  99      CBEAA7ED 
  99      7ABB4194 
 100 01a1 E2CBDBDE 		.ascii	"\342\313\333\336B\314\233\262\370\026\3723[s\036\333"
 100      42CC9BB2 
 100      F816FA33 
 100      5B731EDB 
 101 01b1 17A7513E 		.ascii	"\027\247Q>\025\371ee$~fz\300\316\223LkY\233fr\037E\033"
 101      15F96565 
 101      247E667A 
 101      C0CE934C 
 101      6B599B66 
 102 01c9 DD6DB7BF 		.ascii	"\335m\267\277\346\177:\237\355\373\2146\242\\T\376m"
 102      E67F3A9F 
 102      EDFB8C36 
 102      A25C54FE 
 102      6D
 103 01da AB7C346B 		.ascii	"\253|4kw\357\250\035\362\020\313+kK\003s\362\037\356"
 103      77EFA81D 
 103      F210CB2B 
 103      6B4B0373 
 103      F21FEE
 104 01ed 6D87F2E6 		.ascii	"m\207\362\346\211\334<\277e\336\330\255\027Uu\204\347"
 104      89DC3CBF 
 104      65DED8AD 
 104      17557584 
 104      E7
 105 01fe C8F6580C 		.ascii	"\310\366X\014\342>\316`\232\364\3141iyx\342\346\201"
 105      E23ECE60 
 105      9AF4CC31 
 105      697978E2 
 105      E681
 106 0210 103E3565 		.ascii	"\020>5e\006x\341\205\316\370\013\325I\305\271\363\323"
 106      0678E185 
 106      CEF80BD5 
 106      49C5B9F3 
 106      D3
ARM GAS  /tmp/ccGVqVeD.s 			page 8


 107 0221 1E9E69D5 		.ascii	"\036\236i\325u\2604\336\030\353?\245/|\257,J\277\274"
 107      75B034DE 
 107      18EB3FA5 
 107      2F7CAF2C 
 107      4ABFBC
 108 0234 833A5048 		.ascii	"\203:PH\355*H\227\315\364\231\225\237\203\273y\027,"
 108      ED2A4897 
 108      CDF49995 
 108      9F83BB79 
 108      172C
 109 0246 002FD9EB 		.ascii	"\000/\331\353\264\265H\270;\357\277\237\202R\336r\010"
 109      B4B548B8 
 109      3BEFBF9F 
 109      8252DE72 
 109      08
 110 0257 1F9066F3 		.ascii	"\037\220f\363\355B\301\333\015\341C\254\346\260K\320"
 110      ED42C1DB 
 110      0DE143AC 
 110      E6B04BD0 
 111 0267 33DD7BC2 		.ascii	"3\335{\302\266\330\3177\233\351\012\320\235bg\025%\236"
 111      B6D8CF37 
 111      9BE90AD0 
 111      9D626715 
 111      259E
 112 0279 4C441535 		.ascii	"LD\0255\031\351T\"\321\016E\215ka-\231R\322z{\3539\205"
 112      19E95422 
 112      D10E458D 
 112      6B612D99 
 112      52D27A7B 
 113 0290 023DADA4 		.ascii	"\002=\255\244t\225\366\023\251X\235\012B\272\255\361"
 113      7495F613 
 113      A9589D0A 
 113      42BAADF1 
 114 02a0 6F29D18B 		.ascii	"o)\321\213i\345\310\361\246cM\212\326\252\236o\217\260"
 114      69E5C8F1 
 114      A6634D8A 
 114      D6AA9E6F 
 114      8FB0
 115 02b2 B37AF4AC 		.ascii	"\263z\364\254\2328\332\336\252\326\305\241\342x\323"
 115      9A38DADE 
 115      AAD6C5A1 
 115      E278D3
 116 02c1 C9603894 		.ascii	"\311`8\224\212\266\351\332\376\340\336z\020t\220\023"
 116      8AB6E9DA 
 116      FEE0DE7A 
 116      10749013 
 117 02d1 D14452EF 		.ascii	"\321DR\357\204\206\022\3648\250\246\2468\034\376\247"
 117      848612F4 
 117      38A8A6A6 
 117      381CFEA7 
 118 02e1 9C941A8F 		.ascii	"\234\224\032\217P\322o\030;q4"
 118      50D26F18 
 118      3B7134
 119              		.text
 120              		.section	.gnu.lto_chMsgRelease.4af4a5012a35a736,"",%progbits
 121 0000 789C8D50 		.ascii	"x\234\215P1K\303@\030}\337%Eq\352\250K\311\342&=\301"
 121      314BC340 
ARM GAS  /tmp/ccGVqVeD.s 			page 9


 121      187DDF25 
 121      4571EAA8 
 121      4BC9E226 
 122 0016 3F501004 		.ascii	"?P\020\004\207.\255\202N\222^C\0234\215$\255X\034\232"
 122      872EAD82 
 122      4E925E43 
 122      13348D24 
 122      AD581C9A 
 123 002a 968AE2D4 		.ascii	"\226\212\342\324\301\301EDPD\207\012\216\342P\\\205"
 123      C1C14544 
 123      5044870A 
 123      8EE2505C 
 123      85
 124 003b 8AA0BBE0 		.ascii	"\212\240\273\340\346T7\351RsI\015\342\242\007w\337\343"
 124      E65437E9 
 124      5273490D 
 124      E2A20777 
 124      DFE3
 125 004d BE77EFBD 		.ascii	"\276w\357\275\373\030\030~\257\251`\347\010\270\017"
 125      FB18187E 
 125      AFA960E7 
 125      08B80F
 126 005c 2A2920D6 		.ascii	"*) \326\356\001\215qF$\001\010uF\365U\012\271\327\254"
 126      EE018D71 
 126      46240108 
 126      7546F555 
 126      0AB9D7AC 
 127 0070 FB3A1C76 		.ascii	"\373:\034vn\017:wt\305&\024\262\011jp\310n\002-\337"
 127      6E0F3A77 
 127      74C52614 
 127      B2096A70 
 127      C86E022D 
 128 0085 6F6B8008 		.ascii	"ok\200\010\271K\301)\005\226\211\311\252\364\320\374"
 128      B94BC129 
 128      059689C9 
 128      AAF4D0FC 
 129 0095 783F7C9B 		.ascii	"x?|\233\214i:\235R\002\241\003\301Sd2%\212\227B\213"
 129      8C693A9D 
 129      5202A103 
 129      C1536432 
 129      258A9742 
 130 00aa 8EFDA38C 		.ascii	"\216\375\243\214\025\231\256\220E\244I\024\367\367F"
 130      1599AE90 
 130      45A44914 
 130      F7F746
 131 00b9 FDD16F1E 		.ascii	"\375\321o\036\261\333?9\037|R,\036\201\356\303s3\361"
 131      B1DB3F39 
 131      1F7C522C 
 131      1E81EEC3 
 131      7333F1
 132 00cc ED242892 		.ascii	"\355$(\222\303\016\006\376\276\237\264H\021\304t\272"
 132      C30E06FE 
 132      BE9FB448 
 132      11C474BA 
 133 00dc 8C529448 		.ascii	"\214R\224H)\221j\221\012\374'\252Ng\301\260\302h\370"
 133      29916A91 
 133      0AFC27AA 
ARM GAS  /tmp/ccGVqVeD.s 			page 10


 133      4E67C1B0 
 133      C268F8
 134 00ef 114DA70B 		.ascii	"\021M\247\013JE6Oh\364o^\324\370-\242\251\220\234\206"
 134      4A45364F 
 134      68F46F5E 
 134      D4F82DA2 
 134      A9909C86 
 135 0103 E4726E3A 		.ascii	"\344rn:\266\301\205S\254\361\242\261\305\205i\025,\307"
 135      B6C18553 
 135      ACF1A2B1 
 135      C5856915 
 135      2CC7
 136 0115 E315B75A 		.ascii	"\343\025\267Z^\347\001p+\334sEpo{\245\264@\346/\276"
 136      5EE70170 
 136      2BDC7345 
 136      706F7BA5 
 136      B440E62F 
 137 012a B15DE1F3 		.ascii	"\261]\341\363\331\374b\236[e\261Q-J\256k\254\011{\241"
 137      D9FC629E 
 137      5B65B151 
 137      2D4AAE6B 
 137      AC097BA1 
 138 013e 5A166913 		.ascii	"Z\026i\023\311l>\247\025t\317\330t\255\031mz\026\314"
 138      C96C3EA7 
 138      1574CFD8 
 138      74AD196D 
 138      7A16CC
 139 0151 C5986DD8 		.ascii	"\305\230m\330\216[\303\334?\302\304\252a \023_\326\354"
 139      8E5BC3DC 
 139      3FC2C4AA 
 139      6120135F 
 139      D6EC
 140 0163 8E0F     		.ascii	"\216\017"
 141              		.text
 142              		.section	.gnu.lto_.symbol_nodes.4af4a5012a35a736,"",%progbits
 143 0000 789C45C8 		.ascii	"x\234E\310\273\015\2000\020\003P\373\216P\262\002\243"
 143      BB0D8030 
 143      100350FB 
 143      8E50B202 
 143      A3
 144 0011 5E240A28 		.ascii	"^$\012(\231\200&30\003\0353 \276\005\314\200\210\004"
 144      99802633 
 144      30031D33 
 144      20BE05CC 
 144      808804
 145 0024 226EEC67 		.ascii	"\"n\354g\201\300\360Ef\306\335\216\200Y\327\320m\214"
 145      81C0F045 
 145      66C6DD8E 
 145      8059D7D0 
 145      6D8C
 146 0036 0BB2D098 		.ascii	"\013\262\320\230^Yi\222\310\203\246/\275'wZ\226t\322"
 146      5E596992 
 146      C883A62F 
 146      BD27775A 
 146      9674D2
 147 0049 DC2F8543 		.ascii	"\334/\205C5\014\252\310\020\352\253T\211\335\027\252"
 147      350CAAC8 
ARM GAS  /tmp/ccGVqVeD.s 			page 11


 147      10EAAB54 
 147      89DD17AA 
 148 0059 39C27413 		.ascii	"9\302t\023\017\277\012%\337"
 148      0FBF0A25 
 148      DF
 149              		.text
 150              		.section	.gnu.lto_.refs.4af4a5012a35a736,"",%progbits
 151 0000 789C6362 		.ascii	"x\234cb`b\340f\200\000F bb\002R\214\014\000\001s\000"
 151      6062E066 
 151      80004620 
 151      62620252 
 151      8C0C0001 
 152 0016 18       		.ascii	"\030"
 153              		.text
 154              		.section	.gnu.lto_.decls.4af4a5012a35a736,"",%progbits
 155 0000 789CBD5A 		.ascii	"x\234\275Z{p\024E\032\237G\262\233Mr\200zrXuW\256Wz"
 155      7B701445 
 155      1A9F47B2 
 155      9B4D7280 
 155      7A725875 
 156 0018 67696978 		.ascii	"giix)Pu\012\036\326\211u\345\025%ei\325\375\261\016"
 156      2950750A 
 156      1ED68975 
 156      E5152565 
 156      69D5FDB1 
 157 002d 9B49B29A 		.ascii	"\233I\262\232}0;\011PwuN\022@\305\003B\202\200\310#"
 157      7D303B09 
 157      5077754E 
 157      1240C503 
 157      428280C8 
 158 0042 A8515494 		.ascii	"\250QT\224\227\312C\002\213B\210<\202F\022\344!\004"
 158      97CA4302 
 158      8B42883C 
 158      824612E4 
 158      2104
 159 0054 35209408 		.ascii	"5 \224\010\242$\010H\356\353ofv\247ggvgr\334MU\367\364"
 159      A2240848 
 159      EEEB6F66 
 159      76A76767 
 159      766772DC 
 160 006c F474FFFA 		.ascii	"\364t\377\372{\366\343\233\341\030\216\331\3172L/\\"
 160      7BF6E39B 
 160      E1188ED9 
 160      CF324C2F 
 160      5C
 161 007d FFBA9761 		.ascii	"\377\272\227a\376\356a\230\034\206a\356\207\004\325"
 161      FEEE6198 
 161      1C8661EE 
 161      8704D5
 162 008c CC7246BD 		.ascii	"\314rF\275\240\232y\033\222\010\225!H\223 U@\232\312"
 162      A09A791B 
 162      92089521 
 162      48932055 
 162      409ACA
 163 009f AAEDFEC1 		.ascii	"\252\355\376\3012\324E\332\336\010i=\244~\220\012!\265"
 163      32D445DA 
 163      DE08693D 
ARM GAS  /tmp/ccGVqVeD.s 			page 12


 163      A47E900A 
 163      21B5
 164 00b1 6B6D6B20 		.ascii	"kmk \373'\244\016H\007 5C\335A\270\277\003\367\015\220"
 164      FB27A40E 
 164      48072035 
 164      43DD41B8 
 164      BF03F70D 
 165 00c6 EE83F268 		.ascii	"\356\203\362h\270\337\306\252\343\037\206{%\244#\220"
 165      B8DFC6AA 
 165      E31F867B 
 165      25A42390 
 166 00d6 24480550 		.ascii	"$H\005PW\015\367zH\177\201\364'H\267B\272\023\322\026"
 166      570DF77A 
 166      487F81F4 
 166      2748B742 
 166      BA13D216 
 167 00ea 78F720DC 		.ascii	"x\367 \334\023p\037\004\367?\262*?\204\236/5\232\011"
 167      13701F04 
 167      F73FB22A 
 167      3F849E2F 
 167      359A09
 168 00fd ED3C3C4F 		.ascii	"\355<<O\204\373\223l:\355\204\307\376\026\264\033i5"
 168      84FB936C 
 168      3AED84C7 
 168      FE16B41B 
 168      6935
 169 010f F240E825 		.ascii	"\362@\350%t\037\321\350%4z\0154\022\372\306j\264\351"
 169      741FD1E8 
 169      25347A0D 
 169      3412FAC6 
 169      6AB4E9
 170 0122 74E568E3 		.ascii	"t\345h\343\234\320\3509k#G\"\353\\\206\036\373\002\244"
 170      9CD0E839 
 170      6B234722 
 170      EB5C861E 
 170      FB02A4
 171 0135 A7B476BC 		.ascii	"\247\264v\274\326\246[\323\005\007\317\021\270GM8>\346"
 171      D6A65BD3 
 171      0507CF11 
 171      B8474D38 
 171      3EE6
 172 0147 3945A956 		.ascii	"9E\251V:\033\225A\013\201\247'X\201\355\347c\362\260"
 172      3A1B9541 
 172      0B81A727 
 172      5881EDE7 
 172      63F2B0
 173 015a 50E8C3A1 		.ascii	"P\350\303\241oc^S\224\332\316\035'\276\345\025%O`\227"
 173      6F635E53 
 173      94DACE1D 
 173      27BEE515 
 173      254F6097 
 174 016e B33E80FB 		.ascii	"\263>\200\373+\313\334\301\274\251\300\033\350\177\247"
 174      2BCBDCC1 
 174      BCA9C01B 
 174      E87FA7
 175 017d 09D52574 		.ascii	"\011\325%t\317\214w\356D\350F\204VX\226\021\330\327"
 175      CF8C77EE 
ARM GAS  /tmp/ccGVqVeD.s 			page 13


 175      44E84684 
 175      56589611 
 175      D8D7
 176 018f D83B5C03 		.ascii	"\330;\\\003\255\231\271t$\002\255@\240&\023\220\300"
 176      AD99B974 
 176      2402AD40 
 176      A0261390 
 176      C0
 177 01a0 42B5E1C2 		.ascii	"B\265\341\302g\275\001A\303\327Z\241\227\346\351\232"
 177      67BD0141 
 177      C3D75AA1 
 177      97E6E99A 
 178 01b0 B6BD9959 		.ascii	"\266\275\231Y\2524tv.\233}d\322KJb\232\322\333\373\014"
 178      AA347476 
 178      2E9B7D64 
 178      D24B4A62 
 178      9AD2DBFB 
 179 01c5 33907911 		.ascii	"3\220y\021\244\2514\314P\024VF\226\361a\\K\212e\277"
 179      A4A934CC 
 179      50145646 
 179      96F1615C 
 179      4B8A65BF 
 180 01d9 CE728E41 		.ascii	"\316r\216A-'5\265\274\203,\367X\311\316\021PO\363\366"
 180      2D2735B5 
 180      BC832CF7 
 180      58C9CE11 
 180      504FF3F6 
 181 01ed 356C350C 		.ascii	"5l5\014.\260\253\021\352\227>C\255\331\265^U\303:\004"
 181      2EB0AB11 
 181      EA973E43 
 181      ADD9B55E 
 181      55C33A04 
 182 0201 9ACE99D5 		.ascii	"\232\316\231\325\3401\251\301C\213\013\036\311H\027"
 182      E031A9C1 
 182      438B0B1E 
 182      C94817
 183 0210 C9E4C33E 		.ascii	"\311\344\303>\243\325\220\007/\363\177\357g\305&\201"
 183      A3D59007 
 183      2FF37FEF 
 183      67C52681 
 184 0220 58C90EC4 		.ascii	"X\311\016\304\022\217\256\005s\317Lb\243\252p\256g\346"
 184      128FAE05 
 184      73CF4C62 
 184      A3AA70AE 
 184      67E6
 185 0232 123CBF41 		.ascii	"\022<\277AL\0159:\300\203)9m\255\333\276\234\255A\221"
 185      4C0D393A 
 185      C0832939 
 185      6DADDBBE 
 185      9CAD4191 
 186 0246 6F60AF07 		.ascii	"o`\257\007\240\026\223\244\262\002q\314g\330\345C\350"
 186      A01693A4 
 186      B20271CC 
 186      67D8E543 
 186      E8
 187 0257 AE764468 		.ascii	"\256vDh\245\263g\376\321*\266\012\241\311;\206\202\245"
 187      A5B367FE 
ARM GAS  /tmp/ccGVqVeD.s 			page 14


 187      D12AB60A 
 187      A1C93B86 
 187      82A5
 188 0269 AE5B9806 		.ascii	"\256[\230\006\240<qy\306\222\233\224\206\217\240\375"
 188      A03C7179 
 188      C6929B94 
 188      868FA0FD 
 189 0279 7AB60070 		.ascii	"z\266\000pky\035\327J\002ZQ\275\264\0064\336\325\346"
 189      6B791DD7 
 189      4A025A51 
 189      BDB40634 
 189      DED5E6
 190 028c C25A4107 		.ascii	"\302ZA\007[\340\032\314O\201\325\357\\\214\304i3\201"
 190      5BE01ACC 
 190      4F81D5EF 
 190      5C8CC469 
 190      3381
 191 029e 03136CD4 		.ascii	"\003\023l\324\335\342c4\301\245\274\345\224\342\304"
 191      DDE26334 
 191      C1A5BCE5 
 191      94E2C4
 192 02ad 2D66ECD8 		.ascii	"-f\354\330\246\271E3B\275\336g\250537\217B\232>A\240"
 192      A6B94533 
 192      42BDDE67 
 192      A8353337 
 192      8F429A3E 
 193 02c3 55BCD92D 		.ascii	"U\274\331-\274&\267\360\322f\352\365\245\012\304:\373"
 193      BC26B7F0 
 193      D266EAF5 
 193      A50AC43A 
 193      FB
 194 02d4 33FFE3E6 		.ascii	"3\377\343\346\034\263\311\211\342\362\354\254@\351\354"
 194      1CB3C989 
 194      E2F2ECAC 
 194      40E9EC
 195 02e3 9EDFC592 		.ascii	"\236\337\305\222\031\216\327,\271\301c'#\216\331\206"
 195      198ED72C 
 195      B9C16327 
 195      238ED986 
 196 02f3 63B59A2D 		.ascii	"c\265\232-y\335\3223\325\232%\267:\262\344\365\273\027"
 196      79DDD233 
 196      D59A25B7 
 196      3AB2E4F5 
 196      BB17
 197 0305 A0B16475 		.ascii	"\240\261duI\217>~1\216_\223C\306\377\334<\376\326\257"
 197      498F3E7E 
 197      318E5F93 
 197      43C6FFDC 
 197      3CFED6AF 
 198 0319 BEBD7FA1 		.ascii	"\276\275\177\241\242\014P_e\037\376\330\276y\351\303"
 198      A20C505F 
 198      651FFED8 
 198      BE79E9C3 
 199 0329 0BECFD37 		.ascii	"\013\354\3757f2\215uKw\236\327\230<\200\036\2637\307"
 199      66328D75 
 199      4B779ED7 
 199      983C801E 
ARM GAS  /tmp/ccGVqVeD.s 			page 15


 199      B337C7
 200 033c 6C1CA30B 		.ascii	"l\034\243\013h\365\301\263\241\001\307t$\311\357\223"
 200      68F5C1B3 
 200      A101C774 
 200      24C9EF93 
 201 034c C3029F89 		.ascii	"\303\002\237\211\321o\256U\224\347=:\015\207\\#\372"
 201      D16FAE55 
 201      94E73D3A 
 201      0D875C23 
 201      FA
 202 035d 29499CDF 		.ascii	")I\234\337\207S\200\012v\324\011\230\255%U'~2\202}\345"
 202      8753800A 
 202      76D40998 
 202      AD255527 
 202      7E32827D 
 203 0372 1A8CA6AC 		.ascii	"\032\214\246\254\333\010v\302\011\330\000{\312.\032"
 203      DB0876C2 
 203      09D8007B 
 203      CA2E1A
 204 0381 C14EBB06 		.ascii	"\301N\273\006\243)\273d\004\373\336\011\330 {\312\256"
 204      A329BB64 
 204      04FBDE09 
 204      D8207BCA 
 204      AE
 205 0392 18C1CEBB 		.ascii	"\030\301\316\273\006\243)\273j\004\353v\002\346\267"
 205      06A329BB 
 205      6A04EB76 
 205      02E6B7
 206 03a1 A7ACB6CD 		.ascii	"\247\254\266\315\000v\3115\030MY\235\021\354\252\023"
 206      0076C935 
 206      184D599D 
 206      11ECAA13 
 207 03b1 B0DBED29 		.ascii	"\260\333\355)\233g\004\253\316u\013FS6\337\0106\303"
 207      9B6704AB 
 207      CE750B46 
 207      5336DF08 
 207      36C3
 208 03c3 09D8607B 		.ascii	"\011\330`{\312\026\032\301f\272\006\243)[d\004\233\355"
 208      CA161AC1 
 208      66BA06A3 
 208      295B6404 
 208      9BED
 209 03d5 046CA43D 		.ascii	"\004l\244=e\213\215`u\256\301h\312V\033\301\346;\001"
 209      658B8D60 
 209      75AEC168 
 209      CA561BC1 
 209      E63B01
 210 03e8 1B634FD9 		.ascii	"\033cO\331Z#\330K\256\301h\312\3363\202-v\0026\316\236"
 210      5A23D84B 
 210      AEC168CA 
 210      DE33822D 
 210      760236CE 
 211 03fd B20F8C60 		.ascii	"\262\017\214`\313\\\203\321\224m0\202\275\342\004l\274"
 211      CB5C83D1 
 211      946D3082 
 211      BDE2046C 
 211      BC
ARM GAS  /tmp/ccGVqVeD.s 			page 16


 212 040e 3D659B8C 		.ascii	"=e\233\214`\215\256\301h\3126\033\301V8\001{\302\236"
 212      608DAEC1 
 212      68CA361B 
 212      C1563801 
 212      7BC29E
 213 0421 B22D46B0 		.ascii	"\262-F\260\225\256\301h\312>5\202\255v\002\366\244\005"
 213      95AEC168 
 213      CA3E3582 
 213      AD7602F6 
 213      A405
 214 0433 65C9CBAA 		.ascii	"e\311\313\252\037Y\246\333\330\344\272\3151\353r\365"
 214      1F59A6DB 
 214      D8E4BACD 
 214      31EB72F5 
 215 0443 2D8ECB35 		.ascii	"-\216\3135\232Ia\254\317u\273%\243\370\206\223\301\211"
 215      9A4961AC 
 215      CF75BB25 
 215      A3F88693 
 215      C189
 216 0455 E56C7D8D 		.ascii	"\345l}\215\3222X\337\23579A\314\260\000.\332i\330\352"
 216      D23258DF 
 216      9D373941 
 216      CCB0002E 
 216      DA69D8EA 
 217 0469 EF700D66 		.ascii	"\357p\015f2e\002F\355\235\222\307\377D\346\343?\211"
 217      32650246 
 217      ED9D92C7 
 217      FF44E6E3 
 217      3F89
 218 047b 44708658 		.ascii	"Dp\206X\301 \353\266\002;\217\273\015\362\0279_\222"
 218      C120EBB6 
 218      023B8FBB 
 218      0DF21739 
 218      5F92
 219 048d 0AB5AC97 		.ascii	"\012\265\254\227z1^\2627\327*\250\201\000\231\273\332"
 219      7A315EB2 
 219      37D72AA8 
 219      810099BB 
 219      DA
 220 049e 59421D67 		.ascii	"YB\035g\260\2046'b\312\260\264\037\333\271\3707Jg\202"
 220      B0843627 
 220      62CAB0B4 
 220      1FDBB9F8 
 220      374A6782 
 221 04b2 D5C33107 		.ascii	"\325\3031\007\315x\024\317\331W\367\356\235\005\253"
 221      CD7814CF 
 221      D957F7EE 
 221      9D05AB
 222 04c1 9F741E68 		.ascii	"\237t\036hi\324\203A/sd\364\343\271\346\335j\243\313"
 222      69D48341 
 222      2F7364F4 
 222      E3B9E6DD 
 222      6AA3CB
 223 04d4 480BC79C 		.ascii	"H\013\307\234r\315\301\355&\273\336^\307\376X\255,\034"
 223      72CDC1ED 
 223      26BBDE5E 
 223      C7FE58AD 
ARM GAS  /tmp/ccGVqVeD.s 			page 17


 223      2C1C
 224 04e6 EC9C8D2E 		.ascii	"\354\234\215.\235\215\006d\343\207k\300\306\317\256"
 224      9D8D0664 
 224      E3876BC0 
 224      C6CFAE
 225 04f5 D9186C60 		.ascii	"\331\030l`\203\034\334/\324\251\356y\003S\227\371\310"
 225      831CDC2F 
 225      D4A9EE79 
 225      035397F9 
 225      C8
 226 0506 84047237 		.ascii	"\204\004r7P\307\225\304\301]\254_\255\316vTQ\022=\273"
 226      50C795C4 
 226      C15DAC5F 
 226      ADCE7654 
 226      51123DBB 
 227 051a 166B677E 		.ascii	"\026kg~5x\244xX\015\322\345\364\244\341\315\333\215"
 227      3578A478 
 227      580DD2E5 
 227      F4A4E1CD 
 227      DB8D
 228 052c 13810AF6 		.ascii	"\023\201\012\366\354\177\005V\235X\367\202\036\220\030"
 228      EC7F0556 
 228      9D58F782 
 228      1E9018
 229 053b 8DF188FF 		.ascii	"\215\361\210\377\022\356\263\335nC\010\323Ok\306\361"
 229      12EEB3DD 
 229      6E4308D3 
 229      4F6BC6F1 
 230 054b 2E1AC702 		.ascii	".\032\307\002\217\3318\232\315\306\341\344D\375j_\371"
 230      8FD9389A 
 230      CDC6E1E4 
 230      44FD6A5F 
 230      F9
 231 055c 485E1CF3 		.ascii	"H^\034\363\226\307\301\344\341\267\325SgOG\217fcY\217"
 231      96C7C1E4 
 231      E1B7D553 
 231      674F478F 
 231      6663598F 
 232 0570 E57AA4AA 		.ascii	"\345z\244\252\255\271\212\235\206\347\323\3678\022\251"
 232      ADB98A9D 
 232      86E7D3F7 
 232      3812A9
 233 057f 7AD7240D 		.ascii	"z\327$\015\007\347\373&\354\262\236K\213T\355\325#U"
 233      07E7FB26 
 233      ECB29E4B 
 233      8B54EDD5 
 233      2355
 234 0591 E49D83F3 		.ascii	"\344\235\203\363=\025\251\022\330\255,\247\341\366U"
 234      3D15A912 
 234      D8AD2CA7 
 234      E1F655
 235 05a0 A2941253 		.ascii	"\242\224\022S\004\012\354F\\)6q\267\030\245\277\327"
 235      040AEC46 
 235      5C293671 
 235      B718A5BF 
 235      D7
 236 05b1 B5F4FD46 		.ascii	"\265\364\375F\351'.\357^\314\022\372-B\022c\214\353"
ARM GAS  /tmp/ccGVqVeD.s 			page 18


 236      E9272EEF 
 236      5ECC12FA 
 236      2D421263 
 236      8CEB
 237 05c3 773248D8 		.ascii	"w2H\330:W\023}\023\212\376\200\215\350\307\330\001q"
 237      3A57137D 
 237      138AFE80 
 237      8DE8C7D8 
 237      0171
 238 05d5 CC49EC92 		.ascii	"\314I\354\222H\023}\307~]\364\011G\242o\267\024}\302"
 238      48137DC7 
 238      7E5DF409 
 238      47A26FB7 
 238      147DC2
 239 05e8 BDE835BC 		.ascii	"\275\3505\274\216T\220P`\267\271\006\363g\322c\302\240"
 239      8E549050 
 239      60B7B906 
 239      F367D263 
 239      C2A0
 240 05fa C78F508F 		.ascii	"\307\217P\217\037\203\036\005v;\255\315\213fmR\242\323"
 240      1F831E05 
 240      763BADCD 
 240      8B666D52 
 240      A2D3
 241 060c 8AB6E745 		.ascii	"\212\266\347E%Q\337J\317\2415^\007\326\221\341\224\267"
 241      2551DF4A 
 241      CFA1355E 
 241      07D691E1 
 241      94B7
 242 061e B41545A2 		.ascii	"\264\025E\242\3169\317\273\006\363S`M\263\2278\012\205"
 242      CE39CFBB 
 242      06F35360 
 242      4DB39738 
 242      0A85
 243 0630 29AC7167 		.ascii	")\254qg\3061\363p\334=f{\271p\351\323g5{\331\343\300"
 243      C631F370 
 243      DC3D667B 
 243      B970E9D3 
 243      67357BD9 
 244 0646 5E6081E9 		.ascii	"^`\201\351\362)u\205\272\341\266&Q3\210:\203\265\\>"
 244      F2297585 
 244      BAE1B626 
 244      5133883A 
 244      83B55C3E 
 245 065a F5098B70 		.ascii	"\365\011\213p\352N\263\303\014\227u#L\303]\025[\006"
 245      EA4EB3C3 
 245      0C977523 
 245      4CC35D15 
 245      5B06
 246 066c BB138CEA 		.ascii	"\273\023\214\352\221\211\303\033\311\022\333\216<\035"
 246      9189C31B 
 246      C912DB8E 
 246      3C1D
 247 067a F59A5705 		.ascii	"\365\232W\005U2\006C\334c0\304V4\304}h\210\237a\376"
 247      55320643 
 247      DC6330C4 
 247      5634C47D 
ARM GAS  /tmp/ccGVqVeD.s 			page 19


 247      68889F61 
 248 068f B9D11CED 		.ascii	"\271\321\034\355V\371\375\306\255\343\011\327|\373M"
 248      56F9FDC6 
 248      ADE309D7 
 248      7CFB4D
 249 069e DAB11B66 		.ascii	"\332\261\033f\267q\2303Nl\317>(\000\363z{\275~\316P"
 249      B7719833 
 249      4E6CCF3E 
 249      2800F37A 
 249      7BBD7ECE 
 250 06b3 83F03DAE 		.ascii	"\203\360=\256\021ik\376a6\265#\250\316s\0007\306\202"
 250      11696BFE 
 250      6136B523 
 250      A8CE7300 
 250      37C682
 251 06c6 40ABCBF8 		.ascii	"@\253\313\370\011\005\354\225%j\332\302\022\005%0\377"
 251      0905EC95 
 251      256ADAC2 
 251      12052530 
 251      FF
 252 06d7 08F3BD98 		.ascii	"\010\363\275\230\317B\305\315\301|.\346\0131_\204\371"
 252      CF42C5CD 
 252      C17C2EE6 
 252      0B315F84 
 252      F9
 253 06e8 32CC5FC3 		.ascii	"2\314_\303|\035\346\2331o\306\274\005\363]\230\037\302"
 253      7C1DE69B 
 253      316FC6BC 
 253      05F35D98 
 253      1FC2
 254 06fa FC881303 		.ascii	"\374\210\023\003Pg\310\244\231i\037\235\3249\007\013"
 254      5067C8A4 
 254      99691F9D 
 254      D439070B 
 255 070a 8FF1490C 		.ascii	"\217\361I\014\216\231\231G\033\345\255\314\253\212R"
 255      8E999947 
 255      1BE5ADCC 
 255      AB8A52
 256 0719 473E37AE 		.ascii	"G>7\256!\032\031\247{\320<l\3676{\263\345\270j+\265"
 256      211A19A7 
 256      7BD03C6C 
 256      F7367BB3 
 256      E5B86A2B 
 257 072e 73ADF2B2 		.ascii	"s\255\362\2628N\237\342\026d\351\246\021\365\007\246"
 257      384E9FE2 
 257      1664E9A6 
 257      11F507A6 
 258 073e 91B8D3AA 		.ascii	"\221\270\323\252\031\323\007\344\350\225\366\3354F\217"
 258      19D307E4 
 258      E895F6DD 
 258      34468F
 259 074d 719C512D 		.ascii	"q\234Q-\352\207R8\355\314\002\315W'z{G\323\337IU\032"
 259      EA875238 
 259      EDCC02CD 
 259      57277A7B 
 259      47D3DF49 
 260 0763 EDA47682 		.ascii	"\355\244v\202\033\310\320\342\341\230\227M\262\321\350"
ARM GAS  /tmp/ccGVqVeD.s 			page 20


 260      1BC8D0E2 
 260      E198974D 
 260      B2D1E8
 261 0772 AC56D6AE 		.ascii	"\254V\326\256P|\032\313\320\240\213\313H\346IK2?\234"
 261      507C1ACB 
 261      D0A08BCB 
 261      48E6494B 
 261      323F9C
 262 0785 B91B2628 		.ascii	"\271\033&(\345Jo/o&\323&\374O\260Ns\324\227D\225\206"
 262      E54A6F2F 
 262      6F26D326 
 262      FC4FB04E 
 262      73D49744 
 263 079b 2C1A6EB4 		.ascii	",\032n\264\324\260r\271x\234n+\3079\262\232\236\262"
 263      D4B072B9 
 263      789C6E2B 
 263      C739B29A 
 263      9EB2
 264 07ad 6183D6ED 		.ascii	"a\203\326\3552]\267\002\373u\226n\264ng)\323\007\260"
 264      325DB702 
 264      FB75966E 
 264      B46E6729 
 264      D307B0
 265 07c0 C81CA3F5 		.ascii	"\310\034\243\365\242\\\352L\272\224:k\311\206o\006"
 265      A25CEA4C 
 265      BA943A6B 
 265      C9866F06 
 266 07d0 3BB7A6A1 		.ascii	";\267\246\241E9G\366\304\316\005u\336,\250\345H2%\230"
 266      453947F6 
 266      C4CE0575 
 266      DE2CA8E5 
 266      48322598 
 267 07e4 B569EA55 		.ascii	"\265i\352U\233\376dEJb\335\241\3317)\313]\333U\267\225"
 267      9BFE6445 
 267      4A62DDA1 
 267      D93729CB 
 267      5DDB55B7 
 268 07f9 C64C8424 		.ascii	"\306L\204$l\010\271hI\310\306E\377N\022\242Z\004\307"
 268      6C08B968 
 268      49C8C645 
 268      FF4E12A2 
 268      5A04C7
 269 080c ECB141B8 		.ascii	"\354\261A\270D#\374\236YN\020z\027\314g\001AQ\256\366"
 269      4423FC9E 
 269      594E107A 
 269      17CC6701 
 269      4151AEF6 
 270 0820 F65A6D2D 		.ascii	"\366Zm-\033x\235\213\341\214ao\371\275\376\001\372\012"
 270      1B789D8B 
 270      E18C616F 
 270      F9BDFE01 
 270      FA0A
 271 0832 2E67074D 		.ascii	".g\007Mcf\005\342\230.\354\322\233\276\255\3371]\333"
 271      636605E2 
 271      982EECD2 
 271      9BBEADDF 
 271      315DDB
ARM GAS  /tmp/ccGVqVeD.s 			page 21


 272 0845 2BF43ADA 		.ascii	"+\364:\332+,\351\260\335\026w&W\341\337\032hok?\256"
 272      2B2CE9B0 
 272      DD167726 
 272      57E1DF1A 
 272      686F6B3F 
 273 085a D15EC313 		.ascii	"\321^\303\023\332\317f\247\235\006\342\230+\330e\006"
 273      DACF66A7 
 273      9D06E298 
 273      2BD86506 
 274 086a 9F46FBFE 		.ascii	"\237F\373\376i\032\355\344]v\332?oSi\327w:3}:n\337v"
 274      691AEDE4 
 274      5D76DA3F 
 274      6F5369D7 
 274      773A337D 
 275 0882 3AFBD5D8 		.ascii	":\373\325\330\244\272l\326\231\301\\\355s\224\304\027"
 275      A4BA6CD6 
 275      99C15CED 
 275      7394C417 
 276 0892 2A582BFE 		.ascii	"*X+\376a\360\222k0?E\331\261:\3727\201eN\3602\304\016"
 276      61F0926B 
 276      303F45D9 
 276      B13AFA37 
 276      81654EF0 
 277 08a9 CFB51962 		.ascii	"\317\265\031b\207o\270\006\243\211\3536\202\255r\002"
 277      876FB806 
 277      A389EB36 
 277      82AD7202 
 278 08b9 661561B3 		.ascii	"f\025a\263\272\214F\"\260\317\361d{\360<O\226\357\027"
 278      BA8C4622 
 278      B0CFF164 
 278      7BF03C4F 
 278      96EF17
 279 08cc 309F85F9 		.ascii	"0\237\205\371\034\314\347b^\317S\307\214\215>\335K,"
 279      1CCCE762 
 279      5ECF53C7 
 279      8C8D3EDD 
 279      4B2C
 280 08de 4D319B49 		.ascii	"M1\233I(\211\367\355\335\303j\223\012\256\335U\305N"
 280      2889F7ED 
 280      DDC36A93 
 280      0AAEDD55 
 280      C54E
 281 08f0 471B5E80 		.ascii	"G\033^\200\356\261\325\227\325=\314\307\200v\354\262"
 281      EEB1D597 
 281      D53DCCC7 
 281      8076ECB2 
 282 0900 28CD3D3A 		.ascii	"(\315=:~\251\321\334c\221\003\367\250N\374<\307\331"
 282      7EA9D1DC 
 282      639103F7 
 282      A84EFC3C 
 282      C7D9
 283 0912 31A42139 		.ascii	"1\244!9\376\257\015\214\264\035\325\317\277\313\220"
 283      FEAF0D8C 
 283      B41DD5CF 
 283      BFCB90
 284 0921 91EFB233 		.ascii	"\221\357\2623B\003\201\237c\227W\322\0319\2433\362\212"
 284      4203819F 
ARM GAS  /tmp/ccGVqVeD.s 			page 22


 284      639757D2 
 284      1939A333 
 284      F28A
 285 0933 234636CE 		.ascii	"#F6\316\321\255\177)OllV\276\216\333\267\363\357&\365"
 285      D1AD7F29 
 285      4F6C6C56 
 285      BE8EDBB7 
 285      F3EF26F5 
 286 0947 9BAA0AF6 		.ascii	"\233\252\012\366\242k0\332\372\233\366\271\215pm\255"
 286      A26B30DA 
 286      FA9BF6B9 
 286      8D706DAD 
 287 0957 FBE00E8C 		.ascii	"\373\340\016\214p\275\305\223\211fI\3765\211p\275\341"
 287      70BDC593 
 287      896649FE 
 287      358970BD 
 287      E1
 288 0968 840FFB73 		.ascii	"\204\017\373s\031h\345\254vp\240\354\305\371>a5oZ\236"
 288      1968E5AC 
 288      7670A0EC 
 288      C5F93E61 
 288      356F5A9E 
 289 097c 479B56E7 		.ascii	"G\233V\347\214\"9R\245\375\356\263\012\265\262\332$"
 289      8C223952 
 289      A5FDEEB3 
 289      0AB5B2DA 
 289      24
 290 098d 14D36F1D 		.ascii	"\024\323o\035d,;:\336\343\013l,*\355\035L\020\256\245"
 290      642C3B3A 
 290      DEE30B6C 
 290      2C2AED1D 
 290      4C10AEA5 
 291 09a1 46691FA4 		.ascii	"Fi\037\244\366\323\253\372q\013\217G\333\234\000Z\315"
 291      F6D3ABFA 
 291      710B8F47 
 291      DB9C005A 
 291      CD
 292 09b2 CC5697D1 		.ascii	"\314V\227\321y \307\371\257\021\347\27170\177\023\363"
 292      7920C7F9 
 292      AF11E7B9 
 292      37307F13 
 292      F3
 293 09c3 7731FF80 		.ascii	"w1\377\200wp\240!&\237\304~\235\347\264y\246ont%\345"
 293      7770A021 
 293      269FC47E 
 293      9DE7B479 
 293      A66F6E74 
 294 09d9 4602BBC2 		.ascii	"F\002\273\3025\030%\310\304\3346=\240C\274\002v\274"
 294      351825C8 
 294      C4DC363D 
 294      A043BC02 
 294      76BC
 295 09eb 4EF03284 		.ascii	"N\3602\204\031\264\357\331\252\213\265\344\263.\301"
 295      19B4EFD9 
 295      AA8BB5E4 
 295      B32EC1
 296 09fa FC9994B2 		.ascii	"\374\231\224\262\310\240\224\305\250\224%\250\202\015"
ARM GAS  /tmp/ccGVqVeD.s 			page 23


 296      C8A094C5 
 296      A89425A8 
 296      820D
 297 0a08 986FC47C 		.ascii	"\230o\304|\023\275\020\355\3177-D\364\244o\265.\032"
 297      13BD10ED 
 297      CF372D44 
 297      F4A46FB5 
 297      2E1A
 298 0a1a E5A32436 		.ascii	"\345\243$6w\000?\316\343\306'\365\270\361\026\234\274"
 298      77003FCE 
 298      E3C627F5 
 298      B8F1169C 
 298      BC
 299 0a2b 0FE75B4E 		.ascii	"\017\347[N\336\231\342\306\247\261\313\266\364MZ\227"
 299      DE99E2C6 
 299      A7B1CBB6 
 299      F44D5A97 
 300 0a3b BE49DB96 		.ascii	"\276I\333\226}\362\236V\223x\277\376\365\324*T\223\364"
 300      7DF29E56 
 300      9378BFFE 
 300      F5D42A54 
 300      93F4
 301 0a4d E07ACE67 		.ascii	"\340z\316gk\245\324'\273KI:\\Z\251\265\356\266\031t"
 301      6BA5D427 
 301      BB4B493A 
 301      5C5AA9B5 
 301      EEB61974 
 302 0a61 F731EA6E 		.ascii	"\3671\352n;\255\251i\005&MY\215g\373\363\211\2228\320"
 302      3BADA969 
 302      05264D59 
 302      8D67FBF3 
 302      899238D0 
 303 0a75 A11AB253 		.ascii	"\241\032\262S]\255\331\364\303\010\365\367D\324\324"
 303      5DADD9F4 
 303      C308F5F7 
 303      44D4D4
 304 0a84 87052E35 		.ascii	"\207\005.5\205\261.\223\226\022?\212~\265\326\301\037"
 304      85B12E93 
 304      96123F8A 
 304      7EB5D6C1 
 304      1F
 305 0a95 A85D18DE 		.ascii	"\250]\030\336s\276|\355\370Z\373@\263\017}kO\3015Y\276"
 305      73BE7CED 
 305      F85AFB40 
 305      B30F7D6B 
 305      4FC13559 
 306 0aaa F623CC9E 		.ascii	"\366#\314\236k\245\346=\0065\357E5\267\322j>\354D\315"
 306      6BA5E63D 
 306      0635EF45 
 306      35B7D26A 
 306      3EEC44CD 
 307 0abe 560163EB 		.ascii	"V\001c\353\361z\015\321\306*\034\257\032\247\201\371"
 307      F17A0DD1 
 307      C62A1CAF 
 307      1AA781F9 
 308 0ace 983761DE 		.ascii	"\2307a\336BSp4)8\313#\036\006 \371\344\231\323\264\000"
 308      42537034 
ARM GAS  /tmp/ccGVqVeD.s 			page 24


 308      2938CB23 
 308      1E0620F9 
 308      E499D3B4 
 309 0ae3 36D9104E 		.ascii	"6\331\020Nz\265\247&yS\257+\031zu\244z]\307\324\252"
 309      7AB5A726 
 309      7953AF2B 
 309      197A75A4 
 309      7A5DC7D4 
 310 0af8 9F3616F6 		.ascii	"\2376\026\366S\277\257k}\006\350}8\255\317\001\376:"
 310      53BFAF6B 
 310      7D06E87D 
 310      38ADCF01 
 310      FE3A
 311 0b0a 2C51FFA8 		.ascii	",Q\377\250c\013\273Q\276\340S\337\360\013}\251\002K"
 311      630BBB51 
 311      BEE053DF 
 311      F00B7DA9 
 311      024B
 312 0b1c 0FED378D 		.ascii	"\017\3557\215<Ro\347\325p\016\272\036\371\220\315\310"
 312      3C526FE7 
 312      D5700EBA 
 312      1EF990CD 
 312      C8
 313 0b2d 1E6B5191 		.ascii	"\036kQ\221`\203\035\324a[\001\237\317\320\353H\252\027"
 313      60831DD4 
 313      615B019F 
 313      CFD0EB48 
 313      AA17
 314 0b3f 093F24CE 		.ascii	"\011?$\316\301\\\372\313\001\266\0166\017\030\222i\310"
 314      C15CFACB 
 314      01B60E36 
 314      0F189269 
 314      C8
 315 0b50 73BED73A 		.ascii	"s\276\327:j\336kQ\301+\315\000L\241\221\343&G\325\202"
 315      6ADE6B51 
 315      C12BCD00 
 315      4CA191E3 
 315      2647D582 
 316 0b64 571B4553 		.ascii	"W\033ES\360\352K>{\360\252N\251o.\254e\325\2418\346"
 316      F0EA4B3E 
 316      7BF0AA4E 
 316      A96F2EAC 
 316      65D5A138 
 317 0b79 7B84B6EF 		.ascii	"{\204\266\357\250\021\244\205\257\016+\343\007%\243"
 317      A811A485 
 317      AF0E2BE3 
 317      0725A3
 318 0b88 57A413E5 		.ascii	"W\244\023\345I\307\371\264H\015\210\252}\353\251\233"
 318      49C7F9B4 
 318      480D88AA 
 318      7DEBA99B 
 319 0b98 5692DF64 		.ascii	"V\222\337d\225\253\275\317TM{\200\022U\036\363,\376"
 319      95ABBDCF 
 319      544D7B80 
 319      12551EF3 
 319      2CFE
 320 0baa 79305DA9 		.ascii	"y0]\251b'%\375\325\346W\025\201\375\226\317#?\224\027"
ARM GAS  /tmp/ccGVqVeD.s 			page 25


 320      622725FD 
 320      D5E65715 
 320      81FD96CF 
 320      233F9417 
 321 0bbe DAFE6842 		.ascii	"\332\376hB\032\350\246\242\226\365R\206\377LNZ\251\304"
 321      1AE8A6A2 
 321      96F55286 
 321      FF4C4E5A 
 321      A9C4
 322 0bd0 A4829585 		.ascii	"\244\202\225\205\226*h2\253\340Df\025$\203\247\007\217"
 322      962A6832 
 322      ABE04466 
 322      152483A7 
 322      078F
 323 0be2 1049AA24 		.ascii	"\020I\252$R\275\362\314~\005\257\277\263\024lO\307\366"
 323      52BDF2CC 
 323      7E05AFBF 
 323      B3146C4F 
 323      C7F6
 324 0bf4 419B5282 		.ascii	"A\233R\202e]\304\343\316\2319n\347\3238\336l\315\361"
 324      655DC4E3 
 324      CE99396E 
 324      E7D338DE 
 324      6CCDF1
 325 0c07 65C2B1DA 		.ascii	"e\302\261\332\374\033\334\350\235ud;\325\312\205o\306"
 325      FC1BDCE8 
 325      9D75643B 
 325      D5CA856F 
 325      C6
 326 0c18 8F4B858B 		.ascii	"\217K\205\213\355zi\004\236\24796\371\352\351\014\276"
 326      ED7A6904 
 326      9EA73936 
 326      F9EAE90C 
 326      BE
 327 0c29 7A21CD57 		.ascii	"z!\315W\301\000\177g0@V\017\027\266Z3\230\346U\335\016"
 327      C1007F67 
 327      3040560F 
 327      17B65A33 
 327      98E655DD 
 328 0c3e BCAA56F9 		.ascii	"\274\252V\371\322\034\022\266\357F\207\204\017\032}"
 328      D21C12B6 
 328      EF468784 
 328      0F1A7D
 329 0c4d AADBEC53 		.ascii	"\252\333\354S=\264 \230qEe\321\260X\024\214\026O-*\026"
 329      3DB42098 
 329      714565D1 
 329      B058148C 
 329      164F2D2A 
 330 0c62 2B8B8265 		.ascii	"+\213\202e\241\211\241h\274H\226*\"O\027AA\222\213b"
 330      A189A168 
 330      BC48962A 
 330      224F1741 
 330      41928B62 
 331 0c76 51498E17 		.ascii	"QI\216\027=\360\350#c\037\231\002-\303\261P\271(\305"
 331      3DF0E823 
 331      631F9902 
 331      2DC3B150 
ARM GAS  /tmp/ccGVqVeD.s 			page 26


 331      B928C5
 332 0c89 8B1E1A3B 		.ascii	"\213\036\032;\026\232\313Scb\374\3562&O\216\313\202"
 332      169ACB53 
 332      6362FCEE 
 332      32264F8E 
 332      CB82
 333 0c9b 2C0664CF 		.ascii	",\006d\317C\177{\314?\226\271\265\250\".\025\011R\370"
 333      437F7BCC 
 333      3F96B9B5 
 333      A8222E15 
 333      0952F8
 334 0cae AE483422 		.ascii	"\256H4\"\336%\012\023CE\241H\260\274\242X,\212\313\305"
 334      DE250A13 
 334      4345A148 
 334      B0BCA258 
 334      2C8ACBC5 
 335 0cc2 A1880C9D 		.ascii	"\241\210\014\235\274\025p\037\031\220\207gh\034\026"
 335      BC15701F 
 335      19908767 
 335      681C16
 336 0cd1 80A68858 		.ascii	"\200\246\210X\024(\026K\204\212r9\240\217\350\013\004"
 336      1428164B 
 336      848A7239 
 336      A08FE80B 
 336      04
 337 0ce2 B4EE450E 		.ascii	"\264\356E\016\230\210KA\250\017\307K\357\0162\271p\013"
 337      98884B41 
 337      A80FC74B 
 337      EF0E32B9 
 337      700B
 338 0cf4 C85EE83C 		.ascii	"\310^\350<lh@\006\034\2554\322\001\216NV\260,>5\236"
 338      6C684006 
 338      1CAD34D2 
 338      018E4E56 
 338      B02C3E35 
 339 0d09 62BE4C12 		.ascii	"b\276L\022\205b\300\012\226\005\324\362pwX\301\262b"
 339      8562C00A 
 339      9605D4F2 
 339      707758C1 
 339      B262
 340 0d1b C0F1C402 		.ascii	"\300\361\304\002\021q\212\014\267\230$Vz\345\230\024"
 340      11718A0C 
 340      B7982456 
 340      7AE59814 
 341 0d2b 8A06E4BC 		.ascii	"\212\006\344\274\012\215\276|\225cR\304&\241\2507\030"
 341      0A8DBE7C 
 341      956352C4 
 341      26A1A837 
 341      18
 342 0d3c 8DC8D063 		.ascii	"\215\310\320c\224k5\226\005\243\222\010C\026\220j\""
 342      946B3596 
 342      05A39208 
 342      4316906A 
 342      22
 343 0d4d 80A03CE5 		.ascii	"\200\240<\345\276\276\241\004*G\204\211\020$\261\024"
 343      BEBEA104 
 343      2A478489 
ARM GAS  /tmp/ccGVqVeD.s 			page 27


 343      1024B114 
 344 0d5d 541890F9 		.ascii	"T\030\220\371\370\220{!\215\2004\022\322(>>t0\244!\220"
 344      F8907B21 
 344      8D803412 
 344      D2283E3E 
 344      7430A421 
 345 0d72 86421A06 		.ascii	"\206B\032\006i8\244{ A\273\241\320n(\264\033\012\355"
 345      6938A47B 
 345      2041BBA1 
 345      D06E28B4 
 345      1B0AED
 346 0d85 8641BB61 		.ascii	"\206A\273aC8i8'\335\303I\367r\322\010N\032\311I\243"
 346      43386938 
 346      27DDC349 
 346      F772D208 
 346      4E1AC949 
 347 0d9a 7869C860 		.ascii	"xi\310`HC\270r\011n\303rc\001\240\326K\2045Y\224\340"
 347      4843B872 
 347      096EC372 
 347      6301A0D6 
 347      4B843559 
 348 0db0 1E2D2F16 		.ascii	"\036-/\026\245\234`\231 \021\011\012a\021\352\320\034"
 348      A59C6099 
 348      2011090A 
 348      6111EAD0 
 348      1C
 349 0dc1 BD72385A 		.ascii	"\275r8Z\014F\011\317%\345Bi\334+KbI\034\305G\012\036"
 349      0C4609CF 
 349      25E54269 
 349      DC2B4B62 
 349      491CC547 
 350 0dd7 A9782AD8 		.ascii	"\251x*\330B\2368%$\003\327\242g\262\034\235\370T\254"
 350      429E3825 
 350      2403D7A2 
 350      67B21C9D 
 350      F854AC
 351 0dea 40AC1423 		.ascii	"@\254\024#rX\210?\015-\305\311\244\300\307\002\025\375"
 351      7258883F 
 351      0D2DC5C9 
 351      A4C0C702 
 351      15FD
 352 0dfc 54CDC603 		.ascii	"T\315\306\003\345\2418\230a\377\244\256\325\032_,0Y"
 352      E5A13898 
 352      61FFA4AE 
 352      D51A5F2C 
 352      3059
 353 0e0e 08C9A148 		.ascii	"\010\311\241Hi\177\275zR\205X\001\243\0170\264\304\252"
 353      697FBD7A 
 353      52855801 
 353      A30F30B4 
 353      C4AA
 354 0e20 FC580086 		.ascii	"\374X\000\206\305b.\026\241B\214\211\021p\213\322\334"
 354      C5622E16 
 354      A1428C89 
 354      11708BD2 
 354      DC
 355 0e31 70056874 		.ascii	"p\005ht\230+\363\011\313S\2107\205Ut\270G'G@0\210\004"
ARM GAS  /tmp/ccGVqVeD.s 			page 28


 355      982BF309 
 355      CB538837 
 355      855574B8 
 355      47274740 
 356 0e48 2C84D1AA 		.ascii	",\204\321\252\200>hG(\315'\334\013\345h@P\031\213F\313"
 356      803E6847 
 356      28CD27DC 
 356      0BE56840 
 356      50198B46 
 357 0e5d C1701F89 		.ascii	"\301p\037\211\227N\000\02289\306\003Ej\305\343\300P"
 357      974E0012 
 357      3839C603 
 357      456AC5E3 
 357      C050
 358 0e6f 21961E15 		.ascii	"!\226\036\025\313E!.\376*X6!X\366PtB\271(\306&\024\340"
 358      CB45212E 
 358      FE2A5836 
 358      2158F650 
 358      7442B928 
 359 0e87 D3A3C0D8 		.ascii	"\323\243\300\330\324\207\013\261\374\270\360\264X\201"
 359      D4870BB1 
 359      FCB8F0B4 
 359      5881
 360 0e95 2F02C43F 		.ascii	"/\002\304?\304\260\352\023j\271\220\210`\252&>@\012"
 360      C4B0EA13 
 360      6AB99088 
 360      60AA263E 
 360      400A
 361 0ea7 A49EBD92 		.ascii	"\244\236\275\222J\273GB\273\316\225P\303\222\246aI\325"
 361      4ABB4742 
 361      BBCE9550 
 361      C392A661 
 361      49D5
 362 0eb9 B00F6A2B 		.ascii	"\260\017j+$\011t\223+\221N7V\206$\271B(\017\310\241"
 362      24097493 
 362      2B914E37 
 362      568624B9 
 362      42280FC8 
 363 0ece 30CC481A 		.ascii	"0\314H\032\360@\000\266x\321\237\252S\225BUy+e\224\023"
 363      F04000B6 
 363      78D19FAA 
 363      53954255 
 363      792B6594 
 364 0ee3 B913F7F3 		.ascii	"\271\023\367\363\021\242\341\0058 \324\024\213\345\262"
 364      11A2E105 
 364      3820D414 
 364      8BE5B2
 365 0ef2 0085928A 		.ascii	"\000\205\222\212H0\200mH\311C\332\012R\001\334\312\205"
 365      4830806D 
 365      48C943DA 
 365      0A5201DC 
 365      CA85
 366 0f04 B84C9A43 		.ascii	"\270L\232C\025\031\256\237\306~\2618\261\242T5\026c"
 366      1519AE9F 
 366      C67EB138 
 366      B1A25435 
 366      1663
ARM GAS  /tmp/ccGVqVeD.s 			page 29


 367 0f16 8D2F2644 		.ascii	"\215/&DBA\242z\276xb\351PW\332\226\211\267\015\220\303"
 367      4241A27A 
 367      BE7862E9 
 367      5057DA96 
 367      89B70D90 
 368 0f2b 81A0501E 		.ascii	"\201\240P\036\232(\011r(\032\001\222$9\030\001\366="
 368      9A280972 
 368      281A0192 
 368      24391801 
 368      F63D
 369 0f3d D19292B8 		.ascii	"\321\222\222\270(sr\230\013\226\025\252\026\030\212"
 369      28737298 
 369      0B9615AA 
 369      16188A
 370 0f4c C44549E6 		.ascii	"\304EI\346\345I1\227v\005\323e\031\223\033\3703XH\177"
 370      E5493197 
 370      7605D365 
 370      19931BF8 
 370      3358487F 
 371 0f60 348387E3 		.ascii	"4\203\207\343\343U3}\370:\025\272$T\022\005=\206\243"
 371      E355337D 
 371      F83A15BA 
 371      24541205 
 371      3D86A3
 372 0f73 95C43652 		.ascii	"\225\3046R\2062\341?\252\037Gr"
 372      8632E13F 
 372      AA1F4772 
 373              		.text
 374              		.section	.gnu.lto_.symtab.4af4a5012a35a736,"",%progbits
 375 0000 63684D73 		.ascii	"chMsgSend\000\000\000\000\000\000\000\000\000\000\000"
 375      6753656E 
 375      64000000 
 375      00000000 
 375      00000000 
 376 0014 00AB0000 		.ascii	"\000\253\000\000\000chMsgWait\000\000\000\000\000\000"
 376      0063684D 
 376      73675761 
 376      69740000 
 376      00000000 
 377 0028 00000000 		.ascii	"\000\000\000\000\000\000e\001\000\000chMsgRelease\000"
 377      00006501 
 377      00006368 
 377      4D736752 
 377      656C6561 
 378 003f 00000000 		.ascii	"\000\000\000\000\000\000\000\000\000\000\000i\001\000"
 378      00000000 
 378      00000069 
 378      0100
 379 004d 00636800 		.ascii	"\000ch\000\000\002\000\000\000\000\000\000\000\000\000"
 379      00020000 
 379      00000000 
 379      000000
 380 005c 7B010000 		.ascii	"{\001\000\000chSchGoSleepS\000\000\002\000\000\000\000"
 380      63685363 
 380      68476F53 
 380      6C656570 
 380      53000002 
ARM GAS  /tmp/ccGVqVeD.s 			page 30


 381 0074 00000000 		.ascii	"\000\000\000\000\000q\001\000\000chSchReadyI\000\000"
 381      00710100 
 381      00636853 
 381      63685265 
 381      61647949 
 382 008a 02000000 		.ascii	"\002\000\000\000\000\000\000\000\000\000u\001\000\000"
 382      00000000 
 382      00007501 
 382      0000
 383 0098 63685363 		.ascii	"chSchWakeupS\000\000\002\000\000\000\000\000\000\000"
 383      6857616B 
 383      65757053 
 383      00000200 
 383      00000000 
 384 00ae 00007901 		.ascii	"\000\000y\001\000\000"
 384      0000
 385              		.text
 386              		.section	.gnu.lto_.opts,"",%progbits
 387 0000 272D6D63 		.ascii	"'-mcpu=cortex-m4' '-mfloat-abi=hard' '-mfpu=fpv4-sp"
 387      70753D63 
 387      6F727465 
 387      782D6D34 
 387      2720272D 
 388 0033 2D643136 		.ascii	"-d16' '-mno-thumb-interwork' '-mthumb' '-O2' '-fomi"
 388      2720272D 
 388      6D6E6F2D 
 388      7468756D 
 388      622D696E 
 389 0066 742D6672 		.ascii	"t-frame-pointer' '-falign-functions=16' '-ffunction"
 389      616D652D 
 389      706F696E 
 389      74657227 
 389      20272D66 
 390 0099 2D736563 		.ascii	"-sections' '-fdata-sections' '-fno-common' '-flto' "
 390      74696F6E 
 390      73272027 
 390      2D666461 
 390      74612D73 
 391 00cc 272D6673 		.ascii	"'-fsingle-precision-constant'\000"
 391      696E676C 
 391      652D7072 
 391      65636973 
 391      696F6E2D 
 392              		.text
 393              		.section	.text.chMsgSend,"ax",%progbits
 394              		.align	2
 395              		.p2align 4,,15
 396              		.global	chMsgSend
 397              		.thumb
 398              		.thumb_func
 399              		.type	chMsgSend, %function
 400              	chMsgSend:
 401              		@ args = 0, pretend = 0, frame = 0
 402              		@ frame_needed = 0, uses_anonymous_args = 0
 403 0000 0E4B     		ldr	r3, .L5
 404 0002 70B5     		push	{r4, r5, r6, lr}
 405 0004 2022     		movs	r2, #32
ARM GAS  /tmp/ccGVqVeD.s 			page 31


 406 0006 9C69     		ldr	r4, [r3, #24]
 407              	@ 546 "/home/cody/dev/chibios/trunk/os/ext/CMSIS/include/core_cmFunc.h" 1
 408 0008 82F31188 		MSR basepri, r2
 409              	@ 0 "" 2
 410              		.thumb
 411 000c 00F12805 		add	r5, r0, #40
 412 0010 067F     		ldrb	r6, [r0, #28]	@ zero_extendqisi2
 413 0012 2562     		str	r5, [r4, #32]
 414 0014 C26A     		ldr	r2, [r0, #44]
 415 0016 6260     		str	r2, [r4, #4]
 416 0018 0E2E     		cmp	r6, #14
 417 001a 2163     		str	r1, [r4, #48]
 418 001c 2560     		str	r5, [r4]
 419 001e C462     		str	r4, [r0, #44]
 420 0020 1460     		str	r4, [r2]
 421 0022 07D0     		beq	.L4
 422              	.L2:
 423 0024 0C20     		movs	r0, #12
 424 0026 FFF7FEFF 		bl	chSchGoSleepS
 425 002a 206A     		ldr	r0, [r4, #32]
 426 002c 0023     		movs	r3, #0
 427              	@ 546 "/home/cody/dev/chibios/trunk/os/ext/CMSIS/include/core_cmFunc.h" 1
 428 002e 83F31188 		MSR basepri, r3
 429              	@ 0 "" 2
 430              		.thumb
 431 0032 70BD     		pop	{r4, r5, r6, pc}
 432              	.L4:
 433 0034 FFF7FEFF 		bl	chSchReadyI
 434 0038 F4E7     		b	.L2
 435              	.L6:
 436 003a 00BF     		.align	2
 437              	.L5:
 438 003c 00000000 		.word	ch
 439              		.size	chMsgSend, .-chMsgSend
 440              		.section	.text.chMsgWait,"ax",%progbits
 441              		.align	2
 442              		.p2align 4,,15
 443              		.global	chMsgWait
 444              		.thumb
 445              		.thumb_func
 446              		.type	chMsgWait, %function
 447              	chMsgWait:
 448              		@ args = 0, pretend = 0, frame = 0
 449              		@ frame_needed = 0, uses_anonymous_args = 0
 450 0000 10B5     		push	{r4, lr}
 451 0002 2023     		movs	r3, #32
 452              	@ 546 "/home/cody/dev/chibios/trunk/os/ext/CMSIS/include/core_cmFunc.h" 1
 453 0004 83F31188 		MSR basepri, r3
 454              	@ 0 "" 2
 455              		.thumb
 456 0008 0B4C     		ldr	r4, .L10
 457 000a A269     		ldr	r2, [r4, #24]
 458 000c 1346     		mov	r3, r2
 459 000e 53F8280F 		ldr	r0, [r3, #40]!
 460 0012 9842     		cmp	r0, r3
 461 0014 08D0     		beq	.L9
 462              	.L8:
ARM GAS  /tmp/ccGVqVeD.s 			page 32


 463 0016 0168     		ldr	r1, [r0]
 464 0018 9162     		str	r1, [r2, #40]
 465 001a 0D22     		movs	r2, #13
 466 001c 4B60     		str	r3, [r1, #4]
 467 001e 0023     		movs	r3, #0
 468 0020 0277     		strb	r2, [r0, #28]
 469              	@ 546 "/home/cody/dev/chibios/trunk/os/ext/CMSIS/include/core_cmFunc.h" 1
 470 0022 83F31188 		MSR basepri, r3
 471              	@ 0 "" 2
 472              		.thumb
 473 0026 10BD     		pop	{r4, pc}
 474              	.L9:
 475 0028 0E20     		movs	r0, #14
 476 002a FFF7FEFF 		bl	chSchGoSleepS
 477 002e A269     		ldr	r2, [r4, #24]
 478 0030 906A     		ldr	r0, [r2, #40]
 479 0032 02F12803 		add	r3, r2, #40
 480 0036 EEE7     		b	.L8
 481              	.L11:
 482              		.align	2
 483              	.L10:
 484 0038 00000000 		.word	ch
 485              		.size	chMsgWait, .-chMsgWait
 486 003c AFF30080 		.section	.text.chMsgRelease,"ax",%progbits
 487              		.align	2
 488              		.p2align 4,,15
 489              		.global	chMsgRelease
 490              		.thumb
 491              		.thumb_func
 492              		.type	chMsgRelease, %function
 493              	chMsgRelease:
 494              		@ args = 0, pretend = 0, frame = 0
 495              		@ frame_needed = 0, uses_anonymous_args = 0
 496 0000 08B5     		push	{r3, lr}
 497 0002 2023     		movs	r3, #32
 498              	@ 546 "/home/cody/dev/chibios/trunk/os/ext/CMSIS/include/core_cmFunc.h" 1
 499 0004 83F31188 		MSR basepri, r3
 500              	@ 0 "" 2
 501              		.thumb
 502 0008 FFF7FEFF 		bl	chSchWakeupS
 503 000c 0023     		movs	r3, #0
 504              	@ 546 "/home/cody/dev/chibios/trunk/os/ext/CMSIS/include/core_cmFunc.h" 1
 505 000e 83F31188 		MSR basepri, r3
 506              	@ 0 "" 2
 507              		.thumb
 508 0012 08BD     		pop	{r3, pc}
 509              		.size	chMsgRelease, .-chMsgRelease
 510              		.comm	__gnu_lto_v1,1,1
 511 0014 AFF30080 		.ident	"GCC: (GNU Tools for ARM Embedded Processors) 4.8.4 20140526 (release) [ARM/embedded-4_8-br
 511      AFF30080 
 511      AFF30080 
ARM GAS  /tmp/ccGVqVeD.s 			page 33

