ARM GAS  /tmp/ccGGEubi.s 			page 1


   1              		.syntax unified
   2              		.cpu cortex-m4
   3              		.eabi_attribute 27, 3
   4              		.eabi_attribute 28, 1
   5              		.fpu fpv4-sp-d16
   6              		.eabi_attribute 20, 1
   7              		.eabi_attribute 21, 1
   8              		.eabi_attribute 23, 3
   9              		.eabi_attribute 24, 1
  10              		.eabi_attribute 25, 1
  11              		.eabi_attribute 26, 1
  12              		.eabi_attribute 30, 2
  13              		.eabi_attribute 34, 1
  14              		.eabi_attribute 18, 4
  15              		.thumb
  16              		.file	"chsys.c"
  17              		.section	.gnu.lto_.jmpfuncs.8380a148b7fbfb9c,"",%progbits
  18 0000 789C6362 		.ascii	"x\234cb`b\300\006\272\2414\017\003\003#\0033\020\203"
  18      6062C006 
  18      BAA1340F 
  18      03032303 
  18      331083
  19 0013 68867A06 		.ascii	"h\206z\006\006\026\006V\006\0066\006V\246j\206_\015"
  19      06160656 
  19      06063606 
  19      56A66A86 
  19      5F0D
  20 0025 1D0D0299 		.ascii	"\035\015\002\231\214\014\271\214`\245L\021\214\231\214"
  20      8C0CB98C 
  20      60A54C11 
  20      8C998C
  21 0034 8C0F98A0 		.ascii	"\214\017\230\240,&\240(B\021s2\222\"\026\020\003!\307"
  21      2C26A028 
  21      42117332 
  21      92221610 
  21      0321C7
  22 0047 9ACBC808 		.ascii	"\232\313\310\010\227cr\2009\201\213\221\033l?/#\003"
  22      97637280 
  22      39818B91 
  22      1B6C3F2F 
  22      2303
  23 0059 1F3B3F23 		.ascii	"\037;?#\003\0007~\021\200"
  23      0300377E 
  23      1180
  24              		.text
  25              		.section	.gnu.lto_.inline.8380a148b7fbfb9c,"",%progbits
  26 0000 789C758F 		.ascii	"x\234u\217\261\015\3020\020E\3779\216\023\022\207D("
  26      B10DC230 
  26      1045FF39 
  26      8E131287 
  26      4428
  27 0012 05501006 		.ascii	"\005P\020\006@\214\222\232\206\032X\201\001\250\020"
  27      408C929A 
  27      861A5881 
  27      01A810
  28 0021 CA081982 		.ascii	"\312\010\031\202-h\250\221\2202\0025\025>'\030\020\340"
  28      2D68A891 
ARM GAS  /tmp/ccGGEubi.s 			page 2


  28      90320235 
  28      153E2718 
  28      10E0
  29 0033 C2FEFAF7 		.ascii	"\302\376\372\367\316\377N@\340\327\331R\373j K\011b"
  29      CEFF4E40 
  29      E0D7D952 
  29      FB6A204B 
  29      0962
  30 0045 5C9D08AA 		.ascii	"\\\235\010\252.,M\220\302x\262. \333~\017\323\013[\263"
  30      2E2C4D90 
  30      C278B22E 
  30      20DB7E0F 
  30      D30B5BB3 
  31 0059 E33D7798 		.ascii	"\343=w\230\210\015Z\225\024\031-3b-\321\013\014\246"
  31      880D5A95 
  31      14192D33 
  31      622DD10B 
  31      0CA6
  32 006b ABD2513E 		.ascii	"\253\322Q>\242\230\255\303\313\262\035\012\243\006\\"
  32      A298ADC3 
  32      CBB21D0A 
  32      A3065C
  33 007a 6896AEA0 		.ascii	"h\226\256\240R\346\371\310\004\234l\311\277W\3645g\014"
  33      52E6F9C8 
  33      049C6CC9 
  33      BF57F435 
  33      670C
  34 008c A9C9CA8F 		.ascii	"\251\311\312\217,\215\200gP\267\371\247\237@E\344a\265"
  34      2C8D8067 
  34      50B7F9A7 
  34      9F4045E4 
  34      61B5
  35 009e A00D2976 		.ascii	"\240\015)v\327N\221\335\272\373\307$d]\223\004\372H"
  35      D74E91DD 
  35      BAFBC724 
  35      645D9304 
  35      FA48
  36 00b0 02F20413 		.ascii	"\002\362\004\023DO\326\177c5\302\272\030\"<\2479\227"
  36      444FD67F 
  36      6335C2BA 
  36      18223CA7 
  36      3997
  37 00c2 530CAEBC 		.ascii	"S\014\256\274\351d\267\217]>\036gI\0376"
  37      E964B78F 
  37      5D3E1E67 
  37      491F36
  38              		.text
  39              		.section	.gnu.lto_.pureconst.8380a148b7fbfb9c,"",%progbits
  40 0000 789C6362 		.ascii	"x\234cb`b\220d\200\000\036\006)F3f+\026+V+6+.3n\011"
  40      60629064 
  40      80001E06 
  40      29463366 
  40      2B162B56 
  41 001b 1E2B5E09 		.ascii	"\036+^\011>\006~)\000\"\330\002z"
  41      3E067E29 
  41      0022D802 
  41      7A
ARM GAS  /tmp/ccGGEubi.s 			page 3


  42              		.text
  43              		.section	.gnu.lto_port_init.8380a148b7fbfb9c,"",%progbits
  44 0000 789CAD93 		.ascii	"x\234\255\223Oh\023A\024\306\337\333?\3156\311\226\340"
  44      4F681341 
  44      14C6DFDB 
  44      3FCD36C9 
  44      96E0
  45 0012 4111148A 		.ascii	"A\021\024\212\327\252\213 x\020A\351)`.\266B=\225t\263"
  45      D7AA8B20 
  45      781041E9 
  45      29602EB6 
  45      423D9574 
  46 0027 6C169B46 		.ascii	"l\026\233F\322$\324S'$\352\245H\360R\255\036Rc\255T"
  46      D224D453 
  46      2724EAA5 
  46      48F052AD 
  46      1E5263AD 
  47 003c 316011A2 		.ascii	"1`\021\242^\202\340\301\203b=\326\202AA\304^\352\245"
  47      5E82E0C1 
  47      83623DD6 
  47      824141C4 
  47      5EEAA5
  48 004f 7808C679 		.ascii	"x\010\306y;\273\261\255\332\366\340\300\316\333\235"
  48      3BBBB1AD 
  48      DAF6E0C0 
  48      CEDB9D
  49 005e 79F37DBF 		.ascii	"y\363}\277\231y+\201\004[\333~\376D\025\200k<\242\014"
  49      99792B81 
  49      045BDB7E 
  49      FE441580 
  49      6B3CA20C 
  50 0072 2895DF02 		.ascii	"(\225\337\002\0244\011\221^\000aR\302\311\013H\251x"
  50      14340991 
  50      5E006152 
  50      C2C90B48 
  50      A978
  51 0084 086619BB 		.ascii	"\010f\031\273\321\234\253M\037\270\305\032\245\012k"
  51      D19CAB4D 
  51      1FB8C51A 
  51      A50A6B
  52 0093 B5DB880E 		.ascii	"\265\333\210\016r\331\323\010&\302\020\377\300^7H\312"
  52      72D9D308 
  52      26C210FF 
  52      C05E3748 
  52      CA
  53 00a4 669F9AD4 		.ascii	"f\237\232\324h\266\333\217\027\353\265\263\255%u\217"
  53      68B6DB8F 
  53      17EBB5B3 
  53      AD25758F 
  54 00b4 020ECA2A 		.ascii	"\002\016\312*u\001\3524\352\302\020\307Yn\242{\261\307"
  54      7501EA34 
  54      EAC210C7 
  54      596EA27B 
  54      B1C7
  55 00c6 8BBCA950 		.ascii	"\213\274\251Pb\254\334\013d\302\333 \357\011\357<J\024"
  55      62ACDC0B 
  55      64C2DB20 
ARM GAS  /tmp/ccGGEubi.s 			page 4


  55      EF09EF3C 
  55      4A14
  56 00d8 E537F0B2 		.ascii	"\3457\360\262^\377\371\015\343XE\025\372`\201\225\012"
  56      5EFFF90D 
  56      E3584515 
  56      FA608195 
  56      0A
  57 00e9 4C7750B9 		.ascii	"LwP\271\0153\234E%\240.\266\\d=.[\227K4\202\202\214"
  57      0D339C45 
  57      25A02EB6 
  57      5C643D2E 
  57      5B974B34 
  58 0100 465C58AE 		.ascii	"F\\X\256\262\274RY\377${n\276\273\370l\254N\265B'\001"
  58      B2BC5259 
  58      FF247B6E 
  58      BEBBF86C 
  58      AC4EB542 
  59 0116 848789EE 		.ascii	"\204\207\211\356j\033\303\302\255y\345\311\364aaX(\263"
  59      6A1BC3C2 
  59      AD79E5C9 
  59      F4616158 
  59      28B3
  60 0128 C8BF3D91 		.ascii	"\310\277=\221\024\346\271\202kX|Q\234_\177/\307\361"
  60      14E6B982 
  60      6B587C51 
  60      9C5F7F2F 
  60      C7F1
  61 013a 3E1FB151 		.ascii	">\037\261Q\347z\224,\267\277\313b\376Y\361!\007\362"
  61      E77A942C 
  61      B7BFCB62 
  61      FE59F121 
  61      07F2
  62 014c E77B788A 		.ascii	"\347{x\212;\317\256~5\004\361\353\007\213\373\304\364"
  62      3BCFAE7E 
  62      3504F1EB 
  62      078BFBC4 
  62      F4
  63 015d E66DEF96 		.ascii	"\346m\357\226\202\213z;\377\362\343\343\220\330\234"
  63      828B7A3B 
  63      FFF2E3E3 
  63      90D89C
  64 016c 8D8A108B 		.ascii	"\215\212\020\213t\2160@\253\265\265\017\276\220\346"
  64      748E3040 
  64      ABB5B50F 
  64      BE90E6
  65 017b 09F90545 		.ascii	"\011\371\005E\250\262\277Z\345\002\002\2231M`F7^\315"
  65      A8B2BF5A 
  65      E5020293 
  65      314D6046 
  65      375ECD
  66 018e 6E656D02 		.ascii	"nem\002$\266\233wW\321\027\017l\325\350\246\205AVa\236"
  66      24B69B77 
  66      57D1170F 
  66      6CD5E8A6 
  66      85415661 
  67 01a3 46D0D390 		.ascii	"F\320\323\220\377\206\246\331\302S\306m\271\266\327"
  67      FF86A6D9 
ARM GAS  /tmp/ccGGEubi.s 			page 5


  67      C253C66D 
  67      B9B6D7
  68 01b2 B48993CE 		.ascii	"\264\211\223\316~\345\336\253j\250S\233\235:\231\322"
  68      7EE5DEAB 
  68      6AA8539B 
  68      9D3A99D2 
  69 01c2 FB7ED789 		.ascii	"\373~\327\211\273\225#\360\210\212dn\341\316A\007C\336"
  69      BB9523F0 
  69      888A646E 
  69      E1CE4107 
  69      43DE
  70 01d4 4D1D7330 		.ascii	"M\035s0\274\343M)\244\364\224\016\302\305\016\270\303"
  70      BCE34D29 
  70      A4F4940E 
  70      C2C50EB8 
  70      C3
  71 01e5 1B46F488 		.ascii	"\033F\364\210W\007\357\366\376\011r\375\177\203<\357"
  71      5707EFF6 
  71      FE0972FD 
  71      7F833CEF 
  72 01f5 80043D90 		.ascii	"\200\004=\220\316\210\316\215a\011\012k3\237\253!\341"
  72      CE88CE8D 
  72      61090A6B 
  72      339FAB21 
  72      E1
  73 0206 E9B7415E 		.ascii	"\351\267A^o\3747%\200SF2\235\262\0143\235\270l$\254"
  73      6FFC3725 
  73      80534632 
  73      9DB20C33 
  73      9DB86C24 
  74 021b BC61269D 		.ascii	"\274a&\235\021'=nd3\271\261\213\006\177\261&\262F\177"
  74      11273D6E 
  74      6433B9B1 
  74      8B067FB1 
  74      26B2467F 
  75 022f 6C203A60 		.ascii	"l :`8c\346h.A\271\031k\330L\035?\232\204\356\214e\017"
  75      3863E668 
  75      2E41B919 
  75      6BD84C1D 
  75      3F9A84EE 
  76 0246 E7E3A339 		.ascii	"\347\343\2439kG\235L\326\270\224\316d\307\2153\347b"
  76      6B479D4C 
  76      D6B894CE 
  76      64C78D33 
  76      E762
  77 0258 FDB1099E 		.ascii	"\375\261\011\236\340\352\344O\244\270\316/\272Q;\034"
  77      E0EAE44F 
  77      A4B8CE2F 
  77      BA513B1C 
  78              		.text
  79              		.section	.gnu.lto__idle_thread.8380a148b7fbfb9c,"",%progbits
  80 0000 789C5D90 		.ascii	"x\234]\220\261J\003A\020\206\347\237\335SK\313Tb\255"
  80      B14A0341 
  80      1086E79F 
  80      DD534BCB 
  80      5462AD
  81 0013 C48534B6 		.ascii	"\304\2054\266\372\016'hi\366\016\263h<\270\213B\260"
ARM GAS  /tmp/ccGGEubi.s 			page 6


  81      FA0E2768 
  81      69F60EB3 
  81      683CB88B 
  81      42B0
  82 0025 C8462C2C 		.ascii	"\310F,,S\206\250\205\205\255\202O`\225N\037\300*\235"
  82      5386A885 
  82      85AD824F 
  82      60954E1F 
  82      C02A9D
  83 0038 8D4F9026 		.ascii	"\215O\220&\316\355\032\004\027f\347\337a\346\373\231"
  83      CEED1A04 
  83      1766E7DF 
  83      61E6FB99 
  84 0048 6562FA7F 		.ascii	"eb\372\177\232\022\337\022\273\022H\010<\372 \032\256"
  84      9A12DF12 
  84      BB124808 
  84      3CFA201A 
  84      AE
  85 0059 3154140A 		.ascii	"1T\024\012:\012\035+\373\240\001+\215\301\021\302\374"
  85      3A0A1D2B 
  85      FBA0012B 
  85      8DC111C2 
  85      FC
  86 006a 0BBFCD16 		.ascii	"\013\277\315\026\213\347\327\351\323=&\254\231\\\250"
  86      8BE7D7E9 
  86      D33D26AC 
  86      995CA8
  87 0079 2774E3FD 		.ascii	"'t\343\375h\223\310\206g*7\350\000LP\357t\3759\376j"
  87      6893C886 
  87      672A37E8 
  87      004C50EF 
  87      74FD39FE 
  88 008e 1CE351FC 		.ascii	"\034\343Q\374N\300\333\264%3\341\306\035M\206\336\257"
  88      4EC0DBB4 
  88      2533E1C6 
  88      1D4D86DE 
  88      AF
  89 009f 3BF015CD 		.ascii	";\360\025\315\375m\255T7\020\016!28\266\243\261\344"
  89      FD6DAD54 
  89      37100E21 
  89      3238B6A3 
  89      B1E4
  90 00b1 5F41429C 		.ascii	"_AB\234\253\310\013\030-\030iO\004^\217-\333\343\362"
  90      ABC80B18 
  90      2D18694F 
  90      045E8F2D 
  90      DBE3F2
  91 00c4 35B8E1B0 		.ascii	"5\270\341\260\262A\255\007?\336sX\375\373\214T,dI\225"
  91      B241AD07 
  91      3FDE7358 
  91      FDFB8C54 
  91      2C644995 
  92 00d8 42D719E9 		.ascii	"B\327\031\351\322\302\230N\321\315\215-\262\276\311"
  92      D2C2984E 
  92      D1CD8D2D 
  92      B2BEC9
  93 00e7 F24B633B 		.ascii	"\362Kc;\256\355\212\312\364\312\213\363S#\242\354\231"
ARM GAS  /tmp/ccGGEubi.s 			page 7


  93      AEED8ACA 
  93      F4CA8BF3 
  93      5323A2EC 
  93      99
  94 00f8 AAB452AF 		.ascii	"\252\264R\257\372\325\216\245\304eg9\375\000\3468H\317"
  94      FAD58EA5 
  94      C4656739 
  94      FD00E638 
  94      48CF
  95              		.text
  96              		.section	.gnu.lto_chVTDoTickI.8380a148b7fbfb9c,"",%progbits
  97 0000 789CAD54 		.ascii	"x\234\255T]l\024U\024>gfwfv\273\266\013V\2515\201M\023"
  97      5D6C1455 
  97      143E6766 
  97      776676BB 
  97      B60B56A9 
  98 0018 5FC03002 		.ascii	"_\3000\002!\206\007\003\246\306\244I\367\205m\243>\030"
  98      21860703 
  98      A6C6A449 
  98      F7856DA3 
  98      3E18
  99 002a 32DD5D77 		.ascii	"2\335]w'\356v\233\355\356\006\302\003w\273\253\326H"
  99      27EE769B 
  99      EDEE06C2 
  99      0377BBAB 
  99      D648
 100 003c 6AE34FAC 		.ascii	"j\343O\254\020\0254\004\361E\342Sy(.\006\371I(\204\370"
 100      10153404 
 100      F145E253 
 100      79282E06 
 100      F9492884 
 101 0051 A07437D8 		.ascii	"\240t7\330@\002\004\315Z%\030\203\304z\356\334\231\331"
 101      400204CD 
 101      5A251883 
 101      C47AEEDC 
 101      99D9
 102 0063 6D69D2FA 		.ascii	"mi\322\372s\223\231{\347\316|\337\371\316w\356\034\011"
 102      7393997B 
 102      E7CE7CDF 
 102      F9CE77EE 
 102      1C09
 103 0075 24583C0C 		.ascii	"$X<\014\272\206T\200.\004@\037\2404~\021\240\250I\350"
 103      BA865480 
 103      2E04401F 
 103      A0347E11 
 103      A0A849E8 
 104 0089 110B592C 		.ascii	"\021\013Y,Ni\036I\336\177\026\200\371\275e\025X\300"
 104      4E691E49 
 104      DE7F1680 
 104      F9BD6515 
 104      58C0
 105 009b 2B29BFD3 		.ascii	"+)\277\323\354W\017\234\241\315\200\202\232\370^u\026"
 105      EC570F9C 
 105      A1CD8082 
 105      9AF85E75 
 105      16
 106 00ac 1A225F00 		.ascii	"\032\"_\000\302>I\366x\025U\303}/!\017)w\301a\306\336"
ARM GAS  /tmp/ccGGEubi.s 			page 8


 106      C23E49F6 
 106      781555C3 
 106      7D2F210F 
 106      2977C161 
 107 00c2 99FDF6F6 		.ascii	"\231\375\366\366u\351CV)\037b\367\347\347\021M$y[\021"
 107      75E94356 
 107      291F62F7 
 107      E7E7114D 
 107      24795B11 
 108 00d6 A2082FD2 		.ascii	"\242\010/\322\003\206\254I\362,\324+\260\225+W\307\036"
 108      0386AC49 
 108      F22CD42B 
 108      B0952B57 
 108      C71E
 109 00e8 638746C6 		.ascii	"c\207F\306\331_\0045Q\226`\333\012\221w>~\273\031\351"
 109      D95F0435 
 109      519660DB 
 109      0A91773E 
 109      7EBB19E9 
 110 00fc 9160FB72 		.ascii	"\221`\373r\310/\245\312\354\374|\355\307\023\327\252"
 110      C82FA5CA 
 110      ECFC7CED 
 110      C713D7AA 
 111 010c B8661D82 		.ascii	"\270f\035\202\201\237a\027(`\242W\265\0374\232\017\323"
 111      819F6117 
 111      2860A257 
 111      B51F349A 
 111      0FD3
 112 011e ECE39B7E 		.ascii	"\354\343\233~{\263\205?\004\370\255\225v\216\320N\220"
 112      7BB3853F 
 112      04F8AD95 
 112      768ED04E 
 112      90
 113 012f 1EA09D6E 		.ascii	"\036\240\235nJ\007\337\356\244\233L\001\274Pfl<$(\004"
 113      4A07DFEE 
 113      A49B4C01 
 113      BC50666C 
 113      3C242804 
 114 0143 16B8261A 		.ascii	"\026\270&\032}t'\303\373Q\242I\236\206ofj\327*\237+"
 114      7D7427C3 
 114      FB51A249 
 114      9E866F66 
 114      6AD72A9F 
 115 0158 36C28156 		.ascii	"6\302\201VN\274W#\"\003\217\242\227\200\0262\201\235"
 115      4EBC5723 
 115      22038FA2 
 115      97801632 
 115      819D
 116 016a 1BE00B56 		.ascii	"\033\340\013V.\316\276\377\372\351O\271\277\352A8P\034"
 116      2ECEBEFF 
 116      FAE94FB9 
 116      BFEA4138 
 116      501C
 117 017c 67411335 		.ascii	"gA\0235\236\246\217\321\360X\031\373\254<\0078\316\300"
 117      9EA68FD1 
 117      F05819FB 
 117      AC3C0738 
ARM GAS  /tmp/ccGGEubi.s 			page 9


 117      CEC0
 118 018e 63C44163 		.ascii	"c\304Ac\032Ffj\307\247z\005i\002\225\015\260\236\344"
 118      1A46666A 
 118      C7A77A05 
 118      6902950D 
 118      B09EE4
 119 01a1 724E1A7B 		.ascii	"rN\032{M\364s:\306\351Z\366\302=6\312W\201\264\025\233"
 119      4DF4733A 
 119      C6E95AF6 
 119      C23D36CA 
 119      5781B415 
 120 01b6 73066C4E 		.ascii	"s\006lN\264g\347\354MC\351\315R\301aUI&q\213W\375\344"
 120      B467E7EC 
 120      4D43E9CD 
 120      52C16155 
 120      4926718B 
 121 01cd 061D32D9 		.ascii	"\006\0352\331\372\344\353\251\307]_\216X\216\010\214"
 121      FAE4EBA9 
 121      C75D5F8E 
 121      588E088C 
 122 01dd 959A3F81 		.ascii	"\225\232?\201\230\340\262\271\312\211zU6\360\270\305"
 122      98E0B2B9 
 122      CA897A55 
 122      36F0B8C5 
 123 01ed D722F405 		.ascii	"\327\"\364\005]\245\301\377\"t\324\345\015P4b\267\002"
 123      5DA5C1FF 
 123      2274D4E5 
 123      0D503462 
 123      B702
 124 01ff F688CDFF 		.ascii	"\366\210\315\377+R\202\357\363<&\353w\320\211\327j\373"
 124      2B5282EF 
 124      F33C26EB 
 124      77D089D7 
 124      6AFB
 125 0211 FC321D51 		.ascii	"\3742\035Q\"%\360C\011Q6\260\301\262+sd\362\207\372"
 125      2225F043 
 125      095136B0 
 125      C1B22B73 
 125      64F287FA 
 126 0225 7752B328 		.ascii	"wR\263(\266i\031\030\337iu\252|\253\356\246\031\264"
 126      B6691918 
 126      DF6975AA 
 126      7CABEEA6 
 126      19B4
 127 0237 8A0C4B43 		.ascii	"\212\014KC=\215\210\367Ju\\\0200\322\214\0126\243\254"
 127      3D8D88F7 
 127      4A755C10 
 127      30D28C0A 
 127      36A3AC
 128 024a 8A81B083 		.ascii	"\212\201\260\203]\246\027m6\344{Z\373\311\034\307\017"
 128      5DA6176D 
 128      36E47B5A 
 128      FBC91CC7 
 128      0F
 129 025b 87FBFCC4 		.ascii	"\207\373\374\304/\177.\314\346\031b\263\227m\377\330"
 129      2F7F2ECC 
 129      E61962B3 
ARM GAS  /tmp/ccGGEubi.s 			page 10


 129      976DFFD8 
 130 026b 64C53639 		.ascii	"d\30569\010p\021F~\035;\373\325~\331\375}D\030\340m"
 130      08701146 
 130      7E1D3BFB 
 130      D57ED9FD 
 130      7D4418E0 
 131 0280 0AE10D49 		.ascii	"\012\341\015I\346\035R\026mr-LH\037\261\211\035&G\012"
 131      E61D5216 
 131      6D722D4C 
 131      481FB189 
 131      1D26470A 
 132 0294 EA551695 		.ascii	"\352U\026\225\373\376\240\375~\265+}\246\366\307\224"
 132      FBFEA0FD 
 132      7EB52B7D 
 132      A6F6C794 
 133 02a4 EA78D96E 		.ascii	"\352x\331ny\251\010\265\354\351\007\375T\355\234/A\271"
 133      79A908B5 
 133      ECE907FD 
 133      54ED9C2F 
 133      41B9
 134 02b6 A23A4A12 		.ascii	"\242:J\022\274.\0046\361\341\225\0126\360<\225\325\022"
 134      BC2E0436 
 134      F1E1950A 
 134      36F03C95 
 134      D512
 135 02c8 186A1268 		.ascii	"\030j\022h\340\005\\\333p\266\237\352G\035Y\266dNN\255"
 135      E0055CDB 
 135      70B69FEA 
 135      471D59B6 
 135      644E4EAD 
 136 02dc 73FE40CD 		.ascii	"s\376@\315v6\3370\371\205\177i\262\360`n\265C\355\023"
 136      7636DF30 
 136      F9857F69 
 136      B2F0606E 
 136      B543ED13 
 137 02f0 2D63E9D3 		.ascii	"-c\351\323\244\331\220sP\276Q\334\342B\022\215\323p"
 137      A4D99073 
 137      50BE51DC 
 137      E242128D 
 137      D370
 138 0302 05E81F57 		.ascii	"\005\350\037W\245\013w\363\364\303\313\367\357\246y"
 138      A50B77F3 
 138      F4C3CBF7 
 138      EFA679
 139 0311 125EDE07 		.ascii	"\022^\336\007\317\301\351\233\247\336\375Dvs\260\217"
 139      CFC1E99B 
 139      A7DEFD44 
 139      7673B08F 
 140 0321 575BE374 		.ascii	"W[\343tm]\342p5\254P\240\012\362%(\315\215\275\366\323"
 140      6D5DE270 
 140      35AC50A0 
 140      0AF22528 
 140      CD8DBDF6 
 141 0336 1C2EEEA6 		.ascii	"\034.\356\246o\3358\2526\272\251\335\017\\\033\332\243"
 141      6FDD38AA 
 141      36BAA9DD 
 141      0F5C1BDA 
ARM GAS  /tmp/ccGGEubi.s 			page 11


 141      A3
 142 0347 4881ABA2 		.ascii	"H\201\253\242\014&>\342p\252pL\341\255k\264t\375\344"
 142      0C263EE2 
 142      70AA704C 
 142      E1AD6BB4 
 142      74FDE4
 143 035a 36475987 		.ascii	"6GY\207\225R\247Ud\012\366\333\255\007\203\375\374A"
 143      9552A755 
 143      640AF6DB 
 143      AD0783FD 
 143      FC41
 144 036c 5330CFA2 		.ascii	"S0\317\242`\217F\321k\340U\247\357u\230\270\306\211"
 144      608F46D1 
 144      6BE055A7 
 144      EF7598B8 
 144      C689
 145 037e A771272E 		.ascii	"\247q'.Cq\266\252\273\235\321\032}\224sY\345\2627\353"
 145      4371B6AA 
 145      BB9DD11A 
 145      7D947359 
 145      E5B237EB 
 146 0392 C94C3AAE 		.ascii	"\311L:\256G3\261=z,^\320\243Is\300\314\014\353\271l"
 146      4733B13D 
 146      7A2C5ED0 
 146      A34973C0 
 146      CC0CEBB9 
 147 03a7 7EF0559D 		.ascii	"~\360U\235\026\331\234n\016FS\371\030}\224,\3446&A."
 147      16D99C6E 
 147      0E4653F9 
 147      187D942C 
 147      E4362641 
 148 03bc E486BCB1 		.ascii	"\344\206\274\261x*gH\257\014v/\207O\032)}(\223\315\015"
 148      782A6748 
 148      AF0C762F 
 148      874F1A29 
 148      7D2893CD 
 149 03d1 EB91BEF0 		.ascii	"\353\221\276\360\226\315zo\357sz_O\270\260I\037\316"
 149      96CD7A6F 
 149      EF737A5F 
 149      4FB8B049 
 149      1FCE
 150 03e3 ED4AA562 		.ascii	"\355J\245bD\270}\005\032\004\305\263;\303\335\341\335"
 150      44B87D05 
 150      1A04C5B3 
 150      3BC3DDE1 
 150      DD
 151 03f4 F4413493 		.ascii	"\364A4\223\215\357\312\231\351x\226\360;\226\303\307"
 151      8DEFCA99 
 151      E97896F0 
 151      3B96C3C7 
 152 0404 77E7F4EE 		.ascii	"w\347\364\356p\244'\322H\205\343\243\351\347\363\203"
 152      70A427D2 
 152      4885E3A3 
 152      E9E7F383 
 153 0414 51220886 		.ascii	"Q\"\010\206#;C\003\306p|(k>\031z\342)\220\262\240\246"
 153      233B4303 
 153      C6707C28 
ARM GAS  /tmp/ccGGEubi.s 			page 12


 153      6B3E197A 
 153      E22990B2 
 154 042a E3E94C76 		.ascii	"\343\351Lv\017\374\015/\016\026\312"
 154      0FFC0D2F 
 154      0E16CA
 155              		.text
 156              		.section	.gnu.lto_chSysGetStatusAndLockX.part.0.8380a148b7fbfb9c,"",%progbits
 157 0000 789C9553 		.ascii	"x\234\225SOh\323P\030\377\276\244I\2538\364\272K\015"
 157      4F68D350 
 157      18FFBEA4 
 157      49AB38F4 
 157      BA4B0D
 158 0013 036F63CF 		.ascii	"\003oc\317\233\247\301\244\"x\350\245\355@O\222\245"
 158      9BA7C1A4 
 158      2278E8A5 
 158      ED404F92 
 158      A5
 159 0024 610DAE7F 		.ascii	"a\015\256\177H\322\261\235\366\326\366\354\272^\334"
 159      48D2B19D 
 159      F6D6F6EC 
 159      BA5EDC
 160 0033 04615594 		.ascii	"\004aU\224\211\240\010\016\004\013\026\007u\010V\204"
 160      89A0080E 
 160      040B1607 
 160      75085684 
 161 0043 DDAD4304 		.ascii	"\335\255C\004q\036*(\010b\374^\332uu\023W_H\276\357"
 161      711E2A28 
 161      0862FC5E 
 161      DA757513 
 161      575F48BE 
 162 0058 7DDFFBFD 		.ascii	"}\337\373\375\311{\211\004\022\034\034\027\350\036\226"
 162      C97B8904 
 162      121C1C17 
 162      E81E96
 163 0067 013E51C4 		.ascii	"\001>Q\304 \240ZnR\242\242\344GI\222ka\340\307\003\333"
 163      20A05A6E 
 163      52A2A2E4 
 163      4749926B 
 163      61E0C703 
 164 007c 0CF80919 		.ascii	"\014\370\011\031\025Q]\014\005\366\022\005Q$\200\260"
 164      15515D0C 
 164      05F61205 
 164      512480B0 
 165 008c A04A7240 		.ascii	"\240Jr@\301\205+(X\325\021\250r^i\335\365vp\225\327"
 165      C1852B28 
 165      58D511A8 
 165      725E69DD 
 165      F5767095 
 166 00a1 4B6BFCA7 		.ascii	"Kk\374\247\347!ZH\016\"\010\006\302e\232\240\346\007"
 166      E7215A48 
 166      0E220806 
 166      C2659AA0 
 166      E607
 167 00b3 29F0A725 		.ascii	")\360\247%\037{\263\265\321\370p\007\333/\012+\274T"
 167      1F7BB3B5 
 167      D1F87007 
 167      DB2F0A2B 
ARM GAS  /tmp/ccGGEubi.s 			page 13


 167      BC54
 168 00c5 27F0690B 		.ascii	"'\360i\013\311\346\0362\324A\342\337\220\374\341:\227"
 168      C9E61E32 
 168      D441E2DF 
 168      90FCE13A 
 168      97
 169 00d6 7D457950 		.ascii	"}EyPL\245\365\355\345\233\006.\027\371VO\215\254>\305"
 169      4CA5F5ED 
 169      E59B062E 
 169      17F9564F 
 169      8DAC3EC5 
 170 00ea FFF1BABC 		.ascii	"\377\361\272\274Y\330G\007`\020d\245~c\351\3720_+\224"
 170      59D84707 
 170      601064A5 
 170      7E63E9FA 
 170      305F2B94 
 171 00fe F92FC211 		.ascii	"\371/\302\021L\307{(\035\001}$\361\226\347\375\370~"
 171      4CC77B28 
 171      1D017D24 
 171      F196E7FD 
 171      F87E
 172 0110 2C88A063 		.ascii	",\210\240c\025G\310\252\205\012u\024(q^\326t\\\247\242"
 172      1547C8AA 
 172      850A7514 
 172      28715ED6 
 172      745CA7A2 
 173 0124 EF804682 		.ascii	"\357\200F\202\236\342\224\022\250\212(O\222\200\210"
 173      9EE29412 
 173      A88A284F 
 173      928088
 174 0133 4D586C7F 		.ascii	"MXl\177}>\324\303T}Lw\012\304|\337\347\364\007Q\324"
 174      7D3ED4C3 
 174      547D4C77 
 174      0AC47CDF 
 174      E7F40751 
 175 0148 682FE9FB 		.ascii	"h/\351\373\221;\037Q\030^\341-\2762a\021)\215i\354l"
 175      913B1F51 
 175      185EE12D 
 175      BE326111 
 175      298D69EC 
 176 015d EB6B283E 		.ascii	"\353k(>\333\374\274\264\373\345\244\216\017\010>\215"
 176      DBFCBCB4 
 176      FBE5A48E 
 176      0F083E8D 
 177 016d 12B5C44B 		.ascii	"\022\265\304K(\036\035\005lAi\367\375F\343cQ\356\320"
 177      281E1D05 
 177      6C4169F7 
 177      FD46E363 
 177      51EED0
 178 0180 53DF6FF6 		.ascii	"S\337o\366\277\336$\011\325\302d\257\320\276\275\332"
 178      BFDE2409 
 178      D5C264AF 
 178      D0BEBDDA 
 179 0190 C0C38690 		.ascii	"\300\303\206\220\256\346\0017\357\272n\202b*(A\023Y"
 179      AEE60137 
 179      EFBA6E82 
 179      622A2841 
ARM GAS  /tmp/ccGGEubi.s 			page 14


 179      1359
 180 01a2 AFBFD3ED 		.ascii	"\257\277\323\355\207\372u\002\260\315\204\316\2775t"
 180      87FA7502 
 180      B0CD84CE 
 180      BF3574
 181 01b1 7C4CC921 		.ascii	"|L\311!N\035\237`\270\237M\361w\365-\375\026\373\325"
 181      4E1D9F60 
 181      B89F4DF1 
 181      77F52DFD 
 181      16FBD5
 182 01c4 04ED0B55 		.ascii	"\004\355\013U\005`\202\245\262i\223\031\331\344<K\232"
 182      056082A5 
 182      B2699319 
 182      D9E43C4B 
 182      9A
 183 01d5 B3CC4859 		.ascii	"\263\314HYSV\326a\256\235\317\\c\224\230s.\213D\343"
 183      5356D661 
 183      AE9DCF5C 
 183      63949873 
 183      2E8B44E3 
 184 01e9 97E2CCCA 		.ascii	"\227\342\314\312\0303\371\244Xk\233W\215\364\305|\306"
 184      1833F9A4 
 184      586B9B57 
 184      8DF4C57C 
 184      C6
 185 01fa 184B816A 		.ascii	"\030K\201j\233N~\306eG\361\330.sl\203\352\316\2743f"
 185      9B4E7EC6 
 185      6547F1D8 
 185      2E736C83 
 185      EACEBC33 
 186 020f C0F800EB 		.ascii	"\300\370\000\353sY\333u\330\371X4\022\235\243\005\276"
 186      7359DB75 
 186      D8F95834 
 186      129DA305 
 186      BE
 187 0220 EEECB934 		.ascii	"\356\354\2714\211\312\216\353\014Ecq\355\314\331Q\315"
 187      89CA8EEB 
 187      0C456371 
 187      EDCCD951 
 187      CD
 188 0231 CA3936C8 		.ascii	"\31296\310\3436\234\212\306c\332\224\356\2309\333\032"
 188      E3369C8A 
 188      C663DA94 
 188      EE9839DB 
 188      1A
 189 0242 A5164836 		.ascii	"\245\026H6\004\323f:k\317\303o{\013\005{"
 189      04D3663A 
 189      6BCFC36F 
 189      7B0B057B 
 190              		.text
 191              		.section	.gnu.lto_chSysRestoreStatusX.part.1.8380a148b7fbfb9c,"",%progbits
 192 0000 789C8D52 		.ascii	"x\234\215RMh\023Q\020\236yo7\211A\2617\025$\204\202"
 192      4D681351 
 192      109E796F 
 192      378941B1 
 192      37152484 
 193 0015 B7D2275E 		.ascii	"\267\322'^<\025*\025\301C.I\013z\222\355fi\026\233\037"
ARM GAS  /tmp/ccGGEubi.s 			page 15


 193      3C152A15 
 193      C1432E49 
 193      0B7A92ED 
 193      6669169B 
 194 002a 7637B541 		.ascii	"v7\265A\260\257i\016\"\036\242(XAh\015\242^\014z\254"
 194      B0AF690E 
 194      221EA228 
 194      5841680D 
 194      A25E0C7A 
 195 003f 1EFC41F0 		.ascii	"\036\374A\360b\304K=\211QOB-\355\301\213J\326y\233\244"
 195      62C44B3D 
 195      89514F42 
 195      2DEDC18B 
 195      4AD6799B 
 196 0054 2456306F 		.ascii	"$V0o\331\235y\363\315\367\315\314{\313\200\301\337\353"
 196      D99D79F3 
 196      CDF7CDCC 
 196      7BCB80C1 
 196      DFEB
 197 0066 24BD0D0A 		.ascii	"$\275\015\012\177#\213a\300P\265AN\010Y`\031\343\353"
 197      7F238B61 
 197      C050B541 
 197      4E085960 
 197      19E3EB
 198 0079 0264545B 		.ascii	"\002dT[\213\201\334\313QW\321\305\210\326utD\345\000"
 198      8B81DCCB 
 198      5157D1C5 
 198      88D67574 
 198      44E500
 199 008c C2428871 		.ascii	"\302B\210qM\307\205\263\250T\265aX\225\362z\363\365"
 199      4DC785B3 
 199      A854B561 
 199      5895F27A 
 199      F3F5
 200 009e AFC787E4 		.ascii	"\257\307\207\344J\271*[\276\2176R\375c\010&\302\031"
 200      4AB92A5B 
 200      BE8F3652 
 200      FD630826 
 200      C219
 201 00b0 DA603C30 		.ascii	"\332`<0L\353o\250\303\374\370\243~xY>\257\254\310\337"
 201      4CEB6FA8 
 201      C3FCF8A3 
 201      7E78593E 
 201      AFACC8DF 
 202 00c4 44A53CCE 		.ascii	"D\245<\316\340\302@\334\333\252\352\201+M\331\255JI"
 202      E0C240DC 
 202      DBAAEA81 
 202      2B4DD9AD 
 202      4A49
 203 00d6 5D5AA44D 		.ascii	"]Z\244M\303\177\321\344\243\007\222\007\345\370\000"
 203      C37FD1E4 
 203      A3079207 
 203      E5F800
 204 00e5 9C3A934D 		.ascii	"\234:\223M\337_\276\033\215 \030X\303a\232\315F\235"
 204      DF5FBE1B 
 204      8D201858 
 204      C3619ACD 
ARM GAS  /tmp/ccGGEubi.s 			page 16


 204      469D
 205 00f7 101D2A52 		.ascii	"\020\035*RV\343\006\256R0\220\2415I_uR\223\030R\226"
 205      56E306AE 
 205      523090A1 
 205      35495F75 
 205      52931852 
 206 010c 4F210B6C 		.ascii	"O!\013l\003\026\2677[\037p\207T\013H\235-\220\364\375"
 206      0316B737 
 206      5B1F7087 
 206      540B489D 
 206      2D90F4FD 
 207 0120 403458A4 		.ascii	"@4X\244q\211\253;\344\355\213\214\301U\274#o\215\333"
 207      7189AB3B 
 207      E4ED8B8C 
 207      C155BC23 
 207      6F8DDB
 208 0133 244A6B06 		.ascii	"$Jk\006\333=\276\205\245\247\257j77\276\3577\360!\261"
 208      DB3DBE85 
 208      A5A7AF6A 
 208      3737BEEF 
 208      37F021B1 
 209 0147 679011A4 		.ascii	"g\220\021\244\206\320}N\370\033\250l|\276\327z\201m"
 209      86D07D4E 
 209      F81BA86C 
 209      7CBED77A 
 209      816D
 210 0159 718203AC 		.ascii	"q\202\003\254w\272)\344\260.\250\273\362\366\346\215"
 210      77BA29E4 
 210      B02EA8BB 
 210      F2F6E68D 
 211 0169 AF0777B7 		.ascii	"\257\007w\267\203\3644\260\277\231O\235f\302j\253$y"
 211      83F434B0 
 211      BF994F9D 
 211      66C26AAB 
 211      2479
 212 017b A0B5837F 		.ascii	"\240\265\203\177\351\340\221\336:\032\254\305\370;X"
 212      E9E091DE 
 212      3A1AACC5 
 212      F83B58
 213 018a DA7AE93F 		.ascii	"\332z\351?\303\256\374E\370)/\313!\033\367\230\235\231"
 213      C3AEFC45 
 213      F8292FCB 
 213      211BF798 
 213      9D99
 214 019c 6C8CD27F 		.ascii	"l\214\322\177:H;\006\326\311\331U\336\300'\030\353-"
 214      3A483B06 
 214      D6C9D955 
 214      DEC02718 
 214      EB2D
 215 01ae AC07E7FF 		.ascii	"\254\007\347\377\036\026\267\312\327\364\276c\246KB"
 215      1E16B7CA 
 215      D7F4BE63 
 215      A64B42
 216 01bd 052A9E10 		.ascii	"\005*\236\020\231|\326\022f>]\022ikN\230\031{\332\316"
 216      997CD612 
 216      663E5D12 
 216      696B4E98 
ARM GAS  /tmp/ccGGEubi.s 			page 17


 216      197BDACE 
 217 01d1 BBC2738A 		.ascii	"\273\302s\212\271\363\202\034\307\023\256cR\334-\271"
 217      B9F3821C 
 217      C713AE63 
 217      52DC2DB9 
 218 01e1 A32670D7 		.ascii	"\243&p\327s\307\377\307\261\346=1\221H\235N\011;g\316"
 218      73C7FFC7 
 218      B1E63D31 
 218      91489D4E 
 218      093B67CE 
 219 01f5 16D32AD7 		.ascii	"\026\323*\327\261\316\231\331S\305\2349\232\201\220"
 219      B1CE99D9 
 219      53C59C39 
 219      9A8190
 220 0204 63B9C559 		.ascii	"c\271\305Yo_\"\231\212\0379:\022\267\013\256\003|\314"
 220      6F5F2299 
 220      8A1F393A 
 220      12B70BAE 
 220      037CCC
 221 0217 81B101BA 		.ascii	"\201\261\001\272)\344\035\317\025'\222\211\211\304<"
 221      29E41DCF 
 221      15279289 
 221      89C43C
 222 0226 2504CA73 		.ascii	"%\004\312s\307\263$;\224H%\343\323\206k\025\034{\204"
 222      C7B3243B 
 222      944825E3 
 222      D3866B15 
 222      1C7B84
 223 0239 84813910 		.ascii	"\204\2019\020\316Z\331\274S\202?\347\265\365\351"
 223      CE5AD9BC 
 223      53823FE7 
 223      B5F5E9
 224              		.text
 225              		.section	.gnu.lto_chSysInit.8380a148b7fbfb9c,"",%progbits
 226 0000 789CA593 		.ascii	"x\234\245\223\317k\023A\024\307\337\233i\222\335\326"
 226      CF6B1341 
 226      14C7DF9B 
 226      6992DDD6 
 227 0010 68AC15EA 		.ascii	"h\254\025\352Es\351E\245k\377\203@A\350\241\027\243"
 227      4573E945 
 227      A56BFF83 
 227      4041E8A1 
 227      17A3
 228 0022 A0789066 		.ascii	"\240x\220f\262\230A7)\273\211\030<t\323V*\"\330\203"
 228      B2984137 
 228      29BB8918 
 228      3C74D356 
 228      2A22D883 
 229 0036 D060512C 		.ascii	"\320`Q,\275)\250\307\034\013^5\245\007/\265J\240'\305"
 229      BD29A8C7 
 229      1C0B5E35 
 229      A5072FB5 
 229      4AA027C5 
 230 004a 8BD722C4 		.ascii	"\213\327\"\3047\373\213M\273\342\301\201\235\231}\363"
 230      37FB8B4D 
 230      BBE2C181 
 230      9D997DF3 
ARM GAS  /tmp/ccGGEubi.s 			page 18


 231 005a 7D9F99FD 		.ascii	"}\237\231\375\316[\006\014\016\2673\364\274\344\000"
 231      CE5B060C 
 231      0EB733F4 
 231      BCE400
 232 0069 6B342207 		.ascii	"k4\"\007d\253]\200\226\306\020\325\004\020\026\030."
 232      64AB5D80 
 232      96C610D5 
 232      04101618 
 232      2E
 233 007a DC402545 		.ascii	"\334@%E\013\341\035\333\352\365\373o\333+kO\360\015"
 233      0BE11DDB 
 233      EAF5FB6F 
 233      DB2B6B4F 
 233      F00D
 234 008c 1BD54122 		.ascii	"\033\325A\"dUG-\005\313\256\273\232\267\324\213\360"
 234      6455472D 
 234      05CBAEBB 
 234      9AB7D48B 
 234      F0
 235 009d 2257A957 		.ascii	"\"W\251W\230k\310\324\310\267a\251\267\273\224\231\303"
 235      986BC8D4 
 235      C8B761A9 
 235      B7BB9499 
 235      C3
 236 00ae 0D4CD1F2 		.ascii	"\015L\321\362\0038p\037\2719\211(\320\323\023\210N\250"
 236      0338701F 
 236      B9398928 
 236      D0D31388 
 236      4EA8
 237 00c0 545F3E0C 		.ascii	"T_>\014'\251\330\240jo?\235\244\342\003\252W\337x\222"
 237      27A9D8A0 
 237      6A6F3F9D 
 237      A4E203AA 
 237      57DF7892 
 238 00d4 686810F5 		.ascii	"hh\020\365}3\361X\251A\324\317DT:.z\330\353\013_t\033"
 238      7D33F158 
 238      A941D4CF 
 238      44543A2E 
 238      7AD8EB0B 
 239 00eb F548C505 		.ascii	"\365H\305\005f<\225\212h\344\027\271\024\240\256\243"
 239      663C958A 
 239      68E417B9 
 239      14A0AEA3 
 240 00fb C4A102A5 		.ascii	"\304\241\002\245\323\374\023,\316\370\341\013p\236T"
 240      D3FC132C 
 240      CEF8E10B 
 240      709E54
 241 010a 5E9F5E87 		.ascii	"^\237^\207\347-WQ2\021O\263<\307T\256\346qK\276\201"
 241      E72D5751 
 241      32114FB3 
 241      3CC754AE 
 241      E6714BBE 
 242 011f 34FA13DA 		.ascii	"4\372\023\332\334\303u:\233;,D\276v\251MI\324\211H\231"
 242      DCC3753A 
 242      9B3B2C44 
 242      BE76A94D 
 242      49D48948 
ARM GAS  /tmp/ccGGEubi.s 			page 19


 243 0134 C3245284 		.ascii	"\303$R\2040\323wWEt\025\353\302\342\257\037\317\366"
 243      30D37757 
 243      457415EB 
 243      C2E2AF1F 
 243      CFF6
 244 0146 C7837B85 		.ascii	"\307\203{\205\360\300\252*\020\034\256\252\211\373%"
 244      F0C0AA2A 
 244      101CAEAA 
 244      89FB25
 245 0155 751696F1 		.ascii	"u\026\226\361\205\333.H\034\011\021\307<X\264\276\022"
 245      85DB2E48 
 245      1C0911C7 
 245      3C58B4BE 
 245      12
 246 0166 AC67FDCD 		.ascii	"\254g\375\315\272\320\332X\0379JV\354\247\370\267,\372"
 246      BAD0DA58 
 246      1F394A56 
 246      ECA7F8B7 
 246      2CFA
 247 0178 9EDD8FBF 		.ascii	"\236\335\217\277\307B{\263\377k\222G<\3401\307\217G"
 247      C7427BB3 
 247      FF6B9247 
 247      3CE031C7 
 247      8F47
 248 018a CE64E3CE 		.ascii	"\316d\343\316\360\350\356\306%\236\260\002\247\266\241"
 248      F0E8EEC6 
 248      259EB002 
 248      A7B6A1
 249 0199 EDEE7D7E 		.ascii	"\355\356}~\217Gj\"'\202\015\375\210{S\342I\013y\354"
 249      8F476A22 
 249      27820DFD 
 249      887B53E2 
 249      490B79EC 
 250 01ad C2477BCC 		.ascii	"\302G{\314\277x\0144[_\037\237\223xJ\240\036S\215\251"
 250      BF780C34 
 250      5B5F1F9F 
 250      93784AA0 
 250      1E538DA9 
 251 01c1 AA3A0DB0 		.ascii	"\252:\015\260\003\255^g\"f\222\367o\241\372\247\324"
 251      03AD5E67 
 251      226692F7 
 251      6FA1FAA7 
 251      D4
 252 01d2 490CA352 		.ascii	"I\014\243R\263LC\324\312M\243l\3363DE\226d\3151\352"
 252      B34C43D4 
 252      CA4DA36C 
 252      DE334445 
 252      9664CD31 
 253 01e7 76A37AC7 		.ascii	"v\243z\307\240\211]7\034[P\334i:\223\002\012\377\322"
 253      A0895D37 
 253      1C5B50DC 
 253      693A9302 
 253      0AFFD2
 254 01fa 9BF7EBC6 		.ascii	"\233\367\353\306\364lq\246h\310\252\270\333(+\255m\336"
 254      F46C71A6 
 254      68C8AAB8 
 254      DB282BAD 
ARM GAS  /tmp/ccGGEubi.s 			page 20


 254      6DDE
 255 020c 12D6E546 		.ascii	"\022\326\345FULV 7[\274\222/\3159\346\274-/\346'.\001"
 255      554C5620 
 255      375BBC92 
 255      2FCD39E6 
 255      BC2D2FE6 
 256 0223 B3216399 		.ascii	"\263!c\231V\315n\202&\346\035i\346%\374\001\332\253"
 256      56CD6E82 
 256      26E61D69 
 256      E625FC01 
 256      DAAB
 257 0235 F901     		.ascii	"\371\001"
 258              		.text
 259              		.section	.gnu.lto_chSysHalt.8380a148b7fbfb9c,"",%progbits
 260 0000 789C858F 		.ascii	"x\234\205\217\277J\304@\020\306gvsz`\343\023\310\365"
 260      BF4AC440 
 260      10C66776 
 260      737A60E3 
 260      13C8F5
 261 0013 EA6DE10B 		.ascii	"\352m\341\013\234\010\202\205\325E\320J\314&\230E\223"
 261      9C088285 
 261      D545D04A 
 261      CC269845 
 261      93
 262 0024 48721183 		.ascii	"Hr\021\203\302m\360\012\301\346*\021\377\0246\026\026"
 262      C26DF00A 
 262      C1E62A11 
 262      FF143616 
 262      16
 263 0035 E72B88AD 		.ascii	"\347+\210\255z\245\325\025\226bg+\3029\311\006\013\033"
 263      7AA5D515 
 263      9662672B 
 263      C239C906 
 263      0B1B
 264 0047 07BEDDDF 		.ascii	"\007\276\335\337||;\3142`\360\267\346I\357\244c\022"
 264      7C7C3BCC 
 264      3260F0B7 
 264      E649EFA4 
 264      6312
 265 0059 D600597F 		.ascii	"\326\000Y\177\010\220\327\031r\003\034-\003\226q\026"
 265      0890D719 
 265      72031C2D 
 265      03967116 
 266 0069 11BA8C5B 		.ascii	"\021\272\214[\330\335\300\362\375={x\033\217\007W\247"
 266      D8DDC0F2 
 266      FD3D7B78 
 266      1B8F0757 
 266      A7
 267 007a B7CF3860 		.ascii	"\267\3178`\023\034\203\322\257AO\353~\003@\226\255M"
 267      131C83D2 
 267      AF414FEB 
 267      7E034096 
 267      AD4D
 268 008c 27C21A32 		.ascii	"'\302\0322@>\204\374\363c\364\212\277\221-\274\241\246"
 268      403E84FC 
 268      F363F48A 
 268      BF912DBC 
ARM GAS  /tmp/ccGGEubi.s 			page 21


 268      A1A6
 269 009e 2C84849B 		.ascii	",\204\204\233%g\340\350Z\237\267\024V{\276\300\343\323"
 269      2567E0E8 
 269      5A9FB714 
 269      567BBEC0 
 269      E3D3
 270 00b0 E8FB6CCE 		.ascii	"\350\373l\316\204g\341N\367r\275\240\020\013\244\232"
 270      8467E14E 
 270      F772BDA0 
 270      100BA49A 
 271 00c0 52C82EE1 		.ascii	"R\310.\341\"\327zZ!?\204/}R\220\025`1a\035\011\3139"
 271      22D77A5A 
 271      213F842F 
 271      7D529015 
 271      6031611D 
 272 00d7 4E35D041 		.ascii	"N5\320A\003\333\310\215a\023\320\007\271MA\272\321\256"
 272      03DBC88D 
 272      6113D007 
 272      B94D41BA 
 272      D1AE
 273 00e9 0220841F 		.ascii	"\002 \204\037\005\236\220\221\233\011\327\333\027\322"
 273      059E9091 
 273      9B09D7DB 
 273      17D2
 274 00f7 578E8A12 		.ascii	"W\216\212\022\321\211\323pG\020\304\035\221\304\222"
 274      D189D370 
 274      4710C41D 
 274      91C492
 275 0106 FC244B9A 		.ascii	"\374$K\232\022Z\377\345\275\203\216XZm\257\264\205\012"
 275      125AFFE5 
 275      BD838E58 
 275      5A6DAFB4 
 275      850A
 276 0118 E56EEA16 		.ascii	"\345n\352\026\331\330\333\224\301r\032\312\246\017u"
 276      D9D8DB94 
 276      C1721ACA 
 276      A60F75
 277 0127 B99728B7 		.ascii	"\271\227(\267\241`2\360\202(\316\340\0072\016i\223"
 277      A16032F0 
 277      8228CEE0 
 277      07320E69 
 277      93
 278              		.text
 279              		.section	.gnu.lto_chSysTimerHandlerI.8380a148b7fbfb9c,"",%progbits
 280 0000 789C6362 		.ascii	"x\234cb`b@\007\222@\\\003\304\206@\314\310\314\300\310"
 280      60624007 
 280      92405C03 
 280      C48640CC 
 280      C8CCC0C8 
 281 0014 34E11C03 		.ascii	"4\341\034\003C#\007\023##\210\301\300\310P\317\304X"
 281      43230713 
 281      232388C1 
 281      C0C850CF 
 281      C458
 282 0026 1FC90856 		.ascii	"\037\311\010V\273\236\351\300\203\377\377\327M:7\177"
 282      BB9EE9C0 
 282      83FFFFD7 
ARM GAS  /tmp/ccGGEubi.s 			page 22


 282      4D3A377F 
 283 0036 0DE32E26 		.ascii	"\015\343.&f\240\010+CKC\303\004\005\006\206d\260\212"
 283      66A0082B 
 283      434B43C3 
 283      04050686 
 283      64B08A
 284 0049 102009D2 		.ascii	"\020 \011\322\026\312\310\004\242\231\31734?\230w\234"
 284      16CAC804 
 284      A299CF33 
 284      343F9877 
 284      9C
 285 005a 3D917121 		.ascii	"=\221q!#+P\272\232\341WCG\203@&#P9\304\304L\020}\221"
 285      232B50BA 
 285      9AE15743 
 285      47834026 
 285      235039C4 
 286 0073 A1F1C12A 		.ascii	"\241\361\301*u\230\"\010\010\001J\000M\000\271W_?#?"
 286      75982208 
 286      08014A00 
 286      4D00B957 
 286      5F3F233F 
 287 0087 37553F39 		.ascii	"7U?9?\245R?%\265L?9#3)3\277X\277\244\2504/[\037\310"
 287      3FA5523F 
 287      25B54C3F 
 287      39233329 
 287      33BF58BF 
 288 00a2 282AD12F 		.ascii	"(*\321/.J\006\212\027W\026\353%3\000\000K\3443\345"
 288      2E4A068A 
 288      175716EB 
 288      25330000 
 288      4BE433E5 
 289              		.text
 290              		.section	.gnu.lto_chSysGetStatusAndLockX.8380a148b7fbfb9c,"",%progbits
 291 0000 789C854F 		.ascii	"x\234\205O1KBQ\024>\347\336\247X4\00454\211\004m\341"
 291      314B4251 
 291      143EE7DE 
 291      A7583404 
 291      35348904 
 292 0016 CDC62010 		.ascii	"\315\306 \020\202\240\301%\025j\022\275>\364Qj\274\247"
 292      82A0C125 
 292      156A12BD 
 292      3EF4516A 
 292      BCA7
 293 0028 A5347425 		.ascii	"\2454t%\203\206 i*(H\372\001\375\001\007\207\206&#p"
 293      83862069 
 293      2A2848FA 
 293      01FD0107 
 293      87862623 
 294 003d B2458568 		.ascii	"\262E\205h\013\252\251\010^\367>5\260\245\013\367~\367"
 294      0BAAA908 
 294      5EF73E35 
 294      B0A50BF7 
 294      7EF7
 295 004f 9CF39DEF 		.ascii	"\234\363\235\357|\207\000\201\277' \357\022\002\234"
 295      7C870081 
 295      BF2720EF 
 295      12029C
ARM GAS  /tmp/ccGGEubi.s 			page 23


 296 005e 4A441720 		.ascii	"JD\027 \2516\001\312\036Bh\213\201\030\327\352^\020"
 296      A93601CA 
 296      1E42688B 
 296      8118D7EA 
 296      5E10
 297 0070 13143595 		.ascii	"\023\0245\225F\015Q! \034\020\252\341\301&*\011\234"
 297      460D5121 
 297      201C10AA 
 297      E1C1262A 
 297      099C
 298 0082 859A1067 		.ascii	"\205\232\020g\235\347\367.^\210F\345Z|\3336\242\201"
 298      9DE7F72E 
 298      5E8846E5 
 298      5A7CDB36 
 298      A281
 299 0094 72DC2202 		.ascii	"r\334\"\002G\330\220\001\372\034 \332\350\374[\322\350"
 299      47D89001 
 299      FA1C20DA 
 299      E8FC5BD2 
 299      E8
 300 00a5 D8F6E567 		.ascii	"\330\366\345g\275\367\204Scn\210cM\352\311\343\202\212"
 300      BDF78453 
 300      636E8863 
 300      4DEAC9E3 
 300      828A
 301 00b7 1055DF30 		.ascii	"\020U\3370\346\316\250\210|\225\203(\022\205\264\011"
 301      E6CEA888 
 301      7C958328 
 301      1285B409 
 302 00c7 E5B7D776 		.ascii	"\345\267\327vof@\006\331~#\267p\\\001\354Q\2650\355"
 302      6F664006 
 302      D97E23B7 
 302      705C01EC 
 302      51B530ED 
 303 00db 6FED8513 		.ascii	"o\355\205\023\274\022\347A\003\251\012S\350vh\367p\367"
 303      BC12E741 
 303      03A90A53 
 303      E87668F7 
 303      70F7
 304 00ed D23DFA08 		.ascii	"\322=\372\010\364\033eV\231\034\361\030\225\015-F\037"
 304      F41B6556 
 304      991CF118 
 304      950D2D46 
 304      1F
 305 00fe E0D03354 		.ascii	"\340\3203T\337\207/q,&\015tqt|\2011\220\223l\315q\366"
 305      DF872F71 
 305      2C260D74 
 305      71747C81 
 305      3190936C 
 306 0115 08E54E3B 		.ascii	"\010\345N;\365\253\332/F$[\026\225\037\306\322\271\214"
 306      F5ABDA2F 
 306      46245B16 
 306      951FC6D2 
 306      B98C
 307 0127 CE782E59 		.ascii	"\316x.YbI}\227\361\264\2210r\026\313\233\205\354\026"
 307      62497D97 
 307      F1B49130 
ARM GAS  /tmp/ccGGEubi.s 			page 24


 307      7216CB9B 
 307      85EC16
 308 013a 931F33CF 		.ascii	"\223\0373\317,\223\313\274U\262\374\034\250\225\267"
 308      2C93CBBC 
 308      55B2FC1C 
 308      A895B7
 309 0149 82FFF5E8 		.ascii	"\202\377\365\350\305<[\011\205\327\302\314\310\362\355"
 309      C53C5B09 
 309      85D7C2CC 
 309      C8F2ED
 310 0158 4252714D 		.ascii	"BRqM=\3063\253\205,\367\247a:\264\036\366\315-\314\373"
 310      3DC633AB 
 310      852CF7A7 
 310      613AB41E 
 310      F6CD2DCC 
 311 016d 12714BDF 		.ascii	"\022qK\3371\215X&^\004\272l\302\017I\326~\373"
 311      318D5826 
 311      5E04BA6C 
 311      C20F49D6 
 311      7EFB
 312              		.text
 313              		.section	.gnu.lto_chSysRestoreStatusX.8380a148b7fbfb9c,"",%progbits
 314 0000 789C6362 		.ascii	"x\234cb`b@\007\206@\274\031J3\262202M8\307\300\320\310"
 314      60624007 
 314      8640BC19 
 314      4A33B232 
 314      30324D38 
 315 0018 C1C4C47C 		.ascii	"\301\304\304|E\237\241\201\213e\217\034C\003\0173#\013"
 315      459FA181 
 315      8B658F1C 
 315      43030F33 
 315      230B
 316 002a 48989185 		.ascii	"H\230\221\205\221\021D302\32431\2630\326G2\202\315X"
 316      91114433 
 316      3032D433 
 316      31B330D6 
 316      473282CD 
 317 003f CF74E0C1 		.ascii	"\317t\340\301\377\377\353\356\364\257\351a<\301\304"
 317      FFFFEBEE 
 317      F4AFE961 
 317      3CC1C4
 318 004e C1C8980B 		.ascii	"\301\310\230\013\026gehih\230\240\300\300\220\014\346"
 318      16676568 
 318      696898A0 
 318      C0C0900C 
 318      E6
 319 005f 86004990 		.ascii	"\206\000I\220\356PF&\020\315|\202\341\310\363\203\037"
 319      EE504626 
 319      10CD7C82 
 319      E1C8F383 
 319      1F
 320 0070 FB991319 		.ascii	"\373\231\023\031\027\002-Ngd\214`\314dDq[(#3\303\025"
 320      17022D4E 
 320      67648C60 
 320      CC644471 
 320      5B282333 
 321 0086 7DE6F30C 		.ascii	"}\346\363\014\315\034\020E\014\014\325\014\277\032:"
ARM GAS  /tmp/ccGGEubi.s 			page 25


 321      CD1C1045 
 321      0C0CD50C 
 321      BF1A3A
 322 0095 1A043219 		.ascii	"\032\0042\031\031\223\031!\2123\031\231`\252Y\300\346"
 322      19931921 
 322      8A331999 
 322      60AA59C0 
 322      E6
 323 00a6 5E64687C 		.ascii	"^dh|\320\241\011\323\000\001!@\305@9\220J}\375\214\374"
 323      D0A109D3 
 323      00012140 
 323      C5403990 
 323      4A7DFD8C 
 324 00bb DC54FDE4 		.ascii	"\334T\375\344\374\224J\375\224\3242\375\344\214\314"
 324      FC944AFD 
 324      94D432FD 
 324      E48CCC
 325 00ca A4CCFC62 		.ascii	"\244\314\374b\375\222\242\322\274l} \243\250D\277\270"
 325      FD92A2D2 
 325      BC6C7D20 
 325      A3A844BF 
 325      B8
 326 00db 2819285E 		.ascii	"(\031(^\\Y\254\227\314\000\000\277\361@\303"
 326      5C59AC97 
 326      CC0000BF 
 326      F140C3
 327              		.text
 328              		.section	.gnu.lto_chSysIsCounterWithinX.8380a148b7fbfb9c,"",%progbits
 329 0000 789C8552 		.ascii	"x\234\205R=h\024Q\020\236\357\275\375y\273\027\033\355"
 329      3D681451 
 329      109EEFBD 
 329      FD79BB17 
 329      1BED
 330 0012 35A44997 		.ascii	"5\244I\227\305X\0106\202\235\235E\016by\331\304\313"
 330      C5580836 
 330      829D9D45 
 330      0E6279D9 
 330      C4CB
 331 0024 229793BB 		.ascii	"\"\227\223\273SHu\273z\305\025W\034AI\023\210A\202E"
 331      534875BB 
 331      7AC51557 
 331      1C414913 
 331      88418245 
 332 0038 8A542922 		.ascii	"\212T)\"\212\027H\021\020\005\305F\020<\204S+\011V\026"
 332      8A174811 
 332      1005C546 
 332      103C8453 
 332      2B095616 
 333 004c C23AEFED 		.ascii	"\302:\357\355n\214A\311\300\31673|3\363\315c\005\011"
 333      6E8C41C9 
 333      C0CE3733 
 333      7C33F3CD 
 333      630509
 334 005f 3A693DFE 		.ascii	":i=\376\332\\\276\316\2101\202\350\277!J\224\020\262"
 334      DA5CBECE 
 334      883182E8 
 334      BF214A94 
ARM GAS  /tmp/ccGGEubi.s 			page 26


 334      10B2
 335 0071 3B49B1EF 		.ascii	";I\261\357j?&\205e2\333d\226p\236\237\327\331\373\200"
 335      6A3F2685 
 335      6532DB64 
 335      96709E9F 
 335      D7D9FB80 
 336 0085 331B4ED6 		.ascii	"3\033N\326\342\240\224\005\256\360\015[\031\266\312"
 336      E2A09405 
 336      AEF00D5B 
 336      19B6CA
 337 0094 33CF641E 		.ascii	"3\317d\036\374\214\344\027\354\022\240\003\002\313\220"
 337      FC8CE417 
 337      EC12A003 
 337      02CB90
 338 00a3 96EDB8CA 		.ascii	"\226\355\270\312\363Kh\337\204V''h#\216W\206\243\255"
 338      F34B68DF 
 338      84562727 
 338      68238E57 
 338      86A3AD
 339 00b6 1FCEEAC3 		.ascii	"\037\316\352\303A\3628\376\225\246@\004\276d\032\024"
 339      41F238FE 
 339      95A64004 
 339      BE641A14 
 340 00c6 82663981 		.ascii	"\202f9\2012 \360\367i\246\267\037\257\217n\034\304\235"
 340      3220F0F7 
 340      69A6B71F 
 340      AF8F6E1C 
 340      C49D
 341 00d8 419A5E8D 		.ascii	"A\232^\215 \005]\371\3236\236\265Y\377j\033\034\276"
 341      20055DF9 
 341      D3369EB5 
 341      59FF6A1B 
 341      1CBE
 342 00ea EBF9FDA4 		.ascii	"\353\371\375\244\033\247i\333\364];\255o[\014\206i\372"
 342      1BA769DB 
 342      F45D3BAD 
 342      6F5B0C86 
 342      69FA
 343 00fc F1D14E6F 		.ascii	"\361\321No\015\257\204\017\252`\003\023,\264\202'\214"
 343      0DAF840F 
 343      AA600313 
 343      2CB48227 
 343      8C
 344 010d 927193D1 		.ascii	"\222q\223\321B\015d\263\203\303N\2709M\345\310fS\207"
 344      420D64B3 
 344      83C34EB8 
 344      394DE5C8 
 344      665387
 345 0120 058C93DE 		.ascii	"\005\214\223\336\3076\303^\277P\031B\243<\240\375/{"
 345      C736C35E 
 345      BF501942 
 345      A33CA0FD 
 345      2F7B
 346 0132 9F562E57 		.ascii	"\237V.W\360\0246UaU\031\216\254\014I\335I&u\276&\353"
 346      F0143655 
 346      6155198E 
 346      AC0C49DD 
ARM GAS  /tmp/ccGGEubi.s 			page 27


 346      492675BE 
 347 0148 2838CE09 		.ascii	"(8\316\011\216E\373\347\364\240\321q\306\261{f\270\266"
 347      8E45FBE7 
 347      F4A0D171 
 347      C6B17B66 
 347      B8B6
 348 015a 7B4196E1 		.ascii	"{A\226\341\350a\257\351\376\367\007\317dAu\2530\377"
 348      E861AFE9 
 348      FEF707CF 
 348      644175AB 
 348      30FF
 349 016c D10712FA 		.ascii	"\321\007\022\372\035$\310\372\351\231Hk\327\343\335"
 349      1D24C8FA 
 349      E999486B 
 349      D7E3DD
 350 017b 42C2DEE1 		.ascii	"B\302\336\341\331\377IP\247J\360\350\263\307\022\374"
 350      D9FF4950 
 350      A74AF0E8 
 350      B3C712FC 
 351 018b 23092F37 		.ascii	"#\011/7\227\012\256\252\352mZ\203\3145\250\336\352\013"
 351      970AAEAA 
 351      EA6D5A83 
 351      CC35A8DE 
 351      EA0B
 352 019d 91ABF028 		.ascii	"\221\253\360(/\272fU\311\274\333[J\206\333Q1\000Y7\370"
 352      2FBA6655 
 352      C9BCDB5B 
 352      4A86DB51 
 352      31005937 
 353 01b2 1CE7DB19 		.ascii	"\034\347\333\031\036\350\233\235\320T}]\020,\326k\013"
 353      1EE89B9D 
 353      D0547D5D 
 353      102CD66B 
 353      0B
 354 01c3 41589F5F 		.ascii	"AX\237_\016\346\027\356\005\341b4\027\325\233A\253q"
 354      0EE617EE 
 354      05E16234 
 354      17D59B41 
 354      AB71
 355 01d5 77E976C0 		.ascii	"w\351v\300A\243\0254\033!\327\233\313\315\251\220\334"
 355      41A31534 
 355      1B21D79B 
 355      CBCDA990 
 355      DC
 356 01e6 E856AB76 		.ascii	"\350V\253vg\352b\216\3239^\372\015\000b\264\373"
 356      67EA628E 
 356      D3395EFA 
 356      0D0062B4 
 356      FB
 357              		.text
 358              		.section	.gnu.lto_chSysPolledDelayX.8380a148b7fbfb9c,"",%progbits
 359 0000 789C9D54 		.ascii	"x\234\235TOH\024Q\030\377\27673;\177w\213\352P\007A"
 359      4F481451 
 359      18FFBE37 
 359      333B7F77 
 359      8BEA5007 
 360 0015 BC48040E 		.ascii	"\274H\004\016\031\324\251B\202nB\204B\235b]\267u\210"
ARM GAS  /tmp/ccGGEubi.s 			page 28


 360      19D4A942 
 360      826E4284 
 360      429D625D 
 360      B77588
 361 0028 75657793 		.ascii	"uew\223<9\253[,\265\207E\210\262\016)aR\036\204\222"
 361      3C39AB5B 
 361      2CB58745 
 361      88B20E29 
 361      61521E84 
 362 003d A0405A4B 		.ascii	"\240@ZKH\010\203\354\244f\254BzY\242\242C\007q\372\346"
 362      480883EC 
 362      A466AC42 
 362      7A59A2A2 
 362      430771FA 
 363 0052 CDECA646 		.ascii	"\315\354\246F%=\230\367{\337{\277\337\367~\337\2747"
 363      253D98F7 
 363      7BDF7BBF 
 363      DFF77EDF 
 363      BC37
 364 0064 C380C1F6 		.ascii	"\303\200\301\3666N\317\206\000p\203\020w\001\262\302"
 364      364ECF86 
 364      00708310 
 364      7701B2C2 
 365 0074 5B808CC2 		.ascii	"[\200\214\302P\360\006\002\023s\365`k\212\333\033\""
 365      50F00602 
 365      1373F560 
 365      6B8ADB1B 
 365      22
 366 0085 937814E0 		.ascii	"\223x\024\340\221\304\344MQ\000eO\"\243\341\015\024"
 366      91C4E44D 
 366      5100654F 
 366      22A3E10D 
 366      14
 367 0096 A6F37595 		.ascii	"\246\363u\225\257\253~\244\361HC\335#\351\025\266\301"
 367      AFAB7EA4 
 367      F14843DD 
 367      23E915B6 
 367      C1
 368 00a7 42F9D740 		.ascii	"B\371\327@\204`V&B\310s\320\024Dt\021\020z\231 J\001"
 368      84605626 
 368      42C873D0 
 368      14447411 
 368      107A9920 
 369 00bd 595135DD 		.ascii	"YQ5\335\010\005\261\367<\272\005\210u0l\333\003\245"
 369      0805B1F7 
 369      3CBA0588 
 369      75306CDB 
 369      03A5
 370 00cf AB4F1770 		.ascii	"\253O\027p\320.f\207\354u\307A\264\220\212mD\210 \234"
 370      D02E6687 
 370      EC75C741 
 370      B4908A6D 
 370      4488209C 
 371 00e3 A3006B39 		.ascii	"\243\000k90qk\365\\[(~\235\033=p}\250\257`o\220\324"
 371      30716BF5 
 371      5C5B287E 
 371      9D1B3D70 
ARM GAS  /tmp/ccGGEubi.s 			page 29


 371      7DA8AF60 
 372 00fa 4281C1D1 		.ascii	"B\201\301\321\035*?\316\345\265B&g;N/\327\235\330\221"
 372      1D2A3FCE 
 372      E5B54226 
 372      673B4E2F 
 372      D79DD891 
 373 010e 6EC05E5A 		.ascii	"n\300^Z:s\333\316\026\035\347\244\205\"\203\323\277"
 373      3A73DBCE 
 373      161DE7A4 
 373      852283D3 
 373      BF
 374 011f 648A27C3 		.ascii	"d\212'\303m\307\304\212%\307)\017.\257,\342\276\220"
 374      6DC7C48A 
 374      25C7290F 
 374      2EAF2CE2 
 374      BE90
 375 0131 88710409 		.ascii	"\210q\004\011\3028\214u \003\325\252\270\235J3#4\243"
 375      C2388C75 
 375      2003D5AA 
 375      B89D4A33 
 375      2334A3
 376 0144 118E12EA 		.ascii	"\021\216\022\352\204\367\011\015?\016\372HM\202,\331"
 376      84F7090D 
 376      3F0EFA48 
 376      4D822CD9 
 377 0154 AFF53280 		.ascii	"\257\3652\200\2739\265\026\352\351\335\267\"#\020f\341"
 377      BB39B516 
 377      EAE9DDB7 
 377      22231066 
 377      E1
 378 0165 E5C287B5 		.ascii	"\345\302\207\265R>\342s+\242\342\233\265\011\2720a|"
 378      523EE273 
 378      2BA2E29B 
 378      B509BA30 
 378      617C
 379 0177 881209B9 		.ascii	"\210\022\011\2712\206\362!xdg3\245\311k\253\373k,\224"
 379      3286F221 
 379      78646733 
 379      A5C96BAB 
 379      FB6B2C94 
 380 018b EEC29D4C 		.ascii	"\356\302\235L\301\336ma\300-G\266\207l;\304+\223y=m"
 380      C1DE6D61 
 380      C02D47B6 
 380      876C3BC4 
 380      2B93793D 
 381 01a0 AE2C8C63 		.ascii	"\256,\214c\224\202\332,\364\347^\335(O\010^\322\030"
 381      9482DA2C 
 381      F4E75EDD 
 381      284F085E 
 381      D218
 382 01b2 4A311463 		.ascii	"J1\024c>\225\374\010@W\340/\206\312\337\345\337\014"
 382      3E95FC08 
 382      4057E02F 
 382      86CADFE5 
 382      DF0C
 383 01c4 29FF6568 		.ascii	")\377eh\33434\003\323\253\313\237\306\276\005\252[y"
 383      DC333403 
ARM GAS  /tmp/ccGGEubi.s 			page 30


 383      D3ABCB9F 
 383      C6BE05AA 
 383      5B79
 384 01d6 D97966A9 		.ascii	"\331yf\251\352\314s'B\256^\230\201\354j\346\036\206"
 384      EACC7327 
 384      42AE5E98 
 384      81EC6AE6 
 384      1E86
 385 01e8 F1312F40 		.ascii	"\3611/@&\003\2339\022L\357\025\334\254U\206\264\205"
 385      26039B39 
 385      124CEF15 
 385      DCAC5586 
 385      B485
 386 01fa D1820178 		.ascii	"\321\202\001xP#\264RfJ6\013}\237\373\237\013\025\252"
 386      5023B452 
 386      664A360B 
 386      7D9FFB9F 
 386      0B15AA
 387 020d 1643D525 		.ascii	"\026C\325%\315\203\352\032\026\350\354\177x#\200\000"
 387      CD83EA1A 
 387      16E8EC7F 
 387      78238000 
 388 021d 4FAF542C 		.ascii	"O\257T,L}\331\363'\013\352?-h\260\242\222\005\275j\341"
 388      4C7DD9F3 
 388      270BEA3F 
 388      2D68B0A2 
 388      9205BD6A 
 389 0232 C5486785 		.ascii	"\305Hg\205k\304h\236{\320}\017J\376\326$\363\307*\370"
 389      6BC4689E 
 389      7BD07D0F 
 389      4AFED624 
 389      F3C72AF8 
 390 0246 7634BE95 		.ascii	"v4\276\225\301\317\213\374\224\247\236\2747*\207\032"
 390      C1CF8BFC 
 390      94A79EBC 
 390      372A871A 
 391 0256 74399B3E 		.ascii	"t9\233>\207y\010Rm\362\372\315g\002\345\327\271\205"
 391      87790852 
 391      6DF2FACD 
 391      6702E5D7 
 391      B985
 392 0268 10D03F00 		.ascii	"\020\320?\000[1\350\336\300w\220)-\036\254\276y\337"
 392      5B31E8DE 
 392      C0779029 
 392      2D1EACBE 
 392      79DF
 393 027a 25D292FB 		.ascii	"%\322\222\373\0373\315\216D<jF\022\355=f{\264\333\214"
 393      1F33CD8E 
 393      443C6A46 
 393      12ED3D66 
 393      7BB4DB8C 
 394 028e 74586D56 		.ascii	"tXmV\"e\246\223\227;/\2314H\246\315T2B\363\251\236T"
 394      2265A693 
 394      973B2F99 
 394      3448A6CD 
 394      543242F3 
 395 02a5 43048468 		.ascii	"C\004\204hg\273l]L\307\273\032\216\370\330\350\343\341"
ARM GAS  /tmp/ccGGEubi.s 			page 31


 395      67BB6C5D 
 395      4CC7BB1A 
 395      8EF8D8E8 
 395      E3E1
 396 02b7 E33BC8D5 		.ascii	"\343;\310\325\225H\246Sf\323\331\346S\315W\210\020I"
 396      9548A653 
 396      66D3D9E6 
 396      53CD5788 
 396      1049
 397 02c9 24A317BA 		.ascii	"$\243\027\272\217\305\033:\340']s4\202"
 397      8FC51B3A 
 397      E0275D73 
 397      3482
 398              		.text
 399              		.section	.gnu.lto_.symbol_nodes.8380a148b7fbfb9c,"",%progbits
 400 0000 789C4DCC 		.ascii	"x\234M\3149N\003A\020\205\341\367\272\247\315b\033\274"
 400      394E0341 
 400      1085E1F7 
 400      BAA7CD62 
 400      1BBC
 401 0012 B2247009 		.ascii	"\262$p\011\016\3011\340$\317\362\004X\"\341\000@\300"
 401      0EC131E0 
 401      24CFF204 
 401      5822E100 
 401      40C0
 402 0024 24644484 		.ascii	"$dD\204$X\010!$'p\000\300\330l\006\314\236\001\303\330"
 402      24580821 
 402      24277000 
 402      C0D86C06 
 402      CC9E01C3 
 403 0039 B8A7925F 		.ascii	"\270\247\222_\237TU\006\006\347\304`L\037\"6Z\200\264"
 403      9F545506 
 403      06E7C460 
 403      4C1F2236 
 403      5A80B4
 404 004c D558356D 		.ascii	"\325X5m\012Cn\236\254\270W\032\010f\2172\251\245\272"
 404      0A436E9E 
 404      ACB8571A 
 404      08668F32 
 404      A9A5BA
 405 005f 911D9126 		.ascii	"\221\035\221&4\012R\274\246\334\220\333\015\272\027"
 405      340A52BC 
 405      A6DC90DB 
 405      0DBA17
 406 006e 3290756F 		.ascii	"2\220uo\264\361'wE\3042\035*\363\277\263l\272\324\230"
 406      B4F12777 
 406      45C4321D 
 406      2AF3BFB3 
 406      6CBAD498 
 407 0082 BF3037D4 		.ascii	"\27707\324x\212\267\324D\212w\324d\212\367T\326\223"
 407      788AB7D4 
 407      448A77D4 
 407      648AF754 
 407      D693
 408 0094 9F546EC0 		.ascii	"\237Tn\300Z\215\374\240\362^_\324\224\327;5\355\325"
 408      5A8DFCA0 
 408      F25E5FD4 
ARM GAS  /tmp/ccGGEubi.s 			page 32


 408      94D73B35 
 408      EDD5
 409 00a6 A70A5ECF 		.ascii	"\247\012^\317T\321\353\211*y=Re\257\036U\361z\240\252"
 409      54D1EB89 
 409      2A793D52 
 409      65AF1E55 
 409      F17AA0AA 
 410 00ba 23595B44 		.ascii	"#Y[Dx\332\215[@s\375h!\2608;\3769p\326\225\020\356/"
 410      78DA8D5B 
 410      4073FD68 
 410      21B0383B 
 410      FE3970D6 
 411 00d2 D90C50BF 		.ascii	"\331\014P\277\370\246\315\314#J:\207f\322Y\264\223\316"
 411      F8A6CDCC 
 411      234A3A87 
 411      66D259B4 
 411      93CE
 412 00e4 20BCFC6B 		.ascii	" \274\374k\025Q\322\012\232I\313\210\326z\2136k\007"
 412      1551D20A 
 412      9A49CB88 
 412      D67A8B36 
 412      6B07
 413 00f6 F7B90087 		.ascii	"\367\271\000\207\273-\332\274\303N\\\374\002\270P\223"
 413      BB2DDABC 
 413      C34E5CFC 
 413      02B85093 
 414 0106 3A       		.ascii	":"
 415              		.text
 416              		.section	.gnu.lto_.refs.8380a148b7fbfb9c,"",%progbits
 417 0000 789C2588 		.ascii	"x\234%\210\201\011\000 \014\303\332\010\233\372\210"
 417      81090020 
 417      0CC3DA08 
 417      9BFA88
 418 000f FF7F68D1 		.ascii	"\377\177h\321BB(BG\177\266\350\221\003CP\\E\277\232"
 418      42422842 
 418      477FB6E8 
 418      91034350 
 418      5C45BF9A 
 419 0023 2CEC9DBE 		.ascii	",\354\235\276\016\321\000\216"
 419      0ED1008E 
 420              		.text
 421              		.section	.gnu.lto_.decls.8380a148b7fbfb9c,"",%progbits
 422 0000 789CC55C 		.ascii	"x\234\305\\\011|\024U\232\257\252\356N'$r*\342\350\214"
 422      097C1455 
 422      9AAFAAEE 
 422      4E272472 
 422      2AE2E88C 
 423 0014 71AE759D 		.ascii	"q\256u\235\035s!\342\314\354\010v8\262c4\223\004dgv"
 423      1D7321E2 
 423      CCEC0876 
 423      38B26334 
 423      93046467 
 424 0029 7F6D9134 		.ascii	"\177m\2214$\232\2443\335\035\224\331\235\265\022.\025"
 424      249AA433 
 424      DD1D94D9 
 424      9DB5122E 
 424      15
ARM GAS  /tmp/ccGGEubi.s 			page 33


 425 003a 85902002 		.ascii	"\205\220 \002r\212\034\212\034\341\0127\215\310%\310"
 425      728A1C8A 
 425      1CE10A37 
 425      8DC825C8 
 426 004a 2D209741 		.ascii	"- \227AQ\300\223\200rK\366{_]\357UWu\252\030g7\277\274"
 426      51C09380 
 426      724BF67B 
 426      5F5DEF55 
 426      5775AA18 
 427 0062 AF5E7DEF 		.ascii	"\257^}\357\275\377\373\336\367}\357\250W\257Z\340\004"
 427      BDFFFBDE 
 427      F77DEFA8 
 427      57AF5AE0 
 427      04
 428 0073 EE560FC7 		.ascii	"\356V\017\307\265\300_E\230\343:v\340\270[8\216\373"
 428      B5C05F45 
 428      98E33A76 
 428      E0B85B38 
 428      8EFB
 429 0085 3D042F84 		.ascii	"=\004/\204\231\020 \231[\010\241\021\302\303\020V+i"
 429      99102099 
 429      5B08A111 
 429      C2C31056 
 429      2B69
 430 0097 E4AF3384 		.ascii	"\344\2573\204\247x\216\013B\010C\030\002\341o\020\252"
 430      A7788E0B 
 430      42084318 
 430      02E16F10 
 430      AA
 431 00a8 210C8730 		.ascii	"!\014\2070\032\302\030\010u\020&Ax\033\302R\010\253"
 431      1AC21808 
 431      75102641 
 431      781BC252 
 431      08AB
 432 00ba 21AC85B0 		.ascii	"!\254\205\260\036\302n\010\007 \034\204p\030\302\021"
 432      1EC26E08 
 432      07201C84 
 432      7018C211 
 433 00ca 08C720B8 		.ascii	"\010\307 \270\001\373\004\\\233 |\002\241\253\3001\177"
 433      01FB045C 
 433      9B207C02 
 433      A1ABC031 
 433      7F
 434 00db A4CEB670 		.ascii	"\244\316\266pm\340\344k\212\"W\011\344+\2050\033\302"
 434      6DE0E46B 
 434      8A225709 
 434      E42B8530 
 434      1BC2
 435 00ed 1C084B21 		.ascii	"\034\010K!,\203p\006\302\337 \3747\004^iW\030\342U\020"
 435      2C837006 
 435      C2DF20FC 
 435      37045E69 
 435      5718E255 
 436 0102 1A20AC82 		.ascii	"\032 \254\202\360_\020\\\012\366Y\210\2373\324\311)"
 436      F05F105C 
 436      0AF65988 
 436      9F33D4C9 
ARM GAS  /tmp/ccGGEubi.s 			page 34


 436      29
 437 0113 ED4D54F4 		.ascii	"\355MT\364\360\005\304OAx\016\012\245\300u\015\360$"
 437      F005C44F 
 437      41780E0A 
 437      A5C0750D 
 437      F024
 438 0125 8857BB64 		.ascii	"\210W\273d\234\317\201w\015B2/\327\371\224r%\355\241"
 438      9CCF8177 
 438      0D42322F 
 438      D7F99472 
 438      25EDA1
 439 0138 FF88EEBA 		.ascii	"\377\210\356\272\3005A\320\333\262\002x\267\012r\233"
 439      C03541D0 
 439      DBB20278 
 439      B70A729B 
 440 0148 1E56DA55 		.ascii	"\036V\332U\003\240\213!\264P\365z\005\3316\015\020_"
 440      03A08B21 
 440      B450F57A 
 440      05D9360D 
 440      105F
 441 015a E292F5B1 		.ascii	"\342\222\365\261\024\256+\341\272\034\256\225\220o\005"
 441      14AE2BE1 
 441      BA1CAE95 
 441      906F05
 442 0169 5C97C135 		.ascii	"\\\227\3015\011x\223 ~\003\342wA\271N\020n\201\320\016"
 442      09789320 
 442      7E03E277 
 442      41B94E10 
 442      6E81D00E 
 443 017d 82074217 		.ascii	"\202\007B\027\010\035 $(25B\3365.\331^\353]\262\355"
 443      081D2024 
 443      28323542 
 443      DE352ED9 
 443      5EEB5DB2 
 444 0192 CCE41FA2 		.ascii	"\314\344\037\242`\323\266x\015x\317\362\262\374\233"
 444      60D3B678 
 444      0D78CFF2 
 444      B2FC9B
 445 01a1 14D9885C 		.ascii	"\024\331\210\\\344\217W\312\030\377\210\357$sr9\025"
 445      E48F57CA 
 445      18FF88EF 
 445      24737239 
 445      15
 446 01b2 A741C132 		.ascii	"\247A\3012\342\250m#\177\202Rv\255\011&\361\305\316"
 446      E2A86D23 
 446      7F825276 
 446      AD0926F1 
 446      C5CE
 447 01c4 8ABDD432 		.ascii	"\212\275\3242\233]\262O\357\341Y\033vRlH\353\221\330"
 447      9B5DB24F 
 447      EFE1591B 
 447      76526C48 
 447      EB91D8
 448 01d7 750B5CB7 		.ascii	"u\013\\\267\272\364\376\240\366\205\015\212\237\252"
 448      BAF4FEA0 
 448      F6850D8A 
 448      9FAA
ARM GAS  /tmp/ccGGEubi.s 			page 35


 449 01e5 76EEA8D8 		.ascii	"v\356\250\330\272\215RoP\361\345#\212o\037T|}\267\342"
 449      BA8D526F 
 449      50F1E523 
 449      8A6F1F54 
 449      7C7DB7E2 
 450 01f9 FB4F29E5 		.ascii	"\373O)\345i\037?ah\003\351G\036E\226\177\202\364TA\227"
 450      691F3F61 
 450      6803E947 
 450      1E45967F 
 450      82F45441 
 451 020e 97B4FB6E 		.ascii	"\227\264\373n \277T|\232\344%\274\347\371X\033\215V"
 451      20BF547C 
 451      9AE425BC 
 451      E7F9581B 
 451      8D56
 452 0220 D28C7A1B 		.ascii	"\322\214z\033\255\364]\343\337\030E\347\264-\210\376"
 452      ADF45DE3 
 452      DF1845E7 
 452      B42D88FE 
 453 0230 096F1B5C 		.ascii	"\011o\033\\\237\2410\306\360\346\366$\375\236\230\234"
 453      9FA130C6 
 453      F0E6F624 
 453      FD9E989C 
 454 0240 94D90E91 		.ascii	"\224\331\016\221\377\241\312\324)c\005aM0\224\235\244"
 454      FFA1CAD4 
 454      29630561 
 454      4D30949D 
 454      A4
 455 0251 E8E535AA 		.ascii	"\350\3455\252n\267\222\306+\351\004\367M\270\316\205"
 455      6EB792C6 
 455      2BE904F7 
 455      4DB8CE85 
 456 0261 30DB50FE 		.ascii	"0\333P\376m\245\217N7\224'x%\324x@\212\255\021dyH\231"
 456      6DA58F4E 
 456      37942778 
 456      25D47840 
 456      8AAD1164 
 457 0278 F75C326F 		.ascii	"\367\\2o\261\001/\231{Q\222j\244\031#\245\276\333\332"
 457      B1012F99 
 457      7B51926A 
 457      A41923A5 
 457      BEDBDA
 458 028b 76E06A25 		.ascii	"v\340j%\370K}\376\023>\211{\236\360\243#\245\347\371"
 458      F84B7DFE 
 458      133E897B 
 458      9EF0A323 
 458      A5E7F9
 459 029e EA86BB38 		.ascii	"\352\206\2738n\000/\362m\223\270\036\030IIB!~\301\275"
 459      6E002FF2 
 459      6D93B81E 
 459      18494942 
 459      217EC1BD 
 460 02b2 2149B54D 		.ascii	"!I\265M\233\347\356\025$)Q\344gA1\201\373\035\317\335"
 460      9BE7EE15 
 460      242951E4 
 460      67413181 
 460      FB1DCFDD 
ARM GAS  /tmp/ccGGEubi.s 			page 36


 461 02c6 C7BD0938 		.ascii	"\307\275\0118\000\366\361\317Lt\3079\001_7r\367F\276"
 461      00F6F1CF 
 461      4C74C739 
 461      015F3772 
 461      F746BE
 462 02d9 46922061 		.ascii	"F\222 a.\302\203EE~\016\177\237s\254\031W\266\336%\271"
 462      2EC28345 
 462      457E0E7F 
 462      9F73AC19 
 462      57B6DE25 
 463 02ee 45FE2DC4 		.ascii	"E\376-\304i\340Y \221OJ\242\205\304{5\003\301\302d%"
 463      69E05920 
 463      914F4AA2 
 463      85C47B35 
 463      03C1C264 
 464 0303 D2A2FEB1 		.ascii	"\322\242\376\261\315\373\207\226Q\032&uV[\326$(\000"
 464      CDFB8796 
 464      511A2675 
 464      565BD624 
 464      2800
 465 0315 AFF31D74 		.ascii	"\257\363\035t]H\21211\213R&U-\342VJ,\340\345\266*l-"
 465      5D488A31 
 465      318B5226 
 465      552DE256 
 465      4A2CE0E5 
 466 032d F22B4528 		.ascii	"\362+E(\253r3\371d\203\021\345\312\314K(&\274\262c\327"
 466      AB7233F9 
 466      648311E5 
 466      CACC4B28 
 466      26BCB263 
 467 0342 5E7E189A 		.ascii	"^~\030\232p!\252~\204`jC\033P\353FnV\275\241\001\241"
 467      7021AA7E 
 467      84606A43 
 467      1B50EB46 
 467      6E56BDA1 
 468 0358 5EBE69A8 		.ascii	"^\276i\250+\243\326>\204^\273\014\201&\010Fw\360\032"
 468      2BA3D63E 
 468      845EBB0C 
 468      81260846 
 468      77F01A
 469 036b DCC1CB9A 		.ascii	"\334\301\313\232\311\233\244G\210\205\332q\377\340\354"
 469      C99BA447 
 469      8885DA71 
 469      FFE0EC
 470 037a 4C57EDCC 		.ascii	"LW\355\314\275\242\230Z\342#\"\377\373\333,M\266\222"
 470      BDA2985A 
 470      E22322FF 
 470      FBDB2C4D 
 470      B692
 471 038c EF8C3117 		.ascii	"\357\2141\027\216\005\300x8\031H?\227V\267U\301F>\231"
 471      8E05C078 
 471      3819483F 
 471      9756B755 
 471      C1463E99 
 472 03a0 D608537D 		.ascii	"\326\010S}Gn\034\216\024\224\216g\270U\200l]\311\365"
 472      476E1C8E 
 472      14948E67 
ARM GAS  /tmp/ccGGEubi.s 			page 37


 472      B855806C 
 472      5DC9F5
 473 03b3 F5EFCE54 		.ascii	"\365\357\316TL\277\206\357\010\022\0341\250\271U \201"
 473      4CBF86EF 
 473      08121C31 
 473      A8B95520 
 473      81
 474 03c4 FB048BAC 		.ascii	"\373\004\213\254\207\342rA\204\226\232\326\274z\242"
 474      87E27241 
 474      84969AD6 
 474      BC7AA2
 475 03d3 9AAF4668 		.ascii	"\232\257Fh\222\3061\260\314\337=\334\014\220<zm\344"
 475      92C631B0 
 475      CCDF3DDC 
 475      0C903C7A 
 475      6DE4
 476 03e5 D43BA419 		.ascii	"\324;\244\031\357@\376\325\3202\201{\335\245\342\232"
 476      EF40FED5 
 476      D032817B 
 476      DDA5E29A 
 477 03f5 6940EB19 		.ascii	"i@\353\031\224\212X\274\033[RjE\025\354M\307`\251\014"
 477      948A58BC 
 477      1B5B526A 
 477      4515EC4D 
 477      C760A90C 
 478 0409 58FDD629 		.ascii	"X\375\326)\212pr\027Yl\007/\321J8):~+\010\247(wF\202"
 478      8A707217 
 478      596C072F 
 478      D14A3829 
 478      3A7E2B08 
 479 0422 55571060 		.ascii	"UW\020`\035D\352\331fT\356\346\025\033y\354\034\333"
 479      1D44EAD9 
 479      6654EEE6 
 479      151B79EC 
 479      1CDB
 480 0434 6CA9B671 		.ascii	"l\251\266q\307\253(}\253>\222\240\326^\214\265o\300"
 480      C7AB287D 
 480      AB3E92A0 
 480      D65E8CB5 
 480      6FC0
 481 0446 DADF37D6 		.ascii	"\332\3377\326\336x\342\3420\305\264\357\333\252\377"
 481      DE78E2E2 
 481      30C5B4EF 
 481      DBAAFF
 482 0455 A3DDE363 		.ascii	"\243\335\343c\353\267\354\025\352\2645\353\212\334\306"
 482      EBB7EC15 
 482      EAB435EB 
 482      8ADCC6
 483 0464 BD68C117 		.ascii	"\275h\301\027\334\306\001\340\341d\272*\245\343h\031"
 483      DCC601E0 
 483      E164BA2A 
 483      A5E36819 
 484 0474 04AECEAD 		.ascii	"\004\256\316\255J\177S\016\324\3248\355z=_7L\332\226"
 484      4A7F530E 
 484      D4D438ED 
 484      7A3D5F37 
 484      4CDA96
ARM GAS  /tmp/ccGGEubi.s 			page 38


 485 0487 AECA30C1 		.ascii	"\256\3120\3011\"\353E\347w\243K\312`\223\355\200Y\272"
 485      3122EB45 
 485      E777A34B 
 485      CA6093ED 
 485      8059BA
 486 049a 504DF45B 		.ascii	"PM\364[\032l\232c0V\262\2134\330\353v\300\332[Kv\231"
 486      1A6C9A63 
 486      3056B28B 
 486      34D8EB76 
 486      C0DA5B4B 
 487 04b0 069BE318 		.ascii	"\006\233\343\030\214\225\354*\015\366\226\035\260.\326"
 487      8C95EC2A 
 487      0DF6961D 
 487      B02ED6
 488 04bf 925DA7C1 		.ascii	"\222]\247\301\026:\006c%\273A\203-\261\003\226j-Y\355"
 488      163A0663 
 488      25BB4183 
 488      2DB10396 
 488      6A2D59ED 
 489 04d3 3E0A6C85 		.ascii	">\012l\205c0V\262:\032l\265\035\260{\255%\033O\203\255"
 489      633056B2 
 489      3A1A6CB5 
 489      1DB07BAD 
 489      251B4F83 
 490 04e8 770CC64A 		.ascii	"w\014\306J6\201\006{\307\016X\272\265d\023i\260-\216"
 490      3681067B 
 490      C70E58BA 
 490      B5641369 
 490      B02D8E
 491 04fb C158C926 		.ascii	"\301X\311&\323`\357\331\001\353n-\331\024\032l\227c"
 491      D360EFD9 
 491      01EB6E2D 
 491      D9141A6C 
 491      9763
 492 050d 3056B2C5 		.ascii	"0V\262\3054\330>;`=\254%[B\203}\340\030\214\225l\031"
 492      34D83E3B 
 492      603DAC25 
 492      5B42837D 
 492      E0188C95 
 493 0523 0D76D80E 		.ascii	"\015v\330\016X_k\311V\320`G\035\203\261\222\255\244"
 493      585F6BC9 
 493      56D06047 
 493      1D83B192 
 493      ADA4
 494 0535 C14ED801 		.ascii	"\301N\330\001\313\263\226l5\015v\3221\030+\331Z\032"
 494      CBB3966C 
 494      350D76D2 
 494      31182BD9 
 494      5A1A
 495 0547 EC941DB0 		.ascii	"\354\224\035\260\001\326\222\255\247\301\3168\006c%"
 495      01D692AD 
 495      A7C1CE38 
 495      066325
 496 0556 DB43837D 		.ascii	"\333C\203}i\007\354I\023\311\264?\253u\353N\375\031"
 496      6907EC49 
 496      13C9B43F 
 496      AB75EB4E 
ARM GAS  /tmp/ccGGEubi.s 			page 39


 496      FD19
 497 0568 45E0BE71 		.ascii	"E\340\276q\253\353\033\207s4\247c\\p;]\2131\355\206"
 497      ABEB1B87 
 497      7334A763 
 497      5C703B5D 
 497      8B31ED86 
 498 057c 95EA6733 		.ascii	"\225\352g3\371zy\236\227W\213W\354 \306\231\000'o\245"
 498      F97A799E 
 498      97578B57 
 498      EC20C699 
 498      00276FA5 
 499 0590 969ED51E 		.ascii	"\226\236\325\036\247`\006W&`\314\312Iy\210j\232\035"
 499      A7600657 
 499      2660CCCA 
 499      4979886A 
 499      9A1D
 500 05a2 ED32515F 		.ascii	"\3552Q_\274%\252X\344\371U^\251\301\023\276\240e\226"
 500      BC25AA58 
 500      E4F9555E 
 500      A9C113BE 
 500      A06596
 501 05b5 BA7431CF 		.ascii	"\272t1\317+\362c\204_\000\035+\350\017\235r\\\215\265"
 501      2BF26384 
 501      5F001D2B 
 501      E80F9D72 
 501      5C8DB5
 502 05c8 E00ECE0B 		.ascii	"\340\016\316\013\036\263\315\002\004\210_\324\312\023"
 502      1EB3CD02 
 502      04885FD4 
 502      CA13
 503 05d6 5E12284F 		.ascii	"^\022(O\030cGMq\246\366\217\266N\271]j\212\362T{\343"
 503      1863474D 
 503      71A6F68F 
 503      B64EB95D 
 503      6A8AF254 
 504 05ec 2A079E30 		.ascii	"*\007\2360G\277\257>\367\326\013dQ\377\212\307\364a"
 504      47BFAF3E 
 504      F7D60B64 
 504      51FF8AC7 
 504      F461
 505 05fe D506D4BA 		.ascii	"\325\006\324\272\221\013~\205k\325\011\0104\355\246"
 505      910B7E85 
 505      6BD50908 
 505      34EDA6
 506 060d 81AE8C9A 		.ascii	"\201\256\214\232\326\035\201&!\320\034\003\220\310\363"
 506      D61D8126 
 506      21D01C03 
 506      90C8F3
 507 061c 86A75E9E 		.ascii	"\206\247^\236}.\345\223\364H\314F\306\017\230\027\236"
 507      7D2EE593 
 507      F448CC46 
 507      C60F9817 
 507      9E
 508 062d 808CF662 		.ascii	"\200\214\366b\232\323\352\352\251i\315\241\357\307\361"
 508      9AD3EAEA 
 508      A969CDA1 
 508      EFC7F1
ARM GAS  /tmp/ccGGEubi.s 			page 40


 509 063c 176AA489 		.ascii	"\027j\244\211\351\016\264\263c\247j\261i\250\237\225"
 509      E90EB4B3 
 509      63A76AB1 
 509      69A89F95 
 510 064c 31FA9920 		.ascii	"1\372\231 8S\220\300E\0357\344^\266!\257\276[\347\274"
 510      385390C0 
 510      451D37E4 
 510      5EB621AF 
 510      BE5BE7BC 
 511 0660 219AEBCD 		.ascii	"!\232\353\315\302\206l\373\001\032\262\307qC\322\251"
 511      C2866CFB 
 511      011AB2C7 
 511      7143D2A9 
 512 0670 869027F6 		.ascii	"\206\220'\366\357\352\344q\260\023W\027\377\301\224"
 512      EFEAE471 
 512      B0135717 
 512      FFC194
 513 067f C8334FE8 		.ascii	"\3103O\350\304<\026F?|\217O\225\331\255=\021J\321K\357"
 513      C43C1646 
 513      3F7C8F4F 
 513      95D9AD3D 
 513      114AD14B 
 514 0694 C9CFD3CC 		.ascii	"\311\317\323\314\226\230y]Zo\335\255\252l>\252\354\220"
 514      9698795D 
 514      5A6FDDAD 
 514      AA6C3EAA 
 514      EC90
 515 06a6 5927B305 		.ascii	"Y'\263\005\265n\313\273\015\312.\325B\204:~\323PW\266"
 515      B56ECBBB 
 515      0DCA2ED5 
 515      42843A7E 
 515      D35057B6 
 516 06ba 36CAFDB5 		.ascii	"6\312\375\265\001\201>\2151c\202\301\212\011\254\025"
 516      01813E8D 
 516      316382C1 
 516      8A09AC15 
 517 06ca E196D474 		.ascii	"\341\226\324t\031\367\020\237S8\344\306\313\375\237"
 517      19F7109F 
 517      5338E4C6 
 517      CBFD9F
 518 06d9 9783D918 		.ascii	"\227\203\331\030\305'\026t8\033k\036\364i\235:\223\312"
 518      C5271674 
 518      381B6B1E 
 518      F4699D3A 
 518      93CA
 519 06eb 46BAF877 		.ascii	"F\272\370w!\326D\227\216V7\205\036&si\313\337\011\267"
 519      21D64497 
 519      8E563785 
 519      1E267369 
 519      CBDF09B7 
 520 06ff 7707E576 		.ascii	"w\007\345v\366\266!G\037P\335n5\266hd\202\321\304\015"
 520      F6B62147 
 520      1F50DD6E 
 520      35B66864 
 520      82D1C40D 
 521 0713 C631B9F5 		.ascii	"\3061\271\365\275B\201\253K\270\311\226h\177\0027)\301"
 521      BD4281AB 
ARM GAS  /tmp/ccGGEubi.s 			page 41


 521      4BB8C996 
 521      687F0237 
 521      29C1
 522 0725 C694991A 		.ascii	"\306\224\231\032\307\\\207.)\346ju'J\335/\334\277\245"
 522      C75C872E 
 522      29E66A75 
 522      274ADD2F 
 522      DCBFA5
 523 0738 9A1F8EDA 		.ascii	"\232\037\216\332\210\012d\277p\252A\0336\266\264\336"
 523      880A64BF 
 523      70AA411B 
 523      36B6B4DE 
 524 0748 C6229B84 		.ascii	"\306\"\233\204\230\375\302\367\325\375B\222fcS\213\331"
 524      98FDC2F7 
 524      D5FD4292 
 524      6663538B 
 524      D9
 525 0759 2F14F977 		.ascii	"/\024\371wxA\301\275Y\2152F\324\005\024\371\315\270"
 525      7841C1BD 
 525      598D3246 
 525      D40514F9 
 525      CDB8
 526 076b 3EDA22DC 		.ascii	">\332\"\334Ck\177\255c\355\247\322\332\217^\3331\205"
 526      436B7FAD 
 526      63EDA7D2 
 526      DA8F5EDB 
 526      3185
 527 077d 27F29BEC 		.ascii	"'\362\233\354\303\365\240W\255\332V\355\256q\212\352"
 527      C3F5A057 
 527      ADDA56ED 
 527      AE718AEA 
 528 078d B7A3EAB7 		.ascii	"\267\243\352\267X\250\276\207\025\220\300\035\304\""
 528      58A8BE87 
 528      1590C01D 
 528      C422
 529 079b 3B63547F 		.ascii	";cT\177\350\200\252\372\235\266T\377\201\251\352w:W"
 529      E880AAFA 
 529      9DB654FF 
 529      81A9EA77 
 529      3A57
 530 07ad BD827750 		.ascii	"\275\202wP\337\252\025\371w\035\203\245\306\263\343"
 530      DFAA15F9 
 530      771D83A5 
 530      C6B3E3
 531 07bc 4ECA8EBB 		.ascii	"N\312\216\273\320\216\273\301\216\"\277\207\265\346"
 531      D08EBBC1 
 531      8E22BF87 
 531      B5E6
 532 07ca 69A33519 		.ascii	"i\2435\031\325)"
 532      D529
 533 07d0 51CB5D12 		.ascii	"Q\313]\022)Z\277K\335 \226\007\276\363v\274#\316\336"
 533      295ABF4B 
 533      DD209607 
 533      BEF376BC 
 533      23CEDE
 534 07e3 C6B45DB2 		.ascii	"\306\264]\262J\020\354\262c\260T\006l\335\230\251\266"
 534      4A10ECB2 
ARM GAS  /tmp/ccGGEubi.s 			page 42


 534      63B05406 
 534      6CDD98A9 
 534      B6
 535 07f4 F67F259E 		.ascii	"\366\177%\236~\036\021\270a^R\357a\243\277,\275\272"
 535      7E1E11B8 
 535      615E52EF 
 535      61A3BF2C 
 535      BDBA
 536 0806 6794E22F 		.ascii	"g\224\342/\207m\370\013\314\366\237&Iu)\252\343\256"
 536      876DF80B 
 536      CCF69F26 
 536      497529AA 
 536      E3AE
 537 0818 D350E3A8 		.ascii	"\323P\343\250:\216\267\\;\273\235G8\371\371j\263\021"
 537      3A8EB75C 
 537      3BBB9D47 
 537      38F9F96A 
 537      B311
 538 082a AED5C73F 		.ascii	"\256\325\307?\026\356F`[\2723\305\310=2zt\025Y\357\234"
 538      16EE4660 
 538      5BBA33C5 
 538      C83D327A 
 538      741559EF 
 539 083f C436BDEF 		.ascii	"\3046\275\3575\316\012\262f(G<L9\342\021t\304\243\350"
 539      35CE0AB2 
 539      6628473C 
 539      4C39E211 
 539      74C4A3E8 
 540 0853 88C7917E 		.ascii	"\210\307\221~D\273\243\325\222\253\211~`\372\300q\273"
 540      44BBA3D5 
 540      92AB897E 
 540      60FAC071 
 540      BB
 541 0864 530DD6B1 		.ascii	"S\015\326\261\252\346\020]\3151\257\015\337\263\336"
 541      AAE6105D 
 541      CD31AF0D 
 541      DFB3DE
 542 0873 0A8371FD 		.ascii	"\012\203q\375\203zuM \277;\371\3141\"\353\315\315c\230"
 542      837A754D 
 542      20BF3BF9 
 542      CC3122EB 
 542      CDCD6398 
 543 0887 3541B31D 		.ascii	"5A\263\035\270\036&\002\232\375\321/\262`\216\343\211"
 543      B81E2602 
 543      9AFDD12F 
 543      B2608EE3 
 543      89
 544 0898 9936F2C4 		.ascii	"\2316\362\304@\233\220nF\272\025\351(4\334\013HG#\255"
 544      409B906E 
 544      46BA15E9 
 544      2834DC0B 
 544      484723AD 
 545 08ac 433A15E9 		.ascii	"C:\025\351\353H\347\"\335\200t\033\322}H\017 =\210\364"
 545      EB48E722 
 545      DD80741B 
 545      D27D480F 
 545      203D88F4 
ARM GAS  /tmp/ccGGEubi.s 			page 43


 546 08c0 33A467EC 		.ascii	"3\244g\3548\300j\366\235\337\335\3344)\332\334t\241"
 546      38C06AF6 
 546      9DDFDDDC 
 546      3429DADC 
 546      74A1
 547 08d2 65DB1D53 		.ascii	"e\333\035S\227H\322\013\322\215\226\347x\371\225\242"
 547      9748D20B 
 547      D28D96E7 
 547      78F995A2 
 548 08e2 C0BD99C8 		.ascii	"\300\275\231\310\272\344\317\271Y\222T'\215\013\364"
 548      BAE4CFB9 
 548      59925427 
 548      8D0BF4
 549 08f1 5514B702 		.ascii	"U\024\267\0023|.\334mZ\235\372~\345\227\334l\322\033"
 549      337C2EDC 
 549      6D5A9DFA 
 549      7EE597DC 
 549      6CD21B
 550 0904 D648795D 		.ascii	"\326Hy]\360\215\015\247\224a\224\366\205\300\234WB\271"
 550      F08D0DA7 
 550      946194F6 
 550      85C09C57 
 550      42B9
 551 0916 CE35354E 		.ascii	"\31655N\273\264\031_\240H\347`\325#%\332\177)zN\350"
 551      BBB4195F 
 551      A048E760 
 551      D52325DA 
 551      7F297A4E 
 552 092b ACC4D417 		.ascii	"\254\304\324\027\241\360\254gh\217&\2324Ori\242}c\024"
 552      A1F0AC67 
 552      688F269A 
 552      344F7269 
 552      A27D6314 
 553 093f ADD954B4 		.ascii	"\255\331T\264\361s\316\006'I\321\341RK\313s\251r}\002"
 553      F173CE06 
 553      2749D1E1 
 553      524BCB73 
 553      A9727D02 
 554 0953 F79DAD1A 		.ascii	"\367\235\255\032.\030k\370\326\244\206&b\224\337M^2"
 554      2E186BF8 
 554      D6A48626 
 554      6294DF4D 
 554      5E32
 555 0965 43310AD3 		.ascii	"C1\012\323t'\253O\355\201\3672\316\004\325I?\300\352"
 555      7427AB4F 
 555      ED81F732 
 555      CE04D549 
 555      3FC0EA
 556 0978 D34AEB97 		.ascii	"\323J\353\227L\264\376b\222\251N\352\224\366\315\223"
 556      4CB4FE62 
 556      92A94EEA 
 556      94F6CD93 
 557 0988 9264D148 		.ascii	"\222d\321H\251\213\026\256\244\200^3\323S\364\370\330"
 557      A98B16AE 
 557      A4805E33 
 557      D353F4F8 
 557      D8
ARM GAS  /tmp/ccGGEubi.s 			page 44


 558 0999 1DD5309C 		.ascii	"\035\3250\234K\327[Z\\\234}\017\271a\"\353<sYkY\373"
 558      4BD75B5A 
 558      5C9C7D0F 
 558      B96122EB 
 558      3C73596B 
 559 09af 7D6FB45F 		.ascii	"}o\264_K\254\\3\232\242\023\267\246\324V7\265\264\334"
 559      4BAC5C33 
 559      9AA213B7 
 559      A6D45637 
 559      B5B4DC
 560 09c2 AD7AC726 		.ascii	"\255z\307&st\203wT\273\014\3505\256\030\364\246\346"
 560      73748377 
 560      54BB0CE8 
 560      35AE18F4 
 560      A6E6
 561 09d4 E8941D0A 		.ascii	"\350\224\035\012\272\375\026\217p\031\016\012\220\355"
 561      BAFD168F 
 561      70190E0A 
 561      90ED
 562 09e2 33E6A400 		.ascii	"3\346\244\000LCI\246}\376Jq_9;<5c\216\341.\253N\257"
 562      4C4349A6 
 562      7DFE4A71 
 562      5F393B3C 
 562      35638EE1 
 563 09fa ECC9294D 		.ascii	"\354\311)M{Y\032\321\236\327\3326\334\330\266Q\261m"
 563      7B591AD1 
 563      9ED7DA36 
 563      DCD8B651 
 563      B16D
 564 0a0c 03CDD5ED 		.ascii	"\003\315\325\3552h\356\204-\315\2156\242\277d\212^?"
 564      3268EE84 
 564      2DCD8D36 
 564      A2BF648A 
 564      5E3F
 565 0a1e F66518FD 		.ascii	"\366e\030\375k\242--\033`V6\250\217x\242\225\376\306"
 565      6BA22D2D 
 565      1B605636 
 565      A88F78A2 
 565      95FEC6
 566 0a31 BA623DA6 		.ascii	"\272b=\246\331\\\262\032\211u\3541\026\352R\360jM\005"
 566      D95CB21A 
 566      8975EC31 
 566      16EA52F0 
 566      6A4D05
 567 0a44 05C756FC 		.ascii	"\005\307V\374zX\242\003\307\2567\232\231\010a0\363\363"
 567      7A58A203 
 567      C7AE379A 
 567      99086130 
 567      F3F3
 568 0a56 6D4CCDFC 		.ascii	"mL\315\374*\031\332\345qb\012\346\250\2634\263\3342"
 568      2A19DAE5 
 568      71620AE6 
 568      A8B334B3 
 568      DC32
 569 0a68 7333D719 		.ascii	"s3\327\031\015\361Jl\373\316\235\213\036\331'\233yz"
 569      0DF14A6C 
 569      FBCE9D8B 
ARM GAS  /tmp/ccGGEubi.s 			page 45


 569      1ED9279B 
 569      797A
 570 0a7a 0FA67189 		.ascii	"\017\246q\211\334(\334\004\033!U\363\177\211\263\011"
 570      DC28DC04 
 570      1B2155F3 
 570      7F89B309 
 571 0a8a 869BD322 		.ascii	"\206\233\323\"\377\232+\021\304\235\321\306rk\231d "
 571      FF9A2B11 
 571      C49DD1C6 
 571      726B9964 
 571      20
 572 0a9b 7FA4BC1C 		.ascii	"\177\244\274\034Wcqv\226'\263Jt2\340nU\007\334\351."
 572      57637176 
 572      9627B34A 
 572      7432E06E 
 572      5507DCE9 
 573 0ab0 DC816DF3 		.ascii	"\334\201m\363\003\014\270\232-\011&\027{o0\357BS\363"
 573      030CB89A 
 573      2D092617 
 573      7B6F30EF 
 573      4253F3
 574 0ac3 C2887BE6 		.ascii	"\302\210{\346\337v\3024\237\244\312\366.\346\233did"
 574      DF76C234 
 574      9FA4CAF6 
 574      2EE69B64 
 574      6964
 575 0ad5 44577C63 		.ascii	"DW|c?\361\015\271\3306\007\305\306\301\223\231\246\213"
 575      3FF10DB9 
 575      D83607C5 
 575      C6C19399 
 575      A68B
 576 0ae7 5D760A6A 		.ascii	"]v\012j]\350\253\021\350T\262\315\230b\2143(J|\303\264"
 576      5DE8AB11 
 576      E854B2CD 
 576      98628C33 
 576      284A7CC3 
 577 0afc 0F4DD9EF 		.ascii	"\017M\331\357x\230\\`\354?D*\203\202\367\231\367\237"
 577      78985C60 
 577      EC3F442A 
 577      8382F799 
 577      F79F
 578 0b0e 71BA8E4E 		.ascii	"q\272\216Na\216\267m5\325\330\177\3366\366\237E&S@m"
 578      618EB76D 
 578      35D5D87F 
 578      DE36F69F 
 578      45265340 
 579 0b23 5363E3D9 		.ascii	"Sc\343\331;'.\221\206\233,\020\3426p\331\315\372v}\375"
 579      3B272E91 
 579      869B2C10 
 579      E23670D9 
 579      CDFA767D 
 580 0b38 8AFB70AF 		.ascii	"\212\373p\257r\0056qj\362\017\340\331\006\305\316M6"
 580      72053671 
 580      6AF20FE0 
 580      D906C5CE 
 580      4D36
 581 0b4a 8EA732D0 		.ascii	"\216\2472\320*\013\015\234\2444\240\316\026K,0\326\230"
ARM GAS  /tmp/ccGGEubi.s 			page 46


 581      2A0B0D9C 
 581      A434A0CE 
 581      164B2C30 
 581      D698
 582 0b5c 62AC3EB4 		.ascii	"b\254>\264+a\222\364\016.\3448\025b\275\005\304:S\210"
 582      2B6192F4 
 582      0E2EE438 
 582      1562BD05 
 582      C43A5388 
 583 0b70 0DEB37FE 		.ascii	"\015\3537\376~\252\225!\310\212\333\312\022\033\214"
 583      7EAA9521 
 583      C88ADBCA 
 583      121B8C
 584 0b7f AE062B66 		.ascii	"\256\006+f\307V\231\376\361\311\337,\222\244\366\"\377"
 584      C75699FE 
 584      F1C9DF2C 
 584      92A4F622 
 584      FF
 585 0b90 0E9A6575 		.ascii	"\016\232eu\212\321,\036\203U<\254U<IzD?\271\250\311"
 585      8AD12C1E 
 585      83553CAC 
 585      553C497A 
 585      443FB9A8 
 586 0ba5 B490A787 		.ascii	"\264\220\247\207\234x\207\024\347\307\231<\267\2314"
 586      9C788714 
 586      E7C7993C 
 586      B79934
 587 0bb4 B5D5538A 		.ascii	"\265\325S\212J\013A\277?~\023[\270\325E\226 \033\015"
 587      4A0B41BF 
 587      3F7E135B 
 587      B8D54596 
 587      201B0D
 588 0bc7 2D349C0A 		.ascii	"-4\234\012#UY\211\261\323\225lbX\2534ZX.\306W\267\247"
 588      23555989 
 588      B1D3956C 
 588      6258AB34 
 588      5A582EC6 
 589 0bde 983BC92E 		.ascii	"\230;\311.3'\211.\037;\366\016i&Yv<l\234\314\343\271"
 589      3327892E 
 589      1F3BF60E 
 589      69265976 
 589      3C6C9CCC 
 590 0bf4 C81EA3DE 		.ascii	"\310\036\243\336Hf\243m\014\202\035\265\020l\277\251"
 590      4866A36D 
 590      0C821DB5 
 590      106CBFA9 
 591 0c04 F7369C6E 		.ascii	"\3676\234n\276+\266\023M\275\305\034\343\003S\214\305"
 591      BE2BB613 
 591      4DBDC51C 
 591      E303538C 
 591      C5
 592 0c15 5FECBD2B 		.ascii	"_\354\275+\246\0235Y@\0342\205X\361\315\311;c \246\265"
 592      A6133559 
 592      401C3285 
 592      58F1CDC9 
 592      3B6320A6 
 593 0c2a 3587F8D0 		.ascii	"5\207\370\320\024b\374\234\275i1\020s- \216\232\217"
ARM GAS  /tmp/ccGGEubi.s 			page 47


 593      1462FC9C 
 593      BD693110 
 593      732D208E 
 593      9A8F
 594 0c3c 06AFEE8C 		.ascii	"\006\257\356\214\035\015\026[@\034g!~\312\315\224\242"
 594      1D0D165B 
 594      401C6721 
 594      7ECACD94 
 594      A2
 595 0c4d 7B9ACEB7 		.ascii	"{\232\316\267\\N\250\226\242\023%\011l\315\337-\237"
 595      5C4EA896 
 595      A2132509 
 595      6CCDDF2D 
 595      9F
 596 0c5e DE16B8A8 		.ascii	"\336\026\270\250\006\242n\011\305\236\363\376H\007\224"
 596      06A26E09 
 596      C59EF3FE 
 596      480794
 597 0c6d C1A2AF6D 		.ascii	"\301\242\257m}\205\207\305j-\330\246\205W\317\330\356"
 597      7D8587C5 
 597      6A2DD8A6 
 597      8557CFD8 
 597      EE
 598 0c7e 41A86A7D 		.ascii	"A\250j}naO\324\242\013\264\345i$h\331\232C-\360,-\315"
 598      6E614FD4 
 598      A20BB4E5 
 598      692468D9 
 598      9A432DF0 
 599 0c95 D8A6C865 		.ascii	"\330\246\310evz\323\245\302t\345\250A\377k\365\204\357"
 599      767AD3A5 
 599      C274E5A8 
 599      41FF6BF5 
 599      84EF
 600 0ca7 2917A9FD 		.ascii	")\027\251\375\013\2036Z\005\022\270KX\344\264+f\307"
 600      0B83365A 
 600      0512B84B 
 600      58E4B42B 
 600      66C7
 601 0cb9 7EF30865 		.ascii	"~\363\010e\033\220\244\265\276\0158\365\240\345\216"
 601      1B90A4B5 
 601      BE0D38F5 
 601      A0E58E
 602 0cc8 7793B6C1 		.ascii	"w\223\266\301v\027%\373\376\017N*\262\177\201\262W\267"
 602      761725FB 
 602      FE0F4E2A 
 602      B27F81B2 
 602      57B7
 603 0cda 6B557616 		.ascii	"kUv\026H\340\306`\221\257ce?0\\\221\375k[\262\357\337"
 603      48E0C660 
 603      91AF6365 
 603      3F305C91 
 603      FD6B5BB2 
 604 0cf0 27CBAE6E 		.ascii	"'\313\256nbN\321pon\023\363\200|\330F\336\021{\303\010"
 604      624ED170 
 604      6F6E13F3 
 604      807CD846 
 604      DE117BC3 
ARM GAS  /tmp/ccGGEubi.s 			page 48


 605 0d05 E6680B53 		.ascii	"\346h\013S\212\036\226\301\266\241{\315w\014\226\312"
 605      8A1E96C1 
 605      B6A17BCD 
 605      770C96CA 
 606 0d15 48F6511D 		.ascii	"H\366Q\035{\016\273\301\016^\234\3030\347\366Q\207a"
 606      7B0EBBC1 
 606      0E5E9CC3 
 606      30E7F651 
 606      8761
 607 0d27 56390663 		.ascii	"V9\006c\205\273H\203m\264\003fvd\304\354\217v\022\030"
 607      85BB4883 
 607      6DB40366 
 607      7664C4EC 
 607      8F761218 
 608 0d3b 395C64E7 		.ascii	"9\\d\347\257\331Ev\346. \375\016\351%\244W\220^s1o\020"
 608      AFD94576 
 608      E62E20FD 
 608      0EE925A4 
 608      57905E73 
 609 0d52 76B4537B 		.ascii	"v\264S{\211\251+\266\346\022Rt\271u\3670\333\177\206"
 609      89A92BB6 
 609      E6125274 
 609      B975F730 
 609      DB7F86
 610 0d65 AEFD6935 		.ascii	"\256\375i5?\002}\270\005\273\307\336\326\273\207q\207"
 610      3F027DB8 
 610      05BBC7DE 
 610      D6BB8771 
 610      87
 611 0d76 FF3416A9 		.ascii	"\3774\026\251q\307\274\021\372^=\341M\322Z\177#te\254"
 611      71C7BC11 
 611      FA5E3DE1 
 611      4DD25A7F 
 611      237465AC 
 612 0d8a BD370C33 		.ascii	"\2757\0143\264\372o\245\032\262\377\204\372jk\224\233"
 612      B4FA6FA5 
 612      1AB2FF84 
 612      FA6A6B94 
 612      9B
 613 0d9b 34E446EB 		.ascii	"4\344F\353\015a\201\240\237\267'E^\214m\310WjC^\264"
 613      0D6181A0 
 613      9FB72745 
 613      5E8C6DC8 
 613      576A435E 
 614 0db0 D5905563 		.ascii	"\325\220UcU\357\037\351&>6]\303\215\343c\226F\255\211"
 614      55EF1FE9 
 614      263E365D 
 614      C38DE363 
 614      9646AD89 
 615 0dc4 AE960F09 		.ascii	"\256\226\017\011\313`s\035\203\261\336\277n\267\372"
 615      CB60731D 
 615      83B1DEBF 
 615      6EB7FA
 616 0dd3 92495EC2 		.ascii	"\222I^\302/\262\203\027\347\325\307\372\335\306\243"
 616      2FB28317 
 616      E7D5C7FA 
 616      DDC6A3
ARM GAS  /tmp/ccGGEubi.s 			page 49


 617 0de2 65F2E671 		.ascii	"e\362\346q\334\207\210c\325\312\331\211\361\330\246"
 617      DC878863 
 617      D5CAD989 
 617      F1D8A6
 618 0df1 95ED8DEB 		.ascii	"\225\355\215\353\325F\336p0\337\360\245\012t\\\307r"
 618      D546DE70 
 618      30DFF0A5 
 618      0A745CC7 
 618      72
 619 0e02 337A00AB 		.ascii	"3z\000\253~;K}\247\200[\331\333\355\000\232\215Qf\177"
 619      7E3B4B7D 
 619      A7805BD9 
 619      DBED009A 
 619      8D51667F 
 620 0e16 B41B89FC 		.ascii	"\264\033\211\374Kn2\022\274\354&=~,\322qH\353\221Nt"
 620      4B6E3212 
 620      BCEC263D 
 620      7E2CD271 
 620      48EB914E 
 621 0e2b DBD8B527 		.ascii	"\333\330\265'\306\327\260\307\270\005\245\307\335\234"
 621      C6D7B0C7 
 621      B805A5C7 
 621      DD9C
 622 0e39 435DD71D 		.ascii	"C]\327\035J\344k\035\203\261\0165n\037\355P\"_g\007"
 622      4AE46B1D 
 622      83B10E35 
 622      6E1FED50 
 622      225F6707 
 623 0e4d 2F8E4329 		.ascii	"/\216C)G\225e\357\334\323\236w\010\226\032\317(5\224"
 623      479565EF 
 623      DCD39E77 
 623      08961ACF 
 623      283594
 624 0e60 5186A351 		.ascii	"Q\206\243QF\240\011&#}\015\351\02473$\037ko\030\222"
 624      46A00926 
 624      237D0DE9 
 624      14373324 
 624      1F6B6F18 
 625 0e75 D9E1CF6C 		.ascii	"\331\341\317l\206\240\365#E\327\036\264\363\231\216"
 625      86A0F523 
 625      45D71EB4 
 625      F3998E
 626 0e84 368C9D56 		.ascii	"6\214\235V\017G\314\300a\354\223\366\246\303X\274\303"
 626      0F47CCC0 
 626      61EC93F6 
 626      A6C358BC 
 626      C3
 627 0e95 11E7B1C8 		.ascii	"\021\347\261\310\254\230a\354\325O\325\345\312\254\326"
 627      AC9861EC 
 627      D54FD5E5 
 627      CAACD6
 628 0ea4 87B1E1C3 		.ascii	"\207\261\341\303\242\313\353\347\350\343\3610\255s\277"
 628      A2CBEBE7 
 628      E8E3F130 
 628      AD73BF
 629 0eb3 1CE7118F 		.ascii	"\034\347\021\2179\215Y\323A\225\303\241\227\232\333"
 629      398D59D3 
ARM GAS  /tmp/ccGGEubi.s 			page 50


 629      4195C3A1 
 629      979ADB
 630 0ec2 6E1665BB 		.ascii	"n\026e\273\331h\2739\254\245^\352`\260\224Y}\226\337"
 630      D968BB39 
 630      ACA55EEA 
 630      60B09459 
 630      7D96DF
 631 0ed5 1548D143 		.ascii	"\025H\321C\007eG\266k\253\306o\232\037\304\275\220\371"
 631      076547B6 
 631      6BABC66F 
 631      9A1FC4BD 
 631      90F9
 632 0ee7 68A9DA0E 		.ascii	"h\251\332\016\016-\205Oo\006+E/\004Ren\353\323\314\265"
 632      0E2D854F 
 632      6F062B45 
 632      2F045265 
 632      6EEBD3CC 
 633 0efc 4F9577D8 		.ascii	"O\225w\330\362v\323L\254\177\341\017\245\356\205\224"
 633      F276D34C 
 633      AC7FE10F 
 633      A5EE8594 
 634 0f0c BA17A1BA 		.ascii	"\272\027\241\272\027\263\352\236gG\335f\247\023\314"
 634      17B3EA9E 
 634      6747DD66 
 634      A713CC
 635 0f1b EB3B4DAD 		.ascii	"\353;M\255\234\316\342\312\351s\\!\335@:\035\273\346"
 635      9CCEE2CA 
 635      E9735C21 
 635      DD403A1D 
 635      BBE6
 636 0f2d 5BAC04F3 		.ascii	"[\254\004\3635\215\233>t\020\324\245n\346q\352\\m\323"
 636      358D9B3E 
 636      7410D4A5 
 636      6EE671EA 
 636      5C6DD3
 637 0f40 BAF9FBEE 		.ascii	"\272\371\373\356]W#\015\037AN\260\341\242G6\023t\214"
 637      5D57230D 
 637      1F414EB0 
 637      E1A24736 
 637      13748C
 638 0f53 79BAA116 		.ascii	"y\272\241\026k\235\274\263f\360\350\362-|\252\272\214"
 638      6B9DBCB3 
 638      66F0E8F2 
 638      2D7CAABA 
 638      8C
 639 0f64 B0CC0B23 		.ascii	"\260\314\013#\027h\253\325l$\343J\243\361\217\022\343"
 639      1768ABD5 
 639      6C24E34A 
 639      A3F18F12 
 639      E3
 640 0f75 AFB4617C 		.ascii	"\257\264a|)z\374\273Did\212\3625\367\214\036\023\333"
 640      297AFCBB 
 640      4469648A 
 640      F235F78C 
 640      1E13DB
 641 0f88 CA47A5AD 		.ascii	"\312G\245\255\374l\215\333\351\347\303k\335\346\237"
 641      FC6C8DDB 
ARM GAS  /tmp/ccGGEubi.s 			page 51


 641      E9E7C36B 
 641      DDE69F
 642 0f97 0FABBB0C 		.ascii	"\017\253\273\014\260\356C\365\257"
 642      B0EE43F5 
 642      AF
 643 0fa0 BCE959E8 		.ascii	"\274\351Y\350\304\177NLWO;\177g\3042;w\312`\2452X\347"
 643      C47F4E4C 
 643      574F3B7F 
 643      67C4323B 
 643      77CA60A5 
 644 0fb7 28ACEF1D 		.ascii	"(\254\357\035c1\207q\243\347\305y\3521\\i\244t/e\302"
 644      63318771 
 644      A3E7C579 
 644      EA315C69 
 644      A4742F65 
 645 0fcc F66A6981 		.ascii	"\366ji\201\243\216m7\376\013\216\002\233\334\370\335"
 645      A38E6D37 
 645      FE0B8E02 
 645      9BDCF8DD 
 646 0fdc 73477614 		.ascii	"sGv\024\260\017te\324\\\371c\345-\0104\246\243qM\344"
 646      B00F7465 
 646      D45CF963 
 646      E52D0834 
 646      A6A3714D 
 647 0ff1 32ECE1B9 		.ascii	"2\354\341\271\330=<W\222\036!\357A\235e"
 647      D83D3C57 
 647      921E21EF 
 647      419D65
 648 1000 16B8491D 		.ascii	"\026\270I\035\015jc\2044S\033}\364\267\206t\254C|39"
 648      0D6A6384 
 648      34531B7D 
 648      F4B78674 
 648      AC437C33 
 649 1015 C3AC1AE2 		.ascii	"\303\254\032\342\015#\242\231!\342\254\004.RF]\344\030"
 649      0D23A299 
 649      21E2AC04 
 649      2E52465D 
 649      E418
 650 1027 2B91C1BA 		.ascii	"+\221\301\272La\255q\214\325\236\301\272Jamw\214\325"
 650      4C61AD71 
 650      8CD59EC1 
 650      BA4A616D 
 650      778CD5
 651 103a 85C1BA4E 		.ascii	"\205\301\272Na}\340\030\213\355\0047(\254&\307Xl'\250"
 651      617DE018 
 651      8BED0437 
 651      28AC26C7 
 651      586C27A8 
 652 104e DD92BCF8 		.ascii	"\335\222\274\370I\025\354+\307`\214kD\353h\260\253\216"
 652      4915EC2B 
 652      C7608C6B 
 652      44EB68B0 
 652      AB8E
 653 1060 C1BA3360 		.ascii	"\301\2723`\343i\260\221\235l\200\305\331X\230H\203M"
 653      E369B091 
 653      9D6C80C5 
 653      D9589848 
ARM GAS  /tmp/ccGGEubi.s 			page 52


 653      834D
 654 1072 700CC6FA 		.ascii	"p\014\306\372\330d\032l\226c0\326\311\246\320`\213\035"
 654      D8641A6C 
 654      966330D6 
 654      C9A6D060 
 654      8B1D
 655 1084 83B15E36 		.ascii	"\203\261^6\215\006[\353\030\214u\263%4\330\016\307`"
 655      8D065BEB 
 655      188C75B3 
 655      2534D80E 
 655      C760
 656 1096 F772EC9F 		.ascii	"\367r\354\237:\351\257\302E\306j\234\350\327#\215\""
 656      3AE9AFC2 
 656      45C66A9C 
 656      E8D7238D 
 656      22
 657 10a7 7D07E97B 		.ascii	"}\007\351{Hw\"\335\205t\017\322}H\017 =\210\3640\322"
 657      487722DD 
 657      85740FD2 
 657      7D480F20 
 657      3D88F430 
 658 10bc 23488F21 		.ascii	"#H\217!=\201\264\011\351\307HO\261\013\211C\235\214"
 658      3D81B409 
 658      E9C7484F 
 658      B10B8943 
 658      9D8C
 659 10ce 63AD3C09 		.ascii	"c\255<\011S2\352s5\367\377%\345IMJ\313\025\305i}\271"
 659      5332EA73 
 659      35F7FF25 
 659      E5494D4A 
 659      CB15C569 
 660 10e4 8313CFB0 		.ascii	"\203\023\317\260\270o\217D~\011\036Nk\375\025\235\331"
 660      B86F8F44 
 660      7E091E4E 
 660      6BFD159D 
 660      D9
 661 10f5 26A966E8 		.ascii	"&\251f\350\227\264\367\361\265M\3137\\-\221w[\317\342"
 661      97B4F7F1 
 661      B54DCB37 
 661      5C2D9177 
 661      5BCFE2
 662 1108 A278DEAD 		.ascii	"\242x\336\255\255\357\266\262@D\254/\215\013\243\275"
 662      ADEFB6B2 
 662      4044AC2F 
 662      8D0BA3BD 
 663 1118 8752C8AF 		.ascii	"\207R\310\257\272|\331\372\322h\374\260\350\007\207"
 663      BA7CD9FA 
 663      D268FCB0 
 663      E80787
 664 1127 C6EB07F4 		.ascii	"\306\353\007\364\211\006\242?\200\006\004\256\001\233"
 664      8906A23F 
 664      800604AE 
 664      019B
 665 1135 F2E5CD2D 		.ascii	"\362\345\315-w\340q\352\340!|\256=\203\263{\243c\260"
 665      77E071EA 
 665      E0217CAE 
 665      3D83B37B 
ARM GAS  /tmp/ccGGEubi.s 			page 53


 665      A363B0
 666 1148 5406EC30 		.ascii	"T\006\3540\015\266\326\016\230\325<\013`Gh\260\215\216"
 666      0DB6D60E 
 666      98D53C0B 
 666      604768B0 
 666      8D8E
 667 115a C158C98E 		.ascii	"\301X\311\216\321`[\355\200Y\015\317\000v\202\006\333"
 667      D1605BED 
 667      80590DCF 
 667      00768206 
 667      DB
 668 116b E1188C96 		.ascii	"\341\030\214\226\254:z\356\211\305O\252?\1774\261\255"
 668      AC3A7AEE 
 668      89C54FAA 
 668      3F7F34B1 
 668      AD
 669 117c E21DF13E 		.ascii	"\342\035\361>\264\022\371W\361\214m+_M)E\237T\213\246"
 669      B412F957 
 669      F18C6D2B 
 669      5F4D2945 
 669      9F548BA6 
 670 1190 60A57A4D 		.ascii	"`\245zM\362Pi\236\013\236o\034\257\314[,V\346\364\216"
 670      F250699E 
 670      0B9E6F1C 
 670      AFCC5B2C 
 670      56E6F48E 
 671 11a4 999E0B14 		.ascii	"\231\236\013\024\267\333\2508F\010%j\365Y$X\341<m\205"
 671      B7DBA838 
 671      4608256A 
 671      F5592458 
 671      E13C6D85 
 672 11b8 FD76AC90 		.ascii	"\375v\254\220j\355\037\337\322`\037\332\001\263:1\017"
 672      6AED1FDF 
 672      D2601FDA 
 672      01B33A31 
 672      0F
 673 11c9 601769B0 		.ascii	"`\027i\260\023\216\301X\311.\323`\237\330\001\263:{"
 673      138EC158 
 673      C92ED360 
 673      9FD801B3 
 673      3A7B
 674 11db 0F605769 		.ascii	"\017`Wi\2603\216\301X\311\256\323`_\333\001\263:L\015"
 674      B0338EC1 
 674      58C9AED3 
 674      605FDB01 
 674      B33A4C0D 
 675 11ef 603768B0 		.ascii	"`7h\260\013\216\301(\311\306WGk\377T+j\017\241\304o"
 675      0B8EC128 
 675      C9C65747 
 675      6BFF542B 
 675      6A0FA1C4 
 676 1204 BF716B8E 		.ascii	"\277qk\216\333\203\035-\230l\344\230\210y6\221\037\347"
 676      DB831D2D 
 676      986CE498 
 676      88793691 
 676      1FE7
 677 1216 71DA23EA 		.ascii	"q\332#\352<\346=\202>\020\246\347\202f_66\233\021B\211"
ARM GAS  /tmp/ccGGEubi.s 			page 54


 677      3CE63D82 
 677      3E10A6E7 
 677      82665F36 
 677      369B1142 
 678 122b F6B0D021 		.ascii	"\366\260\320!L1uGP\207\337\240\016\257\333\321\241\325"
 678      4C317547 
 678      5087DFA0 
 678      0EAFDBD1 
 678      A1D5
 679 123d 8F1600D8 		.ascii	"\217\026\000\330x\032L\272\315)\030k\220\011\272AR\015"
 679      781A4CBA 
 679      CD29186B 
 679      9009BA41 
 679      520D
 680 124f F660372E 		.ascii	"\366`7.\365\021\312`\017c6\221\237\254\030D\337\024"
 680      F511CA60 
 680      0F633691 
 680      9FAC1844 
 680      DF14
 681 1261 30DE0ADC 		.ascii	"0\336\012\334p\243\334\246\333\244V?\220\000\202O\264"
 681      70A3DCA6 
 681      DBA4563F 
 681      9000824F 
 681      B4
 682 1272 169C7D4F 		.ascii	"\026\234}Oc)\2701\233\310Os\354I\323-<I;\251\311\344"
 682      6329B831 
 682      9BC84F73 
 682      EC49D32D 
 682      3C493BA9 
 683 1288 8276BF60 		.ascii	"\202v\277`l7+\205\022}\322\242\335\260\264\231\374'"
 683      6C372B85 
 683      127DD2A2 
 683      DDB0B499 
 683      FC27
 684 129a 627C2229 		.ascii	"b|\")<\363\333\002\253\264\260>\364\355)G\250\276=\321"
 684      3CF3DB02 
 684      ABB4B03E 
 684      F4ED2947 
 684      A8BE3DD1 
 685 12ae 8E2B3DCF 		.ascii	"\216+=\317\233\210f\366G\257\312D\376+\\\254\177\215"
 685      9B8866F6 
 685      47AFCA44 
 685      FE2B5CAC 
 685      7F8D
 686 12c0 CBD466A4 		.ascii	"\313\324f\244\027\220~\207\364\022\322+H\257!\255\366"
 686      17907E87 
 686      F412D22B 
 686      48AF21AD 
 686      F6
 687 12d1 103A0CE9 		.ascii	"\020:\014\351\010\244\243\220\276\200t4\322\227\221"
 687      08A4A390 
 687      BE807434 
 687      D29791
 688 12e0 8E453A1E 		.ascii	"\216E:\036\351\004\244\023\221NA:\023\351,\017\2650"
 688      E904A413 
 688      914E413A 
 688      13E92C0F 
ARM GAS  /tmp/ccGGEubi.s 			page 55


 688      B530
 689 12f2 36BC7B3A 		.ascii	"6\274{:k\321^\322\202\331\036m\216\264\373\201\316\265"
 689      6BD15ED2 
 689      82D91E6D 
 689      8EB4FB81 
 689      CEB5
 690 1304 45779095 		.ascii	"Ew\220\225\347\034\017Y\315N\273\315\341\313QR\351\233"
 690      E71C0F59 
 690      CD4EBBCD 
 690      E1CB5152 
 690      E99B
 691 1316 1EC362F6 		.ascii	"\036\303b\366\243E\333\345\037\245\")\255o\303_X\264"
 691      A345DBE5 
 691      1FA52229 
 691      AD6FC35F 
 691      58B4
 692 1328 5D209F19 		.ascii	"] \237\031\270T\273.@)H\341\233[\210~\273H\3317\226"
 692      B854BB2E 
 692      402948E1 
 692      9B5B887E 
 692      BB48D937 
 693 133d E1963A86 		.ascii	"\341\226:\206c}\356\"\013\267\312\016\\\234\305\350"
 693      637DEE22 
 693      0BB7CA0E 
 693      5C9CC5E8 
 694 134d 65166E83 		.ascii	"e\026n\203c\270\324x>\254\033C\344\337\362\020\037\236"
 694      63B8D478 
 694      3EAC1B43 
 694      E4DFF210 
 694      1F9E
 695 135f 8F1EB500 		.ascii	"\217\036\265\000\351\"\244\015q\274k\216\205 \270\327"
 695      E922A40D 
 695      71BC6B8E 
 695      8520B8D7 
 696 136f 1CD7BB9A 		.ascii	"\034\327\273\232<j\376\377\320\275\253\345|\027\342"
 696      3C6AFEFF 
 696      D0BDABE5 
 696      7C17E2
 697 137e 5DCBD0BB 		.ascii	"]\313\320\2736\267\356],\010\276\0275z\327\324\363\333"
 697      36B7EE5D 
 697      2C08BE17 
 697      357AD7D4 
 697      F3DB
 698 1390 64EF6AB4 		.ascii	"d\357j\264\345]\015\347\267\261\336\265\013\245h\274"
 698      E55D0DE7 
 698      B7B1DEB5 
 698      0BA568BC 
 699 13a0 69EF5A42 		.ascii	"i\357ZB\352\327\355\267\3371\034\353]\313X\270#v\340"
 699      EAD7EDB7 
 699      DF311CEB 
 699      5DCB58B8 
 699      2376E0
 700 13b3 E278D70A 		.ascii	"\342x\327\012\026\356\244c8V\272\225,\334\031;pq\036"
 700      16EEA463 
 700      3856BA95 
 700      2CDC193B 
 700      70711E
ARM GAS  /tmp/ccGGEubi.s 			page 56


 701 13c6 7756B370 		.ascii	"wV\263p\315\216\341X\351\326\262p\227\355\300Y=\006"
 701      CD8EE158 
 701      E9D6B270 
 701      97EDC059 
 701      3D06
 702 13d8 C03A65BD 		.ascii	"\300:e\275\012\247\254T:;\205c\245\333\303J7\302\016"
 702      0AA7AC54 
 702      3A3B8563 
 702      A5DBC34A 
 702      37C20E
 703 13eb 5CAAB5EE 		.ascii	"\\\252\265\356\366\261p\243\035\303\261\322\035`\341"
 703      F6B170A3 
 703      1DC3B1D2 
 703      1D60E1
 704 13fa C6D9818B 		.ascii	"\306\331\201\213\363i\357A\031N]\003'\030\226.1c\311"
 704      F369EF41 
 704      194E5D03 
 704      2718962E 
 704      3163C9
 705 140d 1EC72B97 		.ascii	"\036\307+\227\275\026+\027\365O\344_\367\010\016\333"
 705      BD162B17 
 705      F54FE45F 
 705      F7080EDB 
 706 141d C0AAE430 		.ascii	"\300\252\3440\253\222\327\354\250$\316\023\322\021\026"
 706      AB92D7EC 
 706      A824CE13 
 706      D21116
 707 142c 6EA66338 		.ascii	"n\246c8V\272c,\334\\;p\226\237\234J\321\023*\334\036"
 707      56BA632C 
 707      DC5C3B70 
 707      969F9C4A 
 707      D1132ADC 
 708 1441 5C993538 		.ascii	"\\\23158\206c\245;\307J\267\306\016\\\017k\335\235g"
 708      8663A53B 
 708      C74AB7C6 
 708      0E5C0F6B 
 708      DD9D67
 709 1454 E1363A86 		.ascii	"\3416:\206c\245\373\226\205\333j\007\316\362W\330\244"
 709      63A5FB96 
 709      85DB6A07 
 709      CEF257D8 
 709      A4
 710 1465 E8455677 		.ascii	"\350EVw{\035\303\261\322]f\245;j\007\316\352A\203<\231"
 710      7B1DC3B1 
 710      D25D66A5 
 710      3B6A07CE 
 710      EA41833C 
 711 147a 1BA600C7 		.ascii	"\033\246\000\307p\254t\327Y\270\323v\340\314~\215\315"
 711      70AC74D7 
 711      59B8D376 
 711      E0CC7E8D 
 711      CD
 712 148b EC8F9EDE 		.ascii	"\354\217\236\336E~%\256WV\341\032e\015\322uH7 \335\210"
 712      457E25AE 
 712      5756E11A 
 712      650DD275 
 712      483720DD 
ARM GAS  /tmp/ccGGEubi.s 			page 57


 713 14a0 7413D2CD 		.ascii	"t\023\322\315H\267\"\335\216t\007\322\367\221\356F\272"
 713      48B722DD 
 713      8E7407D2 
 713      F791EE46 
 713      BA
 714 14b1 0FE901A4 		.ascii	"\017\351\001\244\007\221\036Fz\004\3511\244'\2206!\375"
 714      07911E46 
 714      7A04E931 
 714      A4279036 
 714      21FD
 715 14c3 18E929A4 		.ascii	"\030\351)\244\237\305Y!-\213\263B:\243\257\220\344o"
 715      9FC55921 
 715      2D8BB342 
 715      3AA3AF90 
 715      E46F
 716 14d5 68A39756 		.ascii	"h\243\227V7\013\3527\264\367\330\377~\345s\217\341H"
 716      370BEA37 
 716      B4F7D8FF 
 716      7EE5738F 
 716      E148
 717 14e7 7C031FF3 		.ascii	"|\003\037\363\201Nsgv9\245|\240\323L>\320\221\177X\372"
 717      814E7367 
 717      7639A57C 
 717      A0D34C3E 
 717      D0917F58 
 718 14fc C5DB498E 		.ascii	"\305\333I\216\263\036\253\017t\224oY\224\017t\216\323"
 718      B31EAB0F 
 718      74946F59 
 718      940F748E 
 718      D3
 719 150d 5F2F9342 		.ascii	"_/\223B\214\241\276\364\230|\"\034]\373\361v\365\373"
 719      8CA1BEF4 
 719      987C221C 
 719      5DFBF176 
 719      F5FB
 720 151f BDE70507 		.ascii	"\275\347\005\007\037\3605\263\355\363r#I\301\246\021"
 720      1FF035B3 
 720      EDF37223 
 720      49C1A611 
 721 152f 35ADFD28 		.ascii	"5\255\375(T\363\325\367~%\357\277_\360x\241\360\201"
 721      54F3D5F7 
 721      7E25EFBF 
 721      5FF078A1 
 721      F081
 722 1541 DB5925D8 		.ascii	"\333Y%\330@\"\365_\204\302\314\252\362x\357T\231\033"
 722      4022F55F 
 722      84C2CCAA 
 722      F278EF54 
 722      991B
 723 1553 674589C2 		.ascii	"gE\211\302\012\334\211\333\345G \350\016\347\265\237"
 723      0ADC89DB 
 723      E54720E8 
 723      0EE7B59F 
 724 1563 367F4E49 		.ascii	"6\177NI<\257'~\253'\352\205\237\357\242\245\177g\226"
 724      3CAF277E 
 724      AB27EA85 
 724      9FEFA2A5 
ARM GAS  /tmp/ccGGEubi.s 			page 58


 724      7F6796
 725 1576 3E414FBF 		.ascii	">AO\277h\226>GO\277f\226\276DO\277n\226\376\256\236"
 725      68963E47 
 725      4FBF6696 
 725      BE444FBF 
 725      6E96FEAE 
 726 158b 7EC32C7D 		.ascii	"~\303,}\217\236\336b\226~\\O\247urZg\363\024\373\234"
 726      8F9EDE62 
 726      967E5C4F 
 726      A775725A 
 726      67F314FB 
 727 15a0 CE1628B6 		.ascii	"\316\026(\266t\207\306vQ\3541:\333M\261'\351l\017\305"
 727      7487C676 
 727      51EC313A 
 727      DB4DB127 
 727      E96C0FC5 
 728 15b4 7E5D6727 		.ascii	"~]g'P\354\005:\333K\261W\352\354D\212\275Ig'Q\354]:"
 728      50EC053A 
 728      DB4BB157 
 728      EAEC448A 
 728      BD496727 
 729 15cc BB0DC5FE 		.ascii	"\273\015\305\376Pg'S\354/tv\012\305\376^g\337B\261\307"
 729      50672753 
 729      EC2F7476 
 729      0AC5FE5E 
 729      67DF42B1 
 730 15e1 FE4863B7 		.ascii	"\376Hc\267\245\3303uv;\212\275Tg\267\247\330\233uv\007"
 730      A5D83375 
 730      763B8ABD 
 730      5467B7A7 
 730      D89B7576 
 731 15f6 8A7D4867 		.ascii	"\212}Hgw\244\330M:\373v\212\375\225\316\356B[\347N\215"
 731      77A4D84D 
 731      3AFB768A 
 731      FD95CEEE 
 731      425BE74E 
 732 160b 7D07C5AE 		.ascii	"}\007\305\256\327\331?\242\330\363u\366\235\264\276"
 732      D7D93FA2 
 732      D8F375F6 
 732      9DB4BE
 733 161a 75F65D14 		.ascii	"u\366]\024\373\035\235\375c\212\275Sg\377\204b\037\324"
 733      FB1D9DFD 
 733      638ABD53 
 733      67FF8462 
 733      1FD4
 734 162c D97753EC 		.ascii	"\331wS\354Otv*\355l:\373\036\332\014:\373\247\024\373"
 734      4F74762A 
 734      ED6C3AFB 
 734      1EDA0C3A 
 734      FBA714FB 
 735 1640 C5BB34F6 		.ascii	"\305\2734\366\317(\366x\235\375s\212=Mg\377\202b\277"
 735      CF28F678 
 735      9DFD738A 
 735      3D4D67FF 
 735      8262BF
 736 1653 A5B37F49 		.ascii	"\245\263\177I\261W\350\354{i\243\351\354\177\246\330"
 736      B157E8EC 
ARM GAS  /tmp/ccGGEubi.s 			page 59


 736      7B69A3E9 
 736      EC7FA6D8 
 737 1663 0774F67D 		.ascii	"\007t\366}\024\373S\235\235F\261/\351\354\014\212]\375"
 737      14FB539D 
 737      9D46B12F 
 737      E9EC0C8A 
 737      5DFD
 738 1675 638D9D49 		.ascii	"c\215\235I\261G\353\354,\212\375\212\316\356N\261\347"
 738      B147EBEC 
 738      2C8AFD8A 
 738      CEEE4EB1 
 738      E7
 739 1686 EAEC8728 		.ascii	"\352\354\207(\366*\235\375\033\212\275Cg\377\226b\037"
 739      F62A9DFD 
 739      1B8ABD43 
 739      67FF9662 
 739      1F
 740 1697 D7D9BFA3 		.ascii	"\327\331\277\243\330\337\350l\037\305\276\246\263\263"
 740      D8DFE86C 
 740      1FC5BEA6 
 740      B3B3
 741 16a5 29F6CB3F 		.ascii	")\366\313?\321\330\275(\366t\235\335\233b7\350\354>"
 741      D1D8BD28 
 741      F6749DDD 
 741      9B6237E8 
 741      EC3E
 742 16b7 147B9DCE 		.ascii	"\024{\235\316\356K\261\337\323\3319t\337\321\331\177"
 742      EE4BB1DF 
 742      D3D93974 
 742      DFD1D97F 
 743 16c7 A4FB8ECE 		.ascii	"\244\373\216\316.T\346\001r\013\303\205\244\217\217"
 743      2E54E601 
 743      720BC385 
 743      A48F8F
 744 16d6 0AE7398E 		.ascii	"\012\3479\216\376\243g\031\221\277\204\213\233\313\036"
 744      FEA36719 
 744      91BF848B 
 744      9BCB1E
 745 16e5 57DCE2CC 		.ascii	"W\334\342\314|\317\305|\365\366\371OL\246|\362R\372"
 745      7CCFC57C 
 745      F5F6F94F 
 745      4CA67CF2 
 745      52FA
 746 16f7 FC0B7CFD 		.ascii	"\374\013|\375W#\244tuZ\274\206\031\317y\314?'\226s\031"
 746      5723A474 
 746      755ABC86 
 746      19CF79CC 
 746      3F279673 
 747 170c 3E5F9697 		.ascii	">_\226\227\014\322\335\206\202\366\227\014\347\214K"
 747      0CD2DD86 
 747      82F6970C 
 747      E78C4B
 748 171b 862B09CC 		.ascii	"\206+\011\314\222\301\260\216:eq\260\022\337\355%$\233"
 748      92C1B08E 
 748      3A6571B0 
 748      12DFED25 
 748      249B
ARM GAS  /tmp/ccGGEubi.s 			page 60


 749 172d 96A2DF39 		.ascii	"\226\242\3379R\247\001\357U\313{\224\362\325^uC_\333"
 749      52A701EF 
 749      55CB7B94 
 749      F2D55E75 
 749      435FDB
 750 1740 C9B6AA4A 		.ascii	"\311\266\252J\362\306\3352\325~\354\377IN[\203,\275"
 750      F2C6DD32 
 750      D57EECFF 
 750      494E5B83 
 750      2CBD
 751 1752 7AB4425E 		.ascii	"z\264B^\203\324x\361[\265\273[\3375epH\275#\274\206"
 751      83D478F1 
 751      5BB5BB5B 
 751      DF356570 
 751      48BD23BC 
 752 1767 7DADEF8F 		.ascii	"}\255\357\217\340\021\000\302o}W\253\345\210z&]^\225"
 752      E01100C2 
 752      6F7D57AB 
 752      E5887A26 
 752      5D5E95
 753 177a 1F431148 		.ascii	"\037C\021H\3318\253rF\021,^\355Qj_\275\3111X*\003VG"
 753      D938AB72 
 753      46112C5E 
 753      ED516A5F 
 753      BDC93158 
 754 1792 839DB203 		.ascii	"\203\235\262\003\026gCk<\015v\3261\030+\331\004\032"
 754      1667436B 
 754      3C0D76D6 
 754      31182BD9 
 754      041A
 755 17a4 EC6B3B60 		.ascii	"\354k;`q6\263&\322`\315\216\301X\311&\323`\337\331\001"
 755      7136B326 
 755      D260CD8E 
 755      C158C926 
 755      D360DFD9 
 756 17b9 8BF33E7B 		.ascii	"\213\363>{\012\015v\3151\030+\3314\032\254:\325\006"
 756      0A0D76CD 
 756      31182BD9 
 756      341AAC3A 
 756      D506
 757 17cb 58AAB564 		.ascii	"X\252\265d\213"
 757      8B
 758 17d0 69B0918E 		.ascii	"i\260\221\216\301X\311\226\320`/\332\001\213\363\246"
 758      C158C996 
 758      D0602FDA 
 758      018BF3A6 
 759 17e0 7D190D36 		.ascii	"}\031\0156\3061\030+\331\012\032\254\316\016\230\345"
 759      C631182B 
 759      D90A1AAC 
 759      CE0E98E5 
 760 17f0 3E527574 		.ascii	">Rut\345\237\331\027\207g\254\337x\232\276\312\024\371"
 760      E59FD917 
 760      8767ACDF 
 760      789ABECA 
 760      14F9
 761 1802 ABF8C50A 		.ascii	"\253\370\305\012%\201\351\273\3138{O\253\351\366L\260"
 761      2581E9BB 
ARM GAS  /tmp/ccGGEubi.s 			page 61


 761      CB387B4F 
 761      ABE9F64C 
 761      B0
 762 1813 D39E1ED6 		.ascii	"\323\236\036\326`ki\260\327\354\200Ym\305\000\330z\032"
 762      606B69B0 
 762      D7EC8059 
 762      6DC500D8 
 762      7A1A
 763 1825 6CBA6330 		.ascii	"l\272c0V\262=4\330\033v\300\342l\303\354\243\301\346"
 763      56B23D34 
 763      D81B76C0 
 763      E26CC3EC 
 763      A3C1E6
 764 1838 3A06A325 		.ascii	":\006\243%\253\216\036\370\263\341\030\002\345\004="
 764      AB8E1EF8 
 764      B3E11802 
 764      E5043D
 765 1847 D8814F3F 		.ascii	"\330\201O?_\300\234\010X`\224\200)\246D\355\357\333"
 765      5FC09C08 
 765      58609480 
 765      29A644ED 
 765      EFDB
 766 1859 E8D397C8 		.ascii	"\350\323\227\310\217\364\222\245\315(/\276\357D:\032"
 766      8FF492A5 
 766      CD282FBE 
 766      EF443A1A 
 767 1869 E9CB48C7 		.ascii	"\351\313H\307\"\035\207\264\036\351+H_E:\011\351kH\247"
 767      221D87B4 
 767      1EE92B48 
 767      5F453A09 
 767      E96B48A7 
 768 187d 229D8E74 		.ascii	"\"\235\216t&\322YHg#\235\213\364M\244\363\221.\360Z"
 768      26D25948 
 768      67239D8B 
 768      F44DA4F3 
 768      912EF05A 
 769 1891 EFD2D458 		.ascii	"\357\322\324X\250\232\310\276\330k\276\272\220?\021"
 769      A89AC8BE 
 769      D86BBEBA 
 769      903F11
 770 18a0 B52AD5A0 		.ascii	"\265*\325\240\227\262\372*\2019P\216\207\357\2741\226"
 770      97B2FA2A 
 770      8139508E 
 770      87EFBC31 
 770      96
 771 18b1 B058C274 		.ascii	"\260X\302tW\213z\225\002K\275N7\310\227y\3157\310\023"
 771      578B7A95 
 771      024BBD4E 
 771      37C89779 
 771      CD37C813 
 772 18c5 CCDB4ABE 		.ascii	"\314\333J\276\373\267\202Zn\251\241eq~xb\205\327\260"
 772      FBB7825A 
 772      6EA9A165 
 772      717E7862 
 772      85D7B0
 773 18d8 FBD57460 		.ascii	"\373\325t`\326K7\370q\352\217\333\3150\376\270\035\371"
 773      D64B37F8 
ARM GAS  /tmp/ccGGEubi.s 			page 62


 773      71EA8FDB 
 773      CD30FEB8 
 773      1DF9
 774 18ea 04CE0A6C 		.ascii	"\004\316\012l\2457\366\227\250.\246\262\013-\303/Q\255"
 774      A537F697 
 774      A82EA6B2 
 774      0B2DC32F 
 774      51AD
 775 18fc 70C9BF44 		.ascii	"p\311\277D\325\350\215\373KT\253\274f?v\267\364\255"
 775      D5E88DFB 
 775      4B54ABBC 
 775      663F76B7 
 775      F4AD
 776 190e 97DEE237 		.ascii	"\227\336\3427\316\036)\221\337\322ynz\264\275\372\313"
 776      CE1E2991 
 776      DFD2796E 
 776      7AB4BDFA 
 776      CB
 777 191f 08DBEF31 		.ascii	"\010\333\3571\255Tb\177\230k\215\327\260\370]kVK\364"
 777      AD54627F 
 777      986B8DD7 
 777      B0F85D6B 
 777      564BF4
 778 1932 FA16E5F7 		.ascii	"\372\026\345\367\240\010>\321\245\300}d\300WV\345\207"
 778      A0083ED1 
 778      A5C07D64 
 778      C05756E5 
 778      87
 779 1943 C8369EFC 		.ascii	"\3106\236\374\215\340\267\230c\275E\253\324v\253b}H"
 779      8DE0B798 
 779      63BD45AB 
 779      D476AB62 
 779      7D48
 780 1955 AFC9D71B 		.ascii	"\257\311\327\033\305\332\300\212e\341\215]\324\012\\"
 780      C5DAC08A 
 780      65E18D5D 
 780      D40A5C
 781 1964 4AB14D8E 		.ascii	"J\261M\216\275\361]\013oT\2537\370\325\2368~\265\331"
 781      BDF15D0B 
 781      6F54AB37 
 781      F8D59E38 
 781      7EB5D9
 782 1977 D21B97C7 		.ascii	"\322\033\227\3079\013\261\305\262\324\2068um\265,u)"
 782      390BB1C5 
 782      B2D48638 
 782      756DB52C 
 782      7529
 783 1989 4E7FD966 		.ascii	"N\177\331fY\352F\234R\333c\372K\343\264O\273,R\177\244"
 783      59EA469C 
 783      52DB63FA 
 783      4BE3B44F 
 783      BB2C527F 
 784 199e B27AB8F1 		.ascii	"\262z\270\361wv\246\307\351/;L\372\313\025s\327U\373"
 784      7776A6C7 
 784      E92F3B4C 
 784      FACB1573 
 784      D755FB
ARM GAS  /tmp/ccGGEubi.s 			page 63


 785 19b1 CB74A5BF 		.ascii	"\313t\245\277\274\027\277\277\354d]\206{(\255$X\036"
 785      BC17BFBF 
 785      EC645D86 
 785      7B28AD24 
 785      581E
 786 19c3 482B0A16 		.ascii	"H+\012\026\017M+\016\014I+*)\035X\032\014\247EBU\025"
 786      0F4D2B0E 
 786      0C492B2A 
 786      291D581A 
 786      0CA74542 
 787 19d9 4FA74124 		.ascii	"O\247A$\024I\253\014\206\"\341\264\236\371\271\276\334"
 787      1449AB0C 
 787      8622E1B4 
 787      9EF9B9BE 
 787      DC
 788 19ea 67214351 		.ascii	"g!CQ0\024\270\277\204k\023\216<-\226\225\016\256\360"
 788      3014B8BF 
 788      846B138E 
 788      3C2D9695 
 788      0EAEF0
 789 19fd 4712FA3C 		.ascii	"G\022\372<\326/\325\307\375<\255*\034J\023C\345\277"
 789      D62FD5C7 
 789      FD3CAD2A 
 789      1C4A1343 
 789      E5BF
 790 1a0f AE085604 		.ascii	"\256\010V\004~\035\020\007\226\246\225V\024\225U\025"
 790      7E1D1007 
 790      96A69556 
 790      14955515 
 791 1a1f 07D2C291 		.ascii	"\007\322\302\221\342\322\212\010\024K\254\202k\267\256"
 791      E2D28A08 
 791      144BAC82 
 791      6BB7AE
 792 1a2e FE48D738 		.ascii	"\376H\3278\271\313E\220\243\"\220\346/\016\014\022\253"
 792      B9CB4590 
 792      A32290E6 
 792      2F0E0C12 
 792      AB
 793 1a3f CA22FEC8 		.ascii	"\312\"\376\310\320\312@\230T\352\367\253\345\373:\226"
 793      D0CA4098 
 793      54EAF7AB 
 793      E5FB3A96 
 794 1a4f 3C585E59 		.ascii	"<X^YZ\026\010\205\323\372\370|\220]\305\364F*C\245A"
 794      5A160885 
 794      D3FAF87C 
 794      905DC5F4 
 794      462A43A5 
 795 1a64 7F0425CB 		.ascii	"\177\004%\313\312\364G\224JH\264\273\215JT\241\213J"
 795      CAF44794 
 795      4A48B4BB 
 795      8D4A54A1 
 795      8B4A
 796 1a76 C243C32A 		.ascii	"\302C\303*hb\244$\024\020\213\375\221\244\242\022\277"
 796      6862A424 
 796      14108BFD 
 796      91A4A212 
 796      BF
ARM GAS  /tmp/ccGGEubi.s 			page 64


 797 1a87 1CEFEA0C 		.ascii	"\034\357\352\014\253\250\244\030p\022*\375\025\201g"
 797      ABA8A418 
 797      70122AFD 
 797      158167
 798 1a96 2370A90C 		.ascii	"#p\251\014\005\206\340\2454\350-\012VD\200\233L\332"
 798      0586E0A5 
 798      34E82D0A 
 798      5644809B 
 798      4CDA
 799 1aa8 E707518B 		.ascii	"\347\007Q\213\"\317\376\353\315\031\322?\344\301r\""
 799      22CFFEEB 
 799      CD19D23F 
 799      E4C17222 
 800 1ab8 6E283018 		.ascii	"n(0\030L\341\217\270\302\031\335 <\010\241;\204\207"
 800      4CE18FB8 
 800      C219DD20 
 800      3C08A13B 
 800      8487
 801 1aca 5CE1CC74 		.ascii	"\\\341\314t\010\031\0202!dA\350\012\341\001\010\220"
 801      08191032 
 801      216441E8 
 801      0AE10108 
 801      90
 802 1adb 2F13F265 		.ascii	"/\023\362eB\276L\310\227\005\371\2622\204PW!\364\200"
 802      42BE4CC8 
 802      9705F9B2 
 802      32845057 
 802      21F480
 803 1aee 10EA2684 		.ascii	"\020\352&\204\036\024B\335\205\320C\256PF:\204\014\241"
 803      1E1442DD 
 803      85D043AE 
 803      50463A84 
 803      0CA1
 804 1b00 2C04972C 		.ascii	",\004\227,O\245\037\244\365\222f=\023\010\3015XV\034"
 804      4FA51FA4 
 804      F592663D 
 804      1308C135 
 804      58561C
 805 1b13 08B98B4A 		.ascii	"\010\271\213J\304\020i\253X\036H\214\204#b$\340\217"
 805      C41069AB 
 805      581E488C 
 805      84236224 
 805      E08F
 806 1b25 788915BA 		.ascii	"x\211\025\272\203\012e{@\014\262c\2327R\036,\016\340"
 806      830A657B 
 806      400CB263 
 806      9A37521E 
 806      2C0EE0
 807 1b38 FDA03271 		.ascii	"\375\2402qp\330\033\011\005\006\205\375DM$\342)\017"
 807      70D81B09 
 807      050685FD 
 807      444D24E2 
 807      290F
 808 1b4a 0F8644C5 		.ascii	"\017\206D\305\206P\\\211%\204\212\207BRb\340\331\322"
 808      86505C89 
 808      25848A87 
 808      425262E0 
ARM GAS  /tmp/ccGGEubi.s 			page 65


 808      D9D2
 809 1b5c 08282A90 		.ascii	"\010(*\220\360L$8\360\251\312\344\300\220@E\244\\\014"
 809      F04C2438 
 809      F0A9CAE4 
 809      C0904045 
 809      A45C0C
 810 1b6f 3F0D5902 		.ascii	"?\015Y\002\317\220\210\253\322_\325V6[\330_V\032\006"
 810      CF9088AB 
 810      D25FD556 
 810      365BD85F 
 810      561A06
 811 1b82 0F6CA719 		.ascii	"\017l\247\031R\346$U\372\237\021K#\245\025\203\333\251"
 811      52E62455 
 811      FA9F114B 
 811      23A51583 
 811      DBA9
 812 1b94 ECBF5405 		.ascii	"\354\277T\005\252@\252\366TNd\265\251\364C\265\030\365"
 812      AA40AAF6 
 812      544E64B5 
 812      A9F443B5 
 812      18F5
 813 1ba6 60141881 		.ascii	"`\024\030\201\312@\005t\211\301\236\362*0e\226#\337"
 813      CA400574 
 813      89C19EF2 
 813      2A306596 
 813      23DF
 814 1bb8 288F3C4B 		.ascii	"(\217<K\374\266\\F\207k\360\231\012\320%\"A\023\312"
 814      FCB65C46 
 814      876BF099 
 814      0AD02522 
 814      4113CA
 815 1bcb D165403E 		.ascii	"\321e@>\310G$mC\264\"\226\241\347\000\2632\030,K\263"
 815      C847246D 
 815      43B42296 
 815      A1E700B3 
 815      32182C4B 
 816 1be0 515F3854 		.ascii	"Q_8T$\373\364\375E\\\212\277\264\270,\240\264\212\257"
 816      24FBF4FD 
 816      455C8ABF 
 816      B4B82CA0 
 816      B48AAF
 817 1bf3 4C521CAF 		.ascii	"LR\034\2574\222\351H\360!d\004H.*\351_\230\035,,-z:"
 817      3492E948 
 817      F0216404 
 817      482E2AE9 
 817      5F981D2C 
 818 1c0b 2711E0C3 		.ascii	"'\021\340\303\021\260\334\217\213J\012\206\206\373\004"
 818      11B0DC8F 
 818      8B4A0A86 
 818      86FB04
 819 1c1a 220560DF 		.ascii	"\"\005`\337\252p\317\212\342G\203EO\017\270\277R\014"
 819      AA70CF8A 
 819      E2478345 
 819      4F0FB8BF 
 819      520C
 820 1c2c 45EE4FFF 		.ascii	"E\356O\377\021\246\346\007\302\021pY9\207\222\224\221"
 820      11A6E607 
ARM GAS  /tmp/ccGGEubi.s 			page 66


 820      C2117059 
 820      39879294 
 820      91
 821 1c3d 84493920 		.ascii	"\204I9 \212\034\353+\226\201\235\003b8X\321\021\031"
 821      8A1CEB2B 
 821      96819D03 
 821      623858D1 
 821      1119
 822 1c4f 85A5E581 		.ascii	"\205\245\345\201P_\261\002\344\017\345t6\257\246\223"
 822      505FB102 
 822      E40FE574 
 822      36AFA693 
 823 1c5f 09BE0BE4 		.ascii	"\011\276\013\344\362\370\037\001eyC\221\242\012\360"
 823      F2F81F01 
 823      65794391 
 823      A20AF0
 824 1c6e 80DBE4AA 		.ascii	"\200\333\344\252\302\276`\025t\277\320\023\245\021\030"
 824      C2BE6015 
 824      74BFD013 
 824      A51118
 825 1c7d A406B820 		.ascii	"\244\006\270 \315\003^\031\212\270\300\242\0350O^\260"
 825      CD035E19 
 825      8AB8C0A2 
 825      1D304F5E 
 825      B0
 826 1c8e AC2C509C 		.ascii	"\254,P\234\035(\023\207\016H(\032ZT\026\010g\264\246"
 826      1D281387 
 826      0E48281A 
 826      5A541608 
 826      67B4A6
 827 1ca1 A812B18C 		.ascii	"\250\022\261\214\032-AOId8\001\341a@\012G\012\002\221"
 827      1A2D414F 
 827      49643801 
 827      E161400A 
 827      470A0291 
 828 1cb5 9E65D043 		.ascii	"\236e\320C\223!\032\011Vb\034\374\254\240\250\004\244"
 828      93211A09 
 828      56621CFC 
 828      ACA0A804 
 828      A4
 829 1cc6 2E2A0914 		.ascii	".*\011\024W\225\005\012\036td\014\305E\241\246L\034"
 829      5795050A 
 829      1E74640C 
 829      C545A1A6 
 829      4C1C
 830 1cd8 8ACB4A07 		.ascii	"\212\313J\007\246\015.*2\014\311]\357\357~\177Wz\030"
 830      A60D2E2A 
 830      320CC95D 
 830      EFEF7E7F 
 830      577A18
 831 1ceb 8721998C 		.ascii	"\207!\231\214K\341\322\277\222\016\030\031TUQ\344\217"
 831      4BE1D2BF 
 831      920E1819 
 831      545551E4 
 831      8F
 832 1cfc 40B30B4B 		.ascii	"@\263\013K\212}\000\030A\375\225\026\245(\316\202^\342"
 832      8A7D0018 
ARM GAS  /tmp/ccGGEubi.s 			page 67


 832      41FD9516 
 832      A528CE82 
 832      5EE2
 833 1d0e 6CE82B09 		.ascii	"l\350+\011\210\2258\326\223\010\226w\326\260\362@\271"
 833      889538D6 
 833      93089677 
 833      D6B0F240 
 833      B9
 834 1d1f 3A47F971 		.ascii	":G\371q\214s\356\250\021\034\024\375\221r,\233\350\037"
 834      8C73EEA8 
 834      111C14FD 
 834      91722C9B 
 834      E81F
 835 1d31 227B7B3B 		.ascii	"\"{{;\277\252\353\220rOu\013\030\016\332\224\2130\324"
 835      BFAAEB90 
 835      724F750B 
 835      180EDA94 
 835      8B30D4
 836 1d44 E05D3B3D 		.ascii	"\340];=z\177\267\254\214n\340\365~b\320@\271<'\310\361"
 836      7A7FB7AC 
 836      8C6EE0F5 
 836      7E62D040 
 836      B93C27C8 
 837 1d59 14923E54 		.ascii	"\024\222>T\031an\001\266~\357\015\311\335;!\204c\276"
 837      19616E01 
 837      B67EEF0D 
 837      C9DD3B21 
 837      8463BE
 838 1d6c 2784E366 		.ascii	"'\204\343fH\0317C\362\270\231\004\334\252P\010\206/"
 838      48193743 
 838      F2B89904 
 838      DCAA5008 
 838      862F
 839 1d7e 4F8814BA 		.ascii	"O\210\024\272mHi(R%\226\371\211\343\204\324\241\013"
 839      6D486928 
 839      522596F9 
 839      89E384D4 
 839      A10B
 840 1d90 BCDE6F92 		.ascii	"\274\336o\222\320\216\341\311\343\026\303\362B\263\311"
 840      D08EE1C9 
 840      E316C3F2 
 840      42B3C9
 841 1d9f 5042AE64 		.ascii	"PB\256d\372I\204kq\240,\"BD\266;I!\261\004\222C\014"
 841      FA49846B 
 841      71A02C22 
 841      4244B63B 
 841      4921B104 
 842 1db6 25C3A54C 		.ascii	"%\303\245L\014GHi`\221J\332*\215.\016\014\254\032,\217"
 842      0C474869 
 842      60914ADA 
 842      2A8D2E0E 
 842      0CAC1A2C 
 843 1dcb A23427A9 		.ascii	"\2424'\251R\254(-\"c\242\253x\340\340\366\240\360\""
 843      52AC282D 
 843      2263A2AB 
 843      78E0E0F6 
 843      A0F022
ARM GAS  /tmp/ccGGEubi.s 			page 68


 844 1dde 58540C0C 		.ascii	"XT\014\014\201\013\005\311\312\"8hP8\020\021\"\345B"
 844      810B05C9 
 844      CA223868 
 844      50381011 
 844      22E542
 845 1df1 5189B3C9 		.ascii	"Q\211\263\311\030f4\250>4\024\014I\024[Z\014J*\035T"
 845      186634A8 
 845      3E34140C 
 845      49145B5A 
 845      0C4A2A1D 
 846 1e06 0AAD82BB 		.ascii	"\012\255\202\273\277\006BAr%^\214\363~F7m\336\307(Q"
 846      BF064241 
 846      72255E8C 
 846      F37E4637 
 846      6DDEC728 
 847 1e1b 05E80984 		.ascii	"\005\350\011\204 \321\312H\210\344$6$M#\361[\364A\036"
 847      20D1CA48 
 847      88E42436 
 847      244D23F1 
 847      5BF4411E 
 848 1e2f 5306F941 		.ascii	"S\006\371AT\264T\033%\016\346JQ\242h3\365\006\015\247"
 848      54B4541B 
 848      250EE64A 
 848      51A26833 
 848      F5060DA7 
 849 1e43 1620135E 		.ascii	"\026 \023^;%\016\013\252\262\322\362\322H\212v\017\275"
 849      3B250E0B 
 849      AAB2D2F2 
 849      D2488A76 
 849      0FBD
 850 1e55 49BDC179 		.ascii	"I\275\301yN-E&\271\266Z\225\201@yeDM\"\362\201\177)"
 850      4E2D4526 
 850      B9B65A95 
 850      81407965 
 850      444D22F2 
 851 1e6c EA4E0429 		.ascii	"\352N\004)1\332\352\362\000\314\234\346\313-\310)\320"
 851      31DAEAF2 
 851      00CC9CE6 
 851      CB2DC829 
 851      D0
 852 1e7d 5548BA4E 		.ascii	"UH\272NQyW\322\023\012|\217\370\013ai\343\361\345\365"
 852      517957D2 
 852      130A7C8F 
 852      F80B6169 
 852      E3F1E5F5 
 853 1e91 CBC976E7 		.ascii	"\313\311v\347\370\012\362\335\375\013\037\317\367\364"
 853      F80AF2DD 
 853      FD0B1FCF 
 853      F7F4
 854 1e9f CCC9F7E5 		.ascii	"\314\311\367\345\273\012 \370\310\265o\236\247\240/"
 854      BB0A20F8 
 854      C8B56F9E 
 854      A7A02F
 855 1eae 49F4F506 		.ascii	"I\364\365\006\322\227\220l \236\334\334\336=\363\335"
 855      D297906C 
 855      209EDCDC 
 855      DE3DF3DD 
ARM GAS  /tmp/ccGGEubi.s 			page 69


 856 1ebe 8F10D213 		.ascii	"\217\020\322\023\356]y\275\363]\331\020zf\347\273!-"
 856      EE5D79BD 
 856      F35DD910 
 856      7A66E7BB 
 856      212D
 857 1ed0 DF9D53D0 		.ascii	"\337\235S\3203?)\277WA\257\374\376\275\262\323\241\232"
 857      333F29BF 
 857      5741AFFC 
 857      FEBDB2D3 
 857      A19A
 858 1ee2 9EBEFCB6 		.ascii	"\236\276\374\266>\220 \033\033\202ug\023dO\266/_\246"
 858      3E90201B 
 858      1B827567 
 858      13644FB6 
 858      2F5FA6
 859 1ef5 D9407BE5 		.ascii	"\331@{\345\372\362\023\263\237(\304\014n_a\376\243\011"
 859      FAF213B3 
 859      9F28C40C 
 859      6E5F61FE 
 859      A309
 860 1f07 BE7FF7F9 		.ascii	"\276\177\367\371\036+L\360\345\345\220K\257\001\344"
 860      1E2B4CF0 
 860      E5E5904B 
 860      AF01E4
 861 1f16 2EB1E0D1 		.ascii	".\261\340\321^\275\362\310\375\243\005\375\340\342\355"
 861      5EBDF2C8 
 861      FDA305FD 
 861      E0E2ED
 862 1f25 FDF8A3D9 		.ascii	"\375\370\243\331pu\347\021D\337\343\271y\351\236\334"
 862      7075E711 
 862      44DFE3B9 
 862      79E99EDC 
 863 1f35 9E057F48 		.ascii	"\236\005\177HO\352\335\3571_a\316\343\217\245#7\003"
 863      4FEADDEF 
 863      315F61CE 
 863      E38FA523 
 863      3703
 864 1f47 B9191A37 		.ascii	"\271\031\0327C\0231\003\32331=SK\317\324\32231=\013"
 864      43133103 
 864      D333313D 
 864      534BCFD4 
 864      D233313D 
 865 1f5c D3B3B4F4 		.ascii	"\323\263\264\364\254.\217\365\317\361\371a0\317\003"
 865      AC2E8FF5 
 865      CFF1F961 
 865      30CF03
 866 1f6b 47099546 		.ascii	"G\011\225F\206\366\011\005\253*a\031p\013\303\370\255"
 866      86F60905 
 866      AB2A6119 
 866      700BC3F8 
 866      AD
 867 1f7c 7D6B1514 		.ascii	"}k\025\024\302\240\\\236\2259\250kz\306\263d\314K\312"
 867      C2A05C9E 
 867      9539A86B 
 867      7AC6B364 
 867      CC4BCA
 868 1f8f C9FF6305 		.ascii	"\311\377c\005\352\243\323c\301\212\\X\314\210\003\313"
ARM GAS  /tmp/ccGGEubi.s 			page 70


 868      EAA3D363 
 868      C18A5C58 
 868      CC8803CB 
 869 1f9f 02       		.ascii	"\002"
 870 1fa0 39308191 		.ascii	"90\201\221\204\333r\003\345\301\320\320\\\261B\034\034"
 870      84DB7203 
 870      E5C1D0D0 
 870      5CB1421C 
 870      1C
 871 1fb1 280F28DC 		.ascii	"(\017(\334[\036\251\012\367\306\2056\271k\327/\014\211"
 871      5B1EA90A 
 871      F7C68536 
 871      B96BD72F 
 871      0C89
 872 1fc3 FA7D7241 		.ascii	"\372}rA\177\237XV\206\361\016h\217\334 \014~\301\220"
 872      7F9F5856 
 872      86F10E68 
 872      8FDC200C 
 872      7EC190
 873 1fd6 9C9A07D3 		.ascii	"\234\232\007\323^A\177\214\247\340|[\3644\336$=\361"
 873      5E417F8C 
 873      A7E07C5B 
 873      F434DE24 
 873      3DF1
 874 1fe8 44761F8C 		.ascii	"Dv\037\214%\346\365\317\226\221\013{\346\346\371\013"
 874      25E6F5CF 
 874      96910B7B 
 874      E6E6F90B 
 875 1ff8 9062BDF9 		.ascii	"\220b\275\371\205>\377\023"
 875      853EFF13 
 876 2000 7FE827DF 		.ascii	"\177\350'\337\265\351\375h\317\202\276r\211|\237O\346"
 876      B5E9FD68 
 876      CF82BE72 
 876      897C9F4F 
 876      E6
 877 2011 F51A5098 		.ascii	"\365\032P\230\223\256G3\364h\246\036\315\322\243]\025"
 877      93AE4733 
 877      F468A61E 
 877      CDD2A35D 
 877      15
 878 2022 31737B66 		.ascii	"1s{f\370\013`Y(\226\247\307p2b8\2311\234\254\030N,\362"
 878      F80B6059 
 878      2896A7C7 
 878      70326238 
 878      99319CAC 
 879 203a 03319C6E 		.ascii	"\0031\234n\262\364=\263e\351S\210D\017\371\345|\035"
 879      B2F43DB3 
 879      65E95388 
 879      440FF9E5 
 879      7C1D
 880 204c 0B737233 		.ascii	"\013sr3\374\217\344\377\301\017\221\207(\0264\237\\"
 880      FC8FE4FF 
 880      C10F9187 
 880      2816349F 
 880      5C
 881 205d 65396F47 		.ascii	"e9oGVa~\037?8\020\362eiS\220\257h%\011n2\265X\226\026"
 881      56617E1F 
ARM GAS  /tmp/ccGGEubi.s 			page 71


 881      3F3810F2 
 881      65695390 
 881      AF682509 
 882 2077 93454CC9 		.ascii	"\223EL\311\311\364e\370{\365\247o\362\265\233L:%SMI"
 882      C9F465F8 
 882      7BF5A76F 
 882      F2B59B4C 
 882      3A25534D 
 883 208c 2AC85374 		.ascii	"*\310StKb2vr?\350\224\205\031T\\\346\267EC<\340W$nK"
 883      4B623276 
 883      723FE894 
 883      8519545C 
 883      E6B74543 
 884 20a6 8C880B12 		.ascii	"\214\210\013\022\274m\377xa\037\177\357\002\335\254"
 884      BC6DFF78 
 884      611F7FEF 
 884      02DDAC
 885 20b5 B47E1E54 		.ascii	"\264~\036T\252\310\316y\\\023\372\001\255Z]\347\231"
 885      AAC8CE79 
 885      5C13FA01 
 885      AD5A5DE7 
 885      99
 886 20c6 31B6CB8C 		.ascii	"1\266\313\214\261]f\214\3552cl\227\311\330.Y\021\315"
 886      B15D668C 
 886      ED32636C 
 886      97C9D82E 
 886      5911CD
 887 20d9 98FA400C 		.ascii	"\230\372@\014\247[\014\347AJ\015\3354\375e\321\312\314"
 887      A75B0CE7 
 887      414A0DDD 
 887      34FD65D1 
 887      CACC
 888 20eb 529599D8 		.ascii	"R\225\231\330;\257\237\326(\271\352\366\306\216\357"
 888      3BAF9FD6 
 888      28B9EAF6 
 888      C68EEF
 889 20fa C68C95CA 		.ascii	"\306\214\225\312]o;\253C\371\361\255\24007+3\355\321"
 889      5D6F3BAB 
 889      43F9F1AD 
 889      A030372B 
 889      33EDD1
 890 210d 47B3D340 		.ascii	"G\263\323@wC2\344\336O\206}\262\264\326n\340I\316\227"
 890      774332E4 
 890      DE4F867D 
 890      B2B4D66E 
 890      E049CE97 
 891 2121 9F0121D3 		.ascii	"\237\001!\323]\000c\244;;\247W\276\000\003o\257>0\336"
 891      5D0063A4 
 891      3B3BA757 
 891      BE00036F 
 891      AF3E30DE 
 892 2135 F972F333 		.ascii	"\371r\3633\220f\272}\276^0t?V\350\312+\360\271z\346"
 892      9066BA7D 
 892      BE5E3074 
 892      3F56E8CA 
 892      2BF0B97A 
 893 214a E7BB6038 		.ascii	"\347\273`8w?\222]\010\3033)\225\3333_x\\.\221\005y\007"
ARM GAS  /tmp/ccGGEubi.s 			page 72


 893      773F925D 
 893      08C33329 
 893      95DB335F 
 893      785C2E91 
 894 2161 E4FBFE1E 		.ascii	"\344\373\376\036A\375ee\344\231\266\243\034\363\017"
 894      41FD6565 
 894      E499B6A3 
 894      1CF30F
 895 2170 0E44607D 		.ascii	"\016D`}\206k\351\207o\362\351\025\227)\000y\033>\220"
 895      866BE987 
 895      6FF2E915 
 895      97290079 
 895      1B3E90
 896 2183 C8EB1858 		.ascii	"\310\353\030X\304W\372E\342\217\267\322\\\250\014\231"
 896      C457FA45 
 896      E28FB7D2 
 896      5CA80C99 
 897 2193 6E727F07 		.ascii	"nr\177\007\246\300?%\203\177\210XV\025\370_\242\274"
 897      A6C03F25 
 897      837F8858 
 897      5615F85F 
 897      A2BC
 898 21a5 BB08     		.ascii	"\273\010"
 899              		.text
 900              		.section	.gnu.lto_.symtab.8380a148b7fbfb9c,"",%progbits
 901 0000 63685379 		.ascii	"chSysInit\000\000\000\000\000\000\000\000\000\000\000"
 901      73496E69 
 901      74000000 
 901      00000000 
 901      00000000 
 902 0014 00810100 		.ascii	"\000\201\001\000\000chSysHalt\000\000\000\000\000\000"
 902      00636853 
 902      79734861 
 902      6C740000 
 902      00000000 
 903 0028 00000000 		.ascii	"\000\000\000\000\000\000\204\001\000\000chSysTimerH"
 903      00008401 
 903      00006368 
 903      53797354 
 903      696D6572 
 904 003d 616E646C 		.ascii	"andlerI\000\000\000\000\000\000\000\000\000\000\000"
 904      65724900 
 904      00000000 
 904      00000000 
 904      0000
 905 004f 008B0100 		.ascii	"\000\213\001\000\000chSysGetStatusAndLockX\000\000\000"
 905      00636853 
 905      79734765 
 905      74537461 
 905      74757341 
 906 006d 00000000 		.ascii	"\000\000\000\000\000\000\000\000\000\216\001\000\000"
 906      00000000 
 906      008E0100 
 906      00
 907 007a 63685379 		.ascii	"chSysRestoreStatusX\000\000\000\000\000\000\000\000"
 907      73526573 
 907      746F7265 
ARM GAS  /tmp/ccGGEubi.s 			page 73


 907      53746174 
 907      75735800 
 908 0095 00000000 		.ascii	"\000\000\000\000\222\001\000\000chSysIsCounterWithi"
 908      92010000 
 908      63685379 
 908      73497343 
 908      6F756E74 
 909 00b0 6E580000 		.ascii	"nX\000\000\000\000\000\000\000\000\000\000\000\000\231"
 909      00000000 
 909      00000000 
 909      000099
 910 00bf 01000063 		.ascii	"\001\000\000chSysPolledDelayX\000\000\000\000\000\000"
 910      68537973 
 910      506F6C6C 
 910      65644465 
 910      6C617958 
 911 00d9 00000000 		.ascii	"\000\000\000\000\000\000\254\001\000\000ch\000\000\002"
 911      0000AC01 
 911      00006368 
 911      000002
 912 00e8 00000000 		.ascii	"\000\000\000\000\000\000\000\000\000\343\001\000\000"
 912      00000000 
 912      00E30100 
 912      00
 913 00f5 63685F64 		.ascii	"ch_debug\000\000\002\000\000\000\000\000\000\000\000"
 913      65627567 
 913      00000200 
 913      00000000 
 913      000000
 914 0108 00340200 		.ascii	"\0004\002\000\000stSetAlarm\000\000\002\000\000\000"
 914      00737453 
 914      6574416C 
 914      61726D00 
 914      00020000 
 915 011d 00000000 		.ascii	"\000\000\000\000\000\000\263\001\000\000stStopAlarm"
 915      0000B301 
 915      00007374 
 915      53746F70 
 915      416C6172 
 916 0132 00000200 		.ascii	"\000\000\002\000\000\000\000\000\000\000\000\000\272"
 916      00000000 
 916      00000000 
 916      BA
 917 013f 01000063 		.ascii	"\001\000\000chSchRescheduleS\000\000\002\000\000\000"
 917      68536368 
 917      52657363 
 917      68656475 
 917      6C655300 
 918 0158 00000000 		.ascii	"\000\000\000\000\000\000\274\001\000\000chThdCreate"
 918      0000BC01 
 918      00006368 
 918      54686443 
 918      72656174 
 919 016d 53746174 		.ascii	"Static\000\000\002\000\000\000\000\000\000\000\000\000"
 919      69630000 
 919      02000000 
 919      00000000 
ARM GAS  /tmp/ccGGEubi.s 			page 74


 919      0000
 920 017f BE010000 		.ascii	"\276\001\000\000_thread_init\000\000\002\000\000\000"
 920      5F746872 
 920      6561645F 
 920      696E6974 
 920      00000200 
 921 0195 00000000 		.ascii	"\000\000\000\000\000\000\317\001\000\000_heap_init\000"
 921      0000CF01 
 921      00005F68 
 921      6561705F 
 921      696E6974 
 922 01aa 00020000 		.ascii	"\000\002\000\000\000\000\000\000\000\000\000\324\001"
 922      00000000 
 922      000000D4 
 922      01
 923 01b7 00005F63 		.ascii	"\000\000_core_init\000\000\002\000\000\000\000\000\000"
 923      6F72655F 
 923      696E6974 
 923      00000200 
 923      00000000 
 924 01cc 000000D6 		.ascii	"\000\000\000\326\001\000\000_tm_init\000\000\002\000"
 924      0100005F 
 924      746D5F69 
 924      6E697400 
 924      000200
 925 01df 00000000 		.ascii	"\000\000\000\000\000\000\000\000\330\001\000\000_vt"
 925      00000000 
 925      D8010000 
 925      5F7674
 926 01ee 5F696E69 		.ascii	"_init\000\000\002\000\000\000\000\000\000\000\000\000"
 926      74000002 
 926      00000000 
 926      00000000 
 926      00
 927 01ff DA010000 		.ascii	"\332\001\000\000_scheduler_init\000\000\002\000\000"
 927      5F736368 
 927      6564756C 
 927      65725F69 
 927      6E697400 
 928 0217 00000000 		.ascii	"\000\000\000\000\000\000\000\334\001\000\000"
 928      000000DC 
 928      010000
 929              		.text
 930              		.section	.gnu.lto_.opts,"",%progbits
 931 0000 272D6D63 		.ascii	"'-mcpu=cortex-m4' '-mfloat-abi=hard' '-mfpu=fpv4-sp"
 931      70753D63 
 931      6F727465 
 931      782D6D34 
 931      2720272D 
 932 0033 2D643136 		.ascii	"-d16' '-mno-thumb-interwork' '-mthumb' '-O2' '-fomi"
 932      2720272D 
 932      6D6E6F2D 
 932      7468756D 
 932      622D696E 
 933 0066 742D6672 		.ascii	"t-frame-pointer' '-falign-functions=16' '-ffunction"
 933      616D652D 
 933      706F696E 
ARM GAS  /tmp/ccGGEubi.s 			page 75


 933      74657227 
 933      20272D66 
 934 0099 2D736563 		.ascii	"-sections' '-fdata-sections' '-fno-common' '-flto' "
 934      74696F6E 
 934      73272027 
 934      2D666461 
 934      74612D73 
 935 00cc 272D6673 		.ascii	"'-fsingle-precision-constant'\000"
 935      696E676C 
 935      652D7072 
 935      65636973 
 935      696F6E2D 
 936              		.text
 937              		.section	.text._idle_thread,"ax",%progbits
 938              		.align	2
 939              		.p2align 4,,15
 940              		.thumb
 941              		.thumb_func
 942              		.type	_idle_thread, %function
 943              	_idle_thread:
 944              		@ Volatile: function does not return.
 945              		@ args = 0, pretend = 0, frame = 0
 946              		@ frame_needed = 0, uses_anonymous_args = 0
 947              		@ link register save eliminated.
 948 0000 024B     		ldr	r3, .L4
 949 0002 034A     		ldr	r2, .L4+4
 950 0004 9B69     		ldr	r3, [r3, #24]
 951 0006 9A61     		str	r2, [r3, #24]
 952              	.L2:
 953 0008 FEE7     		b	.L2
 954              	.L5:
 955 000a 00BF     		.align	2
 956              	.L4:
 957 000c 00000000 		.word	ch
 958 0010 00000000 		.word	.LC0
 959              		.size	_idle_thread, .-_idle_thread
 960 0014 AFF30080 		.section	.text.chSysInit,"ax",%progbits
 960      AFF30080 
 960      AFF30080 
 961              		.align	2
 962              		.p2align 4,,15
 963              		.global	chSysInit
 964              		.thumb
 965              		.thumb_func
 966              		.type	chSysInit, %function
 967              	chSysInit:
 968              		@ args = 0, pretend = 0, frame = 0
 969              		@ frame_needed = 0, uses_anonymous_args = 0
 970 0000 1D4B     		ldr	r3, .L7
 971 0002 1E4A     		ldr	r2, .L7+4
 972 0004 1E48     		ldr	r0, .L7+8
 973 0006 1F49     		ldr	r1, .L7+12
 974 0008 70B5     		push	{r4, r5, r6, lr}
 975 000a 0024     		movs	r4, #0
 976 000c 9C60     		str	r4, [r3, #8]
 977 000e DE68     		ldr	r6, [r3, #12]
 978 0010 4FF6FF05 		movw	r5, #63743
ARM GAS  /tmp/ccGGEubi.s 			page 76


 979 0014 3540     		ands	r5, r5, r6
 980 0016 2A43     		orrs	r2, r2, r5
 981 0018 DA60     		str	r2, [r3, #12]
 982 001a C268     		ldr	r2, [r0, #12]
 983 001c 42F08072 		orr	r2, r2, #16777216
 984 0020 C260     		str	r2, [r0, #12]
 985 0022 0D68     		ldr	r5, [r1]
 986 0024 2022     		movs	r2, #32
 987 0026 1020     		movs	r0, #16
 988 0028 45F00105 		orr	r5, r5, #1
 989 002c 0D60     		str	r5, [r1]
 990 002e 82B0     		sub	sp, sp, #8
 991 0030 D877     		strb	r0, [r3, #31]
 992 0032 83F82220 		strb	r2, [r3, #34]
 993 0036 FFF7FEFF 		bl	_scheduler_init
 994 003a FFF7FEFF 		bl	_vt_init
 995 003e FFF7FEFF 		bl	_tm_init
 996 0042 FFF7FEFF 		bl	_core_init
 997 0046 FFF7FEFF 		bl	_heap_init
 998 004a 4021     		movs	r1, #64
 999 004c 0E48     		ldr	r0, .L7+16
 1000 004e FFF7FEFF 		bl	_thread_init
 1001 0052 0E4B     		ldr	r3, .L7+20
 1002 0054 0122     		movs	r2, #1
 1003 0056 9861     		str	r0, [r3, #24]
 1004 0058 0277     		strb	r2, [r0, #28]
 1005              	@ 546 "/home/cody/dev/chibios/trunk/os/ext/CMSIS/include/core_cmFunc.h" 1
 1006 005a 84F31188 		MSR basepri, r4
 1007              	@ 0 "" 2
 1008              	@ 331 "/home/cody/dev/chibios/trunk/os/ext/CMSIS/include/core_cmFunc.h" 1
 1009 005e 62B6     		cpsie i
 1010              	@ 0 "" 2
 1011              		.thumb
 1012 0060 9B69     		ldr	r3, [r3, #24]
 1013 0062 0B49     		ldr	r1, .L7+24
 1014 0064 9961     		str	r1, [r3, #24]
 1015 0066 0B48     		ldr	r0, .L7+28
 1016 0068 0094     		str	r4, [sp]
 1017 006a 0B4B     		ldr	r3, .L7+32
 1018 006c 4FF4B071 		mov	r1, #352
 1019 0070 FFF7FEFF 		bl	chThdCreateStatic
 1020 0074 02B0     		add	sp, sp, #8
 1021              		@ sp needed
 1022 0076 70BD     		pop	{r4, r5, r6, pc}
 1023              	.L8:
 1024              		.align	2
 1025              	.L7:
 1026 0078 00ED00E0 		.word	-536810240
 1027 007c 0003FA05 		.word	100270848
 1028 0080 F0ED00E0 		.word	-536810000
 1029 0084 001000E0 		.word	-536866816
 1030 0088 00000000 		.word	.LANCHOR0
 1031 008c 00000000 		.word	ch
 1032 0090 00000000 		.word	ch_debug
 1033 0094 00000000 		.word	.LANCHOR1
 1034 0098 00000000 		.word	_idle_thread
 1035              		.size	chSysInit, .-chSysInit
ARM GAS  /tmp/ccGGEubi.s 			page 77


 1036 009c AFF30080 		.section	.text.chSysHalt,"ax",%progbits
 1037              		.align	2
 1038              		.p2align 4,,15
 1039              		.global	chSysHalt
 1040              		.thumb
 1041              		.thumb_func
 1042              		.type	chSysHalt, %function
 1043              	chSysHalt:
 1044              		@ Volatile: function does not return.
 1045              		@ args = 0, pretend = 0, frame = 0
 1046              		@ frame_needed = 0, uses_anonymous_args = 0
 1047              		@ link register save eliminated.
 1048              	@ 342 "/home/cody/dev/chibios/trunk/os/ext/CMSIS/include/core_cmFunc.h" 1
 1049 0000 72B6     		cpsid i
 1050              	@ 0 "" 2
 1051              		.thumb
 1052 0002 014B     		ldr	r3, .L11
 1053 0004 D862     		str	r0, [r3, #44]
 1054              	.L10:
 1055 0006 FEE7     		b	.L10
 1056              	.L12:
 1057              		.align	2
 1058              	.L11:
 1059 0008 00000000 		.word	ch
 1060              		.size	chSysHalt, .-chSysHalt
 1061 000c AFF30080 		.section	.text.chSysTimerHandlerI,"ax",%progbits
 1062              		.align	2
 1063              		.p2align 4,,15
 1064              		.global	chSysTimerHandlerI
 1065              		.thumb
 1066              		.thumb_func
 1067              		.type	chSysTimerHandlerI, %function
 1068              	chSysTimerHandlerI:
 1069              		@ args = 0, pretend = 0, frame = 0
 1070              		@ frame_needed = 0, uses_anonymous_args = 0
 1071 0000 2DE9F047 		push	{r4, r5, r6, r7, r8, r9, r10, lr}
 1072 0004 1A4C     		ldr	r4, .L21
 1073 0006 4FF08042 		mov	r2, #1073741824
 1074 000a E369     		ldr	r3, [r4, #28]
 1075 000c D2F82490 		ldr	r9, [r2, #36]
 1076 0010 A06A     		ldr	r0, [r4, #40]
 1077 0012 9A68     		ldr	r2, [r3, #8]
 1078 0014 C0EB0905 		rsb	r5, r0, r9
 1079 0018 9542     		cmp	r5, r2
 1080 001a 04F11C06 		add	r6, r4, #28
 1081 001e 1AD3     		bcc	.L14
 1082 0020 A046     		mov	r8, r4
 1083 0022 4FF0000A 		mov	r10, #0
 1084 0026 2027     		movs	r7, #32
 1085 0028 01E0     		b	.L15
 1086              	.L19:
 1087 002a D8F82800 		ldr	r0, [r8, #40]
 1088              	.L15:
 1089 002e 1968     		ldr	r1, [r3]
 1090 0030 D3F80CC0 		ldr	ip, [r3, #12]
 1091 0034 1044     		add	r0, r0, r2
 1092 0036 A062     		str	r0, [r4, #40]
ARM GAS  /tmp/ccGGEubi.s 			page 78


 1093 0038 AD1A     		subs	r5, r5, r2
 1094 003a C3F80CA0 		str	r10, [r3, #12]
 1095 003e 4E60     		str	r6, [r1, #4]
 1096 0040 E161     		str	r1, [r4, #28]
 1097              	@ 546 "/home/cody/dev/chibios/trunk/os/ext/CMSIS/include/core_cmFunc.h" 1
 1098 0042 8AF31188 		MSR basepri, r10
 1099              	@ 0 "" 2
 1100              		.thumb
 1101 0046 1869     		ldr	r0, [r3, #16]
 1102 0048 E047     		blx	ip
 1103              	@ 546 "/home/cody/dev/chibios/trunk/os/ext/CMSIS/include/core_cmFunc.h" 1
 1104 004a 87F31188 		MSR basepri, r7
 1105              	@ 0 "" 2
 1106              		.thumb
 1107 004e E369     		ldr	r3, [r4, #28]
 1108 0050 9A68     		ldr	r2, [r3, #8]
 1109 0052 AA42     		cmp	r2, r5
 1110 0054 E9D9     		bls	.L19
 1111              	.L14:
 1112 0056 B342     		cmp	r3, r6
 1113 0058 05D0     		beq	.L20
 1114 005a 02EB0900 		add	r0, r2, r9
 1115 005e BDE8F047 		pop	{r4, r5, r6, r7, r8, r9, r10, lr}
 1116 0062 FFF7FEBF 		b	stSetAlarm
 1117              	.L20:
 1118 0066 BDE8F047 		pop	{r4, r5, r6, r7, r8, r9, r10, lr}
 1119 006a FFF7FEBF 		b	stStopAlarm
 1120              	.L22:
 1121 006e 00BF     		.align	2
 1122              	.L21:
 1123 0070 00000000 		.word	ch
 1124              		.size	chSysTimerHandlerI, .-chSysTimerHandlerI
 1125 0074 AFF30080 		.section	.text.chSysGetStatusAndLockX,"ax",%progbits
 1125      AFF30080 
 1125      AFF30080 
 1126              		.align	2
 1127              		.p2align 4,,15
 1128              		.global	chSysGetStatusAndLockX
 1129              		.thumb
 1130              		.thumb_func
 1131              		.type	chSysGetStatusAndLockX, %function
 1132              	chSysGetStatusAndLockX:
 1133              		@ args = 0, pretend = 0, frame = 0
 1134              		@ frame_needed = 0, uses_anonymous_args = 0
 1135              		@ link register save eliminated.
 1136              	@ 533 "/home/cody/dev/chibios/trunk/os/ext/CMSIS/include/core_cmFunc.h" 1
 1137 0000 EFF31280 		MRS r0, basepri_max
 1138              	@ 0 "" 2
 1139              		.thumb
 1140 0004 20B9     		cbnz	r0, .L24
 1141              	@ 383 "/home/cody/dev/chibios/trunk/os/ext/CMSIS/include/core_cmFunc.h" 1
 1142 0006 EFF30583 		MRS r3, ipsr
 1143              	@ 0 "" 2
 1144              		.thumb
 1145 000a 2023     		movs	r3, #32
 1146              	@ 546 "/home/cody/dev/chibios/trunk/os/ext/CMSIS/include/core_cmFunc.h" 1
 1147 000c 83F31188 		MSR basepri, r3
ARM GAS  /tmp/ccGGEubi.s 			page 79


 1148              	@ 0 "" 2
 1149              		.thumb
 1150              	.L24:
 1151 0010 7047     		bx	lr
 1152              		.size	chSysGetStatusAndLockX, .-chSysGetStatusAndLockX
 1153 0012 00BFAFF3 		.section	.text.chSysRestoreStatusX,"ax",%progbits
 1153      0080AFF3 
 1153      0080AFF3 
 1153      0080
 1154              		.align	2
 1155              		.p2align 4,,15
 1156              		.global	chSysRestoreStatusX
 1157              		.thumb
 1158              		.thumb_func
 1159              		.type	chSysRestoreStatusX, %function
 1160              	chSysRestoreStatusX:
 1161              		@ args = 0, pretend = 0, frame = 0
 1162              		@ frame_needed = 0, uses_anonymous_args = 0
 1163 0000 10B5     		push	{r4, lr}
 1164 0002 58B9     		cbnz	r0, .L26
 1165              	@ 383 "/home/cody/dev/chibios/trunk/os/ext/CMSIS/include/core_cmFunc.h" 1
 1166 0004 EFF30584 		MRS r4, ipsr
 1167              	@ 0 "" 2
 1168              		.thumb
 1169 0008 C4F30804 		ubfx	r4, r4, #0, #9
 1170 000c 14B1     		cbz	r4, .L28
 1171              	@ 546 "/home/cody/dev/chibios/trunk/os/ext/CMSIS/include/core_cmFunc.h" 1
 1172 000e 80F31188 		MSR basepri, r0
 1173              	@ 0 "" 2
 1174              		.thumb
 1175 0012 10BD     		pop	{r4, pc}
 1176              	.L28:
 1177 0014 FFF7FEFF 		bl	chSchRescheduleS
 1178              	@ 546 "/home/cody/dev/chibios/trunk/os/ext/CMSIS/include/core_cmFunc.h" 1
 1179 0018 84F31188 		MSR basepri, r4
 1180              	@ 0 "" 2
 1181              		.thumb
 1182              	.L26:
 1183 001c 10BD     		pop	{r4, pc}
 1184              		.size	chSysRestoreStatusX, .-chSysRestoreStatusX
 1185 001e 00BF     		.section	.text.chSysIsCounterWithinX,"ax",%progbits
 1186              		.align	2
 1187              		.p2align 4,,15
 1188              		.global	chSysIsCounterWithinX
 1189              		.thumb
 1190              		.thumb_func
 1191              		.type	chSysIsCounterWithinX, %function
 1192              	chSysIsCounterWithinX:
 1193              		@ args = 0, pretend = 0, frame = 0
 1194              		@ frame_needed = 0, uses_anonymous_args = 0
 1195              		@ link register save eliminated.
 1196 0000 8A42     		cmp	r2, r1
 1197 0002 06D9     		bls	.L30
 1198 0004 8142     		cmp	r1, r0
 1199 0006 08D8     		bhi	.L34
 1200              	.L36:
 1201 0008 8242     		cmp	r2, r0
ARM GAS  /tmp/ccGGEubi.s 			page 80


 1202 000a 94BF     		ite	ls
 1203 000c 0020     		movls	r0, #0
 1204 000e 0120     		movhi	r0, #1
 1205 0010 7047     		bx	lr
 1206              	.L30:
 1207 0012 8142     		cmp	r1, r0
 1208 0014 F8D8     		bhi	.L36
 1209 0016 0120     		movs	r0, #1
 1210 0018 7047     		bx	lr
 1211              	.L34:
 1212 001a 0020     		movs	r0, #0
 1213 001c 7047     		bx	lr
 1214              		.size	chSysIsCounterWithinX, .-chSysIsCounterWithinX
 1215 001e 00BF     		.section	.text.chSysPolledDelayX,"ax",%progbits
 1216              		.align	2
 1217              		.p2align 4,,15
 1218              		.global	chSysPolledDelayX
 1219              		.thumb
 1220              		.thumb_func
 1221              		.type	chSysPolledDelayX, %function
 1222              	chSysPolledDelayX:
 1223              		@ args = 0, pretend = 0, frame = 0
 1224              		@ frame_needed = 0, uses_anonymous_args = 0
 1225              		@ link register save eliminated.
 1226 0000 0C49     		ldr	r1, .L48
 1227 0002 4A68     		ldr	r2, [r1, #4]
 1228 0004 1044     		add	r0, r0, r2
 1229              	.L43:
 1230 0006 9042     		cmp	r0, r2
 1231 0008 4B68     		ldr	r3, [r1, #4]
 1232 000a 0CD9     		bls	.L38
 1233 000c 9A42     		cmp	r2, r3
 1234 000e 03D9     		bls	.L46
 1235 0010 0023     		movs	r3, #0
 1236 0012 002B     		cmp	r3, #0
 1237 0014 F7D1     		bne	.L43
 1238              	.L47:
 1239 0016 7047     		bx	lr
 1240              	.L46:
 1241 0018 9842     		cmp	r0, r3
 1242 001a 94BF     		ite	ls
 1243 001c 0023     		movls	r3, #0
 1244 001e 0123     		movhi	r3, #1
 1245 0020 002B     		cmp	r3, #0
 1246 0022 F0D1     		bne	.L43
 1247 0024 F7E7     		b	.L47
 1248              	.L38:
 1249 0026 9A42     		cmp	r2, r3
 1250 0028 F6D8     		bhi	.L46
 1251 002a 0123     		movs	r3, #1
 1252 002c 002B     		cmp	r3, #0
 1253 002e EAD1     		bne	.L43
 1254 0030 F1E7     		b	.L47
 1255              	.L49:
 1256 0032 00BF     		.align	2
 1257              	.L48:
 1258 0034 001000E0 		.word	-536866816
ARM GAS  /tmp/ccGGEubi.s 			page 81


 1259              		.size	chSysPolledDelayX, .-chSysPolledDelayX
 1260 0038 AFF30080 		.section	.bss.mainthread.6316,"aw",%nobits
 1260      AFF30080 
 1261              		.align	2
 1262              		.set	.LANCHOR0,. + 0
 1263              		.type	mainthread.6316, %object
 1264              		.size	mainthread.6316, 68
 1265              	mainthread.6316:
 1266 0000 00000000 		.space	68
 1266      00000000 
 1266      00000000 
 1266      00000000 
 1266      00000000 
 1267              		.section	.rodata.str1.4,"aMS",%progbits,1
 1268              		.align	2
 1269              	.LC0:
 1270 0000 69646C65 		.ascii	"idle\000"
 1270      00
 1271 0005 000000   		.section	.bss._idle_thread_wa,"aw",%nobits
 1272              		.align	3
 1273              		.set	.LANCHOR1,. + 0
 1274              		.type	_idle_thread_wa, %object
 1275              		.size	_idle_thread_wa, 352
 1276              	_idle_thread_wa:
 1277 0000 00000000 		.space	352
 1277      00000000 
 1277      00000000 
 1277      00000000 
 1277      00000000 
 1278              		.comm	__gnu_lto_v1,1,1
 1279              		.ident	"GCC: (GNU Tools for ARM Embedded Processors) 4.8.4 20140526 (release) [ARM/embedded-4_8-br
ARM GAS  /tmp/ccGGEubi.s 			page 82


DEFINED SYMBOLS
                            *ABS*:0000000000000000 chsys.c
     /tmp/ccGGEubi.s:938    .text._idle_thread:0000000000000000 $t
     /tmp/ccGGEubi.s:943    .text._idle_thread:0000000000000000 _idle_thread
     /tmp/ccGGEubi.s:957    .text._idle_thread:000000000000000c $d
     /tmp/ccGGEubi.s:961    .text.chSysInit:0000000000000000 $t
     /tmp/ccGGEubi.s:967    .text.chSysInit:0000000000000000 chSysInit
     /tmp/ccGGEubi.s:1026   .text.chSysInit:0000000000000078 $d
     /tmp/ccGGEubi.s:1037   .text.chSysHalt:0000000000000000 $t
     /tmp/ccGGEubi.s:1043   .text.chSysHalt:0000000000000000 chSysHalt
     /tmp/ccGGEubi.s:1059   .text.chSysHalt:0000000000000008 $d
     /tmp/ccGGEubi.s:1062   .text.chSysTimerHandlerI:0000000000000000 $t
     /tmp/ccGGEubi.s:1068   .text.chSysTimerHandlerI:0000000000000000 chSysTimerHandlerI
     /tmp/ccGGEubi.s:1123   .text.chSysTimerHandlerI:0000000000000070 $d
     /tmp/ccGGEubi.s:1126   .text.chSysGetStatusAndLockX:0000000000000000 $t
     /tmp/ccGGEubi.s:1132   .text.chSysGetStatusAndLockX:0000000000000000 chSysGetStatusAndLockX
     /tmp/ccGGEubi.s:1154   .text.chSysRestoreStatusX:0000000000000000 $t
     /tmp/ccGGEubi.s:1160   .text.chSysRestoreStatusX:0000000000000000 chSysRestoreStatusX
     /tmp/ccGGEubi.s:1186   .text.chSysIsCounterWithinX:0000000000000000 $t
     /tmp/ccGGEubi.s:1192   .text.chSysIsCounterWithinX:0000000000000000 chSysIsCounterWithinX
     /tmp/ccGGEubi.s:1216   .text.chSysPolledDelayX:0000000000000000 $t
     /tmp/ccGGEubi.s:1222   .text.chSysPolledDelayX:0000000000000000 chSysPolledDelayX
     /tmp/ccGGEubi.s:1258   .text.chSysPolledDelayX:0000000000000034 $d
     /tmp/ccGGEubi.s:1261   .bss.mainthread.6316:0000000000000000 $d
     /tmp/ccGGEubi.s:1265   .bss.mainthread.6316:0000000000000000 mainthread.6316
     /tmp/ccGGEubi.s:1268   .rodata.str1.4:0000000000000000 $d
     /tmp/ccGGEubi.s:1272   .bss._idle_thread_wa:0000000000000000 $d
     /tmp/ccGGEubi.s:1276   .bss._idle_thread_wa:0000000000000000 _idle_thread_wa
                            *COM*:0000000000000001 __gnu_lto_v1
     /tmp/ccGGEubi.s:960    .text._idle_thread:0000000000000014 $t
     /tmp/ccGGEubi.s:1036   .text.chSysInit:000000000000009c $t
     /tmp/ccGGEubi.s:1061   .text.chSysHalt:000000000000000c $t
     /tmp/ccGGEubi.s:1125   .text.chSysTimerHandlerI:0000000000000074 $t
     /tmp/ccGGEubi.s:1260   .text.chSysPolledDelayX:0000000000000038 $t

UNDEFINED SYMBOLS
ch
_scheduler_init
_vt_init
_tm_init
_core_init
_heap_init
_thread_init
chThdCreateStatic
ch_debug
stSetAlarm
stStopAlarm
chSchRescheduleS
