ARM GAS  /tmp/ccwwTnjg.s 			page 1


   1              		.syntax unified
   2              		.cpu cortex-m4
   3              		.eabi_attribute 27, 3
   4              		.eabi_attribute 28, 1
   5              		.fpu fpv4-sp-d16
   6              		.eabi_attribute 20, 1
   7              		.eabi_attribute 21, 1
   8              		.eabi_attribute 23, 3
   9              		.eabi_attribute 24, 1
  10              		.eabi_attribute 25, 1
  11              		.eabi_attribute 26, 1
  12              		.eabi_attribute 30, 2
  13              		.eabi_attribute 34, 1
  14              		.eabi_attribute 18, 4
  15              		.thumb
  16              		.file	"chtm.c"
  17              		.section	.gnu.lto_.jmpfuncs.f4563c771293396c,"",%progbits
  18 0000 789C6362 		.ascii	"x\234cb`b\300\006\034\2404+\003###\023#\013\003#\003"
  18      6062C006 
  18      1CA0342B 
  18      03232323 
  18      13230B03 
  19 0016 10B13232 		.ascii	"\020\26122D0f22\374\007\002~\006\0050\033\250\026J'"
  19      44306632 
  19      32FC0702 
  19      7E060530 
  19      1BA8164A 
  20 002b 40E90646 		.ascii	"@\351\006F\020\003\310bef\000\000:\272\011\200"
  20      1003C862 
  20      65660000 
  20      3ABA0980 
  21              		.text
  22              		.section	.gnu.lto_.inline.f4563c771293396c,"",%progbits
  23 0000 789C6D90 		.ascii	"x\234m\220\261\015\3020\020E\377]\234\304\220\010\""
  23      B10DC230 
  23      1045FF5D 
  23      9CC49008 
  23      22
  24 0011 2442A830 		.ascii	"$B\2500\025\0353\244\240\246b\000FAT\010QPQ\323\260"
  24      151D33A4 
  24      A0A66200 
  24      46415408 
  24      515051D3 
  25 0026 03628A88 		.ascii	"\003b\212\210\021\250(\031\001\373\247!\022.\376\331"
  25      11A82819 
  25      01FBA721 
  25      122EFED9 
  26 0036 DF777E5F 		.ascii	"\337w~_V(\376\255L\332\032\003=+\320\344\263D~^\263"
  26      5628FEAD 
  26      4CDA1A03 
  26      3D2BD0E4 
  26      B3447E5E 
  27 004b 59101B40 		.ascii	"Y\020\033@\243\373\004\351aAK1-}\257\037\212\266\324"
  27      A3FB04E9 
  27      61414B31 
  27      2D7DAF1F 
  27      8AB6D4
ARM GAS  /tmp/ccwwTnjg.s 			page 2


  28 005e 9ABA1316 		.ascii	"\232\272\023\026GE^=o\202\374\261R\310;5\012\377\202"
  28      47455E3D 
  28      6F82FCB1 
  28      52C83B35 
  28      0AFF82
  29 0071 095B4BC3 		.ascii	"\011[K\303B\233a\241\324pvt\375\354\313\324J\015$S\025"
  29      429B61A1 
  29      D4707674 
  29      FDECCBD4 
  29      4A0D2453 
  30 0086 739F67D4 		.ascii	"s\237g\324\234\004\311u\326\322\263\020\252\325\030"
  30      9C04C975 
  30      D6D2B310 
  30      AAD518
  31 0095 D518E627 		.ascii	"\325\030\346'I7C\277\334_\004\203\343\246\223\301#-"
  31      493743BF 
  31      DC5F0483 
  31      E3A693C1 
  31      232D
  32 00a7 C136B805 		.ascii	"\3016\270\005\357\212\200t\004;~\305\027\270:\037\331"
  32      EF8A8074 
  32      043B7EC5 
  32      17B83A1F 
  32      D9
  33              		.text
  34              		.section	.gnu.lto_.pureconst.f4563c771293396c,"",%progbits
  35 0000 789C6362 		.ascii	"x\234cb`b\340f\200\000V\006)F)&)\026\011V)\000\004)"
  35      6062E066 
  35      80005606 
  35      29462926 
  35      29160956 
  36 0018 00A1     		.ascii	"\000\241"
  37              		.text
  38              		.section	.gnu.lto_chTMObjectInit.f4563c771293396c,"",%progbits
  39 0000 789C6362 		.ascii	"x\234cb`b@\007\222@<\225\221\201\301\000H32302M8\307"
  39      60624007 
  39      92403C95 
  39      9181C100 
  39      48333233 
  40 0019 C0D0C8C1 		.ascii	"\300\320\310\301\304\310\010b002\32431\326G2\202\325"
  40      C4C80862 
  40      303032D4 
  40      3331D647 
  40      3282D5
  41 002c AE673AF0 		.ascii	"\256g:\360\340\377\377u\023\332\327\377a\234\303\004"
  41      E0FFFF75 
  41      13DAD7FF 
  41      619CC304 
  42 003c 54930B16 		.ascii	"T\223\013\026gehih\230\240\300\300\220\014\346\206\000"
  42      67656869 
  42      6898A0C0 
  42      C0900CE6 
  42      8600
  43 004e 4990DE50 		.ascii	"I\220\336PF&\020\315|\226\241i\307\215O7\230\022\031"
  43      462610CD 
  43      7C96A169 
  43      C78D4F37 
ARM GAS  /tmp/ccwwTnjg.s 			page 3


  43      981219
  44 0061 1732B232 		.ascii	"\0272\2622h3\254j\000\002\336LF\206\331\014\263\030"
  44      6833AC6A 
  44      0002DE4C 
  44      4686D90C 
  44      B318
  45 0073 331919D3 		.ascii	"3\031\031\323\031\231\"\2004\304iI\020\233\030@\"\314"
  45      19992280 
  45      34C46949 
  45      109B1840 
  45      22CC
  46 0085 FF81801F 		.ascii	"\377\201\200\037\310\001\231\360\203x\023\030\021&0"
  46      C80199F0 
  46      83781318 
  46      112630
  47 0094 4075CFF8 		.ascii	"@u\317\370L\264n&L\335;\260\350f\301\256\233\031S\367"
  47      4CB46E26 
  47      4CDD3BB0 
  47      E866C1AE 
  47      9B1953F7 
  48 00a8 0D2CBA59 		.ascii	"\015,\272Y\261\353f\201\353f\0031.24>8\257\014\321\013"
  48      B1EB6681 
  48      EB660331 
  48      2E32343E 
  48      38AF0CD1 
  49 00bd 032140EF 		.ascii	"\003!@\357\001C\025\244CO?#?7U?9?\245R?%\265L?9#3)3"
  49      014315A4 
  49      434F3F23 
  49      3F37553F 
  49      393FA552 
  50 00db BF58BFA4 		.ascii	"\277X\277\244\2504/[\037\310(*\321/.J\006\212\227\344"
  50      A8342F5B 
  50      1FC8282A 
  50      D12F2E4A 
  50      068A97E4 
  51 00ef EA253300 		.ascii	"\352%3\000\000\336\003o\342"
  51      00DE036F 
  51      E2
  52              		.text
  53              		.section	.gnu.lto_chTMStartMeasurementX.f4563c771293396c,"",%progbits
  54 0000 789C8D50 		.ascii	"x\234\215P=H\0031\024~/1\305\305\237\325Mp\024.\243"
  54      3D480331 
  54      147E2F31 
  54      C5C59FD5 
  54      4D70142E 
  55 0015 93833877 		.ascii	"\223\2038w\221\012:I\233\036\275C\256'wg\321\2519)\270"
  55      910A3A49 
  55      9B1EBD43 
  55      AE277767 
  55      D1A93929 
  56 002a DE281544 		.ascii	"\336(\025Dq+\242\270\013\026\007Al\205\352\346t\223"
  56      712BA2B8 
  56      0B160741 
  56      6C85EAE6 
  56      7493
  57 003c 938B8373 		.ascii	"\223\213\203s}\311\251\203\223\037$\357{\311\367}\274"
  57      7DC9A983 
ARM GAS  /tmp/ccwwTnjg.s 			page 4


  57      931F24EF 
  57      7BC9F77D 
  57      BC
  58 004d 840183BF 		.ascii	"\204\001\203\277\230\243%\020\240I\0259 \313\236\000"
  58      98A32510 
  58      A0491539 
  58      20CB9E00 
  59 005d D2498668 		.ascii	"\322I\206h\010 \264\031\2667\321j\257X?\037\217/\237"
  59      0820B419 
  59      B637D16A 
  59      AF583F1F 
  59      8F2F9F
  60 0070 0F6F0778 		.ascii	"\017o\007x\302J\034\003\004\001\276\275\024\320\321"
  60      C24A1C03 
  60      0401BEBD 
  60      14D0D1
  61 007f 3A9B0750 		.ascii	":\233\007P\266\255\320n\002\326\221\231\312\207p\367"
  61      B6ADD06E 
  61      02D69199 
  61      CA8770F7 
  62 008f 7AD37D3B 		.ascii	"z\323};*\375\352\012\322\177\374\374\340\000U<CAV\353"
  62      2AFDEA0A 
  62      D27FFCFC 
  62      E000553C 
  62      434156EB 
  63 00a3 6DA05884 		.ascii	"m\240X\204\236\356\244\371\313\365\375\010\321G<\206"
  63      9EEEA4F9 
  63      CBF5FD08 
  63      D1473C86 
  64 00b3 6E9AE959 		.ascii	"n\232\351Y\037\331\006\265\\\237j=\015\226\332\301j"
  64      1FD906B5 
  64      5C9F6A3D 
  64      0D96DAC1 
  64      6A
  65 00c4 C657C573 		.ascii	"\306W\305s\312 \014\341\340ap1Sd\232$\302\024MI!\344"
  65      CA200CE1 
  65      E0617031 
  65      53649A24 
  65      C2144D49 
  66 00da 98682037 		.ascii	"\230h 7N\361\355,\236\3260\375\010\322\374}\241\360"
  66      4EF1ED2C 
  66      9ED630FD 
  66      08D2FC7D 
  66      A1F0
  67 00ec FDA04202 		.ascii	"\375\240B\002z\200\3718Gza\340J\025\326\367e\335mI\345"
  67      7A80F938 
  67      477A61E0 
  67      4A15D6F7 
  67      65DD6D49 
  68 0101 F9353F8C 		.ascii	"\3715?\214e\022\3556\267%\221(\221q\244\350<\011\034"
  68      6512ED36 
  68      B7259128 
  68      9171A4E8 
  68      3C091C
  69 0114 05CBFF90 		.ascii	"\005\313\377\220\357\204Q\022\313\225\265\362jy\217"
  69      EF845112 
  69      CB95B5F2 
ARM GAS  /tmp/ccwwTnjg.s 			page 5


  69      6A798F
  70 0123 042A8CDC 		.ascii	"\004*\214\334\255\326R\340x\360\005\036\000kT"
  70      ADD652E0 
  70      78F0051E 
  70      006B54
  71              		.text
  72              		.section	.gnu.lto_chTMStopMeasurementX.f4563c771293396c,"",%progbits
  73 0000 789C8D94 		.ascii	"x\234\215\224=hSQ\024\307\317y_\371\376\030\224b\261"
  73      3D685351 
  73      14C7CF79 
  73      5FF9FE18 
  73      9462B1
  74 0013 C5C5C542 		.ascii	"\305\305\305B\036N\235\034\304I\244\213\264\240\223"
  74      1E4E9D1C 
  74      C449A48B 
  74      B4A093
  75 0022 A4697C09 		.ascii	"\244i|\011\222F\222X\024\207\2764\035\032\\2t\010U\332"
  75      92469258 
  75      1487BE34 
  75      1D1A5C32 
  75      740855DA 
  76 0036 6A17A950 		.ascii	"j\027\251PuR$J\220\342\307P\241\330\241\024\241A\260"
  76      7552244A 
  76      90E2C750 
  76      A1D8A114 
  76      A141B0
  77 0049 A39B5044 		.ascii	"\243\233PDl\317\271\367\275|ii.\344\334{\317\275\347"
  77      6CCFB9F7 
  77      BD7C6969 
  77      2EE4DC7B 
  77      CFBDE7
  78 005c 77FEE73C 		.ascii	"w\376\347<n\024P\240{\\\241\337+\015`\222f\364\000*"
  78      6E1450A0 
  78      7B5CA1DF 
  78      2B0D6092 
  78      66F4002A 
  79 0070 952F0045 		.ascii	"\225/\000E\257\242\250\265A\260\375\332\226\011vPEC"
  79      AFA2A8B5 
  79      41B0FDDA 
  79      96097650 
  79      4543
  80 0082 BA354567 		.ascii	"\2725Eg\207\337\340\303\240\356\272\015D^\000\302\264"
  80      87DFE0C3 
  80      A0EEBA0D 
  80      445E00C2 
  80      B4
  81 0093 A26ABA81 		.ascii	"\242j\272\201\323\327Q\320\237+\365\306\301\301\332"
  81      D3D751D0 
  81      9F2BF5C6 
  81      C1C1DA
  82 00a2 9F8FEF1E 		.ascii	"\237\217\357\036\341S\245O\2054\202\206\031\004\203"
  82      E153A54F 
  82      85348286 
  82      190483
  83 00b1 56948EB6 		.ascii	"V\224\216\266^6>6~6\0016A2J\210M\230M\204}Q64t\230\265"
  83      5E363E36 
  83      7E360136 
ARM GAS  /tmp/ccwwTnjg.s 			page 6


  83      41324A88 
  83      4D984D84 
  84 00cc EDCA1980 		.ascii	"\355\312\031\200\204\330\216\222\345\334c\250\360\254"
  84      84D88E92 
  84      E5DC63A8 
  84      F0AC
  85 00da 6EC0FB9D 		.ascii	"n\300\373\235\332\302^\325h\336\223\213\372\203\365"
  85      DAC25ED5 
  85      68DE938B 
  85      FA83F5
  86 00e9 272A401C 		.ascii	"'*@\034\037\243N\241\"\326Bc\010V\355\331b\343\353\313"
  86      1FA34EA1 
  86      22D64263 
  86      0856EDD9 
  86      62E3EBCB 
  87 00fd 0F9B8869 		.ascii	"\017\233\210iT\037\302B\261bG\323\250]\243\255n/\333"
  87      541FC242 
  87      B16247D3 
  87      A85DA3AD 
  87      6E2FDB
  88 0110 7618C452 		.ascii	"v\030\304R\3243\316qq\\\221\333\015\230\331\371\266"
  88      D433CE71 
  88      715C91DB 
  88      0D98D9F9 
  88      B6
  89 0121 3CDF2FA1 		.ascii	"<\337/\241\026\252Cp\216\312b&\215\267\024e0\317f\236"
  89      16AA4370 
  89      8ECA6226 
  89      8DB71465 
  89      30CF669E 
  90 0135 E73EFCB6 		.ascii	"\347>\374\266\347x\345\315\210\354\014\365:Ptf\367\363"
  90      E778E5CD 
  90      88EC0CF5 
  90      3A507466 
  90      F7F3
  91 0147 30787B51 		.ascii	"0x{Q\355*\301^\231\357oU\240\310\012<2[\375\327\251"
  91      ED2AC15E 
  91      99EF6F55 
  91      A0C80A3C 
  91      325BFDD7 
  92 015c 34FA9AD9 		.ascii	"4\372\232\331\374\226, \340\200E\345\317\\\325\245\271"
  92      FC962C20 
  92      E08045E5 
  92      CF5CD5A5 
  92      B9
  93 016d D2CD38AE 		.ascii	"\322\3158\256\012\315^B\360M\037\312\274\227\345\201"
  93      0ACD5E42 
  93      F04D1FCA 
  93      BC97E581 
  94 017d 5343A837 		.ascii	"SC\2507\250\305\225\260\350\375\305\323.\330'\233qd"
  94      A8C595B0 
  94      E8FDC5D3 
  94      2ED8279B 
  94      7164
  95 018f B4D629A9 		.ascii	"\264\326)\251\\ZC7\224\256\032\004p\374\177\233\376"
  95      5C5A4337 
  95      94AE1A04 
ARM GAS  /tmp/ccwwTnjg.s 			page 7


  95      70FC7F9B 
  95      FE
  96 01a0 80385245 		.ascii	"\2008RE\252\317/<\335J{\311e\261\217\225VwO\272\330"
  96      AACF2F3C 
  96      DD4A7BC9 
  96      65B18F95 
  96      56774FBA 
  97 01b5 A044505C 		.ascii	"\240DP\\\360H\202\336\241v\346g\351MSU\310aRW[%\204"
  97      F04882DE 
  97      A176E667 
  97      E94D5355 
  97      C8615257 
  98 01cc 094B47FF 		.ascii	"\011KG\377\266\264\307,D\220:_/\365\271\314\3101\035"
  98      B6B4C72C 
  98      44903A5F 
  98      2FF5B9CC 
  98      C8311D
  99 01df 35DA347E 		.ascii	"5\3324~\202\365\275b\250\255q\221\326\223\037\243\026"
  99      82F5BD62 
  99      A8AD7191 
  99      D6931FA3 
  99      16
 100 01f0 D606556E 		.ascii	"\326\006Un\342\366\322\211\216.\236\357\215o9>Bi\260"
 100      E2F6D289 
 100      8E2E9EEF 
 100      8D6F393E 
 100      4269B0
 101 0203 65AAE2D3 		.ascii	"e\252\342\323\357\016\270\351\242\307\010\365t\012\375"
 101      EF0EB8E9 
 101      A2C708F5 
 101      740AFD
 102 0212 511C6E13 		.ascii	"Q\034n\023\032m\027\252Cy@\010\255~\337\307\336\225"
 102      1A6D17AA 
 102      43794008 
 102      AD7EDFC7 
 102      DE95
 103 0224 7AFEA7D4 		.ascii	"z\376\247\324\020\377\017\233Pl\224\317\312G\344\216"
 103      10FF0F9B 
 103      506C94CF 
 103      CA47E48E 
 104 0234 517A8074 		.ascii	"Qz\200t\306/*f\246\262\231\244\231\310N\3343'\222Sf"
 104      C62F2A66 
 104      A6B299A4 
 104      99C84EDC 
 104      33279253 
 105 0249 22951E4F 		.ascii	"\"\225\036Og\363f!wg\362\226I\213\\\301\314\347\022"
 105      67F36621 
 105      7767F296 
 105      498B5CC1 
 105      CCE712
 106 025c E42F6462 		.ascii	"\344/db\011\270\320\303\365\333\331\\!o^\274:ri\344"
 106      09B8D0C3 
 106      F5DBD95C 
 106      216F5EBC 
 106      3A7269E4 
 107 0270 2E5D4864 		.ascii	".]Hds\311\033S\303\231X\012\016\001.\0309|"
 107      73C91B53 
ARM GAS  /tmp/ccwwTnjg.s 			page 8


 107      C399580A 
 107      0E012E18 
 107      397C
 108              		.text
 109              		.section	.gnu.lto__tm_init.f4563c771293396c,"",%progbits
 110 0000 789CAD92 		.ascii	"x\234\255\222\301K\033Q\020\306\277y\233DkL\332\336"
 110      C14B1B51 
 110      10C6BF79 
 110      9B446B4C 
 110      DADE
 111 0012 DA534B7B 		.ascii	"\332SK{\252\202K\320\376'\026\3541YC|\224\030H\242\240"
 111      AA824BD0 
 111      FE2716EC 
 111      3159437C 
 111      941848A2 
 112 0027 39E44503 		.ascii	"9\344E\003z)\344R\020=\211\010*J\016\366\220\343\322"
 112      7A29E452 
 112      103D8908 
 112      2A4A0EF6 
 112      90E3D2
 113 003a 5BA1517A 		.ascii	"[\241Qz\013=m\351\241`.\245\275\224^\266\363\362v\325"
 113      0B3D6DE9 
 113      A1602EA5 
 113      BD945EB6 
 113      F3F276D5 
 114 004e C8929303 		.ascii	"\310\222\223\003\2733\354\316o\276og\237\200\300\335"
 114      BB33ECCE 
 114      6FBE6F67 
 114      9F80C0DD 
 115 005e 78CAD76B 		.ascii	"x\312\327k\013\230\345L\026H\264.\200\306\270 \322\005"
 115      0B98E54C 
 115      1648B42E 
 115      80C6B820 
 115      D205
 116 0070 087541F5 		.ascii	"\010uA\365\267\244[\351\005\366\225\333\362\016\177"
 116      B7A45BE9 
 116      05F695DB 
 116      F20E7F
 117 007f FE120DE5 		.ascii	"\376\022\015\345\356\250\246\353\373\364L\022\217\315"
 117      EEA8A6EB 
 117      FBF44C12 
 117      8FCD
 118 008d 101CC202 		.ascii	"\020\034\302\002I\"\327d\361dX\250-\\\317\367\277\234"
 118      4922D764 
 118      F16458A8 
 118      2D5CCFF7 
 118      BF9C
 119 009f 7FFCDEA6 		.ascii	"\177\374\336\246\307\351\004$\253\001q4\225j=\317\322"
 119      C7E90424 
 119      AB017134 
 119      956A3DCF 
 119      D2
 120 00b0 3E4F879E 		.ascii	">O\207\236\3011\317w\255\376\206\204\316V\027\033\235"
 120      C131CF77 
 120      ADFE8684 
 120      CE56171B 
 120      9D
ARM GAS  /tmp/ccwwTnjg.s 			page 9


 121 00c1 DE952BB2 		.ascii	"\336\225+\262t@qL\343Dqd$\305\2022))\276\207\335\206"
 121      7440714C 
 121      E3447164 
 121      24C58232 
 121      2929BE87 
 122 00d7 528F2425 		.ascii	"R\217$%j\370\247\266u5V\034L\323f\306\006\026r\204 "
 122      6AF8A7B6 
 122      7535561C 
 122      4CD366C6 
 122      06167284 
 123 00ec 9B42BF89 		.ascii	"\233B\277\211\351b \360\273'\0027\241-\325~\377\012"
 123      E96220F0 
 123      BB270237 
 123      A12DD57E 
 123      FF0A
 124 00fe 30AA8E61 		.ascii	"0\252\216a\214\242\373a\313b\324\270\316\261Kn:\346"
 124      8CA2FB61 
 124      CB62D4B8 
 124      CEB14B6E 
 124      3AE6
 125 0110 A6C144CB 		.ascii	"\246\301D\313\347x\030L\375\313S\263ttc;u\213\263\206"
 125      E778184C 
 125      FDCB53B3 
 125      7474633B 
 125      758BB386 
 126 0124 B9D0C9CE 		.ascii	"\271\320\311\316\237\021L,\232\351D0\343!\023\217fz"
 126      9F114C2C 
 126      9AE94430 
 126      E321138F 
 126      667A
 127 0136 11CC8390 		.ascii	"\021\314\203\220I\0141\023\232\271D\323;\335L\233}\000"
 127      490C3113 
 127      9AB944D3 
 127      3BDD4C9B 
 127      7D00
 128 0148 D77B4E3A 		.ascii	"\327{N:d\316U\015\353\222&\315\204\240KR\312\200g?\222"
 128      64CE550D 
 128      EB9226CD 
 128      84A04B52 
 128      CA80673F 
 129 015d 51A03512 		.ascii	"Q\2405\022d\227\337z}/\370\361\005JLcjx\027\010>\346"
 129      6497DF7A 
 129      7D2FF8F1 
 129      054A4C63 
 129      6A781708 
 130 0173 736BE2BE 		.ascii	"sk\342\276OGA\357\240\213O\375@\336\250\316\341\\m3"
 130      4F4741EF 
 130      A08B4FFD 
 130      40DEA8CE 
 130      E15C6D33 
 131 0187 A33BBEA2 		.ascii	"\243;\276\242\341\265_\206\237eb\236i>\263z!3\366R\251"
 131      E1B55F86 
 131      9F65629E 
 131      693EB37A 
 131      2133F652 
 132 019c 98B79DD2 		.ascii	"\230\267\235\322\342\232\275\230_\265\235%\231\223\245"
 132      E29ABD98 
ARM GAS  /tmp/ccwwTnjg.s 			page 10


 132      5FB59D25 
 132      9993A5
 133 01ab 8A5D2DAF 		.ascii	"\212]-\257,\277\263\271(W\355J\331\341\347\325\342\214"
 133      2CBFB3B9 
 133      2857ED4A 
 133      D9E1E7D5 
 133      E28C
 134 01bd 03512DFE 		.ascii	"\003Q-\376\007~]\330_"
 134      077E5DD8 
 134      5F
 135              		.text
 136              		.section	.gnu.lto_chTMChainMeasurementToX.f4563c771293396c,"",%progbits
 137 0000 789C8D93 		.ascii	"x\234\215\223Mh\023A\024\200\337\233\335\331\3744\177"
 137      4D681341 
 137      1480DF9B 
 137      DDD9FC34 
 137      7F
 138 0011 07A52836 		.ascii	"\007\245(6x\351\305B\026O=y\020O\"\275H\013z\222t\033"
 138      78E9C542 
 138      164F3D79 
 138      104F22BD 
 138      480B7A92 
 139 0027 D345D248 		.ascii	"\323E\322H\022K\305Cg\223\036\354-\227B\250\320*^T\244"
 139      124BC543 
 139      67931EEC 
 139      2D9742A8 
 139      D02A5E54 
 140 003c D19B680E 		.ascii	"\321\233h\016Q\212\370C\305b\205R\204\006\301\036\275"
 140      518AF843 
 140      C5628552 
 140      8406C11E 
 140      BD
 141 004d 09BDD537 		.ascii	"\011\275\3257;\331\346\307Jw!o\347\357}\363\315\333"
 141      3BD9E6C7 
 141      4A77216F 
 141      E7EF7DF3 
 141      CDDB
 142 005f 0C0306FD 		.ascii	"\014\003\006\375\317\025\372\335\323\001f\350\215\001"
 142      CF15FADD 
 142      D30166E8 
 142      8D01
 143 006d 4056FD02 		.ascii	"@V\375\002\340\004\031\323\032I\020a}\313\004\021\321"
 143      E00419D3 
 143      1A491061 
 143      7DCB0411 
 143      D1
 144 007e D050C33A 		.ascii	"\320P\303:\343r l\310\311\010\367\206\015D\331\000\204"
 144      E372206C 
 144      C8C908F7 
 144      860D44D9 
 144      0084
 145 0090 79A6E9DC 		.ascii	"y\246\351\334\300\371\353\350\322\353\254\331:8X\373"
 145      C0F9EBE8 
 145      D2EBACD9 
 145      3A3858FB 
 146 00a0 FA69FD2D 		.ascii	"\372i\375-\326\207\0075\314!p\012\264\223\215\020\244"
 146      D6870735 
ARM GAS  /tmp/ccwwTnjg.s 			page 11


 146      CC21700A 
 146      B4938D10 
 146      A4
 147 00b1 802119C2 		.ascii	"\200!\031\3022\014\310\020\241\300\2422\304d\210\313"
 147      320CC810 
 147      A1C0A232 
 147      C46488CB 
 148 00c1 B1840C44 		.ascii	"\261\204\014D\343\260 D\365,\200\345\322\307)\312m'"
 148      E3B02044 
 148      F52C80E5 
 148      D2C729CA 
 148      6D27
 149 00d3 90C9B7B6 		.ascii	"\220\311\267\266\001\357v\032\313{5\343p\235j4?\177"
 149      01EF761A 
 149      CB7B35E3 
 149      709D6A34 
 149      3F7F
 150 00e5 2F738034 		.ascii	"/s\2004>BN\251nn\026\003#\360L,8\255o/\337o\"\332\250"
 150      3E424EA9 
 150      6E6E1603 
 150      23F04C2C 
 150      38AD6F2F 
 151 00fe 3D8065A7 		.ascii	"=\200e\247*\0226\352\327\250\313\305C!b\3406\335\243"
 151      2A1236EA 
 151      D7A8CBC5 
 151      432162E0 
 151      36DDA3
 152 0111 4CCABC34 		.ascii	"L\312\2744>V\335\015(\177\374\361|)\251\240\022EO\234"
 152      3E56DD0D 
 152      287FFCF1 
 152      7C29A9A0 
 152      12454F9C 
 153 0125 CE44144A 		.ascii	"\316D\024J1\262\250\311\324@;UU#+\373\224\271\263\275"
 153      31B2A8C9 
 153      D4403B55 
 153      55232BFB 
 153      94B9B3BD 
 154 0139 A2F5398A 		.ascii	"\242\3659\2127K\247;\212L\255\016*n\363\317)\033\203"
 154      374BA73B 
 154      8A4CAD0E 
 154      2A6EF3CF 
 154      291B83
 155 014c 524F483D 		.ascii	"ROH=b\363n6\223yO=\255\312\375\312\3154>\241n\026C\204"
 155      62F36E36 
 155      93794F3D 
 155      ADCAFDCA 
 155      CD343EA1 
 156 0164 902B83A8 		.ascii	"\220+\203\250\214/\253\211\266m\324\037\2240Jz\177\345"
 156      8C2FAB89 
 156      B66DD41F 
 156      94304A7A 
 156      7FE5
 157 0176 8C070E8F 		.ascii	"\214\007\016\217\3009u\326\243\263\261Wi\261\262\206"
 157      C03975D6 
 157      A3B3B157 
 157      69B1B286 
 158 0186 5EEA0015 		.ascii	"^\352\000\025\201\000\252\202/\002\375F~\230\004QF\265"
ARM GAS  /tmp/ccwwTnjg.s 			page 12


 158      8100AA82 
 158      2F02FD46 
 158      7E980451 
 158      46B5
 159 0198 DD931E36 		.ascii	"\335\223\0366\242\020\224\027\372/A\353\261*\377\256"
 159      A2109417 
 159      FA2F41EB 
 159      B12AFFAE 
 160 01a8 BC3EB48A 		.ascii	"\274>\264\212\266\231T\275\216j\214\2604\365o\351|\356"
 160      B69954BD 
 160      8E6A8CB0 
 160      34F56FE9 
 160      7CEE
 161 01ba 4204E5F9 		.ascii	"B\004\345\371ju\320c\306\217\251\234\336\345\370\001"
 161      6A75D063 
 161      C68FA99C 
 161      DEE5F801 
 162 01ca D6F79C68 		.ascii	"\326\367\234hW\341\342\235k;A\3734\222\232,\342\366"
 162      57E1E29D 
 162      6B3B41FB 
 162      34929A2C 
 162      E2F6
 163 01dc EA899E2A 		.ascii	"\352\211\236*\236\367\307wO\254P:l\231\232\373\211w"
 163      9EF7C777 
 163      4FAC503A 
 163      6C999AFB 
 163      8977
 164 01ee 87BCED12 		.ascii	"\207\274\355\022\307\210\362^\321_\316h\227h\242[\224"
 164      C788F25E 
 164      D15FCE68 
 164      9768A25B 
 164      94
 165 01ff C3E2902B 		.ascii	"\303\342\220+Z\373\271\217\376M\371Q\246\206{\3217\301"
 165      5AFBB98F 
 165      FE4DF951 
 165      A6867BD1 
 165      37C1
 166 0211 69D587D5 		.ascii	"i\325\207\325e\361\236q\372\203\320\234\2749)s:\237"
 166      65F19E71 
 166      FA83D09C 
 166      BC392973 
 166      3A9F
 167 0223 CB98567E 		.ascii	"\313\230V~\352\2569\225\2315\255i{\322\316\027\315R"
 167      EAAE3995 
 167      9935AD69 
 167      7BD2CE17 
 167      CD52
 168 0235 E1CECC2D 		.ascii	"\341\316\314-\223\032\205\222Y,X4^\312\245,\270\340"
 168      931A8592 
 168      592C5834 
 168      5ECAA52C 
 168      B8E0
 169 0247 63F9ED7C 		.ascii	"c\371\355|\241T4/^\035\27346G\013\254|!scv4\227\232"
 169      A154342F 
 169      5E1DBB34 
 169      36470BAC 
 169      7C217363 
ARM GAS  /tmp/ccwwTnjg.s 			page 13


 170 025f 86BFF0E1 		.ascii	"\206\277\360\341,@"
 170      2C40
 171              		.text
 172              		.section	.gnu.lto_.symbol_nodes.f4563c771293396c,"",%progbits
 173 0000 789C4D8A 		.ascii	"x\234M\212\273\015\2000\024\003m'l\312\036nS2\001\303"
 173      BB0D8030 
 173      14036D27 
 173      6CCA1E6E 
 173      533201C3 
 174 0014 30003BF0 		.ascii	"0\000;\360\015S ^\201\224\2709\237t\2020\342\237N\032"
 174      0D53205E 
 174      8194B839 
 174      9F748230 
 174      E29F4E1A 
 175 0028 9856C09E 		.ascii	"\230V\300\236\013u\321\354\364\246\325tx\030\017:\350"
 175      0B75D1EC 
 175      F4A6D574 
 175      78180F3A 
 175      E8
 176 0039 D44595CE 		.ascii	"\324E\225\316MS&\226\355\015\012{\020\037H\210\037\347"
 176      4D532696 
 176      ED0D0A7B 
 176      101F4888 
 176      1FE7
 177              		.text
 178              		.section	.gnu.lto_.refs.f4563c771293396c,"",%progbits
 179 0000 789C6362 		.ascii	"x\234cb`b\340f\200\000F&\006f&\026FfFf\006\000\001\267"
 179      6062E066 
 179      80004626 
 179      06662616 
 179      46664666 
 180 0018 0024     		.ascii	"\000$"
 181              		.text
 182              		.section	.gnu.lto_.decls.f4563c771293396c,"",%progbits
 183 0000 789CBD5B 		.ascii	"x\234\275[{p\024\307\231\237\231]\355j%\031\210\023"
 183      7B7014C7 
 183      999F995D 
 183      ED6A2519 
 183      8813
 184 0012 3BF8CC95 		.ascii	";\370\314\225\345Tr\345\363\225\255\027\261\341R\261"
 184      E55472E5 
 184      F395AD17 
 184      B1E152B1 
 185 0022 49C92476 		.ascii	"I\311$v\305\330\024\340;\256\352\2526\303j@\233hwu\263"
 185      C5D814E0 
 185      3BAEEAAA 
 185      36C36A40 
 185      9B687775 
 186 0037 B33CFECA 		.ascii	"\263<\376\312\210\20706 !\300\274\221dL\014\006\307"
 186      88873036 
 186      2021C0BC 
 186      91644C0C 
 186      06C7
 187 0049 080C06F1 		.ascii	"\010\014\006\361\320\030\033$\213X/\204\002v@K0.p\260"
 187      D0181B24 
 187      8B582F84 
 187      0276404B 
ARM GAS  /tmp/ccwwTnjg.s 			page 14


 187      302E70B0 
 188 005d 0189F74B 		.ascii	"\001\211\367K\327\375\315c\247ggV3\033\222\251\355o"
 188      D7FDCD63 
 188      A7676756 
 188      331B92A9 
 188      ED6F
 189 006f E7D1FDEB 		.ascii	"\347\321\375\353\357\325\335_w\3170\024C\2251\0245\200"
 189      EFD5DD5F 
 189      77CF3014 
 189      43953114 
 189      3580
 190 0081 0E690C45 		.ascii	"\016i\014E\225{)\312CQ\324s(\241\333\024\272\244|\224"
 190      957B29CA 
 190      4351D473 
 190      28A1DB14 
 190      BAA47C94 
 191 0095 7C64A054 		.ascii	"|d\240T\217R\033J\335(\235@\351$J4J\347(\362\250W\312"
 191      8F521B4A 
 191      DD289D40 
 191      E9244A34 
 191      4AE728F2 
 192 00ac 6E456923 		.ascii	"nEi#J\357(\327{Q\222\024L\214\267\005\245](\355F\251"
 192      4AEF28D7 
 192      7B519214 
 192      4C8CB705 
 192      A55D28ED 
 193 00c2 11A52605 		.ascii	"\021\245&\005\257^\371?b\300\305u{\024\334>\224\241"
 193      AF5EF93F 
 193      62C0C575 
 193      7B14DC3E 
 193      94A1
 194 00d4 1FA57F67 		.ascii	"\037\245\177g\022u`\236o\3212\036\243\344\177\222\221"
 194      1275609E 
 194      6FD1321E 
 194      A3E47F92 
 194      91
 195 00e5 B1BA0C58 		.ascii	"\261\272\014XX\206\007t|\372\014\230\347\321\377yt\357"
 195      58860774 
 195      7CFA0C98 
 195      E7D1FF79 
 195      74EF
 196 00f7 6946E65B 		.ascii	"iF\346[\255\003\363\237\251\324s\016\245\357h\231\367"
 196      AD03F39F 
 196      A9D4730E 
 196      A5EF6899 
 196      F7
 197 0108 DD0AFFBB 		.ascii	"\335\012\377\273\024\271\\J\035\270\376<F\346\347\317"
 197      14B95C4A 
 197      1DB8FE3C 
 197      46E6E7CF 
 198 0118 26BAC27A 		.ascii	"&\272\302z\034\242\340\343\377\034\035OF\036T\335\375"
 198      1CA2E0E3 
 198      FF1C1D4F 
 198      461E54DD 
 198      FD
 199 0129 2723F3F2 		.ascii	"'#\363\362\266\222W\345\303L\237n\245\016\275\355\314"
 199      B69257E5 
ARM GAS  /tmp/ccwwTnjg.s 			page 15


 199      C34C9F6E 
 199      A50EBDED 
 199      CC
 200 013a 6C866D99 		.ascii	"l\206m\231\245\324\253\332\335L\307*\037\036\235\256"
 200      A5D4ABDA 
 200      DD4CC72A 
 200      1F1E9DAE 
 201 014a D5BAF4B2 		.ascii	"\325\272\364\262\2374\310~\026\2453\206:\037\243\326"
 201      9F34C87E 
 201      16A53386 
 201      3A1FA3D6 
 202 015a 8BF14BF1 		.ascii	"\213\361K\361y}\333\036\021\353fK\003\003M\"M=L-\027"
 202      797DDB1E 
 202      11EB664B 
 202      03034D22 
 202      4D3D4C2D 
 203 016f D1515729 		.ascii	"\321QW)\212\264\300\322\317=DM\246Yz\210\217\312\205"
 203      8AB4C0D2 
 203      CF3D444D 
 203      A6597A88 
 203      8FCA85
 204 0182 931C1F88 		.ascii	"\223\034\037\210DQ,\3756\3750\234\271\240\002*\233z"
 204      44512CFD 
 204      36FD309C 
 204      B9A0022A 
 204      9B7A
 205 0194 431467E3 		.ascii	"C\024g\343\202/\266\014y\220Z\202Qr_?\203xT\000$ZE\030"
 205      822FB60C 
 205      79905A82 
 205      51725F3F 
 205      83785400 
 206 01ac 8EB2FF84 		.ascii	"\216\262\377\204zG\024\253\343G\357.t\211b&Ko\244\037"
 206      7A4714AB 
 206      E347EF2E 
 206      74896226 
 206      4B6FA41F 
 207 01c0 44382534 		.ascii	"D8%4\365$\265\031\225\254\026\305\277\376\214\246\222"
 207      F524B519 
 207      95AC16C5 
 207      BFFE8CA6 
 207      92
 208 01d1 8FC19131 		.ascii	"\217\301\2211o\233\021\032Ko\242\237\224\353\021\245"
 208      6F9B111A 
 208      4B6FA29F 
 208      94EB11A5 
 209 01e1 1D877344 		.ascii	"\035\207sD\267|\237R\236\230\034\217SuH\006i\347\341"
 209      B77C9F52 
 209      9E981C8F 
 209      53754806 
 209      69E7E1
 210 01f4 B5482307 		.ascii	"\265H#\007i\037\365zB$\312T\021\212\030w\3477w\322s"
 210      691FF57A 
 210      4224CA54 
 210      118A1877 
 210      E73777D2 
 211 0209 90CA587A 		.ascii	"\220\312Xz+*\306P\3154MTc\037\252i\361\241\217\351\331"
 211      2B2AC650 
ARM GAS  /tmp/ccwwTnjg.s 			page 16


 211      CD344D54 
 211      631FAA69 
 211      F1A18FE9 
 212 021e 00F50140 		.ascii	"\000\365\001@]I\033\352v\325\276\321\240\334\355\000"
 212      5D491BEA 
 212      76D5BED1 
 212      A0DCED00 
 213 022e B49D2181 		.ascii	"\264\235!\201X\332\353\323K\017\327j\006\214\006\217"
 213      58DAEBD3 
 213      4B0FD76A 
 213      068C068F 
 214 023e 9513DC49 		.ascii	"\225\023\334I\015\245\376\301\331\031j?\360\210\315"
 214      0DA5FEC1 
 214      D9196A3F 
 214      F088CD
 215 024d 64269772 		.ascii	"d&\227r*\037J\006\302t\361\256o\027\202\351T;\034t\214"
 215      2A1F4A06 
 215      C274F1AE 
 215      6F1782E9 
 215      543B1C74 
 216 0262 974BB8C2 		.ascii	"\227K\270\302\356\3039\325\254\012\326b\007,\323\222"
 216      EEC339D5 
 216      AC0AD662 
 216      072CD392 
 217 0272 39A91183 		.ascii	"9\251\021\2039p\252\346c\252S\355\205\372?O2 \366\020"
 217      3970AAE6 
 217      63AA53ED 
 217      85FA3F4F 
 217      3220F610 
 218 0286 C73AEE76 		.ascii	"\307:\356v,\006\241\223\370\321\233\013G\257\026\245"
 218      2C06A193 
 218      F8D19B0B 
 218      47AF16A5 
 219 0296 95F98A28 		.ascii	"\225\371\212(R\245\370:]\3210B\313>F\017\242\011\243"
 219      52A5F83A 
 219      5DD13042 
 219      CB3E460F 
 219      A209A3
 220 02a9 B5100984 		.ascii	"\265\020\011\204\351aL\335\332\026X\323\342v\265\215"
 220      E9614CDD 
 220      DA1658D3 
 220      E276B58D 
 221 02b9 7C0260BD 		.ascii	"|\002`\275\351\203\325\335n\037\201\273\206\303\000"
 221      E983D5DD 
 221      6E1F81BB 
 221      86C300
 222 02c8 742E49C5 		.ascii	"t.I\305>\203\206}\244\206}\276\304\311\200z\220\035"
 222      3E83867D 
 222      A4867DBE 
 222      C4C9807A 
 222      901D
 223 02da D73FB40C 		.ascii	"\327?\264\014C\365\033\315I\010\251\234\0163\361J\263"
 223      43F51BCD 
 223      4908A99C 
 223      0E33F14A 
 223      B3
 224 02eb 43DF75B2 		.ascii	"C\337u\262\364{\364O\020\335B?\216\350.\240\273\201"
ARM GAS  /tmp/ccwwTnjg.s 			page 17


 224      F47BF44F 
 224      10DD423F 
 224      8EE82EA0 
 224      BB81
 225 02fd 36026D42 		.ascii	"6\002mBT;\254F\211w\350\354\004\366k.-?C\3353\250\372"
 225      543BAC46 
 225      8977E8EC 
 225      04F66B2E 
 225      2D3F43DD 
 226 0314 C7D40651 		.ascii	"\307\324\006Q\254A\303QK\306*Qr\313E\031j\221\013g\253"
 226      AC41C351 
 226      4BC62A51 
 226      72CB4519 
 226      6A910B67 
 227 0329 A71F33AD 		.ascii	"\247\0373\255B\253\340\337\250\215x\\X$\316\033F\303"
 227      42ABE0DF 
 227      A88D785C 
 227      5824CE1B 
 227      46C3
 228 033b B04529A5 		.ascii	"\260E)\245\010\341ZiF\177C\036\001\245\243\315U\352"
 228      08E15A69 
 228      467F431E 
 228      01A5A3CD 
 228      55EA
 229 034d 08384619 		.ascii	"\0108F\031\330\030j\211K\317\036\014r\014\365\256\213"
 229      D8186A89 
 229      4BCF1E0C 
 229      720CF5AE 
 229      8B
 230 035e D6332BF6 		.ascii	"\3263+\366s/\312\034\260\364\237\0204K\267\331\344\263"
 230      732FCA1C 
 230      B0F49F10 
 230      344BB7D9 
 230      E4B3
 231 0370 491C3F5C 		.ascii	"I\034?\\c\263\315\310f\273)\233w\232s\252+\342\003\003"
 231      63B3CDC8 
 231      66BB299B 
 231      779A73AA 
 231      2BE20303 
 232 0384 B5B92A8F 		.ascii	"\265\271*\217\333\222yd\351N\265\260\302\343e#\217\335"
 232      DB927964 
 232      E94EB5B0 
 232      C2E36523 
 232      8FDD
 233 0396 E9F0D86D 		.ascii	"\351\360\330m\344\361X2\217uqiO\345\021\032\325yg`\300"
 233      E4F15832 
 233      8F757169 
 233      4FE5111A 
 233      D5796760 
 234 03ab E52094F8 		.ascii	"\345 \224\370B\011%\022\036\302P\207\\\244{hl\211\233"
 234      42092512 
 234      1EC25087 
 234      5CA47B68 
 234      6C899B
 235 03be 4497C6D6 		.ascii	"D\227\306\326\011#[_\232\262\325\324\252\263\260}\276"
 235      09235B5F 
 235      9AB2D5D4 
ARM GAS  /tmp/ccwwTnjg.s 			page 18


 235      AAB3B07D 
 235      BE
 236 03cf 4E91218E 		.ascii	"N\221!\216\254 \342\202Jr\3536;6\271\256\332\204\241"
 236      AC20E282 
 236      4A72EB36 
 236      3B36B9AE 
 236      DA84A1
 237 03e2 BE86FC27 		.ascii	"\276\206\374'S\333D.&u\264\346T\323j\301\277\331)\250"
 237      53DB442E 
 237      2675B4E6 
 237      54D36AC1 
 237      BFD929A8 
 238 03f6 6A0D6960 		.ascii	"j\015i`\350\033\277\321\324v\322\250\266\323\244\332"
 238      E81BBFD1 
 238      D476D2A8 
 238      B6D3A4DA 
 239 0406 7E44D58B 		.ascii	"~D\325\213\361\352xg\357\300!\272F\254kA\000\250\267"
 239      F1EA7867 
 239      EFC021BA 
 239      46AC6B41 
 239      00A8B7
 240 0419 794C0DBE 		.ascii	"yL\015\276t\003W\235K\255u$\245\365\317k\316\304\377"
 240      7403579D 
 240      4BAD7524 
 240      A5F5CF6B 
 240      CEC4FF
 241 042c B5511487 		.ascii	"\265Q\024\207\261\364y\010\353N\271I[\016\212\303P\337"
 241      B1F47908 
 241      EB4EB949 
 241      5B0E8AC3 
 241      50DF
 242 043e 40910B86 		.ascii	"@\221\013\2068.\336Y{h\036]\001=\377\005\033\261\234"
 242      382EDE59 
 242      7B681E5D 
 242      013DFF05 
 242      1BB19C
 243 0451 28ADEB59 		.ascii	"(\255\353YK\343\200\300\244\312\270\0266\216\320\263"
 243      4BE380C0 
 243      A4CAB816 
 243      368ED0B3 
 244 0461 7EFC5F0E 		.ascii	"~\374_\016\000\353\227\200\365+\203\263N\3420TE\006"
 244      00EB9780 
 244      F52B83B3 
 244      4EE23054 
 244      4506
 245 0473 2ED29FCC 		.ascii	".\322\237\314z\367\\\205\365~[\254\037\355\262d\335"
 245      7AF75C85 
 245      F57E5BAC 
 245      1FEDB264 
 245      DD
 246 0484 6C50444A 		.ascii	"lPDJ\177\3443\340\374:p^\225a\312y\335\030+\034\206"
 246      7FE433E0 
 246      FC3A705E 
 246      9561CA79 
 246      DD182B1C 
 247 0499 AA8522B7 		.ascii	"\252\205\"\267\2228\357\355\256P8\277e+\200>V\271\016"
 247      9238EFED 
ARM GAS  /tmp/ccwwTnjg.s 			page 19


 247      AE5038BF 
 247      652B803E 
 247      56B90E
 248 04ac A230D339 		.ascii	"\2420\3239\201\336\350n\265\376\027\022r\254>#\015\207"
 248      81DEE86E 
 248      B5FE1712 
 248      72AC3E23 
 248      0D87
 249 04be A87500C4 		.ascii	"\250u\000\304\330f.\2065\014C\355\201\"\263\231$\003"
 249      D8662E86 
 249      350C43ED 
 249      8122B399 
 249      2403
 250 04d0 9C52C5C0 		.ascii	"\234R\305\300\317\006\027\343\266\"\006K\337\203\026"
 250      CF0617E3 
 250      B622064B 
 250      DF8316
 251 04df F789869B 		.ascii	"\367\211\206\233Vp*\335\223\203I\031\254\3251X.\001"
 251      56702ADD 
 251      93834919 
 251      ACD53158 
 251      2E01
 252 04f1 B6B4D9F1 		.ascii	"\266\264\331\361$\245\271M\015\301\336`p\260\323\231"
 252      24A5B94D 
 252      0DC1DE60 
 252      70B0D399 
 253 0501 715FE2C9 		.ascii	"q_\342\311\023v$\261\014\213\261]\316.\241\227\316\021"
 253      137624B1 
 253      0C8BB15D 
 253      CE2EA197 
 253      CE11
 254 0513 5BF25517 		.ascii	"[\362U\027\365XI\302Pq\250\254\312h\333\206\213\035"
 254      F55849C2 
 254      5071A8AC 
 254      CA68DB86 
 254      8B1D
 255 0525 4FAD04E7 		.ascii	"O\255\004\347\257\262e\332\217\216\254\260\347\241\036"
 255      AFB265DA 
 255      8F8EACB0 
 255      E7A11E
 256 0534 B5FA12A8 		.ascii	"\265\372\022\250\376m\017\256~\231\261\372\375\375\347"
 256      FE6D0FAE 
 256      7E99B1FA 
 256      FDFDE7
 257 0543 9E93AB5F 		.ascii	"\236\223\253_f\253\372\336\366e\311\325[\016E\212\375"
 257      66ABFADE 
 257      F665C9D5 
 257      5B0E458A 
 257      FD
 258 0554 1A2E5E7A 		.ascii	"\032.^z\242\026*Y\311`\017\272\3401\232\357\371l}]p"
 258      A2162A59 
 258      C9600FBA 
 258      E0319AEF 
 258      F96C7D5D 
 259 0569 ADCBC050 		.ascii	"\255\313\300PW5\356\323\233]\355\357\227\236\337\274"
 259      5735EED3 
 259      9B5DEDEF 
ARM GAS  /tmp/ccwwTnjg.s 			page 20


 259      979EDFBC 
 260 0579 5D141778 		.ascii	"]\024\027xT\036n:F$\275\270\257\035\232\204\014v\327"
 260      541E6E3A 
 260      4624BDB8 
 260      AF1D9A84 
 260      0C76D7
 261 058c 0E588AF9 		.ascii	"\016X\212\371\325\025=X\205\327)\030\311\3315=\330<"
 261      D5153D58 
 261      85D72918 
 261      C9D9353D 
 261      D83C
 262 059e 3B606631 		.ascii	";`f1\266\002vC\017\266\3001\030\311\331-=\330\";`\303"
 262      B6027643 
 262      0FB6C031 
 262      18C9D92D 
 262      3DD8223B 
 263 05b4 AD39BBA3 		.ascii	"\2559\273\243\007[\342\030\214\344\354\236\036l\271"
 263      075BE218 
 263      8CE4EC9E 
 263      1E6CB9
 264 05c3 1DB05C6B 		.ascii	"\035\260\\k\316\252\273t`\253\034\203\221\234\325\350"
 264      CEAABB74 
 264      60AB1C83 
 264      919CD5E8 
 265 05d3 C1D6D901 		.ascii	"\301\326\331\001{\302\232\263ez\260z\307`$go\351\301"
 265      7BC29AB3 
 265      657AB07A 
 265      C7602467 
 265      6FE9C1
 266 05e6 36DA01CB 		.ascii	"6\332\001\313\267\346l\245\036l\263c0\222\263\325z\260"
 266      B7E66CA5 
 266      1E6CB363 
 266      3092B3D5 
 266      7AB0
 267 05f8 F7ED808D 		.ascii	"\367\355\200\215\262\346l\255\036\254\3011\030\311\331"
 267      B2E66CAD 
 267      1EACC131 
 267      18C9D9
 268 0607 363DD84E 		.ascii	"6=\330N;`c\2549\333\256\007\333\355\030\214\344\354"
 268      3B6063AC 
 268      39DBAE07 
 268      DBED188C 
 268      E4EC
 269 0619 433DD85E 		.ascii	"C=\330^;`/Zs\266K\017v\3001\030\311\331n=\330\307v\300"
 269      3B602F5A 
 269      73B64B0F 
 269      76C03118 
 269      C9D96E3D 
 270 0631 C65B73D6 		.ascii	"\306[s\326\250\007\373\3241\030\311\331>=X\263\035\260"
 270      A807FBD4 
 270      3118C9D9 
 270      3E3D58B3 
 270      1DB0
 271 0643 C9D69C1D 		.ascii	"\311\326\234\035\320\203\035q\014Fr\326\241\007k\267"
 271      D0831D71 
 271      0C4672D6 
 271      A1076BB7 
ARM GAS  /tmp/ccwwTnjg.s 			page 21


 272 0653 03F61B13 		.ascii	"\003\366\033\023\316\264\303\254\034\036\246\2272\332"
 272      CEB4C3AC 
 272      1C1EA697 
 272      32DA
 273 0661 B8CD505D 		.ascii	"\270\315P]^5\300q8FS\011\214\036\257\323\210\214\220"
 273      5E35C071 
 273      38465309 
 273      8C1EAFD3 
 273      888C90
 274 0674 1B45645F 		.ascii	"\033Ed_\327\313\021\231\032\255\376\305\016b\212\001"
 274      D7CB1199 
 274      1AADFEC5 
 274      0E628A01 
 275 0684 7075B32E 		.ascii	"pu\263.\364\375\3121\230\301\2251\030\021:)Ap|\2434"
 275      F4FDCA31 
 275      98C19531 
 275      18113A29 
 275      41707CA3 
 276 0699 7C652278 		.ascii	"|e\"x\313T\261\360\242\215\034\251U\213\"\243e\026\207"
 276      CB54B1F0 
 276      A28D1CA9 
 276      558B22A3 
 276      651687
 277 06ac 0F37CFCB 		.ascii	"\0177\317\313\322\307\030\274\362\325\303\3704.\344"
 277      D2C718BC 
 277      F2D5C3F8 
 277      342EE4
 278 06bb 73F54C5E 		.ascii	"s\365L^z\273\3405\333\242\000\200\324E\255<\341\250"
 278      7ABBE035 
 278      DBA20080 
 278      D445AD3C 
 278      E1A8
 279 06cd DE132EDB 		.ascii	"\336\023.\333QS\212\241\275\267y\355\017\305\270D\353"
 279      51538AA1 
 279      BDB779ED 
 279      0FC5B844 
 279      EB
 280 06de E44DA91C 		.ascii	"\344M\251\034\274\215\361\271:C\370\002f\0107\274\246"
 280      BC8DF1B9 
 280      3A43F802 
 280      660837BC 
 280      A6
 281 06ef EBAA36A0 		.ascii	"\353\2526\240\232\026\277\377\0370\213;\011@\025\231"
 281      9A16BFFF 
 281      1F308B3B 
 281      09401599 
 282 06ff E902DDAE 		.ascii	"\351\002\335\256Z?\012\200\342\000\264\300\000\304\322"
 282      5A3F0A80 
 282      E200B4C0 
 282      00C4D2
 283 070e C6290B4D 		.ascii	"\306)\013MNYh_\342$i\221\365>\346e\250\245\231\006{"
 283      4E59685F 
 283      E2246991 
 283      F53EE665 
 283      A8A59906 
 284 0723 11E20C1A 		.ascii	"\021\342\014\032=\241i\366\335%t\377lQ[X\267c\261\346"
 284      3DA169F6 
ARM GAS  /tmp/ccwwTnjg.s 			page 22


 284      DD2574FF 
 284      6C515B58 
 284      B763B1E6 
 285 0737 3FA9163B 		.ascii	"?\251\026;\013\372Y\223\244\237\223\2143\0051\324\006"
 285      0BFA5993 
 285      A49F938C 
 285      330531D4 
 285      06
 286 0748 C7823C41 		.ascii	"\307\202<A\012R\373i\215sA4\327\373\006\004\331r\037"
 286      0A52FB69 
 286      8D734134 
 286      D7FB0604 
 286      D9721F
 287 075b 04D9E158 		.ascii	"\004\331\341X\220|\235 xfz\265F\356\007\277O\325\244"
 287      907C9D20 
 287      78667AB5 
 287      46EE07BF 
 287      4FD5A4
 288 076e 9E99627E 		.ascii	"\236\231b~.2\337'\246\205\322\211V:W\276=\370j\317\365"
 288      2E32DF27 
 288      A685D289 
 288      563A57BE 
 288      3DF86ACF 
 289 0783 56DD7C5E 		.ascii	"V\335|^\264\267\351\330\256\252\254\017T\326h\326\310"
 289      B4B7E9D8 
 289      AEAAAC0F 
 289      54D668D6 
 289      C8
 290 0794 6C4135B5 		.ascii	"lA5\265}\332\240l\250\\\005()m\250\333\355\037\311\355"
 290      7DDAA06C 
 290      A85C0528 
 290      296DA8DB 
 290      ED1FC9ED 
 291 07a8 F50600B5 		.ascii	"\365\006\000\265$\231\321c\260\242\207\264\"\272\304"
 291      2499D163 
 291      B0A287B4 
 291      22BAC4
 292 07b7 35DD80FD 		.ascii	"5\335\200\375\215\337+w\360\205\227\372\247\227C\243"
 292      8DDF2B77 
 292      F08597FA 
 292      A79743A3 
 293 07c7 31B08F2D 		.ascii	"1\260\217-\350p4N\254"
 293      E870344E 
 293      AC
 294 07d0 6DD4A823 		.ascii	"m\324\250#\251l\244\023\177\027\342li\307\233\352\242"
 294      A96CA413 
 294      7F17E26C 
 294      69C79BEA 
 294      A2
 295 07e1 D4F3782C 		.ascii	"\324\363x,\375\353\337\011\327y\304\371^w\267\352v\025"
 295      FDEBDF09 
 295      D779C4F9 
 295      5E77B7EA 
 295      7615
 296 07f3 2E2CD1F9 		.ascii	".,\321\371$\023\247\265\214t5]I\264\203\241\356\030"
 296      2413A7B5 
 296      8C74355D 
ARM GAS  /tmp/ccwwTnjg.s 			page 23


 296      49B483A1 
 296      EE18
 297 0805 1BBCA339 		.ascii	"\033\274\2439'^\351\274^cs)J[u=7\274\005\026e\346\273"
 297      275EE9BC 
 297      5E637329 
 297      4A5B753D 
 297      37BC0516 
 298 081c F072A5E8 		.ascii	"\360r\245\3503_uM\261\244U\005E\336p%-W~\256.W\342g"
 298      335F754D 
 298      B1A45505 
 298      45DE7025 
 298      2D577EAE 
 299 0834 36D6B488 		.ascii	"6\326\264\210\345J\226\256d\030\0057]\205\0226L0\310"
 299      E54A96AE 
 299      64180537 
 299      5D851236 
 299      4C30C8
 300 0847 D20B5D38 		.ascii	"\322\013]8<Z\344\322m\0002T\255\317\251\362s\365\312"
 300      3C5AE4D2 
 300      6D003254 
 300      ADCFA9F2 
 300      73F5CA
 301 085a 976E1F91 		.ascii	"\227n\037\221\327\273\325\005\354\315F\2741\372\320"
 301      D7BBD505 
 301      ECCD46BC 
 301      31FAD0
 302 0869 5539B59C 		.ascii	"U9\265\234\246\213RM\033\304\234r\263\373\320\016s)"
 302      A68B524D 
 302      1BC49C72 
 302      B3FBD00E 
 302      7329
 303 087b 66D6EB65 		.ascii	"f\326\353e0\331\343\033\035\203\345\022`\373\027\333"
 303      30D9E31B 
 303      1D83E512 
 303      60FB17DB 
 304 088b 5B1F17B5 		.ascii	"[\037\027\265\235\205a\240\341CP\357\012\243\247|\364"
 304      9D8561A0 
 304      E14350EF 
 304      0AA3A77C 
 304      F4
 305 089c C7CEF98A 		.ascii	"\307\316\371\212\247\254\260\341)h\2549\353\023krT="
 305      A7ACB0E1 
 305      2968AC39 
 305      EB136B72 
 305      543D
 306 08ae 0F68A829 		.ascii	"\017h\250)\364l\346'\3522\371\371\317h\200\223\243\373"
 306      F46CE627 
 306      EA32F9F9 
 306      CF688093 
 306      A3FB
 307 08c0 F95906B8 		.ascii	"\371Y\006\270A'\037$\334=\256%\337\231b\344\246(}\271"
 307      41271F24 
 307      DC3DAE25 
 307      DF9962E4 
 307      A6287DB9 
 308 08d4 078FB675 		.ascii	"\007\217\266u\320\014\253\262\214}\222\254\031\235?"
 308      D00CABB2 
ARM GAS  /tmp/ccwwTnjg.s 			page 24


 308      8C7D92AC 
 308      199D3F
 309 08e3 AFD0F9F3 		.ascii	"\257\320\371\363*\360\347\325.\274\255\275\026\350z"
 309      2AF0E7D5 
 309      2EBCADBD 
 309      16E87A
 310 08f2 BD6F5B0D 		.ascii	"\275o[\015\370\265.]\270\276\302\261\334\271\006\353"
 310      F8B52E5D 
 310      B8BEC2B1 
 310      DCB906EB 
 311 0902 5855F396 		.ascii	"XU\363\226\276\232\365Y6|\317z!\006u+\307\226\252#\222"
 311      BE9AF559 
 311      367CCF7A 
 311      2106752B 
 311      C796AA23 
 312 0917 BC0DB0C9 		.ascii	"\274\015\260\3111\"\351\315\227\027\023#\322\016;pc"
 312      3122E9CD 
 312      97171323 
 312      D20E3B70 
 312      63
 313 0928 4C18343B 		.ascii	"L\0304;\364\3338,=\027fe\363\030l\240\371@\027\000]"
 313      F4DB382C 
 313      3D176665 
 313      F3186CA0 
 313      F9401700 
 314 093d 0CB40D68 		.ascii	"\014\264\015h\007\320.\240'\200~\005\364<\320\357\200"
 314      07D02EA0 
 314      27807E05 
 314      F43CD0EF 
 314      80
 315 094e 568289AB 		.ascii	"V\202\211\253\200.\001\272\024\350r\240\033\201\276"
 315      802E01BA 
 315      14E872A0 
 315      1B81BE
 316 095d 6BC701E4 		.ascii	"k\307\001\344\216Vs3\265\317\275\225\356\373KROb\213"
 316      8E567333 
 316      B5CFBD95 
 316      EEFB4B52 
 316      4F628B
 317 0970 88A55F77 		.ascii	"\210\245_w\014f\364(B\223\267tov\334\2017;\356\302{"
 317      0C66F428 
 317      4293B774 
 317      6F76DC81 
 317      373BEEC2 
 318 0985 1C9BC96E 		.ascii	"\034\233\311n|o\226\272}\231^wp\254k\255\342\016\262"
 318      7C6F96BA 
 318      7D995E77 
 318      70AC6BAD 
 318      E20EB2
 319 0998 7B7D62C4 		.ascii	"{}b\304s\324\037\210\322qy\021\006\257\2100T\253c0\322"
 319      73D41F88 
 319      D2717911 
 319      06AF8830 
 319      54AB6330 
 320 09ad 577B6BC8 		.ascii	"W{k\310-\275\016;x)\3265.u\351\3265\216;\006#\231\273"
 320      2DBD0E3B 
 320      7829D635 
ARM GAS  /tmp/ccwwTnjg.s 			page 25


 320      2E75E9D6 
 320      358E3B06 
 321 09c4 A6078BDB 		.ascii	"\246\007\213\333\0013\233\375\233\033\277_g\374\253"
 321      01339BFD 
 321      9B1BBF5F 
 321      67FCAB
 322 09d3 60FC6B60 		.ascii	"`\374k`\374-\340\354\357\003\375\000h\003\320\035\244"
 322      FC2DE0EC 
 322      EF03FD00 
 322      6803D01D 
 322      A4
 323 09e4 537C93A5 		.ascii	"S|\223\245n\307+\225\221\233\336\203\006\302\322N\353"
 323      6EC72B95 
 323      919BDE83 
 323      06C2D24E 
 323      EB
 324 09f5 7D78B3CE 		.ascii	"}x\263\316\034\305U\035#\216C\\\365\021t\350\227\014"
 324      1CC5551D 
 324      238E435C 
 324      F51174E8 
 324      970C
 325 0a07 1DBA8DD1 		.ascii	"\035\272\215\321\2622\033\027iL\212\253z\357\316QF\313"
 325      B2321B17 
 325      694C8AAB 
 325      7AEFCE51 
 325      46CB
 326 0a19 465B71D5 		.ascii	"F[q\325\315*\233\273\331Z\375?\320\313q\356QyW\276\011"
 326      CD2A9BBB 
 326      D95AFD3F 
 326      D0CB71EE 
 326      517957BE 
 327 0a2e E458973D 		.ascii	"\344X\227=\370v6\201\303P\357C\221\203\311r|\253\312"
 327      F8763681 
 327      C350EF43 
 327      9183C972 
 327      7CABCA
 328 0a41 71D0961C 		.ascii	"q\320\226\034{\252T\337?\340\202\025e\0157\275\276\252"
 328      7BAA54DF 
 328      3FE08215 
 328      650D37BD 
 328      BEAA
 329 0a53 51DEED91 		.ascii	"Q\336\355\221\301\016;\006#}\177\177\273\323y\310\232"
 329      C10E3B06 
 329      237D7F7F 
 329      BBD379C8 
 329      9A
 330 0a64 33F13F28 		.ascii	"3\361?(s\326V\210\312\332\014\252Ms\036r\334\216$\326"
 330      73D65688 
 330      CADA0CAA 
 330      4D731E72 
 330      DC8E24D6 
 331 0a78 F10BB2CB 		.ascii	"\361\013\262\313Ee\200%\034\306\376[G\035.\303[G\260"
 331      45658025 
 331      1CC6FE5B 
 331      471D2EC3 
 331      5B47B0
 332 0a8b 8DAB7BC9 		.ascii	"\215\253{\311(\245R\244G7\201\273\265\203YN\033tb\330"
ARM GAS  /tmp/ccwwTnjg.s 			page 26


 332      28A552A4 
 332      473781BB 
 332      B583594E 
 332      1B7462D8 
 333 0a9f 70C65559 		.ascii	"p\306UY\261\321\355\312\266p\251\244g\250\177p\2544"
 333      B1D1EDCA 
 333      B670A9A4 
 333      67A87F70 
 333      AC34
 334 0ab1 C2FC4869 		.ascii	"\302\374HiW6\250Q\011D\021}v\000\355\277\325xP\027\354"
 334      5736A851 
 334      0944117D 
 334      7600EDBF 
 334      D5785017 
 335 0ac6 7D0AC1DE 		.ascii	"}\012\301\336!\350\346\232\201~\006\264\015h\217\235"
 335      21E8E69A 
 335      817E06B4 
 335      0D688F9D 
 336 0ad6 71FF804B 		.ascii	"q\377\200K\367V\343a\027\243\3643\351\265\243;\211v"
 336      F756E361 
 336      17A3F433 
 336      E9B5A33B 
 336      8976
 337 0ae8 C4D22D8E 		.ascii	"\304\322-\216\301\010EJK\264\321\0277\012\226\376\334"
 337      C108454A 
 337      4BB4D117 
 337      370A96FE 
 337      DC
 338 0af9 0E5E8A68 		.ascii	"\016^\212h\\\331j\223[\330M\255GM7\304%\214\322\250"
 338      5CD96A93 
 338      5BD84DAD 
 338      474D37C4 
 338      258CD2A8 
 339 0b0d 33CA3E30 		.ascii	"3\312>0\312~0\301q\240'\200~A\216C\363r\014\343\020"
 339      CA7E30C1 
 339      71A02780 
 339      7E418E43 
 339      F3720CE3 
 340 0b22 D9E99B0D 		.ascii	"\331\351\233\015\213z\375\210\322\276\036$\217\375\311"
 340      8B7AFD88 
 340      D2BE1E24 
 340      8FFDC9
 341 0b31 FD8D11F2 		.ascii	"\375\215\021\362\344\376\024t\336\013s\034O\356\327"
 341      E4FE1474 
 341      DE0B731C 
 341      4FEED7
 342 0b40 4091D3C9 		.ascii	"@\221\323\311\223\373\263\352\313`\247\007\357\274\347"
 342      93FBB3EA 
 342      CB60A707 
 342      EFBCE7
 343 0b4f CE91762E 		.ascii	"\316\221v.\375Cb\020\232\2435\340n\024bY9)\261\231\260"
 343      FD436210 
 343      9AA335E0 
 343      6E146259 
 343      3929B199 
 344 0b64 45E3C3A1 		.ascii	"E\343\303\241\223\232\233\356\264\316tg\300t_\221\206"
 344      939A9BEE 
ARM GAS  /tmp/ccwwTnjg.s 			page 27


 344      B4CE7467 
 344      C0745F91 
 344      86
 345 0b75 DA693494 		.ascii	"\332i4\224Y}\226\333\342\242\364\347\036\331\217\355"
 345      597D96DB 
 345      E2A2F4E7 
 345      1ED98FED 
 346 0b85 9AEAE8CD 		.ascii	"\232\352\350\315G\361[\334\347\301N{\234\332\011\213"
 346      47F15BDC 
 346      E7C14E7B 
 346      9CDA098B 
 347 0b95 74C16023 		.ascii	"t\301`#\251\237\313\225\357\332xS\354\2542\005\226?"
 347      A99FCB95 
 347      EFDA7853 
 347      ECAC3205 
 347      963F
 348 0ba7 14689585 		.ascii	"\024h\225\205\277_\312\276\240S\366\267\240\354\357"
 348      BF5FCABE 
 348      A053F6B7 
 348      A0ECEF
 349 0bb6 486577DA 		.ascii	"Hew\332Q\266\331\342\206E}\272X\361;\210\025/\312\257"
 349      51B6D9E2 
 349      86457DBA 
 349      58F13B88 
 349      152FCAAF 
 350 0bca 80438B3C 		.ascii	"\200C\213<\011\364\034\311A\267\246q5\210!\336\347\304"
 350      09F41CC9 
 350      41B7A671 
 350      358821DE 
 350      E7C4
 351 0bdc A8975DDA 		.ascii	"\250\227]\332+\2460\310\317I9\310\263\3646\250y\360"
 351      2BA630C8 
 351      CF4939C8 
 351      B3F436A8 
 351      79F0
 352 0bee 11DBEC8D 		.ascii	"\021\333\354\215\314\014\025\352\177\023\036\322\373"
 352      CC0C15EA 
 352      7F131ED2 
 352      FB
 353 0bfb F5CD2374 		.ascii	"\365\315#t\003\264\346~\360\222\345\017\014\032\212"
 353      03B4E67E 
 353      F092E50F 
 353      0C1A8A
 354 0c0a 914098AB 		.ascii	"\221@\230\253kF/Y\327\327B\303z\3675[\355\270\241\257"
 354      6B462F59 
 354      D7D742C3 
 354      7AF7355B 
 354      EDB8A1AF 
 355 0c1e 8559254A 		.ascii	"\205Y%Js],\335\007}\352z\340\342Zz\243\007\002\334\216"
 355      735D2CDD 
 355      077DEA7A 
 355      E0E25A7A 
 355      A30702DC 
 356 0c33 EBC7AE27 		.ascii	"\353\307\256'\303mp\014\227K\300}H\302\275g\007\316"
 356      C36D700C 
 356      974BC07D 
 356      48C2BD67 
ARM GAS  /tmp/ccwwTnjg.s 			page 28


 356      07CE
 357 0c45 6AF84070 		.ascii	"j\370@p\273H\270\006\307p$w\273I\270\335v\340\254fo"
 357      BB48B806 
 357      C7702477 
 357      BB49B8DD 
 357      76E0AC66 
 358 0c5a 08AE9184 		.ascii	"\010\256\221\204\373\3301\034\311\335>\022\256\305\016"
 358      FBD8311C 
 358      C9DD3E12 
 358      AEC50E
 359 0c69 9CD5FEED 		.ascii	"\234\325\376\355\2629\322\001\031Nk,\322}h,h\306\353"
 359      B239D201 
 359      194E6B2C 
 359      D27D682C 
 359      68C6EB
 360 0c7c 982B52C8 		.ascii	"\230+R\310\016R\310cv\340r\255M\320E\302}\351\030\216"
 360      0E52C863 
 360      76E072AD 
 360      4DD045C2 
 360      7DE9188E 
 361 0c90 E4AE9B84 		.ascii	"\344\256\233\204;m\007.\305\022r\217\014\367=\252Z\035"
 361      3B6D072E 
 361      C512728F 
 361      0CF73DAA 
 361      5A1D
 362 0ca2 3FE44985 		.ascii	"?\344I\205\325\030R\355\376\036\234\021\333e\220\303"
 362      D51852ED 
 362      FE1E9C11 
 362      DB6590C3 
 363 0cb2 AAC41277 		.ascii	"\252\304\022w\342=\201\034\237\376D>\030\352o\216e "
 363      E23D811C 
 363      9FFE443E 
 363      18EA6F8E 
 363      6520
 364 0cc4 55729C54 		.ascii	"Ur\234T\311U;pV\013\341\010\356\013\022\356\266c8\222"
 364      C9553B70 
 364      560BE108 
 364      EE0B12EE 
 364      B6633892 
 365 0cd8 BBBF9070 		.ascii	"\273\277\220p\025Cl\300Y\256n\212\322)\025\016[\202"
 365      15436CC0 
 365      59AE6E8A 
 365      D229150E 
 365      5B82
 366 0cea A1DE740C 		.ascii	"\241\336t\014Grw\211\344n\271\035\2701\326\272\353#"
 366      47727789 
 366      E46EB91D 
 366      B831D6BA 
 366      EB23
 367 0cfc E1D63886 		.ascii	"\341\3268\206#\271\273B\302\325\333\201\263|\335L\224"
 367      23B9BB42 
 367      C2D5DB81 
 367      B37CDD4C 
 367      94
 368 0d0d AE91BADB 		.ascii	"\256\221\272\333\342\030\216\344\356\006\311\335N;p"
 368      E2188EE4 
 368      EE06C9DD 
ARM GAS  /tmp/ccwwTnjg.s 			page 29


 368      4E3B70
 369 0d1c 56AF9C21 		.ascii	"V\257\234!\270[$\334^\307p$ww\014]\277\0358\263\327"
 369      B85B24DC 
 369      5EC77024 
 369      77770C5D 
 369      BF1D38B3 
 370 0d31 CECC0E7D 		.ascii	"\316\314\016}\224\300\322\327!b\273\001Q\323-\240w\200"
 370      94C0D2D7 
 370      2162BB01 
 370      51D32DA0 
 370      7780
 371 0d43 DE032ABA 		.ascii	"\336\003*\2721\235\015t.\320J\240\013\200\276\011t\021"
 371      319D0D74 
 371      2ED04AA0 
 371      0B80BE09 
 371      7411
 372 0d55 D02AA04B 		.ascii	"\320*\240K\201.\007\272\002\350*\240k\200\256\003Z\013"
 372      812E07BA 
 372      02E82AA0 
 372      6B80AE03 
 372      5A0B
 373 0d67 B41EE806 		.ascii	"\264\036\350\006\240\033\201\276\353\326\305l\206\225"
 373      A01B81BE 
 373      EBD6C56C 
 373      8695
 374 0d75 807E0BD1 		.ascii	"\200~\013\321\341\223@\2676\221\300\337SI\227\342\373"
 374      E19340B7 
 374      3691C0DF 
 374      534997E2 
 374      FB
 375 0d86 FB3B16D2 		.ascii	"\373;\026\322\2277V\212\370\203\264\337\327J\303\014"
 375      9737568A 
 375      F883B4DF 
 375      D74AC30C 
 376 0d96 AB1B5B53 		.ascii	"\253\033[S\364\221[\334\311\037{\035\031B\206b\312g"
 376      F4915BDC 
 376      C91F7B1D 
 376      19428662 
 376      CA67
 377 0da8 4BB3C5ED 		.ascii	"K\263\305\355\233D\237\014\207\013\274\3476\377\330"
 377      9B449F0C 
 377      870BBCE7 
 377      36FFD8
 378 0db7 49C1DBEA 		.ascii	"I\301\333\352&>b2Hx\336\"<\306%\377\230$\341\2415oi"
 378      263E6232 
 378      4878DE22 
 378      3CC625FF 
 378      9824E1A1 
 379 0dce 5FC53FEE 		.ascii	"_\305?\356\340\223\261m\356T\237\214\311\202$]\033>"
 379      E093B16D 
 379      EE549F8C 
 379      C982245D 
 379      1B3E
 380 0de0 213B6BD0 		.ascii	"!;k\320\206\362\321X\247\361C\276\017,\324A~4\326\333"
 380      86F2D158 
 380      A7F143BE 
 380      0F2CD441 
ARM GAS  /tmp/ccwwTnjg.s 			page 30


 380      7E34D6DB 
 381 0df4 D04A8B0F 		.ascii	"\320J\213\017\252S\223o\001\333\272$p\244\224\274\204"
 381      AA53936F 
 381      01DBBA24 
 381      70A494BC 
 381      84
 382 0e05 2BDC0A6F 		.ascii	"+\334\012o\331\\t\245\256P\021D\371\330\354dCE\035-"
 382      D95C74A5 
 382      AE501144 
 382      F9D8EC64 
 382      43451D2D 
 383 0e19 7AB4CFCD 		.ascii	"z\264\317\315p9\242}|\230\322R\370\343F+\3756&,E=\235"
 383      7039A27D 
 383      7C98D252 
 383      F8E3462B 
 383      FD36262C 
 384 0e30 571A0971 		.ascii	"W\032\011qy\201H\311\254\274\022nz^\24048%\030\211\346"
 384      798148C9 
 384      ACBC126E 
 384      7A5EA034 
 384      38251889 
 385 0e45 097C2CFC 		.ascii	"\011|,\374\273<t\302\013yQ>\200\356\013\241\247\003"
 385      BB3C74C2 
 385      0B79513E 
 385      80EE0BA1 
 385      A703
 386 0e57 54A18DEC 		.ascii	"T\241\215\354\301p\240,V\302\311EJ\251\007\205`\210"
 386      C170A02C 
 386      56C2C945 
 386      4AA90785 
 386      6088
 387 0e69 F3873836 		.ascii	"\363\20786\032\343\271\020\027\026\374\202\347W\257"
 387      1AE3B910 
 387      1716FC82 
 387      E757AF
 388 0e78 BC965B4C 		.ascii	"\274\226[L\275h\003\254<\302\013\321\274_L\030W<n&\312"
 388      BD6803AC 
 388      3CC20BD1 
 388      BC5F4C18 
 388      573C6E26 
 389 0e8d 192A0F96 		.ascii	"\031*\017\226q|4\357W\305\305\030\177V9\027EUxy!\200"
 389      717C34EF 
 389      57C5C518 
 389      7F563917 
 389      45557879 
 390 0ea3 717F9C17 		.ascii	"q\177\234\027\213\362y,\037z*\034\011sOq\354\224\240"
 390      8BF2792C 
 390      1F7A2A1C 
 390      09734F71 
 390      EC94A0
 391 0eb6 C64D5428 		.ascii	"\306MT(\011\206\005\22493\206\376\213\012\375\302\310"
 391      09860594 
 391      393386FE 
 391      8B0AFDC2 
 391      C8
 392 0ec7 14B9432C 		.ascii	"\024\271C,b&\314\345\371K\270\251l\254\014a+Ue\371\375"
 392      6226CCE5 
ARM GAS  /tmp/ccwwTnjg.s 			page 31


 392      F94BB8A9 
 392      6CAC0C61 
 392      2B5565F9 
 393 0edc 6A79F714 		.ascii	"jy\367\024.*d\314\210\360Q\301]\306F\005O\014\230\240"
 393      2E2A64CC 
 393      88F051C1 
 393      5DC64605 
 393      4F0C98A0 
 394 0ef0 C399BC00 		.ascii	"\303\231\274\0002\013P\3253#\375\202R\012N\003\261P"
 394      320B50D5 
 394      3323FD82 
 394      520A4E03 
 394      B150
 395 0f02 AC8C1582 		.ascii	"\254\214\025\202\323\271!\201\322I\343^\235\362[. \274"
 395      D3B92181 
 395      D249E35E 
 395      9DF25B2E 
 395      20BC
 396 0f14 140E0A2E 		.ascii	"\024\016\012.!T\376\020\2765Q`ya\\Ba\2233\303\221`\270"
 396      2154FE10 
 396      BE355160 
 396      79615C42 
 396      619333C3 
 397 0f2b 0CF1F303 		.ascii	"\014\361\363\003\371q\244\234x\352\027B\376 \002\370"
 397      F971A49C 
 397      78EA1742 
 397      FE2002F8 
 398 0f3b 217E5A5C 		.ascii	"!~Z\\\312\006\303\272\307\223\"\223\335\010\270\000"
 398      CA06C3BA 
 398      C7932293 
 398      DD08B800 
 399 0f4b 93C2918E 		.ascii	"\223\302\221\216\314\027\015\224\226 \221G9+4+\252\352"
 399      CC170D94 
 399      96209147 
 399      392B342B 
 399      AAEA
 400 0f5d 2A3B50EA 		.ascii	"*;P\352\307\227\\\310/\370\264\363\034\236cKf\371\313"
 400      C7975CC8 
 400      2FF8B4F3 
 400      1C9E634B 
 400      66F9CB
 401 0f70 8251A4AC 		.ascii	"\202Q\244\254\007\320\355\304\365P\241\024_D\375\377"
 401      07D0EDC4 
 401      F550A114 
 401      5F44FDFF 
 402 0f80 17E36248 		.ascii	"\027\343bH\177\303\320S\342V\246|%\303\311\347\236r"
 402      7FC3D053 
 402      E256A67C 
 402      25C3C9E7 
 402      9E72
 403 0f92 7F989B29 		.ascii	"\177\230\233)\240\277r\236\233\356\025\312\371`"
 403      A0BF729E 
 403      9BEE15CA 
 403      F960
 404 0fa0 C42F5F06 		.ascii	"\304/_\006#\336@$,\240\247\243\035{Zi \302sX\006|\033"
 404      23DE4024 
 404      2CA0A7A3 
ARM GAS  /tmp/ccwwTnjg.s 			page 32


 404      1D7B5A69 
 404      20C27358 
 405 0fb7 69570808 		.ascii	"iW\010\0103\177\236\036\212\177\372\263\270\035d\362"
 405      337F9E1E 
 405      8A7FFAB3 
 405      B81D64F2 
 406 0fc7 DC34E46C 		.ascii	"\3344\344l~\301\025-x\006\245gQ\032\205\322hW\2640\037"
 406      7EC1152D 
 406      7806A567 
 406      511A85D2 
 406      6857B430 
 407 0fdc A502940A 		.ascii	"\245\002\224\012Q*Bi$J?E\011\345+D\371\012Q\276B\224"
 407      512A4269 
 407      244A3F45 
 407      09E52B44 
 407      F90A51BE 
 408 0ff2 AF08E52B 		.ascii	"\257\010\345+*`\370\221\014\377S\206\177\206"
 408      2A60F891 
 408      0CFF5386 
 408      7F86
 409 1000 E19F65F8 		.ascii	"\341\237e\370Q\014?\332\305\027\344\243T\300\224\361"
 409      510C3FDA 
 409      C517E4A3 
 409      54C094F1 
 410 1010 E8AF28A3 		.ascii	"\350\257(\243\334\217\270\365b\305\314\340x\364\037"
 410      DC8FB8F5 
 410      62C5CCE0 
 410      78F41F
 411 101f 292BE178 		.ascii	")+\341xw\240\224\345\261\266\330\020\322cT`\005\244"
 411      77A094E5 
 411      B1B6D810 
 411      D2635460 
 411      05A4
 412 1031 612F76CB 		.ascii	"a/v\313QH\237\262\203\2423\224\035\236y\205P\244\204"
 412      51489FB2 
 412      83A23394 
 412      1D9E7985 
 412      50A484
 413 1044 83EBA965 		.ascii	"\203\353\251e\354\264\250W\340\271\251Q\320,>\311\010"
 413      ECB4A857 
 413      E0B9A951 
 413      D02C3EC9 
 413      08
 414 1055 45A7A187 		.ascii	"E\247\241\207JS@\305\2253\017_2\013=\312\344f\006\005"
 414      4A5340C5 
 414      95330F5F 
 414      320B3DCA 
 414      E4660605 
 415 1069 A428CE33 		.ascii	"\244(\3163C\210L\371my67\035\371b\210\215\376\016e\341"
 415      43884CF9 
 415      6D793637 
 415      1DF96288 
 415      8DFE0E65 
 416 107e 66E01357 		.ascii	"f\340\023W\271?6D\265\256\354\015Cu\366\306w|\345\376"
 416      B93F3644 
 416      B5AEEC0D 
 416      4375F6C6 
ARM GAS  /tmp/ccwwTnjg.s 			page 33


 416      777CE5FE 
 417 1092 196C5008 		.ascii	"\031lP\010\206\247e\225\373\021*\370@\006\234\242\033"
 417      86A76595 
 417      FB112AF8 
 417      40069CA2 
 417      1B
 418 10a3 5C391746 		.ascii	"\\9\027FmzZF(\206l\\\344\310KC\302L\334o\204d\267B\377"
 418      6D7A5A46 
 418      28866C5C 
 418      E4C84B43 
 418      C24CDC6F 
 419 10bc 911961A4 		.ascii	"\221\031a\244*@B\034\206\300\247P\365(\037f$\013\013"
 419      2A40421C 
 419      86C0A750 
 419      F5281F66 
 419      240B0B
 420 10cf CD96814B 		.ascii	"\315\226\201K\241\233\345\221H\231\227\227\313zx\360"
 420      A19BE591 
 420      48999797 
 420      CB7A78F0 
 421 10df B40C1E74 		.ascii	"\264\014\036t\316+:\347e\235\373\320\335\030\317#\321"
 421      CE2B3AE7 
 421      659DFBD0 
 421      DD18CF23 
 421      D1
 422 10f0 33788CF3 		.ascii	"3x\214\363\320\364 /\304\3302?\356\037xU\354\207\221"
 422      D0F4202F 
 422      C4D8323F 
 422      EE1F7855 
 422      EC8791
 423 1103 D8260F86 		.ascii	"\330&\017\206\022\367\344\326@\334\362N\027\200O\374"
 423      12F7E4D6 
 423      40DCF24E 
 423      17804FFC 
 424 1113 8F9DDF87 		.ascii	"\217\235\337\207\033\230\334\361\240;%\\\231\300\242"
 424      1B98DCF1 
 424      A03B255C 
 424      99C0A2
 425 1122 93A9B170 		.ascii	"\223\251\261p\300\017y\360\231\007\347e\371l\364\207"
 425      C00F79F0 
 425      9907E765 
 425      F96CF487 
 426 1132 FB2C9C1D 		.ascii	"\373,\234\035\335\302\325\015Q\232j\0117%6M\266\205"
 426      DDC2D50D 
 426      519A6A09 
 426      3725364D 
 426      B685
 427 1144 FE8EAF9C 		.ascii	"\376\216\257\234\015\007\003X\365\256\222)\323\206\241"
 427      0D070358 
 427      F5AE9229 
 427      D386A1
 428 1153 2E27C096 		.ascii	".'\300\226\005\247\360\250'\213\204\221\312\"S\247F"
 428      05A7F0A8 
 428      278B8491 
 428      CA2253A7 
 428      46
 429 1164 39811142 		.ascii	"9\201\021BL\240t\320\206\202\230\316+\0367\361\245\211"
ARM GAS  /tmp/ccwwTnjg.s 			page 34


 429      4CA074D0 
 429      868298CE 
 429      2B1E37F1 
 429      A589
 430 1176 0993E086 		.ascii	"\011\223\340\206\022\010\215\304\015\345\205\377\236"
 430      12088DC4 
 430      0DE585FF 
 430      9E
 431 1183 E49F84FA 		.ascii	"\344\237\204\372\020w\361\244\011/{\212\377\247\270"
 431      1077F1A4 
 431      092F7B8A 
 431      FFA7B8
 432 1192 F895499E 		.ascii	"\370\225I\236\342\361/\341\277\261\223\361U\346\304"
 432      E2F12FE1 
 432      BFB193F1 
 432      55E6C4
 433 11a1 97C78E1D 		.ascii	"\227\307\216\035\217\257_\236\370\032\372\363\376\362"
 433      8FAF5F9E 
 433      F81AFAF3 
 433      FEF2
 434 11af D5975F40 		.ascii	"\325\227_@\377\356\361\305\023'd\024\277:n|~\306\270"
 434      FFEEF1C5 
 434      13276414 
 434      BF3A6E7C 
 434      7EC6B8
 435 11c2 5F4CFC75 		.ascii	"_L\374u\276\357\227\257\275R<\351\245W_\311\367M\030"
 435      BEEF97AF 
 435      BD523CE9 
 435      A5575FC9 
 435      F74D18
 436 11d5 3B71EC84 		.ascii	";q\354\204\377\032\373B></\200\347\005\332\363\002\355"
 436      FF1AFB42 
 436      3E3C2F80 
 436      E705DAF3 
 436      02ED
 437 11e7 79013C2F 		.ascii	"y\001</\204\347\205\332\363B\355y!</\202\347E\332\363"
 437      84E785DA 
 437      F342ED79 
 437      213C2F82 
 437      E745DAF3 
 438 11fb A247A0A3 		.ascii	"\242G\240\243@\277i\234\340\017Db\250\337\341\375\323"
 438      40BF699C 
 438      E00F4462 
 438      A8DFE1FD 
 438      D3
 439 120c D9B2186E 		.ascii	"\331\262\030nI\250IE\312]\341\310\214\377\007\036\032"
 439      49A84945 
 439      CA5DE1C8 
 439      8CFF071E 
 439      1A
 440 121d A7C2     		.ascii	"\247\302"
 441              		.text
 442              		.section	.gnu.lto_.symtab.f4563c771293396c,"",%progbits
 443 0000 6368544D 		.ascii	"chTMObjectInit\000\000\000\000\000\000\000\000\000\000"
 443      4F626A65 
 443      6374496E 
 443      69740000 
ARM GAS  /tmp/ccwwTnjg.s 			page 35


 443      00000000 
 444 0018 0000A100 		.ascii	"\000\000\241\000\000\000chTMStartMeasurementX\000\000"
 444      00006368 
 444      544D5374 
 444      6172744D 
 444      65617375 
 445 0035 00000000 		.ascii	"\000\000\000\000\000\000\000\000\000\000\316\000\000"
 445      00000000 
 445      0000CE00 
 445      00
 446 0042 00636854 		.ascii	"\000chTMStopMeasurementX\000\000\000\000\000\000\000"
 446      4D53746F 
 446      704D6561 
 446      73757265 
 446      6D656E74 
 447 005e 00000000 		.ascii	"\000\000\000\000\000\324\000\000\000_tm_init\000\000"
 447      00D40000 
 447      005F746D 
 447      5F696E69 
 447      740000
 448 0071 00000000 		.ascii	"\000\000\000\000\000\000\000\000\000\000\331\000\000"
 448      00000000 
 448      0000D900 
 448      00
 449 007e 00636854 		.ascii	"\000chTMChainMeasurementToX\000\000\000\000\000\000"
 449      4D436861 
 449      696E4D65 
 449      61737572 
 449      656D656E 
 450 009c 00000000 		.ascii	"\000\000\000\000\000\000\335\000\000\000ch\000\000\002"
 450      0000DD00 
 450      00006368 
 450      000002
 451 00ab 00000000 		.ascii	"\000\000\000\000\000\000\000\000\000\350\000\000\000"
 451      00000000 
 451      00E80000 
 451      00
 452              		.text
 453              		.section	.gnu.lto_.opts,"",%progbits
 454 0000 272D6D63 		.ascii	"'-mcpu=cortex-m4' '-mfloat-abi=hard' '-mfpu=fpv4-sp"
 454      70753D63 
 454      6F727465 
 454      782D6D34 
 454      2720272D 
 455 0033 2D643136 		.ascii	"-d16' '-mno-thumb-interwork' '-mthumb' '-O2' '-fomi"
 455      2720272D 
 455      6D6E6F2D 
 455      7468756D 
 455      622D696E 
 456 0066 742D6672 		.ascii	"t-frame-pointer' '-falign-functions=16' '-ffunction"
 456      616D652D 
 456      706F696E 
 456      74657227 
 456      20272D66 
 457 0099 2D736563 		.ascii	"-sections' '-fdata-sections' '-fno-common' '-flto' "
 457      74696F6E 
 457      73272027 
ARM GAS  /tmp/ccwwTnjg.s 			page 36


 457      2D666461 
 457      74612D73 
 458 00cc 272D6673 		.ascii	"'-fsingle-precision-constant'\000"
 458      696E676C 
 458      652D7072 
 458      65636973 
 458      696F6E2D 
 459              		.text
 460              		.section	.text.chTMObjectInit,"ax",%progbits
 461              		.align	2
 462              		.p2align 4,,15
 463              		.global	chTMObjectInit
 464              		.thumb
 465              		.thumb_func
 466              		.type	chTMObjectInit, %function
 467              	chTMObjectInit:
 468              		@ args = 0, pretend = 0, frame = 0
 469              		@ frame_needed = 0, uses_anonymous_args = 0
 470              		@ link register save eliminated.
 471 0000 0022     		movs	r2, #0
 472 0002 0023     		movs	r3, #0
 473 0004 C0E90423 		strd	r2, [r0, #16]
 474 0008 0023     		movs	r3, #0
 475 000a 4FF0FF32 		mov	r2, #-1
 476 000e 80E80C00 		stmia	r0, {r2, r3}
 477 0012 8360     		str	r3, [r0, #8]
 478 0014 C360     		str	r3, [r0, #12]
 479 0016 7047     		bx	lr
 480              		.size	chTMObjectInit, .-chTMObjectInit
 481 0018 AFF30080 		.section	.text.chTMStartMeasurementX,"ax",%progbits
 481      AFF30080 
 482              		.align	2
 483              		.p2align 4,,15
 484              		.global	chTMStartMeasurementX
 485              		.thumb
 486              		.thumb_func
 487              		.type	chTMStartMeasurementX, %function
 488              	chTMStartMeasurementX:
 489              		@ args = 0, pretend = 0, frame = 0
 490              		@ frame_needed = 0, uses_anonymous_args = 0
 491              		@ link register save eliminated.
 492 0000 014B     		ldr	r3, .L3
 493 0002 5B68     		ldr	r3, [r3, #4]
 494 0004 8360     		str	r3, [r0, #8]
 495 0006 7047     		bx	lr
 496              	.L4:
 497              		.align	2
 498              	.L3:
 499 0008 001000E0 		.word	-536866816
 500              		.size	chTMStartMeasurementX, .-chTMStartMeasurementX
 501 000c AFF30080 		.section	.text.chTMStopMeasurementX,"ax",%progbits
 502              		.align	2
 503              		.p2align 4,,15
 504              		.global	chTMStopMeasurementX
 505              		.thumb
 506              		.thumb_func
 507              		.type	chTMStopMeasurementX, %function
ARM GAS  /tmp/ccwwTnjg.s 			page 37


 508              	chTMStopMeasurementX:
 509              		@ args = 0, pretend = 0, frame = 0
 510              		@ frame_needed = 0, uses_anonymous_args = 0
 511              		@ link register save eliminated.
 512 0000 0F4A     		ldr	r2, .L10
 513 0002 104B     		ldr	r3, .L10+4
 514 0004 5168     		ldr	r1, [r2, #4]
 515 0006 F0B4     		push	{r4, r5, r6, r7}
 516 0008 8668     		ldr	r6, [r0, #8]
 517 000a 1F6B     		ldr	r7, [r3, #48]
 518 000c C568     		ldr	r5, [r0, #12]
 519 000e 4468     		ldr	r4, [r0, #4]
 520 0010 D0E90423 		ldrd	r2, [r0, #16]
 521 0014 891B     		subs	r1, r1, r6
 522 0016 C91B     		subs	r1, r1, r7
 523 0018 5218     		adds	r2, r2, r1
 524 001a 43F10003 		adc	r3, r3, #0
 525 001e 0135     		adds	r5, r5, #1
 526 0020 A142     		cmp	r1, r4
 527 0022 C560     		str	r5, [r0, #12]
 528 0024 8160     		str	r1, [r0, #8]
 529 0026 C0E90423 		strd	r2, [r0, #16]
 530 002a 05D8     		bhi	.L9
 531 002c 0368     		ldr	r3, [r0]
 532 002e 9942     		cmp	r1, r3
 533 0030 38BF     		it	cc
 534 0032 0160     		strcc	r1, [r0]
 535 0034 F0BC     		pop	{r4, r5, r6, r7}
 536 0036 7047     		bx	lr
 537              	.L9:
 538 0038 4160     		str	r1, [r0, #4]
 539 003a F0BC     		pop	{r4, r5, r6, r7}
 540 003c 7047     		bx	lr
 541              	.L11:
 542 003e 00BF     		.align	2
 543              	.L10:
 544 0040 001000E0 		.word	-536866816
 545 0044 00000000 		.word	ch
 546              		.size	chTMStopMeasurementX, .-chTMStopMeasurementX
 547 0048 AFF30080 		.section	.text._tm_init,"ax",%progbits
 547      AFF30080 
 548              		.align	2
 549              		.p2align 4,,15
 550              		.global	_tm_init
 551              		.thumb
 552              		.thumb_func
 553              		.type	_tm_init, %function
 554              	_tm_init:
 555              		@ args = 0, pretend = 0, frame = 24
 556              		@ frame_needed = 0, uses_anonymous_args = 0
 557 0000 30B5     		push	{r4, r5, lr}
 558 0002 0C4C     		ldr	r4, .L13
 559 0004 87B0     		sub	sp, sp, #28
 560 0006 0021     		movs	r1, #0
 561 0008 0022     		movs	r2, #0
 562 000a 0023     		movs	r3, #0
 563 000c 6846     		mov	r0, sp
ARM GAS  /tmp/ccwwTnjg.s 			page 38


 564 000e 4FF0FF35 		mov	r5, #-1
 565 0012 CDE90423 		strd	r2, [sp, #16]
 566 0016 2163     		str	r1, [r4, #48]
 567 0018 0191     		str	r1, [sp, #4]
 568 001a 0291     		str	r1, [sp, #8]
 569 001c 0391     		str	r1, [sp, #12]
 570 001e 0095     		str	r5, [sp]
 571 0020 FFF7FEFF 		bl	chTMStartMeasurementX
 572 0024 6846     		mov	r0, sp
 573 0026 FFF7FEFF 		bl	chTMStopMeasurementX
 574 002a 029B     		ldr	r3, [sp, #8]
 575 002c 2363     		str	r3, [r4, #48]
 576 002e 07B0     		add	sp, sp, #28
 577              		@ sp needed
 578 0030 30BD     		pop	{r4, r5, pc}
 579              	.L14:
 580 0032 00BF     		.align	2
 581              	.L13:
 582 0034 00000000 		.word	ch
 583              		.size	_tm_init, .-_tm_init
 584 0038 AFF30080 		.section	.text.chTMChainMeasurementToX,"ax",%progbits
 584      AFF30080 
 585              		.align	2
 586              		.p2align 4,,15
 587              		.global	chTMChainMeasurementToX
 588              		.thumb
 589              		.thumb_func
 590              		.type	chTMChainMeasurementToX, %function
 591              	chTMChainMeasurementToX:
 592              		@ args = 0, pretend = 0, frame = 0
 593              		@ frame_needed = 0, uses_anonymous_args = 0
 594              		@ link register save eliminated.
 595 0000 0E4B     		ldr	r3, .L19
 596 0002 70B4     		push	{r4, r5, r6}
 597 0004 5C68     		ldr	r4, [r3, #4]
 598 0006 8C60     		str	r4, [r1, #8]
 599 0008 D0E90423 		ldrd	r2, [r0, #16]
 600 000c 8168     		ldr	r1, [r0, #8]
 601 000e C668     		ldr	r6, [r0, #12]
 602 0010 4568     		ldr	r5, [r0, #4]
 603 0012 611A     		subs	r1, r4, r1
 604 0014 5218     		adds	r2, r2, r1
 605 0016 43F10003 		adc	r3, r3, #0
 606 001a 0136     		adds	r6, r6, #1
 607 001c A942     		cmp	r1, r5
 608 001e C660     		str	r6, [r0, #12]
 609 0020 8160     		str	r1, [r0, #8]
 610 0022 C0E90423 		strd	r2, [r0, #16]
 611 0026 05D8     		bhi	.L18
 612 0028 0368     		ldr	r3, [r0]
 613 002a 9942     		cmp	r1, r3
 614 002c 38BF     		it	cc
 615 002e 0160     		strcc	r1, [r0]
 616 0030 70BC     		pop	{r4, r5, r6}
 617 0032 7047     		bx	lr
 618              	.L18:
 619 0034 4160     		str	r1, [r0, #4]
ARM GAS  /tmp/ccwwTnjg.s 			page 39


 620 0036 70BC     		pop	{r4, r5, r6}
 621 0038 7047     		bx	lr
 622              	.L20:
 623 003a 00BF     		.align	2
 624              	.L19:
 625 003c 001000E0 		.word	-536866816
 626              		.size	chTMChainMeasurementToX, .-chTMChainMeasurementToX
 627              		.comm	__gnu_lto_v1,1,1
 628              		.ident	"GCC: (GNU Tools for ARM Embedded Processors) 4.8.4 20140526 (release) [ARM/embedded-4_8-br
ARM GAS  /tmp/ccwwTnjg.s 			page 40

