ARM GAS  /tmp/ccM7BDTQ.s 			page 1


   1              		.syntax unified
   2              		.cpu cortex-m4
   3              		.eabi_attribute 27, 3
   4              		.eabi_attribute 28, 1
   5              		.fpu fpv4-sp-d16
   6              		.eabi_attribute 20, 1
   7              		.eabi_attribute 21, 1
   8              		.eabi_attribute 23, 3
   9              		.eabi_attribute 24, 1
  10              		.eabi_attribute 25, 1
  11              		.eabi_attribute 26, 1
  12              		.eabi_attribute 30, 2
  13              		.eabi_attribute 34, 1
  14              		.eabi_attribute 18, 4
  15              		.thumb
  16              		.file	"chvt.c"
  17              		.section	.gnu.lto_.jmpfuncs.f341215bbf6e039a,"",%progbits
  18 0000 789C6362 		.ascii	"x\234cb`b\300\006\204\24043\003\003\023?#\003\003\020"
  18      6062C006 
  18      84A03433 
  18      0303133F 
  18      23030310 
  19 0014 31333282 		.ascii	"132\202D\000\004'\0002"
  19      44000427 
  19      0032
  20              		.text
  21              		.section	.gnu.lto_.inline.f341215bbf6e039a,"",%progbits
  22 0000 789C6362 		.ascii	"x\234cb`b\300\006VBif\006\006v6F\006&\216\003v\014l"
  22      6062C006 
  22      56426966 
  22      06067636 
  22      4606268E 
  23 0018 0BE4C18A 		.ascii	"\013\344\301\212\231\030\324/3023\246D0f220200\246\302"
  23      9918D42F 
  23      33303233 
  23      A6443066 
  23      32323032 
  24 0030 598C203D 		.ascii	"Y\214 =\346\373\276r0p\257pcb`Y /\000\326\302\015\224"
  24      E6FBBE72 
  24      3070AF70 
  24      63626059 
  24      202F00D6 
  25 0047 9BE007A5 		.ascii	"\233\340\007\245\230\031\304\345\030\231A\352\201\306"
  25      9819C4E5 
  25      189941EA 
  25      81C6
  26 0055 83480730 		.ascii	"\203H\0070\251\300!\265\346\030#\003\307\007=&\006\306"
  26      A9C021B5 
  26      E6182303 
  26      C7073D26 
  26      06C6
  27 0067 17EC2C10 		.ascii	"\027\354,\020\022Dp\200\231\034 B\000\314D6\224\221"
  27      12447080 
  27      991C2042 
  27      00CC4436 
  27      9491
  28 0079 0BC40100 		.ascii	"\013\304\001\000Il\025\270"
ARM GAS  /tmp/ccM7BDTQ.s 			page 2


  28      496C15B8 
  29              		.text
  30              		.section	.gnu.lto_.pureconst.f341215bbf6e039a,"",%progbits
  31 0000 789C6362 		.ascii	"x\234cb`b`g\200\000f\006\011&)f)\000\001\307\000`"
  31      60626067 
  31      80006606 
  31      09262966 
  31      290001C7 
  32              		.text
  33              		.section	.gnu.lto__vt_init.f341215bbf6e039a,"",%progbits
  34 0000 789C6362 		.ascii	"x\234cb`b@\007\222@,\005\0246\000\322\214\314\014\214"
  34      60624007 
  34      92402C05 
  34      143600D2 
  34      8CCC0C8C 
  35 0014 4C13CE31 		.ascii	"L\023\316104r012\202\030\014\214\014\365L\214\365\221"
  35      30347230 
  35      31328218 
  35      0C8C0CF5 
  35      4C8CF591 
  36 0028 8C60B5EB 		.ascii	"\214`\265\353\231\016<\370\377\177\335\237\255\017\373"
  36      990E3CF8 
  36      FF7FDD9F 
  36      AD0FFB
  37 0037 1905D980 		.ascii	"\031\005\331\200\002\254\014-\015\015\023\024\030\030"
  37      02AC0C2D 
  37      0D0D1314 
  37      1818
  38 0045 92C10A42 		.ascii	"\222\301\012B\200$HW(#\023\210f>\313\320\364\253yqO"
  38      80244857 
  38      28231388 
  38      663ECBD0 
  38      F4AB7971 
  39 005a 6422E342 		.ascii	"d\"\343BFV\006m\206U\015@0\2211\223\021\306.\316dd\234"
  39      4656066D 
  39      86550D40 
  39      30913193 
  39      11C62ECE 
  40 0071 CD30ABB1 		.ascii	"\3150\253\261\241A \223\221\251\232\341WC\007\210\305"
  40      A1412093 
  40      91A99AE1 
  40      57430788 
  40      C5
  41 0082 9C0B362E 		.ascii	"\234\0136.\002\250\222\031lq\022\304~ \015a@T6\\\007"
  41      02A89219 
  41      6C7112C4 
  41      7E200D61 
  41      4054365C 
  42 0097 2A60811A 		.ascii	"*`\201\032u\027\310f\004\352\203)\005\003\240\003Nn"
  42      7517C866 
  42      04EA8329 
  42      0503A003 
  42      4E6E
  43 00a9 E046B1DE 		.ascii	"\340F\261\336\022a;7\311\2663\221j\373\216\035\217>"
  43      12613B37 
  43      C9B63391 
  43      6AFB8E1D 
ARM GAS  /tmp/ccM7BDTQ.s 			page 3


  43      8F3E
  44 00bb 30A1DBCF 		.ascii	"0\241\333\317J\266\375\020>H\206\355?\020\360\303,y"
  44      4AB6FD10 
  44      3E4886ED 
  44      3F10F0C3 
  44      2C79
  45 00cd 7C82997A 		.ascii	"|\202\231z\226\260\300-a\0051.24>\350W\206\030\017\003"
  45      96B0C02D 
  45      6105312E 
  45      32343EE8 
  45      5786180F 
  46 00e2 21C07800 		.ascii	"!\300x\000F0(8\364\3643\362sS\365\223\363S*\365SR\313"
  46      46302838 
  46      F4F433F2 
  46      7353F593 
  46      F3532AF5 
  47 00f9 F4933332 		.ascii	"\364\22332\2232\363\213\365K\212J\363\262\365\201\214"
  47      9332F38B 
  47      F54B8A4A 
  47      F3B2F581 
  47      8C
  48 010a A212FDE2 		.ascii	"\242\022\375\342\242d\240xY\211^2\003\0008Y\225\223"
  48      A264A078 
  48      59895E32 
  48      03003859 
  48      9593
  49              		.text
  50              		.section	.gnu.lto_chVTDoSetI.f341215bbf6e039a,"",%progbits
  51 0000 789C9D55 		.ascii	"x\234\235U]h\034U\024>\347\316\357\356$M\2324&1!\024"
  51      5D681C55 
  51      143EE7CE 
  51      EFEE244D 
  51      9A342631 
  52 0016 5B89B490 		.ascii	"[\211\264\220\241\015E\002j\221\372Rh\036\324\004\364"
  52      A10D4502 
  52      6A91FA52 
  52      681ED404 
  52      F4
  53 0027 414ABA09 		.ascii	"AJ\272\011\233\305\304\324\315\032,>t\266Y!B\240A\362"
  53      9BC5C4D4 
  53      CD1A2C3E 
  53      74B65921 
  53      42A041F2 
  54 003b 506B1F1A 		.ascii	"Pk\037\032\305\006Z\215\342\203D\264t\243\201&\244U"
  54      C5065A8D 
  54      E28344B4 
  54      74A38126 
  54      A455
  55 004d 6A4593E2 		.ascii	"jE\223\342C*\230\366\315\266\021\215\265\260\236s\347"
  55      432A98F6 
  55      CDB6118D 
  55      B5B09E73 
  55      E7
  56 005e CEEC6E7E 		.ascii	"\316\354n~\210\366\302\336;s\356\375\316w\316w\317\234"
  56      88F6C2DE 
  56      3B73EEFD 
  56      CE77CE77 
ARM GAS  /tmp/ccM7BDTQ.s 			page 4


  56      CF9C
  57 0070 152060F5 		.ascii	"\025 `\365\030\242\33736\300\027\264b\011\240\030\371"
  57      18A2DF33 
  57      36C017B4 
  57      6209A018 
  57      F9
  58 0081 0E206D0B 		.ascii	"\016 m\013\241\015W\201\027\3253-\340\225h\250\373f"
  58      A10D5781 
  58      17D5332D 
  58      E09568A8 
  58      FB66
  59 0093 5D18670D 		.ascii	"]\030g\0152\233wf\200\354\006\332\276\335\024\326\217"
  59      329B7766 
  59      80EC06DA 
  59      BEDD14D6 
  59      8F
  60 00a4 8F90DDFE 		.ascii	"\217\220\335\376\372I2[\201\331\306(?`\304_\247\354"
  60      FA49325B 
  60      81D9C628 
  60      3F60C45F 
  60      A7EC
  61 00b6 A8880C5F 		.ascii	"\250\210\014_&d\324\311Xt\320Ad; \034\027\232n\230\226"
  61      2664D4C9 
  61      5874D041 
  61      643B201C 
  61      179A6E98 
  62 00cb 1D893A78 		.ascii	"\035\211:x\374e\344\310\3601\030\363\274w\027?\272\267"
  62      FC65E4C8 
  62      F03118F3 
  62      BC77173F 
  62      BAB7
  63 00dd 28DEF3B2 		.ascii	"(\336\363\262\231\263\336\203\\\0161\201\224\305\036"
  63      99B3DE83 
  63      5C0E3181 
  63      94C51E
  64 00ec 8418C24B 		.ascii	"\204\030\302K\364\202\333\345\"\364\342\264>\025\331"
  64      F482DBE5 
  64      22F4E2B4 
  64      3E15D9
  65 00fb C55C6EF8 		.ascii	"\305\\n\370\313?~\235\300\212]\010\275\214\242I\203"
  65      CB3F7E9D 
  65      C08A5D08 
  65      BD8CA249 
  65      83
  66 010c 0E1C23CF 		.ascii	"\016\034#\317&\366\"Z4\211\010M\232\243\314\245\364"
  66      26F6225A 
  66      3489084D 
  66      9AA3CCA5 
  66      F4
  67 011d 02659040 		.ascii	"\002e\220@m+O\025<U2n\033?U\361T\315S\015\333j\025\250"
  67      6D2B4F15 
  67      3C55326E 
  67      1B3F55F1 
  67      54CD530D 
  68 0135 8E5FEAC9 		.ascii	"\216_\352\311\014\015\312\262\203\317\354\344\251\221"
  68      0C0DCAB2 
  68      83CFECE4 
ARM GAS  /tmp/ccM7BDTQ.s 			page 5


  68      A991
  69 0143 260ECD80 		.ascii	"&\016\315\200\214\347\215l\367\267\201\203\247\321F"
  69      8CE78D6C 
  69      F7B78183 
  69      A7D146
  70 0152 33E9D08E 		.ascii	"3\351\320\216\202\026\355*\234\230\233_^\301\016\374"
  70      8216ED2A 
  70      9C989B5F 
  70      5EC10EFC 
  71 0162 100DD80D 		.ascii	"\020\015\330\015\347=\032\245\0114\336\207\323\224\241"
  71      E73D1AA5 
  71      0934DE87 
  71      D394A1
  72 0171 19479333 		.ascii	"\031G\2233\365\363;\242\3268Z\000\214\\Y\316\212\325"
  72      F5F33BA2 
  72      D6385A00 
  72      8C5C59CE 
  72      8AD5
  73 0183 486B7D24 		.ascii	"Hk}$*dD\"o\234\372\363\011\037\030GGa\237\247\303\352"
  73      2A644422 
  73      6F9CFAF3 
  73      091F1847 
  73      47619FA7 
  74 0199 B1398136 		.ascii	"\2619\2016\271I{^y\002#o\301}o\210\237\242\2752-v\033"
  74      B9497B5E 
  74      7902236F 
  74      C17D6F88 
  74      9FA2BD32 
  75 01b0 556E855A 		.ascii	"Un\205Z5u\005W\341\233\033\017NO\357U\251\007\032d/"
  75      35750557 
  75      E19B1B0F 
  75      4E4FEF55 
  75      A9071A64 
  76 01c5 9EFC450B 		.ascii	"\236\374E\013\005\001\360\271\245&\350\307\325\310\324"
  76      0501F0B9 
  76      A526E8C7 
  76      D5C8D4
  77 01d4 99F4E2CF 		.ascii	"\231\364\342\317c\243\217&\320a\366\021\346,a\266R\016"
  77      63A38F26 
  77      D061F611 
  77      E62C61B6 
  77      520E
  78 01e6 4A97C4A5 		.ascii	"J\227\304\245\212Pg'\237\370Nf \263t\363\355\373YRq"
  78      8A506727 
  78      9FF84E66 
  78      20B374F3 
  78      EDFB5952 
  79 01fb 42A654CA 		.ascii	"B\246T\312'u,(\2156\212p\031\265v\302\221\35230}k\352"
  79      27752C28 
  79      8D368A70 
  79      19B576C2 
  79      91EA3330 
  80 0212 272B38EE 		.ascii	"'+8\356\370\031r\332[\224\002-\244\000e\033$X0\026\000"
  80      F81972DA 
  80      5B94022D 
  80      A400651B 
  80      24583016 
ARM GAS  /tmp/ccM7BDTQ.s 			page 6


  81 0227 8940A0A4 		.ascii	"\211@\240\244\020\240\235\271\230\002\272M\003\236\342"
  81      10A09DB9 
  81      9802BA4D 
  81      039EE2
  82 0236 CB9C9DFF 		.ascii	"\313\234\235\377\347\266\346\373\315\313\252?\264\254"
  82      E7B6E6FB 
  82      CDCBAA3F 
  82      B4AC
  83 0244 86BAB546 		.ascii	"\206\272\265FVvph\360\322\311\247\203\240\313\342\210"
  83      56767068 
  83      F0D2C9A7 
  83      83A0CBE2 
  83      88
  84 0255 72E37BC8 		.ascii	"r\343{\310\334\371\375\333\245\025\\\255\371\334_\327"
  84      DCF9FDDB 
  84      A5155CAD 
  84      F9DC5FD7 
  85 0265 2C5689CF 		.ascii	",V\211\317\307\202DB\326\262\030R\240\223>\005\271K"
  85      C7824442 
  85      D6B21852 
  85      A0933E05 
  85      B94B
  86 0277 60B97FA2 		.ascii	"`\271\177\242\035M\23015Y%\271\025-\340\333\272\033"
  86      1D4D9831 
  86      355925B9 
  86      152DE0DB 
  86      BA1B
  87 0289 76E55379 		.ascii	"v\345Sy\375!S\221y\2743\370yxU\025\224\0039W\371\015"
  87      FD215391 
  87      79BC33F8 
  87      79785515 
  87      94033957 
  88 029f 04E64AB9 		.ascii	"\004\346J\271\203\252X?\270)\202\215m~\030a\221;\205"
  88      83AA583F 
  88      B829828D 
  88      6D7E1861 
  88      913B85
  89 02b2 456E2A0E 		.ascii	"En*\016\272\337\245\364\276\020B\356\362\367\327N\037"
  89      BADFA5F4 
  89      BE1042EE 
  89      F2F7D74E 
  89      1F
  90 02c3 0F5582A4 		.ascii	"\017U\202\244\033\037\015\345\254\242 \3449)\347\340"
  90      1B1F0DE5 
  90      ACA220E4 
  90      3929E7E0 
  91 02d3 BDDB6BE5 		.ascii	"\275\333k\345\234\376\241@N}\255\234F\007N\005rV\025"
  91      9CFEA140 
  91      4E7DAD9C 
  91      46074E05 
  91      725615
  92 02e6 C86973C9 		.ascii	"\310is\311q\341\324\021\201y\345R\212\026\213\316\240"
  92      71E1D411 
  92      8179E552 
  92      8A168BCE 
  92      A0
  93 02f7 810BD040 		.ascii	"\201\013\320@)\230\303_Q\214\016\333\034CB\"@\035S\223"
ARM GAS  /tmp/ccM7BDTQ.s 			page 7


  93      2998C35F 
  93      518C0EDB 
  93      1C434222 
  93      401D5393 
  94 030b 52DD1AAD 		.ascii	"R\335\032\255\013\276\324\2328\2128V\373\242\314\237"
  94      0BBED49A 
  94      388A3856 
  94      FBA2CC9F 
  95 031b 6B09ECB5 		.ascii	"k\011\354\265\352R\366\221\022\2410Z\2410\026\024\012"
  95      EA52F691 
  95      12A1305A 
  95      A1301614 
  95      0A
  96 032c 10056AC0 		.ascii	"\020\005j\300(\225=\267\200\201\227\352U\312j\033(\373"
  96      28953DB7 
  96      808197EA 
  96      55CA6A1B 
  96      28FB
  97 033e 5BBA3984 		.ascii	"[\2729\204\304\363\337\307\002Plu6\325dM\344\314\365"
  97      C4F3DFC7 
  97      02506C75 
  97      36D5644D 
  97      E4CCF5
  98 0351 9E05D0E2 		.ascii	"\236\005\320\342\330\300\257\265\221\217\257\3273\255"
  98      D8C0AFB5 
  98      918FAFD7 
  98      33AD
  99 035f A31ADEEC 		.ascii	"\243\032\336\354\374\370\224^\324\266^)\014\334\\\033"
  99      FCF8945E 
  99      D4B65E29 
  99      0CDC5C1B 
 100 036f 789CFB0B 		.ascii	"x\234\373\013\307;R\031P\327\313h7H\327\016k\355\304"
 100      C73B5219 
 100      50D7CB68 
 100      3748D70E 
 100      6BEDC4
 101 0382 EC487475 		.ascii	"\354Htu\207\334\200\312VT\365\252\267\216\337-\016\362"
 101      87DC80CA 
 101      5654F5AA 
 101      B78EDF2D 
 101      0EF2
 102 0394 D8267471 		.ascii	"\330&tq\026\211\031?\333R\204\333_\210\253_/9\0377w"
 102      1689193F 
 102      DB5284DB 
 102      5F88AB5F 
 102      2F391F37 
 103 03a9 EAFCEC9A 		.ascii	"\352\374\354\232n\256\257\037\253\251\220B} \027\376"
 103      6EAEAF1F 
 103      ABA99042 
 103      7D2017FE 
 104 03b9 0EAF7187 		.ascii	"\016\257q\207\017.\337\364*\271\272\264\000\265\223"
 104      0F2EDFF4 
 104      2AB9BAB4 
 104      00B593
 105 03c8 8081BB83 		.ascii	"\200\201\273\203\205Al\346\207\240\02249y\341nq\364"
 105      85416CE6 
 105      87A01234 
ARM GAS  /tmp/ccM7BDTQ.s 			page 8


 105      3979E16E 
 105      71F4
 106 03da 2DF96EE1 		.ascii	"-\371n\341\374\357n\021\221+\357h9\032e\364r\015\322"
 106      FCEF6E11 
 106      912BEF68 
 106      391A65F4 
 106      720DD2
 107 03ed 8B138F87 		.ascii	"\213\023\217\207\377\034r\264Q\213\310X\014jr\273\373"
 107      FF1C72B4 
 107      518BC858 
 107      0C6A72BB 
 107      FB
 108 03fe 7ABBDC58 		.ascii	"z\273\334X_\3471\267\263k\300\215u'\216$\372\372\335"
 108      5FE731B7 
 108      B36BC08D 
 108      75278E24 
 108      FAFADD
 109 0411 54F28DD7 		.ascii	"T\362\215\327^u\351!\231r\373\2231\262\017\244\232b"
 109      5E75E921 
 109      9972FB93 
 109      31B20FA4 
 109      9A62
 110 0423 80470F6C 		.ascii	"\200G\017l\006\350\356\350q\217\366%S\375\356\213m\255"
 110      06E8EEE8 
 110      718FF625 
 110      53FDEE8B 
 110      6DAD
 111 0435 CD7BDD43 		.ascii	"\315{\335C\207\236s\333\016\266\016\354q\373S\207{z"
 111      879E73DB 
 111      0EB60EEC 
 111      71FB5387 
 111      7B7A
 112 0447 3A9BBA61 		.ascii	":\233\272a\377\177 \365]<\373B\353\201\3267\351@\254"
 112      FF7F20F5 
 112      5D3CFB42 
 112      EB81D637 
 112      E940AC
 113 045a 2FD97538 		.ascii	"/\331u8\225\350\355J\022\376_\364% \341"
 113      95E8ED4A 
 113      12FE5FF4 
 113      2520E1
 114              		.text
 115              		.section	.gnu.lto_chVTDoResetI.f341215bbf6e039a,"",%progbits
 116 0000 789C9554 		.ascii	"x\234\225TAh\023A\024\375\177v6\2334m\326\246\007\257"
 116      41681341 
 116      14FD7F76 
 116      369B346D 
 116      D6A607AF 
 117 0014 5EBC58C8 		.ascii	"^\274X\310\"\236D\244\210'\017\275H\013z\022\273\015"
 117      229E44A4 
 117      88270FBD 
 117      480B7A12 
 117      BB0D
 118 0026 CD223165 		.ascii	"\315\"1e\023\213\"\322\215)R\360\222\233\245\236\274"
 118      138B22D2 
 118      8D2952F0 
 118      929BA59E 
ARM GAS  /tmp/ccM7BDTQ.s 			page 9


 118      BC
 119 0037 8A5851A8 		.ascii	"\212XQ\250\301C\255\"\332\"Z=\010A<T<H<\325K\020Q\342"
 119      C143AD22 
 119      DA225A3D 
 119      08413C54 
 119      3C483CD5 
 120 004f 9F9D9DCD 		.ascii	"\237\235\235\315&\251%\035\310\237\317\317\276\367\376"
 120      26A9251D 
 120      C89FCFCF 
 120      BEF7FE
 121 005e FB3BB30C 		.ascii	"\373;\263\014\030t\257\223\364\373\312\001fi\307\030"
 121      1874AF93 
 121      F4FBCA01 
 121      6669C718 
 122 006e 20ABBE07 		.ascii	" \253\276\007(\307\031\323\232\006x\003|\3715\2007\250"
 122      28C719D3 
 122      9A067803 
 122      7CF93580 
 122      37A8
 123 0080 A12EEB5C 		.ascii	"\241.\353\\%:\242H\000a\236i\\\307\371\363\350\363\255"
 123      253AA248 
 123      00619E69 
 123      5CC7F9F3 
 123      E8F3AD
 124 0093 B0F5ED56 		.ascii	"\260\365\355V\353a\365\355\203/\270\302\016j\230G\340"
 124      EB61F5ED 
 124      832FB8C2 
 124      0E6A9847 
 124      E0
 125 00a4 E020E814 		.ascii	"\340 \350\024H\200\202!BB\324\222\"\230\"\014\213ZZ"
 125      48808221 
 125      4242D492 
 125      2298220C 
 125      8B5A5A
 126 00b7 84111188 		.ascii	"\204\021\021\210H\207\005\317\253\036\002\260}\342\011"
 126      488705CF 
 126      AB1E02B0 
 126      7DE209
 127 00c6 8A427012 		.ascii	"\212Bp\022\231\330\265wp\363\363\257'G/\342=\324a\006"
 127      99D8B577 
 127      70F3F3AF 
 127      27472FE2 
 127      3DD46106 
 128 00da F9281C21 		.ascii	"\371(\034!\232\273\260\214\016\262\031\324\316\321."
 128      9ABBB08C 
 128      0EB219D4 
 128      CED12E
 129 00e9 1D4EA1F2 		.ascii	"\035N\241\362*0\037R\012\242\217\302}\317\363\0168\250"
 129      2A301F52 
 129      0AA28FC2 
 129      7DCFF30E 
 129      38A8
 130 00fb 85301E85 		.ascii	"\2050\036\205a\004VM+X\314W\322vWjC*\213\225\037\250"
 130      6104564D 
 130      2B58CC57 
 130      D276576A 
 130      432A8B95 
ARM GAS  /tmp/ccM7BDTQ.s 			page 10


 131 0111 3006A911 		.ascii	"0\006\251\021\322\247:#\213\375\211\023T\352/\255\206"
 131      D2A73A23 
 131      8BFD8913 
 131      54EA2FAD 
 131      86
 132 0122 56137B59 		.ascii	"V\023{Ye\355\2367\037\245\242R\336X\024\224\350\235"
 132      65ED9E37 
 132      1FA5A252 
 132      DE581494 
 132      E89D
 133 0134 0F3520B5 		.ascii	"\0175 \265jm\255d\237c\335S+\331\333 5\340\343j\365"
 133      6A6DAD64 
 133      9F63DD53 
 133      2BD9DB20 
 133      35E0E36A 
 134 0149 D517AC03 		.ascii	"\325\027\254\0039\344 \337]N\363wQ\321\003\325Z\375"
 134      39E420DF 
 134      5D4EF377 
 134      51D103D5 
 134      5AFD
 135 015b E9CF4EF4 		.ascii	"\351\317N\364q\232g\220&\035\214\021Q\331\037\262q\035"
 135      719A6790 
 135      261D8C11 
 135      51D91FB2 
 135      711D
 136 016d 7E7B8B22 		.ascii	"~{\213\"\213\347\375\321\012\232x@\314\203]\017\005"
 136      8BE7FDD1 
 136      0A9A7840 
 136      CC835D0F 
 136      05
 137 017e B045CB0C 		.ascii	"\260E\313\014^}\375\331\246\241\346a\312y\004\022\237"
 137      5E7DFDD9 
 137      A6A1E661 
 137      CA790412 
 137      9F
 138 018f 70DF1AB1 		.ascii	"p\337\032\261`f\033\360\352{9\034\263)\241\3361G\274"
 138      60661BF0 
 138      EA7B391C 
 138      B329A1DE 
 138      3147BC
 139 01a2 5DE52446 		.ascii	"]\345$F4\012\331\261&i\026MC\333\202\312N\243~\313\014"
 139      340AD9B1 
 139      2669164D 
 139      43DB82CA 
 139      4EA37ECB 
 140 01b7 6F8A4CD6 		.ascii	"o\212L\326o7_\322\251\221\334\266:\222as\0036\322\314"
 140      6F375FD2 
 140      A991DCB6 
 140      3A926173 
 140      0336D2CC 
 141 01cb 9E4BB70E 		.ascii	"\236K\267\016&\025%\007\272\352\376\265ZZkp\325\331"
 141      26152507 
 141      BAEAFEB5 
 141      5A5A6B70 
 141      D5D9
 142 01dd B03CED41 		.ascii	"\260<\355AS7\366\355\327\210\334\241\332ZCW\274\351"
 142      5337F6ED 
ARM GAS  /tmp/ccM7BDTQ.s 			page 11


 142      D788DCA1 
 142      DA5A4357 
 142      BCE9
 143 01ef AE5B64FE 		.ascii	"\256[d\376\367\026}\273sB\201F\250\037\202\002l\301"
 143      F7167DBB 
 143      73428146 
 143      A81F8202 
 143      6CC1
 144 0201 C24EA3FA 		.ascii	"\302N\243\372&\325\343\374\317\343\210s\255\313\371"
 144      26D5E3FC 
 144      CFE38873 
 144      ADCBF9
 145 0210 A08DE46B 		.ascii	"\240\215\344kC:'6\007\207\224y\335\377\246|\204\362"
 145      433A2736 
 145      07879479 
 145      DDFFA67C 
 145      84F2
 146 0222 F6DFC312 		.ascii	"\366\337\303\022\256\326\004uC\377\211c\233\261r\205"
 146      AED60475 
 146      43FF8963 
 146      9BB17285 
 147 0232 7CD6B20B 		.ascii	"|\326\262\013\323\327\254\351\354\234e\347\234)\247"
 147      D3D7ACE9 
 147      EC9C65E7 
 147      9C29A7
 148 0241 50B44AEE 		.ascii	"P\264J\356\225\313\227,J\334\222Utm\252\317\22526\214"
 148      95CB972C 
 148      4ADC9255 
 148      746DAACF 
 148      9532368C 
 149 0255 F5F1F86C 		.ascii	"\365\361\370l\301-\025\255Sg\307O\217_\245\007\354\202"
 149      C12D15AD 
 149      5367C74F 
 149      8F5FA507 
 149      EC82
 150 0267 9BBD5072 		.ascii	"\233\275Pr\362Y7\223\203\177\26169\014"
 150      F2593793 
 150      837FB136 
 150      390C
 151              		.text
 152              		.section	.gnu.lto_.symbol_nodes.f341215bbf6e039a,"",%progbits
 153 0000 789C45C8 		.ascii	"x\234E\310\313\011\200@\020\003\320df\3272lu\026\004"
 153      CB098040 
 153      1003D064 
 153      66D7326C 
 153      751604
 154 0013 154F56E0 		.ascii	"\025OV\340ek\021o\332\203\177\254BAqsI^\004\202\200"
 154      656B116F 
 154      DA837FAC 
 154      42417173 
 154      495E0482 
 155 0028 2F32D380 		.ascii	"/2\323\200v\004\314\272\232~\343\263 \013\215\351\225"
 155      7604CCBA 
 155      9A7EE3B3 
 155      200B8DE9 
 155      95
 156 0039 9526893C 		.ascii	"\225&\211<i\3722\004\362\240\271\244\213\346\177\251"
ARM GAS  /tmp/ccM7BDTQ.s 			page 12


 156      69FA3204 
 156      F2A0B9A4 
 156      8BE67FA9 
 157 0049 781465FF 		.ascii	"x\024e\377\264\303RMN5C\034v\252:\304\246\317q\003\345"
 157      B4C3524D 
 157      4E35431C 
 157      76AA3AC4 
 157      A6CF7103 
 158 005e D92622   		.ascii	"\331&\""
 159              		.text
 160              		.section	.gnu.lto_.refs.f341215bbf6e039a,"",%progbits
 161 0000 789C6362 		.ascii	"x\234cb`bPe\200\0006\006FF&F\010fddeb\000\263\200\202"
 161      60625065 
 161      80003606 
 161      46462646 
 161      08666464 
 162 001a 8C2CCC20 		.ascii	"\214,\314 \232\011\210\031\000\013\224\000\\"
 162      9A098819 
 162      000B9400 
 162      5C
 163              		.text
 164              		.section	.gnu.lto_.decls.f341215bbf6e039a,"",%progbits
 165 0000 789CBD5B 		.ascii	"x\234\275[{t\024U\232\257\252\356t\022\022\001utq\317"
 165      7B741455 
 165      9AAFAAEE 
 165      74121201 
 165      757471CF 
 166 0014 EC21EECE 		.ascii	"\354!\356\316\354\361\314\036\015\011\314\210gw\005"
 166      ECF1CC1E 
 166      0D09CC88 
 166      677705
 167 0023 37B8E239 		.ascii	"7\270\3429\303\254'0{<g\377\350):\005\351\235tw\246"
 167      C3AC2730 
 167      7B3C67FF 
 167      E8293A05 
 167      E99D7477 
 168 0038 BA12E02F 		.ascii	"\272\022\340/\213$D\224\021B\202\032\020\221\350\340"
 168      8B244494 
 168      1142821A 
 168      1091E8E0 
 169 0048 63C14183 		.ascii	"c\301A\203\203\204g\271\016\206\221\031\010A\302K$\014"
 169      838467B9 
 169      0E869119 
 169      0841C24B 
 169      240C
 170 005a 46A38E10 		.ascii	"F\243\216\020^\001\345\221\375\356w\253\272\357\255"
 170      5E01E591 
 170      FDEE77AB 
 170      BAEFAD
 171 0069 54755745 		.ascii	"TuWEf\373\234{\373V\325\275\277\373\273\337\367\325"
 171      66FB9C7B 
 171      FB56D5BD 
 171      BFFBBBDF 
 171      F7D5
 172 007b BDDF7D94 		.ascii	"\275\337}\224$HB\277(\010C\360\233\362/\202\360Z\256"
 172      244842BF 
 172      280843F0 
ARM GAS  /tmp/ccM7BDTQ.s 			page 13


 172      9BF22F82 
 172      F05AAE
 173 008e 20040541 		.ascii	" \004\005Ax\020\002\334\026\332\004\372\013AX\017a#"
 173      781002DC 
 173      16DA04FA 
 173      0B41580F 
 173      6123
 174 00a0 841E081F 		.ascii	"\204\036\010\037C\350\205\360g3\337\247\002\377#y\001"
 174      43E885F0 
 174      6733DFA7 
 174      02FF2379 
 174      01
 175 00b1 4A6887B0 		.ascii	"Jh\207\260\0112\364\301\377a\370?\"RL\362,\207<\207"
 175      0932F4C1 
 175      FF61F83F 
 175      22524CF2 
 175      2C873C87 
 176 00c5 EBAD103A 		.ascii	"\353\255\020: l\203\260]\244x\353]pI\375\267\232\270"
 176      206C83B0 
 176      5DA478EB 
 176      5D7049FD 
 176      B79AB8
 177 00d8 A321149A 		.ascii	"\243!\024\232X\004s\012\251\013\202a\253\363(\204c\020"
 177      5804730A 
 177      A90B8261 
 177      ABF32884 
 177      6310
 178 00ea 6E9168FD 		.ascii	"n\221h\375\243\341\377\004<\033\005\241\023\302.\223"
 178      A3E1FF04 
 178      3C1B05A1 
 178      13C22E93 
 179 00fa 07E170CE 		.ascii	"\007\341p\316\344\260\003\356u@\330&P^!\263\3561P\366"
 179      E4B003EE 
 179      7540D826 
 179      505E21B3 
 179      EE3150F6 
 180 010e 7689B67D 		.ascii	"v\211\266}\234D\345@\332\261\037\302\237 \034\204p\300"
 180      9C44E540 
 180      DAB11FC2 
 180      9F201C84 
 180      70C0
 181 0120 81778FC9 		.ascii	"\201w\217\311\267\335\344\273\311\344L\270\356v\220"
 181      B7DDE4BB 
 181      C9E44CB8 
 181      EE7690
 182 012f D1F7017B 		.ascii	"\321\367\001{\203\220\346\232g\362\331ar\2628o3y\023"
 182      8390E69A 
 182      67F2D961 
 182      72B2386F 
 182      337913
 183 0142 CE39663D 		.ascii	"\3169f=\177'Q\275X\374\340O8\346\300)_X\254\353u\372"
 183      7F2751BD 
 183      58FCE04F 
 183      38E6C029 
 183      5F58ACEB 
 184 0158 DA467DFA 		.ascii	"\332F}\372\036\340\366\270(\213\243\363\205\"L\024\346"
 184      1EE0F6B8 
ARM GAS  /tmp/ccM7BDTQ.s 			page 14


 184      288BA3F3 
 184      85224C14 
 184      E6
 185 0169 A319FC50 		.ascii	"\243\031\374P\370\215\2567\365.z\341\016=(\213mb>\200"
 185      F88DAE37 
 185      F52E7AE1 
 185      0E3D288B 
 185      6D623E80 
 186 017d FDB328FC 		.ascii	"\375\263(\374HxC\207\373\272\376\362?\210\302\360\237"
 186      48784387 
 186      FBBAFEF2 
 186      3F88C2F0 
 186      9F
 187 018e 77E08EC6 		.ascii	"w\340\216\306\335\357\211u\272\016\017\326!\370\257"
 187      DDEF8975 
 187      BA0E0FD6 
 187      21F8AF
 188 019d 4441167F 		.ascii	"DA\026\177#\376\3107\322\245'\267?\240\353y\262\370"
 188      23FEC837 
 188      D2A527B7 
 188      3FA0EB79 
 188      B2F8
 189 01af 3AE26C14 		.ascii	":\342l\024y Y\314\315g)\342\265\225\201\240\341c3A^"
 189      792059CC 
 189      CD6729E2 
 189      B59581A0 
 189      E1633341 
 190 01c4 8631C25F 		.ascii	"\2061\302_9\373xa\215\276\266\267\367\322\222]\241\225"
 190      39FB7861 
 190      8DBEB6B7 
 190      F7D2925D 
 190      A195
 191 01d6 BAD1A00F 		.ascii	"\272\321\240\017\015=!\334)<\013r%\315\325EM\026\037"
 191      0D3D21DC 
 191      293C0B72 
 191      25CDD545 
 191      4D161F
 192 01e9 BCC3B1C5 		.ascii	"\274\303\261\305\004\177\203x\247\231\372y\200\326)"
 192      047F8378 
 192      A799FA79 
 192      80D629
 193 01f8 095FD8DA 		.ascii	"\011_\330\332,\010\377(\254#x\372\353z\000\321H\376"
 193      2C08FF28 
 193      AC2378FA 
 193      EB7A00D1 
 193      48FE
 194 020a F5E2789E 		.ascii	"\365\342x\236\352\233\242\304\336 \274z\007\214\033"
 194      EA9BA2C4 
 194      DE20BC7A 
 194      078C1B
 195 0219 1F14362D 		.ascii	"\037\0246-\354\035\032\032\357\235\323[&\247\000Z\234"
 195      EC1D1A1A 
 195      EF9DD35B 
 195      26A7005A 
 195      9C
 196 022a 50203C9D 		.ascii	"P <\235\326\335m\302r\202R\304hq\255h\001|/\255\306"
 196      D6DD6DC2 
ARM GAS  /tmp/ccM7BDTQ.s 			page 15


 196      728252C4 
 196      6871AD68 
 196      017C2FAD 
 197 023f 7567F704 		.ascii	"ug\367\004Q\215\233\304\333\000\346\274\255IYa$\241"
 197      518D9BC4 
 197      DB00E6BC 
 197      AD495961 
 197      24A1
 198 0251 4E224536 		.ascii	"N\"E6CqZ\020\201\365\336\303\335_\327\213\013\321\322"
 198      43715A10 
 198      81F5DEC3 
 198      DD5FD78B 
 198      0BD1D2
 199 0264 C833C126 		.ascii	"\3103\301&)\346w\267\260\026x\033\035\313^\274K_\373"
 199      29E677B7 
 199      B016781B 
 199      1DCB5EBC 
 199      4B5FFB
 200 0277 BF90BF5D 		.ascii	"\277\220\277],\000\334=)\\\247\366\233I\37233\360x["
 200      2C00DC3D 
 200      295CA7F6 
 200      9B49FA33 
 200      33F0785B 
 201 028b F71736C9 		.ascii	"\367\0276\311\026X\227o\260\"\016l\307\376\325&9\372"
 201      1658976F 
 201      B0220E6C 
 201      C7FED526 
 201      39FA
 202 029d 4E1EF182 		.ascii	"N\036\361\202\227\347Nn'!\307)\314\273\332\337\343\325"
 202      97E74E6E 
 202      2721C729 
 202      CCBBDADF 
 202      E3D5
 203 02af 2E8B530A 		.ascii	".\213S\012\030\263\0242w,g\014\011\325m\240XNI\274\272"
 203      18B31432 
 203      772C670C 
 203      09D56DA0 
 203      584E49BC 
 204 02c4 3946B426 		.ascii	"9F\264&7\026\273\305\002\027\225\016{&\011_\372\026"
 204      3716BBC5 
 204      0217950E 
 204      7B26095F 
 204      FA16
 205 02d6 17277E30 		.ascii	"\027'~0\246\213\257\210-\365\372\236\011\330Z\260S/"
 205      A68BAF88 
 205      2DF5FA9E 
 205      09D85AB0 
 205      532F
 206 02e8 80631DE4 		.ascii	"\200c\035\344\357\364c\255W\026\267\210?\204\270C\274"
 206      EFF463AD 
 206      5716B788 
 206      3F84B843 
 206      BC
 207 02f9 1BE26D18 		.ascii	"\033\342m\030\357\300x\027\306\235\020g\0244\201#6g"
 207      EFC07817 
 207      C69D1067 
 207      14348123 
ARM GAS  /tmp/ccM7BDTQ.s 			page 16


 207      3667
 208 030b FE524A22 		.ascii	"\376RJ\"v\303^\0334\017\253DA\340\365(\011\337\330\364"
 208      76C35E1B 
 208      340FAB44 
 208      41E0F528 
 208      09DFD8F4 
 209 031f F303E115 		.ascii	"\363\003\341\025]o\356\275\264\367d\233\270\242^\237"
 209      5D6FEEBD 
 209      B4F7649B 
 209      B8A25E9F 
 210 032f 6E997743 		.ascii	"n\231wC\200\344\333\010=\215\023%\223\020-\254\037T"
 210      80E4DB08 
 210      3D8D1325 
 210      93102DAC 
 210      1F54
 211 0341 A65B56BC 		.ascii	"\246[V\2748K1\344L\213\031\313\237$\257\247dY\316\322"
 211      384B31E4 
 211      4C8B19CB 
 211      9F24AFA7 
 211      6459CED2 
 212 0355 2C450DA6 		.ascii	",E\015\246\306\267I\215\250\266g\263\224\242B\240\275"
 212      C6B7498D 
 212      A8B667B3 
 212      94A242A0 
 212      BD
 213 0366 A831D458 		.ascii	"\2501\324X\277V\324C\251\216t\243\275#\375\243cG\332"
 213      BF56D443 
 213      A98E74A3 
 213      BD23FDA3 
 213      6347DA
 214 0379 B4D77747 		.ascii	"\264\327wGz\330\376F\265\213\005vU\254\0148\251B_\251"
 214      7AD8FE46 
 214      B58B0576 
 214      55AC0C38 
 214      A9425FA9 
 215 038d 4CB7B2EF 		.ascii	"L\267\262\357\003:\262\330\223Y\011\2511\342\031}\321"
 215      033AB2D8 
 215      935909A9 
 215      31E2197D 
 215      D1
 216 039e 5831D5B6 		.ascii	"X1\325\266\036{\333\216:\264\255\251\367\305\343\237"
 216      1E7BDB8E 
 216      3AB4ADA9 
 216      F7C5E39F 
 217 03ae 2C1497D7 		.ascii	",\024\227\327\257\335\243\017\2201\315{\013O\330[HT"
 217      AFDDA30F 
 217      9031CD7B 
 217      0B4FD85B 
 217      4854
 218 03c0 6B6BE191 		.ascii	"kk\341\221\200}8\243YO:Q1\006?\370\265.RASxI8\355\002"
 218      807D38A3 
 218      594F3A51 
 218      31063FF8 
 218      B52E5241 
 219 03da 70CA11E0 		.ascii	"p\312\021\340\012\013\260\001\001\006\\\000N\363\000"
 219      0A0BB001 
 219      01065C00 
ARM GAS  /tmp/ccM7BDTQ.s 			page 17


 219      4EF300
 220 03e9 7F2FB411 		.ascii	"\177/\264\021a\034\356\036\332-6\353 \014\260\225!q"
 220      611CEE1E 
 220      DA2D36EB 
 220      200CB095 
 220      2171
 221 03fb BCD35815 		.ascii	"\274\323X\025\260\0041IH\367\201\227\273\002\330\007"
 221      B0043149 
 221      48F78197 
 221      BB02D807 
 222 040b F6E19077 		.ascii	"\366\341\220w-\220}\310\343`\340\275\011\222\"\375\303"
 222      2D907DC8 
 222      E360E0BD 
 222      099222FD 
 222      C3
 223 041c 86BCE6DD 		.ascii	"\206\274\346\335\213\314!\257\337\303\220\247\033/\366"
 223      8BCC21AF 
 223      DFC390A7 
 223      1B2FF6
 224 042b AC16C9A8 		.ascii	"\254\026\311\250\342Peoj\224\375~\232y\337\227\003\224"
 224      E250656F 
 224      6A94FD7E 
 224      9A79DF97 
 224      0394
 225 043d F95F9079 		.ascii	"\371_\220ys0+s\036F\022^\302\"g\2073\377\250\301d~\326"
 225      73302B73 
 225      1E46125E 
 225      C2226787 
 225      33FFA8C1 
 226 0454 13F383DD 		.ascii	"\023\363\203\335\256\314\247\262\375\271%\362\317M/"
 226      AECCA7B2 
 226      FDB925F2 
 226      CF4D2F
 227 0463 E302127F 		.ascii	"\343\002\022\177\323\231\370\332\251n0\222\260\003\213"
 227      D399F8DA 
 227      A96E3092 
 227      B0038B
 228 0472 0C0EF732 		.ascii	"\014\016\3672>Zh\022\037\364\344e\034j\244^FVg)h\325"
 228      3E5A6812 
 228      1FF4E465 
 228      1C6AA45E 
 228      46566729 
 229 0488 3F2DDD8C 		.ascii	"?-\335\214\206\331E\262x\025\233\260/\273\354y\010I"
 229      86D945B2 
 229      78159BB0 
 229      2FBBEC79 
 229      0849
 230 049a 388C456E 		.ascii	"8\214En\014\227\375'V\023nxj\302\325F\313Q\372\226\016"
 230      0C97FD27 
 230      56136E78 
 230      6AC2D546 
 230      CB51FA96 
 231 04af E229DC91 		.ascii	"\342)\334\2219J\304\363\224-\260~\337`E\034XK'u\224"
 231      394AC4F3 
 231      942DB07E 
 231      DF60451C 
 231      584B2775 
ARM GAS  /tmp/ccM7BDTQ.s 			page 18


 232 04c4 BC4F2476 		.ascii	"\274O$v}\336\177\327\016]\037+\213\215\022\031\224\266"
 232      7DDE7FD7 
 232      0E5D1F2B 
 232      8B8D1219 
 232      94B6
 233 04d6 E4D86712 		.ascii	"\344\330g\022\353D\337S\011I0r<4\304\325C#j\351[N]\016"
 233      EB44DF53 
 233      09493072 
 233      3C34C4D5 
 233      43236AE9 
 234 04ee CB3A436E 		.ascii	"\313:Cn\015\221\204N\254l\211dS\355\2563]\367\266b\323"
 234      0D91844E 
 234      AC6C8964 
 234      53EDAE33 
 234      5DF7B662 
 235 0503 C8A3EC9A 		.ascii	"\310\243\354\232}w\357\363\336\2143dU_\201\325?\025"
 235      7D77EFF3 
 235      DE8C3364 
 235      555F81D5 
 235      3F15
 236 0515 22D537D9 		.ascii	"\"\3257\331\253?~\276\377AZ}\223\247\352O\356_1\274"
 236      AB3F7EBE 
 236      FF415A7D 
 236      93A7EA4F 
 236      EE5F31BC 
 237 0529 7AD761C5 		.ascii	"z\327a\305R\337\231\201{^\302JVH\304\200\016\206\354"
 237      52DF9981 
 237      7B5EC24A 
 237      5648C480 
 237      0E86EC
 238 053c EA9B52C0 		.ascii	"\352\233R\300\326e\272\253\214s\370q\212\375\210\354"
 238      D665BAAB 
 238      8C73F871 
 238      8AFD88EC 
 239 054c 179A694C 		.ascii	"\027\232iLy\243]\327\237\012Y\034z}#\362F|\236N\035"
 239      79A35DD7 
 239      9F0A591C 
 239      7A7D23F2 
 239      467C9E4E 
 240 0561 28D8A75E 		.ascii	"(\330\247^\3002\270\372\027Y\260~\337`<\263A\026\354"
 240      C032B8FA 
 240      1759B07E 
 240      DF603CB3 
 240      4116EC
 241 0574 2F5EC09C 		.ascii	"/^\300\234\234`\023\354\012\0136\340\033\214g\366-\013"
 241      9C6013EC 
 241      0A0B36E0 
 241      1B8C67F6 
 241      2D0B
 242 0586 76D10BD8 		.ascii	"v\321\013\3308wf\327X\260+\276\301xf7X\260k^\300\212"
 242      387766D7 
 242      58B02BBE 
 242      C1786637 
 242      58B06B5E 
 243 059c DC993575 		.ascii	"\334\2315u3`z\256_0\236Y3\013\326\340\005\354\036wf"
 243      33607AAE 
 243      5F309E59 
ARM GAS  /tmp/ccM7BDTQ.s 			page 19


 243      330BD6E0 
 243      05EC1E77 
 244 05b1 2B58B0C5 		.ascii	"+X\260\305\276\301xf\317\261`\277\366\0026\301\235Y"
 244      BEC17866 
 244      CFB160BF 
 244      F60236C1 
 244      9D59
 245 05c3 2B0BD6E4 		.ascii	"+\013\326\344\033\214g\266\212\005[\341\005l\262;\263"
 245      1B8C67B6 
 245      8A055BE1 
 245      056CB23B 
 245      B3
 246 05d4 D52C58AB 		.ascii	"\325,X\253o0\236\331[,\330j/`S\335\231\265\263`/\371"
 246      6F309ED9 
 246      5B2CD86A 
 246      2F6053DD 
 246      99B5B360 
 247 05ea 06E399BD 		.ascii	"\006\343\231\275\303\202\275\354\005l\272;\263\315,"
 247      C382BDEC 
 247      056CBA3B 
 247      B3CD2C
 248 05f9 D83ADF60 		.ascii	"\330:\337`<\263-,\330\353^\300\036sg\266\225\005[\357"
 248      3CB32D2C 
 248      D8EB5EC0 
 248      1E7367B6 
 248      95055BEF 
 249 060d 1B8C67B6 		.ascii	"\033\214g\266\235\005\373\255\027\260\307\335\231\355"
 249      9D05FBAD 
 249      17B0C7DD 
 249      99ED
 250 061b 64C1DA7D 		.ascii	"d\301\332}\203\361\314\272X\260\315^\300~\341\300,\365"
 250      83F1CCBA 
 250      58B0CD5E 
 250      C07EE1C0 
 250      2CF5
 251 062d 732A4786 		.ascii	"s*G\206\351eRj\334\226\204\216\\\313\301\3619F\013i"
 251      E965526A 
 251      DC96848E 
 251      5CCBC1F1 
 251      39460B69 
 252 0641 8C1DB97E 		.ascii	"\214\035\271~=2\256\335\340\221}\326f-\002Qg\365}/\210"
 252      3D32AEDD 
 252      E0917DD6 
 252      662D0251 
 252      67F57D2F 
 253 0656 1906C055 		.ascii	"\031\006\300U\235\214\347\273\3277\230\315\224;\355"
 253      9D8CE7BB 
 253      D73798CD 
 253      943BED
 254 0665 4B7AA60F 		.ascii	"Kz\246\017\334\273\316\030\327\232v\336\362,,\262\222"
 254      DCBBCE18 
 254      D79A76DE 
 254      F22C2CB2 
 254      92
 255 0676 4F3DB526 		.ascii	"O=\265&]\227R\231\365q\343\234\363\312\342\001\211,"
 255      5D975299 
 255      F571E39C 
ARM GAS  /tmp/ccM7BDTQ.s 			page 20


 255      F3CAE201 
 255      892C
 256 0688 4D754BF9 		.ascii	"MuK\371)\0264m\245\206D\"\347\203\271N{\004\010\220"
 256      2916346D 
 256      A5864422 
 256      E783B94E 
 256      7B040890 
 257 069c B9A89B25 		.ascii	"\271\250\233%\354g-\341\210\0271e\030\332Ov\256\376"
 257      EC672DE1 
 257      88173165 
 257      18DA4F76 
 257      AEFE
 258 06ae 1BBDD710 		.ascii	"\033\275\327\020\231\366f\024\016\231 t\231\023\204"
 258      99F66614 
 258      0E992074 
 258      991384
 259 06bd 1E9C209C 		.ascii	"\036\234 \234\314u\334\263\360\200\324\321\370\346?"
 259      CC75DCB3 
 259      F080D4D1 
 259      F8E63F
 260 06cc E134F428 		.ascii	"\3414\364(\002\365\217\030\350\322\223k&#\320\307\010"
 260      02F58F18 
 260      E8D2936B 
 260      2623D0C7 
 260      08
 261 06dd 34600392 		.ascii	"4`\003\222E\373\214E\344g,b~:1\304k\353\246\346\225"
 261      45FB8C45 
 261      E4672C62 
 261      7E3A31C4 
 261      6BEBA6E6 
 262 06f2 846FEDEA 		.ascii	"\204o\355\352\342\232\223\325y\202\011\366\365\345\342"
 262      E29A93D5 
 262      798209F6 
 262      F5E5E2
 263 0701 853ABD75 		.ascii	"\205:\275u\202\037\205\3551\025v\012\305S\227g\027\317"
 263      821F85ED 
 263      3115760A 
 263      C5539767 
 263      17CF
 264 0713 51C99F7C 		.ascii	"Q\311\237|$\341\351<\277\355\270\207oG\363\357\233\375"
 264      24E1E93C 
 264      BFEDB887 
 264      6F47F3EF 
 264      9BFD
 265 0725 B7E388D9 		.ascii	"\267\343\210\331\216\317\260\035\3157\241\035\253|\267"
 265      8ECFB01D 
 265      CD37A11D 
 265      AB7CB7
 266 0734 6302D30E 		.ascii	"c\002\323\0162-\275\324L;\301\333\205\346\314\323R\302"
 266      322DBDD4 
 266      4C3BC1DB 
 266      85E6CCD3 
 266      52C2
 267 0746 E72BE976 		.ascii	"\347+\351vnNh\034\375P,\242\267\263/\362\\\376\220\231"
 267      6E4E681C 
 267      FD502CA2 
 267      B7B32FF2 
ARM GAS  /tmp/ccM7BDTQ.s 			page 21


 267      5CFE9099 
 268 075a CBEBDEE6 		.ascii	"\313\353\336\346\362\003\246\304\316\240\304\332\362"
 268      F203A6C4 
 268      CEA0C4DA 
 268      F2
 269 0767 1CDE304F 		.ascii	"\034\3360OH\035\037\374\376ms\243\362\034B\2756b\250"
 269      481D1FFC 
 269      FE6D73A3 
 269      F21C42BD 
 269      3662A8
 270 077a 4B9DEFD2 		.ascii	"K\235\357\322\227\365\"\002m\034\246\305\220M\211!^"
 270      97F52202 
 270      6D1CA6C5 
 270      904D8921 
 270      5E
 271 078b 8970496A 		.ascii	"\211pIj\272B\226\026\304'\314;\344\"W\370\177/\007#"
 271      BA429616 
 271      C427CC3B 
 271      E42257F8 
 271      7F2F0723 
 272 079f 31D2270A 		.ascii	"1\322'\012\3649\022\247\3275\232\255Q\224*\311\370N"
 272      F43912A7 
 272      D7359AAD 
 272      51942AC9 
 272      F84E
 273 07b1 8875C6A6 		.ascii	"\210u\306\246%\326z\024\256\361\377\341;\302\035\330"
 273      25D67A14 
 273      AEF1FFE1 
 273      3BC21DD8 
 274 07c1 EB7F05C9 		.ascii	"\353\177\005\311\370[ju\327\261A]\3034<"
 274      F85B6A75 
 274      D7B1415D 
 274      C3343C
 275 07d0 A215A48F 		.ascii	"\242\025\244\217G\332\220\324O\022N\333_w_\323M\262"
 275      47DA90D4 
 275      4F124EDB 
 275      5F775FD3 
 275      4DB2
 276 07e2 BE79B9D9 		.ascii	"\276y\271\331\343*\224\265\241{\332\240K\255\365\001"
 276      E32A94B5 
 276      A17BDAA0 
 276      4BADF501 
 277 07f2 B24EF9B9 		.ascii	"\262N\371\271M\026\036\026\263\006\261Hc`\330:\345\237"
 277      4D161E16 
 277      B306B148 
 277      6360D83A 
 277      E59F
 278 0804 AC754AF2 		.ascii	"\254uJ\362\314\303j\026\267N)\213u\222d\342\216T\236"
 278      CCC36A16 
 278      B74E298B 
 278      759264E2 
 278      8E549E
 279 0817 9C0AD304 		.ascii	"\234\012\323\004eqq\2008FO\005\230\2759Ih\314\367+\373"
 279      65717180 
 279      38464F05 
 279      98BD3949 
 279      68CCF72B 
ARM GAS  /tmp/ccM7BDTQ.s 			page 22


 280 082c 2256F6C6 		.ascii	"\"V\366\306\325\275t\215\333Z\265n\262\343Me\235V3\351"
 280      D5BD748D 
 280      DB5AB56E 
 280      B2E34D65 
 280      9D5633E9 
 281 0840 3A41D78D 		.ascii	":A\327\215\346}\350m\322\227\356\005/\3442\314\251\327"
 281      E67DE86D 
 281      D297EE05 
 281      2FE432CC 
 281      A9D7
 282 0852 50306AF0 		.ascii	"P0j\360m\276\301\2128\260\035K\275-\212\353\251\335"
 282      6DBEC18A 
 282      38B01D4B 
 282      BD2D8AEB 
 282      A9DD
 283 0864 84B128E1 		.ascii	"\204\261(\341\015Xo\213\335R\016\255?\360\244i)-\036"
 283      0D586F8B 
 283      DD520EAD 
 283      3FF0A469 
 283      292D1E
 284 0877 2C05069A 		.ascii	",\005\006\232\276|\275\271\320\222\363g)\324\014rv\262"
 284      BE7CBDB9 
 284      D092F367 
 284      29D40C72 
 284      76B2
 285 0889 136B7DFC 		.ascii	"\023k}\374\213?\210\010G\375\3723v\270\254\323\016\036"
 285      8B3F8808 
 285      47FDFA33 
 285      76B8ACD3 
 285      0E1E
 286 089b EE86B267 		.ascii	"\356\206\262g\202?\301\3207\3218\336A\206\332\325\370"
 286      823FC1D0 
 286      37D138DE 
 286      4186DAD5 
 286      F8
 287 08ac 1A0EE6DB 		.ascii	"\032\016\346\333\273$*\031\306\236[\030{~\026\355\371"
 287      BB242A19 
 287      C69E5B18 
 287      7B7E16ED 
 287      F9
 288 08bd B900D971 		.ascii	"\271\000\331qn\305x\025k\333n\243\375\013\001\306Q\277"
 288      6EC57815 
 288      6BDB6EA3 
 288      FD0B01C6 
 288      51BF
 289 08cf E1BBDD45 		.ascii	"\341\273\335E6\355\270U\323\314V\263h\224\007\333s_"
 289      36EDB855 
 289      D3CC56B3 
 289      689407DB 
 289      735F
 290 08e1 82816EE5 		.ascii	"\202\201n\345P\2135\036\321\015\200e\276\021yk>\267"
 290      508B351E 
 290      D10D8065 
 290      BE11796B 
 290      3EB7
 291 08f3 941B8F56 		.ascii	"\224\033\217Vy\201\233\352@\320\351\307\356\337\310"
 291      79819BEA 
ARM GAS  /tmp/ccM7BDTQ.s 			page 23


 291      40D0E9C7 
 291      EEDFC8
 292 0902 A28EF3B1 		.ascii	"\242\216\363\261\205\022QP=\306\2130~\032\343\0171\376"
 292      85125150 
 292      3DC68B30 
 292      7E1AE30F 
 292      31FE
 293 0914 23C6FB30 		.ascii	"#\306\3730>\204q/\306}\030\177\211q\035\252x\011\306"
 293      3E84712F 
 293      C67D187F 
 293      89711DAA 
 293      7809C6
 294 0927 CF60BC0C 		.ascii	"\317`\274\014\343\345\030\267a\374\212\027\003\370\226"
 294      E3E518B7 
 294      61FC8A17 
 294      03F896
 295 0936 3F7861F5 		.ascii	"?xa\365\271\203#\336\033\352I\357\015\311b\203o0\273"
 295      B98323DE 
 295      1BEA49EF 
 295      0DC96283 
 295      6F30BB
 296 0949 4571921C 		.ascii	"Eq\222\034d$y\005\017]|\203G,\326\361\335\370\313\243"
 296      64247905 
 296      0F5D7C83 
 296      472CD6F1 
 296      DDF8CBA3 
 297 095d AC2DCB91 		.ascii	"\254-\313\221u\007\207\272\255\243;\324\274\376\307"
 297      750787BA 
 297      ADA33BD4 
 297      BCFEC7
 298 096c 8EE7AB3F 		.ascii	"\216\347\253?\320\215#t\371\205\254\205H\302\333\276"
 298      D08D2374 
 298      F985AC85 
 298      48C2DBBE 
 299 097c C1785B3D 		.ascii	"\301x[=\331\314\357\345\275\353\005/\303\212\306@7\263"
 299      D9CCEFE5 
 299      BDEB052F 
 299      C38AC640 
 299      37B3
 300 098e A2B1CB37 		.ascii	"\242\261\3137\030On\220\005\353\364\002\3464\357wV\376"
 300      184F6E90 
 300      05EBF402 
 300      E634EF77 
 300      56FE
 301 09a0 5946F9E7 		.ascii	"YF\371\347P\371\347Q\371\257\241\261\277\201\361z\214"
 301      50F9E751 
 301      F9AFA1B1 
 301      BF81F17A 
 301      8C
 302 09b1 DFC47823 		.ascii	"\337\304x#o\024\007FY;\360fe\374FwV7\330\370\235\373"
 302      6F140746 
 302      593BF066 
 302      65FC4677 
 302      5637D8F8 
 303 09c7 D6BB5367 		.ascii	"\326\273Sg\336\273\373\274\221C\317\311a\177~xT\326"
 303      DEBBFBBC 
 303      9143CFC9 
ARM GAS  /tmp/ccM7BDTQ.s 			page 24


 303      617F7E78 
 303      54D6
 304 09d9 ED5FFB60 		.ascii	"\355_\373`\3715\026\331<\314\255\352\276\236:'\347\311"
 304      F93516D9 
 304      3CCCADEA 
 304      BE9E3A27 
 304      E7C9
 305 09eb ADFA863B 		.ascii	"\255\372\206;''\213[\361\330\311f\377n\025\277\327B"
 305      27278B5B 
 305      F1D8C966 
 305      FF6E15BF 
 305      D742
 306 09fd C1B6FB06 		.ascii	"\301\266\373\006\343Mfy7{NN\026wz\301\3130\370\232k"
 306      E34D6679 
 306      377B4E4E 
 306      16777AC1 
 306      CB30F89A 
 307 0a12 EAF4B852 		.ascii	"\352\364\270RC\201\350\023\254(\223\011nf\006\334-8"
 307      4381E813 
 307      AC289309 
 307      6E6606DC 
 307      2D38
 308 0a24 E076A0A9 		.ascii	"\340v\240\251m\305x\033\306\333y\263k*\260\231\035\257"
 308      6DC5781B 
 308      C6DB79B3 
 308      6B2AB099 
 308      1DAF
 309 0a36 64A7B780 		.ascii	"d\247\267\200\225\217nl\357\201\366xu\345\373.\030\324"
 309      958F6E6C 
 309      EF81F678 
 309      75E5FB2E 
 309      18D4
 310 0a48 9537D0E6 		.ascii	"\2257\320\346\236/\360\355\312\277\212E\336\037\356"
 310      9E2FF0ED 
 310      CABF8A45 
 310      DE1FEE
 311 0a57 CAF759C7 		.ascii	"\312\367Y\307=\336\317ns\015\365\306\357Z^M;\210\365"
 311      3DDECF6E 
 311      730DF5C6 
 311      EF5A5E4D 
 311      3B88F5
 312 0a6a A99DE12E 		.ascii	"\251\235\341.\350P\335\206\"n\321ps\212\307Mq\375\337"
 312      E850DD86 
 312      226ED170 
 312      738AC74D 
 312      71FDDF
 313 0a7d 6734B71B 		.ascii	"g4\267\0335\367\001\257'\303\256'\247\372\\\267\277"
 313      35F701AF 
 313      27C3AE27 
 313      A7FA5CB7 
 313      BF
 314 0a8e 74E3700F 		.ascii	"t\343p\0175c\257\232Z\271\363\334\375\250\251\275\250"
 314      3563AF9A 
 314      5AB9F3DC 
 314      FDA8A9BD 
 314      A8
 315 0a9f A9CB7E35 		.ascii	"\251\313~5E\032\265\317\246%\343\202RD\357z8\022\322"
ARM GAS  /tmp/ccM7BDTQ.s 			page 25


 315      451AB5CF 
 315      A625E382 
 315      5244EF7A 
 315      3812D2
 316 0ab2 872EAF9F 		.ascii	"\207.\257\237)\363\3008:e>\020\300\223\200\2057e\312"
 316      29F3C038 
 316      3A653E10 
 316      C0938085 
 316      3765CA
 317 0ac5 DC8430FB 		.ascii	"\334\2040\373n\226\236\3671z\336\217z\356\342\365\374"
 317      6E969EF7 
 317      317ADE8F 
 317      7AEEE2F5 
 317      FC
 318 0ad6 7CA1073D 		.ascii	"|\241\007=;\315\242\234\353\353g\006\245/qP\372\012"
 318      3BCDA29C 
 318      EBEB6706 
 318      A52F7150 
 318      FA0A
 319 0ae8 07A576EC 		.ascii	"\007\245v\354\013va\374!\317`UJpf\005\374Y1<\333\027"
 319      0B7661FC 
 319      21CF6055 
 319      4A706605 
 319      FC59313C 
 320 0afe 489D5EB3 		.ascii	"H\235^\263\235\254\350s!\216g\022\323N\266\255\324&"
 320      9DACE873 
 320      218E6712 
 320      D34EB6AD 
 320      D426
 321 0b10 17F19252 		.ascii	"\027\361\222RG\322\245\320\030\3523\032\203,\276\212"
 321      47D2A5D0 
 321      18EA331A 
 321      832CBE8A 
 322 0b20 ADCCAE5A 		.ascii	"\255\314\256Z\247\361-u\010\345\027i\273\272\372\347"
 322      A7F12D75 
 322      08E51769 
 322      BBBAFAE7 
 323 0b30 A3F17AEC 		.ascii	"\243\361z\354X\216\341\233\360ia\366q\222\303\301\303"
 323      588EE19B 
 323      F06961F6 
 323      7192C3C1 
 323      C3
 324 0b41 8AF637E1 		.ascii	"\212\3667\341\372\261B\3629\304\011O}\325\3201k\010"
 324      FAB142F2 
 324      39C4094F 
 324      7DD5D031 
 324      6B08
 325 0b53 3A8AA63D 		.ascii	":\212\246=\200\024N\214l|\004\274\246\3438\004Q\260"
 325      80144E8C 
 325      6C7C04BC 
 325      A6E33804 
 325      51B0
 326 0b65 8BBEC18A 		.ascii	"\213\276\301\2128\260f\026\354\212\0270\267\301\021"
 326      38B06616 
 326      EC8A1730 
 326      B7C111
 327 0b74 C056B060 		.ascii	"\300V\260`\327}\203\361\314\236c\301\352n\361\000\346"
ARM GAS  /tmp/ccM7BDTQ.s 			page 26


 327      D77D83F1 
 327      CC9E63C1 
 327      EA6EF100 
 327      E6
 328 0b85 E6860258 		.ascii	"\346\206\002X+\013\266\3107\030\317l\025\013\366\224"
 328      2B0BB6C8 
 328      3718CF6C 
 328      150BF694 
 329 0b95 1730B7ED 		.ascii	"\0270\267\355'\000[\315\202-\363\015\3063[\303\202="
 329      27005BCD 
 329      822DF30D 
 329      C6335BC3 
 329      823D
 330 0ba7 EB05ACC8 		.ascii	"\353\005\254\310\235\331[,\330*\337`<\263v\026l\215"
 330      9DD95B2C 
 330      D82ADF60 
 330      3CB37616 
 330      6C8D
 331 0bb9 1730B785 		.ascii	"\0270\267\205+\000{\207\005{\3317\030\317l3\013\366"
 331      2B007B87 
 331      057BD937 
 331      18CF6C33 
 331      0BF6
 332 0bcb AA1730B7 		.ascii	"\252\0270\267U\260\206\205\306\226\377j\222o\025\232"
 332      55B08685 
 332      C696FF6A 
 332      926F159A 
 333 0bdb CC2E85A2 		.ascii	"\314.\205\242:zf\344#\266t62\266\271d\223\305\253\201"
 333      3A7A66E4 
 333      23B67436 
 333      32B6B964 
 333      93C5AB81 
 334 0bef 5B31C56D 		.ascii	"[1\305m0`\016\267N\367Z \275\253Z\230\237N\244\017W"
 334      30600EB7 
 334      4EF75A20 
 334      BDAB5A98 
 334      9F4EA40F 
 335 0c04 B3B9C814 		.ascii	"\263\271\310\024\324\336lG7\322m\301\016\204\270\225"
 335      D4DE6C47 
 335      37D26DC1 
 335      0E84B895 
 336 0c14 15E26FBD 		.ascii	"\025\342o\275\010q\252;\330v\026l\223\0270\267\323!"
 336      0871AA3B 
 336      D876166C 
 336      931730B7 
 336      D321
 337 0c26 00B69305 		.ascii	"\000\266\223\005{\3277\030\317\254\213\005\333\356\005"
 337      7BD73718 
 337      CFAC8B05 
 337      DBEE05
 338 0c35 CCED7408 		.ascii	"\314\355t\010\200u\263`\273|\203\261\314\026\032\037"
 338      8075B360 
 338      BB7C83B1 
 338      CC161A1F 
 339 0c45 A50D8F9C 		.ascii	"\245\015\217\234Z\346,\217[\237H\031\036\315\306X\236"
 339      5AE62C8F 
 339      5B9F4819 
ARM GAS  /tmp/ccM7BDTQ.s 			page 27


 339      1ECDC658 
 339      9E
 340 0c56 2D9B2C3E 		.ascii	"-\233,>\035\364kxK\202\316\206\307\356\022\247sA\263"
 340      1DF46B78 
 340      4B82CE86 
 340      C7EE12A7 
 340      7341B3
 341 0c69 77DB9BCD 		.ascii	"w\333\233\315\2210\223N\347X\234~\354@-\213\237\240"
 341      9130934E 
 341      E7589C7E 
 341      EC402D8B 
 341      9FA0
 342 0c7b 7F76127D 		.ascii	"\177v\022}\244S\030\237\306\270\017\343\3171\376\002"
 342      A453189F 
 342      C6B80FE3 
 342      CF31FE02 
 343 0c8b E3AF30FE 		.ascii	"\343\2570\376\032\343\263\030\237\303\370\002\306\227"
 343      1AE3B318 
 343      9FC3F802 
 343      C697
 344 0c99 30BE8CF1 		.ascii	"0\276\214\3617\030\337\300X\017\342J\031\306\015\030"
 344      3718DFC0 
 344      580FE24A 
 344      19C60D18 
 345 0ca9 3762BC38 		.ascii	"7b\2748\310\370c6O\351X\006O\351\231\240\233\177u\""
 345      C8F86336 
 345      4FE95806 
 345      4FE999A0 
 345      9B7F7522 
 346 0cbd C3574F4B 		.ascii	"\303WOK\323\245\310g\014\306@\357;g\316\215\267\276"
 346      D3A5C867 
 346      0CC640EF 
 346      3B67CE8D 
 346      B7BE
 347 0ccf 27BCDBF6 		.ascii	"'\274\333\366AF\233\350\256\273\246\340\360\017\012"
 347      41469BE8 
 347      AEBBA6E0 
 347      F00F0A
 348 0cde 978EE6BD 		.ascii	"\227\216\346\275%\363c\221:\275\375u=\337\372\204H\026"
 348      25F36391 
 348      3ABDFD75 
 348      3DDFFA84 
 348      4816
 349 0cf0 97059D3F 		.ascii	"\227\005\235?11\361\226\007\207}n\001<[.\274w\327\006"
 349      3131F196 
 349      07877D6E 
 349      013C5B2E 
 349      BC77D706 
 350 0d04 724A56BF 		.ascii	"rJV\2771\364\304\302\006\321\372h\343\224\255N\363\273"
 350      31F4C4C2 
 350      06D1FA68 
 350      E394AD4E 
 350      F3BB
 351 0d16 96E3E9AF 		.ascii	"\226\343\351\257\204\256`\216\026\227JS_6\231\337\265"
 351      84AE608E 
 351      16974A53 
 351      5F3699DF 
ARM GAS  /tmp/ccM7BDTQ.s 			page 28


 351      B5
 352 0d27 1CD51F1B 		.ascii	"\034\325\037\033\227\372\254\205\024\342,f\205\0237"
 352      97FAAC85 
 352      14E22C66 
 352      851337
 353 0d36 E39AF9ED 		.ascii	"\343\232\371\355\343K\306X\213\326ugZ\207-Z\262\370"
 353      E34BC658 
 353      8BD67567 
 353      5A872D5A 
 353      B2F8
 354 0d48 5C902C2D 		.ascii	"\\\220,-\264\216\204V\253\235\326J\236\226\315 6d0\210"
 354      B48E8456 
 354      AB9DD64A 
 354      9E96CD20 
 354      36643088 
 355 0d5c D5768330 		.ascii	"\325v\2030>b\033C\277ki\036\343\250W\235\377P\364E;"
 355      3E621B43 
 355      BF6B691E 
 355      E3A8579D 
 355      FF50F445 
 356 0d71 AB353C2B 		.ascii	"\2535<+arqe\"\246\024G\022\025\013\212+\224\332\342"
 356      61727165 
 356      22A61447 
 356      12150B8A 
 356      2B94DAE2 
 357 0d85 48657476 		.ascii	"Hetv4\221,\326\324\232\370/\213!\241j\305\321x\244\252"
 357      34912CD6 
 357      D49AF82F 
 357      8B21A16A 
 357      C5D178A4 
 358 0d9a A6023255 		.ascii	"\246\0022U&\027$\265\005\325J\362\276J!\237\244\243"
 358      261724B5 
 358      05D54AF2 
 358      BE4A219F 
 358      A4A3
 359 0dac 3125AC85 		.ascii	"1%\254\205\036\371\331\317\213\312\204\037\024\327$"
 359      1EF9D9CF 
 359      8BCA841F 
 359      14D724
 360 0dbb D562598D 		.ascii	"\325bY\215\335\033O\304\225{\025yv4U2\251UD\343\032"
 360      DD1B4FC4 
 360      957B1579 
 360      76345532 
 360      A95544E3 
 361 0dd0 94CAAB81 		.ascii	"\224\312\253\201\377\211\245amR\206\3341\031X\304\225"
 361      FF89A561 
 361      6D5286DC 
 361      311958C4 
 361      95
 362 0de1 E2708532 		.ascii	"\342p\2052G\256\251\322\302V\235\243\302a\253\374}\036"
 362      47AEA9D2 
 362      C2569DA3 
 362      C261ABFC 
 362      7D1E
 363 0df3 7827D508 		.ascii	"x'\325\010\334\257\325\356\213\010y\341Z-\034\215G\265"
 363      DCAFD5EE 
 363      8B0879E1 
ARM GAS  /tmp/ccM7BDTQ.s 			page 29


 363      5A2D1C8D 
 363      47B5
 364 0e05 31B55155 		.ascii	"1\265QU\253\221\253\302\204\273\032\326\306F*\303\334"
 364      AB91ABC2 
 364      84BB1AD6 
 364      C6462AC3 
 364      DC
 365 0e16 AD49FE04 		.ascii	"\255I\376\004\022\251\254\000b\271\200\036W\346k\344"
 365      12A9AC00 
 365      62B9801E 
 365      57E66BE4 
 366 0e26 BF5A556A 		.ascii	"\277ZUj\363\340\277B\251\322dH\314\251\211G\302\370"
 366      F3E0BF42 
 366      A9D26448 
 366      CCA98947 
 366      C2F8
 367 0e38 84A44224 		.ascii	"\204\244B$\207\254\216\212T\376\347\254i\211\231\212"
 367      87AC8E8A 
 367      54FEE7AC 
 367      6989998A 
 368 0e48 F668A056 		.ascii	"\366h\240V\253\316\201\314\362\202\020\315\034\200\347"
 368      ABCE81CC 
 368      F28210CD 
 368      1C80E7
 369 0e57 85F479B9 		.ascii	"\205\364y\271\222\204\034%\331(U\312U\214\250\211\240"
 369      92841C25 
 369      D92855CA 
 369      558CA889 
 369      A0
 370 0e68 921A403F 		.ascii	"\222\032@?T\005\362-\204\244&\253\364\242\200\\$\252"
 370      5405F22D 
 370      84A426AB 
 370      F4A2805C 
 370      24AA
 371 0e7a 691A5A4E 		.ascii	"i\032ZNt\250\304\302Z~*]\250*r\305\202pU4\011b\277\005"
 371      74A8C4C2 
 371      5A7E2A5D 
 371      A82A72C5 
 371      82705534 
 372 0e92 6EA7AFC7 		.ascii	"n\247\257\307h\225\344\"\031\376U\215R\243P\321q\267"
 372      6895E422 
 372      19FE558D 
 372      52A350D1 
 372      71B7
 373 0ea4 F2E81585 		.ascii	"\362\350\025\205\243\351P5\312\005\376\210X\246{\220"
 373      A3E95035 
 373      CA05FE88 
 373      58A67B90 
 374 0eb4 6D7542D5 		.ascii	"muB\325\222\305\017\225\317(\2331\037r\306\252\243U"
 374      92C50F95 
 374      CF289B31 
 374      1F72C6AA 
 374      A355
 375 0ec6 8A9A2C7E 		.ascii	"\212\232,~\244\254\014\262[\206\220\253U\253\321D\230"
 375      A4AC0CB2 
 375      5B8690AB 
 375      55ABD144 
ARM GAS  /tmp/ccM7BDTQ.s 			page 30


 375      98
 376 0ed7 E24613B9 		.ascii	"\342F\023\271\221D\\\203j\036\360\215_\031I\250\012"
 376      91445C83 
 376      6A1EF08D 
 376      5F1949A8 
 376      0A
 377 0ee8 001690DB 		.ascii	"\000\026\220\333` ZD\233\377\257#C\011\327\336\037#"
 377      60205A44 
 377      9BFFAF23 
 377      4309D7DE 
 377      1F23
 378 0efa 16AE2A73 		.ascii	"\026\256*sA\272a-\220,\371\011\204\373!L\206\360@ Y"
 378      41BA612D 
 378      902CF909 
 378      84FB214C 
 378      86F04020 
 379 0f0f 3A014209 		.ascii	":\001B\011\204R\010\023!L\202\360c\010\220\257\024\362"
 379      84520813 
 379      214C82F0 
 379      630890AF 
 379      14F2
 380 0f21 9542BE52 		.ascii	"\225B\276R\3107\021\362M,\221\324I\222\372cI\375\211"
 380      C83711F2 
 380      4D2C91D4 
 380      4992FA63 
 380      49FD89
 381 0f34 A4DE2FA9 		.ascii	"\244\336/\251\223%\365\201\200Z2\001B\211T\245\302\337"
 381      9325F581 
 381      805A3201 
 381      428954A5 
 381      C2DF
 382 0f46 C49CEA30 		.ascii	"\304\234\3520\260\315%\022\236\247\250\360\237\250\252"
 382      B0CD2512 
 382      9EA7A8F0 
 382      9FA8AA
 383 0f55 50D460A4 		.ascii	"P\324`\244RV\211\330\345\030($\251\311\032\250*\227"
 383      525689D8 
 383      E5182824 
 383      A9C91AA8 
 383      2A97
 384 0f67 BC369341 		.ascii	"\2746\223A1\364\005\202\024d\307g\271Z,Q\241\340\365"
 384      31F40582 
 384      1464C767 
 384      B95A2C51 
 384      A1E0F5
 385 0f7a 9C2A796E 		.ascii	"\234*yn2WS\2259I\224,I\344\304\222s\341\241\371\322"
 385      32575395 
 385      3949942C 
 385      49E4C492 
 385      73E1A1F9 
 386 0f8f 41713315 		.ascii	"Aq3\025R+\026\300\243<e~T\003A)\241"
 386      522B16C0 
 386      A33C657E 
 386      54034129 
 386      A1
 387 0fa0 795A62F6 		.ascii	"yZb\366\177W\027(\265J\\\213\311\311_B\026e\036I\004"
 387      7F571728 
ARM GAS  /tmp/ccM7BDTQ.s 			page 31


 387      B54A5C8B 
 387      C9C95F42 
 387      16651E49 
 388 0fb5 AAC335A3 		.ascii	"\252\3035\243-3\241f5\2061\034r'\277:<O\216j\321\370"
 388      2D33A166 
 388      3586311C 
 388      7227BF3A 
 388      3C4F8E6A 
 389 0fcb DC51D561 		.ascii	"\334Q\325a@Ec\312\301$\334P\252\2258\364\036ssb5\240"
 389      404563CA 
 389      C124DC50 
 389      AA9538F4 
 389      1E737362 
 390 0fe1 E389BE5E 		.ascii	"\343\211\276^\317\2306\237XK\214\332'\374'\346\305A"
 390      CF98369F 
 390      584B8CDA 
 390      27FC27E6 
 390      C541
 391 0ff3 5488040C 		.ascii	"T\210\004\014ch\234P=\344#DF"
 391      63689C50 
 391      3DE42344 
 391      46
 392 1000 9146CB55 		.ascii	"\221F\313UhRp\263:\221\250\312Ui\331\220\212\226\226"
 392      685270B3 
 392      3A91A8CA 
 392      5569D990 
 392      8A9696
 393 1013 A3A2CC55 		.ascii	"\243\242\314US\346*\225y>\334\255QUhz\216Jp\356\340"
 393      53E62A95 
 393      793EDCAD 
 393      5155687A 
 393      8E4A70EE 
 394 1028 7A14ABD9 		.ascii	"z\024\253\331w\332\273\032\372\240\000z\204*9\251\221"
 394      77DABB1A 
 394      FAA0007A 
 394      842A39A9 
 394      91
 395 1039 5BD00390 		.ascii	"[\320\003\220[\243\315\367\262B\231]3\227\312\213\275"
 395      5BA3CDF7 
 395      B242995D 
 395      3397CA8B 
 395      BD
 396 104a 935F2DC7 		.ascii	"\223_-\307\243\021\"\236@\305\354\271\245\276$\242\021"
 396      A311229E 
 396      40C5ECB9 
 396      A5BE24A2 
 396      11
 397 105b 1B1DABC5 		.ascii	"\033\035\253\305\302\021\271*:[\225\265h\"\016\012V"
 397      C211B92A 
 397      3A5B95B5 
 397      68220E0A 
 397      56
 398 106c B5481C28 		.ascii	"\265H\034(\206\022s\346@\217#i1)R\371\357^\272\035\372"
 398      861273E6 
 398      408F2369 
 398      312952F9 
 398      EF5EBA1D 
ARM GAS  /tmp/ccM7BDTQ.s 			page 32


 399 1081 22CC9C35 		.ascii	"\"\314\2345cbi\361O\177:\255x\326\2433jK\240\023\212"
 399      636269F1 
 399      4F7F3AAD 
 399      78D6A333 
 399      6A4BA013 
 400 1096 112B8992 		.ascii	"\021+\211\222\312\012R\027\360N\224\225\227@(\015\316"
 400      CA0A5217 
 400      F04E9495 
 400      9740280D 
 400      CE
 401 10a7 9C51561E 		.ascii	"\234QV\036\234\366\350\303\345\322\314\362\300\303\217"
 401      9CF6E8C3 
 401      E5D2CCF2 
 401      C0C38F
 402 10b6 94E79495 		.ascii	"\224\347\224\225\315(/\301\2704XV\366py\240\354g\263"
 402      CD282FC1 
 402      B8345856 
 402      F67079A0 
 402      EC67B3
 403 10c9 028FCD2C 		.ascii	"\002\217\315,\013<T^\036(/\203k(\360o\323f\225\007\246"
 403      0B3C545E 
 403      1E282F83 
 403      6B28F06F 
 403      D3669507 
 404 10de 9192331E 		.ascii	"\221\2223\036*\227\376\203\226\232\010\371\037//\373"
 404      2A97FE83 
 404      969A08F9 
 404      1F2F2FFB 
 405 10ee 2E64C355 		.ascii	".d\303UU\244\027\277\215\246\302s\025-\034I\324@\227"
 405      55A417BF 
 405      8DA6C273 
 405      152D1C49 
 405      D44097
 406 1101 A24E1961 		.ascii	"\242N\031a_\200\372\005\310;\261_\241cM\222t\303a\231"
 406      5F80FA05 
 406      C83BB15F 
 406      A1634D92 
 406      74C36199 
 407 1115 F4BD4172 		.ascii	"\364\275Ar\347{\3543\305|r\007W QM\357\376\037\307\357"
 407      E77BEC33 
 407      C57C7207 
 407      5720514D 
 407      EFFE1FC7 
 408 112a B4AB     		.ascii	"\264\253"
 409              		.text
 410              		.section	.gnu.lto_.symtab.f341215bbf6e039a,"",%progbits
 411 0000 5F76745F 		.ascii	"_vt_init\000\000\000\000\000\000\000\000\000\000\000"
 411      696E6974 
 411      00000000 
 411      00000000 
 411      000000
 412 0013 00AB0000 		.ascii	"\000\253\000\000\000chVTDoSetI\000\000\000\000\000\000"
 412      00636856 
 412      54446F53 
 412      65744900 
 412      00000000 
 413 0028 00000000 		.ascii	"\000\000\000\000\000\000\257\000\000\000chVTDoReset"
ARM GAS  /tmp/ccM7BDTQ.s 			page 33


 413      0000AF00 
 413      00006368 
 413      5654446F 
 413      52657365 
 414 003d 49000000 		.ascii	"I\000\000\000\000\000\000\000\000\000\000\000\000\326"
 414      00000000 
 414      00000000 
 414      00D6
 415 004b 00000063 		.ascii	"\000\000\000ch\000\000\002\000\000\000\000\000\000\000"
 415      68000002 
 415      00000000 
 415      000000
 416 005a 0000E400 		.ascii	"\000\000\344\000\000\000stSetAlarm\000\000\002\000\000"
 416      00007374 
 416      53657441 
 416      6C61726D 
 416      00000200 
 417 006f 00000000 		.ascii	"\000\000\000\000\000\000\000\334\000\000\000stStart"
 417      000000DC 
 417      00000073 
 417      74537461 
 417      7274
 418 0081 416C6172 		.ascii	"Alarm\000\000\002\000\000\000\000\000\000\000\000\000"
 418      6D000002 
 418      00000000 
 418      00000000 
 418      00
 419 0092 E0000000 		.ascii	"\340\000\000\000stStopAlarm\000\000\002\000\000\000"
 419      73745374 
 419      6F70416C 
 419      61726D00 
 419      00020000 
 420 00a7 00000000 		.ascii	"\000\000\000\000\000\000\342\000\000\000"
 420      0000E200 
 420      0000
 421              		.text
 422              		.section	.gnu.lto_.opts,"",%progbits
 423 0000 272D6D63 		.ascii	"'-mcpu=cortex-m4' '-mfloat-abi=hard' '-mfpu=fpv4-sp"
 423      70753D63 
 423      6F727465 
 423      782D6D34 
 423      2720272D 
 424 0033 2D643136 		.ascii	"-d16' '-mno-thumb-interwork' '-mthumb' '-O2' '-fomi"
 424      2720272D 
 424      6D6E6F2D 
 424      7468756D 
 424      622D696E 
 425 0066 742D6672 		.ascii	"t-frame-pointer' '-falign-functions=16' '-ffunction"
 425      616D652D 
 425      706F696E 
 425      74657227 
 425      20272D66 
 426 0099 2D736563 		.ascii	"-sections' '-fdata-sections' '-fno-common' '-flto' "
 426      74696F6E 
 426      73272027 
 426      2D666461 
 426      74612D73 
ARM GAS  /tmp/ccM7BDTQ.s 			page 34


 427 00cc 272D6673 		.ascii	"'-fsingle-precision-constant'\000"
 427      696E676C 
 427      652D7072 
 427      65636973 
 427      696F6E2D 
 428              		.text
 429              		.section	.text._vt_init,"ax",%progbits
 430              		.align	2
 431              		.p2align 4,,15
 432              		.global	_vt_init
 433              		.thumb
 434              		.thumb_func
 435              		.type	_vt_init, %function
 436              	_vt_init:
 437              		@ args = 0, pretend = 0, frame = 0
 438              		@ frame_needed = 0, uses_anonymous_args = 0
 439              		@ link register save eliminated.
 440 0000 054B     		ldr	r3, .L2
 441 0002 4FF0FF30 		mov	r0, #-1
 442 0006 03F11C02 		add	r2, r3, #28
 443 000a 0021     		movs	r1, #0
 444 000c 5862     		str	r0, [r3, #36]
 445 000e 9962     		str	r1, [r3, #40]
 446 0010 1A62     		str	r2, [r3, #32]
 447 0012 DA61     		str	r2, [r3, #28]
 448 0014 7047     		bx	lr
 449              	.L3:
 450 0016 00BF     		.align	2
 451              	.L2:
 452 0018 00000000 		.word	ch
 453              		.size	_vt_init, .-_vt_init
 454 001c AFF30080 		.section	.text.chVTDoSetI,"ax",%progbits
 455              		.align	2
 456              		.p2align 4,,15
 457              		.global	chVTDoSetI
 458              		.thumb
 459              		.thumb_func
 460              		.type	chVTDoSetI, %function
 461              	chVTDoSetI:
 462              		@ args = 0, pretend = 0, frame = 0
 463              		@ frame_needed = 0, uses_anonymous_args = 0
 464 0000 F8B5     		push	{r3, r4, r5, r6, r7, lr}
 465 0002 1A4F     		ldr	r7, .L17
 466 0004 BC46     		mov	ip, r7
 467 0006 0129     		cmp	r1, #1
 468 0008 8CBF     		ite	hi
 469 000a 0D46     		movhi	r5, r1
 470 000c 0225     		movls	r5, #2
 471 000e 5CF81C4F 		ldr	r4, [ip, #28]!
 472 0012 0361     		str	r3, [r0, #16]
 473 0014 4FF08043 		mov	r3, #1073741824
 474 0018 6445     		cmp	r4, ip
 475 001a C260     		str	r2, [r0, #12]
 476 001c 0646     		mov	r6, r0
 477 001e 5A6A     		ldr	r2, [r3, #36]
 478 0020 1DD0     		beq	.L14
 479 0022 B86A     		ldr	r0, [r7, #40]
ARM GAS  /tmp/ccM7BDTQ.s 			page 35


 480 0024 A368     		ldr	r3, [r4, #8]
 481 0026 121A     		subs	r2, r2, r0
 482 0028 1544     		add	r5, r5, r2
 483 002a 9D42     		cmp	r5, r3
 484 002c 03D2     		bcs	.L12
 485 002e 11E0     		b	.L16
 486              	.L10:
 487 0030 2468     		ldr	r4, [r4]
 488 0032 ED1A     		subs	r5, r5, r3
 489 0034 A368     		ldr	r3, [r4, #8]
 490              	.L12:
 491 0036 AB42     		cmp	r3, r5
 492 0038 FAD3     		bcc	.L10
 493 003a 6368     		ldr	r3, [r4, #4]
 494 003c 7360     		str	r3, [r6, #4]
 495 003e 3460     		str	r4, [r6]
 496 0040 6660     		str	r6, [r4, #4]
 497 0042 1E60     		str	r6, [r3]
 498 0044 B560     		str	r5, [r6, #8]
 499 0046 A368     		ldr	r3, [r4, #8]
 500 0048 4FF0FF32 		mov	r2, #-1
 501 004c 5D1B     		subs	r5, r3, r5
 502 004e A560     		str	r5, [r4, #8]
 503 0050 7A62     		str	r2, [r7, #36]
 504 0052 F8BD     		pop	{r3, r4, r5, r6, r7, pc}
 505              	.L16:
 506 0054 2844     		add	r0, r0, r5
 507 0056 FFF7FEFF 		bl	stSetAlarm
 508 005a A368     		ldr	r3, [r4, #8]
 509 005c EBE7     		b	.L12
 510              	.L14:
 511 005e A818     		adds	r0, r5, r2
 512 0060 BA62     		str	r2, [r7, #40]
 513 0062 FFF7FEFF 		bl	stStartAlarm
 514 0066 7B6A     		ldr	r3, [r7, #36]
 515 0068 E5E7     		b	.L12
 516              	.L18:
 517 006a 00BF     		.align	2
 518              	.L17:
 519 006c 00000000 		.word	ch
 520              		.size	chVTDoSetI, .-chVTDoSetI
 521              		.section	.text.chVTDoResetI,"ax",%progbits
 522              		.align	2
 523              		.p2align 4,,15
 524              		.global	chVTDoResetI
 525              		.thumb
 526              		.thumb_func
 527              		.type	chVTDoResetI, %function
 528              	chVTDoResetI:
 529              		@ args = 0, pretend = 0, frame = 0
 530              		@ frame_needed = 0, uses_anonymous_args = 0
 531              		@ link register save eliminated.
 532 0000 0268     		ldr	r2, [r0]
 533 0002 8368     		ldr	r3, [r0, #8]
 534 0004 0E49     		ldr	r1, .L22
 535 0006 30B4     		push	{r4, r5}
 536 0008 9568     		ldr	r5, [r2, #8]
ARM GAS  /tmp/ccM7BDTQ.s 			page 36


 537 000a 4468     		ldr	r4, [r0, #4]
 538 000c 1D44     		add	r5, r5, r3
 539 000e 0B46     		mov	r3, r1
 540 0010 9560     		str	r5, [r2, #8]
 541 0012 2260     		str	r2, [r4]
 542 0014 0568     		ldr	r5, [r0]
 543 0016 53F81C2F 		ldr	r2, [r3, #28]!
 544 001a 6C60     		str	r4, [r5, #4]
 545 001c 9A42     		cmp	r2, r3
 546 001e 4FF00005 		mov	r5, #0
 547 0022 4FF0FF34 		mov	r4, #-1
 548 0026 C560     		str	r5, [r0, #12]
 549 0028 4C62     		str	r4, [r1, #36]
 550 002a 05D0     		beq	.L21
 551 002c 9068     		ldr	r0, [r2, #8]
 552 002e 8B6A     		ldr	r3, [r1, #40]
 553 0030 30BC     		pop	{r4, r5}
 554 0032 1844     		add	r0, r0, r3
 555 0034 FFF7FEBF 		b	stSetAlarm
 556              	.L21:
 557 0038 30BC     		pop	{r4, r5}
 558 003a FFF7FEBF 		b	stStopAlarm
 559              	.L23:
 560 003e 00BF     		.align	2
 561              	.L22:
 562 0040 00000000 		.word	ch
 563              		.size	chVTDoResetI, .-chVTDoResetI
 564              		.comm	__gnu_lto_v1,1,1
 565 0044 AFF30080 		.ident	"GCC: (GNU Tools for ARM Embedded Processors) 4.8.4 20140526 (release) [ARM/embedded-4_8-br
 565      AFF30080 
 565      AFF30080 
ARM GAS  /tmp/ccM7BDTQ.s 			page 37

