ARM GAS  /tmp/ccEODGzf.s 			page 1


   1              		.syntax unified
   2              		.cpu cortex-m4
   3              		.eabi_attribute 27, 3
   4              		.eabi_attribute 28, 1
   5              		.fpu fpv4-sp-d16
   6              		.eabi_attribute 20, 1
   7              		.eabi_attribute 21, 1
   8              		.eabi_attribute 23, 3
   9              		.eabi_attribute 24, 1
  10              		.eabi_attribute 25, 1
  11              		.eabi_attribute 26, 1
  12              		.eabi_attribute 30, 2
  13              		.eabi_attribute 34, 1
  14              		.eabi_attribute 18, 4
  15              		.thumb
  16              		.file	"crt0.c"
  17              		.section	.gnu.lto_.jmpfuncs.b19053d9ff620abf,"",%progbits
  18 0000 789C6362 		.ascii	"x\234cb`b\300\006\304\2404\013\003\003#P\0113\204W\017"
  18      6062C006 
  18      C4A0340B 
  18      03032350 
  18      09338457 
  19 0015 C5000A4C 		.ascii	"\305\000\012L\001#"
  19      0123
  20              		.text
  21              		.section	.gnu.lto_.inline.b19053d9ff620abf,"",%progbits
  22 0000 789C6362 		.ascii	"x\234cb`b\300\0062\2414\013\003\0033\023#X\021\333\002"
  22      6062C006 
  22      32A1340B 
  22      03033313 
  22      235811DB 
  23 0015 79B05A46 		.ascii	"y\260ZF\014\021& \204\210\260@\214cf0\370\002\324\311"
  23      0C112620 
  23      8488B040 
  23      8C636630 
  23      F802D4C9 
  24 0029 E4B1E6B1 		.ascii	"\344\261\346\261\022L\214\221\013\223`\346g\204\022"
  24      124C8C91 
  24      0B9360E6 
  24      678412
  25 0038 0C004EBC 		.ascii	"\014\000N\274\005\234"
  25      059C
  26              		.text
  27              		.section	.gnu.lto_.pureconst.b19053d9ff620abf,"",%progbits
  28 0000 789C6362 		.ascii	"x\234cb`b\340d\200\000\026\006\011F\011&\023f3\000\003"
  28      6062E064 
  28      80001606 
  28      09460926 
  28      13663300 
  29 0015 2800B2   		.ascii	"(\000\262"
  30              		.text
  31              		.section	.gnu.lto___early_init.b19053d9ff620abf,"",%progbits
  32 0000 789C6362 		.ascii	"x\234cb`b@\007\222@\034\000\304\336@\314\310\314\300"
  32      60624007 
  32      92401C00 
  32      C4DE40CC 
  32      C8CCC0
ARM GAS  /tmp/ccEODGzf.s 			page 2


  33 0013 C834E11C 		.ascii	"\3104\341\034\003C#\007\023##\210\301\300\310P\317\304"
  33      03432307 
  33      13232388 
  33      C1C0C850 
  33      CFC4
  34 0025 581FC908 		.ascii	"X\037\311\010V\273\236\351\300\203\377\377\327M;?G\002"
  34      56BB9EE9 
  34      C083FFFF 
  34      D74D3B3F 
  34      4702
  35 0037 64102B43 		.ascii	"d\020+CKC\303\004\005\006\206d\260t\010\220\004\351"
  35      4B43C304 
  35      05068664 
  35      B0740890 
  35      04E9
  36 0049 09656402 		.ascii	"\011ed\002\321\314\027\031\030\023\031\0272\262\302"
  36      D1CC1719 
  36      18131917 
  36      32B2C2
  37 0058 AD0A6164 		.ascii	"\255\012ad\004I\200\264z\352g\344\347\246\352'\347\247"
  37      044980B4 
  37      7AEA67E4 
  37      E7A6EA27 
  37      E7A7
  38 006a 54EAA7A4 		.ascii	"T\352\247\244\226\351'gd&e\346\027\353\227\024\225\346"
  38      96E92767 
  38      642665E6 
  38      17EB9714 
  38      95E6
  39 007c 65EB0319 		.ascii	"e\353\003\031\311\371\271\271\371y\372\005\371E%\305"
  39      C9F9B9B9 
  39      F979FA05 
  39      F94525C5 
  40 008c FA8E41BE 		.ascii	"\372\216A\276\316\276\025 \261\202\314\234\324\242b"
  40      CEBE1520 
  40      B182CC9C 
  40      D4A262
  41 009b 7D776767 		.ascii	"}wgg\375\344\242\022\003\275d\006\000\220}0p"
  41      FDE4A212 
  41      03BD6406 
  41      00907D30 
  41      70
  42              		.text
  43              		.section	.gnu.lto___late_init.b19053d9ff620abf,"",%progbits
  44 0000 789C6362 		.ascii	"x\234cb`b@\007\222@\034\000\304\336@\314\310\314\300"
  44      60624007 
  44      92401C00 
  44      C4DE40CC 
  44      C8CCC0
  45 0013 C834E11C 		.ascii	"\3104\341\034\003C#\007\023##\210\301\300\310P\317\304"
  45      03432307 
  45      13232388 
  45      C1C0C850 
  45      CFC4
  46 0025 581FC908 		.ascii	"X\037\311\010V\273\236\351\300\203\377\377\327\355\353"
  46      56BB9EE9 
  46      C083FFFF 
ARM GAS  /tmp/ccEODGzf.s 			page 3


  46      D7EDEB
  47 0034 9F230132 		.ascii	"\237#\0012\210\225\241\245\241a\202\002\003C2X:\004"
  47      8895A1A5 
  47      A1618202 
  47      03433258 
  47      3A04
  48 0046 4882F484 		.ascii	"H\202\364\20422\201h\346\213\014\214\211\214\013\031"
  48      32328168 
  48      E68B0C8C 
  48      898C0B19 
  49 0056 59E15685 		.ascii	"Y\341V\20502\202$@Z=\3653\362sS\365\223\363S*\365SR"
  49      30328224 
  49      405A3DF5 
  49      33F27353 
  49      F593F353 
  50 006e CBF49333 		.ascii	"\313\364\22332\2232\363\213\365K\212J\363\262\365\201"
  50      329332F3 
  50      8BF54B8A 
  50      4AF3B2F5 
  50      81
  51 007f 8CE4FCDC 		.ascii	"\214\344\374\334\334\374<\375\202\374\242\222b}\307"
  51      DCFC3CFD 
  51      82FCA292 
  51      627DC7
  52 008e 205F67DF 		.ascii	" _g\337\012\220XAfNjQ\261\276\273\263\263~rQ\211\201"
  52      0A905841 
  52      664E6A51 
  52      B1BEBBB3 
  52      B37E7251 
  53 00a4 5E320300 		.ascii	"^2\003\000\203\2050X"
  53      83853058 
  54              		.text
  55              		.section	.gnu.lto__default_exit.b19053d9ff620abf,"",%progbits
  56 0000 789C6362 		.ascii	"x\234cb`b@\007:@\354\003\304\336@\314\310\312\300\310"
  56      60624007 
  56      3A40EC03 
  56      C4DE40CC 
  56      C8CAC0C8 
  57 0014 34E11C03 		.ascii	"4\341\034\003C#\007\023#3\210\301\310\314\310\002\021"
  57      43230713 
  57      233388C1 
  57      C8CCC802 
  57      11
  58 0025 60810838 		.ascii	"`\201\010822\32431\2630\326G2\202\265\257g:\360\340"
  58      3232D433 
  58      31B330D6 
  58      473282B5 
  58      AF673AF0 
  59 003a FFFF755F 		.ascii	"\377\377u_\372\347\336a\334\317\004\022cehih\230\240"
  59      FAE7DE61 
  59      DCCF0412 
  59      63656869 
  59      6898A0
  60 004d C0C0900C 		.ascii	"\300\300\220\014V\021\002$\031\201$\023\320\254\020"
  60      56110224 
  60      19812413 
  60      D0AC10
ARM GAS  /tmp/ccEODGzf.s 			page 4


  61 005c 466606A0 		.ascii	"Ff\006\240!\214!\214,P\032b\010\203\247~F~n\252~r~J"
  61      218C218C 
  61      2C501A62 
  61      0883A77E 
  61      467E6EAA 
  62 0074 A57E4A6A 		.ascii	"\245~Jj\231~rFfRf~\261~IQi^\266>\220\221\234\237\233"
  62      997E7246 
  62      6652667E 
  62      B17E4951 
  62      695EB63E 
  63 008d 9B9FA75F 		.ascii	"\233\237\247_\220_TR\254\357\030\344\353\354[\001\022"
  63      905F5452 
  63      ACEF18E4 
  63      EBEC5B01 
  63      12
  64 009e 2BC8CC49 		.ascii	"+\310\314I-*\326wwv\326O.*1\320Kf\000\000\304|3>"
  64      2D2AD677 
  64      7776D64F 
  64      2E2A31D0 
  64      4B660000 
  65              		.text
  66              		.section	.gnu.lto_Reset_Handler.b19053d9ff620abf,"",%progbits
  67 0000 789C9595 		.ascii	"x\234\225\225[h\024W\030\200\317\177ffg\366\236\335"
  67      5B681457 
  67      1880CF7F 
  67      666667F6 
  67      9EDD
  68 0012 C45A2F09 		.ascii	"\304Z/\011\233\200\210\022\\K_\372\326\226@\213\240"
  68      9B808812 
  68      5C4B5FFA 
  68      D696408B 
  68      A0
  69 0023 3524A6D4 		.ascii	"5$\246\324\207>\304M:\016\355\272\313n*\225\226zr\021"
  69      873EC44D 
  69      3A0EEDBA 
  69      CB6E2A95 
  69      967A7211 
  70 0037 02164C2D 		.ascii	"\002\026L-\364\246R\203\306jL\324\222BS\021\272\013"
  70      F4A65283 
  70      C66A4CD4 
  70      92425311 
  70      BA0B
  71 0049 951A8BFA 		.ascii	"\225\032\213\372\020\224\206\332jZ\212Z\241\327\267"
  71      109486DA 
  71      6A5A8A5A 
  71      A1D7B7
  72 0058 52BAFDCF 		.ascii	"R\272\375\317ef/\2545\035\330\375g\317\177\375\376\377"
  72      65662FAC 
  72      351DD8FD 
  72      67CF7FFD 
  72      FEFF
  73 006a 9CB39450 		.ascii	"\234\263\224PR\373\334\305O*@\3109\224\260\214\000\035"
  73      52FBDCC5 
  73      4F2A40C8 
  73      3994B08C 
  73      001D
  74 007c BB4AC8A0 		.ascii	"\273J\310\240EA\227/\232|)Z:\325\336\372\212\020\026"
ARM GAS  /tmp/ccEODGzf.s 			page 5


  74      4541972F 
  74      9A7C295A 
  74      3AD5DEFA 
  74      8A1016
  75 008f 30464CC2 		.ascii	"0FL\302B\006\230|\035|R\026-\223\372\244\336\022z\013"
  75      4206987C 
  75      1D7C5216 
  75      2D93FAA4 
  75      DE127A0B 
  76 00a3 0242EF97 		.ascii	"\002B\357\227\262h\005\250_\352\203B\037\204\260\320"
  76      B26805A8 
  76      5FEA8342 
  76      1F84B0D0 
  77 00b3 87A42C5A 		.ascii	"\207\244,Za\032\222\372\210\320G\240A\026\020\225/E"
  77      611A92FA 
  77      88D047A0 
  77      41161095 
  77      2F45
  78 00c5 AB8146A5 		.ascii	"\253\201F\245AL\030\304\240Q\032\304\345K\321j\244q"
  78      414C18C4 
  78      A0511AC4 
  78      E54BD16A 
  78      A471
  79 00d7 69D0240C 		.ascii	"i\320$\014\232\010\220\275T\323\015\237i\371\003\301"
  79      9A0890BD 
  79      54D30D9F 
  79      69F903C1 
  80 00e7 5038126D 		.ascii	"P8\022m\210\305\033\233`\357v\340\344V\033\031g\354"
  80      88C51B9B 
  80      60EF76E0 
  80      E4561B19 
  80      67EC
  81 00f9 E0ED8BC7 		.ascii	"\340\355\213\307~\200\017Xa\344(\373\273T\002p\000\273"
  81      7E800F58 
  81      61E428FB 
  81      BB540270 
  81      00BB
  82 010b B419480A 		.ascii	"\264\031H\012\310\013\370\003\022BP\275\272m\322\267"
  82      C80BF803 
  82      124250BD 
  82      BA6DD2B7 
  83 011b 30333F07 		.ascii	"03?\007\354 \033\374\255T\212:\240Q\322\271D\307\331"
  83      EC201BFC 
  83      AD548A3A 
  83      A051D2B9 
  83      44C7D9
  84 012e F9D0D8E0 		.ascii	"\371\320\330\340(+\225\366\242[/\034\007\2724\277\205"
  84      282B95F6 
  84      A25B2F1C 
  84      07BA34BF 
  84      85
  85 013f F9032BD8 		.ascii	"\371\003+\330\321\2411\366\017\326*2v/-#[\350\273\304"
  85      D1A131F6 
  85      0FD62A32 
  85      762F2D23 
  85      5BE8BBC4 
  86 0153 460AA5D2 		.ascii	"F\012\245\322\223\302\353\371%\326Y\252\006\374\037"
ARM GAS  /tmp/ccEODGzf.s 			page 6


  86      93C2EBF9 
  86      25D659AA 
  86      06FC1F
  87 0162 957EF26E 		.ascii	"\225~\362nU\245:%\333\227\230\363\346\215ro\364^\230"
  87      55A53A25 
  87      DB9798F3 
  87      E68D726F 
  87      F45E98
  88 0175 7A68C6B3 		.ascii	"zh\306\263\264p\273T\272\371\366\275\305K\260l\003\220"
  88      B470BB54 
  88      BAF9F6BD 
  88      C54BB06C 
  88      0390
  89 0187 5E38066D 		.ascii	"^8\006m8\305^\230@\251\241<\201RGy\022\245\201r\022"
  89      38C55E98 
  89      40A9A13C 
  89      81524779 
  89      12A58172 
  90 019c A50FE569 		.ascii	"\245\017\345i\224&\312i\224\021\224\343(c\304\001#\316"
  90      9426CA69 
  90      941194E3 
  90      2863C401 
  90      23CE
  91 01ae BF96AB48 		.ascii	"\277\226\253H+T\244UJ\256V\221\232U\344\026n\234P\213"
  91      2B54A455 
  91      4AAE5691 
  91      9A55E416 
  91      6E9C508B 
  92 01c2 AD6AB14D 		.ascii	"\255j\261M\245Y\203J\337Z\225k\235Z\\\317\027\333Ub"
  92      A559834A 
  92      DF5A956B 
  92      9D5A5CCF 
  92      17DB5562 
  93 01d6 7C0C32C2 		.ascii	"|\0142\302\330XB\026@8.>\333\360\033wr\017\362\217\230"
  93      D8584216 
  93      40382E3E 
  93      DBF01B77 
  93      720FF28F 
  94 01eb DA555258 		.ascii	"\332URX<\344\364\302\0310\004\364\213\204\\!C\277\014"
  94      3CE4F4C2 
  94      193004F4 
  94      8B845C21 
  94      43BF0C
  95 01fe FF79DC94 		.ascii	"\377y\334\224\2136D^'\177\261Q\306\036\307I\245A\366"
  95      8B36445E 
  95      277FB151 
  95      C61EC749 
  95      A541F6
  96 0211 E62A195C 		.ascii	"\346*\031\\<\242\334\370\322N\215_\002\232\274\011Z"
  96      3CA2DCF8 
  96      D24E8D5F 
  96      029ABC09 
  96      5A
  97 0222 C89E23EC 		.ascii	"\310\236#\354\375\247\0340\371/\014 \\0\354\354\354"
  97      FDA71C30 
  97      F92F0C20 
  97      5C30ECEC 
ARM GAS  /tmp/ccEODGzf.s 			page 7


  97      EC
  98 0233 E4CF209D 		.ascii	"\344\317 \235\016\221\017\007\031c\246#G\240}\372\375"
  98      0E910F07 
  98      1963A623 
  98      47A07DFA 
  98      FD
  99 0244 308BC857 		.ascii	"0\213\310Wa\315\337\010\032\260\220t=\277of\242\331"
  99      61CDDF08 
  99      1AB09074 
  99      3DBF6F66 
  99      A2D9
 100 0256 AD2886DE 		.ascii	"\255(\206\336\340z\216~[\355\311\315\207?\327\\\333"
 100      E07A8E7E 
 100      5BEDC9CD 
 100      873FD75C 
 100      DB
 101 0267 389A73A5 		.ascii	"8\232s\245\301X\301\224\2616y%<0\010\372q\310\241\305"
 101      C158C194 
 101      B1367925 
 101      3C3008FA 
 101      71C8A1C5 
 102 027b 590F12C8 		.ascii	"Y\017\022\310\033\017\206\024\345\212\307S\037\000\251"
 102      1B0F8614 
 102      E58AC753 
 102      1F00A9
 103 028a B7DCA286 		.ascii	"\267\334\242\206\346f\317\374\361\000\374\013\365\360"
 103      E666CFFC 
 103      F100FC0B 
 103      F5F0
 104 0298 55A3C7E7 		.ascii	"U\243\307\347\374\345F\277\007\017)\302\347\016\250"
 104      FCE546BF 
 104      070F29C2 
 104      E70EA8
 105 02a7 307ED95F 		.ascii	"0~\331_\236\353\024:_#\303\267\257\3343\335E9\326\006"
 105      9EEB143A 
 105      5F23C3B7 
 105      AFDC33DD 
 105      4539D606 
 106 02bb DC322990 		.ascii	"\3342)\220\311\034\360K\357\036\314\202\227\236\206"
 106      C91CF04B 
 106      EF1ECC82 
 106      979E86
 107 02ca 9DDC3F7C 		.ascii	"\235\334?|\347\204\346m\244cb#yamXn\003x\207\007\031"
 107      E784E66D 
 107      A4636223 
 107      79616D58 
 107      6E037887 
 108 02e0 9FE88542 		.ascii	"\237\350\205B\271\267JY\301t}\362\372\244A\334,:\301"
 108      B9B74A59 
 108      C1747DF2 
 108      FAA441DC 
 108      2C3AC1
 109 02f3 3B56BB44 		.ascii	";V\273D\276\374\011\244\037:\360\262,\261\325\240\342"
 109      BEFC09A4 
 109      1F3AF0B2 
 109      2CB1D5A0 
 109      E2
ARM GAS  /tmp/ccEODGzf.s 			page 8


 110 0304 302E900A 		.ascii	"0.\220\012\005g\247<\271&\242\030|#s\223U\022\2510\333"
 110      0567A73C 
 110      B926A218 
 110      7C237393 
 110      5512A930 
 111 0319 28CCB856 		.ascii	"(\314\270V\027\026>\217\246\2142Q\213\262\302\006Z\203"
 111      17163E8F 
 111      A68C3251 
 111      8BB2C206 
 111      5A83
 112 032b 72B11285 		.ascii	"r\261\022\205\376'\212\311Q@\241\\\024(\264\\1\251B"
 112      FE278AC9 
 112      5140A15C 
 112      1428B45C 
 112      31A942
 113 033e A136AC32 		.ascii	"\2416\2542\0003\372\204\253\345\326\337\252\352\377"
 113      0033FA84 
 113      ABE5D6DF 
 113      AAEAFF
 114 034d EE9DB0F0 		.ascii	"\356\235\260\360\342\205\230\243\332\002I(\305-\245"
 114      E28598A3 
 114      DA024928 
 114      C52DA5
 115 035c 30A4823B 		.ascii	"0\244\202;\373+\006\365\361J\217\216\337\025\362\346"
 115      FB2B06F5 
 115      F14A8F8E 
 115      DF15F2E6 
 116 036c A8625C6D 		.ascii	"\250b\\m\203^\301\210N\223X\356eQn\263\015Z%\377\371"
 116      835EC188 
 116      4E9358EE 
 116      65516EB3 
 116      0D5A25FF 
 117 0381 7D6FBAAA 		.ascii	"}o\272\252\026\257\011Z\365A\033\232;gJ#\265\243\243"
 117      16AF095A 
 117      F5411B9A 
 117      3B674A23 
 117      B5A3A3
 118 0394 C24AAF3C 		.ascii	"\302J\257<I-n\213\002^\213\212\277\317\207\335\330\272"
 118      492D6E8B 
 118      025E8B8A 
 118      BFCF87DD 
 118      D8BA
 119 03a6 BA5EBA05 		.ascii	"\272^\272\005\231\257\252Q\232\015\255\0266\252\331"
 119      99AFAA51 
 119      9A0DAD16 
 119      36AAD9
 120 03b5 7FF8A353 		.ascii	"\177\370\243S\260@t\033\022\374\367j\377I\001\037t;"
 120      B040741B 
 120      12FCF76A 
 120      FF49011F 
 120      743B
 121 03c7 B74E35A8 		.ascii	"\267N5\2504\017\"\014?\017\001\2214Tg\364\223\265mi"
 121      340F220C 
 121      3F0F0191 
 121      345467F4 
 121      93B56D69 
 122 03db B3C1A819 		.ascii	"\263\301\250\031\375\265\312\321\033uN\246d\012W\216"
ARM GAS  /tmp/ccEODGzf.s 			page 9


 122      FDB5CAD1 
 122      1B754EA6 
 122      640A578E 
 123 03eb FD9A0032 		.ascii	"\375\232\0002\312c\267\252h\014\033\326\005\261\372"
 123      CA63B7AA 
 123      680C1BD6 
 123      05B1FA
 124 03fa B690708D 		.ascii	"\266\220p\215\360\342\371\231\334\377u\3353Ik\317dT"
 124      F0E2F999 
 124      DCFF75DD 
 124      33496BCF 
 124      6454
 125 040c A1E064EE 		.ascii	"\241\340d\356O=\352\321\234\256\245Y#\353\016\330\340"
 125      4F3DEAD1 
 125      9CAEA559 
 125      23EB0ED8 
 125      E0
 126 041d E3D5BA7F 		.ascii	"\343\325\272\177k\230\252\200W\350\2740C+\025[\354\202"
 126      6B98AA80 
 126      57E8BC30 
 126      432B155B 
 126      EC82
 127 042f 5FA7564A 		.ascii	"_\247VJ\215\015k\225\233\367w\330\003\015\3361-\316"
 127      8D0D6B95 
 127      9BF777D8 
 127      030DDE31 
 127      2DCE
 128 0441 DC08BB86 		.ascii	"\334\010\273\206>5\270\036\007\202i\267J\205\252t\370"
 128      3E35B81E 
 128      078269B7 
 128      4A85AA74 
 128      F8
 129 0452 77FD88D0 		.ascii	"w\375\210\320\362YD\356\3428\327F/\3148<f\314\245?u"
 129      F25944EE 
 129      E238D746 
 129      2FCC383C 
 129      66CCA53F 
 130 0467 1FEAD16B 		.ascii	"\037\352\321k\265\364\3612\375\217\323e\372\351Z\372"
 130      B5F4F132 
 130      FD8FD365 
 130      FAE95AFA 
 131 0477 F51EBD59 		.ascii	"\365\036\275Y\207\376\033E\277\276\222\376\316\364J"
 131      87FE1B45 
 131      BFBE92FE 
 131      CEF44A
 132 0486 A9B1A15D 		.ascii	"\251\261\241]\271U\3207\226\351oqzihV\321\007\253\350"
 132      B955D037 
 132      96E96F71 
 132      7A696856 
 132      D107ABE8 
 133 049a 4DF71C2B 		.ascii	"M\367\034+z>\357\030\247o\217\037\376L\3207\271\364"
 133      7A3EEF18 
 133      A76F8F1F 
 133      FE4CD037 
 133      B9F4
 134 04ac 5FEC0FD4 		.ascii	"_\354\017\324\243\327\025}H\206\334\346\336\205\233"
 134      A3D7157D 
ARM GAS  /tmp/ccEODGzf.s 			page 10


 134      4886DCE6 
 134      DE859B
 135 04bb 923B33E9 		.ascii	"\222;3\351\376d*\323\267'\331\327\277;\231\332\351\354"
 135      FE642AD3 
 135      B727D9D7 
 135      BF3B99DA 
 135      E9EC
 136 04cd 7032F9E4 		.ascii	"p2\371\344@\356\325]/'\361%\225I\2473\273\222\331Ln"
 136      40EED55D 
 136      2F27F125 
 136      9549A733 
 136      BB92D94C 
 137 04e2 209F7CBA 		.ascii	" \237|\272kK\307\226\327\370Z\326y\245?\227O>\333\321"
 137      6B4BC796 
 137      D7F85AD6 
 137      79A53F97 
 137      4F3EDBD1 
 138 04f6 914CE506 		.ascii	"\221L\345\0066nH\021-\233\317\322\354ct K\373\262\332"
 138      366E4811 
 138      2D9BCFD2 
 138      EC637420 
 138      4BFBB2DA 
 139 050a 4BD96C20 		.ascii	"K\331l \225\315;}\211D\302!\015\351|.\301\237\316\356"
 139      95CD3B7D 
 139      8944C221 
 139      0DE97C2E 
 139      C19FCEEE 
 140 051e CEF6C49A 		.ascii	"\316\366\304\232\215\204\346H|\267Z|\246\263\273\243"
 140      8D84E648 
 140      7CB75A7C 
 140      A6B3BBA3 
 141 052e 4BAC9AE9 		.ascii	"K\254\232\351\376t&\267\2074\271\346\035[\237\333\326"
 141      FE7426B7 
 141      8734B9E6 
 141      1D5B9FDB 
 141      D6
 142 053f B575B350 		.ascii	"\265u\263P\352N~\007\371\027}\331\234\265"
 142      EA4E7E07 
 142      F9177DD9 
 142      9CB5
 143              		.text
 144              		.section	.gnu.lto_.symbol_nodes.b19053d9ff620abf,"",%progbits
 145 0000 789C4DCC 		.ascii	"x\234M\314\273\015\302P\014\205\341c;7o\036\231 \353"
 145      BB0DC250 
 145      0C85E163 
 145      3B376F1E 
 145      9920EB
 146 0013 642B4714 		.ascii	"d+G\024\210\012\220\"Q\262\0045\015\364 1\002\264\331"
 146      880A9022 
 146      51B20435 
 146      0DF42031 
 146      02B4D9
 147 0026 01EE1141 		.ascii	"\001\356\021A\302\305\367\3534V(\256\230N\341\300\376"
 147      C2C5F7EB 
 147      345628AE 
 147      984EE1C0 
 147      FE
ARM GAS  /tmp/ccEODGzf.s 			page 11


 148 0037 06B81F37 		.ascii	"\006\270\0377\242\342\362\267\324\365\267:5\267i\034"
 148      A2E2F2B7 
 148      D4F5B73A 
 148      35B7691C 
 149 0047 BA90C422 		.ascii	"\272\220\304\"\244B\003\177\204\314h\236\320\"\3202"
 149      A442037F 
 149      84CC689E 
 149      D022D032 
 150 0057 A55546EB 		.ascii	"\245UF\353\234\316\013:+iS\321e\035\225\205'\337\327"
 150      9CCE0B3A 
 150      2B6953D1 
 150      651D9585 
 150      27DFD7
 151 006a 7D2F66C0 		.ascii	"}/f\300s=\266f\202\313\226m\360\332\261\212\3250\266"
 151      733DB666 
 151      82CB966D 
 151      F0DAB18A 
 151      D530B6
 152 007d 8961B8BF 		.ascii	"\211a\270\277\317!\366\364\210\305\007\314\320+_"
 152      CF21F6F4 
 152      88C507CC 
 152      D02B5F
 153              		.text
 154              		.section	.gnu.lto_.refs.b19053d9ff620abf,"",%progbits
 155 0000 789C25C5 		.ascii	"x\234%\305\311\015\000 \014\004\261\325p\205+\320\001"
 155      C90D0020 
 155      0C04B1D5 
 155      70852BD0 
 155      01
 156 0011 FD770912 		.ascii	"\375w\011\022\376\030\241\243\317\003\221D\246\274\215"
 156      FE18A1A3 
 156      CF039144 
 156      A6BC8D
 157 0020 4AA33398 		.ascii	"J\2433\2308\213\255\013\017\204\000\327"
 157      388BAD0B 
 157      0F8400D7 
 158              		.text
 159              		.section	.gnu.lto_.decls.b19053d9ff620abf,"",%progbits
 160 0000 789CAD96 		.ascii	"x\234\255\226Ml\033E\024\307g\326\371\260S'\264E\215"
 160      4D6C1B45 
 160      14C767D6 
 160      F9B05327 
 160      B4458D
 161 0013 DA532204 		.ascii	"\332S\"\004\034*5\213\200\003\\\012(\207\026\211r\250"
 161      1C2A358B 
 161      80035C0A 
 161      28871689 
 161      72A8
 162 0025 D48ADB30 		.ascii	"\324\212\3330YO\224U\354u\330]Cr\352$\202\252\002\024"
 162      594F9455 
 162      EC75D85D 
 162      4372EA24 
 162      82AA0214 
 163 0039 1904282D 		.ascii	"\031\004(-\025\304\241\001WJ\017M9 \322 \007\332\322"
 163      15C4A101 
 163      574A0F4D 
 163      3920D220 
ARM GAS  /tmp/ccEODGzf.s 			page 12


 163      07DAD2
 164 004c A690A6A1 		.ascii	"\246\220\246\241\205\360YGj\220\010H >T!U,o\277l\357"
 164      85F05947 
 164      6A900848 
 164      203E5421 
 164      552C6FBF 
 165 0062 87B32D62 		.ascii	"\207\263-b\344\277=;\363\336\357\275y;\263^\001\011"
 165      E4BF3D3B 
 165      F3DEEFBD 
 165      793BB35E 
 165      0109
 166 0074 48C70819 		.ascii	"H\307\010\031\320Z[\020\272\001\375F\204\320NTm\346"
 166      D05A5B10 
 166      BA01FD46 
 166      84D04E54 
 166      6DE6
 167 0086 75015404 		.ascii	"u\001T\004M\201\246A3\240V\320i\320\031\3209\320y\320"
 167      4D81A641 
 167      33A056D0 
 167      69D019D0 
 167      39D079D0 
 168 009a 3CE833D0 		.ascii	"<\3503\320\002h\021\264\004\272\002\372\006\364\035"
 168      026811B4 
 168      04BA02FA 
 168      06F41D
 169 00a9 E807E46D 		.ascii	"\350\007\344m\205\232>\366]\273\255\350\263)\206\330"
 169      859A3EF6 
 169      5DBBADE8 
 169      B32986D8 
 170 00b9 4CF96CA6 		.ascii	"L\371l\246Bl\246\235\234gAm\240$\250\014Z\0015\203\226"
 170      426CA69D 
 170      9C67416D 
 170      A024A80C 
 170      5A013583 
 171 00ce 41ABA035 		.ascii	"A\253\2405\320\004\350*\350:\350\027\307\277\321a\270"
 171      D004E82A 
 171      E83AE817 
 171      C7BFD161 
 171      B8
 172 00df B59871E2 		.ascii	"\265\230q\342\374\037u\350@o\361\362by\365\367\223\333"
 172      FC1F75E8 
 172      406FF1F2 
 172      6279F5F7 
 172      93DB
 173 00f1 F8F8C89C 		.ascii	"\370\370\310\234a<\202\332\321\353\034\332\370A\316"
 173      613C82DA 
 173      D1EB1CDA 
 173      F841CE
 174 0100 B14EF1CE 		.ascii	"\261N\361\316-\350)Lq[\002uZ\235d\0025X\256\024O\340"
 174      2DE8294C 
 174      715B0275 
 174      5A9D6402 
 174      3558AE14 
 175 0116 76A7B72F 		.ascii	"v\247\267/f\343\004\364\004F\333\321q\360\317s>\321"
 175      66E304F4 
 175      0446DBD1 
 175      71F0CF73 
ARM GAS  /tmp/ccEODGzf.s 			page 13


 175      3ED1
 176 0128 8503C588 		.ascii	"\205\003\305\210\201\015|\236\256\314\334\213&\315p"
 176      810D7C9E 
 176      AECCDC8B 
 176      26CD70
 177 0137 BCC86356 		.ascii	"\274\310cV0\023W\300\035\265>\024\277\203\205`\326\245"
 177      301357C0 
 177      1DB53E14 
 177      BF838560 
 177      D6A5
 178 0149 8F2E25F3 		.ascii	"\217.%\363se\303\350\260S\021\020\303`{\014o\257F\242"
 178      7365C3E8 
 178      B0531110 
 178      C3607B0C 
 178      6FAF46A2 
 179 015d F8DDAA6B 		.ascii	"\370\335\252kX\250\242?\324\361\220P\227K\177\372C="
 179      58A8A23F 
 179      D4F19050 
 179      974B7FFA 
 179      433D
 180 016f 533794B3 		.ascii	"S7\224\263\302\003\265k\017\213<\345\217|\"\030y|\245"
 180      C203B56B 
 180      0F8B3CE5 
 180      8F7C2218 
 180      797CA5
 181 0182 74642999 		.ascii	"td)\231\037\206\310ow\272\241\017\341@l\001\275\201"
 181      1F86C86F 
 181      77BAA10F 
 181      E1406C01 
 181      BD81
 182 0194 71F5E228 		.ascii	"q\365\342(\306\236jO\342\250d\246\375\311\234\012)C"
 182      C69E6A4F 
 182      E2A864A6 
 182      FDC99C0A 
 182      2943
 183 01a6 BE746D61 		.ascii	"\276tmat\033/\214\224\314}b\247C\361~\241&\233*`\277"
 183      741B2F8C 
 183      94CC7D62 
 183      A743F17E 
 183      A1269B2A 
 184 01bc C7FF2E54 		.ascii	"\307\377.T\340\345WK\177\315\277f\372s\376\217a\340"
 184      E0E5574B 
 184      7FCDBF66 
 184      FA73FE8F 
 184      61E0
 185 01ce 043AC4F9 		.ascii	"\004:\304\371\210\271\321v\237\207s\021\266\313\356"
 185      88B9D176 
 185      9F877311 
 185      B6CBEE
 186 01dd 41C76027 		.ascii	"A\307`'\225g^:;\207\301\013&f\301M@K\236\022 t\353\250"
 186      95675E3A 
 186      3B87C10B 
 186      2666C14D 
 186      404B9E12 
 187 01f5 1BA3A71F 		.ascii	"\033\243\247\037\346<Nq\311\002\345\005/\210\342\346"
 187      E63C4E71 
 187      C902E505 
ARM GAS  /tmp/ccEODGzf.s 			page 14


 187      2F88E2E6 
 188 0205 84771D70 		.ascii	"\204w\035p\355\032\2304k\332\351\230\017\257;\320\355"
 188      ED1A9834 
 188      6BDAE998 
 188      0FAF3BD0 
 188      ED
 189 0216 9A0BE8CD 		.ascii	"\232\013\350\315J\320z'\353\223j\365\355\312\225_x\357"
 189      4AD07A27 
 189      EB936AF5 
 189      EDCA955F 
 189      78EF
 190 0228 8270987F 		.ascii	"\202p\230\177\374<\3477\241t\225B\234\214D\235\365\243"
 190      FC3CE737 
 190      A1749542 
 190      9C8C449D 
 190      F5A3
 191 023a 4A63F32F 		.ascii	"Jc\363/s\234\037\346\3340\016\270\2343\221\234O\003"
 191      739C1FE6 
 191      DC300EB8 
 191      9C33919C 
 191      4F03
 192 024c 9C2F4338 		.ascii	"\234/C8\313\221\234\013\001N\376b\220\363k$\347b\200"
 192      CB919C0B 
 192      014EFE62 
 192      90F36B24 
 192      E76280
 193 025f 733484F3 		.ascii	"s4\204\363w$\347\363\000\347\203\020\216\021\311\271"
 193      7724E7F3 
 193      00E78310 
 193      8E11C9B9 
 194 026f 14E05C09 		.ascii	"\024\340\\\011\341\034\214Eq.\0078\277\205p^\211\344"
 194      E11C8C45 
 194      712E0738 
 194      BF85705E 
 194      89E4
 195 0281 7C11E01C 		.ascii	"|\021\340\034\036\2559|\033\320\213\325\023c\037\345"
 195      1EAD397C 
 195      1BD08BD5 
 195      13631FE5 
 196 0291 FAA7A6F4 		.ascii	"\372\247\246\364\241\271\343\256\202\223\200\216\304"
 196      A1B9E3AE 
 196      8293808E 
 196      C4
 197 029e BC27E616 		.ascii	"\274'\346\026AfJ\313\000\010>*B\347\0044\021\271\302"
 197      41664ACB 
 197      00083E2A 
 197      42E70434 
 197      11B9C2
 198 02b1 AF032BBC 		.ascii	"\257\003+\274\351\251\224\235\357\251H\316\267\001\316"
 198      E9A9949D 
 198      EFA948CE 
 198      B701CE
 199 02c0 E2429073 		.ascii	"\342B\220s.\222\363}\200\363~\010\347\253H\316\265*"
 199      2E92F37D 
 199      80F37E08 
 199      E7AB48CE 
 199      B52A
ARM GAS  /tmp/ccEODGzf.s 			page 15


 200 02d2 C7575CF3 		.ascii	"\307W\\\363\336\327\363*\003=\334\313\214\273\316\275"
 200      DED7F32A 
 200      033DDCCB 
 200      8CBBCEBD 
 201 02e2 9D3D81E1 		.ascii	"\235=\201\341\257e\305Jnm\375\233[\217d\306\277\276"
 201      AF65C54A 
 201      6E6DFD9B 
 201      5B8F64C6 
 201      BFBE
 202 02f4 CECDF5CD 		.ascii	"\316\315\365\315mBy\353\015\343\321\2616\347\301]\236"
 202      6D4279EB 
 202      0DE3D1B1 
 202      36E7C15D 
 202      9E
 203 0305 E45BB756 		.ascii	"\344[\267V\236\333q\227\215\335,\315\267\011\201\342"
 203      9EDB7197 
 203      8DDD2CCD 
 203      B70981E2 
 204 0315 1FADBDFF 		.ascii	"\037\255\275\377G,\370Z\341\0042\015\314f\372\333}\267"
 204      472CF85A 
 204      E104320D 
 204      CC66FADB 
 204      7DB7
 205 0327 67E00A7E 		.ascii	"g\340\012~\243\213\027\034\257U\274\311\352Y\311\360"
 205      A38B171C 
 205      AF55BCC9 
 205      EA59C9F0 
 206 0337 CA6A93F5 		.ascii	"\312j\223\365\213\375SM\234d\242\332q\023sV\3309\326"
 206      8BFD534D 
 206      9C64A2DA 
 206      71137356 
 206      D839D6
 207 034a 66477738 		.ascii	"fGw8\017\271v\315\016g\355\266#\377\\'r\223\023\331"
 207      0FB976CD 
 207      0E67EDB6 
 207      23FF5C27 
 207      729313D9 
 208 035e 7A7B1BFE 		.ascii	"z{\033\376ooo\350q\261/\233a\242\224M\015\211)\366\254"
 208      6F6F6FE8 
 208      71B12F9B 
 208      61A2944D 
 208      0D8929F6 
 209 0373 28F5C93D 		.ascii	"(\365\311=rV\023u5\247\364\213\320\221\262\231LV\021"
 209      72561375 
 209      35A7F48B 
 209      D091B299 
 209      4C5611
 210 0386 07B2AAAE 		.ascii	"\007\262\252\256\211\217\355\335\323\275g\320\034\033"
 210      898FEDDD 
 210      D3BD67D0 
 210      1C1B
 211 0394 90D34CD5 		.ascii	"\220\323L\325\304]\335\335\242\244\352\367uI(I\010\243"
 211      C45DDDDD 
 211      A2A4EAF7 
 211      75492849 
 211      08A3
 212 03a6 6A7A88C8 		.ascii	"jz\210\310\212\2547\355zr_g7jx\216\321\376\015\204\244"
ARM GAS  /tmp/ccEODGzf.s 			page 16


 212      8AAC37ED 
 212      7A725F67 
 212      376A788E 
 212      D1FE0D84 
 213 03bb A9CEACF1 		.ascii	"\251\316\254\361V\222b\2754\227\326\011\033\224\365"
 213      569262BD 
 213      3497D609 
 213      1B94F5
 214 03ca B8925599 		.ascii	"\270\222U\231\236S\225\326\275Lc:\331M\225\024`\033"
 214      9E5395D6 
 214      BD4C633A 
 214      D94D9514 
 214      601B
 215 03dc 15DACF52 		.ascii	"\025\332\317R0)+iYa\315JVJg\025v\267\230\323T\221\252"
 215      30292B69 
 215      5961CD4A 
 215      564A6715 
 215      76B798D3 
 216 03f3 991D0A5C 		.ascii	"\231\035\012\\\355`\264G\026eEJ\347RL\324\364\224\254"
 216      ED60B447 
 216      1665454A 
 216      E7524CD4 
 216      F494AC
 217 0406 E85D7D28 		.ascii	"\350]}(\236\203\337\007\356'\372\203\353Xg(,Sab%\031"
 217      9E83DF07 
 217      EE27FA83 
 217      EB586728 
 217      2C536162 
 218 041c 7D688069 		.ascii	"}h\200i\340\335B\210\353\277\205\220\0015+1M#\232N\245"
 218      E0DD4288 
 218      EBBF8590 
 218      01352B31 
 218      4D239A4E 
 219 0431 7EC29414 		.ascii	"~\302\224\024!\233\011\311PY\251\035\272\3233\324C5"
 219      219B09C9 
 219      5059A91D 
 219      BAD333D4 
 219      4335
 220 0443 4648BBDF 		.ascii	"FH\273\337\331\036N\020\235\015\352)\252\323Fb~7\021"
 220      D91E4E10 
 220      9D0DEA29 
 220      AAD34662 
 220      7E3711
 221 0456 66FEB490 		.ascii	"f\376\264\220\036\333P\325\343V\027\270\315\2759E\032"
 221      1EDB50D5 
 221      E35617B8 
 221      CDBD3945 
 221      1A
 222 0467 20FA4662 		.ascii	" \372Fb\325\215PU\245C\346\304f\317\200\345\0046\275"
 222      D58D5055 
 222      A543E6C4 
 222      66CF80E5 
 222      0436BD
 223 047a 30E6B1A9 		.ascii	"0\346\261\251\031\260\301\026\017\200\015R\037U\377"
 223      19B0C116 
 223      0F800D52 
 223      1F55FF
ARM GAS  /tmp/ccEODGzf.s 			page 17


 224 0489 052C69E7 		.ascii	"\005,i\347\036"
 224      1E
 225              		.text
 226              		.section	.gnu.lto_.symtab.b19053d9ff620abf,"",%progbits
 227 0000 5F5F6561 		.ascii	"__early_init\000\000\001\000\000\000\000\000\000\000"
 227      726C795F 
 227      696E6974 
 227      00000100 
 227      00000000 
 228 0016 0000A100 		.ascii	"\000\000\241\000\000\000__late_init\000\000\001\000"
 228      00005F5F 
 228      6C617465 
 228      5F696E69 
 228      74000001 
 229 002b 00000000 		.ascii	"\000\000\000\000\000\000\000\000\250\000\000\000_de"
 229      00000000 
 229      A8000000 
 229      5F6465
 230 003a 6661756C 		.ascii	"fault_exit\000\000\001\000\000\000\000\000\000\000\000"
 230      745F6578 
 230      69740000 
 230      01000000 
 230      00000000 
 231 004f 00AC0000 		.ascii	"\000\254\000\000\000Reset_Handler\000\000\000\000\000"
 231      00526573 
 231      65745F48 
 231      616E646C 
 231      65720000 
 232 0066 00000000 		.ascii	"\000\000\000\000\000\000\000\262\000\000\000__proce"
 232      000000B2 
 232      0000005F 
 232      5F70726F 
 232      6365
 233 0078 73735F73 		.ascii	"ss_stack_end__\000\000\002\000\000\000\000\000\000\000"
 233      7461636B 
 233      5F656E64 
 233      5F5F0000 
 233      02000000 
 234 0090 0000BC00 		.ascii	"\000\000\274\000\000\000__main_stack_end__\000\000\002"
 234      00005F5F 
 234      6D61696E 
 234      5F737461 
 234      636B5F65 
 235 00ab 00000000 		.ascii	"\000\000\000\000\000\000\000\000\000\304\000\000\000"
 235      00000000 
 235      00C40000 
 235      00
 236 00b8 5F5F6D61 		.ascii	"__main_stack_base__\000\000\002\000\000\000\000\000"
 236      696E5F73 
 236      7461636B 
 236      5F626173 
 236      655F5F00 
 237 00d3 00000000 		.ascii	"\000\000\000\000\306\000\000\000__process_stack_bas"
 237      C6000000 
 237      5F5F7072 
 237      6F636573 
 237      735F7374 
ARM GAS  /tmp/ccEODGzf.s 			page 18


 238 00ee 655F5F00 		.ascii	"e__\000\000\002\000\000\000\000\000\000\000\000\000"
 238      00020000 
 238      00000000 
 238      000000
 239 00fd C8000000 		.ascii	"\310\000\000\000_textdata\000\000\002\000\000\000\000"
 239      5F746578 
 239      74646174 
 239      61000002 
 239      00000000 
 240 0111 00000000 		.ascii	"\000\000\000\000\000\312\000\000\000_data\000\000\002"
 240      00CA0000 
 240      005F6461 
 240      74610000 
 240      02
 241 0122 00000000 		.ascii	"\000\000\000\000\000\000\000\000\000\314\000\000\000"
 241      00000000 
 241      00CC0000 
 241      00
 242 012f 5F656461 		.ascii	"_edata\000\000\002\000\000\000\000\000\000\000\000\000"
 242      74610000 
 242      02000000 
 242      00000000 
 242      0000
 243 0141 CE000000 		.ascii	"\316\000\000\000_bss_start\000\000\002\000\000\000\000"
 243      5F627373 
 243      5F737461 
 243      72740000 
 243      02000000 
 244 0156 00000000 		.ascii	"\000\000\000\000\000\320\000\000\000_bss_end\000\000"
 244      00D00000 
 244      005F6273 
 244      735F656E 
 244      640000
 245 0169 02000000 		.ascii	"\002\000\000\000\000\000\000\000\000\000\322\000\000"
 245      00000000 
 245      0000D200 
 245      00
 246 0176 005F5F69 		.ascii	"\000__init_array_end\000\000\002\000\000\000\000\000"
 246      6E69745F 
 246      61727261 
 246      795F656E 
 246      64000002 
 247 018f 00000000 		.ascii	"\000\000\000\000\324\000\000\000__init_array_start\000"
 247      D4000000 
 247      5F5F696E 
 247      69745F61 
 247      72726179 
 248 01aa 00020000 		.ascii	"\000\002\000\000\000\000\000\000\000\000\000\332\000"
 248      00000000 
 248      000000DA 
 248      00
 249 01b7 00005F5F 		.ascii	"\000\000__fini_array_end\000\000\002\000\000\000\000"
 249      66696E69 
 249      5F617272 
 249      61795F65 
 249      6E640000 
 250 01d0 00000000 		.ascii	"\000\000\000\000\000\334\000\000\000__fini_array_st"
ARM GAS  /tmp/ccEODGzf.s 			page 19


 250      00DC0000 
 250      005F5F66 
 250      696E695F 
 250      61727261 
 251 01e8 61727400 		.ascii	"art\000\000\002\000\000\000\000\000\000\000\000\000"
 251      00020000 
 251      00000000 
 251      000000
 252 01f7 DE000000 		.ascii	"\336\000\000\000main\000\000\002\000\000\000\000\000"
 252      6D61696E 
 252      00000200 
 252      00000000 
 253 0207 00000000 		.ascii	"\000\000\000\000\273\000\000\000"
 253      BB000000 
 254              		.text
 255              		.section	.gnu.lto_.opts,"",%progbits
 256 0000 272D6D63 		.ascii	"'-mcpu=cortex-m4' '-mfloat-abi=hard' '-mfpu=fpv4-sp"
 256      70753D63 
 256      6F727465 
 256      782D6D34 
 256      2720272D 
 257 0033 2D643136 		.ascii	"-d16' '-mno-thumb-interwork' '-mthumb' '-O2' '-fomi"
 257      2720272D 
 257      6D6E6F2D 
 257      7468756D 
 257      622D696E 
 258 0066 742D6672 		.ascii	"t-frame-pointer' '-falign-functions=16' '-ffunction"
 258      616D652D 
 258      706F696E 
 258      74657227 
 258      20272D66 
 259 0099 2D736563 		.ascii	"-sections' '-fdata-sections' '-fno-common' '-flto' "
 259      74696F6E 
 259      73272027 
 259      2D666461 
 259      74612D73 
 260 00cc 272D6673 		.ascii	"'-fsingle-precision-constant'\000"
 260      696E676C 
 260      652D7072 
 260      65636973 
 260      696F6E2D 
 261              		.text
 262              		.section	.text.__early_init,"ax",%progbits
 263              		.align	2
 264              		.p2align 4,,15
 265              		.weak	__early_init
 266              		.thumb
 267              		.thumb_func
 268              		.type	__early_init, %function
 269              	__early_init:
 270              		@ args = 0, pretend = 0, frame = 0
 271              		@ frame_needed = 0, uses_anonymous_args = 0
 272              		@ link register save eliminated.
 273 0000 7047     		bx	lr
 274              		.size	__early_init, .-__early_init
 275 0002 00BFAFF3 		.section	.text.__late_init,"ax",%progbits
 275      0080AFF3 
ARM GAS  /tmp/ccEODGzf.s 			page 20


 275      0080AFF3 
 275      0080
 276              		.align	2
 277              		.p2align 4,,15
 278              		.weak	__late_init
 279              		.thumb
 280              		.thumb_func
 281              		.type	__late_init, %function
 282              	__late_init:
 283              		@ args = 0, pretend = 0, frame = 0
 284              		@ frame_needed = 0, uses_anonymous_args = 0
 285              		@ link register save eliminated.
 286 0000 7047     		bx	lr
 287              		.size	__late_init, .-__late_init
 288 0002 00BFAFF3 		.section	.text._default_exit,"ax",%progbits
 288      0080AFF3 
 288      0080AFF3 
 288      0080
 289              		.align	2
 290              		.p2align 4,,15
 291              		.weak	_default_exit
 292              		.thumb
 293              		.thumb_func
 294              		.type	_default_exit, %function
 295              	_default_exit:
 296              		@ Volatile: function does not return.
 297              		@ args = 0, pretend = 0, frame = 0
 298              		@ frame_needed = 0, uses_anonymous_args = 0
 299              		@ link register save eliminated.
 300              	.L4:
 301 0000 FEE7     		b	.L4
 302              		.size	_default_exit, .-_default_exit
 303 0002 00BFAFF3 		.section	.text.Reset_Handler,"ax",%progbits
 303      0080AFF3 
 303      0080AFF3 
 303      0080
 304              		.align	2
 305              		.p2align 4,,15
 306              		.global	Reset_Handler
 307              		.thumb
 308              		.thumb_func
 309              		.type	Reset_Handler, %function
 310              	Reset_Handler:
 311              		@ Naked Function: prologue and epilogue provided by programmer.
 312              		@ args = 0, pretend = 0, frame = 0
 313              		@ frame_needed = 0, uses_anonymous_args = 0
 314              	@ 267 "/home/cody/dev/chibios/trunk/os/common/ports/ARMCMx/compilers/GCC/crt0.c" 1
 315 0000 72B6     		cpsid   i
 316              	@ 0 "" 2
 317              		.thumb
 318 0002 374C     		ldr	r4, .L26
 319              	@ 269 "/home/cody/dev/chibios/trunk/os/common/ports/ARMCMx/compilers/GCC/crt0.c" 1
 320 0004 84F30988 		msr     PSP, r4
 321              	@ 0 "" 2
 322              		.thumb
 323 0008 364B     		ldr	r3, .L26+4
 324 000a 3749     		ldr	r1, .L26+8
ARM GAS  /tmp/ccEODGzf.s 			page 21


 325 000c 1A68     		ldr	r2, [r3]
 326 000e 4FF04040 		mov	r0, #-1073741824
 327 0012 42F47002 		orr	r2, r2, #15728640
 328 0016 1A60     		str	r2, [r3]
 329 0018 0860     		str	r0, [r1]
 330 001a 0023     		movs	r3, #0
 331              	@ 280 "/home/cody/dev/chibios/trunk/os/common/ports/ARMCMx/compilers/GCC/crt0.c" 1
 332 001c E1EE103A 		vmsr    FPSCR, r3
 333              	@ 0 "" 2
 334              		.thumb
 335 0020 0622     		movs	r2, #6
 336 0022 8B60     		str	r3, [r1, #8]
 337              	@ 289 "/home/cody/dev/chibios/trunk/os/common/ports/ARMCMx/compilers/GCC/crt0.c" 1
 338 0024 82F31488 		msr     CONTROL, r2
 339              	@ 0 "" 2
 340              	@ 290 "/home/cody/dev/chibios/trunk/os/common/ports/ARMCMx/compilers/GCC/crt0.c" 1
 341 0028 BFF36F8F 		isb
 342              	@ 0 "" 2
 343              		.thumb
 344 002c FFF7FEFF 		bl	__early_init
 345 0030 2E4B     		ldr	r3, .L26+12
 346 0032 2F4A     		ldr	r2, .L26+16
 347 0034 9342     		cmp	r3, r2
 348 0036 0BD2     		bcs	.L9
 349 0038 D943     		mvns	r1, r3
 350 003a 1144     		add	r1, r1, r2
 351 003c 21F00301 		bic	r1, r1, #3
 352 0040 1944     		add	r1, r1, r3
 353 0042 4FF05532 		mov	r2, #1431655765
 354 0046 043B     		subs	r3, r3, #4
 355              	.L10:
 356 0048 43F8042F 		str	r2, [r3, #4]!
 357 004c 8B42     		cmp	r3, r1
 358 004e FBD1     		bne	.L10
 359              	.L9:
 360 0050 284B     		ldr	r3, .L26+20
 361 0052 A342     		cmp	r3, r4
 362 0054 0CD2     		bcs	.L8
 363 0056 2849     		ldr	r1, .L26+24
 364 0058 1A1D     		adds	r2, r3, #4
 365 005a 891A     		subs	r1, r1, r2
 366 005c 21F00301 		bic	r1, r1, #3
 367 0060 1944     		add	r1, r1, r3
 368 0062 4FF05532 		mov	r2, #1431655765
 369 0066 043B     		subs	r3, r3, #4
 370              	.L13:
 371 0068 43F8042F 		str	r2, [r3, #4]!
 372 006c 8B42     		cmp	r3, r1
 373 006e FBD1     		bne	.L13
 374              	.L8:
 375 0070 2249     		ldr	r1, .L26+28
 376 0072 234B     		ldr	r3, .L26+32
 377 0074 9942     		cmp	r1, r3
 378 0076 0BD2     		bcs	.L12
 379 0078 C843     		mvns	r0, r1
 380 007a 1844     		add	r0, r0, r3
 381 007c 20F00300 		bic	r0, r0, #3
ARM GAS  /tmp/ccEODGzf.s 			page 22


 382 0080 204C     		ldr	r4, .L26+36
 383 0082 0430     		adds	r0, r0, #4
 384 0084 0023     		movs	r3, #0
 385              	.L16:
 386 0086 E258     		ldr	r2, [r4, r3]
 387 0088 CA50     		str	r2, [r1, r3]
 388 008a 0433     		adds	r3, r3, #4
 389 008c 8342     		cmp	r3, r0
 390 008e FAD1     		bne	.L16
 391              	.L12:
 392 0090 1D4B     		ldr	r3, .L26+40
 393 0092 1E4A     		ldr	r2, .L26+44
 394 0094 9342     		cmp	r3, r2
 395 0096 0AD2     		bcs	.L15
 396 0098 D943     		mvns	r1, r3
 397 009a 1144     		add	r1, r1, r2
 398 009c 21F00301 		bic	r1, r1, #3
 399 00a0 1944     		add	r1, r1, r3
 400 00a2 0022     		movs	r2, #0
 401 00a4 043B     		subs	r3, r3, #4
 402              	.L19:
 403 00a6 43F8042F 		str	r2, [r3, #4]!
 404 00aa 8B42     		cmp	r3, r1
 405 00ac FBD1     		bne	.L19
 406              	.L15:
 407 00ae 184D     		ldr	r5, .L26+48
 408 00b0 184C     		ldr	r4, .L26+52
 409 00b2 FFF7FEFF 		bl	__late_init
 410 00b6 AC42     		cmp	r4, r5
 411 00b8 04D2     		bcs	.L18
 412              	.L22:
 413 00ba 54F8043B 		ldr	r3, [r4], #4
 414 00be 9847     		blx	r3
 415 00c0 AC42     		cmp	r4, r5
 416 00c2 FAD3     		bcc	.L22
 417              	.L18:
 418 00c4 144D     		ldr	r5, .L26+56
 419 00c6 154C     		ldr	r4, .L26+60
 420 00c8 FFF7FEFF 		bl	main
 421 00cc AC42     		cmp	r4, r5
 422 00ce 04D2     		bcs	.L21
 423              	.L23:
 424 00d0 54F8043B 		ldr	r3, [r4], #4
 425 00d4 9847     		blx	r3
 426 00d6 AC42     		cmp	r4, r5
 427 00d8 FAD3     		bcc	.L23
 428              	.L21:
 429 00da FFF7FEFF 		bl	_default_exit
 430              	.L27:
 431 00de 00BF     		.align	2
 432              	.L26:
 433 00e0 00000000 		.word	__process_stack_end__
 434 00e4 88ED00E0 		.word	-536810104
 435 00e8 34EF00E0 		.word	-536809676
 436 00ec 00000000 		.word	__main_stack_base__
 437 00f0 00000000 		.word	__main_stack_end__
 438 00f4 00000000 		.word	__process_stack_base__
ARM GAS  /tmp/ccEODGzf.s 			page 23


 439 00f8 03000000 		.word	__process_stack_end__+3
 440 00fc 00000000 		.word	_data
 441 0100 00000000 		.word	_edata
 442 0104 00000000 		.word	_textdata
 443 0108 00000000 		.word	_bss_start
 444 010c 00000000 		.word	_bss_end
 445 0110 00000000 		.word	__init_array_end
 446 0114 00000000 		.word	__init_array_start
 447 0118 00000000 		.word	__fini_array_end
 448 011c 00000000 		.word	__fini_array_start
 449              		.size	Reset_Handler, .-Reset_Handler
 450              		.comm	__gnu_lto_v1,1,1
 451              		.ident	"GCC: (GNU Tools for ARM Embedded Processors) 4.8.4 20140526 (release) [ARM/embedded-4_8-br
ARM GAS  /tmp/ccEODGzf.s 			page 24

