ARM GAS  /tmp/ccHHzA80.s 			page 1


   1              		.syntax unified
   2              		.cpu cortex-m4
   3              		.eabi_attribute 27, 3
   4              		.eabi_attribute 28, 1
   5              		.fpu fpv4-sp-d16
   6              		.eabi_attribute 20, 1
   7              		.eabi_attribute 21, 1
   8              		.eabi_attribute 23, 3
   9              		.eabi_attribute 24, 1
  10              		.eabi_attribute 25, 1
  11              		.eabi_attribute 26, 1
  12              		.eabi_attribute 30, 2
  13              		.eabi_attribute 34, 1
  14              		.eabi_attribute 18, 4
  15              		.thumb
  16              		.file	"datalogger.c"
  17              		.section	.gnu.lto_.jmpfuncs.27aac27bcc8f3010,"",%progbits
  18 0000 789C7D50 		.ascii	"x\234}P\273N\3030\024\275\327N\2336\005\005\361\001"
  18      BB4EC330 
  18      14BDD74E 
  18      9B360505 
  18      F101
  19 0012 9185C456 		.ascii	"\221\205\304V\324\252#\023\025\015]\312C\205\2015\002"
  19      D4AA2313 
  19      150D5DCA 
  19      43858135 
  19      02
  20 0023 134594A6 		.ascii	"\023E\224\246rC\020b\311gta\340[\370+&\256\035\007Y"
  20      72431062 
  20      C9677461 
  20      E05BF82B 
  20      26AE1D07 
  21 0038 059121E7 		.ascii	"\005\221!\347\306\347qO\314\200\301_\317#\002|\022\356"
  21      C6E7714F 
  21      CC80C15F 
  21      CF23027C 
  21      12EE
  22 004a 02A78973 		.ascii	"\002\247\211s\032KB\000,5M&v\213\031\352\031}n\317\011"
  22      1A4B4200 
  22      2C354D26 
  22      768B19EA 
  22      197D6ECF 
  23 005f 5869190C 		.ascii	"Xi\031\014\352\3577\370\2526\325^\206,\002|\2576'\031"
  23      EAEF37F8 
  23      AA36D55E 
  23      862C027C 
  23      AF362719 
  24 0073 72BB8323 		.ascii	"r\273\203#\371\275\220\271*/\202A\255j\325\032\227l"
  24      F9BD90B9 
  24      2A2F8241 
  24      AD6AD51A 
  24      976C
  25 0085 47705593 		.ascii	"GpU\223~\023a\312\230}\224\205\266@\013\2719\3534d\367"
  25      7E1361CA 
  25      987D9485 
  25      B6400BB9 
  25      39EB3464 
ARM GAS  /tmp/ccHHzA80.s 			page 2


  26 009a 4765BBBB 		.ascii	"Ge\273\273\373*t\027\266C\347gY\015\274\334r\005\021"
  26      FB2A7417 
  26      B643E767 
  26      590DBCDC 
  26      720511
  27 00ad 7C5857CF 		.ascii	"|XW\317\270|\350@\027\003\235\337\323/\266Un\037`'D"
  27      B87CE840 
  27      17039DDF 
  27      D32FB655 
  27      6E1F6027 
  28 00c2 1BEC3917 		.ascii	"\033\3549\027IH\227lz\035M\3067\343\331\345t\032\317"
  28      4948976C 
  28      7A1D4DC6 
  28      37E3D9E5 
  28      741ACF
  29 00d5 8F45AC54 		.ascii	"\217E\254T\256\304\235\222I\221-S1\313\323\207l!\373"
  29      AEC49D92 
  29      49912D53 
  29      31CBD387 
  29      6C21FB
  30 00e8 229ECF0F 		.ascii	"\"\236\317\017\207\243\373\000\204\253\236$E\262\310"
  30      87A3FB00 
  30      84AB9E24 
  30      45B2C8
  31 00f7 D3542A71 		.ascii	"\323T*q]$\252\220$\030\374\216;\317\237\227&\356\214"
  31      5D24AA90 
  31      2418FC8E 
  31      3BCF9F97 
  31      26EE8C
  32 010a B2D6AFEB 		.ascii	"\262\326\257\353B>\365u\340h\370o`\276Z\351\300\003"
  32      423EF575 
  32      E068F86F 
  32      60BE5AE9 
  32      C003
  33 011c 5770DA34 		.ascii	"Wp\3324\273\220/M\273\000\276\0014\023h\312"
  33      BB902F4D 
  33      BB00BE01 
  33      341368CA 
  34              		.text
  35              		.section	.gnu.lto_.inline.27aac27bcc8f3010,"",%progbits
  36 0000 789C7551 		.ascii	"x\234uQ=O\3030\020}g\273\211\323|\264\300\320Vj\325"
  36      3D4FC330 
  36      107D67BB 
  36      89D37CB4 
  36      C0D0566A 
  37 0015 2084E802 		.ascii	" \204\350\002\033[\205\330\221:3vk\371\027\031\020\352"
  37      1B5B85D8 
  37      913A3376 
  37      6BF91719 
  37      10EA
  38 0027 84FA0390 		.ascii	"\204\372\003\220\350\217@\002!\006\226\356\314\314\035"
  38      E88F4002 
  38      210696EE 
  38      CCCC1D
  39 0036 183B3020 		.ascii	"\030;0 \304\300\331\216#* Q\316/\347\347\273w\317\002"
  39      C4C0D98E 
  39      232A2051 
ARM GAS  /tmp/ccHHzA80.s 			page 3


  39      CE2FE7E7 
  39      BB77CF02 
  40 004a 027F3D8F 		.ascii	"\002\177=\217e:\205\212\273\260\244`\321\257\270\204"
  40      653A858A 
  40      BBB0A460 
  40      D1AFB884 
  41 005a 5A06C8F9 		.ascii	"Z\006\310\371\310\2742\261\004\302N\207 \352\327\247"
  41      C8BC32B1 
  41      04C24E87 
  41      20EAD7A7 
  42 006a A8AF8796 		.ascii	"\250\257\207\226Z\221\240R\213\300l\025m\0211\033r\254"
  42      5A91A052 
  42      8BC06C15 
  42      6D11311B 
  42      72AC
  43 007c D4A2EFEA 		.ascii	"\324\242\357\352\322[\250\\4\347LE\232\217\024v\017"
  43      D25BA85C 
  43      34E74C45 
  43      9A8F1476 
  43      0F
  44 008d 29129373 		.ascii	")\022\223s\272 \316@L=\202\315\245\006M=\"\233\313\014"
  44      BA20CE40 
  44      4C3D82CD 
  44      A5064D3D 
  44      229BCB0C 
  45 00a1 9A7A24C8 		.ascii	"\232z$\310\251\345\317\204\320\217\301}\013\216\263"
  45      A9E5CF84 
  45      D08FC17D 
  45      0B8EB3
  46 00b0 6EA134B2 		.ascii	"n\2414\262\273\263\\C\335t\012m\326\257v\256E\251\202"
  46      BBB35C43 
  46      DD740A6D 
  46      D6AF76AE 
  46      45A982
  47 00c3 FF8553CF 		.ascii	"\377\205S\317\310\351\347\231\034\346?\307`\2455$=\236"
  47      C8E9E799 
  47      1CE63FC7 
  47      60A53524 
  47      3D9E
  48 00d5 5D3EB410 		.ascii	"]>\264\020\316\016\354i;q9\213\251\021\240\331f\212"
  48      CE0EEC69 
  48      3B71398B 
  48      A911A0D9 
  48      668A
  49 00e7 7E3E815E 		.ascii	"~>\201^\037m\332Sz\310\254\020\2225\377\264[\377\312"
  49      1F6DDA53 
  49      7AC8AC10 
  49      9235FFB4 
  49      5BFFCA
  50 00fa 4450B274 		.ascii	"DP\262t\260 \34576\035\254#\336\256\\\016V\003\350\325"
  50      B020E537 
  50      361DAC23 
  50      DEAE5C0E 
  50      5603E8D5 
  51 010e E01F9763 		.ascii	"\340\037\227c\264\272$\034\325\306<H^\217\241\237\366"
  51      B4BA241C 
  51      D5C63C48 
ARM GAS  /tmp/ccHHzA80.s 			page 4


  51      5E8FA19F 
  51      F6
  52 011f 360E70D0 		.ascii	"6\016p\320\026jsV\304\356\206R+\333\272Rz\222\250~\217"
  52      166A7356 
  52      C4EE8652 
  52      2BDBBA52 
  52      7A92A87E 
  53 0134 6AD25E41 		.ascii	"j\322^A\303t\231T\310_\206\034\333{\011\032\267CD\367"
  53      C3749954 
  53      C85F861C 
  53      DB7B091A 
  53      B74344F7 
  54 0148 AC4B5FEE 		.ascii	"\254K_\3567A\35727\315\314\002\365\322\360\032\225i"
  54      3741EF32 
  54      37CDCC02 
  54      F5D2F01A 
  54      9569
  55 015a 147001E5 		.ascii	"\024p\001\345\254\252r)\322%\317(\262\317\017\015}\265"
  55      ACAA7229 
  55      D225CF28 
  55      B2CF0F0D 
  55      7DB5
  56 016c 24E19491 		.ascii	"$\341\224\221\331\3047,\213U\207"
  56      D9C4372C 
  56      8B5587
  57              		.text
  58              		.section	.gnu.lto_.pureconst.27aac27bcc8f3010,"",%progbits
  59 0000 789C6362 		.ascii	"x\234cb`b\220f\200\000^\006\011F)fI\026)V)6)v\006\016"
  59      60629066 
  59      80005E06 
  59      09462966 
  59      49162956 
  60 001a 064E562E 		.ascii	"\006NV.)nI\036)^K\000\026\373\001\252"
  60      296E491E 
  60      295E4B00 
  60      16FB01AA 
  61              		.text
  62              		.section	.gnu.lto_chprintf.27aac27bcc8f3010,"",%progbits
  63 0000 789C8550 		.ascii	"x\234\205P\315J\002Q\024>\337\0355uc\333v\342\0034\213"
  63      CD4A0251 
  63      143EDF1D 
  63      357563DB 
  63      76E20334 
  64 0015 22E80D7A 		.ascii	"\"\350\015z\000\203Z\3058\216z\011\035\321Q\260\026"
  64      00835AC5 
  64      388E7A09 
  64      1DD151B0 
  64      16
  65 0026 5EC1C245 		.ascii	"^\301\302E\013ig\021)\321:\244\027\030\202\332DI\273"
  65      0B696711 
  65      29D13AA4 
  65      171882DA 
  65      4449BB
  66 0039 162D2497 		.ascii	"\026-$\227\265h\321*\202\351\336\031\024\372\201\016"
  66      B568D12A 
  66      82E9DE19 
  66      14FA810E 
ARM GAS  /tmp/ccHHzA80.s 			page 5


  67 0049 DC7B7EBE 		.ascii	"\334{~\276s\276\363\303\210\321OY\220o\010\2425\251"
  67      73BEF3C3 
  67      88D14F59 
  67      906F08A2 
  67      35A9
  68 005b A11158F7 		.ascii	"\241\021X\367\236\250\025e\2002\010\324dhnB\245\262"
  68      9EA81565 
  68      803208D4 
  68      64686E42 
  68      A5B2
  69 006d 140D84DB 		.ascii	"\024\015\204\333\035_O\036\321\023n\273/>=\017\340\220"
  69      1D5F4F1E 
  69      D1136EBB 
  69      2F3E3D0F 
  69      E090
  70 007f B42B2013 		.ascii	"\264+ \023\264!\035$}\305B\337\373\250Z\321uOon!\016"
  70      B4211D24 
  70      7DC542DF 
  70      FBA85AD1 
  70      754F6F6E 
  71 0095 45EBCDF3 		.ascii	"E\353\315\363\022\034\032\243\325\377\012/\230\373\354"
  71      121C1AA3 
  71      D5FF0A2F 
  71      98FBEC
  72 00a4 794FC3F7 		.ascii	"yO\303\367\203W\364XLC\021\024\222\037\"d\340\014)\225"
  72      8357F458 
  72      4C431114 
  72      921F2264 
  72      E00C2995 
  73 00b8 13A6B624 		.ascii	"\023\246\266$O\032\030H\177\0325\375\241\323\362W\233"
  73      4F1A1848 
  73      7F1A35FD 
  73      A1D3F257 
  73      9B
  74 00c9 AC8329AD 		.ascii	"\254\203)\255\215ho\3343\015\234#,\321]\372\020\035"
  74      8D686FDC 
  74      330D9C23 
  74      2CD15DFA 
  74      101D
  75 00db 31CF1132 		.ascii	"1\317\0212\341\247\313\310\016Gx\312\344g\251\2514\""
  75      E1A7CBC8 
  75      0E4778CA 
  75      E467A9A9 
  75      3422
  76 00ed 2E3BD288 		.ascii	".;\322\210\366\307G\223x\200\344\021\231\021\314\231"
  76      F6C74793 
  76      7880E411 
  76      9911CC99 
  77 00fd 088E9B87 		.ascii	"\010\216\233\207\226G( \340\210\252\222\366\370\370"
  77      96472820 
  77      E088AA92 
  77      F6F8F8
  78 010c 77C798A9 		.ascii	"w\307\230\251H\377\356\310\021'\272\243\253\027\026"
  78      48FFEEC8 
  78      1127BAA3 
  78      AB1716
  79 011b 04027099 		.ascii	"\004\002p\231.EG\235[\312\003\265\372'\332l\214\340"
ARM GAS  /tmp/ccHHzA80.s 			page 6


  79      2E45479D 
  79      5BCA03B5 
  79      FA27DA6C 
  79      8CE0
  80 012d 5469B983 		.ascii	"Ti\271\203\334Q\315\261\244\027\354\242\245\233v\266"
  80      DC51CDB1 
  80      A417ECA2 
  80      A59B76B6 
  81 013d A167ADBA 		.ascii	"\241g\255\272n\026x\206\333U\335\251\324J\333\2724\352"
  81      6E167886 
  81      DB55DDA9 
  81      D44ADBBA 
  81      34EA
  82 014f 4685DBB5 		.ascii	"F\205\333\265\252\004\312\025^rr\213\005bF9\221\263"
  82      AA04CA15 
  82      5E72728B 
  82      05624639 
  82      91B3
  83 0161 2B45C371 		.ascii	"+E\303q\254\354V\246\341X\325/\251H\201#"
  83      ACEC56A6 
  83      E158D52F 
  83      A9488123 
  84              		.text
  85              		.section	.gnu.lto_logfileNew.part.0.27aac27bcc8f3010,"",%progbits
  86 0000 789C8593 		.ascii	"x\234\205\223Mh\023Q\020\200g\336\333?ckR\215\210\210"
  86      4D681351 
  86      108067DE 
  86      DB3F636B 
  86      528D8888 
  87 0014 B2543CA9 		.ascii	"\262T<\251Es\024\212V\022r)XB\002z\021b\032\227\205"
  87      4573148A 
  87      56127229 
  87      5842027A 
  87      11621A97 
  88 0029 D6C0DA9B 		.ascii	"\326\300\332\233\207\276\324X<\364\020\2744XD\213\210"
  88      87BED458 
  88      3CF410BC 
  88      3458448B 
  88      88
  89 003a A082F464 		.ascii	"\240\202\364d\216\365V\021\377\216\205b\203\305\233"
  89      8EF55611 
  89      FF8E8562 
  89      83C59B
  90 0049 8817A1F5 		.ascii	"\210\027\241\365\320\355\314n\262\325h\360\301\316\314"
  90      D0EDCC6E 
  90      B2D568F0 
  90      C1CECC
  91 0058 CECE3733 		.ascii	"\316\31673o\336[\001\002\272W\232\236\253\022`\2144"
  91      6FDE5B01 
  91      02BA579A 
  91      9EAB1260 
  91      8C34
  92 006a 9A8046FD 		.ascii	"\232\200F\375=\031\006\212@\013!\347\023\240b\332\326"
  92      3D19068A 
  92      400B21E7 
  92      13A062DA 
  92      D6
ARM GAS  /tmp/ccHHzA80.s 			page 7


  93 007b 30A83E89 		.ascii	"0\250>\211:{\253\226\3261tD6\000a\332\020R\323q\372"
  93      3A7BAB96 
  93      D6317444 
  93      360061DA 
  93      1052D371 
  94 0090 0A725639 		.ascii	"\012rV9\010\213J\335k\335Y\230;\254\036\315\324\325"
  94      088B4ADD 
  94      6BDD5998 
  94      3BAC1ECD 
  94      D4D5
  95 00a2 B6EFA38B 		.ascii	"\266\357\243\213T?\201PB\270L/h\007Jh\1776\024\222\313"
  95      543F8150 
  95      42B84C2F 
  95      68074A68 
  95      7F361492 
  96 00b7 EB3F9BA8 		.ascii	"\353?\233\250fU\365\207\357\307]\224\002\016\355\202"
  96      6655F587 
  96      EFC75D94 
  96      020EED82 
  97 00c7 5608E23F 		.ascii	"V\010\342?\301\265\257c+\252\266\354\373\347]\324\004"
  97      C1B5AF63 
  97      2BAAB6EC 
  97      FBE75DD4 
  97      04
  98 00d8 1CF95FBD 		.ascii	"\034\371_\275\227B\265|\177u\303\032@\234\244\016I\240"
  98      9742B57C 
  98      7F75C31A 
  98      409CA40E 
  98      49A0
  99 00ea 24417145 		.ascii	"$AqE|\214\203\240\223~B\332\000\027u\223\204a\261 T"
  99      7C8C83A0 
  99      937E42DA 
  99      00177593 
  99      8461B120 
 100 00ff 879A5275 		.ascii	"\207\232Ru;\014+\342\"I\340j\264\362$y2y\012$-\013("
 100      3B0C2BE2 
 100      2249E06A 
 100      B4F22479 
 100      32790A24 
 101 0116 02FD0E66 		.ascii	"\002\375\016f\336n~\216\027\361)\352p\022\236)Zg]4\027"
 101      DE6E7E8E 
 101      17F129EA 
 101      70129E29 
 101      5A675D34 
 102 012b E07E55A9 		.ascii	"\340~U\251\204\213\226\203\202\333\334\0234w\255\275"
 102      848B9683 
 102      82DBDC13 
 102      3477ADBD 
 103 013b 4707C920 		.ascii	"G\007\311 \266\331xx\260\233\215\365dC\230=16\270vs"
 103      B6D97878 
 103      B09B8DF5 
 103      6443983D 
 103      3136B876 
 104 0150 FDAFDA7B 		.ascii	"\375\257\332{{\362\242]\233\256\307\007\230mm\247B\324"
 104      7BF2A25D 
 104      9BAEC707 
 104      986D6DA7 
ARM GAS  /tmp/ccHHzA80.s 			page 8


 104      42D4
 105 0162 41ED16FC 		.ascii	"A\355\026\374Rw\031\351+\265\253P\207\024\310t\177\214"
 105      527719E9 
 105      2BB5AB50 
 105      8714C874 
 105      7F8C
 106 0174 C6B30F60 		.ascii	"\306\263\017`\005j\337^\373G#\206\277\311\337'_\240"
 106      056ADF5E 
 106      FB472386 
 106      BFC9DF27 
 106      5FA0
 107 0186 D7F9048F 		.ascii	"\327\371\004\217\344M\363\313G\354\004\352Q?\273e\342"
 107      E44DF3CB 
 107      47EC04EA 
 107      513FBB65 
 107      E2
 108 0197 9301CA29 		.ascii	"\223\001\312)\342m\232\260\357\262\303\030\224\237\233"
 108      E26D9AB0 
 108      EFB2C318 
 108      949F9B
 109 01a6 34420740 		.ascii	"4B\007@D&J\3216tv6\224zEY\006\216\301\361\007\252q\301"
 109      44264AD1 
 109      36747636 
 109      947A4559 
 109      068EC1F1 
 110 01be C5FDD066 		.ascii	"\305\375\320f(\213\213\007\302\304\267\237\317\211N"
 110      288B8B07 
 110      C2C4B79F 
 110      CF894E
 111 01cd 6E33C81D 		.ascii	"n3\310\0356\254\301\326\260\014\316ac\023\273\007\231"
 111      36ACC1D6 
 111      B00CCE61 
 111      6313BB07 
 111      99
 112 01de EC394819 		.ascii	"\3549H\031\035D\022\243\315\353\301\205\370D\177\021"
 112      1D4412A3 
 112      CDEBC185 
 112      F8447F11 
 113 01ee D7B6D8B9 		.ascii	"\327\266\330\271\012D\232\362\305\222\305\261t\305\264"
 113      0A449AF2 
 113      C592C5B1 
 113      74C5B4
 114 01fd B5A5245F 		.ascii	"\265\245$_\"\344X\336G\377xq\2528Qq\234\2627T\002#\264"
 114      22E458DE 
 114      47FF7871 
 114      AA385171 
 114      9CB23754 
 115 0214 A457BE69 		.ascii	"\244W\276i\2463\027\013\331\241\324\351\364H~d\364R"
 115      A633170B 
 115      D9A1D4E9 
 115      F4487E64 
 115      F452
 116 0226 369BC99D 		.ascii	"6\233\311\235\2633\236W\361\354\222W.N\2717\034{\264"
 116      B3339E57 
 116      F1EC9257 
 116      2E4EB937 
 116      1C7BB4
ARM GAS  /tmp/ccHHzA80.s 			page 9


 117 0239 E25C7727 		.ascii	"\342\\w'\312\247\354L.w\342Lj<\006;\315\031\337\036"
 117      CAA7EC4C 
 117      2E77E24C 
 117      6A3C063B 
 117      CD19DF1E 
 118              		.text
 119              		.section	.gnu.lto_logfileWrite.part.1.27aac27bcc8f3010,"",%progbits
 120 0000 789C8D52 		.ascii	"x\234\215R\275k\024Q\020\237\337{\273\233\333\030\341"
 120      BD6B1451 
 120      109FDF7B 
 120      BB9BDB18 
 120      E1
 121 0011 0A416321 		.ascii	"\012Ac!1`\243\230 Z\331\372/$\240\345\346\\\327\205"
 121      3160A398 
 121      205AD9FA 
 121      2F24A0E5 
 121      E65CD785 
 122 0025 F34E2E27 		.ascii	"\363N.'\026\026\231KN\015\022\302\221F1\026\011\"b!"
 122      1616994B 
 122      4E0D12C2 
 122      91463116 
 122      09226221 
 123 0039 8A562116 		.ascii	"\212V!\026\253B\260Q\021\322(\210\327'\330\010\"\"\256"
 123      AB42B051 
 123      11D22888 
 123      D727D808 
 123      2222AE
 124 004c 33BB7717 		.ascii	"3\273w\027\243\202y\2603\357\343\3671\363\366\0312\364"
 124      A38279B0 
 124      33EFE3F7 
 124      31F3F619 
 124      32F4
 125 005e E73829DF 		.ascii	"\3478)\337K\223gx\004\267\365F&.L\226\215\261\353\243"
 125      4B936778 
 125      04B7F546 
 125      262E4C96 
 125      8DB1EBA3 
 126 0072 C4FDCEB3 		.ascii	"\304\375\316\263\003\304\003\026\216\3566\012\016\240"
 126      03C40316 
 126      8EEE360A 
 126      0EA0
 127 0080 13024DB9 		.ascii	"\023\002M\271\306:\230:\003\325\362\206i\231y\241}u"
 127      C63A983A 
 127      03D5F286 
 127      699979A1 
 127      7D75
 128 0092 23C14D4E 		.ascii	"#\301MN\032K\374#M\201\030\342[\004\225@\247e\201B\226"
 128      1A4BFC23 
 128      4D8118E2 
 128      5B049540 
 128      A7658142 
 129 00a7 0CB61792 		.ascii	"\014\266\027\222s\3711\263\233\361l\014kh\377\026\255"
 129      73F931B3 
 129      9BF16C0C 
 129      6B68FF16 
 129      AD
 130 00b8 98D3CC3F 		.ascii	"\230\323\314?iO\230\375.\3151tp\2136\224\323\234\277"
ARM GAS  /tmp/ccHHzA80.s 			page 10


 130      694F98FD 
 130      2ECD3174 
 130      708B3694 
 130      D39CBF
 131 00cb 69492BF9 		.ascii	"iI+\371\26467\310K\323-\376)\205\306p\015\035\332\011"
 131      B43637C8 
 131      4BD32DFE 
 131      2985C670 
 131      0D1DDA09 
 132 00df 9317928F 		.ascii	"\223\027\222\217k\363{\271\315]\246g\350\350\216:l%"
 132      6BF37BB9 
 132      CD5DA667 
 132      E8E88E3A 
 132      6C25
 133 00f1 E9B53B83 		.ascii	"\351\265;\2037\266y\036\373\237\347#\303\3554]\371Z"
 133      37B6791E 
 133      FB9FE723 
 133      C3ED345D 
 133      F95A
 134 0103 F0810B7A 		.ascii	"\360\201\013z\2331\372,\005x\200ardQp5\010\320\245\246"
 134      9B31FA2C 
 134      05788061 
 134      72645170 
 134      3508D0A5 
 135 0118 580CE527 		.ascii	"X\014\345'\001\356gq9\213w\263xO\"\251\233\2141\211"
 135      01EE6771 
 135      398B77B3 
 135      784F22A9 
 135      9B8C3189 
 136 012c FA1BC7E0 		.ascii	"\372\033\307\340j\266\3430Y~M\323\037n}\371\206\000"
 136      6AB6E330 
 136      597E4DD3 
 136      1F6E7DF9 
 136      8600
 137 013e 0FE52482 		.ascii	"\017\345$\2029B\207\305p\221n7\230\2131\374\010\320"
 137      394287C5 
 137      70916E37 
 137      988B31FC 
 137      08D0
 138 0150 2AFBB3DA 		.ascii	"*\373\263\332&z]\276\245f\342uI\366\012}\347Y\205\357"
 138      267A5DBE 
 138      A566E275 
 138      49F60A7D 
 138      E75985EF 
 139 0164 2A218788 		.ascii	"*!\207\210R\214\001\242W\324\334|\276x\335\364\240*"
 139      528C01A2 
 139      57D4DC7C 
 139      BE78DDF4 
 139      A02A
 140 0176 E6FDDEEF 		.ascii	"\346\375\336\3578,\255\217j!\237gV\347{\232\216`\273"
 140      382CAD8F 
 140      6A219F67 
 140      56E77B9A 
 140      8E60BB
 141 0189 00A753EA 		.ascii	"\000\247S\352\213\215\216N\336\355\011z\312\263z\253"
 141      8B8D8E4E 
 141      DEED097A 
ARM GAS  /tmp/ccHHzA80.s 			page 11


 141      CAB37AAB 
 142 0199 027A272F 		.ascii	"\002z'/U]uN\357\311U\033\3310s\253{D\313n\256\354\323"
 142      555D754E 
 142      EFC9551B 
 142      D93073AB 
 142      7B44CB6E 
 143 01b0 DEA142FA 		.ascii	"\336\241B\372\250v\237\015\352A\271\032Eam\244D~\365"
 143      A8769F0D 
 143      EA41B91A 
 143      45616DA4 
 143      447EF5
 144 01c3 62583955 		.ascii	"bX9U\256N\206^9\254D\365\363v\342\322\271\276\313\265"
 144      AE4E865E 
 144      39AC44F5 
 144      F376E2D2 
 144      B9BECBB5 
 145 01d7 B85E0F2B 		.ascii	"\270^\017+\266\026N\372\235\371\310\361_\274]\270\004"
 145      B6164EFA 
 145      9DF9C8F1 
 145      5FBC5DB8 
 145      04
 146              		.text
 147              		.section	.gnu.lto_dataLoggerInitialize.27aac27bcc8f3010,"",%progbits
 148 0000 789C8D54 		.ascii	"x\234\215TMhSA\020\236\331\367^^^\232\266i\355/\324"
 148      4D685341 
 148      109ED9F7 
 148      5E5E5E9A 
 148      B669ED2F 
 149 0015 100A3D29 		.ascii	"\020\012=)\265\364\"\210\240\225\306^\374\201\332\240"
 149      B5F42288 
 149      A095C65E 
 149      FC81DAA0 
 150 0025 1E631AC2 		.ascii	"\036c\032\302\203\246\2254\"\342\241\233R\212\370\203"
 150      83A69534 
 150      22E2A19B 
 150      528AF883 
 151 0035 A1A75211 		.ascii	"\241\247R\021-R\250R\320\203`P\204VEZ\213\255?\247\242"
 151      2D52A852 
 151      D0836050 
 151      8456455A 
 151      8BAD3FA7 
 152 004a 420E8217 		.ascii	"B\016\202\027\021\017\242\342\3018\363~\322$\024\351"
 152      110FA2E2 
 152      C138F37E 
 152      D22414E9 
 153 005a 42767766 		.ascii	"Bvwf\347\233\357\233\331}\021 \240r\234\247\337-\025"
 153      E79BEF9B 
 153      D97D1120 
 153      A0729CA7 
 153      DF2D15
 154 006d 609856F4 		.ascii	"`\230V\364\001\212\354\032@\306+\204\361S\007\351Sf"
 154      018AEC1A 
 154      40C62B84 
 154      F15307E9 
 154      5366
 155 007f 5E0248BF 		.ascii	"^\002H\277\342\230\252m\252B\373XE\246\347\341365\364"
 155      E298AA6D 
ARM GAS  /tmp/ccHHzA80.s 			page 12


 155      AA42FB58 
 155      45A6E7E1 
 155      333635F4 
 156 0093 D8288FD0 		.ascii	"\330(\217\320\263\012\371\275r\225\375:\032\266\337"
 156      B30AF9BD 
 156      7295FD3A 
 156      1AB6DF
 157 00a2 EB6E0C44 		.ascii	"\353n\014D\336\000\302\230PT\315\243\223g\3544\262\020"
 157      DE00C298 
 157      5054CDA3 
 157      9367EC34 
 157      B210
 158 00b4 D10EB352 		.ascii	"\321\016\263RN\345\347\256_k\275|{<+\377\026\012h\""
 158      4EE5E7AE 
 158      5F6BBD7C 
 158      7B3C2BFF 
 158      160A6822 
 159 00c8 490E20C4 		.ascii	"I\016 \304\020N\221\201!k\021jy\0156r\361\323\217\034"
 159      104E9181 
 159      216B116A 
 159      790D3672 
 159      F1D38F1C 
 160 00dc CA4999F9 		.ascii	"\312I\231\371^(\324\232\250\010h\331\004zm \226\003"
 160      5E28D49A 
 160      A80868D9 
 160      047A6D20 
 160      9603
 161 00ee EF8BC57C 		.ascii	"\357\213\305|\241pu\356MG3B\222\271LTUL\"j4\011\235"
 161      A17075EE 
 161      4D473342 
 161      92B94C54 
 161      554C226A 
 162 0105 26C5A009 		.ascii	"&\305\240\011\374t\240\005 \212w\260\035\352h\235\245"
 162      FC74A005 
 162      208A77B0 
 162      1DEA689D 
 162      A5
 163 0116 B59E9C9E 		.ascii	"\265\236\234\236F\307\240\241\301\204\224\331\220\035"
 163      46C7A0A1 
 163      C18494D9 
 163      901D
 164 0124 044C4D63 		.ascii	"\004LMc\200f.9\202\202We\031^|Yz\337\026\3059\324 \201"
 164      80662E39 
 164      82825765 
 164      195E7C59 
 164      7ADF16C5 
 165 013c 2ACBD24B 		.ascii	"*\313\322K5EP\001\352\262\025\2309\351\306i\034\347"
 165      35455001 
 165      EAB21598 
 165      39E9C669 
 165      1CE7
 166 014e 2D8F53E1 		.ascii	"-\217S\341\312\001\3455\214\257\376~Um\307\335\200\231"
 166      CA01E535 
 166      8CAFFE7E 
 166      556DC7DD 
 166      8099
 167 0160 8C9401EA 		.ascii	"\214\224\001\352\332E\370#/\361\316H\"w\213\341\206"
ARM GAS  /tmp/ccHHzA80.s 			page 13


 167      DA45F823 
 167      2FF1CE48 
 167      22778BE1 
 167      86
 168 0171 854B309D 		.ascii	"\205K0\235\245b\243\250\302\340c_i\366\001\362?1\224"
 168      A562A3A8 
 168      C2E0635F 
 168      69F601F2 
 168      3F3194
 169 0184 087A8A24 		.ascii	"\010z\212$\253\015v\370.\270'i\354%\335\304G\300\252"
 169      AB0D76F8 
 169      2EB82769 
 169      EC25DDC4 
 169      47C0AA
 170 0197 3279679C 		.ascii	"2yg\234\036'\230w\035&\362\271)ty\374EY\376\030\242"
 170      1E279877 
 170      1D26F2B9 
 170      297479FC 
 170      4559FE18 
 171 01ac 1B666235 		.ascii	"\033fb5\000Q\254<\250\252d\320\266fp\241~\013\267\232"
 171      0051AC3C 
 171      A8AA64D0 
 171      B66670A1 
 171      7E0BB79A 
 172 01c0 5B6BAA04 		.ascii	"[k\252\004\372\266\006\012\007\210,m2\377\270\333U\026"
 172      FAB6060A 
 172      07882C6D 
 172      32FFB8DB 
 172      5516
 173 01d2 282AAB89 		.ascii	"(*\253\211\025\243\374\024\310\350Z\244\233\016p\327"
 173      15A3FC14 
 173      C8E85AA4 
 173      9B0E70D7 
 174 01e2 26BE2EFD 		.ascii	"&\276.\375*v-\300g\312f\3176\000\251\225*r\252i\271"
 174      2A762DC0 
 174      67CA66CF 
 174      3600A995 
 174      2A72AA69 
 175 01f7 F8E1AC89 		.ascii	"\370\341\254\211uAh\273)\247\017\232Xo\275\220y\205"
 175      754168BB 
 175      29A70F9A 
 175      586FBD90 
 175      7985
 176 0209 2F4E87E7 		.ascii	"/N\207\347\202{\2722_\353\346\252\333\316\325Y\325~"
 176      827BBA32 
 176      5FEBE6AA 
 176      DBCED559 
 176      D57E
 177 021b 535C4C7D 		.ascii	"S\\L}\202E\255\203\307v\300&rG\314\321E\211m5\362\021"
 177      8245AD83 
 177      C776C026 
 177      7247CCD1 
 177      45896D35 
 178 0231 65690842 		.ascii	"ei\010B\320V\303\257\326\302P\026\023\233\334\027\345"
 178      D056C3AF 
 178      D6C25016 
 178      139BDC17 
ARM GAS  /tmp/ccHHzA80.s 			page 14


 178      E5
 179 0242 85E5FD2C 		.ascii	"\205\345\375,,7=\265\263\262\243\315[w\324\346aO3\332"
 179      2C373DB5 
 179      B3B2A3CD 
 179      5B77D4E6 
 179      614F33DA 
 180 0256 025772EF 		.ascii	"\002Wr\357j\\\211\215\333+k\035\264\377\325\320\350"
 180      6A5C898D 
 180      DB2B6B1D 
 180      B4FFD5D0 
 180      E8
 181 0267 D4F09420 		.ascii	"\324\360\224 -A8f\327\320\352\326PR\200a}co\351\237"
 181      2D413866 
 181      D7D0EAD6 
 181      50528061 
 181      7D636FE9 
 182 027c 8671C2BE 		.ascii	"\206q\302\276\025\301TD\251,\204\255]\301\0358\246\177"
 182      15C15444 
 182      A92C84AD 
 182      5DC11D38 
 182      A67F
 183 028e D69D43EF 		.ascii	"\326\235C\357\302]t\266b!\314\037\000r.NQ=\030MG\207"
 183      C25D74B6 
 183      6221CC1F 
 183      00722E4E 
 183      513D184D 
 184 02a4 46128978 		.ascii	"F\022\211x\2523\006zo\370P\244\257\263K\211\247R\010"
 184      AA33067A 
 184      6FF850A4 
 184      AFB34B89 
 184      A75208
 185 02b7 7B7A7B06 		.ascii	"{z{\006z\216\034\357\353\013\367\357\013\205S\251\221"
 185      7A8E1CEF 
 185      EB0BF7EF 
 185      0B8553A9 
 185      91
 186 02c8 54E8E8C8 		.ascii	"T\350\350\310\271\341\2649\234\010\0356\207\342\243"
 186      B9E1B439 
 186      9C081D36 
 186      87E2A3
 187 02d7 1746D3F1 		.ascii	"\027F\323\361\344\356p\177\177Gw\327\240\017B\245\361"
 187      E4EE707F 
 187      7F4777D7 
 187      A00F42A5 
 187      F1
 188 02e8 BDC5BCA1 		.ascii	"\275\305\274\241\023\351h*\035\247\200\177\250\252:"
 188      13E9682A 
 188      1DA7807F 
 188      A8AA3A
 189 02f7 8C       		.ascii	"\214"
 190              		.text
 191              		.section	.gnu.lto_dataLoggerStop.27aac27bcc8f3010,"",%progbits
 192 0000 789C6550 		.ascii	"x\234eP\275KBQ\024\377\235\253/\315\322\034s(\036\255"
 192      BD4B4251 
 192      14FF9DAB 
 192      2FCDD21C 
 192      73281EAD 
ARM GAS  /tmp/ccHHzA80.s 			page 15


 193 0014 81D19434 		.ascii	"\201\321\2244e(.AP\0125\276\236\362x\220(\341\326\340"
 193      65282E41 
 193      500A35BE 
 193      9EF27890 
 193      28E1D6E0 
 194 0028 5522A241 		.ascii	"U\"\242A\244%\351\003\222\266\032Z]\202\326\206\276"
 194      A425E903 
 194      92B61A5A 
 194      5D82D686 
 194      BE
 195 0039 16A788B7 		.ascii	"\026\247\210\267\364?DC\257{\336\023\243:p\357\357\334"
 195      F43F4443 
 195      AF7BDE13 
 195      A33A70EF 
 195      EFDC
 196 004b CBEFE370 		.ascii	"\313\357\343p\004\004\376VB\235\026\001)\205\024\000"
 196      0404FE56 
 196      429D1601 
 196      29851400 
 197 005b 89F623D0 		.ascii	"\211\366#\320\010\013\"n@\250\013\252o\022Si\006])\217"
 197      080B226E 
 197      40A80BAA 
 197      6F125369 
 197      065D298F 
 198 006f 9CF77E2B 		.ascii	"\234\367~+qx\321l\313/\327%\233\224i\234`\0226\324\203"
 198      7178D16C 
 198      CB2FD725 
 198      9B94699C 
 198      601236D4 
 199 0084 740F44F0 		.ascii	"t\017D\360w\312\215\270s\\\367\354\372y.$`PWYiT\366"
 199      77CA8DB8 
 199      735CF7EC 
 199      FA792E24 
 199      60505759 
 200 009b 5C35EC49 		.ascii	"\\5\354I\331\326\301\016\252\362\352\346\344\002\011"
 200      D9D6C10E 
 200      AAF2EAE6 
 200      E40209
 201 00aa C6C0039A 		.ascii	"\306\300\003\232\367\037\375\230A\227\244\301\"q\212"
 201      F71FFD98 
 201      4197A4C1 
 201      22718A
 202 00b9 93869471 		.ascii	"\223\206\224q\025\273\213Oy\300]\240L,\345\334\300 "
 202      15BB8B4F 
 202      79C05DA0 
 202      4C2CE5DC 
 202      C020
 203 00cb EF099AAF 		.ascii	"\357\011\232\257\300\017-hz4\260\013\177v\244\274U\022"
 203      C00F2D68 
 203      7A34B00B 
 203      7F76A4BC 
 203      5512
 204 00dd 6D1A93E7 		.ascii	"m\032\223\347\262\263d\323\010\006\032\233Bl\261\357"
 204      B2B364D3 
 204      08061A9B 
 204      426CB1EF 
 205 00ed BCA6FEB9 		.ascii	"\274\246\376\271\204M\362\227\310q\243>D|\030c\3458"
ARM GAS  /tmp/ccHHzA80.s 			page 16


 205      844DF297 
 205      C871A33E 
 205      447C1863 
 205      E538
 206 00ff A046EEF5 		.ascii	"\240F\356\365\216\247|\351,\256\244\252\005\233\242"
 206      8EA77CE9 
 206      2CAEA4AA 
 206      059BA2
 207 010e 6A74C58A 		.ascii	"jt\305\212Y\2441{\302s\331\362G\362\364Qn^\320p\336"
 207      59A4317B 
 207      C273D9F2 
 207      47F2F451 
 207      6E5ED070 
 208 0123 22BE76F8 		.ascii	"\"\276v\370\351/\206x!\034\036-\0325c\273bY\245\235"
 208      E92F8678 
 208      211C1E2D 
 208      1A3563BB 
 208      6259A59D 
 209 0137 A4895026 		.ascii	"\244\211P&\273\\\310%\347\365L:\237^Y\315\345\262k\213"
 209      BB5CC825 
 209      E7F54C3A 
 209      9F5E59CD 
 209      E5B26B8B 
 210 014b 7A66C8D0 		.ascii	"zf\310\320\327k\225j\265T\214\340\033E\367l\261"
 210      D76B956A 
 210      B5548CE0 
 210      1B45F76C 
 210      B1
 211              		.text
 212              		.section	.gnu.lto_logfileNew.27aac27bcc8f3010,"",%progbits
 213 0000 789C5D52 		.ascii	"x\234]R\317K\024q\024\377|\276\363\235u\334\334]\017"
 213      CF4B1471 
 213      14FF7CBE 
 213      F39D75DC 
 213      DC5D0F
 214 0013 1DEAB20C 		.ascii	"\035\352\262\014\036\025\014;z\312T\366\"\011\341B\035"
 214      1E150C3B 
 214      7ACA54F6 
 214      2209E142 
 214      1D
 215 0024 A7751D06 		.ascii	"\247u\035\0064A\204\016\035\374\256\210\204\007Y<-J"
 215      3441840E 
 215      1DFCAE88 
 215      8407593C 
 215      2D4A
 216 0036 91748BA2 		.ascii	"\221t\213\242\253\010\201\027\251\016%^\2442\304?\240"
 216      AB088117 
 216      A90E255E 
 216      A432C43F 
 216      A0
 217 0047 BFC083DB 		.ascii	"\277\300\203\333{\263\263\033\365`\336\233y\363>?\276"
 217      7BB3B31B 
 217      F560DE9B 
 217      79F33E3F 
 217      BE
 218 0058 6FC6C0E0 		.ascii	"o\306\300\340\377\030\223\253$\355q\251\364A\323\374"
 218      FF1893AB 
ARM GAS  /tmp/ccHHzA80.s 			page 17


 218      24ED71A9 
 218      F441D3FC 
 219 0068 06340263 		.ascii	"\0064\002c\354\331\035\270\001\357\260\014\227\367h"
 219      ECD91DB8 
 219      01EFB00C 
 219      97F768
 220 0077 B54D4B6A 		.ascii	"\265MKj\005\261f<\313\265\307T\012\016a\337\271\235"
 220      05B1663C 
 220      CBB5C754 
 220      0A0E61DF 
 220      B99D
 221 0089 CBE3F3ED 		.ascii	"\313\343\363\355\333[\257\327\233\356\272\335fB\021"
 221      DB5BAFD7 
 221      9BEEBADD 
 221      664211
 222 0098 1B246AC4 		.ascii	"\033$j\304#y`\230\026c\377U\377`\216.\333\355_\357\233"
 222      23796098 
 222      1663FF55 
 222      FF608E2E 
 222      DBED5FEF 
 223 00ad 9F582412 		.ascii	"\237X$\022zF\223E\304}a\315q\211\010$\261_\3326/w\246"
 223      7A469345 
 223      C47D61CD 
 223      71890824 
 223      B15FDA36 
 224 00c4 20C913A4 		.ascii	" \311\023\244\217\015\347\232!T@bN\262Z\253\322h\365"
 224      8F0DE79A 
 224      21544062 
 224      4EB25AAB 
 224      D268F5
 225 00d7 BE62FDCB 		.ascii	"\276b\375\313\367\363b\3047r\250\230v\017\273\015\347"
 225      F7F362C4 
 225      3772A898 
 225      760FBB0D 
 225      E7
 226 00e8 06C5D573 		.ascii	"\006\305\325s\\\271\027z\347/Q\335\250-?\263s\002\277"
 226      5CB9177A 
 226      E72F51DD 
 226      A82D3FB3 
 226      7302BF
 227 00fb 83C0DFB1 		.ascii	"\203\300\337\261\\\215\251\202\262h\263\345\334G\201"
 227      5C8DA982 
 227      B268B3E5 
 227      DC4781
 228 010a F49571EB 		.ascii	"\364\225q\353\245k\335K\030 \303$b\023\"|\320\272(u"
 228      A56BDD4B 
 228      1820C324 
 228      6213227C 
 228      D0BA2875 
 229 011e 5A2378EB 		.ascii	"Z#x\353$\306\222\324\200\240\3621s*x#e|\322!N-\244\213"
 229      24C692D4 
 229      80A0F231 
 229      732A7823 
 229      657CD221 
 230 0136 11F0CF83 		.ascii	"\021\360\317\203W7\273\256\373G0\334\203\016\304\014"
 230      5737BBAE 
 230      FB4730DC 
ARM GAS  /tmp/ccHHzA80.s 			page 18


 230      830EC40C 
 231 0146 74B09041 		.ascii	"t\260\220A3,>c\343w\243\324\203\364\270\272Q\225u\035"
 231      332C3E63 
 231      E377A3D4 
 231      83F4B8BA 
 231      5195751D 
 232 015a 96BD136C 		.ascii	"\226\275\023l\006\335!\323;\\\261F\223\035.\027\253"
 232      06DD21D3 
 232      3B5CB146 
 232      931D2E17 
 232      AB
 233 016b BB42C252 		.ascii	"\273B\302R\027g\323M\236\312\337\240\357S\275\037\240"
 233      1767D34D 
 233      9ECADFA0 
 233      EF53BD1F 
 233      A0
 234 017c 0AC80730 		.ascii	"\012\310\0070\357f\205\310\243\256\236:\250<\205\371"
 234      EF6685C8 
 234      A3AE9E3A 
 234      A83C85F9 
 235 018c 68355A5C 		.ascii	"h5Z\\\216\343\372\312h\015}S\323\367\253\225\321\273"
 235      8EE3FACA 
 235      680D7D53 
 235      D3F7AB95 
 235      D1BB
 236 019e 43531373 		.ascii	"CS\023s\0233\263\225\312\364\303\361pr\245\036\255&"
 236      1333B395 
 236      CAF4C3F1 
 236      7072A51E 
 236      AD26
 237 01b0 4FE3F041 		.ascii	"O\343\360A\375Y8\263\034/$\213\365<\376\000\207\307"
 237      FD5938B3 
 237      1C2F248B 
 237      F53CFE00 
 237      87C7
 238 01c2 82CC     		.ascii	"\202\314"
 239              		.text
 240              		.section	.gnu.lto_logfileSize.27aac27bcc8f3010,"",%progbits
 241 0000 789C6362 		.ascii	"x\234cb`b@\007\222@\034\015\304\374@\314\310\314\300"
 241      60624007 
 241      92401C0D 
 241      C4FC40CC 
 241      C8CCC0
 242 0013 C834E11C 		.ascii	"\3104\341\034\003C#\007\023##\210\301\300\310P\317\304"
 242      03432307 
 242      13232388 
 242      C1C0C850 
 242      CFC4
 243 0025 581FC908 		.ascii	"X\037\311\010V\273\236\351\300\203\377\377\327\3558"
 243      56BB9EE9 
 243      C083FFFF 
 243      D7ED38
 244 0034 B6603E23 		.ascii	"\266`>##\310(V\206\226\206\206\011\012\014\014\311`"
 244      23C82856 
 244      86968686 
 244      090A0C0C 
 244      C960
ARM GAS  /tmp/ccHHzA80.s 			page 19


 245 0046 05214012 		.ascii	"\005!@\022\244+\024(\011\244\231/24>\230\267\2301\221"
 245      A42B1428 
 245      09A4992F 
 245      32343E98 
 245      B7983191 
 246 005a 7121232B 		.ascii	"q!#+C\004c&#\334\326\020FF\220\012\220\031\274)\211"
 246      43046326 
 246      23DCD610 
 246      4646900A 
 246      9019BC29 
 247 006f 258939F9 		.ascii	"%\2119\371\351\351\251Ez\311\014\000\022\226\036\251"
 247      E9E9A945 
 247      7AC90C00 
 247      12961EA9 
 248              		.text
 249              		.section	.gnu.lto_logfileWriteCsv.27aac27bcc8f3010,"",%progbits
 250 0000 789C6362 		.ascii	"x\234cb`b@\007\222@\234\005\304\374@\314\310\314\300"
 250      60624007 
 250      92409C05 
 250      C4FC40CC 
 250      C8CCC0
 251 0013 C834E11C 		.ascii	"\3104\341\034\003C#\007\023##\210\301\300\310P\317\304"
 251      03432307 
 251      13232388 
 251      C1C0C850 
 251      CFC4
 252 0025 581FC908 		.ascii	"X\037\311\010V\273\236\351\300\203\377\377\327];\276"
 252      56BB9EE9 
 252      C083FFFF 
 252      D75D3BBE 
 253 0035 60062313 		.ascii	"`\006#\023+\023c.#\0033\220`d\001\022 \223Y\031Z\032"
 253      2B13632E 
 253      23033390 
 253      60640112 
 253      20935919 
 254 004b 1A262830 		.ascii	"\032&(00$\203\325\207\000I\220!\241@I \315|\221\241"
 254      302483D5 
 254      87004990 
 254      21A14049 
 254      20CD7C91 
 255 0060 F141FF52 		.ascii	"\361A\377R\306D\306\205\214\254\014\021\214\231\214"
 255      C644C685 
 255      8CAC0C11 
 255      8C998C
 256 006f 70478430 		.ascii	"pG\20402\202T\200\314\340MI,I\314\311OOO-\322Kf\000"
 256      32825480 
 256      CCE04D49 
 256      2C49CCC9 
 256      4F4F4F2D 
 257 0087 00647220 		.ascii	"\000dr  "
 257      20
 258              		.text
 259              		.section	.gnu.lto_logfileGetWrCount.27aac27bcc8f3010,"",%progbits
 260 0000 789C6362 		.ascii	"x\234cb`b@\007\222@<\003\210\371\201\230\221\231\201"
 260      60624007 
 260      92403C03 
 260      88F98198 
ARM GAS  /tmp/ccHHzA80.s 			page 20


 260      919981
 261 0013 9169C239 		.ascii	"\221i\3029\006\206F\016&FF\020\203\201\221\241\236\211"
 261      0686460E 
 261      26464610 
 261      838191A1 
 261      9E89
 262 0025 B13E9211 		.ascii	"\261>\222\021\254v=\323\201\007\377\377\257\333sj\301"
 262      AC763DD3 
 262      8107FFFF 
 262      AFDB736A 
 262      C1
 263 0036 0A462616 		.ascii	"\012F&\026&\306\\F\006f\206L\260\034+CKC\303\004\005"
 263      26C65C46 
 263      0666864C 
 263      B01C2B43 
 263      4B43C304 
 264 004b 06866430 		.ascii	"\006\206d07\004H\202\364\20722\201h\346\263\014M\267"
 264      37044882 
 264      F4873232 
 264      8168E6B3 
 264      0C4DB7
 265 005e 7E2CD74C 		.ascii	"~,\327Ld\\\310\310\312\220\316\310\254\315\260\252\001"
 265      645CC8C8 
 265      CA90CEC8 
 265      ACCDB0AA 
 265      01
 266 006f 08EC819A 		.ascii	"\010\354\201\232g3\314b\314ddLgd\212\000\322\020\007"
 266      6733CC62 
 266      CC64644C 
 266      67648A00 
 266      D21007
 267 0082 2631C29C 		.ascii	"&1\302\234w\221\241\361\000+\\\033D,\204\221\021d(H"
 267      7791A1F1 
 267      002B5C1B 
 267      442C8491 
 267      11642848 
 268 0096 296F4A62 		.ascii	")oJbIbN~zzj\221^2\003\000\267\333*9"
 268      49624E7E 
 268      7A7A6A91 
 268      5E320300 
 268      B7DB2A39 
 269              		.text
 270              		.section	.gnu.lto_logfileClose.27aac27bcc8f3010,"",%progbits
 271 0000 789C6D50 		.ascii	"x\234mP=K\003A\020}ow\317\\\242\022\013k\2656`\300\337"
 271      3D4B0341 
 271      107D6F77 
 271      CF5CA212 
 271      0B6BB536 
 272 0017 6250CB18 		.ascii	"bP\313\030\3458P\004\261\263\310F\256\260\021R\2126"
 272      E5385004 
 272      B1B3C846 
 272      AEB01152 
 272      8A36
 273 0029 DA5A246D 		.ascii	"\332Z$m\012\213\224AP\021\002A\261\320\336\302RE\210"
 273      0A8B9441 
 273      50110241 
 273      B1D0DEC2 
ARM GAS  /tmp/ccHHzA80.s 			page 21


 273      524588
 274 003c 331712C5 		.ascii	"3\027\022\305\270\260;\303\356\274\217}\006\006\177"
 274      B8B03BC3 
 274      EEBC8F7D 
 274      06067F
 275 004b D7B2EC63 		.ascii	"\327\262\354c\002y\251\014@S\277\005j\2411\266[\204"
 275      0279A90C 
 275      4053BF05 
 275      6AA131B6 
 275      5B84
 276 005d CFB9AB39 		.ascii	"\317\271\2539\370)K7\270v\2446 \252\306:V\327\231\222"
 276      F8294B37 
 276      B876A436 
 276      20AAC63A 
 276      56D79992 
 277 0071 344DFBB9 		.ascii	"4M\373\271\337o\274]\237whrDL8\356\020\201t\314\310"
 277      DF6FBC5D 
 277      9F776872 
 277      444C38EE 
 277      108174CC 
 278 0086 A1BA0112 		.ascii	"\241\272\001\022\357\353\013@%\005\255\310\251\\%y\224"
 278      EFEB0B40 
 278      2505ADC8 
 278      A95C2579 
 278      94
 279 0097 6A6F70F8 		.ascii	"jop\370\330j|\260\314\013\361\0211(`Q\320g8\255y\357"
 279      D86A7CB0 
 279      CC0BF111 
 279      31286051 
 279      D06738AD 
 280 00ad 5763DA88 		.ascii	"Wc\332\210n\2151]*\271\301\341\017\356\220\264\347\207"
 280      6E8D315D 
 280      2AB9C1E1 
 280      0FEE90B4 
 280      E787
 281 00bf A8CC013E 		.ascii	"\250\314\001>\375\221\237\211\031T8\030\021\252\230"
 281      FD919F89 
 281      19543818 
 281      11AA98
 282 00ce 134007C9 		.ascii	"\023@\007\311k-?\032T\252\314\357$J\264\350\026\325"
 282      6B2D3F1A 
 282      54AACCEF 
 282      244AB4E8 
 282      16D5
 283 00e0 47EB7DE4 		.ascii	"G\353}\344\243\200KQ\367\2231Cq\302q\027\003\015\275"
 283      A3804B51 
 283      F7933143 
 283      71C27117 
 283      030DBD
 284 00f3 09B551F4 		.ascii	"\011\265Q\364I\363e\014\235\375\037mF\350\354\217\015"
 284      49F3650C 
 284      9DFD1F6D 
 284      46E8EC8F 
 284      0D
 285 0104 97E6712F 		.ascii	"\227\346q/q\253\371T\340\001\324!\311\335>\365\302\264"
 285      71ABF954 
 285      E001D421 
ARM GAS  /tmp/ccHHzA80.s 			page 22


 285      C9DD3EF5 
 285      C2B4
 286 0116 05CC576F 		.ascii	"\005\314WoVs\244\316+\323\364fy\277\274\275\033E[{K"
 286      5673A4CE 
 286      2BD3F466 
 286      79BFBCBD 
 286      1B455B7B 
 287 012b 157C03DB 		.ascii	"\025|\003\333\017_\034"
 287      0F5F1C
 288              		.text
 289              		.section	.gnu.lto_logfileOpenAppend.27aac27bcc8f3010,"",%progbits
 290 0000 789C7552 		.ascii	"x\234uRMk\024A\020\255\327\037\223\331\315\254\273\306"
 290      4D6B1441 
 290      10ADD71F 
 290      93D9CDAC 
 290      BBC6
 291 0012 8B1E0CE2 		.ascii	"\213\036\014\342Q!\376\006\177\203\006\"\236\326I\030"
 291      5121FE06 
 291      7F830622 
 291      9ED64918 
 292 0022 0614210A 		.ascii	"\006\024!\012\036<\244WW\021\364\260x\011\350\305\020"
 292      1E3CA457 
 292      5711F4B0 
 292      7809E8C5 
 292      10
 293 0033 C48BE02D 		.ascii	"\304\213\340-+\001a\002\036\024\321\240\0071\256\207"
 293      2B016102 
 293      1E14D1A0 
 293      0731AE87 
 294 0043 DC24E0D7 		.ascii	"\334$\340\327QDX\253f\247\233\254\306\206\251\236\251"
 294      514458AB 
 294      66A79BAC 
 294      C686A99E 
 294      A9
 295 0054 AEF7EABD 		.ascii	"\256\367\352\275\352Q\244\350\357u\222\237\257\234>"
 295      EA51A4E8 
 295      EF75929F 
 295      AF9C3E
 296 0063 C03B2282 		.ascii	"\300;\"\202\352\275!\352\304J\351\365iru\373\376\004"
 296      EABD21EA 
 296      C44AE9F5 
 296      697275FB 
 296      FE04
 297 0075 B9442BB3 		.ascii	"\271D+\263\353\313\300\216\212, /\004ZR\332X,\235\201"
 297      EBCBC08E 
 297      8A2C202F 
 297      045A52DA 
 297      582C9D81 
 298 0089 50E228AD 		.ascii	"P\342(\2558ww\373\341\332\016\226]\321y\340~\017\207"
 298      387777FB 
 298      E1DA0E96 
 298      5DD179E0 
 298      7E0F87
 299 009c 400E6EDF 		.ascii	"@\016n\337\002\245\2409\376@\\n\012\343z\236\250b{8"
 299      02A5A039 
 299      FE405C6E 
 299      0AE37A9E 
ARM GAS  /tmp/ccHHzA80.s 			page 23


 299      A8627B38 
 300 00b0 BC33E8BE 		.ascii	"\2743\350\276\233\341\3326V\230\315\340\002\310R\016"
 300      9BE1DA36 
 300      5698CDE0 
 300      02C8520E 
 301 00c0 1D713071 		.ascii	"\035q0q\225\256I\246\316\301&U\246!\231&\207\210\231"
 301      95AE49A6 
 301      CEC12655 
 301      A6219926 
 301      878899
 302 00d3 2C759DEB 		.ascii	",u\235\353\035\031\235\220\264\345u\232\243h\236\205"
 302      1D199D90 
 302      B4E5759A 
 302      A3689E85 
 303 00e3 925DBFA6 		.ascii	"\222]\277\246k\037?\254\275Tm\254\302R\006{\234\216"
 303      6B1F3FAC 
 303      BD546DAC 
 303      C252067B 
 303      9C8E
 304 00f5 31C77DBA 		.ascii	"1\307}\272\327q\316\235\3151\221\301\210\316\270Tw."
 304      D771CE9D 
 304      CD3191C1 
 304      88CEB854 
 304      772E
 305 0107 A815606F 		.ascii	"\250\025`o\312\303\242\022f\030\206\177!\036\263I7\213"
 305      CAC3A212 
 305      6618867F 
 305      211EB349 
 305      378B
 306 0119 431E115F 		.ascii	"C\036\021_\245_\356\226k\345\250\245U\005wg&A\326\247"
 306      A55FEE96 
 306      6BE5A8A5 
 306      55057767 
 306      2641D6A7 
 307 012d D8C324D1 		.ascii	"\330\303$\321\013z\376y\243\377J\007\220\034\216\215"
 307      0B7AFE79 
 307      A3FF4A07 
 307      901C8E8D 
 308 013d 6B169AD6 		.ascii	"k\026\232\326\247K\033O\373[\241\260\026l\354\241g\267"
 308      A74B1B4F 
 308      FB5BA1B0 
 308      166CECA1 
 308      67B7
 309 014f 851F131E 		.ascii	"\205\037\023\036R/!I\345\374J\216\006\323\010LW0\025"
 309      522F2149 
 309      E5FC4A8E 
 309      06D3084C 
 309      573015
 310 0162 6CDC2822 		.ascii	"l\334(\"\217J\202\215}iU\3010f\313\321\024\375\335/"
 310      8F4A828D 
 310      7D6955C1 
 310      3066CBD1 
 310      14FDDD2F 
 311 0176 1BCF6E87 		.ascii	"\033\317n\207\351&{\3507\364}\262\324\377\263\277\003"
 311      E9267BE8 
 311      37F47DB2 
 311      D4FFB3BF 
ARM GAS  /tmp/ccHHzA80.s 			page 24


 311      03
 312 0187 5FD818BB 		.ascii	"_\330\030\273\206S\377\367\260I\335\342\360\010E\024"
 312      8653FFF7 
 312      B049DDE2 
 312      F0084514 
 313 0197 B4B4D24A 		.ascii	"\264\264\322J53\345\330\357[Y\177\345\337\256?Z\266"
 313      3533E5D8 
 313      EF5B597F 
 313      E5DFAE3F 
 313      5AB6
 314 01a9 BE573393 		.ascii	"\276W3\223\371\277\245\320\274)\325[\004\236\267z<\230"
 314      F9BFA5D0 
 314      BC29D55B 
 314      049EB77A 
 314      3C98
 315 01bb 67D9FAD3 		.ascii	"g\331\372\323\340 o\246\374\201 ,b\2651\337\276\334"
 315      E0206FA6 
 315      FC81202C 
 315      62B531DF 
 315      BEDC
 316 01cd 3E7F31CB 		.ascii	">\1771\313\026\026gR\322\213\013\227\376\000Jk\252Y"
 316      16166752 
 316      D28B0B97 
 316      FE004A6B 
 316      AA59
 317              		.text
 318              		.section	.gnu.lto_logfileWrite.27aac27bcc8f3010,"",%progbits
 319 0000 789C8554 		.ascii	"x\234\205TKhSQ\020\235\271\367\375\322|L\322\202\266"
 319      4B685351 
 319      109DB9F7 
 319      FDD27C4C 
 319      D282B6
 320 0013 D0520A5A 		.ascii	"\320R\012Z\260P\025\335t\343\336\275\005]\270\210\261"
 320      B05015DD 
 320      74E3DEBD 
 320      055DB888 
 320      B1
 321 0024 84075621 		.ascii	"\204\007V!\026\\t\321\333&h\026A\202\350B\335\264\210"
 321      165C74D1 
 321      DB266816 
 321      4182E842 
 321      DDB488
 322 0037 0A5DE842 		.ascii	"\012]\350B\244\376\026\257.\242\024\353\007\212\250"
 322      A4FE16AF 
 322      2EA214EB 
 322      078AA8
 323 0046 28064110 		.ascii	"(\006A\020\224\026\273\021D\2143\367}\232j\265\0272"
 323      9416BB11 
 323      448C33F7 
 323      7D9A6AB5 
 323      1732
 324 0058 F79D9939 		.ascii	"\367\235\23193\347\315\275/\002\004\374\271F\351\227"
 324      33E7CDBD 
 324      2F0204FC 
 324      B946E997 
 325 0068 3300B6D3 		.ascii	"3\000\266\323\2161@Q{\0060\351\010!+\375\240\332\014"
 325      8E314051 
ARM GAS  /tmp/ccHHzA80.s 			page 25


 325      7B0630E9 
 325      08212BFD 
 325      A0DA0C
 326 007b B609299C 		.ascii	"\266\011)\234\207=\214\226v\0212\002djd\012ga7!\253"
 326      873D8C96 
 326      76113202 
 326      646A640A 
 326      67613721 
 327 0090 DE4DC812 		.ascii	"\336M\310\022\366}\2169\2578f\243\303\345\320A\344\035"
 327      F67D8E39 
 327      AF3866A3 
 327      C3E5D041 
 327      E41D
 328 00a2 10268434 		.ascii	"\020&\2044L\313vp\3420r{\331\0073J\325\032\237V<y\351"
 328      4CCB7670 
 328      E230727B 
 328      D907334A 
 328      D51A9F56 
 329 00b9 82579E56 		.ascii	"\202W\236V?\233MD\027Ij\032!\217p\210\000\366\352M\030"
 329      3F9B4D44 
 329      17496A1A 
 329      218F7088 
 329      00F6EA4D 
 330 00ce EBB56BEE 		.ascii	"\353\265k\356y\357}\375\334V\325P5\365\213\250.J\001"
 330      79EF7DFD 
 330      DC56D550 
 330      35F58BA8 
 330      2E4A01
 331 00e1 5D6B4CC7 		.ascii	"]kL\307g\342\337L\257\346}\250W;\325\364T\310\244\236"
 331      67E2DF4C 
 331      AFE67DA8 
 331      573BD5F4 
 331      54C8A49E 
 332 00f5 3D9BF5BC 		.ascii	"=\233\365\274%\274F\263\371\356Ny\241\273\023\301EC"
 332      25BC46B3 
 332      F9EE4E79 
 332      A1BB13C1 
 332      4543
 333 0107 B2317014 		.ascii	"\2621p\024\301\"\2036A3F\306j\203\034^\305>\210\263"
 333      C1228336 
 333      413346C6 
 333      6A831C5E 
 333      C53E88B3 
 334 011b 27413191 		.ascii	"'A1\221\244';EO2\035\3042\344\201,\201\031\002\355\004"
 334      A4273B45 
 334      4F321DC4 
 334      32E4812C 
 334      811902ED 
 335 0130 9C0E36D4 		.ascii	"\234\0166\324\307\2042\315\245\327O\313\3415\262\300"
 335      C78432CD 
 335      A5D74FCB 
 335      E135B2C0 
 336 0140 D2681D24 		.ascii	"\322h\035$\313\343\034F\301\273|\002\345\257\363\337"
 336      CBE31C46 
 336      C1BB7C02 
 336      E5AFF3DF 
 337 0150 EA328737 		.ascii	"\3522\2077\320\204\002\032\254;\326*z\030%T\372\345"
ARM GAS  /tmp/ccHHzA80.s 			page 26


 337      D084021A 
 337      AC3BD62A 
 337      7A182554 
 337      FAE5
 338 0162 224CBD7D 		.ascii	"\"L\275}\275\3749J\264\007`'i\273\002\227\211\320V@"
 338      BDFC394A 
 338      B4076027 
 338      69BB0297 
 338      89D05640 
 339 0176 8B8971CD 		.ascii	"\213\211q\3158\032\015\3549\224\275\241\220\021\033"
 339      381A0DEC 
 339      3994BDA1 
 339      90111B
 340 0185 871FAAA2 		.ascii	"\207\037\252\242\322.&\362\350\247P\031\027\223\000"
 340      D22E26F2 
 340      E8A75019 
 340      179300
 341 0194 547CB9D4 		.ascii	"T|\271\324\025&R5R\240\225}?#\"/7\220\353\225\031\260"
 341      15265235 
 341      52A0957D 
 341      3F23222F 
 341      3790EB95 
 342 01aa BADF57B6 		.ascii	"\272\337W\266\362\"J\214G\312&\225RG\376\255Nw\235\305"
 342      F2224A8C 
 342      47CA2695 
 342      5247FEAD 
 342      4E779DC5 
 343 01be 90972C60 		.ascii	"\220\227,`\202%\237\365:CW:\222\234\312\243\010$\307"
 343      82259FF5 
 343      3A43573A 
 343      929CCAA3 
 343      0824C7
 344 01d1 0B98A26C 		.ascii	"\013\230\242l\016\321\232\243\302[\374\031\373,:\203"
 344      0ED19AA3 
 344      C25BFC19 
 344      FB2C3A83 
 345 01e1 74A0BEB9 		.ascii	"t\240\276\2716\327\364\006\352M\270\271Cj\021\037#\021"
 345      36D7F406 
 345      EA4DB8B9 
 345      436A111F 
 345      2311
 346 01f3 192D829C 		.ascii	"\031-\202\234\007BO6<@.99\324\222\230m-f\301|J\217\342"
 346      07424F36 
 346      3C402E39 
 346      39D49298 
 346      6D2D66C1 
 347 020b EEAA1755 		.ascii	"\356\252\027Uk\327\243\310l|H\030\215\241T)]\2178\035"
 347      6BD7A3C8 
 347      6C7C4818 
 347      8DA15429 
 347      5D8F381D 
 348 021f 44E3B40C 		.ascii	"D\343\264\014B\253\220\001\230\345\327\335\263I9\342"
 348      42AB9001 
 348      98E5D7DD 
 348      B34939E2 
 349 022f 072F7FF1 		.ascii	"\007/\177\361\361\177/\225\015K\246\244\373\341\204"
 349      F17F2F95 
ARM GAS  /tmp/ccHHzA80.s 			page 27


 349      0D4BA6A4 
 349      FBE184
 350 023e 49329A75 		.ascii	"I2\232u6\037L\212:\270\330\0362\034}a\027\341\321\227"
 350      361F4C8A 
 350      3AB8D81E 
 350      321C7D61 
 350      17E1D197 
 351 0252 E0A8FDC1 		.ascii	"\340\250\375\301\354\203\333\252\302\037 \255\227\364"
 351      EC83DBAA 
 351      C21F20AD 
 351      97F4
 352 0260 EFC3340D 		.ascii	"\357\3034\015\336\000\322E\222O\347\266q{\003\301\254"
 352      DE00D245 
 352      924FE7B6 
 352      717B03C1 
 352      AC
 353 0271 DE73A88F 		.ascii	"\336s\250\217\215\032\003X\325\007\035A\310\240\020"
 353      8D1A0358 
 353      D5071D41 
 353      C8A010
 354 0280 7F1CC83D 		.ascii	"\177\034\310=\370\240\223\307rc\271\343'\013\205\221"
 354      F8A093C7 
 354      7263B9E3 
 354      270B8591 
 355 0290 E2601E62 		.ascii	"\342`\036b\247\213\356\330\330\310\211\301\275\2628"
 355      A78BEED8 
 355      D8C889C1 
 355      BDB238
 356 029f 72CA0ED0 		.ascii	"r\312\016\320o\351A\011\006"
 356      6FE94109 
 356      06
 357              		.text
 358              		.section	.gnu.lto_dataloggerThread.27aac27bcc8f3010,"",%progbits
 359 0000 789C6D52 		.ascii	"x\234mR\273J\003A\024=g\036\331\215\017\242\177`'(\330"
 359      BB4A0341 
 359      143D671E 
 359      D98D0FA2 
 359      7F602728 
 360 0015 59FA0B56 		.ascii	"Y\372\013V\011h\031\243,\013\212 v\026\331\350\026\213"
 360      096819A3 
 360      2C0B8A20 
 360      7616D9E8 
 360      168B
 361 0027 28A4D646 		.ascii	"(\244\326F{\321?\360Q\251H\024;\261Jiae%6\361\316\014"
 361      7BD13FF0 
 361      51A94814 
 361      3BB14A69 
 361      61652536 
 362 003e 1B307861 		.ascii	"\0330xa\317\035\356\271\2573;\012\012\243\266$\337\005"
 362      CF1DEEB9 
 362      AF333B0A 
 362      0AA3B624 
 362      DF05
 363 0050 819A7856 		.ascii	"\201\232xV@\325}\006:\261\242\011\007\035\016w\261Q"
 363      40D57D06 
 363      3AB1A209 
 363      071D0E77 
ARM GAS  /tmp/ccHHzA80.s 			page 28


 363      B151
 364 0062 FAE81EC8 		.ascii	"\372\350\036\310\306l\036!\233\260\244\213\203h+m,\333"
 364      C66C1E21 
 364      9BB0A48B 
 364      83682B6D 
 364      2CDB
 365 0074 ABF4FDAE 		.ascii	"\253\364\375\256\324m\1770\270\374z:+\250\307\025\267"
 365      D46D7F30 
 365      B8FC7A3A 
 365      2BA8C715 
 365      B7
 366 0085 088394B0 		.ascii	"\010\203\224\260\002\322_ r\020;\250:\220\032\213<\313"
 366      02D25F20 
 366      72103BA8 
 366      3A901A8B 
 366      3CCB
 367 0097 BA3340CB 		.ascii	"\2723@\313\367\250\013\312\214:\2258\335\240\206\014"
 367      F7A80BCA 
 367      8C3A9538 
 367      DDA0860C 
 368 00a7 D63DECBF 		.ascii	"\326=\354\277\277\335L7yN\213\204v\036s)\325)N\230R"
 368      BFDD4C37 
 368      794E8B84 
 368      761E7329 
 368      D5294E98 
 369 00bc 27542BE2 		.ascii	"'T+\342\215_a\215\245\270\036\016\016uYQ\221\"\227\304"
 369      8D5F618D 
 369      A5B81E0E 
 369      0E755951 
 369      912297C4 
 370 00d0 EE72A08A 		.ascii	"\356r\240\212!\025\011\353\251\201X-\260\307C6\226\004"
 370      211509EB 
 370      A981582D 
 370      B0C74336 
 370      9604
 371 00e2 CF7E44A3 		.ascii	"\317~D\243\205Ua=\345F\276\300\2048\260\207\237\254"
 371      8555613D 
 371      E546BEC0 
 371      8438B087 
 371      9FAC
 372 00f4 C8A652DA 		.ascii	"\310\246R\332\026\3036\222\233\212~o\015YT.\317K\372"
 372      16C33692 
 372      9B8A7E6F 
 372      0D59542E 
 372      CF4BFA
 373 0107 BE7E5465 		.ascii	"\276~Te7\3435\341\177M\245\250\007\344\237\235\305a"
 373      37E335E1 
 373      7F4DA5A8 
 373      07E49F9D 
 373      C561
 374 0119 894BF9F3 		.ascii	"\211K\371\363C\033\022\227k{E\247_\314\226\373\004\253"
 374      431B1297 
 374      6B7B45A7 
 374      5FCC96FB 
 374      04AB
 375 012b 4B933C72 		.ascii	"K\223<ro`r\275\271\333\334\334N\222\215\235\205\026"
 375      6F6072BD 
ARM GAS  /tmp/ccHHzA80.s 			page 29


 375      B9DBDCDC 
 375      4E928D9D 
 375      8516
 376 013d 7E01A511 		.ascii	"~\001\245\021a0"
 376      6130
 377              		.text
 378              		.section	.gnu.lto_.symbol_nodes.27aac27bcc8f3010,"",%progbits
 379 0000 789C4DCD 		.ascii	"x\234M\315\273R\002A\020\005\320;\267wQ\331\345\375"
 379      BB520241 
 379      1005D03B 
 379      B77751D9 
 379      E5FD
 380 0012 30213433 		.ascii	"0!435\367[\374\222FV\005Q\024\237\231\006\360\003&\204"
 380      35F75BFC 
 380      92465605 
 380      51149F99 
 380      06F00326 
 381 0027 26520509 		.ascii	"&R\005\011ejjA\225\206~\001\352\256\273\345\314$\267"
 381      656A6A41 
 381      95867E01 
 381      EAAEBBE5 
 381      CC24B7
 382 003a CEEDA96E 		.ascii	"\316\355\251n\202\020\"}\3741\012\014_\001\325A\357"
 382      8210227D 
 382      FC310A0C 
 382      5F01D541 
 382      EF
 383 004b 80775493 		.ascii	"\200wT\223\361\241g\3746\341\251\360\236J\333\362\220"
 383      F1A167FC 
 383      36E1A9F0 
 383      9E4ADBF2 
 383      90
 384 005c 2A191F63 		.ascii	"*\031\037cv\250\236\303\210\352;<\242\346\034\236P7"
 384      76A89EC3 
 384      88EA3B3C 
 384      A2E61C9E 
 384      5037
 385 006e 1C76A99B 		.ascii	"\034v\251\233\016{\324-\207\247\324\274\303cj\340\260"
 385      0E7BD42D 
 385      87A7D4BC 
 385      C3636AE0 
 385      B0
 386 007f 4F0D2DCD 		.ascii	"O\015-\315%\265\220\262\3356\346\202Z\264\032PKVCj\331"
 386      25B590B2 
 386      DD36E682 
 386      5AB41A50 
 386      4B56436A 
 387 0094 EA9A5AB1 		.ascii	"\352\232Z\261:\247V\255\316\2505\253\033j\335\352\212"
 387      3AA756AD 
 387      CEA835AB 
 387      1B6ADDEA 
 387      8A
 388 00a5 DAB0BAA5 		.ascii	"\332\260\272\2456\377%(#z\377\216\263\204\361_\0261"
 388      36FF2528 
 388      237AFF8E 
 388      B384F15F 
 388      1631
ARM GAS  /tmp/ccHHzA80.s 			page 30


 389 00b7 4DD200CB 		.ascii	"M\322\000\313uKL\005\253\204RM\307^\035\343\347\217"
 389      754B4C05 
 389      AB84524D 
 389      C75E1DE3 
 389      E78F
 390 00c9 386B8866 		.ascii	"8k\210f\237-\361\200Nw'\211\345|\336\022\037\030%\337"
 390      9F2DF180 
 390      4E772789 
 390      E57CDE12 
 390      1F1825DF 
 391 00dd FC5ABA25 		.ascii	"\374Z\272%\2279g0\232\354I>\333\022T\322q\320\3004\256"
 391      97396730 
 391      9AEC493E 
 391      DB1254D2 
 391      71D0C034 
 392 00f2 83B89EBD 		.ascii	"\203\270\236\275Q\302\000/O\373\0226\261\232\3047BA"
 392      51C2002F 
 392      4FFB1236 
 392      B19AC437 
 392      4241
 393 0104 A7BF3052 		.ascii	"\247\2770R\330\306x\375\265\213_Q\366\231X"
 393      D8C678FD 
 393      B58B5F51 
 393      F69958
 394              		.text
 395              		.section	.gnu.lto_.refs.27aac27bcc8f3010,"",%progbits
 396 0000 789C6362 		.ascii	"x\234cb`b\020e\200\000FF\006&f\026F&\240\020\023#+\020"
 396      60621065 
 396      80004646 
 396      06266616 
 396      4626A010 
 397 0018 B3015900 		.ascii	"\263\001Y\000\004w\000="
 397      0477003D 
 398              		.text
 399              		.section	.gnu.lto_.decls.27aac27bcc8f3010,"",%progbits
 400 0000 789CBD7D 		.ascii	"x\234\275}\011\224\024E\266vf\326N7\253\316\210<\337"
 400      09941445 
 400      B67666D6 
 400      4E37ABCE 
 400      883CDF
 401 0013 50FA3BF3 		.ascii	"P\372;\363<\363fh@f\306Y\336(t7\313\223\355u\267\343"
 401      3CF36668 
 401      4066C659 
 401      DE287437 
 401      CB93ED75 
 402 0029 78CE7BA7 		.ascii	"x\316{\247,\272\253\241\237\275YU,\376\377\177\316$"
 402      2CBAABA1 
 402      9FBD5955 
 402      2CFEFF7F 
 402      CE24
 403 003b 5B23A2EC 		.ascii	"[#\242\354\010\315\016\262\011(4{\203`\201\310\326*"
 403      08CD0EB2 
 403      0928347B 
 403      836081C8 
 403      D62A
 404 004d 4BB3AF0D 		.ascii	"K\263\257\015\250\354\003\202\322\354\375\337\270\221"
 404      A8EC0382 
ARM GAS  /tmp/ccHHzA80.s 			page 31


 404      D2ECFDDF 
 404      B891
 405 005b 59159995 		.ascii	"Y\025\231\225\231\025\331\316\373\353\234\210\312\214"
 405      9915D9CE 
 405      FBEB9C88 
 405      CA8C
 406 0069 CAF8E2C6 		.ascii	"\312\370\342\306\2757n\334X2J\022$\241\247[\020\032"
 406      BD376EDC 
 406      58324A12 
 406      24A1A75B 
 406      101A
 407 007b E0F3ED02 		.ascii	"\340\363\355\002A\350\324R\020\232\011\202\360g\010"
 407      41E8D452 
 407      109A0982 
 407      F06708
 408 008a 2D203821 		.ascii	"- 8!\314\203\260\020\302\"\010\313 ,\207\3601\204\025"
 408      CC83B010 
 408      C22208CB 
 408      202C87F0 
 408      318415
 409 009d 10AA209C 		.ascii	"\020\252 \234\207p\021\302%\010W \354\225\004\3418\004"
 409      877011C2 
 409      25085720 
 409      EC9504E1 
 409      3804
 410 00af 4914F0F3 		.ascii	"I\024\360\363\004\204:\270o\341\020\204\377\200\360"
 410      04843AB8 
 410      6FE11084 
 410      FF80F0
 411 00be 2A840710 		.ascii	"*\204\007\020$\000o\006\341q\010\317B\370%\204\366\020"
 411      24006F06 
 411      E17108CF 
 411      42F82584 
 411      F610
 412 00d0 3A41E802 		.ascii	":A\350\002\241\033\204\356\020\376\002\341U\010\357"
 412      A11B84EE 
 412      10FE02E1 
 412      5508EF
 413 00df 40180B61 		.ascii	"@\030\013a2\204i\020fAX\002\201\024\263\334)h>\244\274"
 413      32846910 
 413      66415802 
 413      8114B3DC 
 413      29683EA4 
 414 00f4 34F8EEE5 		.ascii	"4\370\356\345\244\365IW\352\3621D\253 \254\200\260\032"
 414      A4F54957 
 414      EAF23144 
 414      AB20AC80 
 414      B01A
 415 0106 420F086B 		.ascii	"B\017\010k \254U\362;\225\274\177Q\312&4\300\255\220"
 415      20AC55F2 
 415      3B95BC7F 
 415      51CA2634 
 415      C0AD90
 416 0119 06F43675 		.ascii	"\006\3646uh\313 \365\371\211R_\265\214\327\340\371\377"
 416      68CB20F5 
 416      F989525F 
 416      B58CD7E0 
ARM GAS  /tmp/ccHHzA80.s 			page 32


 416      F9FF
 417 012b 72509C56 		.ascii	"rP\234V\360\375\013\010m <\011\241\225H\371\262\336"
 417      F0FD0B08 
 417      6D203C09 
 417      A19548F9 
 417      B2DE
 418 013d 4979FA57 		.ascii	"Iy\372W\370\336\000\241\332\231\340\357Y\205o$\377\317"
 418      F8DE00A1 
 418      DA99E0EF 
 418      59856F24 
 418      FFCF
 419 014f 214F1684 		.ascii	"!O\026\204\247!t\205\340P\312$\274 4\222gz\301\375\313"
 419      A7217485 
 419      E050CA24 
 419      BC203492 
 419      677AC1FD 
 420 0164 107A3B92 		.ascii	"\020z;\222y@x\335T\240x*}\313\024\032\234\012\255\204"
 420      794078DD 
 420      54A0782A 
 420      7DCB141A 
 420      9C0AAD84 
 421 0178 BE560C8D 		.ascii	"\276V\014\215\033!m\214\302SR\276\244\340\274\243\244"
 421      1B216D8C 
 421      C25352BE 
 421      A4E0BCA3 
 421      A4
 422 0189 BDA2E301 		.ascii	"\275\242\343\001\221e\033\201\326\231\345\001\301\254"
 422      91651B81 
 422      D699E501 
 422      C1AC
 423 0197 52F8A9EA 		.ascii	"R\370\251\352\004\251+){\037\204Mp=\005\302'\012/\306"
 423      04A92B29 
 423      7B1F844D 
 423      703D05C2 
 423      270A2FC6 
 424 01ab C1F76608 		.ascii	"\301\367f\010[\024~\250\372\245\362C\325;\202w\030\322"
 424      5B147EA8 
 424      FAA5F243 
 424      D53B8277 
 424      18D2
 425 01bd 8E423806 		.ascii	"\216B8\006\341\244R\027B\307dE?\010o\\\220v\033\322"
 425      E1A45217 
 425      42C76445 
 425      3F086F5C 
 425      90761BD2 
 426 01d1 EA21FC00 		.ascii	"\352!\374\000\341\256\001\177\210\016\266\320\321\256"
 426      E1AE017F 
 426      880EB6D0 
 426      D1AE
 427 01df CA432D8F 		.ascii	"\312C-\217\224OhT\365\\\245\225\320D\352A\352E\370B"
 427      944F6854 
 427      F55CA595 
 427      D044EA41 
 427      EA45F842 
 428 01f3 E8702898 		.ascii	"\350p(\230\244\374\261\212\336\020\342\364\345\022\275"
 428      A4FCB18A 
 428      DE10E2F4 
ARM GAS  /tmp/ccHHzA80.s 			page 33


 428      E512BD
 429 0202 D7974BF8 		.ascii	"\327\227K\370E0\325\362\325\366D\312We\243\226\027\203"
 429      4530D5F2 
 429      D5F644CA 
 429      5765A396 
 429      1783
 430 0214 DF5B2AB2 		.ascii	"\337[*\262!z\241\226-9\023\355\214\324\337\007\367M"
 430      217AA196 
 430      2D3913ED 
 430      8CD4DF07 
 430      F74D
 431 0226 20A44148 		.ascii	" \244AH7\240\243\231\"\323\233\022\275\027\2254\375"
 431      37A0A399 
 431      22D39B12 
 431      BD179534 
 431      FD
 432 0237 E771E5B9 		.ascii	"\347q\345\271V\216\304s$\215\334>\015\337\377\014\241"
 432      568EC473 
 432      248DDC3E 
 432      0DDFFF0C 
 432      A1
 433 0248 AD2EDFB3 		.ascii	"\255.\337\263\312\357D\347U\372I\276,\345\373Y\005\363"
 433      CAEF44E7 
 433      55FA49BE 
 433      2CE5FB59 
 433      05F3
 434 025a 395D3E62 		.ascii	"9]>b\003\232\010\211\266\363\237\316d\335D\375\022)"
 434      039A0889 
 434      B6F39FCE 
 434      64DD44FD 
 434      1229
 435 026c BF48196A 		.ascii	"\277H\031j;\351\252\360\344\227\316\204\276\266\323"
 435      3BE9AAF0 
 435      E497CE84 
 435      BEB6D3
 436 027b E113FBD2 		.ascii	"\341\023\373\322J\240\030*\357I9D/=\202\266-\260\355"
 436      4AA0182A 
 436      EF493944 
 436      2F3D82B6 
 436      2DB0ED
 437 028e B406BEFF 		.ascii	"\264\006\276\377\005\322\266\302u\2453A\213Z>i\243\277"
 437      05D2B6C2 
 437      75A53341 
 437      8B5A3E69 
 437      A3BF
 438 02a0 51DA7D7B 		.ascii	"Q\332}{\305^Mc\350\350\250\243\203\330\270\307\251z"
 438      C55E4D63 
 438      E8E8A8A3 
 438      83D8B8C7 
 438      A97A
 439 02b2 24B59B5F 		.ascii	"$\265\233_(|&2$4I\014\017\267\3013\377\012\3413\010"
 439      287C2632 
 439      2434490C 
 439      0FB7C133 
 439      FF0AE133 
 440 02c7 7F82DF66 		.ascii	"\177\202\337f+\274\330\016\3379J\375U~8\225r\332+\266"
 440      2BBCD80E 
ARM GAS  /tmp/ccHHzA80.s 			page 34


 440      DF394AFD 
 440      557E3895 
 440      72DA2BB6 
 441 02db F23F94B4 		.ascii	"\362?\224\264\027!\372#\204\177#\030:\272\210\335U\313"
 441      1721FA23 
 441      847F2318 
 441      3ABA88DD 
 441      55CB
 442 02ed F428F2FB 		.ascii	"\364(\362\373\034\322\216@8\012\341CE\257\017\301w\255"
 442      1CD28E40 
 442      380AE143 
 442      45AF0FC1 
 442      77AD
 443 02ff 72DD85B1 		.ascii	"r\335\205\261\303Y:<\237\360\266,\017\223\353\026\312"
 443      C3593A3C 
 443      9FF0B62C 
 443      0F93EB16 
 443      CA
 444 0310 ADA7413D 		.ascii	"\255\247A=\377*\006\305f>\301\213\027\351>jf\204\005"
 444      FF2A06C5 
 444      663EC18B 
 444      17E93E6A 
 444      668405
 445 0323 B23CBE6E 		.ascii	"\262<\276n\344\236'dgP\234'\372\000\364\217\242\360"
 445      E49E2764 
 445      67509C27 
 445      FA00F48F 
 445      A2F0
 446 0335 4BE14319 		.ascii	"K\341C\031\322!\3673\242\220\374\011\212\360\240\376"
 446      D221F733 
 446      A290FC09 
 446      8AF0A0FE 
 447 0345 3E282E10 		.ascii	">(.\020\177)\320b\360g\345\242A$\275\301;\204\222\271"
 447      7F29D062 
 447      F067E5A2 
 447      4124BDC1 
 447      3B8492B9 
 448 0359 1572F75D 		.ascii	"\025r\367]\315Z\012\000,\313\376i\315\030\002[[\320"
 448      CD5A0A00 
 448      2CCBFE69 
 448      CD18025B 
 448      5BD0
 449 036b 47089182 		.ascii	"G\010\221\202\342b\244\256\233\021AH\303b\035\021\213"
 449      E262A4AE 
 449      9B114148 
 449      C3621D11 
 449      8B
 450 037c E3542C56 		.ascii	"\343T,V\310PJ\270(\251E\374Z\311\272Hl\231\340\230\254"
 450      C8504AB8 
 450      28A945FC 
 450      5AC9BA48 
 450      6C99E098 
 451 0391 D0894F28 		.ascii	"\320\211O(Y\374j\016\247\222c\251\302\001%9~\361+\205"
 451      59FC6A0E 
 451      A79263A9 
 451      C2012539 
 451      7EF12B85 
ARM GAS  /tmp/ccHHzA80.s 			page 35


 452 03a5 1CB37C0B 		.ascii	"\034\263|\013\3054\225b\023\246Pr\225\374r\234T\277"
 452      C5349562 
 452      13A65072 
 452      95FC729C 
 452      54BF
 453 03b7 02B0DC36 		.ascii	"\002\260\3346\251\037\231\220\3326\005\251\313\354\221"
 453      A91F9990 
 453      DA3605A9 
 453      CBEC91
 454 03c6 7A274E6A 		.ascii	"z'Nj\206\002\260\3026\251+MHm\227\202\324\217MHm%L@"
 454      8602B0C2 
 454      36A92B4D 
 454      486D9782 
 454      D48F4D48 
 455 03de 527725D4 		.ascii	"Rw%\324_\376_j\346\225N!\336\000\252w\\\353 \313\336"
 455      5FFE5F6A 
 455      E6954E21 
 455      DE00AA77 
 455      5CEB20CB 
 456 03f3 A0B84A6C 		.ascii	"\240\270Jl\005J&\213b\\\225\310'5\016\241b-\344\245"
 456      054A268B 
 456      625C95C8 
 456      27350EA1 
 456      622DE4A5 
 457 0407 B9A8DAC6 		.ascii	"\271\250\332\3066\355H'\315\212\244\013\032<\315\347"
 457      36ED4827 
 457      CD8AA40B 
 457      1A3CCDE7 
 458 0417 69612E50 		.ascii	"ia.P\034\333\274c\223(W\244\253\255\260\002I Y\215\332"
 458      1CDBBC63 
 458      932857A4 
 458      ABADB002 
 458      4920598D 
 459 042c 459C410C 		.ascii	"E\234A\014W\264p[v\244\255|]\005\033k\033\314\253\001"
 459      57B4705B 
 459      76A4AD7C 
 459      5D051B6B 
 459      1BCCAB01 
 460 0440 DBC7824D 		.ascii	"\333\307\202M\264\015\326B\003v\200\005\233f\033\254"
 460      B40DD642 
 460      03768005 
 460      9B661BAC 
 461 0450 B506EC20 		.ascii	"\265\006\354 \0136\3076\230_\003v\230\005[h\033\354"
 461      0B36C736 
 461      985F0376 
 461      98055B68 
 461      1BEC
 462 0462 390DD8D1 		.ascii	"9\015\330\321\212\364}\257+\026N\256\220\237[\322\214"
 462      8AF47DAF 
 462      2B164EAE 
 462      909F5BD2 
 462      8C
 463 0473 E187925D 		.ascii	"\341\207\222]Jh\340\3101O\021]\331\216e\177\254\323"
 463      4A68E0C8 
 463      314F115D 
 463      D98E657F 
 463      ACD3
ARM GAS  /tmp/ccHHzA80.s 			page 36


 464 0485 BFA0E8D0 		.ascii	"\277\240\350\320\031\\\207\326\3269|\211\213\206\006"
 464      195C87D6 
 464      D6397C89 
 464      8B8606
 465 0494 EC8B56EB 		.ascii	"\354\213V\353\351\327\224jD\177{\226~h\022\207\337\234"
 465      E9D7946A 
 465      447F7B96 
 465      7E681287 
 465      DF9C
 466 04a6 26C78639 		.ascii	"&\307\2069T\242\326\361\000z\3155\362~\305\273O\312"
 466      54A2D6F1 
 466      007ACD35 
 466      F27EC5BB 
 466      4FCA
 467 04b8 73B7890A 		.ascii	"s\267\211\012Oh\0135n\323\012O\026\356\305n\251\006"
 467      4F680B35 
 467      6ED30A4F 
 467      16EEC56E 
 467      A906
 468 04ca 8B8F25F1 		.ascii	"\213\217%\361\304\243\343\211G\313\023\217/qA\206X\315"
 468      C4A3E389 
 468      47CB138F 
 468      2F714186 
 468      58CD
 469 04dc 095776E8 		.ascii	"\011Wv\350+\241)\327\250\022\032\025\251\253\25683T"
 469      2BA129D7 
 469      A8121A15 
 469      A9ABAE38 
 469      3354
 470 04ee 9C305CDE 		.ascii	"\2340\\\336\325^\245k?\017b\013s\266\274\2773}|P\005"
 470      D55EA56B 
 470      3F0F620B 
 470      73B6BCBF 
 470      337D7C50 
 471 0503 3B691B4C 		.ascii	";i\033L\253\301\323X\260ox\300Z\233S6\235\005\273b\033"
 471      ABC1D358 
 471      B06F78C0 
 471      5A9B5336 
 471      9D05BB62 
 472 0518 4C4BD94C 		.ascii	"LK\331L\026\354\026\017\230\337\234\262\331,\330}\333"
 472      16EC160F 
 472      98DF9CB2 
 472      D92CD87D 
 472      DB
 473 0529 605ACA56 		.ascii	"`Z\312V\262`\303%\016\260\347\314)[\305\202\275k\033"
 473      B260C325 
 473      0EB0E7CC 
 473      295BC582 
 473      BD6B1B
 474 053c 8CA54C8E 		.ascii	"\214\245L\216\255\335\231\006=\002\333\337\316c\\\203"
 474      ADDD9906 
 474      3D02DBDF 
 474      CE635C83 
 475 054c 3898AC76 		.ascii	"8\230\254v@u\266;\334\263&\035n\203:\324\224\204\311"
 475      4075B63B 
 475      DCB3261D 
 475      6E833AD4 
ARM GAS  /tmp/ccHHzA80.s 			page 37


 475      9484C9
 476 055f FA4AE80A 		.ascii	"\372J\350\012V\256\333\033\360\304\350\303v\223Aq\235"
 476      56AEDB1B 
 476      F0C4E8C3 
 476      76934171 
 476      9D
 477 0570 F87388D7 		.ascii	"\370s\210\327\213OC\\\215\361&\2147c\374)\306[1\376"
 477      8B4F435C 
 477      8DF1268C 
 477      3763FC29 
 477      C65B31FE 
 478 0584 0CE35D18 		.ascii	"\014\343]\030\357\301x/\306\3731\256\305\370\020\306"
 478      EFC1782F 
 478      C6FB31AE 
 478      C5F810C6 
 479 0594 47303E86 		.ascii	"G0>\206\361\011\214Oa|\006\342\370\307\214!U&\236D\334"
 479      F1098C4F 
 479      617C06E2 
 479      F8C78C21 
 479      55269E44 
 480 05a9 558DA5F0 		.ascii	"U\215\245\360\245cS*\232\313N\016\327;(~\203\225O\355"
 480      A563532A 
 480      9ACB4E0E 
 480      D73B287E 
 480      83954FED 
 481 05bd B6422F29 		.ascii	"\266B/)\351m\337b\275\007\316\355\375&U\371\274=?o|"
 481      E96DDF62 
 481      BD07CEED 
 481      FD2655F9 
 481      BC3D3F6F 
 482 05d2 DCCF7B46 		.ascii	"\334\317{F\001\270d[\355.\233\250\235* \263|\027m\370"
 482      01B8645B 
 482      ED2E9BA8 
 482      9D2A20B3 
 482      7C176DF8 
 483 05e6 79226B2E 		.ascii	"y\"k.\225\016\345\341\201Y\355\320\315\273\212n\336"
 483      950EE5E1 
 483      8159EDD0 
 483      CDBB8A6E 
 483      DE
 484 05f7 473AB6A6 		.ascii	"G:\266\246\204\221\204\265\230\345\272\336\323;\364"
 484      849184B5 
 484      98E5BADE 
 484      D33BF4
 485 0606 BA9FA6A6 		.ascii	"\272\237\246\246\366\363\216\315\335-\312\023\323S\321"
 485      F6F38ECD 
 485      DD2DCA13 
 485      D353D1
 486 0615 3FD7A116 		.ascii	"?\327\241\026\334)A\177\375\244\355\035\221\376\357"
 486      DC29417F 
 486      FDA4ED1D 
 486      91FEEF
 487 0624 91FE9BA9 		.ascii	"\221\376\233\251\351\327\302\020\352\352\223h\337\211"
 487      E9D7C210 
 487      EAEA9368 
 487      DF89
 488 0632 5E6A3D17 		.ascii	"^j=\027\365\247F\315\301N\334\210|x@dY\247\031\273H"
ARM GAS  /tmp/ccHHzA80.s 			page 38


 488      F5A746CD 
 488      C14EDC88 
 488      7C784064 
 488      59A719BB 
 489 0647 C203A0D6 		.ascii	"\302\003\240\326\210\303\232\307\202\342\003Q\202\370"
 489      88C39AC7 
 489      82E20351 
 489      82F8
 490 0655 A19ECAD5 		.ascii	"\241\236\312\325\243\220\312\207\\T\256\335\231\314"
 490      A390CA87 
 490      5C54AEDD 
 490      99CC
 491 0663 E39F0A53 		.ascii	"\343\237\012S\024\355\224\305\250W\030\205\355s\244"
 491      14ED94C5 
 491      A8571885 
 491      ED73A4
 492 0672 3C547C33 		.ascii	"<T|3\365\320s\230\344\205\012\214v\230\216=\311\003"
 492      F5D07398 
 492      E4850A8C 
 492      76988E3D 
 492      C903
 493 0684 AAE2D26B 		.ascii	"\252\342\322k\365\312\242\341\015\225~\212W\016:[\025"
 493      F5CAA2E1 
 493      0D957E8A 
 493      570E3A5B 
 493      15
 494 0695 145F4C83 		.ascii	"\024_L\203\210\231\3453\313(K\361f \011\343\034\242"
 494      8899E533 
 494      CB284BF1 
 494      662009E3 
 494      1CA2
 495 06a7 C22F8B4E 		.ascii	"\302/\213NF\203\247\341\225\274J\226}n\212)\0113l\203"
 495      4683A7E1 
 495      95BC4A96 
 495      7D6E8A29 
 495      09336C83 
 496 06bb F9CDC196 		.ascii	"\371\315\301\226\360\200\231;\214Z\260\225\266\301\014"
 496      F080993B 
 496      8C5AB095 
 496      B6C10C
 497 06ca 28335708 		.ascii	"(3W\010*,3\206\2173\220\224r\315\357\315\326\317\370"
 497      2A2C3386 
 497      8F339094 
 497      72CDEFCD 
 497      D6CFF8
 498 06dd 7CAB0863 		.ascii	"|\253\010c\001\370a\242D\334\203:\207\266\371\362C\255"
 498      01F861A2 
 498      44DC833A 
 498      87B6F9F2 
 498      43AD
 499 06ef 9EF3C9EF 		.ascii	"\236\363\311\357\321\016LA\240\331\316\037\357\032\333"
 499      D10E4C41 
 499      A0D9CE1F 
 499      EF1ADB
 500 06fe 7F5C6180 		.ascii	"\177\\a\200q7\231r\312\251~\306G\377\212U\230\216U\370"
 500      71379972 
 500      CAA97EC6 
ARM GAS  /tmp/ccHHzA80.s 			page 39


 500      47FF8A55 
 500      988E55F8 
 501 0712 D069C80B 		.ascii	"\320i\310\013\016\240\325sf\277\200@\263\020\250*\211"
 501      0EA0D573 
 501      66BF8040 
 501      B310A82A 
 501      89
 502 0723 1736E7AA 		.ascii	"\0276\347\252\354<k\246/\225\211\006\312j\015\021;^"
 502      EC3C6BA6 
 502      2F958906 
 502      CA6A0D11 
 502      3B5E
 503 0735 70B4F1B1 		.ascii	"p\264\361\261l\033\337\344\344P~\3631\006\364\033\327"
 503      6C1BDFE4 
 503      E4507EF3 
 503      3106F41B 
 503      D7
 504 0746 3A54CAB1 		.ascii	":T\312\261\021\216\3066\200\005\346\015 ^-K}0w\233\202"
 504      118EC636 
 504      8005E60D 
 504      205E2D4B 
 504      7D30779B 
 505 075b E20CE9E7 		.ascii	"\342\014\351\347\215g\365\222\037\317\352\017XV\307"
 505      8D67F592 
 505      1FCFEA0F 
 505      5856C7
 506 076a 6CB3DACF 		.ascii	"l\263\332\317\262Zk\264v\360\200\231\217\300~\234\321"
 506      B25A6BB4 
 506      76F08099 
 506      8FC07E9C 
 506      D1
 507 077b 5A692E33 		.ascii	"Zi.3\303\336\373%\306\350\274\304ZT\245\241\255\373"
 507      C3DEFB25 
 507      C6E8BCC4 
 507      5A54A5A1 
 507      ADFB
 508 078d F686071B 		.ascii	"\366\206\007\033\332\032\2118\037\025.C\347\303\034"
 508      DA1A8938 
 508      1F152E43 
 508      E7C31C
 509 079c 8690B05E 		.ascii	"\206\220\260^\322u\353\365!?MM\335\251\337]\210\235"
 509      D275EBF5 
 509      213F4D4D 
 509      DDA9DF5D 
 509      889D
 510 07ae BA6A3DDF 		.ascii	"\272j=\337\307\362I\326F\365{\261{!2\206\247Xslc\371"
 510      C7F249D6 
 510      46F57BB1 
 510      7B213286 
 510      A758736C 
 511 07c4 8D081592 		.ascii	"\215\010\025\222j\031\0247\240rWK"
 511      6A191437 
 511      A072574B 
 512 07d0 38B69138 		.ascii	"8\266\2218F \2535\012\315\245\300+X\005^\354\262\253"
 512      4620AB35 
 512      0ACDA5C0 
 512      2B58055E 
ARM GAS  /tmp/ccHHzA80.s 			page 40


 512      ECB2AB
 513 07e3 73FABAA8 		.ascii	"s\372\272\250\202\010\212\0158p\032\205\304\217\306"
 513      82088A0D 
 513      38701A85 
 513      C48FC6
 514 07f2 780CC6EF 		.ascii	"x\014\306\357a<\037\343\345\030\177\314S\265{\"C\347"
 514      613C1FE3 
 514      E5187FCC 
 514      53B57B22 
 514      43E7
 515 0804 4AA4B3BE 		.ascii	"J\244\263\276\261~K]}m}\207\251rl\250\303#TP_nX\252"
 515      B17E4B5D 
 515      7D6D7D87 
 515      A9726CA8 
 515      C3235450 
 516 081c AE0234D8 		.ascii	"\256\0024\330\215\032\034\223<@\301\032\235\006s\000"
 516      8D1A1C93 
 516      3C40C11A 
 516      9D067300 
 517 082c 915A7C06 		.ascii	"\221Z|\006\2315:\\\375\226\237\246Z\35006<I\370\324"
 517      99353A5C 
 517      FD969FA6 
 517      5AE83036 
 517      3C49F8D4 
 518 0840 45C7134E 		.ascii	"E\307\023N_\"mO\"Md\036\255M$KL\362\351D\262\203I\276"
 518      5F226D4F 
 518      224D641E 
 518      AD4D244B 
 518      4CF2E944 
 519 0858 96487632 		.ascii	"\226Hv2\311\015\211d\027\223<\332\035Ov3\311S\022\311"
 519      C90D8964 
 519      17933CDA 
 519      1D4F7633 
 519      C95312C9 
 520 086c 1E26795E 		.ascii	"\036&y^\"\331\313H\304\262\343L0)(n\307&\360\271\344"
 520      22D9CB48 
 520      C4B2E34C 
 520      3029286E 
 520      C726F0B9 
 521 0881 30CC06C3 		.ascii	"0\314\006\3030\267N\023lM\333\312\250\011CI\357\246"
 521      30B74E13 
 521      6C4DDBCA 
 521      A8094349 
 521      EFA6
 522 0893 8E58C9E8 		.ascii	"\216X\311\350\2234l\3031\034\241\356\230dw\304z\\2\036"
 522      93346CC3 
 522      311CA1EE 
 522      986477C4 
 522      7A5C321E 
 523 08a7 B126E649 		.ascii	"\261&\346IV\353k\241-6\225\273\213\323\304\244\347 "
 523      56EB6BA1 
 523      2D3695BB 
 523      8BD3C4A4 
 523      E720
 524 08b9 B449C27A 		.ascii	"\264I\302z.\264T]\207j\3376\351\321l\316j\325\217\232"
 524      2EB4545D 
 524      876ADF36 
ARM GAS  /tmp/ccHHzA80.s 			page 41


 524      E9D16CCE 
 524      6AD58F9A 
 525 08cd C53BEA7B 		.ascii	"\305;\352{]\205K\217\267\273\330\335\035\242\337`\344"
 525      5D854B8F 
 525      B7BBD8DD 
 525      1DA2DF60 
 525      E4
 526 08de A7793428 		.ascii	"\247y4(\236\0075I\365\024N\233\350\373\220O\3512\313"
 526      9E073549 
 526      F5144E9B 
 526      E8FB904F 
 526      E932CB
 527 08f1 375CBDC8 		.ascii	"7\\\275\310\221\012\363\252h\206\245\361\201s\373xE"
 527      910AF3AA 
 527      6886A5F1 
 527      8173FB78 
 527      45
 528 0902 EAA6DDBE 		.ascii	"\352\246\335\276\361\337h@.a\0278\332\223z\376@\003"
 528      F1DF6840 
 528      2E611738 
 528      DA937AFE 
 528      4003
 529 0914 1314AF48 		.ascii	"\023\024\257Hdt{U_\205\037f`\025\256rU\341\341\211\331"
 529      64747B55 
 529      5F851F66 
 529      6015AE72 
 529      55E1E189 
 530 0929 4FC87531 		.ascii	"O\310u1\221\337\360\035\271\027k3\034G\036\327\321\362"
 530      91DFF01D 
 530      B9176B33 
 530      1C471ED7 
 530      D1F2
 531 093b EDF034CA 		.ascii	"\355\3604\312\362\335\324[\276\265d\256\213\246\247"
 531      F2DDD45B 
 531      BEB564AE 
 531      8BA6A7
 532 094a B67DFB3D 		.ascii	"\266}\373=\311\266\357\244\307\320\366}\3431\264}\327"
 532      C9B6EFA4 
 532      C7D0F67D 
 532      E331B47D 
 532      D7
 533 095b 3D86B6EF 		.ascii	"=\206\266\357\236Gk\373\004\016\373t\223\261O\267\320"
 533      9E476BFB 
 533      040EFB74 
 533      93B14FB7 
 533      D0
 534 096c 3E7D6F62 		.ascii	">}ob\237\202\342\221\270\314x\355\223F^u\225\267\367"
 534      9F82E291 
 534      B8CC78ED 
 534      93465E75 
 534      95B7F7
 535 097f 0DD902ED 		.ascii	"\015\331\002\355q\264\273\221\355\347\304\011\236\366"
 535      71B4BB91 
 535      EDE7C409 
 535      9EF6
 536 098d 33D4C1D7 		.ascii	"3\324\301\327~\206;t\3127\365\004*\037IO\255|sN\314"
 536      7E863B74 
ARM GAS  /tmp/ccHHzA80.s 			page 42


 536      CA37F504 
 536      2A1F494F 
 536      AD7C734E 
 537 09a2 4E6E3F3A 		.ascii	"Nn?:\257\364\317?1\265\243\243\034:\247\364\242\304"
 537      AFF4CF3F 
 537      31B5A3A3 
 537      1C3AA7F4 
 537      A2C4
 538 09b4 31E9A1F0 		.ascii	"1\351\241\360\341\341\364\307\011\241\025\016\342[\217"
 538      E1E1F4C7 
 538      09A1150E 
 538      E25B8F
 539 09c3 F26A7558 		.ascii	"\362juXC\020-\310\214\2101\2164\223z&\375\006\235\""
 539      43102DC8 
 539      8C88318E 
 539      34937A26 
 539      FD069D22 
 540 09d7 964398D3 		.ascii	"\226C\230\3238?\263\332\210a\006r\252\213\317\203\375"
 540      383FB3DA 
 540      88610672 
 540      AA8BCF83 
 540      FD
 541 09e8 2A5EE3BA 		.ascii	"*^\343\272\273\363\317f\320\206;\316A,\3169oJ\213\243"
 541      BBF3CF66 
 541      D0863BCE 
 541      412CCE39 
 541      6F4A8BA3 
 542 09fc C5C1B190 		.ascii	"\305\301\261\220^\340\253kP\340\023S\013|\304\360\330"
 542      5EE0AB6B 
 542      50E01353 
 542      0B7CC4F0 
 542      D8
 543 0a0d FA9A9989 		.ascii	"\372\232\231\211e\273\341\226\263\023Aq\0226%\236\205"
 543      65BBE196 
 543      B3134171 
 543      1236259E 
 543      85
 544 0a1e B8EB5893 		.ascii	"\270\353X\223\211\215c+\220\265\241\006\027Z\2468\210"
 544      898D632B 
 544      90B5A106 
 544      175AA638 
 544      88
 545 0a2f 89F8C136 		.ascii	"\211\370\3016\230_\003\266\221\005{\300\003f\326\217"
 545      985F03B6 
 545      91057BC0 
 545      0366D68F 
 546 0a3f 03D8272C 		.ascii	"\003\330',\330\010\237]0-e[X\260wx\300\314\246\001\000"
 546      D8089F5D 
 546      302D655B 
 546      58B07778 
 546      C0CCA601 
 547 0a54 6C1F0B36 		.ascii	"l\037\0136\3266\030K\331\320\330\231\232=d8\366\230"
 547      D636184B 
 547      D9D0D899 
 547      9A3D6438 
 547      F698
 548 0a66 30519687 		.ascii	"0Q\226\207\312s\335fJ!\010\370\210l\371\010\014\302"
ARM GAS  /tmp/ccHHzA80.s 			page 43


 548      CA73DD66 
 548      4A2108F8 
 548      886CF908 
 548      0CC2
 549 0a78 1D8F6995 		.ascii	"\035\217i\225\264vL3\242\244$=\265U:\244(\251\352\360"
 549      B4764C33 
 549      A2A4243D 
 549      B5553AA4 
 549      28A9EAF0 
 550 0a8c 4CC4CA91 		.ascii	"L\304\312\221\274\215i\264r\354TM\232\374Nz|H\273\304"
 550      BC8D69B4 
 550      72EC544D 
 550      9AFC4E7A 
 550      7C48BBC4 
 551 0aa0 82F025FA 		.ascii	"\202\360%\372\326u\244F\362\323d\216\305\200\232\231"
 551      D675A446 
 551      F2D3648E 
 551      C5809A99 
 552 0ab0 ADE5B95B 		.ascii	"\255\345\271[E\376}\002\3653\326\377\012]\220e(\305"
 552      45FE7D02 
 552      F533D6FF 
 552      0A5D9065 
 552      28C5
 553 0ac2 C93EC379 		.ascii	"\311>\303y3\016\240\325s\026\3239\304\217\021h\226\016"
 553      330EA0D5 
 553      7316D339 
 553      C48F1168 
 553      960E
 554 0ad4 C8FE9603 		.ascii	"\310\376\226\003[\017K\302\022,pIB\377R\356O\320\260"
 554      5B0F4BC2 
 554      122C7049 
 554      42FF52EE 
 554      4FD0B0
 555 0ae7 AEEECEFC 		.ascii	"\256\356\316\374K\355\224\375\011\224\025\313m\003\266"
 555      4BED94FD 
 555      099415CB 
 555      6D03B6
 556 0af6 D0094512 		.ascii	"\320\011E\022V5Vo\230\252\253\203\347\205\01620^\354"
 556      5635566F 
 556      98AAAB83 
 556      E7850E32 
 556      305EEC
 557 0b09 789A2D60 		.ascii	"x\232-`\015O\2533s\353\241\011\337`\233p\265m0\277\006"
 557      0D4FAB33 
 557      73EBA109 
 557      DF609B70 
 557      B56D30BF 
 558 0b1e EC260BB6 		.ascii	"\354&\013\266\205\007\314oN\331\367,\330g\266\301\264"
 558      8507CC6F 
 558      4ED9F72C 
 558      D867B6C1 
 558      B4
 559 0b2f 94DD66C1 		.ascii	"\224\335f\301v\361\200\031\215^\214>lw\010\375\225\203"
 559      76F18019 
 559      8D5E8C3E 
 559      6C7708FD 
 559      9583
ARM GAS  /tmp/ccHHzA80.s 			page 44


 560 0b41 F4579351 		.ascii	"\364W\223QRS1\256\304x\006\306\2630\236\203\361<\214"
 560      525331AE 
 560      C47806C6 
 560      B3309E83 
 560      F13C8C
 561 0b54 D761BC01 		.ascii	"\327a\274\001\343\215\030\177\302\312\327\302w\251\237"
 561      E38D187F 
 561      C2CAD7C2 
 561      77A99F
 562 0b63 88FB7BC6 		.ascii	"\210\373{\306\242\357\362\205\317\322w\031gRUB}\314"
 562      A2EFF285 
 562      CFD27719 
 562      67525542 
 562      7DCC
 563 0b75 C27789E9 		.ascii	"\302w\211\351}\227#>\273\276\013#\006\364\\c\245\233"
 563      7D97233E 
 563      BBBE0B23 
 563      06F45C63 
 563      A59B
 564 0b87 57CAF248 		.ascii	"W\312\362H\267\332\310N\353\021mn\002::#}\337\353*\330"
 564      B7DAC84E 
 564      EB116D6E 
 564      023A3A23 
 564      7DDFEB2A 
 565 0b9c D7B6C1F4 		.ascii	"\327\266\301\364-V\225\343\010\224\343H\224\310{\030"
 565      2D5695E3 
 565      0894E348 
 565      94C87B18 
 566 0bac 6FC378BB 		.ascii	"o\303x\273\266\365]L2r\324\351e\360\022\336\261\220"
 566      B6F55D4C 
 566      3272D4E9 
 566      65F012DE 
 566      B190
 567 0bbe 1AD14C48 		.ascii	"\032\321LH\015\354\204\334M,\364\252\375\311Eu\263\313"
 567      0DEC84DC 
 567      4D2CF4AA 
 567      FDC94575 
 567      B3CB
 568 0bd0 69680B29 		.ascii	"ih\013)\227\213\235*RV\\\347\352n\255\330\332z\243,"
 568      978B9D2A 
 568      52565CE7 
 568      EA6EADD8 
 568      DA7AA32C 
 569 0be4 B7088A7B 		.ascii	"\267\010\212{\320{\\\325$\365z\261\006G\0226a\226/u"
 569      D07B5CD5 
 569      24F57AB1 
 569      06471236 
 569      61962F75 
 570 0bf8 7D5CDD8C 		.ascii	"}\\\335\214ug\377i\032\"\177\311\325\317\3357\032uS"
 570      7567FF69 
 570      1A227FC9 
 570      D5CFDD37 
 570      1A7553
 571 0c0b B2CC78B8 		.ascii	"\262\314x\270_\257\314\367\342\2444\316\021\177\264"
 571      5FAFCCF7 
 571      E2A434CE 
 571      117FB4
ARM GAS  /tmp/ccHHzA80.s 			page 45


 572 0c1a 036DCA7E 		.ascii	"\003m\312~l\201C\323\354\202i\2052i\347L\233\233\331"
 572      6C8143D3 
 572      EC826985 
 572      3269E74C 
 572      9B9BD9
 573 0c2d AA365E7A 		.ascii	"\2526^zr3\262\3540*\377\3764\275.*k\026\011]\344\361"
 573      7233B2EC 
 573      302AFFFE 
 573      34BD2E2A 
 573      6B16095D 
 574 0c43 A38FF154 		.ascii	"\243\217\361T\304|\326\011$\271\377\251j\034\234\252"
 574      C47CD609 
 574      24B9FFA9 
 574      6A1C9CAA 
 575 0c53 DE8EA99B 		.ascii	"\336\216\251\233&\011uX\330\011\2756T}\272\377\327T"
 575      26097558 
 575      D809BD36 
 575      547DBAFF 
 575      D754
 576 0c65 1B4E7069 		.ascii	"\033Npi\303\372\232\251\\C\242\271n\265\370\002,~~:"
 576      C3FA9AA9 
 576      5C43A2B9 
 576      6EB5F802 
 576      2C7E7E3A 
 577 0c79 29BE4E5F 		.ascii	")\276N_\374\346\363\227\376L\213\257\343*\376\314\336"
 577      FCE6F397 
 577      FE4C8BAF 
 577      E32AFECC 
 577      DE
 578 0c8a C946CA68 		.ascii	"\311F\312h2jU\305\367\351w\317\315\301B\276F\005\272"
 578      326A55C5 
 578      F7E977CF 
 578      CDC142BE 
 578      4605BA
 579 0c9d 9AAE17DF 		.ascii	"\232\256\027\337\213\354\274\275\240\254\3463\372\373"
 579      8BECBCBD 
 579      A0ACE633 
 579      FAFB
 580 0cab 439CFA46 		.ascii	"C\234\372F\351/Ts\353\213\037\242\244T\032\356\332F"
 580      E92F5473 
 580      EB8B1FA2 
 580      A4541AEE 
 580      DA46
 581 0cbd D42AF1CD 		.ascii	"\324*\361\315\275\330\"(\330C\0360\013\313\376=\013"
 581      BDD82228 
 581      D8431E30 
 581      0BCBFE3D 
 581      0B
 582 0cce 36B4A95D 		.ascii	"6\264\251]0-e\267Y\260\221<`\026;,\357\260`\243m\203"
 582      302D65B7 
 582      59B0913C 
 582      60163B2C 
 582      EFB060A3 
 583 0ce4 6929BBC7 		.ascii	"i)\273\307\202\275\307\003f\261\303\362\001\0136\301"
 583      82BDC703 
 583      66B1C3F2 
 583      010B36C1 
ARM GAS  /tmp/ccHHzA80.s 			page 46


 584 0cf4 369896B2 		.ascii	"6\230\226\262G,\330\024\0360\2779e\343\0170`\225\266"
 584      472CD814 
 584      1E30BF39 
 584      65E30F30 
 584      6095B6
 585 0d07 C1B4944D 		.ascii	"\301\264\224Md\301f\361\200Y\314EOf\301\346\331\006"
 585      64C166F1 
 585      8059CC45 
 585      4F66C1E6 
 585      D906
 586 0d19 D352F63E 		.ascii	"\323R\366>\013\266\220\007\314h\237\243\272\371\226"
 586      0BB69007 
 586      CC689FA3 
 586      BAF996
 587 0d28 05FBD036 		.ascii	"\005\373\3206\230\226\262\351,\330G<`/\230S6\223\005"
 587      9896B2E9 
 587      2CD8473C 
 587      602F9853 
 587      369305
 588 0d3b ABB20DA6 		.ascii	"\253\262\015\246\245l%\013\266\226\007\354%s\312V\261"
 588      A56C250B 
 588      B69607EC 
 588      2573CA56 
 588      B1
 589 0d4c 601B6C83 		.ascii	"`\033l\203i)[\303\202m\342\001\353nN\331:\026l\213m"
 589      69295BC3 
 589      826DE201 
 589      EB6E4ED9 
 589      3A166C8B 
 590 0d61 302D651B 		.ascii	"0-e\033X\260\255<`}\315)\333\310\202m\267\015\246\245"
 590      58B0AD3C 
 590      607DCD29 
 590      DBC8826D 
 590      B70DA6A5 
 591 0d75 EC13166C 		.ascii	"\354\023\026l'\017\330_\315)\333\302\202\325\330\006"
 591      270FD85F 
 591      CD29DBC2 
 591      82D5D806 
 592 0d85 D352B68F 		.ascii	"\323R\266\217\005\333\313\003\366\272\001e\361\217\231"
 592      05DBCB03 
 592      F6BA0165 
 592      F18F99
 593 0d94 9F79C6C1 		.ascii	"\237y\306\301\370\352\007\232\252\016\216\315>ZH`\034"
 593      F8EA079A 
 593      AA0E8ECD 
 593      3E5A4860 
 593      1C
 594 0da5 6E6AD723 		.ascii	"nj\327#\323\324\233\370\326OmT\372y\352\254\236\344"
 594      D3D49BF8 
 594      D64F6D54 
 594      FA79EAAC 
 594      9EE4
 595 0db7 41B4E800 		.ascii	"A\264\350\000\225\215\374\024\354k\333`:U\336\251\037"
 595      958DFC14 
 595      EC6BDB60 
 595      3A55DEA9 
 595      1F
ARM GAS  /tmp/ccHHzA80.s 			page 47


 596 0dc8 8E706DF2 		.ascii	"\216pm\362Y\302\271\331\331LLs\234\214\230\256\362\324"
 596      59C2B9D9 
 596      D94C4C73 
 596      9C8C98AE 
 596      F2D4
 597 0dda C1A2DF3D 		.ascii	"\301\242\337=\263s&\256\240\361\3572\253\332\270_\361"
 597      B37326AE 
 597      A0F1EF32 
 597      ABDAB85F 
 597      F1
 598 0deb DE3FC045 		.ascii	"\336?\300E\251[M\365\356\337t\275\367\236bC\223$<\320"
 598      A95B4DF5 
 598      EEDF74BD 
 598      F79E6243 
 598      93243CD0 
 599 0dff D7C2685D 		.ascii	"\327\302h]\311\274\303\007E9\326\266\372cY\036\356\266"
 599      C9BCC307 
 599      4539D6B6 
 599      FA63591E 
 599      EEB6
 600 0e11 538FDD4A 		.ascii	"S\217\335J=\226`=F4\373\361\365x\267\231\335z<\247\253"
 600      3D96603D 
 600      4634FBF1 
 600      F578B799 
 600      DD7A3CA7 
 601 0e26 C7D6E7EC 		.ascii	"\307\326\347\354\327\343\230R\217\217\260\036\223\377"
 601      D7E39852 
 601      8F8FB01E 
 601      93FF
 602 0e34 01F59869 		.ascii	"\001\365\230i\273\036\354\033S8\224jG\207R\\3\336\253"
 602      BB1EEC1B 
 602      5338946A 
 602      4787525C 
 602      33DEAB
 603 0e47 9CBA19EF 		.ascii	"\234\272\031\357c{D?MN5\206\221c\365{\230\361\247\314"
 603      637B443F 
 603      4D4E3586 
 603      9163F57B 
 603      98F1A7CC 
 604 0e5b 37FEFC4E 		.ascii	"7\376\374N\341\330Z\344\330\007:\216\361#\325\237\330"
 604      E1D85AE4 
 604      D8073A8E 
 604      F123D59F 
 604      D8
 605 0e6c 5EA56C64 		.ascii	"^\245ld\335\200P\0376\032j\365\231\365t\363\346&\004"
 605      DD80501F 
 605      361A6AF5 
 605      99F574F3 
 605      E62604
 606 0e7f AA4A92A2 		.ascii	"\252J\222\242['D\267V\210pKJ\272C\206\303\342\337\224"
 606      5B2744B7 
 606      5688704B 
 606      4ABA4386 
 606      C3E2DF94 
 607 0e93 1472E311 		.ascii	"\024r\343\021\376\277\347\003\227\003\311'\002\264\331"
 607      FEBFE703 
 607      9703C927 
ARM GAS  /tmp/ccHHzA80.s 			page 48


 607      02B4D9
 608 0ea2 7B2414E8 		.ascii	"{$\024\350W\325\212\345\247B\332\366\243\020\207\305"
 608      57D58AE5 
 608      A742DAF6 
 608      A31087C5 
 609 0eb2 568F99A5 		.ascii	"V\217\231\245\254\213\274\210]\362\217\204\333_c\177"
 609      AC8BBC88 
 609      5DF28F84 
 609      DB5F637F 
 610 0ec2 D6636B1B 		.ascii	"\326ck\033\252u\333\261B\007\222$\334\250Y\217\323\215"
 610      AA75DBB1 
 610      42079224 
 610      DCA8598F 
 610      D38D
 611 0ed4 AD48FC23 		.ascii	"\255H\374#\011\337\350\233\273\255!\022\221\326\335"
 611      09DFE89B 
 611      BBAD2112 
 611      91D6DD
 612 0ee3 769C3327 		.ascii	"v\2343'\361\371\270K\255w\321\3718'\231\217\273\244"
 612      F1F9B84B 
 612      AD77D1F9 
 612      3827998F 
 612      BBA4
 613 0ef5 6306C70C 		.ascii	"c\006\307\014\314\035J\2643i>n\377\223\312|\234\223"
 613      CC1D4AB4 
 613      33693E6E 
 613      FF93CA7C 
 613      9C93
 614 0f07 6B06A642 		.ascii	"k\006\246B\325\013:\315v\300!)\260\215\345\247F\204"
 614      D50B3ACD 
 614      76C02129 
 614      B08DE5A7 
 614      4684
 615 0f19 09FA82E2 		.ascii	"\011\372\202\342^'\351\370\36795\023\261o7\267\313{"
 615      5E27E9F8 
 615      F7393513 
 615      B16F37B7 
 615      CB7B
 616 0f2b 3FCBFBD8 		.ascii	"?\313\373\330\375\232\231\"\241\337`\322\350%\326\305"
 616      FD9A9922 
 616      A1DF60D2 
 616      E825D6C5 
 617 0f3b 8A33FEEC 		.ascii	"\2123\376\354\223\273\221=\265\310\370\211\315m\356"
 617      93BB913D 
 617      B5C8F889 
 617      CD6DEE
 618 0f4a 5D9584F9 		.ascii	"]\225\204\371\230\345p2\343w\267\241\214?\314\305\370"
 618      98E57032 
 618      E377B7A1 
 618      8C3FCCC5 
 618      F8
 619 0f5b 43868C3F 		.ascii	"C\206\214?l\237\361O\253\257,\307]\273\240x\3206\230"
 619      6C9FF14F 
 619      ABAF2CC7 
 619      5DBBA078 
 619      D03698
 620 0f6e DF4A8A87 		.ascii	"\337J\212\207\031)\036E)\036s\222)\360\343ZY\256\326"
ARM GAS  /tmp/ccHHzA80.s 			page 49


 620      19291E45 
 620      291E7392 
 620      29F0E35A 
 620      59AED6
 621 0f81 CB52C339 		.ascii	"\313R\3039\345\322t@/\307&}\245\256\335R\233\267\205"
 621      E5D27440 
 621      2FC7267D 
 621      A5AEDD52 
 621      9BB785
 622 0f94 47372C86 		.ascii	"G7,\206\341\263\277B\226P{\263"
 622      E1B3BF42 
 622      96507BB3 
 623 0fa0 DD36985F 		.ascii	"\3356\230_\003\266y,\347v1\335{b{\261\334szu9\361h\377"
 623      03B6792C 
 623      E77631DD 
 623      7B627BB1 
 623      DC737A75 
 624 0fb8 28712876 		.ascii	"(q(v\235\3478\364\005\372\371o|\270\347\231\352\355"
 624      9DE738F4 
 624      05FAF96F 
 624      7CB8E799 
 624      EAED
 625 0fca E8162AAA 		.ascii	"\350\026*\252\005\253-\264\345\376%e\0135\035\012L\320"
 625      05AB2DB4 
 625      E5FE2565 
 625      0B351D0A 
 625      4CD0
 626 0fdc C3A51CA9 		.ascii	"\303\245\034\251h\341\036\205v\265o\314{x\261\023\325"
 626      68E11E85 
 626      76B56FCC 
 626      7B78B113 
 626      D5
 627 0fed C4D3B982 		.ascii	"\304\323\271\202u\252l\241\357\021(g\030E<\307(\342"
 627      75AA6CA1 
 627      EF112867 
 627      18453CC7 
 627      28E2
 628 0fff D7       		.ascii	"\327"
 629 1000 A888DFA0 		.ascii	"\250\210\337\240\"^\300\370\022\253\216f\316\326ev\370"
 629      225EC0F8 
 629      12AB8E66 
 629      CED66576 
 629      F8
 630 1011 30CF76BD 		.ascii	"0\317v\275\375:\351\230\025s\226-fI\013\016\3353\237"
 630      FD3AE998 
 630      1573962D 
 630      66490B0E 
 630      DD339F
 631 1024 B52146FD 		.ascii	"\265!F\375\017\252;@\327\014V\331F\324j\363wc5\356\300"
 631      0FAA3B40 
 631      D70C56D9 
 631      46D46AF3 
 631      776335EE 
 632 1039 661EB897 		.ascii	"f\036\270\227\014\0104\372\260\253D`\365qAn\037.\231"
 632      0C0834FA 
 632      B0AB4460 
 632      F571416E 
ARM GAS  /tmp/ccHHzA80.s 			page 50


 632      1F2E99
 633 104c D5627C08 		.ascii	"\325b|\010\343\343\030OG\301\315\304x6\306\3631^\214"
 633      E3E3184F 
 633      47C1CDC4 
 633      7836C6F3 
 633      315E8C
 634 105f F1728CAB 		.ascii	"\361r\214\2530\336\215\361\001\214Ob|\032\343:\214o"
 634      30DE8DF1 
 634      018C4F62 
 634      7C1AE33A 
 634      8C6F
 635 1071 607C3395 		.ascii	"`|3\225\002(\275\300\214E\307\237Z\216\266z7\235\361"
 635      0228BDC0 
 635      8C45C79F 
 635      5A8EB67A 
 635      379DF1
 636 1084 4ED2BCFD 		.ascii	"N\322\274\375\016\335\034~\322\"\324\370\226\034\213"
 636      0EDD1C7E 
 636      D222D4F8 
 636      961C8B
 637 1093 7916CB2D 		.ascii	"y\026\313-\225\267/\276\265y\030\225\351\025T\353\363"
 637      95B72FBE 
 637      B5791895 
 637      E91554EB 
 637      F3
 638 10a4 4EDDEEC2 		.ascii	"N\335\356\302\324\373\206\265B=5\333\374\225L\315jJ"
 638      D4FB86B5 
 638      423D35DB 
 638      FC954CCD 
 638      6A4A
 639 10b6 7C63D8B3 		.ascii	"|c\330\263\011\236\234Yz\374\377\322\015f\367\2605\326"
 639      099E9C59 
 639      7AFCFFD2 
 639      0D66F7B0 
 639      35D6
 640 10c8 B64CBD44 		.ascii	"\266L\275D\250\301!\\z\2503s\261\357N\323\2275S\233"
 640      A8C1215C 
 640      7AA83373 
 640      B1EF4ED3 
 640      9735539B 
 641 10dc B811C363 		.ascii	"\270\021\303c?\234\236\254(%]\356?\203$<l\\\227H\366"
 641      3F9C9EAC 
 641      28255DEE 
 641      3F83243C 
 641      6C5C9748 
 642 10f1 0E9C66F6 		.ascii	"\016\234f\366\016\234\267\015\346\327\200\335a\301."
 642      0E9CB70D 
 642      E6D780DD 
 642      61C12E
 643 1100 F08059EC 		.ascii	"\360\200Y\354\014\273\307\202]\266\015\246\245\354\001"
 643      0CBBC782 
 643      5DB60DA6 
 643      A5EC01
 644 110f 0B768D07 		.ascii	"\013v\215\007\314bg\330#\026\354\226m0-e\343\3170`\367"
 644      CC6267D8 
 644      2316EC96 
 644      6D302D65 
ARM GAS  /tmp/ccHHzA80.s 			page 51


 644      E3CF3060 
 645 1124 78C02C36 		.ascii	"x\300,6\274Ld\301\206\266\262\013\246\245l2\0136\232"
 645      BC4C64C1 
 645      86B6B20B 
 645      A6A56C32 
 645      0B369A
 646 1137 07CC6F40 		.ascii	"\007\314o@\231\321\207m\004A\361\021vR\015h\235\206"
 646      99D1876D 
 646      0441F111 
 646      76520D68 
 646      9D86
 647 1149 BA483C1C 		.ascii	"\272H<\034\343\221\030\217\302x4\306c0~\017\343q.\216"
 647      E391188F 
 647      C27834C6 
 647      63307E0F 
 647      E3712E8E 
 648 115d 8EEC2EDB 		.ascii	"\216\354.\333\303\214k\305a\215,f\220*o\357\373??fg"
 648      C38C6BC5 
 648      618D2C66 
 648      902A6FEF 
 648      FB3F3F66 
 649 1172 72DD9155 		.ascii	"r\335\221U{\376D\314G\352\335\311S\\|\273\223\247\272"
 649      7BFE44CC 
 649      47EADDC9 
 649      535C7CBB 
 649      93A7BA
 650 1185 F45BE3BF 		.ascii	"\364[\343\277B[B\322S\273\327\365\234\356ZLd\271\023"
 650      425B42D2 
 650      53BBD7F5 
 650      9CEE5A4C 
 650      64B913
 651 1198 B7857BFE 		.ascii	"\267\205{\376Lm\341\014\027\261\205\307[\245\264\205"
 651      4C6DE10C 
 651      17B185C7 
 651      5BA5B485 
 652 11a8 5A1C42DF 		.ascii	"Z\034B\337l=\375\253\367\"\375\263S\323O6\333\356\325"
 652      6C3DFDAB 
 652      F722FDB3 
 652      53D34F36 
 652      DBEED5
 653 11bb DAC26B48 		.ascii	"\332\302kH\002\311\3338[\270a/\243\3607l\203\3715`\033"
 653      02C9DB38 
 653      5BB8612F 
 653      A3F0376C 
 653      83F93560 
 654 11d0 59B01F78 		.ascii	"Y\260\037x\300\254v\311\262`wm\203i)\333\302\202=\342"
 654      C0AC76C9 
 654      B260776D 
 654      836929DB 
 654      C2823DE2 
 655 11e4 01B3DA25 		.ascii	"\001\263\332%\313\202\015\177\314.\230\337H\274B\222"
 655      CB820D7F 
 655      CC2E98DF 
 655      48BC4292 
 656 11f4 7604C539 		.ascii	"v\004\3059.b$\346b\323\237\217\361\002\214\027a\274"
 656      2E6224E6 
 656      62D39F8F 
ARM GAS  /tmp/ccHHzA80.s 			page 52


 656      F1028C17 
 656      61BC
 657 1206 04E3A53C 		.ascii	"\004\343\245<&a\272\2131\011\243\220\340\251\215\323"
 657      2661BA8B 
 657      3109A390 
 657      E0A98DD3 
 658 1216 18300947 		.ascii	"\0300\011GV\235\373\343\306d\223@\371aF\301\307,\005"
 658      569DFBE3 
 658      C6649340 
 658      F96146C1 
 658      C72C05
 659 1229 636D53E0 		.ascii	"cmS\340g)\210\335\377\212N\316\253\257\206O\322\343"
 659      672988DD 
 659      FF8A4ECE 
 659      ABAF864F 
 659      D2E3
 660 123b 194DCB5A 		.ascii	"\031M\313Z\215R\276\302S\275(\330t\333`\332\223\320"
 660      8D52BEC2 
 660      53BD28D8 
 660      74DB60DA 
 660      93D0
 661 124d C6EF65C0 		.ascii	"\306\357e\300\026\330\0063\333\2776\015u\241\022e\376"
 661      16D80633 
 661      DBBF360D 
 661      75A11265 
 661      FE
 662 125e 11C62B31 		.ascii	"\021\306+1^\205\361\032V\013$a\331cz\277\225\032G\006"
 662      5E85F11A 
 662      560B2461 
 662      D9637ABF 
 662      951A4706 
 663 1272 35614505 		.ascii	"5aE\005^\\3\331Nbe\273\3451\216\016\307o\256]\225\267"
 663      5E5C33D9 
 663      4E6265BB 
 663      E5318E0E 
 663      C76FAE5D 
 664 1288 6F281D0E 		.ascii	"o(\035\016\005\206\001\272mD\255\266L93[\263\363{\017"
 664      058601BA 
 664      6D44ADB6 
 664      4C39335B 
 664      B3F37B0F 
 665 129c 0F9EC5F6 		.ascii	"\017\236\305\366\202\231\324E\240`\007m\203\371\005"
 665      8299D445 
 665      A060076D 
 665      83F905
 666 12ab D30FFBDA 		.ascii	"\323\017\373\332WP\274\206oJ\374\035_\236}\204\361."
 666      5750BC86 
 666      6F4AFC1D 
 666      5F9E7D84 
 666      F12E
 667 12bd 1C1AD5A3 		.ascii	"\034\032\325\243\323p\007\343\211(\245\015\030o\304"
 667      D37007E3 
 667      8928A50D 
 667      186FC4
 668 12cc F8131E89 		.ascii	"\370\023\036\211]dw\037\236\306*|\323\330\327\244\353"
 668      5D64771F 
 668      9EC62A7C 
ARM GAS  /tmp/ccHHzA80.s 			page 53


 668      D3D8D7A4 
 668      EB
 669 12dd EA6B8FCC 		.ascii	"\352k\217\314\023'\321\003\317\032\360\245\366\363\266"
 669      1327D103 
 669      CF1AF0A5 
 669      F6F3B6
 670 12ec 11B512BB 		.ascii	"\021\265\022\273M\247\254(\330%\0360\243\306\315\260"
 670      4DA7AC28 
 670      D8251E30 
 670      A3C6CDB0 
 671 12fc 9532F45B 		.ascii	"\2252\364[d\350\005d\345\247\310\254\255\332fs=\251"
 671      64E80564 
 671      E5A7C8AC 
 671      ADDA6673 
 671      3DA9
 672 130e D9D03706 		.ascii	"\331\3207\006\031\244\304\253\205\202\025\226\031\343"
 672      19A4C4AB 
 672      85821596 
 672      19E3
 673 131c CF26181F 		.ascii	"\317&\030\037\024w\342d\234\235w.\265lj\330\251\232"
 673      1477E264 
 673      9C9D772E 
 673      B56C6AD8 
 673      A99A
 674 132e 417AFACC 		.ascii	"Az\372\314]$?\305[\262\374\247p\3253\247p\335\301\265"
 674      5D243FC5 
 674      5BB2FCA7 
 674      70D533A7 
 674      70DDC1B5 
 675 1342 D9BBF4CC 		.ascii	"\331\273\364\314-\254\364Q\214Ob|\032\343:\214\267\363"
 675      2DACF451 
 675      8C4F627C 
 675      1AE33A8C 
 675      B7F3
 676 1354 B0E116FB 		.ascii	"\260\341\026\373\232\367\350\307\011\331\327\033\375"
 676      9AF7E8C7 
 676      09D9D71B 
 676      FD
 677 1361 9AF7C303 		.ascii	"\232\367\303\003\357?\207GWP\275\206\356\3056\240\226"
 677      EF3F8747 
 677      5750BD86 
 677      EEC536A0 
 677      96
 678 1372 AFA76EEC 		.ascii	"\257\247n\354\242s`\344\250/\350]x\340,z\2273\0277\320"
 678      A27360E4 
 678      A82FE85D 
 678      78E02C7A 
 678      97331737 
 679 1387 633BA994 		.ascii	"c;\251\224f\350\341Rv\011Z\352n\374\347\264\366*\326"
 679      66E8E152 
 679      76095AEA 
 679      6EFCE7B4 
 679      F62AD6
 680 139a 02DB58CF 		.ascii	"\002\333X\317YI\374:#\361\357P\3427Q\342;Q\301wc\\\203"
 680      5949FC3A 
 680      23F1EF50 
 680      E23751E2 
ARM GAS  /tmp/ccHHzA80.s 			page 54


 680      3B51C177 
 681 13b1 F1973C52 		.ascii	"\361\227<R\276\362#\317\342\252>\177`\215H\335\355}"
 681      BEF223CF 
 681      E2AA3E7F 
 681      608D48DD 
 681      ED7D
 682 13c3 E86E6F7C 		.ascii	"\350no|<\245\273\255\237e\335\211Yj\365.\367\255\327"
 682      3CA5BBAD 
 682      9F65DD89 
 682      596AF52E 
 682      F7ADD7
 683 13d6 FD349563 		.ascii	"\3754\225c\300\360\275\242\015WP\033\016\304\001\033"
 683      C0F0BDA2 
 683      0D57501B 
 683      0EC4011B 
 684 13e6 A5ADB1BB 		.ascii	"\245\255\261\273W\031\345\012\212{\\\222M8\2556\334"
 684      5719E50A 
 684      8A7B5C92 
 684      4D38AD36 
 684      DC
 685 13f7 BFB82BE9 		.ascii	"\277\270+\351\034+\315alIR9\316\366\326\207yjc\241\333"
 685      1C2BCD61 
 685      6C495239 
 685      CEF6D687 
 685      796A63A1 
 686 140c 0FBFD6E8 		.ascii	"\017\277\326\350\366i=\234M\335\236\360CL\224\337IW"
 686      F6693D9C 
 686      4DDD9EF0 
 686      434C94DF 
 686      4957
 687 141e 77FF5FD1 		.ascii	"w\377_\321\303\245\334\375\337\336J\275k\031\327\372"
 687      C3A5DCFD 
 687      DFDE4ABD 
 687      6B19D7FA 
 688 142e 10BA5387 		.ascii	"\020\272S\207Q\231\217b|\014\343\223\030\237\346Q\357"
 688      51998F62 
 688      7C0CE393 
 688      189FE651 
 688      EF
 689 143f BD0946B6 		.ascii	"\275\011F\266\025f\313\261\033u\207.\\n\275\214\370"
 689      1566CBB1 
 689      1B75872E 
 689      5C6EBD8C 
 689      F8
 690 1450 2EF2A386 		.ascii	".\362\243\206\277\015\035&\352^zuZ\234\262\350\322\274"
 690      BF0D1D26 
 690      EA5E7A75 
 690      5A9CB2E8 
 690      D2BC
 691 1462 F46A38D6 		.ascii	"\364j8\326N\265v8\353\312\315'ik\371\032[\313\351\237"
 691      4EB57638 
 691      EBCACD27 
 691      696BF91A 
 691      5BCBE99F 
 692 1476 182F6159 		.ascii	"\030/aYn9\270\240o)k\351\253\363\027\270\332J\365\216"
 692      6E39B8A0 
 692      6F296BE9 
ARM GAS  /tmp/ccHHzA80.s 			page 55


 692      ABF317B8 
 692      DA4AF58E 
 693 148a E5DC67BF 		.ascii	"\345\334g\277\351\032\352\255\237\030\237\375\246y\014"
 693      E91AEAAD 
 693      9F189FFD 
 693      A6790C
 694 1499 1C246C2F 		.ascii	"\034$l/\327\364TN\252@*\257qQ9eG\212\263\337\370\027"
 694      D7F4544E 
 694      AA402AAF 
 694      71513965 
 694      478AB3DF 
 695 14af AFD7DF3C 		.ascii	"\257\327\337<\367\207\0258a|\323\205+S?\325{\020.\335"
 695      F7871538 
 695      617CD385 
 695      2B533FD5 
 695      7B102EDD 
 696 14c3 DAB54BBB 		.ascii	"\332\265K\273v\355\362%.\224\265k3\321|\347\2628aI9"
 696      76EDF225 
 696      2E94B56B 
 696      33D17CE7 
 696      B2386149 
 697 14d8 E4287E7F 		.ascii	"\344(~\177\223\226\313u8\314\015\027\343\224,\223T\006"
 697      9396CB75 
 697      38CC0D17 
 697      E3942C93 
 697      5406
 698 14ea 37AE379E 		.ascii	"7\2567\236u\345@kt\006\255^\377&\324\231Qs\317\252\232"
 698      75E5406B 
 698      7406AD5E 
 698      FF26D499 
 698      5173CFAA 
 699 14ff 953FA29A 		.ascii	"\225?\242\232w\331j\316\263]M?[\315\324\347.\255\265"
 699      77D96ACE 
 699      B35D4D3F 
 699      5BCDD4E7 
 699      2EADB5
 700 1512 68EDB2DB 		.ascii	"h\355\262\333\242\212\323m\234K\325\300\332\362\317"
 700      A28AD36D 
 700      9C4BD5C0 
 700      DAF2CF
 701 1521 51F75254 		.ascii	"Q\367RT)\325az\215\255R\205A\225\270\2520\322\255[?"
 701      29D5617A 
 701      8DAD5285 
 701      4195B8AA 
 701      30D2AD5B 
 702 1536 D96DBB1A 		.ascii	"\331m\273\032~A\373I\370\347\327\321\232\337\301\370"
 702      7E41FB49 
 702      F8E7D7D1 
 702      9ADFC1F8 
 703 1546 11C623DC 		.ascii	"\021\306#\334<K\201\254\246lAM\271`\277A\030}X\003\013"
 703      3C4B81AC 
 703      A66C414D 
 703      B960BF41 
 703      187D5803 
 704 155b EE2A7642 		.ascii	"\356*vB\227x:\233\363\011\222\342,f6<R\326}\251\263"
 704      97783A9B 
 704      F30992E2 
ARM GAS  /tmp/ccHHzA80.s 			page 56


 704      2C66363C 
 704      52D67DA9 
 705 1570 3ECF0A1F 		.ascii	">\317\012\037\310\362D\354\226.\023\351R\030\350\365"
 705      C8F244EC 
 705      962E13E9 
 705      5218E8F5 
 706 1580 F1B93A57 		.ascii	"\361\271:W[\303\342\224\302hfy*\214\305DZ\226$\034O"
 706      5BC3E294 
 706      C2686679 
 706      2A8CC544 
 706      5A96241C 
 707 1595 9151A1E8 		.ascii	"\221Q\241\350\027\302B\2427G\276\356\333]9\314\303<"
 707      17C242A2 
 707      3747BEEE 
 707      DB5D39CC 
 707      C33C
 708 15a7 9352BF77 		.ascii	"\223R\277w\334\022[\027\354P\353\352\036\336>W!N\030"
 708      DC125B17 
 708      EC50EBEA 
 708      1EDE3E57 
 708      214E18
 709 15ba 3E6C977C 		.ascii	">l\227|\203\230\306d#-s\035$xb\371/q\013\331D7\261\321"
 709      8398C664 
 709      232D731D 
 709      247862F9 
 709      2F710BD9 
 710 15d2 57755CE2 		.ascii	"Wu\\\342\007Z}fV\006=T\021\201n%\031{Ag\354\005\255"
 710      075A7D66 
 710      56063D54 
 710      11816E25 
 710      197B4167 
 711 15e9 B1875BB9 		.ascii	"\261\207[\271A\371\320\275a\220\3627\241Qy\314\024e"
 711      41F9D0BD 
 711      6190F237 
 711      A15179CC 
 711      1465
 712 15fb 823BA527 		.ascii	"\202;\245'\221r\232\273\372\374\266\012\305\361\236"
 712      91729ABB 
 712      FAFCB60A 
 712      C5F19E
 713 160a EE26AEC4 		.ascii	"\356&\256\304\203\237\246t\274\265@\222P\361\004\311"
 713      839FA674 
 713      BCB54092 
 713      50F104C9 
 714 161a 32CBADEB 		.ascii	"2\313\255\353\250\347\004\37545u7\275\372.\343\014\302"
 714      A8E704FD 
 714      34357537 
 714      BDFA2EE3 
 714      0CC2
 715 162c 20044F7D 		.ascii	" \004O}%Y-\234AM#\322\302\255\275\2468\336\307\261\015"
 715      25592D9C 
 715      414D23D2 
 715      C2ADBDA6 
 715      38DEC7B1 
 716 1641 8C8DD3D7 		.ascii	"\214\215\323\3278\307{\375G\312F\211\275\0107\211\007"
 716      38C77BFD 
 716      47CA4689 
ARM GAS  /tmp/ccHHzA80.s 			page 57


 716      BD083789 
 716      07
 717 1652 CEC291AE 		.ascii	"\316\302\221\256\276\224\354\307\033\255\254>\243b-"
 717      BE94ECC7 
 717      1BADAC3E 
 717      A3622D
 718 1661 60BC90EA 		.ascii	"`\274\220\352\212/\350\241\277\213QZ\323\237H\275B\253"
 718      8A2FE8A1 
 718      BF8B515A 
 718      D39F48BD 
 718      42AB
 719 1673 C521C258 		.ascii	"\305!\302X\252\027U-=\365w)\227\260\016\322\015\344"
 719      AA17552D 
 719      3DF57729 
 719      97B00ED2 
 719      0DE4
 720 1685 74C43C1B 		.ascii	"t\304<\033\011Xj\203\267Z\260#;?\243\222\337.&$\277"
 720      09586A83 
 720      B75AB023 
 720      3B3FA392 
 720      DF2E2624 
 721 169a D486E4B5 		.ascii	"\324\206\344\265\242:\272\223\371\323\206yz\332R\036"
 721      A23ABA93 
 721      F9D38679 
 721      7ADA521E 
 722 16aa D5A3F9D3 		.ascii	"\325\243\371\323\203\330q\026l\221m\260\0274`\247F\275"
 722      83D87116 
 722      6C916DB0 
 722      173460A7 
 722      46BD
 723 16bc AB4C4DD2 		.ascii	"\253LM\322\343\340\227\3620\316B\213N'\316\226\017\212"
 723      E3E097F2 
 723      30CE428B 
 723      4E27CE96 
 723      0F8A
 724 16ce 07F56CE3 		.ascii	"\007\365l\343\355H\325\211\006\366\240\372\025<\224"
 724      ED48D589 
 724      06F6A0FA 
 724      153C94
 725 16dd 59BC6070 		.ascii	"Y\274`p\223\005[g\033LK\331\367,\330'<`\026;\375\357"
 725      93055B67 
 725      1B4C4BD9 
 725      F72CD827 
 725      3C60163B 
 726 16f3 B060DB6C 		.ascii	"\260`\333l\203i)\273\227\364\352\203\346D\376$k\375"
 726      836929BB 
 726      97F4EA83 
 726      E644FE24 
 726      6BFD
 727 1705 A99B71E0 		.ascii	"\251\233q\340jx\012\367\233\325D\216\315\332\223\206"
 727      6A780AF7 
 727      9BD5448E 
 727      CDDA9386 
 728 1715 637172C8 		.ascii	"cqr\310\277$\324\352\321\3448\234\234b\342\334\350\303"
 728      BF24D4EA 
 728      D1E4389C 
 728      9C62E2DC 
ARM GAS  /tmp/ccHHzA80.s 			page 58


 728      E8C3
 729 1727 1A0830C9 		.ascii	"\032\0100\311n\342\271,w\023\227\352c\214W`\\\205\361"
 729      6EE2B92C 
 729      771397EA 
 729      638C5760 
 729      5C85F1
 730 173a 6A8CD762 		.ascii	"j\214\327b\274\016\343\015\030o\304\370\023\214\267"
 730      BC0EE30D 
 730      186FC4F8 
 730      138CB7
 731 1749 60BC95C7 		.ascii	"`\274\225\307\035[\3042\351\210mC\253\221\020\364m\227"
 731      1D5BC432 
 731      E9886D43 
 731      AB9110F4 
 731      6D97
 732 175b BF51FF9E 		.ascii	"\277Q\377\236\203N\341\237\344A\264P\355\315\2274s "
 732      834EE19F 
 732      E441B450 
 732      EDCD9734 
 732      7320
 733 176d 5FEBE18C 		.ascii	"_\353\341\214l\002\377z\340,\206\353s\220\353s\221s"
 733      6C02FF7A 
 733      E02C86EB 
 733      7390EB73 
 733      9173
 734 177f F330FE00 		.ascii	"\3630\376\000\343\205\030o\307x\007\017G+\335\311\336"
 734      E385186F 
 734      C778070F 
 734      472BDDC9 
 734      DE
 735 1790 A4C2E5F8 		.ascii	"\244\302\345\370\2752O\244q\342%\341\222\256oQ\\Lp\324"
 735      BD324FA4 
 735      71E225E1 
 735      92AE6F51 
 735      5C4C70D4 
 736 17a4 BE256B00 		.ascii	"\276%k\000\335)\266$\334\307\347\306\273\315<E\244@"
 736      DD29B624 
 736      DCC7E7C6 
 736      BBCD3C45 
 736      A440
 737 17b6 71311F86 		.ascii	"q1\037\206\272\323\342\203\342gn\3112\333\"&\333Z\352"
 737      BAD3E283 
 737      E2676EC9 
 737      32DB2226 
 737      DB5AEA
 738 17c9 99D2EEBC 		.ascii	"\231\322\356\274!Ey"
 738      214579
 739 17d0 4A6DD033 		.ascii	"Jm\3203\035/W\235\354\333\232\272\203\2026\227\356@"
 739      1D2F579D 
 739      ECDB9ABA 
 739      83823697 
 739      EE40
 740 17e2 3BFC798F 		.ascii	";\374y\217\221k\032;\272\343]\357\370\241u\015\015m"
 740      916B1A3B 
 740      BAE35DEF 
 740      F8A1750D 
 740      0D6D
ARM GAS  /tmp/ccHHzA80.s 			page 59


 741 17f4 75A32482 		.ascii	"u\243$\202j\306\367\003\372QR\245;M\317\341\221\255"
 741      6AC6F703 
 741      FA5152A5 
 741      3B4DCFE1 
 741      91AD
 742 1806 8D382C4F 		.ascii	"\2158,O\010uW\037\377\002\231\264\337\232\267&u\335"
 742      0875571F 
 742      FF0299B4 
 742      DF9AB726 
 742      75DD
 743 1818 6F5DD783 		.ascii	"o]\327\203\311u\235[\027\333R@\035p\0335=\252\257)q"
 743      C9759D5B 
 743      17DB5240 
 743      1D701B35 
 743      3DAAAF29 
 744 182d 93F4BA15 		.ascii	"\223\364\272\025\277Wf\212y}\326l\265\264\243\354\016"
 744      BF57668A 
 744      797DD66C 
 744      B5B4A3EC 
 744      0E
 745 183e EEF9B54F 		.ascii	"\356\371\265O\321\367\010N\243\027\264W\307\307\324"
 745      D1F7084E 
 745      A317B457 
 745      C7C7D4
 746 184d 40603991 		.ascii	"@`9\221\263g\365\236\320]\372\317\002g\271<\241\207"
 746      B367F59E 
 746      D05DFACF 
 746      0267B93C 
 746      A187
 747 185f 3B1734F6 		.ascii	";\0274\366\377\017N\266\346\372\377\203o\221\312\013"
 747      FF0F4EB6 
 747      E6FAFF83 
 747      6F91CA0B 
 748 186f 49FE1AA5 		.ascii	"I\376\032\245\362\002\027\225\207v*\356+\231\374Qg}"
 748      F2021795 
 748      87762AEE 
 748      2B99FC51 
 748      677D
 749 1881 2E34D663 		.ascii	".4\326cS\317\022\275\213`\363l\203\371\215\300\032\020"
 749      53CF12BD 
 749      8B60F36C 
 749      83F98DC0 
 749      1A10
 750 1893 6CB89B03 		.ascii	"l\270\233\003,\365_\004\320i\206\267m\203\031P\326\330"
 750      2CF55F04 
 750      D06986B7 
 750      6D831950 
 750      D6D8
 751 18a5 2992EB1C 		.ascii	")\222\353\034\263>\266\3772\340\326\212\263\213\224"
 751      B33EB6FF 
 751      32E0D68A 
 751      B38B94
 752 18b4 37AD6ED1 		.ascii	"7\255n\321\321\255N\355\033\365\372\214\3009\377\364"
 752      D1AD4EED 
 752      1BF5FA8C 
 752      C039FFF4 
 753 18c4 77B667BE 		.ascii	"w\266g\276\215%\247`\256\305\021\364\320\200\177\226"
ARM GAS  /tmp/ccHHzA80.s 			page 60


 753      8D25A760 
 753      AEC511F4 
 753      D0807F96 
 754 18d4 72E6D08A 		.ascii	"r\346\320\212\301w\255\030|\313\315?\255v\207\255\326"
 754      C177AD18 
 754      7CCBCD3F 
 754      AD7687AD 
 754      D6
 755 18e5 7DDBD5B2 		.ascii	"}\333\325\262\2513V\223\241\015VU2\231\363mT\225\037"
 755      A9335693 
 755      A10D5655 
 755      3299F36D 
 755      54951F
 756 18f8 B155969F 		.ascii	"\261U\226\237\344\250\362\2179\224\336\252\312\243<"
 756      E4A8F28F 
 756      3994DEAA 
 756      CAA33C
 757 1907 F6E77F1B 		.ascii	"\366\347\177\033U\345\012\017\273)\312v\225\375\202"
 757      55E50A0F 
 757      BB29CA76 
 757      95FD82
 758 1916 F6939875 		.ascii	"\366\223\230u\274\204\216\330e\214\257`|\025\343k\030"
 758      BC848ED8 
 758      658CAF60 
 758      7C15E36B 
 758      18
 759 1927 D763FC10 		.ascii	"\327c\374\020\343\221\036\016g\355kw\322l\344\331F\032"
 759      E3911E0E 
 759      67ED6B77 
 759      D26CE4D9 
 759      461A
 760 1939 6A39F688 		.ascii	"j9\366\210\014PxW\2246.\275\377$\316+\214\365\220\036"
 760      0C507857 
 760      94362EBD 
 760      FF24CE2B 
 760      8CF5901E 
 761 194d 75FB9336 		.ascii	"u\373\2236\027\224`\020\202Y&xt]\325\372\012<\246\225"
 761      17946010 
 761      82592678 
 761      745DD5FA 
 761      0A3CA695 
 762 1961 A4732C2A 		.ascii	"\244s,*q\236\307<7>\003\365\270\220x\217\344\241\350"
 762      719EC73C 
 762      373E03F5 
 762      B890788F 
 762      E4A1E8
 763 1974 0F8AEF23 		.ascii	"\017\212\357#\375u\306\364\233cH\302w\230\245RO\377"
 763      FD75C6F4 
 763      9B6348C2 
 763      7798A552 
 763      4FFF
 764 1986 0F6416AB 		.ascii	"\017d\026\253\222\213\372z\365\205\232)\036\342\247"
 764      928BFA7A 
 764      F5859A29 
 764      1EE2A7
 765 1995 CA6D54C0 		.ascii	"\312mT\300Fu\264\261\007\370\237\004\364\345\234\267"
 765      4675B4B1 
ARM GAS  /tmp/ccHHzA80.s 			page 61


 765      07F89F04 
 765      F4E59CB7 
 766 19a5 6D63F935 		.ascii	"mc\3715X\023v\250\257U\3217\241&\363\340Y\314>L&\333"
 766      581376A8 
 766      AF55D137 
 766      A126F3E0 
 766      59CC3E4C 
 767 19bb 76ECBCF8 		.ascii	"v\354\274\370\271[y\361\363\003\017\376GM\233\177@\317"
 767      B95B79F1 
 767      F3030FFE 
 767      474D9B7F 
 767      40CF
 768 19cd 2509CB6C 		.ascii	"%\011\313l\327B\303\225\272MK\317\267V\337\251\241\204"
 768      D742C395 
 768      BA4D4BCF 
 768      B756DFA9 
 768      A184
 769 19df ADE14134 		.ascii	"\255\341A4\352\330\214>\2546\005\305\031\0362\242\233"
 769      EAD88C3E 
 769      AC3605C5 
 769      191E32A2 
 769      9B
 770 19f0 E921C660 		.ascii	"\351!\306`6\306s1\236\217\361b\036\3630\2055c[\332\250"
 770      36C67331 
 770      9E8FF162 
 770      1EF33085 
 770      35635BDA 
 771 1a05 EDCDA67A 		.ascii	"\355\315\246z\031\223:\201!u\022\222:\231%I\022v`yv"
 771      19933A81 
 771      21751292 
 771      3A992549 
 771      12766079 
 772 1a1a CC9196D9 		.ascii	"\314\221\226\331\267\346\337o{k\230<\255=\367I\345\261"
 772      B7E6DF6F 
 772      7B6B983C 
 772      AD3DF749 
 772      E5B1
 773 1a2c 7B6E2928 		.ascii	"{n)(.\367\220C\312\277\320i\014\347!\345+<\272C\312"
 773      2EF79043 
 773      CABFD069 
 773      0CE721E5 
 773      2B3CBA43 
 774 1a41 6FD143CA 		.ascii	"o\321C\312I\272E\203V\316\022?\334&\371\220\362\272"
 774      49BA4583 
 774      56CE123F 
 774      DC26F990 
 774      F2BA
 775 1a53 36868794 		.ascii	"6\206\207\224_l\243=\244\\\341\202\345\261\343\011\342"
 775      5F6CA33D 
 775      A45CE182 
 775      E5B1E309 
 775      E2
 776 1a64 82E24A64 		.ascii	"\202\342Jdy\225\307\372\330\361\263\326S\015\346\257"
 776      7995C7FA 
 776      D8F1B3D6 
 776      530DE6AF 
 777 1a74 1AC51A76 		.ascii	"\032\305\032v\222W\007y_\004\252]\177Ey9j\003\232\323"
ARM GAS  /tmp/ccHHzA80.s 			page 62


 777      92570779 
 777      5F04AA5D 
 777      7F457939 
 777      6A039AD3 
 778 1a88 25FF94DA 		.ascii	"%\377\224\332\234\032\340\200\331\301s.7!\310:\273 "
 778      9C1AE080 
 778      D9C1732E 
 778      3721C83A 
 778      BB20
 779 1a9a 92B015B3 		.ascii	"\222\260\025\263l\321\333\344\315t\013\300\026\016\253"
 779      6CD1DBE4 
 779      CD740BC0 
 779      160EAB
 780 1aa9 4CFE1080 		.ascii	"L\376\020\200\276\035\254\2766\271'\216\251\024\372"
 780      BE1DACBE 
 780      36B9278E 
 780      A914FA
 781 1ab8 12CBBED4 		.ascii	"\022\313\276\324fy\037\335\261H7\001\034\324\203\331"
 781      66791FDD 
 781      B1483701 
 781      1CD483D9 
 782 1ac8 B4A3B5F1 		.ascii	"\264\243\265\3617\200+q?\333i\333x\232F\026;H\211\243"
 782      37802B71 
 782      3FDB69DB 
 782      789A4616 
 782      3B4889A3 
 783 1adc 601778C0 		.ascii	"`\027x\300,f\273\216\262`\327l\203i);\316\202\375\300"
 783      2C66BB8E 
 783      B260D76C 
 783      8369293B 
 783      CE82FDC0 
 784 1af0 03663191 		.ascii	"\003f1\221{J\351\316\032y\356\374^\217\371\302\031\325"
 784      7B4AE9CE 
 784      1A79EEFC 
 784      5E8FF9C2 
 784      19D5
 785 1b02 56B39CFB 		.ascii	"V\263\234\373=\214\203\306wN\375T\352\000}\205>\301"
 785      3D8C83C6 
 785      774EFD54 
 785      EA007D85 
 785      3EC1
 786 1b14 435D1BD0 		.ascii	"C]\033\320\025M\0103+\372\240\307\374\254W\335o\340"
 786      154D0833 
 786      2BFAA0C7 
 786      FCAC57DD 
 786      6FE0
 787 1b26 E33E6597 		.ascii	"\343>e\227\301Zi\235\251\320\274\033:\236\007\316o "
 787      C15A699D 
 787      A9D0BC1B 
 787      3A9E07CE 
 787      6F20
 788 1b38 2FA30FDB 		.ascii	"/\243\017\333\240\203b\014\015\337V\354\004?\303\370"
 788      A083620C 
 788      0DDF56EC 
 788      043FC3F8 
 789 1b48 738C7762 		.ascii	"s\214wb\274\033\343\032\214\277\304\3700\333+\375\317"
 789      BC1BE31A 
ARM GAS  /tmp/ccHHzA80.s 			page 63


 789      8CBFC4F8 
 789      30DB2BFD 
 789      CF
 790 1b59 A04AC2D4 		.ascii	"\240J\302\324\247t}\235\3260\245j\2072vv\223d\030\340"
 790      A7747D9D 
 790      D630A56A 
 790      87327676 
 790      936418E0 
 791 1b6d F25BDCDA 		.ascii	"\362[\334\332\237Q\213{\034\215\345\354\247\364\036"
 791      9F518B7B 
 791      1C8DE5EC 
 791      A7F41E
 792 1b7c D2268F6E 		.ascii	"\322&\217n\177\362?\260\276\037q\325\327\3645\373x}"
 792      7FF23FB0 
 792      BE1F71D5 
 792      D7F435FB 
 792      787D
 793 1b8e A7B567FF 		.ascii	"\247\265g\377'v\272d\365\377\304g<-\225+\365\177\207"
 793      2776BA64 
 793      F5FFC467 
 793      3C2D952B 
 793      F57F87
 794 1ba1 89FFA527 		.ascii	"\211\377\245'\304x%\303\364\0103\322\230d\207\233\242"
 794      C47825C3 
 794      F40833D2 
 794      9864879B 
 794      A2
 795 1bb2 4BC27A3E 		.ascii	"K\302z>\270}N3<\243\001\256\321\337,\304\307\022O%D"
 795      B87D4E33 
 795      3CA301AE 
 795      D1DF2CC4 
 795      C7124F25 
 796 1bc7 7A7AE9BD 		.ascii	"zz\351\275\321\312\353\375\337\240L7\352d\232\022\210"
 796      D1CAEBFD 
 796      DFA04C37 
 796      EA649A12 
 796      88
 797 1bd8 30E7A2BE 		.ascii	"0\347\242\276\363\233un\227\210#\265\213\251\273\277"
 797      F39B756E 
 797      978823B5 
 797      8BA9BBBF 
 798 1be8 11C36355 		.ascii	"\021\303cU\347vI\312\226\351)\270\270>\002\267\325]"
 798      E77649CA 
 798      96E929B8 
 798      B83E02B7 
 798      D55D
 799 1bfa 6CDCB004 		.ascii	"l\334\260\004\000W\235S\026\327)\\\205m8\277\006n\215"
 799      00579D53 
 799      16D7295C 
 799      856D38BF 
 799      066E8D
 800 1c0d 166EB383 		.ascii	"\026n\263\203\003\316\342M\262uZ8\231\207:\213w\311"
 800      03CEE24D 
 800      B2755A38 
 800      99873A8B 
 800      77C9
 801 1c1f 3668E186 		.ascii	"6h\341\206\361\300Y\274M\266\221\205\223\204]\250\020"
ARM GAS  /tmp/ccHHzA80.s 			page 64


 801      F1C059BC 
 801      4DB69185 
 801      93845DA8 
 801      10
 802 1c30 76E0B4D4 		.ascii	"v\340\264\324}\242\205\373\202\007\316\250W5\372\260"
 802      7DA285FB 
 802      8207CEA8 
 802      5735FAB0 
 803 1c40 9A17142F 		.ascii	"\232\027\024/\241}\271\214\266\343\012\306W1\276\206"
 803      A17DB98C 
 803      B6E30AC6 
 803      5731BE86 
 804 1c50 F1DF31BE 		.ascii	"\361\3371\276\216\361w\\\363\034\354@f\277\276\221\032"
 804      8EF1775C 
 804      F31CEC40 
 804      66BFBE91 
 804      1A
 805 1c61 91BDCF72 		.ascii	"\221\275\317r\033\230\206\356\263\3142\3329\\F;\217"
 805      1B9886EE 
 805      B3CC32DA 
 805      395C463B 
 805      8F
 806 1c72 3330EF21 		.ascii	"30\357!}\3130^\217\3611\214Oc|\026\343\363<\324\237"
 806      7DCB305E 
 806      8FF1318C 
 806      4F637C16 
 806      E3F33CD4 
 807 1c87 72A7690A 		.ascii	"r\247i\012\324\254\351\034\3215\362\370\252\331\275"
 807      D4ACE91C 
 807      D135F2F8 
 807      AAD9BD
 808 1c96 2A710AAE 		.ascii	"*q\012\256\232\355\305\311\356\0058?}\304teg/\2631\353"
 808      9AEDC5C9 
 808      EE05383F 
 808      7DC47465 
 808      672FB331 
 809 1cab 1659103A 		.ascii	"\026Y\020:\216\331N\270\254\263\035g\262\255\247\253"
 809      8ED94EB8 
 809      ACB31D67 
 809      B2ADA7AB 
 810 1cbb 667433FB 		.ascii	"ft3\373U\244\313<#\256\313(\031\357\323\214\247py\357"
 810      55A4CB3C 
 810      23AECB28 
 810      19EFD38C 
 810      A77079EF 
 811 1ccf 7A8A8CA7 		.ascii	"z\212\214\247\334\354F0\355\022\324\021\353%\250\357"
 811      DCEC4630 
 811      ED12D411 
 811      EB25A8EF 
 812 1cdf 3D464B50 		.ascii	"=FKPU\307\322\015W\333\254\376\336\362\241~&\2212Y#"
 812      55C7D20D 
 812      57DBACFE 
 812      DEF2A17E 
 812      26913259 
 813 1cf4 995B8692 		.ascii	"\231[\206\222\221\247\206t2y\340\261\224\211R\325a\362"
 813      91A78674 
 813      3279E0B1 
ARM GAS  /tmp/ccHHzA80.s 			page 65


 813      948952D5 
 813      61F2
 814 1d06 B591235B 		.ascii	"\265\221#[\210\352?<k\262\031\325\265\301\260\256\307"
 814      88EA3F3C 
 814      6BB219D5 
 814      B5C1B0AE 
 814      C7
 815 1d17 CE92162C 		.ascii	"\316\222\026,?hh\030\356\025l\254\271\015\367\032\254"
 815      3F686818 
 815      EE156CAC 
 815      B90DF71A 
 815      AC
 816 1d28 2E6A2A2F 		.ascii	".j*/\330^\357\035\366\317\206\374yX\240[\215\034\346"
 816      D85EEF1D 
 816      F6CF86FC 
 816      7958A05B 
 816      8D1CE6
 817 1d3b E559E9AD 		.ascii	"\345Y\351\255\325\263\325<\033\253\352I\013\304\346"
 817      D5B3D53C 
 817      1BABEA49 
 817      0BC4E6
 818 1d4a D94C1688 		.ascii	"\331L\026\210\001/EFv\201X\257\261L.#)\276\355M\222"
 818      012F4546 
 818      768158AF 
 818      B14C2E23 
 818      29BEED4D 
 819 1d5f E2CABAD8 		.ascii	"\342\312\272\330\272\035\306\032k5\367=\316H\202:\211"
 819      BA1DC61A 
 819      6B35F73D 
 819      CE48823A 
 819      89
 820 1d70 BC672491 		.ascii	"\274g$\221ar\203^\"c\255%\022\327\330*\334\245I'\322"
 820      6172835E 
 820      2263AD25 
 820      12D7D82A 
 820      DCA54927 
 821 1d85 CD732904 		.ascii	"\315s)\004N0\254*\331\374ew)|\212\205\262\352\006@D"
 821      4E30AC2A 
 821      D9FC6577 
 821      297C8A85 
 821      B2EA0640 
 822 1d9a 346630D3 		.ascii	"4f0\323\274\206\177\356KO\015M\334/s$\257\013HB\245"
 822      BC867FEE 
 822      4B4F0D4D 
 822      DC2F7324 
 822      AF0B4842 
 823 1daf 312BA7EA 		.ascii	"1+\247\352\227\332's)\367\247$\033\241G\022>D`\363l"
 823      97DA2773 
 823      29F7A724 
 823      1BA14712 
 823      3E4460F3 
 824 1dc4 48B592AD 		.ascii	"H\265\222\255\376\277ZSz%a\205>\233\356\204T\254\225"
 824      FEBF5A53 
 824      7A256185 
 824      3E9BEE84 
 824      54AC95
 825 1dd7 5A5A457A 		.ascii	"ZZEz_\365=\231j}>\315\006\271x\355\015u\333\2544\205"
ARM GAS  /tmp/ccHHzA80.s 			page 66


 825      5FF53D99 
 825      6A7D3ECD 
 825      06B978ED 
 825      0D75DBAC 
 826 1ded BF339205 		.ascii	"\2773\222\005\016\026j\323;\357\301HpX\254\241\341E"
 826      0E166AD3 
 826      3BEFC148 
 826      7058ACA1 
 826      E145
 827 1dff AF5EE692 		.ascii	"\257^\346\222\271\314\027r\250w\314\330\340\314\321"
 827      B9CC1772 
 827      A877CCD8 
 827      E0CCD1
 828 1e0e CB6401A7 		.ascii	"\313d\001\247z\257E\365\2463\311\346\271\024\002\027"
 828      7AAF45F5 
 828      A633C9E6 
 828      B9140217 
 829 1e1e 1BD6F6CC 		.ascii	"\033\326\366\314;\357\252\265\265c\216\227q\324\366"
 829      3BEFAAB5 
 829      B5638E97 
 829      71D4F6
 830 1e2d 80716D93 		.ascii	"\200qm\2236{,\345\252\255^\266K\255e\373Qrm\353n\304"
 830      367B2CE5 
 830      AAAD5EB6 
 830      4BAD65FB 
 830      51726DEB 
 831 1e43 66D7288D 		.ascii	"f\327(\215\231\326@\022\316\030\3238CO\343\312F\321"
 831      99D64012 
 831      CE18D338 
 831      434FE3CA 
 831      46D1
 832 1e55 B8D29AC6 		.ascii	"\270\322\232\306*C\211\034Ul\353\234\227l\310c\255e"
 832      2A43891C 
 832      556CEB9C 
 832      976CC863 
 832      AD65
 833 1e67 F7A8DF92 		.ascii	"\367\250\337\222\242\264\231\370=\355\321\365\362\373"
 833      A2B499F8 
 833      3DEDD1F5 
 833      F2FB
 834 1e75 8E537E6B 		.ascii	"\216S~k\270,\310\372\204K\267-E6\326\245\273\025|N\265"
 834      B82CC8FA 
 834      844BB72D 
 834      4536D6A5 
 834      BB157C4E 
 835 1e8a 048F909E 		.ascii	"\004\217\220\2365\326\226@\3116kGZ\374E\322\221?\323"
 835      35D69640 
 835      C9366B47 
 835      5AFC45D2 
 835      913FD3
 836 1e9d E5D3591E 		.ascii	"\345\323Y\036\245\366\206\0224\313\245\260}\243\201"
 836      A5F68612 
 836      34CBA5B0 
 836      7DA381
 837 1eac 042FC6BE 		.ascii	"\004/\306\276\253\251Q|\034\207@\337\036\221\204q?3"
 837      ABA9517C 
 837      1C8740DF 
ARM GAS  /tmp/ccHHzA80.s 			page 67


 837      1E918471 
 837      3F33
 838 1ebe F73570C6 		.ascii	"\3675p\306i.>\260\315\224)/\262j\266\242bd\013'\335"
 838      692E3EB0 
 838      CD94292F 
 838      B26AB6A2 
 838      62640B27 
 839 1ed3 302058E4 		.ascii	"0 X\344R\250\374LK\345\253\242c\252\223\266\210\361"
 839      52A8FC4C 
 839      4BE5ABA2 
 839      63AA93B6 
 839      88F1
 840 1ee5 75072F6C 		.ascii	"u\007/lsU\312\333F\310\015\015\177\323\033\000\213\355"
 840      7355CADB 
 840      46C80D0D 
 840      7FD31B00 
 840      8BED
 841 1ef7 08BBF5FA 		.ascii	"\010\273\365\372v\236\335\002\245\274*\241\334\363\256"
 841      769EDD02 
 841      A5BC2AA1 
 841      DCF3AE
 842 1f06 C856DEAA 		.ascii	"\310V\336\252}j\003=\305\323Kf\017\216\350X\306\211"
 842      7D6A033D 
 842      C5D34B66 
 842      0F8EE858 
 842      C689
 843 1f18 13ABBA46 		.ascii	"\023\253\272F\226E\367!\306\031\035FP\354\252\233T\352"
 843      9645F721 
 843      C6191D46 
 843      50ECAA9B 
 843      54EA
 844 1f2a AAFF3B95 		.ascii	"\252\377;\225z\207<\336\213\351\222p\357g\332%\014&"
 844      7A873CDE 
 844      8BE99270 
 844      EF67DA25 
 844      0C26
 845 1f3c 5F37B359 		.ascii	"_7\263Y\271\256\211\301X\255\367\347\311O\352Z\331\210"
 845      B9AE89C1 
 845      58ADF7E7 
 845      C94FEA5A 
 845      D988
 846 1f4e B65A0AD5 		.ascii	"\266Z\012\325\207\016%\011mZ\\h\325\025\007'\211\023"
 846      870E2509 
 846      6D5A5C68 
 846      D5150727 
 846      8913
 847 1f60 86CF357A 		.ascii	"\206\3175zu\204\177\261i\365W\204O\307\274d\265i\254"
 847      75847FB1 
 847      69F55784 
 847      4FC7BC64 
 847      B569AC
 848 1f73 8E0ACED5 		.ascii	"\216\012\316\325\246\223^\335j\323\2611\270\332D\322"
 848      A6935EDD 
 848      6AD3B131 
 848      B8DA44D2 
 849 1f83 53AF36BD 		.ascii	"S\2576\275\3376y\265if[\303\325\246%m\015\377\022wu"
 849      DF3679B5 
ARM GAS  /tmp/ccHHzA80.s 			page 68


 849      69665BC3 
 849      D5A6256D 
 849      0DFF1277 
 850 1f98 5BC3BFC4 		.ascii	"[\303\277\304\215\265\325\376"
 850      8DB5D5FE 
 851 1fa0 25AE925C 		.ascii	"%\256\222\\\223Hf\377\016\374p\"\231\375;\360o\023\311"
 851      934866FF 
 851      0EFC7022 
 851      99FD3BF0 
 851      6F13C9
 852 1fb3 ECDF81DF 		.ascii	"\354\337\201\337H${\231\344\273\211d\037\223<\306\037"
 852      48247B99 
 852      E4BB8964 
 852      1F933CC6 
 852      1F
 853 1fc4 4F6EC224 		.ascii	"On\302$\317N$\2471\311+\022\311\351L\362\226DrS&yo\""
 853      CF4E24A7 
 853      31C92B12 
 853      C9E94CF2 
 853      96447253 
 854 1fdc B919937C 		.ascii	"\271\031\223|&\221\334\234I\276\234Hn\301$\177\237H"
 854      2691DC9C 
 854      49BE9C48 
 854      6EC1247F 
 854      9F48
 855 1fee 6EC9248F 		.ascii	"n\311$\217z:\236\334\212\245;\221\374\230\"Krk"
 855      7A3A9EDC 
 855      8AA53B91 
 855      FC98224B 
 855      726B
 856 2000 B9E897D0 		.ascii	"\271\350\227\320\021\030:c\2038\3555^\364336G\365\306"
 856      11183A63 
 856      8338ED35 
 856      5EF43333 
 856      3647F5C6 
 857 2014 6611DBB9 		.ascii	"f\021\333\271\235\027\265\235\333<\321\310\035^\375"
 857      9D17B59D 
 857      DB3CD1C8 
 857      1D5EFD
 858 2023 B471331B 		.ascii	"\264q3\033\355K\366\023\306\307j\277\002\257h\236\241"
 858      ED4BF613 
 858      C6C76ABF 
 858      02AF689E 
 858      A1
 859 2034 5744DA8B 		.ascii	"WD\332\213\031\241c|\006\204\352\010\331hB\310{\206"
 859      19A1637C 
 859      0684EA08 
 859      D96842C8 
 859      7B86
 860 2046 84CCDEFB 		.ascii	"\204\314\336\373\256,\032\216?\254\350\030\247\247\203"
 860      AE2C1A8E 
 860      3FACE818 
 860      A7A783
 861 2055 BCBA6293 		.ascii	"\274\272b\223a\333L\350\234dDg\335\203\003\013\314\030"
 861      61DB4CE8 
 861      9C644467 
 861      DD83030B 
ARM GAS  /tmp/ccHHzA80.s 			page 69


 861      CC18
 862 2067 46CA361D 		.ascii	"F\3126\035(\351\011\275\"&1l\217\011!S\015\011\331\260"
 862      28E909BD 
 862      2226316C 
 862      8F092153 
 862      0D09D9B0 
 863 207b E3B0C3AC 		.ascii	"\343\260\303\254?\263bY\245\221\350\34275\206,:dB\331"
 863      3FB36259 
 863      A591E8E2 
 863      3735862C 
 863      3A6442D9 
 864 208f 4C43511E 		.ascii	"LCQ\036\376\2521\242\234mIWgV\222\374\273S\026\216}"
 864      FEAA31A2 
 864      9C6D4957 
 864      675692FC 
 864      BB53168E 
 865 20a4 8258E9F9 		.ascii	"\202X\351\371>bMO=\255\357\"\355\277\326\235 B7\274"
 865      3E624D4F 
 865      3DADEF22 
 865      EDBFD69D 
 865      204237BC 
 866 20b8 25459855 		.ascii	"%E\230Um\221\317bV\361\234\011o\027\033J}\306\242\313"
 866      6D91CF62 
 866      56F19C09 
 866      6F171B4A 
 866      7DC6A2CB 
 867 20cc 2F4E5B25 		.ascii	"/N[%\217\300\303\011\364G\023X\254\213~\250\347\356"
 867      8FC0C309 
 867      F4471358 
 867      AC8B7EA8 
 867      E7EE
 868 20de 2D3CF15E 		.ascii	"-<\361^C\311e\023J\226i)yF\230'\313\007\352\036\336"
 868      43C96513 
 868      4A966929 
 868      79469827 
 868      CB07EA1E 
 869 20f3 5EDA8EAC 		.ascii	"^\332\216\254>\310\304\375\023EuN\361\2078\210\031)"
 869      3EC8C4FD 
 869      1345754E 
 869      F1873888 
 869      1929
 870 2105 1F25E01A 		.ascii	"\037%\340\032\271\310\273B[\231ta\014+\211\256\346k"
 870      B9C8BB42 
 870      5B997461 
 870      0C2B89AE 
 870      E66B
 871 2117 BC55BE74 		.ascii	"\274U\276tA\3671{\364\343\204\314t\222&>\233Y\256U\246"
 871      41F7317B 
 871      F4E384CC 
 871      7492263E 
 871      9B59AE55 
 872 212c B9881F69 		.ascii	"\271\210\037i\226k\265I.~\216\254M\262\203PS\256\375"
 872      966BB549 
 872      2E7E8EAC 
 872      4DB28350 
 872      53AEFD
 873 213f 936B4C29 		.ascii	"\223kL)>jA\361z\323\\D\013\314rm0\315EN\3160\313Um\232"
ARM GAS  /tmp/ccHHzA80.s 			page 70


 873      3E6A41F1 
 873      7AD35C44 
 873      0BCC726D 
 873      30CD454E 
 874 2159 8BF44266 		.ascii	"\213\364Bf\2716\232\346\232b\221k\223i\256q\026\271"
 874      B9369AE6 
 874      9A62916B 
 874      9369AE71 
 874      16B9
 875 216b 3E31C9A5 		.ascii	">1\311\245\254\230\326\271\246iOsI\362.\267\370\350"
 875      AC98D6B9 
 875      A6694F73 
 875      49F22EB7 
 875      F8E8
 876 217d 82A9E60F 		.ascii	"\202\251\346\0175\360\011\263\"?\365\371\342bM\367\261"
 876      35F009B3 
 876      223FF5F9 
 876      E2624DF7 
 876      B1
 877 218e 17D6E2DE 		.ascii	"\027\326\342\336lZA\362\312\261Y\256\230i\256J\013\266"
 877      6C5A41F2 
 877      CAB159AE 
 877      9869AE4A 
 877      0BB6
 878 21a0 6C35CDB5 		.ascii	"l5\315\265\314B\265\266\231\346\232mQ\326g\246\271\016"
 878      CC42B5B6 
 878      99E69A6D 
 878      51D667A6 
 878      B90E
 879 21b2 58D46B7B 		.ascii	"X\324k{\"\227\321j~S\365\371\203\211\301D]\365\371="
 879      2297D16A 
 879      7E53F5F9 
 879      8389C144 
 879      5DF5F93D 
 880 21c6 4F6EC2C1 		.ascii	"On\302\301\333\347>2r\272\377\264\341\340\315\002H\022"
 880      DBE73E32 
 880      72BAFFB4 
 880      E1E0CD02 
 880      4812
 881 21d8 DE7E86E4 		.ascii	"\336~\206\344\331\3453>\377\204\244[\214)\224}\034S"
 881      D9E5333E 
 881      FF84A45B 
 881      8C29947D 
 881      1C53
 882 21ea 774C51F6 		.ascii	"wLQ\366q\260S\361$\257Qm5\352\241<\300\342\311\261\312"
 882      71B053F1 
 882      24AF516D 
 882      35EAA13C 
 882      C0E2C9B1 
 883 21ff 1DE37033 		.ascii	"\035\343p3\225\272\314Ox7\235Y^OW1b\252\326~i[k\277"
 883      95BACC4F 
 883      78379D59 
 883      5E4F5731 
 883      62AAD67E 
 884 2217 32D15AF5 		.ascii	"2\321Z\365\337X$aR\2343\306\345\032\325\303\257\251"
 884      DF582461 
 884      529C33C6 
ARM GAS  /tmp/ccHHzA80.s 			page 71


 884      E51AD5C3 
 884      AFA9
 885 2229 C78C8AF7 		.ascii	"\307\214\212\367Dr\236\232R\217\271/\221\306\307,0\275"
 885      44729E9A 
 885      528FB92F 
 885      91C6C72C 
 885      30BD
 886 223b A4627815 		.ascii	"\244bx\025\242\366\373Z\352\310\003:\246\351\351\320"
 886      A2F6FB5A 
 886      EAC8033A 
 886      A6E9E9D0 
 887 224b 64D372C2 		.ascii	"d\323r\302\200\214a\261\231;\360\015c:1\363\201\036"
 887      808C61B1 
 887      993BF00D 
 887      633A31F3 
 887      811E
 888 225d CD688BDF 		.ascii	"\315h\213\337.\013\2649\025\3434\247\037.\323\003\032"
 888      2E0BB439 
 888      15E334A7 
 888      1F2ED303 
 888      1A
 889 226e 2EAC6A00 		.ascii	".\254j\000->\254*\006\305=>2t\251\361\221E\323/0\336"
 889      2D3EAC2A 
 889      06C53D3E 
 889      3274A9F1 
 889      9145D32F 
 890 2284 87712DC6 		.ascii	"\207q-\306\207|\314 _\327\324>7\241\207\224p\304\264"
 890      877CCC20 
 890      5FD7D43E 
 890      37A18794 
 890      70C4B4
 891 2297 817E68D1 		.ascii	"\201~h\321\254\2172\236\323\013\031\003\312JB\031\371"
 891      AC8F329E 
 891      D30B1903 
 891      CA4A4219 
 891      F9
 892 22a8 65056F65 		.ascii	"e\005oe\024\204\006e\344\017(\352WT\026\311\210\206"
 892      14840665 
 892      E40F28EA 
 892      575416C9 
 892      8886
 893 22ba 0796BE91 		.ascii	"\007\226\276\221\001\027\241!\321\214\302`\2640\222"
 893      0117A121 
 893      D18CC260 
 893      B43092
 894 22c9 1109E767 		.ascii	"\021\011\347g\024\225FC\375C\341v\003\004g\227\327\362"
 894      14954643 
 894      FD43E176 
 894      03046797 
 894      D7F2
 895 22db B2DDDD7A 		.ascii	"\262\335\335z\277\342\317\024\234\371\003\202\341\347"
 895      BFE2CF14 
 895      9CF90382 
 895      E1E7
 896 22e9 ED211516 		.ascii	"\355!\025\026\002\210\253k\347\274\256\271\236\302H"
 896      0288AB6B 
 896      E7BCAEB9 
ARM GAS  /tmp/ccHHzA80.s 			page 72


 896      9EC248
 897 22f8 20FA5679 		.ascii	" \372Vy\310Q\020\036\344\312\217\024\375\357\220\273"
 897      C851101E 
 897      E4CA8F14 
 897      FDEF90BB 
 898 2308 34004F46 		.ascii	"4\000OF\\\203\013\213\203\375\275\205\221\242\000\271"
 898      5C830B8B 
 898      83FDBD85 
 898      91A200B9 
 899 2318 70BEDA27 		.ascii	"p\276\332''K**\360\225\006\302ee\321\202\242\260+\213"
 899      274B2A2A 
 899      F09506C2 
 899      6565D182 
 899      A2B02B8B 
 900 232c 2435290E 		.ascii	"$5)\016F\242\201\374\342\201\221h\223\302p(D/\275\210"
 900      46A281FC 
 900      E2819168 
 900      93C27028 
 900      442FBD88 
 901 2340 112A8DBA 		.ascii	"\021*\215\272\012\011\244gPYq\277`$\344\201D\374\206"
 901      0A09A467 
 901      505971BF 
 901      6024E481 
 901      44FC86
 902 2353 ECE4DB5B 		.ascii	"\354\344\333[\020\214\0061apQi$\224\037u\300\267+/\263"
 902      108C0631 
 902      61705169 
 902      24941F75 
 902      C0B72B2F 
 903 2368 7BE79C66 		.ascii	"{\347\234f\221\202\222\022\240\247\244\2748\004\304"
 903      91829212 
 903      A0A7A4BC 
 903      3804C4
 904 2377 7AF03610 		.ascii	"z\3606\020u\341\367oSUw@\260\030\330\005\244\024\204"
 904      75E1F76F 
 904      53557740 
 904      B018D805 
 904      A41484
 905 238a 3248BE48 		.ascii	"2H\276Hy\021\200\370z\365\312\314\012\027\015\012\205"
 905      791180F8 
 905      7AF5CACC 
 905      0A170D0A 
 905      85
 906 239b D3E3577F 		.ascii	"\323\343W\177\351\225\347\012t)++N+\212\004\010\021"
 906      E995E70A 
 906      74292B2B 
 906      4E2B8A04 
 906      0811
 907 23ad E168A820 		.ascii	"\341h\250 \035\256\313\303eQ\240(T\340\311/+-\205\253"
 907      1DAECBC3 
 907      6551A028 
 907      54E0C92F 
 907      2B2D85AB 
 908 23c1 26054511 		.ascii	"&\005E\021\345\362\331\214\201\221pF0\\\362\353\322"
 908      E5F2D98C 
 908      81917046 
 908      305CF2EB 
ARM GAS  /tmp/ccHHzA80.s 			page 73


 908      D2
 909 23d2 B2D2D0AF 		.ascii	"\262\322\320\257C\301~E\361\342\"\300\233\322(\224\346"
 909      43C17E45 
 909      F1E222C0 
 909      9BD22894 
 909      E6
 910 23e3 1D08DFCF 		.ascii	"\035\010\337\317w\014D;Y<]\022\004\332KC\031\201\202"
 910      770C443B 
 910      593C5D12 
 910      04DA4B43 
 910      198182
 911 23f6 50617060 		.ascii	"Pap`q\024e\021\201\334M\002\0015\277\207\\\274\020\210"
 911      71146511 
 911      81DC4D02 
 911      0135BF87 
 911      5CBC1088 
 912 240a FA68125C 		.ascii	"\372h\022\\9\303\241`\201kp\270(\032rF\336*\315\377"
 912      39C3A160 
 912      816B70B8 
 912      281A7246 
 912      DE2ACDFF 
 913 241e 831D7EC0 		.ascii	"\203\035~\300u\240\250\254_qY\376\033PN\363.\344\"+"
 913      75A0A8AC 
 913      5F7159FE 
 913      1B504EF3 
 913      2EE4222B 
 914 2432 34A8283F 		.ascii	"4\250(?\324\243\264\260\314\333\257\370\215\000\312"
 914      D4A3B4B0 
 914      CCDBAFF8 
 914      8D00CA
 915 2441 8C5C940E 		.ascii	"\214\\\224\016,\361\366\017E\2011\205e\216A%\321&\220"
 915      2CF1F60F 
 915      45813185 
 915      658E4125 
 915      D12690
 916 2454 18898264 		.ascii	"\030\211\202d\003\321&]z\276\034x\245w\217\336=\362"
 916      03D1265D 
 916      7ABE1C78 
 916      A5778FDE 
 916      3DF2
 917 2466 BCE43237 		.ascii	"\274\34427\257O_L\353\234\231\327\343/\331\315\310e"
 917      AF4F5F4C 
 917      EB9C99D7 
 917      E32FD9CD 
 917      C865
 918 2478 669FDEBD 		.ascii	"f\237\336\275\263\341\266w\267\226\3446\253Gn\"\305"
 918      B3E1B677 
 918      B796E436 
 918      AB476E22 
 918      C5
 919 2489 475272B2 		.ascii	"GRr\262;g\275\226\246^A*^\277\232\323#O\275\316}\255"
 919      3B67BD96 
 919      A65E412A 
 919      5EBF9AD3 
 919      234FBDCE 
 920 249f 77265CBB 		.ascii	"w&\\\273\260TG~Q\201#?R\340\315\017\226\007\363\213"
 920      B054477E 
ARM GAS  /tmp/ccHHzA80.s 			page 74


 920      5181233F 
 920      52E0CD0F 
 920      9607F38B 
 921 24b3 A26F65F1 		.ascii	"\242oe\361T\274\274,\034\215d\344\346\365z\276cF\317"
 921      54BCBC2C 
 921      1C8D64E4 
 921      E6F57ABE 
 921      6346CF
 922 24c6 9E5919B9 		.ascii	"\236Y\031\271}{\014\352\220\001*\021(.. j\001\011T\031"
 922      7D7B0CEA 
 922      90012A11 
 922      282E2E20 
 922      6A010954 
 923 24db 3ADAE123 		.ascii	":\332\341#\325\251&\360\245r\004pT\216\220K\302\021"
 923      D5A926F0 
 923      A5720470 
 923      548E904B 
 923      C211
 924 24ed 824D6B89 		.ascii	"\202Mk\211\277R\336\244\223\313\314>\275\372\366\314"
 924      BF52DEA4 
 924      93CBCC3E 
 924      BDFAF6CC 
 925 24fd CECB6E0A 		.ascii	"\316\313n\012\000\371\301bh\037\371o\004\242\356PiA"
 925      00F9C162 
 925      681FF96F 
 925      04A2EE50 
 925      6941
 926 250f 20BF5F76 		.ascii	" \277_vc\352\325\255o\217>\203:f\224\203|i\305\322#"
 926      63EAD5AD 
 926      6F8F3E83 
 926      3A669483 
 926      7C69C5D2 
 927 2524 D11250A0 		.ascii	"\321\022P\240\376\345Ee\320rz\365\311\312\316q\367\311"
 927      FEE54565 
 927      D0727AF5 
 927      C9CACE71 
 927      F7C9
 928 2536 7BAD6F76 		.ascii	"{\255ov\216\247On\337\354\354\254\034W\337W\372f\345"
 928      8EA74F6E 
 928      DFECECAC 
 928      1C57DF57 
 928      FA66E5
 929 2549 387A40E8 		.ascii	"8z@\350\223\225#\276\212:\333\341\267P\027\252k\344"
 929      939523BE 
 929      8A3ADBE1 
 929      B75017AA 
 929      6BE4
 930 255b D2110945 		.ascii	"\322\021\011E]\371\305\241`X\354\356\354\222\233\223"
 930      5DF9C5A1 
 930      6058ECEE 
 930      EC929B93 
 931 256b E3EC99F9 		.ascii	"\343\354\231\371r\216\263s\327\234\236$\352\356\350"
 931      728EB373 
 931      D79C9E24 
 931      EAEEE8
 932 257a 9293D3A4 		.ascii	"\222\223\323\244\250\214PST\0005\210D\310\245\013\276"
 932      A88C5053 
ARM GAS  /tmp/ccHHzA80.s 			page 75


 932      54003588 
 932      44C8A50B 
 932      BE
 933 258b 8220AC70 		.ascii	"\202 \254p\007\302\202\314\262\322\302\242\376\356|"
 933      07C282CC 
 933      B2D2C2A2 
 933      FEEE7C
 934 259a FC4A69F6 		.ascii	"\374Ji\366\302\3218\223\363\007D\336\212\250m\302\033"
 934      C2D13893 
 934      F30744DE 
 934      8AA86DC2 
 934      1B
 935 25ab 1D40141F 		.ascii	"\035@\024\037ZB\376\200\000\275\356d\017+\177\000\341"
 935      5A42FE80 
 935      00BDEE64 
 935      0F2B7F00 
 935      E1
 936 25bc 8BBB3C50 		.ascii	"\213\273<P\012\006\021\276\312\303\241A\3359 (\253;"
 936      0A0611BE 
 936      CAC3A141 
 936      DD392028 
 936      AB3B
 937 25ce E7F4CAEC 		.ascii	"\347\364\312\3545\004\236,)/*\016\205#\031\33523\341"
 937      35049E2C 
 937      292F2A0E 
 937      852319DD 
 937      3233E1
 938 25e1 71953C4F 		.ascii	"q\225<O\264<L8\215\270Ee\304nD\241\230\337\333\306\037"
 938      B43C4C38 
 938      8DB84565 
 938      C46E44A1 
 938      98DFDBC6 
 939 25f6 905F1626 		.ascii	"\220_\026&F/\215$C\333\213\346G\207\374[\343P\002\203"
 939      462F8D24 
 939      43DB8BE6 
 939      4787FC5B 
 939      E3500283 
 940 260a 7E574238 		.ascii	"~WB8\027\016\365\007\003D\204\331\341\267\020~\007\341"
 940      170EF507 
 940      034484D9 
 940      E1B7107E 
 940      07E1
 941 261c 0508BF77 		.ascii	"\005\010\277wD:\266\207\320\001BG\010\317C\350\004\341"
 941      443AB687 
 941      D0014247 
 941      08CF43E8 
 941      04E1
 942 262e 3710E0B9 		.ascii	"7\020\340\271\216\360\\Gx\256#<\367<<\367|\007)\334"
 942      8EF05C47 
 942      78AE233C 
 942      F73C3CF7 
 942      7C0729DC 
 943 2642 490AFF46 		.ascii	"I\012\377F\012\377V\012\377N\012\277 \205\177\357\010"
 943      0AFF560A 
 943      FF4E0ABF 
 943      20857FEF 
 943      08
ARM GAS  /tmp/ccHHzA80.s 			page 76


 944 2653 77680FA1 		.ascii	"wh\017\241\203T\034\206\257\347]\345\001\240\326C8<"
 944      83541C86 
 944      AFE75DE5 
 944      01A0D643 
 944      383C
 945 2665 381486EF 		.ascii	"8\024\206\357\262\342\202P\230p<X\022\362F\225\246\002"
 945      B2E28250 
 945      98703C58 
 945      12F24695 
 945      A602
 946 2677 E978E589 		.ascii	"\351x\345\211\226\224\025\320{\322\311D<\321p\210tH"
 946      969415D0 
 946      7BD2C944 
 946      3CD17088 
 946      7448
 947 2689 F03CB970 		.ascii	"\360<\271p\225D\372\303\217\212\035\004\373\247\\\271"
 947      9544FAC3 
 947      8F8A1D04 
 947      FBA75CB9 
 948 2699 C3056FC1 		.ascii	"\303\005o\301O\336\320\220\242(p$\344\036\034-\353\367"
 948      4FDED090 
 948      A2287024 
 948      E41E1C2D 
 948      EBF7
 949 26ab DFE569A1 		.ascii	"\337\345i\241A\320\345\224\004#\330\220\006\223\013"
 949      41D0E594 
 949      0423D890 
 949      06930B
 950 26ba 47796060 		.ascii	"Gy``3\252*\221@1\264\324@\264y\\yh\212\257<08X\024-"
 950      33AA2A91 
 950      4031B4D4 
 950      40B4795C 
 950      79688AAF 
 951 26d4 2AEDDF5C 		.ascii	"*\355\337\\M~s`h P\325\202y\022\223\232\224\007\240"
 951      4D7E7360 
 951      682050D5 
 951      82791293 
 951      9A9407A0 
 952 26e8 58BC74E1 		.ascii	"X\274t\341%$\204\312\241\311BfW\311@\220v\312\216X\243"
 952      252484CA 
 952      A1C94266 
 952      57C94090 
 952      76CA8E58 
 953 26fd 8F25D121 		.ascii	"\217%\321!DoJ(:|\227\015.\005\246!\022T\241\004\325"
 953      446F4A28 
 953      3A7C970D 
 953      2E05A621 
 953      1254A104 
 954 2712 14E883E7 		.ascii	"\024\350\203\347\010\245M\010W\202\305\250\\\220X\016"
 954      08A54D08 
 954      5782C5A8 
 954      5C90580E 
 955 2722 BDD6EF6C 		.ascii	"\275\326\357l\225\247T\006\312l\2454%\340r(\034*\315"
 955      95A75406 
 955      CA6CA534 
 955      25E07228 
 955      1C2ACD
ARM GAS  /tmp/ccHHzA80.s 			page 77


 956 2735 87DABA69 		.ascii	"\207\332\272i\322\037y\\\211\314^\271=r\301\364d\240"
 956      D21F795C 
 956      89CC5EB9 
 956      3D72C1F4 
 956      64A0
 957 2747 8529ECD4 		.ascii	"\205)\354\324\276\303\020TXb\330\362\2409d\205\012\035"
 957      BEC31054 
 957      5862D8F2 
 957      A0396485 
 957      0A1D
 958 2759 99391D20 		.ascii	"\2319\035 t\224rs$04\2319\231}s\3349\177\205\357\034"
 958      74947273 
 958      24303499 
 958      39997D73 
 958      DC397F85 
 959 276f 771E7E79 		.ascii	"w\036~yzt\314\315\354\332-\307\005\337}s\034`\007\273"
 959      7A74CCCD 
 959      ECDA2DC7 
 959      05DF7D73 
 959      1C6007BB 
 960 2783 DA357B18 		.ascii	"\3325{\030w\3554d\010%$PP\022$\225\313\352\3259\220"
 960      77ED3464 
 960      08252450 
 960      50122495 
 960      CBEAD539 
 961 2798 0BAA142C 		.ascii	"\013\252\024,Q\251\2212s\234\275\263\362r\034};\347"
 961      51A99132 
 961      739CBDB3 
 961      F2721C7D 
 961      3BE7
 962 27aa 387BB527 		.ascii	"8{\265'Q\207\3169\216\256@L\004\037t\026\025\346\207"
 962      5187CE39 
 962      8EAE404C 
 962      041F7416 
 962      15E687
 963 27bd DD459101 		.ascii	"\335E\221\001E\205Q_$T\\XTZ\020\032\342\036\004"
 963      4585515F 
 963      24545C58 
 963      545A101A 
 963      E21E04
 964 27d0 BD7D59B8 		.ascii	"\275}Y\270U\034=@\237\006s\0127\341!$\216\016\361\205"
 964      551C3D40 
 964      9F06730A 
 964      37E12124 
 964      8E0EF185 
 965 27e4 87C037D1 		.ascii	"\207\3007\321d_T\275rBu\312]\305\221\374\302\376\256"
 965      645F54BD 
 965      724275CA 
 965      5DC591FC 
 965      C2FEAE
 966 27f7 012426CE 		.ascii	"\001$&\316\0075\203\315\261\357\015\004\013\012\302"
 966      073583CD 
 966      B1EF0D04 
 966      0B0AC2
 967 2806 A1482414 		.ascii	"\241H$\024q\202\207R@\236/\360\024\202]\001\203\347"
 967      71828752 
 967      409E2FF0 
ARM GAS  /tmp/ccHHzA80.s 			page 78


 967      14825D01 
 967      83E7
 968 2818 85941C90 		.ascii	"\205\224\034\220\305[\340\235\341wS\342(\025\227\365"
 968      C55BE09D 
 968      E17753E2 
 968      281597F5 
 969 2828 A7EE5F7A 		.ascii	"\247\356_z\342\016,u\342\306\021)\310\367\300e\337`"
 969      E20E2C75 
 969      E2C61129 
 969      C8F7C065 
 969      DF60
 970 283a 74407A01 		.ascii	"t@z\001\351\321z\225\015\004\033T\340.E\340\224\312"
 970      E9D17A95 
 970      0D041B54 
 970      E02E45E0 
 970      94CA
 971 284c 392808AA 		.ascii	"9(\010\25250\002?\200\216\225F\211\227hO\301(w\210\202"
 971      3530023F 
 971      808E9546 
 971      8997684F 
 971      C1287788 
 972 2861 3DDE05DC 		.ascii	"=\336\005\334\272\334\020(vi\264(XL\245\361\204Q\"x"
 972      BADC1028 
 972      7669B428 
 972      584CA5F1 
 972      84512278 
 973 2875 601DD143 		.ascii	"`\035\321C*.\352\227\321??_\347)uj\367B\273N\254w\005"
 973      2A2EEA97 
 973      D13F3F5F 
 973      E729756A 
 973      F742BB4E 
 974 288c 9E12B1E1 		.ascii	"\236\022\261\341\304G\001{V>0\352\000\017\305\253\222"
 974      C447017B 
 974      563E30EA 
 974      000FC5AB 
 974      92
 975 289d EC800B47 		.ascii	"\354\200\013GaI\224\345X\276\340\246~\223\027-\010q"
 975      614994E5 
 975      58BEE0A6 
 975      7E93172D 
 975      0871
 976 28af A5E017C2 		.ascii	"\245\340\027\302\0220.\312\225\223\330'\267\302\307"
 976      12302ECA 
 976      9593D827 
 976      B7C2C7
 977 28be AE3D7A4A 		.ascii	"\256=zJ\205\021'1I\216P8\354,,\217\206\335\021\364l"
 977      85112731 
 977      498E5038 
 977      EC2C2C8F 
 977      86DD11F4 
 978 28d3 5D342E20 		.ascii	"]4. \336\252\027\334\330\000\271 \376l\000\236q\364"
 978      DEAA17DC 
 978      D800B920 
 978      FE6C009E 
 978      71F4
 979 28e5 1B58E824 		.ascii	"\033X\350$h\236\301\341L\302zg\031X\207\226J\021\275"
 979      689EC1E1 
ARM GAS  /tmp/ccHHzA80.s 			page 79


 979      4CC27A67 
 979      19588796 
 979      4A11BD
 980 28f8 4383DB95 		.ascii	"C\203\333\225\007\303\321v\355\035\220\342*$%>\246\374"
 980      07C3D176 
 980      ED1D90E2 
 980      2A24253E 
 980      A6FC
 981 290a F62AF1E5 		.ascii	"\366*\361\345\350\257\035~c\313\013\011\205\201\223"
 981      E8AF1D7E 
 981      63CB0B09 
 981      858193
 982 2919 442972F1 		.ascii	"D)r\361\212:2\315\331\033`\260\217\364\242E%P_'0,\352"
 982      8A3A32CD 
 982      D91B60B0 
 982      8FF4A245 
 982      25505F27 
 983 2930 048E45DD 		.ascii	"\004\216E\335\350?F]\244\321GSz\324\0321\243\235%Rn"
 983      E83F465D 
 983      A4D14753 
 983      7AD41A31 
 983      A39D2552 
 984 2945 86578148 		.ascii	"\206W\201H\331\30001!\351\354m\013zC\014W\250\224hj"
 984      D9C03031 
 984      21E9EC6D 
 984      0B7A430C 
 984      57A89468 
 985 295a 336D8227 		.ascii	"3m\202'T\214\366-\015\276\3254\037\\Sp\012\205\235\002"
 985      548CF62D 
 985      0DBED534 
 985      1F5C5370 
 985      0A859D02 
 986 296e C80D92F1 		.ascii	"\310\015\222\361\222\374>\230\366\024\241\010\346v\341"
 986      92FC3E98 
 986      F614A108 
 986      E676E1
 987 297d 73BE4881 		.ascii	"s\276H\201\322\263\370r\263\024\037\314\003W\304\005"
 987      D2B3F872 
 987      B3141FCC 
 987      0357C405 
 988 298d F3C2377A 		.ascii	"\363\3027z`\366\352\210&\231\324\261iQ)\360L\355\023"
 988      60F6EA88 
 988      2699D4B1 
 988      695129F0 
 988      4CED13
 989 29a0 C0D3512F 		.ascii	"\300\323Q/\275\352\245\357M\265\007\201\253|lra\357"
 989      BDEAA5EF 
 989      4DB50781 
 989      AB7C6C72 
 989      61EF
 990 29b2 9B015006 		.ascii	"\233\001P\0060\256\2567\003\321\262r\017<\022\006\015"
 990      30AEAE37 
 990      03D1B272 
 990      0F3C1206 
 990      0D
 991 29c3 81EF7001 		.ascii	"\201\357p\001|\373\336,-\213\026\025\276\005(o\006\350"
 991      7CFBDE2C 
ARM GAS  /tmp/ccHHzA80.s 			page 80


 991      2D8B1615 
 991      BE05286F 
 991      06E8
 992 29d5 A5FB4D60 		.ascii	"\245\373M`C\351\033\356\"\304lV60\312\024\353.\303\013"
 992      43E91BEE 
 992      22C46C56 
 992      3630CA14 
 992      EB2EC30B 
 993 29e9 A9A89F54 		.ascii	"\251\250\237T\326\257\351+\271\235s\362\030C\373\274"
 993      D6AFE92B 
 993      B99D73F2 
 993      1843FBBC 
 994 29f9 B35B5EDF 		.ascii	"\263[^\337\034\327\300\010\350\317\343D\361{\242\036"
 994      1CD7C008 
 994      E8CFE344 
 994      F17BA21E 
 995 2a09 F7282D22 		.ascii	"\367(-\"\315\014\032\212\024)p\024\364\353\337,\361"
 995      CD0C1A8A 
 995      14297014 
 995      F4EBDF2C 
 995      F1
 996 2a1a 5B2E10D5 		.ascii	"[.\020\325$\241\230i\312e.<\334\234\325\311\314\310"
 996      24A19869 
 996      CA652E3C 
 996      DC9CD5C9 
 996      CCC8
 997 2a2c 20177C95 		.ascii	" \027|\225D\300(\202z\006\301\032\272K1AU\353n\241\350"
 997      44C02882 
 997      7A06C11A 
 997      BA4B3141 
 997      55EB6EA1 
 998 2a41 AB54DBD3 		.ascii	"\253T\333\323\225\224\314\342\262HH\375\271\017\264"
 998      9594CCE2 
 998      B24848FD 
 998      B90FB4
 999 2a50 80CEE5A4 		.ascii	"\200\316\345\244\223Lgq\335\305\241\322\376\321\001"
 999      934C6771 
 999      DDC5A1D2 
 999      FED101
 1000 2a5f 3ED240F0 		.ascii	">\322@\360\371\026\211\006\233\207\035\221#\030\356"
 1000      F9168906 
 1000      9B871D91 
 1000      2318EE
 1001 2a6e 6FCB30C0 		.ascii	"o\3130\300\363\2447\035\024Duj\026\010\364/\035\230"
 1001      F3A4371D 
 1001      1444756A 
 1001      1608F42F 
 1001      1D98
 1002 2a80 1F506ED3 		.ascii	"\037Pn\323\376\324o`Qq\364\327E\245\177\026\300\221"
 1002      FED46F60 
 1002      5171F4D7 
 1002      45A57F16 
 1002      C091
 1003 2a92 5052C191 		.ascii	"PR\301\221\034D\355\206\247kNv\356+=\363\\]s\002}^N"
 1003      1C44ED86 
 1003      A76B4E76 
 1003      EE2B3DF3 
ARM GAS  /tmp/ccHHzA80.s 			page 81


 1003      5C5D7302 
 1004 2aa9 8318462B 		.ascii	"\203\030F+/\007\262\301\267\205\353\036\275\363\310"
 1004      2F07B2C1 
 1004      B785EB1E 
 1004      BDF3C8
 1005 2ab8 653A5CF6 		.ascii	"e:\\\366\356\223\2478\364x\023\000[\221\255\\\366\355"
 1005      EE93A738 
 1005      F4781300 
 1005      5B91AD5C 
 1005      F6ED
 1006 2aca 9CD7BD39 		.ascii	"\234\327\2759>\375\227\316={d\005zw\356\225\355#H\331"
 1006      3EFD97CE 
 1006      3D7B6405 
 1006      7A77EE95 
 1006      ED2348D9 
 1007 2ade BD7B6467 		.ascii	"\275{dgy\341*\373\257=r\363Z2\217\364\351\362\3570\034"
 1007      79E12AFB 
 1007      AF3D72F3 
 1007      5A328FF4 
 1007      E9F2EF30 
 1008 2af3 6A052964 		.ascii	"j\005)d\320\223\035\350\233\323'\017\022\262\263Z0\017"
 1008      D0931DE8 
 1008      9BD3270F 
 1008      12B2B35A 
 1008      300F
 1009 2b05 65E59001 		.ascii	"e\345\220\001\225Rvv\357\316]z\322\337\225\322s_\313"
 1009      95527676 
 1009      EFCE5D7A 
 1009      D2DF95D2 
 1009      735FCB
 1010 2b18 CDCBEE45 		.ascii	"\315\313\356E\012\356\365r\327\334@\347.}r\000\200\320"
 1010      0AEEF572 
 1010      D7DC40E7 
 1010      2E7D7200 
 1010      80D0
 1011 2b2a 94D7A357 		.ascii	"\224\327\243Wv\237W\362\010\015=\373d\276\234\235\325"
 1011      769F57F2 
 1011      080D3DFB 
 1011      64BE9C9D 
 1011      D5
 1012 2b3b 2A0ED2E7 		.ascii	"*\016\322\347\225n\335a\014\222\223\375S\362\\\237>"
 1012      956EDD61 
 1012      0C9293FD 
 1012      53F25C9F 
 1012      3E
 1013 2b4c 815E9D7B 		.ascii	"\201^\235{\277\026\350\3237\2737\305|\234)\037\372L"
 1013      BF16E8D3 
 1013      37BB37C5 
 1013      7C9C291F 
 1013      FA4C
 1014 2b5e A8491E8C 		.ascii	"\250I\036\214\036\012\003D^\236B\030\345\227\221\341"
 1014      1E0A0344 
 1014      5E9E4218 
 1014      E59791E1 
 1015 2b6e 7CA084C8 		.ascii	"|\240\204\310\275\011\016\312A\017\310tB\2408\022\012"
 1015      BD090ECA 
 1015      410FC874 
ARM GAS  /tmp/ccHHzA80.s 			page 82


 1015      42A03812 
 1015      0A
 1016 2b7f BDE17C05 		.ascii	"\275\341|\005X\0067hc\232\344\017\310\033P\220[\034"
 1016      58063768 
 1016      639AE40F 
 1016      C81B5090 
 1016      5B1C
 1017 2b91 0A95BBB2 		.ascii	"\012\225\273\262\262\273\274\322\015;\260<\305\231o"
 1017      B2BBBCD2 
 1017      0D3BB03C 
 1017      C5996F
 1018 2ba0 92B87182 		.ascii	"\222\270q\202\374#D+#\235\363\243`\272<\3202KI\263\212"
 1018      FC23442B 
 1018      239DF3A3 
 1018      60BA3CD0 
 1018      324B49B3 
 1019 2bb5 90BC7960 		.ascii	"\220\274y`\300\376\037\203\272\251\361"
 1019      C0FE1F83 
 1019      BAA9F1
 1020              		.text
 1021              		.section	.gnu.lto_.symtab.27aac27bcc8f3010,"",%progbits
 1022 0000 64617461 		.ascii	"dataLoggerInitialize\000\000\000\000\000\000\000\000"
 1022      4C6F6767 
 1022      6572496E 
 1022      69746961 
 1022      6C697A65 
 1023 001c 00000000 		.ascii	"\000\000\000\000W\003\000\000dataLoggerStop\000\000"
 1023      57030000 
 1023      64617461 
 1023      4C6F6767 
 1023      65725374 
 1024 0034 00000000 		.ascii	"\000\000\000\000\000\000\000\000\000\000\374\003\000"
 1024      00000000 
 1024      0000FC03 
 1024      00
 1025 0041 006C6F67 		.ascii	"\000logfileNew\000\000\000\000\000\000\000\000\000\000"
 1025      66696C65 
 1025      4E657700 
 1025      00000000 
 1025      00000000 
 1026 0056 00000204 		.ascii	"\000\000\002\004\000\000logfileSize\000\000\000\000"
 1026      00006C6F 
 1026      6766696C 
 1026      6553697A 
 1026      65000000 
 1027 006b 00000000 		.ascii	"\000\000\000\000\000\000\000\000\016\004\000\000log"
 1027      00000000 
 1027      0E040000 
 1027      6C6F67
 1028 007a 66696C65 		.ascii	"fileWriteCsv\000\000\000\000\000\000\000\000\000\000"
 1028      57726974 
 1028      65437376 
 1028      00000000 
 1028      00000000 
 1029 0090 00001404 		.ascii	"\000\000\024\004\000\000logfileGetWrCount\000\000\000"
 1029      00006C6F 
 1029      6766696C 
ARM GAS  /tmp/ccHHzA80.s 			page 83


 1029      65476574 
 1029      5772436F 
 1030 00aa 00000000 		.ascii	"\000\000\000\000\000\000\000\000\000$\004\000\000lo"
 1030      00000000 
 1030      00240400 
 1030      006C6F
 1031 00b9 6766696C 		.ascii	"gfileClose\000\000\000\000\000\000\000\000\000\000\000"
 1031      65436C6F 
 1031      73650000 
 1031      00000000 
 1031      00000000 
 1032 00ce 002A0400 		.ascii	"\000*\004\000\000logfileOpenAppend\000\000\000\000\000"
 1032      006C6F67 
 1032      66696C65 
 1032      4F70656E 
 1032      41707065 
 1033 00e9 00000000 		.ascii	"\000\000\000\000\000\000\0000\004\000\000logfileWri"
 1033      00000030 
 1033      0400006C 
 1033      6F676669 
 1033      6C655772 
 1034 00fe 74650000 		.ascii	"te\000\000\000\000\000\000\000\000\000\000\000\0004"
 1034      00000000 
 1034      00000000 
 1034      000034
 1035 010d 04000064 		.ascii	"\004\000\000dataloggerThread\000\000\000\000\000\000"
 1035      6174616C 
 1035      6F676765 
 1035      72546872 
 1035      65616400 
 1036 0126 00000000 		.ascii	"\000\000\000\000\000\000B\004\000\000chvprintf\000\000"
 1036      00004204 
 1036      00006368 
 1036      76707269 
 1036      6E746600 
 1037 013b 02000000 		.ascii	"\002\000\000\000\000\000\000\000\000\000H\004\000\000"
 1037      00000000 
 1037      00004804 
 1037      0000
 1038 0149 665F6F70 		.ascii	"f_open\000\000\002\000\000\000\000\000\000\000\000\000"
 1038      656E0000 
 1038      02000000 
 1038      00000000 
 1038      0000
 1039 015b 57040000 		.ascii	"W\004\000\000f_close\000\000\002\000\000\000\000\000"
 1039      665F636C 
 1039      6F736500 
 1039      00020000 
 1039      000000
 1040 016e 00000000 		.ascii	"\000\000\000\000\212\004\000\000f_mount\000\000\002"
 1040      8A040000 
 1040      665F6D6F 
 1040      756E7400 
 1040      0002
 1041 0180 00000000 		.ascii	"\000\000\000\000\000\000\000\000\000\216\004\000\000"
 1041      00000000 
 1041      008E0400 
ARM GAS  /tmp/ccHHzA80.s 			page 84


 1041      00
 1042 018d 73646D6D 		.ascii	"sdmmcGetFS\000\000\002\000\000\000\000\000\000\000\000"
 1042      63476574 
 1042      46530000 
 1042      02000000 
 1042      00000000 
 1043 01a2 00940400 		.ascii	"\000\224\004\000\000f_lseek\000\000\002\000\000\000"
 1043      00665F6C 
 1043      7365656B 
 1043      00000200 
 1043      0000
 1044 01b4 00000000 		.ascii	"\000\000\000\000\000\000\230\004\000\000f_write\000"
 1044      00009804 
 1044      0000665F 
 1044      77726974 
 1044      6500
 1045 01c6 00020000 		.ascii	"\000\002\000\000\000\000\000\000\000\000\000\235\004"
 1045      00000000 
 1045      0000009D 
 1045      04
 1046 01d3 00006368 		.ascii	"\000\000chThdSleep\000\000\002\000\000\000\000\000\000"
 1046      54686453 
 1046      6C656570 
 1046      00000200 
 1046      00000000 
 1047 01e8 000000A8 		.ascii	"\000\000\000\250\004\000\000"
 1047      040000
 1048              		.text
 1049              		.section	.gnu.lto_.opts,"",%progbits
 1050 0000 272D6D63 		.ascii	"'-mcpu=cortex-m4' '-mfloat-abi=hard' '-mfpu=fpv4-sp"
 1050      70753D63 
 1050      6F727465 
 1050      782D6D34 
 1050      2720272D 
 1051 0033 2D643136 		.ascii	"-d16' '-mno-thumb-interwork' '-mthumb' '-O2' '-fomi"
 1051      2720272D 
 1051      6D6E6F2D 
 1051      7468756D 
 1051      622D696E 
 1052 0066 742D6672 		.ascii	"t-frame-pointer' '-falign-functions=16' '-ffunction"
 1052      616D652D 
 1052      706F696E 
 1052      74657227 
 1052      20272D66 
 1053 0099 2D736563 		.ascii	"-sections' '-fdata-sections' '-fno-common' '-flto' "
 1053      74696F6E 
 1053      73272027 
 1053      2D666461 
 1053      74612D73 
 1054 00cc 272D6673 		.ascii	"'-fsingle-precision-constant'\000"
 1054      696E676C 
 1054      652D7072 
 1054      65636973 
 1054      696F6E2D 
 1055              		.text
 1056              		.section	.text.chprintf,"ax",%progbits
 1057              		.align	2
ARM GAS  /tmp/ccHHzA80.s 			page 85


 1058              		.p2align 4,,15
 1059              		.thumb
 1060              		.thumb_func
 1061              		.type	chprintf, %function
 1062              	chprintf:
 1063              		@ args = 4, pretend = 12, frame = 8
 1064              		@ frame_needed = 0, uses_anonymous_args = 1
 1065 0000 0EB4     		push	{r1, r2, r3}
 1066 0002 00B5     		push	{lr}
 1067 0004 82B0     		sub	sp, sp, #8
 1068 0006 03AA     		add	r2, sp, #12
 1069 0008 52F8041B 		ldr	r1, [r2], #4
 1070 000c 0192     		str	r2, [sp, #4]
 1071 000e FFF7FEFF 		bl	chvprintf
 1072 0012 02B0     		add	sp, sp, #8
 1073              		@ sp needed
 1074 0014 5DF804EB 		ldr	lr, [sp], #4
 1075 0018 03B0     		add	sp, sp, #12
 1076 001a 7047     		bx	lr
 1077              		.size	chprintf, .-chprintf
 1078 001c AFF30080 		.section	.text.dataLoggerInitialize,"ax",%progbits
 1079              		.align	2
 1080              		.p2align 4,,15
 1081              		.global	dataLoggerInitialize
 1082              		.thumb
 1083              		.thumb_func
 1084              		.type	dataLoggerInitialize, %function
 1085              	dataLoggerInitialize:
 1086              		@ args = 0, pretend = 0, frame = 0
 1087              		@ frame_needed = 0, uses_anonymous_args = 0
 1088 0000 70B5     		push	{r4, r5, r6, lr}
 1089 0002 0446     		mov	r4, r0
 1090 0004 0D46     		mov	r5, r1
 1091 0006 DAB1     		cbz	r2, .L6
 1092 0008 C0B1     		cbz	r0, .L3
 1093 000a 1249     		ldr	r1, .L11
 1094 000c 124E     		ldr	r6, .L11+4
 1095 000e 0260     		str	r2, [r0]
 1096 0010 1046     		mov	r0, r2
 1097 0012 002D     		cmp	r5, #0
 1098 0014 08BF     		it	eq
 1099 0016 0D46     		moveq	r5, r1
 1100 0018 3360     		str	r3, [r6]
 1101 001a FFF7FEFF 		bl	sdmmcGetFS
 1102 001e A560     		str	r5, [r4, #8]
 1103 0020 2946     		mov	r1, r5
 1104 0022 6060     		str	r0, [r4, #4]
 1105 0024 0122     		movs	r2, #1
 1106 0026 FFF7FEFF 		bl	f_mount
 1107 002a 0546     		mov	r5, r0
 1108 002c 58B9     		cbnz	r0, .L10
 1109 002e 0123     		movs	r3, #1
 1110 0030 3068     		ldr	r0, [r6]
 1111 0032 2373     		strb	r3, [r4, #12]
 1112 0034 0949     		ldr	r1, .L11+8
 1113 0036 FFF7FEFF 		bl	chprintf
 1114 003a 2846     		mov	r0, r5
ARM GAS  /tmp/ccHHzA80.s 			page 86


 1115              	.L3:
 1116 003c 40B2     		sxtb	r0, r0
 1117 003e 70BD     		pop	{r4, r5, r6, pc}
 1118              	.L6:
 1119 0040 1046     		mov	r0, r2
 1120 0042 40B2     		sxtb	r0, r0
 1121 0044 70BD     		pop	{r4, r5, r6, pc}
 1122              	.L10:
 1123 0046 3068     		ldr	r0, [r6]
 1124 0048 0549     		ldr	r1, .L11+12
 1125 004a 2A46     		mov	r2, r5
 1126 004c FFF7FEFF 		bl	chprintf
 1127 0050 FF20     		movs	r0, #255
 1128 0052 F3E7     		b	.L3
 1129              	.L12:
 1130              		.align	2
 1131              	.L11:
 1132 0054 00000000 		.word	.LC0
 1133 0058 00000000 		.word	.LANCHOR0
 1134 005c 34000000 		.word	.LC2
 1135 0060 04000000 		.word	.LC1
 1136              		.size	dataLoggerInitialize, .-dataLoggerInitialize
 1137 0064 AFF30080 		.section	.text.dataLoggerStop,"ax",%progbits
 1137      AFF30080 
 1137      AFF30080 
 1138              		.align	2
 1139              		.p2align 4,,15
 1140              		.global	dataLoggerStop
 1141              		.thumb
 1142              		.thumb_func
 1143              		.type	dataLoggerStop, %function
 1144              	dataLoggerStop:
 1145              		@ args = 0, pretend = 0, frame = 0
 1146              		@ frame_needed = 0, uses_anonymous_args = 0
 1147 0000 074B     		ldr	r3, .L14
 1148 0002 0849     		ldr	r1, .L14+4
 1149 0004 10B5     		push	{r4, lr}
 1150 0006 0446     		mov	r4, r0
 1151 0008 1868     		ldr	r0, [r3]
 1152 000a FFF7FEFF 		bl	chprintf
 1153 000e 0020     		movs	r0, #0
 1154 0010 0146     		mov	r1, r0
 1155 0012 0246     		mov	r2, r0
 1156 0014 FFF7FEFF 		bl	f_mount
 1157 0018 0020     		movs	r0, #0
 1158 001a 2073     		strb	r0, [r4, #12]
 1159 001c 10BD     		pop	{r4, pc}
 1160              	.L15:
 1161 001e 00BF     		.align	2
 1162              	.L14:
 1163 0020 00000000 		.word	.LANCHOR0
 1164 0024 54000000 		.word	.LC3
 1165              		.size	dataLoggerStop, .-dataLoggerStop
 1166 0028 AFF30080 		.section	.text.logfileNew,"ax",%progbits
 1166      AFF30080 
 1167              		.align	2
 1168              		.p2align 4,,15
ARM GAS  /tmp/ccHHzA80.s 			page 87


 1169              		.global	logfileNew
 1170              		.thumb
 1171              		.thumb_func
 1172              		.type	logfileNew, %function
 1173              	logfileNew:
 1174              		@ args = 0, pretend = 0, frame = 0
 1175              		@ frame_needed = 0, uses_anonymous_args = 0
 1176 0000 2DE9F843 		push	{r3, r4, r5, r6, r7, r8, r9, lr}
 1177 0004 144F     		ldr	r7, .L23
 1178 0006 0D46     		mov	r5, r1
 1179 0008 0446     		mov	r4, r0
 1180 000a 1449     		ldr	r1, .L23+4
 1181 000c 3868     		ldr	r0, [r7]
 1182 000e 9146     		mov	r9, r2
 1183 0010 9846     		mov	r8, r3
 1184 0012 FFF7FEFF 		bl	chprintf
 1185 0016 2D7B     		ldrb	r5, [r5, #12]	@ zero_extendqisi2
 1186 0018 0026     		movs	r6, #0
 1187 001a 2675     		strb	r6, [r4, #20]
 1188 001c 1DB9     		cbnz	r5, .L21
 1189 001e 2846     		mov	r0, r5
 1190              	.L17:
 1191 0020 40B2     		sxtb	r0, r0
 1192 0022 BDE8F883 		pop	{r3, r4, r5, r6, r7, r8, r9, pc}
 1193              	.L21:
 1194 0026 C4F80C90 		str	r9, [r4, #12]
 1195 002a 2661     		str	r6, [r4, #16]
 1196 002c C4F80480 		str	r8, [r4, #4]
 1197 0030 4846     		mov	r0, r9
 1198 0032 4146     		mov	r1, r8
 1199 0034 0A22     		movs	r2, #10
 1200 0036 FFF7FEFF 		bl	f_open
 1201 003a 0546     		mov	r5, r0
 1202 003c 20B9     		cbnz	r0, .L22
 1203 003e 0123     		movs	r3, #1
 1204 0040 2375     		strb	r3, [r4, #20]
 1205 0042 40B2     		sxtb	r0, r0
 1206 0044 BDE8F883 		pop	{r3, r4, r5, r6, r7, r8, r9, pc}
 1207              	.L22:
 1208 0048 3868     		ldr	r0, [r7]
 1209 004a 0549     		ldr	r1, .L23+8
 1210 004c 2A46     		mov	r2, r5
 1211 004e FFF7FEFF 		bl	chprintf
 1212 0052 E8B2     		uxtb	r0, r5
 1213 0054 E4E7     		b	.L17
 1214              	.L24:
 1215 0056 00BF     		.align	2
 1216              	.L23:
 1217 0058 00000000 		.word	.LANCHOR0
 1218 005c 74000000 		.word	.LC4
 1219 0060 98000000 		.word	.LC5
 1220              		.size	logfileNew, .-logfileNew
 1221 0064 AFF30080 		.section	.text.logfileSize,"ax",%progbits
 1221      AFF30080 
 1221      AFF30080 
 1222              		.align	2
 1223              		.p2align 4,,15
ARM GAS  /tmp/ccHHzA80.s 			page 88


 1224              		.global	logfileSize
 1225              		.thumb
 1226              		.thumb_func
 1227              		.type	logfileSize, %function
 1228              	logfileSize:
 1229              		@ args = 0, pretend = 0, frame = 0
 1230              		@ frame_needed = 0, uses_anonymous_args = 0
 1231              		@ link register save eliminated.
 1232 0000 0020     		movs	r0, #0
 1233 0002 7047     		bx	lr
 1234              		.size	logfileSize, .-logfileSize
 1235 0004 AFF30080 		.section	.text.logfileWriteCsv,"ax",%progbits
 1235      AFF30080 
 1235      AFF30080 
 1236              		.align	2
 1237              		.p2align 4,,15
 1238              		.global	logfileWriteCsv
 1239              		.thumb
 1240              		.thumb_func
 1241              		.type	logfileWriteCsv, %function
 1242              	logfileWriteCsv:
 1243              		@ args = 0, pretend = 0, frame = 0
 1244              		@ frame_needed = 0, uses_anonymous_args = 0
 1245              		@ link register save eliminated.
 1246 0000 0020     		movs	r0, #0
 1247 0002 7047     		bx	lr
 1248              		.size	logfileWriteCsv, .-logfileWriteCsv
 1249 0004 AFF30080 		.section	.text.logfileGetWrCount,"ax",%progbits
 1249      AFF30080 
 1249      AFF30080 
 1250              		.align	2
 1251              		.p2align 4,,15
 1252              		.global	logfileGetWrCount
 1253              		.thumb
 1254              		.thumb_func
 1255              		.type	logfileGetWrCount, %function
 1256              	logfileGetWrCount:
 1257              		@ args = 0, pretend = 0, frame = 0
 1258              		@ frame_needed = 0, uses_anonymous_args = 0
 1259              		@ link register save eliminated.
 1260 0000 0069     		ldr	r0, [r0, #16]
 1261 0002 7047     		bx	lr
 1262              		.size	logfileGetWrCount, .-logfileGetWrCount
 1263 0004 AFF30080 		.section	.text.logfileClose,"ax",%progbits
 1263      AFF30080 
 1263      AFF30080 
 1264              		.align	2
 1265              		.p2align 4,,15
 1266              		.global	logfileClose
 1267              		.thumb
 1268              		.thumb_func
 1269              		.type	logfileClose, %function
 1270              	logfileClose:
 1271              		@ args = 0, pretend = 0, frame = 0
 1272              		@ frame_needed = 0, uses_anonymous_args = 0
 1273 0000 10B5     		push	{r4, lr}
 1274 0002 0446     		mov	r4, r0
ARM GAS  /tmp/ccHHzA80.s 			page 89


 1275 0004 C068     		ldr	r0, [r0, #12]
 1276 0006 FFF7FEFF 		bl	f_close
 1277 000a 18B1     		cbz	r0, .L29
 1278 000c 0023     		movs	r3, #0
 1279 000e 2361     		str	r3, [r4, #16]
 1280 0010 2375     		strb	r3, [r4, #20]
 1281 0012 0120     		movs	r0, #1
 1282              	.L29:
 1283 0014 40B2     		sxtb	r0, r0
 1284 0016 10BD     		pop	{r4, pc}
 1285              		.size	logfileClose, .-logfileClose
 1286 0018 AFF30080 		.section	.text.logfileOpenAppend,"ax",%progbits
 1286      AFF30080 
 1287              		.align	2
 1288              		.p2align 4,,15
 1289              		.global	logfileOpenAppend
 1290              		.thumb
 1291              		.thumb_func
 1292              		.type	logfileOpenAppend, %function
 1293              	logfileOpenAppend:
 1294              		@ args = 0, pretend = 0, frame = 0
 1295              		@ frame_needed = 0, uses_anonymous_args = 0
 1296 0000 38B5     		push	{r3, r4, r5, lr}
 1297 0002 0546     		mov	r5, r0
 1298 0004 1222     		movs	r2, #18
 1299 0006 C068     		ldr	r0, [r0, #12]
 1300 0008 6968     		ldr	r1, [r5, #4]
 1301 000a FFF7FEFF 		bl	f_open
 1302 000e 0446     		mov	r4, r0
 1303 0010 08B1     		cbz	r0, .L36
 1304              	.L32:
 1305 0012 60B2     		sxtb	r0, r4
 1306 0014 38BD     		pop	{r3, r4, r5, pc}
 1307              	.L36:
 1308 0016 E868     		ldr	r0, [r5, #12]
 1309 0018 C168     		ldr	r1, [r0, #12]
 1310 001a FFF7FEFF 		bl	f_lseek
 1311 001e 0446     		mov	r4, r0
 1312 0020 0028     		cmp	r0, #0
 1313 0022 F6D0     		beq	.L32
 1314 0024 E868     		ldr	r0, [r5, #12]
 1315 0026 FFF7FEFF 		bl	f_close
 1316 002a 60B2     		sxtb	r0, r4
 1317 002c 38BD     		pop	{r3, r4, r5, pc}
 1318              		.size	logfileOpenAppend, .-logfileOpenAppend
 1319 002e 00BF     		.section	.text.logfileWrite,"ax",%progbits
 1320              		.align	2
 1321              		.p2align 4,,15
 1322              		.global	logfileWrite
 1323              		.thumb
 1324              		.thumb_func
 1325              		.type	logfileWrite, %function
 1326              	logfileWrite:
 1327              		@ args = 0, pretend = 0, frame = 8
 1328              		@ frame_needed = 0, uses_anonymous_args = 0
 1329 0000 2DE9E041 		push	{r5, r6, r7, r8, lr}
 1330 0004 1E46     		mov	r6, r3
ARM GAS  /tmp/ccHHzA80.s 			page 90


 1331 0006 83B0     		sub	sp, sp, #12
 1332 0008 0546     		mov	r5, r0
 1333 000a 8846     		mov	r8, r1
 1334 000c 1746     		mov	r7, r2
 1335 000e 2BB1     		cbz	r3, .L41
 1336 0010 C068     		ldr	r0, [r0, #12]
 1337 0012 FFF7FEFF 		bl	logfileOpenAppend
 1338 0016 10F0FF0F 		tst	r0, #255
 1339 001a 0AD1     		bne	.L39
 1340              	.L41:
 1341 001c 4146     		mov	r1, r8
 1342 001e E868     		ldr	r0, [r5, #12]
 1343 0020 3A46     		mov	r2, r7
 1344 0022 01AB     		add	r3, sp, #4
 1345 0024 FFF7FEFF 		bl	f_write
 1346 0028 10B9     		cbnz	r0, .L44
 1347 002a 019B     		ldr	r3, [sp, #4]
 1348 002c 9F42     		cmp	r7, r3
 1349 002e 04D0     		beq	.L48
 1350              	.L44:
 1351 0030 0120     		movs	r0, #1
 1352              	.L39:
 1353 0032 40B2     		sxtb	r0, r0
 1354 0034 03B0     		add	sp, sp, #12
 1355              		@ sp needed
 1356 0036 BDE8E081 		pop	{r5, r6, r7, r8, pc}
 1357              	.L48:
 1358 003a 2B69     		ldr	r3, [r5, #16]
 1359 003c 0133     		adds	r3, r3, #1
 1360 003e 2B61     		str	r3, [r5, #16]
 1361 0040 26B9     		cbnz	r6, .L49
 1362 0042 3046     		mov	r0, r6
 1363 0044 40B2     		sxtb	r0, r0
 1364 0046 03B0     		add	sp, sp, #12
 1365              		@ sp needed
 1366 0048 BDE8E081 		pop	{r5, r6, r7, r8, pc}
 1367              	.L49:
 1368 004c E868     		ldr	r0, [r5, #12]
 1369 004e FFF7FEFF 		bl	f_close
 1370 0052 0028     		cmp	r0, #0
 1371 0054 EDD0     		beq	.L39
 1372 0056 C0B2     		uxtb	r0, r0
 1373 0058 EBE7     		b	.L39
 1374              		.size	logfileWrite, .-logfileWrite
 1375 005a 00BFAFF3 		.section	.text.dataloggerThread,"ax",%progbits
 1375      0080
 1376              		.align	2
 1377              		.p2align 4,,15
 1378              		.global	dataloggerThread
 1379              		.thumb
 1380              		.thumb_func
 1381              		.type	dataloggerThread, %function
 1382              	dataloggerThread:
 1383              		@ args = 0, pretend = 0, frame = 0
 1384              		@ frame_needed = 0, uses_anonymous_args = 0
 1385 0000 90F8CC30 		ldrb	r3, [r0, #204]	@ zero_extendqisi2
 1386 0004 70B5     		push	{r4, r5, r6, lr}
ARM GAS  /tmp/ccHHzA80.s 			page 91


 1387 0006 0446     		mov	r4, r0
 1388 0008 8BB1     		cbz	r3, .L52
 1389 000a 0A4E     		ldr	r6, .L58
 1390 000c 42F21075 		movw	r5, #10000
 1391              	.L53:
 1392 0010 D4F8D030 		ldr	r3, [r4, #208]
 1393 0014 05FB03F0 		mul	r0, r5, r3
 1394 0018 0138     		subs	r0, r0, #1
 1395 001a A6FB0030 		umull	r3, r0, r6, r0
 1396 001e 8009     		lsrs	r0, r0, #6
 1397 0020 0130     		adds	r0, r0, #1
 1398 0022 FFF7FEFF 		bl	chThdSleep
 1399 0026 94F8CC30 		ldrb	r3, [r4, #204]	@ zero_extendqisi2
 1400 002a 002B     		cmp	r3, #0
 1401 002c F0D1     		bne	.L53
 1402              	.L52:
 1403 002e 0020     		movs	r0, #0
 1404 0030 70BD     		pop	{r4, r5, r6, pc}
 1405              	.L59:
 1406 0032 00BF     		.align	2
 1407              	.L58:
 1408 0034 D34D6210 		.word	274877907
 1409              		.size	dataloggerThread, .-dataloggerThread
 1410 0038 AFF30080 		.section	.bss.DEBUG,"aw",%nobits
 1410      AFF30080 
 1411              		.align	2
 1412              		.set	.LANCHOR0,. + 0
 1413              		.type	DEBUG, %object
 1414              		.size	DEBUG, 4
 1415              	DEBUG:
 1416 0000 00000000 		.space	4
 1417              		.section	.rodata.str1.4,"aMS",%progbits,1
 1418              		.align	2
 1419              	.LC0:
 1420 0000 00       		.ascii	"\000"
 1421 0001 000000   		.space	3
 1422              	.LC1:
 1423 0004 44415441 		.ascii	"DATALOGGER: Error Mounting Filesystem,ERR%20d\012\000"
 1423      4C4F4747 
 1423      45523A20 
 1423      4572726F 
 1423      72204D6F 
 1424 0033 00       		.space	1
 1425              	.LC2:
 1426 0034 44415441 		.ascii	"DATALOGGER: Datalogger Started\012\000"
 1426      4C4F4747 
 1426      45523A20 
 1426      44617461 
 1426      6C6F6767 
 1427              	.LC3:
 1428 0054 44415441 		.ascii	"DATALOGGER: Datalogger Stopped\012\000"
 1428      4C4F4747 
 1428      45523A20 
 1428      44617461 
 1428      6C6F6767 
 1429              	.LC4:
 1430 0074 44415441 		.ascii	"DATALOGGER: Creating New Logfile\012\000"
ARM GAS  /tmp/ccHHzA80.s 			page 92


 1430      4C4F4747 
 1430      45523A20 
 1430      43726561 
 1430      74696E67 
 1431 0096 0000     		.space	2
 1432              	.LC5:
 1433 0098 44415441 		.ascii	"DATALOGGER: Error creating Logfile, ERR%02d\012\000"
 1433      4C4F4747 
 1433      45523A20 
 1433      4572726F 
 1433      72206372 
 1434              		.comm	__gnu_lto_v1,1,1
 1435 00c5 000000   		.ident	"GCC: (GNU Tools for ARM Embedded Processors) 4.8.4 20140526 (release) [ARM/embedded-4_8-br
ARM GAS  /tmp/ccHHzA80.s 			page 93


DEFINED SYMBOLS
                            *ABS*:0000000000000000 datalogger.c
     /tmp/ccHHzA80.s:1057   .text.chprintf:0000000000000000 $t
     /tmp/ccHHzA80.s:1062   .text.chprintf:0000000000000000 chprintf
     /tmp/ccHHzA80.s:1079   .text.dataLoggerInitialize:0000000000000000 $t
     /tmp/ccHHzA80.s:1085   .text.dataLoggerInitialize:0000000000000000 dataLoggerInitialize
     /tmp/ccHHzA80.s:1132   .text.dataLoggerInitialize:0000000000000054 $d
     /tmp/ccHHzA80.s:1138   .text.dataLoggerStop:0000000000000000 $t
     /tmp/ccHHzA80.s:1144   .text.dataLoggerStop:0000000000000000 dataLoggerStop
     /tmp/ccHHzA80.s:1163   .text.dataLoggerStop:0000000000000020 $d
     /tmp/ccHHzA80.s:1167   .text.logfileNew:0000000000000000 $t
     /tmp/ccHHzA80.s:1173   .text.logfileNew:0000000000000000 logfileNew
     /tmp/ccHHzA80.s:1217   .text.logfileNew:0000000000000058 $d
     /tmp/ccHHzA80.s:1222   .text.logfileSize:0000000000000000 $t
     /tmp/ccHHzA80.s:1228   .text.logfileSize:0000000000000000 logfileSize
     /tmp/ccHHzA80.s:1236   .text.logfileWriteCsv:0000000000000000 $t
     /tmp/ccHHzA80.s:1242   .text.logfileWriteCsv:0000000000000000 logfileWriteCsv
     /tmp/ccHHzA80.s:1250   .text.logfileGetWrCount:0000000000000000 $t
     /tmp/ccHHzA80.s:1256   .text.logfileGetWrCount:0000000000000000 logfileGetWrCount
     /tmp/ccHHzA80.s:1264   .text.logfileClose:0000000000000000 $t
     /tmp/ccHHzA80.s:1270   .text.logfileClose:0000000000000000 logfileClose
     /tmp/ccHHzA80.s:1287   .text.logfileOpenAppend:0000000000000000 $t
     /tmp/ccHHzA80.s:1293   .text.logfileOpenAppend:0000000000000000 logfileOpenAppend
     /tmp/ccHHzA80.s:1320   .text.logfileWrite:0000000000000000 $t
     /tmp/ccHHzA80.s:1326   .text.logfileWrite:0000000000000000 logfileWrite
     /tmp/ccHHzA80.s:1376   .text.dataloggerThread:0000000000000000 $t
     /tmp/ccHHzA80.s:1382   .text.dataloggerThread:0000000000000000 dataloggerThread
     /tmp/ccHHzA80.s:1408   .text.dataloggerThread:0000000000000034 $d
     /tmp/ccHHzA80.s:1411   .bss.DEBUG:0000000000000000 $d
     /tmp/ccHHzA80.s:1415   .bss.DEBUG:0000000000000000 DEBUG
     /tmp/ccHHzA80.s:1418   .rodata.str1.4:0000000000000000 $d
                            *COM*:0000000000000001 __gnu_lto_v1
     /tmp/ccHHzA80.s:1137   .text.dataLoggerInitialize:0000000000000064 $t
     /tmp/ccHHzA80.s:1166   .text.dataLoggerStop:0000000000000028 $t
     /tmp/ccHHzA80.s:1221   .text.logfileNew:0000000000000064 $t
     /tmp/ccHHzA80.s:1410   .text.dataloggerThread:0000000000000038 $t

UNDEFINED SYMBOLS
chvprintf
sdmmcGetFS
f_mount
f_open
f_close
f_lseek
f_write
chThdSleep
