ARM GAS  /tmp/ccMgF8O9.s 			page 1


   1              		.syntax unified
   2              		.cpu cortex-m4
   3              		.eabi_attribute 27, 3
   4              		.eabi_attribute 28, 1
   5              		.fpu fpv4-sp-d16
   6              		.eabi_attribute 20, 1
   7              		.eabi_attribute 21, 1
   8              		.eabi_attribute 23, 3
   9              		.eabi_attribute 24, 1
  10              		.eabi_attribute 25, 1
  11              		.eabi_attribute 26, 1
  12              		.eabi_attribute 30, 2
  13              		.eabi_attribute 34, 1
  14              		.eabi_attribute 18, 4
  15              		.thumb
  16              		.file	"fatfs_diskio.c"
  17              		.section	.gnu.lto_.jmpfuncs.c86e906fd375542f,"",%progbits
  18 0000 789C6362 		.ascii	"x\234cb`b\300\006^@in\006\006F\246j\206_\015\035\015"
  18      6062C006 
  18      5E40696E 
  18      060646A6 
  18      6A865F0D 
  19 0016 02998C0C 		.ascii	"\002\231\214\014\271\214`Q&l\202\314\330\004Y\260\011"
  19      B98C6051 
  19      266C82CC 
  19      D80459B0 
  19      09
  20 0027 B232B331 		.ascii	"\2622\26312\26032p\36030a\3122`\023d\006\212\22610p"
  20      32B03332 
  20      70F03330 
  20      61CA3260 
  20      1364068A 
  21 003f 92AC038B 		.ascii	"\222\254\003\213\365\\\354L@I\3062\250\032F\220'\001"
  21      F55CEC4C 
  21      4049C632 
  21      A81A4690 
  21      2701
  22 0051 543F267D 		.ascii	"T?&}"
  23              		.text
  24              		.section	.gnu.lto_.inline.c86e906fd375542f,"",%progbits
  25 0000 789C9551 		.ascii	"x\234\225QA\016\302 \020\234\205-\322B\223\306\030\017"
  25      410EC220 
  25      109C852D 
  25      D24293C6 
  25      180F
  26 0012 C684F8A1 		.ascii	"\306\204\370\241\336L\374\201\361'\036\373\000\017|"
  26      DE4CFC81 
  26      F1271EFB 
  26      000F7C
  27 0021 C8AB2FF0 		.ascii	"\310\253/\360\021\036] jj4U\022\206\205\231\331\205"
  27      111E5D20 
  27      6A6A3455 
  27      12868599 
  27      D985
  28 0033 4541E1D3 		.ascii	"EA\341\323\270PY\035\340\027\004\345o[\230\030\262X"
  28      B850591D 
  28      E01704E5 
ARM GAS  /tmp/ccMgF8O9.s 			page 2


  28      6F5B9818 
  28      B258
  29 0045 7B408EBE 		.ascii	"{@\216\276\021\032\266\023\202cx#\370\033Q\241a\322"
  29      111AB613 
  29      82637823 
  29      F81B51A1 
  29      61D2
  30 0057 D8EFE840 		.ascii	"\330\357\350@\271n\211\222\"m+\231\346$\006\037C\007"
  30      B96E8992 
  30      226D2B99 
  30      E624061F 
  30      4307
  31 0069 3A2BAB32 		.ascii	":+\2532&\245A\355D\370\262&\320\211H\025l\014Y\245\234"
  31      26A541ED 
  31      44F8B226 
  31      D0894815 
  31      6C0C59A5 
  32 007e 14C7EC0F 		.ascii	"\024\307\354\017\255\305\332\216\256\224\265\011xdX"
  32      ADC5DA8E 
  32      AE94B509 
  32      786458
  33 008d 1E03A3E3 		.ascii	"\036\003\243\343\247\217[bi\315\320s\213\022\324\330"
  33      A78F5B62 
  33      69CDD073 
  33      8B12D4D8 
  34 009d 985F32AD 		.ascii	"\230_2\255\256\363\211L\322,\026w\003g\247\237Q\\C?"
  34      AEF3894C 
  34      D22C1677 
  34      0367A79F 
  34      515C433F 
  35 00b1 F40E5A51 		.ascii	"\364\016ZQ\376\346G\327q\007iI&?"
  35      FEE647D7 
  35      71076949 
  35      263F
  36              		.text
  37              		.section	.gnu.lto_.pureconst.c86e906fd375542f,"",%progbits
  38 0000 789C6362 		.ascii	"x\234cb`b\020g\200\000n\006\011&\011f\011\026\011V)"
  38      60621067 
  38      80006E06 
  38      09260966 
  38      09160956 
  39 0015 36097609 		.ascii	"6\011v\011\016\011N\011.\011n\006\000\021\361\001Z"
  39      0E094E09 
  39      2E096E06 
  39      0011F101 
  39      5A
  40              		.text
  41              		.section	.gnu.lto_disk_initialize.part.0.c86e906fd375542f,"",%progbits
  42 0000 789C8552 		.ascii	"x\234\205RAk\023A\024~\337\314\354\354\246\006\364\""
  42      416B1341 
  42      147EDFCC 
  42      ECECA606 
  42      F422
  43 0012 5EA59782 		.ascii	"^\245\227\202\202\213\236\372\013\004=x\220\004\364"
  43      828B9EFA 
  43      0B043D78 
  43      9004F4
ARM GAS  /tmp/ccMgF8O9.s 			page 3


  44 0021 20B2D96D 		.ascii	" \262\331m\323\2414\221$\015\210\207Nl\220\034,\204"
  44      D3A13491 
  44      240D8887 
  44      4E6C901C 
  44      2C84
  45 0033 1EF5D222 		.ascii	"\036\365\322\"\336\024\361 \324\233\027A(U\304S\212"
  45      DE14F120 
  45      D49B1741 
  45      2855C453 
  45      8A
  46 0044 87E05585 		.ascii	"\207\340U\205\236E\\\337\314&\241\366\342\300\316{\357"
  46      9E455CDF 
  46      CC26A1F6 
  46      E2C0CE7B 
  46      EF
  47 0055 9BEFBDF7 		.ascii	"\233\357\275\367\275\331\021$\350\344\272\303\337u\206"
  47      BDD91124 
  47      E8E4BAC3 
  47      DF7586
  48 0064 6FB24589 		.ascii	"o\262E\211\020\015?\262\023Ax+\204\334Y$;\247\216\316"
  48      100D3FB2 
  48      1341782B 
  48      84DC5924 
  48      3BA78ECE 
  49 0078 922D4B28 		.ascii	"\222-K(\207\366\"%\202\301\002\303\332\355\345\000\272"
  49      87F62225 
  49      82C102C3 
  49      DAEDE500 
  49      BA
  50 0089 8035C2C2 		.ascii	"\2005\302\302\011\001\347\020h#\022R\005:\304\306m\270"
  50      0901E710 
  50      68231252 
  50      053AC4C6 
  50      6DB8
  51 009b 76629E76 		.ascii	"vb\236v\255\335\036\277\377\362\370\234\035\333\241"
  51      ADDD1EBF 
  51      FFF2F89C 
  51      1DDBA1
  52 00aa FD93E730 		.ascii	"\375\223\3470`a\327@)\350\026\007\210\274\021\370Wi"
  52      6061D740 
  52      29E81607 
  52      88BC11F8 
  52      5769
  53 00bc 91F9EECD 		.ascii	"\221\371\356\315\317=\330G\266w\224\347\247\015\244"
  53      CF3DD847 
  53      B67794E7 
  53      A70DA4
  54 00cb A01BFF4B 		.ascii	"\240\033\377K|%\3548\317G\337\242\022\310@\011\336\002"
  54      7C25EC38 
  54      CF47DFA2 
  54      12C84009 
  54      DE02
  55 00dd 49099E61 		.ascii	"I\011\236a\236\324\304\006\014J=\011x\005\324\267vx"
  55      9ED4C406 
  55      0C4A3D09 
  55      7805D4B7 
  55      7678
ARM GAS  /tmp/ccMgF8O9.s 			page 4


  56 00ef BE8813EC 		.ascii	"\276\210\023\354z4\365\205+\274\273\351*\334\216\255"
  56      7A34F585 
  56      2BBCBBE9 
  56      2ADC8EAD 
  57 00ff AC4278BB 		.ascii	"\254Bx\273\317\203'x\216\2002\307;\240\207\207{\207"
  57      CF832778 
  57      8E8032C7 
  57      3BA08787 
  57      7B87
  58 0111 E502A903 		.ascii	"\345\002\251\003\027\351\202\201~JOz\326\2361\010\037"
  58      17E98281 
  58      7E4A4F7A 
  58      D69E3108 
  58      1F
  59 0122 D02F3B70 		.ascii	"\320/;p^\264\006\307w\312#\257\2676\323\377\201\372"
  59      5EB406C7 
  59      77CA23AF 
  59      B736D3FF 
  59      81FA
  60 0134 3F7A9767 		.ascii	"?z\227g%\034E\007\307&\253@\322\316\"+P^\301'\352\217"
  60      251C4507 
  60      C726AB40 
  60      D2CE222B 
  60      505EC127 
  61 014a BF5F99D2 		.ascii	"\277_\231\322\305\254C)EQ\322!Q\321\261`\361\324s'\333"
  61      C5AC4329 
  61      4551D221 
  61      51D1B160 
  61      F1D47327 
  62 015f 08D7E658 		.ascii	"\010\327\346X\227\021I\207H\376y\277\367\265wA\362\305"
  62      97114987 
  62      48FE79BF 
  62      F7B57741 
  62      F2C5
  63 0171 56485465 		.ascii	"VHTe\336`A\036\320\346\333\315\327rZ@\325\3413N\251"
  63      DE60411E 
  63      D0E6DBCD 
  63      D7725A40 
  63      D5E1334E 
  64 0186 49852AB4 		.ascii	"I\205*\264\327\347ji>T`R\340\017\302\331\325\021_\033"
  64      D7E76A69 
  64      3E546052 
  64      E00FC2D9 
  64      D5115F1B 
  65 019a BFC3CFDE 		.ascii	"\277\303\317\336\255\027\002F\024\324\241\365\327\227"
  65      AD170246 
  65      14D4A1F5 
  65      D797
  66 01a8 70B3C271 		.ascii	"p\263\302q\335\013\276\032\2574\327\226\342\264\231"
  66      DD0BBE1A 
  66      AF34D796 
  66      E2B499
  67 01b7 DD8FB3A5 		.ascii	"\335\217\263\245n\234\256\230\232i\266\343Nk\275\261"
  67      6E9CAE98 
  67      9A69B6E3 
  67      4E6BBDB1 
  68 01c7 1AB3D34D 		.ascii	"\032\263\323MZ\246\271\336\216\227\223\316r\373n\315"
ARM GAS  /tmp/ccMgF8O9.s 			page 5


  68      5AA6B9DE 
  68      8E9793CE 
  68      72FB6ECD 
  69 01d7 3432D3A8 		.ascii	"42\323\250O\303\314\264WM\363RJ\352^\326\352\252v'\351"
  69      4FC3CCB4 
  69      574DF352 
  69      4AEA5ED6 
  69      EAAA7627 
  70 01ec FC056044 		.ascii	"\374\005`D\245\230"
  70      A598
  71              		.text
  72              		.section	.gnu.lto_disk_status.part.1.c86e906fd375542f,"",%progbits
  73 0000 789C8552 		.ascii	"x\234\205RAk\023A\024~\337\314\354\354\246V\360\240"
  73      416B1341 
  73      147EDFCC 
  73      ECECA656 
  73      F0A0
  74 0012 78955E0A 		.ascii	"x\225^\012\012.\336\372\013\004/\012\222\200\036D6\273"
  74      0A2EDEFA 
  74      0B042F0A 
  74      92801E44 
  74      36BB
  75 0024 6D329426 		.ascii	"m2\224&%I\003\342\241\023\233C\016\012\301\213\242\227"
  75      254903E2 
  75      A1139B43 
  75      0E0AC18B 
  75      A297
  76 0036 94D29BE8 		.ascii	"\224\322\233\350\251H\021\241'\011H\025\217\025\017"
  76      A94811A1 
  76      27094815 
  76      8F150F
  77 0045 3979D183 		.ascii	"9y\321\203\340M\304\370f6\011\265\027\007v\336{\337"
  77      E04DC4F8 
  77      663609B5 
  77      170776DE 
  77      7BDF
  78 0057 7CEFBDEF 		.ascii	"|\357\275\357\315\216 A'\327\035\376n0|\223-\012\204"
  78      CD8E2041 
  78      27D71DFE 
  78      6E307C93 
  78      2D0A84
  79 006a A8FF819D 		.ascii	"\250\377\201\235\010\302[!\344`\211\354\234\372q\216"
  79      08C25B21 
  79      E46089EC 
  79      9CFA718E 
  80 007a ECBC8472 		.ascii	"\354\274\204rh'R\"\350-2\254\335>\037@\347\260F\230"
  80      68275222 
  80      E82D32AC 
  80      DD3E1F40 
  80      E7B04698 
  81 008e 3B21E01C 		.ascii	";!\340\034\002mFB\252@\207\330\274\015\327N,\320\266"
  81      026D4642 
  81      AA4087D8 
  81      BC0DD74E 
  81      2CD0B6
  82 00a1 B58F47BB 		.ascii	"\265\217G\273_\207xb\017:\003\373{<\006\014X\3325P\012"
  82      5F877862 
ARM GAS  /tmp/ccMgF8O9.s 			page 6


  82      0F3A03FB 
  82      7B3C060C 
  82      58DA3550 
  83 00b6 BAC50122 		.ascii	"\272\305\001\"o\004\376\325\232\347\036\274y\367\350"
  83      6F04FED5 
  83      9AE71EBC 
  83      79F7E8
  84 00c5 BC1DD9BE 		.ascii	"\274\035\331\276\375\303\251\006R\320\365\377e\276\022"
  84      FDC3A906 
  84      52D0F5FF 
  84      65BE12
  85 00d4 76341EEF 		.ascii	"v4\036\357\377\214\012 \003%x\013$%\330\301\002\251"
  85      FF8C0A20 
  85      0325780B 
  85      2425D8C1 
  85      02A9
  86 00e6 890D1894 		.ascii	"\211\015\030\224z\022\360\012\250km\377B\036'\330\366"
  86      7A12F00A 
  86      A86B6DFF 
  86      421E27D8 
  86      F6
  87 00f7 68EA0B17 		.ascii	"h\352\013\027yw\003\026\271\035[Y\202\360\366=\317\236"
  87      79770316 
  87      B91D5B59 
  87      82F0F63D 
  87      CF9E
  88 0109 60170165 		.ascii	"`\027\001e\216wH\017>?\3756D\016U\200Kt\321@?\247g\035"
  88      8E77480F 
  88      3E3FFD36 
  88      440E5580 
  88      4B74D140 
  89 0121 6BCF1884 		.ascii	"k\317\030\204\367\351\227\3559/Z\203Kp\322#/\270<\033"
  89      F7E997ED 
  89      392F5A83 
  89      4B70D223 
  89      2FB83C1B 
  90 0135 6048DDEF 		.ascii	"`H\335\357\235+\263\022\216\242\203c\243\025!i\260\304"
  90      9D2BB312 
  90      8EA28363 
  90      A3152169 
  90      B0C4
  91 0147 129497F0 		.ascii	"\022\224\227\360\221\272\243\227;z\312\027\263\026\205"
  91      91BAA397 
  91      3B7ACA17 
  91      B31685
  92 0156 14794D87 		.ascii	"\024yM\207Dy\313\234\305s\317\235\354#\\\237cm\216H"
  92      4479CB9C 
  92      C573CF9D 
  92      EC235C9F 
  92      636D8E48 
  93 016a 3A44F21F 		.ascii	":D\362\037|\261W\365.H~\331['*1\257\267(\017ik\177\353"
  93      7CB157F5 
  93      2E487ED9 
  93      5B272A31 
  93      AFB7280F 
  94 0182 EDE96901 		.ascii	"\355\351i\001U\201\3178\245&\025J\320^\240\253\245\371"
  94      5581CF38 
ARM GAS  /tmp/ccMgF8O9.s 			page 7


  94      A526154A 
  94      D05EA0AB 
  94      A5F9
  95 0194 50814981 		.ascii	"P\201I\201?\010g\227G|q\374\030?y\267\222\0138\242\240"
  95      3F086797 
  95      477C71FC 
  95      183F79B7 
  95      920B38A2 
  96 01a9 02AD1FBE 		.ascii	"\002\255\037\276>\353\206\205\343\272g|5\256\326\327"
  96      3EEB8685 
  96      E3BA677C 
  96      35AED6D7 
  97 01b9 96E3B49E 		.ascii	"\226\343\264\236\335\213\263\345v\234VM\331\324\233"
  97      DD8BB3E5 
  97      769C564D 
  97      D9D49B
  98 01c8 71ABB151 		.ascii	"q\253\261Q[\215\331i'\015S\337h\306+Ik\245y\267lj\231"
  98      5B8DD969 
  98      270D53DF 
  98      68C62B49 
  98      6BA579B7 
  99 01df A955A661 		.ascii	"\251U\246af\232\253\246~9%\265\2365\332\252\331JZ\177"
  99      669AABA6 
  99      7E3925B5 
  99      9E35DAAA 
  99      D94A5A7F 
 100 01f3 01822EA8 		.ascii	"\001\202.\250i"
 100      69
 101              		.text
 102              		.section	.gnu.lto_disk_read.part.2.c86e906fd375542f,"",%progbits
 103 0000 789C9D92 		.ascii	"x\234\235\222?K\003A\020\305\347\355\356\305D\004-\254"
 103      3F4B0341 
 103      10C5E7ED 
 103      EEC54404 
 103      2DAC
 104 0012 45FC002E 		.ascii	"E\374\000.\266~\000\301\312&\212b\021.wI\\\304\234\344"
 104      B67E00C1 
 104      CA268A62 
 104      112E7749 
 104      5CC49CE4 
 105 0026 92805864 		.ascii	"\222\200Xd\003\021R\212\235`a\020\011\202(\330\011\026"
 105      0311528A 
 105      9D606110 
 105      098228D8 
 105      0916
 106 0038 36822028 		.ascii	"6\202 (\001\033\273\200\255\275 B\334\335\340\237X\211"
 106      011BBB80 
 106      ADBD2042 
 106      DCDDE09F 
 106      5889
 107 004a 0BF7DEEC 		.ascii	"\013\367\336\354\334\376f\206\333c\304\350\367\2325"
 107      DCFE6686 
 107      DB63C4E8 
 107      F79A35
 108 0059 CF338832 		.ascii	"\3173\2102\306\221 x\273\367&\360\300\2343&\256&H\017"
 108      C6912078 
 108      BBF726F0 
ARM GAS  /tmp/ccMgF8O9.s 			page 8


 108      C09C3326 
 108      AE26480F 
 109 006d F347497A 		.ascii	"\363GIz\204C\330l=)\000\033\020\250\3461.P[\201\255"
 109      8443D86C 
 109      3D29001B 
 109      10A8E631 
 109      2E505B81 
 110 0082 25A6A8A5 		.ascii	"%\246\250\245\365^w\347\365\026\373\372\272q\250\337"
 110      F55E77E7 
 110      F516FBFA 
 110      BA71A8DF 
 111 0092 7B3D40C1 		.ascii	"{=@\301\364\235\007\005\240e\263\301\2443&\006\007\351"
 111      F49D0705 
 111      A065B3C1 
 111      A4332606 
 111      07E9
 112 00a4 B3FA42EB 		.ascii	"\263\372B\353\224\343\270\002g\264\360\017L0Z\372#v"
 112      94E3B802 
 112      67B4F00F 
 112      4C305AFA 
 112      2376
 113 00b6 A635FFC4 		.ascii	"\2465\377\304<F\253\337X\262\217a\020;g\272\333\353"
 113      3C46ABDF 
 113      58B28F61 
 113      103B67BA 
 113      DBEB
 114 00c8 5DB6531E 		.ascii	"]\266S\036H!\301\214\014\231\264G\015\255w'}\2640E>"
 114      4821C18C 
 114      0C99B447 
 114      0DAD7727 
 114      7DB43045 
 115 00dd 8E9C1E3B 		.ascii	"\216\234\036;m\033%[\325\254\264Q\373\335\322\360\254"
 115      6D1B255B 
 115      D5ACB451 
 115      FBDDD2F0 
 115      AC
 116 00ee F34530E7 		.ascii	"\363E0\347\017\324\3506oF}\234\230\027\005`\233\336"
 116      0FD4E836 
 116      6F467D9C 
 116      98170560 
 116      9BDE
 117 0100 74538F29 		.ascii	"tS\217)$\003\364\007\260\231\244Bj\003\324?e\032\017"
 117      2403F407 
 117      B099A442 
 117      6A03D43F 
 117      651A0F
 118 0113 13DD52E3 		.ascii	"\023\335R\343\245>\363\305\331\211\023?\307M\203\323"
 118      A53EF3C5 
 118      D989133F 
 118      C74D83D3 
 119 0123 A3347D84 		.ascii	"\2434}\204\353sg\256\216(\2645;.,\300\375\020O\304,"
 119      EB7367AE 
 119      8E28B435 
 119      3B2E2CC0 
 119      FD104FC4 
 120 0138 3A64EEE9 		.ascii	":d\356\351\240\023\272\220\210\237v\306m\005X\324\036"
 120      A013BA90 
ARM GAS  /tmp/ccMgF8O9.s 			page 9


 120      889F76C6 
 120      6D0558D4 
 120      1E
 121 0149 9B936BD1 		.ascii	"\233\223k\321FN\006Q\270%\303\\U\006k*\253\242X\226"
 121      464E0651 
 121      B825C35C 
 121      55066B2A 
 121      ABA25896 
 122 015d 4B95E2BA 		.ascii	"K\225\342\2724A\325/\251\250\022\313\274_\316\307\231"
 122      3441D52F 
 122      A9A812CB 
 122      BC5FCEC7 
 122      99
 123 016e AC2A86AA 		.ascii	"\254*\206\252X\370\334\206*^W\321t@^\020U\212\345D\234"
 123      58F8DC86 
 123      2A5E57D1 
 123      74405E10 
 123      558AE544 
 124 0183 0BCA5149 		.ascii	"\013\312QId+\371\274\330\014K\325\017Vc\223\225"
 124      642BF9BC 
 124      D80C4BD5 
 124      0F566393 
 124      95
 125              		.text
 126              		.section	.gnu.lto_disk_write.part.3.c86e906fd375542f,"",%progbits
 127 0000 789C9D92 		.ascii	"x\234\235\222\273J\003A\024\206\317?3\233\213\010ZX"
 127      BB4A0341 
 127      1486CF3F 
 127      339B8B08 
 127      5A58
 128 0012 4BC80338 		.ascii	"K\310\0038\330\372\000\202\225M\024\305B6\273\271\014"
 128      D8FA0082 
 128      954D14C5 
 128      4236BBB9 
 128      0C
 129 0023 6256B249 		.ascii	"bV\262I@,2B\012K\261\263SDD\004\005k\021KEQ\004\033"
 129      402C3242 
 129      0A4BB1B3 
 129      53444404 
 129      056B114B 
 130 003b 894540EC 		.ascii	"\211E@\354|\002\021\342\314\204x\253\304\201\375\377"
 130      7C0211E2 
 130      CC8478AB 
 130      C481FDFF 
 131 004b 3367E73B 		.ascii	"3g\347;\347\260\263\214\030\375^\023\346y\006\321\242"
 131      E7B0B38C 
 131      18FD5E13 
 131      E67906D1 
 131      A2
 132 005c 712408DE 		.ascii	"q$\010\336\346\255\011<0\347\214\211\263Q\322\003\374"
 132      E6AD093C 
 132      30E78C89 
 132      B351D203 
 132      FC
 133 006d 41921EE4 		.ascii	"A\222\036\344\0206\273\236\022\200\015\010\324\364\030"
 133      1036BB9E 
 133      12800D08 
ARM GAS  /tmp/ccMgF8O9.s 			page 10


 133      D4F418
 134 007c 1768CEC3 		.ascii	"\027h\316\303\326\022Y\332\325z\253\263\177t\205m}\321"
 134      D61259DA 
 134      D57AABB3 
 134      7F74856D 
 134      7DD1
 135 008e DAD1EFDD 		.ascii	"\332\321\357\335.\240`\372N\201\002\320\234\331 \343"
 135      2EA060FA 
 135      4E8102D0 
 135      9CD920E3 
 136 009e 8C899F83 		.ascii	"\214\211\237\203\364X}\252u\332q\\\2013\232\376\007"
 136      F4587DAA 
 136      75DA715C 
 136      81339AFE 
 136      07
 137 00af 2618CDFE 		.ascii	"&\030\315\376\021;\326\232\3671\217\321\302\027\226"
 137      113BD69A 
 137      F7318FD1 
 137      C21796
 138 00be EA61F889 		.ascii	"\352a\370\211\2350\335\351v\267\317\323\036H!\301\214"
 138      9D30DDE9 
 138      76B7CFD3 
 138      1E4821C1 
 138      8C
 139 00cf 244DDAA3 		.ascii	"$M\332\243\226\326\233\031\037\273\310\222\217=\247"
 139      96D69B19 
 139      1FBBC892 
 139      8F3DA7
 140 00de FB4E0F8C 		.ascii	"\373N\017\214\222\255jV\316\250\375n9x\326\371\014\230"
 140      92AD6A56 
 140      CEA8FD6E 
 140      3978D6F9 
 140      0C98
 141 00f0 F33B6A75 		.ascii	"\363;ju\332/C>\016\315\213\022\260FozC\017+\244\002"
 141      DA2F433E 
 141      0ECD8B12 
 141      B0466F7A 
 141      430F2BA4 
 142 0105 F406B099 		.ascii	"\364\006\260\231\224Bz\031\324;e\032\017\020]R\353u"
 142      94427A19 
 142      D43B651A 
 142      0F105D52 
 142      EB75
 143 0117 7DFC93B3 		.ascii	"}\374\223\263\023'\276\217\233\003\247\007i\372\010"
 143      1327BE8F 
 143      9B03A707 
 143      69FA08
 144 0126 D7E7DA5C 		.ascii	"\327\347\332\\\035Qhk\336\273\260\004\367C<\022\263"
 144      1D51686B 
 144      DEBBB004 
 144      F7433C12 
 144      B3
 145 0137 68D2DCD3 		.ascii	"h\322\334\323M;t!\021\177j\217\330\012\260\250=6)\313"
 145      4D3B7421 
 145      117F6A8F 
 145      D80AB0A8 
 145      3D3629CB 
ARM GAS  /tmp/ccMgF8O9.s 			page 11


 146 014b D1724106 		.ascii	"\321rA\006Q\270*\303BC\006e\225WQ,k\325zeI\232\240\341"
 146      51B82AC3 
 146      42430665 
 146      9557512C 
 146      6BD57A65 
 147 0163 5755548F 		.ascii	"WUT\217e\321\257\025\343\305\274\252\204\252R\352oC"
 147      65D1AF15 
 147      E3C5BCAA 
 147      84AA52EA 
 147      6F43
 148 0175 152FA968 		.ascii	"\025/\251h, /\210\352\225Z\".\004\265\250*\362\365b"
 148      2C202F88 
 148      EA955A22 
 148      2E04B5A8 
 148      2AF2F562 
 149 0189 51AC84D5 		.ascii	"Q\254\204\325\306\007\223\010\224H"
 149      C6079308 
 149      9448
 150              		.text
 151              		.section	.gnu.lto_disk_ioctl.part.4.c86e906fd375542f,"",%progbits
 152 0000 789C5D50 		.ascii	"x\234]P=K\003A\020\235\267\267{\306F\254\255\304\037"
 152      3D4B0341 
 152      109DB7B7 
 152      7BC646AC 
 152      ADC41F
 153 0013 E0FD0B41 		.ascii	"\340\375\013A\301.\001\255\344\314\231d\021s\2223\001"
 153      C12E01AD 
 153      E4CC9964 
 153      11739233 
 153      01
 154 0024 2B37123B 		.ascii	"+7\022;E\261\021b\243\210X\332\210\250\225\255\370\001"
 154      45B11162 
 154      A38858DA 
 154      88A895AD 
 154      F801
 155 0036 766A1544 		.ascii	"vj\025D\360\007h%B\234\335\273\210qag\336\316\333y\363"
 155      F0076825 
 155      429CDDBB 
 155      88716167 
 155      DECEDB79 
 156 004b 760509FA 		.ascii	"v\005\011\372\277\246x\237\201h\2323\006\010\376\316"
 156      BFA6789F 
 156      81689A33 
 156      0608FECE 
 157 005b 03031FC2 		.ascii	"\003\003\037\302e\341\311\215\02129\345\242\227F(\313"
 157      65E1C98D 
 157      113239E5 
 157      A2974628 
 157      CB
 158 006c 3573B207 		.ascii	"5s\262\007\024`\001\201\326|\356PX\233\205\325\306\030"
 158      14600181 
 158      D67CEE50 
 158      589B85D5 
 158      C618
 159 007e 1D1AB3DB 		.ascii	"\035\032\263\3339~\275\301\236\271n\036\230\357n\027"
 159      397EBDC1 
 159      9EB96E1E 
ARM GAS  /tmp/ccMgF8O9.s 			page 12


 159      98EF6E17 
 160 008e D0601F93 		.ascii	"\320`\037\223\240\"h\206\017\310\271$\320o\354T\230"
 160      A0226886 
 160      0FC8B924 
 160      D06FEC54 
 160      98
 161 009f 4EB77BF9 		.ascii	"N\267{\37158\000,q\007\007x\244y\023)j\031\2633\032"
 161      3538002C 
 161      71070778 
 161      A4791329 
 161      6A19B333 
 162 00b4 E2904790 		.ascii	"\342\220G\220\025\342\225\347hm\344\341\333\354\025"
 162      15E295E7 
 162      686DE4E1 
 162      DBEC15
 163 00c3 205CBE65 		.ascii	" \\\276e\207!\216\240(\342\012\335Q\253\323>AZ)\003"
 163      87218EA0 
 163      28E20ADD 
 163      51ABD33E 
 163      415A2903 
 164 00d7 5BB4D96C 		.ascii	"[\264\331l\231\353\227!\015ie\"7\201(\253\237\333\272"
 164      99EB9721 
 164      0D696522 
 164      378128AB 
 164      9FDBBA
 165 00ea F5472929 		.ascii	"\365G))\377\222W\277\244p\244\372\343\277\300:\033#"
 165      FF9257BF 
 165      A470A4FA 
 165      E3BFC03A 
 165      1B23
 166 00fc 7DD399BE 		.ascii	"}\323\231\276\247\365\213\247\367\033/-\355S\273i\314"
 166      A7F58BA7 
 166      F71B2F2D 
 166      ED53BB69 
 166      CC
 167 010d B0862A43 		.ascii	"\260\206*CX\035\337\265Z\244\214\374\025\222\377\205"
 167      581DDFB5 
 167      5AA48CFC 
 167      1592FF85 
 168 011d BC1EA368 		.ascii	"\274\036\243h;{a\346\355\321\301rz\343\231<+\305X\334"
 168      3B7B61E6 
 168      EDD1C172 
 168      7AE3993C 
 168      2BC558DC 
 169 0131 7D4419F4 		.ascii	"}D\031\364>\023\207$\311\267\272\375-X\015\353\177\""
 169      3E138724 
 169      C9B7BAFD 
 169      2D580DEB 
 169      7F22
 170 0143 A8C44B0B 		.ascii	"\250\304K\013A1\216V\203h\241\021\024+z^\307I\260R\253"
 170      41318E56 
 170      8368A111 
 170      142B7A5E 
 170      C749B052 
 171 0158 57170306 		.ascii	"W\027\003\006\215\260\246\343z\022\224\302\225R27\257"
 171      8DB0A6E3 
 171      7A1294C2 
ARM GAS  /tmp/ccMgF8O9.s 			page 13


 171      95523237 
 171      AF
 172 0169 AB91AE96 		.ascii	"\253\221\256\226{\307H'\213:\036/\222\\\216j\215\037"
 172      7BC74827 
 172      8B3A1E2F 
 172      925C8E6A 
 172      8D1F
 173 017b FADC83D2 		.ascii	"\372\334\203\322"
 174              		.text
 175              		.section	.gnu.lto_disk_initialize.c86e906fd375542f,"",%progbits
 176 0000 789C5D4F 		.ascii	"x\234]O\261J\003A\020}3\273\321+-\255\304/p\311O\210"
 176      B14A0341 
 176      107D33BB 
 176      D12B2DAD 
 176      C42F70C9 
 177 0016 1F60402B 		.ascii	"\037`@+\271\334%\227%\344\016rI@,r!\021,\024R\370\003"
 177      B9DC2597 
 177      25E40E72 
 177      49402C72 
 177      21112C14 
 178 002d FE808275 		.ascii	"\376\200\202u\212\364\212\242\244\021,\362\0356qg/\007"
 178      8AF48AA2 
 178      A4112CF2 
 178      1D367167 
 178      2F07
 179 003f E2C2CE9B 		.ascii	"\342\302\316\233\235\267\363\336\014\203\361\377\324"
 179      9DB7F3DE 
 179      0C83F1FF 
 179      D4
 180 004c DD0D0838 		.ascii	"\335\015\0108qH5\020\317\337\200I\300\254\027\007(\002"
 180      71483510 
 180      CFDF8049 
 180      C0AC1707 
 180      2802
 181 005e B5321249 		.ascii	"\2652\022IK\2314\221 \010cV\232\306\347\3445\236x\271"
 181      4B993491 
 181      20086356 
 181      9AC6E7E4 
 181      359E78B9 
 182 0072 DE6C1E9F 		.ascii	"\336l\036\237\257?\367w\031\226\240$h\352y\272\206Y"
 182      AF3FF777 
 182      1996A024 
 182      68EA79BA 
 182      8659
 183 0084 51CC0F81 		.ascii	"Q\314\017\201\310?O]\024\221\006\261\240z\305t\375\275"
 183      C83F4F5D 
 183      149106B1 
 183      A07AC574 
 183      FDBD
 184 0096 13D28373 		.ascii	"\023\322\203sOH\337\341v2+\366,\371\317q\011(\253\313"
 184      4F48DFE1 
 184      76322BF6 
 184      2CF9CF71 
 184      0928ABCB 
 185 00aa 05B9FA99 		.ascii	"\005\271\372\231\013\\\222\177\327i\220\302\312\250"
 185      0B5C927F 
 185      D76990C2 
ARM GAS  /tmp/ccMgF8O9.s 			page 14


 185      CAA8
 186 00b8 17377C29 		.ascii	"\0277|)\346\351wL\203J[]\341\247\270\021m\025mu-\351"
 186      E6E9774C 
 186      834A5B5D 
 186      E1A7B811 
 186      6D156D75 
 187 00ce AA5BFB69 		.ascii	"\252[\373i\244}k\373\341\323\2444\371\002;\001\345\315"
 187      A47D6BFB 
 187      E1D3A434 
 187      F9023B01 
 187      E5CD
 188 00e0 DDFA7C5F 		.ascii	"\335\372|_\227MHz\204?6\235\254\3272Q\026_\232\2705"
 188      974D487A 
 188      843F369D 
 188      ACD73251 
 188      165F9AB8 
 189 00f5 3251C736 		.ascii	"2Q\3076m\226\233A\177\230v\215KFa\337f\303\334\264\303"
 189      6D969B41 
 189      7F98768D 
 189      4B4661DF 
 189      66C3DCB4 
 190 010a 413BBF68 		.ascii	"A;\277h\3324\266iR=c\233wmv\024\341\027MmU\234"
 190      DA34B669 
 190      523D639B 
 190      776D7614 
 190      E1174D6D 
 191              		.text
 192              		.section	.gnu.lto_disk_status.c86e906fd375542f,"",%progbits
 193 0000 789C5D50 		.ascii	"x\234]P=N\002A\024\376\336\233A7V\236\300x\002'\226"
 193      3D4E0241 
 193      14FEDE9B 
 193      4137569E 
 193      C0780227 
 194 0015 5E807800 		.ascii	"^\200x\000I\2642\313,,\023\302n\302\002\211\261`\011"
 194      49B432CB 
 194      2C2C13C2 
 194      6EC20289 
 194      B16009
 195 0028 14169A70 		.ascii	"\024\026\232p\003\365\002\332ZXP\030\033\374\211\206"
 195      03F502DA 
 195      5A585018 
 195      1BFC8986 
 196 0038 C68E73D0 		.ascii	"\306\216s\320\340\314,\233\030'\231\367\275\337\357"
 196      E0CC2C9B 
 196      182799F7 
 196      BDDFEF
 197 0047 7B330CC6 		.ascii	"{3\014\306\377sh\357\016\001\307\026\251\002\342\351"
 197      FF7368EF 
 197      0E01C716 
 197      A902E2E9 
 198 0057 07300A98 		.ascii	"\0070\012\230\345\363\036\362@,\224\263$]\232$\221C"
 198      E5F31EF2 
 198      402C94B3 
 198      245D9A24 
 198      9143
 199 0069 10862C24 		.ascii	"\020\206,$\015\317\310s<\362l\271^?<\275\336\275\023"
 199      0DCFC873 
ARM GAS  /tmp/ccMgF8O9.s 			page 15


 199      3CF26CB9 
 199      5E3F3CBD 
 199      DEBD13
 200 007c 6D330C41 		.ascii	"m3\014A8#\251\343\033*\230\344\371t\037\320><\261\326"
 200      3823A9E3 
 200      1B2A98E4 
 200      F9741FD0 
 200      3E3CB1D6 
 201 0090 D1D4881D 		.ascii	"\321\324\210\035\2127\214\227\267:\244{\253\037\223"
 201      8A378C97 
 201      B73AA47B 
 201      AB1F93
 202 009f BCC1F568 		.ascii	"\274\301\365h\222\357\032\362\315Q\001(\262\263\357"
 202      92EF1AF2 
 202      CD510128 
 202      B2B3EF
 203 00ae 2D9B3F25 		.ascii	"-\233?%C\\\024\377>\250F\002\013%\346v\375\202\314\227"
 203      435C14FF 
 203      3EA84602 
 203      0B25E676 
 203      FD82CC97 
 204 00c2 3F310E4A 		.ascii	"?1\016Jnq\211U~\345\270\205\336\360\032\222\345\264"
 204      6E718955 
 204      7EE5B885 
 204      DEF01A92 
 204      E5B4
 205 00d4 F4DBB8F1 		.ascii	"\364\333\270\361\215\354\227w\343B\344\007l\011\204"
 205      8DEC9777 
 205      E342E407 
 205      6C0984
 206 00e3 17B71FC0 		.ascii	"\027\267\037\300/G\356%\344f\\\275\252Zi\247\241t\032"
 206      2F47EE25 
 206      E4665CBD 
 206      AA5A69A7 
 206      A1741A
 207 00f6 5DA8A831 		.ascii	"]\250\2501P\272e\352&\315T\257\333O\332\312:\203\260"
 207      50BA65EA 
 207      26CD54AF 
 207      DB4FDACA 
 207      3A83B0
 208 0109 6BD27EA6 		.ascii	"k\322~\246\232a\257\231\235\327M\022\231$.\303\310d"
 208      9A61AF99 
 208      9DD74D12 
 208      99242EC3 
 208      C864
 209 011b 6D931E68 		.ascii	"m\223\036h\374\002\2759V\335"
 209      FC02BD39 
 209      56DD
 210              		.text
 211              		.section	.gnu.lto_disk_read.c86e906fd375542f,"",%progbits
 212 0000 789C6D52 		.ascii	"x\234mR\315KTQ\024?\347\336\367=o\232\0214\020$Z\027"
 212      CD4B5451 
 212      143FE7DE 
 212      F73D6F9A 
 212      11341024 
 213 0016 F40872ED 		.ascii	"\364\010r\355\"\210\376\200\204Z\205\363\236>\0372N"
 213      2288FE80 
ARM GAS  /tmp/ccMgF8O9.s 			page 16


 213      845A85F3 
 213      9E3E1F32 
 213      4E
 214 0027 382A440B 		.ascii	"8*D\013\337\364&\020*\222hU\004\265\217\202\226Q\250"
 214      DFF42610 
 214      2A926855 
 214      04B58F82 
 214      9651A8
 215 003a 6D1C7234 		.ascii	"m\034r4\"\211FZ\010\271\263E\233\350\303\302\316\271"
 215      2289465A 
 215      08B9B345 
 215      9BE8C3C2 
 215      CEB9
 216 004c 6FDE13C5 		.ascii	"o\336\023\305\003s\356\371\370\235\337\357\276;G\200"
 216      0373EEF9 
 216      F89DDFEF 
 216      BE3B4780 
 217 005c 80C396D0 		.ascii	"\200\303\226\320\357\274\004\270H'\026\000\305\302:"
 217      EFBC04B8 
 217      48271600 
 217      C5C23A
 218 006b 40C312C2 		.ascii	"@\303\022\302yv\016bKn\367\263\027\316\253\026@\354"
 218      79760E62 
 218      4B6EF7B3 
 218      17CEAB16 
 218      40EC
 219 007d 689F7488 		.ascii	"h\237t\210]M8\257OP\246ox\224\351h\361\014\032\302y"
 219      5D4D38AF 
 219      4F50A66F 
 219      7894E968 
 219      F10C1AC2 
 220 0092 2BA96AAE 		.ascii	"+\251j\256\277#\250k\246\345e\313\022\206\25286\267"
 220      BF23A86B 
 220      A6E565CB 
 220      1286AA38 
 220      36B7
 221 00a4 5D1B1D05 		.ascii	"]\033\035\005w\020\371\004\2049!5\3350-\333\301\271"
 221      7710F904 
 221      84392135 
 221      DD302DDB 
 221      C1B9
 222 00b6 2BA86EF5 		.ascii	"+\250n\365B,m\355\355=\337Xy\362\030\305q\204*\322\325"
 222      422C6DED 
 222      ED3DDF58 
 222      79F218C5 
 222      71842AD2 
 223 00cb AB881222 		.ascii	"\253\210\022\"\004\235\235\201U\024\026EhS$\013\024"
 223      049D9D81 
 223      55141645 
 223      6853240B 
 223      14
 224 00dc 09972228 		.ascii	"\011\227\"(\222\303\022\247e\036\353\341\261^v}\234"
 224      92C312A7 
 224      651EEBE1 
 224      B15E767D 
 224      9C
 225 00ed 92E9D08C 		.ascii	"\222\351\320\214\343\205\223\000\276J/\221\347\213\014"
ARM GAS  /tmp/ccMgF8O9.s 			page 17


 225      E3859300 
 225      BE4A2F91 
 225      E78B0C
 226 00fc A3E053B6 		.ascii	"\243\340S\266!\331\332\361G\360)\352\020\242q\027\356"
 226      21D9DAF1 
 226      47F029EA 
 226      10A27117 
 226      EE
 227 010d 349A7139 		.ascii	"4\232q9\"i\262\0005u\277\264\272\264iR\3752Fi5\240\211"
 227      2269B200 
 227      3575BFB4 
 227      BAB46952 
 227      FD324669 
 228 0124 7D1BA689 		.ascii	"}\033\246\211\355~\271J\217\231\222\251\366\032\334"
 228      ED7EB94A 
 228      8F9992A9 
 228      F61ADC
 229 0133 DCFCBCDB 		.ascii	"\334\374\274\333\302\214\337:\015\247\"\324\037\301"
 229      C28CDF3A 
 229      0DA722D4 
 229      1FC1
 230 0141 C346CC2A 		.ascii	"\303F\314*\306\015\370\023\317sdV\321 \032f7\025a\005"
 230      C60DF813 
 230      CF736456 
 230      D1201A66 
 230      37156105 
 231 0155 33EA1634 		.ascii	"3\352\0264\2775\316\346\024\014\321\017Jk\360\035\345"
 231      BF35CEE6 
 231      140CD10F 
 231      4A6BF01D 
 231      E5
 232 0166 7BB8B5F5 		.ascii	"{\270\265\365\353k)\303\025rj\313\307\224\213+V*\225"
 232      EB6B29C3 
 232      15726ACB 
 232      C7948B2B 
 232      562A95
 233 0179 A2086647 		.ascii	"\242\010fGh\037\226(\260\304\201\335\031\246\372}~\223"
 233      681F9628 
 233      B0C481DD 
 233      19A6FA7D 
 233      7E93
 234 018b 0EF485E8 		.ascii	"\016\364\205\350j\330\201\336\020\213\032r\313\200\227"
 234      6AD881DE 
 234      108B1A72 
 234      CB8097
 235 019a AE52DF4D 		.ascii	"\256R\337Mr\365R\256\356\370]\252\243\324I\247\320U"
 235      72F552AE 
 235      EEF85DAA 
 235      A3D449A7 
 235      D055
 236 01ac 1FCC478F 		.ascii	"\037\314G\217P7a\247 \327 \271\235\374\2747\220\001"
 236      503761A7 
 236      20D720B9 
 236      9DFCBC37 
 236      9001
 237 01be CB34CF58 		.ascii	"\3134\317X7\346\377\203\272\363\311\357\374\002=!\012"
 237      37E6FF83 
ARM GAS  /tmp/ccMgF8O9.s 			page 18


 237      BAF3C9EF 
 237      FC023D21 
 237      0A
 238 01cf 6E16F7C8 		.ascii	"n\026\367\310J9\221\005\377\\\311z\313?V\212\0316\005"
 238      4A399105 
 238      FF5CC97A 
 238      CB3F568A 
 238      193605
 239 01e2 EEEB7500 		.ascii	"\356\353u\000C\354\323\311\225\315/\213\327: B\354\345"
 239      43ECD3C9 
 239      95CD2F8B 
 239      D73A2042 
 239      ECE5
 240 01f4 B4C7DC1E 		.ascii	"\264\307\334\036b\026\033V\201\2768\2612\006=\377\334"
 240      62161B56 
 240      81BE38B1 
 240      32063DFF 
 240      DC
 241 0205 637EBA3A 		.ascii	"c~\272:\264\221\245L\324Q\233\306\253\321]\251\017*"
 241      B491A54C 
 241      D4519BC6 
 241      ABD15DA9 
 241      0F2A
 242 0217 0C536407 		.ascii	"\014Sd\007\324N\201\004\371\367\315\200\012\021\264"
 242      D44E8104 
 242      F9F7CD80 
 242      0A11B4
 243 0226 0743DDC8 		.ascii	"\007C\335\310h/\006*\324@\264?\272\244e#\25712)?\323"
 243      682F062A 
 243      D440B43F 
 243      BAA46523 
 243      AF313229 
 244 023c 056FBC56 		.ascii	"\005o\274V\035\365\374Zp\335\013Fg=\177<\252D\265\272"
 244      1DF5FC5A 
 244      70DD0B46 
 244      673D7F3C 
 244      AA44B5BA 
 245 0250 373D3533 		.ascii	"7=539\341Q0;2\025\325f\352\336\330\310\364X\375j%\232"
 245      39E15130 
 245      3B3215D5 
 245      66EADED8 
 245      C8F458FD 
 246 0267 0CA2C930 		.ascii	"\014\242\3110K\203\250>\021\325\316\370\360\037\224"
 246      4B83A83E 
 246      11D5CEF8 
 246      F01F94
 247 0276 3CDB7C   		.ascii	"<\333|"
 248              		.text
 249              		.section	.gnu.lto_disk_write.c86e906fd375542f,"",%progbits
 250 0000 789C6D53 		.ascii	"x\234mS\315K\025Q\024?\347\316\307\273o\346\215O\237"
 250      CD4B1551 
 250      143FE7CE 
 250      C7BB6FE6 
 250      8D4F9F
 251 0013 F0D48DB4 		.ascii	"\360\324\215\264\214\202\206\240M\377@\364\007$$-Bg"
 251      8C8286A0 
 251      4DFF40F4 
ARM GAS  /tmp/ccMgF8O9.s 			page 19


 251      0724242D 
 251      4267
 252 0025 741CE4F9 		.ascii	"t\034\344\371\300\247R\264p^\357\011\222\006B\341\""
 252      C0A752B4 
 252      705EEF09 
 252      920642E1 
 252      22
 253 0036 3705B58B 		.ascii	"7\005\265\213\334\207\013\215\026~\244\021D0E\360 \335"
 253      DC870B8D 
 253      167EA411 
 253      443045F0 
 253      20DD
 254 0048 B5681512 		.ascii	"\265h\025\022\222\235s\347\315\210\346\2059\367|\374"
 254      929D73E7 
 254      CD88E685 
 254      39F77CFC 
 255 0058 CEEF77E7 		.ascii	"\316\357w\347\316\031\001\002\316\256'\364\254j\000"
 255      CE190102 
 255      CEAE27F4 
 255      AC6A00
 256 0067 3769C702 		.ascii	"7i\307\002\240X\332\003\250K!\354\327\327 \222\332~"
 256      A058DA03 
 256      A84B21EC 
 256      D7D72092 
 256      DA7E
 257 0079 1F5B61BF 		.ascii	"\037[a\277\335\004\210,\375\213\001QA\027\366\334\006"
 257      DD04882C 
 257      FD8B0151 
 257      4117F6DC 
 257      06
 258 008a 87C68243 		.ascii	"\207\306\202C\241!\354\265~\212\314\317.E&\346\231\002"
 258      A121ECB5 
 258      7E8ACCCF 
 258      2E4526E6 
 258      9902
 259 009c 73C27EA7 		.ascii	"s\302~\247QV\356m\023\264 \223\364\206\314\213\234\312"
 259      5156EE6D 
 259      13B42093 
 259      F486CC8B 
 259      9CCA
 260 00ae 5816970B 		.ascii	"X\026\227\013\026\332\012n#\362\016\010\263B\323\015"
 260      16DA0A6E 
 260      23F20E08 
 260      B342D30D 
 261 00be 3327F396 		.ascii	"3'\363\226\215\263\203\250N\271*\326[\307\307o~o??D"
 261      8DB383A8 
 261      4EB92AD6 
 261      5BC7C76F 
 261      7E6F3F3F 
 262 00d3 D18B5041 		.ascii	"\321\213PAz\225\012\242\006!\202\301\306\304\012\012"
 262      7A950AA2 
 262      062182C1 
 262      C6C40A0A 
 263 00e3 491E5A64 		.ascii	"I\036Zd\204M\241\346\260\327A\036\024\311`\027\207%"
 263      844DA1E6 
 263      B0D7411E 
 263      14C96017 
ARM GAS  /tmp/ccMgF8O9.s 			page 20


 263      8725
 264 00f5 EEEDE6DE 		.ascii	"\356\355\346\3362\233\036\016i\031\320\214\242\245\013"
 264      329B1E0E 
 264      6919D08C 
 264      A2A50B
 265 0104 009E0A6F 		.ascii	"\000\236\012o\221\345\343\014\240\340]\373\000\215\326"
 265      91E5E30C 
 265      A0E05DFB 
 265      008DD6
 266 0113 DAC810BE 		.ascii	"\332\310\020\276@\003\0024\037\303b\275\031u\206\244"
 266      40030234 
 266      1FC362BD 
 266      197586A4 
 267 0123 4FCB475D 		.ascii	"O\313G]\0352\311\256\037Y\224\277\215a\222\365\251\343"
 267      1D32C9AE 
 267      1F5994BF 
 267      8D6192F5 
 267      A9E3
 268 0135 640D50C7 		.ascii	"d\015P\307~\237\266C7\234\220\251\362.<\374z\270\272"
 268      7E9FB643 
 268      379C90A9 
 268      F22E3CFC 
 268      7AB8BA
 269 0148 8529BFBC 		.ascii	"\205)\277\274\014\227B4V\340Y=b\025\363\001\374\211"
 269      0C974234 
 269      56E0593D 
 269      6215F301 
 269      FC89
 270 015a E6D9CB55 		.ascii	"\346\331\313U\320$\032f\317)\302aL\2517\241\371\263"
 270      D0241A66 
 270      CF29C261 
 270      4CA937A1 
 270      F9B3
 271 016c 7E35A360 		.ascii	"~5\243`\210qZZ\207_\250}\204fk\353\225\231\342\254\214"
 271      88715A5A 
 271      875FA87D 
 271      84666BEB 
 271      9599E2AC 
 272 0181 5A7A9870 		.ascii	"Zz\230pqF&R\011\212\256-\177\226\337b\376S\3234@\371"
 272      71462652 
 272      098AAE2D 
 272      7F96DF62 
 272      FE53D334 
 273 0197 8B443FD7 		.ascii	"\213D?\327\332\231+\2450'\243\267\2746\374\177\372\000"
 273      DA992BA5 
 273      3027A3B7 
 273      BC36FC7F 
 273      FA00
 274 01a9 ED10EDB3 		.ascii	"\355\020\355\263\012\3169\012&\364\322\215\307\320\023"
 274      0ACE390A 
 274      26F4D28D 
 274      C7D013
 275 01b8 60878131 		.ascii	"`\207\2011\224\003,\032\310\225\034<\022J|\357\240\230"
 275      94032C1A 
 275      C8951C3C 
 275      124A7CEF 
 275      A098
ARM GAS  /tmp/ccMgF8O9.s 			page 21


 276 01ca 327465E2 		.ascii	"2te\342\005/\371R\347\212\223\214\323\026\277\236\265"
 276      052FF952 
 276      E78A938C 
 276      D316BF9E 
 276      B5
 277 01db 9E232EE1 		.ascii	"\236#.\341/j\273\320Xh\374X\356O\201%\352glG\304_\233"
 277      2F6ABBD0 
 277      5868FC58 
 277      EE4F8125 
 277      EA676C47 
 278 01f2 AAF38D83 		.ascii	"\252\363\215\203rZ\354\016Pp\261xL\253\230\021\345a"
 278      725AEC0E 
 278      5070B178 
 278      4CAB9811 
 278      E561
 279 0204 5968ACB7 		.ascii	"Yh\254\267\261\262\343\244\330\004x\242\027\003\006"
 279      B1B2E3A4 
 279      D80478A2 
 279      170306
 280 0213 D8639229 		.ascii	"\330c\222)\311\305o\367b\020\001\2269\354\226O\3570"
 280      C9C56FF7 
 280      62100196 
 280      39EC964F 
 280      EF30
 281 0225 8B050EBD 		.ascii	"\213\005\016\275pC\246\004F\366\266\235^{ C\032\371"
 281      7043A604 
 281      46F6B69D 
 281      5E7B2043 
 281      1AF9
 282 0237 B6A6ADC6 		.ascii	"\266\246\255\306\230\347\256=\257\237\224\033$\367\022"
 282      98E7AE3D 
 282      AF9F941B 
 282      24F712
 283 0246 831A58D0 		.ascii	"\203\032X\320@[\214}\345\012\320_\016*\217~\260\367"
 283      405B8C7D 
 283      E50AD05F 
 283      0E2A8F7E 
 283      B0F7
 284 0258 A9973B8A 		.ascii	"\251\227;\212\247\224\253\2038\372^ U\013\371oA\246"
 284      A794AB83 
 284      38FA5E20 
 284      550BF96F 
 284      41A6
 285 026a E7FBBAE1 		.ascii	"\347\373\272\341\216U+#\256W\365\357\273\376\310\214"
 285      8E552B23 
 285      AE57F5EF 
 285      BBFEC88C 
 286 027a EB8D85C3 		.ascii	"\353\215\205\303a\265\346NMNO\214\273\344\314\014M\206"
 286      61B5E64E 
 286      4D4E4F8C 
 286      BBE4CC0C 
 286      4D86
 287 028c D5E99A3B 		.ascii	"\325\351\232;:45Z\273;\034N\370\341D\220\206~X\033\017"
 287      3A34355A 
 287      BB3B1C4E 
 287      F8E14490 
 287      867E581B 
ARM GAS  /tmp/ccMgF8O9.s 			page 22


 288 02a1 AB573CF8 		.ascii	"\253W<\370\007\364\\\362\365"
 288      07F45CF2 
 288      F5
 289              		.text
 290              		.section	.gnu.lto_disk_ioctl.c86e906fd375542f,"",%progbits
 291 0000 789C5D8F 		.ascii	"x\234]\217\261J\003A\020\206\347\337\335\204\263\021"
 291      B14A0341 
 291      1086E7DF 
 291      DD84B311 
 292 0010 DB58F904 		.ascii	"\333X\371\004.\202\317 >\200\007Z\311\345.\271,!w\220"
 292      2E82CF20 
 292      3E80075A 
 292      C9E52EB9 
 292      2C217790 
 293 0024 4B022292 		.ascii	"K\002\"\222\013\236`\241\230\007\260\320^\024\362\004"
 293      0B9E60A1 
 293      9807B0D0 
 293      5E14F204 
 294 0034 E99588A5 		.ascii	"\351\225\210\245]\2124\276\202M\234\335\363@\\\330\177"
 294      5D8A34BE 
 294      824D9CDD 
 294      F3405CD8 
 294      7F
 295 0045 666766BF 		.ascii	"fgf\277\231\021$\350\377\331\343\273\015\242C\266\250"
 295      991124E8 
 295      FFD9E3BB 
 295      0DA243B6 
 295      A8
 296 0056 11C47441 		.ascii	"\021\304tA4\361\204PO\373\224{r\325\260\012e\303P\200"
 296      34F18450 
 296      4FFB947B 
 296      72D5B00A 
 296      65C35080 
 297 006a B5041A0B 		.ascii	"\265\004\032\013\2510>\201c\274\210\371r\275~\276_<"
 297      A9303E81 
 297      63BC88F9 
 297      72BD7EBE 
 297      5F3C
 298 007c 7C416E80 		.ascii	"|An\200\014\270\021\213D\017\244XPg\261\275kT\344\371"
 298      0CB8118B 
 298      440FA458 
 298      5067B1BD 
 298      6B54E4F9 
 299 0090 74872874 		.ascii	"t\207(t?\217X-\320\347$[\371F\227\313\2738\300#O\022"
 299      3F8F582D 
 299      D0E7245B 
 299      F94697CB 
 299      BB38C023 
 300 00a6 43DED2CD 		.ascii	"C\336\322\315\244\310\267\014\\q\004\351\272\225\321"
 300      A4C8B70C 
 300      5C7104E9 
 300      BA95D1
 301 00b5 F96C93E3 		.ascii	"\371l\223\343\3070\216\313I\365g)\237KW\015\371\312"
 301      C7308ECB 
 301      49F56729 
 301      9F4B570D 
 301      F9CA
ARM GAS  /tmp/ccMgF8O9.s 			page 23


 302 00c7 8B943097 		.ascii	"\213\2240\227~\247+\257b\213s\372\316\257-[\206%\236"
 302      7EA72BAF 
 302      628B73FA 
 302      CEAF2D5B 
 302      86259E
 303 00da 832A46DD 		.ascii	"\203*F\335T \237\035;\223\205\3746\377pn\\\326\177\022"
 303      54209F1D 
 303      3B9385FC 
 303      36FF706E 
 303      5CD67F12 
 304 00ee 1823DD08 		.ascii	"\030#\335\010\244H\024\027v\037\330?v\242\003\335I{"
 304      A4481417 
 304      761FD83F 
 304      76A203DD 
 304      497B
 305 0100 2D1DA6D1 		.ascii	"-\035\246\321\231\216Z#\035vL\323\244\231\036\364\207"
 305      998E5A23 
 305      1D764CD3 
 305      A4991EF4 
 305      87
 306 0111 4957B333 		.ascii	"IW\2633\012\372&\035f\272\035\014\332\331i\323$\221"
 306      0AFA261D 
 306      66BA1D0C 
 306      DAD969D3 
 306      2491
 307 0123 49E2EA19 		.ascii	"I\342\352\031\231\254k\322\335\220~\000F\203X\235"
 307      99AC6BD2 
 307      DD907E00 
 307      4683589D 
 308              		.text
 309              		.section	.gnu.lto_get_fattime.c86e906fd375542f,"",%progbits
 310 0000 789C6362 		.ascii	"x\234cb`b@\007\222@\034\017\304\036@\314\310\314\300"
 310      60624007 
 310      92401C0F 
 310      C41E40CC 
 310      C8CCC0
 311 0013 C834E11C 		.ascii	"\3104\341\034\003C#\007\023##\210\301\300\310P\317\304"
 311      03432307 
 311      13232388 
 311      C1C0C850 
 311      CFC4
 312 0025 581FC908 		.ascii	"X\037\311\010V\273\236\351\300\203\377\377\327\3358"
 312      56BB9EE9 
 312      C083FFFF 
 312      D7DD38
 313 0034 3FE70EE3 		.ascii	"?\347\016\343~&\220Y\254\014-\015\015\023\024\030\030"
 313      7E269059 
 313      AC0C2D0D 
 313      0D131418 
 313      18
 314 0045 92C12A42 		.ascii	"\222\301*B\200$H[(#\023\210f\276\310\320\370\340\367"
 314      8024485B 
 314      28231388 
 314      66BEC8D0 
 314      F8E0F7
 315 0058 72C644C6 		.ascii	"r\306D\306\205\214\254\014\021\214\231\214\014\015\015"
 315      858CAC0C 
ARM GAS  /tmp/ccMgF8O9.s 			page 24


 315      118C998C 
 315      0C0D0D
 316 0067 2D8C509B 		.ascii	"-\214P\233C\030\031A\212@\306\270\351g\344\347\246\352"
 316      43181941 
 316      8A40C6B8 
 316      E967E4E7 
 316      A6EA
 317 0079 27E7A754 		.ascii	"'\347\247T\352\247\244\226\351'gd&e\346\027\353\227"
 317      EAA7A496 
 317      E9276764 
 317      2665E617 
 317      EB97
 318 008b 1495E665 		.ascii	"\024\225\346e\353\003\031e\211E\231\371\245\305\372"
 318      EB031965 
 318      894599F9 
 318      A5C5FA
 319 009a 69892569 		.ascii	"i\211%i\305\361I\231y)\231y\3510nJfqvf\276^2\003\000"
 319      C5F14999 
 319      79299979 
 319      E9306E4A 
 319      66717666 
 320 00b3 578B3802 		.ascii	"W\2138\002"
 321              		.text
 322              		.section	.gnu.lto_.symbol_nodes.c86e906fd375542f,"",%progbits
 323 0000 789C4DC8 		.ascii	"x\234M\310;R\303@\020\204\341\236\036\311\326\032\371"
 323      3B52C340 
 323      1084E19E 
 323      1EC9D61A 
 323      F9
 324 0011 21AA08B9 		.ascii	"!\252\010\271\001\367\340F\244-\020\030\0036\230\003"
 324      01F7E046 
 324      A42D1018 
 324      03369803 
 325 0021 4040C439 		.ascii	"@@\3049\354*B\237\201G\302\025H\000\201\\\336\235\344"
 325      EC2A429F 
 325      8147C215 
 325      4800815C 
 325      DE9DE4
 326 0034 9FAF09E2 		.ascii	"\237\257\011\342\304\320\035\027\024\260\334\000\322"
 326      C4D01D17 
 326      14B0DC00 
 326      D2
 327 0041 C3CCF20B 		.ascii	"\303\314\362\013\266\037xKY\\yG1\341\222\362\204\367"
 327      B61F784B 
 327      595C7947 
 327      31E192F2 
 327      84F7
 328 0053 5496F0C7 		.ascii	"T\226\360\307\224o\371\330\262\246z\011O\251~\3023\252"
 328      946FF9D8 
 328      B2A67A09 
 328      4FA97EC2 
 328      33AA
 329 0065 48D85021 		.ascii	"H\330P!\34195\210\264)\265\327\261\256\315\256\2502"
 329      E1393588 
 329      B429B5D7 
 329      B1AECDAE 
 329      A832
ARM GAS  /tmp/ccMgF8O9.s 			page 25


 330 0077 6A4E0DA3 		.ascii	"jN\015\243f\324(\352\222\032G\335P\223\250k\252\332"
 330      66D428EA 
 330      921A47DD 
 330      5093A86B 
 330      AADA
 331 0089 C951E2E3 		.ascii	"\311Q\342\343\365\333\234\333\372\020\315_\263Q\327"
 331      F5DB9CDB 
 331      FA10CD5F 
 331      B351D7
 332 0098 1EB07ADE 		.ascii	"\036\260z\336\230\367\331\265\230\240yk3\306\372\353"
 332      98F7D9B5 
 332      98A0796B 
 332      33C6FAEB 
 333 00a8 C00BC7FB 		.ascii	"\300\013\307\373\213{(\377\307\260\217u\345\241B3=\364"
 333      8B7B28FF 
 333      C7B08F75 
 333      E5A14233 
 333      3DF4
 334 00ba 90E1E9D8 		.ascii	"\220\341\351\330\0079V\237G\370\005\350\276j\335"
 334      0739569F 
 334      47F805E8 
 334      BE6ADD
 335              		.text
 336              		.section	.gnu.lto_.refs.c86e906fd375542f,"",%progbits
 337 0000 789C2588 		.ascii	"x\234%\210\311\015\0000\014\203\014\311\243\235\244"
 337      C90D0030 
 337      0C830CC9 
 337      A39DA4
 338 000f FB6FD8CB 		.ascii	"\373o\330\313\022 \331\230\225?\023D\257\251CK\215\367"
 338      1220D998 
 338      953F1344 
 338      AFA9434B 
 338      8DF7
 339 0021 D1F357B2 		.ascii	"\321\363W\262\001\0157\000r"
 339      010D3700 
 339      72
 340              		.text
 341              		.section	.gnu.lto_.decls.c86e906fd375542f,"",%progbits
 342 0000 789CBD5C 		.ascii	"x\234\275\\yt\024U\272\257\252^\262\312\252\210\216"
 342      79741455 
 342      BAAFAA5E 
 342      B2CAAA88 
 342      8E
 343 0011 F3EC9933 		.ascii	"\363\354\2313\363\216g\336\014!\300\270\314\274\247"
 343      F38E67DE 
 343      0C21C0B8 
 343      CCBCA7
 344 0020 6282CA1B 		.ascii	"b\202\312\033\226\234N\030\307?\336i\213N\007zL\322"
 344      969C4E18 
 344      C73FDE69 
 344      8B4E077A 
 344      4CD2
 345 0032 99EE0E86 		.ascii	"\231\356\016\206\347\2747E\200\260c\014A\010KXF\305"
 345      E7BC3745 
 345      80B0630C 
 345      41084B58 
 345      46C5
ARM GAS  /tmp/ccMgF8O9.s 			page 26


 346 0044 85891006 		.ascii	"\205\211\020\006\010\014`\007\225l\032\026\215\010\010"
 346      080C6007 
 346      956C1A16 
 346      8D0808
 347 0053 890145D4 		.ascii	"\211\001E\324\221M6A\362\276\373UU\367\255\352\252\352"
 347      914D3641 
 347      F2BEFB55 
 347      55F7ADEA 
 347      AAEA
 348 0065 AAD6F3FA 		.ascii	"\252\326\363\372\234{\353\366\355{\177\367\333\356w"
 348      9C7BEBF6 
 348      ED7B7FF7 
 348      DBEE77
 349 0074 BF7BABAA 		.ascii	"\277{\253\2529\206c\026\332\031\246\017>6\236a\306g"
 349      39866316 
 349      DA19A60F 
 349      3E369E61 
 349      C667
 350 0086 304C26C3 		.ascii	"0L&\3030\017B\342 \255\203TA\012\360\031\004\351Y(W"
 350      300F42E2 
 350      20AD8354 
 350      410AF019 
 350      04E95928 
 351 009b 42AA8254 		.ascii	"B\252\202T\007i5\244\015\220\032 5Bj\201\324\005\251"
 351      076935A4 
 351      0D901A20 
 351      35426A81 
 351      D405A9
 352 00ae 1BD24948 		.ascii	"\033\322IH\247!\235\201\364%\244s\220.A\372\026\022"
 352      A7219D81 
 352      F425A473 
 352      902E41FA 
 352      1612
 353 00c0 0B583724 		.ascii	"\013X7$\\\371C\2603\245\361\3721b\371\177\240|\001\256"
 353      5CF943B0 
 353      33A5F1FA 
 353      3162F97F 
 353      A07C01AE 
 354 00d4 9B219D85 		.ascii	"\233!\235\205\264^\242\351&\324\237\222pH\372Z\242\367"
 354      B45EA2E9 
 354      26D49F92 
 354      7048FA5A 
 354      A2F7
 355 00e6 59695C1B 		.ascii	"Yi\\\033\224\3738i\014\233r\234\312\037`\234Jj\034\326"
 355      94FB3869 
 355      0C9B729C 
 355      CA1F609C 
 355      4A6A1CD6 
 356 00fa 268EC3A9 		.ascii	"&\216\303\251\306!2\002q2\273\250q\232\240\274\215\023"
 356      C6213202 
 356      7132BBA8 
 356      719AA0BC 
 356      8D13
 357 010c C72663CD 		.ascii	"\307&c\315\345\3041\310X\247$ypR_\";N\222\223M\205]"
 357      E5C431C8 
 357      58A72479 
 357      70525F22 
ARM GAS  /tmp/ccMgF8O9.s 			page 27


 357      3B4E9293 
 358 0123 A783DD61 		.ascii	"\247\203\335a\002\273N\322\211\214mWa\023\235\246\250"
 358      02BB4ED2 
 358      898C6D57 
 358      61139DA6 
 358      A8
 359 0134 E443B088 		.ascii	"\344C\260\210M8\240m\252\324\236\225\332:\211\274\340"
 359      4D38A06D 
 359      AAD49E95 
 359      DA3A89BC 
 359      E0
 360 0145 FA22A434 		.ascii	"\372\"\2444\370-\035R\006\244L\025.\261\023\207$\353"
 360      F82D1D52 
 360      06A44C15 
 360      2EB11387 
 360      24EB
 361 0157 0725FC5B 		.ascii	"\007%\374[\240\315\237)\332H\233g%\271\276N\306\207"
 361      A0CD9F29 
 361      DA489B67 
 361      25B9BE4E 
 361      C687
 362 0169 427F154E 		.ascii	"B\177\025N\203\006\316\000h3\223\302i\220\354\224t\335"
 362      8306CE00 
 362      683393C2 
 362      6990EC94 
 362      74DD
 363 017b 04D78150 		.ascii	"\004\327\201P\030\244\302!\366:@\342M\326\275\214G\333"
 363      18A4C221 
 363      F63A40E2 
 363      4DD6BD8C 
 363      47DB
 364 018d C060E877 		.ascii	"\300`\350w\036\352n\205\353W\222\355\020\271\337\006"
 364      1EEA6E85 
 364      EB5792ED 
 364      10B9DF06 
 365 019d DFE77031 		.ascii	"\337\347p1\273\260K\230\347${\257\222\344\330\014\327"
 365      BBB04B98 
 365      E7247BAF 
 365      92E4D80C 
 365      D7
 366 01ae B7214520 		.ascii	"\267!E \355\2054\004\372\335n\213\267\1772w\006\231"
 366      ED853404 
 366      FADD6E8B 
 366      B77F3277 
 366      0699
 367 01c0 A047B649 		.ascii	"\240G\266I\231\256\241p\275L\321u\007|_A\321\345\220"
 367      99AEA170 
 367      BD4CD175 
 367      077C5F41 
 367      D1E590
 368 01d3 B04F4A73 		.ascii	"\260OJs\357\2224w\011m\007\341\372>\244\003\220\016"
 368      EF923477 
 368      096D07E1 
 368      FA3EA403 
 368      900E
 369 01e5 41BA13FA 		.ascii	"A\272\023\372\376H\203\266.I\346\262\035\020\232\356"
 369      FE4883B6 
ARM GAS  /tmp/ccMgF8O9.s 			page 28


 369      2E49E6B2 
 369      1D109AEE 
 370 01f5 8276F594 		.ascii	"\202v\365\224\314\273$\177@\332\035\203\353\307\220"
 370      CCBB247F 
 370      40DA1D83 
 370      EBC790
 371 0204 8E43FA31 		.ascii	"\216C\3721\264\373\027\225\354\273%\372\232\270\230"
 371      B4FB1795 
 371      ECBB25FA 
 371      9AB898
 372 0213 2D75ABC6 		.ascii	"-u\253\306$\237\014f\276 T\012k\253\204\307[\373\015"
 372      249F0C66 
 372      BE20540A 
 372      6BAB84C7 
 372      5BFB0D
 373 0226 629E17E0 		.ascii	"b\236\027\340\343j\005\253\374\003\313\263\375\322\230"
 373      E36A05AB 
 373      FC03CBB3 
 373      FDD298
 374 0235 B5362C65 		.ascii	"\2656,e\2461\243\240\365\317\231\027\005\241\272g\366"
 374      A631A3A0 
 374      F5CF9917 
 374      05A1BA67 
 374      F6
 375 0246 FA3B043B 		.ascii	"\372;\004;\317\256g\007\001]\017\260\314/\230W\241["
 375      CFAE6707 
 375      015D0FB0 
 375      CC2F9857 
 375      A15B
 376 0258 B520F4FE 		.ascii	"\265 \364\376\224\215\037\202I\010\3130<\3732\200\361"
 376      948D1F82 
 376      4908CB30 
 376      3CFB3280 
 376      F1
 377 0269 EC4BEC2F 		.ascii	"\354K\354/\304A\204HWK&\031\204\3243\322/\032\237\237"
 377      C4418448 
 377      574B2619 
 377      84D433D2 
 377      2F1A9F9F 
 378 027d 306B81FE 		.ascii	"0k\201\376\310\3619k\356\020\326\356e\265\330\201\006"
 378      C8F1396B 
 378      EE10D6EE 
 378      65B5D881 
 378      06
 379 028e 2C35B4C0 		.ascii	",5\264\300\311C\273P\256\377\311j\021\250l\305\263\257"
 379      C943BB50 
 379      AEFFC96A 
 379      11A86CC5 
 379      B3AF
 380 02a0 B31CE41B 		.ascii	"\263\034\344\033\325Dn\231\203Dn4E\344\326\2266V\250"
 380      D5446E99 
 380      83446E34 
 380      45E4D696 
 380      3656A8
 381 02b3 C954D038 		.ascii	"\311T\3208\204Y\2124V\001\221\341Tf\016\371\245g\266"
 381      84598A34 
 381      560191E1 
ARM GAS  /tmp/ccMgF8O9.s 			page 29


 381      54660EF9 
 381      A567B6
 382 02c6 3083FD53 		.ascii	"0\203\375S\224\224T\231\022V\326\000\0215\307\263\233"
 382      94945499 
 382      1256D600 
 382      1135C7B3 
 382      9B
 383 02d7 D954A0FF 		.ascii	"\331T\240\377\011-\221#5\344w\362!\335\305\262\\b\243"
 383      092D9123 
 383      35E477F2 
 383      21DDC5B2 
 383      5C62A3
 384 02ea E02E19DC 		.ascii	"\340.\031\334.u\332\304\016\301\222\015M\016*\036\312"
 384      2E75DAC4 
 384      0EC1920D 
 384      4D0E2A1E 
 384      CA
 385 02fb 806C52CC 		.ascii	"\200lR\314\274\364:\276\301f\310M8\346\277XIZZ\255\245"
 385      BCF43ABE 
 385      C166C84D 
 385      38E6BF58 
 385      495A5AAD 
 386 0310 A2024E21 		.ascii	"\242\002N!)\241Q\020\322\234\"$\307\370\255b\271\364"
 386      29A15110 
 386      D29C2224 
 386      C7F8AD62 
 386      B9F4
 387 0322 B1A699C0 		.ascii	"\261\246\231\300J5I\327\377Z\305\322\240K\337\026DE"
 387      4A3549D7 
 387      FF5AC5D2 
 387      A04BDF16 
 387      4445
 388 0334 E9097B8F 		.ascii	"\351\011{\217\206\226\244r\03237\006\251\255.i\032o"
 388      8696A472 
 388      1A333706 
 388      A9AD2E69 
 388      1A6F
 389 0346 99FF4E33 		.ascii	"\231\377N3[\011\203\361l3\233\006\275\033XVa\304\346"
 389      5B0983F1 
 389      6C339B06 
 389      BD1B5856 
 389      61C4E6
 390 0359 A1BA17EC 		.ascii	"\241\272\027\354z@\020Ry\366m\004\372J\005\304\263)"
 390      7A401052 
 390      79F66D04 
 390      FA4A05C4 
 390      B329
 391 036b 515146BF 		.ascii	"QQF\277\313\015\010\032\376,\025H\250\324\237I\242\271"
 391      CB0D081A 
 391      FE2C1548 
 391      A8D49F49 
 391      A2B9
 392 037d 2400854C 		.ascii	"$\000\205L%\026z^\022\206.\357g0\245\2104\376\366o\310"
 392      25167A5E 
 392      12862EEF 
 392      6730A588 
 392      34FEF66F 
ARM GAS  /tmp/ccMgF8O9.s 			page 30


 393 0392 421BB270 		.ascii	"B\033\262pE[\026&\200\272\027\324\337\217@\357\"P_\234"
 393      455B1626 
 393      80BA17D4 
 393      DF8F40EF 
 393      22505F9C 
 394 03a6 2C58952C 		.ascii	",X\225,X%slZ\254\320\247\234\334\011\333\352\331Kkl"
 394      5825736C 
 394      5AACD0A7 
 394      9CDC09DB 
 394      EAD94B6B 
 395 03bb 72D256D3 		.ascii	"r\322V\323,\222bj~\357\246\347\367<\316\204\361\017"
 395      2C92626A 
 395      7EEFA6E7 
 395      F73CCE84 
 395      F10F
 396 03cd A0F1A48F 		.ascii	"\240\361\244\217h\374=\357\\^\036\357\257-\330\377\373"
 396      68FC3DEF 
 396      5C5E1EEF 
 396      AF2DD8FF 
 396      FB
 397 03de FAF61FE5 		.ascii	"\372\366\037\345\312\320\034\"\272Z\344\331v\366\347"
 397      CAD01C22 
 397      BA5AE4D9 
 397      76F6E7
 398 03ed C94BFAF0 		.ascii	"\311K\372\360\367\227\364!Z\322\213-K\332EKZ\351\262"
 398      F797F421 
 398      5AD28B2D 
 398      4BDA454B 
 398      5AE9B2
 399 0400 6ACD800D 		.ascii	"j\315\200\015\325U\333\367\363Y\335\372:\323\\\266\037"
 399      D555DBF7 
 399      F359DDFA 
 399      3AD35CB6 
 399      1F
 400 0411 A67CCEC3 		.ascii	"\246|\316\303\264C\225\346\331\205\232\207\310\332{"
 400      B44395E6 
 400      D9859A87 
 400      C8DA7B
 401 0420 12A3900F 		.ascii	"\022\243\220\0178\345,K\010B\010\370L\275\234_\361\271"
 401      38E52C4B 
 401      084208F8 
 401      4CBD9C5F 
 401      F1B9
 402 0432 C4DAC48B 		.ascii	"\304\332\304\213\371\265\227p1\227]\347)\034\377\263"
 402      F9B59770 
 402      31975DE7 
 402      291CFFB3 
 403 0442 6457BCC8 		.ascii	"dW\274\310\267\276\326\3412\326?-c\271\264\010e\342"
 403      B7BED6E1 
 403      32D63F2D 
 403      63B9B408 
 403      65E2
 404 0454 B8E4D9D3 		.ascii	"\270\344\331\323h\332\237\263?\201\374\013\310\023\332"
 404      68DA9FB3 
 404      3F81FC0B 
 404      C813DA
 405 0463 62AFC29C 		.ascii	"b\257\302\234M\231\357\011\332|/Y\26685/\262\"x\266"
ARM GAS  /tmp/ccMgF8O9.s 			page 31


 405      4D99EF09 
 405      DA7C2F59 
 405      B638352F 
 405      B22278B6 
 406 0477 01C9DE86 		.ascii	"\001\311\336\206y\023\346;1\337\205\371A\314\217a~\334"
 406      7913E63B 
 406      31DF85F9 
 406      41CC8F61 
 406      7EDC
 407 0489 0C6BAFD2 		.ascii	"\014k\257\322t\336D:_NV\177=\237^_~\273\320\023aS\230"
 407      74DE443A 
 407      5F4E567F 
 407      3D9F5E5F 
 407      7EBBD013 
 408 04a0 2A3184AB 		.ascii	"*1\204\253L\264L\\\250\271\217\230\357Y\350\3021\225"
 408      4CB44C5C 
 408      A8B98F98 
 408      EF59E8C2 
 408      3195
 409 04b2 36A5F99A 		.ascii	"6\245\371\232\200!,\\\200\316\012\003\3361\335%\326"
 409      80212C5C 
 409      80CE0A03 
 409      DE31DD25 
 409      D6
 410 04c3 1A1830CE 		.ascii	"\032\0300\3169\216Y\004C\0228{Z\254ny\254\216\245\232"
 410      398E5904 
 410      4312387B 
 410      5AAC6E79 
 410      AC8EA59A 
 411 04d7 AE8B5573 		.ascii	"\256\213UsT\365\306X\265\215\252\376G\254\332NU\277"
 411      54F5C658 
 411      B58DAAFE 
 411      47ACDA4E 
 411      55BF
 412 04e9 17AB7650 		.ascii	"\027\253vP\325\207c\325N\252\372d\254:\205\252>\033"
 412      D58763D5 
 412      4EAAFA64 
 412      AC3A85AA 
 412      3E1B
 413 04fb AB4EA5D4 		.ascii	"\253N\245\324a\270d\306\204\304\263\027\321\376\277"
 413      61B864C6 
 413      84C4B317 
 413      D1FEBF
 414 050a 616D9ADD 		.ascii	"am\232\3358\346\272Me\006\012\221'\0126\005b\006,Y\327"
 414      38E6BA4D 
 414      65060A91 
 414      270A3605 
 414      62062C59 
 415 051f 0632D5D2 		.ascii	"\0062\325\322\216B\234\324\362\256\202Uzl\236\235\313"
 415      8E429CD4 
 415      F2AE8255 
 415      7A6C9E9D 
 415      CB
 416 0530 0DC4122E 		.ascii	"\015\304\022.L\202\344\001\261\205\236\331\316\343\322"
 416      4C82E401 
 416      B1859ED9 
 416      CEE3D2
ARM GAS  /tmp/ccMgF8O9.s 			page 32


 417 053f A2E367A6 		.ascii	"\242\343g\246\305\012\362\304\344\230\031v\025\023\312"
 417      C50AF2C4 
 417      E4981976 
 417      1513CA
 418 054e 611385B9 		.ascii	"a\023\205\271\304\360p\315 \264q\314lSh\211\026\015"
 418      C4F070CD 
 418      20B471CC 
 418      6C536889 
 418      160D
 419 0560 D9B7CD53 		.ascii	"\331\267\315S\243i\315\263{t\301\"W\346\2546\273\321"
 419      A369CDB3 
 419      7B74C122 
 419      57E6AC36 
 419      BBD1
 420 0572 7B4A86CB 		.ascii	"{J\206\313\214N\272\310\265}\254Kc\267\247h\312\263"
 420      8C4EBAC8 
 420      B57DAC4B 
 420      63B7A768 
 420      CAB3
 421 0584 35DCCFB5 		.ascii	"5\334\317\265\366\204\212V\244]-\247Z?\336\334\207\333"
 421      F6848A56 
 421      A45D2DA7 
 421      5A3FDEDC 
 421      87DB
 422 0596 41529F78 		.ascii	"AR\237x\0059\\\245\317\212b+\032\335+\017\2172\322\363"
 422      05395CA5 
 422      CF8A622B 
 422      1ADD2B0F 
 422      8F32D2F3 
 423 05aa 41EFB93F 		.ascii	"A\357\271?b\220\271\234#\313\337a\273\346\362\247\017"
 423      6290B99C 
 423      23CBDF61 
 423      BBE6F2A7 
 423      0F
 424 05bb C3B32B38 		.ascii	"\303\263+8\262\243]\251f\341\322Jda\245)\026\276;Vo"
 424      B2A35DA9 
 424      66E1D24A 
 424      6461A529 
 424      16BE3B56 
 425 05d0 D1EB2D39 		.ascii	"\321\353-9\035\271s&n9\3529\342\370j\035I9\276u\234"
 425      1DB97326 
 425      6E39EA39 
 425      E2F86A1D 
 425      4939BE75 
 426 05e5 CAF16DAD 		.ascii	"\312\361m\255\352O\310&\365\211]\337\032G\274\353{\315"
 426      EA4FC826 
 426      F5895DDF 
 426      1A47BCEB 
 426      7BCD
 427 05f7 A1E9FAB6 		.ascii	"\241\351\372\26684]\337n\207\246\353ku(]\037c\302=\305"
 427      38345DDF 
 427      6E87A6EB 
 427      6B75285D 
 427      1F63C23D 
 428 060c 58E1D9F5 		.ascii	"X\341\331\365\034qO\177\345\264\335\023\317VEuf\326"
 428      1C714F7F 
 428      E5B4DD13 
ARM GAS  /tmp/ccMgF8O9.s 			page 33


 428      CF564575 
 428      66D6
 429 061e 3D29F4D5 		.ascii	"=)\364\325\323\325{\240b\017\314\307y\316$\347\317\261"
 429      D3D57BA0 
 429      620FCCC7 
 429      79CE24E7 
 429      CFB1
 430 0630 6366E6CF 		.ascii	"cf\346\317&\223\363\247Qm|\313\216\241\3615\2322\276"
 430      2693F3A7 
 430      516D7CCB 
 430      8EA1F135 
 430      9A32BE
 431 0643 35C7EA13 		.ascii	"5\307\352\023\356!\036\274M\327\217n\343T\341\3502\316"
 431      EE211EBC 
 431      4DD78F6E 
 431      E354E1E8 
 431      32CE
 432 0655 C4498724 		.ascii	"\304I\207$\207\357V\334J\010\335\312\221\250\272Ke\303"
 432      87EF56DC 
 432      4A08DDCA 
 432      91A8BA4B 
 432      65C3
 433 0667 0A82C481 		.ascii	"\012\202\304\201\364\210\330\211cj\361\031\367\033\254"
 433      F488D889 
 433      636AF119 
 433      F71BAC
 434 0676 89384E23 		.ascii	"\2118N#\227l\214\271CK`\032z\352\211\236}\3752\312q"
 434      976C8CB9 
 434      434B601A 
 434      7AEA899E 
 434      7DFD32CA 
 435 068b CFD6B33D 		.ascii	"\317\326\263=Y\342\304\335\203\036g\2233\241\307Q\342"
 435      59E2C4DD 
 435      831E6793 
 435      33A1C751 
 435      E2
 436 069c E02E48AD 		.ascii	"\340.H\255\360-\035\250\360\346\304\012\23753\262\275"
 436      F02D1DA8 
 436      F0E6C40A 
 436      9F3533B2 
 436      BD
 437 06ad 6315D28F 		.ascii	"c\025\322\217k\345L\303c\011\236\335\213+}\342s\003"
 437      6BE54CC3 
 437      63099EDD 
 437      8B2B7DE2 
 437      7303
 438 06bf 98CBC849 		.ascii	"\230\313\310Isrb\005\262\232:2\253y\236}\233#.\342-"
 438      73726205 
 438      B29A3A32 
 438      AB799E7D 
 438      9B232EE2 
 439 06d4 CB602E05 		.ascii	"\313`.\005\330N\032\254\335\014\230\336:\016`\273h\260"
 439      D84E1AAC 
 439      DD0C98DE 
 439      3A0E60BB 
 439      68B0
 440 06e6 4396C194 		.ascii	"C\226\301\224\224\355\241\301>2\003\246\267\377\007"
ARM GAS  /tmp/ccMgF8O9.s 			page 34


 440      94EDA1C1 
 440      3E3203A6 
 440      B7FF07
 441 06f5 B00334D8 		.ascii	"\260\0034\330\307\226\301h\312fD\272;\332\311Vl0S#\010"
 441      C796C168 
 441      CA6644BA 
 441      3BDAC956 
 441      6C305323 
 442 070a 3384B54E 		.ascii	"3\204\265N=\243`\030l\"\0306\201\35577Xi\244\357/\350"
 442      3DA36018 
 442      6C221836 
 442      81ED3737 
 442      5869A4EF 
 443 0720 478C94D4 		.ascii	"G\214\224\324'\366J]\222\221\312\001O\0172G\372&3i\205"
 443      27F64A5D 
 443      9291CA01 
 443      4F0F3247 
 443      FA263369 
 444 0735 C8F18E0C 		.ascii	"\310\361\216\014a~ft;\373\212\001\341\207\325\263\353"
 444      617E6674 
 444      3BFB8A01 
 444      E187D5B3 
 444      EB
 445 0746 7007E712 		.ascii	"p\007\347\022\253\023\323}\244c\325Pam3+\235\220\010"
 445      AB13D37D 
 445      A463D550 
 445      616D332B 
 445      9D9008
 446 0759 55C23DD4 		.ascii	"U\302=\324X\003\344\261\210\257\214\036\230m\377%\206"
 446      5803E4B1 
 446      88AF8C1E 
 446      986DFF25 
 446      86
 447 076a 2047518B 		.ascii	" GQ\213\275*\207`\036\250{\301\006\361\360\3608\002"
 447      BD2A8760 
 447      1EA87BC1 
 447      06F1F0F0 
 447      3802
 448 077c 7DA902E2 		.ascii	"}\251\002\342Y\233\352\300\314\246\234\325\266\264X"
 448      599BEAC0 
 448      CCA69CD5 
 448      B6B458
 449 078b A1AF4F79 		.ascii	"\241\257Oy#$qc\216\271\214\003\036\216\331\237\202\310"
 449      23247163 
 449      8EB98C03 
 449      1E8ED99F 
 449      82C8
 450 079d C4ABEADF 		.ascii	"\304\253\352\337\317~>l\271\020\251\264\311\242\370"
 450      CF7E3E6C 
 450      B910A9B4 
 450      C9A2F8
 451 07ac D632E000 		.ascii	"\3262\340\000\225R8FHI\322n(\326\345\215\363\007\034"
 451      95523846 
 451      4849D26E 
 451      28D6E58D 
 451      F3071C
 452 07bf D9147FC8 		.ascii	"\331\024\177\310\375\204\036\2402\305\304\254\323\013"
ARM GAS  /tmp/ccMgF8O9.s 			page 35


 452      FD841EA0 
 452      32C5C4AC 
 452      D30B
 453 07cd EB610A   		.ascii	"\353a\012"
 454 07d0 9FA3A7F0 		.ascii	"\237\243\247\360\034\313`.\005\330\005\032l\241\031"
 454      1CCB602E 
 454      05D8051A 
 454      6CA119
 455 07df 30973E65 		.ascii	"0\227>e\337\320`\317[\006SRv\231\006{\301\014\230\326"
 455      DFD060CF 
 455      5B065352 
 455      7699067B 
 455      C10C98D6 
 456 07f3 EE45EB43 		.ascii	"\356E\353C/\207\260^a\350\367\026jj\037\346\255\230"
 456      2F87B05E 
 456      61E8F716 
 456      6A6A1FE6 
 456      AD98
 457 0805 B763FE2E 		.ascii	"\267c\376.\346\235\230\037\300\374S\314Oc~\006\363/"
 457      E69D981F 
 457      C0FC53CC 
 457      4F637E06 
 457      F32F
 458 0817 69FD1AC4 		.ascii	"i\375\032\304.Wj\356\"\356l7\306.+R\014c\227=:\254\022"
 458      2E576AEE 
 458      22EE6C37 
 458      C62E2B52 
 458      0C63973D 
 459 082e EACF1AC4 		.ascii	"\352\317\032\304.g\325\261\313K)Vc\027J\015\030\271"
 459      2E67D5B1 
 459      CB4B2956 
 459      63174A0D 
 459      18B9
 460 0840 464A776F 		.ascii	"FJwo\022\204\331Ny\222mT#jM2\375{9\221\217Vf\036xJ\006"
 460      1284D94E 
 460      79926D54 
 460      236A4D32 
 460      FD7B3991 
 461 085b 6BB40CA6 		.ascii	"k\264\014\246\236\261\262\036\267\240\036\377\216\032"
 461      9EB1B21E 
 461      B7A01EFF 
 461      8E1A
 462 0869 D985F979 		.ascii	"\331\205\371y\314/*g\337\266\024\265\223\023\203^\012"
 462      CC2F2A67 
 462      DFB614B5 
 462      9313835E 
 462      0A
 463 087a 2F161D33 		.ascii	"/\026\0353\211\021\365\224\324\300Q\207\\\021\034te"
 463      8911F594 
 463      D4C05187 
 463      5C111C74 
 463      65
 464 088b B24A88D4 		.ascii	"\262J\210\324\237\200\271\220\360\216\261]F\312\215"
 464      9F80B990 
 464      F08EB15D 
 464      46CA8D
 465 089a DA5CCF9A 		.ascii	"\332\\\317\232\233\221\241;\005a\000\317^\303\350QH"
ARM GAS  /tmp/ccMgF8O9.s 			page 36


 465      9B91A13B 
 465      056100CF 
 465      5EC3E851 
 465      48
 466 08ab 4D183D2A 		.ascii	"M\030=*q8f\036v\271\241Z\343z\016\257\377\344G\313\021"
 466      7138661E 
 466      76B9A15A 
 466      E37A0EAF 
 466      FFE447CB 
 467 08c0 F986A975 		.ascii	"\371\206\251u\356\272\326\256[$KO\206\202Me\314\255"
 467      EEBAD6AE 
 467      5B244B4F 
 467      86824D65 
 467      CCAD
 468 08d2 5152920B 		.ascii	"QR\222\013\304o\356C\237Bp9f\277e0\245R\226\264PQ\261"
 468      C46FEE43 
 468      9F427039 
 468      66BF6530 
 468      A55296B4 
 469 08e9 A99B75C7 		.ascii	"\251\233u\307_>s\307n\024\331l\0331\3605ij[lV\337\242"
 469      5F3E73C7 
 469      6E14D96C 
 469      1B31F035 
 469      696A5B6C 
 470 0900 3213476F 		.ascii	"2\023GoH3\301\210\376\251\023h\362\340];ps*G;\272a\032"
 470      4833C188 
 470      FEA91368 
 470      F2E05D3B 
 470      70732A47 
 471 0918 C734E060 		.ascii	"\3074\340`\363m*k8\376\372\301_\211\326@~Jl\015\333"
 471      F36D2A6B 
 471      38FEFAC1 
 471      5F89D640 
 471      7E4A6C0D 
 472 092d 3B9699DA 		.ascii	";\226\231\332\022\255u\312\303\027\342\360\347p\370"
 472      12AD75CA 
 472      C317E2F0 
 472      E770F8
 473 093c E7D4C35F 		.ascii	"\347\324\303_{\343\314\203\342\360\317\231\032\276{"
 473      7BE3CC83 
 473      E2F0CF99 
 473      1ABE7B
 474 094b 7FAD9631 		.ascii	"\177\255\2261\352\354Ze\365\275~\376\23658\310\0224"
 474      EAEC5A65 
 474      F5BD7EFE 
 474      9E3538C8 
 474      1234
 475 095d A09DE96A 		.ascii	"\240\235\351j\365=D\237\3313\322-|\312~\337J\227\251"
 475      F53D449F 
 475      D933D22D 
 475      7CCA7EDF 
 475      4A97A9
 476 0970 4FCA7E81 		.ascii	"O\312~\201\315\346\207^EM\3114\264XFT\032\361\205\375"
 476      CDE6875E 
 476      454DC934 
 476      B4584654 
 476      1AF185FD 
ARM GAS  /tmp/ccMgF8O9.s 			page 37


 477 0984 382344B0 		.ascii	"8#D\260\0163`\006\236\375\033\032l\277e0%e\227i\260"
 477      0E336006 
 477      9EFD1B1A 
 477      6CBF6530 
 477      25659769 
 478 0999 F7CD80E9 		.ascii	"\367\315\200\351\337\366\214\\\245\301\016[\006SR\366"
 478      DFF68C5C 
 478      A5C10E5B 
 478      065352F6 
 479 09a9 2D0D76CC 		.ascii	"-\015v\314\014\230\376!m\344\006\015\326m\031LI\331"
 479      0C98FE21 
 479      6DE4060D 
 479      D66D194C 
 479      49D9
 480 09bb 4D1AECA4 		.ascii	"M\032\354\244\0310\227>e\325\207(\260\323\226\301\224"
 480      1930973E 
 480      65D58728 
 480      B0D396C1 
 480      94
 481 09cc 94D5D060 		.ascii	"\224\325\320`_\232\00138\213\256\245\301\316Z\006SR"
 481      5F9A0133 
 481      388BAEA5 
 481      C1CE5A06 
 481      5352
 482 09de F6020D76 		.ascii	"\366\002\015v\321\014\330p}\312\226\323`W,\203))[A\203"
 482      D10CD870 
 482      7DCA96D3 
 482      60572C83 
 482      29295B41 
 483 09f3 5D370376 		.ascii	"]7\003v\277>e\253h\260>\313`J\3126\321`33L\200=\254"
 483      BF3E65AB 
 483      68B03ECB 
 483      604ACA36 
 483      D1603333 
 484 0a0b 4F59230D 		.ascii	"OY#\015Ve\031LI\331\337i\260yf\300\036\327\247l\033"
 484      5665194C 
 484      49D9DF69 
 484      B07966C0 
 484      1ED7A76C 
 485 0a20 0DB6D032 		.ascii	"\015\266\3202\230\222\262&\032\35493`y\372\224\355\244"
 485      9892B226 
 485      1AEC3933 
 485      6079FA94 
 485      EDA4
 486 0a32 C16A2C83 		.ascii	"\301j,\203))\333E\203-5\003\366\007}\312\366\320`u\226"
 486      2929DB45 
 486      832D3503 
 486      F6077DCA 
 486      F6D06075 
 487 0a47 C194941D 		.ascii	"\301\224\224\035\240\301V\233\001{J\203\262\350G/\316"
 487      A0C1569B 
 487      017B4A83 
 487      B2E8472F 
 487      CE
 488 0a58 5C6CA362 		.ascii	"\\l\243b\365\265\031r\200cq\215fb\030/fX\215\310\024"
 488      F5B51972 
 488      8063718D 
ARM GAS  /tmp/ccMgF8O9.s 			page 38


 488      6662182F 
 488      66588DC8 
 489 0a6d 7C93D8FA 		.ascii	"|\223\330\372\256\235\322:/\006\253\257\231A4X\000W"
 489      AE9DD23A 
 489      2F06ABAF 
 489      99413458 
 489      0057
 490 0a7f B450916F 		.ascii	"\264P\221o\243e0\225)\267\250\267#&\036\357\211=@I="
 490      A3653095 
 490      29B7A8B7 
 490      23261EEF 
 490      893D4049 
 491 0a94 D13554BB 		.ascii	"\3215T\273-\354\265md7w\320\026\273\345z0z\200DJ\342"
 491      2DECB56D 
 491      643777D0 
 491      16BBE57A 
 491      307A8044 
 492 0aaa 5DE39D19 		.ascii	"]\343\235\031\312\233:\321O\242\256z\226\320I[\302\233"
 492      CA9B3AD1 
 492      4FA2AE7A 
 492      96D0495B 
 492      C29B
 493 0abc 66C464B0 		.ascii	"f\304d\260\264w\267\254\302\233t\346\237`;\376\362A"
 493      B477B7AC 
 493      C29B74E6 
 493      9F603BFE 
 493      F241
 494 0ace 6983D085 		.ascii	"i\203\320\205\033\204}\031\352\010\263\315\3423l\020"
 494      1B847D19 
 494      EA08B3CD 
 494      E2336C10 
 495 0ade 87A9B9D0 		.ascii	"\207\251\271\320\272u\245\037S\200-\036\271{G\203 \314"
 495      BA75A51F 
 495      53802D1E 
 495      B97B4783 
 495      20CC
 496 0af0 745AE1A3 		.ascii	"tZ\341\243M\342\343(\362q\370\007\340\243\3332\037\367"
 496      4DE2E328 
 496      F271F807 
 496      E0A3DB32 
 496      1FF7
 497 0b02 A8F868BE 		.ascii	"\250\370h\276\307:\037G$>\272\221\217\323?\000\037g"
 497      C73A1F47 
 497      243EBA91 
 497      8FD33F00 
 497      1F67
 498 0b14 2DF3319C 		.ascii	"-\3631\234\342\003wk\303\304\335\232\251C\365S6\325"
 498      E203776B 
 498      C3C4DD9A 
 498      A943F553 
 498      36D5
 499 0b26 A1FA9176 		.ascii	"\241\372\221v\326%V'\332&\011\221+\355\324\026W0\267"
 499      D6255627 
 499      DA260991 
 499      2BEDD416 
 499      5730B7
 500 0b39 C53D2F49 		.ascii	"\305=/I\3544J\354\262Jb\346\221\266\264\277\275YzH\366"
ARM GAS  /tmp/ccMgF8O9.s 			page 39


 500      EC344AEC 
 500      B24A62E6 
 500      91B6B4BF 
 500      BD597A48 
 501 0b4e 0B84BA91 		.ascii	"\013\204\272\2214Tw\307v\361\301\320\177\"\320\254L"
 501      345477C7 
 501      76F1C1D0 
 501      7F22D0AC 
 501      4C
 502 0b5f B5169D2A 		.ascii	"\265\026\235*%:\225J\204\257d\244\253d\307\315\376E"
 502      253A954A 
 502      84AF64A4 
 502      AB64C7CD 
 502      FE45
 503 0b71 AA215F52 		.ascii	"\252!_R\230\377\367~\034\263\030\311'\012\264\270@\305"
 503      98FFF77E 
 503      1CB318C9 
 503      270AB4B8 
 503      40C5
 504 0b83 0CE8973B 		.ascii	"\014\350\227;\244\305ET\322\322\357\205X\031\331\262"
 504      A4C54554 
 504      D2D2EF85 
 504      5819D9B2 
 505 0b93 60B574EB 		.ascii	"`\265t\353\345!\262\274\324\177O\270\203\035\326\017"
 505      E521B2BC 
 505      D47F4FB8 
 505      831DD60F 
 506 0ba3 569AEF14 		.ascii	"V\232\357\024\255\35622\364R\234\206\223:X\331\234,"
 506      ADEE3232 
 506      F4529C86 
 506      933A58D9 
 506      9C2C
 507 0bb5 23D10FC7 		.ascii	"#\321\017\3074e\232XD\\F\332\2726\314\344\341L\364\310"
 507      34659A58 
 507      445C46DA 
 507      BA36CCE4 
 507      E14CF4C8 
 508 0bc9 EFF3A1AD 		.ascii	"\357\363\241\255\342\301\234\215\034\371\355R\011\303"
 508      E2C19C8D 
 508      1CF9ED52 
 508      09C3
 509 0bd7 C4214F07 		.ascii	"\304!O\007v\351S\237\262\200\345\334!\236\262\364\231"
 509      76E9539F 
 509      B280E5DC 
 509      219EB2F4 
 509      99
 510 0be8 3BE4A992 		.ascii	";\344\251\222\355B<\311\233a\343$\330d\345\251Pa\214"
 510      ED423CC9 
 510      9B61E324 
 510      D864E5A9 
 510      50618C
 511 0bfb 3E80B693 		.ascii	">\200\266\223x\241\322\2568\353=fY\366.Z\366\221\353"
 511      78A1D2AE 
 511      38EB3D66 
 511      59F62E5A 
 511      F691EB
 512 0c0e 1DABF0A1 		.ascii	"\035\253\360\2412\215s\251\207\351(.*\370\236;\332\304"
ARM GAS  /tmp/ccMgF8O9.s 			page 40


 512      328D73A9 
 512      87E9282E 
 512      2AF89E3B 
 512      DAC4
 513 0c20 E33D3B11 		.ascii	"\343=;\021\374\247:\202\327}4\226c.a\227\271\3668\301"
 513      FCA73A82 
 513      D77D3496 
 513      632E6197 
 513      B9F638C1 
 514 0c34 B7DD290A 		.ascii	"\267\335)\012\236\374d\342^\250\246\340I\337\344f\344"
 514      9EFC64E2 
 514      5EA8A6E0 
 514      49DFE466 
 514      E4
 515 0c45 87B17353 		.ascii	"\207\261sS\236\235i\031\314e\244\305\030\263\020u\243"
 515      9E9D6919 
 515      CC65A4C5 
 515      18B31075 
 515      A3
 516 0c56 1617D8C9 		.ascii	"\026\027\330\311)\373B\245.\253nQ\351R!9\251\250{f "
 516      29FB42A5 
 516      2EAB6E51 
 516      E9522139 
 516      A9A87B66 
 517 0c6b 449674CA 		.ascii	"D\226t\312\267\207E\237\367\274\032O\213\013\203\235"
 517      B787459F 
 517      F7BC1A4F 
 517      8B0B839D 
 518 0c7b 7E7D278A 		.ascii	"~}'\212D\3647\313,\203\271\024`\273\027\233|\"M\361"
 518      44F437CB 
 518      2C83B914 
 518      60BB179B 
 518      7C224DF1 
 519 0c8f 0420C7AC 		.ascii	"\004 \307\254\307qk\325\346\262\371\313\203s\330\031"
 519      C7716BD5 
 519      E6B2F9CB 
 519      8373D819 
 520 0c9f B874D69A 		.ascii	"\270t\326\232\260\027X\347?M\303G\252E\273\3758\212"
 520      B01758E7 
 520      3F4DC347 
 520      AA45BBFD 
 520      388A
 521 0cb1 6A206A03 		.ascii	"j j\003k\271~FzB[\334m\234R\303%\334\014)\341n\372Z"
 521      6BB97E46 
 521      7A425BDC 
 521      6D9C52C3 
 521      25DC0C29 
 522 0cc9 875B138C 		.ascii	"\207[\023\214\374\314\324\016\022\351\254F\236\276\272"
 522      FCCCD40E 
 522      12E9AC46 
 522      9EBEBA
 523 0cd8 45BD2288 		.ascii	"E\275\"\210\222\241\014\261\2262\304\027\320\020\227"
 523      92A10CB1 
 523      9632C417 
 523      D01097
 524 0ce7 A121D661 		.ascii	"\241!\326a\276\2226G\275`k\225\235\332>|c\231o\227J"
 524      BE923647 
ARM GAS  /tmp/ccMgF8O9.s 			page 41


 524      BD606B95 
 524      9DDA3E7C 
 524      63996F97 
 525 0cfc 3B7AC32C 		.ascii	";z\303,\241\207\271n\306\366\364\017\206\210S\377\215"
 525      A187B96E 
 525      C6F6F40F 
 525      868853FF 
 525      8D
 526 0d0d 1C0E88B7 		.ascii	"\034\016\210\267%f\367\263\212\250\264\346\363\213\025"
 526      2566F7B3 
 526      8AA8B4E6 
 526      F38B15
 527 0d1c E140B519 		.ascii	"\341@\265\031\270\2075\010\324\372\3207\242x\366&\336"
 527      B8873508 
 527      D4FAD037 
 527      A278F626 
 527      DE
 528 0d2d F3EBC3BB 		.ascii	"\363\353\303\273r\2256\222\317\302|\036\346m\230w`\376"
 528      72953692 
 528      CFC27C1E 
 528      E66D9877 
 528      60FE
 529 0d3f 1EE61F60 		.ascii	"\036\346\037`~\004\363\023\230\237\304\374\272\330\027"
 529      7E04F313 
 529      989FC4FC 
 529      BAD817
 530 0d4e 15BD18F3 		.ascii	"\025\275\030\363j\314k0_\217\371\213\211\014@Z\005\316"
 530      6ACC6B30 
 530      5F8FF98B 
 530      890C405A 
 530      05CE
 531 0d60 5F3872D7 		.ascii	"_8r\327F\364\325W\361F\357\201~j\313\023l\252\333\004"
 531      46F4D557 
 531      F146EF81 
 531      7E6ACB13 
 531      6CAADB04 
 532 0d74 71F7B94E 		.ascii	"q\367\271N\3663q\277\320\340\216NW\357\347\323wW\212"
 532      F63371BF 
 532      D0E08E4E 
 532      57EFE7D3 
 532      77578A
 533 0d87 3A5D8D66 		.ascii	":]\215f\275\324\256z\2001\361\243\311J\245\036\257\327"
 533      BDD4AE7A 
 533      8031F1A3 
 533      C94AA51E 
 533      AFD7
 534 0d99 7FD15371 		.ascii	"\177\321Sq\303&\372\354\331\317b2\331z\345\310\237\305"
 534      C326FAEC 
 534      D9CF6232 
 534      D97AE5C8 
 534      9FC5
 535 0dab 67D836E2 		.ascii	"g\3306\342l|\271\177\342\273\220\012\034|\317Q\345\346"
 535      6C7CB97F 
 535      E2BB900A 
 535      1C7CCF51 
 535      E5E6
 536 0dbd 22E74FE0 		.ascii	"\"\347O\3403lo$vq\263fF.\235\250\225\214R|\242\240\021"
ARM GAS  /tmp/ccMgF8O9.s 			page 42


 536      336C6F24 
 536      7671B366 
 536      462E9DA8 
 536      958C527C 
 537 0dd4 497823B9 		.ascii	"Ix#\271%\221<\236p\202z<a\233e0\227\002\354*\015\266"
 537      25913C9E 
 537      70827A3C 
 537      619B6530 
 537      9702EC2A 
 538 0dea D30C98C1 		.ascii	"\323\014\230\301\303g\337\322`\273-\203))\273A\203E"
 538      C367DFD2 
 538      60BB2D83 
 538      2929BB41 
 538      8345
 539 0dfc CC80193C 		.ascii	"\314\200\031<|v\223\006\333g\031LIYu7\005\366\236\031"
 539      7C769306 
 539      DB67194C 
 539      49597537 
 539      05F69E19 
 540 0e10 3083676A 		.ascii	"0\203gjjh\260\017,\203))\253\245\301>6\003\346\322\240"
 540      6A68B00F 
 540      2C832929 
 540      ABA5C13E 
 540      3603E6D2 
 541 0e25 4CEB434F 		.ascii	"L\353CO\002\236\335\204\213\324f\364N[0\337\212\371"
 541      029EDD84 
 541      8BD466F4 
 541      4E5B30DF 
 541      8AF9
 542 0e37 76CC7760 		.ascii	"v\314w`\376\017\314wc\376&\346\315f\026\262\327\351"
 542      FE0FCC77 
 542      63FE26E6 
 542      CD6616B2 
 542      D7E9
 543 0e49 15A6B7BF 		.ascii	"\025\246\267\277\011odp\202\324\325{\340\331\357\363"
 543      096F6470 
 543      82D4D57B 
 543      E0D9EFF3 
 544 0e59 F073CFEA 		.ascii	"\360s\317\352\276\266\177'\356#\361\003\320-vs\017@"
 544      BEB67F27 
 544      EE23F103 
 544      D02D7673 
 544      0F40
 545 0e6b B7A97DC9 		.ascii	"\267\251}\311\245N\364%m\246\302\353+&\303\265\010K"
 545      A54EF425 
 545      6DA6C2EB 
 545      2B26C3B5 
 545      084B
 546 0e7d 4B27EA0B 		.ascii	"K'\352\013\333\036\024}\341{\350\013\3776 \241/T\342"
 546      DB1E147D 
 546      E17BE80B 
 546      FF3620A1 
 546      2F54E2
 547 0e90 E0F1A89A 		.ascii	"\340\361\250\232\376-\373\221\376\003\246|\341\366\375"
 547      FE2DFB91 
 547      FE03A67C 
 547      E1F6FD
ARM GAS  /tmp/ccMgF8O9.s 			page 43


 548 0e9f 4A5F1841 		.ascii	"J_\030A\022\016$\355\013\233\366\323\017\342Z\006s)"
 548      120E24ED 
 548      0B9BF6D3 
 548      0FE25A06 
 548      7329
 549 0eb1 C076D260 		.ascii	"\300v\322`\255f\300\214\036\304\245\301\336\265\014"
 549      AD66C08C 
 549      1EC4A5C1 
 549      DEB50C
 550 0ec0 A6A46C0F 		.ascii	"\246\244l\017\015v\320\014\230\321\203\2704\330\207"
 550      0D76D00C 
 550      98D183B8 
 550      34D887
 551 0ecf 96C15C5A 		.ascii	"\226\301\\Z\352e\342\254\203g\017\242\2238\204S\377"
 551      EA65E2AC 
 551      83670FA2 
 551      93388453 
 551      FF
 552 0ee0 03CC3FC4 		.ascii	"\003\314?\304\374#\314\217b\376\261\031\227\360.\355"
 552      FC23CC8F 
 552      62FEB119 
 552      97F02EED 
 553 0ef0 128E22C1 		.ascii	"\022\216\"\301m\311n(aF\177\362\333\235\361.A\224\207"
 553      6DC96E28 
 553      61467FF2 
 553      DB9DF12E 
 553      419487
 554 0f03 1E053D34 		.ascii	"\036\005=4\005\237X\246\300ES\020\271\336)\036\316\313"
 554      059F58A6 
 554      C0455310 
 554      B9DE291E 
 554      CECB
 555 0f15 AF9D7FA6 		.ascii	"\257\235\177\246\306\323:\2265\332\245tflzJ\006\373"
 555      C6D33A96 
 555      35DAA574 
 555      666C7A4A 
 555      06FB
 556 0f27 A765B054 		.ascii	"\247e\260T\005X\365~\012\354\212e0\275G\344\332\321"
 556      0558F57E 
 556      0AEC8A65 
 556      30BD47E4 
 556      DAD1
 557 0f39 163A50E7 		.ascii	"\026:P\347\335\230\367b~\012\363\317\224\033\356\233"
 557      DD98F762 
 557      7E0AF3CF 
 557      941BEE9B 
 558 0f49 2ABF243B 		.ascii	"*\277$;G\0125\346E\031\263\270z\272}\207\326\355\363"
 558      470A35E6 
 558      4519B3B8 
 558      7ABA7D87 
 558      D6EDF3
 559 0f5c 034D2C38 		.ascii	"\003M,8.}\353\352\352='-8\"0l\320-#*\255eiw\275\342"
 559      2E7DEBEA 
 559      EA3D272D 
 559      3822306C 
 559      D02D232A 
 560 0f76 E1F2D566 		.ascii	"\341\362\325f\360\014\236`X%\206\010\"\330\006\313`"
ARM GAS  /tmp/ccMgF8O9.s 			page 44


 560      F00C9E60 
 560      58258608 
 560      22D806CB 
 560      60
 561 0f87 2E46F743 		.ascii	".F\367C\277Y\006\033R\334 \255\306\015\322\3370\277"
 561      BF59061B 
 561      52DC20AD 
 561      C60DD2DF 
 561      30BF
 562 0f99 82F9ABA8 		.ascii	"\202\371\253\250\231\3270"
 562      99D730
 563 0fa0 7F1BF32F 		.ascii	"\177\033\363/0\377\012\363\257\315hl\031\375\200\343"
 563      30FF0AF3 
 563      AFCD686C 
 563      19FD80E3 
 564 0fb0 6664A136 		.ascii	"fd\2416\331\007\363z>\375\362\200\255N\210\314\262\211"
 564      D907F37A 
 564      3EFDF280 
 564      AD4E88CC 
 564      B289
 565 0fc2 0F4E4244 		.ascii	"\017NBDm\031P\251\260\313\342\211\225\010\266\313\014"
 565      6D1950A9 
 565      B0CBE289 
 565      9508B6CB 
 565      0C
 566 0fd3 98D6DCA6 		.ascii	"\230\326\334\246\244*\312s)\312\363\005\361aP\224\325"
 566      A42ACA73 
 566      29CAF305 
 566      F1615094 
 566      D5
 567 0fe4 45E5ACD9 		.ascii	"E\345\254\331;0\356\234A\375xi\354\345E\306\010KO\356"
 567      3B30EE9C 
 567      41FD7869 
 567      ECE545C6 
 567      084B4FEE 
 568 0ff8 D531B9F3 		.ascii	"\3251\271\363\354e|/"
 568      EC657C2F 
 569 1000 CDCA5B9D 		.ascii	"\315\312[\235J1\365\265\310^P\374O\233w\221\374\004"
 569      4A31F5B5 
 569      C85E50FC 
 569      4F9B7791 
 569      FC04
 570 1012 AFE16A9D 		.ascii	"\257\341j\235\212i}\350\377\026\342\331\015\370^\320"
 570      8A697DE8 
 570      FF16E2D9 
 570      0DF85ED0 
 571 1022 2BF89AF8 		.ascii	"+\370\232\370\327\230\317A\326\027`\276\010\363\347"
 571      D798CF41 
 571      D61760BE 
 571      08F3E7
 572 1031 30BF6C46 		.ascii	"0\277lF\014\353b/\221\233\277\237w\255a\357\005\351"
 572      0CEB622F 
 572      919BBF9F 
 572      77AD61EF 
 572      05E9
 573 1043 9ED2557C 		.ascii	"\236\322U|\261p\351 \265\272,\336\317\273\233\251\027"
 573      B170E920 
ARM GAS  /tmp/ccMgF8O9.s 			page 45


 573      B5BA2CDE 
 573      CFBB9BA9 
 573      17
 574 1054 223D3D97 		.ascii	"\"==\227\032/\324\262\317\317\254l\025\316\221{\007"
 574      1A2FD4B2 
 574      CFCFAC6C 
 574      15CE917B 
 574      07
 575 1065 8A97E1CC 		.ascii	"\212\227\341\314\223\267d\373\321^\351\334\356;$\257"
 575      93B764FB 
 575      D15EE9DC 
 575      EE3B24AF 
 576 1075 6EB09ABC 		.ascii	"n\260\232\274\253vk\364\351\211\357\206}\210T\222\337"
 576      AB766BF4 
 576      E989EF86 
 576      7D885492 
 576      DF
 577 1086 BBE39875 		.ascii	"\273\343\230u\252\321\030\346_\231\227\004\241F\344"
 577      AAD118E6 
 577      5F999704 
 577      A146E4
 578 1095 EEFCDECA 		.ascii	"\356\374\336\312\241\"]\244\327u\373\335\232\234H\240"
 578      A1225DA4 
 578      D775FBDD 
 578      9A9C48A0 
 579 10a5 8243F197 		.ascii	"\202C\361\227W\242\224\"\215\373\026\246V\317\350\351"
 579      57A29422 
 579      8DFB16A6 
 579      56CFE8E9 
 580 10b5 EBBB5BF5 		.ascii	"\353\273[\365\266 A\325\243t\246#\236\322&\035J\205"
 580      B62041D5 
 580      A374A623 
 580      9ED2261D 
 580      4A85
 581 10c7 8657045B 		.ascii	"\206W\004[\214\310J\207!\221\2634\211lj\321$\322\302"
 581      8CC84A87 
 581      2191B334 
 581      896C6AD1 
 581      24D2C2
 582 10da 9BB6DB7B 		.ascii	"\233\266\333{G\342\335\306\271\016\362\242m\207\212"
 582      47E2DDC6 
 582      B90EF2A2 
 582      6D878A
 583 10e9 56932FDA 		.ascii	"V\223/\332.p\250^\264=^\341\022k\023\277f\373\376\340"
 583      2E70A85E 
 583      B43D5EE1 
 583      126B13BF 
 583      66FBFEE0 
 584 10fd F8D76C8F 		.ascii	"\370\327l\217\016\326|\315\366\324`\315\327l\277\036"
 584      0ED67CCD 
 584      F6D460CD 
 584      D76CBF1E 
 585 110d ACF99AED 		.ascii	"\254\371\232\355\265\301\326_\263\2151\302\263\013\035"
 585      B5C1D65F 
 585      B38D31C2 
 585      B30B1D
 586 111c C4072C72 		.ascii	"\304\007,rh\277f\253g\001s4,`\326\255\272\266\332\373"
ARM GAS  /tmp/ccMgF8O9.s 			page 46


 586      68BF66AB 
 586      67017334 
 586      2C60D6AD 
 586      BAB6DAFB 
 587 1130 E33AD10C 		.ascii	"\343:\321\014\346J\302\25226\203e\232fp\264]\307V\011"
 587      E64AC2AA 
 587      32368365 
 587      9A6670B4 
 587      5DC75609 
 588 1144 AA1EA52B 		.ascii	"\252\036\245+4(]\252C\251\240$\262\316\230\310\225\232"
 588      34285DAA 
 588      43A9A024 
 588      B2CE98C8 
 588      959A
 589 1156 44D67426 		.ascii	"D\326t&Ad\275C\365\376\355U\324r\354\277a\024\014 \017"
 589      4164BD43 
 589      F5FEED55 
 589      D472ECBF 
 589      61140C20 
 590 116b 1B543CFC 		.ascii	"\033T<\374\214\371+p\020Y\266x\321\355\302S\262/\335"
 590      8CF92B70 
 590      1059B678 
 590      D1EDC253 
 590      B22FDD
 591 117e 818D56EB 		.ascii	"\201\215V\353\360!\271.\251g]\347\"\210\2478\351\204"
 591      F021B92E 
 591      A9675DE7 
 591      2288A738 
 591      E984
 592 1190 78B7BAA7 		.ascii	"x\267\272\247\202f\231&Ql\221%\235\013o\237\377TLpz"
 592      82669926 
 592      516C9125 
 592      9D0B6F9F 
 592      FF544C70 
 593 11a5 034ADCAE 		.ascii	"\003J\334\256\213\027\334\332\236\310*\037z\352\347"
 593      8B17DCDA 
 593      9EC82A1F 
 593      7AEAE7
 594 11b4 5C161CD1 		.ascii	"\\\026\034\321+ZrS\011j\257\266\240\326\234ib\005\247"
 594      2B5A7253 
 594      096AAFB6 
 594      A0D69C69 
 594      6205A7
 595 11c7 2CA843D8 		.ascii	",\250C\330h\203\261\240$~+#\253?mZ\207\235e\257\246"
 595      6883B1A0 
 595      247E2B23 
 595      AB3F6D5A 
 595      879D65AF 
 596 11dc D75122F3 		.ascii	"\327Q\"\3635M\206\033!\036\"\206\262\346a\221\021\216"
 596      354D861B 
 596      211E2286 
 596      B2E66191 
 596      118E
 597 11ee 39AC4DEA 		.ascii	"9\254M\352\326\252\230Nyv\243\203\304\027\015&I\335"
 597      D6AA984E 
 597      7976A383 
 597      C4170D26 
ARM GAS  /tmp/ccMgF8O9.s 			page 47


 597      49DD
 598 1200 B24F548D 		.ascii	"\262OT\215L\251^?\211\32274)%\017\227\211\224Z\260\351"
 598      4CA95E3F 
 598      89D23734 
 598      29250F97 
 598      89945AB0 
 599 1215 2D0636AD 		.ascii	"-\0066\255\332a^5P\3616\207\306\177H\231\177\014\341"
 599      DA615E35 
 599      50F13687 
 599      C67F4899 
 599      7F0CE1
 600 1228 5AC31717 		.ascii	"Z\303\027\027\245\360\242\311A4}\362V\365\372\235\324"
 600      A5F0A2C9 
 600      41347DF2 
 600      56F5FA9D 
 600      D4
 601 1239 DFB15925 		.ascii	"\337\261Y%$r\261\211\334\371\332\2054\234\211\243\301"
 601      2472B189 
 601      DCF9DA85 
 601      349C89A3 
 601      C1
 602 124a A1A2C1A1 		.ascii	"\241\242\301\241\244\301\221\026+\304hP\031\372\327"
 602      A4C19116 
 602      2BC46850 
 602      19FAD7
 603 1259 9AD603DE 		.ascii	"\232\326\003\336\367\213\037\257h\020\210c\243\015\250"
 603      F78B1FAF 
 603      68108863 
 603      A30DA8
 604 1268 D19453D8 		.ascii	"\321\224S\330\335\"9\005\242\006\000WwUy\005T\226\324"
 604      DD223905 
 604      A2060057 
 604      77557905 
 604      5496D4
 605 127b 750F184D 		.ascii	"u\017\030MT\352W\2216\375\216\244\225\334\361\340\034"
 605      54EA5791 
 605      36FD8EA4 
 605      95DCF1E0 
 605      1C
 606 128c 694C5158 		.ascii	"iLQX}\011\272\356r\320\366\276\243E\351\212\364\330"
 606      7D09BAEE 
 606      72D0F6BE 
 606      A345E98A 
 606      F4D8
 607 129e 9404F8A6 		.ascii	"\224\004\370\246\246\275\037mO\302\336[\315\332\273"
 607      A6BD1F6D 
 607      4FC2DE5B 
 607      CDDABB
 608 12ad A9FF5DBB 		.ascii	"\251\377]\273f\377\036\377\273\326\2415g$!S\337%\311"
 608      66FF1EFF 
 608      BBD6A135 
 608      67242153 
 608      DF25C9
 609 12c0 A9CC68F6 		.ascii	"\251\314h\366m\232N\350\370\374x'\324b\312\206\272\333"
 609      6D9A4EE8 
 609      F8FC7827 
 609      D462CA86 
ARM GAS  /tmp/ccMgF8O9.s 			page 48


 609      BADB
 610 12d2 6B457D76 		.ascii	"kE}vP6\324\242\253\317\016\312\206\316\267K\246\320"
 610      5036D4A2 
 610      ABCF0ECA 
 610      86CEB74B 
 610      A6D0
 611 12e4 8413E2AD 		.ascii	"\204\023\342\255\004]i+\2728\237\262\"\236}'AW\245\025"
 611      045D692B 
 611      BA389FB2 
 611      229E7D27 
 611      4157A515 
 612 12f8 1D6B575A 		.ascii	"\035kWZ\221\036\243\222\274\367kZQMg\022V\364\241a$"
 612      911EA392 
 612      BCF76B5A 
 612      514D6712 
 612      56F4A161 
 613 130d 20F976E3 		.ascii	" \371v\343\310\240Z[\201K\027\307+\260\313\224\002_"
 613      C8A05A5B 
 613      814B17C7 
 613      2BB0CB94 
 613      025F
 614 131f E8CC182E 		.ascii	"\350\314\030.\367\373\253\205~tD!\353\275\313LDQ\031"
 614      F7FBAB85 
 614      7E744421 
 614      EBBDCB4C 
 614      445119
 615 1332 1751E80D 		.ascii	"\027Q\350\015(I\355h\274\0026\365D\216\354\357`!\250"
 615      2849ED68 
 615      BC0236F5 
 615      448EECEF 
 615      6021A8
 616 1345 BB415E6D 		.ascii	"\273A^mW\251\200X\212\236\012z4\"\306\225\267iF\214"
 616      57A98058 
 616      8A9E0A7A 
 616      3422C695 
 616      B769468C 
 617 1359 9542E32B 		.ascii	"\225B\343+B\232<\263x\266[\207;\011\357\223x2{\252{"
 617      429A3CB3 
 617      78B65B87 
 617      3B09EF93 
 617      78327BAA 
 618 136e DE79B399 		.ascii	"\336y\263\231\255\023\366\316\022\372\372\376\242\246"
 618      AD13F6CE 
 618      12FAFAFE 
 618      A2A6
 619 137c D3E83F04 		.ascii	"\323\350?\004O\251M\205\354\277\325Qb\034\335b\323\317"
 619      4FA94D85 
 619      ECBFD551 
 619      621CDD62 
 619      D3CF
 620 138e B428897C 		.ascii	"\264(\211|\334\261P`\305\340U\204\207\350I\007\340s"
 620      DCB15060 
 620      C5E05584 
 620      87E84907 
 620      E073
 621 13a0 4D800BF1 		.ascii	"M\200\013\361\000\037\351\000|\241\011p4\006`A\022_"
 621      001FE900 
ARM GAS  /tmp/ccMgF8O9.s 			page 49


 621      7CA10970 
 621      34066041 
 621      125F
 622 13b2 694922FA 		.ascii	"iI\"\372E\372\277O\225d\316\352\320uV\223\256\217\222"
 622      45FABF4F 
 622      9564CEEA 
 622      D0755693 
 622      AE8F92
 623 13c5 A2EBBC21 		.ascii	"\242\353\274!]Z\177\203\31113\206h\323\365\215&]\347"
 623      5D5A7F83 
 623      C9313386 
 623      68D3F58D 
 623      265DE7
 624 13d8 92A2EBB2 		.ascii	"\222\242\353\262!]\2075\345\265\\\207\256k\232t\235"
 624      215D8735 
 624      E5B55C87 
 624      AE6B9A74 
 624      9D
 625 13e9 A00DE13C 		.ascii	"\240\015\341<\032\302\353:\000\327\225\000?e\326\221"
 625      1AC2EB3A 
 625      00D79500 
 625      3F65D691 
 626 13f9 4971A9B1 		.ascii	"Iq\251\261}=[#\254m\205mv_\037{\267\374\017\333oEQ$"
 626      7D3D5B23 
 626      AC6D856D 
 626      765F1F7B 
 626      B7FC0FDB 
 627 1411 E6E2FF3D 		.ascii	"\346\342\377=\373\273\030\240*\316$\026\251'\223\233"
 627      FBBB18A0 
 627      2ACE2416 
 627      A927939B 
 628 1421 B135D3C5 		.ascii	"\2615\323\305\254!\021\333\356EB:\207/\240\312\247+"
 628      AC2111DB 
 628      EE45423A 
 628      872FA0CA 
 628      A72B
 629 1433 8CB245B5 		.ascii	"\214\262E\2650\333\360\367\310\241*\032\201\034}\030"
 629      30DBF0F7 
 629      C8A12A1A 
 629      811C7D18 
 630 1443 2124FABD 		.ascii	"!$\372\275*\301\357u\364\357\346\377q\344ZCo%+\336\375"
 630      2AC1EF75 
 630      F4EFE6FF 
 630      71E45A43 
 630      6F252BDE 
 631 1458 9CED24BF 		.ascii	"\234\355$\277\264\015QG\247V\377sD%v\002\253'\366\271"
 631      B40D5147 
 631      A756FF73 
 631      44257602 
 631      AB27F6B9 
 632 146c 4E95D889 		.ascii	"N\225\330\211\346\037\230\031\251d\243|\255\216\347"
 632      E61F9819 
 632      A964A37C 
 632      AD8EE7
 633 147b 3B72ACB3 		.ascii	";r\254\263r-\211\247\365\233(D\243\005\261s1\255\034"
 633      722D89A7 
 633      F59B2844 
ARM GAS  /tmp/ccMgF8O9.s 			page 50


 633      A305B173 
 633      31AD1C
 634 148e 450B15FD 		.ascii	"E\013\025\375\344`N\217\376Ej\372\025\343n\320\030W"
 634      E4604E8F 
 634      FE456AFA 
 634      15E36ED0 
 634      1857
 635 14a0 69561B0C 		.ascii	"iV\033\014\306\235i`\256\325\206\3436h\214\2534\306"
 635      C69D6960 
 635      AED586E3 
 635      36688CAB 
 635      34C6
 636 14b2 068371CF 		.ascii	"\006\203q\317\033\214\273$6\256\252\327W\006\275ju{"
 636      1B8CBB24 
 636      36AEAAD7 
 636      5706BD6A 
 636      757B
 637 14c4 CD31E8B5 		.ascii	"\3151\350\265\324\220\307F\015\036\217\316\241yl4\340"
 637      D490C746 
 637      0D1E8FCE 
 637      A1796C34 
 637      E0
 638 14d5 F1B2C1B8 		.ascii	"\361\262\301\270\313u\251]a\320\253\316\220\332\026"
 638      CB75A95D 
 638      61D0ABCE 
 638      90DA16
 639 14e4 0D6A6FCC 		.ascii	"\015jo\314\247\251m1\240\266\336`\334U\206\343vi\214"
 639      A7A96D31 
 639      A0B6DE60 
 639      DC5586E3 
 639      76698C
 640 14f7 DBA8B07C 		.ascii	"\333\250\260|E\013\346\336\254\251\201\022_\2267P8="
 640      450BE6DE 
 640      ACA98112 
 640      5F963750 
 640      383D
 641 1509 ABD0372D 		.ascii	"\253\3207-\313;\325?\331\037\010e\205\203\345\245Og"
 641      CB3BD53F 
 641      D91F0865 
 641      8583E5A5 
 641      4F67
 642 151b 41612A5F 		.ascii	"Aa*_\234\345/\365\026\227\027\372\262JJ\274\236P\231"
 642      9CE52FF5 
 642      169717FA 
 642      B24A4ABC 
 642      9E5099
 643 152e 7FD85426 		.ascii	"\177\330T&m\374\370\234\334\240\177\232/\350|l\302$"
 643      6DFCF89C 
 643      DCA07F9A 
 643      2FE87C6C 
 643      C224
 644 1540 570E9319 		.ascii	"W\016\223\031\255\370\375\370\002\207\347\221@\2408"
 644      ADF8FDF8 
 644      0287E791 
 644      40A038
 645 154f C31FF2F8 		.ascii	"\303\037\362\370KC\276`\330W\230\011\345\262` \354\363"
 645      4B43BE60 
ARM GAS  /tmp/ccMgF8O9.s 			page 51


 645      D8579809 
 645      E5B26020 
 645      ECF3
 646 1561 C297146F 		.ascii	"\302\227\024o\240\264\024J\351\205\376\220T\374YVy("
 646      A0B4144A 
 646      E985FE90 
 646      54FC5956 
 646      7928
 647 1573 98C5074B 		.ascii	"\230\305\007K~U\032(\365\375\312\307O\366GG\015\205"
 647      7E551A28 
 647      F5FDCAC7 
 647      4FF64747 
 647      0D85
 648 1585 0BFDA561 		.ascii	"\013\375\245a\0304\265\034\256#Gx\302\243\014Z\227\360"
 648      1834B51C 
 648      AE234778 
 648      C2A30C5A 
 648      97F0
 649 1597 C042A92F 		.ascii	"\300B\251/\313S\350+\342\313\213\303\236\360\3642_\010"
 649      CB53E82B 
 649      E2CB8BC3 
 649      9EF0F432 
 649      5F08
 650 15a9 7AA77B3C 		.ascii	"z\247{<r\377\024R\270\337\023N\023\253\240d\017\372"
 650      72FF1452 
 650      B8DF134E 
 650      13ABA064 
 650      0FFA
 651 15bb F842C733 		.ascii	"\370B\3073A\177\330g\017M/\365\376\306\212X\240\354"
 651      417FD867 
 651      0F4D2FF5 
 651      FEC68A58 
 651      A0EC
 652 15cd F1072617 		.ascii	"\361\007&\027\007\274O\3038\375\037!\205\\\3374\277"
 652      07BC4FC3 
 652      38FD1F21 
 652      855CDF34 
 652      BF
 653 15de D737B6B4 		.ascii	"\3277\266\264(\220:\271\370iO\310\377\337\276\024R("
 653      28903AB9 
 653      F8694FC8 
 653      FFDFBE14 
 653      5228
 654 15f0 2D2F499D 		.ascii	"-/I\235\342\013\203`\212\002\266i%\341t\250\014\205"
 654      E20B8360 
 654      8A02B669 
 654      25E174A8 
 654      0C85
 655 1602 F9B0CF13 		.ascii	"\371\260\317\023N\177d\334\357<\223&\214\2350\266 \225"
 655      4E7F64DC 
 655      EF3C9326 
 655      8C9D30B6 
 655      2095
 656 1614 14F30B26 		.ascii	"\024\363\013&\346a\335\350\234\202\261\277\037\323\217"
 656      E661DDE8 
 656      9C82B1BF 
 656      1FD38F
ARM GAS  /tmp/ccMgF8O9.s 			page 52


 657 1623 1473264E 		.ascii	"\024s&N\2300\006\276Nxl \371\232;6?V\223Fj\334cF\347"
 657      983006BE 
 657      4E786C20 
 657      F99A3B36 
 657      3F569346 
 658 163c 3E992197 		.ascii	">\231!\227\240\026\313O\270\307\026\310\345\374''\344"
 658      A016CB4F 
 658      B8C716C8 
 658      E5FC2727 
 658      E4
 659 164d 40D981A3 		.ascii	"@\331\201\243\332\274\376B\2337T\230\352\345\313x\257"
 659      DABCFE42 
 659      9B375498 
 659      EAE5CB78 
 659      AF
 660 165e 3F3C3DD7 		.ascii	"?<=\327\014\343e\201`8\224\225_0~\344\210\254q\343r"
 660      0CE36581 
 660      60389495 
 660      5F307EE4 
 660      88AC71E3 
 661 1673 B3F2F3C6 		.ascii	"\263\362\363\306N\313\316\002\313\360\024\027\027\022"
 661      4ECBCE02 
 661      CBF01417 
 661      1712
 662 1681 EB800AD1 		.ascii	"\353\200\012\321\030FX\221\243hZ\351p\221%\0028\262"
 662      18465891 
 662      A3685AE9 
 662      70912502 
 662      38B2
 663 1693 44489148 		.ascii	"DH\221H\204`\213\\\342\257\242l2I1g\342\370\274qc\012"
 663      84608B5C 
 663      E2AFA26C 
 663      32493167 
 663      E2F8BC71 
 664 16a9 C6DC0200 		.ascii	"\306\334\002\000^\276\270x2\357}\332\023v\372J\013="
 664      5EBEB878 
 664      32EF7DDA 
 664      1376FA4A 
 664      0B3D
 665 16bb DEC96392 		.ascii	"\336\311c\222\341\353\261\274\261\023\247\215\310*\003"
 665      E1EBB1BC 
 665      B113A78D 
 665      C82A03
 666 16ca FD8A8C65 		.ascii	"\375\212\214e\206\302%`@S\312\374\001O\3301~b\356\030"
 666      86C22560 
 666      4053CAFC 
 666      014FD831 
 666      7E62EE18 
 667 16de B77362C1 		.ascii	"\267sb\301\223yc\334)\023\363\363\306\214\311u;\362"
 667      937963DC 
 667      2913F3F3 
 667      C68CC975 
 667      3BF2
 668 16f0 26E5E5BA 		.ascii	"&\345\345\272mc!M\314u\263O\240\315f\337\013\274\210"
 668      6D63214D 
 668      CC75B34F 
 668      A0CD66DF 
ARM GAS  /tmp/ccMgF8O9.s 			page 53


 668      0BBC88
 669 1703 B6468AB6 		.ascii	"\266F\212\266\220/\354\360\026\373\370 \373\270\375"
 669      902FECF0 
 669      16FBF820 
 669      FBB8FD
 670 1712 917CB7DB 		.ascii	"\221|\267\333>.\347wn\373\350G\335\343H\366\270\355"
 670      3E2EE777 
 670      6EFBE847 
 670      DDE348F6 
 670      B8ED
 671 1724 11B73BDD 		.ascii	"\021\267;\335\037 \324\370\013\201\203P\210\024\035"
 671      1F20D4F8 
 671      0B818350 
 671      88141D
 672 1733 70E14159 		.ascii	"p\341AY\301l\"\202\234@i\221\177\212\323\213\227\373"
 672      C16C2282 
 672      9C406991 
 672      7F8AD38B 
 672      97FB
 673 1745 1331170C 		.ascii	"\0231\027\014G\205\354\235\032\232\036\222\347Djx*1"
 673      4785EC9D 
 673      1A9A1E92 
 673      E7446A78 
 673      2A31
 674 1757 7C9809DE 		.ascii	"|\230\011\336\251\036\261<\312\032\226w*\221\213\263"
 674      A91EB13C 
 674      CA1A9677 
 674      2A918BB3 
 675 1767 CC53EAAB 		.ascii	"\314S\352\253\010\303\245,\350\233\366\270\011\010Q"
 675      08C3A52C 
 675      E89BF6B8 
 675      090851
 676 1776 D4A3DDE3 		.ascii	"\324\243\335\343s\306W@\313\2222\177\261/\030\312z,"
 676      73C65740 
 676      CB92327F 
 676      B12F18CA 
 676      7A2C
 677 1788 27079ACB 		.ascii	"'\007\232\313\344\245\204\313\202D\322\210\353\017\020"
 677      E4A584CB 
 677      8244D288 
 677      EB0F10
 678 1797 BF118661 		.ascii	"\277\021\206a\036\260\214?\325\033\010\372\0000\203"
 678      1EB08C3F 
 678      D51B08FA 
 678      003083
 679 17a6 54C3DC0B 		.ascii	"T\303\334\013{\303\025\377\221\034\212g\332}%DrA\337"
 679      7BC315FF 
 679      911C8A67 
 679      DA7D2544 
 679      7241DF
 680 17b9 14704044 		.ascii	"\024p@D\231\331\367B\272\017\322\375\220\036\260\205"
 680      99D9F742 
 680      BA0FD2FD 
 680      901EB085 
 681 17c9 460C8794 		.ascii	"F\014\207\224\015i\004"
 681      0D6904
 682 17d0 A4919046 		.ascii	"\244\221\220FA\3725$h7\002\332\215\200v#\240\335Hh7"
ARM GAS  /tmp/ccMgF8O9.s 			page 54


 682      41FA3524 
 682      683702DA 
 682      8D807623 
 682      A0DD4868 
 683 17e5 329B0B8E 		.ascii	"2\233\013\216\342\202\277\346\202\367r\301\373\270\340"
 683      E282BFE6 
 683      82F772C1 
 683      FBB8E0
 684 17f4 FD5CF001 		.ascii	"\375\\\360\001[0{8\244l\2568\010\227\221\2162\017P\233"
 684      5B307B38 
 684      A46CAE38 
 684      0897918E 
 684      320F509B 
 685 1808 4224FC8C 		.ascii	"B$\374\214/\010\327@q\241/h\367N\345\203D\354|\211/"
 685      2F08D740 
 685      71A12F68 
 685      F74EE583 
 685      44EC7C89 
 686 181d 352CCD17 		.ascii	"5,\315\027\370\021K)\341\222@\241\370\275\250\230\237"
 686      F8114B29 
 686      E19240A1 
 686      F8BDA898 
 686      9F
 687 182e 124A0907 		.ascii	"\022J\011\007}E!\224#)8JBS\340G\311\031\202\023\224"
 687      7D452194 
 687      2329384A 
 687      4253E047 
 687      C9198213 
 688 1843 4ACE60E1 		.ascii	"J\316`\341t\370)\325W\341\017\203X|\316g\302\201\311"
 688      74F829D5 
 688      57E10F83 
 688      587CCE67 
 688      C281C9
 689 1856 7F2CCBF0 		.ascii	"\177,\313\360M\363\225\206K\370\020\316\246gH\301V\346"
 689      4DF39586 
 689      4BF810CE 
 689      A66748C1 
 689      56E6
 690 1868 29EF27DA 		.ascii	")\357'\332K\310S\014\323\325\023\356\037\265 \261&\255"
 690      4BC8530C 
 690      D3D513EE 
 690      1FB520B1 
 690      26AD
 691 187a CCF30CEF 		.ascii	"\314\363\014\357\017\373K\247\364\227\253\377T\356+"
 691      0FFB4BA7 
 691      F497ABFF 
 691      54EE2B
 692 1889 07AA0650 		.ascii	"\007\252\006P-\261*\275\314\003\303b\321\201E\250\360"
 692      2DB12ABD 
 692      CC03C362 
 692      D18145A8 
 692      F0
 693 189a 95C1BC85 		.ascii	"\225\301\274\205\316\216\222rP\371HKFY\022\256 \306"
 693      CE8E9272 
 693      50F9484B 
 693      465912AE 
 693      20C6
ARM GAS  /tmp/ccMgF8O9.s 			page 55


 694 18ac 5322A2C3 		.ascii	"S\"\242\3035\360L)H\016\221\200\205\022\264U\240\017"
 694      35F04C29 
 694      480E9180 
 694      8512B455 
 694      A00F
 695 18be DA114AD3 		.ascii	"\332\021J\323\211T\370b\2640\250,\203\245\353>K\343"
 695      8954F862 
 695      B430A82C 
 695      83A5EB3E 
 695      4BE3
 696 18d0 49CCC098 		.ascii	"I\314\300\230\203\244\371\004R\366\005}\245^\340\326"
 696      83A4F904 
 696      52F6057D 
 696      A55EE0D6 
 697 18e0 2956FD36 		.ascii	")V\3756\021\"\220\224\2253>\177l>\370\237,t3E\243\206"
 697      11229094 
 697      95333E7F 
 697      6C3EF89F 
 697      2C743345 
 698 18f6 6757A0D5 		.ascii	"gW\240\325\022\357V\000s\"\327Wd\313qgC\032\301\345"
 698      12EF5600 
 698      7322D757 
 698      64CB7167 
 698      431AC1E5 
 699 190a BB39F036 		.ascii	"\2739\36069\356\234<\267\323\375\007\270\272\235\005"
 699      39EE9C3C 
 699      B7D3FD07 
 699      B8BA9D05 
 700 191a 7849193B 		.ascii	"xI\031;\"?\347\321\307\334\016\270\346\271m\340\014"
 700      223FE7D1 
 700      C7DC0EB8 
 700      E6B96DE0 
 700      0C
 701 192b 1FB5EAFB 		.ascii	"\037\265\352\3730\177tTE\205H\210\247\260\204'\314\345"
 701      307F7454 
 701      45854888 
 701      A7B08427 
 701      CCE5
 702 193d 8E1FEDC9 		.ascii	"\216\037\355\311\007S\342Kdj\270\034\267}Bn\201\333"
 702      0753E24B 
 702      646AB81C 
 702      B77D426E 
 702      81DB
 703 194f 9637DA6D 		.ascii	"\2267\332m\037?\234d\331\243\335\266G\201\230\0206\264"
 703      1F3F9C64 
 703      D9A3DDB6 
 703      47819810 
 703      36B4
 704 1961 FB8BBC41 		.ascii	"\373\213\274A\247?4\325_\024N\013\371\212\213\374\245"
 704      A73F34D5 
 704      5F144E0B 
 704      F98A8BFC 
 704      A5
 705 1972 85BE0AE7 		.ascii	"\205\276\012\3474X\362\003\301AQt\217\330\032|*|\011"
 705      3458F203 
 705      C1415174 
 705      8FD81A7C 
ARM GAS  /tmp/ccMgF8O9.s 			page 56


 705      2A7C09
 706 1985 56903C5C 		.ascii	"V\220<\\\221\026\254\200+\261\344\264\260\\\262\003"
 706      9116AC80 
 706      2BB1E4B4 
 706      B05CB203 
 707 1995 3B658EE2 		.ascii	";e\216\342\220\267h\212c*\311I \"\372\302\376\270\000"
 707      90B7688A 
 707      632AC949 
 707      2022FAC2 
 707      FEB800
 708 19a8 7BF8C2C2 		.ascii	"{\370\302\302\240/\024\362\205\022:E\"\361\">\\\024"
 708      A02F14F2 
 708      85123A45 
 708      22F1223E 
 708      5C14
 709 19ba CA0A05BD 		.ascii	"\312\012\005\275\240\316\260o\212/\010|\332\037y\262"
 709      A0CEB06F 
 709      8A2F087C 
 709      DA1F79B2 
 710 19ca 604C4299 		.ascii	"`LB\231M\343\301^\312C\"\202g\262\037\255U\376\012\201"
 710      4DE3C15E 
 710      CA432282 
 710      67B21FAD 
 710      55FE0A81 
 711 19de CDD3FEC0 		.ascii	"\315\323\376\3000/\223\320\220\224DH\375\300xs\363\013"
 711      302F93D0 
 711      90944448 
 711      FDC07873 
 711      F30B
 712 19f0 46174CCA 		.ascii	"F\027L\312\037Bj`~\302D\342\213!\206\030V\306\007\303"
 712      1F426A60 
 712      7EC244E2 
 712      8B218618 
 712      56C607C3 
 713 1a04 C3860FC2 		.ascii	"\303\206\017\302j2\327\313CbUvJ\256{L\376\244q\005N"
 713      6A32D7CB 
 713      43625576 
 713      4AAE7B4C 
 713      FEA47105 
 714 1a19 B87826FE 		.ascii	"\270x&\376.\215\\\306\270\335\023\335Xz\302\235\347"
 714      2E8D5CC6 
 714      B8DD13DD 
 714      587AC29D 
 714      E7
 715 1a2a 2E4827A5 		.ascii	".H'\245\011\023\013\334\260v\222\"(\015Z\014@,b\243"
 715      09130BDC 
 715      B0769222 
 715      280D5A0C 
 715      402C62A3 
 716 1a3e 22D28881 		.ascii	"\"\322\210\201X\201\261\220X3R\254\361\007\274\341b"
 716      5881B190 
 716      583352AC 
 716      F107BCE1 
 716      62
 717 1a4f B16694CD 		.ascii	"\261f\224\315[Rh\237\\^T\324_E\240\275\25408-\203\""
 717      5B52689F 
 717      5C5E54D4 
ARM GAS  /tmp/ccMgF8O9.s 			page 57


 717      5F45A0BD 
 717      AC30382D 
 718 1a65 CF91FBC4 		.ascii	"\317\221\373\304Dw\256}\322\330\011\005i\321\221\234"
 718      4477AE7D 
 718      D2D80905 
 718      69D1919C 
 719 1a75 21340087 		.ascii	"!4\000\2077P^\212a\2404^zl\240\014\022%\201d\302\376"
 719      37505E8A 
 719      61A0345E 
 719      7A6CA00C 
 719      12258164 
 720 1a8b 12DF9D24 		.ascii	"\022\337\235$\360\204\025\330\003Q$\266\213\305\222"
 720      F08415D8 
 720      035124B6 
 720      8BC592
 721 1a9a B7C14FF9 		.ascii	"\267\301O\371\341@Y\276\017&{)!\302\015\370C\342j\237"
 721      E14059BE 
 721      0F267B29 
 721      21C20DF8 
 721      43E26A9F 
 722 1aae 20DD0692 		.ascii	" \335\006\222j\215\206\300\222\262z\220\242!\366\275"
 722      6A8D86C0 
 722      92B27A90 
 722      A221F6BD 
 723 1abe 3DBE25D6 		.ascii	"=\276%\326;H\340\233m'L\376\0372\321_("
 723      3B48E09B 
 723      6D274CFE 
 723      1F32D15F 
 723      28
 724              		.text
 725              		.section	.gnu.lto_.symtab.c86e906fd375542f,"",%progbits
 726 0000 6469736B 		.ascii	"disk_initialize\000\000\000\000\000\000\000\000\000"
 726      5F696E69 
 726      7469616C 
 726      697A6500 
 726      00000000 
 727 0018 000000A7 		.ascii	"\000\000\000\247\002\000\000disk_status\000\000\000"
 727      02000064 
 727      69736B5F 
 727      73746174 
 727      75730000 
 728 002d 00000000 		.ascii	"\000\000\000\000\000\000\000\000\000\256\002\000\000"
 728      00000000 
 728      00AE0200 
 728      00
 729 003a 6469736B 		.ascii	"disk_read\000\000\000\000\000\000\000\000\000\000\000"
 729      5F726561 
 729      64000000 
 729      00000000 
 729      00000000 
 730 004e 00B20200 		.ascii	"\000\262\002\000\000disk_write\000\000\000\000\000\000"
 730      00646973 
 730      6B5F7772 
 730      69746500 
 730      00000000 
 731 0063 00000000 		.ascii	"\000\000\000\000\000\000\307\002\000\000disk_ioctl\000"
 731      0000C702 
ARM GAS  /tmp/ccMgF8O9.s 			page 58


 731      00006469 
 731      736B5F69 
 731      6F63746C 
 732 0078 00000000 		.ascii	"\000\000\000\000\000\000\000\000\000\000\000\325\002"
 732      00000000 
 732      000000D5 
 732      02
 733 0085 00006765 		.ascii	"\000\000get_fattime\000\000\000\000\000\000\000\000"
 733      745F6661 
 733      7474696D 
 733      65000000 
 733      00000000 
 734 009a 00000000 		.ascii	"\000\000\000\000\337\002\000\000MMCD1\000\000\002\000"
 734      DF020000 
 734      4D4D4344 
 734      31000002 
 734      00
 735 00ab 00000000 		.ascii	"\000\000\000\000\000\000\000\000\374\002\000\000mmc"
 735      00000000 
 735      FC020000 
 735      6D6D63
 736 00ba 5F6C6C64 		.ascii	"_lld_is_write_protected\000\000\002\000\000\000\000"
 736      5F69735F 
 736      77726974 
 736      655F7072 
 736      6F746563 
 737 00d8 00000000 		.ascii	"\000\000\000\000\000\343\002\000\000mmcStopSequenti"
 737      00E30200 
 737      006D6D63 
 737      53746F70 
 737      53657175 
 738 00f0 616C5265 		.ascii	"alRead\000\000\002\000\000\000\000\000\000\000\000\000"
 738      61640000 
 738      02000000 
 738      00000000 
 738      0000
 739 0102 E7020000 		.ascii	"\347\002\000\000mmcStopSequentialWrite\000\000\002\000"
 739      6D6D6353 
 739      746F7053 
 739      65717565 
 739      6E746961 
 740 0120 00000000 		.ascii	"\000\000\000\000\000\000\000\000\351\002\000\000mmc"
 740      00000000 
 740      E9020000 
 740      6D6D63
 741 012f 53657175 		.ascii	"SequentialRead\000\000\002\000\000\000\000\000\000\000"
 741      656E7469 
 741      616C5265 
 741      61640000 
 741      02000000 
 742 0147 0000EB02 		.ascii	"\000\000\353\002\000\000mmcStartSequentialRead\000\000"
 742      00006D6D 
 742      63537461 
 742      72745365 
 742      7175656E 
 743 0165 02000000 		.ascii	"\002\000\000\000\000\000\000\000\000\000\360\002\000"
 743      00000000 
ARM GAS  /tmp/ccMgF8O9.s 			page 59


 743      0000F002 
 743      00
 744 0172 006D6D63 		.ascii	"\000mmcSequentialWrite\000\000\002\000\000\000\000\000"
 744      53657175 
 744      656E7469 
 744      616C5772 
 744      69746500 
 745 018d 00000000 		.ascii	"\000\000\000\000\365\002\000\000mmcStartSequentialW"
 745      F5020000 
 745      6D6D6353 
 745      74617274 
 745      53657175 
 746 01a8 72697465 		.ascii	"rite\000\000\002\000\000\000\000\000\000\000\000\000"
 746      00000200 
 746      00000000 
 746      00000000 
 747 01b8 FA020000 		.ascii	"\372\002\000\000"
 748              		.text
 749              		.section	.gnu.lto_.opts,"",%progbits
 750 0000 272D6D63 		.ascii	"'-mcpu=cortex-m4' '-mfloat-abi=hard' '-mfpu=fpv4-sp"
 750      70753D63 
 750      6F727465 
 750      782D6D34 
 750      2720272D 
 751 0033 2D643136 		.ascii	"-d16' '-mno-thumb-interwork' '-mthumb' '-O2' '-fomi"
 751      2720272D 
 751      6D6E6F2D 
 751      7468756D 
 751      622D696E 
 752 0066 742D6672 		.ascii	"t-frame-pointer' '-falign-functions=16' '-ffunction"
 752      616D652D 
 752      706F696E 
 752      74657227 
 752      20272D66 
 753 0099 2D736563 		.ascii	"-sections' '-fdata-sections' '-fno-common' '-flto' "
 753      74696F6E 
 753      73272027 
 753      2D666461 
 753      74612D73 
 754 00cc 272D6673 		.ascii	"'-fsingle-precision-constant'\000"
 754      696E676C 
 754      652D7072 
 754      65636973 
 754      696F6E2D 
 755              		.text
 756              		.section	.text.disk_initialize,"ax",%progbits
 757              		.align	2
 758              		.p2align 4,,15
 759              		.global	disk_initialize
 760              		.thumb
 761              		.thumb_func
 762              		.type	disk_initialize, %function
 763              	disk_initialize:
 764              		@ args = 0, pretend = 0, frame = 0
 765              		@ frame_needed = 0, uses_anonymous_args = 0
 766 0000 10B5     		push	{r4, lr}
 767 0002 60B9     		cbnz	r0, .L9
ARM GAS  /tmp/ccMgF8O9.s 			page 60


 768 0004 0748     		ldr	r0, .L11
 769 0006 0479     		ldrb	r4, [r0, #4]	@ zero_extendqisi2
 770 0008 053C     		subs	r4, r4, #5
 771 000a 18BF     		it	ne
 772 000c 0124     		movne	r4, #1
 773 000e FFF7FEFF 		bl	mmc_lld_is_write_protected
 774 0012 10B1     		cbz	r0, .L4
 775 0014 44F00404 		orr	r4, r4, #4
 776 0018 E4B2     		uxtb	r4, r4
 777              	.L4:
 778 001a 2046     		mov	r0, r4
 779 001c 10BD     		pop	{r4, pc}
 780              	.L9:
 781 001e 0120     		movs	r0, #1
 782 0020 10BD     		pop	{r4, pc}
 783              	.L12:
 784 0022 00BF     		.align	2
 785              	.L11:
 786 0024 00000000 		.word	MMCD1
 787              		.size	disk_initialize, .-disk_initialize
 788 0028 AFF30080 		.section	.text.disk_status,"ax",%progbits
 788      AFF30080 
 789              		.align	2
 790              		.p2align 4,,15
 791              		.global	disk_status
 792              		.thumb
 793              		.thumb_func
 794              		.type	disk_status, %function
 795              	disk_status:
 796              		@ args = 0, pretend = 0, frame = 0
 797              		@ frame_needed = 0, uses_anonymous_args = 0
 798 0000 10B5     		push	{r4, lr}
 799 0002 60B9     		cbnz	r0, .L21
 800 0004 0748     		ldr	r0, .L22
 801 0006 0479     		ldrb	r4, [r0, #4]	@ zero_extendqisi2
 802 0008 053C     		subs	r4, r4, #5
 803 000a 18BF     		it	ne
 804 000c 0124     		movne	r4, #1
 805 000e FFF7FEFF 		bl	mmc_lld_is_write_protected
 806 0012 10B1     		cbz	r0, .L16
 807 0014 44F00404 		orr	r4, r4, #4
 808 0018 E4B2     		uxtb	r4, r4
 809              	.L16:
 810 001a 2046     		mov	r0, r4
 811 001c 10BD     		pop	{r4, pc}
 812              	.L21:
 813 001e 0120     		movs	r0, #1
 814 0020 10BD     		pop	{r4, pc}
 815              	.L23:
 816 0022 00BF     		.align	2
 817              	.L22:
 818 0024 00000000 		.word	MMCD1
 819              		.size	disk_status, .-disk_status
 820 0028 AFF30080 		.section	.text.disk_read,"ax",%progbits
 820      AFF30080 
 821              		.align	2
 822              		.p2align 4,,15
ARM GAS  /tmp/ccMgF8O9.s 			page 61


 823              		.global	disk_read
 824              		.thumb
 825              		.thumb_func
 826              		.type	disk_read, %function
 827              	disk_read:
 828              		@ args = 0, pretend = 0, frame = 8
 829              		@ frame_needed = 0, uses_anonymous_args = 0
 830 0000 10B5     		push	{r4, lr}
 831 0002 0C46     		mov	r4, r1
 832 0004 82B0     		sub	sp, sp, #8
 833 0006 10B1     		cbz	r0, .L38
 834 0008 0420     		movs	r0, #4
 835              	.L25:
 836 000a 02B0     		add	sp, sp, #8
 837              		@ sp needed
 838 000c 10BD     		pop	{r4, pc}
 839              	.L38:
 840 000e 1148     		ldr	r0, .L40
 841 0010 0179     		ldrb	r1, [r0, #4]	@ zero_extendqisi2
 842 0012 0529     		cmp	r1, #5
 843 0014 18BF     		it	ne
 844 0016 0320     		movne	r0, #3
 845 0018 F7D1     		bne	.L25
 846 001a 1146     		mov	r1, r2
 847 001c 0193     		str	r3, [sp, #4]
 848 001e FFF7FEFF 		bl	mmcStartSequentialRead
 849 0022 019B     		ldr	r3, [sp, #4]
 850 0024 68B9     		cbnz	r0, .L29
 851 0026 13B9     		cbnz	r3, .L31
 852 0028 0DE0     		b	.L30
 853              	.L39:
 854 002a 013B     		subs	r3, r3, #1
 855 002c 0BD0     		beq	.L30
 856              	.L31:
 857 002e 2146     		mov	r1, r4
 858 0030 0848     		ldr	r0, .L40
 859 0032 0193     		str	r3, [sp, #4]
 860 0034 FFF7FEFF 		bl	mmcSequentialRead
 861 0038 04F50074 		add	r4, r4, #512
 862 003c 019B     		ldr	r3, [sp, #4]
 863 003e 0028     		cmp	r0, #0
 864 0040 F3D0     		beq	.L39
 865              	.L29:
 866 0042 0120     		movs	r0, #1
 867 0044 E1E7     		b	.L25
 868              	.L30:
 869 0046 0348     		ldr	r0, .L40
 870 0048 02B0     		add	sp, sp, #8
 871              		@ sp needed
 872 004a BDE81040 		pop	{r4, lr}
 873 004e FFF7FEBF 		b	mmcStopSequentialRead
 874              	.L41:
 875 0052 00BF     		.align	2
 876              	.L40:
 877 0054 00000000 		.word	MMCD1
 878              		.size	disk_read, .-disk_read
 879 0058 AFF30080 		.section	.text.disk_write,"ax",%progbits
ARM GAS  /tmp/ccMgF8O9.s 			page 62


 879      AFF30080 
 880              		.align	2
 881              		.p2align 4,,15
 882              		.global	disk_write
 883              		.thumb
 884              		.thumb_func
 885              		.type	disk_write, %function
 886              	disk_write:
 887              		@ args = 0, pretend = 0, frame = 8
 888              		@ frame_needed = 0, uses_anonymous_args = 0
 889 0000 30B5     		push	{r4, r5, lr}
 890 0002 0C46     		mov	r4, r1
 891 0004 83B0     		sub	sp, sp, #12
 892 0006 10B1     		cbz	r0, .L57
 893 0008 0420     		movs	r0, #4
 894              	.L43:
 895 000a 03B0     		add	sp, sp, #12
 896              		@ sp needed
 897 000c 30BD     		pop	{r4, r5, pc}
 898              	.L57:
 899 000e 154D     		ldr	r5, .L60
 900 0010 2979     		ldrb	r1, [r5, #4]	@ zero_extendqisi2
 901 0012 0529     		cmp	r1, #5
 902 0014 18BF     		it	ne
 903 0016 0320     		movne	r0, #3
 904 0018 F7D1     		bne	.L43
 905 001a 2846     		mov	r0, r5
 906 001c 0192     		str	r2, [sp, #4]
 907 001e 0093     		str	r3, [sp]
 908 0020 FFF7FEFF 		bl	mmc_lld_is_write_protected
 909 0024 019A     		ldr	r2, [sp, #4]
 910 0026 08B1     		cbz	r0, .L58
 911 0028 0220     		movs	r0, #2
 912 002a EEE7     		b	.L43
 913              	.L58:
 914 002c 2846     		mov	r0, r5
 915 002e 1146     		mov	r1, r2
 916 0030 FFF7FEFF 		bl	mmcStartSequentialWrite
 917 0034 009B     		ldr	r3, [sp]
 918 0036 68B9     		cbnz	r0, .L47
 919 0038 13B9     		cbnz	r3, .L49
 920 003a 0DE0     		b	.L48
 921              	.L59:
 922 003c 013B     		subs	r3, r3, #1
 923 003e 0BD0     		beq	.L48
 924              	.L49:
 925 0040 2146     		mov	r1, r4
 926 0042 0848     		ldr	r0, .L60
 927 0044 0093     		str	r3, [sp]
 928 0046 FFF7FEFF 		bl	mmcSequentialWrite
 929 004a 04F50074 		add	r4, r4, #512
 930 004e 009B     		ldr	r3, [sp]
 931 0050 0028     		cmp	r0, #0
 932 0052 F3D0     		beq	.L59
 933              	.L47:
 934 0054 0120     		movs	r0, #1
 935 0056 D8E7     		b	.L43
ARM GAS  /tmp/ccMgF8O9.s 			page 63


 936              	.L48:
 937 0058 0248     		ldr	r0, .L60
 938 005a 03B0     		add	sp, sp, #12
 939              		@ sp needed
 940 005c BDE83040 		pop	{r4, r5, lr}
 941 0060 FFF7FEBF 		b	mmcStopSequentialWrite
 942              	.L61:
 943              		.align	2
 944              	.L60:
 945 0064 00000000 		.word	MMCD1
 946              		.size	disk_write, .-disk_write
 947 0068 AFF30080 		.section	.text.disk_ioctl,"ax",%progbits
 947      AFF30080 
 948              		.align	2
 949              		.p2align 4,,15
 950              		.global	disk_ioctl
 951              		.thumb
 952              		.thumb_func
 953              		.type	disk_ioctl, %function
 954              	disk_ioctl:
 955              		@ args = 0, pretend = 0, frame = 0
 956              		@ frame_needed = 0, uses_anonymous_args = 0
 957              		@ link register save eliminated.
 958 0000 08B1     		cbz	r0, .L72
 959              	.L70:
 960 0002 0420     		movs	r0, #4
 961 0004 7047     		bx	lr
 962              	.L72:
 963 0006 29B1     		cbz	r1, .L66
 964 0008 0229     		cmp	r1, #2
 965 000a FAD1     		bne	.L70
 966 000c 4FF40073 		mov	r3, #512
 967 0010 1380     		strh	r3, [r2]	@ movhi
 968 0012 7047     		bx	lr
 969              	.L66:
 970 0014 0846     		mov	r0, r1
 971 0016 7047     		bx	lr
 972              		.size	disk_ioctl, .-disk_ioctl
 973 0018 AFF30080 		.section	.text.get_fattime,"ax",%progbits
 973      AFF30080 
 974              		.align	2
 975              		.p2align 4,,15
 976              		.global	get_fattime
 977              		.thumb
 978              		.thumb_func
 979              		.type	get_fattime, %function
 980              	get_fattime:
 981              		@ args = 0, pretend = 0, frame = 0
 982              		@ frame_needed = 0, uses_anonymous_args = 0
 983              		@ link register save eliminated.
 984 0000 4FF40410 		mov	r0, #2162688
 985 0004 7047     		bx	lr
 986              		.size	get_fattime, .-get_fattime
 987              		.comm	__gnu_lto_v1,1,1
 988 0006 00BFAFF3 		.ident	"GCC: (GNU Tools for ARM Embedded Processors) 4.8.4 20140526 (release) [ARM/embedded-4_8-br
 988      0080AFF3 
 988      0080
ARM GAS  /tmp/ccMgF8O9.s 			page 64


ARM GAS  /tmp/ccMgF8O9.s 			page 65


DEFINED SYMBOLS
                            *ABS*:0000000000000000 fatfs_diskio.c
     /tmp/ccMgF8O9.s:757    .text.disk_initialize:0000000000000000 $t
     /tmp/ccMgF8O9.s:763    .text.disk_initialize:0000000000000000 disk_initialize
     /tmp/ccMgF8O9.s:786    .text.disk_initialize:0000000000000024 $d
     /tmp/ccMgF8O9.s:789    .text.disk_status:0000000000000000 $t
     /tmp/ccMgF8O9.s:795    .text.disk_status:0000000000000000 disk_status
     /tmp/ccMgF8O9.s:818    .text.disk_status:0000000000000024 $d
     /tmp/ccMgF8O9.s:821    .text.disk_read:0000000000000000 $t
     /tmp/ccMgF8O9.s:827    .text.disk_read:0000000000000000 disk_read
     /tmp/ccMgF8O9.s:877    .text.disk_read:0000000000000054 $d
     /tmp/ccMgF8O9.s:880    .text.disk_write:0000000000000000 $t
     /tmp/ccMgF8O9.s:886    .text.disk_write:0000000000000000 disk_write
     /tmp/ccMgF8O9.s:945    .text.disk_write:0000000000000064 $d
     /tmp/ccMgF8O9.s:948    .text.disk_ioctl:0000000000000000 $t
     /tmp/ccMgF8O9.s:954    .text.disk_ioctl:0000000000000000 disk_ioctl
     /tmp/ccMgF8O9.s:974    .text.get_fattime:0000000000000000 $t
     /tmp/ccMgF8O9.s:980    .text.get_fattime:0000000000000000 get_fattime
                            *COM*:0000000000000001 __gnu_lto_v1
     /tmp/ccMgF8O9.s:788    .text.disk_initialize:0000000000000028 $t
     /tmp/ccMgF8O9.s:820    .text.disk_status:0000000000000028 $t
     /tmp/ccMgF8O9.s:879    .text.disk_read:0000000000000058 $t
     /tmp/ccMgF8O9.s:947    .text.disk_write:0000000000000068 $t

UNDEFINED SYMBOLS
mmc_lld_is_write_protected
MMCD1
mmcStartSequentialRead
mmcSequentialRead
mmcStopSequentialRead
mmcStartSequentialWrite
mmcSequentialWrite
mmcStopSequentialWrite
