ARM GAS  /tmp/ccArUYnL.s 			page 1


   1              		.syntax unified
   2              		.cpu cortex-m4
   3              		.eabi_attribute 27, 3
   4              		.eabi_attribute 28, 1
   5              		.fpu fpv4-sp-d16
   6              		.eabi_attribute 20, 1
   7              		.eabi_attribute 21, 1
   8              		.eabi_attribute 23, 3
   9              		.eabi_attribute 24, 1
  10              		.eabi_attribute 25, 1
  11              		.eabi_attribute 26, 1
  12              		.eabi_attribute 30, 2
  13              		.eabi_attribute 34, 1
  14              		.eabi_attribute 18, 4
  15              		.thumb
  16              		.file	"hal.c"
  17              		.section	.gnu.lto_.jmpfuncs.39da33b5180d02e8,"",%progbits
  18 0000 789C6362 		.ascii	"x\234cb`b\300\006\024\2404#B\210\221\251\232\341W\303"
  18      6062C006 
  18      14A03423 
  18      428891A9 
  18      9AE157C3 
  19 0014 8C06814C 		.ascii	"\214\006\201LF\206\\\2308\000A\340\004\036"
  19      46865C98 
  19      380041E0 
  19      041E
  20              		.text
  21              		.section	.gnu.lto_.inline.39da33b5180d02e8,"",%progbits
  22 0000 789C6362 		.ascii	"x\234cb`b\300\006<\2404#\003\003\337s \011R\305\266"
  22      6062C006 
  22      3CA03423 
  22      0303DF73 
  22      200952C5 
  23 0015 401EAC98 		.ascii	"@\036\254\230\221\2138\202\211\033\244\037\314d\000"
  23      918B3882 
  23      891BA41F 
  23      CC6400
  24 0024 0094CD02 		.ascii	"\000\224\315\002~"
  24      7E
  25              		.text
  26              		.section	.gnu.lto_.pureconst.39da33b5180d02e8,"",%progbits
  27 0000 789C6362 		.ascii	"x\234cb`b`f\200\000F\006\011\000\000\203\000!"
  27      60626066 
  27      80004606 
  27      09000083 
  27      0021
  28              		.text
  29              		.section	.gnu.lto_halInit.39da33b5180d02e8,"",%progbits
  30 0000 789C6362 		.ascii	"x\234cb`b@\007\222@\374\220\221\201\301\000H32302M8"
  30      60624007 
  30      9240FC90 
  30      9181C100 
  30      48333233 
  31 0018 C7C0D0C8 		.ascii	"\307\300\320\310\301\304\310\010b002\32431\326G2\202"
  31      C1C4C808 
  31      62303032 
  31      D43331D6 
ARM GAS  /tmp/ccArUYnL.s 			page 2


  31      473282
  32 002b D5AE673A 		.ascii	"\325\256g:\360\340\377\377u?6>\234\305(\304\003\024"
  32      F0E0FFFF 
  32      753F363E 
  32      9CC528C4 
  32      0314
  33 003d 60656869 		.ascii	"`ehih\230\240\300\300\220\014V\020\002$A\272B\031\231"
  33      6898A0C0 
  33      C0900C56 
  33      10022441 
  33      BA421999 
  34 0051 4034F379 		.ascii	"@4\363y\206\346\007]\217\331\023\031\0272\262\002\245"
  34      86E6075D 
  34      8FD91319 
  34      1732B202 
  34      A5
  35 0062 AB197E35 		.ascii	"\253\031~5t4\010d2\002\225C\014\314\004\321\347\031"
  35      74340864 
  35      32029543 
  35      0CCC04D1 
  35      E719
  36 0074 5A1EF426 		.ascii	"Z\036\364&c(bJf\204\270\026$\"\221\311\310\234\313\310"
  36      6328624A 
  36      6684B816 
  36      242291C9 
  36      C89CCBC8 
  37 0088 005594C9 		.ascii	"\000U\224\311\310\002\322\326\374`\306a6l\2063#\033"
  37      C802D2D6 
  37      FC60C661 
  37      366C8633 
  37      231B
  38 009a DEBC600D 		.ascii	"\336\274`\01536E,(\212\036\234^\214\325(VTU7\261[\310"
  38      3336452C 
  38      288A1E9C 
  38      5E8CD528 
  38      56545537 
  39 00b1 86AAEACE 		.ascii	"\206\252\352\316c\254\252\330QU\275\302n\026\007\252"
  39      63ACAAD8 
  39      5155BDC2 
  39      6E1607AA 
  40 00c1 AACE56AC 		.ascii	"\252\316V\254\341\307\211\252j\306R\254fq!T]dh|0K\025"
  40      E1C789AA 
  40      6AC652AC 
  40      66712154 
  40      5D64687C 
  41 00d8 A6080242 		.ascii	"\246\010\002B\200\022\300x\002\005\263\236~F~n\252~"
  41      8012C078 
  41      0205B39E 
  41      7E467E6E 
  41      AA7E
  42 00ea 727E4AA5 		.ascii	"r~J\245~Jj\231~rFfRf~\261~IQi^\266>\220\221\221\230"
  42      7E4A6A99 
  42      7E724666 
  42      52667EB1 
  42      7E495169 
  43 0105 A35F5C94 		.ascii	"\243_\\\224\014\242\365\222\031\000\203\256\206\315"
  43      0CA2F592 
ARM GAS  /tmp/ccArUYnL.s 			page 3


  43      190083AE 
  43      86CD
  44              		.text
  45              		.section	.gnu.lto_.symbol_nodes.39da33b5180d02e8,"",%progbits
  46 0000 789C45CF 		.ascii	"x\234E\317\273\025\3020\020D\321\321\310\362\217\"("
  46      BB15C230 
  46      1044D1D1 
  46      C8F28F22 
  46      28
  47 0011 750C0263 		.ascii	"u\014\002c\210\250\200\304\2458\247\006|\234\022\022"
  47      88A880C4 
  47      A538A706 
  47      7C9C1212 
  48 0021 034270D8 		.ascii	"\003Bp\330M\356\276\315\226 \036\370\015_N\300\371\012"
  48      4DEEBECD 
  48      96201EF8 
  48      0D5F4EC0 
  48      F90A
  49 0033 4897C185 		.ascii	"H\227\301\205-\323\006w\242\334\367\332u\316\035)Z\015"
  49      2DD30677 
  49      A2DCF7DA 
  49      75CE1D29 
  49      5A0D
  50 0045 94B73A50 		.ascii	"\224\267:P\205UO\005\253=UZ\355\250\312*R\265\325\206"
  50      85554F05 
  50      AB3D555A 
  50      EDA8CA2A 
  50      52B5D586 
  51 0059 6AAC3AAA 		.ascii	"j\254:\252\375\227\307\012\361\366L\266\030\263\015"
  51      FD97C70A 
  51      F1F64CB6 
  51      18B30D
  52 0068 A66C8D25 		.ascii	"\246l\215%[!\316\037K\214\331\200)[`\311z\304\376\276"
  52      5B21CE1F 
  52      4B8CD980 
  52      295B60C9 
  52      7AC4FEBE 
  53 007c F6E9ED31 		.ascii	"\366\351\3551\2117\231wGl"
  53      89379977 
  53      476C
  54              		.text
  55              		.section	.gnu.lto_.refs.39da33b5180d02e8,"",%progbits
  56 0000 789C6362 		.ascii	"x\234cb`b`e\200\000F\006&F\006\000\000\237\000\016"
  56      60626065 
  56      80004606 
  56      26460600 
  56      009F000E 
  57              		.text
  58              		.section	.gnu.lto_.decls.39da33b5180d02e8,"",%progbits
  59 0000 789C9596 		.ascii	"x\234\225\226\177h\024G\024\307g\356\222K.I\323\022"
  59      7F681447 
  59      14C767EE 
  59      924B2E49 
  59      D312
  60 0012 A8542878 		.ascii	"\250T(x\226*TH\226&\266\264\377XlbU\032\233@+\364\277"
  60      962A5448 
  60      9626B6B4 
ARM GAS  /tmp/ccArUYnL.s 			page 4


  60      FF586C62 
  60      551A9B40 
  61 0029 6373BBF1 		.ascii	"cs\273\361\226\336\335\036{{\242\177uL\213\011\376!"
  61      96DEDD1E 
  61      7B7BA27F 
  61      754C8B09 
  61      FE21
  62 003b 3136DAD0 		.ascii	"16\332\320\240\227j\332X\354\017B\021\261!\\\225\320"
  62      A0976ADA 
  62      58EC0F42 
  62      11B1215C 
  62      95D0
  63 004d 887046AB 		.ascii	"\210pF\253Vm\322\236M5\325@\023\260\320H\205\353\233"
  63      566DD29E 
  63      4D35D540 
  63      13B0D048 
  63      85EB9B
  64 0060 D9BDDCEE 		.ascii	"\331\275\334\356\335\256\331\035x3s\273\363>\357;3o"
  64      DDAED91D 
  64      783373BB 
  64      F33EEF3B 
  64      336F
  65 0072 E6D6833C 		.ascii	"\346\326\203<h\014!\224\203\362U5B\007\275\010\236 "
  65      680C2194 
  65      83F25535 
  65      4207BD08 
  65      9E20
  66 0084 B4090C83 		.ascii	"\264\011\014\203\015!\255\300+\224\001\273\012v\015"
  66      0D21ADC0 
  66      2B9401BB 
  66      0A760D
  67 0093 EC06D84D 		.ascii	"\354\006\330M\260\333`\323`\277\201e\301\376\000\273"
  67      B0DB60D3 
  67      60BF8165 
  67      C1FE00BB 
  68 00a3 A7FBFE85 		.ascii	"\247\373\376\205\314\205\372\227\203=\000\273\0146\257"
  68      CC85FA97 
  68      833D00BB 
  68      0C36AF
  69 00b2 F3678B62 		.ascii	"\363g\213b\334\3239Y\235;\255\307\271\251\307\275\246"
  69      DCD33959 
  69      9D3BADC7 
  69      B9A9C7BD 
  69      A6
  70 00c3 EBB08A51 		.ascii	"\353\260\212Q\215\016\020\322ER\373\311\266\311\332"
  70      8D0E10D2 
  70      4552FBC9 
  70      B6C9DA
  71 00d2 3A748840 		.ascii	":t\210@I\021\202'k\021z\037\363\270\326\217\322U\254"
  71      49118227 
  71      6B117A1F 
  71      F3B8D68F 
  71      D255AC
  72 00e5 57E34723 		.ascii	"W\343G#\224\260\016\235$\2447;\221[M\312t\207\200\375"
  72      94B00E9D 
  72      24A4373B 
  72      915B4DCA 
ARM GAS  /tmp/ccArUYnL.s 			page 5


  72      748780FD 
  73 00f9 681E9FC0 		.ascii	"h\036\237\300\353\320\312\343\350\310a\\\2076\240S0"
  73      EBD0CAE3 
  73      E8C8615C 
  73      8736A053 
  73      30
  74 010a B01734AD 		.ascii	"\260\0274\255\307&\241,,I?\314\324\2202m(u\371\002o"
  74      C726A12C 
  74      2C493FCC 
  74      D490326D 
  74      2875F902 
  75 011f 4016652D 		.ascii	"@\026e-J\321\301\2172\203\230\244\316c\213\360Y\234"
  75      4AD1C18F 
  75      328398A4 
  75      CE638BF0 
  75      599C
  76 0131 0FFFFCF2 		.ascii	"\017\377\374\362\234\322W28\300\343S0\336\203\332\260"
  76      9CD25732 
  76      38C0E353 
  76      30DE83DA 
  76      B0
  77 0142 09BF2282 		.ascii	"\011\277\"\202\2529\015\236\232\223\256\366\260\246"
  77      AA390D9E 
  77      9A93AEF6 
  77      B0A6
  78 0150 F6B403B5 		.ascii	"\366\264\003\265]\351\243\231\301\325T\255\037\365\024"
  78      5DE9A399 
  78      C1D554AD 
  78      1FF514
  79 015f B664395A 		.ascii	"\266d9Z \037\254\254\260\007\375\335\023?\342.\330-"
  79      201FACAC 
  79      B007FDDD 
  79      133FE22E 
  79      D82D
  80 0171 1E7F0B6E 		.ascii	"\036\177\013n\036\324\215\315\252\235\243\256\034\030"
  80      1ED48DCD 
  80      AA9DA3AE 
  80      1C18
  81 017f 7B9D904A 		.ascii	"{\235\220J\036\2172\320D\021\210\307\025~\243d\366;"
  81      1E8F32D0 
  81      441188C7 
  81      157EA364 
  81      F63B
  82 0191 3F80D2D8 		.ascii	"?\200\322\330k\275C\317\306\323\310\355p\017\232bA\351"
  82      6BBD43CF 
  82      C6D3C8ED 
  82      700F9A62 
  82      41E9
  83 01a3 625909D5 		.ascii	"bY\011\325\273Z\321\007\230\0260{r\366\"&}5\371\305"
  83      BB5AD107 
  83      9816307B 
  83      72F62226 
  83      7D35F9C5 
  84 01b7 B8E11A17 		.ascii	"\270\341\032\0270\355\307\261LM/\237\207\3158\201U\332"
  84      30EDC7B1 
  84      4C4D2F9F 
  84      87CD3881 
ARM GAS  /tmp/ccArUYnL.s 			page 6


  84      55DA
  85 01c9 6A4B8F1A 		.ascii	"jK\217\032aw]\303\314\312\316\030a\363N`\317\330+;g"
  85      61775DC3 
  85      CCCACE18 
  85      61F34E60 
  85      CFD82B3B 
  86 01de 842DB886 		.ascii	"\204-\270\206\231\225\215\033a\3778\201=g\241\314\252"
  86      99958D1B 
  86      61FF3881 
  86      3D67A1CC 
  86      AA
  87 01ef 184F178F 		.ascii	"\030O\027\217\277\206K\205\307\337\340\265P\237a\365"
  87      BF864B85 
  87      C7DFE0B5 
  87      509F61F5 
  88 01ff 59569F63 		.ascii	"YV\237c\365\030\253\307Y\235\206z\271x\320#\246i\270"
  88      F518ABC7 
  88      599D867A 
  88      B978D023 
  88      A669B8
  89 0212 A0C97C8A 		.ascii	"\240\311|\212WJ2\222\356m\243\023\324\356\010\342q\002"
  89      574A3292 
  89      EE6DA313 
  89      D4EE08E2 
  89      7102
  90 0224 33CD3060 		.ascii	"3\3150`\202}j\200u;\202\275f\257\354;\003\354\240#X"
  90      827D6A80 
  90      753B82BD 
  90      66AFEC3B 
  90      03ECA023 
  91 0239 BBBDB2B3 		.ascii	"\273\275\262\263\006X\277#X\334^\331\242\0016\350\010"
  91      0658BF23 
  91      58DC5ED9 
  91      A20136E8 
  91      08
  92 024a D6832DA4 		.ascii	"\326\203-\244\031rA\313\202/Y\026\214\260}\276\300\352"
  92      197241CB 
  92      822F5916 
  92      8CB07DBE 
  92      C0EA
  93 025c 0956FFC4 		.ascii	"\011V\377\304\352\213\254\276d\336\377\023\236\342\213"
  93      EA8BACBE 
  93      64DEFF13 
  93      9EE28B
  94 026b 4DFB2B31 		.ascii	"M\373+1\260\207\227\363\014\271\243[e9E\014\341\352"
  94      B08797F3 
  94      0CB9A35B 
  94      6539450C 
  94      E1EA
  95 027d FC9035E8 		.ascii	"\374\2205\350\030Ie\263?\034\036\367\015\220\364\307"
  95      184965B3 
  95      3F1C1EF7 
  95      0D90F4C7 
  96 028d 2497FB10 		.ascii	"$\227\373\020\255B\375\354_w?\\\344*\2177=k\013\272"
  96      AD42FDEC 
  96      5F773F5C 
  96      E42A8F37 
ARM GAS  /tmp/ccArUYnL.s 			page 7


  96      3D6B0BBA 
  97 02a1 8C57E9BD 		.ascii	"\214W\351\275\235\336\374\204\246\213&\204\320z4Lyd"
  97      9DDEFC84 
  97      A68B2684 
  97      D07A344C 
  97      7964
  98 02b3 8478198D 		.ascii	"\204x\031\215\216\317\3405\346INa\217\361\001\325\225"
  98      8ECFE035 
  98      E6494E61 
  98      8FF101D5 
  98      95
  99 02c4 EDCD0E1C 		.ascii	"\355\315\016\034\235\331\207\017}\224\232$\213\364N"
  99      9DD9870F 
  99      7D949A24 
  99      8BF44E
 100 02d3 D6227AD0 		.ascii	"\326\"z\320\021oq\014\015\362\263%\344\277\333\377\326"
 100      116F710C 
 100      0DF2B325 
 100      E4BFDBFF 
 100      D6
 101 02e4 1F29618C 		.ascii	"\037)a\214\3300\256[2\256\177\266\320e!\344\276\015"
 101      D830AE5B 
 101      32AE7FB6 
 101      D06521E4 
 101      BE0D
 102 02f6 E4174BC8 		.ascii	"\344\027K\310\325\343sx\200\234\327V9\217\030.\263F"
 102      D5E37378 
 102      809CD756 
 102      398F182E 
 102      B346
 103 0308 DCB2448C 		.ascii	"\334\262D\214\315N\276]\202\270c\203\370\325\0221:7"
 103      CD4EBE5D 
 103      82B86383 
 103      F8D51231 
 103      3A37
 104 031a B5A30471 		.ascii	"\265\243\004q\274\334\0321c\211\030\234_z\251\004q\313"
 104      BCDC1A31 
 104      6389189C 
 104      5F7AA904 
 104      71CB
 105 032c 06F1BB25 		.ascii	"\006\361\273%\242oa\352\215\022\304'>k\304\035K\304"
 105      A26F61EA 
 105      8D12C427 
 105      3E6BC41D 
 105      4BC4
 106 033e 9F0B9770 		.ascii	"\237\013\227pO\037y\234\313y]\344\354\254\236\263^\366"
 106      4F1F799C 
 106      CB795DE4 
 106      ECAC9EB3 
 106      5EF6
 107 0350 99AC9F86 		.ascii	"\231\254\237\206B\002#\232\303\2036:\356Z\352\370\376"
 107      4202239A 
 107      C383363A 
 107      EE5AEAF8 
 107      FE
 108 0361 E1D212EE 		.ascii	"\341\322\022\356+\311\215\005\033\310\234\031\362\002"
 108      2BC98D05 
ARM GAS  /tmp/ccArUYnL.s 			page 8


 108      1BC89C19 
 108      F202
 109 036f 1A228BF0 		.ascii	"\032\"\213\360\371\372\367\005\357>\272\036t>\030$\177"
 109      F9FAF705 
 109      EF3EBA1E 
 109      743E1824 
 109      7F
 110 0380 CE6EA7C7 		.ascii	"\316n\247\307\313\020\373\317\324\373\005\240\351\353"
 110      CB10FBCF 
 110      D4FB05A0 
 110      E9EB
 111 038e 591362B7 		.ascii	"Y\023b\267\016\017\012\227@\221\327\354\023\274\346"
 111      0E0F0A97 
 111      4091D7EC 
 111      13BCE6
 112 039d 0B5E680B 		.ascii	"\013^h\013\027\226\243\"\027\222\205\275\234 \356\346"
 112      1796A322 
 112      179285BD 
 112      9C20EEE6 
 113 03ad 4261A943 		.ascii	"Ba\251C\222\023\234\252$c\037p\320\011\363\021..+j\202"
 113      92139CAA 
 113      24631F70 
 113      D009F311 
 113      2E2E2B6A 
 114 03c2 7BF7BD1D 		.ascii	"{\367\275\035M\215\\kk\013\267\265}{\333\356F.\316G"
 114      4D8D5C6B 
 114      6B0BB7B5 
 114      7D7BDBEE 
 114      462ECE47 
 115 03d6 829188D0 		.ascii	"\202\221\210\320\020F\276\255\357\354\0144\243\272\204"
 115      1046BEAD 
 115      EFEC0C34 
 115      A3BA84
 116 03e5 1A6D6A0C 		.ascii	"\032mj\014\356\212Kr0!\252\311xP}\221K&\024\216W\242"
 116      EE8A4B72 
 116      3021AAC9 
 116      78507D91 
 116      4B26148E 
 117 03fb F5313926 		.ascii	"\36519&\326\213|\207\304I\261P$)\210\\B\025\244\230"
 117      D68B7C87 
 117      C449B150 
 117      2429885C 
 117      4215A498 
 118 040f 0AEE9549 		.ascii	"\012\356\225Ih\301Q\335\370\204\321Q\036\264\305D.("
 118      68C151DD 
 118      F884D151 
 118      1EB4C544 
 118      2E28
 119 0421 889D7C32 		.ascii	"\210\235|2\242\006\325\275q1\001\336U\301`\336\277<"
 119      A206D5BD 
 119      713101DE 
 119      55C160DE 
 119      BF3C
 120 0433 2A0BA2E2 		.ascii	"*\013\242\342\223\351+\245BN\304EQP\312\343\311\270"
 120      93E92BA5 
 120      424EC445 
 120      5150CAE3 
ARM GAS  /tmp/ccArUYnL.s 			page 9


 120      C9B8
 121 0445 A0786541 		.ascii	"\240xeA)\343;\225\010\255\302\276\366\315-\274\312\373"
 121      29E33B95 
 121      08ADC2BE 
 121      F6CD2DBC 
 121      CAFB
 122 0457 DADFD49A 		.ascii	"\332\337\324\232f\255i\321\232-Z\263\2156\376\366\315"
 122      66AD69D1 
 122      9A2D5AB3 
 122      8D36FEF6 
 122      CD
 123 0468 ADCD72AC 		.ascii	"\255\315r\254S\332\325\340d\251\022J\210\266\015!T\001"
 123      53DAD5E0 
 123      64A9124A 
 123      88B60D21 
 123      5401
 124 047a CDF698A4 		.ascii	"\315\366\230\244\276\354\304\255\260$t5\023*u\254j\340"
 124      BEECC4AD 
 124      B0247435 
 124      132A75AC 
 124      6AE0
 125 048c 3A645EA1 		.ascii	":d^\241\353\353g\035\372\360U7\264h4\024L\304%\000T"
 125      EBEB671D 
 125      FAF05537 
 125      B4683414 
 125      4CC42500 
 126 04a1 4097BA37 		.ascii	"@\227\2727\271qO\362\212\266;\320R\347FW3\321\342BC"
 126      B9714FF2 
 126      8AB63BD0 
 126      52E74657 
 126      33D1E242 
 127 04b6 5D5F71E5 		.ascii	"]_q\345**\022,!]\010\301u\\\2511D\343B\343\332\225\027"
 127      2A2A122C 
 127      215D08C1 
 127      755CA931 
 127      44E342E3 
 128 04cd 982B34D4 		.ascii	"\230+4\324\365\251\240\236\337A\011~\265\270='\254~"
 128      F5A9A09E 
 128      DF41097E 
 128      B5B83D27 
 128      AC7E
 129 04df 6BE39E3D 		.ascii	"k\343\236=\364\215~Lj\302\006b\035\305\347s9\3042\354"
 129      F48D7E4C 
 129      6AC20662 
 129      1DC5E773 
 129      39C432EC 
 130 04f3 7F816099 		.ascii	"\177\201`\231\253"
 130      AB
 131              		.text
 132              		.section	.gnu.lto_.symtab.39da33b5180d02e8,"",%progbits
 133 0000 68616C49 		.ascii	"halInit\000\000\000\000\000\000\000\000\000\000\000"
 133      6E697400 
 133      00000000 
 133      00000000 
 133      0000
 134 0012 00CE0000 		.ascii	"\000\316\000\000\000pal_default_config\000\000\002\000"
 134      0070616C 
ARM GAS  /tmp/ccArUYnL.s 			page 10


 134      5F646566 
 134      61756C74 
 134      5F636F6E 
 135 002d 00000000 		.ascii	"\000\000\000\000\000\000\000\000\350\000\000\000stI"
 135      00000000 
 135      E8000000 
 135      737449
 136 003c 6E697400 		.ascii	"nit\000\000\002\000\000\000\000\000\000\000\000\000"
 136      00020000 
 136      00000000 
 136      000000
 137 004b D2000000 		.ascii	"\322\000\000\000boardInit\000\000\002\000\000\000\000"
 137      626F6172 
 137      64496E69 
 137      74000002 
 137      00000000 
 138 005f 00000000 		.ascii	"\000\000\000\000\000\324\000\000\000mmcInit\000\000"
 138      00D40000 
 138      006D6D63 
 138      496E6974 
 138      0000
 139 0071 02000000 		.ascii	"\002\000\000\000\000\000\000\000\000\000\326\000\000"
 139      00000000 
 139      0000D600 
 139      00
 140 007e 00756172 		.ascii	"\000uartInit\000\000\002\000\000\000\000\000\000\000"
 140      74496E69 
 140      74000002 
 140      00000000 
 140      000000
 141 0091 0000D800 		.ascii	"\000\000\330\000\000\000spiInit\000\000\002\000\000"
 141      00007370 
 141      69496E69 
 141      74000002 
 141      0000
 142 00a3 00000000 		.ascii	"\000\000\000\000\000\000\000\332\000\000\000sdInit\000"
 142      000000DA 
 142      00000073 
 142      64496E69 
 142      7400
 143 00b5 00020000 		.ascii	"\000\002\000\000\000\000\000\000\000\000\000\334\000"
 143      00000000 
 143      000000DC 
 143      00
 144 00c2 00006932 		.ascii	"\000\000i2cInit\000\000\002\000\000\000\000\000\000"
 144      63496E69 
 144      74000002 
 144      00000000 
 144      0000
 145 00d4 000000DE 		.ascii	"\000\000\000\336\000\000\000adcInit\000\000\002\000"
 145      00000061 
 145      6463496E 
 145      69740000 
 145      0200
 146 00e6 00000000 		.ascii	"\000\000\000\000\000\000\000\000\340\000\000\000_pa"
 146      00000000 
 146      E0000000 
ARM GAS  /tmp/ccArUYnL.s 			page 11


 146      5F7061
 147 00f5 6C5F6C6C 		.ascii	"l_lld_init\000\000\002\000\000\000\000\000\000\000\000"
 147      645F696E 
 147      69740000 
 147      02000000 
 147      00000000 
 148 010a 00E20000 		.ascii	"\000\342\000\000\000hal_lld_init\000\000\002\000\000"
 148      0068616C 
 148      5F6C6C64 
 148      5F696E69 
 148      74000002 
 149 0120 00000000 		.ascii	"\000\000\000\000\000\000\000\346\000\000\000"
 149      000000E6 
 149      000000
 150              		.text
 151              		.section	.gnu.lto_.opts,"",%progbits
 152 0000 272D6D63 		.ascii	"'-mcpu=cortex-m4' '-mfloat-abi=hard' '-mfpu=fpv4-sp"
 152      70753D63 
 152      6F727465 
 152      782D6D34 
 152      2720272D 
 153 0033 2D643136 		.ascii	"-d16' '-mno-thumb-interwork' '-mthumb' '-O2' '-fomi"
 153      2720272D 
 153      6D6E6F2D 
 153      7468756D 
 153      622D696E 
 154 0066 742D6672 		.ascii	"t-frame-pointer' '-falign-functions=16' '-ffunction"
 154      616D652D 
 154      706F696E 
 154      74657227 
 154      20272D66 
 155 0099 2D736563 		.ascii	"-sections' '-fdata-sections' '-fno-common' '-flto' "
 155      74696F6E 
 155      73272027 
 155      2D666461 
 155      74612D73 
 156 00cc 272D6673 		.ascii	"'-fsingle-precision-constant'\000"
 156      696E676C 
 156      652D7072 
 156      65636973 
 156      696F6E2D 
 157              		.text
 158              		.section	.text.halInit,"ax",%progbits
 159              		.align	2
 160              		.p2align 4,,15
 161              		.global	halInit
 162              		.thumb
 163              		.thumb_func
 164              		.type	halInit, %function
 165              	halInit:
 166              		@ args = 0, pretend = 0, frame = 0
 167              		@ frame_needed = 0, uses_anonymous_args = 0
 168 0000 08B5     		push	{r3, lr}
 169 0002 FFF7FEFF 		bl	hal_lld_init
 170 0006 0A48     		ldr	r0, .L2
 171 0008 FFF7FEFF 		bl	_pal_lld_init
 172 000c FFF7FEFF 		bl	adcInit
ARM GAS  /tmp/ccArUYnL.s 			page 12


 173 0010 FFF7FEFF 		bl	i2cInit
 174 0014 FFF7FEFF 		bl	sdInit
 175 0018 FFF7FEFF 		bl	spiInit
 176 001c FFF7FEFF 		bl	uartInit
 177 0020 FFF7FEFF 		bl	mmcInit
 178 0024 FFF7FEFF 		bl	boardInit
 179 0028 BDE80840 		pop	{r3, lr}
 180 002c FFF7FEBF 		b	stInit
 181              	.L3:
 182              		.align	2
 183              	.L2:
 184 0030 00000000 		.word	pal_default_config
 185              		.size	halInit, .-halInit
 186              		.comm	__gnu_lto_v1,1,1
 187 0034 AFF30080 		.ident	"GCC: (GNU Tools for ARM Embedded Processors) 4.8.4 20140526 (release) [ARM/embedded-4_8-br
 187      AFF30080 
 187      AFF30080 
ARM GAS  /tmp/ccArUYnL.s 			page 13


DEFINED SYMBOLS
                            *ABS*:0000000000000000 hal.c
     /tmp/ccArUYnL.s:159    .text.halInit:0000000000000000 $t
     /tmp/ccArUYnL.s:165    .text.halInit:0000000000000000 halInit
     /tmp/ccArUYnL.s:184    .text.halInit:0000000000000030 $d
                            *COM*:0000000000000001 __gnu_lto_v1
     /tmp/ccArUYnL.s:187    .text.halInit:0000000000000034 $t

UNDEFINED SYMBOLS
hal_lld_init
_pal_lld_init
adcInit
i2cInit
sdInit
spiInit
uartInit
mmcInit
boardInit
stInit
pal_default_config
