ARM GAS  /tmp/cc4HjnUT.s 			page 1


   1              		.syntax unified
   2              		.cpu cortex-m4
   3              		.eabi_attribute 27, 3
   4              		.eabi_attribute 28, 1
   5              		.fpu fpv4-sp-d16
   6              		.eabi_attribute 20, 1
   7              		.eabi_attribute 21, 1
   8              		.eabi_attribute 23, 3
   9              		.eabi_attribute 24, 1
  10              		.eabi_attribute 25, 1
  11              		.eabi_attribute 26, 1
  12              		.eabi_attribute 30, 2
  13              		.eabi_attribute 34, 1
  14              		.eabi_attribute 18, 4
  15              		.thumb
  16              		.file	"hal.c"
  17              		.section	.gnu.lto_.jmpfuncs.5d5ce55f42b462e,"",%progbits
  18 0000 789C6362 		.ascii	"x\234cb`b\300\006\024\2404#B\210\221\251\232\341W\303"
  18      6062C006 
  18      14A03423 
  18      428891A9 
  18      9AE157C3 
  19 0014 8C06814C 		.ascii	"\214\006\201LF\206\\\2308\000A\340\004\036"
  19      46865C98 
  19      380041E0 
  19      041E
  20              		.text
  21              		.section	.gnu.lto_.inline.5d5ce55f42b462e,"",%progbits
  22 0000 789C6362 		.ascii	"x\234cb`b\300\006<\2404#\003\003\337s \011R\305\266"
  22      6062C006 
  22      3CA03423 
  22      0303DF73 
  22      200952C5 
  23 0015 401EAC98 		.ascii	"@\036\254\230\221\2138\202\211\033\244\037\314d\000"
  23      918B3882 
  23      891BA41F 
  23      CC6400
  24 0024 0094CD02 		.ascii	"\000\224\315\002~"
  24      7E
  25              		.text
  26              		.section	.gnu.lto_.pureconst.5d5ce55f42b462e,"",%progbits
  27 0000 789C6362 		.ascii	"x\234cb`b`f\200\000F\006\011\000\000\203\000!"
  27      60626066 
  27      80004606 
  27      09000083 
  27      0021
  28              		.text
  29              		.section	.gnu.lto_halInit.5d5ce55f42b462e,"",%progbits
  30 0000 789C6362 		.ascii	"x\234cb`b@\007\222@\374\220\221\201\301\000H32302M8"
  30      60624007 
  30      9240FC90 
  30      9181C100 
  30      48333233 
  31 0018 C7C0D0C8 		.ascii	"\307\300\320\310\301\304\310\010b002\32431\326G2\202"
  31      C1C4C808 
  31      62303032 
  31      D43331D6 
ARM GAS  /tmp/cc4HjnUT.s 			page 2


  31      473282
  32 002b D5AE673A 		.ascii	"\325\256g:\360\340\377\377u?6>\234\305(\304\003\024"
  32      F0E0FFFF 
  32      753F363E 
  32      9CC528C4 
  32      0314
  33 003d 60656869 		.ascii	"`ehih\230\240\300\300\220\014V\020\002$A\272B\031\231"
  33      6898A0C0 
  33      C0900C56 
  33      10022441 
  33      BA421999 
  34 0051 4034F379 		.ascii	"@4\363y\206\346\007]\217\331\023\031\0272\262\002\245"
  34      86E6075D 
  34      8FD91319 
  34      1732B202 
  34      A5
  35 0062 AB197E35 		.ascii	"\253\031~5t4\010d2\002\225C\014\314\004\321\347\031"
  35      74340864 
  35      32029543 
  35      0CCC04D1 
  35      E719
  36 0074 5A1EF426 		.ascii	"Z\036\364&c(bJf\204\270\026$\"\221\311\310\234\313\310"
  36      6328624A 
  36      6684B816 
  36      242291C9 
  36      C89CCBC8 
  37 0088 005594C9 		.ascii	"\000U\224\311\310\002\322\326\374`\306a6l\2063#\033"
  37      C802D2D6 
  37      FC60C661 
  37      366C8633 
  37      231B
  38 009a DEBC600D 		.ascii	"\336\274`\01536E,(\212\036\234^\214\325(VTU7\261[\310"
  38      3336452C 
  38      288A1E9C 
  38      5E8CD528 
  38      56545537 
  39 00b1 86AAEACE 		.ascii	"\206\252\352\316c\254\252\330QU\275\302n\026\007\252"
  39      63ACAAD8 
  39      5155BDC2 
  39      6E1607AA 
  40 00c1 AACE56AC 		.ascii	"\252\316V\254\341\307\211\252j\306R\254fq!T]dh|0K\025"
  40      E1C789AA 
  40      6AC652AC 
  40      66712154 
  40      5D64687C 
  41 00d8 A6080242 		.ascii	"\246\010\002B\200\022\300x\002\005\263\236~F~n\252~"
  41      8012C078 
  41      0205B39E 
  41      7E467E6E 
  41      AA7E
  42 00ea 727E4AA5 		.ascii	"r~J\245~Jj\231~rFfRf~\261~IQi^\266>\220\221\221\230"
  42      7E4A6A99 
  42      7E724666 
  42      52667EB1 
  42      7E495169 
  43 0105 A35F5C94 		.ascii	"\243_\\\224\014\242\365\222\031\000\203\256\206\315"
  43      0CA2F592 
ARM GAS  /tmp/cc4HjnUT.s 			page 3


  43      190083AE 
  43      86CD
  44              		.text
  45              		.section	.gnu.lto_.symbol_nodes.5d5ce55f42b462e,"",%progbits
  46 0000 789C45CF 		.ascii	"x\234E\317\273\025\3020\020D\321\321\310\362\217\"("
  46      BB15C230 
  46      1044D1D1 
  46      C8F28F22 
  46      28
  47 0011 750C0263 		.ascii	"u\014\002c\210\250\200\304\2458\247\006|\234\022\022"
  47      88A880C4 
  47      A538A706 
  47      7C9C1212 
  48 0021 034270D8 		.ascii	"\003Bp\330M\356\276\315\226 \036\370\015_N\300\371\012"
  48      4DEEBECD 
  48      96201EF8 
  48      0D5F4EC0 
  48      F90A
  49 0033 4897C185 		.ascii	"H\227\301\205-\323\006w\242\334\367\332u\316\035)Z\015"
  49      2DD30677 
  49      A2DCF7DA 
  49      75CE1D29 
  49      5A0D
  50 0045 94B73A50 		.ascii	"\224\267:P\205UO\005\253=UZ\355\250\312*R\265\325\206"
  50      85554F05 
  50      AB3D555A 
  50      EDA8CA2A 
  50      52B5D586 
  51 0059 6AAC3AAA 		.ascii	"j\254:\252\375\227\307\012\361\366L\266\030\263\015"
  51      FD97C70A 
  51      F1F64CB6 
  51      18B30D
  52 0068 A66C8D25 		.ascii	"\246l\215%[!\316\037K\214\331\200)[`\311z\304\376\276"
  52      5B21CE1F 
  52      4B8CD980 
  52      295B60C9 
  52      7AC4FEBE 
  53 007c F6E9ED31 		.ascii	"\366\351\3551\2117\231wGl"
  53      89379977 
  53      476C
  54              		.text
  55              		.section	.gnu.lto_.refs.5d5ce55f42b462e,"",%progbits
  56 0000 789C6362 		.ascii	"x\234cb`b`e\200\000F\006&F\006\000\000\237\000\016"
  56      60626065 
  56      80004606 
  56      26460600 
  56      009F000E 
  57              		.text
  58              		.section	.gnu.lto_.decls.5d5ce55f42b462e,"",%progbits
  59 0000 789C9596 		.ascii	"x\234\225\226al\024E\024\307g\356\332k\257\255\3254"
  59      616C1445 
  59      14C767EE 
  59      DA6BAFAD 
  59      D534
  60 0012 914862C2 		.ascii	"\221Hb\302a\204D\"\335\330\242\321/\030l\021\210\305"
  60      61844422 
  60      DDD8A2D1 
ARM GAS  /tmp/cc4HjnUT.s 			page 4


  60      2F186C11 
  60      88C5
  61 0024 365112BF 		.ascii	"6Q\022\277]\266\267[n\343\335\355eo\217\300'\207jh\303"
  61      5DB6B75B 
  61      6EE3DDED 
  61      656F8FC0 
  61      27876A68 
  62 0039 07528A15 		.ascii	"\007R\212\025\253\015\\\205JIPLc\010\301\2469!\215%"
  62      AB0D5C85 
  62      4A49504C 
  62      6308C1A6 
  62      39218D25 
  63 004d C4A36045 		.ascii	"\304\243`E\320V\017+Thb\233\340\207bH\3167\263{\275"
  63      D0560F2B 
  63      5468629B 
  63      E0876248 
  63      CE37B37B 
  64 0062 DDBB5DBA 		.ascii	"\335\273]\272;\311\233\231\333\235\367{\377\231y3\267"
  64      3BC99B99 
  64      DB9DF77B 
  64      FF997933 
  64      B7
  65 0073 1EE441A3 		.ascii	"\036\344A\243\010\241\034\224S\325\010\035\362\"x\202"
  65      08A11C94 
  65      53D5081D 
  65      F2227882 
  66 0083 D066300C 		.ascii	"\320f0\0146\210\264\002\257P\006\354:\330\024\330\015"
  66      3688B402 
  66      AF5006EC 
  66      3AD814D8 
  66      0D
  67 0094 B09B60BF 		.ascii	"\260\233`\277\202M\203\375\016\226\005\373\023\354\256"
  67      824D83FD 
  67      0E9605FB 
  67      13ECAE
  68 00a3 EEFB3732 		.ascii	"\356\37372\027\352_\016v\037\354*\330\274\316\237-\212"
  68      17EA5F0E 
  68      761FEC2A 
  68      D8BCCE9F 
  68      2D8A
  69 00b5 7157E764 		.ascii	"qW\347du\356\264\036\347\246\036wJ\327a\025\243\032"
  69      75EEB41E 
  69      E7A61E77 
  69      4AD76115 
  69      A31A
  70 00c7 1D24A493 		.ascii	"\035$\244\223\244\016\220\355\023\265u\3500\201\222"
  70      A40E90ED 
  70      13B575E8 
  70      308192
  71 00d6 22044FD4 		.ascii	"\"\004O\324\"\364\036\346q\255\037\245\253X\257\306"
  71      22F41EE6 
  71      71AD1FA5 
  71      AB58AFC6 
  72 00e6 8F862961 		.ascii	"\217\206)a\035:IHOv<\267\232\224\351\016\001\373\321"
  72      1D3A4948 
  72      4F763CB7 
  72      9A94E90E 
ARM GAS  /tmp/cc4HjnUT.s 			page 5


  72      01FBD1
  73 00f9 3C3E81D7 		.ascii	"<>\201\327\241\225\307\321\221C\270\016m@\247a`\017"
  73      A195C7D1 
  73      9143B80E 
  73      6D40A761 
  73      600F
  74 010b 685A8F4D 		.ascii	"hZ\217MBYX\222~\220\251!e\332P\352\362%\336\200,\312"
  74      42595892 
  74      7E90A921 
  74      65DA50EA 
  74      F225DE80 
  75 0121 5A94A283 		.ascii	"Z\224\242\203\037f\0060I]\304\026\341\2638\037\376\331"
  75      1F660630 
  75      495DC416 
  75      E1B3381F 
  75      FED9
  76 0133 E539A5AF 		.ascii	"\3459\245\257ep\200\307\247a\274\007\265b\023~E\004"
  76      657080C7 
  76      A761BC07 
  76      B562137E 
  76      4504
  77 0145 5573063C 		.ascii	"Us\006<5']\355\021M\355\031\007j;\323G3\003\253\251"
  77      35275DED 
  77      114DED19 
  77      076A3BD3 
  77      473303AB 
  78 015a 5A3FEA2E 		.ascii	"Z?\352.l\311r\264@>XYa\017\372\272\306\277\307\235\260"
  78      6CC972B4 
  78      403E5859 
  78      610FFABA 
  78      C6BFC79D 
  79 016f 5B3C3E0B 		.ascii	"[<>\013n\036\324\205\315\252\235\243\256\035\034}\215"
  79      6E1ED485 
  79      CDAA9DA3 
  79      AE1D1C7D 
  79      8D
  80 0180 904A1E8F 		.ascii	"\220J\036\2170\320x\021\210\307\025~\243d\366;?\200"
  80      30D07811 
  80      88C7157E 
  80      A364F63B 
  80      3F80
  81 0192 D2D86BBD 		.ascii	"\322\330k\275C\317\306\223\310\355p\017\232dA\351bY"
  81      43CFC693 
  81      C8ED700F 
  81      9A6441E9 
  81      6259
  82 01a4 09D5BB5A 		.ascii	"\011\325\273Z\321\007\230\0260{r\3662&\2755\371\305"
  82      D1079816 
  82      307B72F6 
  82      3226BD35 
  82      F9C5
  83 01b6 B8E11A17 		.ascii	"\270\341\032\0270\355\307\261LM\017\237\207\3158\201"
  83      30EDC7B1 
  83      4C4D0F9F 
  83      87CD3881 
  84 01c6 55DA6A4B 		.ascii	"U\332jK\217\030aw\\\303\314\312\316\031a\363N`O\331"
  84      8F186177 
ARM GAS  /tmp/cc4HjnUT.s 			page 6


  84      5CC3CCCA 
  84      CE1961F3 
  84      4E604FD9 
  85 01da 2BBB6084 		.ascii	"+\273`\204-\270\206\231\225\215\031a\377:\201=c\241"
  85      2DB88699 
  85      958D1961 
  85      FF3A813D 
  85      63A1
  86 01ec CCAA184F 		.ascii	"\314\252\030O\027\217\277\202K\205\307_\343\265P\237"
  86      178FBF82 
  86      4B85C75F 
  86      E3B5509F 
  87 01fc 63F57956 		.ascii	"c\365yV_`\365(\253\307X\235\206z\271x\320C\246i\250"
  87      5F60F528 
  87      ABC7589D 
  87      867AB978 
  87      D043A669 
  88 0211 A0C97C8A 		.ascii	"\240\311|\212WJ2\222\356i\245\023\324\356\010\342q\002"
  88      574A3292 
  88      EE69A513 
  88      D4EE08E2 
  88      7102
  89 0223 33CD3060 		.ascii	"3\3150`\202}j\200u9\202\275j\257\354\033\003\354\220"
  89      827D6A80 
  89      753982BD 
  89      6AAFEC1B 
  89      03EC90
  90 0236 23589BBD 		.ascii	"#X\233\275\262\363\006X\237#X\334^\331\242\0016\340"
  90      B2F30658 
  90      9F2358DC 
  90      5ED9A201 
  90      36E0
  91 0248 08D68D2D 		.ascii	"\010\326\215-\244\031rA\313\202S,\013\206\331>_b\365"
  91      A4197241 
  91      CB82532C 
  91      0B86D93E 
  91      5F62F5
  92 025b 38AB7F60 		.ascii	"8\253\177`\365eV_1\357\377\011O\361\305\246\375\225"
  92      F565565F 
  92      31EFFF09 
  92      4FF1C5A6 
  92      FD95
  93 026d 18D843CB 		.ascii	"\030\330C\313y\206\334\321\255\262\234\"\006qu~\310"
  93      7986DCD1 
  93      ADB29C22 
  93      0671757E 
  93      C8
  94 027e 1A748CA4 		.ascii	"\032t\214\244\262\331\357\216\214\371\372I\372#\222"
  94      B2D9EF8E 
  94      8CF9FA49 
  94      FA2392
  95 028d CB7D8056 		.ascii	"\313}\200V\241>\366\257{\000.r\225\307\233\237\266\005"
  95      A13EF6AF 
  95      7B002E72 
  95      95C79B9F 
  95      B605
  96 029f 5DC5ABF4 		.ascii	"]\305\253\364\336.o~B\323E\023Bh=\032\242<2L\274\214"
ARM GAS  /tmp/cc4HjnUT.s 			page 7


  96      DE2E6F7E 
  96      42D34513 
  96      42683D1A 
  96      A23C324C 
  97 02b5 46C767F0 		.ascii	"F\307g\360\032\363$'\261\307\370\200\352\312\366d\373"
  97      1AF32427 
  97      B1C7F880 
  97      EACAF664 
  97      FB
  98 02c6 8FCEECC7 		.ascii	"\217\316\354\307\207?LM\220Ez'k\021=\350\023oq\014\015"
  98      873F4C4D 
  98      90457A27 
  98      6B113DE8 
  98      136F710C 
  99 02db F29325E4 		.ascii	"\362\223%\344\277\317~|\261\237\\\324&\227G\014\333"
  99      BFCF7E7C 
  99      B19F5CD4 
  99      2697470C 
  99      DB
 100 02ec 207EB644 		.ascii	" ~\266DL}\276\340)A\334\263A\374b\211\270~|\016\227"
 100      4C7DBEE0 
 100      2941DCB3 
 100      41FC6289 
 100      B87E7C0E 
 101 0301 2086CAAC 		.ascii	" \206\312\254\021\267,\021\243\263\023o\225 n\333 ~"
 101      11B72C11 
 101      A3B3136F 
 101      95206EDB 
 101      207E
 102 0313 B3448CCC 		.ascii	"\263D\214\314M\356,A\034/\267F\314X\"\006\346\227^("
 102      4DEE2C41 
 102      1C2FB746 
 102      CC582206 
 102      E6975E28 
 103 0327 41DCB241 		.ascii	"A\334\262A\374a\211\350]\230|\275\004\361\261\317\032"
 103      FC6189E8 
 103      5D987CBD 
 103      04F1B1CF 
 103      1A
 104 0338 71DB12F1 		.ascii	"q\333\022\361\327\302\025\334\335K\036\345r^\027\011"
 104      D7C215DC 
 104      DD4B1EE5 
 104      725E1709 
 105 0348 3BAB27AC 		.ascii	";\253'\254\227}#\353G\241\220\275\210&\360\200\215\216"
 105      977D23EB 
 105      47A190BD 
 105      8826F080 
 105      8D8E
 106 035a 3B963ABE 		.ascii	";\226:\276}\260\264\204{K2t\301\0062g\206<\207\006\311"
 106      7DB0B484 
 106      7B4B3274 
 106      C1063267 
 106      863C8706 
 107 036f 227CBBFE 		.ascii	"\"|\273\376s\311\273\237\256\007\235\017\006\311_\260"
 107      73C9BB9F 
 107      AE079D0F 
 107      06C95FB0 
ARM GAS  /tmp/cc4HjnUT.s 			page 8


 108 037f ABE9D132 		.ascii	"\253\351\3212\304\376\033\365^\001h\372t\326\204\330"
 108      C4FE1BF5 
 108      5E0168FA 
 108      74D684D8 
 109 038f ADC3FDC2 		.ascii	"\255\303\375\302\015P\3445\373\030\257\371\202\027\332"
 109      0D50E435 
 109      FB18AFF9 
 109      8217DA
 110 039e CA85E5A8 		.ascii	"\312\205\345\250\310\205da\037'\210{\270PXj\227\344"
 110      C8856461 
 110      1F27887B 
 110      B850586A 
 110      97E4
 111 03b0 04A72AC9 		.ascii	"\004\247*\311\330\373\034t\302|\204\213\313\212\232"
 111      D8FB1C74 
 111      C27C848B 
 111      CB8A9A
 112 03bf E0DE7977 		.ascii	"\340\336ywgc\003\327\322\322\314mk\333\321\272\247\201"
 112      676303D7 
 112      D2D2CC6D 
 112      6BDBD1BA 
 112      A781
 113 03d1 8BF39160 		.ascii	"\213\363\221`$\"\324\207\221o\333\333\273\002M\250."
 113      2422D487 
 113      916FDBDB 
 113      BB024DA8 
 113      2E
 114 03e2 A1461B1B 		.ascii	"\241F\033\033\202\273\343\222\034L\210j2\036T\237\347"
 114      82BBE392 
 114      1C4C886A 
 114      321E549F 
 114      E7
 115 03f3 920985E3 		.ascii	"\222\011\205\343\225\350\306\230\034\0237\212|\273\304"
 115      95E8C698 
 115      1C13378A 
 115      7CBBC4
 116 0402 49B15024 		.ascii	"I\261P$)\210\\B\025\244\230\012\356\225Ih\301Q\335\364"
 116      29885C42 
 116      15A4980A 
 116      EE954968 
 116      C151DDF4 
 117 0416 98D1511E 		.ascii	"\230\321Q\036\264\305D.(\210\035|2\242\006\325}q1\001"
 117      B4C5442E 
 117      28881D7C 
 117      32A206D5 
 117      7D713101 
 118 042a DE55C160 		.ascii	"\336U\301`\336\277<*\013\242\342\223\351+\245BN\304"
 118      DEBF3C2A 
 118      0BA2E293 
 118      E92BA542 
 118      4EC4
 119 043c 455150CA 		.ascii	"EQP\312\343\311\270\240xeA)\343;\224\010\255\302\276"
 119      E3C9B8A0 
 119      78654129 
 119      E33B9408 
 119      ADC2BE
 120 044f B62DCDBC 		.ascii	"\266-\315\274\312\373\332\336\320\232&\255i\326\232"
ARM GAS  /tmp/cc4HjnUT.s 			page 9


 120      CAFBDADE 
 120      D09A26AD 
 120      69D69A
 121 045e AD5AB39D 		.ascii	"\255Z\263\2356\376\266--Mr\254C\332]\357d\251\022J\210"
 121      36FEB62D 
 121      2D4D72AC 
 121      43DA5DEF 
 121      64A9124A 
 122 0473 B6F52154 		.ascii	"\266\365!T\001\315\216\230\244\276\344\304\255\260$"
 122      01CD8E98 
 122      A4BEE4C4 
 122      ADB024
 123 0482 7435132A 		.ascii	"t5\023*u\254\252\347\332e^\241\353\353g\035\372\360"
 123      75ACAAE7 
 123      DA655EA1 
 123      EBEB671D 
 123      FAF0
 124 0494 1537B468 		.ascii	"\0257\264h4\024L\304%\000T@\227\2727\272qO\362\212\266"
 124      34144CC4 
 124      25005440 
 124      97BA37BA 
 124      714FF28A 
 125 04a9 3BD052E7 		.ascii	";\320R\347\006W3\321\342BC]_v\345**\022,!]\010\301u"
 125      065733D1 
 125      E242435D 
 125      5F76E52A 
 125      2A122C21 
 126 04c1 5CA92144 		.ascii	"\\\251!D\343B\343\332\225\027\230+4\324\365\211\240"
 126      E342E3DA 
 126      9517982B 
 126      34D4F589 
 126      A0
 127 04d2 9EDF4109 		.ascii	"\236\337A\011~5\273='\254~s\323\336\275\364\215~Lj\302"
 127      7E35BB3D 
 127      27AC7E73 
 127      D3DEBDF4 
 127      8D7E4C6A 
 128 04e7 06621DC5 		.ascii	"\006b\035\305\347s9\3042\354\177\260\302\227{"
 128      E77339C4 
 128      32EC7FB0 
 128      C2977B
 129              		.text
 130              		.section	.gnu.lto_.symtab.5d5ce55f42b462e,"",%progbits
 131 0000 68616C49 		.ascii	"halInit\000\000\000\000\000\000\000\000\000\000\000"
 131      6E697400 
 131      00000000 
 131      00000000 
 131      0000
 132 0012 00CE0000 		.ascii	"\000\316\000\000\000pal_default_config\000\000\002\000"
 132      0070616C 
 132      5F646566 
 132      61756C74 
 132      5F636F6E 
 133 002d 00000000 		.ascii	"\000\000\000\000\000\000\000\000\350\000\000\000stI"
 133      00000000 
 133      E8000000 
 133      737449
ARM GAS  /tmp/cc4HjnUT.s 			page 10


 134 003c 6E697400 		.ascii	"nit\000\000\002\000\000\000\000\000\000\000\000\000"
 134      00020000 
 134      00000000 
 134      000000
 135 004b D2000000 		.ascii	"\322\000\000\000boardInit\000\000\002\000\000\000\000"
 135      626F6172 
 135      64496E69 
 135      74000002 
 135      00000000 
 136 005f 00000000 		.ascii	"\000\000\000\000\000\324\000\000\000mmcInit\000\000"
 136      00D40000 
 136      006D6D63 
 136      496E6974 
 136      0000
 137 0071 02000000 		.ascii	"\002\000\000\000\000\000\000\000\000\000\326\000\000"
 137      00000000 
 137      0000D600 
 137      00
 138 007e 00756172 		.ascii	"\000uartInit\000\000\002\000\000\000\000\000\000\000"
 138      74496E69 
 138      74000002 
 138      00000000 
 138      000000
 139 0091 0000D800 		.ascii	"\000\000\330\000\000\000spiInit\000\000\002\000\000"
 139      00007370 
 139      69496E69 
 139      74000002 
 139      0000
 140 00a3 00000000 		.ascii	"\000\000\000\000\000\000\000\332\000\000\000sdInit\000"
 140      000000DA 
 140      00000073 
 140      64496E69 
 140      7400
 141 00b5 00020000 		.ascii	"\000\002\000\000\000\000\000\000\000\000\000\334\000"
 141      00000000 
 141      000000DC 
 141      00
 142 00c2 00006932 		.ascii	"\000\000i2cInit\000\000\002\000\000\000\000\000\000"
 142      63496E69 
 142      74000002 
 142      00000000 
 142      0000
 143 00d4 000000DE 		.ascii	"\000\000\000\336\000\000\000adcInit\000\000\002\000"
 143      00000061 
 143      6463496E 
 143      69740000 
 143      0200
 144 00e6 00000000 		.ascii	"\000\000\000\000\000\000\000\000\340\000\000\000_pa"
 144      00000000 
 144      E0000000 
 144      5F7061
 145 00f5 6C5F6C6C 		.ascii	"l_lld_init\000\000\002\000\000\000\000\000\000\000\000"
 145      645F696E 
 145      69740000 
 145      02000000 
 145      00000000 
 146 010a 00E20000 		.ascii	"\000\342\000\000\000hal_lld_init\000\000\002\000\000"
ARM GAS  /tmp/cc4HjnUT.s 			page 11


 146      0068616C 
 146      5F6C6C64 
 146      5F696E69 
 146      74000002 
 147 0120 00000000 		.ascii	"\000\000\000\000\000\000\000\346\000\000\000"
 147      000000E6 
 147      000000
 148              		.text
 149              		.section	.gnu.lto_.opts,"",%progbits
 150 0000 272D6D63 		.ascii	"'-mcpu=cortex-m4' '-mfloat-abi=hard' '-mfpu=fpv4-sp"
 150      70753D63 
 150      6F727465 
 150      782D6D34 
 150      2720272D 
 151 0033 2D643136 		.ascii	"-d16' '-mno-thumb-interwork' '-mthumb' '-O2' '-fomi"
 151      2720272D 
 151      6D6E6F2D 
 151      7468756D 
 151      622D696E 
 152 0066 742D6672 		.ascii	"t-frame-pointer' '-falign-functions=16' '-ffunction"
 152      616D652D 
 152      706F696E 
 152      74657227 
 152      20272D66 
 153 0099 2D736563 		.ascii	"-sections' '-fdata-sections' '-fno-common' '-flto' "
 153      74696F6E 
 153      73272027 
 153      2D666461 
 153      74612D73 
 154 00cc 272D6673 		.ascii	"'-fsingle-precision-constant'\000"
 154      696E676C 
 154      652D7072 
 154      65636973 
 154      696F6E2D 
 155              		.text
 156              		.section	.text.halInit,"ax",%progbits
 157              		.align	2
 158              		.p2align 4,,15
 159              		.global	halInit
 160              		.thumb
 161              		.thumb_func
 162              		.type	halInit, %function
 163              	halInit:
 164              		@ args = 0, pretend = 0, frame = 0
 165              		@ frame_needed = 0, uses_anonymous_args = 0
 166 0000 08B5     		push	{r3, lr}
 167 0002 FFF7FEFF 		bl	hal_lld_init
 168 0006 0A48     		ldr	r0, .L2
 169 0008 FFF7FEFF 		bl	_pal_lld_init
 170 000c FFF7FEFF 		bl	adcInit
 171 0010 FFF7FEFF 		bl	i2cInit
 172 0014 FFF7FEFF 		bl	sdInit
 173 0018 FFF7FEFF 		bl	spiInit
 174 001c FFF7FEFF 		bl	uartInit
 175 0020 FFF7FEFF 		bl	mmcInit
 176 0024 FFF7FEFF 		bl	boardInit
 177 0028 BDE80840 		pop	{r3, lr}
ARM GAS  /tmp/cc4HjnUT.s 			page 12


 178 002c FFF7FEBF 		b	stInit
 179              	.L3:
 180              		.align	2
 181              	.L2:
 182 0030 00000000 		.word	pal_default_config
 183              		.size	halInit, .-halInit
 184              		.comm	__gnu_lto_v1,1,1
 185 0034 AFF30080 		.ident	"GCC: (GNU Tools for ARM Embedded Processors) 4.8.4 20140526 (release) [ARM/embedded-4_8-br
 185      AFF30080 
 185      AFF30080 
ARM GAS  /tmp/cc4HjnUT.s 			page 13


DEFINED SYMBOLS
                            *ABS*:0000000000000000 hal.c
     /tmp/cc4HjnUT.s:157    .text.halInit:0000000000000000 $t
     /tmp/cc4HjnUT.s:163    .text.halInit:0000000000000000 halInit
     /tmp/cc4HjnUT.s:182    .text.halInit:0000000000000030 $d
                            *COM*:0000000000000001 __gnu_lto_v1
     /tmp/cc4HjnUT.s:185    .text.halInit:0000000000000034 $t

UNDEFINED SYMBOLS
hal_lld_init
_pal_lld_init
adcInit
i2cInit
sdInit
spiInit
uartInit
mmcInit
boardInit
stInit
pal_default_config
