ARM GAS  /tmp/ccY9k62e.s 			page 1


   1              		.syntax unified
   2              		.cpu cortex-m4
   3              		.eabi_attribute 27, 3
   4              		.eabi_attribute 28, 1
   5              		.fpu fpv4-sp-d16
   6              		.eabi_attribute 20, 1
   7              		.eabi_attribute 21, 1
   8              		.eabi_attribute 23, 3
   9              		.eabi_attribute 24, 1
  10              		.eabi_attribute 25, 1
  11              		.eabi_attribute 26, 1
  12              		.eabi_attribute 30, 2
  13              		.eabi_attribute 34, 1
  14              		.eabi_attribute 18, 4
  15              		.thumb
  16              		.file	"hal.c"
  17              		.section	.gnu.lto_.jmpfuncs.ed2daee1af09293b,"",%progbits
  18 0000 789C6362 		.ascii	"x\234cb`b\300\006\024\2404#B\210\221\251\232\341W\303"
  18      6062C006 
  18      14A03423 
  18      428891A9 
  18      9AE157C3 
  19 0014 8C06814C 		.ascii	"\214\006\201LF\206\\\2308\000A\340\004\036"
  19      46865C98 
  19      380041E0 
  19      041E
  20              		.text
  21              		.section	.gnu.lto_.inline.ed2daee1af09293b,"",%progbits
  22 0000 789C6362 		.ascii	"x\234cb`b\300\006<\2404#\003\003\337s \011R\305\266"
  22      6062C006 
  22      3CA03423 
  22      0303DF73 
  22      200952C5 
  23 0015 401EAC98 		.ascii	"@\036\254\230\221\2138\202\211\033\244\037\314d\000"
  23      918B3882 
  23      891BA41F 
  23      CC6400
  24 0024 0094CD02 		.ascii	"\000\224\315\002~"
  24      7E
  25              		.text
  26              		.section	.gnu.lto_.pureconst.ed2daee1af09293b,"",%progbits
  27 0000 789C6362 		.ascii	"x\234cb`b`f\200\000F\006\011\000\000\203\000!"
  27      60626066 
  27      80004606 
  27      09000083 
  27      0021
  28              		.text
  29              		.section	.gnu.lto_halInit.ed2daee1af09293b,"",%progbits
  30 0000 789C6362 		.ascii	"x\234cb`b@\007\222@\374\220\221\201\301\000H32302M8"
  30      60624007 
  30      9240FC90 
  30      9181C100 
  30      48333233 
  31 0018 C7C0D0C8 		.ascii	"\307\300\320\310\301\304\310\010b002\32431\326G2\202"
  31      C1C4C808 
  31      62303032 
  31      D43331D6 
ARM GAS  /tmp/ccY9k62e.s 			page 2


  31      473282
  32 002b D5AE673A 		.ascii	"\325\256g:\360\340\377\377u?6>\234\305(\304\003\024"
  32      F0E0FFFF 
  32      753F363E 
  32      9CC528C4 
  32      0314
  33 003d 60656869 		.ascii	"`ehih\230\240\300\300\220\014V\020\002$A\272B\031\231"
  33      6898A0C0 
  33      C0900C56 
  33      10022441 
  33      BA421999 
  34 0051 4034F379 		.ascii	"@4\363y\206\346\007]\217\331\023\031\0272\262\002\245"
  34      86E6075D 
  34      8FD91319 
  34      1732B202 
  34      A5
  35 0062 AB197E35 		.ascii	"\253\031~5t4\010d2\002\225C\014\314\004\321\347\031"
  35      74340864 
  35      32029543 
  35      0CCC04D1 
  35      E719
  36 0074 5A1EF426 		.ascii	"Z\036\364&c(bJf\204\270\026$\"\221\311\310\234\313\310"
  36      6328624A 
  36      6684B816 
  36      242291C9 
  36      C89CCBC8 
  37 0088 005594C9 		.ascii	"\000U\224\311\310\002\322\326\374`\306a6l\2063#\033"
  37      C802D2D6 
  37      FC60C661 
  37      366C8633 
  37      231B
  38 009a DEBC600D 		.ascii	"\336\274`\01536E,(\212\036\234^\214\325(VTU7\261[\310"
  38      3336452C 
  38      288A1E9C 
  38      5E8CD528 
  38      56545537 
  39 00b1 86AAEACE 		.ascii	"\206\252\352\316c\254\252\330QU\275\302n\026\007\252"
  39      63ACAAD8 
  39      5155BDC2 
  39      6E1607AA 
  40 00c1 AACE56AC 		.ascii	"\252\316V\254\341\307\211\252j\306R\254fq!T]dh|0K\025"
  40      E1C789AA 
  40      6AC652AC 
  40      66712154 
  40      5D64687C 
  41 00d8 A6080242 		.ascii	"\246\010\002B\200\022\300x\002\005\263\236~F~n\252~"
  41      8012C078 
  41      0205B39E 
  41      7E467E6E 
  41      AA7E
  42 00ea 727E4AA5 		.ascii	"r~J\245~Jj\231~rFfRf~\261~IQi^\266>\220\221\221\230"
  42      7E4A6A99 
  42      7E724666 
  42      52667EB1 
  42      7E495169 
  43 0105 A35F5C94 		.ascii	"\243_\\\224\014\242\365\222\031\000\203\256\206\315"
  43      0CA2F592 
ARM GAS  /tmp/ccY9k62e.s 			page 3


  43      190083AE 
  43      86CD
  44              		.text
  45              		.section	.gnu.lto_.symbol_nodes.ed2daee1af09293b,"",%progbits
  46 0000 789C45CF 		.ascii	"x\234E\317\273\025\3020\020D\321\321\310\362\217\"("
  46      BB15C230 
  46      1044D1D1 
  46      C8F28F22 
  46      28
  47 0011 750C0263 		.ascii	"u\014\002c\210\250\200\304\2458\247\006|\234\022\022"
  47      88A880C4 
  47      A538A706 
  47      7C9C1212 
  48 0021 034270D8 		.ascii	"\003Bp\330M\356\276\315\226 \036\370\015_N\300\371\012"
  48      4DEEBECD 
  48      96201EF8 
  48      0D5F4EC0 
  48      F90A
  49 0033 4897C185 		.ascii	"H\227\301\205-\323\006w\242\334\367\332u\316\035)Z\015"
  49      2DD30677 
  49      A2DCF7DA 
  49      75CE1D29 
  49      5A0D
  50 0045 94B73A50 		.ascii	"\224\267:P\205UO\005\253=UZ\355\250\312*R\265\325\206"
  50      85554F05 
  50      AB3D555A 
  50      EDA8CA2A 
  50      52B5D586 
  51 0059 6AAC3AAA 		.ascii	"j\254:\252\375\227\307\012\361\366L\266\030\263\015"
  51      FD97C70A 
  51      F1F64CB6 
  51      18B30D
  52 0068 A66C8D25 		.ascii	"\246l\215%[!\316\037K\214\331\200)[`\311z\304\376\276"
  52      5B21CE1F 
  52      4B8CD980 
  52      295B60C9 
  52      7AC4FEBE 
  53 007c F6E9ED31 		.ascii	"\366\351\3551\2117\231wGl"
  53      89379977 
  53      476C
  54              		.text
  55              		.section	.gnu.lto_.refs.ed2daee1af09293b,"",%progbits
  56 0000 789C6362 		.ascii	"x\234cb`b`e\200\000F\006&F\006\000\000\237\000\016"
  56      60626065 
  56      80004606 
  56      26460600 
  56      009F000E 
  57              		.text
  58              		.section	.gnu.lto_.decls.ed2daee1af09293b,"",%progbits
  59 0000 789C9596 		.ascii	"x\234\225\226\177h\024G\024\307g\356\222K.I\323\022"
  59      7F681447 
  59      14C767EE 
  59      924B2E49 
  59      D312
  60 0012 A8542878 		.ascii	"\250T(x\226*TH\226&\266\264\377XlbU\032\233@+\364\277"
  60      962A5448 
  60      9626B6B4 
ARM GAS  /tmp/ccY9k62e.s 			page 4


  60      FF586C62 
  60      551A9B40 
  61 0029 6373BBF1 		.ascii	"cs\273\361\226\336\335\036{{\242\177uL\213\011\376!"
  61      96DEDD1E 
  61      7B7BA27F 
  61      754C8B09 
  61      FE21
  62 003b 3136DAD0 		.ascii	"16\332\320\240\227j\332X\354\017B\021\261!\\\225\320"
  62      A0976ADA 
  62      58EC0F42 
  62      11B1215C 
  62      95D0
  63 004d 887046AB 		.ascii	"\210pF\253Vm\322\236M5\325\320&`\377\210T\270\276\231"
  63      566DD29E 
  63      4D35D5D0 
  63      2660FF88 
  63      54B8BE99 
  64 0061 DDCBEDDE 		.ascii	"\335\313\355\336\355\232\335\20173\267;\357\363\276"
  64      ED9ADD81 
  64      3733B73B 
  64      EFF3BE
  65 0070 33F3666E 		.ascii	"3\363fn=\310\203\306\020B9(_U#t\320\213\340\011B\233"
  65      3DC883C6 
  65      10423928 
  65      5F552374 
  65      D08BE009 
  66 0086 C030D810 		.ascii	"\3000\330\020\322\012\274B\031\260\253`\327\300n\200"
  66      D20ABC42 
  66      19B0AB60 
  66      D7C06E80 
  67 0096 DD04BB0D 		.ascii	"\335\004\273\0156\015\366\033X\026\354\017\260{\272"
  67      360DF61B 
  67      5816EC0F 
  67      B07BBA
  68 00a5 EF5FC85C 		.ascii	"\357_\310\\\250\1779\330\003\260\313`\363:\177\266("
  68      A87F39D8 
  68      03B0CB60 
  68      F33A7FB6 
  68      28
  69 00b6 C63D9D93 		.ascii	"\306=\235\223\325\271\323z\234\233z\334k\272\016\253"
  69      D5B9D37A 
  69      9C9B7ADC 
  69      6BBA0EAB 
  70 00c6 18D5E800 		.ascii	"\030\325\350\000!]$\265\237l\233\254\255C\207\010\224"
  70      215D24B5 
  70      9F6C9BAC 
  70      AD438708 
  70      94
  71 00d7 142178B2 		.ascii	"\024!x\262\026\241\3671\217k\375(]\305z5~4B\011\353"
  71      16A1F731 
  71      8F6BFD28 
  71      5DC57A35 
  71      7E344209 
  72 00ec D049427A 		.ascii	"\320IBz\263\023\271\325\244Lw\010\330\217\346\361\011"
  72      B313B9D5 
  72      A44C7708 
  72      D88FE6F1 
ARM GAS  /tmp/ccY9k62e.s 			page 5


  72      09
  73 00fd BC0EAD3C 		.ascii	"\274\016\255<\216\216\034\306uh\003:\005\003{A\323z"
  73      8E8E1CC6 
  73      7568033A 
  73      05037B41 
  73      D37A
  74 010f 6C12CAC2 		.ascii	"l\022\312\302\222\364\303L\015)\323\206R\227/\360\006"
  74      92F4C34C 
  74      0D29D386 
  74      52972FF0 
  74      06
  75 0120 6451D6A2 		.ascii	"dQ\326\242\024\035\374(3\210I\352<\266\010\237\305\371"
  75      141DFC28 
  75      338849EA 
  75      3CB6089F 
  75      C5F9
  76 0132 F0CF2FCF 		.ascii	"\360\317/\317)}%\203\003<>\005\343=\250\015\233\360"
  76      297D2583 
  76      033C3E05 
  76      E33DA80D 
  76      9BF0
  77 0144 2B22A89A 		.ascii	"+\"\250\232\323\340\2519\351j\017kjO;P\333\225>\232"
  77      D3E0A939 
  77      E96A0F6B 
  77      6A4F3B50 
  77      DB953E9A 
  78 0158 195C4DD5 		.ascii	"\031\\M\325\372QOaK\226\243\005\362\301\312\012{\320"
  78      FA514F61 
  78      4B96A305 
  78      F2C1CA0A 
  78      7BD0
  79 016a DF3DF123 		.ascii	"\337=\361#\356\202\335\342\361\267\340\346A\335\330"
  79      EE82DDE2 
  79      F1B7E0E6 
  79      41DDD8
  80 0179 ACDA39EA 		.ascii	"\254\3329\352\312\201\261\327\011\251\344\361(\003M"
  80      CA81B1D7 
  80      09A9E4F1 
  80      28034D
  81 0188 1481785C 		.ascii	"\024\201x\\\3417Jf\277\363\003(\215\275\326;\364l<\215"
  81      E1374A66 
  81      BFF30328 
  81      8DBDD63B 
  81      F46C3C8D 
  82 019c DC0EF7A0 		.ascii	"\334\016\367\240)\026\224.\226\225P\275\253\025}\200"
  82      2916942E 
  82      969550BD 
  82      AB157D80 
  83 01ac 6901B327 		.ascii	"i\001\263'g/b\322W\223_\214\033\256q\001\323~\034\313"
  83      672F62D2 
  83      57935F8C 
  83      1BAE7101 
  83      D37E1CCB 
  84 01c0 D4F4F279 		.ascii	"\324\364\362y\330\214\023X\245\255\266\364\250\021v"
  84      D88C1358 
  84      A5ADB6F4 
  84      A81176
ARM GAS  /tmp/ccY9k62e.s 			page 6


  85 01cf D735CCAC 		.ascii	"\3275\314\254\354\214\0216\357\004\366\214\275\262s"
  85      EC8C1136 
  85      EF04F68C 
  85      BDB273
  86 01de 46D8826B 		.ascii	"F\330\202k\230Y\331\270\021\366\257\023\330s\026\312"
  86      9859D9B8 
  86      11F6AF13 
  86      D87316CA 
  87 01ee AC8AF174 		.ascii	"\254\212\361t\361\370k\270Tx\374\015^\013\365\031V\237"
  87      F1F86BB8 
  87      5478FC0D 
  87      5E0BF519 
  87      569F
  88 0200 65F53956 		.ascii	"e\3659V\217\261z\234\325i\250\227\213\007=b\232\206"
  88      8FB17A9C 
  88      D569A897 
  88      8B073D62 
  88      9A86
  89 0212 0B9ACCA7 		.ascii	"\013\232\314\247x\245$#\351\3366:A\355\216 \036'0\323"
  89      78A52423 
  89      E9DE363A 
  89      41ED8E20 
  89      1E2730D3 
  90 0226 0C0326D8 		.ascii	"\014\003&\330\247\006X\267#\330k\366\312\2763\300\016"
  90      A70658B7 
  90      23D86BF6 
  90      CABE33C0 
  90      0E
  91 0237 3A82B5DB 		.ascii	":\202\265\333+;k\200\365;\202\305\355\225-\032`\203"
  91      2B3B6B80 
  91      F53B82C5 
  91      ED952D1A 
  91      6083
  92 0249 8E603DD8 		.ascii	"\216`=\330B\232!\027\264,\370\222e\301\010\333\347\013"
  92      429A2117 
  92      B42CF892 
  92      65C108DB 
  92      E70B
  93 025b AC9E60F5 		.ascii	"\254\236`\365O\254\276\310\352K\346\375?\341)\276\330"
  93      4FACBEC8 
  93      EA4BE6FD 
  93      3FE129BE 
  93      D8
  94 026c B4BF1203 		.ascii	"\264\277\022\003{x9\317\220;\272U\226S\304\020\256\316"
  94      7B7839CF 
  94      903BBA55 
  94      9653C410 
  94      AECE
  95 027e 0F59838E 		.ascii	"\017Y\203\216\221T6\373\303\341q\337\000I\177Lr\271"
  95      915436FB 
  95      C3E171DF 
  95      00497F4C 
  95      72B9
  96 0290 0FD12AD4 		.ascii	"\017\321*\324\317\376u\367\303E\256\362x\323\263\266"
  96      CFFE75F7 
  96      C345AEF2 
  96      78D3B3B6 
ARM GAS  /tmp/ccY9k62e.s 			page 7


  97 02a0 A0CB7895 		.ascii	"\240\313x\225\336\333\351\315Oh\272hB\010\255G\303\224"
  97      DEDBE9CD 
  97      4F68BA68 
  97      4208AD47 
  97      C394
  98 02b2 47468897 		.ascii	"GF\210\227\321\350\370\014^c\236\344\024\366\030\037"
  98      D1E8F80C 
  98      5E639EE4 
  98      14F6181F 
  99 02c2 505DD9DE 		.ascii	"P]\331\336\354\300\321\231}\370\320G\251I\262H\357d"
  99      ECC0D199 
  99      7DF8D047 
  99      A949B248 
  99      EF64
 100 02d4 2DA2071D 		.ascii	"-\242\007\035\361\026\307\320 ?[B\376\273\375w\375\221"
 100      F116C7D0 
 100      203F5B42 
 100      FEBBFD77 
 100      FD91
 101 02e6 12C6880D 		.ascii	"\022\306\210\015\343\272%\343\372g\013]\026B\356\333"
 101      E3BA25E3 
 101      FA670B5D 
 101      1642EEDB 
 102 02f6 407EB184 		.ascii	"@~\261\204\\=>\207\007\310ym\225\363\210\3412k\304-"
 102      5C3D3E87 
 102      07C8796D 
 102      95F388E1 
 102      326BC42D 
 103 030a 4BC4D8EC 		.ascii	"K\304\330\354\344\333%\210;6\210_-\021\243sS;J\020\307"
 103      E4DB2588 
 103      3B36885F 
 103      2D11A373 
 103      533B4A10 
 104 031f CBAD1133 		.ascii	"\313\255\0213\226\210\301\371\245\227J\020\267l\020"
 104      9688C1F9 
 104      A5974A10 
 104      B76C10
 105 032e BF5B22FA 		.ascii	"\277[\"\372\026\246\336(A|\342\263F\334\261D\374\271"
 105      16A6DE28 
 105      417CE2B3 
 105      46DCB144 
 105      FCB9
 106 0340 7009F7F4 		.ascii	"p\011\367\364\221\307\271\234\327E\316\316\3529\353"
 106      91C7B99C 
 106      D745CECE 
 106      EA39EB
 107 034f 659FC9FA 		.ascii	"e\237\311\372i($0\2429<h\243\343\256\245\216\357\037"
 107      69282430 
 107      A2393C68 
 107      A3E3AEA5 
 107      8EEF1F
 108 0362 2E2DE1BE 		.ascii	".-\341\276\222\334X\260\201\314\231!/\240!\262\010\237"
 108      92DC58B0 
 108      81CC9921 
 108      2FA021B2 
 108      089F
 109 0374 AFFF5CF0 		.ascii	"\257\377\\\360\356\243\353A\347\203A\362\347\354vz\274"
ARM GAS  /tmp/ccY9k62e.s 			page 8


 109      EEA3EB41 
 109      E78341F2 
 109      E7EC767A 
 109      BC
 110 0385 0CB1FF4C 		.ascii	"\014\261\377L\275_\000\232\276\2365!v\353\360\240p\011"
 110      BD5F009A 
 110      BE9E3521 
 110      76EBF0A0 
 110      7009
 111 0397 1479CD3E 		.ascii	"\024y\315>\301k\276\340\205\266pa9*r!Y\330\313\011\342"
 111      C16BBEE0 
 111      85B67061 
 111      392A7221 
 111      59D8CB09 
 112 03ac 6E2E1496 		.ascii	"n.\024\226:$9\301\251J2\366\001\007\2350\037\341\342"
 112      3A2439C1 
 112      A94A32F6 
 112      01079D30 
 112      1FE1E2
 113 03bf B2A226B8 		.ascii	"\262\242&\270w\337\333\321\324\310\265\266\266p[\333"
 113      77DFDBD1 
 113      D4C8B5B6 
 113      B6705BDB 
 114 03cf B7B7ED6E 		.ascii	"\267\267\355n\344\342|$\030\211\010\015a\344\333\372"
 114      E4E27C24 
 114      1889080D 
 114      61E4DBFA 
 115 03df CECE4033 		.ascii	"\316\316@3\252K\250\321\246\306\340\256\270$\007\023"
 115      AA4BA8D1 
 115      A6C6E0AE 
 115      B8240713 
 116 03ef A29A8C07 		.ascii	"\242\232\214\007\325\027\271dB\341x%Z\037\223cb\275"
 116      D517B964 
 116      42E17825 
 116      5A1F9363 
 116      62BD
 117 0401 C877489C 		.ascii	"\310wH\234\024\013E\222\202\310%TA\212\251\340^\231"
 117      140B4592 
 117      82C82554 
 117      418AA9E0 
 117      5E99
 118 0413 84161CD5 		.ascii	"\204\026\034\325\215O\030\035\345A[L\344\202\202\330"
 118      8D4F181D 
 118      E5415B4C 
 118      E48282D8 
 119 0423 C927236A 		.ascii	"\311'#jP\335\033\027\023\340]\025\014\346\375\313\243"
 119      50DD1B17 
 119      13E05D15 
 119      0CE6FDCB 
 119      A3
 120 0434 B2202A3E 		.ascii	"\262 *>\231\276R*\344D\\\024\005\245<\236\214\013\212"
 120      99BE522A 
 120      E4445C14 
 120      05A53C9E 
 120      8C0B8A
 121 0447 57169432 		.ascii	"W\026\2242\276S\211\320*\354k\337\334\302\253\274\257"
 121      BE5389D0 
ARM GAS  /tmp/ccY9k62e.s 			page 9


 121      2AEC6BDF 
 121      DCC2ABBC 
 121      AF
 122 0458 FD4DAD69 		.ascii	"\375M\255i\326\232\026\255\331\2425\333h\343o\337\334"
 122      D69A16AD 
 122      D9A235DB 
 122      68E36FDF 
 122      DC
 123 0469 DA2CC73A 		.ascii	"\332,\307:\245]\015N\226*\241\204h\333\020B\025\320"
 123      A55D0D4E 
 123      962AA184 
 123      68DB1042 
 123      15D0
 124 047b 6C8F49EA 		.ascii	"l\217I\352\313N\334\012KBW3\241R\307\252\006\256C\346"
 124      CB4EDC0A 
 124      4B425733 
 124      A152C7AA 
 124      06AE43E6 
 125 048f 15BABE7E 		.ascii	"\025\272\276~\326\241\017_uC\213FC\301D\\\002@\005t"
 125      D6A10F5F 
 125      75438B46 
 125      43C1445C 
 125      02400574 
 126 04a3 A97B931B 		.ascii	"\251{\223\033\367$\257h\273\003-unt5\023-.4\324\365"
 126      F724AF68 
 126      BB032D75 
 126      6E743513 
 126      2D2E34D4 
 127 04b8 1557AEA2 		.ascii	"\025W\256\242\"\301\022\322\205\020\\\307\225\032C4"
 127      22C112D2 
 127      85105CC7 
 127      951A4334 
 128 04c8 2E34AE5D 		.ascii	".4\256]y\201\271BC]\237\012\352\371\035\224\340W\213"
 128      7981B942 
 128      435D9F0A 
 128      EAF91D94 
 128      E0578B
 129 04db DB73C2EA 		.ascii	"\333s\302\352\2676\356\331C\337\350\307\244&l \326Q"
 129      B736EED9 
 129      43DFE8C7 
 129      A4266C20 
 129      D651
 130 04ed 7C3E9743 		.ascii	"|>\227C,\303\376\007<\202\231\241"
 130      2CC3FE07 
 130      3C8299A1 
 131              		.text
 132              		.section	.gnu.lto_.symtab.ed2daee1af09293b,"",%progbits
 133 0000 68616C49 		.ascii	"halInit\000\000\000\000\000\000\000\000\000\000\000"
 133      6E697400 
 133      00000000 
 133      00000000 
 133      0000
 134 0012 00CE0000 		.ascii	"\000\316\000\000\000pal_default_config\000\000\002\000"
 134      0070616C 
 134      5F646566 
 134      61756C74 
 134      5F636F6E 
ARM GAS  /tmp/ccY9k62e.s 			page 10


 135 002d 00000000 		.ascii	"\000\000\000\000\000\000\000\000\350\000\000\000stI"
 135      00000000 
 135      E8000000 
 135      737449
 136 003c 6E697400 		.ascii	"nit\000\000\002\000\000\000\000\000\000\000\000\000"
 136      00020000 
 136      00000000 
 136      000000
 137 004b D2000000 		.ascii	"\322\000\000\000boardInit\000\000\002\000\000\000\000"
 137      626F6172 
 137      64496E69 
 137      74000002 
 137      00000000 
 138 005f 00000000 		.ascii	"\000\000\000\000\000\324\000\000\000mmcInit\000\000"
 138      00D40000 
 138      006D6D63 
 138      496E6974 
 138      0000
 139 0071 02000000 		.ascii	"\002\000\000\000\000\000\000\000\000\000\326\000\000"
 139      00000000 
 139      0000D600 
 139      00
 140 007e 00756172 		.ascii	"\000uartInit\000\000\002\000\000\000\000\000\000\000"
 140      74496E69 
 140      74000002 
 140      00000000 
 140      000000
 141 0091 0000D800 		.ascii	"\000\000\330\000\000\000spiInit\000\000\002\000\000"
 141      00007370 
 141      69496E69 
 141      74000002 
 141      0000
 142 00a3 00000000 		.ascii	"\000\000\000\000\000\000\000\332\000\000\000sdInit\000"
 142      000000DA 
 142      00000073 
 142      64496E69 
 142      7400
 143 00b5 00020000 		.ascii	"\000\002\000\000\000\000\000\000\000\000\000\334\000"
 143      00000000 
 143      000000DC 
 143      00
 144 00c2 00006932 		.ascii	"\000\000i2cInit\000\000\002\000\000\000\000\000\000"
 144      63496E69 
 144      74000002 
 144      00000000 
 144      0000
 145 00d4 000000DE 		.ascii	"\000\000\000\336\000\000\000adcInit\000\000\002\000"
 145      00000061 
 145      6463496E 
 145      69740000 
 145      0200
 146 00e6 00000000 		.ascii	"\000\000\000\000\000\000\000\000\340\000\000\000_pa"
 146      00000000 
 146      E0000000 
 146      5F7061
 147 00f5 6C5F6C6C 		.ascii	"l_lld_init\000\000\002\000\000\000\000\000\000\000\000"
 147      645F696E 
ARM GAS  /tmp/ccY9k62e.s 			page 11


 147      69740000 
 147      02000000 
 147      00000000 
 148 010a 00E20000 		.ascii	"\000\342\000\000\000hal_lld_init\000\000\002\000\000"
 148      0068616C 
 148      5F6C6C64 
 148      5F696E69 
 148      74000002 
 149 0120 00000000 		.ascii	"\000\000\000\000\000\000\000\346\000\000\000"
 149      000000E6 
 149      000000
 150              		.text
 151              		.section	.gnu.lto_.opts,"",%progbits
 152 0000 272D6D63 		.ascii	"'-mcpu=cortex-m4' '-mfloat-abi=hard' '-mfpu=fpv4-sp"
 152      70753D63 
 152      6F727465 
 152      782D6D34 
 152      2720272D 
 153 0033 2D643136 		.ascii	"-d16' '-mno-thumb-interwork' '-mthumb' '-O2' '-fomi"
 153      2720272D 
 153      6D6E6F2D 
 153      7468756D 
 153      622D696E 
 154 0066 742D6672 		.ascii	"t-frame-pointer' '-falign-functions=16' '-ffunction"
 154      616D652D 
 154      706F696E 
 154      74657227 
 154      20272D66 
 155 0099 2D736563 		.ascii	"-sections' '-fdata-sections' '-fno-common' '-flto' "
 155      74696F6E 
 155      73272027 
 155      2D666461 
 155      74612D73 
 156 00cc 272D6673 		.ascii	"'-fsingle-precision-constant'\000"
 156      696E676C 
 156      652D7072 
 156      65636973 
 156      696F6E2D 
 157              		.text
 158              		.section	.text.halInit,"ax",%progbits
 159              		.align	2
 160              		.p2align 4,,15
 161              		.global	halInit
 162              		.thumb
 163              		.thumb_func
 164              		.type	halInit, %function
 165              	halInit:
 166              		@ args = 0, pretend = 0, frame = 0
 167              		@ frame_needed = 0, uses_anonymous_args = 0
 168 0000 08B5     		push	{r3, lr}
 169 0002 FFF7FEFF 		bl	hal_lld_init
 170 0006 0A48     		ldr	r0, .L2
 171 0008 FFF7FEFF 		bl	_pal_lld_init
 172 000c FFF7FEFF 		bl	adcInit
 173 0010 FFF7FEFF 		bl	i2cInit
 174 0014 FFF7FEFF 		bl	sdInit
 175 0018 FFF7FEFF 		bl	spiInit
ARM GAS  /tmp/ccY9k62e.s 			page 12


 176 001c FFF7FEFF 		bl	uartInit
 177 0020 FFF7FEFF 		bl	mmcInit
 178 0024 FFF7FEFF 		bl	boardInit
 179 0028 BDE80840 		pop	{r3, lr}
 180 002c FFF7FEBF 		b	stInit
 181              	.L3:
 182              		.align	2
 183              	.L2:
 184 0030 00000000 		.word	pal_default_config
 185              		.size	halInit, .-halInit
 186              		.comm	__gnu_lto_v1,1,1
 187 0034 AFF30080 		.ident	"GCC: (GNU Tools for ARM Embedded Processors) 4.8.4 20140526 (release) [ARM/embedded-4_8-br
 187      AFF30080 
 187      AFF30080 
ARM GAS  /tmp/ccY9k62e.s 			page 13


DEFINED SYMBOLS
                            *ABS*:0000000000000000 hal.c
     /tmp/ccY9k62e.s:159    .text.halInit:0000000000000000 $t
     /tmp/ccY9k62e.s:165    .text.halInit:0000000000000000 halInit
     /tmp/ccY9k62e.s:184    .text.halInit:0000000000000030 $d
                            *COM*:0000000000000001 __gnu_lto_v1
     /tmp/ccY9k62e.s:187    .text.halInit:0000000000000034 $t

UNDEFINED SYMBOLS
hal_lld_init
_pal_lld_init
adcInit
i2cInit
sdInit
spiInit
uartInit
mmcInit
boardInit
stInit
pal_default_config
