ARM GAS  /tmp/cc24HuPZ.s 			page 1


   1              		.syntax unified
   2              		.cpu cortex-m4
   3              		.eabi_attribute 27, 3
   4              		.eabi_attribute 28, 1
   5              		.fpu fpv4-sp-d16
   6              		.eabi_attribute 20, 1
   7              		.eabi_attribute 21, 1
   8              		.eabi_attribute 23, 3
   9              		.eabi_attribute 24, 1
  10              		.eabi_attribute 25, 1
  11              		.eabi_attribute 26, 1
  12              		.eabi_attribute 30, 2
  13              		.eabi_attribute 34, 1
  14              		.eabi_attribute 18, 4
  15              		.thumb
  16              		.file	"hal.c"
  17              		.section	.gnu.lto_.jmpfuncs.31797f0cec5389c2,"",%progbits
  18 0000 789C6362 		.ascii	"x\234cb`b\300\006\024\2404#B\210\221\251\232\341W\303"
  18      6062C006 
  18      14A03423 
  18      428891A9 
  18      9AE157C3 
  19 0014 8C06814C 		.ascii	"\214\006\201LF\206\\\2308\000A\340\004\036"
  19      46865C98 
  19      380041E0 
  19      041E
  20              		.text
  21              		.section	.gnu.lto_.inline.31797f0cec5389c2,"",%progbits
  22 0000 789C6362 		.ascii	"x\234cb`b\300\006<\2404#\003\003\337s \011R\305\266"
  22      6062C006 
  22      3CA03423 
  22      0303DF73 
  22      200952C5 
  23 0015 401EAC98 		.ascii	"@\036\254\230\221\2138\202\211\033\244\037\314d\000"
  23      918B3882 
  23      891BA41F 
  23      CC6400
  24 0024 0094CD02 		.ascii	"\000\224\315\002~"
  24      7E
  25              		.text
  26              		.section	.gnu.lto_.pureconst.31797f0cec5389c2,"",%progbits
  27 0000 789C6362 		.ascii	"x\234cb`b`f\200\000F\006\011\000\000\203\000!"
  27      60626066 
  27      80004606 
  27      09000083 
  27      0021
  28              		.text
  29              		.section	.gnu.lto_halInit.31797f0cec5389c2,"",%progbits
  30 0000 789C6362 		.ascii	"x\234cb`b@\007\222@\374\220\221\201\301\000H32302M8"
  30      60624007 
  30      9240FC90 
  30      9181C100 
  30      48333233 
  31 0018 C7C0D0C8 		.ascii	"\307\300\320\310\301\304\310\010b002\32431\326G2\202"
  31      C1C4C808 
  31      62303032 
  31      D43331D6 
ARM GAS  /tmp/cc24HuPZ.s 			page 2


  31      473282
  32 002b D5AE673A 		.ascii	"\325\256g:\360\340\377\377u?6>\234\305(\304\003\024"
  32      F0E0FFFF 
  32      753F363E 
  32      9CC528C4 
  32      0314
  33 003d 60656869 		.ascii	"`ehih\230\240\300\300\220\014V\020\002$A\272B\031\231"
  33      6898A0C0 
  33      C0900C56 
  33      10022441 
  33      BA421999 
  34 0051 4034F379 		.ascii	"@4\363y\206\346\007]\217\331\023\031\0272\262\002\245"
  34      86E6075D 
  34      8FD91319 
  34      1732B202 
  34      A5
  35 0062 AB197E35 		.ascii	"\253\031~5t4\010d2\002\225C\014\314\004\321\347\031"
  35      74340864 
  35      32029543 
  35      0CCC04D1 
  35      E719
  36 0074 5A1EF426 		.ascii	"Z\036\364&c(bJf\204\270\026$\"\221\311\310\234\313\310"
  36      6328624A 
  36      6684B816 
  36      242291C9 
  36      C89CCBC8 
  37 0088 005594C9 		.ascii	"\000U\224\311\310\002\322\326\374`\306a6l\2063#\033"
  37      C802D2D6 
  37      FC60C661 
  37      366C8633 
  37      231B
  38 009a DEBC600D 		.ascii	"\336\274`\01536E,(\212\036\234^\214\325(VTU7\261[\310"
  38      3336452C 
  38      288A1E9C 
  38      5E8CD528 
  38      56545537 
  39 00b1 86AAEACE 		.ascii	"\206\252\352\316c\254\252\330QU\275\302n\026\007\252"
  39      63ACAAD8 
  39      5155BDC2 
  39      6E1607AA 
  40 00c1 AACE56AC 		.ascii	"\252\316V\254\341\307\211\252j\306R\254fq!T]dh|0K\025"
  40      E1C789AA 
  40      6AC652AC 
  40      66712154 
  40      5D64687C 
  41 00d8 A6080242 		.ascii	"\246\010\002B\200\022\300x\002\005\263\236~F~n\252~"
  41      8012C078 
  41      0205B39E 
  41      7E467E6E 
  41      AA7E
  42 00ea 727E4AA5 		.ascii	"r~J\245~Jj\231~rFfRf~\261~IQi^\266>\220\221\221\230"
  42      7E4A6A99 
  42      7E724666 
  42      52667EB1 
  42      7E495169 
  43 0105 A35F5C94 		.ascii	"\243_\\\224\014\242\365\222\031\000\203\256\206\315"
  43      0CA2F592 
ARM GAS  /tmp/cc24HuPZ.s 			page 3


  43      190083AE 
  43      86CD
  44              		.text
  45              		.section	.gnu.lto_.symbol_nodes.31797f0cec5389c2,"",%progbits
  46 0000 789C45CF 		.ascii	"x\234E\317\273\025\3020\020D\321\321\310\362\217\"("
  46      BB15C230 
  46      1044D1D1 
  46      C8F28F22 
  46      28
  47 0011 750C0263 		.ascii	"u\014\002c\210\250\200\304\2458\247\006|\234\022\022"
  47      88A880C4 
  47      A538A706 
  47      7C9C1212 
  48 0021 034270D8 		.ascii	"\003Bp\330M\356\276\315\226 \036\370\015_N\300\371\012"
  48      4DEEBECD 
  48      96201EF8 
  48      0D5F4EC0 
  48      F90A
  49 0033 4897C185 		.ascii	"H\227\301\205-\323\006w\242\334\367\332u\316\035)Z\015"
  49      2DD30677 
  49      A2DCF7DA 
  49      75CE1D29 
  49      5A0D
  50 0045 94B73A50 		.ascii	"\224\267:P\205UO\005\253=UZ\355\250\312*R\265\325\206"
  50      85554F05 
  50      AB3D555A 
  50      EDA8CA2A 
  50      52B5D586 
  51 0059 6AAC3AAA 		.ascii	"j\254:\252\375\227\307\012\361\366L\266\030\263\015"
  51      FD97C70A 
  51      F1F64CB6 
  51      18B30D
  52 0068 A66C8D25 		.ascii	"\246l\215%[!\316\037K\214\331\200)[`\311z\304\376\276"
  52      5B21CE1F 
  52      4B8CD980 
  52      295B60C9 
  52      7AC4FEBE 
  53 007c F6E9ED31 		.ascii	"\366\351\3551\2117\231wGl"
  53      89379977 
  53      476C
  54              		.text
  55              		.section	.gnu.lto_.refs.31797f0cec5389c2,"",%progbits
  56 0000 789C6362 		.ascii	"x\234cb`b`e\200\000F\006&F\006\000\000\237\000\016"
  56      60626065 
  56      80004606 
  56      26460600 
  56      009F000E 
  57              		.text
  58              		.section	.gnu.lto_.decls.31797f0cec5389c2,"",%progbits
  59 0000 789C9596 		.ascii	"x\234\225\226al\024E\024\307g\356\332k\257\255\3254"
  59      616C1445 
  59      14C767EE 
  59      DA6BAFAD 
  59      D534
  60 0012 914862C2 		.ascii	"\221Hb\302a\204D\222vc\213F\277`\260E \026\333DI\374"
  60      61844492 
  60      76638B46 
ARM GAS  /tmp/cc24HuPZ.s 			page 4


  60      BF60B045 
  60      2016DB44 
  61 0028 76D9DE6E 		.ascii	"v\331\336n\271\215w\267\227\275=\002\237\034\252\241"
  61      B98D77B7 
  61      97BD3D02 
  61      9F1CAAA1 
  62 0038 0D1F4829 		.ascii	"\015\037H)\026ll\340*T\213A%\215!\004\233\346\2044\226"
  62      166C6CE0 
  62      2A548B41 
  62      258D2104 
  62      9BE68434 
  63 004d 901C0501 		.ascii	"\220\034\005\001\001[=\254P\241\211m\202\037J$9\337"
  63      015B3DAC 
  63      50A1896D 
  63      821F4A24 
  63      39DF
  64 005f CCEEF576 		.ascii	"\314\356\365v\357v\351\356$ofnw\336\357\375g\346\315"
  64      EF76E9EE 
  64      246F666E 
  64      77DEEFFD 
  64      67E6CD
  65 0072 DC7A9007 		.ascii	"\334z\220\007\215!\204rP\276\251F\350\240\027\301\023"
  65      8D218472 
  65      50BEA946 
  65      E8A017C1 
  65      13
  66 0083 84368161 		.ascii	"\2046\201a\260!\244\025x\2052`\327\300\256\203\335\004"
  66      B021A415 
  66      78853260 
  66      D7C0AE83 
  66      DD04
  67 0095 BB057607 		.ascii	"\273\005v\007l\032\354w\260,\330\237`\367u\337\277\221"
  67      6C1AEC77 
  67      B02CD89F 
  67      60F775DF 
  67      BF91
  68 00a7 B950FF72 		.ascii	"\271P\377r\260\207`W\300\346u\376lQ\214\373:'\253s\247"
  68      B0876057 
  68      C0E675FE 
  68      6C518CFB 
  68      3A27AB73 
  69 00bc F538B7F4 		.ascii	"\3658\267\364\270\327u\035V1\252\321\001B\272Hj?\331"
  69      B8D7751D 
  69      5631AAD1 
  69      0142BA48 
  69      6A3FD9
  70 00cf 36595B87 		.ascii	"6Y[\207\016\021()B\360d-B\037b\036\327\372Q\272\212"
  70      0E112829 
  70      42F0642D 
  70      421F621E 
  70      D7FA51BA 
  71 00e4 F56AFC68 		.ascii	"\365j\374h\204\022\326\241\223\204\364f'r\253I\231\356"
  71      8412D6A1 
  71      9384F466 
  71      2772AB49 
  71      99EE
  72 00f6 10B01FCD 		.ascii	"\020\260\037\315\343\023x\035Zy\034\0359\214\353\320"
ARM GAS  /tmp/cc24HuPZ.s 			page 5


  72      E313781D 
  72      5A791C1D 
  72      398CEBD0 
  73 0106 06740A06 		.ascii	"\006t\012\006\366\202\246\365\330$\224\205%\351G\231"
  73      F682A6F5 
  73      D8249485 
  73      25E94799 
  74 0116 1A52A60D 		.ascii	"\032R\246\015\245._\341\015\310\242\254E):\370qf\020"
  74      A52E5FE1 
  74      0DC8A2AC 
  74      45293AF8 
  74      716610
  75 0129 93D4056C 		.ascii	"\223\324\005l\021>\213\363\341_\\\236S\372j\006\007"
  75      113E8BF3 
  75      E15F5C9E 
  75      53FA6A06 
  75      07
  76 013a 787C0AC6 		.ascii	"x|\012\306{P\0336\341WDP5\247\301Ss\322\325\036\326"
  76      7B501B36 
  76      E1574450 
  76      35A7C153 
  76      73D2D51E 
  77 014f D49E76A0 		.ascii	"\324\236v\240\266+}43\270\232\252\365\243\236\302\226"
  77      B62B7D34 
  77      33B89AAA 
  77      F5A39EC2 
  77      96
  78 0160 2C470BE4 		.ascii	",G\013\344\203\225\025\366\240\277{\342'\334\005\273"
  78      839515F6 
  78      A0BF7BE2 
  78      27DC05BB 
  79 0170 C5E3EFC1 		.ascii	"\305\343\357\301\315\203\272\261Y\265s\324\325\003c"
  79      CD83BAB1 
  79      59B573D4 
  79      D50363
  80 017f 6F1252C9 		.ascii	"o\022R\311\343Q\006\232(\002\361\270\302o\224\314~\347"
  80      E351069A 
  80      2802F1B8 
  80      C26F94CC 
  80      7EE7
  81 0191 07501A7B 		.ascii	"\007P\032{\255w\350\331x\026\271\035\356AS,(],+\241"
  81      AD77E8D9 
  81      7816B91D 
  81      EE41532C 
  81      285D2C2B 
  82 01a6 7A572BFA 		.ascii	"zW+\372\000\323\002fO\316^\302\244\257&\277\0307]\343"
  82      00D30266 
  82      4FCE5EC2 
  82      A4AF26BF 
  82      18375DE3 
  83 01ba 02A6FD38 		.ascii	"\002\246\3758\226\251\351\345\363\260\031'\260J[m\351"
  83      96A9E9E5 
  83      F3B01927 
  83      B04A5B6D 
  83      E9
  84 01cb 5123EC9E 		.ascii	"Q#\354\236k\230Y\331Y#l\336\011\3549{e\347\215\260\005"
  84      6B9859D9 
ARM GAS  /tmp/cc24HuPZ.s 			page 6


  84      59236CDE 
  84      09EC397B 
  84      65E78DB0 
  85 01e0 D730B3B2 		.ascii	"\3270\263\262q#\354_'\260\027,\224Y\025\343\351\342"
  85      7123EC5F 
  85      27B0172C 
  85      945915E3 
  85      E9E2
  86 01f2 F1B770A9 		.ascii	"\361\267p\251\360\370;\274\026\352\263\254>\307\352"
  86      F0F83BBC 
  86      16EAB3AC 
  86      3EC7EA
  87 0201 F3AC1E63 		.ascii	"\363\254\036c\3658\253\323P/\027\017z\3144\015\0274"
  87      F538ABD3 
  87      502F170F 
  87      7ACC340D 
  87      1734
  88 0213 994FF14A 		.ascii	"\231O\361JIF\322\275mt\202\332\035A<N`\246\031\006L"
  88      4946D2BD 
  88      6D7482DA 
  88      1D413C4E 
  88      60A61906 
  89 0228 B0CF0DB0 		.ascii	"\260\317\015\260nG\2607\354\225\2351\300\016:\202\265"
  89      6E47B037 
  89      EC959D31 
  89      C00E3A82 
  89      B5
  90 0239 DB2B3B67 		.ascii	"\333+;g\200\365;\202\305\355\225-\032`\203\216`=\330"
  90      80F53B82 
  90      C5ED952D 
  90      1A60838E 
  90      603DD8
  91 024c 429A2117 		.ascii	"B\232!\027\264,\370\232e\301\010\333\347\213\254\236"
  91      B42CF89A 
  91      65C108DB 
  91      E78BAC9E 
  92 025c 60F5CFAC 		.ascii	"`\365\317\254\276\304\352\313\346\375?\341)\276\330"
  92      BEC4EACB 
  92      E6FD3FE1 
  92      29BED8
  93 026b B4BF1203 		.ascii	"\264\277\022\003{x9\317\220;\272U\226S\304\020\256\316"
  93      7B7839CF 
  93      903BBA55 
  93      9653C410 
  93      AECE
  94 027d 0F59838E 		.ascii	"\017Y\203\216\221T6\373\343\341q\337\000I\177Jr\271"
  94      915436FB 
  94      E3E171DF 
  94      00497F4A 
  94      72B9
  95 028f 8FD12AD4 		.ascii	"\217\321*\324\317\376u\367\303E\256\362x\323\363\266"
  95      CFFE75F7 
  95      C345AEF2 
  95      78D3F3B6 
  96 029f A02B7895 		.ascii	"\240+x\225\336\333\351\315Oh\272hB\010\255G\303\224"
  96      DEDBE9CD 
  96      4F68BA68 
ARM GAS  /tmp/cc24HuPZ.s 			page 7


  96      4208AD47 
  96      C394
  97 02b1 47468897 		.ascii	"GF\210\227\321\350\370\014^c\236\344\024\366\030\037"
  97      D1E8F80C 
  97      5E639EE4 
  97      14F6181F 
  98 02c1 505DD9DE 		.ascii	"P]\331\336\354\300\321\231}\370\320'\251I\262H\357d"
  98      ECC0D199 
  98      7DF8D027 
  98      A949B248 
  98      EF64
  99 02d3 2DA2071D 		.ascii	"-\242\007\035\361\026\307\320 \277XB\376\2733W\177\244"
  99      F116C7D0 
  99      20BF5842 
  99      FEBB3357 
  99      7FA4
 100 02e5 843162C3 		.ascii	"\2041b\303\270a\311\270\361\305B\227\205\220\0076\220"
 100      B861C9B8 
 100      F1C54297 
 100      85900736 
 100      90
 101 02f6 5F2D21D7 		.ascii	"_-!\327\216\317\341\001rA[\345<b\270\314\032q\333\022"
 101      8ECFE101 
 101      72415BE5 
 101      3C62B8CC 
 101      1A71DB12 
 102 030a 31363BF9 		.ascii	"16;\371n\011\342\256\015\3427K\304\350\334\324\216\022"
 102      6E09E2AE 
 102      0DE2374B 
 102      C4E8DCD4 
 102      8E12
 103 031c C4F1726B 		.ascii	"\304\361rk\304\214%bp~\351\225\022\304m\033\304\037"
 103      C48C2562 
 103      707EE995 
 103      12C46D1B 
 103      C41F
 104 032e 9688BE85 		.ascii	"\226\210\276\205\251\267J\020\237\371\254\021w-\021"
 104      A9B74A10 
 104      9FF9AC11 
 104      772D11
 105 033d 7F2D5CC6 		.ascii	"\177-\\\306=}\344I.\347u\221\263\263z\316z\331g\262"
 105      3D7DE449 
 105      2EE77591 
 105      B3B37ACE 
 105      7AD967B2 
 106 0351 7E1A0A09 		.ascii	"~\032\012\011\214h\016\017\332\350\270g\251\343\207"
 106      8C680E0F 
 106      DAE8B867 
 106      A9E387
 107 0360 474B4BB8 		.ascii	"GKK\270\257$7\026l sf\310Kh\210,\302\347\353?\027\275"
 107      AF243716 
 107      6C207366 
 107      C84B6888 
 107      2CC2E7EB 
 108 0377 FBE87AD0 		.ascii	"\373\350z\320\371`\220\374%\273\235\236,C\354?S\037"
 108      F96090FC 
 108      25BB9D9E 
ARM GAS  /tmp/cc24HuPZ.s 			page 8


 108      2C43EC3F 
 108      531F
 109 0389 1480A6AF 		.ascii	"\024\200\246\257gM\210\335:<,\\\002E^\263O\361\232/"
 109      674D88DD 
 109      3A3C2C5C 
 109      02455EB3 
 109      4FF19A2F 
 110 039d 78A12D5C 		.ascii	"x\241-\\X\216\212\\H\026\366r\202\270\233\013\205\245"
 110      588E8A5C 
 110      4816F672 
 110      82B89B0B 
 110      85A5
 111 03af 0E494E70 		.ascii	"\016INp\252\222\214}\304A'\314G\270\270\254\250\011"
 111      AA928C7D 
 111      C44127CC 
 111      47B8B8AC 
 111      A809
 112 03c1 EEFD0F76 		.ascii	"\356\375\017v45r\255\255-\334\326\366\355m\273\033\271"
 112      343572AD 
 112      AD2DDCD6 
 112      F6ED6DBB 
 112      1BB9
 113 03d3 381F0946 		.ascii	"8\037\011F\"BC\030\371\266\276\2673\320\214\352\022"
 113      22424318 
 113      F9B6BEB7 
 113      33D08CEA 
 113      12
 114 03e4 6AB4A931 		.ascii	"j\264\2511\270+.\311\301\204\250&\343A\365e.\231P8^"
 114      B82B2EC9 
 114      C184A826 
 114      E341F565 
 114      2E995038 
 115 03f9 89D6C7E4 		.ascii	"\211\326\307\344\230X/\362\035\022'\305B\221\244 r\011"
 115      98582FF2 
 115      1D1227C5 
 115      4291A420 
 115      7209
 116 040b 5590622A 		.ascii	"U\220b*\270W&\241\005Gu\343SFGy\320\026\023\271\240"
 116      B85726A1 
 116      054775E3 
 116      53464779 
 116      D01613B9 
 117 0420 2076F2C9 		.ascii	" v\362\311\210\032T\367\306\305\004xW\005\203y\377\362"
 117      881A54F7 
 117      C6C50478 
 117      57058379 
 117      FFF2
 118 0432 A82C888A 		.ascii	"\250,\210\212O\246\257\224\0129\021\027EA)\217'\343"
 118      4FA6AF94 
 118      0A391117 
 118      4541298F 
 118      27E3
 119 0444 82E29505 		.ascii	"\202\342\225\005\245\214\357T\"\264\012\373\3327\267"
 119      A58CEF54 
 119      22B40AFB 
 119      DA37B7
 120 0453 F02AEF6B 		.ascii	"\360*\357k\177[k\232\265\246Ek\266h\3156\332\370\333"
ARM GAS  /tmp/cc24HuPZ.s 			page 9


 120      7F5B6B9A 
 120      B5A6456B 
 120      B668CD36 
 120      DAF8DB
 121 0466 37B736CB 		.ascii	"7\2676\313\261NiW\203\223\245J(!\3326\204P\0054\333"
 121      B14E6957 
 121      8393A54A 
 121      2821DA36 
 121      84500534 
 122 047b 6392FAAA 		.ascii	"c\222\372\252\023\267\302\222\320\325L\250\324\261\252"
 122      13B7C292 
 122      D0D54CA8 
 122      D4B1AA
 123 048a 81EB9079 		.ascii	"\201\353\220y\205\256\257\237u\350\303\327\335\320\242"
 123      85AEAF9F 
 123      75E8C3D7 
 123      DDD0A2
 124 0499 D1503011 		.ascii	"\321P0\021\227\000P\001]\352\336\344\306=\311+\332\356"
 124      97005001 
 124      5DEADEE4 
 124      C63DC92B 
 124      DAEE
 125 04ab 404B9D1B 		.ascii	"@K\235\033]\315D\213\013\015u}\315\225\253\250H\260"
 125      5DCD448B 
 125      0B0D757D 
 125      CD95ABA8 
 125      48B0
 126 04bd 84742104 		.ascii	"\204t!\004\327q\245\306\020\215\013\215kW^`\256\320"
 126      D771A5C6 
 126      108D0B8D 
 126      6B575E60 
 126      AED0
 127 04cf 50D76782 		.ascii	"P\327g\202z~\007%\370\325\342\366\234\260\372\235\215"
 127      7A7E0725 
 127      F8D5E2F6 
 127      9CB0FA9D 
 127      8D
 128 04e0 7BF6D037 		.ascii	"{\366\3207\3721\251\011\033\210u\024\237\317\345\020"
 128      FA31A909 
 128      1B887514 
 128      9FCFE510 
 129 04f0 CBB0FF01 		.ascii	"\313\260\377\001\0230\231\233"
 129      1330999B 
 130              		.text
 131              		.section	.gnu.lto_.symtab.31797f0cec5389c2,"",%progbits
 132 0000 68616C49 		.ascii	"halInit\000\000\000\000\000\000\000\000\000\000\000"
 132      6E697400 
 132      00000000 
 132      00000000 
 132      0000
 133 0012 00CE0000 		.ascii	"\000\316\000\000\000pal_default_config\000\000\002\000"
 133      0070616C 
 133      5F646566 
 133      61756C74 
 133      5F636F6E 
 134 002d 00000000 		.ascii	"\000\000\000\000\000\000\000\000\350\000\000\000stI"
 134      00000000 
ARM GAS  /tmp/cc24HuPZ.s 			page 10


 134      E8000000 
 134      737449
 135 003c 6E697400 		.ascii	"nit\000\000\002\000\000\000\000\000\000\000\000\000"
 135      00020000 
 135      00000000 
 135      000000
 136 004b D2000000 		.ascii	"\322\000\000\000boardInit\000\000\002\000\000\000\000"
 136      626F6172 
 136      64496E69 
 136      74000002 
 136      00000000 
 137 005f 00000000 		.ascii	"\000\000\000\000\000\324\000\000\000mmcInit\000\000"
 137      00D40000 
 137      006D6D63 
 137      496E6974 
 137      0000
 138 0071 02000000 		.ascii	"\002\000\000\000\000\000\000\000\000\000\326\000\000"
 138      00000000 
 138      0000D600 
 138      00
 139 007e 00756172 		.ascii	"\000uartInit\000\000\002\000\000\000\000\000\000\000"
 139      74496E69 
 139      74000002 
 139      00000000 
 139      000000
 140 0091 0000D800 		.ascii	"\000\000\330\000\000\000spiInit\000\000\002\000\000"
 140      00007370 
 140      69496E69 
 140      74000002 
 140      0000
 141 00a3 00000000 		.ascii	"\000\000\000\000\000\000\000\332\000\000\000sdInit\000"
 141      000000DA 
 141      00000073 
 141      64496E69 
 141      7400
 142 00b5 00020000 		.ascii	"\000\002\000\000\000\000\000\000\000\000\000\334\000"
 142      00000000 
 142      000000DC 
 142      00
 143 00c2 00006932 		.ascii	"\000\000i2cInit\000\000\002\000\000\000\000\000\000"
 143      63496E69 
 143      74000002 
 143      00000000 
 143      0000
 144 00d4 000000DE 		.ascii	"\000\000\000\336\000\000\000adcInit\000\000\002\000"
 144      00000061 
 144      6463496E 
 144      69740000 
 144      0200
 145 00e6 00000000 		.ascii	"\000\000\000\000\000\000\000\000\340\000\000\000_pa"
 145      00000000 
 145      E0000000 
 145      5F7061
 146 00f5 6C5F6C6C 		.ascii	"l_lld_init\000\000\002\000\000\000\000\000\000\000\000"
 146      645F696E 
 146      69740000 
 146      02000000 
ARM GAS  /tmp/cc24HuPZ.s 			page 11


 146      00000000 
 147 010a 00E20000 		.ascii	"\000\342\000\000\000hal_lld_init\000\000\002\000\000"
 147      0068616C 
 147      5F6C6C64 
 147      5F696E69 
 147      74000002 
 148 0120 00000000 		.ascii	"\000\000\000\000\000\000\000\346\000\000\000"
 148      000000E6 
 148      000000
 149              		.text
 150              		.section	.gnu.lto_.opts,"",%progbits
 151 0000 272D6D63 		.ascii	"'-mcpu=cortex-m4' '-mfloat-abi=hard' '-mfpu=fpv4-sp"
 151      70753D63 
 151      6F727465 
 151      782D6D34 
 151      2720272D 
 152 0033 2D643136 		.ascii	"-d16' '-mno-thumb-interwork' '-mthumb' '-O2' '-fomi"
 152      2720272D 
 152      6D6E6F2D 
 152      7468756D 
 152      622D696E 
 153 0066 742D6672 		.ascii	"t-frame-pointer' '-falign-functions=16' '-ffunction"
 153      616D652D 
 153      706F696E 
 153      74657227 
 153      20272D66 
 154 0099 2D736563 		.ascii	"-sections' '-fdata-sections' '-fno-common' '-flto' "
 154      74696F6E 
 154      73272027 
 154      2D666461 
 154      74612D73 
 155 00cc 272D6673 		.ascii	"'-fsingle-precision-constant'\000"
 155      696E676C 
 155      652D7072 
 155      65636973 
 155      696F6E2D 
 156              		.text
 157              		.section	.text.halInit,"ax",%progbits
 158              		.align	2
 159              		.p2align 4,,15
 160              		.global	halInit
 161              		.thumb
 162              		.thumb_func
 163              		.type	halInit, %function
 164              	halInit:
 165              		@ args = 0, pretend = 0, frame = 0
 166              		@ frame_needed = 0, uses_anonymous_args = 0
 167 0000 08B5     		push	{r3, lr}
 168 0002 FFF7FEFF 		bl	hal_lld_init
 169 0006 0A48     		ldr	r0, .L2
 170 0008 FFF7FEFF 		bl	_pal_lld_init
 171 000c FFF7FEFF 		bl	adcInit
 172 0010 FFF7FEFF 		bl	i2cInit
 173 0014 FFF7FEFF 		bl	sdInit
 174 0018 FFF7FEFF 		bl	spiInit
 175 001c FFF7FEFF 		bl	uartInit
 176 0020 FFF7FEFF 		bl	mmcInit
ARM GAS  /tmp/cc24HuPZ.s 			page 12


 177 0024 FFF7FEFF 		bl	boardInit
 178 0028 BDE80840 		pop	{r3, lr}
 179 002c FFF7FEBF 		b	stInit
 180              	.L3:
 181              		.align	2
 182              	.L2:
 183 0030 00000000 		.word	pal_default_config
 184              		.size	halInit, .-halInit
 185              		.comm	__gnu_lto_v1,1,1
 186 0034 AFF30080 		.ident	"GCC: (GNU Tools for ARM Embedded Processors) 4.8.4 20140526 (release) [ARM/embedded-4_8-br
 186      AFF30080 
 186      AFF30080 
ARM GAS  /tmp/cc24HuPZ.s 			page 13


DEFINED SYMBOLS
                            *ABS*:0000000000000000 hal.c
     /tmp/cc24HuPZ.s:158    .text.halInit:0000000000000000 $t
     /tmp/cc24HuPZ.s:164    .text.halInit:0000000000000000 halInit
     /tmp/cc24HuPZ.s:183    .text.halInit:0000000000000030 $d
                            *COM*:0000000000000001 __gnu_lto_v1
     /tmp/cc24HuPZ.s:186    .text.halInit:0000000000000034 $t

UNDEFINED SYMBOLS
hal_lld_init
_pal_lld_init
adcInit
i2cInit
sdInit
spiInit
uartInit
mmcInit
boardInit
stInit
pal_default_config
