ARM GAS  /tmp/ccJgD0nv.s 			page 1


   1              		.syntax unified
   2              		.cpu cortex-m4
   3              		.eabi_attribute 27, 3
   4              		.eabi_attribute 28, 1
   5              		.fpu fpv4-sp-d16
   6              		.eabi_attribute 20, 1
   7              		.eabi_attribute 21, 1
   8              		.eabi_attribute 23, 3
   9              		.eabi_attribute 24, 1
  10              		.eabi_attribute 25, 1
  11              		.eabi_attribute 26, 1
  12              		.eabi_attribute 30, 2
  13              		.eabi_attribute 34, 1
  14              		.eabi_attribute 18, 4
  15              		.thumb
  16              		.file	"hal_lld.c"
  17              		.section	.gnu.lto_.jmpfuncs.4e486bbc83f5242f,"",%progbits
  18 0000 789C6362 		.ascii	"x\234cb`b\300\006\330\2414H\226\221\201\001\000\001"
  18      6062C006 
  18      D8A13448 
  18      96918101 
  18      0001
  19 0012 39000F   		.ascii	"9\000\017"
  20              		.text
  21              		.section	.gnu.lto_.inline.4e486bbc83f5242f,"",%progbits
  22 0000 789C6362 		.ascii	"x\234cb`b\300\006\014\2404PVA\203\221\201\311b\301z"
  22      6062C006 
  22      0CA03450 
  22      56418391 
  22      81C962C1 
  23 0015 6606B605 		.ascii	"f\006\266\005\362`\325\214\\ \202\301l\005\023P&\355"
  23      F260D58C 
  23      5C2082C1 
  23      6C051350 
  23      26ED
  24 0027 C01B65B8 		.ascii	"\300\033e\270\014\003\000\243{\006\276"
  24      0C0300A3 
  24      7B06BE
  25              		.text
  26              		.section	.gnu.lto_.pureconst.4e486bbc83f5242f,"",%progbits
  27 0000 789C6362 		.ascii	"x\234cb`b`e\200\000&\006)F)\000\001\006\000A"
  27      60626065 
  27      80002606 
  27      29462900 
  27      01060041 
  28              		.text
  29              		.section	.gnu.lto_hal_lld_init.4e486bbc83f5242f,"",%progbits
  30 0000 789CAD55 		.ascii	"x\234\255UMh\023A\024~of\267IKj\202\364'\301\203\245"
  30      4D681341 
  30      147E6F66 
  30      B7494B6A 
  30      82F427C1 
  31 0016 E049E8DA 		.ascii	"\340I\350\332\350\301\213=\211\342\241\247\246PO\222"
  31      E8C18B3D 
  31      89E2A1A7 
  31      A6504F92 
  32 0026 26A50946 		.ascii	"&\245\011FS\332Z\252=t\326T(V0x*z\261\210(\275\364\032"
ARM GAS  /tmp/ccJgD0nv.s 			page 2


  32      53DA5AAA 
  32      3D74D654 
  32      28563078 
  32      2A7AB188 
  33 003e E9A568A5 		.ascii	"\351\245h\245)\370\203\036<T\220\010\202\036D<\226*"
  33      29F8831E 
  33      3C549008 
  33      821E443C 
  33      962A
  34 0050 AE6F7676 		.ascii	"\256ovv\327\374 &\261\017\362fvf\3367\337\367\336\314"
  34      D7FC2026 
  34      B10FF266 
  34      7666DE37 
  34      DFF7DECC 
  35 0064 8401836A 		.ascii	"\204\001\203j\213\322\357\265\017`\204Z\324\001Y\376"
  35      8BD2EFB5 
  35      0F60845A 
  35      D40159FE 
  36 0074 1580E967 		.ascii	"\025\200\351g\214o\017\200h\323\266\202 \002\03455\254"
  36      8C6F0F80 
  36      68D3B682 
  36      20021C35 
  36      35AC
  37 0086 21CA0E20 		.ascii	"!\312\016 \3143\256\341\374y\224\030\274\027V\204\270"
  37      CC33AEE1 
  37      FC799418 
  37      BC175684 
  37      B8
  38 0097 53BAB1B7 		.ascii	"S\272\261\267\034\271y\377z^\374\262,L#\355v\026!\201"
  38      1CB979FF 
  38      7A5EFCB2 
  38      2C4C23ED 
  38      76162181 
  39 00ab 30421FD8 		.ascii	"0B\037\330c7L\253\334^En\274\335\272\325\2267\027\205"
  39      63374CAB 
  39      DC5E456E 
  39      BCDDBAD5 
  39      96371785 
  40 00bf 65CDDB71 		.ascii	"e\315\333q\203u\306\275\253\212\033\372W\334\032\333"
  40      8375C6BD 
  40      AB8A1BFA 
  40      57DC1ADB 
  41 00cf 2859D68B 		.ascii	"(Y\326\213\365O\037\227\360\340a\006q\\\301^\320\251"
  41      F54F1F97 
  41      F0E06106 
  41      715CC15E 
  41      D0A9
  42 00e1 7D40AD1F 		.ascii	"}@\255\037\010\245U\272\000\215<\244\221\240\374\010"
  42      08A555BA 
  42      008D3CA4 
  42      91A0FC08 
  43 00f1 49D7215D 		.ascii	"I\327!]\247t]\322uK\027\226.\"\035\231\016\013B\344"
  43      A7745DD2 
  43      754B1796 
  43      2E221D99 
  43      0E0B42E4 
  44 0105 7B403220 		.ascii	"{@2 \213\221\227\271\032F&[\376\022\236\356,\357\205"
ARM GAS  /tmp/ccJgD0nv.s 			page 3


  44      8B9197B9 
  44      1A46265B 
  44      FE129EEE 
  44      2CEF85
  45 0118 E3F888D2 		.ascii	"\343\370\210\322<\216\354(\254\212\0053\224F~\017\356"
  45      3C8EEC28 
  45      AC8A0533 
  45      94467E0F 
  45      EE
  46 0129 12534DD2 		.ascii	"\022SM\322\325\305\367E\241\331\314u\233\357(\272\314"
  46      D5C5F745 
  46      A1D9CC75 
  46      9BEF28BA 
  46      CC
  47 013a 29FEA40A 		.ascii	")\376\244\012n,R\216\200E\026\254\005\301\0060\270C"
  47      6E2C528E 
  47      804516AC 
  47      05C10630 
  47      B843
  48 014c 62E7F135 		.ascii	"b\347\3615W\203^/\023lZ\003\356\203\006\254\325P\364"
  48      57835E2F 
  48      136C5A03 
  48      EE8306AC 
  48      D550F4
  49 015f 34F8EB65 		.ascii	"4\370\353e\302<\015\271'\334\215n%\000\217\334\001\005"
  49      C23C0DB9 
  49      27DC8D6E 
  49      25008FDC 
  49      0105
  50 0171 7EAE3185 		.ascii	"~\2561\205\012\227\240\232P\306j\225}\361\224\005\352"
  50      0A97A09A 
  50      50C66A95 
  50      7DF19405 
  50      EA
  51 0182 65C09BAE 		.ascii	"e\300\233\256\016\337\207\352\360Z\015\3059WC\260^&"
  51      0EDF87EA 
  51      F05A0DC5 
  51      395743B0 
  51      5E26
  52 0194 9AA7A1AC 		.ascii	"\232\247\241\254:!\002\260\311\0112l\252:\232S\235\220"
  52      3A2102B0 
  52      C909326C 
  52      AA3A9A53 
  52      9D90
  53 01a6 62B6BBD3 		.ascii	"b\266\273\323\356]s\325\021\237o\237\002P\240\011u\324"
  53      EE5D73D5 
  53      119F6F9F 
  53      0250A009 
  53      75D4
  54 01b8 C6B1A302 		.ascii	"\306\261\243\002\336\314\013\352\265HX\237(\231\316"
  54      DECC0BEA 
  54      B548589F 
  54      2899CE
  55 01c7 0E3E6707 		.ascii	"\016>g\007]F?W\033J\366\271\265\367\030\307M[@'A)\001"
  55      5D463F57 
  55      1B4AF6B9 
  55      B5F718C7 
ARM GAS  /tmp/ccJgD0nv.s 			page 4


  55      4D5B4027 
  56 01de CC63BF59 		.ascii	"\314c\277Y\315\276^x\202s\322{\310\305\357*\257\221"
  56      CDBE5E78 
  56      8273D27B 
  56      C8C5EF2A 
  56      AF91
  57 01f0 C2F95B22 		.ascii	"\302\371[\"Z*i\256\347V=\226\335\004\244X\322\"(\302"
  57      5A2A69AE 
  57      E7563D96 
  57      DD04A458 
  57      D22228C2 
  58 0204 C257B3DD 		.ascii	"\302W\263\335\233S\023\345\257\3600\025z{@\276\207\205"
  58      9B5313E5 
  58      AFF03015 
  58      7A7B40BE 
  58      8785
  59 0216 E50FC172 		.ascii	"\345\017\301rA\242\2771&Nm5\225\233B\341\377\321\370"
  59      41A2BF31 
  59      264E6D35 
  59      959B42E1 
  59      FFD1F8
  60 0229 1F929AF7 		.ascii	"\037\222\232\367j\357~+yZ\303\015\244\336W\2252\356"
  60      6AEF7E2B 
  60      795AC30D 
  60      A4DE5795 
  60      32EE
  61 023b 82440847 		.ascii	"\202D\010G]\232\037\336\245i\274\262\276\262\312F\350"
  61      5D9A1FDE 
  61      A569BCB2 
  61      BEB2CA46 
  61      E8
  62 024c 4F1C72A5 		.ascii	"O\034r\245\237\317Z\324I\004\230\203=\261(\303\375\011"
  62      9FCF5AD4 
  62      49049883 
  62      3DB128C3 
  62      FD09
  63 025e E79948CB 		.ascii	"\347\231H\313'\346\015\230\245\245#\356\"e1:\266\244"
  63      27E60D98 
  63      A5A523EE 
  63      2265313A 
  63      B6A4
  64 0270 55AE3A6D 		.ascii	"U\256:m\244\262\227\306\214D6y\325H\216\315\030\211"
  64      A4B297C6 
  64      8C443679 
  64      D5488ECD 
  64      1889
  65 0282 547A349D 		.ascii	"Tz4\235\2352\246'\257\\\276hP'\025\317\030\023\331\311"
  65      9D32A627 
  65      AF5CBE68 
  65      502715CF 
  65      1813D9C9 
  66 0296 E9296328 		.ascii	"\351)c(6x<\252\374\231\023\263\263r\346B&\223\354K\200"
  66      36783CAA 
  66      FC9913B3 
  66      B372E642 
  66      2693EC4B 
  67 02ab 3E93CDF4 		.ascii	">\223\315\364\035\263}\277\355\243\277\001y!\344]"
ARM GAS  /tmp/ccJgD0nv.s 			page 5


  67      1DB37DBF 
  67      EDA3BF01 
  67      7921E45D 
  68              		.text
  69              		.section	.gnu.lto_stm32_clock_init.4e486bbc83f5242f,"",%progbits
  70 0000 789CA594 		.ascii	"x\234\245\224OH\024Q\034\307\177\27773;\263\353\376"
  70      4F481451 
  70      1CC77FBF 
  70      37333BB3 
  70      EBFE
  71 0012 19775534 		.ascii	"\031wU4AKE\211\240\245\354\320\245\303B\010\035:\245"
  71      414B4589 
  71      A0A5ECD0 
  71      A5C34208 
  71      1D3AA5
  72 0025 505DA234 		.ascii	"P]\2424t\3112\264\242N\316\246A\207\016\036\245 \354"
  72      74C932B4 
  72      A24ECEA6 
  72      41870E1E 
  72      A520EC
  73 0038 16160A1D 		.ascii	"\026\026\012\035bKP\213\240\010\014\272\231';\211\021"
  73      624B508B 
  73      A0080CBA 
  73      99273B89 
  73      11
  74 0049 9497500F 		.ascii	"\224\227P\017\325\373\275\367\346\315Z\273\264\266\003"
  74      D5FBBDF7 
  74      E6CD5ABB 
  74      B4B603
  75 0058 FB9DDDF7 		.ascii	"\373\235\335\367\333\367\335\337\373\314w\177\014\030"
  75      DBF7DDDF 
  75      FBCC777F 
  75      0C18
  76 0066 FC797DE1 		.ascii	"\374y}\341\257c\021\200.~\307Z@6\361\001 \34704\344"
  76      AF631180 
  76      2E7EC75A 
  76      4036F101 
  76      20E73034 
  77 007b 1B83D5DC 		.ascii	"\033\203\325\334{\013\340E\314q\033\274h\215\\\317\230"
  77      7B0BE045 
  77      CC711BBC 
  77      688D5CCF 
  77      98
  78 008c 68C9BAC5 		.ascii	"h\311\272\305R\262\036\022\365\224\\\317\204\320\226"
  78      52B21E12 
  78      F5945CCF 
  78      84D096
  79 009b 759B2565 		.ascii	"u\233%e\335\021\365\244\\\3178\030\226\3650\253\226"
  79      DD11F5A4 
  79      5CCF3818 
  79      96F530AB 
  79      96
  80 00ac F588A857 		.ascii	"\365\210\250W\313\365L\004\343t\3078se\271J\224]\271"
  80      CBF54C04 
  80      E374C738 
  80      7365B94A 
  80      945DB9
ARM GAS  /tmp/ccJgD0nv.s 			page 6


  81 00bf 9CA9C2A8 		.ascii	"\234\251\302\250\334\036e\011Y\217\211zB\256gb\210t"
  81      DC1E6509 
  81      598F897A 
  81      42AE6762 
  81      8874
  82 00d1 07845166 		.ascii	"\007\204Qf\324\230V*d'\235pu$\356VE\0231\034=\203\342"
  82      D498562A 
  82      64279D70 
  82      7524EE56 
  82      4513311C 
  83 00e8 F0B36C71 		.ascii	"\360\263lq\365\327\257\231\374\373\207Oq\201\3557!\213"
  83      F5D7AF99 
  83      FCFB874F 
  83      7181ED37 
  83      218B
  84 00fa 6091D824 		.ascii	"`\221\330$\016I\230$B\022#\211\223$H\\\222$I\212\244"
  84      0E499824 
  84      42122389 
  84      9324485C 
  84      9224498A 
  85 010f 96A48EA4 		.ascii	"\226\244\216\244\236\244\201d\017I#I\023I3\311>\222"
  85      9EA48164 
  85      0F492349 
  85      134933C9 
  85      3E92
  86 0121 16925692 		.ascii	"\026\222V\2226\222v\222\016\022~Y0\356y\023{\001z\305"
  86      36927692 
  86      0E127E59 
  86      30EE7913 
  86      7B017AC5 
  87 0135 C76EAEFC 		.ascii	"\307n\256\374h=\310\370\315X\202\327\371\311\351W\354"
  87      683DC8F8 
  87      CD5882D7 
  87      F9C9E957 
  87      EC
  88 0146 3C3E420B 		.ascii	"<>B\013\016\300\2647\236\363bY\304\007p\037\263\310"
  88      0EC0B437 
  88      9EF36259 
  88      C407701F 
  88      B3C8
  89 0158 4E7331BC 		.ascii	"Ns1\274\357w=\023\304[q\312\013\362\260b\005<~\321g"
  89      EF773D13 
  89      C45B71CA 
  89      0BF2B062 
  89      053C7ED1 
  90 016d E1F4E413 		.ascii	"\341\364\344\023\226p2\351\313\226\267\232SN\226r\302"
  90      967032E9 
  90      CB96B79A 
  90      534E9672 
  90      C2
  91 017e 4227267D 		.ascii	"B'&}V6g|\237~4\245\225\373\317\236\374(.\301\330\013"
  91      5636677C 
  91      9F7E34A5 
  91      95FBCF9E 
  91      FC282EC1 
  92 0194 C3DF6DF5 		.ascii	"\303\337m\365\313_\006\325\342\211\302\366\312\365\354"
  92      CB5F06D5 
ARM GAS  /tmp/ccJgD0nv.s 			page 7


  92      E289C2F6 
  92      CAF5EC
  93 01a3 57DD7268 		.ascii	"W\335rh\006\360\030\020\265\225\311\331-\335\243-\374"
  93      06F01810 
  93      B595C9D9 
  93      2DDDA32D 
  93      FC
  94 01b4 70372DCE 		.ascii	"p7-\316\215=\323\333\035\356 \232\244\372;x\263\226"
  94      8D3DD3DB 
  94      1DEE209A 
  94      A4FA3B78 
  94      B396
  95 01c6 EBD425B1 		.ascii	"\353\324%\261^xuc\015\360\204b\017\232\352\001\256,"
  95      5E787563 
  95      0DF08462 
  95      0F9AEA01 
  95      AE2C
  96 01d8 CF06B8C2 		.ascii	"\317\006\270\302\377\201kN\343\212p\003\361\213[\225"
  96      FF816B4E 
  96      E38A7003 
  96      F18B5B95 
  97 01e8 F18AC83C 		.ascii	"\361\212\310<l\316\256\227\312C)\007C\347A\037\273\207"
  97      6CCEAE97 
  97      CA432907 
  97      43E7411F 
  97      BB87
  98 01fa EFD7D49F 		.ascii	"\357\327\324\237m\350\243\306\312\244n\024R\177\256"
  98      6DE8A3C6 
  98      CAA46E14 
  98      527FAE
  99 0209 B7C7B983 		.ascii	"\267\307\271\2038kTP\037\377\032P\217\027\241\236R\324"
  99      386B5450 
  99      1FFF1A50 
  99      8F17A19E 
  99      52D4
 100 021b 439AFACB 		.ascii	"C\232\372\313\317\332+Q. \263XH]nPAHM\005\335\365q\331"
 100      CFDA2B51 
 100      2E20B358 
 100      485D6E50 
 100      41484D05 
 101 0233 1AD7E6CB 		.ascii	"\032\327\346\313\000W\262L\\\005-\026\2064\305\035J"
 101      0057B24C 
 101      5C052D16 
 101      8634C51D 
 101      4A
 102 0244 84345504 		.ascii	"\2044U\004WR\341r\374)\223\237\337\365\224\261\202,"
 102      5752E172 
 102      FC29939F 
 102      DFF594B1 
 102      822C
 103 0256 4C3CBE73 		.ascii	"L<\276s\024\324p\230\017\322^[\321p\250\343\006\376"
 103      14D47098 
 103      0FD25E5B 
 103      D170A8E3 
 103      06FE
 104 0268 0C732ACA 		.ascii	"\014s*\312{\235\217>\034\240_\010\320\327\377\201\276"
 104      7B9D8F3E 
ARM GAS  /tmp/ccJgD0nv.s 			page 8


 104      1CA05F08 
 104      D0D7FF81 
 104      BE
 105 0279 D4300C15 		.ascii	"\3240\014\025G\337\300\035T\237\370\027\374\206\"\360"
 105      47DFC01D 
 105      549FF817 
 105      FC8622F0 
 106 0289 AB05FC6E 		.ascii	"\253\005\374n\3767\344\360{0NM\241hj-\030Z{*\033Z\215"
 106      FE37E4F0 
 106      7B304E4D 
 106      A1686A2D 
 106      185A7B2A 
 107 02a0 DCC187E7 		.ascii	"\334\301\207\347\376\325Uc\221\256\\\025\211*?\022\313"
 107      FED55563 
 107      91AE5C15 
 107      892A3F12 
 107      CB
 108 02b1 DF2A190F 		.ascii	"\337*\031\017\336\324\324\242\001j\320\374\330\330\351"
 108      DED4D4A2 
 108      016AD0FC 
 108      D8D8E9
 109 02c0 74483B85 		.ascii	"tH;\205\350\313\266\267\351;\331\312\311\326Np;\256"
 109      E8CBB6B7 
 109      E93BD9CA 
 109      C9D64E70 
 109      3BAE
 110 02d2 A295DF5E 		.ascii	"\242\225\337^\327\347k*7\003\005\343%\210V37\320\377"
 110      D7E76B2A 
 110      370305E3 
 110      25885633 
 110      37D0FF
 111 02e5 96DDE7CA 		.ascii	"\226\335\347\312P\271j\366s\025\325\271Z\336\016r\265"
 111      50B96AF6 
 111      7315D5B9 
 111      5ADE0E72 
 111      B5
 112 02f6 AFB209D8 		.ascii	"\257\262\011\330\302\035JL\300\026\261\356\354x~\011"
 112      C21D4A4C 
 112      C016B1EE 
 112      EC787E09 
 113 0306 F5FC62FE 		.ascii	"\365\374b\376\004\314\377l\360\277\337Z\356\311\234"
 113      04CCFF6C 
 113      F0BFDF5A 
 113      EEC99C
 114 0315 A0958056 		.ascii	"\240\225\200V\0337(\010\370\356y9\212W\233\330|\326"
 114      1B372808 
 114      F8EE7939 
 114      8A579BD8 
 114      7CD6
 115 0327 F76D2F77 		.ascii	"\367m/w\177\270XW\035\334\240\242\256\302\252\253\016"
 115      7FB85857 
 115      1DDCA0A2 
 115      AEC2AAAB 
 115      0E
 116 0338 808F905B 		.ascii	"\200\217\220[\335\356\220\333\003\242\310IR@\216\247"
 116      DDEE90DB 
 116      03A2C849 
ARM GAS  /tmp/ccJgD0nv.s 			page 9


 116      52408EA7 
 117 0348 07862E5F 		.ascii	"\007\206._L\367\016\365\335J\367]\274\221\356\035\310"
 117      4CF70EF5 
 117      DD4AF75D 
 117      BC91EE1D 
 117      C8
 118 0359 5EC80E8D 		.ascii	"^\310\016\215\244\257\015_\277r)\315\337\014\234\037"
 118      A4AF0D5F 
 118      BF7229CD 
 118      DF0C9C1F 
 119 0369 4C5F1D1A 		.ascii	"L_\035\032\2766\222>\325}\262\363\260\324\256#7oR\345"
 119      BE36923E 
 119      D57DB2F3 
 119      B0D4AE23 
 119      376F52E5 
 120 037d DCE060DF 		.ascii	"\334\340`\337\301^\370\015G\215l("
 120      C15EF80D 
 120      478D6C28 
 121              		.text
 122              		.section	.gnu.lto_.symbol_nodes.4e486bbc83f5242f,"",%progbits
 123 0000 789C6362 		.ascii	"x\234cb`b0c\200\002\246\006\246z\006\206\011\347\030"
 123      60623063 
 123      8002A606 
 123      A67A0686 
 123      09E718
 124 0013 18EAEBE7 		.ascii	"\030\352\353\347u0252\3253\"\270\214ML\365L\020nC\003"
 124      75303235 
 124      32D53322 
 124      B88C4D4C 
 124      F54C106E 
 125 0029 233350E3 		.ascii	"#3P\343\343\2767\362\014\000\252x\017\256"
 125      E3BE37F2 
 125      0C00AA78 
 125      0FAE
 126              		.text
 127              		.section	.gnu.lto_.refs.4e486bbc83f5242f,"",%progbits
 128 0000 789C6362 		.ascii	"x\234cb`b`d\200\002\000\000F\000\006"
 128      60626064 
 128      80020000 
 128      460006
 129              		.text
 130              		.section	.gnu.lto_.decls.4e486bbc83f5242f,"",%progbits
 131 0000 789C9D97 		.ascii	"x\234\235\227ml\024E\030\307g\266\007\327\243\2257\225"
 131      6D6C1445 
 131      18C767B6 
 131      07D7A395 
 131      3795
 132 0012 A831E148 		.ascii	"\2501\341H\304\030\014\034}\221hL\220r}\215\005/wE\020"
 132      C4180C1C 
 132      7D91684C 
 132      90727D8D 
 132      052F7745 
 133 0027 3F9C4BEF 		.ascii	"?\234K\357H/\264\327\246\275\232\362m9,\240(\034\210"
 133      482FB4D7 
 133      A6BD9AF2 
 133      6D392CA0 
 133      281C88
ARM GAS  /tmp/ccJgD0nv.s 			page 10


 134 003a 183F480A 		.ascii	"\030?H\012\002\012h$\345]\336\256*PTT\012\266P\020\217"
 134      020A6824 
 134      E55DDEAE 
 134      2A505454 
 134      0AB65010 
 135 004f 188206D1 		.ascii	"\030\202\006\321\242P(\024\316g\236\335\275\316\036"
 135      A2502814 
 135      CE679EDD 
 135      BDCE1E
 136 005e B7D75D36 		.ascii	"\267\327]6y\376;w;\363\233\377\314>\273;#\020\201\214"
 136      79FE3B77 
 136      3BF39BFF 
 136      CC3EBB3B 
 136      2310818C 
 137 0072 A484C4E1 		.ascii	"\244\204\304\341\230\3730!m\002!\031\204\220\251d\340"
 137      98FB3021 
 137      6D022119 
 137      8490A964 
 137      E0
 138 0083 60BFD743 		.ascii	"`\277\327Cl\206\330B\356?\330\265a\020V\210\341\020"
 138      6C86D842 
 138      EE3FD8B5 
 138      61105688 
 138      E110
 139 0095 D910DB20 		.ascii	"\331\020\333 Z!n@\364B\334\205\270\007\261\001\"\023"
 139      5A216E40 
 139      F442DC85 
 139      B807B101 
 139      2213
 140 00a7 E230441B 		.ascii	"\3420D\033\3041\210\343\020]\020w \256@\364s}\306u\372"
 140      C43188E3 
 140      105D1077 
 140      20AE40F4 
 140      737DC675 
 141 00bc DCAC70AC 		.ascii	"\334\254p\254:}\0110\246G\250\354Ke\357\201\330\017"
 141      3A7D0930 
 141      A647A8EC 
 141      4B65EF81 
 141      D80F
 142 00ce 7115629F 		.ascii	"q\025b\237\322\217\025\352\234\205\363e\010\252p\223"
 142      D28F15EA 
 142      9C85F365 
 142      08AA7093 
 143 00de 8FB1649D 		.ascii	"\217\261d\235\324\022\2135\337\334\376\270\324\022\216"
 143      D4128B35 
 143      DFDCFEB8 
 143      D4128E
 144 00ed C6E32F91 		.ascii	"\306\343/\2211\344\003\011\216\226%\222DC\"\235\372"
 144      31E40309 
 144      8E962592 
 144      4443229D 
 144      FA
 145 00fe 28994345 		.ascii	"(\231CE:\334F\354X\310\266\021\0136\025\351\006:F)\315"
 145      3ADC46EC 
 145      58C8B611 
 145      0B3615E9 
 145      063A4629 
ARM GAS  /tmp/ccJgD0nv.s 			page 11


 146 0113 CA907102 		.ascii	"\312\220q\002)\241d\002\331\002\355#\222\024~\226\246"
 146      29A16402 
 146      D902ED23 
 146      92147E96 
 146      A6
 147 0124 E89290A7 		.ascii	"\350\222\220\247\311&\326\203\364\231\224\201|FXO\307"
 147      C926D683 
 147      F4999481 
 147      7C46584F 
 147      C7
 148 0135 F25544FA 		.ascii	"\362UD\372\011\025\3567\032\335\373]vdQ,\036\037+\367"
 148      0915EE37 
 148      1ADDFB5D 
 148      7664512C 
 148      1E1F2BF7 
 149 0149 2E90D729 		.ascii	".\220\327)\324\335H'\244\205oN\206\177z?<\026\211\355"
 149      D4DD4827 
 149      A4856F4E 
 149      867F7A3F 
 149      3C1689ED 
 150 015d 3BF6ED52 		.ascii	";\366\355R\272jqK\273\324\023\217\217 j\027;hr\0372"
 150      BA6A714B 
 150      BBD4138F 
 150      8F206A17 
 150      3B68721F 
 151 0172 64AB1662 		.ascii	"d\253\026b#\313$i1\233\267\322vH\225T\2236\236l\204"
 151      23CB2469 
 151      319BB7D2 
 151      76489554 
 151      93369E6C 
 152 0187 8989DD5C 		.ascii	"\211\211\335\\~\244\215\206az\261I8m\023\221~N\307\203"
 152      7EA48D86 
 152      617AB149 
 152      386D1391 
 152      7E4EC783 
 153 019b 5A6D090F 		.ascii	"Zm\011\017\354*\374L\024X~\217`s\037K2j\000\2578\332"
 153      EC2AFC4C 
 153      14587E8F 
 153      60731F4B 
 153      326A00AF 
 154 01b1 B1F2C00B 		.ascii	"\261\362\300\013\222\224)\322/\301\223@\326\011Z\220"
 154      929429D2 
 154      2FC19340 
 154      D6095A90 
 155 01c1 D21F37F6 		.ascii	"\322\0377\366\301\355\230\254>\232\254bw\315\316\031"
 155      C1ED98AC 
 155      3E9AAC62 
 155      77CDCE19 
 156 01d1 8D66AA4E 		.ascii	"\215f\252N\227Q\316\352\251\243S\320j+\035\015V/%Y\035"
 156      9751CEEA 
 156      A9A353D0 
 156      6A2B1D0D 
 156      562F2559 
 157 01e6 9CC3FCEC 		.ascii	"\234\303\374\354\202\266r+\244J\321\217\272\262%\213"
 157      82B6722B 
 157      A44AD18F 
 157      BAB2258B 
ARM GAS  /tmp/ccJgD0nv.s 			page 12


 158 01f6 FC3F4971 		.ascii	"\374?Iq\263\225c\034i\221\336Z\034\375\270k\015<-_\003"
 158      B395631C 
 158      6991DE5A 
 158      1CFDB86B 
 158      0D3C2D5F 
 159 020b 731B4ED7 		.ascii	"s\033N\3275\364\300\332\246\232b\245(\037J\005-o]Wv"
 159      35F4C0DA 
 159      A69A62A5 
 159      281F4A05 
 159      2D6F5D57 
 160 0220 445461D7 		.ascii	"DTa\327M\303\354\032\330v\036\326o\004\226\251\357\254"
 160      4DC3EC1A 
 160      D8761ED6 
 160      6F0496A9 
 160      EFAC
 161 0232 95872DCA 		.ascii	"\225\207-\3120\013\323:\333\311\303\232\215\300F\352"
 161      300BD33A 
 161      DBC9C39A 
 161      8DC046EA 
 162 0242 3BDBCDC3 		.ascii	";\333\315\303V\230\206i\235\355\345a\037\032\201=\246"
 162      56988669 
 162      9DEDE561 
 162      1F1A813D 
 162      A6
 163 0253 E34C0A47 		.ascii	"\343L\012G\277\222a_ \254\3054L\353\354\000\357l\253"
 163      BF92615F 
 163      20ACC534 
 163      4CEBEC00 
 163      EF6CAB
 164 0266 11985D7F 		.ascii	"\021\230]\177\316\016\361\260\035\246a\2343xb~\236\035"
 164      CE0EF1B0 
 164      1DA6619C 
 164      3378627E 
 164      9E1D
 165 0278 11479108 		.ascii	"\021G\221\010~*\246\265\017\227\007\254\324\234\246"
 165      7E2AA6B5 
 165      0F9707AC 
 165      D49CA6
 166 0287 CD0691FE 		.ascii	"\315\006\221\376@Ga\011\337H\222\362F\302\032z\337\226"
 166      40476109 
 166      DF4892F2 
 166      46C21A7A 
 166      DF96
 167 0299 13D496E8 		.ascii	"\023\324\226\350;\3336PP\277(\0029\220<\000M\257J\361"
 167      3BDB3650 
 167      50BF2802 
 167      39903C00 
 167      4DAF4AF1 
 168 02ad 19FDD9E8 		.ascii	"\031\375\331\350\340g\343\250\221\331\230\254\017;\315"
 168      E067E3A8 
 168      91D998AC 
 168      0F3BCD
 169 02bc C37E340D 		.ascii	"\303~4\015\323\336\364N\036\326i\004\366\274~:\236\341"
 169      D3DEF44E 
 169      1ED66904 
 169      F6BC7E3A 
 169      9EE1
ARM GAS  /tmp/ccJgD0nv.s 			page 13


 170 02ce D3F18269 		.ascii	"\323\361\202i\230\326Y7\357\354\017#\260i\372sv\236"
 170      98D65937 
 170      EFEC0F23 
 170      B069FA73 
 170      769E
 171 02e0 87F59886 		.ascii	"\207\365\230\206i\323\361\302l\306by&\220[F2\243T\337"
 171      69D3F1C2 
 171      6CC66279 
 171      26905B46 
 171      32A354DF 
 172 02f4 580F6F2C 		.ascii	"X\017o,l1`\314\245\017\373\227\207\275k\032\246\235"
 172      6C3160CC 
 172      A50FFB97 
 172      87BD6B1A 
 172      A69D
 173 0306 FFEB3C6C 		.ascii	"\377\353<l\255\021\330\034\375\314\350\325\274\250L"
 173      AD11D81C 
 173      FDCCE8D5 
 173      BCA84C
 174 0315 C3B4CE6E 		.ascii	"\303\264\316ni^TF`o\350\317\331m\036\266\3234L\233\031"
 174      695E5446 
 174      606FE8CF 
 174      D96D1EB6 
 174      D3344C9B 
 175 032a FD5C661C 		.ascii	"\375\\f\034Jf\245\312\214*}c\367xc\355F\214\325\351"
 175      4A66A5CA 
 175      8C2A7D63 
 175      F77863ED 
 175      468CD5E9 
 176 033e C322DD1C 		.ascii	"\303\"\335\034\354\204i\230v\224\253\347\016\214\362"
 176      EC846998 
 176      7694ABE7 
 176      0E8CF2
 177 034d A4915136 		.ascii	"\244\221Q6\351\033[\303\033;g\304\230D\365iky\332E\363"
 177      E91B5BC3 
 177      1B3B67C4 
 177      9844F569 
 177      6B79DA45 
 178 0362 343BD13D 		.ascii	"4;\321=\370\205\234Hw\343By\017\035\007\272\017u?\352"
 178      F8859C48 
 178      77E34279 
 178      0F1D07BA 
 178      0F753FEA 
 179 0376 41D4C3A8 		.ascii	"A\324\303\250m\250\337\240\036A=\206z\034\365{\324\237"
 179      6DA8DFA0 
 179      1E413D86 
 179      7A1CF57B 
 179      D49F
 180 0388 504FA29E 		.ascii	"PO\242\236B\375\005\265\013\365,\3529\324_Q\177C\275"
 180      42FD05B5 
 180      0BF52CEA 
 180      39D45F51 
 180      7F43BD
 181 039b 88FA3BEA 		.ascii	"\210\372;\352%\324\313\250\177\242^A\275\212\372\017"
 181      25D4CBA8 
 181      7FA25E41 
 181      BD8AFA0F 
ARM GAS  /tmp/ccJgD0nv.s 			page 14


 182 03ab EA35D4FF 		.ascii	"\3525\324\377@\023G\026yg`\275./p\365>\2177h\226\332"
 182      40134716 
 182      796760BD 
 182      2E2F70F5 
 182      3E8F3768 
 183 03c1 4A59F1B2 		.ascii	"JY\361\262\2170Iy\303\345\205s\364n'\265\213\264\027"
 183      8F304979 
 183      C3E58573 
 183      F46E27B5 
 183      8BB417
 184 03d4 57CD7F59 		.ascii	"W\315\177YR\256\232\365\031\254\317\276\344E\363\215"
 184      52AE9AF5 
 184      19ACCFBE 
 184      E445F38D 
 185 03e4 4E5C34F7 		.ascii	"N\\4\367\031Z4\367u\362\213f\221\356\205\335\223\334"
 185      195A34F7 
 185      75F28B66 
 185      91EE85DD 
 185      93DC
 186 03f6 D6E83A57 		.ascii	"\326\350:W\313\273\335\231H+\221\376m\032\2266\253\372"
 186      CBBBDD99 
 186      482B91FE 
 186      6D1A9636 
 186      ABFA
 187 0408 B8ACBA8D 		.ascii	"\270\254\272\215Yu\007\357V\177\232\273\325\233\346"
 187      597507EF 
 187      567F9ABB 
 187      D59BE6
 188 0417 6EDD1DB8 		.ascii	"n\335\035\270[I\255\330\016S\257\325\275\201Vl\203\032"
 188      5B49ADD8 
 188      0E53AFD5 
 188      BD81566C 
 188      831A
 189 0429 ED893577 		.ascii	"\355\2115w\257P\266\351\207%\232\330\237\336J\272\231"
 189      AF50B6E9 
 189      87259AD8 
 189      9FDE4ABA 
 189      99
 190 043a A9F7C0F1 		.ascii	"\251\367\300\361\344=\260$h\266\257)6N1\252Zz\222p\373"
 190      E43DB024 
 190      68B6AF29 
 190      364E31AA 
 190      5A7A9270 
 191 044f AFAE7CDC 		.ascii	"\257\256|\334\177\205\005\226I\357\017\031t\377\245"
 191      7F850596 
 191      49EF0F19 
 191      74FFA5
 192 045e C5B0AE9B 		.ascii	"\305\260\256\233\205\244L:\330\201\231\304\376\037<"
 192      85A44C3A 
 192      D88199C4 
 192      FE1F3C
 193 046d 934E7668 		.ascii	"\223Nvh\267_\353\321\002k\373`\231\324\321\301\275\240"
 193      B75FEBD1 
 193      026BFB60 
 193      99D4D1C1 
 193      BDA0
 194 047f 369986D9 		.ascii	"6\231\206\3315\260\323<l\253\021X\232\355W'\017k5\015"
ARM GAS  /tmp/ccJgD0nv.s 			page 15


 194      35B0D33C 
 194      6CAB1158 
 194      9AED5727 
 194      0F6B350D 
 195 0493 D33A3BD3 		.ascii	"\323:;\323\301=0\362\3237\010,\315\366\253\233w\266"
 195      C13D30F2 
 195      D337082C 
 195      CDF6AB9B 
 195      77B6
 196 04a5 CB88B334 		.ascii	"\313\210\2634\333\257\363<l\277\021X\252\355W\252\203"
 196      DBAFF33C 
 196      6CBF1158 
 196      AAED57AA 
 196      83
 197 04b6 4F35912E 		.ascii	"O5\221.\021\330\243\274T`\217\362\333\250\313Q\337C"
 197      11D8A3BC 
 197      54608FF2 
 197      DBA8CB51 
 197      DF43
 198 04c8 5D891A41 		.ascii	"]\211\032A]-\350?\350a\035k\254\2675B\342\221%\205\216"
 198      5D2DE83F 
 198      E8611D6B 
 198      ACB73542 
 198      E2912585 
 199 04dd AADA1ABF 		.ascii	"\252\332\032\277\243\262\326\267\320\341\363\277\351"
 199      A3B2D6B7 
 199      D0E1F3BF 
 199      E9
 200 04ea A8AC0ACC 		.ascii	"\250\254\012\314\013\32468B\365\215\301\005\016(T\211"
 200      0BD43638 
 200      42F58DC1 
 200      050E2854 
 200      89
 201 04fb D58EBADA 		.ascii	"\325\216\272\332\372P\203\303S1#/W\326\342\374\246&"
 201      FA5083C3 
 201      5331232F 
 201      57D6E2FC 
 201      A626
 202 050d 76C55B5D 		.ascii	"v\305[]\355\233TI\262\225\2427\020\014\204\206\226\314"
 202      ED9B5449 
 202      B295A237 
 202      100C8486 
 202      96CC
 203 051f 9C657792 		.ascii	"\234ew\222\221\015\241\232\274\\oeum\345\002\374\277"
 203      910DA19A 
 203      BC5C6F65 
 203      756DE502 
 203      FCBF
 204 0531 F8C17B92 		.ascii	"\370\301{\222Q\276\032qR\025\261\302\251\014pO9\032"
 204      51BE1A71 
 204      5215B1C2 
 204      A90C704F 
 204      391A
 205 0543 1BEA1D62 		.ascii	"\033\352\035b}\315\304`m\320?\321/\316\0138\002\301"
 205      7DCDC460 
 205      6DD03FD1 
 205      2FCE0B38 
ARM GAS  /tmp/ccJgD0nv.s 			page 16


 205      02C1
 206 0555 CAEA469F 		.ascii	"\312\352F\237\037\352\373\002\301\020T\316l\20434\015"
 206      1FEAFB02 
 206      C11054CE 
 206      6C843334 
 206      0D
 207 0566 E5A7A95D 		.ascii	"\345\247\251]#\202\225\240\337\341\365\371\347\213\215"
 207      238295A0 
 207      DFE1F5F9 
 207      E78B8D
 208 0575 D5216F68 		.ascii	"\325!oha\235\277\001Z\017\363z\325\366/\016f\336\337"
 208      619DBF01 
 208      5A0FF37A 
 208      D5F62F0E 
 208      66DEDF
 209 0588 14723867 		.ascii	"\024r8gx\312<`[\366;?\177rN\223\0370Yn\247\323[\001"
 209      78CA3C60 
 209      5BF63B3F 
 209      7F724E93 
 209      1F30596E 
 210 05a0 CC42FF7C 		.ascii	"\314B\377|\301\351\266\272\312\313\235\305%n\013\223"
 210      C1E9B6BA 
 210      CACB9DC5 
 210      256E0B93 
 211 05b0 0C67993B 		.ascii	"\014g\231;\263\240tz\216\333S\201\205\\\265\220\307"
 211      B3A0747A 
 211      8EDB5381 
 211      855CB590 
 211      C7
 212 05c1 0A367791 		.ascii	"\0126w\221\247\310\375jQ\341\344\314\002\227Z\311%W"
 212      A7C8FD6A 
 212      51E1E4CC 
 212      02975AC9 
 212      2557
 213 05d3 4A5CCBB1 		.ascii	"J\\\313\2612@\321L7;\347*\347<8'j\344ZYk\274\342\302"
 213      3240D14C 
 213      373BE72A 
 213      E73C3827 
 213      6AE45A59 
 214 05eb 1A892B79 		.ascii	"\032\211+y6\326\266\334\305\376c\255\023\245<\271\244"
 214      36D6B6DC 
 214      C5FE63AD 
 214      13A53CB9 
 214      A4
 215 05fc D6CBB731 		.ascii	"\326\313\2671\202r\325\245\326S\257>g\231^\350\204\261"
 215      8272D5A5 
 215      D653AF3E 
 215      67995EE8 
 215      84B1
 216 060e 7806FE9A 		.ascii	"x\006\376\2322\304\343q\226\270\207\301`\313r=l\250"
 216      32C4E371 
 216      96B887C1 
 216      60CB723D 
 216      6CA8
 217 0620 59AED96E 		.ascii	"Y\256\331nu\032\236P\023f\236X\271\240\261\316\353\253"
 217      751A9E50 
 217      13669E58 
ARM GAS  /tmp/ccJgD0nv.s 			page 17


 217      B9A0B1CE 
 217      EBAB
 218 0632 AD110341 		.ascii	"\255\021\003AL\223\207\212\313\013<\245j\305\214\002"
 218      4C93878A 
 218      CB0B3CA5 
 218      6AC58C02 
 219 0642 A7DBF272 		.ascii	"\247\333\362r\321kn\353+\256\012v\026<\356!Pt\272\207"
 219      D16B6EEB 
 219      2BAE0A76 
 219      163CEE21 
 219      5074BA87 
 220 0656 A2E6FC0F 		.ascii	"\242\346\374\017 \263T\031"
 220      20B35419 
 221              		.text
 222              		.section	.gnu.lto_.symtab.4e486bbc83f5242f,"",%progbits
 223 0000 68616C5F 		.ascii	"hal_lld_init\000\000\000\000\000\000\000\000\000\000"
 223      6C6C645F 
 223      696E6974 
 223      00000000 
 223      00000000 
 224 0016 0000A100 		.ascii	"\000\000\241\000\000\000stm32_clock_init\000\000\000"
 224      00007374 
 224      6D33325F 
 224      636C6F63 
 224      6B5F696E 
 225 002f 00000000 		.ascii	"\000\000\000\000\000\000\000\000\000\246\000\000\000"
 225      00000000 
 225      00A60000 
 225      00
 226 003c 646D6149 		.ascii	"dmaInit\000\000\002\000\000\000\000\000\000\000\000"
 226      6E697400 
 226      00020000 
 226      00000000 
 226      0000
 227 004e 00A90000 		.ascii	"\000\251\000\000\000"
 227      00
 228              		.text
 229              		.section	.gnu.lto_.opts,"",%progbits
 230 0000 272D6D63 		.ascii	"'-mcpu=cortex-m4' '-mfloat-abi=hard' '-mfpu=fpv4-sp"
 230      70753D63 
 230      6F727465 
 230      782D6D34 
 230      2720272D 
 231 0033 2D643136 		.ascii	"-d16' '-mno-thumb-interwork' '-mthumb' '-O2' '-fomi"
 231      2720272D 
 231      6D6E6F2D 
 231      7468756D 
 231      622D696E 
 232 0066 742D6672 		.ascii	"t-frame-pointer' '-falign-functions=16' '-ffunction"
 232      616D652D 
 232      706F696E 
 232      74657227 
 232      20272D66 
 233 0099 2D736563 		.ascii	"-sections' '-fdata-sections' '-fno-common' '-flto' "
 233      74696F6E 
 233      73272027 
 233      2D666461 
ARM GAS  /tmp/ccJgD0nv.s 			page 18


 233      74612D73 
 234 00cc 272D6673 		.ascii	"'-fsingle-precision-constant'\000"
 234      696E676C 
 234      652D7072 
 234      65636973 
 234      696F6E2D 
 235              		.text
 236              		.section	.text.hal_lld_init,"ax",%progbits
 237              		.align	2
 238              		.p2align 4,,15
 239              		.global	hal_lld_init
 240              		.thumb
 241              		.thumb_func
 242              		.type	hal_lld_init, %function
 243              	hal_lld_init:
 244              		@ args = 0, pretend = 0, frame = 0
 245              		@ frame_needed = 0, uses_anonymous_args = 0
 246              		@ link register save eliminated.
 247 0000 174B     		ldr	r3, .L7
 248 0002 1848     		ldr	r0, .L7+4
 249 0004 1A69     		ldr	r2, [r3, #16]
 250 0006 4FF0FF31 		mov	r1, #-1
 251 000a 0022     		movs	r2, #0
 252 000c 10B4     		push	{r4}
 253 000e 1961     		str	r1, [r3, #16]
 254 0010 1A61     		str	r2, [r3, #16]
 255 0012 5C69     		ldr	r4, [r3, #20]
 256 0014 5961     		str	r1, [r3, #20]
 257 0016 5A61     		str	r2, [r3, #20]
 258 0018 1C6A     		ldr	r4, [r3, #32]
 259 001a 64F08054 		orn	r4, r4, #268435456
 260 001e 1C62     		str	r4, [r3, #32]
 261 0020 1A62     		str	r2, [r3, #32]
 262 0022 5C6A     		ldr	r4, [r3, #36]
 263 0024 5962     		str	r1, [r3, #36]
 264 0026 5A62     		str	r2, [r3, #36]
 265 0028 196C     		ldr	r1, [r3, #64]
 266 002a 41F08051 		orr	r1, r1, #268435456
 267 002e 1964     		str	r1, [r3, #64]
 268 0030 0168     		ldr	r1, [r0]
 269 0032 41F48071 		orr	r1, r1, #256
 270 0036 0160     		str	r1, [r0]
 271 0038 196F     		ldr	r1, [r3, #112]
 272 003a 01F44071 		and	r1, r1, #768
 273 003e B1F5007F 		cmp	r1, #512
 274 0042 03D0     		beq	.L2
 275 0044 4FF48031 		mov	r1, #65536
 276 0048 1967     		str	r1, [r3, #112]
 277 004a 1A67     		str	r2, [r3, #112]
 278              	.L2:
 279 004c 054B     		ldr	r3, .L7+4
 280 004e 5DF8044B 		ldr	r4, [sp], #4
 281 0052 5A68     		ldr	r2, [r3, #4]
 282 0054 22F40072 		bic	r2, r2, #512
 283 0058 5A60     		str	r2, [r3, #4]
 284 005a FFF7FEBF 		b	dmaInit
 285              	.L8:
ARM GAS  /tmp/ccJgD0nv.s 			page 19


 286 005e 00BF     		.align	2
 287              	.L7:
 288 0060 00380240 		.word	1073887232
 289 0064 00700040 		.word	1073770496
 290              		.size	hal_lld_init, .-hal_lld_init
 291 0068 AFF30080 		.section	.text.stm32_clock_init,"ax",%progbits
 291      AFF30080 
 292              		.align	2
 293              		.p2align 4,,15
 294              		.global	stm32_clock_init
 295              		.thumb
 296              		.thumb_func
 297              		.type	stm32_clock_init, %function
 298              	stm32_clock_init:
 299              		@ args = 0, pretend = 0, frame = 0
 300              		@ frame_needed = 0, uses_anonymous_args = 0
 301              		@ link register save eliminated.
 302 0000 2649     		ldr	r1, .L22
 303 0002 274B     		ldr	r3, .L22+4
 304 0004 4FF08050 		mov	r0, #268435456
 305 0008 4FF40042 		mov	r2, #32768
 306 000c 0864     		str	r0, [r1, #64]
 307 000e 1A60     		str	r2, [r3]
 308 0010 0B68     		ldr	r3, [r1]
 309 0012 43F00103 		orr	r3, r3, #1
 310 0016 0B60     		str	r3, [r1]
 311              	.L11:
 312 0018 0B68     		ldr	r3, [r1]
 313 001a 204A     		ldr	r2, .L22
 314 001c 9B07     		lsls	r3, r3, #30
 315 001e FBD5     		bpl	.L11
 316 0020 1168     		ldr	r1, [r2]
 317 0022 0023     		movs	r3, #0
 318 0024 01F0F901 		and	r1, r1, #249
 319 0028 1160     		str	r1, [r2]
 320 002a 1146     		mov	r1, r2
 321 002c 9360     		str	r3, [r2, #8]
 322              	.L13:
 323 002e 8B68     		ldr	r3, [r1, #8]
 324 0030 1A4A     		ldr	r2, .L22
 325 0032 13F00C0F 		tst	r3, #12
 326 0036 FAD1     		bne	.L13
 327 0038 536F     		ldr	r3, [r2, #116]
 328 003a 43F00103 		orr	r3, r3, #1
 329 003e 5367     		str	r3, [r2, #116]
 330 0040 1146     		mov	r1, r2
 331              	.L15:
 332 0042 4B6F     		ldr	r3, [r1, #116]
 333 0044 154A     		ldr	r2, .L22
 334 0046 9807     		lsls	r0, r3, #30
 335 0048 FBD5     		bpl	.L15
 336 004a 164B     		ldr	r3, .L22+8
 337 004c 5360     		str	r3, [r2, #4]
 338 004e 1368     		ldr	r3, [r2]
 339 0050 1349     		ldr	r1, .L22+4
 340 0052 43F08073 		orr	r3, r3, #16777216
 341 0056 1360     		str	r3, [r2]
ARM GAS  /tmp/ccJgD0nv.s 			page 20


 342              	.L17:
 343 0058 4B68     		ldr	r3, [r1, #4]
 344 005a 5A04     		lsls	r2, r3, #17
 345 005c FCD5     		bpl	.L17
 346 005e 0F49     		ldr	r1, .L22
 347              	.L19:
 348 0060 0B68     		ldr	r3, [r1]
 349 0062 0E4A     		ldr	r2, .L22
 350 0064 9B01     		lsls	r3, r3, #6
 351 0066 FBD5     		bpl	.L19
 352 0068 0F4B     		ldr	r3, .L22+12
 353 006a 1049     		ldr	r1, .L22+16
 354 006c 9160     		str	r1, [r2, #8]
 355 006e 40F20271 		movw	r1, #1794
 356 0072 1960     		str	r1, [r3]
 357 0074 9368     		ldr	r3, [r2, #8]
 358 0076 43F00203 		orr	r3, r3, #2
 359 007a 9360     		str	r3, [r2, #8]
 360 007c 1146     		mov	r1, r2
 361              	.L21:
 362 007e 8B68     		ldr	r3, [r1, #8]
 363 0080 064A     		ldr	r2, .L22
 364 0082 03F00C03 		and	r3, r3, #12
 365 0086 082B     		cmp	r3, #8
 366 0088 F9D1     		bne	.L21
 367 008a 536C     		ldr	r3, [r2, #68]
 368 008c 43F48043 		orr	r3, r3, #16384
 369 0090 5364     		str	r3, [r2, #68]
 370 0092 536E     		ldr	r3, [r2, #100]
 371 0094 43F48043 		orr	r3, r3, #16384
 372 0098 5366     		str	r3, [r2, #100]
 373 009a 7047     		bx	lr
 374              	.L23:
 375              		.align	2
 376              	.L22:
 377 009c 00380240 		.word	1073887232
 378 00a0 00700040 		.word	1073770496
 379 00a4 10540107 		.word	117527568
 380 00a8 003C0240 		.word	1073888256
 381 00ac 00100838 		.word	940052480
 382              		.size	stm32_clock_init, .-stm32_clock_init
 383              		.comm	__gnu_lto_v1,1,1
 384              		.ident	"GCC: (GNU Tools for ARM Embedded Processors) 4.8.4 20140526 (release) [ARM/embedded-4_8-br
ARM GAS  /tmp/ccJgD0nv.s 			page 21


DEFINED SYMBOLS
                            *ABS*:0000000000000000 hal_lld.c
     /tmp/ccJgD0nv.s:237    .text.hal_lld_init:0000000000000000 $t
     /tmp/ccJgD0nv.s:243    .text.hal_lld_init:0000000000000000 hal_lld_init
     /tmp/ccJgD0nv.s:288    .text.hal_lld_init:0000000000000060 $d
     /tmp/ccJgD0nv.s:292    .text.stm32_clock_init:0000000000000000 $t
     /tmp/ccJgD0nv.s:298    .text.stm32_clock_init:0000000000000000 stm32_clock_init
     /tmp/ccJgD0nv.s:377    .text.stm32_clock_init:000000000000009c $d
                            *COM*:0000000000000001 __gnu_lto_v1
     /tmp/ccJgD0nv.s:291    .text.hal_lld_init:0000000000000068 $t

UNDEFINED SYMBOLS
dmaInit
