ARM GAS  /tmp/ccgh68Iz.s 			page 1


   1              		.syntax unified
   2              		.cpu cortex-m4
   3              		.eabi_attribute 27, 3
   4              		.eabi_attribute 28, 1
   5              		.fpu fpv4-sp-d16
   6              		.eabi_attribute 20, 1
   7              		.eabi_attribute 21, 1
   8              		.eabi_attribute 23, 3
   9              		.eabi_attribute 24, 1
  10              		.eabi_attribute 25, 1
  11              		.eabi_attribute 26, 1
  12              		.eabi_attribute 30, 2
  13              		.eabi_attribute 34, 1
  14              		.eabi_attribute 18, 4
  15              		.thumb
  16              		.file	"hih6030.c"
  17              		.section	.gnu.lto_.jmpfuncs.dd35a14c7d5966d0,"",%progbits
  18 0000 789C6362 		.ascii	"x\234cb`b\300\006\254\2404\013\003;\013\013C&#\003\003"
  18      6062C006 
  18      ACA0340B 
  18      033B0B0B 
  18      43262303 
  19 0015 23033390 		.ascii	"#\0033\220(\003SLe@\034\301\230\311\310\250\001\024"
  19      2803534C 
  19      65401CC1 
  19      98C9C8A8 
  19      0114
  20 0027 63664251 		.ascii	"cfBQ\001\224\0021\000w\034\003\225"
  20      01940231 
  20      00771C03 
  20      95
  21              		.text
  22              		.section	.gnu.lto_.inline.dd35a14c7d5966d0,"",%progbits
  23 0000 789C6362 		.ascii	"x\234cb`b\300\0062\2414\013\003\003\207\000##\003#\220"
  23      6062C006 
  23      32A1340B 
  23      03038700 
  23      23230323 
  24 0015 0D52C9B6 		.ascii	"\015R\311\266@\036\254\201\225\017(7\301\017\004\201"
  24      401EAC81 
  24      950F2837 
  24      C10F0481 
  25 0025 72ECFC58 		.ascii	"r\354\374X\224\260\360\002\371 \005L\014\314L\214(R"
  25      94B0F002 
  25      F920054C 
  25      0CCC4C8C 
  25      2852
  26 0037 CC18220C 		.ascii	"\314\030\"\014\000\335\276\010\\"
  26      00DDBE08 
  26      5C
  27              		.text
  28              		.section	.gnu.lto_.pureconst.dd35a14c7d5966d0,"",%progbits
  29 0000 789C6362 		.ascii	"x\234cb`b\340d\200\000\026\006\011F\011&\006f\006\000"
  29      6062E064 
  29      80001606 
  29      09460926 
  29      06660600 
ARM GAS  /tmp/ccgh68Iz.s 			page 2


  30 0014 02560048 		.ascii	"\002V\000H"
  31              		.text
  32              		.section	.gnu.lto_hih6030_init.dd35a14c7d5966d0,"",%progbits
  33 0000 789C5D8E 		.ascii	"x\234]\216\275jBA\020\205\317\231{W-R\204\220\306.e"
  33      BD6A4241 
  33      1085CF99 
  33      7B572D52 
  33      8490C62E 
  34 0015 405041C8 		.ascii	"@PA\310\023\344\021\024b\251\227p\335\302F\301B\013"
  34      13E41114 
  34      62A99770 
  34      DDC246C1 
  34      420B
  35 0027 D7249094 		.ascii	"\327$\220\224\2661UZ\013\363\012\276\200\177\235\215"
  35      B631555A 
  35      0BF30ABE 
  35      807F9D8D 
  36 0037 20E42D6C 		.ascii	" \344-lt\366^\004q\340\314\014\354|g\217@p]y\325Nu\257"
  36      74F65E04 
  36      71E0CC0C 
  36      EC7C678F 
  36      40705D79 
  37 004f 6200CA78 		.ascii	"b\000\312x\011\214rB\372\005\304P8\2543\271\375\223"
  37      098C7242 
  37      FA05C450 
  37      38AC33B9 
  37      FD93
  38 0061 F9FE789C 		.ascii	"\371\376x\234\315\3267Y\262Mu\263D\250\033\2156\357"
  38      CDD63759 
  38      B24D75B3 
  38      44A81B8D 
  38      36EF
  39 0073 6DF0E1DC 		.ascii	"m\360\341\334\370\001\210\022\242\252\335\333\324\364"
  39      F8018812 
  39      A2AADDDB 
  39      D4F4
  40 0081 5167B0C0 		.ascii	"Qg\260\300\333\341\375\177+\015\376\322 \246\014\320"
  40      DBE1FD7F 
  40      2B0DFED2 
  40      20A60CD0 
  41 0091 578B02A6 		.ascii	"W\213\002\246N\253k\311\037Lh)1\371\2423H\276m\362\""
  41      4EAB6BC9 
  41      1F4C6829 
  41      31F9A233 
  41      48BE6DF2 
  42 00a6 EF0A9FF3 		.ascii	"\357\012\237\363B\312\003\003\034\334\227\273\265\014"
  42      42CA0303 
  42      1CDC97BB 
  42      B50C
  43 00b4 23A647B1 		.ascii	"#\246G\261g\303\230\306\343\346Q\003f\200\015F\373o"
  43      67C398C6 
  43      E3E65103 
  43      66800D46 
  43      FB6F
  44 00c6 39436955 		.ascii	"9CiU\025\320H>\364\335s\307\366^;\335R\313\266\236\312"
  44      15D0483E 
  44      F4DD73C7 
ARM GAS  /tmp/ccgh68Iz.s 			page 3


  44      F65E3BDD 
  44      52CBB69E 
  45 00db 957231C2 		.ascii	"\225r1\302\011\022\0047f"
  45      09120437 
  45      66
  46              		.text
  47              		.section	.gnu.lto_hih6030_stop.dd35a14c7d5966d0,"",%progbits
  48 0000 789C6362 		.ascii	"x\234cb`b@\007\222@|\005\210E\200\230\221\231\201\221"
  48      60624007 
  48      92407C05 
  48      88458098 
  48      91998191 
  49 0014 69C23906 		.ascii	"i\3029\006\206F\016&FF\020\203\201\221\241\236\211\261"
  49      86460E26 
  49      46461083 
  49      8191A19E 
  49      89B1
  50 0026 3E9211AC 		.ascii	">\222\021\254v=\323\201\007\377\377\257\333\327r\212"
  50      763DD381 
  50      07FFFFAF 
  50      DBD7728A 
  51 0036 899D9131 		.ascii	"\211\235\2211\227\021h\\&#\003\013\220\305\310\006d"
  51      9711685C 
  51      2623030B 
  51      90C5C806 
  51      64
  52 0047 8114B132 		.ascii	"\201\024\2612\26444LP``H\006k\011\001\222 sB\031\231"
  52      B434344C 
  52      50606048 
  52      066B0901 
  52      92207342 
  53 005d 4034F359 		.ascii	"@4\363Y\206\246_\315\213/2'2.ddeHgd\252f\250\002\032"
  53      86A65FCD 
  53      8B2F3227 
  53      322E6464 
  53      65486764 
  54 0076 A1CDB0AA 		.ascii	"\241\315\260\252\001\010&2f22\315f\230\005\244\230\323"
  54      01082632 
  54      663232CD 
  54      669805A4 
  54      98D3
  55 0088 19192380 		.ascii	"\031\031#\2004\013\330\342$F$\027\237gh=\300\0123\200"
  55      340BD8E2 
  55      24462417 
  55      9F67683D 
  55      C00A3380 
  56 009c AD9AE157 		.ascii	"\255\232\341WCG\203@&#k2#D\025\320\324tF\226L\240\223"
  56      43478340 
  56      26236B32 
  56      234415D0 
  56      D4744696 
  57 00b3 182E3230 		.ascii	"\030.20\302\025B4\207\000\025\001\035\002\012\007!\227"
  57      C2154234 
  57      87001501 
  57      1D020A07 
  57      2197
  58 00c5 A2CCB2D4 		.ascii	"\242\314\262\324\242b\375\214\314\0143\003c\003\275"
ARM GAS  /tmp/ccgh68Iz.s 			page 4


  58      A262FD8C 
  58      CC0C3303 
  58      6303BD
  59 00d4 64060022 		.ascii	"d\006\000\"t5\025"
  59      743515
  60              		.text
  61              		.section	.gnu.lto_hih6030_readHumidity.dd35a14c7d5966d0,"",%progbits
  62 0000 789C6362 		.ascii	"x\234cb`b@\007\222@\034\001\304\"@\314\310\314\300\310"
  62      60624007 
  62      92401C01 
  62      C42240CC 
  62      C8CCC0C8 
  63 0014 34E11C03 		.ascii	"4\341\034\003C#\007\023##\210\301\300\310P\317\304X"
  63      43230713 
  63      232388C1 
  63      C0C850CF 
  63      C458
  64 0026 1FC90856 		.ascii	"\037\311\010V\273\236\351\300\203\377\377\327\335k\271"
  64      BB9EE9C0 
  64      83FFFFD7 
  64      DD6BB9
  65 0035 C40C3288 		.ascii	"\304\0142\210\225\241\245\241a\202\002\003C2X:\004H"
  65      95A1A5A1 
  65      61820203 
  65      4332583A 
  65      0448
  66 0047 82F48432 		.ascii	"\202\364\20422\201h\346\213\014\215\017vr%2.dde\210"
  66      328168E6 
  66      8B0C8D0F 
  66      76722532 
  66      2E646465 
  67 005c 60CC6484 		.ascii	"`\314d\204[\031\302\310\010R\0002B\310\245(\263,\265"
  67      5B19C2C8 
  67      08520032 
  67      42C8A528 
  67      B32CB5
  68 006f A8583F23 		.ascii	"\250X?#3\303\314\300\330@/\231\001\0005\374\036\237"
  68      33C3CCC0 
  68      D8402F99 
  68      010035FC 
  68      1E9F
  69              		.text
  70              		.section	.gnu.lto_hih6030_readTemperature.dd35a14c7d5966d0,"",%progbits
  71 0000 789C6362 		.ascii	"x\234cb`b@\007\222@\034\001\304\"@\314\310\314\300\310"
  71      60624007 
  71      92401C01 
  71      C42240CC 
  71      C8CCC0C8 
  72 0014 34E11C03 		.ascii	"4\341\034\003C#\007\023##\210\301\300\310P\317\304X"
  72      43230713 
  72      232388C1 
  72      C0C850CF 
  72      C458
  73 0026 1FC90856 		.ascii	"\037\311\010V\273\236\351\300\203\377\377\327Mj}\304"
  73      BB9EE9C0 
  73      83FFFFD7 
  73      4D6A7DC4 
ARM GAS  /tmp/ccgh68Iz.s 			page 5


  74 0036 02328895 		.ascii	"\0022\210\225\241\245\241a\202\002\003C2X:\004H\202"
  74      A1A5A161 
  74      82020343 
  74      32583A04 
  74      4882
  75 0048 F4843232 		.ascii	"\364\20422\201h\346\213\014\215\017Ns%2.dde\210`\314"
  75      8168E68B 
  75      0C8D0F4E 
  75      7325322E 
  75      64646588 
  76 005e 64845B19 		.ascii	"d\204[\031\302\310\010R\0002B\310\245(\263,\265\250"
  76      C2C80852 
  76      003242C8 
  76      A528B32C 
  76      B5A8
  77 0070 583F2333 		.ascii	"X?#3\303\314\300\330@/\231\001\000$\"\036w"
  77      C3CCC0D8 
  77      402F9901 
  77      0024221E 
  77      77
  78              		.text
  79              		.section	.gnu.lto_.symbol_nodes.dd35a14c7d5966d0,"",%progbits
  80 0000 789C4DC7 		.ascii	"x\234M\307\273\015\2000\024CQ\333/Y\226%\034>\005%\023"
  80      BB0D8030 
  80      144351DB 
  80      2F599625 
  80      1C3E0525 
  81 0015 A4611F66 		.ascii	"\244a\037f`\022@\002\004\271\315\325\021\204\016o:i"
  81      60124002 
  81      04B9CDD5 
  81      11840E6F 
  81      3A69
  82 0027 60D900BB 		.ascii	"`\331\000\273\316T\221\331\260\227\325p\220\343'G9="
  82      CE5491D9 
  82      B097D570 
  82      90E32747 
  82      393D
  83 0039 2C859CE4 		.ascii	",\205\234\344\374)\220\260\356\007\203\371>.\306\227"
  83      FC2990B0 
  83      EE0783F9 
  83      3E2EC697 
  84 0049 1FF2     		.ascii	"\037\362"
  85              		.text
  86              		.section	.gnu.lto_.refs.dd35a14c7d5966d0,"",%progbits
  87 0000 789C6362 		.ascii	"x\234cb`b`d\200\002\000\000F\000\006"
  87      60626064 
  87      80020000 
  87      460006
  88              		.text
  89              		.section	.gnu.lto_.decls.dd35a14c7d5966d0,"",%progbits
  90 0000 789CBD5B 		.ascii	"x\234\275[{t\024E\272\357\307d&C\262\001Qw\321\3539"
  90      7B741445 
  90      BAEFC764 
  90      2643B201 
  90      5177D1EB 
  91 0015 0CE7EE7A 		.ascii	"\014\347\356z8\273+y\300\"\034\356Eb\002K\356\345\341"
  91      38BB2B79 
ARM GAS  /tmp/ccgh68Iz.s 			page 6


  91      C0221CEE 
  91      4562024B 
  91      EEE5E1
  92 0028 49C21EF9 		.ascii	"I\302\036\371\343\236\266\235i\310\\3\231lO\007\302"
  92      E39EB69D 
  92      69C85C33 
  92      996C4F07 
  92      C2
  93 0039 5FDB04C9 		.ascii	"_\333\004\311*\012\206\000\362\270\020\342\025\020]"
  93      2A0A8600 
  93      F2B810E2 
  93      15105D
  94 0048 608D0104 		.ascii	"`\215\001\004\005\035\024$\004\345\261\310+\3022\356"
  94      051D1424 
  94      04E5B1C8 
  94      2BC232EE 
  95 0058 15E4B1EE 		.ascii	"\025\344\261\356\0054\002\"\344V}\335=S\335\351\236"
  95      05340222 
  95      E4567DDD 
  95      3D53DDE9 
  95      9E
  96 0069 A9CEBAB7 		.ascii	"\251\316\272\267\317\351\257\253k\252~\365\275\252\276"
  96      CFE9AFAB 
  96      6BAA7EF5 
  96      BDAABE
  97 0078 AAEA1A8E 		.ascii	"\252\352\032\216\341\230Q,\303\364\240kH1\303<\231\315"
  97      E198512C 
  97      C3F4A06B 
  97      4831C33C 
  97      99CD
  98 008a 30590CC3 		.ascii	"0Y\014\303\214E7\207\356W\320\355c\264\313\213\356{"
  98      8C453787 
  98      EE57D0ED 
  98      63B4CB8B 
  98      EE7B
  99 009c 50E6C3E8 		.ascii	"P\346\303\350.B\367\030t\027\243\273\214cz]\270\034"
  99      2E42F718 
  99      7417A3BB 
  99      8C637A5D 
  99      B81C
 100 00ae AE57CA69 		.ascii	"\256W\312i\030\367\243\347}\350\236\242\347?\216\236"
 100      18F7A3E7 
 100      7DE89EA2 
 100      E73F8E9E 
 101 00be A859E641 		.ascii	"\250Y\346ANk\347\036\035\213G\351\301\3509\004\335\377"
 101      4E6BE71E 
 101      1D8B47E9 
 101      C1E83904 
 101      DDFF
 102 00d0 6CC17D98 		.ascii	"l\301}\230\300l`\315\270S\321\375o\026\314\207u\336"
 102      C06C60CD 
 102      B853D1FD 
 102      6F16CC87 
 102      75DE
 103 00e2 707A1822 		.ascii	"pz\030\"\371\026\274\"\275<\306\302\027\253\347Y\257"
 103      F916BC22 
 103      BD3CC6C2 
ARM GAS  /tmp/ccgh68Iz.s 			page 7


 103      17ABE759 
 103      AF
 104 00f3 3136E5C6 		.ascii	"16\345\306\330\224\033\310,V\321\025\350\310CzdE6\317"
 104      D8941BC8 
 104      2C56D115 
 104      E8C8437A 
 104      644536CF 
 105 0107 CF3C0589 		.ascii	"\317<\005\211\\?\223\213~\377\031\263NU\233\022\363"
 105      5C3F938B 
 105      7EFF19B3 
 105      4E559B12 
 105      F3
 106 0118 5F600322 		.ascii	"_`\003\"\373\012;\02016\210e~\316\274\216*5\251j\303"
 106      FB0A3B10 
 106      31368865 
 106      7ECEBC8E 
 106      2A35A96A 
 107 012d BDBD2133 		.ascii	"\275\275!3b2\214\310\256GP\"\273\216\375\271\326\202"
 107      62328CC8 
 107      AE475022 
 107      BB8EFDB9 
 107      D682
 108 013f 1ADF1D0A 		.ascii	"\032\337\035\012h\271\214\236os\015aZQ\223\361\243["
 108      68B98C9E 
 108      6F730D61 
 108      5A5193F1 
 108      A35B
 109 0151 77B26A63 		.ascii	"w\262jc\256\217iDojb~\303\240\025\251\226\262\215\226"
 109      AE8F6944 
 109      6F6A627E 
 109      C3A015A9 
 109      96B28D96 
 110 0165 D824F7F1 		.ascii	"\330$\367\361\235\331\234\310nd}\210\371_\260&x\012"
 110      9DD99CC8 
 110      6E647D88 
 110      F95FB026 
 110      780A
 111 0177 0CCCCF1F 		.ascii	"\014\314\317\037P]\023\267m\036N\313M\303-\317\200\035"
 111      505D13B7 
 111      6D1E4ECB 
 111      4DC32DCF 
 111      801D
 112 0189 C7B080E6 		.ascii	"\307\260\200\346\361\247\262J\223Y,Q\260,\231k\330\011"
 112      F1A7B24A 
 112      93592C51 
 112      B02C996B 
 112      D809
 113 019b BFB2FE54 		.ascii	"\277\262\376T\242\20755@\362%\262\233\330\237!\272\231"
 113      A2873535 
 113      40F225B2 
 113      9BD89F21 
 113      BA99
 114 01ad E56DAB71 		.ascii	"\345m\253q\314\024VW\273\235\220z2\325l\236\361b(\375"
 114      CC145657 
 114      BB9D907A 
 114      32D56C9E 
 114      F16228FD 
ARM GAS  /tmp/ccgh68Iz.s 			page 8


 115 01c1 D8373BB0 		.ascii	"\3307;\260\322\375\314s\240\260\365j\006\245'N7n\376"
 115      D2FDCC73 
 115      A0B0F56A 
 115      06A5274E 
 115      376EFE
 116 01d4 85AA668B 		.ascii	"\205\252f\213\3546\026K4\307\254xz\234%\013ZF\001\316"
 116      EC36164B 
 116      34C7AC78 
 116      7A9C250B 
 116      5A4601CE 
 117 01e8 0EC0D9CE 		.ascii	"\016\300\331\316\232\201tQ\011\245\240w\243@F\005f("
 117      9A817451 
 117      09A5A077 
 117      A3404605 
 117      6628
 118 01fa CB3171D6 		.ascii	"\3131q\326\255\332\262I\265%\366-X\372\200\332\372\001"
 118      ADDAB249 
 118      B525F62D 
 118      58FA80DA 
 118      FA01
 119 020c 9BC32CC0 		.ascii	"\233\303,\300\362\2666\252\023;\362l:H\2347\300F\245"
 119      F2B636AA 
 119      133BF26C 
 119      3A489C37 
 119      C046A5
 120 021f 446F3B74 		.ascii	"Do;t|\003;OU\321\017\357A\327[\310\231\205\317\010$"
 120      7C033B4F 
 120      55D10FEF 
 120      41D75BC8 
 120      9985CF08 
 121 0234 B2719643 		.ascii	"\262q\226Ct\217\265\273][\225\253z\264\374\314\035\356"
 121      748FB5BB 
 121      5D5B95AB 
 121      7AB4FCCC 
 121      1DEE
 122 0246 5657CB4F 		.ascii	"VW\313O\324D\234\245\356q\211s\177:Y\010F\333\013\275"
 122      D4449CA5 
 122      EE718973 
 122      7F3A5908 
 122      46DB0BBD 
 123 025a AE93EB53 		.ascii	"\256\223\353S\267\333o\355vG\033\373c\256\367Su\274"
 123      B7DB6FED 
 123      76471BFB 
 123      63AEF753 
 123      75BC
 124 026c E35CEF9E 		.ascii	"\343\\\357\236\227\340l\273\336%\316\334\367\364\354"
 124      97E06CBB 
 124      DE25CEDC 
 124      F7F4EC
 125 027b AF53D93C 		.ascii	"\257S\331<\221=\227Of{\210\354\227R\331Y\204K\244\365"
 125      913D974F 
 125      667B88EC 
 125      9752D959 
 125      844BA4F5 
 126 028f BFFD4407 		.ascii	"\277\375D\007\356\200\016|\300\241\003\213l{\322\222"
 126      EE800E7C 
 126      C0A1038B 
ARM GAS  /tmp/ccgh68Iz.s 			page 9


 126      6C7BD292 
 127 029f 7DEAC189 		.ascii	"}\352\301\211\266E_\\`\227\314S;\012\354\234\021\025"
 127      B6455F5C 
 127      6097CC53 
 127      3B0AEC9C 
 127      1115
 128 02b1 61D30781 		.ascii	"a\323\007\201\370\356.6\220il\027\331SH\014\232\010"
 128      F8EE2E36 
 128      90696C17 
 128      D953480C 
 128      9A08
 129 02c3 D06575C9 		.ascii	"\320eu\3115]\340\222]T.\331\326\265\314\235K\306\257"
 129      355DE092 
 129      5D542ED9 
 129      D6B5CC9D 
 129      4BC6AF
 130 02d6 9DC421EC 		.ascii	"\235\304!\354,\370\343*\276O\376\230\260\372\343\351"
 130      2CF8E32A 
 130      BE4FFE98 
 130      B0FAE3E9 
 131 02e6 E5E08F09 		.ascii	"\345\340\217\011*\177\334\300\023\276\247\347\265\361"
 131      2A7FDCC0 
 131      13BEA7E7 
 131      B5F1
 132 02f4 B68EB78F 		.ascii	"\266\216\267\2177;\036\215+%\010W\372\034\\\351/\216"
 132      373B1E8D 
 132      2B250857 
 132      FA1C5CE9 
 132      2F8E
 133 0306 B1E024C8 		.ascii	"\261\340$\310\337\325\347`\320\336\265\014F5}\024\327"
 133      DFD5E760 
 133      D0DEB50C 
 133      46357D14 
 133      D7
 134 0317 1C295936 		.ascii	"\034)Y6` x\030\"\032\354\333\3036\300Pv\031\306\361"
 134      60207818 
 134      221AECDB 
 134      C336C050 
 134      7619C6F1 
 135 032b 73BC6D40 		.ascii	"s\274m@\240\200Z\262`\327h\030[\276\002\240\213\274"
 135      A0805AB2 
 135      60D76818 
 135      5BBE02A0 
 135      8BBC
 136 033d 3520F82C 		.ascii	"5 \370,\001\301g\036\344}\376T\002O!\3733n\213\243\221"
 136      01C1671E 
 136      E47DFE54 
 136      024F21FB 
 136      336E8BA3 
 137 0352 C1AA4013 		.ascii	"\301\252@\023\243v\012\014\220\012D}\361\320v\366z\203"
 137      A3760A0C 
 137      900A447D 
 137      F1D076F6 
 137      7A83
 138 0364 BAA280DE 		.ascii	"\272\242\200\336\201\227ta\007\276\016\016\334\3237"
 138      81977461 
 138      07BE0E0E 
ARM GAS  /tmp/ccgh68Iz.s 			page 10


 138      DCD337
 139 0373 07EEB63A 		.ascii	"\007\356\266:\360m\315\201\273\251\034x\221\247\267"
 139      F06DCD81 
 139      BBA91C78 
 139      91A7B7
 140 0382 03AFF1D8 		.ascii	"\003\257\361\330:\360\037=\356\035\270\233p\340o\301"
 140      3AF01F3D 
 140      EE1DB89B 
 140      70E06FC1 
 141 0392 816F383A 		.ascii	"\201o8:\360^\017\205\003g\33380\321\236\326\322g\320"
 141      F05E0F85 
 141      0367DB38 
 141      30D19ED6 
 141      D267D0
 142 03a5 D2197608 		.ascii	"\322\031v\010\242\227\200^C4yq\314a\217\325\277\264"
 142      A297805E 
 142      43347971 
 142      CC618FD5 
 142      BFB4
 143 03b7 118A404A 		.ascii	"\021\212@J\015eL:,;W\301\025N\240\331A\262\271\323\320"
 143      0D654C3A 
 143      2C3B57C1 
 143      154EA0D9 
 143      41B2B9D3 
 144 03cc DC9EBE7A 		.ascii	"\334\236\276zV|\345g-\356\272f\374\375\345\367c\037"
 144      567CE567 
 144      2DEEBA66 
 144      FCFDE5F7 
 144      631F
 145 03de 98CB6113 		.ascii	"\230\313a\023&zI{\331:\277\242\351\037Wh\244\260\263"
 145      267A497B 
 145      D93ABFA2 
 145      E91F5768 
 145      A4B0B3
 146 03f1 0F48A1C6 		.ascii	"\017H\241\306\333?ka\261\0246\201De\215\372\003\222"
 146      DB3F6B61 
 146      B1143681 
 146      44658DFA 
 146      0392
 147 0403 32248E7F 		.ascii	"2$\216\177y\361\202>\2744rx\246\264!+\343L\311\014\304"
 147      79F1823E 
 147      BC347278 
 147      A6B4212B 
 147      E34CC90C 
 148 0418 315BA0CA 		.ascii	"1[\240\312\363\234%,u\213\001-7SPR\3437\316\373\325"
 148      F39C252C 
 148      758B012D 
 148      37535052 
 148      E337CEFB 
 149 042d E65C9BA6 		.ascii	"\346\\\233\246\306\221\"\033#\342\225\304\003\007Tu"
 149      C691221B 
 149      23E295C4 
 149      03075475 
 150 043d 80C82E04 		.ascii	"\200\310.\004\216\277\262\347\270u\234\023\016\307\334"
 150      8EBFB2E7 
 150      B8759C13 
 150      0EC7DC
ARM GAS  /tmp/ccgh68Iz.s 			page 11


 151 044c 812A4D16 		.ascii	"\201*M\026\216\023\273\257w<\270\002\220\233(\330n\210"
 151      8E13BBAF 
 151      773CB802 
 151      909B28D8 
 151      6E88
 152 045e 1F6F5C43 		.ascii	"\037o\\C5Gm\365\030\315\227\246\3048u%>\010F\343e \305"
 152      35476DF5 
 152      18CD97A6 
 152      C4387525 
 152      3E0846E3 
 153 0475 87DE8C7A 		.ascii	"\207\336\214z7\303p\314\307PeEo)\022\377\244I\261\202"
 153      37C370CC 
 153      C7506545 
 153      6F2912FF 
 153      A449B182 
 154 0489 4A8ADBBA 		.ascii	"J\212\333\272\024\"\273\224\313A\260'\222\260\264\035"
 154      1422BB94 
 154      CB41B027 
 154      92B0B41D 
 155 0499 C98C77F7 		.ascii	"\311\214w\367\243\334&\321\000;\353\032,`\002[\262\177"
 155      A3DC26D1 
 155      003BEB1A 
 155      2C60025B 
 155      B27F
 156 04ab B5CB80B9 		.ascii	"\265\313\200\271\362\306\305\007v\203\370\255\32017"
 156      F2C6C507 
 156      7683F8AD 
 156      D03137
 157 04ba FB7E908E 		.ascii	"\373~\220\216\271\315G!\210s\307DV9\362\320\316\267"
 157      B9CD4721 
 157      8873C744 
 157      5639F2D0 
 157      CEB7
 158 04cc 54F579AF 		.ascii	"T\365y\257\341\237^'A8f\0274\266\336j\331\225w\217<"
 158      E19F5E27 
 158      41386617 
 158      34B6DE6A 
 158      D995778F 
 159 04e1 A259763D 		.ascii	"\242Yv=\225e\337>\270\234\316?\275F\363!h\376.4\377"
 159      9565DF3E 
 159      B89CCE3F 
 159      BD46F321 
 159      68FE2E34 
 160 04f6 86B5F96D 		.ascii	"\206\265\371m\377}i\254\326\374\033T\315\237;l\263\204"
 160      FF7D69AC 
 160      D6FC1B54 
 160      CD9F3B6C 
 160      B384
 161 0508 13D9B1F7 		.ascii	"\023\331\261\367\2475\337\335\253C\327B#[\300\201:\262"
 161      A735DFDD 
 161      AB43D742 
 161      235BC081 
 161      3AB2
 162 051a ADE67B2C 		.ascii	"\255\346{,\207l\013\336\211\002\034s4\333\340\276O\376"
 162      876C0BDE 
 162      89021C73 
 162      34DBE0BE 
ARM GAS  /tmp/ccgh68Iz.s 			page 12


 162      4FFE
 163 052c 8BC4DCF3 		.ascii	"\213\304\334\363\330\353`)\203\207\343\256\021\315N"
 163      D8EB6029 
 163      8387E3AE 
 163      11CD4E
 164 053b 7CFD30F4 		.ascii	"|\3750\364\010\015\3544\015\230\243#5\304\277!\301\316"
 164      080DEC34 
 164      0D98A323 
 164      35C4BF21 
 164      C1CE
 165 054d BA063373 		.ascii	"\272\0063s\366-\011\3669\015\330\000g\316n\222`\347"
 165      F62D09F6 
 165      390DD800 
 165      67CE6E92 
 165      60E7
 166 055f 5D839939 		.ascii	"]\203\2319\373\216\004\273D\0036\310\231\263\357I\260"
 166      FB8E04BB 
 166      440336C8 
 166      99B3EF49 
 166      B0
 167 0570 AF5C8399 		.ascii	"\257\\\203\2319\273K\202]\243\001\0138s\326\364'\002"
 167      39BB4B82 
 167      5DA3010B 
 167      3873D6F4 
 167      2702
 168 0582 ACDB3598 		.ascii	"\254\3335\230\231\263f\022\354\026\015\330Pg\316\226"
 168      99B36612 
 168      EC160DD8 
 168      5067CE96 
 169 0592 9260775C 		.ascii	"\222`w\\\203\2319{\231\004\233\353\247\000+p\346l\005"
 169      8399397B 
 169      99049BEB 
 169      A7002B70 
 169      E66C05
 170 05a5 0936DF35 		.ascii	"\0116\3375\230\231\263U$\330\3634`\243\2349[M\202-t"
 170      9899B355 
 170      24D8F334 
 170      60A39C39 
 170      5B4D822D 
 171 05ba 0D66E6EC 		.ascii	"\015f\346\354M\022l1\015\3308g\316\336\"\301\226\272"
 171      4D126C31 
 171      0DD83867 
 171      CEDE22C1 
 171      96BA
 172 05cc 063373B6 		.ascii	"\0063s\266\225\004[N\0036\321\231\263\355$\330*\327"
 172      95045B4E 
 172      0336D199 
 172      B3ED24D8 
 172      2AD7
 173 05de 6066CE76 		.ascii	"`f\316v\220`kh\300\236p\346\354\035\022\254\3255\230"
 173      90606B68 
 173      C09E70E6 
 173      EC1D12AC 
 173      D53598
 174 05f1 99B35D24 		.ascii	"\231\263]$\330\2534`O:s\366\036\011\366\232k03gGH\260"
 174      D8AB3460 
 174      4F3A73F6 
ARM GAS  /tmp/ccgh68Iz.s 			page 13


 174      1E09F69A 
 174      6B303367 
 175 0608 3FD0803D 		.ascii	"?\320\200=e\303Y\362\262\253\207\303\364\353\034\261"
 175      65C359F2 
 175      B2AB87C3 
 175      F4EB1CB1 
 176 0618 58DBE237 		.ascii	"X\333\3427&8.c4\223\302x\313\357vFf\222\033\317\223"
 176      26382E63 
 176      3493C278 
 176      CBEF7646 
 176      66921BCF 
 177 062d 1F7A478F 		.ascii	"\037zG\217\363\332du\007\015b\232\000\270j?1\363\215"
 177      F3DA6475 
 177      070D629A 
 177      00B86A3F 
 177      31F38D
 178 0640 BB06B3B8 		.ascii	"\273\006\263\2702\0063M\235\222[\377\361\364;\036\370"
 178      3206334D 
 178      9D925BFF 
 178      F1F43B1E 
 178      F8
 179 0651 FB12477C 		.ascii	"\373\022G|'\030d_Vd\257px\011\377W\316\237\344BK\033"
 179      2718645F 
 179      5664AF70 
 179      7809FF57 
 179      CE9FE442 
 180 0667 296DCBA0 		.ascii	")m\313\240\303o\336pH^\231\252:y\302%\322\023>\241Q"
 180      C36FDE70 
 180      485E99AA 
 180      3A79C225 
 180      D2133EA1 
 181 067c 539AD07E 		.ascii	"S\232\320~n\377j\330\317\244\377.\262\362\306\021}\201"
 181      6EFF6AD8 
 181      CFA4FF2E 
 181      B2F2C611 
 181      7D81
 182 068e 70151608 		.ascii	"p\025\026\010\237\372\2553\314m.\277\214\240y\230U\012"
 182      9FFAAD33 
 182      CC6D2EBF 
 182      8CA07998 
 182      550A
 183 06a0 BB6D15E7 		.ascii	"\273m\025\3479\005\362\305S\203wnQ\325y^7rt\350rt\203"
 183      3905F2C5 
 183      5383776E 
 183      51D5795E 
 183      377274E8 
 184 06b7 1CE77F00 		.ascii	"\034\347\177\0009\276r-\307P\213\034\361\241\356\345"
 184      39BE722D 
 184      C7508B1C 
 184      F1A1EEE5 
 185 06c7 38A5CBF1 		.ascii	"8\245\313\361\035\310\321\375\003\310q\307\265\034\005"
 185      1DC8D1FD 
 185      03C871C7 
 185      B51C05
 186 06d6 841CB05A 		.ascii	"\204\034\260Z\033\246\255\326\356e\232\323\257\3260"
 186      1BA6ADD6 
 186      EE659AD3 
ARM GAS  /tmp/ccgh68Iz.s 			page 14


 186      AFD630
 187 06e5 3F3DDCBD 		.ascii	"?=\334\275\226\375\355N\274\345\210\263)6?:\211%\256"
 187      96FDED4E 
 187      BCE588B3 
 187      29363F3A 
 187      8925AE
 188 06f8 4AB7C4BD 		.ascii	"J\267\304\275\252k\254\201\307\032{\266\237\315\226"
 188      AA6BAC81 
 188      C71A7BB6 
 188      9FCD96
 189 0707 3015D2E9 		.ascii	"0\025\322\351\217\366\266\351\333?\363\001jA\237\241"
 189      8FF6B6E9 
 189      DB3FF301 
 189      6A419FA1 
 190 0717 9674BEAD 		.ascii	"\226t\276\255}n|\016\200\232\373Y\255\350\265\030\321"
 190      7D6E7C0E 
 190      809AFB59 
 190      ADE8B518 
 190      D1
 191 0728 6B36227A 		.ascii	"k6\"z\305-\335\304+n\366wz\016~\3611\377\357\3658f5"
 191      C52DDDC4 
 191      2B6EF677 
 191      7A0E7EF1 
 191      31FFEFF5 
 192 073f B08F0DE8 		.ascii	"\260\217\015\3502@\245\034\350\227;\365\340\242\031"
 192      3240A51C 
 192      E8973BF5 
 192      E0A219
 193 074e E9D5BF0B 		.ascii	"\351\325\277\013\261!\336\376\202\261M\363\030\016/"
 193      B121DEFE 
 193      82B14DF3 
 193      180E2F
 194 075d 9BFE4EB8 		.ascii	"\233\376N\270\243\007\335o\254\304\037\324\274n1\010"
 194      A307DD6F 
 194      ACC41FD4 
 194      BC6E3108 
 195 076d D4DECBC2 		.ascii	"\324\336\313\302}\332Xy\277\257\202$/\216\371\250\037"
 195      7DDA5879 
 195      BFAF8224 
 195      2F8EF9A8 
 195      1F
 196 077e 451009A4 		.ascii	"E\020\011\244\263\326\315a\224\2333\311M\310\213\203"
 196      B3D6CD61 
 196      949B33C9 
 196      4DC88B83 
 197 078e 3A4019CB 		.ascii	":@\031\313y\274}\327iQ\006\305&\317i\250\262\212\357"
 197      79BC7DD7 
 197      695106C5 
 197      26CF69A8 
 197      B28AEF
 198 07a1 B57D77E4 		.ascii	"\265}w\344\001m\227\005\377D\261\311c\332\276\023\331"
 198      016D9705 
 198      FF44B1C9 
 198      63DABE13 
 198      D9
 199 07b2 D51CA7C3 		.ascii	"\325\034\247\303\366U\237&\023\246\370C\320<\236/\254"
 199      F6559F26 
ARM GAS  /tmp/ccgh68Iz.s 			page 15


 199      13A6F843 
 199      D03C9E2F 
 199      AC
 200 07c3 E14DDBFC 		.ascii	"\341M\333\374\227\\\353>@\352>~\373"
 200      975CEB3E 
 200      40EA3E7E 
 200      FB
 201 07d0 E06A56E3 		.ascii	"\340jV\343_\333\316\375\332\2127\216\234\313\351I\307"
 201      5FDBCEFD 
 201      DA8A378E 
 201      9CCBE949 
 201      C7
 202 07e1 75AB1A6F 		.ascii	"u\253\032o>\004\2230\255\323\335\245a.\315R\263E\003"
 202      3E049330 
 202      ADD3DDA5 
 202      612ECD52 
 202      B34503
 203 07f4 D31CFED9 		.ascii	"\323\034\376\331\034\267`\001\023\330\356E6\333\305"
 203      1CB76001 
 203      13D8EE45 
 203      36DBC5
 204 0803 DA16B953 		.ascii	"\332\026\271S`\331\300\023S\245\227h\332O\263:=~h\265"
 204      60D9C013 
 204      53A59768 
 204      DA4FB33A 
 204      3D7E68B5 
 205 0817 EE29DACE 		.ascii	"\356)\332\316\350J\327xfy\256-2\215H\353h\340\306Q;"
 205      E84AD778 
 205      6679AE2D 
 205      328D48EB 
 205      68E0C651 
 206 082c 5E6A5F1B 		.ascii	"^j_\0339!LT\377\213\303_\206\326\000]\013t\035\320/"
 206      39214C54 
 206      FF8BC35F 
 206      86D6005D 
 206      0B741DD0 
 207 0841 805E007A 		.ascii	"\200^\000z\021\350\377\002\375\006\350-\240w\201\276"
 207      11E8FF02 
 207      FD06E82D 
 207      A07781BE 
 208 0851 CC435DA0 		.ascii	"\314C]\240\257\000}\025\350z\240\033\201\276A\272\267"
 208      AF007D15 
 208      E87AA01B 
 208      81BE41BA 
 208      B7
 209 0862 935DB4AE 		.ascii	"\223]\264\256\226\354\230F\257k\352\363\246\371\211"
 209      96EC9846 
 209      AF6BEAF3 
 209      A6F989
 210 0871 D4A6B9C8 		.ascii	"\324\246\271\310\266\270\006\013\244\323d\023\241\311"
 210      B6B8060B 
 210      A4D36413 
 210      A1C9
 211 087f 66D0E412 		.ascii	"f\320\344\022\320\306&sG\336\224c|\306I\323\361\234"
 211      D0C62673 
 211      47DE9463 
 211      7CC649D3 
ARM GAS  /tmp/ccgh68Iz.s 			page 16


 211      F19C
 212 0891 45487CFA 		.ascii	"EH|\372\345E\337J5\376,o\254\200\266Z\0013.\320\314"
 212      E545DF4A 
 212      35FE2C6F 
 212      AC80B65A 
 212      01332ED0 
 213 08a6 3AB92B59 		.ascii	":\271+YN\\h\337\250\234l\322F\366\225]\256\333N\253"
 213      4E5C68DF 
 213      A89C6CD2 
 213      46F6955D 
 213      AEDB4EAB 
 214 08ba C2E70915 		.ascii	"\302\347\011\025\276\000*|\021T\270\005\\\346MR\221"
 214      BE002A7C 
 214      1154B805 
 214      5CE64D52 
 214      91
 215 08cb 22BB80B3 		.ascii	"\"\273\200\263\23471\1770K\323x\362#w\367\011\233\003"
 215      9C37317F 
 215      304BD378 
 215      F22377F7 
 215      099B03
 216 08de 27DAA7A2 		.ascii	"'\332\247\2424Ai\371{\247\037\332\004\241c+\217\015"
 216      344169F9 
 216      7BA71FDA 
 216      04A1632B 
 216      8F0D
 217 08f0 703BC71A 		.ascii	"p;\307\032\241\227r\226\315s\213#s\314\242\\\212\017"
 217      A1977296 
 217      CD738B23 
 217      73CCA25C 
 217      8A0F
 218 0902 90695632 		.ascii	"\220iV2m\213n\234`\347\315S7\026\3503\013\265Q\035\272"
 218      6D8B6E9C 
 218      60E7CD53 
 218      3716E833 
 218      0BB5511D 
 219 0917 31150407 		.ascii	"1\025\004\007\030\030\\\222\357\3706\355C\352N\030e"
 219      18185C92 
 219      EFF836ED 
 219      43EA4E18 
 219      65
 220 0928 97E5DA9E 		.ascii	"\227\345\332\236o\310\014\2238\335\370\366/a\006\272"
 220      6FC80C93 
 220      38DDF8F6 
 220      2F6106BA 
 221 0938 0B80D6F6 		.ascii	"\013\200\326\366\031h\311\202\327\264\203\022\357\003"
 221      1968C982 
 221      D7B48312 
 221      EF03
 222 0946 D0C65CAB 		.ascii	"\320\306\\\253\032y\313<\2077\317sx\177*\321\323\303"
 222      1A79CB3C 
 222      8737CF73 
 222      787F2AD1 
 222      D3C3
 223 0958 33FFC0C2 		.ascii	"3\377\300\302h\032f5\230I\242Ls\037l\260;\272\263\031"
 223      681A6635 
 223      9849A24C 
ARM GAS  /tmp/ccgh68Iz.s 			page 17


 223      731F6CB0 
 223      3BBAB319 
 224 096c 274C76D0 		.ascii	"'Lv\320\270\200\011\321\344\002\361\357?\203\261L\003"
 224      B88009D1 
 224      E402F1EF 
 224      3F83B14C 
 224      03
 225 097d FB80062C 		.ascii	"\373\200\006,\3156\364\262\226\265\216\337\260Z3\036"
 225      CD36F4B2 
 225      96B58EDF 
 225      B05A331E 
 226 098d BD4AECBC 		.ascii	"\275J\354\274p\340_\360A\300\314\307\257:y\272\343W"
 226      70E05FF0 
 226      41C0CCC7 
 226      AF3A79BA 
 226      E357
 227 099f 1FF3D6EF 		.ascii	"\037\363\326\357\334\207\340\370\325\307T\263\265\033"
 227      DC87E0F8 
 227      D5C754B3 
 227      B51B
 228 09ad 767300BB 		.ascii	"vs\000\273\323\210\311!cPJ\230\223\227\017\214\325N"
 228      D388C921 
 228      63504A98 
 228      93970F8C 
 228      D54E
 229 09bf 351E8149 		.ascii	"5\036\201I\347\341\037e>\325h\302\301\374\035\263\362"
 229      E7E11F65 
 229      3ED568C2 
 229      C1FC1DB3 
 229      F2
 230 09d0 DF7E18F8 		.ascii	"\337~\030\370?\226\231\377g\347\305\337\326\277\351"
 230      3F9699FF 
 230      67E7C5DF 
 230      D6BFE9
 231 09df 41679A97 		.ascii	"Ag\232\227v\331 \262W\340\210\010\315\"\340/ \3111\367"
 231      76D920B2 
 231      57E08808 
 231      CD22E02F 
 231      20C931F7 
 232 09f3 93569DAD 		.ascii	"\223V\235\255\035\3327\231\023\320_\317\273\006\013"
 232      1DDA3799 
 232      13D05FCF 
 232      BB060B
 233 0a02 98C0DE21 		.ascii	"\230\300\336!\301.\323\2009\0051\004\266\213\004\373"
 233      C12ED380 
 233      39053104 
 233      B68B04FB 
 234 0a12 9B6B3033 		.ascii	"\233k03g\357\221`_\323\2009\355V\"\260#$\330M\327`\001"
 234      67EF9160 
 234      5FD38039 
 234      ED5622B0 
 234      2324D84D 
 235 0a29 3B2F617A 		.ascii	";/az9\231\310~\012\253\206\343\020)O\001\355\002z\006"
 235      3999C87E 
 235      0AAB86E3 
 235      10294F01 
 235      ED027A06 
ARM GAS  /tmp/ccgh68Iz.s 			page 18


 236 0a3d E89F8126 		.ascii	"\350\237\201&h&]\207\311\000\377=0\374q\337<\006\015"
 236      68265D87 
 236      C900FF3D 
 236      30FC71DF 
 236      3C060D
 237 0a50 7B3B2F7C 		.ascii	"{;/|>F\333\375\265\304X\254\017'\016\276 9\230\227\347"
 237      3E46DBFD 
 237      B5C458AC 
 237      0F270EBE 
 237      20399897 
 238 0a65 968300C9 		.ascii	"\226\203\000\311A\374\366!m\347\3228\350\375\234\025"
 238      41FCF621 
 238      6DE7D238 
 238      E8FD9C15 
 239 0a75 8FF66896 		.ascii	"\217\366h\2261]:\224\363\346S\006\330K\256\301L\307"
 239      315D3A94 
 239      F3E65306 
 239      D84BAEC1 
 239      4CC7
 240 0a87 AFE34D87 		.ascii	"\257\343M\207\011\260\225\256\301\006\364\362\010\315"
 240      09B095AE 
 240      C106F4F2 
 240      08CD
 241 0a95 173E015F 		.ascii	"\027>\001_8\0046\377\037\240\027\200^\004z\331<!m\315"
 241      380436FF 
 241      1FA01780 
 241      5E047AD9 
 241      3C216DCD 
 242 0aa9 B3C65D6D 		.ascii	"\263\306]m\214%PS\2031C\213\353d\333\016\322\266\355"
 242      8C255053 
 242      8331438B 
 242      EB64DB0E 
 242      D2B6ED
 243 0abc 796EA396 		.ascii	"yn\243\226\311\266(\250\356\377\322\010\252\0350\027"
 243      C9B628A8 
 243      EEFFD208 
 243      AA1D3017 
 244 0acc DB498398 		.ascii	"\333I\203\230f%\272\365\317\326\317\001v\243=G\362\226"
 244      6625BAF5 
 244      CFD6CF01 
 244      76A33D47 
 244      F296
 245 0ade 8C1A7BA6 		.ascii	"\214\032{\246kQ\343:D\215\367\3632G\015\316,\243\310"
 245      6B51E33A 
 245      448DF7F3 
 245      32470DCE 
 245      2CA3C8
 246 0af1 765BA3C6 		.ascii	"v[\243\306\255c\0205\272\251\242\306\235cK\365\225\242"
 246      AD631035 
 246      BAA9A2C6 
 246      9D634BF5 
 246      95A2
 247 0b03 36DA1C04 		.ascii	"6\332\034\004\026\272\373<\334\337=F\014]\207]\203\005"
 247      16BAFB3C 
 247      DCDF3D46 
 247      0C5D875D 
 247      8305
ARM GAS  /tmp/ccgh68Iz.s 			page 19


 248 0b15 4C604D27 		.ascii	"L`M'\010\260c4`i\206\373f\022\354\224k03gKI\260\263"
 248      08B06334 
 248      606986FB 
 248      6612EC94 
 248      6B303367 
 249 0b2d 34606986 		.ascii	"4`i\206\373\227I\260\204k03g+H\260/h\300\234>\341 \260"
 249      FB9749B0 
 249      846B3033 
 249      672B48B0 
 249      2F68C09C 
 250 0b45 5524D845 		.ascii	"U$\330E\327`f\316V\223`\177\245\001\0138s\326B\202]"
 250      D76066CE 
 250      5693607F 
 250      A5010B38 
 250      73D64282 
 251 0b5a 770D16B0 		.ascii	"w\015\026\260\353\022\332E\366(\221\375\026\206\305"
 251      EB12DA45 
 251      F62891FD 
 251      1686C5
 252 0b69 1B3058DD 		.ascii	"\0330X\335\002z\033\350\035\240=@\347z0\235\007t>\320"
 252      027A1BE8 
 252      1DA03D40 
 252      E77A309D 
 252      07743ED0 
 253 0b7d DF037DDE 		.ascii	"\337\003}\336C1\270]#\007\267\033\256\207\242\264\202"
 253      4331B85D 
 253      2307B71B 
 253      AE87A2B4 
 253      82
 254 0b8e A4FE2223 		.ascii	"\244\376\"#\262\037\300\214\357C8\302{\034\250\012\353"
 254      B21FC08C 
 254      EF4338C2 
 254      7B1CA80A 
 254      EB
 255 0b9f E4F940DB 		.ascii	"\344\371@\333A\220\035@?\004\272\017\350~\240\177\003"
 255      41901D40 
 255      3F04BA0F 
 255      E87EA07F 
 255      03
 256 0bb0 7A9566AC 		.ascii	"z\225f\254\336\235:\370\213\326\343\036\274\334^\337"
 256      DE9D3AF8 
 256      8BD6E31E 
 256      BCDC5EDF 
 257 0bc0 E723E5E7 		.ascii	"\347#\345\347;_r{&\377Jb\203\376\325d!\234\337\276\335"
 257      3B5F727B 
 257      26FF4A62 
 257      83FED564 
 257      219CDFBE 
 258 0bd5 2B52F569 		.ascii	"+R\365i+|~\1776\263$i\017g\233\232\\O\030f\003\030\346"
 258      2B7C7E7F 
 258      36B32469 
 258      0F679B9A 
 258      5C4F1866 
 259 0bec 3530C956 		.ascii	"50\311V\240\273\200\276Hz\317`\246EmM$\336\375\256\315"
 259      A0BB80BE 
 259      487ACF60 
 259      A6456D4D 
ARM GAS  /tmp/ccgh68Iz.s 			page 20


 259      24DEFDAE 
 260 0c01 8B3772D4 		.ascii	"\2137r\324\236\236\3371?f\226\351\037\200TVq<\274\207"
 260      9E9EDF31 
 260      3F6696E9 
 260      1F805456 
 260      713CBC87 
 261 0c15 9B6BF6FC 		.ascii	"\233k\366\374\030R\274v\240=S\254\262[\255-\276}`\210"
 261      1852BC76 
 261      A03D53AC 
 261      B25BAD2D 
 261      BE7D6088 
 262 0c29 7626D683 		.ascii	"v&\326\203#U{\377\214\221\252\327\362l\205\307\022\250"
 262      23557BFF 
 262      8C91AAD7 
 262      F26C85C7 
 262      12A8
 263 0c3b 367B392D 		.ascii	"6{9-7\363\227\270\266u\370\030\262\361w\315\335\320"
 263      37F397B8 
 263      B675F818 
 263      B2F177CD 
 263      DDD0
 264 0c4d 3AAE69D7 		.ascii	":\256i\327V\232 eo\215\024c\"\273\322\203\255\261\212"
 264      569A2065 
 264      6F8D1463 
 264      22BBD283 
 264      ADB18A
 265 0c60 A6E72EF5 		.ascii	"\246\347.\365$]]Wl\322\375\223\357\372\367Q\221\235"
 265      245D5D57 
 265      6CD2FD93 
 265      EFFAF751 
 265      919D
 266 0c72 96DA3EE0 		.ascii	"\226\332>\340\230\275\026\355\375\224yUU\233\261u\307"
 266      98BD16ED 
 266      FD947955 
 266      559BB175 
 266      C7
 267 0c83 22EB7A34 		.ascii	"\"\353z4h\2169\012\305\026{\006\333\262\2403\240\325"
 267      688E390A 
 267      C5167B06 
 267      DBB2A033 
 267      A0D5
 268 0c95 55774B13 		.ascii	"UwK\023\265\3269\346x\206j\300\243^\355\316\177\014"
 268      B5D639E6 
 268      78866AC0 
 268      A35EEDCE 
 268      7F0C
 269 0ca7 32A69267 		.ascii	"2\246\222g\254\325,G\022tQ\036f\326cK/T\347\017`\301"
 269      ACD52C47 
 269      1274511E 
 269      66D6634B 
 269      2F54E70F 
 270 0cbd E918BD96 		.ascii	"\351\030\275\226I\245-\036\323\037s5\367\215\357>\223"
 270      49A52D1E 
 270      D31F7335 
 270      F78DEF3E 
 270      93
 271 0cce DB3437D1 		.ascii	"\33347\321\3233\330\342\272\015i&\366\257\231}W\223"
ARM GAS  /tmp/ccgh68Iz.s 			page 21


 271      D333D8E2 
 271      BA0D6926 
 271      F6AF997D 
 271      5793
 272 0ce0 5A7FC966 		.ascii	"Z\177\311f~\257\375ED\235\313\376\226\261\345;u\354"
 272      7EAFFD45 
 272      449DCBFE 
 272      96B1E53B 
 272      75EC
 273 0cf2 4264DFF0 		.ascii	"Bd\337\360d\3435h\177\307C\023\270\200aq-m\244X\306"
 273      64E33568 
 273      7FC74313 
 273      B8806171 
 273      2D6DA458 
 274 0d07 C68C576C 		.ascii	"\306\214Wl\315\250\366\204&j\\\212l+\014\200\033\250"
 274      CDA8F684 
 274      266A5C8A 
 274      6C2B0C80 
 274      1BA8
 275 0d19 2CD88E4D 		.ascii	",\330\216M\241\261x\023\20078\232B\347S7\305\037\033"
 275      A1B17813 
 275      8037389A 
 275      42E75337 
 275      C51F1B
 276 0d2c E70FF068 		.ascii	"\347\017\360hJd\322\264\246K\260\271\267e\336L\304\317"
 276      4A64D2B4 
 276      A64BB0B9 
 276      B765DE4C 
 276      C4CF
 277 0d3e 843AD4AB 		.ascii	"\204:\324\253h\254sa\230\3664\206\021\331\22196\012"
 277      68AC7361 
 277      98F63486 
 277      11D99139 
 277      360A
 278 0d50 5307D828 		.ascii	"S\007\330(\254A]+Y\024\366\026\205\302\032\324\223\270"
 278      AC415D2B 
 278      5914F616 
 278      85C21AD4 
 278      93B8
 279 0d62 DA48ECF1 		.ascii	"\332H\354\361\313\000\327\271\226\306\214\275\272\234"
 279      CB00D7B9 
 279      96C68CBD 
 279      BA9C
 280 0d70 6AE9526E 		.ascii	"j\351Rn\267UW\223\244\251K\323\002\307\264\330\013\266"
 280      B7555793 
 280      A4A94BD3 
 280      02C7B4D8 
 280      0BB6
 281 0d82 CD2AD8BB 		.ascii	"\315*\330\273T\202\235M\012\266\035p\235k\245\023\314"
 281      54829D4D 
 281      0AB61D70 
 281      9D6BA513 
 281      CC
 282 0d93 A9962ED8 		.ascii	"\251\226.\330\256\336\202%\232\022\373^8\310>\327\254"
 282      AEDE8225 
 282      9A12FB5E 
 282      38C83ED7 
ARM GAS  /tmp/ccgh68Iz.s 			page 22


 282      AC
 283 0da4 7E8F7730 		.ascii	"~\217w0\351\343\313\007i\342\2136f;\325\334K?\206&\337"
 283      E9E3CB07 
 283      69E28B36 
 283      663BD5DC 
 283      4B3F8626 
 284 0db9 177AECC6 		.ascii	"\027z\354\306\324w-&0\344\354\260\2233~\356\314\213"
 284      D4772D26 
 284      30E4ECB0 
 284      93337EEE 
 284      CC8B
 285 0dcb 2AEB7A2C 		.ascii	"*\353z,\352\264\272\374^\322\345\365^i\341\253\323\201"
 285      EAB4BAFC 
 285      5ED2E5F5 
 285      5E69E1AB 
 285      D381
 286 0ddd AF4FCC7C 		.ascii	"\257O\314|Yt\2065\352\304\305\241\224\316,\265:\323"
 286      59748635 
 286      EAC4C5A1 
 286      94CE2CB5 
 286      3AD3
 287 0def D43A9CAA 		.ascii	"\324:\234\252\305\334_*\207gIr,?\\\024\024bRM,*\017"
 287      C5DC5F2A 
 287      87674972 
 287      2C3F5C14 
 287      1462524D 
 288 0e06 AB6272CA 		.ascii	"\253br\312\212J*\340EP\274\277\2362-P\302\364Oe\305"
 288      8A4A2AE0 
 288      4550BCBF 
 288      9E322D50 
 288      C2F44F65 
 289 0e1b 145191B2 		.ascii	"\024Q\221\262\313\246\024\227T\226\375f\274\247\254"
 289      CBA61497 
 289      5496FD66 
 289      BCA7AC
 290 0e2a 74D278CF 		.ascii	"t\322x\317\343\323*\246g\301\017?\315\257\213\311\371"
 290      E3D32AA6 
 290      67C10F3F 
 290      CDAF8BC9 
 290      F9
 291 0e3b A21C79A4 		.ascii	"\242\034y\244&Z#=\"\211O\207\363\3035\301\352\272\220"
 291      265A233D 
 291      22894F87 
 291      F3C335C1 
 291      EABA90
 292 0e4e 941F5342 		.ascii	"\224\037SB\341\032\0055\340\253C\317Q\2022\"M\341\210"
 292      E11A0535 
 292      E0AB43CF 
 292      51823222 
 292      4DE188
 293 0e61 18AC0AD7 		.ascii	"\030\254\012\327H\371BH\232!\326U+\2022\247V\212\241"
 293      48F94248 
 293      9A21D655 
 293      2B8232A7 
 293      568AA1
 294 0e74 CA7E41D0 		.ascii	"\312~A\320\253\373\304PH\226b\261\322\374\252hD\312"
 294      ABFBC450 
ARM GAS  /tmp/ccgh68Iz.s 			page 23


 294      489662B1 
 294      D2FCAA68 
 294      44CA
 295 0e86 0F464373 		.ascii	"\017FCs\362C\322\254|T\361\351p4\226\257\310u5\317\344"
 295      F243D2AC 
 295      7C54F1E9 
 295      703496AF 
 295      C87535CF 
 296 0e9b A3449558 		.ascii	"\243D\225X\235_\033\225\225X~E\345\344\341E\371\223"
 296      9D5F1B95 
 296      95587E45 
 296      E5E4E145 
 296      F993
 297 0ead 2695E623 		.ascii	"&\225\346#\201f\025\202\334\325\325!\014\21324m\024"
 297      81661582 
 297      DCD5D521 
 297      0C8B3234 
 297      6D14
 298 0ebf D1C0196C 		.ascii	"\321\300\031l\"\000T\271\037z\200\370\202\322\017\341"
 298      220054B9 
 298      1F7A80F8 
 298      82D20FE1 
 299 0ecf 08D3A694 		.ascii	"\010\323\246\224M)\253\314\306\311\212\312\251O`l\241"
 299      4D29ABCC 
 299      C6C98ACA 
 299      A94F606C 
 299      A1
 300 0ee0 7C7C71E9 		.ascii	"||q\351\364\037\341\224\2469\241\362I\362\255\374I\250"
 300      F41FE194 
 300      A639A1F2 
 300      49F2ADFC 
 300      49A8
 301 0ef2 39696AC9 		.ascii	"9ij\311\277\217/\315Ax\321\332H4\204\001\247>1yj\351"
 301      BF8F2FCD 
 301      4178D1DA 
 301      48348401 
 301      A73E3179 
 302 0f08 7801FD7A 		.ascii	"x\001\375z\257\236\254\230\214\024.\224\216\377MY\311"
 302      AF9EAC98 
 302      8C142E94 
 302      8EFF4D59 
 302      C9
 303 0f19 F87B4C79 		.ascii	"\370{Ly\023\247VT\372\242\265\002\256\232\215\3254\274"
 303      13A75654 
 303      FAA2B502 
 303      AE9A8DD5 
 303      34BC
 304 0f2b 0821681A 		.ascii	"\010!h\032\303\311\234`u4\370\214\020\253\225\244P\036"
 304      C3C99C60 
 304      7534F88C 
 304      10AB95A4 
 304      501E
 305 0f3d 6A2454A7 		.ascii	"j$T\247\314\011\316\011V\243v\362**K\205\322i\225\323"
 305      CC09CE09 
 305      56A376F2 
 305      2A2A4B85 
 305      D26995D3 
ARM GAS  /tmp/ccgh68Iz.s 			page 24


 306 0f51 8592E925 		.ascii	"\205\222\351%\223\306\3373\241\270\242\222x\027\212"
 306      93C6DF33 
 306      A1B8A292 
 306      78178A
 307 0f60 EEB3E614 		.ascii	"\356\263\346\024\216\024F\367\303\010\002@`)K\24253"
 307      8E1446F7 
 307      C3080240 
 307      60294BA2 
 307      3533
 308 0f72 C233BD41 		.ascii	"\3023\275Ax`\255\314\250\026g\306\220\033I\262\034\225"
 308      7860ADCC 
 308      A81667C6 
 308      901B49B2 
 308      1C95
 309 0f84 63C333A9 		.ascii	"c\3033\251VV\222\232\015VE\224z\354,\221:E\252\027\224"
 309      5656929A 
 309      0D564594 
 309      7AEC2C91 
 309      3A45AA17 
 310 0f99 2C788E72 		.ascii	",x\216r\205\020\233"
 310      85109B
 311 0fa0 1333DCA6 		.ascii	"\0233\334\246\277R%Kb(&\374\266N\252C\342\016\010V\011"
 311      BF52254B 
 311      622826FC 
 311      B64EAA43 
 311      E20E0856 
 312 0fb5 A6AC11EE 		.ascii	"\246\254\021\356\220\203U\330k\2625\010A\361'\341\274"
 312      908355D8 
 312      6BB23508 
 312      41F127E1 
 312      BC
 313 0fc6 B5428D54 		.ascii	"\265B\215T\257\240G\255,\315\232H\201\252\271fq\371"
 313      AFA047AD 
 313      2CCD9A48 
 313      81AAB966 
 313      71F9
 314 0fd8 E492C9F5 		.ascii	"\344\222\311\365\250d\2446\\\215\373\344\257KJPq\203"
 314      A864A436 
 314      5C8DFBE4 
 314      AF4B4A50 
 314      7183
 315 0fea 7F9F522B 		.ascii	"\177\237R+\207\243\202\206\033\216\372\220\212\221:"
 315      87A38286 
 315      1B8EFA90 
 315      8A913A
 316 0ff9 94D1AEF1 		.ascii	"\224\321\256\361\253\202Q"
 316      AB8251
 317 1000 59C2BD1C 		.ascii	"Y\302\275\034g\013\310/\202J\375\277\366\015E\230\365"
 317      670BC82F 
 317      824AFDBF 
 317      F60D4598 
 317      F5
 318 1011 68042B41 		.ascii	"h\004+A\226f\242N,(|\254p$\272\037E\367(t\217\346cE"
 318      9666A24E 
 318      2C287CAC 
 318      7024BA1F 
 318      45F72874 
ARM GAS  /tmp/ccgh68Iz.s 			page 25


 319 1029 05E82E44 		.ascii	"\005\350.Dw\021\272\207\243{\004\272\177\205nT\256\010"
 319      7711BA87 
 319      A37B04BA 
 319      7F856E54 
 319      AE08
 320 103b 952B42E5 		.ascii	"\225+B\345\212P\271\341\250\334\360BN\036\301\311\277"
 320      8A50B9E1 
 320      A8DCF042 
 320      4E1EC1C9 
 320      BF
 321 104c E2E4919C 		.ascii	"\342\344\221\234\374('\217\342\344\321\274\\X\200\356"
 321      FC28278F 
 321      E2E4D1BC 
 321      5C5880EE 
 322 105c 42AE5A46 		.ascii	"B\256ZF\217\341Y\265\002\342\326\2075<[\222\3213Z\035"
 322      8FE159B5 
 322      02E2D687 
 322      353C5B92 
 322      D1335A1D 
 323 1070 92644FB0 		.ascii	"\222dO\260J\224\261\332\305\210\224\255\350\375\020"
 323      4A94B1DA 
 323      C58894AD 
 323      E8FD10
 324 107f FD08299F 		.ascii	"\375\010)\237\242u#\364\016\276\350SdiF\014\364\210"
 324      A27523F4 
 324      0EBEE853 
 324      6469460C 
 324      F488
 325 1091 135991D8 		.ascii	"\023Y\221\330L\364\243\336=\320\330\242\247\274rh\016"
 325      4CF4A3DE 
 325      3DD0D8A2 
 325      A7BC7268 
 325      0E
 326 10a2 FA295BAA 		.ascii	"\372)[\252\017+H-\222w\266\022}\372?ks\244YR\215\022"
 326      0F2B482D 
 326      9277B612 
 326      7DFA3F6B 
 326      73A45952 
 327 10b8 1163CF60 		.ascii	"\021c\317`\237\236\215\023|\255P\227gxRu8\206F\252\376"
 327      9F9E8D13 
 327      7CAD5097 
 327      67785275 
 327      388646AA 
 328 10cd 846FE11C 		.ascii	"\204o\341\034\177\2550[\014+\341\232\231\375P\327\214"
 328      7FAD305B 
 328      0C2BE19A 
 328      99FD50D7 
 328      8C
 329 10de CD047FCB 		.ascii	"\315\004\177\313\202$\312\220j\245\03240\316D\245\220"
 329      8224CA90 
 329      6AA51A34 
 329      30CE44A5 
 329      90
 330 10ef C7E3F2FD 		.ascii	"\307\343\362\3750ob5\330\031e\326F\243\325\276\210\346"
 330      306F6235 
 330      D81965D6 
 330      46A3D5BE 
ARM GAS  /tmp/ccgh68Iz.s 			page 26


 330      88E6
 331 1101 A5E8199D 		.ascii	"\245\350\031\235]#\311\336\010x\331\243\256\234V\347"
 331      5D23C9DE 
 331      0878D9A3 
 331      AE9C56E7 
 332 1111 09996CA0 		.ascii	"\011\231l\240\356\267H\005\222,\325\004\221\202\274"
 332      EEB74805 
 332      922CD504 
 332      9182BC
 333 1120 5A961F75 		.ascii	"Z\226\037uZ<\256\012\012\214\037\250\217\033\343\007"
 333      5A3CAE0A 
 333      0A8C1FA8 
 333      8F1BE307 
 334 1130 4E7AF04F 		.ascii	"Nz\360O~\271>\024\021\261Z\375\212\221\232\340v\014"
 334      7EB93E14 
 334      11B15AFD 
 334      8A919AE0 
 334      760C
 335 1142 063A6144 		.ascii	"\006:aD}=\012\013\021\244q\204\203\370\032\223\011\006"
 335      7D3D0A0B 
 335      11A47184 
 335      83F81A93 
 335      0906
 336 1154 C99C5F32 		.ascii	"\311\234_2\271\242\254\002\001h5g\214((\254\307\016"
 336      B9A2AC02 
 336      01683567 
 336      8C2828AC 
 336      C70E
 337 1166 3DB07472 		.ascii	"=\260tr\261P\201\314+F\204J\324kJ\245\031\\I\271gJi"
 337      B15081CC 
 337      2B46844A 
 337      D46B4AA5 
 337      195C49B9 
 338 117d 6539FF44 		.ascii	"e9\377Dq\271gr\001&\205\305\345\374\204\222ro\014\012"
 338      71B96772 
 338      012685C5 
 338      E5FC8492 
 338      726F0C0A 
 339 1191 7AC23382 		.ascii	"z\3023\202\2627\034\253\012\317P\3741\251zF\270&$\325"
 339      B2371CAB 
 339      0ACF50FC 
 339      31A97A46 
 339      B82624D5 
 340 11a5 7B674941 		.ascii	"{gIA%*\017Lr&h\245\321 \204^\344zL\225z\034&\215\206"
 340      252A0F4C 
 340      722668A5 
 340      D120845E 
 340      E47A4C95 
 341 11be F892F242 		.ascii	"\370\222\362Bt\027y\246\026\227\027bR\304\225\226\363"
 341      741779A6 
 341      16971762 
 341      52C49596 
 341      F3
 342 11cf 1528B3A2 		.ascii	"\025(\263\242\274\210/))\317\252,/\253\030\357\2310"
 342      BC882F29 
 342      29CFAA2C 
 342      2FAB18EF 
ARM GAS  /tmp/ccgh68Iz.s 			page 27


 342      9930
 343 11e1 09318334 		.ascii	"\0111\2034\354\307#S8\202\375\022?\242u\312@#\024W\205"
 343      ECC72353 
 343      3882FD12 
 343      3FA275CA 
 343      40231457 
 344 11f6 AB46160C 		.ascii	"\253F\026\014/\030\026dze\241(\245'\221\271\264p\235"
 344      2F181664 
 344      7A65A128 
 344      A52791B9 
 344      B4709D
 345 1209 6B64846B 		.ascii	"kd\204k\302\012\217^\274!\250\224\375\264\030\223\212"
 345      C20A8F5E 
 345      BC21A894 
 345      FDB41893 
 345      8A
 346 121a 91B1B284 		.ascii	"\221\261\262\204\307\221\373$\213\305\224h\255\017\023"
 346      C791FB24 
 346      8BC59468 
 346      AD0F13
 347 1229 C4FC7D46 		.ascii	"\304\374}F&\266\373\304\272H8\024V\346dW\351\211\237"
 347      26B6FBC4 
 347      BA483814 
 347      56E66457 
 347      E9899F
 348 123c 90BF564A 		.ascii	"\220\277VJ\221ZI\026\225:Y\362((\235\227\232\017\340"
 348      915A4916 
 348      953A59F2 
 348      28289D97 
 348      9A0FE0
 349 124f 86F3C8E9 		.ascii	"\206\363\310\351A\264\366\377\000A -L"
 349      41B4F6FF 
 349      0041202D 
 349      4C
 350              		.text
 351              		.section	.gnu.lto_.symtab.dd35a14c7d5966d0,"",%progbits
 352 0000 68696836 		.ascii	"hih6030_init\000\000\000\000\000\000\000\000\000\000"
 352      3033305F 
 352      696E6974 
 352      00000000 
 352      00000000 
 353 0016 00001102 		.ascii	"\000\000\021\002\000\000hih6030_stop\000\000\000\000"
 353      00006869 
 353      68363033 
 353      305F7374 
 353      6F700000 
 354 002c 00000000 		.ascii	"\000\000\000\000\000\000\000\000&\002\000\000hih603"
 354      00000000 
 354      26020000 
 354      68696836 
 354      3033
 355 003e 305F7265 		.ascii	"0_readHumidity\000\000\000\000\000\000\000\000\000\000"
 355      61644875 
 355      6D696469 
 355      74790000 
 355      00000000 
 356 0056 00003202 		.ascii	"\000\0002\002\000\000hih6030_readTemperature\000\000"
ARM GAS  /tmp/ccgh68Iz.s 			page 28


 356      00006869 
 356      68363033 
 356      305F7265 
 356      61645465 
 357 0075 00000000 		.ascii	"\000\000\000\000\000\000\000\000\000\000;\002\000\000"
 357      00000000 
 357      00003B02 
 357      0000
 358 0083 49324353 		.ascii	"I2CSensor_init\000\000\002\000\000\000\000\000\000\000"
 358      656E736F 
 358      725F696E 
 358      69740000 
 358      02000000 
 359 009b 00004102 		.ascii	"\000\000A\002\000\000I2CSensor_stop\000\000\002\000"
 359      00004932 
 359      4353656E 
 359      736F725F 
 359      73746F70 
 360 00b3 00000000 		.ascii	"\000\000\000\000\000\000\000\000I\002\000\000"
 360      00000000 
 360      49020000 
 361              		.text
 362              		.section	.gnu.lto_.opts,"",%progbits
 363 0000 272D6D63 		.ascii	"'-mcpu=cortex-m4' '-mfloat-abi=hard' '-mfpu=fpv4-sp"
 363      70753D63 
 363      6F727465 
 363      782D6D34 
 363      2720272D 
 364 0033 2D643136 		.ascii	"-d16' '-mno-thumb-interwork' '-mthumb' '-O2' '-fomi"
 364      2720272D 
 364      6D6E6F2D 
 364      7468756D 
 364      622D696E 
 365 0066 742D6672 		.ascii	"t-frame-pointer' '-falign-functions=16' '-ffunction"
 365      616D652D 
 365      706F696E 
 365      74657227 
 365      20272D66 
 366 0099 2D736563 		.ascii	"-sections' '-fdata-sections' '-fno-common' '-flto' "
 366      74696F6E 
 366      73272027 
 366      2D666461 
 366      74612D73 
 367 00cc 272D6673 		.ascii	"'-fsingle-precision-constant'\000"
 367      696E676C 
 367      652D7072 
 367      65636973 
 367      696F6E2D 
 368              		.text
 369              		.section	.text.hih6030_init,"ax",%progbits
 370              		.align	2
 371              		.p2align 4,,15
 372              		.global	hih6030_init
 373              		.thumb
 374              		.thumb_func
 375              		.type	hih6030_init, %function
 376              	hih6030_init:
ARM GAS  /tmp/ccgh68Iz.s 			page 29


 377              		@ args = 0, pretend = 0, frame = 0
 378              		@ frame_needed = 0, uses_anonymous_args = 0
 379              		@ link register save eliminated.
 380 0000 2823     		movs	r3, #40
 381 0002 FFF7FEBF 		b	I2CSensor_init
 382              		.size	hih6030_init, .-hih6030_init
 383 0006 00BFAFF3 		.section	.text.hih6030_stop,"ax",%progbits
 383      0080AFF3 
 383      0080
 384              		.align	2
 385              		.p2align 4,,15
 386              		.global	hih6030_stop
 387              		.thumb
 388              		.thumb_func
 389              		.type	hih6030_stop, %function
 390              	hih6030_stop:
 391              		@ args = 0, pretend = 0, frame = 0
 392              		@ frame_needed = 0, uses_anonymous_args = 0
 393              		@ link register save eliminated.
 394 0000 FFF7FEBF 		b	I2CSensor_stop
 395              		.size	hih6030_stop, .-hih6030_stop
 396 0004 AFF30080 		.section	.text.hih6030_readHumidity,"ax",%progbits
 396      AFF30080 
 396      AFF30080 
 397              		.align	2
 398              		.p2align 4,,15
 399              		.global	hih6030_readHumidity
 400              		.thumb
 401              		.thumb_func
 402              		.type	hih6030_readHumidity, %function
 403              	hih6030_readHumidity:
 404              		@ args = 0, pretend = 0, frame = 0
 405              		@ frame_needed = 0, uses_anonymous_args = 0
 406              		@ link register save eliminated.
 407 0000 0020     		movs	r0, #0
 408 0002 7047     		bx	lr
 409              		.size	hih6030_readHumidity, .-hih6030_readHumidity
 410 0004 AFF30080 		.section	.text.hih6030_readTemperature,"ax",%progbits
 410      AFF30080 
 410      AFF30080 
 411              		.align	2
 412              		.p2align 4,,15
 413              		.global	hih6030_readTemperature
 414              		.thumb
 415              		.thumb_func
 416              		.type	hih6030_readTemperature, %function
 417              	hih6030_readTemperature:
 418              		@ args = 0, pretend = 0, frame = 0
 419              		@ frame_needed = 0, uses_anonymous_args = 0
 420              		@ link register save eliminated.
 421 0000 0020     		movs	r0, #0
 422 0002 7047     		bx	lr
 423              		.size	hih6030_readTemperature, .-hih6030_readTemperature
 424              		.comm	__gnu_lto_v1,1,1
 425 0004 AFF30080 		.ident	"GCC: (GNU Tools for ARM Embedded Processors) 4.8.4 20140526 (release) [ARM/embedded-4_8-br
 425      AFF30080 
 425      AFF30080 
ARM GAS  /tmp/ccgh68Iz.s 			page 30


ARM GAS  /tmp/ccgh68Iz.s 			page 31

