ARM GAS  /tmp/ccLBdf4r.s 			page 1


   1              		.syntax unified
   2              		.cpu cortex-m4
   3              		.eabi_attribute 27, 3
   4              		.eabi_attribute 28, 1
   5              		.fpu fpv4-sp-d16
   6              		.eabi_attribute 20, 1
   7              		.eabi_attribute 21, 1
   8              		.eabi_attribute 23, 3
   9              		.eabi_attribute 24, 1
  10              		.eabi_attribute 25, 1
  11              		.eabi_attribute 26, 1
  12              		.eabi_attribute 30, 2
  13              		.eabi_attribute 34, 1
  14              		.eabi_attribute 18, 4
  15              		.thumb
  16              		.file	"i2c_sensor.c"
  17              		.section	.gnu.lto_.jmpfuncs.541010e2b0acc6d6,"",%progbits
  18 0000 789C6362 		.ascii	"x\234cb`b\300\006\324\24143\003?##\223<#\003\003;\204"
  18      6062C006 
  18      D4A13433 
  18      033F2323 
  18      933C2303 
  19 0017 CBC05806 		.ascii	"\313\300X\006e0\227A\224\000\345\030\000\037\231\001"
  19      65309741 
  19      9400E518 
  19      001F9901 
  20 0027 60       		.ascii	"`"
  21              		.text
  22              		.section	.gnu.lto_.inline.541010e2b0acc6d6,"",%progbits
  23 0000 789C6362 		.ascii	"x\234cb`b\300\006\326Bif\006\0066VF\006&\346\035\342"
  23      6062C006 
  23      D6426966 
  23      06063656 
  23      460626E6 
  24 0016 0C9C37CC 		.ascii	"\014\2347\314\300\212\031\031X\230\201B\214/\330\031"
  24      C08A1919 
  24      58988142 
  24      8C2FD819 
  25 0026 D83BD4C1 		.ascii	"\330;\324\301BL\014\022z\214l\014\031\021\214\231\214"
  25      424C0C12 
  25      7A8C6C0C 
  25      19118C99 
  25      8C
  26 0037 105DE908 		.ascii	"\020]\351\010&#\234T`\002\011\261\200\010\016 f[ \317"
  26      26239C54 
  26      600209B1 
  26      80080E20 
  26      665B20CF 
  27 004b C4003446 		.ascii	"\304\0004F\200\211\201\265C]\200\201\261\233]\201\205"
  27      808981B5 
  27      435D8081 
  27      B19B5D81 
  27      85
  28 005c 094231B0 		.ascii	"\011B1\260\254\221\001\262A$\330\002n\006\026\006\306"
  28      AC9101B2 
  28      4124D802 
  28      6E061606 
ARM GAS  /tmp/ccLBdf4r.s 			page 2


  28      C6
  29 006d 097E9C42 		.ascii	"\011~\234B@\232}\202\0372\204\3111\000\000\360\371\024"
  29      409A7D82 
  29      1F3284C9 
  29      310000F0 
  29      F914
  30 007f FA       		.ascii	"\372"
  31              		.text
  32              		.section	.gnu.lto_.pureconst.541010e2b0acc6d6,"",%progbits
  33 0000 789C6362 		.ascii	"x\234cb`b`g\200\000f\006)F)&I\000\001\312\000_"
  33      60626067 
  33      80006606 
  33      29462926 
  33      490001CA 
  34              		.text
  35              		.section	.gnu.lto_I2CSensor_init.541010e2b0acc6d6,"",%progbits
  36 0000 789C6362 		.ascii	"x\234cb`b@\007\222@,\304\310\300 \016\244\031\231\031"
  36      60624007 
  36      92402CC4 
  36      C8C0200E 
  36      A4199919 
  37 0014 1899269C 		.ascii	"\030\231&\234c`h\344`bd\0041\030\030\031\352\231\030"
  37      636068E4 
  37      60626404 
  37      31181819 
  37      EA9918
  38 0027 EB2319C1 		.ascii	"\353#\031\301j\3273\035x\360\377\377\272m-\277\0309"
  38      6AD7331D 
  38      78F0FFFF 
  38      BA6D2DBF 
  38      1839
  39 0039 99187319 		.ascii	"\231\030s\031\031\230\201\004#+\220`b\007\022\314@%"
  39      19988104 
  39      232B9060 
  39      620712CC 
  39      4025
  40 004b AC0C2D0D 		.ascii	"\254\014-\015\015\023\024\030\030\222\301ZB\200$\310"
  40      0D131418 
  40      1892C15A 
  40      428024C8 
  41 005b 9C504626 		.ascii	"\234PF&\020\315|\226\241\351\364\214\343\"\211\214\013"
  41      10CD7C96 
  41      A1E9F48C 
  41      E322898C 
  41      0B
  42 006c 195919B4 		.ascii	"\031Y\031\264\031V5\000\201y&#\303l\206Y\214\231\214"
  42      19563500 
  42      81792623 
  42      C36C8659 
  42      8C998C
  43 007f 8CE98C4C 		.ascii	"\214\351\214L\021@\032\342\312$\210\245\014\351 \203"
  43      11401AE2 
  43      CA2488A5 
  43      0CE92083 
  44 008f 411A771C 		.ascii	"A\032w\034\027C\327\310\214]##T#+D\343\015L\215,\330"
  44      1743D7C8 
  44      8C5D2323 
ARM GAS  /tmp/ccLBdf4r.s 			page 3


  44      54232B44 
  44      E30D4C8D 
  45 00a5 35324135 		.ascii	"52A5\26230\\dh|0\237\011\242\017\006B\200&\003\275\001"
  45      B233305C 
  45      64687C30 
  45      9F09A20F 
  45      06428026 
  46 00bc 5225EA52 		.ascii	"R%\352R\224Y\226ZT\254\237i\224\034_\234\232W\234_\244"
  46      9459965A 
  46      54AC9F69 
  46      941C5F9C 
  46      9A579C5F 
  47 00d1 97CC0000 		.ascii	"\227\314\000\000\236\266D\272"
  47      9EB644BA 
  48              		.text
  49              		.section	.gnu.lto_I2CSensor_stop.541010e2b0acc6d6,"",%progbits
  50 0000 789C6362 		.ascii	"x\234cb`b@\007\222@<\013\210\305\201\230\221\231\201"
  50      60624007 
  50      92403C0B 
  50      88C58198 
  50      919981
  51 0013 9169C239 		.ascii	"\221i\3029\006\206F\016&FF\020\203\201\221\241\236\211"
  51      0686460E 
  51      26464610 
  51      838191A1 
  51      9E89
  52 0025 B13E9211 		.ascii	"\261>\222\021\254v=\323\201\007\377\377\257\373\320"
  52      AC763DD3 
  52      8107FFFF 
  52      AFFBD0
  53 0034 72888585 		.ascii	"r\210\205\205\2111\027,\310\312\320\322\3200A\201\201"
  53      8931172C 
  53      C8CAD0D2 
  53      D0304181 
  53      81
  54 0045 2119CC0D 		.ascii	"!\031\314\015\001\222 \215\241\214L \232\371,C\323\216"
  54      0192208D 
  54      A18C4C20 
  54      9AF92C43 
  54      D38E
  55 0057 1BE74413 		.ascii	"\033\347D\023\031\0272\2622h3\254j\000\002\363LF\206"
  55      191732B2 
  55      326833AC 
  55      6A0002F3 
  55      4C4686
  56 006a D90CB318 		.ascii	"\331\014\263\0303\031\031\323\031\231\"\2004\304YI\020"
  56      331919D3 
  56      19992280 
  56      34C45949 
  56      10
  57 007b 5B184022 		.ascii	"[\030@\"`\306E\206\306\007\373\271 zA\202\3140G\207"
  57      60C64586 
  57      C607FBB9 
  57      207A4182 
  57      CC304787 
  58 008f 3032824C 		.ascii	"02\202L\007i\023u)\312,K-*\326\3174J\216/N\315+\316"
  58      07691375 
ARM GAS  /tmp/ccLBdf4r.s 			page 4


  58      29CA2C4B 
  58      2D2AD6CF 
  58      344A8E2F 
  59 00a7 2FD24B66 		.ascii	"/\322Kf\000\000\224\371-\222"
  59      000094F9 
  59      2D92
  60              		.text
  61              		.section	.gnu.lto_I2CSensor_transact.541010e2b0acc6d6,"",%progbits
  62 0000 789CA553 		.ascii	"x\234\245S\277k\024Q\020\236\357\275\267\233\333\313"
  62      BF6B1451 
  62      109EEFBD 
  62      B79BDBCB 
  63 0010 E5F68E9C 		.ascii	"\345\366\216\234\242\026\032,5(hkigk@\005\221s\011\313"
  63      A2161A2C 
  63      3528686B 
  63      69676B40 
  63      05917309 
  64 0025 162ADE46 		.ascii	"\026*\336F\033\213{\027O\260\210p\235r\212x\004l$\330"
  64      1B8B7B17 
  64      4FB08870 
  64      9D728A78 
  64      046C24D8 
  65 0039 5A5E2501 		.ascii	"Z^%\001\177!\026\301h\221?@,\254D\304u\346\355n~\030"
  65      7F2116C1 
  65      68913F40 
  65      2CAC44C4 
  65      75E6ED6E 
  66 004f AD7CB0F3 		.ascii	"\255|\260\363f\347\3157\3377\263o\025)\372s\235\344"
  66      66E7CD37 
  66      DF37B36F 
  66      1529FA73 
  66      9DE4
  67 0061 E78C263A 		.ascii	"\347\214&:\310;<\202\032\274%\352U\224\322\337^\022"
  67      C83B3C82 
  67      1ABC25EA 
  67      5594D2DF 
  67      5E12
  68 0073 D9AA793C 		.ascii	"\331\252y<A\266\246a\362\270\001\304!PWi\203\356yH\021"
  68      41B6A661 
  68      F2B801C4 
  68      21505769 
  68      83EE7948 
  69 0088 1CA691B5 		.ascii	"\034\246\221\265\203\215;\303\245\375\366\311\342\300"
  69      838D3BC3 
  69      A5FDF6C9 
  69      E2C0
  70 0096 FECA3224 		.ascii	"\376\3122$`\272}\240\010t\216_0\3436ev\362?W\343\215"
  70      60BA7DA0 
  70      08748E5F 
  70      30E33665 
  70      76F23F57 
  71 00ac 2C7BFD6C 		.ascii	",{\375lpj/\210!\006W@\036{\332gc*b\0026^\225\215?\311"
  71      706A2F88 
  71      21065740 
  71      1E7BDA67 
  71      632A6202 
  72 00c6 A7A8B137 		.ascii	"\247\250\26171\305\236\252\213\027\262\2514\370U7\331"
ARM GAS  /tmp/ccLBdf4r.s 			page 5


  72      31C59EAA 
  72      8B17B2A9 
  72      34F85537 
  72      D9
  73 00d7 98696A63 		.ascii	"\230ijc\304\202Z\202d\002\217\372,m\206D\007\257\263"
  73      C4825A82 
  73      64028FFA 
  73      2C6D8644 
  73      07AFB3
  74 00ea 6CA58339 		.ascii	"l\245\2039(\331\365\033Z\\\177q?lc\231\273\217\341\035"
  74      28D9F51B 
  74      5A5C7F71 
  74      3F6C6399 
  74      BB8FE11D 
  75 00fe A5230982 		.ascii	"\245#\011\202\2074d\255\325\030F4O:\245\227Qj^\245\376"
  75      873464AD 
  75      D5184634 
  75      4F3AA597 
  75      516A5EA5 
  76 0113 97DE1644 		.ascii	"\227\336\026DR\202\355=\315A\023O\317\325\376\276\026"
  76      5282ED3D 
  76      CD41134F 
  76      CFD5FEBE 
  76      16
  77 0124 160A7259 		.ascii	"\026\012rYD9\216W\014\337\261\031f\353Yk/\356f,)\337"
  77      44398E57 
  77      0CDFB119 
  77      66EB596B 
  77      2FEE662C 
  78 013a 517F7CA8 		.ascii	"Q\177|\250\215\247\016x\213~\330\273\266\221\240\026"
  78      8DA70E78 
  78      8B7ED8BB 
  78      B691A016 
  79 014a 15095C29 		.ascii	"\025\011\\)\301\024\221\020>X\237\315\023cT\266\227"
  79      C1149110 
  79      3E589FCD 
  79      136354B6 
  79      97
  80 015b 1F7FB8FE 		.ascii	"\037\177\270\376\357\372\002\\=P\342\002\207\253\377"
  80      EFFA025C 
  80      3D50E202 
  80      87ABFF
  81 016a 7D086A0B 		.ascii	"}\010j\013\362\365\366\362+\257\004q^\220Gu\031\252"
  81      F2F5F6F2 
  81      2BAF0471 
  81      5E904775 
  81      19AA
  82 017c C582DA11 		.ascii	"\305\202\332\021\252\307\205\316\013e$tda!rm\244vS\352"
  82      AAC785CE 
  82      0B652474 
  82      64612172 
  82      6DA47653 
  83 0191 CD290CED 		.ascii	"\315)\014\355\322=\277DNo\016\242\021\025\262\270g\247"
  83      D23DBF44 
  83      4E6F0EA2 
  83      1115B2B8 
  83      67A7
ARM GAS  /tmp/ccLBdf4r.s 			page 6


  84 01a3 A4E1C89B 		.ascii	"\244\341\310\233\216/L\320,F\363),\261\255\377\236\274"
  84      8E2F4CD0 
  84      2C46F329 
  84      2CB1ADFF 
  84      9EBC
  85 01b5 2E085B6E 		.ascii	".\010[n\362\371g7\356J\275\347\377DN\\\211\217\004V"
  85      F2F96737 
  85      EE4ABDE7 
  85      FF444E5C 
  85      898F0456 
  86 01c9 AA3FAFF8 		.ascii	"\252?\257\370R\235\036e\305BW\375\\\201\334G\010H\344"
  86      529D1E65 
  86      C54257FD 
  86      5C81DC47 
  86      0848E4
  87 01dc EF39DD49 		.ascii	"\3579\335In\316w\322\343\311\211\350R:\1775\275\326"
  87      6ECE77D2 
  87      E3C989E8 
  87      523A7F35 
  87      BDD6
  88 01ee 3916919F 		.ascii	"9\026\221\237.\264\027n\244\277\001\035\275\301{"
  88      2EB4176E 
  88      A4BF011D 
  88      BDC17B
  89              		.text
  90              		.section	.gnu.lto_.symbol_nodes.541010e2b0acc6d6,"",%progbits
  91 0000 789C4DC7 		.ascii	"x\234M\3071\022@0\030D\341\3757\3115\334\321\0116D\241"
  91      31124030 
  91      1844E1FD 
  91      37C935DC 
  91      D1093644 
  92 0015 74029731 		.ascii	"t\002\2271C\025\227\320*\365\230a\304k\336|\004Q\343"
  92      431597D0 
  92      2AF59861 
  92      C46BDE7C 
  92      0451E3
  93 0028 8DA70918 		.ascii	"\215\247\011\030V@\032{c\244\354\307\206b\241u\224{"
  93      56401A7B 
  93      63A4ECC7 
  93      8662A175 
  93      947B
  94 003a 18A359A2 		.ascii	"\030\243Y\242|QK\205O\216\001\333~\334\367\230\346\\"
  94      7C514B85 
  94      4F8E01DB 
  94      7EDCF798 
  94      E65C
  95 004c 393AA425 		.ascii	"9:\244%W\270\000\241:!\307"
  95      57B800A1 
  95      3A21C7
  96              		.text
  97              		.section	.gnu.lto_.refs.541010e2b0acc6d6,"",%progbits
  98 0000 789C6362 		.ascii	"x\234cb`b`d\200\002\000\000F\000\006"
  98      60626064 
  98      80020000 
  98      460006
  99              		.text
 100              		.section	.gnu.lto_.decls.541010e2b0acc6d6,"",%progbits
ARM GAS  /tmp/ccLBdf4r.s 			page 7


 101 0000 789CBD5B 		.ascii	"x\234\275[{t\024U\232\257G\247;Mb\2108\2720\343\036"
 101      7B741455 
 101      9AAF47A7 
 101      3B4D6288 
 101      38BA30E3 
 102 0015 E239337B 		.ascii	"\34293{\330\331\221<`\004\326U\211I\030\230\345\341"
 102      D8D9913C 
 102      6004D655 
 102      89491898 
 102      E5E1
 103 0027 498207FE 		.ascii	"I\202\007\376\330\323\026\335\005\3515I\307\352\012"
 103      D8D316DD 
 103      05E93549 
 103      C7EA0A
 104 0036 84F967CA 		.ascii	"\204\371g\312\004\202\200 \217 \017\231\020\004\024"
 104      04828020 
 104      8F200F99 
 104      100414
 105 0045 6607E40D 		.ascii	"f\007\344\015a\300mT\3449\341% \340\201\326\005AT\020"
 105      61C06D54 
 105      E439E125 
 105      20E081D6 
 105      05415410 
 106 0059 914744C8 		.ascii	"\221GD\310~\367\253\252\356[\225\256\356\252\350L\237"
 106      7EF7ABAA 
 106      EE5B95AE 
 106      EEAAE84C 
 106      9F
 107 006a DCDB5537 		.ascii	"\334\333U7\367\376\356\367\370\335\373\335{\253\232"
 107      F7FEEEF7 
 107      F8DDFBDD 
 107      7BAB9A
 108 0079 6338A692 		.ascii	"c8\246\222e\230\016\370\254)d\230?\2443\214\213a\230"
 108      65980EF8 
 108      AC296498 
 108      3FA4338C 
 108      8B6198
 109 008c A7214131 		.ascii	"\247!A1\263\234Q?nHk!=\3061\314\343\220\006C*\206T\306"
 109      B39C513F 
 109      6E486B21 
 109      3DC631CC 
 109      E3900643 
 110 00a4 319D3EA4 		.ascii	"1\235>\244^\032\244\335\2206@Z\017\251\025\322\203P"
 110      5E1AA4DD 
 110      9036405A 
 110      0FA915D2 
 110      8350
 111 00b6 9787EF08 		.ascii	"\227\207\357\010\244\355\220\2629\265\017R\237\364\331"
 111      A4ED90B2 
 111      39B50F52 
 111      9FF4D9
 112 00c5 0BEE7F01 		.ascii	"\013\356\177\001\351\237!\3656\341\222~]\232<:f#\253"
 112      E99F21F5 
 112      36E1927E 
 112      5D9A3C3A 
 112      6623AB
 113 00d8 B6DFAAC9 		.ascii	"\266\337\252\311\372\230\206\367\257\246\266D\336\036"
ARM GAS  /tmp/ccLBdf4r.s 			page 8


 113      FA9886F7 
 113      AFA6B644 
 113      DE1E
 114 00e6 5AFD2CF8 		.ascii	"Z\375,\370\316\204\264J\223\217\324\3475y=&\374\321"
 114      CE84B44A 
 114      938FD4E7 
 114      35793D26 
 114      FCD1
 115 00f8 D0AE908B 		.ascii	"\320\256\220\213\313\376<\244\022M\216\255&=\\Z?e\232"
 115      CBFE3CA4 
 115      124D8EAD 
 115      263D5C5A 
 115      3F659A
 116 010b 5D887D08 		.ascii	"]\210}\010\346\023\360=\010\322S\220\006@z\322$\233"
 116      E613F03D 
 116      08D25390 
 116      06407AD2 
 116      249B
 117 011d 87695494 		.ascii	"\207iT\224z%:\265\276\347\"\220m\014+\260Y^&\035/2\275"
 117      7A253AB5 
 117      BEE72290 
 117      6D0C2BB0 
 117      595E261D 
 118 0134 28DEAF98 		.ascii	"(\336\257\230\225\2122':u\032\233#\260\313Y\017x\254"
 118      958A3227 
 118      3A751A9B 
 118      23B0CB59 
 118      0F78AC
 119 0147 27CBFC9A 		.ascii	"'\313\374\232Y\243@14~\244\263\007\354\3002\214\300"
 119      59A34031 
 119      347EA4B3 
 119      07ECC032 
 119      8CC0
 120 0159 AE023481 		.ascii	"\256\0024\201]\311\376Z\355D\211lpqj)\243\225'\370\360"
 120      5DC9FE5A 
 120      ED44896C 
 120      70716A29 
 120      A39527F8 
 121 016e 2000FCE5 		.ascii	" \000\374\345\262\210\346\362\306\213\006\306\212X\252"
 121      B288E6F2 
 121      C68B06C6 
 121      8A58AA
 122 017d E253B152 		.ascii	"\342S\261R]wr\313z\343\027\035\254\241\003Z.\201}\213"
 122      5D7772CB 
 122      7AE3171D 
 122      ACA1035A 
 122      2E817D8B 
 123 0191 FD15E46F 		.ascii	"\375\025\344o\263|\302f\275\231f\245%\032]\3208\313"
 123      B37CC266 
 123      BD9966A5 
 123      251A5DD0 
 123      38CB
 124 01a3 BD58894C 		.ascii	"\275X\211LQ::\376\310<\302,\000]\224\0260\001+\013\354"
 124      513A3AFE 
 124      C83CC22C 
 124      005D9416 
 124      30012B0B 
ARM GAS  /tmp/ccLBdf4r.s 			page 9


 125 01b8 D30FEBFA 		.ascii	"\323\017\353\372\347\350\372\273\264~\326\261\217\304"
 125      E7E8FABB 
 125      B47ED6B1 
 125      8FC4
 126 01c6 5562980C 		.ascii	"Ub\230\014f\006\261\0324\034\272/\253\0073\227\240\344"
 126      6606B11A 
 126      341CBA2F 
 126      AB073397 
 126      A0E4
 127 01d8 EC8BDBEF 		.ascii	"\354\213\333\357\005\275}&\345\226\231\304-\033\330"
 127      05BD7D26 
 127      E59699C4 
 127      2D1BD8
 128 01e7 1E003186 		.ascii	"\036\0001\2065X-\025\002\221`344x`W G-M\342\201\307"
 128      35582D15 
 128      02916033 
 128      34347860 
 128      5720472D 
 129 01ff 98169033 		.ascii	"\230\026\2203rts+\2534f\352\244\010\260\032^\"ok\227"
 129      7274732B 
 129      AB3466EA 
 129      A408B01A 
 129      5E226F6B 
 130 0214 71FB6779 		.ascii	"q\373gyMh\307\277\333N\320\274\314+\310\234UJ*Bn\231"
 130      4D68C7BF 
 130      DB4ED0BC 
 130      CC2BC89C 
 130      554A2A42 
 131 022a B6F6DF14 		.ascii	"\266\366\337\024%]`[Y\342\332\327X\243\366\366\201\316"
 131      255D605B 
 131      59E2DAD7 
 131      58A3F6F6 
 131      81CE
 132 023c CF681E88 		.ascii	"\317h\036\210@;\021\350\220\011Hs:E\017\270\327+\244"
 132      403B11E8 
 132      90094873 
 132      3A450FB8 
 132      D72BA4
 133 024f A4528ABA 		.ascii	"\244R\212\272\034s\222uj\267t\332n\321=3\232z)-\357"
 133      1C739275 
 133      6AB774DA 
 133      6ED13D33 
 133      9A7A292D 
 134 0264 B1A9C813 		.ascii	"\261\251\310\023\341u\260\201q\325\357\265\235x\213"
 134      E175B081 
 134      71D5EFB5 
 134      9D788B
 135 0273 6D009E0A 		.ascii	"m\000\236\012\354{H\241\025\\J\016\031\201\004\366\003"
 135      EC7B48A1 
 135      155C4A0E 
 135      198104F6 
 135      03
 136 0284 96837C8F 		.ascii	"\226\203|\217\231H\327\227d*.\265<5\225\332\3174\377"
 136      9948D797 
 136      642A2EB5 
 136      3C3595DA 
 136      CF34FF
ARM GAS  /tmp/ccLBdf4r.s 			page 10


 137 0297 93128DB0 		.ascii	"\223\022\215\260\366\247\243\277\036?\225\217N\333\207"
 137      F6A7A3BF 
 137      1E3F958F 
 137      4EDB87
 138 02a6 E48B9AE4 		.ascii	"\344\213\232\344\2669\001\0354O@G\033\273\023\251\017"
 138      B639011D 
 138      344F4047 
 138      1BBB13A9 
 138      0F
 139 02b7 DA9A82BE 		.ascii	"\332\232\202\276\344:\317A\267\270\204\223P\007g\234"
 139      E43ACF41 
 139      B7B88493 
 139      5007679C 
 140 02c7 85B4E2E9 		.ascii	"\205\264\342\351|\254\230\247\212\027\306\213]T\361"
 140      7CAC98A7 
 140      8A17C68B 
 140      5D54F1
 141 02d6 AA78711A 		.ascii	"\252xq\032E\211\244\374;HMe\207p*\373\233\305T&\260"
 141      4589A4FC 
 141      3B484D65 
 141      87702AFB 
 141      9BC55426 
 142 02eb DB629EEC 		.ascii	"\333b\236\354\322\020\216\336\233}\341sv~\203\262//"
 142      D2108EDE 
 142      9B7DE173 
 142      767E83B2 
 142      2F2F
 143 02fd 1119A10A 		.ascii	"\021\031\241\012\233|2\213\354:\303\346\244\232\265"
 143      9B7C328B 
 143      EC3AC3E6 
 143      A49AB5
 144 030c 04F61350 		.ascii	"\004\366\023P\303\316\334v\316L\311?\235AJ\236\263E"
 144      C3CEDC76 
 144      CE4CC93F 
 144      9D414A9E 
 144      B345
 145 031e C90D6716 		.ascii	"\311\015g\0268\243d\344\372)2\025\177\212|\\\317w\211"
 145      38A364E4 
 145      FA293215 
 145      7F8A7C5C 
 145      CF7789
 146 0331 8F17CC7C 		.ascii	"\217\027\314|<\275\020\371x\301\026\037w\362\024\367"
 146      3CBD10F9 
 146      78C1161F 
 146      77F214F7 
 147 0341 B4B2BD7C 		.ascii	"\264\262\275|B\342\2355\021\317\016\225.PT\272\210T"
 147      42E29D35 
 147      11CF0E95 
 147      2E5054BA 
 147      8854
 148 0353 FADC824A 		.ascii	"\372\334\202J\034\3635\352\177\256\313\321`\323\231"
 148      1CF335EA 
 148      7FAECBD1 
 148      60D399
 149 0362 0538AB69 		.ascii	"\0058\253i\263\270J\244X]C \215\205\203=\273\331z\234"
 149      B3B84AA4 
 149      585D4320 
ARM GAS  /tmp/ccLBdf4r.s 			page 11


 149      8D85833D 
 149      BBD97A9C 
 150 0376 CAAEE23C 		.ascii	"\312\256\342<~\223O\030\020l@\235\237\261s\020\316-"
 150      7E934F18 
 150      106C409D 
 150      9FB17310 
 150      CE2D
 151 0388 D711E83E 		.ascii	"\327\021\350>o\016\010\036S@\360\030'y\2177~A\026\266"
 151      6F0E081E 
 151      5340F018 
 151      27798F37 
 151      7E4116B6 
 152 039c DD19A7D5 		.ascii	"\335\031\247\325afp\231\014h\0204\221\001sh\003\302"
 152      61667099 
 152      0C681034 
 152      91017368 
 152      03C2
 153 03ae 586CDBCA 		.ascii	"Xl\333\312~[\257,\312\263O\340\371g\010\201o!\201\027"
 153      7E5BAF2C 
 153      CAB34FE0 
 153      F9670881 
 153      6F218117 
 154 03c2 B8BA44E0 		.ascii	"\270\272D\340v3\201\357\252\004n\267E\340\225\256\316"
 154      763381EF 
 154      AA046EB7 
 154      45E095AE 
 154      CE
 155 03d3 04DEE44A 		.ascii	"\004\336\344JH\340=.\347\004n\247\010\374=\022\370\256"
 155      48E03D2E 
 155      E7046EA7 
 155      08FC3D12 
 155      F8AE
 156 03e5 2581CF98 		.ascii	"%\201\317\230\355\237\210\300\351\011\010L\365\247\366"
 156      ED9F88C0 
 156      E909084C 
 156      F5A7F6
 157 03f4 741E7B8A 		.ascii	"t\036{\212\262\217A\3765\3467!\217}8\346\242\313\314"
 157      B28F41FE 
 157      35E63721 
 157      8F7D38E6 
 157      A2CBCC
 158 0407 2F7586A2 		.ascii	"/u\206\242\220\342S\031\223\014\313j\235y\006V\007\261"
 158      90E25319 
 158      930CCB6A 
 158      9D790656 
 158      07B1
 159 0419 EEAE6177 		.ascii	"\356\256aw{\272\312\254\310\342\263\315\316\206f\344"
 159      7BBACAAC 
 159      C8E2B3CD 
 159      CE8666E4 
 160 0429 7F173E4C 		.ascii	"\177\027>L80\225#.\274\325I\333\253\346\365\225\235"
 160      38309523 
 160      2EBCD549 
 160      DBABE6F5 
 160      959D
 161 043b F1F1729A 		.ascii	"\361\361r\232\015-\022\371\007\265P\"\233\3166\263D"
 161      0D2D12F9 
ARM GAS  /tmp/ccLBdf4r.s 			page 12


 161      07B55022 
 161      9BCE36B3 
 161      44
 162 044c 8B048144 		.ascii	"\213\004\201Da\365\366\3311\035\242\033\256\\\376\\"
 162      61F5F6D9 
 162      311DA21B 
 162      AE5CFE5C 
 163 045c 9B5E6670 		.ascii	"\233^fpd\245\2643-\345J\311\010\3041\037`\223Y\234)"
 163      64A5B433 
 163      2DE54AC9 
 163      08C4311F 
 163      6093599C 
 164 0471 2CDD1472 		.ascii	",\335\024r\324\322TAI\211\334\276\350U\346e&\350j0\255"
 164      D4D25441 
 164      4989DCBE 
 164      E855E665 
 164      26E86A30 
 165 0486 B23E235E 		.ascii	"\262>#^\215\366\332\257(\331\002;\027%np'\224\270e\260"
 165      8DF6DAAF 
 165      28D9023B 
 165      17256E70 
 165      2794B865 
 166 049b 150EC7CC 		.ascii	"\025\016\307\314\307&M&\211\243\213o\354\373\371\"D"
 166      C7264D26 
 166      89A38B6F 
 166      ECFBF922 
 166      44
 167 04ac 6EB22176 		.ascii	"n\262!v}\344D\343\237l\255Q[\\z\367\305q56_\215\364"
 167      7DE444E3 
 167      9F6CAD51 
 167      5B5C7AF7 
 167      C5713536 
 168 04c3 C4D97831 		.ascii	"\304\331x1jq:\261\026\3260\034\363\0316Y\332Y\213\350"
 168      6A713AB1 
 168      16D6301C 
 168      F3193659 
 168      DA598BE8 
 169 04d7 2F542D96 		.ascii	"/T-\226\332\322\342\256\246\205\300.\3422\000\366\253"
 169      DAD2E2AE 
 169      A685C02E 
 169      E23200F6 
 169      AB
 170 04e8 18ACDD81 		.ascii	"\030\254\335\201d\304\273\377a\346\034A\007\273\341"
 170      64C4BBFF 
 170      61E61C41 
 170      07BBE1
 171 04f7 182CC700 		.ascii	"\030,\307\0006\177\357R\207\001\363\346\355\313\275"
 171      367FEF52 
 171      8701F3E6 
 171      EDCBBD
 172 0506 76A1FA2B 		.ascii	"v\241\372+q`\276\357\371I\006\346A\217\015E\254\007"
 172      7160BEEF 
 172      F94906E6 
 172      418F0D45 
 172      AC07
 173 0518 2678E5C8 		.ascii	"&x\345\310\243\255\033\025e\272[\347\247\333J\021\216"
 173      A3AD1B15 
ARM GAS  /tmp/ccLBdf4r.s 			page 13


 173      65BA5BE7 
 173      A7DB4A11 
 173      8E
 174 0529 39869DAD 		.ascii	"9\206\235\2551{\366\346\375#\217\253\236]c\313\263\333"
 174      317BF6E6 
 174      FD238FAB 
 174      9E5D63CB 
 174      B3DB
 175 053b 0E2EB4C7 		.ascii	"\016.\264\307O\267\336}\000\273oJ'\335\2573w?w\305\027"
 175      4FB7DE7D 
 175      00BB6F4A 
 175      27DDAF33 
 175      773F77C5 
 176 0550 4FABDDAF 		.ascii	"O\253\335\257\263\325\375\371\303\011\266p\226\007\007"
 176      B3D5FDF9 
 176      C309B670 
 176      960707
 177 055f BAFBEE7F 		.ascii	"\272\373\356\177\323g\031v\262\021\011t.\335\354\276"
 177      D3671976 
 177      B2110974 
 177      2EDDECBE 
 178 056f 6732E8BE 		.ascii	"g2\350\276\360\236\252\3001\227b\322w\211\277\240\346"
 178      F09EAAC0 
 178      319762D2 
 178      7789BFA0 
 178      E6
 179 0580 EE67D6A0 		.ascii	"\356g\326\240\247t\031\276t\214h$\361\267\207qD\250"
 179      A77419BE 
 179      748C6824 
 179      F1B78771 
 179      44A8
 180 0592 60D7EC80 		.ascii	"`\327\354\200Y\022\251>\362\035\015v\3031\230Q\262["
 180      5912A93E 
 180      F21D0D76 
 180      C3319851 
 180      B25B
 181 05a4 34D86D3B 		.ascii	"4\330m;`\331\326\222\335\241\301\356:\0063J\366=\015"
 181      60D9D692 
 181      DDA1C1EE 
 181      3A06334A 
 181      F63D0D
 182 05b7 D66107AC 		.ascii	"\326a\007\254\247\265d?\320`\015^\247`F\311\356\323"
 182      A7B5643F 
 182      D0600D5E 
 182      A76046C9 
 182      EED3
 183 05c9 60D3EC80 		.ascii	"`\323\354\200\345XK6\347\030\0056\3231\230Q\262y4\330"
 183      E5584B36 
 183      E7180536 
 183      D3319851 
 183      B27934D8 
 184 05dd 6B76C0FA 		.ascii	"kv\300\372XK\326D\203\315w\014f\224\354u\032l\241\035"
 184      584BD644 
 184      83CD770C 
 184      6694EC75 
 184      1A6CA11D 
 185 05f1 B03C6BC9 		.ascii	"\260<k\311\026\321`o8\0063J\266\204\006[f\007l\240\265"
ARM GAS  /tmp/ccLBdf4r.s 			page 14


 185      16D1606F 
 185      3806334A 
 185      B684065B 
 185      66076CA0 
 186 0606 644B69B0 		.ascii	"dKi\260\025\216\301\214\222\255\247\301\336\266\003"
 186      158EC18C 
 186      92ADA7C1 
 186      DEB603
 187 0615 36D85AB2 		.ascii	"6\330Z\262\2154\330\237\035\203\031%\333L\203\255\265"
 187      8D34D89F 
 187      1D831925 
 187      DB4C83AD 
 187      B5
 188 0626 0336D45A 		.ascii	"\0036\324Z\262\2554\330z\307`F\311\266\323`\233\354"
 188      B2AD34D8 
 188      7AC76046 
 188      C9B6D360 
 188      9BEC
 189 0638 803D672D 		.ascii	"\200=g-\331\016\032l\253c0\243d;i\260V;`c\254%{\227"
 189      D90E1A6C 
 189      AB6330A3 
 189      643B69B0 
 189      563B6063 
 190 0650 06DBE518 		.ascii	"\006\333\345\030\314(\331\021\032l\267\035\260\027\022"
 190      CC28D911 
 190      1A6CB71D 
 190      B01712
 191 065f 4816FB24 		.ascii	"H\026\373$jG\302\364Z\216\332\254}\340\325\0278\016"
 191      6A47C2F4 
 191      5A8EDAAC 
 191      7DE0D517 
 191      380E
 192 0671 633413C7 		.ascii	"c4\023\307\330\347u\272\"3\350M\326\311\217\356\320"
 192      D8E775BA 
 192      2233E84D 
 192      D6C98FEE 
 192      D0
 193 0682 E2BCBA58 		.ascii	"\342\274\272Xm\263\203\230$\000.\331K\255|O:\0063Q\231"
 193      6DB38398 
 193      24002ED9 
 193      4BAD7C4F 
 193      3A063351 
 194 0697 8019964E 		.ascii	"\200\031\226N\261\243\377H\362\023\017\362\370\212\243"
 194      B1A3FF48 
 194      F2130FF2 
 194      F88AA3
 195 06a6 9E13F44C 		.ascii	"\236\023\364L\\W`\257qd\013\377\015\347\215I\241^\353"
 195      5C5760AF 
 195      71640BFF 
 195      0DE78D49 
 195      A15EEB
 196 06b9 57EA91C1 		.ascii	"W\352\221\3019\257\361\300!\366I\325\324\212\011_\323"
 196      39AFF1C0 
 196      21F649D5 
 196      D48A095F 
 196      D3
 197 06ca 4CF83F3B 		.ascii	"L\370?;fJ\022\332\317\357]\212\347\231\366\237\213\334"
ARM GAS  /tmp/ccLBdf4r.s 			page 15


 197      664A12DA 
 197      CFEF5D8A 
 197      E799F69F 
 197      8BDC
 198 06dc BC7D44DB 		.ascii	"\274}D\333 |\207\033\204+^\363\012\263\325\341\223\021"
 198      207C871B 
 198      842B5EF3 
 198      0AB3D5E1 
 198      9311
 199 06ee 588799B5 		.ascii	"X\207\231\265Ht\254b\275\246\000.~\334\273u\235\242"
 199      4874AC62 
 199      BDA6002E 
 199      7EDCBB75 
 199      9DA2
 200 0700 34B89DE8 		.ascii	"4\270\235\350\261O\323\243\035\365\270\373\023\350\321"
 200      B14FD3A3 
 200      1DF5B8FB 
 200      13E8D1
 201 070f D0CDA91E 		.ascii	"\320\315\251\036}LzD\3728\327\343cM\217\373\250\307"
 201      7D4C7A44 
 201      FA38D7E3 
 201      634D8FFB 
 201      A8C7
 202 0721 CC6E3F5E 		.ascii	"\314n?^\217\371\216\365\310\243\364\300\335Z_u\267\366"
 202      8FF98EF5 
 202      C8A3F4C0 
 202      DD5A5F75 
 202      B7F6
 203 0733 10332FF9 		.ascii	"\0203/\371n\215\310\323\300?d:\337>@\216\034I\261\215"
 203      6E8DC8D3 
 203      C03F643A 
 203      DF3E408E 
 203      1C49B18D 
 204 0747 C38F03D4 		.ascii	"\303\217\003\324\026W\261\267\305\375F\263X#O,\266\304"
 204      1657B1B7 
 204      C5FD46B3 
 204      58234F2C 
 204      B6C4
 205 0759 6431FB48 		.ascii	"d1\373H[\366~\260A;\376\231\216P-]\206:\177`\233\372"
 205      5BF67EB0 
 205      413BFE99 
 205      8E502D5D 
 205      863A7F60 
 206 076f B8F15504 		.ascii	"\270\361U\004Z\335\311\213n\223\023\335F'\302-\351\351"
 206      5ADDC98B 
 206      6E9313DD 
 206      4627C22D 
 206      E9E9
 207 0781 0ED971B3 		.ascii	"\016\331q\263\177\324J\310\215\207\371\207\267\343\230"
 207      7FD44AC8 
 207      8D87F987 
 207      B7E398
 208 0790 8D283E71 		.ascii	"\215(>q\240\303\000\025'\320oZ\265\340\242:\251\365"
 208      A0C30015 
 208      27D06F5A 
 208      B5E0A23A 
 208      A9F5
ARM GAS  /tmp/ccLBdf4r.s 			page 16


 209 07a2 4721D647 		.ascii	"G!\326G6\315\324\217i\236!\341\345\275\037\011w\364"
 209      36CDD48F 
 209      699E21E1 
 209      E5BD1F09 
 209      77F4
 210 07b4 A0F38395 		.ascii	"\240\363\203\225\310\317U\326-@\205\366w\362p\227\016"
 210      C8CF55D6 
 210      2D4085F6 
 210      77F27097 
 210      0E
 211 07c5 564E7455 		.ascii	"VNtU\221\330\207c>1\017"
 211      91D88763 
 211      3E310F
 212 07d0 7747BB30 		.ascii	"wG\2730\342\255;}m\036\316\304\016!/\367\334\207\306"
 212      E2AD3B7D 
 212      6D1ECEC4 
 212      0E212FF7 
 212      DC87C6
 213 07e3 788327C7 		.ascii	"x\203'\307wQ\2231l\034\362\\\303&\315|\247\343\273#"
 213      77519331 
 213      6C1CF25C 
 213      C326CD7C 
 213      A7E3BB23 
 214 07f7 BDD45316 		.ascii	"\275\324S\026\362/\033\207<\206\343;\201m\3418\015\266"
 214      F22F1B87 
 214      3C86E33B 
 214      816DE138 
 214      0DB6
 215 0809 ABF634B8 		.ascii	"\253\3664\2700.\037@\363d\275\260\2347\034\363w8\266"
 215      302E1F40 
 215      F364BDB0 
 215      9C371CF3 
 215      7738B6
 216 081c 7D0E6DFB 		.ascii	"}\016m\373\310\335\203KYU~\3658wz\206\011o0\275\226"
 216      C8DD834B 
 216      59557EF5 
 216      38777A86 
 216      096F30BD 
 217 0831 D32E2DF7 		.ascii	"\323.-\367\255Jd^\033.\302\324A\327d\006s\270\325lV"
 217      AD4A645E 
 217      1B2EC2D4 
 217      41D76406 
 217      73B8D56C 
 218 0846 C154C22F 		.ascii	"\301T\302/q\014\226c\000\3335;\301q\261zDn\025X\376"
 218      710C9663 
 218      00DB353B 
 218      C171B17A 
 218      446E1558 
 219 085b CC534BA5 		.ascii	"\314SK\245Uv\372O\262;=\321\266Tc\212z2\372\216c<\243"
 219      5576FA4F 
 219      B23B3DD1 
 219      B654638A 
 219      7A32FA8E 
 220 0872 3ED7671B 		.ascii	">\327g\033f\244\035v\340\006\333&^\374\\\033H\210\013"
 220      66A41D76 
 220      E006DB26 
 220      5EFC5C1B 
ARM GAS  /tmp/ccLBdf4r.s 			page 17


 220      48880B
 221 0885 D5651C79 		.ascii	"\325e\034y2\264\034\363\025\230\257\306\3742\346W0\377"
 221      32B41CF3 
 221      1598AFC6 
 221      FC32E657 
 221      30FF
 222 0897 0AF31B98 		.ascii	"\012\363\033\230\337\301\374\036\346\365<\311\227`\276"
 222      DFC1FC1E 
 222      E6F53CC9 
 222      9760BE
 223 08a6 02F35598 		.ascii	"\002\363U\230\277\215\371\032\314\377\202\371:\232\336"
 223      BF8DF91A 
 223      CCFF82F9 
 223      3A9ADE
 224 08b5 567E5187 		.ascii	"V~Q\207Zl`\352\243\256\251\313\207\346'\343\207\346"
 224      5A6C60EA 
 224      A3AEA9CB 
 224      87E627E3 
 224      87E6
 225 08c7 02FBA663 		.ascii	"\002\373\246c\260\234d\226l\242,\371:Zr!\332d\275q "
 225      B09C6496 
 225      6CA22CF9 
 225      3A5A7221 
 225      DA64BD71 
 226 08dc BF97A13F 		.ascii	"\277\227\241?\306I2\360\254U\210\256\277r\331C^\026"
 226      C64932F0 
 226      AC5588AE 
 226      BF72D943 
 226      5E16
 227 08ee E3F51DD0 		.ascii	"\343\365\035\320\0013`\312\015\232\321&\367E\323\033"
 227      013360CA 
 227      0D9AD126 
 227      F745D31B 
 228 08fe 17EA332A 		.ascii	"\027\3523*+\237l\241\307\3121\307}'5\341,\312\204\257"
 228      2B9F6CA1 
 228      C7CA31C7 
 228      7D2735E1 
 228      2CCA84AF 
 229 0912 A109E7A0 		.ascii	"\241\011\347\240\0117\"e6\323\206\024\330\331\234\351"
 229      09372265 
 229      36D38614 
 229      D8D99CE9 
 230 0922 7D13E303 		.ascii	"}\023\343\003\263$\235\307\036r\337<\231\340\205\023"
 230      B3249DC7 
 230      1E72DF3C 
 230      99E08513 
 231 0932 F5515192 		.ascii	"\365QQ\222\240t\343\335\323\217\376\005C\307v\2368`"
 231      A074E3DD 
 231      D38FFE05 
 231      43C7769E 
 231      3860
 232 0944 6EA63942 		.ascii	"n\2469B/\342L\207\347&\"s\314\312L\033\017 \223\354"
 232      2FE24C87 
 232      E7262273 
 232      CCCA4C1B 
 232      0F2093EC 
 233 0958 64EECDBE 		.ascii	"d\356\315\276}\222mhPV\347i+\013\245Q\351\263:\036\004"
ARM GAS  /tmp/ccLBdf4r.s 			page 18


 233      7D926D68 
 233      5056E769 
 233      2B0BA551 
 233      E9B33A1E 
 234 096d B3750C2E 		.ascii	"\263u\014.&wd\213\372 u\027\316\262\377c\022\3326Lt"
 234      2677648B 
 234      FA207517 
 234      CEB2FF63 
 234      12DA364C 
 235 0982 CBB46DBF 		.ascii	"\313\264m\277\301\025h\004\201\266t\031\350\374\214"
 235      C1156804 
 235      81B67419 
 235      E8FC8C
 236 0991 B7D51725 		.ascii	"\267\325\027%\336G\240w;\231\2217\255sx\343:\207\367"
 236      DE47A077 
 236      3B999137 
 236      AD7378E3 
 236      3A87F7
 237 09a4 C62F3A3A 		.ascii	"\306/::x\346\357X\031\226af\207\0314J\265\366!\016\273"
 237      78E6EF58 
 237      19966166 
 237      8719344A 
 237      B5F6210E 
 238 09b9 A7914D7F 		.ascii	"\247\221M\177\303\244\315\016\005\014\210\006\012D~"
 238      C3A4CD0E 
 238      050C8806 
 238      0A447E
 239 09c8 388B7399 		.ascii	"8\213s\231\012\366\261\035\260$\307\320\013\232\227"
 239      0AF6B11D 
 239      B024C7D0 
 239      0B9A97
 240 09d7 593EC36A 		.ascii	"Y>\303jI\371\352Ut\301\245\375\377A^\004L\375\372U\033"
 240      49F9EA55 
 240      74C1A5FD 
 240      FF415E04 
 240      4CFDFA55 
 241 09ec 6FEFF5AB 		.ascii	"o\357\365\253#\274\3719w\033\276~u\304\326j\355v\242"
 241      23BCF939 
 241      771BBE7E 
 241      75C4D66A 
 241      ED76A2
 242 09ff 3540A2B7 		.ascii	"5@\242\267\021cSF\317\2702\233\276\334\377\264\372V"
 242      11635346 
 242      CFB8329B 
 242      BEDCFFB4 
 242      FA56
 243 0a11 E347B8E8 		.ascii	"\343G\270\350\274\370@\352\267\032\0158D\276Sf\3717"
 243      BCF840EA 
 243      B71A0D38 
 243      44BE5366 
 243      F937
 244 0a23 1D46F94F 		.ascii	"\035F\371O\245\226\177JCd\233\366L\017\007SC\322m\203"
 244      A5967F4A 
 244      43649BF6 
 244      4C0F0753 
 244      43D26D83 
 245 0a37 C05EC357 		.ascii	"\300^\303WD\354l\002\356\240&\247\234/Z5\261\266\253"
ARM GAS  /tmp/ccLBdf4r.s 			page 19


 245      44EC6C02 
 245      EEA026A7 
 245      9C2F5A35 
 245      B1B6AB
 246 0a4a CF64CEE0 		.ascii	"\317d\316\340x\275\353\030,\307\000\266\203\006S\262"
 246      78BDEB18 
 246      2CC700B6 
 246      830653B2 
 247 0a5a 6C805905 		.ascii	"l\200Y\0051\000\333I\203Mq\014f\224\354]\032l\272\035"
 247      3100DB49 
 247      834D710C 
 247      6694EC5D 
 247      1A6CBA1D 
 248 0a6e 30ABD34A 		.ascii	"0\253\323J\000;B\203\315v\014\226\223\210%L'\222\011"
 248      003B4283 
 248      CD760C96 
 248      9388254C 
 248      279209
 249 0a81 ECC7B86B 		.ascii	"\354\307\270k8\215\221\362\023\314\317a\036\305\374"
 249      388D91F2 
 249      13CCCF61 
 249      1EC5FC
 250 0a90 33CC2FD8 		.ascii	"3\314/\330Yt\035\247\003\374<\024\370H\327\030\003\323"
 250      59741DA7 
 250      03FC3C14 
 250      F848D718 
 250      03D3
 251 0aa2 DE824B9F 		.ascii	"\336\202K\237>\251\236\376\232b,\261\207\225\004\227"
 251      3EA99EFE 
 251      9A622CB1 
 251      87950497 
 252 0ab2 6909163B 		.ascii	"i\011\026;\226 \207\226 r\267M=\271\324\337\364n6\343"
 252      96208796 
 252      2072B74D 
 252      3DB9D4DF 
 252      F46E36E3 
 253 0ac6 D97D354B 		.ascii	"\331}5K_.\265e\254\177A\007[\345\030\314\360\372ud\316"
 253      5F2EB565 
 253      AC7F4107 
 253      5BE518CC 
 253      F0FA7564 
 254 0adb 610AEC1D 		.ascii	"a\012\354\035\307`\331\235\030\241r\341(r\341\030\372"
 254      C760D99D 
 254      18A172E1 
 254      2872E118 
 254      FA
 255 0aec FC12E657 		.ascii	"\374\022\346W0\377\012\363\253\306\005\351\326,s\334"
 255      30FF0AF3 
 255      ABC605E9 
 255      D62C73DC 
 256 0afc 55E7580A 		.ascii	"U\347X\0125>\0313vq\255|{\210\366\355\376,\247Q\313"
 256      353E1933 
 256      7671AD7C 
 256      7B88F6ED 
 256      FE2CA751 
 257 0b11 E05B08AA 		.ascii	"\340[\010\252{/\351A\365\020\256\305\016\333AL\262\023"
 257      7B2FE941 
ARM GAS  /tmp/ccLBdf4r.s 			page 20


 257      F510AEC5 
 257      0EDB414C 
 257      B213
 258 0b23 DD7CCEFC 		.ascii	"\335|\316\3748 \321l\317\321\262\305\242\306\356\261"
 258      3820D16C 
 258      CFD1B2C5 
 258      A2C6EEB1 
 259 0b33 6AD4B885 		.ascii	"j\324\270\205Q\343DV\352\250\301\031u\024\330vs\324"
 259      51E34456 
 259      EAA8C119 
 259      7514D876 
 259      73D4
 260 0b45 683F8E51 		.ascii	"h?\216Q\243\335V\324\270w\274I\333)\252\263\315\247"
 260      A3DD56D4 
 260      B877BC49 
 260      DB29AAB3 
 260      CDA7
 261 0b57 28427B97 		.ascii	"(B{\227\247\373\373\307\251\251\353\242c\260\034\003"
 261      A7FBFBC7 
 261      A9A9EBA2 
 261      63B01C03 
 262 0b67 D89C9314 		.ascii	"\330\234\223\024\330\027v\300\222L\367\363h\260\253"
 262      D81776C0 
 262      924CF7F3 
 262      68B0AB
 263 0b76 8EC18C92 		.ascii	"\216\301\214\2225\321`7\354\200%\231\356_\247\301n9"
 263      35D16037 
 263      EC802599 
 263      EE5FA7C1 
 263      6E39
 264 0b88 06334AB6 		.ascii	"\0063J\266\210\006\373\336\016\230\325#\034\000[B\203"
 264      8806FBDE 
 264      0E98D523 
 264      1C005B42 
 264      83
 265 0b99 DD770C66 		.ascii	"\335w\014f\224l)\015V\337\335\006X\216\265d\3154\330"
 265      946C290D 
 265      56DFDD06 
 265      588EB564 
 265      CD34D8
 266 0bac 2B8EC172 		.ascii	"+\216\301r\022\015\011\365C\217(\201\375\036\247\305"
 266      120D09F5 
 266      438F2881 
 266      FD1EA7C5 
 267 0bbc BB3859DD 		.ascii	"\2738Y\335\303\274\003\363\227]$o\300|*\346\3230\237"
 267      C3BC03F3 
 267      975D246F 
 267      C07C2AE6 
 267      D3309F
 268 0bcf 8EF94CCC 		.ascii	"\216\371L\314g\271lLn7\351\311mVw\247SQRE\342?\221\021"
 268      67B96C4C 
 268      6E37E9C9 
 268      6D5677A7 
 268      53515245 
 269 0be7 D80F71C5 		.ascii	"\330\017q\305\267\027_\341=\215\371\024\334'O\307|\033"
 269      B7175FE1 
 269      3D8DF914 
ARM GAS  /tmp/ccLBdf4r.s 			page 21


 269      DC274FC7 
 269      7C1B
 270 0bf9 2AB513F3 		.ascii	"*\265\023\363\275\230\357\307\374 \346\337b\376\235"
 270      BD98EFC7 
 270      FC20E6DF 
 270      62FE9D
 271 0c08 9DB97A77 		.ascii	"\235\271zw\374\305_\330\217\273\310v{s\227_)\277x\340"
 271      FCC55FD8 
 271      8FBBC876 
 271      7B73975F 
 271      29BF78E0 
 272 0c1c 35A7EFE4 		.ascii	"5\247\357\344_\215\276\245=5\231\213\357o\317\355\376"
 272      5F8DBEA5 
 272      3D35998B 
 272      EF6FCFED 
 272      FE
 273 0c2d 931C85BF 		.ascii	"\223\034\205\277\2010)4I\372r\266\241\313\315\224c\266"
 273      81302934 
 273      49FA72B6 
 273      A1CBCD94 
 273      63B6
 274 0c3f A063B6A2 		.ascii	"\240c\266\242K\266c\036\301|\216\035\366\254\217\233"
 274      4BB6631E 
 274      C17C8E1D 
 274      F6AC8F9B 
 275 0c4f 5BFB495F 		.ascii	"[\373I_\314\005\261{\355\031]\354~.\376z\010.F\307\267"
 275      CC05B17B 
 275      ED195DEC 
 275      7E2EFE7A 
 275      082E46C7 
 276 0c64 B41CB3C2 		.ascii	"\264\034\263\302d\250_2+\024e\036\371\235\341\357\027"
 276      64A85F32 
 276      2B14651E 
 276      F99DE1EF 
 276      17
 277 0c75 2B1197DA 		.ascii	"+\021\227\332\025\307l\304jk\331\336\026\033\013\024"
 277      15C76CC4 
 277      6A6BD9DE 
 277      161B0B14 
 278 0c85 486DAB9C 		.ascii	"Hm\253\234\025\207\252\322pLk\212f\273\251fo|\230\221"
 278      1587AAD2 
 278      704C6B8A 
 278      66BBA966 
 278      6F7C9891 
 279 0c99 A7AF6F22 		.ascii	"\247\257o\"\346v\246\347\344\250\233\326\256\375\303"
 279      E676A6E7 
 279      E4A89BD6 
 279      AEFDC3
 280 0ca8 CC399ADF 		.ascii	"\3149\232\337\005\266\011\251g\335\241f\204\177aV\221"
 280      05B609A9 
 280      67DDA166 
 280      847F6156 
 280      91
 281 0cb9 083B4B99 		.ascii	"\010;K\231\232\315\342\373\217\214\326\312\340\256E"
 281      9ACDE2FB 
 281      8F8CD6CA 
 281      E0AE45
ARM GAS  /tmp/ccLBdf4r.s 			page 22


 282 0cc8 2EC38F58 		.ascii	".\303\217X\325\237`F\316\177\2229\347\345hGGo\323\317"
 282      D59F6046 
 282      CE7F9239 
 282      E7E56847 
 282      476FD3CF 
 283 0cdc 2F1B932C 		.ascii	"/\033\223,S\337t\031~\177\251\332K\273Ig\246\251?xP"
 283      53DF7419 
 283      7E7FA9DA 
 283      4BBB4967 
 283      A6A93F78 
 284 0cf1 5E665F62 		.ascii	"^f_b\022*\034\177\211@`W\271\322\241\335\241\356\226"
 284      122A1C7F 
 284      89406057 
 284      B9D2A1DD 
 284      A1EE96
 285 0d04 AF00900A 		.ascii	"\257\000\220\012:w\324k\375\212e\022\020\340XB\002("
 285      3A77D46B 
 285      FD8A6512 
 285      10E05842 
 285      0228
 286 0d16 0B891389 		.ascii	"\013\211\023\211\224\002\273\004m\272\334e\307\367G"
 286      9402BB04 
 286      6DBADC65 
 286      C7F747
 287 0d25 FFABA72E 		.ascii	"\377\253\247.\342\247\010L53\371P\223Ss\305;\215S\263"
 287      E2A7084C 
 287      3533F950 
 287      935373C5 
 287      3B8D53B3 
 288 0d39 5DAA1199 		.ascii	"]\252\021\231$\275i\032\254N\350\231\255\342>\345\033"
 288      24BD691A 
 288      AC4EE899 
 288      ADE23EE5 
 288      1B
 289 0d4a 18B90E1C 		.ascii	"\030\271\016\034\263.\211cL\333\020\3029+\230\015.\372"
 289      B32E8963 
 289      4CDB10C2 
 289      392B980D 
 289      2EFA
 290 0d5c 14CF7208 		.ascii	"\024\317r\010j\325\314\3777y\344\213\304\036Yf\366\310"
 290      6AD5CCFF 
 290      3779E48B 
 290      C41E5966 
 290      F6C8
 291 0d6e 5A5B1EB9 		.ascii	"Z[\036\271N\232\221\2169\346\007uTY6C\361\022\214F%"
 291      4E9A918E 
 291      39E60775 
 291      54593643 
 291      F1128C46 
 292 0d83 DBD42EC9 		.ascii	"\333\324.\311h<\245\216F\265\303)\346\206I:\234\273"
 292      683CA58E 
 292      46B5C329 
 292      E686493A 
 292      9CBB
 293 0d95 37DEE12B 		.ascii	"7\336\341+v:\264\242\216Uw\232\253\266t\246N\224\374"
 293      763AB4A2 
 293      8E55779A 
ARM GAS  /tmp/ccLBdf4r.s 			page 23


 293      ABB674A6 
 293      4E94FC
 294 0da8 CAF37C3D 		.ascii	"\312\363|=;\267\241E%\220\203_V\3576\023h7z\310\340"
 294      3BB7A145 
 294      2590835F 
 294      56EF3613 
 294      68377AC8 
 295 0dbd D057B38D 		.ascii	"\320W\263\215\016\325Ey?\221(\221\323\007^\355\245,"
 295      0ED54579 
 295      3F912891 
 295      D3075EED 
 295      A52C
 296 0dcf AF8F7474 		.ascii	"\257\217tt<c\226#\031\223\367$\022$v\263\213\247\231"
 296      3C639623 
 296      1993F724 
 296      122476B3 
 296      8BA799
 297 0de2 E8F42526 		.ascii	"\350\364%&\201\335\201\321*\305[\036V\242\355O4:\034"
 297      81DD81D1 
 297      2AC55B1E 
 297      56A2ED4F 
 297      343A1C
 298 0df5 3CE67EF3 		.ascii	"<\346~\363\263\177\177\007\017\321\017al\377[\2669\266"
 298      B37F7F07 
 298      0FD10F61 
 298      6CFF5BB6 
 298      39B6
 299 0e07 A799427B 		.ascii	"\247\231B{\232Q\3164o\374\"\37639\313Qy\310e'p~d\341"
 299      9A51CE34 
 299      6FFC22FE 
 299      3339CB51 
 299      79C86527 
 300 0e1f D46389F9 		.ascii	"\324c\211\3715\337\300/\2257\034\363\265\005\310GF\020"
 300      35DFC02F 
 300      95371CF3 
 300      B505C847 
 300      4610
 301 0e31 D34C44DA 		.ascii	"\323LD\332Z\331\372D\334\326\246V{\222\264:Iy\350\341"
 301      5AD9FA44 
 301      DCD6A656 
 301      7B92B43A 
 301      4979E8E1 
 302 0e45 62293851 		.ascii	"b)8Q\224\302\271\301\002\277/,V\207CR\337\012\246\373"
 302      94C2B9C1 
 302      02BF2F2C 
 302      56874352 
 302      DF0AA6FB 
 303 0e59 B082A232 		.ascii	"\260\202\2422\274\361\205eA\026\335\277\0339:\247\210"
 303      BCF18565 
 303      4116DDBF 
 303      1B393AA7 
 303      88
 304 0e6a 491F36B2 		.ascii	"I\0376\262\260\250|\330\363%\256a\305\303K\\\317\216"
 304      B0A87CD8 
 304      F325AE61 
 304      C5C34B5C 
 304      CF8E
ARM GAS  /tmp/ccLBdf4r.s 			page 24


 305 0e7c 2E1B9BA8 		.ascii	".\033\233\250\275\237\311\210\267\227\323\020\341\227"
 305      BD9FC988 
 305      B797D310 
 305      E197
 306 0e8a B9B56129 		.ascii	"\271\265a)W\220\252\036\257\016U\213\217\213\302\270"
 306      5790AA1E 
 306      AF0E558B 
 306      8F8BC2B8 
 307 0e9a 606EB0DA 		.ascii	"`n\260\332_Y\033\020s\303r X-C\267\236Z\370\036\350"
 307      5F591B10 
 307      73C37220 
 307      582D43B7 
 307      9E5AF81E 
 308 0eaf 93FB27A9 		.ascii	"\223\373'\251\\%\370+\202\325b\256/ \216\027j+e\237"
 308      5C25F82B 
 308      82D562AE 
 308      2F208E17 
 308      6A2B659F 
 309 0ec3 3CB9460C 		.ascii	"<\271F\014Cc\257\317\2475\367\010\201\200$\206\303\305"
 309      4363AFCF 
 309      A735F708 
 309      81802486 
 309      C3C5
 310 0ed5 B915A12A 		.ascii	"\271\025\241*1\327\037\012L\316\015\210\023s\241\341"
 310      31D71F0A 
 310      4CCE0D88 
 310      1373A1E1 
 311 0ee5 B860289C 		.ascii	"\270`(\234+K\265\325/\346\302E\205P\231[\023\222\344"
 311      2B4BB5D5 
 311      2FE6C245 
 311      8550995B 
 311      1392E4
 312 0ef8 706E59F9 		.ascii	"pnY\371\210~\005\271\303\207\027\347\202\344\023\363"
 312      887E05B9 
 312      C38717E7 
 312      82E413F3 
 313 0f08 519BCACA 		.ascii	"Q\233\312\312\000\201\205\002U\307\002;p\272\230\000"
 313      00818502 
 313      55C7023B 
 313      70BA9800 
 314 0f18 008DBBC1 		.ascii	"\000\215\273\301\027\252\357\223\273\001\216o\364\310"
 314      17AAEF93 
 314      BB018E6F 
 314      F4C8
 315 0f26 61238795 		.ascii	"a#\207\225\247\223\313\262\362Q\317\021l_iIa\361\330"
 315      A793CBB2 
 315      F251CF11 
 315      6C5F6949 
 315      61F1D8
 316 0f39 07C8956A 		.ascii	"\007\310\225j[_\371\030\372\256t\014\266\034>\252\350"
 316      5B5FF918 
 316      FAAE740C 
 316      B61C3EAA 
 316      E8
 317 0f4a 3F4B8A33 		.ascii	"?K\2123\000/TS\025\012\020\300Q\317\215\030U\\\342\203"
 317      002F5453 
 317      150A10C0 
ARM GAS  /tmp/ccLBdf4r.s 			page 25


 317      51CF8D18 
 317      555CE283 
 318 0f5e FF3EA45D 		.ascii	"\377>\244]\226\215\000\227\370\212K\236\037VT\362\240"
 318      968D0097 
 318      F88A4B9E 
 318      1F5654F2 
 318      A0
 319 0f6f A16CE8A8 		.ascii	"\241l\350\250\262rO\250\306G\232\246\0233\365+\000\004"
 319      B2724FA8 
 319      C6479AA6 
 319      1333F52B 
 319      0004
 320 0f81 D562E432 		.ascii	"\325b\3442\303_\031\362\277\350\013\327\210b \013:\011"
 320      C35F19F2 
 320      BFE80BD7 
 320      8862200B 
 320      3A09
 321 0f93 D4CA93FD 		.ascii	"\324\312\223\375\223\375\225\320OVYy\261"
 321      93FD95D0 
 321      4F565979 
 321      B1
 322 0fa0 AF7874F9 		.ascii	"\257xt\371X_\321\330\242\341%\017\016),+\247\356}\005"
 322      585FD1D8 
 322      A2E1250F 
 322      0E292C2B 
 322      A7EE7D05 
 323 0fb4 3F3397E4 		.ascii	"?3\227\344?\341\033\324\215 \370\020\202hY\024\252\036"
 323      3FE11BD4 
 323      8D20F810 
 323      82685914 
 323      AA1E
 324 0fc6 1F9CE0F6 		.ascii	"\037\234\340\366\343\027\261\312\370JaB\330'\273EI\012"
 324      E317B1CA 
 324      F84A6142 
 324      D827BB45 
 324      490A
 325 0fd8 49E17EA9 		.ascii	"I\341~\251L+\3111\313\372+\252\344:B\226\252ZY\254\003"
 325      4C2BC931 
 325      CBFA2BAA 
 325      E43A4296 
 325      AA5A59AC 
 326 0fed 7EE1F740 		.ascii	"~\341\367@G\010\341\311a\2356\335\345\012I\024\002a"
 326      4708E1C9 
 326      619D36DD 
 326      E50A4914 
 326      0261
 327 0fff DF       		.ascii	"\337"
 328 1000 4BB5622D 		.ascii	"K\265b-\250\233\355\257\360\031\212\372;C\366W\020\326"
 328      A89BEDAF 
 328      F0198AFA 
 328      3B43F657 
 328      10D6
 329 1012 A4AB103E 		.ascii	"\244\253\020>\331\033\203s\327\370\252\305:\031\276"
 329      D91B8373 
 329      D7F8AAC5 
 329      3A19BE
 330 1021 6A2471E2 		.ascii	"j$q\342P\033\250*5\013KG\024\215\250\203\232U5\301J"
ARM GAS  /tmp/ccLBdf4r.s 			page 26


 330      501BA82A 
 330      350B4B47 
 330      148DA883 
 330      9A5535C1 
 331 1036 32D27E57 		.ascii	"2\322~WT\004\325u\371=r\215\024\014\371T\334`\310\003"
 331      5404D575 
 331      F93D728D 
 331      140CF954 
 331      DC60C803 
 332 104a 260673C8 		.ascii	"&\006s\310\203\034\343W\370C\222\010\200\031\244\330"
 332      831CE357 
 332      F8439208 
 332      8019A4D8 
 333 105a 07BCF0CB 		.ascii	"\007\274\360\313uOu\015\3057q@\0251\202$N\200A\354\223"
 333      754F750D 
 333      C5377140 
 333      15318224 
 333      4E8041EC 
 334 106f F970FE13 		.ascii	"\371p\376\023\220\006@\032\010i\020\037.\310\203\224"
 334      9006401A 
 334      0869101F 
 334      2EC88394 
 335 107f 0FA90052 		.ascii	"\017\251\000R?H\375!\375\026\022\324+\200z\005P\257"
 335      3F48FD21 
 335      FD1612D4 
 335      2B807A05 
 335      50AF
 336 1091 00EAF583 		.ascii	"\000\352\365\203z\375\3629\251?'\375\226\223\236\340"
 336      7AFDF239 
 336      A93F27FD 
 336      96939EE0 
 337 10a1 A4019C34 		.ascii	"\244\001\2344\220\223\006\361R~\036\244|\256R\202\257"
 337      909306F1 
 337      527E1EA4 
 337      7CAE5282 
 337      AF
 338 10b2 7E69353E 		.ascii	"~i5>\220\326C,<I\224\340;T\031\020%\227\277B\220\210"
 338      90D6432C 
 338      3C4994E0 
 338      3B541910 
 338      2597BF42 
 339 10c8 D9852A31 		.ascii	"\331\205*1]\326\306!\374\023\257<\262:\214\340\036\271"
 339      5DD6C621 
 339      FC13AF3C 
 339      B23A8CE0 
 339      1EB9
 340 10da E8912571 		.ascii	"\350\221%q|\030\355H.\322\252\302\023\340\237\332\360"
 340      7C18ED48 
 340      2ED2AAC2 
 340      13E09FDA 
 340      F0
 341 10eb 80B945BB 		.ascii	"\200\271E\273rK\201\311\360\257t\261.(\203YD\367$94"
 341      724B81C9 
 341      F0AF74B1 
 341      2E288359 
 341      44F72439 
 342 1100 EEBF6B32 		.ascii	"\356\277k2\304\211b\265\\%\204_$\234\236D.\370\032_"
ARM GAS  /tmp/ccLBdf4r.s 			page 27


 342      C48962B5 
 342      5C25845F 
 342      249C9E44 
 342      2EF81A5F 
 343 1114 6D96CEA4 		.ascii	"m\226\316\244\312`\030f\252\356\024\267H\211\267\306"
 343      CA601866 
 343      AAEE14B7 
 343      4889B7C6 
 344 1124 374908CA 		.ascii	"7I\010\312\301\352\011\335`h\206' \337\322\360\022\012"
 344      C1EA09DD 
 344      60688627 
 344      20DFD2F0 
 344      120A
 345 1136 C41AB11A 		.ascii	"\304\032\261\032&\306\011P\013\030O\352w#\262\011\225"
 345      26C60950 
 345      0B184FEA 
 345      7723B209 
 345      95
 346 1147 E86728AC 		.ascii	"\350g(\254\011\205*=U*K\341;4\251Z\224\334U\310\262"
 346      09852A3D 
 346      552A4BE1 
 346      3B34A95A 
 346      94DC55C8 
 347 115c 018E48AB 		.ascii	"\001\216H\253\311\004.\353\241\361\026L Jb\265\037\014"
 347      C9042EEB 
 347      A1F1164C 
 347      204A62B5 
 347      1F0C
 348 116e E4568BBC 		.ascii	"\344V\213\2740h\311\274\352\223q\376\2001\256\317\037"
 348      3068C9BC 
 348      EA9371FE 
 348      8031AECF 
 348      1F
 349 117f E4D245FE 		.ascii	"\344\322E\376\345\225\352\002U\0021\253W\326\257\206"
 349      E595EA02 
 349      550231AB 
 349      57D6AF86 
 350 118f 389D8331 		.ascii	"8\235\2031\037\322\277\256\016\302B\025X\034p@\256'"
 350      1FD2BFAE 
 350      0EC24215 
 350      581C7040 
 350      AE27
 351 11a1 53C180CE 		.ascii	"S\301\200\316\271E#\312\206\225\001\200\332r|\377\274"
 351      B94523CA 
 351      86950180 
 351      DA727CFF 
 351      BC
 352 11b2 FC3A42E8 		.ascii	"\374:B\350\036\305#\012}e\340^\241\312W\016\243\246"
 352      1EC5230A 
 352      7D65E05E 
 352      A1CA570E 
 352      A3A6
 353 11c4 581CCF15 		.ascii	"X\034\317\025\225\272F\026\227\227\362\317\025\226\272"
 353      95BA4616 
 353      9797F2CF 
 353      1596BA
 354 11d3 46E4912C 		.ascii	"F\344\221,\277\260\224\037RT\352\016cEWp\274_r\007\303"
ARM GAS  /tmp/ccLBdf4r.s 			page 28


 354      BFB0941F 
 354      5254EA0E 
 354      63455770 
 354      BC5F7207 
 355 11e8 15C1F1B2 		.ascii	"\025\301\361\2627,V\216\017V\007\304:\367D\321/\207"
 355      372C568E 
 355      0F5607C4 
 355      3AF744D1 
 355      2F87
 356 11fa A41E31C9 		.ascii	"\244\0361\311|jm\230\204\340F\252#\271\\G\202\237\336"
 356      7C6A6D98 
 356      84E046AA 
 356      23B95C47 
 356      829FDE
 357 120d 115F549A 		.ascii	"\021_T\232\017\251\3005\252\2604\237d\005\\q)_\006\205"
 357      0FA9C035 
 357      AAB0349F 
 357      64055C71 
 357      295F0685 
 358 1221 65A5057C 		.ascii	"e\245\005|QQiZy\351\260\262\022\327\220\341 \014X\330"
 358      5151695A 
 358      79E9B0B2 
 358      12D790E1 
 358      200C58D8 
 359 1235 4B66A660 		.ascii	"Kf\246`\025\341%\371\012\325\312Y\361P\032\254\016\312"
 359      15E125F9 
 359      0AD5CA59 
 359      F1501AAC 
 359      0ECA
 360 1247 6E35C6BA 		.ascii	"n5\306\272\003\030\2222\306\011a\261P\215vi\276g\201"
 360      03189232 
 360      C60961B1 
 360      508D7669 
 360      BE6781
 361 125a 0F5974E4 		.ascii	"\017Yt\344\016\325xH\006E=\250\200,\011\325a\301/\363"
 361      0ED57848 
 361      06453DA8 
 361      802C09D5 
 361      61C12FF3 
 362 126e 72DD3848 		.ascii	"r\3358H~^\202o\251\316\377\000t_*V\212\200\370lm\270"
 362      7E5E826F 
 362      A9CEFF00 
 362      745F2A56 
 362      8A80F86C 
 363 1284 00437065 		.ascii	"\000Cpep\\\356\004\277\337\024\212\373\367\035\330\267"
 363      705CEE04 
 363      BFDF148A 
 363      FBF71DD8 
 363      B7
 364 1295 3F1DBD21 		.ascii	"?\035\275!\024\203\235\335\341\340\037@\360\236\200"
 364      14839DDD 
 364      E1E01F40 
 364      F09E80
 365 12a4 334208CB 		.ascii	"3B\010\313\242TNz\252\012\312\345\252&\244\203B\377"
 365      A2544E7A 
 365      AA0ACAE5 
 365      AA26A483 
ARM GAS  /tmp/ccLBdf4r.s 			page 29


 365      42FF
 366 12b6 4BB54189 		.ascii	"K\265A\211t\360\377\221\036j\264"
 366      74F0FF91 
 366      1E6AB4
 367              		.text
 368              		.section	.gnu.lto_.symtab.541010e2b0acc6d6,"",%progbits
 369 0000 49324353 		.ascii	"I2CSensor_init\000\000\000\000\000\000\000\000\000\000"
 369      656E736F 
 369      725F696E 
 369      69740000 
 369      00000000 
 370 0018 0000AD00 		.ascii	"\000\000\255\000\000\000I2CSensor_stop\000\000\000\000"
 370      00004932 
 370      4353656E 
 370      736F725F 
 370      73746F70 
 371 0030 00000000 		.ascii	"\000\000\000\000\000\000\000\000!\002\000\000I2CSen"
 371      00000000 
 371      21020000 
 371      49324353 
 371      656E
 372 0042 736F725F 		.ascii	"sor_transact\000\000\000\000\000\000\000\000\000\000"
 372      7472616E 
 372      73616374 
 372      00000000 
 372      00000000 
 373 0058 00002D02 		.ascii	"\000\000-\002\000\000i2cReleaseBus\000\000\002\000\000"
 373      00006932 
 373      6352656C 
 373      65617365 
 373      42757300 
 374 0070 00000000 		.ascii	"\000\000\000\000\000\000\000@\002\000\000i2cMasterT"
 374      00000040 
 374      02000069 
 374      32634D61 
 374      73746572 
 375 0085 72616E73 		.ascii	"ransmitTimeout\000\000\002\000\000\000\000\000\000\000"
 375      6D697454 
 375      696D656F 
 375      75740000 
 375      02000000 
 376 009d 00004402 		.ascii	"\000\000D\002\000\000i2cAcquireBus\000\000\002\000\000"
 376      00006932 
 376      63416371 
 376      75697265 
 376      42757300 
 377 00b5 00000000 		.ascii	"\000\000\000\000\000\000\000S\002\000\000"
 377      00000053 
 377      020000
 378              		.text
 379              		.section	.gnu.lto_.opts,"",%progbits
 380 0000 272D6D63 		.ascii	"'-mcpu=cortex-m4' '-mfloat-abi=hard' '-mfpu=fpv4-sp"
 380      70753D63 
 380      6F727465 
 380      782D6D34 
 380      2720272D 
 381 0033 2D643136 		.ascii	"-d16' '-mno-thumb-interwork' '-mthumb' '-O2' '-fomi"
ARM GAS  /tmp/ccLBdf4r.s 			page 30


 381      2720272D 
 381      6D6E6F2D 
 381      7468756D 
 381      622D696E 
 382 0066 742D6672 		.ascii	"t-frame-pointer' '-falign-functions=16' '-ffunction"
 382      616D652D 
 382      706F696E 
 382      74657227 
 382      20272D66 
 383 0099 2D736563 		.ascii	"-sections' '-fdata-sections' '-fno-common' '-flto' "
 383      74696F6E 
 383      73272027 
 383      2D666461 
 383      74612D73 
 384 00cc 272D6673 		.ascii	"'-fsingle-precision-constant'\000"
 384      696E676C 
 384      652D7072 
 384      65636973 
 384      696F6E2D 
 385              		.text
 386              		.section	.text.I2CSensor_init,"ax",%progbits
 387              		.align	2
 388              		.p2align 4,,15
 389              		.global	I2CSensor_init
 390              		.thumb
 391              		.thumb_func
 392              		.type	I2CSensor_init, %function
 393              	I2CSensor_init:
 394              		@ args = 0, pretend = 0, frame = 0
 395              		@ frame_needed = 0, uses_anonymous_args = 0
 396              		@ link register save eliminated.
 397 0000 4160     		str	r1, [r0, #4]
 398 0002 4270     		strb	r2, [r0, #1]
 399 0004 8360     		str	r3, [r0, #8]
 400 0006 7047     		bx	lr
 401              		.size	I2CSensor_init, .-I2CSensor_init
 402 0008 AFF30080 		.section	.text.I2CSensor_stop,"ax",%progbits
 402      AFF30080 
 403              		.align	2
 404              		.p2align 4,,15
 405              		.global	I2CSensor_stop
 406              		.thumb
 407              		.thumb_func
 408              		.type	I2CSensor_stop, %function
 409              	I2CSensor_stop:
 410              		@ args = 0, pretend = 0, frame = 0
 411              		@ frame_needed = 0, uses_anonymous_args = 0
 412              		@ link register save eliminated.
 413 0000 0023     		movs	r3, #0
 414 0002 0370     		strb	r3, [r0]
 415 0004 1846     		mov	r0, r3
 416 0006 7047     		bx	lr
 417              		.size	I2CSensor_stop, .-I2CSensor_stop
 418 0008 AFF30080 		.section	.text.I2CSensor_transact,"ax",%progbits
 418      AFF30080 
 419              		.align	2
 420              		.p2align 4,,15
ARM GAS  /tmp/ccLBdf4r.s 			page 31


 421              		.global	I2CSensor_transact
 422              		.thumb
 423              		.thumb_func
 424              		.type	I2CSensor_transact, %function
 425              	I2CSensor_transact:
 426              		@ args = 4, pretend = 0, frame = 0
 427              		@ frame_needed = 0, uses_anonymous_args = 0
 428 0000 2DE9F041 		push	{r4, r5, r6, r7, r8, lr}
 429 0004 0446     		mov	r4, r0
 430 0006 84B0     		sub	sp, sp, #16
 431 0008 0078     		ldrb	r0, [r0]	@ zero_extendqisi2
 432 000a 9DF82850 		ldrb	r5, [sp, #40]	@ zero_extendqisi2
 433 000e 8846     		mov	r8, r1
 434 0010 1646     		mov	r6, r2
 435 0012 1F46     		mov	r7, r3
 436 0014 A0B1     		cbz	r0, .L5
 437 0016 6068     		ldr	r0, [r4, #4]
 438 0018 FFF7FEFF 		bl	i2cAcquireBus
 439 001c A368     		ldr	r3, [r4, #8]
 440 001e 6178     		ldrb	r1, [r4, #1]	@ zero_extendqisi2
 441 0020 6068     		ldr	r0, [r4, #4]
 442 0022 0293     		str	r3, [sp, #8]
 443 0024 0195     		str	r5, [sp, #4]
 444 0026 4246     		mov	r2, r8
 445 0028 3346     		mov	r3, r6
 446 002a 0097     		str	r7, [sp]
 447 002c FFF7FEFF 		bl	i2cMasterTransmitTimeout
 448 0030 0546     		mov	r5, r0
 449 0032 6068     		ldr	r0, [r4, #4]
 450 0034 FFF7FEFF 		bl	i2cReleaseBus
 451 0038 2846     		mov	r0, r5
 452              	.L4:
 453 003a 04B0     		add	sp, sp, #16
 454              		@ sp needed
 455 003c BDE8F081 		pop	{r4, r5, r6, r7, r8, pc}
 456              	.L5:
 457 0040 6FF06300 		mvn	r0, #99
 458 0044 F9E7     		b	.L4
 459              		.size	I2CSensor_transact, .-I2CSensor_transact
 460              		.comm	__gnu_lto_v1,1,1
 461 0046 00BFAFF3 		.ident	"GCC: (GNU Tools for ARM Embedded Processors) 4.8.4 20140526 (release) [ARM/embedded-4_8-br
 461      0080AFF3 
 461      0080
ARM GAS  /tmp/ccLBdf4r.s 			page 32

