ARM GAS  /tmp/ccpvygeP.s 			page 1


   1              		.syntax unified
   2              		.cpu cortex-m4
   3              		.eabi_attribute 27, 3
   4              		.eabi_attribute 28, 1
   5              		.fpu fpv4-sp-d16
   6              		.eabi_attribute 20, 1
   7              		.eabi_attribute 21, 1
   8              		.eabi_attribute 23, 3
   9              		.eabi_attribute 24, 1
  10              		.eabi_attribute 25, 1
  11              		.eabi_attribute 26, 1
  12              		.eabi_attribute 30, 2
  13              		.eabi_attribute 34, 1
  14              		.eabi_attribute 18, 4
  15              		.thumb
  16              		.file	"lsm303.c"
  17              		.section	.gnu.lto_.jmpfuncs.43655edf2d32d599,"",%progbits
  18 0000 789C6362 		.ascii	"x\234cb`b\300\0068\24043\003?\023\220`\000\000\001\311"
  18      6062C006 
  18      38A03433 
  18      033F1390 
  18      60000001 
  19 0015 0024     		.ascii	"\000$"
  20              		.text
  21              		.section	.gnu.lto_.inline.43655edf2d32d599,"",%progbits
  22 0000 789C6362 		.ascii	"x\234cb`b\300\006,\24143\003\003\007;#\003\023\333\007"
  22      6062C006 
  22      2CA13433 
  22      0303073B 
  22      230313DB 
  23 0015 3D06AE03 		.ascii	"=\006\256\003v`\305L\014\314L\214`}l\013\344\231 \252"
  23      7660C54C 
  23      0CCC4C8C 
  23      607D6C0B 
  23      E49920AA 
  24 0029 D0451800 		.ascii	"\320E\030\000\224\357\004$"
  24      94EF0424 
  25              		.text
  26              		.section	.gnu.lto_.pureconst.43655edf2d32d599,"",%progbits
  27 0000 789C6362 		.ascii	"x\234cb`b`g\200\000f\006)& \001\000\001i\000."
  27      60626067 
  27      80006606 
  27      29262001 
  27      00016900 
  28              		.text
  29              		.section	.gnu.lto_lsm303_init.43655edf2d32d599,"",%progbits
  30 0000 789C6362 		.ascii	"x\234cb`b@\007\222@\334\307\310\300 \014\244\031\231"
  30      60624007 
  30      9240DCC7 
  30      C8C0200C 
  30      A41999
  31 0013 19189926 		.ascii	"\031\030\231&\234c`h\344`bd\0041\030\030\031\352\231"
  31      9C636068 
  31      E4606264 
  31      04311818 
  31      19EA99
  32 0026 18EB2319 		.ascii	"\030\353#\031\301j\3273\035x\360\377\377\272?-\237X"
ARM GAS  /tmp/ccpvygeP.s 			page 2


  32      C16AD733 
  32      1D78F0FF 
  32      FFBA3F2D 
  32      9F58
  33 0038 B8991873 		.ascii	"\270\231\030s\031\031X\200\004#\033\220`\342\000\022"
  33      19195880 
  33      04231B90 
  33      60E20012 
  34 0048 CC4025AC 		.ascii	"\314@%\254\014-\015\015\023\024\030\030\222\301ZB\200"
  34      0C2D0D0D 
  34      13141818 
  34      92C15A42 
  34      80
  35 0059 24C89C50 		.ascii	"$\310\234PF&\020\315|\226\241i\307\217~\221D\306\205"
  35      462610CD 
  35      7C96A169 
  35      C78F7E91 
  35      44C685
  36 006c 8CAC0CDA 		.ascii	"\214\254\014\332\014\253\032\200\3000\223\221a6\303"
  36      0CAB1A80 
  36      C0309391 
  36      6136C3
  37 007b 2CC64C46 		.ascii	",\306LF\306tF\246\010 \015qe\022\304R\006\220\010\230"
  37      C67446A6 
  37      08200D71 
  37      6512C452 
  37      06900898 
  38 008f 01D47C7A 		.ascii	"\001\324|z\306$~t\315\314\3305C\364\2443\262@4\356\230"
  38      C6247E74 
  38      CDCCD835 
  38      43F4A433 
  38      B24034EE 
  39 00a4 248AAE91 		.ascii	"$\212\256\221\005\273F&\250F6\210\306\033Dkd\206j\344"
  39      05BB4626 
  39      A8463688 
  39      C61B446B 
  39      64866AE4 
  40 00b8 006BDC31 		.ascii	"\000k\3341\3432\037D#PucC\203@&#k5\303\257\206\016\020"
  40      E3321F44 
  40      23507563 
  40      43834026 
  40      236B35C3 
  41 00d0 8B2D17E4 		.ascii	"\213-\027\344.\260\327\330\340\236d\327\0002.24>8\313"
  41      2EB0D7D8 
  41      E09E64D7 
  41      00322E32 
  41      343E38CB 
  42 00e4 05D10812 		.ascii	"\005\321\010\022\344\200ET\010\320G\300 \004Y&\350R"
  42      E4804554 
  42      08D047C0 
  42      20045926 
  42      E852
  43 00f6 9459965A 		.ascii	"\224Y\226ZT\254\237S\234kl`\254\227\314\000\000\034"
  43      54AC9F53 
  43      9C6B6C60 
  43      AC97CC00 
  43      001C
ARM GAS  /tmp/ccpvygeP.s 			page 3


  44 0108 F45D2B   		.ascii	"\364]+"
  45              		.text
  46              		.section	.gnu.lto_lsm303_readAcceleration.43655edf2d32d599,"",%progbits
  47 0000 789C6362 		.ascii	"x\234cb`b@\007\222@\034\001\304\302@\314\310\314\300"
  47      60624007 
  47      92401C01 
  47      C4C240CC 
  47      C8CCC0
  48 0013 C834E11C 		.ascii	"\3104\341\034\003C#\007\023##\210\301\300\310P\317\304"
  48      03432307 
  48      13232388 
  48      C1C0C850 
  48      CFC4
  49 0025 581FC908 		.ascii	"X\037\311\010V\273\236\351\300\203\377\377\327\355h"
  49      56BB9EE9 
  49      C083FFFF 
  49      D7ED68
  50 0034 FDC40A32 		.ascii	"\375\304\0122\210\225\241\245\241a\202\002\003C2X:\004"
  50      8895A1A5 
  50      A1618202 
  50      03433258 
  50      3A04
  51 0046 4882F484 		.ascii	"H\202\364\20422\201h\346\213\014\215\017\356r%2.dde"
  51      32328168 
  51      E68B0C8D 
  51      0FEE7225 
  51      322E6464 
  52 005b 8860CC64 		.ascii	"\210`\314d\204[\031\302\310\010R\0002B\320\245(\263"
  52      845B19C2 
  52      C8085200 
  52      3242D0A5 
  52      28B3
  53 006d 2CB5A858 		.ascii	",\265\250X?\2478\327\330\300X/\231\001\000\034\363\036"
  53      3FA738D7 
  53      D8C0582F 
  53      9901001C 
  53      F31E
  54 007f 9E       		.ascii	"\236"
  55              		.text
  56              		.section	.gnu.lto_lsm303_readMagnetometer.43655edf2d32d599,"",%progbits
  57 0000 789C6362 		.ascii	"x\234cb`b@\007\222@\034\001\304\302@\314\310\314\300"
  57      60624007 
  57      92401C01 
  57      C4C240CC 
  57      C8CCC0
  58 0013 C834E11C 		.ascii	"\3104\341\034\003C#\007\023##\210\301\300\310P\317\304"
  58      03432307 
  58      13232388 
  58      C1C0C850 
  58      CFC4
  59 0025 581FC908 		.ascii	"X\037\311\010V\273\236\351\300\203\377\377\327\335h"
  59      56BB9EE9 
  59      C083FFFF 
  59      D7DD68
  60 0034 FDC40632 		.ascii	"\375\304\0062\210\225\241\245\241a\202\002\003C2X:\004"
  60      8895A1A5 
  60      A1618202 
ARM GAS  /tmp/ccpvygeP.s 			page 4


  60      03433258 
  60      3A04
  61 0046 4882F484 		.ascii	"H\202\364\20422\201h\346\213\014\215\017\336r%2.dde"
  61      32328168 
  61      E68B0C8D 
  61      0FDE7225 
  61      322E6464 
  62 005b 8860CC64 		.ascii	"\210`\314d\204[\031\302\310\010R\0002B\320\245(\263"
  62      845B19C2 
  62      C8085200 
  62      3242D0A5 
  62      28B3
  63 006d 2CB5A858 		.ascii	",\265\250X?\2478\327\330\300X/\231\001\000,\015\036"
  63      3FA738D7 
  63      D8C0582F 
  63      9901002C 
  63      0D1E
  64 007f CF       		.ascii	"\317"
  65              		.text
  66              		.section	.gnu.lto_.symbol_nodes.43655edf2d32d599,"",%progbits
  67 0000 789C6362 		.ascii	"x\234cb`b0c\200\002\246&\246z\006\206\011\347\030\030"
  67      60623063 
  67      8002A626 
  67      A67A0686 
  67      09E71818 
  68 0014 EAEBE775 		.ascii	"\352\353\347u0\262\376gd`\251gfjf\252gD\2102\2650\325"
  68      30B2FE67 
  68      6460A967 
  68      666A66AA 
  68      67448832 
  69 002b 3321B80C 		.ascii	"3!\270\014\000\237\222\017d"
  69      009F920F 
  69      64
  70              		.text
  71              		.section	.gnu.lto_.refs.43655edf2d32d599,"",%progbits
  72 0000 789C6362 		.ascii	"x\234cb`b`e\200\000F\006FF\006\000\000\234\000\015"
  72      60626065 
  72      80004606 
  72      46460600 
  72      009C000D 
  73              		.text
  74              		.section	.gnu.lto_.decls.43655edf2d32d599,"",%progbits
  75 0000 789CBD5B 		.ascii	"x\234\275[}p\024\307\225\237\231]\355j%E\010|I\360\235"
  75      7D7014C7 
  75      959F995D 
  75      ED6A2545 
  75      087C49F0 
  76 0015 ABBC4E25 		.ascii	"\253\274N%)\312w\266\276\260\201\344b\243\254\300\250"
  76      29CA77B6 
  76      BEB081E4 
  76      62A3ACC0 
  76      A8
  77 0026 82C02589 		.ascii	"\202\300%\211\234\375Gj\030\257Fhc\255V\331\035\201"
  77      9CFD476A 
  77      18AF4668 
  77      63AD56D9 
  77      1D81
ARM GAS  /tmp/ccpvygeP.s 			page 5


  78 0038 F8CB1309 		.ascii	"\370\313\023\011\013\343\000\026B|Z\310\302\004\374"
  78      0BE30016 
  78      427C5AC8 
  78      C204FC
  79 0047 11076C30 		.ascii	"\021\007l0\337\037^\300\266\020\020\001V\200\010\202"
  79      DF1F5EC0 
  79      B6101001 
  79      56800882 
  80 0057 D9180CBA 		.ascii	"\331\030\014\272\3031\306\230\000\226A\327\375ff\267"
  80      C331C698 
  80      009641D7 
  80      FD6666B7 
  81 0067 6734B3DB 		.ascii	"g4\263\333\243\370n\253\346MOo\367\257\337{\375\372"
  81      A3F86EAB 
  81      E64D4F6F 
  81      F7AFDF7B 
  81      FDFA
  82 0079 BD9EEE1E 		.ascii	"\275\236\356\036\216\341\230/\030\206\031D\277\362\237"
  82      8EE1982F 
  82      18861944 
  82      BFF29F
  83 0088 334C713A 		.ascii	"3Lq:\3038\321\363cL\342\347@\327Zt\375\204c\030\037"
  83      C338D1F3 
  83      634CE2E7 
  83      40D75A74 
  83      FD846318 
  84 009d BA58949E 		.ascii	"\272X\224\236\3021\272\037\376\337\203\313\242\374M"
  84      C231BA1F 
  84      FEDF83CB 
  84      A2FC4D
  85 00ac E8BE115D 		.ascii	"\350\276\021][\321U\203\012\227\240\274Rt\271\321\363"
  85      5BD15583 
  85      0A97A0BC 
  85      5274B9D1 
  85      F3
  86 00bd 3A46C1E7 		.ascii	":F\301\347\320\363\273\350\236\203\356\243TL\214\221"
  86      D0F3BBE8 
  86      9E83EEA3 
  86      544C8C91 
  87 00cd 86AE42F4 		.ascii	"\206\256B\364\374\010\272\306\241k<7\264\255\237\250"
  87      FC08BAC6 
  87      A16B3C37 
  87      B4AD9FA8 
  88 00dd E5D7A9CF 		.ascii	"\345\327\251\317\254\232g\374\371L\312\371L\312\335"
  88      AC9A67FC 
  88      F94CCAF9 
  88      4CCADD
  89 00ec CF74C89D 		.ascii	"\317t\310\235\261\330\372cGX\271U\376fp\320\301|\217"
  89      B1D8FA63 
  89      4758B955 
  89      FE6670D0 
  89      C17C8F
  90 00ff 5926A35F 		.ascii	"Y&\243_g\263,\263\222\207yA}\230r(\233a\236b\0056\333"
  90      67B32CB3 
  90      92877941 
  90      7D987228 
  90      9B619E62 
ARM GAS  /tmp/ccpvygeP.s 			page 6


  91 0116 C3782191 		.ascii	"\303x!\221\345\001q~\304\374^\226[b}\267\026\376L\226"
  91      E501717E 
  91      C4FC5E96 
  91      5B627DB7 
  91      16FE4C96 
  92 012a D305761D 		.ascii	"\323\005v\035\353A\212\375\025\313<\310\274\201\252"
  92      EB418AFD 
  92      15CB3CC8 
  92      BC81AA
  93 0139 B6C8F227 		.ascii	"\266\310\362'\005\354\320\226\031z\350\255]\357\277"
  93      05ECD096 
  93      197AE8AD 
  93      5DEFBF
  94 0148 C3362276 		.ascii	"\3036\"v\004\3665\000\177\211e\031\201\335\300>h\033"
  94      04F63500 
  94      7F896519 
  94      81DDC03E 
  94      681B
  95 015a EAFCE1ED 		.ascii	"\352\374\341\355\343\201\3137\001\350\250\001H`]\036"
  95      E381CB37 
  95      01E8A801 
  95      48605D1E 
  96 016a 924778D6 		.ascii	"\222Gx\326\012`4\364\210[\272\205m\206}N\315\301\017"
  96      0A6034F4 
  96      885BBA85 
  96      6D867D4E 
  96      CDC10F
  97 017d 6EE6FFBD 		.ascii	"n\346\377\275\236\231\230\030\342U\366{\220r0\320\341"
  97      9E999818 
  97      E255F67B 
  97      907230D0 
  97      E1
  98 018e 99CC8BB2 		.ascii	"\231\314\213\262\334\250*g\024\263\004\343y\0115\305"
  98      DCA82A67 
  98      14B304E3 
  98      790935C5 
  99 019e 3C1A403B 		.ascii	"<\032@;\233P\324\271\236\313\017\200\2426\261\243\020"
  99      9B50D4B9 
  99      9ECB0F80 
  99      A236B1A3 
  99      10
 100 01af 4EBF4151 		.ascii	"N\277AQ\251q0'\233Q]\245\026\240\312\321\333\037f\311"
 100      A9713027 
 100      9B515DA5 
 100      16A0CAD1 
 100      DB1F66C9 
 101 01c3 4E259FD1 		.ascii	"N%\237\321\341\351~\0170\235\210\343\350`s\333\275r"
 101      E1E97E0F 
 101      309D88E3 
 101      E86073DB 
 101      BD72
 102 01d5 E7013695 		.ascii	"\347\0016\225\000Q\207\326\360\370\004\377\275\307N"
 102      005187D6 
 102      F0F804FF 
 102      BDC74E
 103 01e4 6E609BC0 		.ascii	"n`\233\300f\266\201\004\333\270\224\022\350\201\004"
 103      66B68104 
ARM GAS  /tmp/ccpvygeP.s 			page 7


 103      DBB89412 
 103      E88104
 104 01f3 7607CB21 		.ascii	"v\007\313!\272\323(\304\265\325 \304N*!n\237\351\370"
 104      BAD328C4 
 104      B5D520C4 
 104      4E2A216E 
 104      9FE9F8
 105 0206 BE1C8BB2 		.ascii	"\276\034\213\262n\246\031\013\021{\276q\364\312D\213"
 105      6EA6190B 
 105      117BBE71 
 105      F4CA448B 
 106 0216 E95A8384 		.ascii	"\351Z\203\204\346\227\234:\235\017\232\337\203*q\314"
 106      E6979C3A 
 106      9D0F9ADF 
 106      832A71CC 
 107 0226 7503DF14 		.ascii	"u\003\337\024@\230\253\367Pe\035\327'\232G`\256q~\022"
 107      4098ABF7 
 107      50651DD7 
 107      279A4760 
 107      AE717E12 
 108 023a AEC16638 		.ascii	"\256\301f8\346.j\024\003:=\211\274\005\216x\036K\024"
 108      E62E6A14 
 108      033A3D89 
 108      BC058E78 
 108      1E4B14
 109 024d 6D4D6473 		.ascii	"mMdsDv{\"\333Ad\277\231\310v\022\331;\022\331i*'\370"
 109      44767B22 
 109      DB4164BF 
 109      99C87612 
 109      D93B12D9 
 110 0265 91F52412 		.ascii	"\221\365$\022\203z\037BJ(\260Q\366G\210\356g\035\246"
 110      837A1F42 
 110      4A28B051 
 110      F64788EE 
 110      671DA6
 111 0278 D538E6A0 		.ascii	"\3258\346\240\203U{\322L_j2\321nv\334\011(\275\030\353"
 111      83557BD2 
 111      4C5F6A32 
 111      D16E76DC 
 111      0928BD18 
 112 028d 7DE9E225 		.ascii	"}\351\342%vi\223|(\317\314\030Q\021\2260\243\231\032"
 112      7669937C 
 112      28CFCC18 
 112      51119630 
 112      A3991A
 113 02a0 6056BC53 		.ascii	"`V\274S\243{\317\260^\023\213\323\025\025\330\023H\214"
 113      A37BCFB0 
 113      5E138BD3 
 113      1515D813 
 113      488C
 114 02b2 54A570B9 		.ascii	"T\245p\271^\243I\2569\003&\331Ke\222\357\234Yf\317$"
 114      5EA349AE 
 114      390326D9 
 114      4B6592EF 
 114      9C5966CF 
 115 02c7 A3D74EB3 		.ascii	"\243\327N\263^\201=\005\366\330\355\030\226=\366\031"
 115      5E813D05 
ARM GAS  /tmp/ccpvygeP.s 			page 8


 115      F6D8ED18 
 115      963DF619 
 116 02d7 EDB16F05 		.ascii	"\355\261o\005\330c\037\225=\236$mO\315\213\231\033\336"
 116      D8631F95 
 116      3D9E246D 
 116      4FCD8B99 
 116      1BDE
 117 02e9 5706C3A3 		.ascii	"W\006\303\2431\245>\302\224\316\200)\235\2654\245f'"
 117      31A53EC2 
 117      94CE8029 
 117      9DB534A5 
 117      6627
 118 02fb ABF6C0B0 		.ascii	"\253\366\300\260L)\272\345\3142\360j\020\263\032\251"
 118      4C29BAE5 
 118      CC32F06A 
 118      10B31AA9 
 119 030b C2DFFC0F 		.ascii	"\302\337\374\017\366\253\341\357\002D\255\305N\223\360"
 119      F6ABE1EF 
 119      0244ADC5 
 119      4E93F0
 120 031a 470575FE 		.ascii	"G\005u\376\305=\023\300\267\\\002\240\025Nc\370s\033"
 120      C53D13C0 
 120      B75C02A0 
 120      154E63F8 
 120      731B
 121 032c C29F5B1F 		.ascii	"\302\237[\037\216\334\236D\002G\241\021\214\335\342"
 121      8EDC9E44 
 121      0247A111 
 121      8CDDE2
 122 033b 1CF3AA51 		.ascii	"\034\363\252Q\201:F\315\024\350%\025\210\306b\3176\366"
 122      813A46CD 
 122      14E82515 
 122      88C662CF 
 122      36F6
 123 034d CB467965 		.ascii	"\313Fye\036\275\001/=\203\015\370\012\030\360F\347\260"
 123      1EBD012F 
 123      3D830DF8 
 123      0A18F046 
 123      E7B0
 124 035f 0CF873A3 		.ascii	"\014\370s\243\001\017(\006\3749\225\001\357u\0165\340"
 124      010F2806 
 124      FC399501 
 124      EF750E35 
 124      E0
 125 0370 A34E5303 		.ascii	"\243NS\003\376\330i\337\200?'\014\370*\030\360\027\226"
 125      FED869DF 
 125      803F270C 
 125      F82A18F0 
 125      1796
 126 0382 067C9DC6 		.ascii	"\006|\235\306\200\323M\014\230hOi\351\317\320\322I\366"
 126      80D34D0C 
 126      98684F69 
 126      E9CFD0D2 
 126      49F6
 127 0394 01443F01 		.ascii	"\001D?\001\372?\210\306\177(\214\014\261/\305C\021H"
 127      FA3F88C6 
 127      7F288C0C 
ARM GAS  /tmp/ccpvygeP.s 			page 9


 127      B12FC543 
 127      1148
 128 03a6 0957C624 		.ascii	"\011W\306$\303\262\232\353\034C\263\203xs/\244\031\274"
 128      C3B29AEB 
 128      1C43B383 
 128      78732FA4 
 128      19BC
 129 03b8 BC3DCB8A 		.ascii	"\274=\313\212\256:\333aohF\337[\361]l\003_+\263\322"
 129      AE3ADB61 
 129      6F6846DF 
 129      5BF15D6C 
 129      035F2BB3 
 130 03cd 34A3B417 		.ascii	"4\243\264\027X\333\303\211cV\323Ha\326? \205\034\335"
 130      58DBC389 
 130      6356D348 
 130      61D63F20 
 130      851CDD
 131 03e0 72B683C5 		.ascii	"r\266\203\305R\230\004\022\231\325\352\347\304e\210"
 131      52980412 
 131      99D5EAE7 
 131      C46588
 132 03ef 2DBDD27F 		.ascii	"-\275\322\177Iu/\2030S:\231\226r\246\244\007\342\230"
 132      49752F83 
 132      30533A99 
 132      9672A6A4 
 132      07E298
 133 0402 7350A591 		.ascii	"sP\245\2213\204\245\033\202W\311M\025\224\344\350\315"
 133      3384A51B 
 133      8257C94D 
 133      1594E4E8 
 133      CD
 134 0413 4F3D726B 		.ascii	"O=rk\226IS\023I\221U\226W\\\215\335\333-\3139\002\333"
 134      96495313 
 134      49915596 
 134      575C8DDD 
 134      DB2DCB39 
 135 0429 CC618EDB 		.ascii	"\314a\216\333]\246\034wN\264\302\341\230\267\240\312"
 135      5DA61C77 
 135      4EB4C2E1 
 135      98B7A0CA 
 136 0439 0203C7B1 		.ascii	"\002\003\307\261\201\353\207\376u% /\240`\2731z\262"
 136      81EB87FE 
 136      7525202F 
 136      A060BB31 
 136      7AB2
 137 044b 790DD51C 		.ascii	"y\015\325\034\265\323\2515_\234\020c\371\325\350h\360"
 137      B5D3A935 
 137      5F9C1063 
 137      F9D5E868 
 137      F0
 138 045c C68B418A 		.ascii	"\306\213A\212/\315\245\260\206\341\230\001\250\262d"
 138      2FCDA5B0 
 138      86E19801 
 138      A8B264
 139 046b A814B17F 		.ascii	"\250\024\261\177S\244XB%\305\200*\205\300.\3422\021"
 139      53A45842 
 139      25C5802A 
ARM GAS  /tmp/ccpvygeP.s 			page 10


 139      85C02EE2 
 139      3211
 140 047d ECF36E0D 		.ascii	"\354\363n\015\226v \351\361\356~\230\325\"h`\013m\203"
 140      967620E9 
 140      F1EE7E98 
 140      D5226860 
 140      0B6D83
 141 0490 7975604B 		.ascii	"yu`K\273\332m\006\314\276\257\324W\321U\034\036\227"
 141      BBDA6D06 
 141      CCBEAFD4 
 141      57D1551C 
 141      1E97
 142 04a2 4BDDDFCA 		.ascii	"K\335\337\312\270|\231F\016\353q\211:\345\370};7\313"
 142      B87C9946 
 142      0EEB7189 
 142      3AE5F87D 
 142      3B37CB
 143 04b5 F2029766 		.ascii	"\362\002\227f\236.+9P\220\204\306:\214\035\273u\340"
 143      9E2E2B39 
 143      509084C6 
 143      3A8C1DBB 
 143      75E0
 144 04c7 F8434AC7 		.ascii	"\370CJ\307vPu\354\366#+\350\314\323\2455_\011\315_\204"
 144      765075EC 
 144      F6232BE8 
 144      CCD3A535 
 144      5F09CD5F 
 145 04dc E6D7199B 		.ascii	"\346\327\031\233?1\330\377\230\322\374:\252\346\317"
 145      3F31D8FF 
 145      98D2FC3A 
 145      AAE6CF
 146 04eb 1F337983 		.ascii	"\0373y\203\023\330\307\276\233t\2723\360\305\230W\240"
 146      13D8C7BE 
 146      9B74BA33 
 146      F0C59857 
 146      A0
 147 04fc 91D7C07E 		.ascii	"\221\327\300~6\246\033\273\357\361L\262-x&\012p\314"
 147      36A61BBB 
 147      EFF14CB2 
 147      2D78260A 
 147      70CC
 148 050e F6748DFB 		.ascii	"\366t\215\373a\231/\0223\372\370\033\320S\032\017\273"
 148      61992F12 
 148      33FAF81B 
 148      D0531A0F 
 148      BB
 149 051f 6D23EA6D 		.ascii	"m#\352m\370\313c0 \024\260\367h\300,\015\2511\372\025"
 149      F8CB6330 
 149      2014B0F7 
 149      68C02C0D 
 149      A931FA15 
 150 0533 0976D036 		.ascii	"\011v\3206\230\236\263\177\220`]4`9\326\234\335\"\301"
 150      989EB37F 
 150      90605D34 
 150      6039D69C 
 150      DD22C1
 151 0546 8ED806D3 		.ascii	"\216\330\006\323s\3665\011v\214\006l\2645g\337\220`"
ARM GAS  /tmp/ccpvygeP.s 			page 11


 151      73F63509 
 151      768C066C 
 151      B43567DF 
 151      9060
 152 0558 BDB6C1F4 		.ascii	"\275\266\301\364\234\335%\301N\323\200y\2559k\371\210"
 152      9CDD25C1 
 152      4ED38079 
 152      AD396BF9 
 152      88
 153 0569 003B6B1B 		.ascii	"\000;k\033L\317Y+\011v\236\006l\2145gm$\330\005\333"
 153      4CCF592B 
 153      09769E06 
 153      6C8C3567 
 153      6D24D805 
 154 057e 607ACE96 		.ascii	"`z\316\226\223`\227i\300\362\2549[I\202]\261\015\246"
 154      93609769 
 154      C0F2AC39 
 154      5B49825D 
 154      B10DA6
 155 0591 E76C3509 		.ascii	"\347l5\011v\225\006l\2745g\355$\330u\333`z\316\336&"
 155      7695066C 
 155      BC3567ED 
 155      24D875DB 
 155      607ACEDE 
 156 05a6 C16ED280 		.ascii	"\301n\322\200M\264\346l3\011\366\265m0=g\357\222`wh"
 156      4DB4E66C 
 156      3309F6B5 
 156      6D303D67 
 156      EF926077 
 157 05bb C0A65873 		.ascii	"\300\246Xs\266\215\004\223=v\301\364\234\355 \301\232"
 157      B68D0493 
 157      3D76C1F4 
 157      9CED20C1 
 157      9A
 158 05cc 68C09EB4 		.ascii	"h\300\236\264\346l\027\011\326l\033L\317\331\036\022"
 158      E66C1709 
 158      D66C1B4C 
 158      CFD91E12 
 159 05dc 6C010DD8 		.ascii	"l\001\015\330S\326\234\355#\301\026\331\006\323sv\234"
 159      53D69CED 
 159      23C116D9 
 159      06D37376 
 159      9C
 160 05ed 045B4203 		.ascii	"\004[B\0036\323\204\263\370\317\254\036\254Ks\304\273"
 160      36D384B3 
 160      F8CFAC1E 
 160      AC4B73C4 
 160      BB
 161 05fe 5A9B479B 		.ascii	"Z\233G\233\340\330\214\321L\002c\245\307\356\214L'7"
 161      E0D88CD1 
 161      4C0263A5 
 161      C7EE8C4C 
 161      2737
 162 0610 9E26DFB7 		.ascii	"\236&\337\267K\215\363\312\\\265\203\0061I\000\\\335"
 162      4B8DF3CA 
 162      5CB58306 
 162      3149005C 
ARM GAS  /tmp/ccpvygeP.s 			page 12


 162      DD
 163 0621 454C7C37 		.ascii	"EL|7\330\0063\2302\006\323M\235\324)pl}4\371\202\007"
 163      D8063398 
 163      3206D34D 
 163      9DD42970 
 163      6C7D34F9 
 164 0637 DE74E1E2 		.ascii	"\336t\341\342\205\345\321\243\315\313\012\354E\016\277"
 164      85E5D1A3 
 164      CDCB0AEC 
 164      450EBF
 165 0646 C17FCA79 		.ascii	"\301\177\312y\342\\(i-\245\254\030l\364\230\355\337"
 165      E25C2869 
 165      2DA5AC18 
 165      6CF498ED 
 165      DF
 166 0657 0040F2AA 		.ascii	"\000@\362\252V\226\360\011i\011[h\324\224$\264\237\357"
 166      5696F009 
 166      69095B68 
 166      D49424B4 
 166      9FEF
 167 0669 6A87E54C 		.ascii	"j\207\345LB\336\024+\354}\375\352\373\301\177\303\373"
 167      42DE142B 
 167      EC7DFDEA 
 167      FBC17FC3 
 167      FB
 168 067a C12E8FE9 		.ascii	"\301.\217\351r\032\005\320\326\371\177\374w\000\372"
 168      721A05D0 
 168      D6F97FFC 
 168      7700FA
 169 0689 0C800E0E 		.ascii	"\014\200\016\016\033\350\374\213\035\312\266\324U\000"
 169      1BE8FC8B 
 169      1DCAB6D4 
 169      5500
 170 0697 3A620052 		.ascii	":b\000R\227q\010\275\263\372\027\226\244\213C\337bY"
 170      977108BD 
 170      B3FA1796 
 170      A48B43DF 
 170      6259
 171 06a9 8E3969EC 		.ascii	"\2169i\354-\263\325#\353\271\023\032s\177\271\177\347"
 171      2DB3D523 
 171      EBB9131A 
 171      737FB97F 
 171      E7
 172 06ba 46596E72 		.ascii	"FYnr\331\350\257\213j\177}\005\33297D;\237q\366\324"
 172      D9E8AF8B 
 172      6A7F7D05 
 172      DA393744 
 172      3B9F71F6 
 173 06cf C3319FDA 		.ascii	"\3031\237\332\026c\214A\214\350\030\333b|\246\212q\033"
 173      16638C41 
 173      8CE818DB 
 173      627CA68A 
 173      711B
 174 06e1 C4F8FBB7 		.ascii	"\304\370\373\267 \306\015\333b\344\021b\300;\351\303"
 174      20C60DDB 
 174      62E41162 
 174      C03BE9C3 
ARM GAS  /tmp/ccpvygeP.s 			page 13


 175 06f1 CA3BE93D 		.ascii	"\312;\351=Lk\362wR\314\317]\356\036\375\002O\337a\274"
 175      4C6BF277 
 175      52CCCF5D 
 175      EE1EFD02 
 175      4FDF61BC 
 176 0705 AE8AB329 		.ascii	"\256\212\263)Vx\016\267\253\213\014\312\016\3617\300"
 176      56780EB7 
 176      AB8B0CCA 
 176      0EF137C0 
 177 0715 3BAE6B33 		.ascii	";\256k3\002\250xmG\300\327*`M\031\377\014Xct\313\357"
 177      02A8786D 
 177      47C0D72A 
 177      604D19FF 
 177      0C586374 
 178 072b B41590C7 		.ascii	"\264\025\220\307a\315\342\237\204;q\304\366\232E\347"
 178      61CDE29F 
 178      843B71C4 
 178      F69A45E7 
 179 073b 22C538E6 		.ascii	"\"\3058\346;`\315\"\343[Y\263xe\270r\304\177(\214eP"
 179      3B60CD22 
 179      E35B59B3 
 179      7865B872 
 179      C47F288C 
 180 0751 F867AF65 		.ascii	"\370g\257e?!\033\273\3650\345\272G|y\257\177\364!X\001"
 180      3F211BBB 
 180      F530E5BA 
 180      477C79AF 
 180      7FF42158 
 181 0766 58E4C00B 		.ascii	"X\344\300\013co\032\224A\261~\262\023\252\2648\206,"
 181      636F1A94 
 181      41B17EB2 
 181      13AAB438 
 181      862C
 182 0778 8C1DBF57 		.ascii	"\214\035\277WY\300\300\177Q\254\237\350\026\306\004"
 182      59C0C07F 
 182      51AC9FE8 
 182      16C604
 183 0787 7619C7A9 		.ascii	"v\031\307\251\260\303\325\247\256\013\023\374\011l\253"
 183      B0C3D5A7 
 183      AE0B13FC 
 183      096CAB
 184 0796 0387E2A5 		.ascii	"\003\207\342\245\016\335\002z\267m\335{I\335G\007\216"
 184      0EDD027A 
 184      B76DDD7B 
 184      49DD4707 
 184      8E
 185 07a7 B4B30AFF 		.ascii	"\264\263\012\377\312Bi\257\021o\"9MR\223\226\257\204"
 185      CA4269AF 
 185      116F2239 
 185      4D529396 
 185      AF84
 186 07b9 72B4B587 		.ascii	"r\264\265\207\030s\037\3230\227\344-\256C\001S\014\376"
 186      18731FD3 
 186      3097E42D 
 186      AE430153 
 186      0CFE
 187 07cb A26D30AF 		.ascii	"\242m0\257\016"
ARM GAS  /tmp/ccpvygeP.s 			page 14


 187      0E
 188 07d0 6CEF6293 		.ascii	"l\357b\223\205Xe\361\331\312\233\265;\210Y\310U\232"
 188      855865F1 
 188      D9CA9BB5 
 188      3B8859C8 
 188      559A
 189 07e2 F693BCF8 		.ascii	"\366\223\274\370\235\354\321\274\233\262\350x\3336\236"
 189      9DECD1BC 
 189      9BB2E878 
 189      DB369E
 190 07f1 5E9E6B8B 		.ascii	"^\236k\213u\016i^&\005\334Dj\303K\254\030#\223\2039"
 190      750E695E 
 190      2605DC44 
 190      6AC34BAC 
 190      18239383 
 191 0806 601B87F7 		.ascii	"`\033\207\367\\\226\003]\011t\015\320s@\317\003\375"
 191      5C96035D 
 191      09740DD0 
 191      7340CF03 
 191      FD
 192 0817 1BD07EA0 		.ascii	"\033\320~\240\327\201\336\002z\007\350B\007\246\313"
 192      D781DE02 
 192      7A07E842 
 192      07A6CB
 193 0826 80AE00BA 		.ascii	"\200\256\000\272\012\350\313@;\200v\222\346m\325/\312"
 193      0AE8CB40 
 193      3B807692 
 193      E66DD52F 
 193      CA
 194 0837 508B0F4C 		.ascii	"P\213\017Lm\324-\030\366r\364\251\304r4b\3156\2307\231"
 194      6DD42D18 
 194      F672F4A9 
 194      C4723462 
 194      CD369837 
 195 084c 2617109A 		.ascii	"&\027\020\232\374\035hr!h\343U\375@^\230\251m\220$\031"
 195      FC1D6872 
 195      2168E355 
 195      FD405E98 
 195      A96D9024 
 196 0861 78D622C4 		.ascii	"x\326\"\304Z\257\364\273W\311\321y\016\355\345\242\315"
 196      5AAFF4BB 
 196      57C9D179 
 196      0EEDE5A2 
 196      CD
 197 0872 0898F2DD 		.ascii	"\010\230\362\335G\257\223\273\242\341,\203\262\373c"
 197      47AF93BB 
 197      A2E12C83 
 197      B2FB63
 198 0881 D527AF91 		.ascii	"\325'\257\221c\245\335v\333IU\330H\250p\036\250\360"
 198      63A5DD76 
 198      DB4955D8 
 198      48A8701E 
 198      A8F0
 199 0893 7950E1EF 		.ascii	"yP\341\357\301d6\220\212\024\330&N;\223\243B\353\267"
 199      C1643690 
 199      8A14D826 
 199      4E3B93A3 
ARM GAS  /tmp/ccpvygeP.s 			page 15


 199      42EBB7
 200 08a6 A292341E 		.ascii	"\242\2224\036\337>\276q\312\344(\207\262\011\223,(\355"
 200      DF3EBE71 
 200      CAE42887 
 200      B209932C 
 200      28ED
 201 08b8 EEBBEF2D 		.ascii	"\356\273\357-\010\035o:`\251.\323\030\241\027q\206u"
 201      081D6F3A 
 201      60A92ED3 
 201      18A11771 
 201      8675
 202 08ca 69832173 		.ascii	"i\203!s\314\347\231\024[{I&\317\275/\335<\30565\311"
 202      CCE79914 
 202      5B7B4926 
 202      CFBD2FDD 
 202      3CC53635 
 203 08df AFE7A913 		.ascii	"\257\347\251\023\013\271Y\036\363z\"\010\346h\030\\"
 203      0BB9591E 
 203      F37A2208 
 203      E668185C 
 204 08ef 9CEFE856 		.ascii	"\234\357\350Ve\213r\023x\331\033\006\246\251a\320\253"
 204      658B7213 
 204      78D91B06 
 204      A6A961D0 
 204      AB
 205 0900 CEF6FF80 		.ascii	"\316\366\377\200\371\311f\000\032\0346\320\371\027_"
 205      F9C96600 
 205      1A1C36D0 
 205      F9175F
 206 090f 538E206C 		.ascii	"S\216 l\005\240\027\262\214jt\030\3469\016\375<\307"
 206      05A017B2 
 206      8C6A7418 
 206      E6390EFD 
 206      3CC7
 207 0921 E14924F0 		.ascii	"\341I$\360q\305\377\303\302h\032\226e\3500\235D\251"
 207      71C5FFC3 
 207      C2681A96 
 207      65E8309D 
 207      44A9
 208 0933 E63EB8C3 		.ascii	"\346>\270\303\356\250\306\246\235\335XiD\264\025\321"
 208      EEA8C6A6 
 208      9DDD5869 
 208      44B415D1 
 209 0943 1BA3DF9C 		.ascii	"\033\243\337\234\005_\246\200\275J\003\226d\205wY\307"
 209      055FA680 
 209      BD4A0396 
 209      64857759 
 209      C7
 210 0954 2B96DB43 		.ascii	"+\226\333C\235)\0175\305v^\350\376O|\304.\365\301\246"
 210      9D290F35 
 210      C5765EE8 
 210      FE4F7CC4 
 210      2EF5C1A6 
 211 0968 A883EE60 		.ascii	"\250\203\356`\323\001\207q\007\271\007\0166\035\240"
 211      D3018771 
 211      07B9070E 
 211      361DA0
ARM GAS  /tmp/ccpvygeP.s 			page 16


 212 0977 9AADDD34 		.ascii	"\232\255\3354\233\003\230\235\363\213\273\214\321\011"
 212      9B03989D 
 212      F38BBB8C 
 212      D109
 213 0985 614E5FEE 		.ascii	"aN_\356~L9/\370!L:7}'\365yA\035\016\346\257\333\310"
 213      7E4C392F 
 213      F8214C3A 
 213      377D27F5 
 213      79411D0E 
 214 099d FF9663C0 		.ascii	"\377\226c\300\177wj\376\3475E\267\253\333e0\230\232"
 214      7F776AFE 
 214      E73545B7 
 214      ABDB6530 
 214      989A
 215 09af 92BE3508 		.ascii	"\222\2765\010\354E8|A\363\022p\000$\351\266?iU\331\332"
 215      EC45387C 
 215      41F31270 
 215      0024E9B6 
 215      3F6955D9 
 216 09c4 A16C771C 		.ascii	"\241lw\034\205\361\372\201m0\257\016l\027\011v\230\006"
 216      85F1FA81 
 216      6D30AF0E 
 216      6C170976 
 216      9806
 217 09d6 CC2A8821 		.ascii	"\314*\210!\260=$X\217m0=g\373H\260^\0320\253\205@\004"
 217      B03D2458 
 217      8F6D303D 
 217      67FB48B0 
 217      5E1A30AB 
 218 09ed 769C04FB 		.ascii	"v\234\004\373\213m0\257\231\2250C\214L`\017\303[\303"
 218      8B6D30AF 
 218      99953043 
 218      8C4C600F 
 218      C35BC3
 219 0a00 1188943D 		.ascii	"\021\210\224=@\217\003\375\010\350\237\201\236\242\231"
 219      408F03FD 
 219      08E89F81 
 219      9EA299
 220 0a0f 747D4006 		.ascii	"t}@\006\370\277\002\303\007\206g1\310\355\355\274\360"
 220      F8BF02C3 
 220      07866731 
 220      C8EDEDBC 
 220      F0
 221 0a20 B79F2A0B 		.ascii	"\267\237*\013\253\206\030\213\365a\305\301\031\222\203"
 221      AB86188B 
 221      F561C5C1 
 221      199283
 222 0a2f 0BB639F0 		.ascii	"\013\2669\360\222\034D\007z\224EAmi\256\337\210G{\350"
 222      921C4407 
 222      7A944541 
 222      6D69AEDF 
 222      88477BE8 
 223 0a43 499B2EF5 		.ascii	"I\233.\365d\276=S\003\273j\033,]\007\326r\214\000\273"
 223      64BE3D53 
 223      03BB6A1B 
 223      2C5D07D6 
 223      728C00BB 
ARM GAS  /tmp/ccpvygeP.s 			page 17


 224 0a57 6D1B2C67 		.ascii	"m\033,g\210E(\266p\020l\341}\350\363>\240\177\005\372"
 224      884528B6 
 224      70106CE1 
 224      7DE8F33E 
 224      A07F05FA 
 225 0a6b 31D0987E 		.ascii	"1\320\230~B*g\033\343\256\342c\011\324\2043fhq\255\372"
 225      422A671B 
 225      E3AEE263 
 225      09D48433 
 225      666871AD 
 226 0a80 761FD9B7 		.ascii	"v\037\331\267K\263\355F-]\337\242\240\332uY\013\252"
 226      4BB3ED46 
 226      2D5DDFA2 
 226      A0DA7559 
 226      0BAA
 227 0a92 FB602EB6 		.ascii	"\373`.\266\212\0061\311\233\350\273\037\033W\332\315"
 227      8A0631C9 
 227      9BE8BB1F 
 227      1B57DACD 
 228 0aa2 BC3D47F2 		.ascii	"\274=G\362\026\217\032\373\237V\242F?D\215W\262SG\015"
 228      168F1AFB 
 228      9F56A246 
 228      3F448D57 
 228      B253470D 
 229 0ab6 4E2FA3C0 		.ascii	"N/\243\300^1F\215\333\275\0205\256PE\215;\275m\352\233"
 229      5E31468D 
 229      DBBD1035 
 229      AE50458D 
 229      3BBD6DEA 
 230 0acb A2E26DFE 		.ascii	"\242\342m\376\000,\\\031\266\273\277\333K\270\256M\266"
 230      002C5C19 
 230      B6BBBFDB 
 230      4BB8AE4D 
 230      B6
 231 0adc C1BC3AB0 		.ascii	"\301\274:\260\226S\004\330\026\032\260$\356\276\225"
 231      965304D8 
 231      161AB024 
 231      EEBE95
 232 0aeb 04DB611B 		.ascii	"\004\333a\033L\317Y\033\011\266\227\006,\211\273_N\202"
 232      4CCF591B 
 232      09B69706 
 232      2C89BB5F 
 232      4E82
 233 0afd 456D83E9 		.ascii	"Em\203\3519[I\202\275O\003f\265;\202\300V\223`\207l"
 233      395B4982 
 233      BD4F0366 
 233      B53B82C0 
 233      56936087 
 234 0b12 83E9396B 		.ascii	"\203\3519k'\301\216\322\200y\2559\353 \301>\262\015"
 234      27C18ED2 
 234      8079AD39 
 234      EB20C13E 
 234      B20D
 235 0b24 E6351B12 		.ascii	"\3465\033\022\312\217\034Q\310\315\202[\374;8\253\253"
 235      CA8F1C51 
 235      C8CD825B 
 235      FC3B38AB 
ARM GAS  /tmp/ccpvygeP.s 			page 18


 235      AB
 236 0b35 40AF01BD 		.ascii	"@\257\001\275\016\364\006\320\233@o\003\035\000z\007"
 236      0EF406D0 
 236      9B406F03 
 236      1D007A07 
 237 0b45 E8208D73 		.ascii	"\350 \215s\273L:\267\323\266]QRA\022\037\237\010\354"
 237      BB4C3AB7 
 237      D3B65D51 
 237      5241121F 
 237      9F08EC
 238 0b58 2E98F1ED 		.ascii	".\230\361\355\206\303\261=@o\003\275\013\364\015`x#"
 238      86C3B13D 
 238      406F03BD 
 238      0BF40D60 
 238      7823
 239 0b6a D09D4077 		.ascii	"\320\235@w\003\335\013\364\"\320K4\342lM\034\251\025"
 239      03DD0BF4 
 239      22D04B34 
 239      E26C4D1C 
 239      A915
 240 0b7c D8DF3AF1 		.ascii	"\330\337:\361\353\366f\033Gj\211NF\276\372\334\342\213"
 240      EBF6661B 
 240      476A894E 
 240      46BEFADC 
 240      E28B
 241 0b8e 6BED1ED6 		.ascii	"k\355\036\326\276\336\2147\025\232\234\370\260\366Y"
 241      BEDE8C37 
 241      159A9CF8 
 241      B0F659
 242 0b9d 833FA53C 		.ascii	"\203?\245<\254\335\3544~m0\331\253\344\246>\252\335"
 242      ACDDEC34 
 242      7E6D30D9 
 242      ABE4A63E 
 242      AADD
 243 0baf 9F3DF4DB 		.ascii	"\237=\364\333\227k\331\246\337\276\374#\333\364\004"
 243      976BD9A6 
 243      DFBEFC23 
 243      DBF404
 244 0bbe F79D6CFB 		.ascii	"\367\235l\373'\270\023\034\013\354|'\356\350\027\234"
 244      27B8131C 
 244      0BEC7C27 
 244      EEE8179C 
 245 0bce E627B805 		.ascii	"\346'\270\005\366O\254\241SR~\202\340%;%\272\264k\261"
 245      F64FACA1 
 245      53527E82 
 245      E0253B25 
 245      BAB46BB1 
 246 0be2 6E72346F 		.ascii	"nr4o\004k\023O\267\031\026m\353\"\3463\013m\203\351"
 246      046B134F 
 246      B719166D 
 246      EB22E633 
 246      0B6D83E9 
 247 0bf6 B6A4A2CB 		.ascii	"\266\244\242\313\2378>s$\323\002Q\363\365\354DJ\375"
 247      9F383E73 
 247      24D30251 
 247      F3F5EC44 
 247      4AFD
ARM GAS  /tmp/ccpvygeP.s 			page 19


 248 0c08 C68F66A9 		.ascii	"\306\217f\251\242k\233\262+\273\002\372\245m\204\311"
 248      A26B9BB2 
 248      2BBB02FA 
 248      A56D84C9 
 249 0c18 520515D0 		.ascii	"R\005\025\320\371\303\033\224]\331\325\000\324n\000"
 249      F9C31B94 
 249      5DD9D500 
 249      D46E00
 250 0c27 1258E37E 		.ascii	"\022X\343~\035\247\177\033\343\360\307{w\007\007\023"
 250      1DA77F1B 
 250      E3F0C77B 
 250      77070713 
 251 0c37 1FEFE17D 		.ascii	"\037\357\341}\361!]O]KeU\216O \274*\302r\347HR4m\266"
 251      F1215D4F 
 251      5D4B6555 
 251      8E4F20BC 
 251      2AC272E7 
 252 0c50 9D653DD9 		.ascii	"\235e=\331^\343L\354\333gy\022\011\355\203\016\255\251"
 252      5EE34CEC 
 252      DB677912 
 252      09ED830E 
 252      ADA9
 253 0c62 F8B9D099 		.ascii	"\370\271\320\231j\305e\266\233\352\260hJ\373\032\225"
 253      6AC565B6 
 253      9BEAB068 
 253      4AFB1A95 
 254 0c72 6336184D 		.ascii	"c6\030MF\337l\252\331\271\214\274\314\245\023,\232h"
 254      46DF6CAA 
 254      D9B98CBC 
 254      CCA5132C 
 254      9A68
 255 0c84 BD9E6766 		.ascii	"\275\236gf9\212!h\320\272\345B8\226b[\242u\026\022i"
 255      398A2168 
 255      D0BAE542 
 255      3896625B 
 255      A2751612 
 256 0c99 DF726A4D 		.ascii	"\337rjM\305?'\314S+\256U\233J(\005I\377\316\020\351"
 256      C53F27CC 
 256      532BAE55 
 256      9B4A2805 
 256      49FFCE10 
 257 0cae 75F5D464 		.ascii	"u\365\324d\265\245\364\321\227\347/N\034\200\220\251"
 257      B5A5F4D1 
 257      97E72F4E 
 257      1C8090A9 
 258 0cbe CE2D74BD 		.ascii	"\316-t\275\365 \030\366\0060\354=\346#\204\346\334\302"
 258      F52018F6 
 258      0630EC3D 
 258      E62384E6 
 258      DCC2
 259 0cd0 E135B900 		.ascii	"\3415\271\000\364\006\000\035\0342B\030\303\010a\364"
 259      F406001D 
 259      1C324218 
 259      C30861F4 
 260 0ce0 B68E1EE5 		.ascii	"\266\216\036\345\301A\322\326Q\316s\314\260\352\240"
 260      C141D2D6 
 260      51CE73CC 
ARM GAS  /tmp/ccpvygeP.s 			page 20


 260      B0EAA0
 261 0cef 19098DEB 		.ascii	"\031\011\215\353Y\311&\263\243\313\373\331k8Zi\252\351"
 261      59C926B3 
 261      A3CBFBD9 
 261      6B385A69 
 261      AAE9
 262 0d01 B30F99CE 		.ascii	"\263\017\231\316X\376\310/b\005v\013\304\363w!z7:1m"
 262      58FEC82F 
 262      6205760B 
 262      C4F37721 
 262      7A373A31 
 263 0d16 01DA0AB4 		.ascii	"\001\332\012\264\015h'\320\365@\377\350\244\210\336"
 263      0D6827D0 
 263      F540FFE8 
 263      A488DE
 264 0d25 1B13D15B 		.ascii	"\033\023\321[\375\3767\036\321\343\317\3529\003\343"
 264      FDFE371E 
 264      D1E3CFEA 
 264      3903E3
 265 0d34 B3C0CE48 		.ascii	"\263\300\316H\254\220r\314%Cg\376\220Y'\313\255\261"
 265      AC9072CC 
 265      254367FE 
 265      905927CB 
 265      ADB1
 266 0d46 F5C7F047 		.ascii	"\365\307\360G2\234\322\022\307|\011\245\326\262\367"
 266      329CD212 
 266      C77C09A5 
 266      D6B2F7
 267 0d55 9B72A4F2 		.ascii	"\233r\244\362\243T\225w\213S\024fP\344LQm+Qm\340W\243"
 267      A3549577 
 267      8B531466 
 267      50E44C51 
 267      6D2B516D 
 268 0d6c 151E0576 		.ascii	"\025\036\005v\011LG\210j\206\363L \211Zm\357\207\231"
 268      094C4788 
 268      6A86F34C 
 268      20895A6D 
 268      EF8799
 269 0d7f 795ABDA5 		.ascii	"yZ\275\2454\365\030\346\307\314zl\370\233\232\237\317"
 269      34F518E6 
 269      C7CC7A6C 
 269      F89B9A9F 
 269      CF
 270 0d90 712ABB9C 		.ascii	"q*\273\234L\022.\265.u\352\276\253\307_\324\277\035"
 270      4C122EB5 
 270      2E75EABE 
 270      ABC75FD4 
 270      BF1D
 271 0da2 8B6E130F 		.ascii	"\213n\023\017\311_\014\016\216\320}M\257`Zu\335n\247"
 271      C95F0C0E 
 271      8ED07D4D 
 271      AF605A75 
 271      DD6EA7
 272 0db5 EEBB6D45 		.ascii	"\356\273mEw):\351\216Y'5\312[\260\246qud_ \372.g\352"
 272      77293AE9 
 272      8E592735 
 272      CA5BB0A6 
ARM GAS  /tmp/ccpvygeP.s 			page 21


 272      7175645F 
 273 0dce 0E6A94CF 		.ascii	"\016j\224\317i\232\346\230e9\254\276\232\035\215Y\265"
 273      699AE698 
 273      6539ACBE 
 273      9A1D8D59 
 273      B5
 274 0ddf A60ABACF 		.ascii	"\246\012\272\317Tc\247T\215)\212\340\230\227s\350D;"
 274      5463A754 
 274      8D298AE0 
 274      989773E8 
 274      443B
 275 0df1 684F3481 		.ascii	"hO4\201\335o\254fG4\253\326T\321\336\327\213\366\003"
 275      DD6FAC66 
 275      4734ABD6 
 275      54D1DED7 
 275      8BF603
 276 0e04 66AD2C7F 		.ascii	"f\255,\177\024\355:\234\325\362[\031y\255\347\350\017"
 276      14ED3A9C 
 276      D5F25B19 
 276      79ADE7E8 
 276      0F
 277 0e15 842CBF1A 		.ascii	"\204,\277\032s\201k\355\006G\264%\307\350Z\207u do\034"
 277      73816BED 
 277      0647B425 
 277      C7E85A87 
 277      7520646F 
 278 0e2a C6CA0A8F 		.ascii	"\306\312\012\217&$0,\336u;\255m\367O\316\304\336\327"
 278      2624302C 
 278      DE753BAD 
 278      6DF74FCE 
 278      C4DED7
 279 0e3d C8E27060 		.ascii	"\310\342p`\266\030\216\344\326D\202\205y\205\017\373"
 279      B6188EE4 
 279      D6448285 
 279      79850FFB 
 280 0e4d 9929B9D5 		.ascii	"\231)\271\325\241\240\230\353\017U\316\315\255\024g"
 280      A1A098EB 
 280      0F55CECD 
 280      AD1467
 281 0e5c E7FAAB03 		.ascii	"\347\372\253\003\317\004B\221\\)\\_\373l.J\204\245\334"
 281      CF044291 
 281      5C295C5F 
 281      FB6C2E4A 
 281      84A5DC
 282 0e6f BA50588A 		.ascii	"\272PX\212\344\026\225\225\372J\033P\311`]\240\006c"
 282      E4169595 
 282      FA4A1B50 
 282      C9605DA0 
 282      0663
 283 0e81 3CE1F3A1 		.ascii	"<\341\363\241\342\322\334:1\362p5\223\026\214\314\342"
 283      E2D2DC3A 
 283      31F27035 
 283      93168CCC 
 283      E2
 284 0e92 25D713D3 		.ascii	"%\327\023\323fx}\314\017s\353#\341\\!\034|\2506T+>$"
 284      66787DCC 
 284      0F73EB23 
ARM GAS  /tmp/ccpvygeP.s 			page 22


 284      E15C211C 
 284      7CA83654 
 285 0ea9 0ACF0472 		.ascii	"\012\317\004r\003\265\376\232\372J17\"U\006j%T\303\215"
 285      03B5FE9A 
 285      FA4A3137 
 285      2255066A 
 285      2554C38D 
 286 0ebd 6E8505BC 		.ascii	"n\205\005\27446I\341\240\200\030\252\025s\371J\261J"
 286      343649E1 
 286      A08018AA 
 286      1573F94A 
 286      B14A
 287 0ecf A8AF9178 		.ascii	"\250\257\221x\2559\017\317\253\325\2152U3\351J\212\227"
 287      AD390FCF 
 287      ABD58D32 
 287      5533E94A 
 287      8A97
 288 0ee1 8A530957 		.ascii	"\212S\011W-\324\250\322\225W\224\026\026\344N\235Z\234"
 288      2DD4A8D2 
 288      95579416 
 288      16E44E9D 
 288      5A9C
 289 0ef3 5B52E09B 		.ascii	"[R\340\233\235\237\033(\360\36355\225\270%\224\2414"
 289      9D9F1B28 
 289      F0F33535 
 289      95B82594 
 289      A134
 290 0f05 514003A7 		.ascii	"Q@\003\247q\216\000P\345\014t\213H\202$\362R\006\302"
 290      718E0050 
 290      E50C748B 
 290      488224F2 
 290      5206C2
 291 0f18 E1674C2B 		.ascii	"\341gL+\231VR\221\216\223\345\025\323\237\304\330|\331"
 291      99565291 
 291      8E93E515 
 291      D39FC4D8 
 291      7CD9
 292 0f2a A4A2E2A7 		.ascii	"\244\242\342\247\277\203SE\276\212\222_N\342+\236\""
 292      BF835345 
 292      BE8A925F 
 292      4EE22B9E 
 292      22
 293 0f3b 9FCA9E82 		.ascii	"\237\312\236\202\232S\247\373~1\2518\015\3002\021j\250"
 293      9A53A7FB 
 293      7E31A938 
 293      0DC03211 
 293      6AA8
 294 0f4d 2E18AAC4 		.ascii	".\030\252\304\260\323\237,\235^<\211Ge\356Q\223\345"
 294      B0D39F2C 
 294      9D5E3C89 
 294      4765EE51 
 294      93E5
 295 0f5f A53F9F51 		.ascii	"\245?\237Q\316\027O\372e\211o\322H]\336\224\351\345"
 295      CE174FFA 
 295      65896FD2 
 295      485DDE94 
 295      E9E5
ARM GAS  /tmp/ccpvygeP.s 			page 23


 296 0f71 15EE501D 		.ascii	"\025\356P\035\217\253\246\327\253\012\314\340y-\231"
 296      8FABA6D7 
 296      AB0ACCE0 
 296      792D99
 297 0f80 E9AF09F9 		.ascii	"\351\257\011\371\237\345#u\242X\231\215\032\251\254"
 297      9FE52375 
 297      A258998D 
 297      1AA9AC
 298 0f8f 97E6FAE7 		.ascii	"\227\346\372\347\372kP;\331\345\025\305|\361\214\212"
 298      FA6B503B 
 298      D9E515C5 
 298      7CF18C8A 
 299 0f9f A7       		.ascii	"\247"
 300 0fa0 79DFD3BE 		.ascii	"y\337\323\276\251\223FN.*\257 \236\371\202\1771\346"
 300      A993464E 
 300      2E2AAF20 
 300      9EF9827F 
 300      31E6
 301 0fb2 E43FCA4F 		.ascii	"\344?\312O\310\300\010<@`Y}\241\332\252\300,\227\037"
 301      C8C0083C 
 301      4060597D 
 301      A1DAAAC0 
 301      2C971F
 302 0fc5 6E583755 		.ascii	"nX7U5\302\254\0102\0331\034\016\205#\205\024\306\250"
 302      35C2AC08 
 302      321B311C 
 302      0E852385 
 302      14C6A8
 303 0fd8 E9D75F1D 		.ascii	"\351\327_\035\224\032\260\025\005\353%\261\201\227\322"
 303      941AB015 
 303      05EB25B1 
 303      8197D2
 304 0fe7 E03EDE16 		.ascii	"\340>\336\026BdnD\263\247\021RuX\024*#\374o\352\305"
 304      42646E44 
 304      B3A71152 
 304      7558142A 
 304      23FC6FEA 
 305 0ffc 7A246E8E 		.ascii	"z$n\216"
 306 1000 BF9AD765 		.ascii	"\277\232\327e\215\265\207\354\257\306\266\223\256@\360"
 306      8DB587EC 
 306      AFC6B693 
 306      AE40F0
 307 100f 92270EE7 		.ascii	"\222'\016\347\252\343k\305\006\011\335\352\302\342l"
 307      AAE36BC5 
 307      0609DDEA 
 307      C2E26C
 308 101e B754170E 		.ascii	"\267T\027\016\204x\3451\020r#\315 )\244\011\266Ge\265"
 308      8478E531 
 308      107223CD 
 308      2029A409 
 308      B64765B5 
 309 1032 3F141651 		.ascii	"?\024\026Q\213\2318\033\017\015\277\324\360\263\341"
 309      8B99381B 
 309      0F0DBFD4 
 309      F0B3E1
 310 1041 A1F0B3C7 		.ascii	"\241\360\263\307\0051\357aq\026\032\224\274\344\210"
 310      0531EF61 
ARM GAS  /tmp/ccpvygeP.s 			page 24


 310      71161A94 
 310      BCE488
 311 1050 E43F8AAE 		.ascii	"\344?\212\256q\350\032\217\256\011\216HA\036\272\362"
 311      71E81A8F 
 311      AE098E48 
 311      411EBAF2 
 312 1060 D15580AE 		.ascii	"\321U\200\256Bt\215E\327#\350B\345\012P\271\002T\256"
 312      42748D45 
 312      D723E842 
 312      E50A50B9 
 312      0254AE
 313 1073 00952B44 		.ascii	"\000\225+D\345\012\363\271\360X.\374\010\027~\224\013"
 313      E50AF3B9 
 313      F0582EFC 
 313      08177E94 
 313      0B
 314 1084 8FE3C2E3 		.ascii	"\217\343\302\343\271\360\004G8?\017]\371\\M\030\335"
 314      B9F00447 
 314      383F0F5D 
 314      F95C4D18 
 314      DD
 315 1095 0AD3EA78 		.ascii	"\012\323\352x\304\255\033+f\216\030F\367PM\245\030v"
 315      C4AD1B2B 
 315      668E1846 
 315      F7504DA5 
 315      1876
 316 10a7 FAAB8530 		.ascii	"\372\253\2050\326\226\020\024\323%u\020\271\261\245"
 316      D6961014 
 316      D3257510 
 316      B9B1A5
 317 10b6 8E47FA54 		.ascii	"\216G\372Tl\026\245Pq\370\317-)\343\001=\203Q\271\245"
 317      6C16A550 
 317      71F8CF2D 
 317      29E3013D 
 317      8351B9A5 
 318 10ca B0581501 		.ascii	"\260X\025\001\315\342\204+\\9\027y\250t\261! !\205\210"
 318      CDE2842B 
 318      5C391779 
 318      A874B121 
 318      20218588 
 319 10de AE3952E8 		.ascii	"\2569R\350\231_\327e\212\263\305Z)(D\236\305F8\007'"
 319      995FD765 
 319      8AB3C55A 
 319      2928449E 
 319      C5463807 
 320 10f3 1C757C7D 		.ascii	"\034u|}\266\326\3655\201\010\3629#\010c\3009\236:~\216"
 320      B6D6F535 
 320      8108F239 
 320      230863C0 
 320      399E3A7E 
 321 1108 109002B5 		.ascii	"\020\220\002\265\2632\320X\212\314\002\003I\203$\312"
 321      B332D058 
 321      8ACC0203 
 321      498324CA 
 322 1118 10EBC45A 		.ascii	"\020\353\304Z\344\342f\241R\310Dq\371\014\314\203P\003"
 322      E4E266A1 
 322      52C84471 
ARM GAS  /tmp/ccpvygeP.s 			page 25


 322      F90CCC83 
 322      5003
 323 112a 3D8C32EB 		.ascii	"=\2142\353B\241\032wP1+t\017\315\251\025\303\256 \230"
 323      42A11A77 
 323      50312B74 
 323      0FCDA915 
 323      C3AE2098 
 324 113e C5385B56 		.ascii	"\3058[V\246\362\204:k\224jhHT1,\326\372\221\"\\J\226"
 324      A6F2843A 
 324      6B946A68 
 324      4854312C 
 324      D6FA9122 
 325 1155 078D32A1 		.ascii	"\007\2152\241\2622\314K0\340\321\240\324\006<N:\361"
 325      B232CC4B 
 325      30E0D1A0 
 325      D4063C4E 
 325      3AF1
 326 1167 5F9E7043 		.ascii	"_\236pCeP\300\352\363HZj\262]\327\011t\362\330\206\006"
 326      6550C0EA 
 326      F3485A6A 
 326      B25DD709 
 326      74F2D886 
 327 117c E4E083C8 		.ascii	"\344\340\203\310\227 \034\304\327OS\301 \231s}\245\345"
 327      97201CC4 
 327      D74F53C1 
 327      2099737D 
 327      A5E5
 328 118e 25E50840 		.ascii	"%\345\010@\251Y56/\277\001\233\362\250\342\322\"\276"
 328      A9593536 
 328      2FBF019B 
 328      F2A8E2D2 
 328      22BE
 329 11a0 1C75A310 		.ascii	"\034u\243\020\344+\3200-\026\2538_\231sZqE\231\343\311"
 329      E42BD030 
 329      2D16AB38 
 329      5F99735A 
 329      714599E3 
 330 11b5 A2326769 		.ascii	"\2422gi\036&\371Ee\216\311\2762W\004\012:\003U\376\260"
 330      1E26F945 
 330      658EC9BE 
 330      3257040A 
 330      3A0355FE 
 331 11ca 2B10A90E 		.ascii	"+\020\251\016TI\236\210XS\025\250\255\024\033\\\263"
 331      54499E88 
 331      585315A8 
 331      AD141B5C 
 331      B3
 332 11db 45BF140A 		.ascii	"E\277\024\012\217\212s\306+\245\221\327@\017\341\006"
 332      8F8A73C6 
 332      2BA591D7 
 332      400FE106 
 333 11eb 4CA5864C 		.ascii	"L\245\206L\354f\325\206\034\276\262|t\0258\247\027\225"
 333      EC66D586 
 333      1CBEB27C 
 333      741538A7 
 333      1795
 334 11fd E56352C0 		.ascii	"\345cR\300\025\2279\312QfyY\201\303\347+K\253(+)\237"
ARM GAS  /tmp/ccpvygeP.s 			page 26


 334      159739CA 
 334      51667959 
 334      81C3E72B 
 334      4BAB282B 
 335 1213 E49C3C15 		.ascii	"\344\234<\0251\2034\2345\265\274\024\207\0340\305\364"
 335      3183349C 
 335      35B5BC14 
 335      871C30C5 
 335      F4
 336 1224 92698AEF 		.ascii	"\222i\212\357v\226\024O\235\344*\373/\344\312}\370V"
 336      7696144F 
 336      9DE42AFB 
 336      2FE4CA7D 
 336      F856
 337 1236 5AF4845B 		.ascii	"Z\364\204[\360\373\213\220\316\335Aa\026\334\325\216"
 337      F0FB8B90 
 337      CEDD4161 
 337      16DCD58E 
 338 1246 50E219F4 		.ascii	"P\342\031\364\016*\301?S_\205:2\003\025R\223.\305\332"
 338      0E2AC13F 
 338      535F853A 
 338      32031552 
 338      932EC5DA 
 339 125a D3A1184A 		.ascii	"\323\241\030Jd\011(\237\367\207\352\221\277\010g\005"
 339      6409289F 
 339      F787EA91 
 339      BF086705 
 340 126a 89874C35 		.ascii	"\211\207L5\372\005j\003\222\003\245]\225\020\274\276"
 340      FA056A03 
 340      9203A55D 
 340      9510BCBE 
 341 127a AF66639B 		.ascii	"\257fc\233(\362\373E\024\302\005)\020\252M\253\3059"
 341      28F2FB45 
 341      14C20529 
 341      10AA4DAB 
 341      C539
 342 128c E4BFA5C2 		.ascii	"\344\277\245\302\254ZQB\335\206\300<\330E\006\202x\\"
 342      AC5A5142 
 342      DD86C03C 
 342      D8450682 
 342      785C
 343 129e E15BA85E 		.ascii	"\341[\250^\372_\006\330\204\326"
 343      FA5F06D8 
 343      84D6
 344              		.text
 345              		.section	.gnu.lto_.symtab.43655edf2d32d599,"",%progbits
 346 0000 6C736D33 		.ascii	"lsm303_init\000\000\000\000\000\000\000\000\000\000"
 346      30335F69 
 346      6E697400 
 346      00000000 
 346      00000000 
 347 0015 0000A100 		.ascii	"\000\000\241\000\000\000lsm303_readAcceleration\000"
 347      00006C73 
 347      6D333033 
 347      5F726561 
 347      64416363 
 348 0033 00000000 		.ascii	"\000\000\000\000\000\000\000\000\000\000\000:\002\000"
ARM GAS  /tmp/ccpvygeP.s 			page 27


 348      00000000 
 348      0000003A 
 348      0200
 349 0041 006C736D 		.ascii	"\000lsm303_readMagnetometer\000\000\000\000\000\000"
 349      3330335F 
 349      72656164 
 349      4D61676E 
 349      65746F6D 
 350 005f 00000000 		.ascii	"\000\000\000\000\000\000C\002\000\000"
 350      00004302 
 350      0000
 351              		.text
 352              		.section	.gnu.lto_.opts,"",%progbits
 353 0000 272D6D63 		.ascii	"'-mcpu=cortex-m4' '-mfloat-abi=hard' '-mfpu=fpv4-sp"
 353      70753D63 
 353      6F727465 
 353      782D6D34 
 353      2720272D 
 354 0033 2D643136 		.ascii	"-d16' '-mno-thumb-interwork' '-mthumb' '-O2' '-fomi"
 354      2720272D 
 354      6D6E6F2D 
 354      7468756D 
 354      622D696E 
 355 0066 742D6672 		.ascii	"t-frame-pointer' '-falign-functions=16' '-ffunction"
 355      616D652D 
 355      706F696E 
 355      74657227 
 355      20272D66 
 356 0099 2D736563 		.ascii	"-sections' '-fdata-sections' '-fno-common' '-flto' "
 356      74696F6E 
 356      73272027 
 356      2D666461 
 356      74612D73 
 357 00cc 272D6673 		.ascii	"'-fsingle-precision-constant'\000"
 357      696E676C 
 357      652D7072 
 357      65636973 
 357      696F6E2D 
 358              		.text
 359              		.section	.text.lsm303_init,"ax",%progbits
 360              		.align	2
 361              		.p2align 4,,15
 362              		.global	lsm303_init
 363              		.thumb
 364              		.thumb_func
 365              		.type	lsm303_init, %function
 366              	lsm303_init:
 367              		@ args = 0, pretend = 0, frame = 0
 368              		@ frame_needed = 0, uses_anonymous_args = 0
 369              		@ link register save eliminated.
 370 0000 30B4     		push	{r4, r5}
 371 0002 054C     		ldr	r4, .L2
 372 0004 0160     		str	r1, [r0]
 373 0006 2825     		movs	r5, #40
 374 0008 0021     		movs	r1, #0
 375 000a 4271     		strb	r2, [r0, #5]
 376 000c 8371     		strb	r3, [r0, #6]
ARM GAS  /tmp/ccpvygeP.s 			page 28


 377 000e 0171     		strb	r1, [r0, #4]
 378 0010 2560     		str	r5, [r4]
 379 0012 0846     		mov	r0, r1
 380 0014 30BC     		pop	{r4, r5}
 381 0016 7047     		bx	lr
 382              	.L3:
 383              		.align	2
 384              	.L2:
 385 0018 00000000 		.word	.LANCHOR0
 386              		.size	lsm303_init, .-lsm303_init
 387 001c AFF30080 		.section	.text.lsm303_readAcceleration,"ax",%progbits
 388              		.align	2
 389              		.p2align 4,,15
 390              		.global	lsm303_readAcceleration
 391              		.thumb
 392              		.thumb_func
 393              		.type	lsm303_readAcceleration, %function
 394              	lsm303_readAcceleration:
 395              		@ args = 0, pretend = 0, frame = 0
 396              		@ frame_needed = 0, uses_anonymous_args = 0
 397              		@ link register save eliminated.
 398 0000 0020     		movs	r0, #0
 399 0002 7047     		bx	lr
 400              		.size	lsm303_readAcceleration, .-lsm303_readAcceleration
 401 0004 AFF30080 		.section	.text.lsm303_readMagnetometer,"ax",%progbits
 401      AFF30080 
 401      AFF30080 
 402              		.align	2
 403              		.p2align 4,,15
 404              		.global	lsm303_readMagnetometer
 405              		.thumb
 406              		.thumb_func
 407              		.type	lsm303_readMagnetometer, %function
 408              	lsm303_readMagnetometer:
 409              		@ args = 0, pretend = 0, frame = 0
 410              		@ frame_needed = 0, uses_anonymous_args = 0
 411              		@ link register save eliminated.
 412 0000 0020     		movs	r0, #0
 413 0002 7047     		bx	lr
 414              		.size	lsm303_readMagnetometer, .-lsm303_readMagnetometer
 415 0004 AFF30080 		.section	.bss.timeout,"aw",%nobits
 415      AFF30080 
 415      AFF30080 
 416              		.align	2
 417              		.set	.LANCHOR0,. + 0
 418              		.type	timeout, %object
 419              		.size	timeout, 4
 420              	timeout:
 421 0000 00000000 		.space	4
 422              		.comm	__gnu_lto_v1,1,1
 423              		.ident	"GCC: (GNU Tools for ARM Embedded Processors) 4.8.4 20140526 (release) [ARM/embedded-4_8-br
ARM GAS  /tmp/ccpvygeP.s 			page 29

