ARM GAS  /tmp/ccEGW8Ig.s 			page 1


   1              		.syntax unified
   2              		.cpu cortex-m4
   3              		.eabi_attribute 27, 3
   4              		.eabi_attribute 28, 1
   5              		.fpu fpv4-sp-d16
   6              		.eabi_attribute 20, 1
   7              		.eabi_attribute 21, 1
   8              		.eabi_attribute 23, 3
   9              		.eabi_attribute 24, 1
  10              		.eabi_attribute 25, 1
  11              		.eabi_attribute 26, 1
  12              		.eabi_attribute 30, 2
  13              		.eabi_attribute 34, 1
  14              		.eabi_attribute 18, 4
  15              		.thumb
  16              		.file	"lsm303.c"
  17              		.section	.gnu.lto_.jmpfuncs.3915c6ea2e0b896c,"",%progbits
  18 0000 789C6362 		.ascii	"x\234cb`b\300\006<\24043\003?\013KB&#\204\315\300X\006"
  18      6062C006 
  18      3CA03433 
  18      033F0B4B 
  18      42262384 
  19 0018 A6988114 		.ascii	"\246\230\201\024S\004c&#\243\006\003\003\013\013\003"
  19      53046326 
  19      23A30603 
  19      030B0B03 
  20 0028 BA3C13B2 		.ascii	"\272<\023\262<#\310\012\000\3349\005m"
  20      3C23C80A 
  20      00DC3905 
  20      6D
  21              		.text
  22              		.section	.gnu.lto_.inline.3915c6ea2e0b896c,"",%progbits
  23 0000 789C6362 		.ascii	"x\234cb`b\300\006B\24143\003\003\257\034##\003#\220"
  23      6062C006 
  23      42A13433 
  23      0303AF1C 
  23      23230323 
  24 0015 0D52C9B6 		.ascii	"\015R\311\266@\036\254\201\225\217\201\201e\202\037"
  24      401EAC81 
  24      958F8181 
  24      65821F
  25 0024 08A2B019 		.ascii	"\010\242\260\031\031\230\231\030QT2a\2100\000\000\203"
  25      19989918 
  25      51543261 
  25      88300000 
  25      83
  26 0035 B20857   		.ascii	"\262\010W"
  27              		.text
  28              		.section	.gnu.lto_.pureconst.3915c6ea2e0b896c,"",%progbits
  29 0000 789C6362 		.ascii	"x\234cb`b`g\200\000f\006\011F \027\000\001Y\000*"
  29      60626067 
  29      80006606 
  29      09462017 
  29      00015900 
  30              		.text
  31              		.section	.gnu.lto_lsm303_init.3915c6ea2e0b896c,"",%progbits
  32 0000 789C9551 		.ascii	"x\234\225Q\273j\002A\024=\347\356Nv\261JH\225.\245 "
ARM GAS  /tmp/ccEGW8Ig.s 			page 2


  32      BB6A0241 
  32      143DE7EE 
  32      4E76B14A 
  32      48952EA5 
  33 0015 68C05FF0 		.ascii	"h\300_\360\023\014\3042Yd\031\320\"\012\026Z8F!)\255"
  33      130CC432 
  33      596419D0 
  33      220A165A 
  33      38462129 
  34 002a 932A6D0A 		.ascii	"\223*m\012\363\011\221\364QR\246\363+\014\2611wv\021"
  34      F30991F4 
  34      5152A6F3 
  34      2B0CB131 
  34      777611
  35 003d C42AB970 		.ascii	"\304*\271p\0373\234\307eF 8\2143\315\204\300\251v\006"
  35      1F339CC7 
  35      65462038 
  35      8C33CD84 
  35      C0A97606 
  36 0051 A04C17C0 		.ascii	"\240L\027\300(\026\322\017 \206\302a\203\031\366U\346"
  36      2816D20F 
  36      2086C261 
  36      8319F655 
  36      E6
  37 0062 ABED76B6 		.ascii	"\253\355v\266\236\274\207\005\262M\225\263D\250\023"
  37      9EBC8705 
  37      B24D95B3 
  37      44A813
  38 0071 8D1689FC 		.ascii	"\215\026\211\3741\326)P\260\301\304\271\351y\256\016"
  38      31D62950 
  38      B0C1C4B9 
  38      E979AE0E 
  39 0081 D4B57AC5 		.ascii	"\324\265z\305K\212\357\301\007\3566\343\357/\271\346"
  39      4B8AEFC1 
  39      07EE36E3 
  39      EF2FB9E6 
  40 0091 330D52CA 		.ascii	"3\015R\312\000}e\227\360\3424n-\371\204GZJJ^i\017\262"
  40      007D6597 
  40      F0E2346E 
  40      2DF98447 
  40      5A4A4A5E 
  41 00a8 0D6EB8B7 		.ascii	"\015n\270\267\372\022\367\363R\316\007\006\330\270\007"
  41      FA12F7F3 
  41      52CE0706 
  41      D8B807
  42 00b7 776C1926 		.ascii	"wl\031&\314A\251\347\206)\215\247\233\242\356v\004d"
  42      CC41A9E7 
  42      86298DA7 
  42      9BA2EE76 
  42      0464
  43 00c9 B63FDCB9 		.ascii	"\266?\334\271F\177t\345?\\\243\3145\336w\375\304h\365"
  43      467F74E5 
  43      3F5CA3CC 
  43      35DE77FD 
  43      C468F5
  44 00dc 56C849FE 		.ascii	"V\310I\376>\332\211\325\225\245\257\341\277\345\244"
  44      3EDA89D5 
ARM GAS  /tmp/ccEGW8Ig.s 			page 3


  44      95A5AFE1 
  44      BFE5A4
  45 00eb D6B1BD66 		.ascii	"\326\261\275f\247[iu\333\325\213j9\301/\315VP\322"
  45      A75B6975 
  45      DBD58B6A 
  45      39C12FCD 
  45      5650D2
  46              		.text
  47              		.section	.gnu.lto_lsm303_readAcceleration.3915c6ea2e0b896c,"",%progbits
  48 0000 789C6362 		.ascii	"x\234cb`b@\007\222@\034\001\304\302@\314\310\314\300"
  48      60624007 
  48      92401C01 
  48      C4C240CC 
  48      C8CCC0
  49 0013 C834E11C 		.ascii	"\3104\341\034\003C#\007\023##\210\301\300\310P\317\304"
  49      03432307 
  49      13232388 
  49      C1C0C850 
  49      CFC4
  50 0025 581FC908 		.ascii	"X\037\311\010V\273\236\351\300\203\377\377\327\315i"
  50      56BB9EE9 
  50      C083FFFF 
  50      D7CD69
  51 0034 3DC40A32 		.ascii	"=\304\0122\210\225\241\245\241a\202\002\003C2X:\004"
  51      8895A1A5 
  51      A1618202 
  51      03433258 
  51      3A04
  52 0046 4882F484 		.ascii	"H\202\364\20422\201h\346\213\014\215\017\316s%2.dde"
  52      32328168 
  52      E68B0C8D 
  52      0FCE7325 
  52      322E6464 
  53 005b 8860CC64 		.ascii	"\210`\314d\204[\031\302\310\010R\0002B\320\245(\263"
  53      845B19C2 
  53      C8085200 
  53      3242D0A5 
  53      28B3
  54 006d 2CB5A858 		.ascii	",\265\250X?\2478\327\330\300X/\231\001\000\376\354\036"
  54      3FA738D7 
  54      D8C0582F 
  54      990100FE 
  54      EC1E
  55 007f 44       		.ascii	"D"
  56              		.text
  57              		.section	.gnu.lto_lsm303_readMagnetometer.3915c6ea2e0b896c,"",%progbits
  58 0000 789C6362 		.ascii	"x\234cb`b@\007\222@\034\001\304\302@\314\310\314\300"
  58      60624007 
  58      92401C01 
  58      C4C240CC 
  58      C8CCC0
  59 0013 C834E11C 		.ascii	"\3104\341\034\003C#\007\023##\210\301\300\310P\317\304"
  59      03432307 
  59      13232388 
  59      C1C0C850 
  59      CFC4
  60 0025 581FC908 		.ascii	"X\037\311\010V\273\236\351\300\203\377\377\327\355i"
ARM GAS  /tmp/ccEGW8Ig.s 			page 4


  60      56BB9EE9 
  60      C083FFFF 
  60      D7ED69
  61 0034 3DC40632 		.ascii	"=\304\0062\210\225\241\245\241a\202\002\003C2X:\004"
  61      8895A1A5 
  61      A1618202 
  61      03433258 
  61      3A04
  62 0046 4882F484 		.ascii	"H\202\364\20422\201h\346\213\014\215\017\356s%2.dde"
  62      32328168 
  62      E68B0C8D 
  62      0FEE7325 
  62      322E6464 
  63 005b 8860CC64 		.ascii	"\210`\314d\204[\031\302\310\010R\0002B\320\245(\263"
  63      845B19C2 
  63      C8085200 
  63      3242D0A5 
  63      28B3
  64 006d 2CB5A858 		.ascii	",\265\250X?\2478\327\330\300X/\231\001\000\016\025\036"
  64      3FA738D7 
  64      D8C0582F 
  64      9901000E 
  64      151E
  65 007f 75       		.ascii	"u"
  66              		.text
  67              		.section	.gnu.lto_.symbol_nodes.3915c6ea2e0b896c,"",%progbits
  68 0000 789C6362 		.ascii	"x\234cb`b\360e\200\002\246F\246z\006\206\011\347\030"
  68      6062F065 
  68      8002A646 
  68      A67A0686 
  68      09E718
  69 0013 18EAEBE7 		.ascii	"\030\352\353\347u0251\3253\"q\233\231\352\231\020\\"
  69      75303235 
  69      31D53322 
  69      719B99EA 
  69      99105C
  70 0026 C616A67A 		.ascii	"\306\026\246zf\010\267\241\201\221\231\201\231a\361"
  70      6608B7A1 
  70      81919981 
  70      9961F1
  71 0035 837F60FA 		.ascii	"\203\177`\3721\220f\000\000tM\027$"
  71      31906600 
  71      00744D17 
  71      24
  72              		.text
  73              		.section	.gnu.lto_.refs.3915c6ea2e0b896c,"",%progbits
  74 0000 789C6362 		.ascii	"x\234cb`b`d\200\002\000\000F\000\006"
  74      60626064 
  74      80020000 
  74      460006
  75              		.text
  76              		.section	.gnu.lto_.decls.3915c6ea2e0b896c,"",%progbits
  77 0000 789CBD5C 		.ascii	"x\234\275\\{t\024U\232\257\252n\272\323I&<\034g\360"
  77      7B741455 
  77      9AAFAA6E 
  77      BAD34926 
  77      3C1C67F0 
ARM GAS  /tmp/ccEGW8Ig.s 			page 5


  78 0014 718E3DE7 		.ascii	"q\216=\347\314\314\3418\243y\300(\034w\224l\002C\316"
  78      CCCCE138 
  78      A379C028 
  78      1C77946C 
  78      0243CE
  79 0027 F2F02461 		.ascii	"\362\360$aV\316\3319m\331\251\220^\323\351lw\005\302"
  79      56CED939 
  79      6DD9A990 
  79      5ED3E96C 
  79      7705C2
  80 003a 5F9641B2 		.ascii	"_\226A\262\002\003\306\004\344\261!\304\021\020\025"
  80      0203C604 
  80      E4B121C4 
  80      111015
  81 0049 110CC863 		.ascii	"\021\014\310cx4*I\014\312c0<\202\014\355\254 \017\235"
  81      78342A49 
  81      0CCA6330 
  81      3C820CED 
  81      AC200F9D 
  82 005d 05342222 		.ascii	"\0054\"\"\311\336\373\335\252\356[\225\252\356[=\356"
  82      C9DEFBDD 
  82      AAEE5B95 
  82      AAEE5B3D 
  82      EE
  83 006e F639F5F5 		.ascii	"\3669\365\365\255\333\367\376\356\367}\367\373\356w"
  83      ADDBF7FE 
  83      EEF77DF7 
  83      FBEE77
  84 007d 5F89C009 		.ascii	"_\211\300\011\334\027\034\307\015\242\317\037\2129n"
  84      DC171CC7 
  84      0DA2CF1F 
  84      8A396E
  85 008c 7106C739 		.ascii	"q\006\3079\321\373\243\350\021\320\3632z\334\034\371"
  85      D1FBA3E8 
  85      11D0F332 
  85      7ADC1CF9 
  86 009c E0FC9128 		.ascii	"\340\374\221(s2zf\240\247\\\340\206|\360\357\010\202"
  86      73327A66 
  86      A0A75CE0 
  86      867CF0EF 
  86      0882
  87 00ae FB5781D4 		.ascii	"\373W\201\324\275\023}\377\030=\377&\020\234\231\350"
  87      BD137DFF 
  87      183DFF26 
  87      109C99E8 
  88 00be BB8127D8 		.ascii	"\273\201'\330w#r\257@\322#U<\334\306o\321\367c\350)"
  88      772372AF 
  88      40D22355 
  88      3CDCC66F 
  88      D1F763E8 
  89 00d3 444F91A1 		.ascii	"DO\221\241\015\3346\252\016\030\370\303\253y\306\317"
  89      0DDC36AA 
  89      0E18F8C3 
  89      AB79C6CF 
  90 00e3 0C937233 		.ascii	"\014\223r3L\312\215\342^T\320\307\333\235\303qO\360"
  90      4CCA8DE2 
  90      5E54D0C7 
ARM GAS  /tmp/ccEGW8Ig.s 			page 6


  90      DB9DC371 
  90      4FF0
  91 00f5 229FE3E1 		.ascii	"\"\237\343\341\236\204D\266\207\313F\277\377\202[\247"
  91      9E8444B6 
  91      87CB46BF 
  91      FF825BA7 
  92 0105 284DB105 		.ascii	"(M\261\005\213y\257\310\277\314\217B\314\216\346\271"
  92      8B79AFC8 
  92      BFCC8F42 
  92      CC8EE6B9 
  93 0115 FBB9D750 		.ascii	"\373\271\327P\245&Ei\270c(dJL\216\023\371\365\010J\344"
  93      A5264569 
  93      B8632864 
  93      4A4C8E13 
  93      F9F5084A 
  94 012a D7F1F793 		.ascii	"\327\361\367\223\026\224\350\336\012/\311\345\324|\223"
  94      1694E8DE 
  94      0A2FC9E5 
  94      D47C93
  95 0139 CFCFB876 		.ascii	"\317\317\270v\324d\364\330\266]\274\322\230\355\346"
  95      D464F4D8 
  95      B65DBCD2 
  95      98EDE6
  96 0148 1AD19B12 		.ascii	"\032\321\233\022[\3200ze\242\245\014\255%>\316}tW\206"
  96      5BD0307A 
  96      65A2A50C 
  96      AD253ECE 
  96      7D745786 
  97 015c 20F21B79 		.ascii	" \362\033y7b\376W\274\016\236\001\003\363\363\006\252"
  97      3762FE57 
  97      BC0E9E01 
  97      03F3F306 
  97      AA
  98 016d ABE376AB 		.ascii	"\253\343v\253S \271I\270up\320\267\217\360\200\346\364"
  98      5320B949 
  98      B87570D0 
  98      B78FF080 
  98      E6F4
  99 017f 24B28AE3 		.ascii	"$\262\212\343Y<U\260$\236\253\365\023~\345=\211\304"
  99      593C55B0 
  99      249EABF5 
  99      137EE53D 
  99      89C4
 100 0191 20AF6B80 		.ascii	" \257k\200\346K\3447\361\277@\364M\336aZM\340\246\363"
 100      E64BE437 
 100      F1BF40F4 
 100      4DDE615A 
 100      4DE0A6F3 
 101 01a5 AADACD84 		.ascii	"\252\332\315\204T\223\211fs\264\027M\351\307\277\336"
 101      54938966 
 101      73B4174D 
 101      E9C7BFDE 
 102 01b5 8995EEE1 		.ascii	"\211\225\356\341\236\007\205\255WR(=v\272\361\315_)"
 102      9E0785AD 
 102      5752283D 
 102      76BAF1CD 
 102      5F29
ARM GAS  /tmp/ccEGW8Ig.s 			page 7


 103 01c7 4A86C86F 		.ascii	"J\206\310o\347\261D\363\364\212g\307iY\3246\036pv\002"
 103      E7B144F3 
 103      F48A67C7 
 103      6959D436 
 103      1E707602 
 104 01db CE3BBC1E 		.ascii	"\316;\274\036H\025\225R\012z\327\012\244T`\212\262\002"
 104      48159552 
 104      0A7AD70A 
 104      A454608A 
 104      B202
 105 01ed 17E5EDAA 		.ascii	"\027\345\355\252-\203V[\354\340\242ew)\355\357\362Y"
 105      2D83565B 
 105      ECE0A265 
 105      7729EDEF 
 105      F259
 106 01ff DC222C6F 		.ascii	"\334\",o{\2432\245;\307\304A\242\016\015l|B\364\255"
 106      7BA332A5 
 106      3BC7C441 
 106      A20E0D6C 
 106      7C42F4AD 
 107 0213 877B37F0 		.ascii	"\207{7\360\363\025\005\375\260\017\\o\211\240\027>%"
 107      F31505FD 
 107      B00F5C6F 
 107      89A0173E 
 107      25
 108 0224 90C84779 		.ascii	"\220\310Gy\001\321\003Fw\273\266:[q\222\374\324\016"
 108      01D10346 
 108      77BBB63A 
 108      5B7192FC 
 108      D40E
 109 0236 77B3AFED 		.ascii	"w\263\257\355\247J,\3123{\\\354\334_N\346C\247\275\017"
 109      A74A2CCA 
 109      337B5CEC 
 109      DC5F4EE6 
 109      43A7BD0F 
 110 024a 5ED723A4 		.ascii	"^\327#\244\345v]F\267;\3268\034s\335\305\344x\275\302"
 110      E5765D46 
 110      B73BD638 
 110      1C73DDC5 
 110      E478BDC2 
 111 025e 50CF8B09 		.ascii	"P\317\213\011\246\256wI\320\373\236\232\375U\"\333A"
 111      A6AE7749 
 111      D0FB9E9A 
 111      FD5522DB 
 111      41
 112 026f 653FEB88 		.ascii	"e?\353\210g;\251\354\027\022\331\303(\223Hj\177]\224"
 112      673BA9EC 
 112      1712D9C3 
 112      2893486A 
 112      7F5D94
 113 0282 03778303 		.ascii	"\003w\203\003\177`\341\300\"\337\021\357\311\264<8\266"
 113      7F60E1C0 
 113      22DF11EF 
 113      C9B43C38 
 113      B6
 114 0293 75E96717 		.ascii	"u\351g\027\370\226\371Jw\236\2311\242\"|\362 \020\335"
 114      F896F94A 
ARM GAS  /tmp/ccEGW8Ig.s 			page 8


 114      779E9931 
 114      A2227CF2 
 114      2010DD
 115 02a6 DBC77B53 		.ascii	"\333\307{S\215\355\"\177\012\211\301\022\001\372\214"
 115      8DED227F 
 115      0A89C112 
 115      01FA8C
 116 02b5 26B9A60F 		.ascii	"&\271\246\017L\262\217\311$\267\366-\267g\222\321k'"
 116      4CB28FC9 
 116      24B7F62D 
 116      B76792D1 
 116      6B27
 117 02c7 71083B0B 		.ascii	"q\010;\013\366\270\332\221\226=\306\214\366xz\005\330"
 117      F6B8DA91 
 117      963DC68C 
 117      F6787A05 
 117      D8
 118 02d8 638CC91E 		.ascii	"c\214\311\03678(\333S\363\266:L\015\357\240Cox,\246"
 118      373828DB 
 118      53F3B63A 
 118      4C0DEFA0 
 118      436F782C 
 119 02ed 14A34CE9 		.ascii	"\024\243L\351S0\245\277Y\306\202\223 \177_\332\301\240"
 119      5330A5BF 
 119      59C68293 
 119      207F5FDA 
 119      C1A0
 120 02ff A36F398C 		.ascii	"\243o9\214j\352(N\014)^\326\253!89*\032\034<\3007\300"
 120      6AEA284E 
 120      0C295ED6 
 120      AB213839 
 120      2A1A1C3C 
 121 0316 507619C6 		.ascii	"Pv\031\306\361s\016\323\200\300\000\325\262h\317\004"
 121      F1730ED3 
 121      80C000D5 
 121      B268CF04 
 122 0326 185BBE04 		.ascii	"\030[\276\004\240\213\016c@p\033\002\202[?\310\273="
 122      A08B0E63 
 122      40701B02 
 122      825B3FC8 
 122      BB3D
 123 0338 89049EF6 		.ascii	"\211\004\236\366\015\347\354\026G#\203Q\201:F\315\024"
 123      0DE7EC16 
 123      47238351 
 123      813A46CD 
 123      14
 124 0349 E8A51588 		.ascii	"\350\245\025\210|\361\360;\374\365\006ee\036\273\001"
 124      7CF1F03B 
 124      FCF50665 
 124      651EBB01 
 125 0359 B7F46103 		.ascii	"\267\364a\003\276\016\006<\230\236\001\367\033\015\370"
 125      BE0E063C 
 125      989E01F7 
 125      1B0DF8
 126 0368 1631E07E 		.ascii	"\0261\340~&\003^\352\034j\300k\234\246\006\374\226\323"
 126      26035EEA 
 126      1C6AC06B 
ARM GAS  /tmp/ccEGW8Ig.s 			page 9


 126      9CA606FC 
 126      96D3
 127 037a BE01F753 		.ascii	"\276\001\367S\006\374\015\030\360\015K\003~\337\311"
 127      06FC0D18 
 127      F00D4B03 
 127      7EDFC9
 128 0389 60C01926 		.ascii	"`\300\031&\006L\265GZ:\003-}\302\377\014\321K@\257!"
 128      064CB547 
 128      5A3A032D 
 128      7DC2FF0C 
 128      D14B40AF 
 129 039e 1AFF08DC 		.ascii	"\032\377\010\334\021\247\321\276\310\010E!%\2062.\031"
 129      11A7D1BE 
 129      C8084521 
 129      2586322E 
 129      19
 130 03af 9699A9E0 		.ascii	"\226\231\251\340\012'\320\354 \336\334ih\356@\272\226"
 130      0A27D0EC 
 130      20DEDC69 
 130      68EE40BA 
 130      96
 131 03c0 155D75A6 		.ascii	"\025]u\246\315\236kF\367\257\270\023\333\300\263\002"
 131      CD9E6B46 
 131      F7AFB813 
 131      DBC0B302 
 132 03d0 EEC2D810 		.ascii	"\356\302\330\020i/\033\347W,\376q\205E\012\263\376\001"
 132      692F1BE7 
 132      572CFE71 
 132      85450AB3 
 132      FE01
 133 03e2 299468C7 		.ascii	")\224h\307\2316\036Ka\022H\024^\253?\".C\254\367\363"
 133      99361E4B 
 133      61124814 
 133      5EAB3F22 
 133      2E43ACF7 
 134 03f7 8B17D4E1 		.ascii	"\213\027\324\341\245Q\3003\245\015\303R\316\224\364"
 134      A551C033 
 134      A50DC352 
 134      CE94F4
 135 0406 4002B719 		.ascii	"@\002\267\031\252,\024\014a\251_\364\222\334TAI\211"
 135      AA2C140C 
 135      61A95FF4 
 135      92DC5441 
 135      4989
 136 0418 DE38EF51 		.ascii	"\3368\357Q\232\263M\232\232H\213\254\215\210Wbw}\240"
 136      9AB34D9A 
 136      9A488BAC 
 136      8D885762 
 136      777DA0
 137 042b 2823447E 		.ascii	"(#D~\011p\374\2459\307\355\023\255p\004\3566Ti2p\034"
 137      0970FCA5 
 137      39C7ED13 
 137      AD7004EE 
 137      36546932 
 138 0441 DB7BBDFB 		.ascii	"\333{\275\373\356\225\200\334\304\300vC\264\267q\015"
 138      EE9580DC 
 138      C4C07643 
ARM GAS  /tmp/ccEGW8Ig.s 			page 10


 138      B4B7710D 
 139 0451 D31CB5DD 		.ascii	"\323\034\265\335\2515_\234\020\343\324\225\350h\030"
 139      A9355F9C 
 139      10E3D495 
 139      E86818
 140 0460 8D978314 		.ascii	"\215\227\203\024\357\271R\352]\017#p\037B\225\225C\245"
 140      EFB952EA 
 140      5D0F2370 
 140      1F429595 
 140      43A5
 141 0472 88DD43A4 		.ascii	"\210\335C\244X\311$\305-U\012\221_&d!\330\023qXVG\322"
 141      58C924C5 
 141      2D550A91 
 141      5F266421 
 141      D8137158 
 142 0489 E30D7466 		.ascii	"\343\015tf7\211\032\330Y\333`^\035XKW\253\315\200\271"
 142      37891AD8 
 142      59DB605E 
 142      1D584B57 
 142      ABCD80B9 
 143 049d EAC6C5BB 		.ascii	"\352\306\305\273\366\202\370\355\340\230o\272\177\020"
 143      F682F8ED 
 143      E0986FBA 
 143      7F10
 144 04ab C7DCEE66 		.ascii	"\307\334\356f\020\304\3321Q\257\034\275w\327\333\212"
 144      10C4DA31 
 144      51AF1CBD 
 144      77D7DB8A 
 145 04bb B2D0A5D9 		.ascii	"\262\320\245\331\247\313J\020\201\333\003\215\2557\366"
 145      A7CB4A10 
 145      81DB038D 
 145      AD37F6
 146 04ca ECAA81A3 		.ascii	"\354\252\201\243\017\220\236]\317\324\263;\016\255`"
 146      0F909E5D 
 146      CFD4B33B 
 146      0EAD60
 147 04d9 B34F97D6 		.ascii	"\263O\227\326|\0054?\000\315\277nl~\373\237.=J\232\177"
 147      7C05343F 
 147      00CDBF6E 
 147      6C7EFB9F 
 147      2E3D4A9A 
 148 04ee 9DA9F973 		.ascii	"\235\251\371sGL\226p\"\377\350\235I\273o\340\352\230"
 148      474C9670 
 148      22FFE89D 
 148      49BB6FE0 
 148      EA98
 149 0500 B5D0C866 		.ascii	"\265\320\310f0\240\356\014c\367=\226E\267\005\357T\001"
 149      30A0EE0C 
 149      63F73D96 
 149      45B705EF 
 149      5401
 150 0512 813B96A1 		.ascii	"\201;\226\241q\237\226\375\"1\017<\366\032\364\224\306"
 150      719F96FD 
 150      22310F3C 
 150      F61AF494 
 150      C6
 151 0523 43AF6D44 		.ascii	"C\257mD\275\021_?\002\036A\300N\263\200Y\032RC\364k"
ARM GAS  /tmp/ccEGW8Ig.s 			page 11


 151      BD115F3F 
 151      021E41C0 
 151      4EB38059 
 151      1A5243F4 
 152 0538 1AECAC6D 		.ascii	"\032\354\254m0=g\337\320`\237\262\200\215\260\346\354"
 152      303D67DF 
 152      D0609FB2 
 152      808DB0E6 
 152      EC
 153 0549 5B1AECBC 		.ascii	"[\032\354\274m0=g\337\321`\227X\300F[s\366=\015\366"
 153      6D303D67 
 153      DFD16097 
 153      58C0465B 
 153      73F63D0D 
 154 055e A56D303D 		.ascii	"\245m0=g\0034\3305\0260\2575gM\177\241\300\372m\203"
 154      670334D8 
 154      351630AF 
 154      35674D7F 
 154      A1C0FA6D 
 155 0573 E9396BA6 		.ascii	"\3519k\246\301n\262\200\215\261\346l\031\015v\3336\230"
 155      C16EB280 
 155      8DB1E66C 
 155      190D76DB 
 155      3698
 156 0585 9EB39768 		.ascii	"\236\263\227h\260g=\014`y\326\234\255\244\301\026\330"
 156      B0673D0C 
 156      6079D69C 
 156      ADA4C116 
 156      D8
 157 0596 06D373B6 		.ascii	"\006\323s\266\232\006[\310\0026\336\232\263V\032l\211"
 157      9A065BC8 
 157      0236DE9A 
 157      B3561A6C 
 157      89
 158 05a7 6D303D67 		.ascii	"m0=g[h\260\027Y\300&Zs\3666\015\266\3146\230\236\263"
 158      5B68B017 
 158      59C0265A 
 158      73F6360D 
 158      B6CC3698 
 159 05bd 6D34D80A 		.ascii	"m4\330\012\026\260)\326\234\275C\203\255\266\015\246"
 159      16B029D6 
 159      9CBD4383 
 159      ADB60DA6 
 160 05cd E76C270D 		.ascii	"\347l'\015\266\206\005\354qk\316v\323`\355\266\301\364"
 160      B68605EC 
 160      716BCE76 
 160      D360EDB6 
 160      C1F4
 161 05df 9CEDA1C1 		.ascii	"\234\355\241\301^a\001{\302\232\263}4\330\253\266\301"
 161      5E61017B 
 161      C29AB37D 
 161      34D8ABB6 
 161      C1
 162 05f0 F49C1DA5 		.ascii	"\364\234\035\245\301\336`\001{\322\204\263\370\307\254"
 162      C1DE6001 
 162      7BD284B3 
 162      F8C7AC
ARM GAS  /tmp/ccEGW8Ig.s 			page 12


 163 05ff 1E0ED3AF 		.ascii	"\036\016\323\257\011\324bm\263G\233\340\330\214\321"
 163      09D4626D 
 163      B3479BE0 
 163      D88CD1
 164 060e 5C02E36D 		.ascii	"\\\002\343m\217\335\031\231Nn<O\276w\267\032\347\311"
 164      8FDD1999 
 164      4E6E3C4F 
 164      BE77B71A 
 164      E7C9
 165 0620 6475270B 		.ascii	"du'\013b\222\000\270\272\213\232\371Fm\203\031L\031"
 165      629200B8 
 165      BA8B9AF9 
 165      466D8319 
 165      4C19
 166 0632 83E9A64E 		.ascii	"\203\351\246N\361\255\377h\362\035\017|\276$P\347\004"
 166      F1ADFF68 
 166      F21D0F7C 
 166      BE2450E7 
 166      04
 167 0643 A3CDCB8A 		.ascii	"\243\315\313\212\374\025\001/\341\277\020<q.HZK\221"
 167      FC15012F 
 167      E1BF103C 
 167      712E485A 
 167      4B91
 168 0655 2D836E8F 		.ascii	"-\203n\217~\303!\376IU\325\312\022.\321\226\360\021"
 168      7EC321FE 
 168      4955D5CA 
 168      122ED196 
 168      F011
 169 0667 8B9A9284 		.ascii	"\213\232\222\204\366s]\255\260\237\311~.\262\352\306"
 169      F6735DAD 
 169      B09FC97E 
 169      2EB2EAC6 
 170 0677 51758170 		.ascii	"Qu\201p\025\026\010\037{\2143\314\3556OF\320<\314(\205"
 170      1516081F 
 170      7B8C33CC 
 170      ED364F46 
 170      D03CCC28 
 171 068c D9B68AF5 		.ascii	"\331\266\212\365\234\002\331\342\251\373vmV\224\371"
 171      9C02D9E2 
 171      A9FB766D 
 171      5694F9
 172 069b 2E3B7274 		.ascii	".;rt\253r\364\203\034\347\177\0009\276\264-\307\030"
 172      AB72F483 
 172      1CE77F00 
 172      39BEB42D 
 172      C718
 173 06ad 831CD131 		.ascii	"\203\034\3211\366\3458\245\312\361\035\310\321\377\003"
 173      F6E538A5 
 173      CAF11DC8 
 173      D1FF03
 174 06bc C871DBB6 		.ascii	"\310q\333\266\034y\224\034\260Z{\220\254\326\356\340"
 174      1C79941C 
 174      B05A7B90 
 174      ACD6EEE0 
 175 06cc 9A93AFD6 		.ascii	"\232\223\257\3260?\203\302\035\206\375\355\036\274\345"
 175      303F83C2 
ARM GAS  /tmp/ccEGW8Ig.s 			page 13


 175      1D86FDED 
 175      1EBCE5
 176 06db 88B31936 		.ascii	"\210\263\0316?z\250%\256\302\266\304\275\252j\254\301"
 176      3F7AA825 
 176      AEC2B6C4 
 176      BDAA6AAC 
 176      C1
 177 06ec 8135F65C 		.ascii	"\2015\366\\\246\311\2260\023\322\351\316\367\267\252"
 177      A6C99630 
 177      13D2E9CE 
 177      F7B7AA
 178 06fb DB3F0B00 		.ascii	"\333?\013\000jQ\332P-=;\310q\343\363\000\324\234i\354"
 178      6A51DA50 
 178      2D3D3BC8 
 178      71E3F300 
 178      D49C69EC 
 179 070f 4597A113 		.ascii	"E\227\241\023]\372ND\257\270\245o\361\212\233\177F\315"
 179      5DFA4E44 
 179      AFB8A56F 
 179      F18A9B7F 
 179      46CD
 180 0721 C12F6EEE 		.ascii	"\301/n\356\377\275\236\300\265\002\373\270\003m\006"
 180      FFBD9EC0 
 180      B502FBB8 
 180      036D06
 181 0730 A88401FD 		.ascii	"\250\204\001\375z\227\032\\H'\275\362\017!6D;\026k\333"
 181      7A971A5C 
 181      4827BDF2 
 181      0F213644 
 181      3B166BDB 
 182 0744 348FE1F0 		.ascii	"4\217\341\360\262\351\037\204;v\310\376\306J\364nbu"
 182      B2E91F84 
 182      3B76C8FE 
 182      C64AF46E 
 182      6275
 183 0756 2F82401D 		.ascii	"/\202@\035Cz8\255\215\225\375\351\012\022\377\010\\"
 183      437A38AD 
 183      8D95FDE9 
 183      0A12FF08 
 183      5C
 184 0767 67264310 		.ascii	"g&C\020\361&\353\255o\037d\334\234\211oB^\034\335\015"
 184      F126EBAD 
 184      6F1F64DC 
 184      9C896F42 
 184      5E1CDD0D 
 185 077b CA58E1C0 		.ascii	"\312X\341\300\333w=\006e0l\362\234\206*\253\035C\266"
 185      DB773D06 
 185      65306CF2 
 185      9C862AAB 
 185      1D43B6
 186 078e EF8EDE45 		.ascii	"\357\216\336EvY\360O\014\233<\272\355;\221o\025\004"
 186      7659F04F 
 186      0C9B3CBA 
 186      ED3B916F 
 186      1504
 187 07a0 15365D7D 		.ascii	"\0256]}\352\2720\301\037\202v\340\371\302\032\207n\233"
 187      EABA30C1 
ARM GAS  /tmp/ccEGW8Ig.s 			page 14


 187      1F8276E0 
 187      F9C21A87 
 187      6E9B
 188 07b2 FF926DDD 		.ascii	"\377\222m\335{i\335Go\035j\345\011\377d;\367+#\336D"
 188      7B69DD47 
 188      6F1D6AE5 
 188      09FF643B 
 188      F72B23DE 
 189 07c7 7A2EA726 		.ascii	"z.\247&-\327\255J\264"
 189      2DD7AD4A 
 189      B4
 190 07d0 F9304CC2 		.ascii	"\3710L\302\210\323\015\2600\227d\251\331F\300\210\301"
 190      88D30DB0 
 190      309764A9 
 190      D946C088 
 190      C1
 191 07e1 3F976517 		.ascii	"?\227e\027\314\253\003\333\273\324d\273\230l\221[\005"
 191      CCAB03DB 
 191      BBD464BB 
 191      986C915B 
 191      05
 192 07f2 960D0E6A 		.ascii	"\226\015\016j\252\364\002K\373IV\247\275\207[UK!;\243"
 192      AAF4024B 
 192      FB4956A7 
 192      BD875B55 
 192      4B213BA3 
 193 0806 AB6CE3E9 		.ascii	"\253l\343\351\345\271\266T7\"\255c\201\233\310lx\211"
 193      E5B9B654 
 193      3722AD63 
 193      819BC86C 
 193      7889
 194 0818 7D6D6484 		.ascii	"}md\2040Q\375/\001\237\014\255\001\272\026\350:\240"
 194      3051FD2F 
 194      019F0CAD 
 194      01BA16E8 
 194      3AA0
 195 082a 9F01BD00 		.ascii	"\237\001\275\000\364\"\320\377\001\3725\320\233@\007"
 195      F422D0FF 
 195      01FA35D0 
 195      9B4007
 196 0839 80BEE480 		.ascii	"\200\276\344\200\272@_\006\372\012\320\365@7\002}\235"
 196      BA405F06 
 196      FA0AD0F5 
 196      4037027D 
 196      9D
 197 084a 366FAB7E 		.ascii	"6o\253~!\256\026wL\315\353\232\322\3364?\221\3304\027"
 197      21AE1677 
 197      4CCDEB9A 
 197      D2DE343F 
 197      91D83417 
 198 085e F936DB60 		.ascii	"\3716\333`\336d\232l\2424\331\014\232l\001ml\322;\362"
 198      DE649A6C 
 198      A234D90C 
 198      9A6C016D 
 198      6CD23BF2 
 199 0872 A62CED18 		.ascii	"\246,\355\030'\211\343Y\213\020\373\370\363\213\356"
 199      2789E359 
ARM GAS  /tmp/ccEGW8Ig.s 			page 15


 199      8B10FBF8 
 199      F38BEE
 200 0881 554AF439 		.ascii	"UJ\3649\207\266\002\332f\004L\271@\323\353d@2\334\270"
 200      87B602DA 
 200      66044CB9 
 200      40D3EB64 
 200      4032DCB8 
 201 0895 20675456 		.ascii	" gTV}\262\225\366\225=\266\333N\252\302\205\224\012"
 201      7DB295F6 
 201      953DB6DB 
 201      4EAAC285 
 201      940A
 202 08a7 17830AFF 		.ascii	"\027\203\012\377\010*\334\014&\263\205V\244\310/\022"
 202      082ADC0C 
 202      26B38556 
 202      A4C82F12 
 203 08b7 0CF74DF4 		.ascii	"\014\367M\364\007fI\032\217\037r\367\2370\271pB\216"
 203      0766491A 
 203      8F1F72F7 
 203      9F30B970 
 203      428E
 204 08c9 8A9204A5 		.ascii	"\212\222\004\245\025\373N\337\273\011B\3076\007\356"
 204      15FB4EDF 
 204      BB0942C7 
 204      3607EE
 205 08d8 805B59C6 		.ascii	"\200[Y\306\010\275L0l\236\033\014Y\340\226f3\034@&Y"
 205      08BD4C30 
 205      6C9E1B0C 
 205      59E09666 
 205      331C4026 
 206 08ed C96C5D7A 		.ascii	"\311l]z\343\004?\177\276\2621O\235Y(\215\312\230\215"
 206      E3043F7F 
 206      BEB2314F 
 206      9D59288D 
 206      CA988D
 207 0900 89203842 		.ascii	"\211 8B\303\020\342|G\267\223\203\324]0\312.\3176\275"
 207      C310E27C 
 207      47B79383 
 207      D45D30CA 
 207      2ECF36BD 
 208 0914 DF901A26 		.ascii	"\337\220\032&v\272q\307\257a\006\272\007\200\326\246"
 208      76BA71C7 
 208      AF6106BA 
 208      0780D6A6 
 209 0924 0DD4B2E8 		.ascii	"\015\324\262\350UrQb?\000m\3146\252\321a\230\3478\364"
 209      55725162 
 209      3F006DCC 
 209      36AAD161 
 209      98E738F4 
 210 0938 F31C8727 		.ascii	"\363\034\207'\221\030\034tp\377\207\205\3214\314\330"
 210      91181C74 
 210      70FF8785 
 210      D134CCD8 
 211 0948 613A8952 		.ascii	"a:\211R\315}p\207\335V\215M\273a\262\223\305\004t\210"
 211      CD7D7087 
 211      DD568D4D 
 211      BB61B293 
ARM GAS  /tmp/ccEGW8Ig.s 			page 16


 211      C5047488 
 212 095c 3A13887E 		.ascii	":\023\210~\177\006\3062\002\366.\013X\222m\350\345m"
 212      7F06C632 
 212      02F62E0B 
 212      58926DE8 
 212      E56D
 213 096e 6B2DCFB0 		.ascii	"k-\317\260\332S^\275\212\355\272\360\301?\341\213\200"
 213      DA535EBD 
 213      8AEDBAF0 
 213      C13FE18B 
 213      80
 214 097f A9AF5FF5 		.ascii	"\251\257_\3658\330\256_}\3500\236s\037\206\353W\037"
 214      38D8AE5F 
 214      7DE8309E 
 214      731F86EB 
 214      571F
 215 0991 32CDD66E 		.ascii	"2\315\326n\230\315\001\314n#\306\207\214\321\011aN^"
 215      98CD01CC 
 215      6E23C687 
 215      8CD10961 
 215      4E5E
 216 09a3 FEE05172 		.ascii	"\376\340Qr\253\361(L:\217\374(\365\255F\035\016\346"
 216      ABF1284C 
 216      3A8FFC28 
 216      F5AD461D 
 216      0EE6
 217 09b5 EFB891FF 		.ascii	"\357\270\221\377\216#\300\377\361\324\374?7?\272C=\323"
 217      8E23C0FF 
 217      F1D4FC3F 
 217      373FBA43 
 217      3DD3
 218 09c7 03679A9F 		.ascii	"\003g\232\237t\331 \362W\340\212\010\313\"\340o \311"
 218      74D920F2 
 218      57E08A08 
 218      CB22E06F 
 218      20C9
 219 09d9 71FB9356 		.ascii	"q\373\223V\225\255\235\344L\346\004\370\353y\333`^\035"
 219      95AD9DE4 
 219      4CE604F8 
 219      EB79DB60 
 219      5E1D
 220 09eb D86E1AEC 		.ascii	"\330n\032\3542\013\230U\020C`{h\260\277\333\006\323"
 220      320B9855 
 220      1043607B 
 220      68B0BFDB 
 220      06D3
 221 09fd 73B68F06 		.ascii	"s\266\217\006\373\212\005\314j\267\022\201\035\245\301"
 221      FB8A05CC 
 221      6AB71281 
 221      1DA5C1
 222 0a0c BEB50DE6 		.ascii	"\276\265\015\3465\263\022n\210\221\211\374\307\260j"
 222      35B3126E 
 222      889189FC 
 222      C7B06A
 223 0a1b E8854879 		.ascii	"\350\205Hy\012h\037\320O\200\376\025h\214e\322u\204"
 223      0A681FD0 
 223      4F80FE15 
ARM GAS  /tmp/ccEGW8Ig.s 			page 17


 223      688C65D2 
 223      7584
 224 0a2d 0EF0DF03 		.ascii	"\016\360\337\003\303\037\246g1h\330\333u\341\323G\310"
 224      C31FA667 
 224      3168D8DB 
 224      75E1D347 
 224      C8
 225 0a3e EEAF21C6 		.ascii	"\356\257!\306b}Xq\360\031\315\301\374\034\273\034xi"
 225      627D5871 
 225      F019CDC1 
 225      FC1CBB1C 
 225      7869
 226 0a50 0EA2B70E 		.ascii	"\016\242\267\016\223\235K\355\242\367\363F<\326\253"
 226      939D4BED 
 226      A2F7F346 
 226      3CD6AB
 227 0a5f 59DA74E9 		.ascii	"Y\332t\351p\326\226'5\260\027l\203\351\256_G\233\216"
 227      70D69627 
 227      35B0176C 
 227      83E9AE5F 
 227      479B8E
 228 0a72 5060AB6C 		.ascii	"P`\253l\203\215\030b\021\304\026>\002[8\014}\376\337"
 228      838D1862 
 228      11C4163E 
 228      025B380C 
 228      7DFEDF
 229 0a85 402F00BD 		.ascii	"@/\000\275\010\364\262~B\332\236c\214\273d\214\245P"
 229      08F4B27E 
 229      42DA9E63 
 229      8CBB648C 
 229      A550
 230 0a97 138331C7 		.ascii	"\023\2031\307\212k\325\267\335t\337v\344\330\215Z\272"
 230      8A6BD5B7 
 230      DD74DF76 
 230      E4D88D5A 
 230      BA
 231 0aa8 BE4541B5 		.ascii	"\276EA\265\353s-\250v\303\\l\027\013b\222\225\350\266"
 231      EB732DA8 
 231      76C35C6C 
 231      170B6292 
 231      95E8B6
 232 0abb BF1A8F03 		.ascii	"\277\032\217\003\314F{\201\346-\0365\016\314\"Q\343"
 232      CC467B81 
 232      E62D1E35 
 232      0ECC2251 
 232      E3
 233 0acc 3A448DFD 		.ascii	":D\215\3759\251\243\206\240\227Q\344\373\215Q\343\346"
 233      39A9A386 
 233      A09751E4 
 233      FB8D51E3 
 233      E6
 234 0add 71881AFD 		.ascii	"q\210\032\375LQ\343\366\361e\352J\221\2146\207\200\205"
 234      4C51E3F6 
 234      F165EA4A 
 234      918C3687 
 234      8085
 235 0aef FEB487FB 		.ascii	"\376\264\207\373\201\343\324\320u\3046\230W\007\326"
ARM GAS  /tmp/ccEGW8Ig.s 			page 18


 235      81E3D4D0 
 235      75C43698 
 235      5707D6
 236 0afe 7482023B 		.ascii	"t\202\002;\316\002\226d\270o\246\301N\331\006\323s\266"
 236      CE029664 
 236      B86FA6C1 
 236      4ED906D3 
 236      73B6
 237 0b10 8C063BCB 		.ascii	"\214\006;\313\002\226d\270\177\211\006\213\331\006\323"
 237      029664B8 
 237      7F89068B 
 237      D906D3
 238 0b1f 73B69206 		.ascii	"s\266\222\006\373\214\005\314\352\010\007\201\255\246"
 238      FB8C05CC 
 238      EA080781 
 238      ADA6
 239 0b2d C12EDA06 		.ascii	"\301.\332\006\323s\326J\203}\301\002\346\265\346\254"
 239      D373D64A 
 239      837DC102 
 239      E6B5E6AC 
 240 0b3d 8D06BB6E 		.ascii	"\215\006\273n\033\314k\346\022\344C{\224\310\177\003"
 240      1BCC6BE6 
 240      12E4437B 
 240      94C87F03 
 241 0b4d C3E20D18 		.ascii	"\303\342\015\030\254n\002\275\005\3646\320A\240\317"
 241      AC6E02BD 
 241      05F436D0 
 241      41A0CF
 242 0b5c 3A319D0F 		.ascii	":1\235\017t\001\320\377\004\272\320\3110\270]\243\007"
 242      7401D0FF 
 242      04BAD0C9 
 242      30B85DA3 
 242      07
 243 0b6d B71BB687 		.ascii	"\267\033\266\207\242\244\202$\376DF\344\337\205\031"
 243      A2A48224 
 243      FE4446E4 
 243      DF8519
 244 0b7c DF7B7085 		.ascii	"\337{p\205\267\027\250\002\353\344\005@;@\220\235@\337"
 244      B717A802 
 244      EBE40540 
 244      3B40909D 
 244      40DF
 245 0b8e 037A1068 		.ascii	"\003z\020h\027\320\277\003\275\3122V\357M\\\374E\353"
 245      17D0BF03 
 245      BDCA3256 
 245      EF4D5CFC 
 245      45EB
 246 0ba0 71275E6E 		.ascii	"q'^n\257O\373J\371\371\236\027\354\336\311\277\022\333"
 246      AF4FFB4A 
 246      F9F99E17 
 246      ECDEC9BF 
 246      12DB
 247 0bb2 A09E9A2C 		.ascii	"\240\236\232,\201\373\333\267\206D\252\264\266\302\027"
 247      81FBDBB7 
 247      8644AAB4 
 247      B6C217
 248 0bc1 0CE7534B 		.ascii	"\014\347SK\222\364r\266\256\311\365T\307l\200\216y\025"
ARM GAS  /tmp/ccEGW8Ig.s 			page 19


 248      92F472B6 
 248      AEC9F554 
 248      C76C808E 
 248      7915
 249 0bd3 BA641BD0 		.ascii	"\272d\033\320=@\377H[\317}\\\233\322\036\213\375\371"
 249      3D40FF48 
 249      5BCF7D5C 
 249      9BD21E8B 
 249      FDF9
 250 0be5 BB6311BC 		.ascii	"\273c\021\274\221\243\014\016>\303\375\204[\256\036"
 250      91A30C0E 
 250      3EC3FD84 
 250      5BAE1E
 251 0bf4 0029BC4C 		.ascii	"\000)\274L\266U\255z\245\331\371\023H9\310\215\366T"
 251      B655AD7A 
 251      A5D9F913 
 251      4839C88D 
 251      F654
 252 0c06 C12A96A9 		.ascii	"\301*\226\251\001l\242N\003\007\277;}\017Q\355r'\216"
 252      016CA24E 
 252      0307BF3B 
 252      7D0F51ED 
 252      72278E
 253 0c19 565B87A7 		.ascii	"V[\207\247\214V\006 \330<t\032\302Uo'\204+\234\237\372"
 253      8C560620 
 253      D83C741A 
 253      C2556F27 
 253      842B9C9F 
 254 0c2e 44EE4CE7 		.ascii	"D\356L\3472uK\232\374\341\346n\340\001\327U[\324-\012"
 254      32754B9A 
 254      FCE1E66E 
 254      E001D755 
 254      5BD42D0A 
 255 0c42 53CD3595 		.ascii	"S\3155\225\350'\223\361(B\260\336g\301\262\334\033R"
 255      E82793F1 
 255      2842B0DE 
 255      67C1B2DC 
 255      1B52
 256 0c54 A2E73A97 		.ascii	"\242\347:\227\"\336\016\360#\271&\320\303\306\234DJ"
 256      22DE0EF0 
 256      23B926D0 
 256      C3C69C44 
 256      4A
 257 0c65 3DAC63D9 		.ascii	"=\254c\331*\351|\207\374\215\341\313`\277\207\015Jf"
 257      2AE97C87 
 257      FC8DE1CB 
 257      60BF870D 
 257      4A66
 258 0c77 076AE9D9 		.ascii	"\007j\351\331@N\375\326\001\320\211\341FG\020\014~ "
 258      404EFDD6 
 258      01D089E1 
 258      4647100C 
 258      7E20
 259 0c89 E8FD40C0 		.ascii	"\350\375@\300\247p\003\203\203\211S8|y`\310\23780\327"
 259      A7700383 
 259      83895338 
 259      7C7960C8 
ARM GAS  /tmp/ccEGW8Ig.s 			page 20


 259      9F3830D7 
 260 0c9d 525955E2 		.ascii	"RYU\342\023\030\257\212\320\356\034I\213\246\315\366"
 260      1318AF8A 
 260      D0EE1C49 
 260      8BA6CDF6 
 261 0cad B3ADCDF9 		.ascii	"\263\255\315\371Ug\342rC\266'\221\320\376\354Ek*~y\366"
 261      5567E272 
 261      43B62791 
 261      D0FEEC45 
 261      6B2A7E79 
 262 0cc2 49B5E25A 		.ascii	"I\265\342Z\333Mm\264hJ\373{V\024\260\215f\243o6E\220"
 262      DB4D6DB4 
 262      684AFB7B 
 262      5614B08D 
 262      66A36F36 
 263 0cd8 5514E457 		.ascii	"U\024\344W\007\356Y\203\034k\201\313\314r\210!h\320"
 263      07EE5983 
 263      1C6B81CB 
 263      CC728821 
 263      68D0
 264 0cea BAED4ACC 		.ascii	"\272\355J\314\337&\333\022\275i!\221v(\2535\025\377"
 264      DF26DB12 
 264      BD692191 
 264      7628AB35 
 264      15FF
 265 0cfc A3CB3CB5 		.ascii	"\243\313<\265\342\033jS\011\245\340\277\212\030\"\275"
 265      E21B6A53 
 265      09A5E0BF 
 265      8A1822BD 
 266 0d0c AE9E9AAC 		.ascii	"\256\236\232\254\267\224>\372U\343\322\304-\021\205"
 266      B7943EFA 
 266      55E3D2C4 
 266      2D1185
 267 0d1b E9AF703B 		.ascii	"\351\257p;7\335\017\206\275\005\014\373\033s\017a\371"
 267      37DD0F86 
 267      BD050CFB 
 267      1B730F61 
 267      F9
 268 0d2c 33DC9E35 		.ascii	"3\334\2365\271\000\324\001@\267\207x\010g\360\020No"
 268      B900D401 
 268      40B78778 
 268      0867F010 
 268      4E6F
 269 0d3e EBE85519 		.ascii	"\353\350U\031\034\244m\035\345<\303\245UG\340\032G\030"
 269      1CA46D1D 
 269      E53CC3A5 
 269      5547E01A 
 269      4718
 270 0d50 3469B694 		.ascii	"4i\266\224\333\310'\263\243c\367\264\302\015\017M5-"
 270      DBC827B3 
 270      A363F7B4 
 270      C20D0F4D 
 270      352D
 271 0d62 F6213338 		.ascii	"\366!38\313\017=v\213\374*'\016[\253a\242\323\012\264"
 271      CB0F3D76 
 271      8BFC2A27 
 271      0E5BAB61 
ARM GAS  /tmp/ccEGW8Ig.s 			page 21


 271      A2D30AB4 
 272 0d76 0DE8EB40 		.ascii	"\015\350\353@\337\002\272\203e\002\264\314\031\2371"
 272      DF02BA83 
 272      6502B4CC 
 272      199F31
 273 0d85 A8E1293E 		.ascii	"\250\341)>\213\210\277\253\327L\214\357\"?3\261+\213"
 273      8B88BFAB 
 273      D74C8CEF 
 273      223F33B1 
 273      2B8B
 274 0d97 56A523F4 		.ascii	"V\245#\364\035\370s\356\025Ei\306A\3638^\361M!m\011"
 274      1DF873EE 
 274      154569C6 
 274      41F3385E 
 274      F14D216D 
 275 0dac DC2628F7 		.ascii	"\334&(\367\242\363>S\236T\216He\345\317\322\024\302"
 275      A2F33E53 
 275      9E548E48 
 275      65E5CFD2 
 275      14C2
 276 0dbe 8EC06D49 		.ascii	"\216\300mIQ\015\230V\253\335\372\303hm\211\276\303X"
 276      510D9856 
 276      ABDDFAC3 
 276      686D89BE 
 276      C358
 277 0dd0 CD70D50B 		.ascii	"\315p\325\013dQ\253\355\355\314\312\323\352\355g\251"
 277      6451ABED 
 277      EDCCCAD3 
 277      EAED67A9 
 278 0de0 C771BFE4 		.ascii	"\307q\277\344\326cs\177\253q\301\010'\231\004pI\270"
 278      D663737F 
 278      AB71C108 
 278      27990470 
 278      49B8
 279 0df2 5475BEC7 		.ascii	"Tu\276\307\251\373\277\011xv\261%\026]-u+W\321\204\307"
 279      A9FBBF09 
 279      7876B125 
 279      165D2D75 
 279      2B57D184 
 280 0e07 C6C4A24B 		.ascii	"\306\304\242K?\261 \272K\321M]f\335\324\240tHj\007\211"
 280      3FB120BA 
 280      4BD14D5D 
 280      66DDD4A0 
 280      74486A07 
 281 0e1c FC3E9837 		.ascii	"\374>\2307v2tP\203r6\241\351s\000\334\231\236\306\254"
 281      76327450 
 281      837236A1 
 281      E97300DC 
 281      999EC6AC 
 282 0e30 5A5305ED 		.ascii	"ZS\005\3551\325\330nUcD\021\002w\236Q\264#\366D\023"
 282      31D5D86E 
 282      55634411 
 282      02779E51 
 282      B423F644 
 283 0e45 F98F8CD5 		.ascii	"\371\217\214\325\354\210f\325\232*\332\321\241\242\305"
 283      EC8866D5 
 283      9A2ADAD1 
ARM GAS  /tmp/ccEGW8Ig.s 			page 22


 283      A1A2C5
 284 0e54 9A620717 		.ascii	"\232b\007\027\037\342\237oV\276\307g\031\006\203\260"
 284      1FE29F6F 
 284      56BEC767 
 284      190683B0 
 285 0e64 F833118C 		.ascii	"\3703\021\214\325\233d\242I\346YV5O\2461\014,q\232\331"
 285      D59B64A2 
 285      49E65956 
 285      354FA631 
 285      0C2C719A 
 286 0e79 D76D4327 		.ascii	"\327mC'hr\236\321\313i\340\015sn\305\333'\011\336\270"
 286      68729ED1 
 286      CB69E00D 
 286      736EC5DB 
 286      2709DEB8 
 287 0e8d 3B8BC381 		.ascii	";\213\303\2019R8\222\033(\360\373\"RM$\024~\260\212"
 287      39523892 
 287      1B28F0FB 
 287      22524D24 
 287      147EB08A 
 288 0ea1 CB2A2928 		.ascii	"\313*)(*\203\027\237\354\372\335\364\231\336\"nx\"+"
 288      2A83179F 
 288      ECFADDF4 
 288      99DE226E 
 288      78222B
 289 0eb4 228BB294 		.ascii	"\"\213\262\224Q2\275\260\250\274\344\367\223\234%\305"
 289      5132BDB0 
 289      A8BCE4F7 
 289      939C25C5 
 290 0ec4 532739FF 		.ascii	"S'9\377yf\331\254a\360\303\317s\353\"\341\\1\034|\240"
 290      7966D9AC 
 290      61F0C3CF 
 290      73EB22E1 
 290      5C311C7C 
 291 0ed9 2654233D 		.ascii	"&T#= \211O\005r\0035\376\352\272\012)7\"W\004jd\324"
 291      20894F05 
 291      720335FE 
 291      EABA0A29 
 291      37225704 
 292 0ef0 80BB0E7D 		.ascii	"\200\273\016}\217\367\311\343\222\024\016\212\376\252"
 292      8FF7C9E3 
 292      92140E8A 
 292      FEAA
 293 0efe 408D94EB 		.ascii	"@\215\224\353\253\220*\305\272j\331'\317\253\225\"\250"
 293      AB902AC5 
 293      BA6AD927 
 293      CFAB9522 
 293      A8
 294 0f0f B2C7E753 		.ascii	"\262\307\347S\253\273\305\212\212\260\024\211\024\347"
 294      ABBBC58A 
 294      8AB01489 
 294      14E7
 295 0f1d 56858252 		.ascii	"V\205\202R\256?T1/\267B\232\223\213*>\025\010Er\345"
 295      AE3F5431 
 295      2FB7429A 
 295      938B2A3E 
 295      15084572 
ARM GAS  /tmp/ccEGW8Ig.s 			page 23


 296 0f32 705DCDD3 		.ascii	"p]\315\323\271(Q%V\347\326\206\302r$\267\254|\332\330"
 296      B9285125 
 296      56E7D686 
 296      C27224B7 
 296      AC7CDAD8 
 297 0f46 82DCA953 		.ascii	"\202\334\251S\213s\221@s\362A\356\352\352\012\014\213"
 297      8B739140 
 297      73F241EE 
 297      EAEA0A0C 
 297      8B
 298 0f57 3288360A 		.ascii	"2\2106\012X\34046\021\000\252\234\211\276@|\237\234"
 298      58E03436 
 298      1100AA9C 
 298      89BE407C 
 298      9F9C
 299 0f69 89707C33 		.ascii	"\211p|3\247\227L/)\317\300\311\262\362\031\217cl_\351"
 299      A7974C2F 
 299      29CFC0C9 
 299      B2F2198F 
 299      636C5FE9 
 300 0f7d A4C2E259 		.ascii	"\244\302\342Y?\302)\2429_\371\023\364[\351\023Ps\352"
 300      3FC229A2 
 300      395FF913 
 300      F45BE913 
 300      5073EA
 301 0f90 8CA27F99 		.ascii	"\214\242\177\231T\234\205\360B\265\301P\005\006\234"
 301      549C85F0 
 301      42B5C150 
 301      05069C
 302 0f9f F1       		.ascii	"\361"
 303 0fa0 F8B419C5 		.ascii	"\370\264\031\305\223|\350\327;\324d\3314\244p_\361\244"
 303      937CE8D7 
 303      3BD464D9 
 303      34A4705F 
 303      F1A4
 304 0fb2 DF97144D 		.ascii	"\337\227\024M\032\251\313\2332\243\254\334\035\252\365"
 304      1AA9CB9B 
 304      32A3ACDC 
 304      1DAAF5
 305 0fc1 E1AA1958 		.ascii	"\341\252\031XMc\013\020\002\321\030Nf\371\253C\376\247"
 305      4D630B10 
 305      02D1184E 
 305      66F9AB43 
 305      FEA7
 306 0fd3 7D915A49 		.ascii	"}\221ZI\252\310A\215T\324\311\363\374\363\374\325\250"
 306      AAC8418D 
 306      54D4C9F3 
 306      FCF3FCD5 
 306      A8
 307 0fe4 9D9CB2F2 		.ascii	"\235\234\262\362b_\361\314\362Y\276\242YES'\215\234"
 307      625FF1CC 
 307      F259BEA2 
 307      59455327 
 307      8D9C
 308 0ff6 5C58564E 		.ascii	"\\XVN\275\373\012~l\314"
 308      BDFB0A7E 
 308      6CCC
ARM GAS  /tmp/ccEGW8Ig.s 			page 24


 309 1000 C97FC837 		.ascii	"\311\177\3107!\023#\370\000\002KY\024\252\251\014\314"
 309      211323F8 
 309      00024B59 
 309      14AAA90C 
 309      CC
 310 1011 76F9E10B 		.ascii	"v\371\341\013k\245\262Z\234\035Af$\205\303\241pdl*\325"
 310      6BA5B25A 
 310      9C1D4166 
 310      2485C3A1 
 310      70646C2A 
 311 1026 86E5B866 		.ascii	"\206\345\270f\375UA\271\036\033K\260N\226\352}\3620"
 311      FD5541B9 
 311      1E1B4BB0 
 311      4E96EA7D 
 311      F230
 312 1038 F81E6F0B 		.ascii	"\370\036o\013!2/\242\231\315p\271*,\211\025\021\337"
 312      21322FA2 
 312      99CD70B9 
 312      2A2C8915 
 312      11DF
 313 104a 7FD44975 		.ascii	"\177\324IuH\334\021\376*\237.k\234=d\177\025\266\232"
 313      48DC11FE 
 313      2A9F2E6B 
 313      9C3D647F 
 313      15B69A
 314 105d 0C02E193 		.ascii	"\014\002\341\223=q8W\255\257F\252\227\321WmX\2323\205"
 314      3D713857 
 314      ADAF46AA 
 314      97D1576D 
 314      589A3385 
 315 1071 01959866 		.ascii	"\001\225\230fa\351\264\242i\365\250d\2606P\215}\362"
 315      61E9B4A2 
 315      69F5A864 
 315      B036508D 
 315      7DF2
 316 1083 774545A8 		.ascii	"wEE\250\270\306\277[\256\015\007B>\202\033\010\271\221"
 316      B8C6BF5B 
 316      AE0D0742 
 316      3E821B08 
 316      B991
 317 1095 8A913AE4 		.ascii	"\212\221:\344\011\266\361\253\374\241\260\204\275\034"
 317      09B6F1AB 
 317      FCA1B084 
 317      BD1C
 318 10a3 67FB905D 		.ascii	"g\373\220]\370\345\372\337\246\207\342\233\363p\020"
 318      F8E5FADF 
 318      A687E29B 
 318      F37010
 319 10b2 2B212CCD 		.ascii	"+!,\315FN\354\223\035\221\374\207\320\3630z\306\243"
 319      464EEC93 
 319      1D91FC87 
 319      D0F3307A 
 319      C6A3
 320 10c4 67822352 		.ascii	"g\202#R\220\207\236|\364\024\240g,z\306\241\3477\350"
 320      90879E7C 
 320      F414A067 
 320      2C7AC6A1 
ARM GAS  /tmp/ccEGW8Ig.s 			page 25


 320      E737E8
 321 10d7 41E50A50 		.ascii	"A\345\012P\271\002T\256\000\225\033\213\312\215\315"
 321      B90254AE 
 321      00951B8B 
 321      CA8DCD
 322 10e6 17C2E384 		.ascii	"\027\302\343\204\360o\204\360CB\370a!<^\010Op\204\363"
 322      F06F84F0 
 322      4342F861 
 322      213C5E08 
 322      4F7084F3 
 323 10fa F3D0932F 		.ascii	"\363\320\223/T\207\321\327\330a\265>\304\255\033kx\256"
 323      5487D1D7 
 323      D861B53E 
 323      C4AD1B6B 
 323      78AE
 324 110c 1446DFA1 		.ascii	"\024F\337\241\352\012)\354\364W\211a\254v1(e\310\252"
 324      EA0A29EC 
 324      F4578961 
 324      AC763128 
 324      65C8AA
 325 111f 1FA21F21 		.ascii	"\037\242\037!\345\226\211\033\241w\260E\267\034\226"
 325      E596891B 
 325      A177B045 
 325      B71C96
 326 112e 2A23A047 		.ascii	"*#\240G\234\030\026\214\314F?\252\356\201\306\0265\345"
 326      9C18168C 
 326      CC463FAA 
 326      EE81C616 
 326      35E5
 327 1140 0A57CC43 		.ascii	"\012W\314C?eH\365\001\031\251Er\315\225CO\375{m\226"
 327      3F6548F5 
 327      0119A945 
 327      72CD9543 
 327      4FFD7B6D 
 328 1155 3447AA91 		.ascii	"4G\252\221\203b\344il\323sq\302Q\353\253\313\321,\251"
 328      8362E469 
 328      6CD37371 
 328      C251EBAB 
 328      CBD12CA9 
 329 1169 3A104123 		.ascii	":\020A#\325p\312\266p\216\247\3267W\014\310\201\232"
 329      D570CAB6 
 329      708EA7D6 
 329      37570CC8 
 329      819A
 330 117b D999C835 		.ascii	"\331\231\3105#\263\301\336\206A\022eH\265R\015\032\030"
 330      23B3C1DE 
 330      86411265 
 330      48B5520D 
 330      1A18
 331 118d 67A352C8 		.ascii	"g\243R\310\342q\371L\314\233X\015\375\2142kC\241jw\220"
 331      E271F94C 
 331      CC9B580D 
 331      FD8C326B 
 331      43A16A77 
 332 11a2 5829FA0E 		.ascii	"X)\372\016\315\255\221\302\256 X\331\303\266\214V\345"
 332      CDAD91C2 
 332      AE2058D9 
ARM GAS  /tmp/ccEGW8Ig.s 			page 26


 332      C3B68C56 
 332      E5
 333 11b3 0975D928 		.ascii	"\011u\331(\325n\221\012\244\260T\343G\012r\221,\017"
 333      D56E910A 
 333      A4B054E3 
 333      470A7291 
 333      2C0F
 334 11c5 725A3CAE 		.ascii	"rZ<\256\372d\030?\220\217k\343\007N:\361O\236p}EP\304"
 334      FA64183F 
 334      908F6BE3 
 334      074E3AF1 
 334      4F9E707D 
 335 11dc 6AF5C85A 		.ascii	"j\365\310Zj\262\3351\030\350\344q\365\365(,\004\221"
 335      6AB2DD31 
 335      18E8E471 
 335      F5F5282C 
 335      0491
 336 11ee C6110EE2 		.ascii	"\306\021\016\342\353\221T0H\346\334\242ie%e\010\200"
 336      EB915430 
 336      48E6DCA2 
 336      69652565 
 336      0880
 337 1200 D4AC1C97 		.ascii	"\324\254\034\227\227_\217\015zT\361\264B_\031\352^1"
 337      975F8F0D 
 337      7A54F1B4 
 337      425F19EA 
 337      5E31
 338 1212 E82B475E 		.ascii	"\350+G^S,U\012E\245\316\351\305\345\245\216\307\013"
 338      532C550A 
 338      45A5CEE9 
 338      C5E5A58E 
 338      C70B
 339 1224 4B9DD3F2 		.ascii	"K\235\323\3620\311/,uL.*uE\240\2403P\351\017\273\002"
 339      30C92F2C 
 339      754C2E2A 
 339      7545A0A0 
 339      3350E90F 
 340 123a 91AA40A5 		.ascii	"\221\252@\245\354\211H\325\225\201\232\012\251\3365"
 340      EC8948D5 
 340      95819A0A 
 340      A9DE35
 341 1249 47F2CBA1 		.ascii	"G\362\313\241\360\2508g>R\032\015B\350%\\\217\251\\"
 341      F0A83867 
 341      3E521A0D 
 341      42E8255C 
 341      8FA95C
 342 125c 8FC3A4D6 		.ascii	"\217\303\244\326\220\243\2504\037=\005\316\031\205\245"
 342      90A3A834 
 342      1F3D05CE 
 342      1985A5
 343 126b F9981408 		.ascii	"\371\230\024\010\305\245\2162\224YVZ\340(**\035V^ZR"
 343      C5A58E32 
 343      9459565A 
 343      E0282A2A 
 343      1D565E5A 
 344 1280 36C93979 		.ascii	"6\3119y*b\006i\330\203G\246@\020\333%\376\012\325\311"
 344      2A620669 
ARM GAS  /tmp/ccEGW8Ig.s 			page 27


 344      D88347A6 
 344      4010DB25 
 344      FE0AD5C9 
 345 1294 23B5505C 		.ascii	"#\265P\\\035\011\216\315\033\373\240\2373\346 G#)d\247"
 345      1D098ECD 
 345      1BFBA09F 
 345      33E62047 
 345      232964A7 
 346 12a8 A2DF4FC2 		.ascii	"\242\337O\302\261'(\316&)\267\332E\304\206\241\337P"
 346      B12728CE 
 346      2629B7DA 
 346      45C486A1 
 346      DF50
 347 12ba 29DF5375 		.ascii	")\337Su\225\250\2133Q15\351\"\3013\003\212\241D\266"
 347      95A88B33 
 347      513135E9 
 347      22C13303 
 347      8AA144B6 
 348 12ce 88F27DFE 		.ascii	"\210\362}\376P\035\032O\302\331A\352%Km.P\023\220\035"
 348      501D1A4F 
 348      C2D941EA 
 348      254B6D2E 
 348      5013901D 
 349 12e2 28EDAA00 		.ascii	"(\355\252\000\206\334\010\266\020\231\201\033a\342\357"
 349      86DC08B6 
 349      1099811B 
 349      61E2EF
 350 12f1 9FAAC5B0 		.ascii	"\237\252\305\260\365\024\372\375\022\032\274D9\020\252"
 350      F514FAFD 
 350      121ABC44 
 350      3910AA
 351 1300 19568373 		.ascii	"\031V\203s\350_\247\211\263k$\031u0\002\317I\314(0\376"
 351      E85FA789 
 351      B36B2419 
 351      753002CF 
 351      49CC2830 
 352 1315 FF02EDCC 		.ascii	"\377\002\355\314\361\304"
 352      F1C4
 353              		.text
 354              		.section	.gnu.lto_.symtab.3915c6ea2e0b896c,"",%progbits
 355 0000 6C736D33 		.ascii	"lsm303_init\000\000\000\000\000\000\000\000\000\000"
 355      30335F69 
 355      6E697400 
 355      00000000 
 355      00000000 
 356 0015 00001102 		.ascii	"\000\000\021\002\000\000lsm303_readAcceleration\000"
 356      00006C73 
 356      6D333033 
 356      5F726561 
 356      64416363 
 357 0033 00000000 		.ascii	"\000\000\000\000\000\000\000\000\000\000\000F\002\000"
 357      00000000 
 357      00000046 
 357      0200
 358 0041 006C736D 		.ascii	"\000lsm303_readMagnetometer\000\000\000\000\000\000"
 358      3330335F 
 358      72656164 
ARM GAS  /tmp/ccEGW8Ig.s 			page 28


 358      4D61676E 
 358      65746F6D 
 359 005f 00000000 		.ascii	"\000\000\000\000\000\000O\002\000\000I2CSensor_init"
 359      00004F02 
 359      00004932 
 359      4353656E 
 359      736F725F 
 360 0077 00000200 		.ascii	"\000\000\002\000\000\000\000\000\000\000\000\000T\002"
 360      00000000 
 360      00000000 
 360      5402
 361 0085 0000     		.ascii	"\000\000"
 362              		.text
 363              		.section	.gnu.lto_.opts,"",%progbits
 364 0000 272D6D63 		.ascii	"'-mcpu=cortex-m4' '-mfloat-abi=hard' '-mfpu=fpv4-sp"
 364      70753D63 
 364      6F727465 
 364      782D6D34 
 364      2720272D 
 365 0033 2D643136 		.ascii	"-d16' '-mno-thumb-interwork' '-mthumb' '-O2' '-fomi"
 365      2720272D 
 365      6D6E6F2D 
 365      7468756D 
 365      622D696E 
 366 0066 742D6672 		.ascii	"t-frame-pointer' '-falign-functions=16' '-ffunction"
 366      616D652D 
 366      706F696E 
 366      74657227 
 366      20272D66 
 367 0099 2D736563 		.ascii	"-sections' '-fdata-sections' '-fno-common' '-flto' "
 367      74696F6E 
 367      73272027 
 367      2D666461 
 367      74612D73 
 368 00cc 272D6673 		.ascii	"'-fsingle-precision-constant'\000"
 368      696E676C 
 368      652D7072 
 368      65636973 
 368      696F6E2D 
 369              		.text
 370              		.section	.text.lsm303_init,"ax",%progbits
 371              		.align	2
 372              		.p2align 4,,15
 373              		.global	lsm303_init
 374              		.thumb
 375              		.thumb_func
 376              		.type	lsm303_init, %function
 377              	lsm303_init:
 378              		@ args = 0, pretend = 0, frame = 0
 379              		@ frame_needed = 0, uses_anonymous_args = 0
 380 0000 70B5     		push	{r4, r5, r6, lr}
 381 0002 1C46     		mov	r4, r3
 382 0004 0646     		mov	r6, r0
 383 0006 0D46     		mov	r5, r1
 384 0008 2823     		movs	r3, #40
 385 000a FFF7FEFF 		bl	I2CSensor_init
 386 000e 06F10C00 		add	r0, r6, #12
ARM GAS  /tmp/ccEGW8Ig.s 			page 29


 387 0012 2946     		mov	r1, r5
 388 0014 2246     		mov	r2, r4
 389 0016 2823     		movs	r3, #40
 390 0018 FFF7FEFF 		bl	I2CSensor_init
 391 001c 0020     		movs	r0, #0
 392 001e 70BD     		pop	{r4, r5, r6, pc}
 393              		.size	lsm303_init, .-lsm303_init
 394              		.section	.text.lsm303_readAcceleration,"ax",%progbits
 395              		.align	2
 396              		.p2align 4,,15
 397              		.global	lsm303_readAcceleration
 398              		.thumb
 399              		.thumb_func
 400              		.type	lsm303_readAcceleration, %function
 401              	lsm303_readAcceleration:
 402              		@ args = 0, pretend = 0, frame = 0
 403              		@ frame_needed = 0, uses_anonymous_args = 0
 404              		@ link register save eliminated.
 405 0000 0020     		movs	r0, #0
 406 0002 7047     		bx	lr
 407              		.size	lsm303_readAcceleration, .-lsm303_readAcceleration
 408 0004 AFF30080 		.section	.text.lsm303_readMagnetometer,"ax",%progbits
 408      AFF30080 
 408      AFF30080 
 409              		.align	2
 410              		.p2align 4,,15
 411              		.global	lsm303_readMagnetometer
 412              		.thumb
 413              		.thumb_func
 414              		.type	lsm303_readMagnetometer, %function
 415              	lsm303_readMagnetometer:
 416              		@ args = 0, pretend = 0, frame = 0
 417              		@ frame_needed = 0, uses_anonymous_args = 0
 418              		@ link register save eliminated.
 419 0000 0020     		movs	r0, #0
 420 0002 7047     		bx	lr
 421              		.size	lsm303_readMagnetometer, .-lsm303_readMagnetometer
 422              		.comm	__gnu_lto_v1,1,1
 423 0004 AFF30080 		.ident	"GCC: (GNU Tools for ARM Embedded Processors) 4.8.4 20140526 (release) [ARM/embedded-4_8-br
 423      AFF30080 
 423      AFF30080 
ARM GAS  /tmp/ccEGW8Ig.s 			page 30


DEFINED SYMBOLS
                            *ABS*:0000000000000000 lsm303.c
     /tmp/ccEGW8Ig.s:371    .text.lsm303_init:0000000000000000 $t
     /tmp/ccEGW8Ig.s:377    .text.lsm303_init:0000000000000000 lsm303_init
     /tmp/ccEGW8Ig.s:395    .text.lsm303_readAcceleration:0000000000000000 $t
     /tmp/ccEGW8Ig.s:401    .text.lsm303_readAcceleration:0000000000000000 lsm303_readAcceleration
     /tmp/ccEGW8Ig.s:409    .text.lsm303_readMagnetometer:0000000000000000 $t
     /tmp/ccEGW8Ig.s:415    .text.lsm303_readMagnetometer:0000000000000000 lsm303_readMagnetometer
                            *COM*:0000000000000001 __gnu_lto_v1

UNDEFINED SYMBOLS
I2CSensor_init
