ARM GAS  /tmp/cc5aiyH4.s 			page 1


   1              		.syntax unified
   2              		.cpu cortex-m4
   3              		.eabi_attribute 27, 3
   4              		.eabi_attribute 28, 1
   5              		.fpu fpv4-sp-d16
   6              		.eabi_attribute 20, 1
   7              		.eabi_attribute 21, 1
   8              		.eabi_attribute 23, 3
   9              		.eabi_attribute 24, 1
  10              		.eabi_attribute 25, 1
  11              		.eabi_attribute 26, 1
  12              		.eabi_attribute 30, 2
  13              		.eabi_attribute 34, 1
  14              		.eabi_attribute 18, 4
  15              		.thumb
  16              		.file	"main.c"
  17              		.section	.gnu.lto_.jmpfuncs.f2deea5ac5b9576a,"",%progbits
  18 0000 789C8552 		.ascii	"x\234\205R\313N\302@\024\275\267\005\013\2257(\212Z"
  18      CB4EC240 
  18      14BDB705 
  18      0B953728 
  18      8A5A
  19 0012 89099A18 		.ascii	"\211\011\232\030\242\354LX\321\004T\022\024\003]\030"
  19      A2EC4C58 
  19      D1045412 
  19      14035D18 
  20 0022 63620818 		.ascii	"cb\010\030\323\204\201\005\204\205nX\262r\315\306\204"
  20      D3848105 
  20      84856E58 
  20      B272CDC6 
  20      84
  21 0033 CFF003FC 		.ascii	"\317\360\003\374\010?\301/p\341\312\351\314H\201\026"
  21      083FC12F 
  21      70E1CAE9 
  21      CC488116 
  22 0043 E9666ECF 		.ascii	"\351fn\317==\367\234\316\225@\002\267g\"\003\274\322"
  22      3D3DF79C 
  22      CE954002 
  22      B7672203 
  22      BCD2
  23 0055 D3073202 		.ascii	"\323\0072\002\310\364\015\006\364\004\300\201\325\246"
  23      C8F40D06 
  23      F404C081 
  23      D5A6
  24 0063 1F49B768 		.ascii	"\037I\267h\242U#z\304\033\336\320\342\005~\206\343a"
  24      A255237A 
  24      C41BDED0 
  24      E2057E86 
  24      E361
  25 0075 C4444903 		.ascii	"\304DI\003|\033\216\013&\312LRh\270\223=\032$8\331\273"
  25      7C1B8E0B 
  25      26CA4C52 
  25      68B8933D 
  25      1A2438D9 
  26 008a 9ABCA6C1 		.ascii	"\232\274\246\301!'+sd\306\030Y\014\037a\326\300F\374"
  26      21272B73 
  26      64C61859 
ARM GAS  /tmp/cc5aiyH4.s 			page 2


  26      0C1F61D6 
  26      C046FC
  27 009d 04711E51 		.ascii	"\004q\036Q\011\212\354^\220lx\235p\277ln\300*\354^\220"
  27      098AEC5E 
  27      906C789D 
  27      70BF6C6E 
  27      C02AEC5E 
  28 00b2 585967AD 		.ascii	"XYg\255\20448\343V\302L\312\263d\"#G4\270\343\344\350"
  28      843438E3 
  28      56C24CCA 
  28      B3642223 
  28      4734B8E3 
  29 00c8 82BB18E1 		.ascii	"\202\273\030\341\271\235\243\320IBf-\376E\303\313\377"
  29      B99DA3D0 
  29      4942662D 
  29      FE45C3CB 
  29      FF
  30 00d9 492408AE 		.ascii	"I$\010\256-\023e\012\037\361\025\35164\270\347\2067"
  30      2D13650A 
  30      1FF115E9 
  30      3634B8E7 
  30      8637
  31 00eb B9E139B2 		.ascii	"\271\3419\2622/\236$\350s\222<\356$\341`t\304t\003\210"
  31      322F9E24 
  31      E873923C 
  31      EE24E160 
  31      74C47403 
  32 0100 E20E83B3 		.ascii	"\342\016\203\263\201\377n1\204\312\222\301\314\345\226"
  32      81FF6E31 
  32      84CA92C1 
  32      CCE596
  33 010f 062DEE72 		.ascii	"\006-\356r{a\213\303n;1\275\334\024_\035\276`\227\026"
  33      7B618BC3 
  33      6E3B31BD 
  33      DC145F1D 
  33      BE609716 
  34 0123 1C15BE52 		.ascii	"\034\025\276R\266\303\357,8\300\024N\333\223}Z:\361"
  34      B6C3EF2C 
  34      38C0144E 
  34      DB937D5A 
  34      3AF1
  35 0135 19AE2DF5 		.ascii	"\031\256-\365\236t!\322\312k{\334!\350\237\372\333\375"
  35      9E7421D2 
  35      CA6B7BDC 
  35      21E89FFA 
  35      DBFD
  36 0147 0C886AAF 		.ascii	"\014\210j\2570\373\017\265\246\035$\326\356>\365N\213"
  36      30FB0FB5 
  36      A61D24D6 
  36      EE3EF54E 
  36      8B
  37 0158 BAF190CB 		.ascii	"\272\361\220\313eZ'\315\336\000\2426$\220\310\024\021"
  37      655A27CD 
  37      DE00A236 
  37      2490C814 
  37      11
  38 0169 C0815AAA 		.ascii	"\300\201Z\252\325\252\265|\272^L\227;f\337l\264\315"
ARM GAS  /tmp/cc5aiyH4.s 			page 3


  38      D5AAB57C 
  38      BA5E4C97 
  38      3B66DF6C 
  38      B4CD
  39 017b E746DFEC 		.ascii	"\347F\337\354v\322\347\015\263\375\330Ri(\245n\3505"
  39      76D2E70D 
  39      B3FDD852 
  39      6928A56E 
  39      E835
  40 018d 438563A3 		.ascii	"C\205c\243|U\312gz\331tE7\370Y\275\276`\205^\341@\235"
  40      7C55CA67 
  40      7AD97445 
  40      37F859BD 
  40      BE60855E 
  41 01a4 3554F805 		.ascii	"5T\370\005\220\201\312\263"
  41      9081CAB3 
  42              		.text
  43              		.section	.gnu.lto_.inline.f2deea5ac5b9576a,"",%progbits
  44 0000 789C8D51 		.ascii	"x\234\215Q9\016\3020\020\234\015vp\010!DH\210\002)@"
  44      390EC230 
  44      109C0D76 
  44      70082144 
  44      48880229 
  45 0015 8D780145 		.ascii	"\215x\001E^\340\232>P\360\033\227\224y\016%\217\340"
  45      5EE09A3E 
  45      50F01B97 
  45      94790E25 
  45      8FE0
  46 0027 013C8002 		.ascii	"\001<\200\002\337\034B\210X\332\335\354\216gg\222\004"
  46      DF1C4288 
  46      58DADDEC 
  46      8E676792 
  46      04
  47 0038 09BE3D77 		.ascii	"\011\276=wrY\200\345sXP\332\325\021K\340#\240\247\244"
  47      725980E5 
  47      735850DA 
  47      D5114BE0 
  47      23A0A7A4 
  48 004c 39BDA105 		.ascii	"9\275\241\005\320l\276\"\216\375\216\216Tg\032t\210"
  48      D06CBE22 
  48      8EFD8E8E 
  48      54671A74 
  48      88
  49 005d 95EBB5B1 		.ascii	"\225\353\265\261\327Z\012\200\005Z\326\325\015\330i"
  49      D75A0A80 
  49      055AD6D5 
  49      0DD869
  50 006c DA08C3AE 		.ascii	"\332\010\303\256\271\231\235)\251\313\261x\326\213P"
  50      B9999D29 
  50      A9CBB178 
  50      D68B50
  51 007b A7A5BB0D 		.ascii	"\247\245\273\015\216\265\"B\"n\233\250\320\013\362\311"
  51      8EB52242 
  51      226E9BA8 
  51      D00BF2C9 
  52 008b 2865A1AD 		.ascii	"(e\241\255\221y\224\257{\356\355\375\202OnD\003\243"
  52      917994AF 
ARM GAS  /tmp/cc5aiyH4.s 			page 4


  52      7BEEEDFD 
  52      824F6E44 
  52      03A3
  53 009d 358621B2 		.ascii	"5\206!\262Ls\244\037\333H\311\002\274\240\267\017\345"
  53      4C73A41F 
  53      DB48C902 
  53      BCA0B70F 
  53      E5
  54 00ae 0846C827 		.ascii	"\010F\310'Z\240\261\373:\024\025\3207N\302)\317(\027"
  54      5AA0B1FB 
  54      3A1415D0 
  54      374EC229 
  54      CF2817
  55 00c1 9A20B994 		.ascii	"\232 \271\224\021\344]*\031\364*Y]\261\274n\335\"\006"
  55      11E45D2A 
  55      19F42A59 
  55      5DB1BC6E 
  55      DD2206
  56 00d4 BF87ACAF 		.ascii	"\277\207\254\257\177\"~D\263\215\273\337k\254\342\001"
  56      7F227E44 
  56      B38DBBDF 
  56      6BACE201 
  57 00e4 8BC425B1 		.ascii	"\213\304%\261"
  58              		.text
  59              		.section	.gnu.lto_.pureconst.f2deea5ac5b9576a,"",%progbits
  60 0000 789C6362 		.ascii	"x\234cb`b\020d\200\000\016\006\011F\011V\011\036\011"
  60      60621064 
  60      80000E06 
  60      09460956 
  60      091E09
  61 0013 5E093E09 		.ascii	"^\011>\011~\011A\023\000\012\266\001G"
  61      7E094113 
  61      000AB601 
  61      47
  62              		.text
  63              		.section	.gnu.lto_chprintf.f2deea5ac5b9576a,"",%progbits
  64 0000 789C8550 		.ascii	"x\234\205P\315J\002Q\024>\337\0355uc\333v\342\0034\213"
  64      CD4A0251 
  64      143EDF1D 
  64      357563DB 
  64      76E20334 
  65 0015 22E80D7A 		.ascii	"\"\350\015z\000\203Z\3058\216z\011\035\321Q\260\026"
  65      00835AC5 
  65      388E7A09 
  65      1DD151B0 
  65      16
  66 0026 5EC1C245 		.ascii	"^\301\302E\013ig\021)\321:\244\027\030\202\332DI\273"
  66      0B696711 
  66      29D13AA4 
  66      171882DA 
  66      4449BB
  67 0039 162D2497 		.ascii	"\026-$\227\265h\321*\202\351\336\031\024\372\201\016"
  67      B568D12A 
  67      82E9DE19 
  67      14FA810E 
  68 0049 DC7B7EBE 		.ascii	"\334{~\276s\276\363\303\210\321OY\220o\010\2425\251"
  68      73BEF3C3 
ARM GAS  /tmp/cc5aiyH4.s 			page 5


  68      88D14F59 
  68      906F08A2 
  68      35A9
  69 005b A11158F7 		.ascii	"\241\021X\367\236\250\025e\2002\010\324dhnB\245\262"
  69      9EA81565 
  69      803208D4 
  69      64686E42 
  69      A5B2
  70 006d 140D84DB 		.ascii	"\024\015\204\333\035_O\036\321\023n\273/>=\017\340\220"
  70      1D5F4F1E 
  70      D1136EBB 
  70      2F3E3D0F 
  70      E090
  71 007f B42B2013 		.ascii	"\264+ \023\264!\035$}\305B\337\373\250Z\321uOon!\016"
  71      B4211D24 
  71      7DC542DF 
  71      FBA85AD1 
  71      754F6F6E 
  72 0095 45EBCDF3 		.ascii	"E\353\315\363\022\034\032\243\325\377\012/\230\373\354"
  72      121C1AA3 
  72      D5FF0A2F 
  72      98FBEC
  73 00a4 794FC3F7 		.ascii	"yO\303\367\203W\364XLC\021\024\222\037\"d\340\014)\225"
  73      8357F458 
  73      4C431114 
  73      921F2264 
  73      E00C2995 
  74 00b8 13A6B624 		.ascii	"\023\246\266$O\032\030H\177\0325\375\241\323\362W\233"
  74      4F1A1848 
  74      7F1A35FD 
  74      A1D3F257 
  74      9B
  75 00c9 AC8329AD 		.ascii	"\254\203)\255\215ho\3343\015\234#,\321]\372\020\035"
  75      8D686FDC 
  75      330D9C23 
  75      2CD15DFA 
  75      101D
  76 00db 31CF1132 		.ascii	"1\317\0212\341\247\313\310\016Gx\312\344g\251\2514\""
  76      E1A7CBC8 
  76      0E4778CA 
  76      E467A9A9 
  76      3422
  77 00ed 2E3BD288 		.ascii	".;\322\210\366\307G\223x\200\344\021\231\021\314\231"
  77      F6C74793 
  77      7880E411 
  77      9911CC99 
  78 00fd 088E9B87 		.ascii	"\010\216\233\207\226G( \340\210\252\222\366\370\370"
  78      96472820 
  78      E088AA92 
  78      F6F8F8
  79 010c 77C798A9 		.ascii	"w\307\230\251H\377\356\310\021'\272\243\253\027\026"
  79      48FFEEC8 
  79      1127BAA3 
  79      AB1716
  80 011b 04027099 		.ascii	"\004\002p\231.EG\235[\312\003\265\372'\332l\214\340"
  80      2E45479D 
  80      5BCA03B5 
ARM GAS  /tmp/cc5aiyH4.s 			page 6


  80      FA27DA6C 
  80      8CE0
  81 012d 5469B983 		.ascii	"Ti\271\203\334Q\315\261\244\027\354\242\245\233v\266"
  81      DC51CDB1 
  81      A417ECA2 
  81      A59B76B6 
  82 013d A167ADBA 		.ascii	"\241g\255\272n\026x\206\333U\335\251\324J\333\2724\352"
  82      6E167886 
  82      DB55DDA9 
  82      D44ADBBA 
  82      34EA
  83 014f 4685DBB5 		.ascii	"F\205\333\265\252\004\312\025^rr\213\005bF9\221\263"
  83      AA04CA15 
  83      5E72728B 
  83      05624639 
  83      91B3
  84 0161 2B45C371 		.ascii	"+E\303q\254\354V\246\341X\325/\251H\201#"
  84      ACEC56A6 
  84      E158D52F 
  84      A9488123 
  85              		.text
  86              		.section	.gnu.lto_openNewLogfile.part.0.f2deea5ac5b9576a,"",%progbits
  87 0000 789CAD92 		.ascii	"x\234\255\222\317KUA\024\307\317w\346\376|\276\352\251"
  87      CF4B5541 
  87      14C7CF77 
  87      E6FE7CBE 
  87      EAA9
  88 0012 2041F088 		.ascii	" A\360\210\"je.\022\267\011\272\027zR\255\342r+\031"
  88      226A652E 
  88      12B709BA 
  88      177A52AD 
  88      E2722B19 
  89 0026 E8DA4208 		.ascii	"\350\332B\010\242\205S\030>Z\275\245\233 Q(\"l\341J"
  89      A2855318 
  89      3E5ABDA5 
  89      9B205128 
  89      226CE14A 
  90 003a 10B42010 		.ascii	"\020\264 \020A#t\323&\336\252M\377AD\257s\346\336\373"
  90      412374D3 
  90      26DEAA4D 
  90      FF4144AF 
  90      73E6DEFB 
  91 004e F2894B07 		.ascii	"\362\211K\007\356\234s\277s\346|?\314\214\"E\307\307"
  91      EE9C73BF 
  91      73E67C3F 
  91      CC8C2245 
  91      C7C7
  92 0060 0C7F7F58 		.ascii	"\014\177\177X\236\344\210\012!n\355s\022C\271\250\224"
  92      9EE4880A 
  92      216EED73 
  92      1243B9A8 
  92      94
  93 0071 3E1C225B 		.ascii	">\034\"[\3616\307\310V5BQ\237G\236\362\233WY\016d\256"
  93      F136C7C8 
  93      56354251 
  93      9F479EF2 
  93      9B57590E 
ARM GAS  /tmp/cc5aiyH4.s 			page 7


  94 0087 FAA51C94 		.ascii	"\372\245\034\224I\210(O\"@\022\002\315\307J{~\020F\230"
  94      4988284F 
  94      22401202 
  94      CDC74A7B 
  94      7E104698 
  95 009b BF0B31C6 		.ascii	"\277\0131\306%Z\266\333\255\366\227\267\033\260o^\264"
  95      255AB6DB 
  95      ADF697B7 
  95      1BB06F5E 
  95      B4
  96 00ac ECDF4E07 		.ascii	"\354\337N\007\006\214X\001\245\240;\374\203\355<\252"
  96      068C5801 
  96      A5A03BFC 
  96      83ED3CAA 
  97 00bc F3BDD01F 		.ascii	"\363\275\320\037\225mw:\033kq\037\220\311\026\003\255"
  97      956D773A 
  97      1B6B711F 
  97      90C91603 
  97      AD
  98 00cd 65E2359F 		.ascii	"e\3425\237\026\254m]$\351\301\243\301\263 4\020K\324"
  98      16AC6D5D 
  98      24E9C1A3 
  98      C1B32034 
  98      104BD4
  99 00e0 D3502EEE 		.ascii	"\323P.\356\320\302\317O[\257TQ\236`\231\201\210\022"
  99      D0C2CF4F 
  99      5BAF5451 
  99      9E609981 
  99      8812
 100 00f2 ACC077E7 		.ascii	"\254\300w\347\002\210\263\027\037\261\235f\203\303!"
 100      0288B317 
 100      1FB19D66 
 100      83C321
 101 0101 FD9516DB 		.ascii	"\375\225\026\333\357^V\022\254\272\322g\364\3336m\315"
 101      EF5E5612 
 101      ACBAD267 
 101      F4DB366D 
 101      CD
 102 0112 C04FE12C 		.ascii	"\300O\341,\235\302\343\226A\220\367-J\245a8\345\226"
 102      9DC2E396 
 102      4190F72D 
 102      4AA56138 
 102      E596
 103 0124 97AC7D6A 		.ascii	"\227\254}j\020\325\251\366\332.\3354\014W\324\260\257"
 103      10D5A9F6 
 103      DA2EDD34 
 103      0C57D4B0 
 103      AF
 104 0135 E17B28FC 		.ascii	"\341{(\374<\332\034\313Q\017v\253yE\011\226\366\200"
 104      3CDA1CCB 
 104      510F76AB 
 104      79450996 
 104      F680
 105 0147 F9F4E382 		.ascii	"\371\364\343\202\003{\177*`}u\272\234\203UO\006\013"
 105      037B7F2A 
 105      607D75BA 
 105      9C83554F 
ARM GAS  /tmp/cc5aiyH4.s 			page 8


 105      060B
 106 0159 4ABF0FA7 		.ascii	"J\277\017\247\342w\246N\243\271\337\331\223\375Bwib"
 106      E277A64E 
 106      A3B9DFD9 
 106      93FD4277 
 106      6962
 107 016b B836599E 		.ascii	"\2706Y\236\203\352\032\236K\241\272\206Mko\033\3242"
 107      83EA1A9E 
 107      4BA1BA86 
 107      4D6B6F1B 
 107      D432
 108 017d A0E82462 		.ascii	"\240\350$bd\320\237A\365*\003\031\364\021\205\307\001"
 108      64D09F41 
 108      F52A0319 
 108      F41185C7 
 108      01
 109 018e 8EA31A0C 		.ascii	"\216\243\032\014\022\355\321\347_\305\336|\361\006\255"
 109      12EDD1E7 
 109      5FC5DE7C 
 109      F106AD
 110 019d DBA6BCD6 		.ascii	"\333\246\274\326\356\005D\016\360\033\277yA\227\207"
 110      EE05440E 
 110      F01BBF79 
 110      419787
 111 01ac 48DF4933 		.ascii	"H\337I3dxM\036\037dY\030\303,1\263\303)\371\017g\223"
 111      64784D1E 
 111      1F645918 
 111      C32C31B3 
 111      C329F90F 
 112 01c2 ECC1C0A3 		.ascii	"\354\301\300\243\3073s\327'\306\033\367FF\256\334\037"
 112      C73373D7 
 112      27C61BF7 
 112      4646AEDC 
 112      1F
 113 01d3 4EE79E50 		.ascii	"N\347\236P\377\177\251Pj]\245\020\376\001\275\352\324"
 113      FF7FA950 
 113      6A5DA510 
 113      FE01BDEA 
 113      D4
 114 01e4 AA       		.ascii	"\252"
 115              		.text
 116              		.section	.gnu.lto_initialize.f2deea5ac5b9576a,"",%progbits
 117 0000 789CA554 		.ascii	"x\234\245TMh\023A\024~o\366/\335D\023\215\326Z5\306"
 117      4D681341 
 117      147E6FF6 
 117      2FDD4413 
 117      8DD65A35 
 118 0015 82D493E0 		.ascii	"\202\324\223\340I\020\017\012*\210\007!MA\217\313Vd"
 118      49100F0A 
 118      2A880721 
 118      4D418FCB 
 118      5664
 119 0027 A01B0FD6 		.ascii	"\240\033\017\326\203z\350\206$\032<\365f/\305\226\320"
 119      837AE886 
 119      241A3CF5 
 119      662FC596 
 119      D0
ARM GAS  /tmp/cc5aiyH4.s 			page 9


 120 0038 8B063C79 		.ascii	"\213\006<y\020=T,\350\311RQ\260\027\031\350\301\012"
 120      103D542C 
 120      E8C95251 
 120      B01719E8 
 120      C10A
 121 004a C5AB2085 		.ascii	"\305\253 \205\370&\223]w\273\201\026\034\330\235\231"
 121      F826935D 
 121      77BB8116 
 121      1CD89D99 
 122 005a 37DFFBDE 		.ascii	"7\337\373\3367o\336\014\003\006\333\3335\372\332:\300"
 122      376FDE0C 
 122      0306DBDB 
 122      35FADA3A 
 122      C0
 123 006b 79EAD102 		.ascii	"y\352\321\002d3\237\000\252)\306\264\346(\370\266!\377"
 123      64339F00 
 123      AA29C6B4 
 123      E628F8B6 
 123      21FF
 124 007d 198DE95F 		.ascii	"\031\215\351_\006if\276=K3\035M\0052\202\201\211(\007"
 124      066966BE 
 124      3D4B331D 
 124      4D053282 
 124      81892807 
 125 0091 8030CD34 		.ascii	"\2000\3154\3350q\372&Jr\034\201\005\337\237\021\213"
 125      DD3071FA 
 125      264A721C 
 125      8105DF9F 
 125      118B
 126 00a3 BF053EF5 		.ascii	"\277\005>\365\227\252\363\376V\247\203\310\221\204\330"
 126      97AAF3FE 
 126      56A783C8 
 126      9184D8
 127 00b2 082EC20D 		.ascii	"\010.\302\015\232`\252\3331\214+{\311\226D\247\323~"
 127      9A60AADB 
 127      318C2B7B 
 127      C99644A7 
 127      D37E
 128 00c4 55FF7C2A 		.ascii	"U\377|*\237\001\007\027\210-\013\0345Z3\240N\274Ee\004"
 128      9F010717 
 128      882D0B1C 
 128      355A33A0 
 128      4EBC4565 
 129 00d9 4944AD4C 		.ascii	"ID\255L\177)c\034\231\354\265\025\250\211\0275\313\301"
 129      7F29631C 
 129      99ECB515 
 129      A8891735 
 129      CBC1
 130 00eb 161AB4FC 		.ascii	"\026\032\264\374\020\376\370M?\307QwQ\205\342\322.Q"
 130      10FEF84D 
 130      3FC75177 
 130      5185E2D2 
 130      2E51
 131 00fd EDF77D51 		.ascii	"\355\367}Q,\206\232\177\255\365\003iQP]\274ia\002e\272"
 131      2C869A7F 
 131      ADF50369 
 131      51505DBC 
ARM GAS  /tmp/cc5aiyH4.s 			page 10


 131      69610265 
 132 0112 A8775172 		.ascii	"\250wQr\233\026e\224\323\226\011\335\020+}\344\015\270"
 132      9B166594 
 132      D39609DD 
 132      102B7DE4 
 132      0DB8
 133 0124 DDB9B2A4 		.ascii	"\335\271\262\2448\332\036B\017\2440\376=\216i\017\203"
 133      38DA1E42 
 133      0FA430FE 
 133      3D8E690F 
 133      83
 134 0135 381C338A 		.ascii	"8\0343\212\354\333\356\310\330\256\310\326ZI\262=.\232"
 134      ECDBEEC8 
 134      D8AEC8D6 
 134      5A49B23D 
 134      2E9A
 135 0147 2119B93E 		.ascii	"!\031\271>\303\204\272Y\337_#\353\336\002\344\346\374"
 135      C384BA59 
 135      DF5F23EB 
 135      DE02E4E6 
 135      FC
 136 0158 D90B1CB3 		.ascii	"\331\013\034\263\0202\347T\206\276\357\230\241\345|"
 136      1032E754 
 136      86BEEF98 
 136      A1E57C
 137 0167 90A14762 		.ascii	"\220\241Gbc\335T\350\333\230\011\341\373\\*\325\210"
 137      63DD54E8 
 137      DB9809E1 
 137      FB5C2AD5 
 137      88
 138 0178 90FB1CF7 		.ascii	"\220\373\034\367{\250Et\320V\363\036\352qKD+\307\003"
 138      7BA84574 
 138      D056F31E 
 138      EA714B44 
 138      2BC703
 139 018b 4ACDCF1D 		.ascii	"J\315\317\035\325lXJ\315GX\376\361\356\353\007-\224"
 139      D56C584A 
 139      CD4758FE 
 139      F1EEEB07 
 139      2D94
 140 019d 23570F46 		.ascii	"#W\017F+v\234\212\2419\252I\332\315\365t\200\313\206"
 140      2B769C8A 
 140      A139AA49 
 140      DACDF574 
 140      80CB86
 141 01b0 BC83AEE4 		.ascii	"\274\203\256\344\371w\030\021\315\034\017\311\010\365"
 141      F9771811 
 141      CD1C0FC9 
 141      08F5
 142 01be CDEA99D0 		.ascii	"\315\352\231\320O\362kq~\035\236\247\211\377\261\370"
 142      4FF26B71 
 142      7E1D9EA7 
 142      89FFB1F8 
 143 01ce 55B313B2 		.ascii	"U\263\023\262\207\\\034\210fe\216\374\017{h\304\217"
 143      875C1C88 
 143      66658EFC 
 143      0F7B68C4 
ARM GAS  /tmp/cc5aiyH4.s 			page 11


 143      8F
 144 01df 6795ACC3 		.ascii	"g\225\254\303\005\030R\307sd[iI\237d*c\211;\032\210"
 144      051852C7 
 144      73645B69 
 144      499F642A 
 144      63893B1A 
 145 01f4 31D4661B 		.ascii	"1\324f\033b\353\277j\345X\001\206\225\230B\254VT\020"
 145      62EBBF6A 
 145      E5580186 
 145      959842AC 
 145      565410
 146 0207 B377951B 		.ascii	"\263w\225\033\242\271\230\214r\334E;\232\321\242\207"
 146      A2B9988C 
 146      72DC453B 
 146      9AD1A287 
 147 0217 BD72E99E 		.ascii	"\275r\351\236\335\011IE\017\304*T\305\223\223\201\267"
 147      DD094945 
 147      0FC42A54 
 147      C5939381 
 147      B7
 148 0228 6A657A04 		.ascii	"jez\004\210Z\336q\313sx\345\264\013\306\335\211\253"
 148      885ADE71 
 148      CB7378E5 
 148      B40BC6DD 
 148      89AB
 149 023a 156E8D95 		.ascii	"\025n\215\225/\226\3126=f#\366\345R\351z\351\\q\354"
 149      2F96CA36 
 149      3D6623F6 
 149      E552E97A 
 149      E95C71EC 
 150 024e 529116A6 		.ascii	"R\221\026\246\2703\311\0378S\374N\245x\305\341\223\267"
 150      B833C91F 
 150      3853FC4E 
 150      A578C5E1 
 150      93B7
 151 0260 266CF80B 		.ascii	"&l\370\013\206R:\245"
 151      86523AA5 
 152              		.text
 153              		.section	.gnu.lto_openNewLogfile.f2deea5ac5b9576a,"",%progbits
 154 0000 789C5D50 		.ascii	"x\234]P=K\003A\020}ov\017\317\020\320B\204t\251\025"
 154      3D4B0341 
 154      107D6F76 
 154      0FCF10D0 
 154      428474A9 
 155 0015 04213F25 		.ascii	"\004!?%\001-\343\025\341\212\363\017XdO\256\260\260"
 155      012DE315 
 155      E18AF30F 
 155      58644FAE 
 155      B0B0
 156 0027 48294993 		.ascii	"H)I\223T6\242\235`g)\202J*\321*EJ\177\201M\234Y\222"
 156      5436A29D 
 156      60672982 
 156      4A2AD12A 
 156      454A7F81 
 157 003f 282EECCC 		.ascii	"(.\354\314\354\316{o>\004\202\377\347P\357.\201M\365"
 157      ECCE7B6F 
 157      3E0482FF 
ARM GAS  /tmp/cc5aiyH4.s 			page 12


 157      E750EF2E 
 157      814DF5
 158 0052 4C4019BC 		.ascii	"L@\031\274\002e*\342\346\015\204\272\277i!\324\034\275"
 158      02652AE2 
 158      E60D84BA 
 158      BF6921D4 
 158      1CBD
 159 0064 7DD393E6 		.ascii	"}\323\223\346A\364\305y\366\217\0315\356\344q\266X\334"
 159      41F4C579 
 159      F68F1935 
 159      EEE471B6 
 159      58DC
 160 0076 DE3F8F1F 		.ascii	"\336?\217\037()\221S\013\251\361j\230\260\210\250\004"
 160      28299153 
 160      0BA9F16A 
 160      98B088A8 
 160      04
 161 0087 55088326 		.ascii	"U\010\203&\220\305g[\255iu(\346\335\013\316?\257\256"
 161      90C5675B 
 161      AD697528 
 161      E6DD0BCE 
 161      3FAFAE
 162 009a A7D2E544 		.ascii	"\247\322\345D\333\350\321\357cO\331#\014\313\020\266"
 162      DBE8D1EF 
 162      634FD923 
 162      0CCB10B6 
 163 00aa 73CA19BE 		.ascii	"s\312\031\276\303\205E\256\240)\034Q\303X\376\204\253"
 163      C38545AE 
 163      A0291C51 
 163      C358FE84 
 163      AB
 164 00bb 619E507D 		.ascii	"a\236P}\225[k\011\203\360\357\260\035e\314\033\356\015"
 164      955B6B09 
 164      83F0EFB0 
 164      1D65CC1B 
 164      EE0D
 165 00cd 55BA02FD 		.ascii	"U\272\002\375\352\372l\011\3561\3115\267d\370\330\336"
 165      EAFA6C09 
 165      EE31C935 
 165      B764F8D8 
 165      DE
 166 00de 54776299 		.ascii	"Twb\231\210\370\000\225\350h\372:\251\\\276\357\330"
 166      88F80095 
 166      E868FA3A 
 166      A95CBEEF 
 166      D8
 167 00ef 4034A46D 		.ascii	"@4\244mx\243\350\346\247\007\031~\000/\321@\245"
 167      78A3E8E6 
 167      A707197E 
 167      002FD140 
 167      A5
 168              		.text
 169              		.section	.gnu.lto_closeLog.f2deea5ac5b9576a,"",%progbits
 170 0000 789C6362 		.ascii	"x\234cb`b@\007\222@<\031\2109\201\230\221\231\201\221"
 170      60624007 
 170      92403C19 
 170      88398198 
ARM GAS  /tmp/cc5aiyH4.s 			page 13


 170      91998191 
 171 0014 69C23906 		.ascii	"i\3029\006\206F\016&FF\020\203\201\221\241\236\211\261"
 171      86460E26 
 171      46461083 
 171      8191A19E 
 171      89B1
 172 0026 3E9211AC 		.ascii	">\222\021\254v=\323\201\007\377\377\257\373wj\301)F"
 172      763DD381 
 172      07FFFFAF 
 172      FB776AC1 
 172      2946
 173 0038 2666A000 		.ascii	"&f\240\000+CKC\303\004\005\006\206d\260\202\020 \011"
 173      2B434B43 
 173      C3040506 
 173      8664B082 
 173      102009
 174 004b D215CAC8 		.ascii	"\322\025\312\310\004\242\231\3173\264<8\261\224+\221"
 174      04A299CF 
 174      33B43C38 
 174      B1942B91 
 175 005b 7121232B 		.ascii	"q!#+P\272\232\341WCG\203@&#P9\304@\220\010G&#c.#\003"
 175      50BA9AE1 
 175      57434783 
 175      40262350 
 175      39C44090 
 176 0077 54512650 		.ascii	"TQ&P+\303E\206\306\007'\2272B\204\"\0303\031\231a\256"
 176      2BC34586 
 176      C6072797 
 176      32428422 
 176      18331999 
 177 008d 0D016A04 		.ascii	"\015\001j\004\232\014\362\006{nbf\236^2\003\000\374"
 177      9A0CF206 
 177      7B6E6266 
 177      9E5E3203 
 177      00FC
 178 009f F229E1   		.ascii	"\362)\341"
 179              		.text
 180              		.section	.gnu.lto_printGps.f2deea5ac5b9576a,"",%progbits
 181 0000 789C8D91 		.ascii	"x\234\215\221\255O\003A\020\305\337\333\273\353\227"
 181      AD4F0341 
 181      10C5DFDB 
 181      BBEB97
 182 000f C262A0A6 		.ascii	"\302b\240\246\206\022\024\012E\005!$\005\004G\000YN"
 182      8612140A 
 182      45052124 
 182      05044700 
 182      594E
 183 0021 34278A01 		.ascii	"4'\212\001EE\267\200@V\221\246@\000\213\000\376\004"
 183      4545B780 
 183      405691A6 
 183      40008B00 
 183      FE04
 184 0033 3C018224 		.ascii	"<\001\202$\230\312&\010\004\202\244\2102\273Wr\344\202"
 184      98CA2608 
 184      0482A488 
 184      32BB5772 
 184      E482
ARM GAS  /tmp/cc5aiyH4.s 			page 14


 185 0045 E82437B3 		.ascii	"\350$7\263\373v\34773\267\012\012I\033\227\257(\362"
 185      FB76E737 
 185      33B70A0A 
 185      491B97AF 
 185      28F2
 186 0057 AC443AA0 		.ascii	"\254D:\240j=\001\315\214\"\315\002DC\261\261E{\367V"
 186      6A3D01CD 
 186      8C22CD02 
 186      4443B1B1 
 186      457BF756 
 187 006b DD770783 		.ascii	"\335w\007\203\233\273\207\313\036U\226\254Q\200!\341"
 187      9BBB87CB 
 187      1E5596AC 
 187      518021E1 
 188 007b 88A36B9C 		.ascii	"\210\243k\234g\266)\343\304<\034i\335\312\003\201\335"
 188      67B629E3 
 188      C43C1C69 
 188      DDCA0381 
 188      DD
 189 008c FAE20D73 		.ascii	"\372\342\015s\235\312D\347\021\007\375\303\367\223\311"
 189      9DCA44E7 
 189      1107FDC3 
 189      F793C9
 190 009b 0AAF24AF 		.ascii	"\012\257$\257JU\307\276$\026q\255\3056B\252St\030\322"
 190      4A55C7BE 
 190      241671AD 
 190      C53642AA 
 190      537418D2 
 191 00af A9929B12 		.ascii	"\251\222\233\022]\333\3036\3774o\021\0371\302\261\010"
 191      5DDBC336 
 191      FF346F11 
 191      1F31C2B1 
 191      08
 192 00c0 C608EF7F 		.ascii	"\306\010\357\177\004\023\210\317\030\341\216\210P\011"
 192      041388CF 
 192      18E18E88 
 192      5009
 193 00ce C4578CF0 		.ascii	"\304W\214\360F\034\304I \276cDjD\204\033#\236\321\321"
 193      461CC449 
 193      20BE6344 
 193      6A44841B 
 193      239ED1D1 
 194 00e2 676F7B11 		.ascii	"go{\021\001\250\243\257\217\365X\310T0\0347R\364\205"
 194      01A8A3AF 
 194      8FF558C8 
 194      54301C37 
 194      52F485
 195 00f5 A4A76BE4 		.ascii	"\244\247k\344\360\242Q\333Z\277\212\232\231@\356\\\267"
 195      F0A251DB 
 195      5ABF8A9A 
 195      9940EE5C 
 195      B7
 196 0106 E7436631 		.ascii	"\347Cf1<\225W\251\232\242\256L%]\205\314\001/hv{\205"
 196      3C9557A9 
 196      9AA2AE4C 
 196      255D85CC 
 196      012F6876 
ARM GAS  /tmp/cc5aiyH4.s 			page 15


 197 011c DF3A91F9 		.ascii	"\337:\221\371RC\336\324\374\224t\255\022\356\314\004"
 197      5243DED4 
 197      FC9474AD 
 197      12EECC04 
 198 012c 98F29796 		.ascii	"\230\362\227\226\027\346\012\273\323\371r\311\217\342"
 198      17E60ABB 
 198      D3F972C9 
 198      8FE2
 199 013a EACAA25D 		.ascii	"\352\312\242]\224\312\221\260f\017r\370\001g7\210\341"
 199      94CA91B0 
 199      660F72F8 
 199      01673788 
 199      E1
 200              		.text
 201              		.section	.gnu.lto_writeHeader.f2deea5ac5b9576a,"",%progbits
 202 0000 789C8551 		.ascii	"x\234\205Q=H\303@\024~\357\222\230\266\376\342\326A"
 202      3D48C340 
 202      147EEF92 
 202      98B6FEE2 
 202      D641
 203 0012 2805D7EA 		.ascii	"(\005\327\352\340\320U0\320A\227\022\301N\022B\221@"
 203      E0D05530 
 203      D0419712 
 203      C14E1242 
 203      9140
 204 0024 5B707072 		.ascii	"[ppr\350\265\026-\250\020D\020\355\322\"\305\321\301"
 204      E8B5162D 
 204      A8104410 
 204      EDD222C5 
 204      D1C1
 205 0036 C5490EB7 		.ascii	"\305I\016\267\"*\256\202\320\275\223\270I1\276K\332"
 205      222AAE82 
 205      D0BD93B8 
 205      4931BE4B 
 205      DA
 206 0047 5AEBE083 		.ascii	"Z\353\340\203\334\273\334\373~\336\275c\300`4\242\364"
 206      DCBBDCFB 
 206      7EDEBD63 
 206      C06034A2 
 206      F4
 207 0058 25E9789E 		.ascii	"%\351x\2362*\200\314}\002(\205\030\242\334\000B\221"
 207      322A80CC 
 207      7D022885 
 207      18A2DC00 
 207      4291
 208 006a 61318312 		.ascii	"a1\203\022\252\304\241\301\371I\273y\327R\316OE\245"
 208      AAC4A1C1 
 208      F949BB79 
 208      D752CE4F 
 208      45A5
 209 007c CEBB9E87 		.ascii	"\316\273\236\207\350 \311F\020l\204\015\372\301\230"
 209      E820C946 
 209      106C840D 
 209      FAC198
 210 008b 9F98FADB 		.ascii	"\237\230\372\333Gr\205+\336\017\217\221\327\313.\377"
 210      4772852B 
 210      DE0F8F91 
ARM GAS  /tmp/cc5aiyH4.s 			page 16


 210      D7CB2EFF 
 211 009b 22AA830A 		.ascii	"\"\252\203\012\203\271\037\246P\003j\352/\225\273\342"
 211      83B91FA6 
 211      50036AEA 
 211      2F95BBE2 
 212 00ab E3E1283A 		.ascii	"\343\341(:DU\031\304\3773\275f\242\355y\335\267\312"
 212      445519C4 
 212      FF33BD66 
 212      A2ED79DD 
 212      B7CA
 213 00bd EB429881 		.ascii	"\353B\230\201\205\015\214\203J\271IY\003\0075\235\226"
 213      850D8C83 
 213      4AB94959 
 213      0307359D 
 213      96
 214 00ce 31026A50 		.ascii	"1\002jP!\213\230\205\227T\011\352 \265)LZ\345(\326\221"
 214      218B9885 
 214      975409EA 
 214      20B5294C 
 214      5AE528D6 
 215 00e3 C9AC3C42 		.ascii	"\311\254<B\271uK\023\260\360\0125\330BV\203\213\022"
 215      B9754B13 
 215      B0F00A35 
 215      D8425683 
 215      8B12
 216 00f5 E7333486 		.ascii	"\34734\206]\370\344U\271\323\363>U\266\244\367Zy\206"
 216      5DF8E455 
 216      B9D3F33E 
 216      55B6A4F7 
 216      5A7986
 217 0108 7D11ED73 		.ascii	"}\021\355s\324\0012d\243\017\365\271\024;\016\206\373"
 217      D4013264 
 217      A30FF5B9 
 217      143B0E86 
 217      FB
 218 0119 5D48ACAF 		.ascii	"]H\254\257\021II\037\007\307\001\310\275\263\3279K\366"
 218      1149491F 
 218      07C701C8 
 218      BDB3D739 
 218      4BF6
 219 012b 95341293 		.ascii	"\2254\022\223\342\007B\353\037\351\003\361\011\033\331"
 219      E20742EB 
 219      1FE903F1 
 219      091BD9
 220 013a 40BCCAF9 		.ascii	"@\274\312\371\266\203\223y\304\236r\317\261\206\243"
 220      B6839379 
 220      C49E72CF 
 220      B186A3
 221 0149 96A42A5D 		.ascii	"\226\244*]\247\200\2063--\357;,(\005\260%\270\341U\371"
 221      A7808633 
 221      2D2DEF3B 
 221      2C2805B0 
 221      25B8E155 
 222 015e 78A4FC02 		.ascii	"x\244\374\002\245!\347\340\252&]\211&%\255\365\274\345"
 222      A521E7E0 
 222      AA265D89 
 222      2625ADF5 
ARM GAS  /tmp/cc5aiyH4.s 			page 17


 222      BCE5
 223 0170 141236CC 		.ascii	"\024\0226\314\232\306\252\261f\230\351\314f\312X^1\322"
 223      9AC6AAB1 
 223      6698E9CC 
 223      66CA585E 
 223      31D2
 224 0182 894535E7 		.ascii	"\211E5\347\024\262J.[\370\006\260\005\224\027"
 224      14B24A2E 
 224      5BF806B0 
 224      059417
 225              		.text
 226              		.section	.gnu.lto_main.f2deea5ac5b9576a,"",%progbits
 227 0000 789C9552 		.ascii	"x\234\225R=O\033A\020\235\267{>;\306|\030\022E\251\260"
 227      3D4F1B41 
 227      109DB77B 
 227      3E3BC67C 
 227      181245A9 
 228 0015 A8437E03 		.ascii	"\250C~\003T\204\336H\241\210\340\264H\311J\301F\202"
 228      5484DE48 
 228      A188E0B4 
 228      48C94AC1 
 228      4682
 229 0027 8A142C89 		.ascii	"\212\024,\211%>\322\\\203\004\222\013\243\010!H\002"
 229      253ED25C 
 229      8304920B 
 229      A3082148 
 229      02
 230 0038 2D0D702D 		.ascii	"-\015p-\015nSZJ\341\032\"\245\210\"\216]\357\201mlt"
 230      0D6E535A 
 230      4AE11A22 
 230      A588228E 
 230      5DEF816D 
 231 004e CA48B7B3 		.ascii	"\312H\267\263;\367\336\316\233\231e\304\350\241\215"
 231      3BF7DECE 
 231      9B9965C4 
 231      E8A18D
 232 005d EAAFCC89 		.ascii	"\352\257\314\211^h\217\004\201\371\227D\253)\006n7\034"
 232      5E688F04 
 232      81F99744 
 232      AB29066E 
 232      371C
 233 006f 8EDD3836 		.ascii	"\216\335862\016Za\334\301\3124\014\235\215\320\256\012"
 233      320E5A61 
 233      DCC1CA34 
 233      0C9D8DD0 
 233      AE0A
 234 0081 FCDADEAF 		.ascii	"\374\332\336\257\013\266\252\202RE\375\013C@B\247J\203"
 234      0BB6AA82 
 234      5245FD0B 
 234      434042A7 
 234      4A83
 235 0093 04E88D3E 		.ascii	"\004\350\215> \327p\314i\317m\271\301\371\345\026T\345"
 235      20D770CC 
 235      69CF6DB9 
 235      C1F9E516 
 235      54E5
 236 00a5 93AF6E34 		.ascii	"\223\257n4U\2023\3126\231\312\265\324\331v\3521\013"
ARM GAS  /tmp/cc5aiyH4.s 			page 18


 236      558233CA 
 236      3699CAB5 
 236      D4D976EA 
 236      310B
 237 00b7 6A6158BE 		.ascii	"jaX\276*]\277\316\352c\202JJ\3719\017\273\030!\017_"
 237      2A5DBFCE 
 237      EA63824A 
 237      4AF9390F 
 237      BB18210F 
 238 00cc F54AE60A 		.ascii	"\365J\346\012my\275\202\246\300\010\274J\237k\233\365"
 238      6D79BD82 
 238      A6C008BC 
 238      4A9F6B9B 
 238      F5
 239 00dd A4873D5D 		.ascii	"\244\207=]*\321G\372\253\326\325\200\204#\320\300\222"
 239      2AD147FA 
 239      ABD6D580 
 239      8423D0C0 
 239      92
 240 00ee 34F12A6D 		.ascii	"4\361*m\253\362\357\023t\300\\\001\333@\033Q3\022\311"
 240      ABF2EF13 
 240      74C05C01 
 240      DB401B51 
 240      3312C9
 241 0101 79508433 		.ascii	"yP\20432S?3\015\377d\354\016\363V\"-\300#\214\011j\333"
 241      32533F33 
 241      0DFF64EC 
 241      0EF35622 
 241      2DC0238C 
 242 0118 71257AEE 		.ascii	"q%z\356\3046~HdL\342R\355\260\236\356\310\333+`;g\256"
 242      C4367E48 
 242      644CE252 
 242      EDB09EEE 
 242      C8DB2B60 
 243 012f EE8306F7 		.ascii	"\356\203\006\367[\360\267\265\256\340DW\360\367\375"
 243      5BF0B7B5 
 243      AEE04457 
 243      F0F7FD
 244 013e CE8A0604 		.ascii	"\316\212\006\004\334{p\366\344\271F\017Z\364\217X\035"
 244      DC7B70F6 
 244      E4B9460F 
 244      5AF48F58 
 244      1D
 245 014f D4BCFA28 		.ascii	"\324\274\372(VG\00466\005N\372%qC<\335\357\034\306\243"
 245      56470436 
 245      36054EFA 
 245      2571433C 
 245      DDEF1CC6 
 246 0164 059C75C9 		.ascii	"\005\234u\3112$\220\214F\262,\361\324\216\376\276\247"
 246      3224908C 
 246      46B22CF1 
 246      D48EFEBE 
 246      A7
 247 0175 CF2C319C 		.ascii	"\317,1\234\210)\2742\334,|}\343?\006\260q\020\247\277"
 247      8829BC32 
 247      DC2C7C7D 
 247      E33F06B0 
ARM GAS  /tmp/cc5aiyH4.s 			page 19


 247      7110A7BF 
 248 0189 A54B9B93 		.ascii	"\245K\233\22312\376\274l\312\370\022+\243\245\245y\035"
 248      3132FEBC 
 248      6CCAF812 
 248      2BA3A5A5 
 248      791D
 249 019b D72D453E 		.ascii	"\327-E>z\306\224\234\367d\341\225 \367\335\302b\376"
 249      7AC6949C 
 249      F764E195 
 249      20F7DDC2 
 249      62FE
 250 01ad FD5CEA43 		.ascii	"\375\\\352CQxK\262X\270\005Y\016\3428"
 250      51784BB2 
 250      58B80559 
 250      0EE238
 251              		.text
 252              		.section	.gnu.lto_.symbol_nodes.f2deea5ac5b9576a,"",%progbits
 253 0000 789C4D8E 		.ascii	"x\234M\216;WSA\024\205\317\354\311\020@ ^\005\302#\212"
 253      3B575341 
 253      1485CFEC 
 253      C9104020 
 253      5E05C223 
 254 0015 2260E372 		.ascii	"\"`\343r\371\227\374\011\376\202\035\274\232D\021\005"
 254      F997FC09 
 254      FE821DBC 
 254      9A441105 
 255 0025 15C40728 		.ascii	"\025\304\007(\\\037\024\372\007,\241\320\312\312em\326"
 255      5C1F14FA 
 255      072CA1D0 
 255      CACA656D 
 255      D6
 256 0036 B5B0B0B6 		.ascii	"\265\260\260\266T\347q\361d\232=\337>\373< \220kV\322"
 256      54E771F1 
 256      649A3DDF 
 256      3EFB3C20 
 256      906B56D2 
 257 004a C35F4323 		.ascii	"\303_C#\033_D\310\365\336u\034\202\250p\267g\\\007R"
 257      1B5F44C8 
 257      F5DE751C 
 257      82A870B7 
 257      675C0752 
 258 005e A375B761 		.ascii	"\243u\267a\202t\001G\301]\320V\231=\237\331BM(\356\016"
 258      82740147 
 258      C15DD056 
 258      993D9FD9 
 258      424D28EE 
 259 0073 8643661B 		.ascii	"\206Cf\033\365@\267\340\002\3650\344;\334sXob\015\254"
 259      F540B7E0 
 259      02F530E4 
 259      3BDC7358 
 259      6F620DAC 
 260 0087 6923EE81 		.ascii	"i#\356\201n\000\327\301\241\001\274\017\326\007\266"
 260      6E00D7C1 
 260      A101BC0F 
 260      D607B6
 261 0096 B431EA07 		.ascii	"\2641\352\007\342\0018|\342~\206[\305\210w\315kP\222"
 261      E201387C 
ARM GAS  /tmp/cc5aiyH4.s 			page 20


 261      E27E865B 
 261      C58877CD 
 261      6B5092
 262 00a9 DB5E3566 		.ascii	"\333^5f\017\034\251\250m\314.8\252\364\002<\245\364"
 262      0F1CA9A8 
 262      6DCC2E38 
 262      AAF4023C 
 262      A5F4
 263 00bb 121C537A 		.ascii	"\022\034Sz\005\216+=\003'\224\236\202\015\245\035\360"
 263      058E2B3D 
 263      0327949E 
 263      820DA51D 
 263      F0
 264 00cc B4D22330 		.ascii	"\264\322#0Sz\002\236Qz\014\236Uz\010N*m\202SJ\033\340"
 264      537A029E 
 264      517A0C9E 
 264      557A084E 
 264      2A6D8253 
 265 00e3 B4D23ED8 		.ascii	"\264\322>\330T:\000g\224\336\200\263Jo\3019\245w\340"
 265      543A0067 
 265      94DE80B3 
 265      4A6FC139 
 265      A577E0
 266 00f6 BC5201B6 		.ascii	"\274R\001\266\376\223\225i\311\277\377\361:%E\324I9"
 266      FE939569 
 266      C9BFFFF1 
 266      3A2545D4 
 266      4939
 267 0108 0E6A66A4 		.ascii	"\016jf\244\350\007mJ\376\341j\220\362}\224\342p\305"
 267      E8076D4A 
 267      FEE16A90 
 267      F27D94E2 
 267      70C5
 268 011a BA8BA9C9 		.ascii	"\272\213\251\311]HMn!5\271\226\224Q\317K\336O\032\207"
 268      5D484D6E 
 268      2135B996 
 268      9451CF4B 
 268      DE4F1A87 
 269 012e 3891A37E 		.ascii	"8\221\243~U\217zN\362\316\257\205\300E\324y);\277\353"
 269      558F7A4E 
 269      F2CEAF85 
 269      C045D479 
 269      293BBFEB 
 270 0142 D6CD49F1 		.ascii	"\326\315I\361\351+b\276\033xV\312\256\257\217\0319\372"
 270      E92B62BE 
 270      1B7856CA 
 270      AEAF8F19 
 270      39FA
 271 0154 79C58E2F 		.ascii	"y\305\216/\246\265\023\"\007aL\243\231\3267.\245\265"
 271      A6B51322 
 271      07614CA3 
 271      99D6372E 
 271      A5B5
 272 0166 99939B51 		.ascii	"\231\223\233Q/'?[Jge\313U\275\225\316\362~<\313\373"
 272      2F273F5B 
 272      4A6765CB 
 272      55BD95CE 
ARM GAS  /tmp/cc5aiyH4.s 			page 21


 272      F27E3CCB 
 273 017b C79596FB 		.ascii	"\307\225\226\373\337\326\3526[\361w\375\370x#$\213\364"
 273      DFD6EA36 
 273      5BF177FD 
 273      F8782324 
 273      8BF4
 274 018d F123D2C7 		.ascii	"\361#\322\307gNJy\267*\025\341#\377\000\177$\362X"
 274      674E4A79 
 274      B72A15E1 
 274      23FF007F 
 274      24F258
 275              		.text
 276              		.section	.gnu.lto_.refs.f2deea5ac5b9576a,"",%progbits
 277 0000 789C258B 		.ascii	"x\234%\213\331\021\200P\020\302\330\254\256\367\363"
 277      D9118050 
 277      10C2D8AC 
 277      AEF7F3
 278 000f 2AC8FEBB 		.ascii	"*\310\376\273\222Q\230\344\013\020z\364'\003H\272\326"
 278      925198E4 
 278      0B107AF4 
 278      270348BA 
 278      D6
 279 0020 530C8CA6 		.ascii	"S\014\214\246\230\230?\247)w\211U\304\006\321\274\330"
 279      98983FA7 
 279      29778955 
 279      C406D1BC 
 279      D8
 280 0031 75F87372 		.ascii	"u\370srq\353\0056\032\001\210"
 280      71EB0536 
 280      1A0188
 281              		.text
 282              		.section	.gnu.lto_.decls.f2deea5ac5b9576a,"",%progbits
 283 0000 789CBD7D 		.ascii	"x\234\275}\011|\024U\326oU\357\035\" n\240\216\266:"
 283      097C1455 
 283      D66F55EF 
 283      1D22206E 
 283      A08EB63A 
 284 0014 8B338F31 		.ascii	"\2133\2171\020\030u\276E\301\020\226\031\266I\3426\337"
 284      101875BE 
 284      45C11096 
 284      19B649E2 
 284      36DF
 285 0026 7B2F3649 		.ascii	"{/6I\007\3723\233\335\035\226\357{\277g\261\005\304"
 285      07FA339B 
 285      DD1D96EF 
 285      7BBF67B1 
 285      05C4
 286 0038 B0C8AEEC 		.ascii	"\260\310\256\354;\312\"\001\021\002\004\032\301\260"
 286      3BCA2201 
 286      1102041A 
 286      C1B0
 287 0046 AF610D06 		.ascii	"\257a\015\006\302\"\202\012\002\2215@\336\271\247\252"
 287      C222820A 
 287      02913540 
 287      DEB9A7AA 
 288 0056 BA6F5557 		.ascii	"\272oUWU\337jg^\377~\367Tuu\335\177\235{\356\271\347"
 288      55DF6A67 
ARM GAS  /tmp/cc5aiyH4.s 			page 22


 288      5EFF7EF7 
 288      547575DD 
 288      7F9D7BEE 
 289 006c 9CBBD46D 		.ascii	"\234\273\324m\013g\341\332\3309\256\021>\317\177\305"
 289      0B67E1DA 
 289      D839AE11 
 289      3ECF7FC5 
 290 007c 71C90F73 		.ascii	"q\311\017s\234\233\343\270W y \331 \315\201\264\000"
 290      9C9BE3B8 
 290      57207920 
 290      D920CD81 
 290      B400
 291 008e D242484B 		.ascii	"\322BHK -\205\264\034\322\347\220\312!m\205t\301\302"
 291      202D85B4 
 291      1CD2E790 
 291      CA216D85 
 291      74C1C2
 292 00a1 7149568E 		.ascii	"qIV\216{\016\322LH]!c7H\177\205\324\035\322n\270\307"
 292      7B0ED24C 
 292      485D2163 
 292      37487F85 
 292      D41DD26E 
 293 00b7 09E910A4 		.ascii	"\011\351\020\244\236\360\275\027\244\277A\372_\220\376"
 293      9EF0BD17 
 293      A4BF41FA 
 293      5F90FE
 294 00c6 37A4B370 		.ascii	"7\244\263p\375\0358\332\011&\317q\225\200\361\020`\222"
 294      FD1D38DA 
 294      0926CF71 
 294      9580F110 
 294      6092
 295 00d8 CFAF20E5 		.ascii	"\317\257 \345\303o\205\220FB\232\004\351cH\263 \315"
 295      C36F8590 
 295      46429A04 
 295      E96348B3 
 295      20CD
 296 00ea 83540929 		.ascii	"\203T\011)\014i\013\244\255\220\016B\252\206t\034R\035"
 296      0C690BA4 
 296      AD900E42 
 296      AA86741C 
 296      521D
 297 00fc A46F21FD 		.ascii	"\244o!\375\010\351\012\244\237!\335\201\304\303\203"
 297      08E90AA4 
 297      9F21DD81 
 297      C4C383
 298 010b AC90EC90 		.ascii	"\254\220\354\220\234\220\232@j\001\351QH-!=N\256\301"
 298      9C909A40 
 298      6A01E951 
 298      482D213D 
 298      4EAEC1
 299 011e 737F03C7 		.ascii	"s\177\003\307\337Az\036\322\037 \265\206\364\002$\""
 299      DF417A1E 
 299      D21F20B5 
 299      86F40224 
 299      22
 300 012f B35448ED 		.ascii	"\263TH\355!\275\004\351\317vN\361!\274\222\374;\340"
 300      21BD04E9 
ARM GAS  /tmp/cc5aiyH4.s 			page 23


 300      CF764EF1 
 300      21BC92FC 
 300      3BE0
 301 0141 D8148EC9 		.ascii	"\330\024\216\311\222,;\300}\235 u\204\224\016\351k\270"
 301      922C3BC0 
 301      7D9D2075 
 301      84940EE9 
 301      6BB8
 302 0153 D8198E5D 		.ascii	"\330\031\216]\244\3746)\357A\251,\244LD\014C\3418\334"
 302      A4FC3629 
 302      EF41A92C 
 302      A44C440C 
 302      43E138DC 
 303 0167 A67C0691 		.ascii	"\246|\006\221\005T\027\267\202z\306(\233(\267n\200\367"
 303      055417B7 
 303      827AC628 
 303      9B28B76E 
 303      80F7
 304 0179 17BBB2EE 		.ascii	"\027\273\262\356\016\331b\353\357\257ve\035\326H\317"
 304      0ED962EB 
 304      EFAF7665 
 304      1DD648CF 
 305 0189 B04AF8B2 		.ascii	"\260J\370\262\034\311\345\3616\245<\350\017\251\223"
 305      1CC9E5F1 
 305      36A53CE8 
 305      0FA993
 306 0198 E7A4E7CB 		.ascii	"\347\244\347\313\274\220:\355\016\367M\206k=\354b\375"
 306      BC903AED 
 306      0EF74D86 
 306      6B3DEC62 
 306      FD
 307 01a9 5F85F39E 		.ascii	"_\205\363\236vQGH\3757\020]\260Gu\242\010Ro\273\250"
 307      76514748 
 307      FD37105D 
 307      B04775A2 
 307      08526FBB 
 308 01be 2F4457AE 		.ascii	"/DW\256K\374\374\015\256]\202\363\014\273\310\253\254"
 308      4BFCFC0D 
 308      AE5D82F3 
 308      0CBBC8AB 
 308      AC
 309 01cf 57E76D51 		.ascii	"W\347mQ]\313\264Gu\360\264\224\257\211\304\233]\252"
 309      5DCBB447 
 309      75F0B494 
 309      AF89C49B 
 309      5DAA
 310 01e1 6F52EF57 		.ascii	"oR\357W$\035(\224\364\341GIG\210\256\020\036[K\365\232"
 310      241D2894 
 310      F4E14749 
 310      4788AE10 
 310      1E5B4BF5 
 311 01f6 4AD5F5EF 		.ascii	"J\325\365\357\244\372\247?D\007\035R\231IYWJ\355!\013"
 311      A4FAA73F 
 311      44071D52 
 311      99495957 
 311      4AED210B 
 312 020a EEFB80E8 		.ascii	"\356\373\200\350\030\234\273\254b\375},\351.9\237!\311"
ARM GAS  /tmp/cc5aiyH4.s 			page 24


 312      189CBBAC 
 312      62FD7D2C 
 312      E92E399F 
 312      21C9
 313 021c 91FECC92 		.ascii	"\221\376\314\222d\374\272T\037.\273\210K>\026\351w\242"
 313      64FCBA54 
 313      1F2EBB88 
 313      4B3E16E9 
 313      77A2
 314 022e A73C179B 		.ascii	"\247<\027\233w\236\244k\244NI\235\223z]\004\327\026"
 314      779EA46B 
 314      A44E499D 
 314      937A5D04 
 314      D716
 315 0240 DA44DDE8 		.ascii	"\332D\335\350%\311[nkER;[\006\307\317!\255\202\264\032"
 315      25C95B6E 
 315      6B45523B 
 315      5B06C7CF 
 315      21AD82B4 
 316 0255 D21A89BF 		.ascii	"\322\032\211\277y\222l\310\371:\233(\007\372C\332[s"
 316      79926CC8 
 316      F93A9B28 
 316      07FA43DA 
 316      5B73
 317 0267 386EE6A2 		.ascii	"8n\346\242u\375\206]\344\337*\311\343-\273\250\203o"
 317      75FD865D 
 317      E4DF2AC9 
 317      E32DBBA8 
 317      836F
 318 0279 4B3A4874 		.ascii	"K:Ht\357\357R\331\210\254\222\355Q=\253\224\364\214"
 318      EFEF52D9 
 318      88AC92ED 
 318      513DAB94 
 318      F48C
 319 028b B441F24C 		.ascii	"\264A\362L\322\226\324e$\355\373Q8\376\207=\372LRFY"
 319      D296D465 
 319      24EDFB51 
 319      38FE873D 
 319      FA4C5246 
 320 02a0 BF72EDB1 		.ascii	"\277r\355\261\366\303\007_\236\200\224g\027\237\371"
 320      F6C3075F 
 320      9E809467 
 320      179FF9
 321 02af 905DA987 		.ascii	"\220]\251\207}\355\242\214\346KrvI\317!\372B\332?\261"
 321      7DEDA28C 
 321      E64B7276 
 321      49CF21FA 
 321      42DA3FB1 
 322 02c3 39B24D20 		.ascii	"9\262M :\323R\222\377K*\336\334\334HA\030\"\314.\025"
 322      3AD35292 
 322      FF4B2ADE 
 322      DCDC4841 
 322      1822CC2E 
 323 02d8 BA6E07DE 		.ascii	"\272n\007\336\336\342\275|S7XOr\222\354F\261\374\206"
 323      DEE2BD7C 
 323      5337584F 
 323      7292EC46 
ARM GAS  /tmp/cc5aiyH4.s 			page 25


 323      B1FC86
 324 02eb 9B2F08E3 		.ascii	"\233/\010\343\352\206\377p\333\"\010./?\207wCQ\377\304"
 324      EA86FF70 
 324      DB22082E 
 324      2F3F8777 
 324      4351FFC4 
 325 02ff 737FE03E 		.ascii	"s\177\340>\025\340\027\310\3774\027\373\361\362vw\314"
 325      15E017C8 
 325      FF3417FB 
 325      F1F27677 
 325      CC
 326 0310 772F3F9F 		.ascii	"w/?\237\377\003'>\007\177\226N\210\011oF4aT\224\233"
 326      FF03273E 
 326      077F964E 
 326      88096F46 
 326      34615494 
 327 0325 07398016 		.ascii	"\0079\200\026\004\317\324\246\022\223u\013\204\226-"
 327      04CFD4A6 
 327      1293750B 
 327      84962D
 328 0334 233CBA64 		.ascii	"#<\272d\036y\231G\302\212\305\313/B\376\322x\015\236"
 328      1E799947 
 328      C28AC5CB 
 328      2F42FED2 
 328      780D9E
 329 0347 900DF23B 		.ascii	"\220\015\362;\315\007\371\036=k\344#O\030\307\313\217"
 329      CD07F91E 
 329      3D6BE423 
 329      4F18C7CB 
 329      8F
 330 0358 6821655D 		.ascii	"h!e]\310?\030\225\232 \361\211wh\011\216\344\370\214"
 330      C83F1895 
 330      9A20F189 
 330      7768098E 
 330      E4F88C
 331 036b 1785205D 		.ascii	"\027\205 ]\216\234<(\261\243\227o\001\337D\346XG(\""
 331      8E9C3C28 
 331      B1A3976F 
 331      01DF44E6 
 331      58472822 
 332 037f BB52FE91 		.ascii	"\273R\376\221\274\022\330\313/5\315\3522\035V\233\307"
 332      BC12D8CB 
 332      2F35CDEA 
 332      321D569B 
 332      C7
 333 0390 61758939 		.ascii	"au\2119V\005^\011\354\345?7\315\352\012\035V\233\305"
 333      56055E09 
 333      ECE53F37 
 333      CDEA0A1D 
 333      569BC5
 334 03a3 6175B90E 		.ascii	"au\271\016\253-\270\217\220U\252\011\204#l\266\344\""
 334      AB2DB88F 
 334      9055AA09 
 334      84236CB6 
 334      E422
 335 03b5 6DA0BCF4 		.ascii	"m\240\274\364\213\227\261\015\254\344[\200\216\275\301"
 335      8B97B10D 
ARM GAS  /tmp/cc5aiyH4.s 			page 26


 335      ACE45B80 
 335      8EBDC1
 336 03c4 4714897C 		.ascii	"G\024\211|\342\242X\270wH\216\325\220Y\314'\252mx\226"
 336      E2A258B8 
 336      77488ED5 
 336      9059CC27 
 336      AA6D7896 
 337 03d8 D7235EE5 		.ascii	"\327#^\345\024x\212\3173\334l\3407\274\352v\230\027"
 337      14788ACF 
 337      33DC6CE0 
 337      37BCEA76 
 337      9817
 338 03ea 46254B2D 		.ascii	"F%K-B(\025\236_\034}Zs\371a\026\212\345\021kZ#\313\025"
 338      4228159E 
 338      5F1C7D5A 
 338      73F96116 
 338      8AE5116B 
 339 0402 D82C46F3 		.ascii	"\330,F\363J\236\331\201jG-\3723\002m@\240]* /oU5w\253"
 339      4A9ED981 
 339      6A472DFA 
 339      33026D40 
 339      A05D2A20 
 340 041c B29959DD 		.ascii	"\262\231Y\335\321\223\306F+g\356f\013w\204\227e\247"
 340      D193C646 
 340      2B67EE66 
 340      0B778497 
 340      65A7
 341 042e C5644413 		.ascii	"\305dD\023\250\352WH\016\352n\331\023\037\013\341aV"
 341      A8EA5748 
 341      0EEA6ED9 
 341      131F0BE1 
 341      6156
 342 0440 45CD2B54 		.ascii	"E\315+T3F_6G\365\305\302\035W3\240\270]\213\001\217"
 342      33465F36 
 342      47F5C5C2 
 342      1D5733A0 
 342      B85D8B01 
 343 0455 A2EAD62C 		.ascii	"\242\352\326,\333\301\013\343\223\343)\236\262}\210"
 343      DBC10BE3 
 343      93E3299E 
 343      B27D88
 344 0464 C20F4FBA 		.ascii	"\302\017O\272\304\203\212|\215Zw\222\217\253vJ\014\013"
 344      C4838A7C 
 344      8D5A7792 
 344      8FAB764A 
 344      0C0B
 345 0476 F70366D9 		.ascii	"\367\003f\331\256\326\273\372w<\342\325\370zw\363\347"
 345      AED6BBFA 
 345      773CE2D5 
 345      F87A77F3 
 345      E7
 346 0487 ED89323F 		.ascii	"\355\2112?\273v\354c\202\315\313\357A\356\207[Ls?\032"
 346      BB76EC63 
 346      82CDCBEF 
 346      41EE875B 
 346      4C733F1A 
 347 049b B3EC5773 		.ascii	"\263\354Ws\177\230p\277\237\211\373\343\263\231D?\333"
ARM GAS  /tmp/cc5aiyH4.s 			page 27


 347      7F9870BF 
 347      9F89FBE3 
 347      B399443F 
 347      DB
 348 04ac 2A3FB87D 		.ascii	"*?\270}T\357\217\216\337\232\212z\177\030\371\337\031"
 348      54EF8F8E 
 348      DF9A8A7A 
 348      7F18F9DF 
 348      19
 349 04bd 9F7F250C 		.ascii	"\237\177%\014\341\356X\014\357\333\222\211H\2161q_;"
 349      E1EE580C 
 349      EFDB9289 
 349      488E3171 
 349      5F3B
 350 04cf 62562B61 		.ascii	"bV+a\366W\274\026\373p\003O\213\316\"?\332\203\242;"
 350      F657BC16 
 350      FB70034F 
 350      8BCE223F 
 350      DA83A23B 
 351 04e3 04DC6A49 		.ascii	"\004\334jIXq\233\227\257\345-@O\252\271\\5\002\271<"
 351      58719B97 
 351      AFE52D40 
 351      4FAAB95C 
 351      3502B93C 
 352 04f7 C9C4E5EA 		.ascii	"\311\304\345\352m\2612~\224\233$Yt\201\017\271\270\021"
 352      6DB1327E 
 352      949B2459 
 352      74810FB9 
 352      B811
 353 0509 E8C5870B 		.ascii	"\350\305\207\013\203\371\367\342\273\361\263\274\013"
 353      83F9F7E2 
 353      BBF1B3BC 
 353      0B
 354 0516 0A70DAA2 		.ascii	"\012p\332\242\353\307\311\015\344C\362\213\347\362\031"
 354      EBC7C90D 
 354      E443F28B 
 354      E7F219
 355 0525 AFEF01CE 		.ascii	"\257\357\001\316\360\217\342\231\025\255\006\\x\265"
 355      F08FE299 
 355      15AD065C 
 355      78B5
 356 0533 0990D7A3 		.ascii	"\011\220\327\243\346H/\343i\332\024|\207Jp\322\204)"
 356      E6482FE3 
 356      69DA147C 
 356      874A70D2 
 356      8429
 357 0545 50C84A58 		.ascii	"P\310JX)\010n\207\210i\341\352M\203y\364\301\004+\003"
 357      29086E87 
 357      8869E1EA 
 357      4D8379F4 
 357      C1042B03 
 358 0559 988B91B3 		.ascii	"\230\213\221\263\221\246\30148\323W\010\261\262\364"
 358      91A6C134 
 358      38D35708 
 358      B1B2F4
 359 0568 047E45A3 		.ascii	"\004~E\243\246\244s\366\240\265|\304\327\233ypo\360"
 359      A6A473F6 
ARM GAS  /tmp/cc5aiyH4.s 			page 28


 359      A0B57CC4 
 359      D79B7970 
 359      6FF0
 360 057a 433DBAAD 		.ascii	"C=\272\255\011VM\377\307\000U;j\203\350\377n \320t\253"
 360      09564DFF 
 360      C700553B 
 360      6A83E8FF 
 360      6E20D074 
 361 058f DAFF3955 		.ascii	"\332\3779U\376\317\251tiNw\364D\012w\315\337.\011@!"
 361      FECFA974 
 361      694E77F4 
 361      440A77CD 
 361      DF2E0940 
 362 05a4 532A3A9E 		.ascii	"S*:\236\332\324\240]\021i,\373\037X\204\006,\302\"m"
 362      DAD4A05D 
 362      11692CFB 
 362      1F588406 
 362      2CC2226D 
 363 05b8 593000D5 		.ascii	"Y0\000\325\216\232)\306A\367\021\350\363\030Y\360*Y"
 363      8E9A29C6 
 363      41F711E8 
 363      F31859F0 
 363      2A59
 364 05ca A842EE48 		.ascii	"\250B\356H\304-\005\334f\356\325\323\227;\321\006Jk"
 364      C42D05DC 
 364      66EED5D3 
 364      973BD106 
 364      4A6B
 365 05dc 4DBDC80A 		.ascii	"M\275\310\012S\033\377\211n\343\025,\312\337\234\306"
 365      531BFF89 
 365      6EE3152C 
 365      CADF9CC6 
 366 05ec 933E52BC 		.ascii	"\223>R\274qt\374\245\266\261\361\206\211\0060\334\242"
 366      7174FCA5 
 366      B6B1F186 
 366      890630DC 
 366      A2
 367 05fd DB0022C5 		.ascii	"\333\000\"\3052\324\207\260n5z\371\273\374o\022\027"
 367      32D487B0 
 367      6E357AF9 
 367      BBFC6F12 
 367      17
 368 060e F507965F 		.ascii	"\365\007\226_,\352a\026J\324\033M\213\332C\213Zi\264"
 368      2CEA6116 
 368      4AD41B4D 
 368      8BDA438B 
 368      5A69B4
 369 0621 B6B280B5 		.ascii	"\266\262\200\265\324\255\267_f\264>\322\2573M\357\335"
 369      D4ADB75F 
 369      66B43ED2 
 369      AF334DEF 
 369      DD
 370 0632 81323A1D 		.ascii	"\2012:\035h\213*5\264\2253_%\036x\222\205\204\036\303"
 370      688B2A35 
 370      B495335F 
 370      251E7892 
 370      85841EC3 
ARM GAS  /tmp/cc5aiyH4.s 			page 29


 371 0646 6C9AA187 		.ascii	"l\232\241\207>\010a`\252E\345\324o\372<\342\325\370"
 371      3E086160 
 371      AA45E5D4 
 371      6FFA3CE2 
 371      D5F8
 372 0658 2EFDF602 		.ascii	".\375\366\002t\351\262\355\234\210\317'Y\023\362z\341"
 372      74E9B2ED 
 372      9C88CF27 
 372      5913F27A 
 372      E1
 373 0669 3BBEED6D 		.ascii	";\276\355md\254\031\246\261<Z\214r1\245\364\362\037"
 373      64AC19A6 
 373      B13C5A8C 
 373      7231A5F4 
 373      F21F
 374 067b 5B886A7F 		.ascii	"[\210j\177by\006\350t\240quq\242B\235\231\324w\034\255"
 374      627906E8 
 374      74A07175 
 374      71A2429D 
 374      99D4771C 
 375 0690 BE0B6C66 		.ascii	"\276\013lf5N]\026\271\"\274|\035O\330\276\200\364{\244"
 375      354E5D16 
 375      B922BC7C 
 375      1D4FD8BE 
 375      80F47BA4 
 376 06a4 3F22BD8C 		.ascii	"?\"\275\214t(\026j4\322\261,E;A[\264\345\310\347\261"
 376      7428166A 
 376      34D2B12C 
 376      453B415B 
 376      B4E5C8E7 
 377 06b9 44A396BA 		.ascii	"D\243\226\272\243\007o\266\235\"\204\007[\235\\\251"
 377      A3076FB6 
 377      9D228407 
 377      5B9D5CA9 
 378 06c9 18C90D89 		.ascii	"\030\311\015\211\347(V\316|\211\350\357\034\213\023"
 378      E72856CE 
 378      7C89E8EF 
 378      1C8B13
 379 06d8 9EBF52A5 		.ascii	"\236\277R\245\277\0140(\032\310\254\320\340\212A\036"
 379      BF0C3028 
 379      1AC8ACD0 
 379      E08A411E 
 380 06e8 F1AA8106 		.ascii	"\361\252\201\006c\243\263p\2256\261/asG\257m\217^\343"
 380      63A3B370 
 380      9536B12F 
 380      617347AF 
 380      6D8F5EE3 
 381 06fc A95B0F44 		.ascii	"\251[\017D/[\250\313\337D/[\251\313?D/\333\250\313\367"
 381      2F5BA8CB 
 381      DF442F5B 
 381      A9CB3F44 
 381      2FDBA8CB 
 382 0711 A297EDD4 		.ascii	"\242\227\355\324\345\021\366\310e\007uyB\364\262\223"
 382      E511F6C8 
 382      65077579 
 382      42F4B293 
 383 0721 BA3C2B7A 		.ascii	"\272<+z\331E\325\207\241\323\214\012\311\313/\300\006"
ARM GAS  /tmp/cc5aiyH4.s 			page 30


 383      D945D587 
 383      A1D38C0A 
 383      C9CB2FC0 
 383      06
 384 0732 B0D062D5 		.ascii	"\260\320b\325\314f\341\226\330Uz\240\020y\274\200S@"
 384      CC66E196 
 384      D8557AA0 
 384      1079BC80 
 384      5340
 385 0744 3D184C3C 		.ascii	"=\030L<\233<\302C\272\321\365F#<\353,fGx\326[\264Gx"
 385      9B3CC243 
 385      BAD1F546 
 385      233CEB2C 
 385      664778D6 
 386 075c E4A669E1 		.ascii	"\344\246i\341\312\325\245P>6^\250\213\243\036\304k\020"
 386      CAD5A550 
 386      3E365EA8 
 386      8BA31EC4 
 386      6B10
 387 076e DE2CDC6A 		.ascii	"\336,\334j&\264xnC\266n\025j4\255\226\366\274.X\370"
 387      26B4786E 
 387      43B66E15 
 387      6A34AD96 
 387      F6BC2E58 
 388 0783 E68819AC 		.ascii	"\346\210\031\254=\276wd\270\344H\253\013\337\256\342"
 388      3DBE7764 
 388      B8E448AB 
 388      0BDFAEE2 
 389 0793 3D1ABD3E 		.ascii	"=\032\275>\305\255^~+\250I\274\273\310}Uj\017\262\251"
 389      C5AD5E7E 
 389      2BA849BC 
 389      BBC87D55 
 389      6A0FB2A9 
 390 07a7 0ABB8555 		.ascii	"\012\273\205UL>\344h\251~Q\024]\322H\247\271M\244 u"
 390      4C3EE468 
 390      A97E5114 
 390      5DD248A7 
 390      B94DA420 
 391 07bc 132F5FF9 		.ascii	"\023/_\371O\2143w\242\003\034\341\210?v\240\200\361"
 391      4F8C3377 
 391      A2031CE1 
 391      883F76A0 
 391      80F1
 392 07ce F2BB     		.ascii	"\362\273"
 393 07d0 2DA467BB 		.ascii	"-\244g\273G]\204\353\323\260\010{\230\212p\357\304\314"
 393      475D84EB 
 393      D3B0087B 
 393      988A70EF 
 393      C4CC
 394 07e2 C784BA30 		.ascii	"\307\204\2720\317n\366\252\257\205\037\037\212\275\216"
 394      CF6EF6AA 
 394      AF851F1F 
 394      8ABD8E
 395 07f1 FD68F9B6 		.ascii	"\375h\371\266:\022\262|\325j\313\267\272\264\031a\273"
 395      3A12B27C 
 395      D56ACBB7 
 395      BAB41961 
ARM GAS  /tmp/cc5aiyH4.s 			page 31


 395      BB
 396 0802 9AC9F6ED 		.ascii	"\232\311\366\355s\304\332\276\032\207\246\355;\353\320"
 396      73C4DABE 
 396      1A87A6ED 
 396      3BEBD0
 397 0811 B47D971C 		.ascii	"\264}\227\034\232\266\357\226Ci\3738\006\373TM\331\247"
 397      9AB6EF96 
 397      4369FB38 
 397      06FB544D 
 397      D9A7
 398 0823 43689F0E 		.ascii	"Ch\237\016\353\330'/\2776Rg\254\366IQ_u\223.\357\037"
 398      EBD8272F 
 398      BF365267 
 398      ACF64951 
 398      5F75932E 
 399 0839 B811DAE3 		.ascii	"\270\021\332\343\007\216\004\333\317\211\023,\355\347"
 399      078E04DB 
 399      CF89132C 
 399      EDE7
 400 0847 0C63FB39 		.ascii	"\014c\3739\247V\276)'P\371\3161)\337\254\0233c\333\217"
 400      A756BE29 
 400      2750F9CE 
 400      3129DFAC 
 400      133363DB 
 401 085c 2A227DE5 		.ascii	"*\"}\345\021];zA\035\220\356\2600\014xHr\270\367\311"
 401      115D3B7A 
 401      411D90EE 
 401      B0300C78 
 401      4872B8F7 
 402 0871 C384D1EF 		.ascii	"\303\204\321\357,$\256\036\356T\352\260j\030\225<H\217"
 402      2C24AE1E 
 402      EE54EAB0 
 402      6A18953C 
 402      488F
 403 0883 891FF199 		.ascii	"\211\037\361\231Z\345\214\371\015\234\">\347\\\302Q"
 403      5AE58CF9 
 403      0D9C223E 
 403      E75CC251 
 404 0893 668596C0 		.ascii	"f\205\226\3004\352\251.2\006\326:R\342\272\353w\352"
 404      34EAA92E 
 404      3206D63A 
 404      52E2BAEB 
 404      77EA
 405 08a5 52C4867B 		.ascii	"R\304\206{\005-N\2353\256\305Q\342`?H]\341\253va\205"
 405      052D4E9D 
 405      33AEC551 
 405      E2603F48 
 405      5DE1AB76 
 406 08bb D7C7AFF0 		.ascii	"\327\307\257\360aC\303kvMG\376\321W\0165\034\231\360"
 406      6143C36B 
 406      764D47FE 
 406      D1570E35 
 406      1C99F0
 407 08ce F23F6337 		.ascii	"\362?c7.\376\320\001\264e,I}bb\005\266\326\356J\036"
 407      2EFED001 
 407      B4652C49 
 407      7D626205 
ARM GAS  /tmp/cc5aiyH4.s 			page 32


 407      B6D6EE4A 
 408 08e3 E7F5F237 		.ascii	"\347\365\3627,\304D\324\233\006\363(\300\326\321`wX"
 408      2CC444D4 
 408      9B06F328 
 408      C0D6D160 
 408      7758
 409 08f5 C0F4FC38 		.ascii	"\300\364\3748\200m\240\301\206\270\314\202)9\333H\203"
 409      806DA0C1 
 409      86B8CC82 
 409      2939DB48 
 409      83
 410 0906 8D6401D3 		.ascii	"\215d\001\323\033\002\000\260\3754X\231i0\232\263\301"
 410      1B0200B0 
 410      FD345899 
 410      69309AB3 
 410      C1
 411 0917 E153BB76 		.ascii	"\341S\273v\222\316\330C\334xA\030,\314v\350)\005\307"
 411      92CED843 
 411      DC784118 
 411      2CCC76E8 
 411      2905C7
 412 092a E12D82E1 		.ascii	"\341-\202\341-\320\001\267>\244T\322\352\017\233\022"
 412      2DD001B7 
 412      3EA454D2 
 412      EA0F9B12 
 413 093a 2525D7E3 		.ascii	"%%\327\343[\245\303\222\222\312\001\3178,\034\311\233"
 413      5BA5C392 
 413      92CA01CF 
 413      382C1CC9 
 413      9B
 414 094b 48A315C2 		.ascii	"H\243\025\302\265\273\232\010\243\222#\035\332\305\006"
 414      B5BB9A08 
 414      A392231D 
 414      DAC506
 415 095a 8C7F6055 		.ascii	"\214\177`U\265\256\243\273,\036\3612\303D\300\256\351"
 415      B5AEA3BB 
 415      2C1EF132 
 415      C344C0AE 
 415      E9
 416 096b 2D85D99B 		.ascii	"-\205\331\233yy:l<\362M\362J\21737\251\024\256\3710"
 416      79793A6C 
 416      3CF24DF2 
 416      4A8F3337 
 416      A914AEF9 
 417 0980 79FF3B32 		.ascii	"y\377;2\330d\323`\315U\\Z\270\351\211\0122\362\211\366"
 417      D864D360 
 417      CD555C5A 
 417      B8E9890A 
 417      32F289F6 
 418 0994 254BADA4 		.ascii	"%K\255\244\2378\322\372\014\375\200\231,j\250\027\347"
 418      9F38D2FA 
 418      0CFD8099 
 418      2C6AA817 
 418      E7
 419 09a5 824E5FA1 		.ascii	"\202N_\241uz\236i0\217\002\354\032\015\266\230\005\314"
 419      757A9E69 
 419      308F02EC 
ARM GAS  /tmp/cc5aiyH4.s 			page 33


 419      1A0DB698 
 419      05CC
 420 09b7 A3CFD9CF 		.ascii	"\243\317\331\3174\3302\323`J\316n\320`+Y\300\264\302"
 420      34D832D3 
 420      604ACE6E 
 420      D0602B59 
 420      C0B4C2
 421 09ca 79AD0FED 		.ascii	"y\255\017\355\037\300\200c,t\035{\364\267\220\336Az"
 421      1FC08063 
 421      2C741D7B 
 421      F4B790DE 
 421      417A
 422 09dc 17E97DA4 		.ascii	"\027\351}\244\002\326\343\020\244\037!\235\200t\022"
 422      02D6E310 
 422      A41F219D 
 422      807412
 423 09eb D22974FD 		.ascii	"\322)t\375\0328\363\233\343\237$\355\373't\346_\272"
 423      1A38F39B 
 423      E39F24ED 
 423      FB2774E6 
 423      5FBA
 424 09fd 0C9DF915 		.ascii	"\014\235\371\025\235\242\022\356\247Y\365\235\271\352"
 424      9DA212EE 
 424      A759F59D 
 424      B9EA
 425 0a0b 370BB7D9 		.ascii	"7\013\267\331e\326\231S\325\200\241\\\270\260r\205 "
 425      65D69953 
 425      D580A15C 
 425      B8B07285 
 425      20
 426 0a1c 0C77C88D 		.ascii	"\014w\310\215l\273\032Q\253\221\351Op\204\217M\243Z"
 426      6CBB1A51 
 426      AB91E94F 
 426      70848F4D 
 426      A35A
 427 0a2e EC5ED360 		.ascii	"\354^\323`\352\026+\327\343\267X\217\347\261\276.#\235"
 427      EA162BD7 
 427      E3B7588F 
 427      E7B1BE2E 
 427      239D
 428 0a40 81B5334B 		.ascii	"\201\2653K\331\372\016\252\344.G\201\024^4\\\344\342"
 428      D9FA0EAA 
 428      E42E4781 
 428      145E345C 
 428      E4E2
 429 0a52 23EA5552 		.ascii	"#\352UR\035=>\365\015>tO\242\225\020\236y\022\332B\334"
 429      1D3D3EF5 
 429      0D3E744F 
 429      A295109E 
 429      7912DA42 
 430 0a67 B9539B8C 		.ascii	"\271S\233\214\324)\242suS\026mn\271N\020\232{\371\005"
 430      D429A273 
 430      7553166D 
 430      6EB94E10 
 430      9A7BF905 
 431 0a7b 56124E4D 		.ascii	"V\022NMw\307\237<U\340X\270\005\230e\261\312\350\327"
 431      77C79F3C 
ARM GAS  /tmp/cc5aiyH4.s 			page 34


 431      55E058B8 
 431      059865B1 
 431      CAE8D7
 432 0a8e 6D5A72FA 		.ascii	"mZr\372\211\251\210\274\230\311\3607huCE\266\364d\270"
 432      89A988BC 
 432      98C9F037 
 432      68754345 
 432      B6F464B8 
 433 0aa2 54ADCCE7 		.ascii	"T\255\314\347\"\254$\026\231\336\257B\233Bp-\334\017"
 433      22AC2416 
 433      99DEAF42 
 433      9B42702D 
 433      DC0F
 434 0ab4 A6C19495 		.ascii	"\246\301\224\2252a\033\025&2M`\035\376\374b\253J\024"
 434      32611B15 
 434      26324D60 
 434      1DFEFC62 
 434      AB4A14
 435 0ac7 59B99528 		.ascii	"Y\271\225(\370\372$\265.\326\253\247mX\002\313-I\014"
 435      F8FA24B5 
 435      2ED6ABA7 
 435      6D5802CB 
 435      2D490C
 436 0ada 05D11F86 		.ascii	"\005\321\037\206\201\232<\360d\005\366\326d\367\257"
 436      819A3CF0 
 436      6405F6D6 
 436      64F7AF
 437 0ae9 1BB758B8 		.ascii	"\033\267X\270\235\370\260/\325\332p\370\313\003\177"
 437      9DF8B02F 
 437      D5DA70F8 
 437      CB037F
 438 0af8 14B5E14B 		.ascii	"\024\265\341K&mX\263k\012S\037a\266C~|.>\276\254\011"
 438      266D58B3 
 438      6B0A531F 
 438      61B6437E 
 438      7C2E3EBE 
 439 0b0e 79FC7AF5 		.ascii	"y\374z\365\343\257\256\273\370\212\370\370\365L\217"
 439      E3AFAEBB 
 439      F88AF8F8 
 439      F54C8F
 440 0b1d 3FB56FA2 		.ascii	"?\265o\242\2262\352t\343\344\352\373\362\352\363\263"
 440      9632EA74 
 440      E3E4EAFB 
 440      F2EAF3B3 
 441 0b2d F0219B50 		.ascii	"\360!\233P\201\2164QW\337\253\36406'MmS\372{*\302}B"
 441      818E3451 
 441      57DFABF4 
 441      3036274D 
 441      6D53FA7B 
 442 0b45 FA0BC5DC 		.ascii	"\372\013\305\334\374\352\247XS2\017gM#*\225\370\332"
 442      FCEAA758 
 442      53320F67 
 442      4D232A95 
 442      F8DA
 443 0b57 3E6C1122 		.ascii	">l\021\"\330w,`\006\226\375g\032\354\007\323`J\316n"
 443      D8772C60 
 443      0696FD67 
ARM GAS  /tmp/cc5aiyH4.s 			page 35


 443      1AEC07D3 
 443      604ACE6E 
 444 0b6b D0603FB1 		.ascii	"\320`?\261\200\351O\005\206o\321`\365\246\301\224\234"
 444      80E94F05 
 444      866FD160 
 444      F5A6C194 
 444      9C
 445 0b7c DDA1C16E 		.ascii	"\335\241\301n\262\200\351\217Z\206\357\322`\015\246"
 445      B280E98F 
 445      5A86EFD2 
 445      600DA6
 446 0b8b C1949CDD 		.ascii	"\301\224\234\335\247\301\032Y\300<\372\234\215;H\201"
 446      A7C11A59 
 446      C03CFA9C 
 446      8D3B4881 
 447 0b9b 0D4D360B 		.ascii	"\015M6\013\246\344l<\0156\202\005\314`pv\"\015\366\241"
 447      A6E46C3C 
 447      0D368205 
 447      CC607076 
 447      220DF6A1 
 448 0baf 69302567 		.ascii	"i0%g\223i\260\261,`m\3649\233J\203M0\015\246\344\354"
 448      9369B0B1 
 448      2C606DF4 
 448      399B4A83 
 448      4D300DA6 
 449 0bc5 131A6C0A 		.ascii	"\023\032l\012\013\330\313\372\234M\247\301\246\231\006"
 449      0BD8CBFA 
 449      9C4DA7C1 
 449      A69906
 450 0bd4 5372B682 		.ascii	"Sr\266\202\006\233\305\002\326A\237\263\2254\330\\\323"
 450      069BC502 
 450      D6419FB3 
 450      9534D85C 
 450      D3
 451 0be5 604ACEBE 		.ascii	"`J\316\276\240\301\026\260\200u\325\347\354K\032l\261"
 451      A0C116B0 
 451      8075D5E7 
 451      EC4B1A6C 
 451      B1
 452 0bf6 69302567 		.ascii	"i0%gki\260%,`\275\3659[G\203-7\015\246\344l\003\015"
 452      6B69B025 
 452      2C60BDF5 
 452      395B4783 
 452      2D370DA6 
 453 0c0e 56CE02F6 		.ascii	"V\316\002\366\226>g\033i\260\325\246\301\224\234\355"
 453      963E671B 
 453      69B0D5A6 
 453      C1949CED 
 454 0c1e A7C12A58 		.ascii	"\247\301*X\300\336\321\340,\362\321\2133\327Y\251X}"
 454      C0DED1E0 
 454      2CF2D18B 
 454      33D759A9 
 454      587D
 455 0c30 43B21CE0 		.ascii	"C\262\034\340\230\364\321\\\024#\234l6\"S\224\233\304"
 455      98F4D15C 
 455      14239C6C 
 455      36225394 
ARM GAS  /tmp/cc5aiyH4.s 			page 36


 455      9BC4
 456 0c42 D64FAE93 		.ascii	"\326O\256\223\374\274\030\254V\261 \0328\300O\266Q\221"
 456      FCBC18AC 
 456      56B1201A 
 456      38C04FB6 
 456      5191
 457 0c54 EF5ED360 		.ascii	"\357^\323`*U\336\246\356\2160\255xY\214C\245\314\213"
 457      2A55DEA6 
 457      EE8E30AD 
 457      78598C43 
 457      A5CC8B
 458 0c67 FF63AAE9 		.ascii	"\377c\252\351\016]MGX\312`\340wOm\233\216SJ\354K\256"
 458      0E5D4D47 
 458      58CA60E0 
 458      774F6D9B 
 458      8E534AEC 
 459 0c7d 0E7F7E40 		.ascii	"\016\177~@\212\336\357c\364^\233\254\016\377\032L.\272"
 459      8ADEEF63 
 459      F45E9BAC 
 459      0EFF1A4C 
 459      2EBA
 460 0c8f B270E7D5 		.ascii	"\262p\347\325\245\320\232h\321w\370\240(\307\237\256"
 460      A5D09A68 
 460      D177F8A0 
 460      28C79FAE 
 461 0c9f 582E0843 		.ascii	"X.\010C\035f\312\261C*\307P\234m\272\374\017(\307\015"
 461      1D66CAB1 
 461      432AC750 
 461      9C6DBAFC 
 461      0F28C70D 
 462 0cb3 D3E5785E 		.ascii	"\323\345x^U\216\315\317\233/\307q\251\034#\261\034\367"
 462      558ECDCF 
 462      9B2FC771 
 462      A91C23B1 
 462      1CF7
 463 0cc5 FF01E528 		.ascii	"\377\001\345(}\300l9\332P\345\300\256\324\013bW\212"
 463      7DC06C39 
 463      DA50E5C0 
 463      AED40B62 
 463      578A
 464 0cd7 690878B4 		.ascii	"i\010x\264M5\004||'YeN.\307\353\303\010\341\233;\251"
 464      4D35047C 
 464      7C275965 
 464      4E2EC7EB 
 464      C308E19B 
 465 0ced FEA7C0D6 		.ascii	"\376\247\300\326\377\274*Il\034Jl\364\003\032\313\017"
 465      FFBC2A49 
 465      6C1C4A6C 
 465      F4031ACB 
 465      0F
 466 0cfe 9990CAB7 		.ascii	"\231\220\312\267m-\227VuN@\250\011\011C\325\356\\#\256"
 466      6D2D9756 
 466      754E40A8 
 466      090943D5 
 466      EE5C23AE 
 467 0d12 649C8C40 		.ascii	"d\234\214@\323\036P\327\242CU\211\016e%\302W\362\244"
 467      D31E50D7 
ARM GAS  /tmp/cc5aiyH4.s 			page 37


 467      A2435589 
 467      0E6525C2 
 467      57F2A4
 468 0d25 5BA43BCC 		.ascii	"[\244;\314\277/]!_\234\334\377\367|\020r \373\244\002"
 468      BF2F5D21 
 468      5F9CDCFF 
 468      F77C1072 
 468      20FBA402 
 469 0d39 4D7A8FA8 		.ascii	"Mz\217\250\002\265\256\220,\277XIK\177\021\342\220\360"
 469      02B5AE90 
 469      2CBF5849 
 469      4B7F11E2 
 469      90F0
 470 0d4b AA0F6748 		.ascii	"\252\017gH\023\005\257\242K\376\205p\007v\231\037\365"
 470      1305AFA2 
 470      4BFE8570 
 470      0776991F 
 470      F5
 471 0d5c D8FCB8A8 		.ascii	"\330\374\270\250u\263\260@\033bj8\241Q\217\355\211\026"
 471      75B3B040 
 471      1B626A38 
 471      A1518FED 
 471      8916
 472 0d6e 24F2B170 		.ascii	"$\362\261p\373\324\315\335T\027\211\324\326\355\027"
 472      FBD4CDDD 
 472      541789D4 
 472      D6ED17
 473 0d7d 18474E22 		.ascii	"\030GN\"\343q\027[n\027\307\343ld<\256Z%\014\206\021"
 473      E371175B 
 473      6E17C7E3 
 473      6C643CAE 
 473      5A250C86 
 474 0d92 983322D3 		.ascii	"\2303\"\323\266\230\361\270\003\255\244\3618\033\323"
 474      B698F1B8 
 474      03ADA4F1 
 474      381BD3
 475 0da1 084CA9AC 		.ascii	"\010L\251\254\027\3420\3332\253E\202MT\236\212*\214"
 475      17E230DB 
 475      32AB4582 
 475      4D549E8A 
 475      2A8C
 476 0db3 F2E7E53F 		.ascii	"\362\347\345?\263\021\307\277\304\246\030\210\275fZ"
 476      B311C7BF 
 476      C4A61888 
 476      BD665A
 477 0dc2 F61E5AF6 		.ascii	"\366\036Z\366\341\206]\323y\302\277\306\240Q\007:\304"
 477      E1865DD3 
 477      79C2BFC6 
 477      A051073A 
 477      C4
 478 0dd3 8A08FE74 		.ascii	"\212\010\376t\253\035(\236\345(\370\273:\202\327]\312"
 478      AB1D289E 
 478      E528F8BB 
 478      3A82D75D 
 478      CA
 479 0de4 69E1CA9A 		.ascii	"i\341\312\232\222,\345\261\202\337\361\270(\370r&\301"
 479      922CE5B1 
ARM GAS  /tmp/cc5aiyH4.s 			page 38


 479      82DFF1B8 
 479      28F87226 
 479      C1
 480 0df5 1FD6147C 		.ascii	"\037\326\024|\271y\301KxG\242\203\232^\376s\323`\036"
 480      B979C14B 
 480      7847A283 
 480      9A5EFE73 
 480      D3601E
 481 0e08 A35A2CA7 		.ascii	"\243Z,\247jq\025\326\342\02762\004\276ZY\2273\232\252"
 481      6A7115D6 
 481      E2173632 
 481      04BE5A59 
 481      97339AAA 
 482 0e1c EA522139 		.ascii	"\352R!9\351T\267C/\204'\354\225'3E\233\267X\215\027"
 482      E954B743 
 482      2F8427EC 
 482      95273345 
 482      9BB7588D 
 483 0e31 B7E7AC14 		.ascii	"\267\347\254\024\311\314\275(\022\321\336,7\015\346"
 483      C9CCBD28 
 483      12D1DE2C 
 483      370DE6
 484 0e40 5180558E 		.ascii	"Q\200U\216a\\?\245zi\252\002\237[\251V\227\306\372\003"
 484      615C3FA5 
 484      7A69AA02 
 484      9F5BA956 
 484      97C6FA03 
 485 0e54 23F8C1E8 		.ascii	"#\370\301\350:+\031\364\005\374\374\267n\\\002,\352"
 485      3A2B19F4 
 485      05FCFCB7 
 485      6E5C022C 
 485      EA
 486 0e65 6D7D04D5 		.ascii	"m}\004\325@\324\006\332\322pQZQ,v\005\032\324pq{*J\270"
 486      40D406DA 
 486      D270515A 
 486      512C7605 
 486      1AD47071 
 487 0e7d FBBEED6D 		.ascii	"\373\276\355m\022z\237\356D\005\211t\252\260LC\233\251"
 487      127A9FEE 
 487      44058974 
 487      AAB04C43 
 487      9BA9
 488 0e8f 3D822819 		.ascii	"=\202(\031J\021+)E\334\204\212\030FE\374\012\351VZ\035"
 488      4A112B29 
 488      45DC848A 
 488      184645FC 
 488      0AE9565A 
 489 0ea4 F582ADAF 		.ascii	"\365\202\255\257mT\367\341\303ff\313\355Q\325\216\336"
 489      6D54F7E1 
 489      C36666CB 
 489      ED51D58E 
 489      DE
 490 0eb5 6336D08F 		.ascii	"c6\320\217\031\337\214A\367\364Gm\210Q\377\0279\034"
 490      19DF8C41 
 490      F7F4476D 
 490      8851FF17 
 490      391C
ARM GAS  /tmp/cc5aiyH4.s 			page 39


 491 0ec7 10E70CA6 		.ascii	"\020\347\014\246\233FTj\363\3251\212p`\021\013\\\007"
 491      9B46546A 
 491      F3D5318A 
 491      7060110B 
 491      5C07
 492 0ed9 0D06B53E 		.ascii	"\015\006\265>\364,\021X}+Z}\2342[\216t\005\322\325H"
 492      F42C1158 
 492      7D2B5A7D 
 492      9C325B8E 
 492      7405D2D5 
 493 0eee AF23BD89 		.ascii	"\257#\275\211\3646\322{\342$+V\350\010\244eH\347#]\206"
 493      F436D27B 
 493      E2242B56 
 493      E808A465 
 493      48E7235D 
 494 0f03 740DD20A 		.ascii	"t\015\322\012\244\353\221\356B\272'\236\002H^`S\303"
 494      A4EB91EE 
 494      42BA279E 
 494      02485E60 
 494      53C3
 495 0f15 F12797A2 		.ascii	"\361'\227\242\255\236/\216x\307h\336R\253j\014?f\022"
 495      AD9E2F8E 
 495      78C768DE 
 495      52AB6A0C 
 495      3F6612
 496 0f28 EA4E3386 		.ascii	"\352N3\206\311<\203\351\226I\227/\014\252\034\"\326"
 496      C93C83E9 
 496      9649972F 
 496      0CAA1C22 
 496      D6
 497 0f39 6915AAF5 		.ascii	"i\025\252\365F\233j\271]\374\205\264\312J\255\235\251"
 497      469B6AB9 
 497      5DFC85B4 
 497      CA4AAD9D 
 497      A9
 498 0f4a FF7EA262 		.ascii	"\377~\242b6%\262R\352\327Q\231L\230[\363\177\304\025"
 498      3625B252 
 498      EAD75199 
 498      4C985BF3 
 498      7FC415
 499 0f5d 5787B135 		.ascii	"W\207\2615V6\217?E\250\300\301\367+Uf.|\365\244\370"
 499      56368F3F 
 499      45A8C0C1 
 499      F72B5566 
 499      2E7CF5A4 
 500 0f72 7E657C13 		.ascii	"~e|\0237lh\370\372\311\211\222R\212\323\375;\220\205"
 500      376C68F8 
 500      FAC98992 
 500      528AD3FD 
 500      3B9085
 501 0f85 6389B944 		.ascii	"c\211\271D\262v\340$\265v`\217i0\217\002\354\026\015"
 501      B276E024 
 501      B576608F 
 501      69308F02 
 501      EC160D
 502 0f98 768005CC 		.ascii	"v\200\005\314`\251\324\035"
 502      60A9D41D 
ARM GAS  /tmp/cc5aiyH4.s 			page 40


 503 0fa0 1AEC9069 		.ascii	"\032\354\220i0%gwi\260\243,`\006K\245\356\323`\265\246"
 503      30256777 
 503      69B0A32C 
 503      60064BA5 
 503      EED360B5 
 504 0fb5 C1949C8D 		.ascii	"\301\224\234\215;E\201\235c\0013X\3602\236\006\373\301"
 504      3B45819D 
 504      63013358 
 504      F0329E06 
 504      FBC1
 505 0fc7 349892B3 		.ascii	"4\230\222\263\2114X=\013\230G\2033\255\017\335\010\274"
 505      8934583D 
 505      0B984783 
 505      33AD0FDD 
 505      08BC
 506 0fd9 FC717452 		.ascii	"\374qtR5h\235\276Az\022i\035\3223H\317!=\217\364\002"
 506      35689DBE 
 506      417A1269 
 506      1DD23348 
 506      CF213D8F 
 507 0fef D2EF591C 		.ascii	"\322\357Y\034\331!\332\303\334n\316`\215\014F\220&"
 507      D921DAC3 
 507      DC6ECE60 
 507      8D0C4690 
 507      26
 508 1000 5DDEFFDF 		.ascii	"]\336\377\337\277d\251n]\303\242\235\377F\314G\374\345"
 508      BF64A96E 
 508      5DC3A29D 
 508      FF46CC47 
 508      FCE5
 509 1012 BA576C6C 		.ascii	"\272Wll\313u\257\251m\311\365\275hK\2561\205\3277\031"
 509      CB75AFA9 
 509      6DC9F5BD 
 509      684BAE31 
 509      85D73719 
 510 1026 C335CDED 		.ascii	"\3035\315\355%&\314\335\371\212h\013o\240-\334\372`"
 510      2526CCDD 
 510      F98A680B 
 510      6FA02DDC 
 510      FA60
 511 1038 5C5BA8C4 		.ascii	"\\[\250\304!\374\335V\363\277j\037\362\177\233\311\026"
 511      21FCDD56 
 511      F3BF6A1F 
 511      F27F9BC9 
 511      16
 512 1049 AED9A7B4 		.ascii	"\256\331\247\264\205G\221\205\333\011\333\302\265\373"
 512      85479185 
 512      DB09DBC2 
 512      B5FB
 513 1057 2885AF31 		.ascii	"(\205\2571\015\346Q\200\255\243\301N\261\200\031-\033"
 513      0DE65180 
 513      ADA3C14E 
 513      B180192D 
 513      1B
 514 1068 A5C1CE9A 		.ascii	"\245\301\316\232\006Sr\266\221\006\273\300\002f\264"
 514      065372B6 
 514      9106BBC0 
ARM GAS  /tmp/cc5aiyH4.s 			page 41


 514      0266B4
 515 1077 6C9406BB 		.ascii	"l\224\006\273d\032\314\243U\275\\\214vx\371;h$\032\260"
 515      641ACCA3 
 515      55BD5C8C 
 515      7678F93B 
 515      68241AB0 
 516 108b E9DF43DA 		.ascii	"\351\337C\332\210t\260\235\320\241H\207\333\031L\302"
 516      8874B09D 
 516      D0A14887 
 516      DB194CC2 
 517 109b 75DA245C 		.ascii	"u\332$\\E\206\257%\332\241\204\026}\346_\327\305\232"
 517      4586AF25 
 517      DAA18416 
 517      7DE65FD7 
 517      C59A
 518 10ad 04511E7A 		.ascii	"\004Q\036z\034|`\2478\270e\232\003\017\315A\270a\257"
 518      1C7C60A7 
 518      38B8659A 
 518      030FCD41 
 518      B861AF
 519 10c0 38382FBF 		.ascii	"88/\277'}O\215\2475,k\324K\331\333d\305;2\330\260\026"
 519      277D4F8D 
 519      A7352C6B 
 519      D44BD9DB 
 519      64C53B32 
 520 10d7 66C15C0A 		.ascii	"f\301\\\012\260q\373(\2601\246\301\364\326\257\325\243"
 520      B071FB28 
 520      B031A6C1 
 520      F4D6AFD5 
 520      A3
 521 10e8 2EFC8CF5 		.ascii	".\374\214\365?\022k\376C\244\243\221\216\245\265\300"
 521      3F126BFE 
 521      43A4A391 
 521      8EA5B5C0 
 522 10f8 C24D6AA1 		.ascii	"\302Mj\241\216[\257\251{LQ+\312\261\342\352\325\355"
 522      8E5BAFA9 
 522      7B4C512B 
 522      CAB1E2EA 
 522      D5ED
 523 110a 655ABB16 		.ascii	"eZ\273\026\267`p8\036}\355\232t\371\212\344pD`\350\240"
 523      B7607038 
 523      1E7DED9A 
 523      74F98AE4 
 523      704460E8 
 524 111f 9B46546A 		.ascii	"\233FTj\313\244S3\025K\241\277`\3013X^0]\014\021D\260"
 524      CBA45333 
 524      154BA1BF 
 524      60C13358 
 524      5E305D0C 
 525 1136 8DA6C13C 		.ascii	"\215\246\301<\234\356\207~\017\312\313\357\305\025\213"
 525      9CEE877E 
 525      0FCACBEF 
 525      C5158B
 526 1145 FB7065E1 		.ascii	"\373pe\341)\244\363\260\013t\020\353\252\032\351%\244"
 526      29A4F3B0 
 526      0B7410EB 
 526      AA1AE925 
ARM GAS  /tmp/cc5aiyH4.s 			page 42


 526      A4
 527 1156 13B0AE26 		.ascii	"\023\260\256&!\235\302Rc;\350\325\207\333\261\010U\211"
 527      219DC252 
 527      633BE8D5 
 527      87DBB108 
 527      5589
 528 1168 BECF5177 		.ascii	"\276\317Qw\364\340\3219\374\204\241\002yw\270\016\027"
 528      F4E0D139 
 528      FC84A102 
 528      7977B80E 
 528      17
 529 1179 AFEE318D 		.ascii	"\257\3561\215\250\254\261\033\342\220\225\010V\315\002"
 529      A8ACB11B 
 529      E2909508 
 529      56CD02
 530 1188 A6D5B829 		.ascii	"\246\325\270)\261\212\002\335\206\002\335\216\242\374"
 530      B18A02DD 
 530      8602DD8E 
 530      A2FC
 531 1196 0485355D 		.ascii	"\004\2055]\331l\216\3074\233*\365\342\317*\305\342O"
 531      D96C8EC7 
 531      349B2AF5 
 531      E2CF2AC5 
 531      E24F
 532 11a8 5D2C3DC1 		.ascii	"],=\301\177\025\025\274\227\237\213\203qf^BT\212\251"
 532      7F1515BC 
 532      979F8B83 
 532      71665E42 
 532      548AA9
 533 11bb 719B6C06 		.ascii	"q\233l\006\305\255X\316\"\373q^\033\325\032\026\323"
 533      C5AD58CE 
 533      22FB715E 
 533      1BD51A16 
 533      D3
 534 11cc FAD07BE2 		.ascii	"\372\320{\342@\270\212s\2635\370\216\363l,t\005\322"
 534      40B88A73 
 534      B335F88E 
 534      F36C2C74 
 534      05D2
 535 11de 4AA49B90 		.ascii	"J\244\233\220nF:\213E\014\207\350\267\236\353\221\355"
 535      6E463A8B 
 535      450C87E8 
 535      B79EEB91 
 535      ED
 536 11ef FD09BFF5 		.ascii	"\375\011\277\365\\\273o\362\363\270\217\203\250\327"
 536      5CBB6FF2 
 536      F3B88F83 
 536      A8D7
 537 11fd E05E4C03 		.ascii	"\340^L\003*\345Z{\205m+\245\347d\254\025\324\020B\303"
 537      2AE55A7B 
 537      856D2BA5 
 537      E764AC15 
 537      D41042C3 
 538 1211 9A9A5F89 		.ascii	"\232\232_\211!\342B;\011\021\313\037\212\033\"\252\200"
 538      21E2423B 
 538      0911CB1F 
 538      8A1B22AA 
ARM GAS  /tmp/cc5aiyH4.s 			page 43


 538      80
 539 1222 88803EB5 		.ascii	"\210\200>\265\253b\304\365\342+\235\344z\374\030\267"
 539      AB62C4F5 
 539      E22B9DE4 
 539      7AFC18B7 
 540 1232 B26A3D2F 		.ascii	"\262j=/\224&\263\317\225\236Z\377\3255i\276n\251\235"
 540      9426B3CF 
 540      959E5AFF 
 540      D53569BE 
 540      6EA99D
 541 1245 98B52B0F 		.ascii	"\230\265+\017\251[\202\351\271\322\353\010A\0306\320"
 541      A95B82E9 
 541      B9D2EB08 
 541      411836D0 
 542 1255 46836A6D 		.ascii	"F\203jmXs\247\325\315!\302\32462O\367L\003*\035\363"
 542      5873A7D5 
 542      CD21C2D4 
 542      36324FF7 
 542      4C032A1D 
 543 126a FE2A74CC 		.ascii	"\376*t\314\"\330\340\207\315\2025W\200\035\244\301F"
 543      22D8E087 
 543      CD823557 
 543      801DA4C1 
 543      46
 544 127b 98066BA9 		.ascii	"\230\006k\251\000;D\203\2151\015\246\324\336#4\330D"
 544      003B4483 
 544      8D310DA6 
 544      D4DE2334 
 544      D844
 545 128d D3608A89 		.ascii	"\323`\212\211\367\360\261\322\344\375\357\260oAwj\375"
 545      F7F0B1D2 
 545      E4FDEFB0 
 545      6F41776A 
 545      FD
 546 129e 9921BCA8 		.ascii	"\231!\274\250\375\353\361\3713\036V\353\221\331M\350"
 546      FDEBF1F9 
 546      331E56EB 
 546      91D94DE8 
 547 12ae C0BAE0DE 		.ascii	"\300\272\340\336WT\031\342\276\265CO\272\023E\372\376"
 547      575419E2 
 547      BEB5434F 
 547      BA1345FA 
 547      FE
 548 12bf F1114385 		.ascii	"\361\021C\205\305md\246\346\252\205b\362\015\205\206"
 548      C56D64A6 
 548      E6AA8562 
 548      F20D8586 
 549 12cf D2329373 		.ascii	"\3222\223s\234\247\326\177_/\265\257\315\310\302\322"
 549      9CA7D67F 
 549      5F2FB5AF 
 549      CDC8C2D2 
 550 12df 18B998DF 		.ascii	"\030\271\230\337\234\310\302\255T\027\304L\247\010%"
 550      9CC8C2AD 
 550      5417C44C 
 550      A70825
 551 12ee 73ED89A9 		.ascii	"s\355\211\251R\254%\362U\311\202h\260\216h\262\270\216"
 551      52AC25F2 
ARM GAS  /tmp/cc5aiyH4.s 			page 44


 551      55C98268 
 551      B08E68B2 
 551      B88E
 552 1300 4804DB6E 		.ascii	"H\004\333n\032L\251\311Si\260\003,`\006\013z>\241\301"
 552      1A4CA9C9 
 552      5369B003 
 552      2C60060B 
 552      7A3EA1C1 
 553 1314 8E9A0653 		.ascii	"\216\232\006Sr6\235\006;\305\002\346\321\347l&\015\366"
 553      72369D06 
 553      3BC502E6 
 553      D1E76C26 
 553      0DF6
 554 1326 9D693025 		.ascii	"\235i0%g+h\260\237X\300\014\"\335\2254\330-\323`4gB"
 554      672B68B0 
 554      9F58C00C 
 554      22DD9534 
 554      D82DD360 
 555 133d 78F5B626 		.ascii	"x\365\266&\340\223\350=G\211\211\222]`\004L\220]\340"
 555      E093E83D 
 555      47898992 
 555      5D60044C 
 555      905DE0
 556 1350 11BBD92D 		.ascii	"\021\273\331-)\216J\373\331FL\202t\322\030\335\223B"
 556      298E4AFB 
 556      D9464C82 
 556      74D218DD 
 556      9342
 557 1362 78445508 		.ascii	"xDU\010\325\203M\007IQG\355\345?\263\343\214\006F\203"
 557      D5834D07 
 557      495147ED 
 557      E53FB3E3 
 557      8C064683 
 558 1376 2B90AE44 		.ascii	"+\220\256D\372\005\322/\221\256E\272\016\351F\244a\244"
 558      FA05D22F 
 558      91AE45BA 
 558      0EE946A4 
 558      61A4
 559 1388 5F23DD86 		.ascii	"_#\335\206t\007\322]H\367 \335\207\364\000\322j\244"
 559      7407D25D 
 559      48F720DD 
 559      87F400D2 
 559      6AA4
 560 139a 8759C2AC 		.ascii	"\207Y\302\254\005t\247{\330#\014Q\221\276\325\2030k"
 560      0574A77B 
 560      D8230C51 
 560      91BED583 
 560      306B
 561 13ac CAE3B8B9 		.ascii	"\312\343\270\271\214\034n\226\251\001\343\366m\225\252"
 561      8C1C6E96 
 561      A901E3F6 
 561      6D95AA
 562 13bb 7AE57F12 		.ascii	"z\345\177\022\337.bM2\215\365\274Q\255\354\247B\327"
 562      DF2E624D 
 562      328DF5BC 
 562      51ADECA7 
 562      42D7
ARM GAS  /tmp/cc5aiyH4.s 			page 45


 563 13cd 8318BA56 		.ascii	"\203\030\272Vc\350:\027e7\037i\015\322oX\344\270\233"
 563      63E83A17 
 563      65371F69 
 563      0DD26F58 
 563      E4B89B
 564 13e0 0E576720 		.ascii	"\016Wg \253\333\023\016W\313Kg>!\205\253\244~ \266\266"
 564      ABDB130E 
 564      57CB4B67 
 564      3E2185AB 
 564      A47E20B6 
 565 13f5 5B4C022A 		.ascii	"[L\002*\345\330pa\2738e\273\031\267\327\232\303\302"
 565      E5D87061 
 565      BB3865BB 
 565      19B7D79A 
 565      C3C2
 566 1407 9F8177BB 		.ascii	"\237\201w\273wn-\011\036\345\232\371T\015g\262\226?"
 566      776E2D09 
 566      1EE59AF9 
 566      540D67B2 
 566      963F
 567 1419 BA8EFBE1 		.ascii	"\272\216\373\341\312/\364}\251\206\213\353{\333\030"
 567      CA2FF47D 
 567      A9868BEB 
 567      7BDB18
 568 1428 55F476AA 		.ascii	"U\364v\252\242wbE\357\302\212>\205\225[\207\364\014"
 568      A2776245 
 568      EFC28A3E 
 568      85955B87 
 568      F40C
 569 143a D2732C15 		.ascii	"\322s,\025\275\225\256\350Jd5\316v\262\006\202\254\270"
 569      BD95AEE8 
 569      4A6435CE 
 569      76B20682 
 569      ACB8
 570 144c C8D48D98 		.ascii	"\310\324\215\230\375\254\2145_\321\215\370\352\367b"
 570      FDAC8C35 
 570      5FD18DF8 
 570      EAF762
 571 145b 207511BB 		.ascii	" u\021\273\021[\037\211\333\215P\001\341\336\015\352"
 571      115B1F89 
 571      DB8D5001 
 571      E1DE0DEA 
 572 146b 6E44B5B8 		.ascii	"nD\265\270\255\351\217L\335\210C\242\371'Z\012\316\034"
 572      ADE98F4C 
 572      DD8843A2 
 572      F9275A0A 
 572      CE1C
 573 147d 19F8D1D8 		.ascii	"\031\370\321\330\374\353\253}\370\350\266-\242\036\254"
 573      FCEBAB7D 
 573      F8E8B62D 
 573      A21EAC
 574 148c C75DC6C5 		.ascii	"\307]\306\305\240\356G\023A\235R\255\216m\243\242\334"
 574      A0EE4713 
 574      419D52AD 
 574      8E6DA3A2 
 574      DC
 575 149d 5D6ADEE2 		.ascii	"]j\336\342F\271\212\0101\\C\203\3557\015\366\262\002"
ARM GAS  /tmp/cc5aiyH4.s 			page 46


 575      46B98A08 
 575      315C4383 
 575      ED370DF6 
 575      B202
 576 14af AC764499 		.ascii	"\254vD\2314\334$\372\315C,\2023P\243\223Q'\014:n\267"
 576      34DC24FA 
 576      CD432C82 
 576      3350A393 
 576      51270C3A 
 577 14c5 9804538A 		.ascii	"\230\004S\212\355\012\355\321\217\263pf\020\354]\243"
 577      ED0AEDD1 
 577      8FB37066 
 577      10EC5DA3 
 578 14d5 C1EA4C83 		.ascii	"\301\352L\203)9\373\231\006;\317\002f\020\354\335\242"
 578      2939FB99 
 578      063BCF02 
 578      6610ECDD 
 578      A2
 579 14e6 C17E340D 		.ascii	"\301~4\015\246\344\354N\314rvE\350\022cD\006;(#r\235"
 579      A6E4EC4E 
 579      CC727645 
 579      E8126344 
 579      063B2823 
 580 14fc E5E11EBD 		.ascii	"\345\341\036\275\222\010\341\031;\233\2401&\321\020"
 580      9208E119 
 580      3B9BA031 
 580      26D110
 581 150b 7481D568 		.ascii	"t\201\325h\332\341\213G\2430Z\037\332@x\371K\030\276"
 581      DAE18B47 
 581      A3305A1F 
 581      DA4078F9 
 581      4B18BE
 582 151e 5C466B79 		.ascii	"\\Fky\005\351U\244\365H\257#\275\211\364\026\322;H\357"
 582      05E955A4 
 582      F548AF23 
 582      BD89F416 
 582      D23B48EF 
 583 1532 22BD8F54 		.ascii	"\"\275\217Tp\340\274\204\203\301\322^\240C\223\301\217"
 583      70E0BC84 
 583      83C1D25E 
 583      A04393C1 
 583      8F
 584 1543 9AB5B48A 		.ascii	"\232\265\264\212\032\252+\257Z\376\224\344R\305Q\331"
 584      1AAA2BAF 
 584      5AFE94E4 
 584      52C551D9 
 585 1553 52164003 		.ascii	"R\026@\003\315\256\274\250\360\201c\324pZ&\201}\212"
 585      CDAEBCA8 
 585      F08163D4 
 585      705A2681 
 585      7D8A
 586 1565 6735E5B4 		.ascii	"g5\345\264\326\240\323Z\213N+\214t\013\322\357P\240"
 586      D6A0D35A 
 586      8B4E2B8C 
 586      740BD2EF 
 586      50A0
 587 1577 A528D091 		.ascii	"\245(\320\221,\002-g\3379_{\027\355k5\275\3047\301?"
ARM GAS  /tmp/cc5aiyH4.s 			page 47


 587      2C022D67 
 587      DF395F7B 
 587      17ED6B35 
 587      BDC437C1 
 588 158c 74108773 		.ascii	"t\020\207s\354\321\370\016G\201\343\345G;\210q\032\343"
 588      ECD1F80E 
 588      4781E3E5 
 588      473B8871 
 588      1AE3
 589 159e 50F99CC6 		.ascii	"P\371\234\306O\320\347\220\353\361}\316\024\323[yM\272"
 589      4FD0E790 
 589      EBF17DCE 
 589      14D35B79 
 589      4DBA
 590 15b0 B953DACA 		.ascii	"\271S\332\312\353#\007\331\312k\322cJ\306\031\267\362"
 590      EB2307D9 
 590      CA6BD263 
 590      4AC619B7 
 590      F2
 591 15c1 9AE8D0DE 		.ascii	"\232\350\320\336\312\213\\\217\277\225\327\354\307b"
 591      CA8B5C8F 
 591      BF95D7EC 
 591      C762
 592 15cf B7F25AF2 		.ascii	"\267\362Z\362\230\346V^_<\246\271\225\327\306\3074\267"
 592      98E6565E 
 592      5F3CA6B9 
 592      95D7C6C7 
 592      34B7
 593 15e1 F2DAF198 		.ascii	"\362\332\361\230\3466\206G\036Snc()\206\341\016_\321"
 593      E6368647 
 593      1E536E63 
 593      282986E1 
 593      0E5FD1
 594 15f4 127AF949 		.ascii	"\022z\371I\016\242v\223\035\306;|\221*cu\202\212j\004"
 594      0EA27693 
 594      1DC63B7C 
 594      912A6375 
 594      828A6A04 
 595 1608 6DBA936F 		.ascii	"m\272\223o\260l\240T\261l@c\304$|\275&\262\303\227\376"
 595      B06CA054 
 595      B16C4063 
 595      C4247CBD 
 595      26B2C397 
 596 161d 6267884D 		.ascii	"bg\210M\034\277\211\277&\232\334\270H\255\225WkP+\027"
 596      1CBF89BF 
 596      269ADCB8 
 596      48AD9557 
 596      6B502B17 
 597 1631 3169657D 		.ascii	"1ie}\215r\012\251\016ul\221\303t0DU\207X\021\213\261"
 597      8D720AA9 
 597      0E756C91 
 597      C3743044 
 597      55875811 
 598 1647 223EA55B 		.ascii	"\">\245[8\270?\225\012\313lR\271\243\345\341\324\371"
 598      38B83F95 
 598      0ACB6C52 
 598      B9A3E5E1 
ARM GAS  /tmp/cc5aiyH4.s 			page 48


 598      D4F9
 599 1659 F54430CF 		.ascii	"\365D0\317\0213\3670\306D\011<\012\211\254\231\246\261"
 599      1133F730 
 599      C644093C 
 599      0A89AC99 
 599      A6B1
 600 166b A48C79A0 		.ascii	"\244\214y\2400<k\302#D\372\313\0358\330\034S\334\012"
 600      303C6BC2 
 600      2344FACB 
 600      1D38D81C 
 600      53DC0A
 601 167e F56873BC 		.ascii	"\365hs\274QB\2752/\243}\361]|N\2342\033Db\233N\310Z"
 601      5142BD32 
 601      2FA37DF1 
 601      5D7C4E9C 
 601      321B4462 
 602 1696 20FEC3CE 		.ascii	" \376\303\316\260\226f\361\2242<\252%C\355\2255\341"
 602      B09666F1 
 602      94323CAA 
 602      2543ED95 
 602      35E1
 603 16a8 C88ABAE7 		.ascii	"\310\212\272\347\243B<\\\243\271\013\236\362^p1\016"
 603      A3423C5C 
 603      A3B90B9E 
 603      F25E7031 
 603      0E
 604 16b9 CD7535CA 		.ascii	"\315u5\312\333P\3521m\344\010\266\221\012\2466r\373"
 604      DB50EA31 
 604      6DE408B6 
 604      910AA636 
 604      72FB
 605 16cb C84CC56C 		.ascii	"\310L\305l\324(\224NE\242&$<n\212\231\241\347p\205\250"
 605      D428944E 
 605      45A22624 
 605      3C6E8A99 
 605      A1E77085 
 606 16e0 511B51A3 		.ascii	"Q\033Q\243&\264\374\305\032e\341\026\252\013\300\272"
 606      26B4FCC5 
 606      1A65E116 
 606      AA0BC0BA 
 607 16f0 5B945480 		.ascii	"[\224T\200\217\217\376\242\215\001\267:T\033\003\216"
 607      8F8FFEA2 
 607      8D01B73A 
 607      541B038E 
 608 1700 7250DB8B 		.ascii	"rP\333\213K\212\035\371>\207qkoIZ\323&\343\306\201["
 608      4B8A1DF9 
 608      3E87716B 
 608      6F495AD3 
 608      26E3C681 
 609 1715 1CA46BB7 		.ascii	"\034\244k\267J%-U\254K\030\321cr\247C\177\257!\325o"
 609      4A252D55 
 609      AC4B18D1 
 609      6372A743 
 609      7FAF21D5 
 610 172a 1060A253 		.ascii	"\020`\242S\251H\330\346\224\3772\201\3561\020(s\270"
 610      A948D8E6 
 610      94FF3281 
ARM GAS  /tmp/cc5aiyH4.s 			page 49


 610      EE311028 
 610      73B8
 611 173c 11AEAD26 		.ascii	"\021\256\255&\013\323\367c\250\261\271eB\241F\265:\324"
 611      0BD3F763 
 611      A8B1B965 
 611      42A146B5 
 611      3AD4
 612 174e 383A41DC 		.ascii	"8:A\3345\224)\324\330\33526\3248\325R\031jp\014\341"
 612      359429D4 
 612      D8DD3236 
 612      D438D552 
 612      196A700C 
 613 1763 4035150E 		.ascii	"@5\025\016\034B/tX'\0340\241W\225\242^\355F\275\272"
 613      1C422F74 
 613      58271C30 
 613      A15795A2 
 613      5EED46BD 
 614 1778 62AC577B 		.ascii	"b\254W{\014\364\352\204\201^\251~\263pC[\361\361\365"
 614      0CF4EA84 
 614      815EA97E 
 614      B370435B 
 614      F1F1F5
 615 178b CAC8AE1F 		.ascii	"\312\310\256\037\245\275\273\227\237me\320S\003\273"
 615      A5BDBB97 
 615      9F6D65D0 
 615      5303BB
 616 179a FECD516A 		.ascii	"\376\315Qj\201H\031\013sF[\223\320`\343L\203)9\233X"
 616      8148190B 
 616      73465B93 
 616      D060E34C 
 616      8329399B 
 617 17af 43814D66 		.ascii	"C\201Mf\0013\350d\317\244\301\246\233\006Sr\266\226"
 617      0133E864 
 617      CFA4C1A6 
 617      9B065372 
 617      B696
 618 17c1 069BC302 		.ascii	"\006\233\303\002\346\321\347\354 \015\266\3204\230'"
 618      E6D1E7EC 
 618      200DB6D0 
 618      349827
 619 17d0 46E5C456 		.ascii	"F\345\304V\262\016[\311z\354\223U\"\375\012\351.\244"
 619      B20E5BC9 
 619      7AEC9355 
 619      22FD0AE9 
 619      2EA4
 620 17e2 B5484F22 		.ascii	"\265HO\"\255Cz\006\3519\244\347\221^P\306yKZ\305\270"
 620      AD437A06 
 620      E939A4E7 
 620      915E50C6 
 620      794B5AC5 
 621 17f7 29759C57 		.ascii	")u\234W\241\210\363\376a\317\326kw\253\351xic+\206\370"
 621      A188F3FE 
 621      61CFD66B 
 621      77ABE978 
 621      69632B86 
 622 180c C64075AF 		.ascii	"\306@u\257\234\300j\230\217oH\034\2601\004\234\272\252"
 622      9CC06A98 
ARM GAS  /tmp/cc5aiyH4.s 			page 50


 622      8F6F481C 
 622      B031049C 
 622      BAAA
 623 181e 2B84EFFE 		.ascii	"+\204\357\376\007\301\242_\210\240\260L\356\005\036"
 623      07C1A25F 
 623      88A0B04C 
 623      EE051E
 624 182d 9EC5F842 		.ascii	"\236\305\370B\204`\227\301\310\376\030\321E\300/K[\320"
 624      846097C1 
 624      C8FE18D1 
 624      45C02F4B 
 624      5BD0
 625 183f 624F798B 		.ascii	"bOy\213\252\026\343\342\340;\255\352Xk\215\264\005m"
 625      AA16E3E2 
 625      E03BADEA 
 625      586B8DB4 
 625      056D
 626 1851 FC586BD8 		.ascii	"\374Xk\330\320\360\372]\364\"`/\177\012\005Ro\276?\""
 626      D0F0FA5D 
 626      F422602F 
 626      7F0A0552 
 626      6FBE3F22 
 627 1865 2FB58D6E 		.ascii	"/\265\215n\246\010\366\3254\230G\001\266\221\006\253"
 627      A608F6D5 
 627      34984701 
 627      B69106AB 
 628 1875 65013358 		.ascii	"e\0013X\004\254\330\241u\037J\332\014\230\222\263\203"
 628      04ACD8A1 
 628      751F4ADA 
 628      0C9892B3 
 628      83
 629 1886 34D86116 		.ascii	"4\330a\0260\203E\300\207h\260\023\246\301\224\234\035"
 629      308345C0 
 629      8768B013 
 629      A6C1949C 
 629      1D
 630 1897 A1C14EB3 		.ascii	"\241\301N\263\200\031\274\020q\214\006\373\3164\230"
 630      8019BC10 
 630      718C06FB 
 630      CE3498
 631 18a6 92B31A1A 		.ascii	"\222\263\032\032\354\022\013\230G\237\263o\024{\024"
 631      EC120B98 
 631      479FB36F 
 631      147B14
 632 18b5 9B065372 		.ascii	"\233\006Srv\222\006\273\311\002\2467\325\255\3365\265"
 632      769206BB 
 632      C902A637 
 632      D5ADDE35 
 632      B5
 633 18c6 C1349892 		.ascii	"\3014\230\2223\305\256\251\302\343\014`z/\253\252wM"
 633      33C5AEA9 
 633      C2E30C60 
 633      7A2FABAA 
 633      774D
 634 18d8 1D6E1A4C 		.ascii	"\035n\032L\311\231b\327\324Q,`zo\037\2227\237h\260\261"
 634      C99962D7 
 634      D4512C60 
ARM GAS  /tmp/cc5aiyH4.s 			page 51


 634      7A6F1F92 
 634      379F68B0 
 635 18ed A6C1949C 		.ascii	"\246\301\224\234\335\241\301&\262\200u\320\347\354."
 635      DDA1C126 
 635      B28075D0 
 635      E7EC2E
 636 18fc 0DF6B169 		.ascii	"\015\366\261i0%g\367i\260\231,`z{F\2217\237\366R\306"
 636      302567F7 
 636      69B0992C 
 636      607A7B46 
 636      91379FF6 
 637 1912 F1348B71 		.ascii	"\3614\213q\324\3323J\353C\373\024/\3773\306*\327\321"
 637      D4DA334A 
 637      EB43FB14 
 637      2FFF33C6 
 637      2AD7D1
 638 1925 F3DF407A 		.ascii	"\363\337@z\023\351-\244w\220\336Ez\037\251\340$t\010"
 638      13E92DA4 
 638      7790DE45 
 638      7A1FA9E0 
 638      247408
 639 1938 D261484B 		.ascii	"\322aHK\221\216D:\012i\031\3221H\307!\035\217t\"\322"
 639      918E443A 
 639      0A6919D2 
 639      3148C721 
 639      1D8F7422 
 640 194d C948A73A 		.ascii	"\311H\247:\031\242\214\237\350(c\336\343\014Q\206\376"
 640      19A28C9F 
 640      E82863DE 
 640      E30C5186 
 640      FE
 641 195e 22153270 		.ascii	"\"\0252p=H\271`|\221iD\017\215\030\336tR9\332\267\234"
 641      3D48B960 
 641      7C916944 
 641      0F8D18DE 
 641      745239DA 
 642 1974 058F7DC9 		.ascii	"\005\217}\311\310\030\252\232\306b5\215\303*\230\213"
 642      C818AA9A 
 642      C662358D 
 642      C32A988B 
 643 1984 7429D295 		.ascii	"t)\322\225H\277@\372#\322KH/#\375\004E=\235E\324\243"
 643      48BF40FA 
 643      23D24B48 
 643      2F23FD04 
 643      453D9D45 
 644 199a 1CCCD302 		.ascii	"\034\314\323\002\341t9\3631jc\204oVU?\211\373\257\314"
 644      E17439F3 
 644      316A6384 
 644      6F56553F 
 644      89FBAFCC 
 645 19ae 729260E7 		.ascii	"r\222`\347\307\307\343\006;*\034/?\307I\324|\256S\025"
 645      C7C7E306 
 645      3B2A1C2F 
 645      3FC749D4 
 645      7CAE5315 
 646 19c2 F1DC16FF 		.ascii	"\361\334\026\377\274\222\\\217?\272to\333\374D\377b"
 646      BC925C8F 
ARM GAS  /tmp/cc5aiyH4.s 			page 52


 646      3FBA746F 
 646      DBFC44FF 
 646      62
 647 19d3 F3F6E34C 		.ascii	"\363\366\343L\177\261\271\010\271\\\254\346\262Z\344"
 647      7FB1B908 
 647      B95CACE6 
 647      B25AE4
 648 19e2 72311397 		.ascii	"r1\023\227\207\343\375\305\2468P\243WYK\235\006\177"
 648      87E3FDC5 
 648      A63850A3 
 648      57594B9D 
 648      067F
 649 19f4 2827FDA7 		.ascii	"('\375\247\233\351\021\037r\313\022'5\364[f\221\013"
 649      9BE9111F 
 649      72CB1227 
 649      35F45B66 
 649      910B
 650 1a06 9A40B0C8 		.ascii	"\232@\260\310\362\377kFE\\iTD\351\037\002\023*b9]\304"
 650      F2FF6B46 
 650      455C6954 
 650      44E91F02 
 650      132A6239 
 651 1a1c 21A68BE8 		.ascii	"!\246\213\3501WD\262\017\205\036'k\215\212\330`\242"
 651      315744B2 
 651      0F851E27 
 651      6B8D8AD8 
 651      60A2
 652 1a2e 486B9C94 		.ascii	"Hk\234\224\231\374\340\011>~\221\342\375oh\242E\332"
 652      99FCE009 
 652      3E7E91E2 
 652      FD6F68A2 
 652      45DA
 653 1a40 A85124A6 		.ascii	"\250Q$\246\"T:Uc5\243M\027\343\037X3[\030j\306\364?"
 653      22543A55 
 653      6335A34D 
 653      17E31F58 
 653      335B186A 
 654 1a57 984E5974 		.ascii	"\230NYtz\241\264\266w\233\223\270\213\217\236P\367\352"
 654      7AA1B4B6 
 654      779B93B8 
 654      8B8F9E50 
 654      F7EA
 655 1a69 13D8C088 		.ascii	"\023\330\300\210UG\276\242ud\032\213p\015\376\021\263"
 655      5547BEA2 
 655      75641A8B 
 655      700DFE11 
 655      B3
 656 1a7a 7655F553 		.ascii	"vU\365S\370\"O\242\002\336c$\340mNv\325\337M\027k\266"
 656      F8224FA2 
 656      02DE6324 
 656      E06D4E76 
 656      D5DF4D17 
 657 1a90 E96299D4 		.ascii	"\351b\231\324\031#\203U\235\200MN\250\310\007\351\""
 657      19238355 
 657      9D804D4E 
 657      A8C807E9 
 657      22
ARM GAS  /tmp/cc5aiyH4.s 			page 53


 658 1aa1 2F6029F2 		.ascii	"/`)\362/\371\217L\243\"\237H\300F'T\344\032\272\310"
 658      2FF98F4C 
 658      A3229F48 
 658      C0462754 
 658      E41ABAC8 
 659 1ab5 4B4D17D9 		.ascii	"KM\027\331\303)?\321q\262\3170@Z\201\364K\244\033\220"
 659      C3293FD1 
 659      71B2CF30 
 659      405A81F4 
 659      4BA41B90 
 660 1ac9 6E46BA0B 		.ascii	"nF\272\013\351\001\244\307Y\202\250\005\264o\231e\221"
 660      E901A4C7 
 660      5982A805 
 660      B46F9965 
 660      91
 661 1ada A39944DC 		.ascii	"\243\231D\334\247\020\276O\226\023\261\356\007vh}C+"
 661      A710BE4F 
 661      9613B1EE 
 661      0776687D 
 661      432B
 662 1aec 8CBECE60 		.ascii	"\214\276\316`\364u\361\011\315\350\313h;\260[\230\345"
 662      F475F109 
 662      CDE8CB68 
 662      3BB05B98 
 662      E5
 663 1afd 5B7558B3 		.ascii	"[uX\263\246\024\007\352\277e\012k*\030\377\"nvd\030"
 663      A61407EA 
 663      BF650A6B 
 663      2A18FF22 
 663      6E766418 
 664 1b11 EE612EBA 		.ascii	"\356a.\272\223\317=2a\362=\362?\374\311\370\213J\024"
 664      93CF3D32 
 664      61F23DF2 
 664      3FFCC9F8 
 664      8B4A14
 665 1b24 18166E32 		.ascii	"\030\026n2f\271\244\346\377\272\327#^\215\317\375My"
 665      66B9A4E6 
 665      FFBAD723 
 665      5E8DCFFD 
 665      4D79
 666 1b36 4BA38B4E 		.ascii	"K\243\213N\334\3657\002\230P\370\023\276\213\177\222"
 666      DCF53702 
 666      9850F813 
 666      BE8B7F92 
 667 1b46 2A6E8FB4 		.ascii	"*n\217\264\3144\226G\201\365Q\225\274\261\225\270\027"
 667      CC349647 
 667      81F55195 
 667      BCB195B8 
 667      17
 668 1b57 55050B9E 		.ascii	"U\005\013\236\301L\306D\362\342\244\231\255\367vH[\357"
 668      C14CC644 
 668      F2E2A499 
 668      ADF77648 
 668      5BEF
 669 1b69 DD44CFB5 		.ascii	"\335D\317\265\345\311\177\200\347\262p\373M\227B!\225"
 669      E5C97F80 
 669      E7B270FB 
ARM GAS  /tmp/cc5aiyH4.s 			page 54


 669      4D974221 
 669      95
 670 1b7a BAC3EBCF 		.ascii	"\272\303\353\317\266\224w5\022\031;\316\202\250\345"
 670      B6947735 
 670      12193BCE 
 670      82A8E5
 671 1b89 D8B43EB4 		.ascii	"\330\264>\2646A_\324Iz`W\320\030\\C\3723\322\033H\033"
 671      36415FD4 
 671      497A6057 
 671      D0185C43 
 671      FA33D21B 
 672 1b9f 58CCC345 		.ascii	"X\314\303E\332\214\235}Rno&\325K\233\325o)V\277CV/\320"
 672      DA8C9D7D 
 672      526E6F26 
 672      D54B9BD5 
 672      6F2956BF 
 673 1bb7 2C59B81F 		.ascii	",Y\270\037\360yf\314\221R\330\265\253\032\236\256'\257"
 673      F07966CC 
 673      9152D8B5 
 673      AB1A9EAE 
 673      27AF
 674 1bc9 D9B14F81 		.ascii	"\331\261O\201\336qX\274\274\340\"3\240WU\032\3038\003"
 674      DE7158BC 
 674      BCE02233 
 674      A057551A 
 674      C33803
 675 1bdc 3AD4A59A 		.ascii	":\324\245\232\001\255\027\027[\221\353\361g@\033\236"
 675      01AD1717 
 675      5B91EBF1 
 675      67401B9E 
 676 1bec 8C9D011D 		.ascii	"\214\235\001\035\376+\315\305V\243\177\245\\l%I\301"
 676      FE2BCDC5 
 676      56A37FA5 
 676      5C6C2549 
 676      C1
 677 1bfd 706234CA 		.ascii	"pb4\312\234\227\037\346\"\"\037\3562^'EI\337\324\316"
 677      9C971FE6 
 677      22221FEE 
 677      325E2745 
 677      49DFD4CE 
 678 1c11 0342B871 		.ascii	"\003B\270q\033\331\274\215u+\246\332\357\177\220\266"
 678      1BD9BC8D 
 678      752BA6DA 
 678      EF7F90B6 
 679 1c21 A72A7311 		.ascii	"\247*s\021s\272\347W\361\315\251\006\016\230\035\374"
 679      73BAE757 
 679      F1CDA906 
 679      0E981DFC 
 680 1c31 A7A1B108 		.ascii	"\247\241\261\010r\302,\210\205;\217Y\306\273T6\271\262"
 680      72C22C88 
 680      853B8F59 
 680      C6BB5436 
 680      B9B2
 681 1c43 14BBCAE4 		.ascii	"\024\273\312\344z<\253L\376\243T\334\237Q\336\270\356"
 681      7A3CAB4C 
 681      FEA354DC 
 681      9F51DEB8 
ARM GAS  /tmp/cc5aiyH4.s 			page 55


 681      EE
 682 1c54 A708A6F4 		.ascii	"\247\010\246\364\320\016\264\370\342\233\345\375\342"
 682      D00EB4F8 
 682      E29BE5FD 
 682      E2
 683 1c61 3BE3E2CA 		.ascii	";\343\342\312\234\333j0\223v\264:\262\007\343\035|\247"
 683      9CDB6A30 
 683      9376B43A 
 683      B207E31D 
 683      7CA7
 684 1c73 62E85366 		.ascii	"b\350Sf\361\024\215,|HdN\004+c\0013\230V;F\203\2157"
 684      F1148D2C 
 684      7C48644E 
 684      042B6301 
 684      3398563B 
 685 1c8b 0DA6E4AC 		.ascii	"\015\246\344\254\206\006\373\204\005\314`Z\255Vrg\011"
 685      8606FB84 
 685      05CC605A 
 685      AD567267 
 685      09
 686 1c9c 2ED098E7 		.ascii	".\320\230\347R\304\235\252\345\002cu\330\302\000\315"
 686      52C49DAA 
 686      E5026375 
 686      D8C200CD 
 687 1cac 4505686C 		.ascii	"E\005hl+\025\246\210\001\320\\\027\376\255\300S\206"
 687      2B15A688 
 687      01D05C17 
 687      FEADC053 
 687      86
 688 1cbd 2B150863 		.ascii	"+\025\010cz\217^\354\322_\251\240\372\015b\\\323\002"
 688      7A8F5EEC 
 688      D25FA9A0 
 688      FA0D625C 
 688      D302
 689 1ccf 56D6D6A9 		.ascii	"V\326\326\251R\345f\275,p\036\215\372\322\372\320\015"
 689      52E566BD 
 689      2C701E8D 
 689      FAD2FAD0 
 689      0D
 690 1ce0 DACB4F44 		.ascii	"\332\313OD\3037\311E\234\340\024\244\037#\235\206t\006"
 690      C337C945 
 690      9CE014A4 
 690      1F239D86 
 690      7406
 691 1cf2 D25948E7 		.ascii	"\322YH\347 \375\314\365\314?\033\325\302mxJ\345\353"
 691      20FDCCF5 
 691      CC3F1BD5 
 691      C26D784A 
 691      E5EB
 692 1d04 9486295E 		.ascii	"\224\206)^;\024\320\331M\020\240\203\313nq\253\237\022"
 692      3B14D0D9 
 692      4D10A083 
 692      CB6E71AB 
 692      9F12
 693 1d16 2DEE7234 		.ascii	"-\356r4\226[T\212\"\252\345?\253\274\007\231\312\253"
 693      965B548A 
 693      22AAE53F 
ARM GAS  /tmp/cc5aiyH4.s 			page 56


 693      ABBC0799 
 693      CAAB
 694 1d28 BBD169A4 		.ascii	"\273\321i\244\274S\333\320\257]6\360F\257]\256r=(\235"
 694      BC53DBD0 
 694      AF5D36F0 
 694      46AF5DAE 
 694      723D289D 
 695 1d3c C9AF5392 		.ascii	"\311\257S\222\370K\315\210*\243t\256\373'\022\270\206"
 695      F84BCD88 
 695      2AA374AE 
 695      FB2712B8 
 695      86
 696 1d4d CFEA10D1 		.ascii	"\317\352\020\321-\3347lp\373mzxZ\035\\\255\177~\215"
 696      2DDC376C 
 696      70FB6D7A 
 696      785A1D5C 
 696      AD7F7E8D 
 697 1d61 F4259E8C 		.ascii	"\364%\236\214V\351\370\271w>\2206X\255\300:=\245\252"
 697      56E9F8B9 
 697      773E9036 
 697      58ADC03A 
 697      3DA5AA
 698 1d74 D3B84044 		.ascii	"\323\270@D8\033\324\316o\306\231\355<\366\3246\304w"
 698      381BD4CE 
 698      6FC699ED 
 698      3CF6D436 
 698      C477
 699 1d86 7FC38686 		.ascii	"\177\303\206\206\313\317l\267H\257,\320S\370\033\214"
 699      CBCF6CB7 
 699      48AF2CD0 
 699      53F81B8C 
 700 1d96 DB32A753 		.ascii	"\3332\247S\325\000\270\362\214\364\026 =\265d\006\316"
 700      D500B8F2 
 700      8CF41620 
 700      3DB56406 
 700      CE
 701 1da7 A380FB42 		.ascii	"\243\200\373B\0117\325\312\000g0\215\377\245\022\356"
 701      0937D5CA 
 701      0067308D 
 701      FFA512EE 
 702 1db7 040B7706 		.ascii	"\004\013w\006\023\371k\225p\265,p\006S\371\353h8\013"
 702      13F96B95 
 702      70B52C70 
 702      0653F9EB 
 702      68380B
 703 1dca 770915C2 		.ascii	"w\011\025\302\014\234\222\273\015J\270\253,pZ^U\353"
 703      0C9C92BB 
 703      0D4AB8AB 
 703      2C705A5E 
 703      55EB
 704 1ddc 436B9E97 		.ascii	"Ck\236\227\257D\373\262\021m\307&\244a\244\233\221~"
 704      AF44FBB2 
 704      116DC726 
 704      A461A49B 
 704      917E
 705 1dee 85740BD2 		.ascii	"\205t\013\322\257i\313\242\347\313\326\272\250\216\314"
 705      AF69CBA2 
ARM GAS  /tmp/cc5aiyH4.s 			page 57


 705      E7CBD6BA 
 705      A88ECC
 706 1dfd 0D7523D5 		.ascii	"\015u#\325b{\277\341\036\270\012\276\347R=\231y\330"
 706      627BBFE1 
 706      1EB80ABE 
 706      E7523D99 
 706      79D8
 707 1e0f 93998F5D 		.ascii	"\223\231\217]\254\323H\033\221~\210\274.C\272\022\351"
 707      ACD3481B 
 707      917E88BC 
 707      2E43BA12 
 707      E9
 708 1e20 6AA46B58 		.ascii	"j\244kX\270\237\351\324\236\352\242m\337\242\250\355"
 708      B89FE9D4 
 708      9EEAA26D 
 708      DFA2A8ED 
 709 1e30 1B17B1A5 		.ascii	"\033\027\261\245\317J\000;\\f\3378\337\351\322~\343"
 709      CF4A003B 
 709      5C66DF38 
 709      DFE9D27E 
 709      E3
 710 1e41 FC9938AC 		.ascii	"\374\2318\254nw\031\262ZgW\361\032\323\201\332m\232"
 710      6E7719B2 
 710      5A6757F1 
 710      1AD381DA 
 710      6D9A
 711 1e53 D53D3AAC 		.ascii	"\325=:\254\306\223\352.cV\325R}Y\316\357\224\362\357"
 711      C693EA2E 
 711      6356D552 
 711      7D59CEEF 
 711      94F2EF
 712 1e66 33CDE97E 		.ascii	"3\315\351~\035N\035q8\335\253\303i\274=%%\277p\373\346"
 712      1D4E1D71 
 712      38DDABC3 
 712      69BC3D25 
 712      25BF70FB 
 713 1e7b AE7F1797 		.ascii	"\256\177\027\227u\035D\267P\365t\\\267\240\200!,\034"
 713      751D44B7 
 713      50F5745C 
 713      B7A08021 
 713      2C1C
 714 1e8d 567B8553 		.ascii	"V{\205S\342\326\224\207\031\272DC\3027\367*\347\235"
 714      E2D69487 
 714      19BA4443 
 714      C237F72A 
 714      E79D
 715 1e9f AB9183C3 		.ascii	"\253\221\203\303\211\271\004\300\03376\362O\252\362"
 715      89B904C0 
 715      1B3736F2 
 715      4FAAF2
 716 1eae A2560ACC 		.ascii	"\242V\012\314\344\013\267Si\260S\016\263`\312\027nW"
 716      E40BB753 
 716      69B0530E 
 716      B360CA17 
 716      6E57
 717 1ec0 8CA5FEE3 		.ascii	"\214\245\376\343\365\270\272\230\254\333\261h}\350:"
 717      F5B8BA98 
ARM GAS  /tmp/cc5aiyH4.s 			page 58


 717      ACDBB168 
 717      7DE83A
 718 1ecf F0F247D0 		.ascii	"\360\362G\320>\036E\033r\034i\015\322\023,\366\344\200"
 718      3E1E451B 
 718      721C690D 
 718      D2132CF6 
 718      E480
 719 1ee1 39CDDF1F 		.ascii	"9\315\337\037\261'\177\220\000N\232V\375S:\252\377\373"
 719      B1277F90 
 719      004E9A56 
 719      FD533AAA 
 719      FFFB
 720 1ef3 38ACD6C6 		.ascii	"8\254\326\306au\344Yy\263\232p\2510\222\037\\\376d\004"
 720      6175E459 
 720      79B39A70 
 720      A930921F 
 720      5CFE6404 
 721 1f07 4BD1CD8E 		.ascii	"K\321\315\216\376\223\345\357?\303\250\367\214\013\267"
 721      FE93E5EF 
 721      3FC3A8F7 
 721      8C0BB7
 722 1f16 FB553505 		.ascii	"\373U5\0053X\345#\366m\226\246\307\276E\260\013\211"
 722      3358E523 
 722      F66D96A6 
 722      C7BE45B0 
 722      0B89
 723 1f28 83CDAEDD 		.ascii	"\203\315\256\335\211\003\027\027\020\350\252\012\310"
 723      89031717 
 723      10E8AA0A 
 723      C8
 724 1f35 CBBB5583 		.ascii	"\313\273U\203\225n\345`\245\333\035=i\224?\352\321\237"
 724      956EE560 
 724      A5DB1D3D 
 724      69943FEA 
 724      D19F
 725 1f47 7F621EA9 		.ascii	"\177b\036\251`a\237\\\262c\262\3358mZS~\320\321\224"
 725      60619F5C 
 725      B263B2DD 
 725      386D5A53 
 725      7ED0D194 
 726 1f5b 9D326F7A 		.ascii	"\2352oz\031\353\242\252\36247S\250\003\303\327\330\320"
 726      19EBA2AA 
 726      F2343753 
 726      A803C3D7 
 726      D8D0
 727 1f6d 6ACAD0D9 		.ascii	"j\312\320\331\333\205+d\374V\234\354\265pC=J\351\312"
 727      DB852B64 
 727      FC569CEC 
 727      B570433D 
 727      4AE9CA
 728 1f80 65BDE4B2 		.ascii	"e\275\344\262\320\027\010F\370J\335\372\271e\243\371"
 728      D0170846 
 728      F84ADDFA 
 728      B965A3F9 
 729 1f90 F205A5C2 		.ascii	"\362\005\245\302\270\301u\215\357\317\232\335\\\325"
 729      B8C1758D 
 729      EFCF9ADD 
ARM GAS  /tmp/cc5aiyH4.s 			page 59


 729      5CD5
 730 1f9e EB37     		.ascii	"\3537"
 731 1fa0 9833FCC9 		.ascii	"\2303\374\311\240\327\317:M2aa\331L\276\0345\366\032"
 731      A0D7CF3A 
 731      4D326161 
 731      D94CBE1C 
 731      35F61A
 732 1fb3 1AEFDB1E 		.ascii	"\032\357\333\036M\343m\374\216\340u\265\365^-n\272v"
 732      4DE36DFC 
 732      8EE075B5 
 732      F55E2D6E 
 732      BA76
 733 1fc5 9DC97A57 		.ascii	"\235\311zWT-e^\241\242\372+\2101\317h\257PQ\334\346"
 733      542D655E 
 733      A1A2FA2B 
 733      8831CF68 
 733      AF5051DC 
 734 1fda E5EFB888 		.ascii	"\345\357\270\210\325mPs9A\034vk`\342rR\2254\031\262"
 734      D56D5073 
 734      39411C76 
 734      6B60E272 
 734      52953419 
 735 1fef 0467E6C5 		.ascii	"\004g\346\305\265 \015\211\272\030\261\033&.\276\220"
 735      B5200D89 
 735      BA18B11B 
 735      262EBE90 
 736 1fff 57       		.ascii	"W"
 737 2000 5D9801F3 		.ascii	"]\230\001\363h\201\255A\260\365N\006\260x\353\035\344"
 737      6881AD41 
 737      B0F54E06 
 737      B078EB1D 
 737      E4
 738 2011 050861D3 		.ascii	"\005\010a\323`\036\225\370\242s\213\367\320\203\334"
 738      601E95F8 
 738      A2738BF7 
 738      D083DC
 739 2020 47DA8854 		.ascii	"G\332\210Tp3x\223[\256\2309\304\353\346\305\256\365"
 739      70337893 
 739      5BAE9839 
 739      C4EBE6C5 
 739      AEF5
 740 2032 A11517FA 		.ascii	"\241\025\027\372\034\350\362n\2628\270\253Q\226\242"
 740      1CE8F26E 
 740      B238B8AB 
 740      5196A2
 741 2041 D3BBCAFF 		.ascii	"\323\273\312\3777\260p\013\237Q\266\244_s\363\004a\274"
 741      37B0700B 
 741      9F51B6A4 
 741      5F73F304 
 741      61BC
 742 2053 D8E0E72C 		.ascii	"\330\340\347,\203\006\317\213@\026\356s\274\363\262"
 742      8306CF8B 
 742      4016EE73 
 742      BCF3B2
 743 2062 EB69CD07 		.ascii	"\353i\315\007J\217\023\263\013S\252\222I\306;8\213\266"
 743      4A8F13B3 
 743      0B53AA92 
ARM GAS  /tmp/cc5aiyH4.s 			page 60


 743      49C63B38 
 743      8BB6
 744 2074 2A4E4689 		.ascii	"*NF\211\247\337r\013H\0139z\256wWi\354_?\223T\302!\356"
 744      A7DF720B 
 744      480B397A 
 744      AE775769 
 744      EC5F3F93 
 745 208c 58635557 		.ascii	"XcUWwjI\331'\374\220y\245\303\320X=\2550U\222\005f\330"
 745      776A49D9 
 745      27FC9079 
 745      A5C3D058 
 745      3DAD3055 
 746 20a4 33B17CDB 		.ascii	"3\261|\333\322?`\207\177\224\233x\243M\317h\2705&\240"
 746      D23F6087 
 746      7F949B78 
 746      A34DCF68 
 746      B83526A0 
 747 20b8 DA9D3352 		.ascii	"\332\2353R\020h4\002U=\243vk\234\312\255qJw\003_\205"
 747      10683402 
 747      553DA376 
 747      6B9CCAAD 
 747      714A7703 
 748 20ce 8897795F 		.ascii	"\210\227y_\272\362>\227P\036=U\371\300\255Z\022@\376"
 748      BAF23E97 
 748      501E3D55 
 748      F9C0AD5A 
 748      1240FE
 749 20e1 D64D31D4 		.ascii	"\326M1\324j\341\366ii\3128Q\332\327\026\211\232\"\376"
 749      6AE1F669 
 749      69CA3851 
 749      DAD71689 
 749      9A22FE
 750 20f4 1BDCB778 		.ascii	"\033\334\267x\347H\267^\205O\300\332\025+|\234P\376"
 750      E748B75E 
 750      854FC0DA 
 750      152B7C9C 
 750      50FE
 751 2106 4DEF96A2 		.ascii	"M\357\226\242\2249e.U\257\010\177\376(\266\306\353\256"
 751      9439652E 
 751      55AF087F 
 751      FE28B6C6 
 751      EBAE
 752 2118 84AB4B77 		.ascii	"\204\253Kw\201\325\023\356\2227;\331\307\243'K\205\216"
 752      81D513EE 
 752      92373BD9 
 752      C7A3274B 
 752      858E
 753 212a 96D3C2FD 		.ascii	"\226\323\302\375\360\214\332-Jj),\026\254\210F\356\237"
 753      F08CDA2D 
 753      4A6A292C 
 753      16AC8846 
 753      EE9F
 754 213c 044C2AC4 		.ascii	"\004L*\304?%\226\255\331u\341\325\243\310V1C\302\215"
 754      3F2596AD 
 754      D975E1D5 
 754      A3C85631 
 754      43C28D
ARM GAS  /tmp/cc5aiyH4.s 			page 61


 755 214f 8D9BC0D6 		.ascii	"\215\233\300\326\253\030#\005\326\343\354\023\206\352"
 755      AB182305 
 755      D6E3EC13 
 755      86EA
 756 215d B8A1591D 		.ascii	"\270\241Y\035BcnW\371\366\011nb\205>f\252\006AU\015"
 756      42636E57 
 756      F9F6096E 
 756      62853E66 
 756      AA064155 
 757 2172 1F1B57C3 		.ascii	"\037\033W\303t\315\362\336\335\231L\232\\\343\323&\212"
 757      74CDF2DE 
 757      DD994C9A 
 757      5CE3D326 
 757      8A
 758 2183 3A5BA312 		.ascii	":[\243\022\206?\253S\011\313\261\022d\036g\031\3638"
 758      863FAB53 
 758      09CBB112 
 758      641E6719 
 758      F338
 759 2195 4793C759 		.ascii	"G\223\307Y\037&\242*\363\335q\203\030\017e\006\204\310"
 759      1F26A22A 
 759      F3DD7183 
 759      180F6506 
 759      84C8
 760 21a7 DFD6BFC3 		.ascii	"\337\326\277\303E;\240\215\3657\245\3153\027\271I\020"
 760      453BA08D 
 760      F537A5CD 
 760      3317B949 
 760      10
 761 21b8 33E659ED 		.ascii	"3\346Y\355\036\250.\220\205\233\216Y>s\253B\204Z\262"
 761      1EA82E90 
 761      859B8E59 
 761      3E73AB42 
 761      845AB2
 762 21cb 5A825C8D 		.ascii	"Z\202\\\215?/w\365\242\013w>\371\234'#\265K\"x\2321"
 762      3F2F77F5 
 762      A20B773E 
 762      F99C2723 
 762      B54B2278 
 763 21e1 49BC0041 		.ascii	"I\274\000A\010_\263+\007\237\251\016S\354?#\254p\233"
 763      085FB32B 
 763      079FA90E 
 763      53EC3F23 
 763      AC709B
 764 21f4 0D83CBDD 		.ascii	"\015\203\313\335\332a\360c\221f\260B]\002\345c\251\302"
 764      DA61F063 
 764      9166B042 
 764      5D02E563 
 764      A9C2
 765 2206 E894E067 		.ascii	"\350\224\340g;\331\246\216\260f\341*\230\300\014\376"
 765      3BD9A68E 
 765      B066E12A 
 765      98C00CFE 
 766 2216 C9EC0682 		.ascii	"\311\354\006\202\211\262\335\302$\333\016\372`\267("
 766      89B2DDC2 
 766      24DB0EFA 
 766      60B728
ARM GAS  /tmp/cc5aiyH4.s 			page 62


 767 2225 B0DD4C60 		.ascii	"\260\335L`Z\177\031\255\365\241U\310\313/u\223\220b"
 767      5A7F19AD 
 767      F5A155C8 
 767      CB2F7593 
 767      9062
 768 2237 999BC43A 		.ascii	"\231\233\304:\237#]\205t5\3225,\321\317B\267\366\004"
 768      9F235D85 
 768      7435D235 
 768      2CD1CF42 
 768      B7F604
 769 224a 9D853BFC 		.ascii	"\235\205;\374\254f|\001^c\037\177F\362\032$\267\205"
 769      AC667C01 
 769      5E631F7F 
 769      46F21A24 
 769      B785
 770 225c 3B8977CE 		.ascii	";\211w\316\3235W\3223$S0Z\030\336\234\217\030\344yj"
 770      D33557D2 
 770      33245330 
 770      5A18DE9C 
 770      8F18E479 
 771 2271 835CA1D9 		.ascii	"\203\\\241\331\370k?\224\015\362\253\222\351\261pg\330"
 771      F86B3F94 
 771      0DF2AB92 
 771      E9B17067 
 771      D8
 772 2282 8C4DA5B1 		.ascii	"\214M\245\261\261\331\250\361\274\323\341\217\366\356"
 772      B1D9A8F1 
 772      BCD3E18F 
 772      F6EE
 773 2290 D4333606 		.ascii	"\32436\006=\246\3151&\321\313\277a\321fr\345b\301\035"
 773      3DA6CD31 
 773      26D1CBBF 
 773      61D16672 
 773      E562C11D 
 774 22a4 8996C23A 		.ascii	"\211\226\302:\262\213bP\2377y\353\024\233\334G\204p"
 774      B28B6250 
 774      9F3779EB 
 774      149BDC47 
 774      8470
 775 22b6 EFAD681F 		.ascii	"\357\255h\037\221\235\325\257\325\216\212\004\201\352"
 775      919DD5AF 
 775      D58E8A04 
 775      81EA
 776 22c4 6053FACE 		.ascii	"`S\372\316\332\331\253\\S\266\223\037<B\020,^~\007\032"
 776      DAD9AB5C 
 776      53B6931F 
 776      3C42102C 
 776      5E7E071A 
 777 22d8 CA39CF99 		.ascii	"\3129\317\231\354\355Is\300\345\227\310\322\264\335"
 777      ECED4973 
 777      C0E597C8 
 777      D2B4DD
 778 22e7 88F1E973 		.ascii	"\210\361\351s\352\260\253\263jb\257\263\352\237\372"
 778      EAB0ABB3 
 778      6A62AFB3 
 778      EA9FFA
 779 22f6 AEAE4F16 		.ascii	"\256\256O\026\306\271\360\272\205\333\372\234rP\200"
ARM GAS  /tmp/cc5aiyH4.s 			page 63


 779      C6B9F0BA 
 779      85DBFA9C 
 779      725080
 780 2305 CAD7456F 		.ascii	"\312\327Eof\264s\264\211\355\303&\246\272S\325R\366"
 780      66B473B4 
 780      89EDC326 
 780      A6BA53D5 
 780      52F6
 781 2317 3EA7DD23 		.ascii	">\247\335#?\340V\327\333T\272\336\336N\244\336\016\251"
 781      3FE056D7 
 781      DB54BADE 
 781      DE4EA4DE 
 781      0EA9
 782 2329 EB8DEC2D 		.ascii	"\353\215\354-\251\273\3463\246\323pL\207\325c\032\321"
 782      A9BBE633 
 782      A6D3704C 
 782      87D5631A 
 782      D1
 783 233a 1944D2A5 		.ascii	"\031D\322\245\373\006\363\037\351qi\024\034\324\250"
 783      FB06F31F 
 783      E9716914 
 783      1CD4A8
 784 2349 D92CA7D9 		.ascii	"\331,\247\331\334\252Z\252*\3559\246(S\254\230\317\352"
 784      DCAA5AAA 
 784      2AED39A6 
 784      2853AC98 
 784      CFEA
 785 235b F07E4A93 		.ascii	"\360~J\223\367\2117\317\274\372\261\360\3250\210\246"
 785      F78937CF 
 785      BCFAB1F0 
 785      D53088A6 
 786 236b DF37112F 		.ascii	"\3377\021/\234V3\256\330\334C\332\251G\305\330e\035"
 786      9C5633AE 
 786      D8DC43DA 
 786      A947C5D8 
 786      651D
 787 237d C6CE6932 		.ascii	"\306\316i2\266\242j\017\257\307\230\221H\317\2539\333"
 787      B6A26A0F 
 787      AFC79891 
 787      48CFAB39 
 787      DB
 788 238e 4A8B74B3 		.ascii	"J\213t\263J\244\273U\337\2459\030\025\3477u8\377A\223"
 788      4AA4BB55 
 788      DFA53918 
 788      15E73775 
 788      38FF4193 
 789 23a2 F3DAB10B 		.ascii	"\363\332\261\013\034z\234\223\255e\3648\277\244\346"
 789      1C7A9C93 
 789      AD65F438 
 789      BFA4E6
 790 23b1 9C30A7E2 		.ascii	"\2340\247\342\244\354\327\332\234\374\244\311\311\246"
 790      A4ECD7DA 
 790      9CFCA4C9 
 790      C9A6
 791 23bf 868BAF4E 		.ascii	"\206\213\257N])\014\373@\270\337\370>\317^\273W\325"
 791      5D290CFB 
 791      40B8DFF8 
ARM GAS  /tmp/cc5aiyH4.s 			page 64


 791      3ECF5EBB 
 791      57D5
 792 23d1 9C6C73C6 		.ascii	"\234ls\306\204\347\323t8\251\327\344\344\233}3[\011"
 792      84E7D374 
 792      38A9D7E4 
 792      E49B7D33 
 792      5B09
 793 23e3 7344C764 		.ascii	"sD\307d\2422\257k\211$\362\345\020S\345-\324a\364\266"
 793      A232AF6B 
 793      8924F2E5 
 793      1053E52D 
 793      D461F4B6 
 794 23f7 36A3ABCE 		.ascii	"6\243\253\316\366H\240=4\250\031%\274\030\215\010\032"
 794      F648A03D 
 794      34A81925 
 794      BC188D08 
 794      1A
 795 2408 FCF19897 		.ascii	"\374\361\230\227\257\3061\220\350D\000\271\226\340$"
 795      AFC63190 
 795      E84400B9 
 795      96E024
 796 2417 C07D376D 		.ascii	"\300}7m\332T\242\371RG4B\222\226h\356\235-\373\211_"
 796      DA54A2F9 
 796      52473442 
 796      929668EE 
 796      9D2DFB89 
 797 242c B6B4342C 		.ascii	"\266\2644,\016;\210\375K\013\267C\007d\210&\310\321"
 797      0E3B88FD 
 797      4B0BB743 
 797      07648826 
 797      C8D1
 798 243e F3657BF9 		.ascii	"\363e{\371\241\363\324 #~\243\0152L\023\344\340\367"
 798      A1F3D420 
 798      237EA30D 
 798      324C13E4 
 798      E0F7
 799 2450 65B72883 		.ascii	"e\267(\203+\203l\325\001)\325\004YQz$!\00332I\303f\253"
 799      2B836CD5 
 799      0129D504 
 799      59517A24 
 799      21033332 
 800 2468 04BB5B87 		.ascii	"\004\273[\207\223QZ\234\204\017V\225\011\274\351\216"
 800      93515A9C 
 800      840F5695 
 800      09BCE98E 
 801 2478 6599161F 		.ascii	"e\231\026\037\272\206\256B\345\362\210!\342b\024\342"
 801      BA86AE42 
 801      E5F28821 
 801      E26214E2 
 802 2488 B80EDF1F 		.ascii	"\270\016\337\037\351)\304-J!\330[\313\0045\353\204\033"
 802      E929C42D 
 802      4A21D85B 
 802      CB0435EB 
 802      841B
 803 249a 152BE775 		.ascii	"\025+\347uX\231\244)\302kkv\360#\245@T\304\267p\327"
 803      5899A429 
 803      C26B6B76 
ARM GAS  /tmp/cc5aiyH4.s 			page 65


 803      F023A540 
 803      54C4B770 
 804 24af 7510A668 		.ascii	"u\020\246h\026\346Vc\303\343\021u\020;\304\026n\360"
 804      16E65663 
 804      C3E31175 
 804      103BC416 
 804      6EF0
 805 24c1 6FB5213E 		.ascii	"o\265!>\326\204\330\324\260\371\225\031z\346\226,\270"
 805      D684D8D4 
 805      B0F99519 
 805      7AE6962C 
 805      B8
 806 24d2 D793C734 		.ascii	"\327\223\3074\265<^5\010V\312\255\364w\325J?2\367a\024"
 806      B53C5E35 
 806      0856CAAD 
 806      F477D54A 
 806      3F32F761 
 807 24e7 306EC345 		.ascii	"0n\303E\203\263\223H\177d\334o\325\021c\245S\021\007"
 807      83B39348 
 807      7F64DC6F 
 807      D51163A5 
 807      531107
 808 24fa C5BCFEA6 		.ascii	"\305\274\376\246b\221\213\321\237\251:\362\232\257\224"
 808      62918BD1 
 808      9FA93AF2 
 808      9AAF94
 809 2509 D7B3DC1C 		.ascii	"\327\263\334\034!\274\237\364\221F\362s\310\030\331"
 809      21BC9FF4 
 809      9146F273 
 809      C818D9
 810 2518 604168E4 		.ascii	"`Ah\344\033_\365\362+y\022\214~\026\201\321\355j/\214"
 810      1B5FF5F2 
 810      2B79128C 
 810      7E1681D1 
 810      ED6A2F8C 
 811 252c 228A68E1 		.ascii	"\"\212h\341\306\325n\350\212\240E\200\270\035\267(="
 811      C6D56EE8 
 811      8AA04580 
 811      B81DB728 
 811      3D
 812 253d 6FB72871 		.ascii	"o\267(q\224\235JN\272\205\302\251\333\037\236P\225\024"
 812      949D4A4E 
 812      BA85C2A9 
 812      DB1F9E50 
 812      9514
 813 254f C51137AF 		.ascii	"\305\0217\257\376B\315\217\306V\325\237*\031\"\246\356"
 813      FE42CD8F 
 813      C656D59F 
 813      2A1922A6 
 813      EE
 814 2560 DA9951A4 		.ascii	"\332\231Q\244x\341h\361\304\255I\327\305\300)6\"%hK"
 814      78E168F1 
 814      C4AD49D7 
 814      C5C02936 
 814      2225684B 
 815 2574 62D06EDF 		.ascii	"b\320n\337\254\376\313\262!D\271\204[\000f\225_h\016"
 815      ACFECBB2 
ARM GAS  /tmp/cc5aiyH4.s 			page 66


 815      2144B984 
 815      5B006695 
 815      5F680E
 816 2587 C7C84AF9 		.ascii	"\307\310J\371\3722A[\246\026\026\021\375\377]L\376\244"
 816      FA32415B 
 816      A6161611 
 816      FDFF5D4C 
 816      FEA4
 817 2599 3782B607 		.ascii	"7\202\266\007%\277U\215\026+\261\317\223\324\022\233"
 817      25BF558D 
 817      162BB1CF 
 817      93D4129B 
 818 25a9 54359A87 		.ascii	"T5\232\207^\247\000j\337\010\367\036F\244m\361\013Y"
 818      5EA7006A 
 818      DF08F71E 
 818      46A46DF1 
 818      0B59
 819 25bb AE51C8FA 		.ascii	"\256Q\310\372\277j\025r\017C!W\305\024\362\344\222\262"
 819      BF6A1572 
 819      0F432157 
 819      C514F2E4 
 819      92B2
 820 25cd 313CB8DB 		.ascii	"1<\270\333\355d\241z#\377\264\2742\342\200\032-f\035"
 820      ED64A17A 
 820      23FFB4BC 
 820      32E2801A 
 820      2D661D
 821 25e0 C46A09AB 		.ascii	"\304j\011\253=\267J\030\031\356 f\024}0\271\023\242"
 821      3DB74A18 
 821      19EE2066 
 821      147D30B9 
 821      13A2
 822 25f2 21619853 		.ascii	"!a\230Sr\307\344\202U\354\237\326(\277\236\240\277F"
 822      72C7E482 
 822      55EC9FD6 
 822      28BF9EA0 
 822      BF46
 823 2604 F4B4FCB4 		.ascii	"\364\264\374\264K8#\310\302:\215\013\012\217\305\224"
 823      4B3823C8 
 823      C23A8D0B 
 823      0A8FC594 
 824 2614 2F768E75 		.ascii	"/v\216u\255\262|\302\301\272{7\312Z\315ZIW\242\270\203"
 824      ADB27CC2 
 824      C1BA7B37 
 824      CA5ACD5A 
 824      4957A2B8 
 825 2629 FE8F6AB4 		.ascii	"\376\217j\264\030\203\263N\302\372o\356\2160U\020&\361"
 825      1883B34E 
 825      C2FA6FEE 
 825      8E305510 
 825      26F1
 826 263b 2C0B0446 		.ascii	",\013\004F:e\230\367$\230\312$\263\343]\033\223\264"
 826      3A6598F7 
 826      2498CA24 
 826      B3E35D1B 
 826      93B4
 827 264d C7BB8AA5 		.ascii	"\307\273\212\245\222\351\345\333\220\024\261LOq\367"
ARM GAS  /tmp/cc5aiyH4.s 			page 67


 827      92E9E5DB 
 827      9014B14C 
 827      4F71F7
 828 265c 7E3B4398 		.ascii	"~;C\230\332!\372x.\301\365\332\233\225f7\231\373\220"
 828      DA21FA78 
 828      2EC1F5DA 
 828      9B956637 
 828      99FB90
 829 266f 36A59DF5 		.ascii	"6\245\235\365\227koIJ\346T\037\275[\303I\332+\033\304"
 829      976B6F49 
 829      4AE6541F 
 829      BD5BC349 
 829      DA2B1BC4 
 830 2683 AEBF5EAE 		.ascii	"\256\277^\256\255\272\271\310\200\204\356`\205N.v\211"
 830      ADBAB9C8 
 830      8084EE60 
 830      854E2E76 
 830      89
 831 2694 6C533B22 		.ascii	"lS;\"RR\246W!\253t9>d\300\361\016\335\\d\274R/\327N"
 831      5252A657 
 831      21AB7439 
 831      3E64C0F1 
 831      0EDD5C64 
 832 26ad DD5C3506 		.ascii	"\335\\5\006\317\332\245\233k\262A\256\335\272\271\256"
 832      CFDAA59B 
 832      6BB241AE 
 832      DDBAB9AE 
 833 26bd 1AE4DAA3 		.ascii	"\032\344\332\243\233\253\301 \327^\335\\?\031,\340\337"
 833      9BABC120 
 833      D75EDD5C 
 833      3F192CE0 
 833      DF
 834 26ce A79BEBBA 		.ascii	"\247\233\353\272\301\263\366\353\346\272d\220\353\200"
 834      C1B3F6EB 
 834      E6BA6490 
 834      EB80
 835 26dc 6EAEF306 		.ascii	"n\256\363\006\271\016\352\346:m\220\253Z7\327\007\006"
 835      B90EEAE6 
 835      3A6D90AB 
 835      5A37D707 
 835      06
 836 26ed B90EE9E6 		.ascii	"\271\016\351\346\"q\273^\256\303\321\\z\203\37569OW"
 836      2271BB5E 
 836      AEC3D15C 
 836      7A83FD36 
 836      394F57
 837 2700 29CF11D3 		.ascii	")\317\021\323\306\357\250\216\361\353\242\31501\346"
 837      C6EFA88E 
 837      F1EBA2CD 
 837      3031E6
 838 270f 7A50C774 		.ascii	"zP\307t\213I\330\322\313u\\7W\231\201pj\242\271\344"
 838      8B49D8D2 
 838      CB755C37 
 838      57998170 
 838      6AA2B9E4 
 839 2723 DE6B87C5 		.ascii	"\336k\207\305\306C\234\267\033\267\264\0227c?\221\204"
 839      C6439CB7 
ARM GAS  /tmp/cc5aiyH4.s 			page 68


 839      1BB7B412 
 839      37633F91 
 839      84
 840 2734 2F47FD4E 		.ascii	"/G\375N{\200S\027G\\\247\343\345O&\251f\202\246\210"
 840      7B805317 
 840      475CA7E3 
 840      E54F26A9 
 840      6682A688 
 841 2748 8B45C875 		.ascii	"\213E\310uN#\324\224>\322b\221i\245c[\012\2637\363\362"
 841      4E23D494 
 841      3ED26291 
 841      69A5635B 
 841      0AB337F3 
 842 275d 4ABD0664 		.ascii	"J\275\006d\203\344\225\236\031w\331\237\022oF\351h\305"
 842      83E4959E 
 842      1977D99F 
 842      126F46E9 
 842      68C5
 843 276f 16C1C39F 		.ascii	"\026\301\303\237W\341\261\376\011\237\326\207.\254\227"
 843      57E1B1FE 
 843      099FD687 
 843      2EAC97
 844 277e 3F954486 		.ascii	"?\225D\206\000\352\222HG\377L\022\325\321WU\3344\203"
 844      00EA9248 
 844      47FF4C12 
 844      D5D15755 
 844      DC3483
 845 2791 8A3BA75B 		.ascii	"\212;\247[\335'\222\364}\317\267\272\271&\030<\353\274"
 845      DD2792F4 
 845      7DCFB7BA 
 845      B926183C 
 845      EBBC
 846 27a3 6EAEF906 		.ascii	"n\256\371\006\255\365\273h..5\245$\030H\311\367\367"
 846      ADF5BB68 
 846      2E2E35A5 
 846      241848C9 
 846      F7F7
 847 27b5 49E99B93 		.ascii	"I\351\233\223\223\342\015\024\374\261\260\250\320\367"
 847      93E20D14 
 847      FCB1B0A8 
 847      D0F7
 848 27c3 479FB78F 		.ascii	"G\237\267\217?\245\375\013/\277\320>\305"
 848      3FA5FD0B 
 848      2FBFD03E 
 848      C5
 849 27d0 5F98935F 		.ascii	"_\230\223_\222\353K\011\206rs}y/\364\343\034A\377\177"
 849      92EB4B09 
 849      8672737D 
 849      792FF4E3 
 849      1C41FF7F 
 850 27e4 F9B2438E 		.ascii	"\371\262C\216.=_\367\244q\266\234~\336\300\003\271\336"
 850      2E3D5FF7 
 850      A471B69C 
 850      7EDEC003 
 850      B9DE
 851 27f6 9037BFA8 		.ascii	"\2207\277\250o__\000np\303Y\236?\037\356qJg\277\306"
 851      6F5F5F00 
ARM GAS  /tmp/cc5aiyH4.s 			page 69


 851      6E70C359 
 851      9E3F1FEE 
 851      714A67BF 
 852 280b A728D129 		.ascii	"\247(\321)\\\177a\010\262\271J\340\330\366\305\354P"
 852      5C7F6108 
 852      B2B94AE0 
 852      D8F6C5EC 
 852      50
 853 281c 7B83BB0B 		.ascii	"{\203\273\013\2749\375\374\205\276\224l\340\305[\222"
 853      BC39FDFC 
 853      85BE946C 
 853      E0C55B92 
 854 282c 1FCA0E0D 		.ascii	"\037\312\016\015*\366\005!wRv\266\234\337\342\317\265"
 854      2AF60521 
 854      775276B6 
 854      9CDFE2CF 
 854      B5
 855 283d 157A0B7C 		.ascii	"\025z\013|\311Q\256\262CI\321/M\203\271\005\0059A\177"
 855      C951AEB2 
 855      4349D12F 
 855      4D83B905 
 855      0539417F 
 856 2851 4171BE0F 		.ascii	"Aq\276\017r:\361kv\310\216\307\027S\372\025\025\370"
 856      723AF16B 
 856      76C88EC7 
 856      1753FA15 
 856      15F8
 857 2863 52728A72 		.ascii	"Rr\212r\007\245\344\372\372\247\300\343\372\370\213"
 857      07A5E4FA 
 857      FAA7C0E3 
 857      FAF88B
 858 2872 8229A140 		.ascii	"\202)\241@I\341\273)p\322\317\233\037\345\006\362\005"
 858      49E1BB29 
 858      70D2CF9B 
 858      1FE506F2 
 858      05
 859 2883 8BFDA4CC 		.ascii	"\213\375\244\314=z\244u\012\370\373\373\002\311\221"
 859      3D7AA475 
 859      0AF8FBFB 
 859      02C991
 860 2892 B3377A64 		.ascii	"\2637zd\331\263_+*\312o\342\017f\373\013\203\276@\310"
 860      D9B35F2B 
 860      2ACA6FE2 
 860      0F66FB0B 
 860      83BE40C8 
 861 28a6 979B0CE7 		.ascii	"\227\233\014\347\305\201\242\220/\007\2768s\212\012"
 861      C581A290 
 861      2F07BE38 
 861      738A0A
 862 28b5 0BE12C29 		.ascii	"\013\341,)\327\037\224NQ\012\355R\201a\261@\344\324"
 862      D71F944E 
 862      510AED52 
 862      8161B140 
 862      E4D4
 863 28c7 494E5ECE 		.ascii	"IN^\316\016\271\305Kpf\013\370\274\271\366\001\001\177"
 863      0EB9C54B 
 863      70660BF8 
ARM GAS  /tmp/cc5aiyH4.s 			page 70


 863      BCB9F601 
 863      017F
 864 28d9 C8670B0E 		.ascii	"\310g\013\016*\314\371\0273\\\303y\266\277\250O~Q\316"
 864      2ACCF917 
 864      335CC379 
 864      B6BFA84F 
 864      7E51CE
 865 28ec BBC079B3 		.ascii	"\273\300y\263\327\310I'_\177\177\216\257[a^\221\253"
 865      D7C84927 
 865      5F7F7F8E 
 865      AF5B615E 
 865      91AB
 866 28fe 4FFEBBD9 		.ascii	"O\376\273\331\244\212\235\344\244\260\244\300\325\327"
 866      A48A9DE4 
 866      A4B0A4C0 
 866      D5D7
 867 290c 1702F6F3 		.ascii	"\027\002\366\363\212\254\375\013BIp1\030\362\206\240"
 867      8AACFD0B 
 867      42497031 
 867      18F286A0 
 868 291c 72935EEB 		.ascii	"r\223^\353\376\327\354\327{v\353\331-\313EN3\263z\365"
 868      FED7ECD7 
 868      7B76EBD9 
 868      2DCB454E 
 868      33B37AF5 
 869 2930 C66B1DD3 		.ascii	"\306k\035\323\262\272\275\221\336\224\234\246\365\352"
 869      B2BABD91 
 869      DE949CA6 
 869      F5EA
 870 293e D9331DBE 		.ascii	"\3313\035\276\366\354\362 \371\332\251[f\364\212\233"
 870      F6ECF220 
 870      F9DAA95B 
 870      66F48A9B 
 871 294e 5CC948EF 		.ascii	"\\\311H\357\330\351\355&\362\031\\\305\36373\272e\311"
 871      D8E9ED26 
 871      F2195CC5 
 871      F33733BA 
 871      65C9
 872 2960 E7996FF7 		.ascii	"\347\231o\367L\203s;>\325\232\343\317\265\346\004s]"
 872      4C83733B 
 872      3ED59AE3 
 872      CFB5E604 
 872      735D
 873 2972 39DE626F 		.ascii	"9\336bo\216?4\250\023K\301\213\213\002\241`JfV\217v"
 873      8E3F34A8 
 873      134BC18B 
 873      8B02A160 
 873      4A66568F 
 874 2987 A929DDBB 		.ascii	"\251)\335\273wJ\311\354\335\255\177\333\024\250\270"
 874      774AC9EC 
 874      DDAD7FDB 
 874      14A8B8
 875 2996 ECFCFC5C 		.ascii	"\354\374\374\\RypA\254\262T3r\024k>\011\016\262D\000"
 875      52797041 
 875      ACB25433 
 875      72146B3E 
 875      090EB244 
ARM GAS  /tmp/cc5aiyH4.s 			page 71


 876 29ab 47960839 		.ascii	"G\226\0109%\022!\330b)\361WQ6\311\3444\255W\217\336"
 876      251221D8 
 876      6229F157 
 876      5136C9E4 
 876      34AD578F 
 877 29c0 DDD3B3D2 		.ascii	"\335\323\263\322\037\000\200\034o~~\037o\316\273\320"
 877      1F00801C 
 877      6F7E7E1F 
 877      6FCEBBD0 
 878 29d0 AC7C85B9 		.ascii	"\254|\205\271\3319}\322\023)W\227\336\335z\365OM)\206"
 878      D9397DD2 
 878      13295797 
 878      DEDD7AF5 
 878      4F4D2986 
 879 29e4 FA150B96 		.ascii	"\372\025\013\226\034\014\025\200\002\365-\366\027\201"
 879      1C0C1580 
 879      02F52DF6 
 879      1781
 880 29f2 7EF7E8D5 		.ascii	"~\367\350\325)=\303\321+\353\355\336\351\031\316^\231"
 880      293DC3D1 
 880      2BEBEDDE 
 880      E919CE5E 
 880      99
 881 2a03 BDD3D33B 		.ascii	"\275\323\323;e\330{\277\336\273S\206\265\033\244^\235"
 881      65D87BBF 
 881      DEBB5386 
 881      B51BA45E 
 881      9D
 882 2a14 32F837AD 		.ascii	"2\3707\255A_\310\236\223\357\363\006\370\256\266\327"
 882      415FC89E 
 882      93EFF306 
 882      F8AEB6D7 
 883 2a24 3233326C 		.ascii	"232l\335\323\376\232a\353\3309\243;!]\255\257ed$\371"
 883      DDD3FE9A 
 883      61EBD839 
 883      A33B215D 
 883      ADAF6564 
 884 2a3a 8BC893FD 		.ascii	"\213\310\223\375\271\300m0HN\355p\360B\305\004\332\222"
 884      B9C06D30 
 884      484EED70 
 884      F042C504 
 884      DA92
 885 2a4c E2A61515 		.ascii	"\342\246\025\025\346\371\373:r\360\360r\274\202\004"
 885      E6F9FB3A 
 885      72F0F072 
 885      BC8204
 886 2a5b 421181E6 		.ascii	"B\021\201\346\364\013\016\012\312\015\332\025\352G\224"
 886      F40B0E0A 
 886      CA0DDA15 
 886      EA4794
 887 2a6a 1CB43EA7 		.ascii	"\034\264>\247_\266x\336\336\034VN?\"\003Gqv\241o`\010"
 887      5FB678DE 
 887      DE1C564E 
 887      3F220347 
 887      7176A16F 
 888 2a80 0EC5015F 		.ascii	"\016\305\001_\377\256\014\020\242X;f\364H\3531\020\356"
 888      FFAE0C10 
ARM GAS  /tmp/cc5aiyH4.s 			page 72


 888      A2583B66 
 888      F448EB31 
 888      10EE
 889 2a92 2C28060B 		.ascii	",(\006\013\026\010\246tIK\203\333e\366\234\241\342\000"
 889      1608A674 
 889      494B83DB 
 889      65F69CA1 
 889      E200
 890 2aa4 912AE2FA 		.ascii	"\221*\342\372\213HK\016\301c\376l\032\277_NQ\200\230"
 890      8B484B0E 
 890      C163FE6C 
 890      1ABF5F4E 
 890      518098
 891 2ab7 A126E432 		.ascii	"\241&\3442\264\263PNh\340\277'\206\222\335\377\245\002"
 891      B4B3504E 
 891      68E0BF27 
 891      8692DDFF 
 891      A502
 892 2ac9 22B980AF 		.ascii	"\"\271\200\257/X\317\354\2205\330\366EH/Az\031\322\237"
 892      2F58CFEC 
 892      9035D8F6 
 892      45482F41 
 892      7A19D29F 
 893 2add ADC1D436 		.ascii	"\255\301\3246\220\332BJ\205\324\016R{H\177\202\004\367"
 893      90DA424A 
 893      85D40E52 
 893      7B487F82 
 893      04F7
 894 2aef A5C27DA9 		.ascii	"\245\302}\251p_*\334\327\016\356k\327\326\022ho\011"
 894      705F2ADC 
 894      D70EEE6B 
 894      D7D61268 
 894      6F09
 895 2b01 FCC91278 		.ascii	"\374\311\022x\321\022x\311\022x\331\022\370\2635\320"
 895      D11278C9 
 895      1278D912 
 895      F8B335D0 
 896 2b11 B60DA4B6 		.ascii	"\266\015\244\266\226\374\000\034\332\331\213\263\201"
 896      96FC001C 
 896      DAD98BB3 
 896      81
 897 2b1e 5B2791F0 		.ascii	"['\221\360\000_\000\216E\371\271\276\000\2218\230_W"
 897      005F008E 
 897      45F9B9BE 
 897      00913898 
 897      5F57
 898 2b30 486A1670 		.ascii	"Hj\026p\035\317\234\241\202\242\\\361{^\276\267o\320"
 898      1DCF9CA1 
 898      82A25CF1 
 898      7B5EBEB7 
 898      6FD0
 899 2b42 190AF8F2 		.ascii	"\031\012\370\362\202(Brb/\010\366\205\037%\233\007\266"
 899      82284272 
 899      622F08F6 
 899      851F259B 
 899      07B6
 900 2b54 4E3A7304 		.ascii	"N:s\004r\007\301O.\337@\177\010$\342s\014\010\025\365"
ARM GAS  /tmp/cc5aiyH4.s 			page 73


 900      7207C14F 
 900      2EDF407F 
 900      0824E273 
 900      0C0815F5 
 901 2b68 F9CFE226 		.ascii	"\371\317\342&\276\376\276\302P\2017\210\215f\0009\261"
 901      BEFEBEC2 
 901      50813788 
 901      8D660039 
 901      B1
 902 2b79 16679734 		.ascii	"\026g\2274\025U%\230\235\017\2552;\324,\242<\342\025"
 902      15552598 
 902      9D0FAD32 
 902      3BD42CA2 
 902      3CE215
 903 2b8c 7771F600 		.ascii	"wq\366\000\257?\344/\354\333L\276\374^\211\257\004\270"
 903      AF3FE42F 
 903      ECDB4CBE 
 903      FC5E89AF 
 903      04B8
 904 2b9e 6A4EDD89 		.ascii	"jN\335\211\227\222\212\263\341\261xj\307S\270\340+\206"
 904      97928AB3 
 904      E1B1786A 
 904      C753B8E0 
 904      2B86
 905 2bb0 E60999ED 		.ascii	"\346\011\231\355\005%P\333\355L\351cAh \321\233\002"
 905      052550DB 
 905      ED4CE963 
 905      416820D1 
 905      9B02
 906 2bc2 111D8E45 		.ascii	"\021\035\216E\003\012Ah\210\004E(@5\005\376\340>\302"
 906      030A4168 
 906      88044528 
 906      403505FE 
 906      E03EC2
 907 2bd5 6912918A 		.ascii	"i\022\221\2127\037\225\013.\026\203\037y\311\324\363"
 907      371F950B 
 907      2E16831F 
 907      79C9D4F3 
 908 2be5 A4C2C033 		.ascii	"\244\302\3003[HM\011\244\354\013\370\012s\210\367\026"
 908      5B484D09 
 908      A4EC0BF8 
 908      0A7388F7 
 908      16
 909 2bf6 2FFD6B3C 		.ascii	"/\375k<D`)%\255Gf\267L03)hM\362\332\267i;\020\025\226"
 909      44602925 
 909      AD4766B7 
 909      4C303329 
 909      684DF2DA 
 910 2c10 18B12C68 		.ascii	"\030\261,h\016\235|y\326\264\214\266\220R-\231\031\026"
 910      0E9D7C79 
 910      D6B48CB6 
 910      90522D99 
 910      1916
 911 2c22 302A6919 		.ascii	"0*i\031i\2753\034\031o\3011\303\221\205\007g\267\324"
 911      69BD331C 
 911      196FC131 
 911      C3918507 
ARM GAS  /tmp/cc5aiyH4.s 			page 74


 911      67B7D4
 912 2c35 CCB4CE5D 		.ascii	"\314\264\316]2\354p\354\235a\005\233\327\331\254\211"
 912      32EC70EC 
 912      9D61059B 
 912      D7D9AC89 
 913 2c45 43DAB9FD 		.ascii	"C\332\271\375\300\201\"#\331\271\005^R\270N=:fg\202"
 913      C0812223 
 913      D9B9055E 
 913      52B84E3D 
 913      3A666782 
 914 2c59 2A790B64 		.ascii	"*y\013dn,i\031\266\236\235\2622\254\275;f\330z\264!"
 914      6E2C6919 
 914      B69E9DB2 
 914      32ACBD3B 
 914      66D87AB4 
 915 2c6e A46DC70C 		.ascii	"\244m\307\014kg`&\2107\332\374y9\001\207?\330\317\237"
 915      6B676026 
 915      8837DAFC 
 915      79390187 
 915      3FD8CF9F 
 916 2c82 1772077D 		.ascii	"\027r\007}\371y\376\302\\\337@G\177\360\277E\201\026"
 916      F979FEC2 
 916      5CDF4047 
 916      7FF0BF45 
 916      8116
 917 2c94 11F46CF1 		.ascii	"\021\364l\361n0\235\360%0\220\320\320@w` \034\211&\273"
 917      6E309DF0 
 917      253090D0 
 917      D0407760 
 917      201C8926 
 918 2ca9 43F2990D 		.ascii	"C\362\231\015\212Sl\317\017\346\344\365\265\367#\224"
 918      8A536CCF 
 918      0FE6E4F5 
 918      B5F72394 
 919 2cb9 8403A219 		.ascii	"\204\003\242\031l\206~6\333\233\233\033\360\005\203"
 919      6C867E36 
 919      DB9B9B1B 
 919      F00583
 920 2cc8 BEA00D62 		.ascii	"\276\240\015b\206\\r\177n\\\355!\262\317\363\206\362"
 920      865C727F 
 920      6E5CED21 
 920      B2CFF386 
 920      F2
 921 2cd9 8229C140 		.ascii	"\202)\301@NJ\036\211\275\354\235;fu\316\214kS\2259\241"
 921      4E4A1E89 
 921      BDEC9D3B 
 921      6675CE8C 
 921      6B539539 
 922 2cee 1DF9C4C8 		.ascii	"\035\371\304\310\314\366\332\333Y\351N\322\346@P\326"
 922      CCF6DADB 
 922      59E94ED2 
 922      E64050D6 
 923 2cfe DC407F7B 		.ascii	"\334@\177{\016\361\364\216\302l\270;h\037@\232\245+"
 923      0EF1F48E 
 923      C26CB83B 
 923      681F409A 
 923      A52B
ARM GAS  /tmp/cc5aiyH4.s 			page 75


 924 2d10 2FE8C7F6 		.ascii	"/\350\307\366i{\263WF'wav\240\250\010B\264\200\275\023"
 924      697BB357 
 924      46277761 
 924      76A0A808 
 924      42B480BD 
 925 2d25 F99E94EF 		.ascii	"\371\236\224\357\205f\005*\006\012\232\027\360\371\304"
 925      8566052A 
 925      060A9A17 
 925      F0F9C4
 926 2d34 53170240 		.ascii	"S\027\002@s\264\347a\344\320\277\010\274Y\320\347\204"
 926      73B4E761 
 926      E4D0BF08 
 926      BC59D0E7 
 926      84
 927 2d45 8B7884EC 		.ascii	"\213x\204\354\344\350\"1\030^\030@\302\241\234\220\025"
 927      E4E82231 
 927      185E1840 
 927      C2A19C90 
 927      15
 928 2d56 8E4E1220 		.ascii	"\216N\022 \202\335w\201`2@%\007\001\177x\264\006ssH"
 928      82DD7781 
 928      60324025 
 928      07017F78 
 928      B4067373 
 929 2d6b 00D9DB1B 		.ascii	"\000\331\333\033\352\227\234K\334s\217\242\022(J\256"
 929      EA979C4B 
 929      DC738FA2 
 929      12284AAE 
 930 2d7b A310B338 		.ascii	"\243\020\2638\304h\316\332\271[wK^\320FX\266\372\002"
 930      C468CEDA 
 930      B95B774B 
 930      5ED04658 
 930      B6FA02
 931 2d8e 015B5E71 		.ascii	"\001[^q(\340\010\"_v\221\346\222g\271\200\211lrB\270"
 931      28E00822 
 931      5F7691E6 
 931      9267B980 
 931      896C7242 
 932 2da3 C9867BAC 		.ascii	"\311\206{\254}J\362l\004\3119 \220F\220mE\320\272M\007"
 932      7D4AF26C 
 932      04C93920 
 932      9046906D 
 932      45D0BA4D 
 933 2db8 1451ADF4 		.ascii	"\024Q\255\364\346\346\310\001E\307Ni\011\004\024\000"
 933      E6E6C801 
 933      45C74E69 
 933      09041400 
 934 2dc8 40020A38 		.ascii	"@\002\0128\310\001\005\340\310\001\0059\305\200\202"
 934      C80105E0 
 934      C8010539 
 934      C58082
 935 2dd7 9C880105 		.ascii	"\234\210\001\0059\223\002\012r*\007\024xGzFF\257\014"
 935      3993020A 
 935      722A0714 
 935      78477A46 
 935      46AF0C
 936 2dea 7B6E4941 		.ascii	"{nIA\301 \362]T\306&\004\332K\342^0\264\342I\320\236"
ARM GAS  /tmp/cc5aiyH4.s 			page 76


 936      C120F25D 
 936      54C62604 
 936      DA4BE25E 
 936      30B4E249 
 937 2e00 EB2B0EF5 		.ascii	"\353+\016\365s\345\370\0039%\371\336@\013R\012\210\351"
 937      73E5F803 
 937      3925F9DE 
 937      400B520A 
 937      88E9
 938 2e12 2118CD0F 		.ascii	"!\030\315\017\222\360/;\224L\250|\351\001\370=\032\255"
 938      92F02F3B 
 938      944CA87C 
 938      E901F83D 
 938      1AAD
 939 2e24 105E41E6 		.ascii	"\020^A\346E\020`\267\220\236\232\015\355\261s\307n\335"
 939      451060B7 
 939      909E9A0D 
 939      EDB173C7 
 939      6EDD
 940 2e36 5FCF486F 		.ascii	"_\317Ho._\352\365FzF\347\356\275\336l!\337\036Ep\211"
 940      2E5FEAF5 
 940      467A46E7 
 940      EEBDDE6C 
 940      21DF1E45 
 941 2e4c D973FA40 		.ascii	"\331s\372@\364\220j\017\026\024\007\332\"M\265\005\337"
 941      F4906A0F 
 941      161407DA 
 941      224DB505 
 941      DF
 942 2e5d 0BB42504 		.ascii	"\013\264%\004\317\332\265\020\013\001\"\015\372\213"
 942      CFDAB510 
 942      0B01220D 
 942      FA8B
 943 2e6b 0ABB048A 		.ascii	"\012\273\004\212J\212m}\003\305\305M\3103\244vo\317"
 943      4A8A6D7D 
 943      03C5C54D 
 943      C833A476 
 943      6FCF
 944 2e7d ECD13BA3 		.ascii	"\354\321;\243-\322T\373_zu\206sB\305\363vH\333[\273"
 944      2DD254FB 
 944      5F7A7586 
 944      7342C5F3 
 944      7648DB5B 
 945 2e92 825DE89E 		.ascii	"\202]\350\236\225a\313\374[F[BR\011ig\373\013P\333_"
 945      9561CBFC 
 945      5B465B42 
 945      52096967 
 945      FB0B50DB 
 946 2ea7 3AC13520 		.ascii	":\3015 \251\204\264#\244\275\025Xv@3\017\206\212\235"
 946      A984B423 
 946      A4BD1558 
 946      7640330F 
 946      868A9D
 947 2eba 526BFF93 		.ascii	"Rk\377\223\251 \321\027\360{\363I,\226\211g\242Z4\243"
 947      A920D117 
 947      F07BF349 
 947      2C968967 
ARM GAS  /tmp/cc5aiyH4.s 			page 77


 947      A25A34A3 
 948 2ece BF403FC1 		.ascii	"\277@?\301Z\\\022\262B\234\355&\001\220\277\000\252"
 948      5A5C12B2 
 948      429CED26 
 948      0190BF00 
 948      AA
 949 2edf C7065742 		.ascii	"\307\006WB6\270\024r`\230\037\262\023{\035\212\333="
 949      36B81472 
 949      60981FB2 
 949      137B1D8A 
 949      DB3D
 950 2ef1 51B80074 		.ascii	"Q\270\000t\221\304\0034\305\263\354`QI\200X\377d\372"
 950      91C40334 
 950      C5B3EC60 
 950      51498058 
 950      FF64FA
 951 2f04 6B73F10B 		.ascii	"ks\361\013\3619\276B\322Uj\252\274\340\364\345\243k"
 951      F139BE42 
 951      D2556AAA 
 951      BCE0F4E5 
 951      A36B
 952 2f16 6A0247F9 		.ascii	"j\002G\371\232\033\316Ep\021\012\3759\251\314|\321\265"
 952      9A1BCE45 
 952      70110AFD 
 952      39A9CC7C 
 952      D1B5
 953 2f28 93DF0788 		.ascii	"\223\337\007\210N\336\027\304\334v\274\317\035\314\225"
 953      4EDE17C4 
 953      DC76BCCF 
 953      1DCC95
 954 2f37 54DB9DD9 		.ascii	"T\333\235\331I\322l'\234\021\305v\301\021\365\332\\"
 954      49D26C27 
 954      9C11C576 
 954      C111F5DA 
 954      5C
 955 2f48 19D19B92 		.ascii	"\031\321\233\2222>\340/\004\231\311\356\034\202T\371"
 955      323EE02F 
 955      0499C9EE 
 955      1C8254F9 
 956 2f58 D4259FBA 		.ascii	"\324%\237\272\337\223\235?\234\345\2401\011\270\336"
 956      DF939D3F 
 956      9CE5A031 
 956      09B8DE
 957 2f67 CB063B00 		.ascii	"\313\006;\000~\321\376^v\250\250\330\011\267\004\300"
 957      7ED1FE5E 
 957      76A8A8D8 
 957      09B704C0 
 958 2f77 38C03190 		.ascii	"8\3001\220\013G\367{\205E!\177\336 @y/[<u\274\007b("
 958      0B47F77B 
 958      8545217F 
 958      DE204079 
 958      2F5B3C75 
 959 2f8f 7CD7E147 		.ascii	"|\327\341G\314\246E%!\352\261\216\"<\261\370\373"
 959      CCA64525 
 959      21EAB18E 
 959      223CB1F8 
 959      FB
ARM GAS  /tmp/cc5aiyH4.s 			page 78


 960 2fa0 588AFA3C 		.ascii	"X\212\372<\360zf\307\214,\312G\266\263u\311\352\235"
 960      F07A66C7 
 960      8C2CCA47 
 960      B6B375C9 
 960      EA9D
 961 2fb2 612F097A 		.ascii	"a/\011z\003\241n\211D\370\010H\372.\250>r\224/*\223"
 961      03A16E89 
 961      44F80848 
 961      FA2EA83E 
 961      72942F2A 
 962 2fc7 D8C4EDC1 		.ascii	"\330\304\355\301b\237\217\204\342\355\222\202\241w\275"
 962      629F8F84 
 962      E2ED9282 
 962      A177BD
 963 2fd6 F9FEBE85 		.ascii	"\371\376\276\205\331b\247\362\305\366\221N%9u\364-&"
 963      D962A7F2 
 963      C5F6914E 
 963      253975F4 
 963      2D26
 964 2fe8 5273C321 		.ascii	"Rs\303!\013c\201\270\376\250\277\027b\221\222 \374\000"
 964      0B6381B8 
 964      FEA8BF17 
 964      62919220 
 964      FC00
 965 2ffa 4109D439 		.ascii	"A\011\3249\3446"
 965      E436
 966 3000 179188EE 		.ascii	"\027\221\210\356\224<\365\341\327\300\013d\372@V\205"
 966      943CF5E1 
 966      D7C00B64 
 966      FA405685 
 967 3010 21605D74 		.ascii	"!`]t\337\217i]\204\306\341\222\037h\205\023k^A\310Y"
 967      DF8F695D 
 967      84C6E192 
 967      1F688513 
 967      6B5E41C8 
 968 3025 E0F517BE 		.ascii	"\340\365\027\276\220\3039\304\316\260\013CE8y\204\030"
 968      90C339C4 
 968      CEB00B43 
 968      45387984 
 968      18
 969 3036 F09EBE01 		.ascii	"\360\236\276\001\335\305Q\207\027\212A\314/\264\261"
 969      DDC55187 
 969      178A41CC 
 969      2FB4B1
 970 3045 E7E7F52C 		.ascii	"\347\347\365,)H\362\027\372\011*\270\247\246\312\333"
 970      2948F217 
 970      FA092AB8 
 970      A7A6CADB 
 971 3055 5C39F945 		.ascii	"\\9\371EA\037|y\000D\321\275(\307\033\002\003\003\255"
 971      411F7C79 
 971      0044D1BD 
 971      28C71B02 
 971      0303AD
 972 3068 80FA06AC 		.ascii	"\200\372\006\254\330H\263t\345\303\327\020\024\306\235"
 972      D848B374 
 972      E5C3D710 
 972      14C69D
ARM GAS  /tmp/cc5aiyH4.s 			page 79


 973 3077 5F54D817 		.ascii	"_T\330\027\317\\\336|\361\222+\350\015\241\033q!\263"
 973      CF5CDE7C 
 973      F1922BE8 
 973      0DA11B71 
 973      21B3
 974 3089 5D8A8356 		.ascii	"]\212\203V\360\374M\260\361v\005\361\022_`b\254\305"
 974      F0FC4DB0 
 974      F17605F1 
 974      125F6062 
 974      ACC5
 975 309b 1BE84BA2 		.ascii	"\033\350K\242\305\376^lsM\263\263\373\026\226\344dK"
 975      C5FE5E6C 
 975      734DB3B3 
 975      FB1696E4 
 975      644B
 976 30ad 5F9BFC5B 		.ascii	"_\233\374[\237\022\177~\350\217\376\302W8\010\224\245"
 976      9F127F7E 
 976      E88FFEC2 
 976      57380894 
 976      A5
 977 30be ABD051EA 		.ascii	"\253\320Q\352/\012*\011d](\235JC0P^\027\230\262\314"
 977      2F0A2A09 
 977      645D289D 
 977      4A433050 
 977      5E1798B2 
 978 30d3 10C8E461 		.ascii	"\020\310\344a\342\207\273\243\367\354\026\225\012\016"
 978      E287BBA3 
 978      F7EC1695 
 978      0A0E
 979 30e1 7F74CE94 		.ascii	"\177t\316\224\234,@d\365\313\315\314\367\371\212\233"
 979      9C2C4064 
 979      F5CBCDCC 
 979      F7F98A9B 
 980 30f1 E12FD13B 		.ascii	"\341/\321;\235\301\\\204Iz!\245O\2217\200\016\017O\310"
 980      9DC15C84 
 980      497A21A5 
 980      4F913780 
 980      0E0F4FC8 
 981 3105 2DE66262 		.ascii	"-\346bb0w$wN\277\314AA\222\333\224\273\354\207v\325"
 981      30772477 
 981      4EBFCC41 
 981      4192DB94 
 981      BBEC8776 
 982 311a 09079235 		.ascii	"\011\007\2225Y*h\032\251M\371\313\233D\372M\221\271"
 982      592A681A 
 982      A94DF9CB 
 982      9B44FA4D 
 982      91B9
 983 312c 4C5FE8B5 		.ascii	"L_\350\265\222\377\372/_\240\211\374\265{z'R\311]\340"
 983      92FFFA2F 
 983      5FA089FC 
 983      B57B7A27 
 983      52C95DE0 
 984 3140 4CAA6767 		.ascii	"L\252gg(\257\2440';\364 \026>\015\364/\344\203\242\206"
 984      28AFA430 
 984      273BF420 
 984      163E0DF4 
ARM GAS  /tmp/cc5aiyH4.s 			page 80


 984      2FE483A2 
 985 3155 FC391025 		.ascii	"\3749\020%\026\006\213\002 4{~g\000\266\023\017\337"
 985      16068B02 
 985      20347B7E 
 985      6700B613 
 985      0FDF
 986 3167 D69AD929 		.ascii	"\326\232\331)\325\022\314\265\223!\037\362\345E\007"
 986      D512CCB5 
 986      93211FF2 
 986      E54507
 987 3176 34CC3408 		.ascii	"4\3144\010\002\007x\241\376qTL\364\262\300g\363\254"
 987      020778A1 
 987      FE71544C 
 987      F4B2C067 
 987      F3AC
 988 3188 F4EEE93D 		.ascii	"\364\356\351=\322\2632\336\316\356\012V.=\343\275\254"
 988      D2B332DE 
 988      CEEE0A56 
 988      2E3DE3BD 
 988      AC
 989 3199 6E3DD25B 		.ascii	"n=\322[w\357\230\325\272{\257\236]Zw\354\236\325:\023"
 989      77EF98D5 
 989      BA7BAF9E 
 989      5D5A77EC 
 989      9ED53A13 
 990 31ad BE64F5E8 		.ascii	"\276d\365\350\335\215\220\364\266HS[\367\316H\317\314"
 990      DD8D90F4 
 990      B648535B 
 990      F7CE48CF 
 990      CC
 991 31be EC261EE0 		.ascii	"\354&\036\340\242xLm\335\365\365\036\235\272!\205\213"
 991      A2784C6D 
 991      DDF5F51E 
 991      9DBA2185 
 991      8B
 992 31cf 78486DDD 		.ascii	"xHm\3351-\355-B\336&\344\357\255{t\354\362\026!o\023"
 992      312DED2D 
 992      42DE26E4 
 992      EFAD7B74 
 992      ECF21621 
 993 31e5 F2F724AE 		.ascii	"\362\367$\256I\244\255\203\375\015\222\252\315\002\245"
 993      49A4AD83 
 993      FD0D92AA 
 993      CD02A5
 994 31f4 76826C0B 		.ascii	"v\202l\013\301&\376?\370\013,\370"
 994      C126FE3F 
 994      F80B2CF8 
 995              		.text
 996              		.section	.gnu.lto_.symtab.f2deea5ac5b9576a,"",%progbits
 997 0000 6C46696C 		.ascii	"lFile\000\000\000\000\000\000\000\000\000\000\000\000"
 997      65000000 
 997      00000000 
 997      00000000 
 997      00
 998 0011 28050000 		.ascii	"(\005\000\000initialize\000\000\000\000\000\000\000"
 998      696E6974 
 998      69616C69 
ARM GAS  /tmp/cc5aiyH4.s 			page 81


 998      7A650000 
 998      00000000 
 999 0026 00000000 		.ascii	"\000\000\000\000\000\225\004\000\000MMCD1\000\000\000"
 999      00950400 
 999      004D4D43 
 999      44310000 
 999      00
 1000 0037 00000000 		.ascii	"\000\000\000\000\000\000\000\000\0000\005\000\000op"
 1000      00000000 
 1000      00300500 
 1000      006F70
 1001 0046 656E4E65 		.ascii	"enNewLogfile\000\000\000\000\000\000\000\000\000\000"
 1001      774C6F67 
 1001      66696C65 
 1001      00000000 
 1001      00000000 
 1002 005c 00009904 		.ascii	"\000\000\231\004\000\000closeLog\000\000\000\000\000"
 1002      0000636C 
 1002      6F73654C 
 1002      6F670000 
 1002      000000
 1003 006f 00000000 		.ascii	"\000\000\000\000\000\000\000\237\004\000\000printGp"
 1003      0000009F 
 1003      04000070 
 1003      72696E74 
 1003      4770
 1004 0081 73000000 		.ascii	"s\000\000\000\000\000\000\000\000\000\000\000\000\243"
 1004      00000000 
 1004      00000000 
 1004      00A3
 1005 008f 04000077 		.ascii	"\004\000\000writeHeader\000\000\000\000\000\000\000"
 1005      72697465 
 1005      48656164 
 1005      65720000 
 1005      00000000 
 1006 00a4 00000000 		.ascii	"\000\000\000\000\000\275\004\000\000main\000\000\000"
 1006      00BD0400 
 1006      006D6169 
 1006      6E000000 
 1007 00b4 00000000 		.ascii	"\000\000\000\000\000\000\000\000\000\300\004\000\000"
 1007      00000000 
 1007      00C00400 
 1007      00
 1008 00c1 53443200 		.ascii	"SD2\000\000\002\000\000\000\000\000\000\000\000\000"
 1008      00020000 
 1008      00000000 
 1008      000000
 1009 00d0 2C050000 		.ascii	",\005\000\000SD6\000\000\002\000\000\000\000\000\000"
 1009      53443600 
 1009      00020000 
 1009      00000000 
 1010 00e0 00000032 		.ascii	"\000\000\0002\005\000\000ADCD1\000\000\002\000\000\000"
 1010      05000041 
 1010      44434431 
 1010      00000200 
 1010      0000
 1011 00f2 00000000 		.ascii	"\000\000\000\000\000\000*\005\000\000gpsThread\000\000"
ARM GAS  /tmp/cc5aiyH4.s 			page 82


 1011      00002A05 
 1011      00006770 
 1011      73546872 
 1011      65616400 
 1012 0107 02000000 		.ascii	"\002\000\000\000\000\000\000\000\000\000l\004\000\000"
 1012      00000000 
 1012      00006C04 
 1012      0000
 1013 0115 63687670 		.ascii	"chvprintf\000\000\002\000\000\000\000\000\000\000\000"
 1013      72696E74 
 1013      66000002 
 1013      00000000 
 1013      00000000 
 1014 0129 00C40400 		.ascii	"\000\304\004\000\000chsnprintf\000\000\002\000\000\000"
 1014      00636873 
 1014      6E707269 
 1014      6E746600 
 1014      00020000 
 1015 013e 00000000 		.ascii	"\000\000\000\000\000\000\323\004\000\000logfileNew\000"
 1015      0000D304 
 1015      00006C6F 
 1015      6766696C 
 1015      654E6577 
 1016 0153 00020000 		.ascii	"\000\002\000\000\000\000\000\000\000\000\000\331\004"
 1016      00000000 
 1016      000000D9 
 1016      04
 1017 0160 00006164 		.ascii	"\000\000adcStart\000\000\002\000\000\000\000\000\000"
 1017      63537461 
 1017      72740000 
 1017      02000000 
 1017      000000
 1018 0173 000000E0 		.ascii	"\000\000\000\340\004\000\000dataLoggerInitialize\000"
 1018      04000064 
 1018      6174614C 
 1018      6F676765 
 1018      72496E69 
 1019 018f 00020000 		.ascii	"\000\002\000\000\000\000\000\000\000\000\000\345\004"
 1019      00000000 
 1019      000000E5 
 1019      04
 1020 019c 00007364 		.ascii	"\000\000sdmmcFSMounted\000\000\002\000\000\000\000\000"
 1020      6D6D6346 
 1020      534D6F75 
 1020      6E746564 
 1020      00000200 
 1021 01b4 00000000 		.ascii	"\000\000\000\000\354\004\000\000chThdSleep\000\000\002"
 1021      EC040000 
 1021      63685468 
 1021      64536C65 
 1021      65700000 
 1022 01c9 00000000 		.ascii	"\000\000\000\000\000\000\000\000\000\360\004\000\000"
 1022      00000000 
 1022      00F00400 
 1022      00
 1023 01d6 73646D6D 		.ascii	"sdmmcInitialize\000\000\002\000\000\000\000\000\000"
 1023      63496E69 
ARM GAS  /tmp/cc5aiyH4.s 			page 83


 1023      7469616C 
 1023      697A6500 
 1023      00020000 
 1024 01ee 000000F4 		.ascii	"\000\000\000\364\004\000\000sdStart\000\000\002\000"
 1024      04000073 
 1024      64537461 
 1024      72740000 
 1024      0200
 1025 0200 00000000 		.ascii	"\000\000\000\000\000\000\000\000\372\004\000\000boa"
 1025      00000000 
 1025      FA040000 
 1025      626F61
 1026 020f 7264496E 		.ascii	"rdInit\000\000\002\000\000\000\000\000\000\000\000\000"
 1026      69740000 
 1026      02000000 
 1026      00000000 
 1026      0000
 1027 0221 01050000 		.ascii	"\001\005\000\000chSysInit\000\000\002\000\000\000\000"
 1027      63685379 
 1027      73496E69 
 1027      74000002 
 1027      00000000 
 1028 0235 00000000 		.ascii	"\000\000\000\000\000\003\005\000\000halInit\000\000"
 1028      00030500 
 1028      0068616C 
 1028      496E6974 
 1028      0000
 1029 0247 02000000 		.ascii	"\002\000\000\000\000\000\000\000\000\000\005\005\000"
 1029      00000000 
 1029      00000505 
 1029      00
 1030 0254 006C6F67 		.ascii	"\000logfileClose\000\000\002\000\000\000\000\000\000"
 1030      66696C65 
 1030      436C6F73 
 1030      65000002 
 1030      00000000 
 1031 026a 00000007 		.ascii	"\000\000\000\007\005\000\000logfileWrite\000\000\002"
 1031      0500006C 
 1031      6F676669 
 1031      6C655772 
 1031      69746500 
 1032 0280 00000000 		.ascii	"\000\000\000\000\000\000\000\000\000\013\005\000\000"
 1032      00000000 
 1032      000B0500 
 1032      00
 1033 028d 626F6172 		.ascii	"boardSetBuzzer\000\000\002\000\000\000\000\000\000\000"
 1033      64536574 
 1033      42757A7A 
 1033      65720000 
 1033      02000000 
 1034 02a5 00001205 		.ascii	"\000\000\022\005\000\000boardSetLED\000\000\002\000"
 1034      0000626F 
 1034      61726453 
 1034      65744C45 
 1034      44000002 
 1035 02ba 00000000 		.ascii	"\000\000\000\000\000\000\000\000\026\005\000\000gps"
 1035      00000000 
ARM GAS  /tmp/cc5aiyH4.s 			page 84


 1035      16050000 
 1035      677073
 1036 02c9 4765744C 		.ascii	"GetLocation\000\000\002\000\000\000\000\000\000\000"
 1036      6F636174 
 1036      696F6E00 
 1036      00020000 
 1036      00000000 
 1037 02de 00001805 		.ascii	"\000\000\030\005\000\000chThdCreateStatic\000\000\002"
 1037      00006368 
 1037      54686443 
 1037      72656174 
 1037      65537461 
 1038 02f8 00000000 		.ascii	"\000\000\000\000\000\000\000\000\000\032\005\000\000"
 1038      00000000 
 1038      001A0500 
 1038      00
 1039              		.text
 1040              		.section	.gnu.lto_.opts,"",%progbits
 1041 0000 272D6D63 		.ascii	"'-mcpu=cortex-m4' '-mfloat-abi=hard' '-mfpu=fpv4-sp"
 1041      70753D63 
 1041      6F727465 
 1041      782D6D34 
 1041      2720272D 
 1042 0033 2D643136 		.ascii	"-d16' '-mno-thumb-interwork' '-mthumb' '-O2' '-fomi"
 1042      2720272D 
 1042      6D6E6F2D 
 1042      7468756D 
 1042      622D696E 
 1043 0066 742D6672 		.ascii	"t-frame-pointer' '-falign-functions=16' '-ffunction"
 1043      616D652D 
 1043      706F696E 
 1043      74657227 
 1043      20272D66 
 1044 0099 2D736563 		.ascii	"-sections' '-fdata-sections' '-fno-common' '-flto' "
 1044      74696F6E 
 1044      73272027 
 1044      2D666461 
 1044      74612D73 
 1045 00cc 272D6673 		.ascii	"'-fsingle-precision-constant'\000"
 1045      696E676C 
 1045      652D7072 
 1045      65636973 
 1045      696F6E2D 
 1046              		.text
 1047              		.section	.text.chprintf,"ax",%progbits
 1048              		.align	2
 1049              		.p2align 4,,15
 1050              		.thumb
 1051              		.thumb_func
 1052              		.type	chprintf, %function
 1053              	chprintf:
 1054              		@ args = 4, pretend = 12, frame = 8
 1055              		@ frame_needed = 0, uses_anonymous_args = 1
 1056 0000 0EB4     		push	{r1, r2, r3}
 1057 0002 00B5     		push	{lr}
 1058 0004 82B0     		sub	sp, sp, #8
 1059 0006 03AA     		add	r2, sp, #12
ARM GAS  /tmp/cc5aiyH4.s 			page 85


 1060 0008 52F8041B 		ldr	r1, [r2], #4
 1061 000c 0192     		str	r2, [sp, #4]
 1062 000e FFF7FEFF 		bl	chvprintf
 1063 0012 02B0     		add	sp, sp, #8
 1064              		@ sp needed
 1065 0014 5DF804EB 		ldr	lr, [sp], #4
 1066 0018 03B0     		add	sp, sp, #12
 1067 001a 7047     		bx	lr
 1068              		.size	chprintf, .-chprintf
 1069 001c AFF30080 		.section	.text.initialize,"ax",%progbits
 1070              		.align	2
 1071              		.p2align 4,,15
 1072              		.global	initialize
 1073              		.thumb
 1074              		.thumb_func
 1075              		.type	initialize, %function
 1076              	initialize:
 1077              		@ args = 0, pretend = 0, frame = 0
 1078              		@ frame_needed = 0, uses_anonymous_args = 0
 1079 0000 10B5     		push	{r4, lr}
 1080 0002 FFF7FEFF 		bl	halInit
 1081 0006 FFF7FEFF 		bl	chSysInit
 1082 000a FFF7FEFF 		bl	boardInit
 1083 000e 41F28830 		movw	r0, #5000
 1084 0012 FFF7FEFF 		bl	chThdSleep
 1085 0016 1D48     		ldr	r0, .L10
 1086 0018 1D49     		ldr	r1, .L10+4
 1087 001a FFF7FEFF 		bl	sdStart
 1088 001e 1D48     		ldr	r0, .L10+8
 1089 0020 1B49     		ldr	r1, .L10+4
 1090 0022 FFF7FEFF 		bl	sdStart
 1091 0026 1C49     		ldr	r1, .L10+12
 1092 0028 1848     		ldr	r0, .L10
 1093 002a FFF7FEFF 		bl	chprintf
 1094 002e 40F6C410 		movw	r0, #2500
 1095 0032 FFF7FEFF 		bl	chThdSleep
 1096 0036 1948     		ldr	r0, .L10+16
 1097 0038 1949     		ldr	r1, .L10+20
 1098 003a 144A     		ldr	r2, .L10
 1099 003c FFF7FEFF 		bl	sdmmcInitialize
 1100 0040 0446     		mov	r4, r0
 1101 0042 4FF47A70 		mov	r0, #1000
 1102 0046 FFF7FEFF 		bl	chThdSleep
 1103 004a 4CB9     		cbnz	r4, .L3
 1104 004c 1348     		ldr	r0, .L10+16
 1105 004e FFF7FEFF 		bl	sdmmcFSMounted
 1106 0052 78B9     		cbnz	r0, .L9
 1107 0054 1348     		ldr	r0, .L10+24
 1108 0056 0021     		movs	r1, #0
 1109 0058 BDE81040 		pop	{r4, lr}
 1110 005c FFF7FEBF 		b	adcStart
 1111              	.L3:
 1112 0060 1149     		ldr	r1, .L10+28
 1113 0062 0A48     		ldr	r0, .L10
 1114 0064 FFF7FEFF 		bl	chprintf
 1115 0068 0E48     		ldr	r0, .L10+24
 1116 006a 0021     		movs	r1, #0
ARM GAS  /tmp/cc5aiyH4.s 			page 86


 1117 006c BDE81040 		pop	{r4, lr}
 1118 0070 FFF7FEBF 		b	adcStart
 1119              	.L9:
 1120 0074 0D49     		ldr	r1, .L10+32
 1121 0076 0E48     		ldr	r0, .L10+36
 1122 0078 084A     		ldr	r2, .L10+16
 1123 007a 044B     		ldr	r3, .L10
 1124 007c FFF7FEFF 		bl	dataLoggerInitialize
 1125 0080 0848     		ldr	r0, .L10+24
 1126 0082 0021     		movs	r1, #0
 1127 0084 BDE81040 		pop	{r4, lr}
 1128 0088 FFF7FEBF 		b	adcStart
 1129              	.L11:
 1130              		.align	2
 1131              	.L10:
 1132 008c 00000000 		.word	SD2
 1133 0090 00000000 		.word	.LANCHOR0
 1134 0094 00000000 		.word	SD6
 1135 0098 00000000 		.word	.LC0
 1136 009c 00000000 		.word	.LANCHOR1
 1137 00a0 00000000 		.word	.LANCHOR2
 1138 00a4 00000000 		.word	ADCD1
 1139 00a8 0C000000 		.word	.LC2
 1140 00ac 08000000 		.word	.LC1
 1141 00b0 00000000 		.word	.LANCHOR3
 1142              		.size	initialize, .-initialize
 1143 00b4 AFF30080 		.section	.text.openNewLogfile,"ax",%progbits
 1143      AFF30080 
 1143      AFF30080 
 1144              		.align	2
 1145              		.p2align 4,,15
 1146              		.global	openNewLogfile
 1147              		.thumb
 1148              		.thumb_func
 1149              		.type	openNewLogfile, %function
 1150              	openNewLogfile:
 1151              		@ args = 0, pretend = 0, frame = 24
 1152              		@ frame_needed = 0, uses_anonymous_args = 0
 1153 0000 10B5     		push	{r4, lr}
 1154 0002 114B     		ldr	r3, .L20
 1155 0004 1A7D     		ldrb	r2, [r3, #20]	@ zero_extendqisi2
 1156 0006 86B0     		sub	sp, sp, #24
 1157 0008 1AB1     		cbz	r2, .L18
 1158 000a 0220     		movs	r0, #2
 1159 000c 40B2     		sxtb	r0, r0
 1160 000e 06B0     		add	sp, sp, #24
 1161              		@ sp needed
 1162 0010 10BD     		pop	{r4, pc}
 1163              	.L18:
 1164 0012 0928     		cmp	r0, #9
 1165 0014 0346     		mov	r3, r0
 1166 0016 11DD     		ble	.L19
 1167 0018 6328     		cmp	r0, #99
 1168 001a 4FF05001 		mov	r1, #80
 1169 001e 6846     		mov	r0, sp
 1170 0020 D4BF     		ite	le
 1171 0022 0A4A     		ldrle	r2, .L20+4
ARM GAS  /tmp/cc5aiyH4.s 			page 87


 1172 0024 0A4A     		ldrgt	r2, .L20+8
 1173 0026 FFF7FEFF 		bl	chsnprintf
 1174              	.L15:
 1175 002a 6B46     		mov	r3, sp
 1176 002c 0949     		ldr	r1, .L20+12
 1177 002e 0A4A     		ldr	r2, .L20+16
 1178 0030 0548     		ldr	r0, .L20
 1179 0032 FFF7FEFF 		bl	logfileNew
 1180 0036 40B2     		sxtb	r0, r0
 1181 0038 06B0     		add	sp, sp, #24
 1182              		@ sp needed
 1183 003a 10BD     		pop	{r4, pc}
 1184              	.L19:
 1185 003c 6846     		mov	r0, sp
 1186 003e 5021     		movs	r1, #80
 1187 0040 064A     		ldr	r2, .L20+20
 1188 0042 FFF7FEFF 		bl	chsnprintf
 1189 0046 F0E7     		b	.L15
 1190              	.L21:
 1191              		.align	2
 1192              	.L20:
 1193 0048 00000000 		.word	.LANCHOR4
 1194 004c 44000000 		.word	.LC4
 1195 0050 58000000 		.word	.LC5
 1196 0054 00000000 		.word	.LANCHOR3
 1197 0058 00000000 		.word	.LANCHOR5
 1198 005c 30000000 		.word	.LC3
 1199              		.size	openNewLogfile, .-openNewLogfile
 1200              		.section	.text.closeLog,"ax",%progbits
 1201              		.align	2
 1202              		.p2align 4,,15
 1203              		.global	closeLog
 1204              		.thumb
 1205              		.thumb_func
 1206              		.type	closeLog, %function
 1207              	closeLog:
 1208              		@ args = 0, pretend = 0, frame = 0
 1209              		@ frame_needed = 0, uses_anonymous_args = 0
 1210 0000 08B5     		push	{r3, lr}
 1211 0002 0248     		ldr	r0, .L23
 1212 0004 FFF7FEFF 		bl	logfileClose
 1213 0008 0020     		movs	r0, #0
 1214 000a 08BD     		pop	{r3, pc}
 1215              	.L24:
 1216              		.align	2
 1217              	.L23:
 1218 000c 00000000 		.word	.LANCHOR4
 1219              		.size	closeLog, .-closeLog
 1220              		.section	.text.printGps,"ax",%progbits
 1221              		.align	2
 1222              		.p2align 4,,15
 1223              		.global	printGps
 1224              		.thumb
 1225              		.thumb_func
 1226              		.type	printGps, %function
 1227              	printGps:
 1228              		@ args = 0, pretend = 0, frame = 0
ARM GAS  /tmp/cc5aiyH4.s 			page 88


 1229              		@ frame_needed = 0, uses_anonymous_args = 0
 1230 0000 00B5     		push	{lr}
 1231 0002 0246     		mov	r2, r0
 1232 0004 02F14001 		add	r1, r2, #64
 1233 0008 02F15003 		add	r3, r2, #80
 1234 000c 85B0     		sub	sp, sp, #20
 1235 000e 2830     		adds	r0, r0, #40
 1236 0010 8DE80B00 		stmia	sp, {r0, r1, r3}
 1237 0014 02F11003 		add	r3, r2, #16
 1238 0018 0349     		ldr	r1, .L26
 1239 001a 0448     		ldr	r0, .L26+4
 1240 001c FFF7FEFF 		bl	chprintf
 1241 0020 05B0     		add	sp, sp, #20
 1242              		@ sp needed
 1243 0022 5DF804FB 		ldr	pc, [sp], #4
 1244              	.L27:
 1245 0026 00BF     		.align	2
 1246              	.L26:
 1247 0028 68000000 		.word	.LC6
 1248 002c 00000000 		.word	SD6
 1249              		.size	printGps, .-printGps
 1250              		.section	.text.writeHeader,"ax",%progbits
 1251              		.align	2
 1252              		.p2align 4,,15
 1253              		.global	writeHeader
 1254              		.thumb
 1255              		.thumb_func
 1256              		.type	writeHeader, %function
 1257              	writeHeader:
 1258              		@ args = 0, pretend = 0, frame = 72
 1259              		@ frame_needed = 0, uses_anonymous_args = 0
 1260 0000 00B5     		push	{lr}
 1261 0002 93B0     		sub	sp, sp, #76
 1262 0004 6846     		mov	r0, sp
 1263 0006 4821     		movs	r1, #72
 1264 0008 054A     		ldr	r2, .L29
 1265 000a FFF7FEFF 		bl	chsnprintf
 1266 000e 6946     		mov	r1, sp
 1267 0010 82B2     		uxth	r2, r0
 1268 0012 0023     		movs	r3, #0
 1269 0014 0348     		ldr	r0, .L29+4
 1270 0016 FFF7FEFF 		bl	logfileWrite
 1271 001a 13B0     		add	sp, sp, #76
 1272              		@ sp needed
 1273 001c 5DF804FB 		ldr	pc, [sp], #4
 1274              	.L30:
 1275              		.align	2
 1276              	.L29:
 1277 0020 94000000 		.word	.LC7
 1278 0024 00000000 		.word	.LANCHOR4
 1279              		.size	writeHeader, .-writeHeader
 1280 0028 AFF30080 		.section	.text.startup.main,"ax",%progbits
 1280      AFF30080 
 1281              		.align	2
 1282              		.p2align 4,,15
 1283              		.global	main
 1284              		.thumb
ARM GAS  /tmp/cc5aiyH4.s 			page 89


 1285              		.thumb_func
 1286              		.type	main, %function
 1287              	main:
 1288              		@ args = 0, pretend = 0, frame = 104
 1289              		@ frame_needed = 0, uses_anonymous_args = 0
 1290 0000 00B5     		push	{lr}
 1291 0002 9DB0     		sub	sp, sp, #116
 1292 0004 FFF7FEFF 		bl	initialize
 1293 0008 03AB     		add	r3, sp, #12
 1294 000a 4FF4CB61 		mov	r1, #1624
 1295 000e 4022     		movs	r2, #64
 1296 0010 0093     		str	r3, [sp]
 1297 0012 1648     		ldr	r0, .L33
 1298 0014 164B     		ldr	r3, .L33+4
 1299 0016 FFF7FEFF 		bl	chThdCreateStatic
 1300 001a 0120     		movs	r0, #1
 1301 001c FFF7FEFF 		bl	boardSetBuzzer
 1302 0020 0120     		movs	r0, #1
 1303 0022 FFF7FEFF 		bl	boardSetLED
 1304 0026 40F6B830 		movw	r0, #3000
 1305 002a FFF7FEFF 		bl	chThdSleep
 1306 002e 0020     		movs	r0, #0
 1307 0030 FFF7FEFF 		bl	boardSetBuzzer
 1308 0034 0020     		movs	r0, #0
 1309 0036 FFF7FEFF 		bl	boardSetLED
 1310              	.L32:
 1311 003a 0120     		movs	r0, #1
 1312 003c FFF7FEFF 		bl	boardSetLED
 1313 0040 04A8     		add	r0, sp, #16
 1314 0042 FFF7FEFF 		bl	gpsGetLocation
 1315 0046 4FF47A60 		mov	r0, #4000
 1316 004a FFF7FEFF 		bl	chThdSleep
 1317 004e 0120     		movs	r0, #1
 1318 0050 FFF7FEFF 		bl	boardSetBuzzer
 1319 0054 0020     		movs	r0, #0
 1320 0056 FFF7FEFF 		bl	boardSetLED
 1321 005a 41F27660 		movw	r0, #5750
 1322 005e FFF7FEFF 		bl	chThdSleep
 1323 0062 0020     		movs	r0, #0
 1324 0064 FFF7FEFF 		bl	boardSetBuzzer
 1325 0068 E7E7     		b	.L32
 1326              	.L34:
 1327 006a 00BF     		.align	2
 1328              	.L33:
 1329 006c 00000000 		.word	.LANCHOR6
 1330 0070 00000000 		.word	gpsThread
 1331              		.size	main, .-main
 1332              		.global	MMCD1
 1333              		.global	lFile
 1334 0074 AFF30080 		.section	.data.serCfg,"aw",%progbits
 1334      AFF30080 
 1334      AFF30080 
 1335              		.align	2
 1336              		.set	.LANCHOR0,. + 0
 1337              		.type	serCfg, %object
 1338              		.size	serCfg, 12
 1339              	serCfg:
ARM GAS  /tmp/cc5aiyH4.s 			page 90


 1340 0000 00C20100 		.word	115200
 1341 0004 0000     		.short	0
 1342 0006 0000     		.short	0
 1343 0008 0000     		.short	0
 1344 000a 0000     		.space	2
 1345              		.section	.bss.waGps,"aw",%nobits
 1346              		.align	3
 1347              		.set	.LANCHOR6,. + 0
 1348              		.type	waGps, %object
 1349              		.size	waGps, 1624
 1350              	waGps:
 1351 0000 00000000 		.space	1624
 1351      00000000 
 1351      00000000 
 1351      00000000 
 1351      00000000 
 1352              		.section	.bss.MMCD1,"aw",%nobits
 1353              		.align	2
 1354              		.set	.LANCHOR2,. + 0
 1355              		.type	MMCD1, %object
 1356              		.size	MMCD1, 52
 1357              	MMCD1:
 1358 0000 00000000 		.space	52
 1358      00000000 
 1358      00000000 
 1358      00000000 
 1358      00000000 
 1359              		.section	.rodata.str1.4,"aMS",%progbits,1
 1360              		.align	2
 1361              	.LC0:
 1362 0000 53544152 		.ascii	"START\012\000"
 1362      540A00
 1363 0007 00       		.space	1
 1364              	.LC1:
 1365 0008 00       		.ascii	"\000"
 1366 0009 000000   		.space	3
 1367              	.LC2:
 1368 000c 0A455252 		.ascii	"\012ERROR: SD Initialization Failed\012\000"
 1368      4F523A20 
 1368      53442049 
 1368      6E697469 
 1368      616C697A 
 1369 002e 0000     		.space	2
 1370              	.LC3:
 1371 0030 6C6F6773 		.ascii	"logs/DAT_00%d.csv\000"
 1371      2F444154 
 1371      5F303025 
 1371      642E6373 
 1371      7600
 1372 0042 0000     		.space	2
 1373              	.LC4:
 1374 0044 6C6F6773 		.ascii	"logs/DAT_0%d.csv\000"
 1374      2F444154 
 1374      5F302564 
 1374      2E637376 
 1374      00
 1375 0055 000000   		.space	3
ARM GAS  /tmp/cc5aiyH4.s 			page 91


 1376              	.LC5:
 1377 0058 6C6F6773 		.ascii	"logs/DAT_%d.csv\000"
 1377      2F444154 
 1377      5F25642E 
 1377      63737600 
 1378              	.LC6:
 1379 0068 54494D45 		.ascii	"TIME:%s, LAT:%s, LONG:%s, ALT:%s, SAT:%s\012\000"
 1379      3A25732C 
 1379      204C4154 
 1379      3A25732C 
 1379      204C4F4E 
 1380 0092 0000     		.space	2
 1381              	.LC7:
 1382 0094 54494D45 		.ascii	"TIME,LAT,LONG,ALT,SAT,TMPI,TMPE1,TMPE2,PRESSI,PRESS"
 1382      2C4C4154 
 1382      2C4C4F4E 
 1382      472C414C 
 1382      542C5341 
 1383 00c7 45312C50 		.ascii	"E1,PRESSE2,HUMDI,HUMDE1,HUMDE2,ACCX,ACCY,ACCZ,MAGX,"
 1383      52455353 
 1383      45322C48 
 1383      554D4449 
 1383      2C48554D 
 1384 00fa 4D414759 		.ascii	"MAGY,MAGZ\012\000"
 1384      2C4D4147 
 1384      5A0A00
 1385 0105 000000   		.section	.bss.sensorLog,"aw",%nobits
 1386              		.align	2
 1387              		.set	.LANCHOR4,. + 0
 1388              		.type	sensorLog, %object
 1389              		.size	sensorLog, 24
 1390              	sensorLog:
 1391 0000 00000000 		.space	24
 1391      00000000 
 1391      00000000 
 1391      00000000 
 1391      00000000 
 1392              		.section	.bss.sd,"aw",%nobits
 1393              		.align	2
 1394              		.set	.LANCHOR1,. + 0
 1395              		.type	sd, %object
 1396              		.size	sd, 16
 1397              	sd:
 1398 0000 00000000 		.space	16
 1398      00000000 
 1398      00000000 
 1398      00000000 
 1399              		.section	.bss.logger,"aw",%nobits
 1400              		.align	2
 1401              		.set	.LANCHOR3,. + 0
 1402              		.type	logger, %object
 1403              		.size	logger, 16
 1404              	logger:
 1405 0000 00000000 		.space	16
 1405      00000000 
 1405      00000000 
 1405      00000000 
ARM GAS  /tmp/cc5aiyH4.s 			page 92


 1406              		.section	.bss.lFile,"aw",%nobits
 1407              		.align	2
 1408              		.set	.LANCHOR5,. + 0
 1409              		.type	lFile, %object
 1410              		.size	lFile, 548
 1411              	lFile:
 1412 0000 00000000 		.space	548
 1412      00000000 
 1412      00000000 
 1412      00000000 
 1412      00000000 
 1413              		.comm	__gnu_lto_v1,1,1
 1414              		.ident	"GCC: (GNU Tools for ARM Embedded Processors) 4.8.4 20140526 (release) [ARM/embedded-4_8-br
ARM GAS  /tmp/cc5aiyH4.s 			page 93


DEFINED SYMBOLS
                            *ABS*:0000000000000000 main.c
     /tmp/cc5aiyH4.s:1048   .text.chprintf:0000000000000000 $t
     /tmp/cc5aiyH4.s:1053   .text.chprintf:0000000000000000 chprintf
     /tmp/cc5aiyH4.s:1070   .text.initialize:0000000000000000 $t
     /tmp/cc5aiyH4.s:1076   .text.initialize:0000000000000000 initialize
     /tmp/cc5aiyH4.s:1132   .text.initialize:000000000000008c $d
     /tmp/cc5aiyH4.s:1144   .text.openNewLogfile:0000000000000000 $t
     /tmp/cc5aiyH4.s:1150   .text.openNewLogfile:0000000000000000 openNewLogfile
     /tmp/cc5aiyH4.s:1193   .text.openNewLogfile:0000000000000048 $d
     /tmp/cc5aiyH4.s:1201   .text.closeLog:0000000000000000 $t
     /tmp/cc5aiyH4.s:1207   .text.closeLog:0000000000000000 closeLog
     /tmp/cc5aiyH4.s:1218   .text.closeLog:000000000000000c $d
     /tmp/cc5aiyH4.s:1221   .text.printGps:0000000000000000 $t
     /tmp/cc5aiyH4.s:1227   .text.printGps:0000000000000000 printGps
     /tmp/cc5aiyH4.s:1247   .text.printGps:0000000000000028 $d
     /tmp/cc5aiyH4.s:1251   .text.writeHeader:0000000000000000 $t
     /tmp/cc5aiyH4.s:1257   .text.writeHeader:0000000000000000 writeHeader
     /tmp/cc5aiyH4.s:1277   .text.writeHeader:0000000000000020 $d
     /tmp/cc5aiyH4.s:1281   .text.startup.main:0000000000000000 $t
     /tmp/cc5aiyH4.s:1287   .text.startup.main:0000000000000000 main
     /tmp/cc5aiyH4.s:1329   .text.startup.main:000000000000006c $d
     /tmp/cc5aiyH4.s:1357   .bss.MMCD1:0000000000000000 MMCD1
     /tmp/cc5aiyH4.s:1411   .bss.lFile:0000000000000000 lFile
     /tmp/cc5aiyH4.s:1335   .data.serCfg:0000000000000000 $d
     /tmp/cc5aiyH4.s:1339   .data.serCfg:0000000000000000 serCfg
     /tmp/cc5aiyH4.s:1346   .bss.waGps:0000000000000000 $d
     /tmp/cc5aiyH4.s:1350   .bss.waGps:0000000000000000 waGps
     /tmp/cc5aiyH4.s:1353   .bss.MMCD1:0000000000000000 $d
     /tmp/cc5aiyH4.s:1360   .rodata.str1.4:0000000000000000 $d
     /tmp/cc5aiyH4.s:1386   .bss.sensorLog:0000000000000000 $d
     /tmp/cc5aiyH4.s:1390   .bss.sensorLog:0000000000000000 sensorLog
     /tmp/cc5aiyH4.s:1393   .bss.sd:0000000000000000 $d
     /tmp/cc5aiyH4.s:1397   .bss.sd:0000000000000000 sd
     /tmp/cc5aiyH4.s:1400   .bss.logger:0000000000000000 $d
     /tmp/cc5aiyH4.s:1404   .bss.logger:0000000000000000 logger
     /tmp/cc5aiyH4.s:1407   .bss.lFile:0000000000000000 $d
                            *COM*:0000000000000001 __gnu_lto_v1
     /tmp/cc5aiyH4.s:1143   .text.initialize:00000000000000b4 $t
     /tmp/cc5aiyH4.s:1280   .text.writeHeader:0000000000000028 $t
     /tmp/cc5aiyH4.s:1334   .text.startup.main:0000000000000074 $t

UNDEFINED SYMBOLS
chvprintf
halInit
chSysInit
boardInit
chThdSleep
sdStart
sdmmcInitialize
sdmmcFSMounted
adcStart
dataLoggerInitialize
SD2
SD6
ADCD1
chsnprintf
ARM GAS  /tmp/cc5aiyH4.s 			page 94


logfileNew
logfileClose
logfileWrite
chThdCreateStatic
boardSetBuzzer
boardSetLED
gpsGetLocation
gpsThread
