ARM GAS  /tmp/ccIdAxfh.s 			page 1


   1              		.syntax unified
   2              		.cpu cortex-m4
   3              		.eabi_attribute 27, 3
   4              		.eabi_attribute 28, 1
   5              		.fpu fpv4-sp-d16
   6              		.eabi_attribute 20, 1
   7              		.eabi_attribute 21, 1
   8              		.eabi_attribute 23, 3
   9              		.eabi_attribute 24, 1
  10              		.eabi_attribute 25, 1
  11              		.eabi_attribute 26, 1
  12              		.eabi_attribute 30, 2
  13              		.eabi_attribute 34, 1
  14              		.eabi_attribute 18, 4
  15              		.thumb
  16              		.file	"main.c"
  17              		.section	.gnu.lto_.jmpfuncs.46a1c66df1365aeb,"",%progbits
  18 0000 789C8552 		.ascii	"x\234\205RMO\302@\020\235i)\205\3127\012\342GmLH\214"
  18      4D4FC240 
  18      109D6929 
  18      85CA370A 
  18      E2476D4C 
  19 0016 21CA554E 		.ascii	"!\312UN4\001\225\004\305\224\036<\230\020\002\3064a"
  19      34019504 
  19      C5941E3C 
  19      981002C6 
  19      3461
  20 0028 E100E1A0 		.ascii	"\341\000\341\240\027\216\236<s1\361g\370\003\374\021"
  20      178E9E3C 
  20      7331F167 
  20      F803FC11 
  21 0038 FE120F9E 		.ascii	"\376\022\017\236\354\356V\012\264\326\275\354\354\233"
  21      ECEE560A 
  21      B4D6BDEC 
  21      EC9B
  22 0046 B7B36FDE 		.ascii	"\267\263o\336\216\000\002\370\255\216\010\360b\357Q"
  22      8E0002F8 
  22      AD8E08F0 
  22      62EF51
  23 0055 101140B4 		.ascii	"\020\021@\264O0\265w\000\234\322\264}I\270E\013i\214"
  23      4F30B577 
  23      009CD2B4 
  23      7D49B845 
  23      0B698C
  24 0068 10129EE0 		.ascii	"\020\022\236\340{\366<KY\210\204a\300\2209E\004\025"
  24      7BF63C4B 
  24      59888461 
  24      C0903945 
  24      0415
  25 007a F07536AF 		.ascii	"\360u6\257Z(\272\031\306\015\021\304UD\"\310\344H\030"
  25      5A28BA19 
  25      C60D11C4 
  25      554422C8 
  25      E44818
  26 008d 721E08DF 		.ascii	"r\036\010\337,\327\222U\020y\255\010\253\345\310\362"
  26      2CD79255 
  26      1079AD08 
ARM GAS  /tmp/ccIdAxfh.s 			page 2


  26      ABE5C8F2 
  27 009d 274755C8 		.ascii	"'GU\310q\262\362?yC\205#N\216\255\220]mq\302\033\370"
  27      71B2F23F 
  27      79438523 
  27      4E8EAD90 
  27      5D6D71C2 
  28 00b3 A3578624 		.ascii	"\243W\206$\010\025NW\004\004o[\356sI\025\316\370s)\316"
  28      08154E57 
  28      04046F5B 
  28      EE734915 
  28      CEF87329 
  29 00c8 47AF2DC8 		.ascii	"G\257-\310d\246?\262\266\232 \3232\004%\177\033\003"
  29      64A63FB2 
  29      B69A20D3 
  29      3204257F 
  29      1B03
  30 00da 256455B8 		.ascii	"%dU\270\343\0226!\210\314\220-\202\3415\2319\202\262"
  30      E3123621 
  30      88CC902D 
  30      82E13599 
  30      3982B2
  31 00ed 332C3144 		.ascii	"3,1D\307\257\3702\343\327\261\004\312AB\362*\364\271"
  31      C7AFF832 
  31      E3D7B104 
  31      CA4142F2 
  31      2AF4B9
  32 0100 90EDB521 		.ascii	"\220\355\265!L\372\371\317.Sg\012\374\233\370g^R8\355"
  32      4CFAF9CF 
  32      2E53670A 
  32      FC9BF867 
  32      5E5238ED 
  33 0114 785670DD 		.ascii	"xVp\335\373*\201\007,\340\"\375v@\347\327\203/q\335"
  33      FB2A8107 
  33      2CE022FD 
  33      7640E7D7 
  33      832F71DD 
  34 0128 52EF791F 		.ascii	"R\357y\037\242\035I\256\306\035\302\007\223\345v?cN"
  34      A21D49AE 
  34      C61DC207 
  34      93E5763F 
  34      634E
  35 013a B4575DF6 		.ascii	"\264W]\366r\277\207\213\016\0212\203\321\303\370\264"
  35      72BF878B 
  35      0E113283 
  35      D1C3F8B4 
  36 014a A69B9D72 		.ascii	"\246\233\235r\271\330?\351\215\247\220v!\007I-\020\007"
  36      B9D83FE9 
  36      8DA79076 
  36      2107492D 
  36      1007
  37 015c 3854EA86 		.ascii	"8T\352\206\3212*Z\273\2465\206\326\304\352\016\254\307"
  37      D1322A5A 
  37      BBA63586 
  37      D6C4EA0E 
  37      ACC7
  38 016e EEC41A0D 		.ascii	"\356\304\032\015\265\363\2565\270\357+ \267M\3350\025"
  38      B5F3AE35 
ARM GAS  /tmp/ccIdAxfh.s 			page 3


  38      B8EF2B20 
  38      B74DDD30 
  38      15
  39 017f 38361B57 		.ascii	"86\033W\365Jq\\\322\232\272\311\367\326\365\005\013"
  39      F54A715C 
  39      D29ABAC9 
  39      F7D6F505 
  39      0B
  40 0190 F42607DA 		.ascii	"\364&\007\332,\241\300\017\217\225\275\240"
  40      2CA1C00F 
  40      8F95BDA0 
  41              		.text
  42              		.section	.gnu.lto_.inline.46a1c66df1365aeb,"",%progbits
  43 0000 789C8D51 		.ascii	"x\234\215Q\261\015\3020\020\274O\234\340\020  $D\201"
  43      B10DC230 
  43      10BC4F9C 
  43      E0102020 
  43      244481
  44 0013 20300013 		.ascii	" 0\000\023P0\201k\372@\3016.)3\016%CPR\260\001\330o"
  44      5030816B 
  44      FA40C136 
  44      2E29330E 
  44      25435052 
  45 002b C7018410 		.ascii	"\307\001\204\020\266\364>\375\235\357\377\355\010\021"
  45      B6F43EFD 
  45      9DEFFFED 
  45      0811
  46 0039 BEAD07B9 		.ascii	"\276\255\007\2713\203\310g`QZ/\202\226\220\014\200X"
  46      3383C867 
  46      60515A2F 
  46      8296900C 
  46      8058
  47 004b 2BBBE31E 		.ascii	"+\273\343\036\013\010rHoJ\253\021\014\246\263\025%\330"
  47      0B087248 
  47      6F4AAB11 
  47      0CA6B315 
  47      25D8
  48 005d EFE848F3 		.ascii	"\357\350H\363\314$\016\001\271\\\025r\025\273\273{\354"
  48      CC240E01 
  48      B95C1572 
  48      15BBBB7B 
  48      EC
  49 006e 23EAC516 		.ascii	"#\352\305\026\3424\331Jo)\230\323\312\300\241lq\331"
  49      E234D94A 
  49      6F2998D3 
  49      CAC0A16C 
  49      71D9
  50 0080 E0B4F055 		.ascii	"\340\264\360U%\312\233\361\212\344}\035Zjz\355zl\350"
  50      25CA9BF1 
  50      8AE47D1D 
  50      5A6A7AED 
  50      7A6CE8
  51 0093 3C8CD3F2 		.ascii	"<\214\323\362\376p\034\213\333\320C\226\231k\351\207"
  51      FE701C8B 
  51      DBD04396 
  51      996BE987 
  52 00a3 2B69D547 		.ascii	"+i\325G\322\177\177\001g0@>&\342\261^I9\002:\266\343"
ARM GAS  /tmp/ccIdAxfh.s 			page 4


  52      D27F7F01 
  52      6730403E 
  52      26E2B15E 
  52      4939023A 
  53 00b9 66176714 		.ascii	"f\027g\024\2451\210.E\020\371i\264jZ\324jt\305\362\272"
  53      A531882E 
  53      4510F969 
  53      B46A5AD4 
  53      6A74C5F2 
  54 00ce 7185047C 		.ascii	"q\205\004|\035\342Q\376\211\370\021m\265\304\375\260"
  54      1DE251FE 
  54      89F8116D 
  54      B5C4FDB0 
  55 00de 1D154F14 		.ascii	"\035\025O\024=&\305"
  55      3D26C5
  56              		.text
  57              		.section	.gnu.lto_.pureconst.46a1c66df1365aeb,"",%progbits
  58 0000 789C6362 		.ascii	"x\234cb`b\020f\200\000N\006\011F\011V\011\016\011\036"
  58      60621066 
  58      80004E06 
  58      09460956 
  58      090E091E 
  59 0014 095E093E 		.ascii	"\011^\011>\011~\011A\023\000\015?\001j"
  59      097E0941 
  59      13000D3F 
  59      016A
  60              		.text
  61              		.section	.gnu.lto_chprintf.46a1c66df1365aeb,"",%progbits
  62 0000 789C8550 		.ascii	"x\234\205P\315J\002Q\024>\337\0355uc\333v\342\0034\213"
  62      CD4A0251 
  62      143EDF1D 
  62      357563DB 
  62      76E20334 
  63 0015 22E80D7A 		.ascii	"\"\350\015z\000\203Z\3058\216z\011\035\321Q\260\026"
  63      00835AC5 
  63      388E7A09 
  63      1DD151B0 
  63      16
  64 0026 5EC1C245 		.ascii	"^\301\302E\013ig\021)\321:\244\027\030\202\332DI\273"
  64      0B696711 
  64      29D13AA4 
  64      171882DA 
  64      4449BB
  65 0039 162D2497 		.ascii	"\026-$\227\265h\321*\202\351\336\031\024\372\201\016"
  65      B568D12A 
  65      82E9DE19 
  65      14FA810E 
  66 0049 DC7B7EBE 		.ascii	"\334{~\276s\276\363\303\210\321OY\220o\010\2425\251"
  66      73BEF3C3 
  66      88D14F59 
  66      906F08A2 
  66      35A9
  67 005b A11158F7 		.ascii	"\241\021X\367\236\250\025e\2002\010\324dhnB\245\262"
  67      9EA81565 
  67      803208D4 
  67      64686E42 
  67      A5B2
ARM GAS  /tmp/ccIdAxfh.s 			page 5


  68 006d 140D84DB 		.ascii	"\024\015\204\333\035_O\036\321\023n\273/>=\017\340\220"
  68      1D5F4F1E 
  68      D1136EBB 
  68      2F3E3D0F 
  68      E090
  69 007f B42B2013 		.ascii	"\264+ \023\264!\035$}\305B\337\373\250Z\321uOon!\016"
  69      B4211D24 
  69      7DC542DF 
  69      FBA85AD1 
  69      754F6F6E 
  70 0095 45EBCDF3 		.ascii	"E\353\315\363\022\034\032\243\325\377\012/\230\373\354"
  70      121C1AA3 
  70      D5FF0A2F 
  70      98FBEC
  71 00a4 794FC3F7 		.ascii	"yO\303\367\203W\364XLC\021\024\222\037\"d\340\014)\225"
  71      8357F458 
  71      4C431114 
  71      921F2264 
  71      E00C2995 
  72 00b8 13A6B624 		.ascii	"\023\246\266$O\032\030H\177\0325\375\241\323\362W\233"
  72      4F1A1848 
  72      7F1A35FD 
  72      A1D3F257 
  72      9B
  73 00c9 AC8329AD 		.ascii	"\254\203)\255\215ho\3343\015\234#,\321]\372\020\035"
  73      8D686FDC 
  73      330D9C23 
  73      2CD15DFA 
  73      101D
  74 00db 31CF1132 		.ascii	"1\317\0212\341\247\313\310\016Gx\312\344g\251\2514\""
  74      E1A7CBC8 
  74      0E4778CA 
  74      E467A9A9 
  74      3422
  75 00ed 2E3BD288 		.ascii	".;\322\210\366\307G\223x\200\344\021\231\021\314\231"
  75      F6C74793 
  75      7880E411 
  75      9911CC99 
  76 00fd 088E9B87 		.ascii	"\010\216\233\207\226G( \340\210\252\222\366\370\370"
  76      96472820 
  76      E088AA92 
  76      F6F8F8
  77 010c 77C798A9 		.ascii	"w\307\230\251H\377\356\310\021'\272\243\253\027\026"
  77      48FFEEC8 
  77      1127BAA3 
  77      AB1716
  78 011b 04027099 		.ascii	"\004\002p\231.EG\235[\312\003\265\372'\332l\214\340"
  78      2E45479D 
  78      5BCA03B5 
  78      FA27DA6C 
  78      8CE0
  79 012d 5469B983 		.ascii	"Ti\271\203\334Q\315\261\244\027\354\242\245\233v\266"
  79      DC51CDB1 
  79      A417ECA2 
  79      A59B76B6 
  80 013d A167ADBA 		.ascii	"\241g\255\272n\026x\206\333U\335\251\324J\333\2724\352"
  80      6E167886 
ARM GAS  /tmp/ccIdAxfh.s 			page 6


  80      DB55DDA9 
  80      D44ADBBA 
  80      34EA
  81 014f 4685DBB5 		.ascii	"F\205\333\265\252\004\312\025^rr\213\005bF9\221\263"
  81      AA04CA15 
  81      5E72728B 
  81      05624639 
  81      91B3
  82 0161 2B45C371 		.ascii	"+E\303q\254\354V\246\341X\325/\251H\201#"
  82      ACEC56A6 
  82      E158D52F 
  82      A9488123 
  83              		.text
  84              		.section	.gnu.lto_initialize.part.0.46a1c66df1365aeb,"",%progbits
  85 0000 789C8551 		.ascii	"x\234\205Q\261J\003A\020\2357{\347\235V\251\264\023"
  85      B14A0341 
  85      109D377B 
  85      E79D56A9 
  85      B413
  86 0012 89A5E02F 		.ascii	"\211\245\340/hk\177\001\005\233\343\222b\301K\223\322"
  86      686B7F01 
  86      059BE392 
  86      62C14B93 
  86      D2
  87 0023 227318D1 		.ascii	"\"s\030\3212\215x\215`\020k\353t\371\002\305\316\362"
  87      328D788D 
  87      60106BEB 
  87      74F902C5 
  87      CEF2
  88 0035 7A3F4014 		.ascii	"z?@\024a3{wB\264q`\347\315\274\331\2673\30321\375\265"
  88      61337B77 
  88      42B47160 
  88      E7CDBCD9 
  88      B733C332 
  89 004c 3D3D0310 		.ascii	"==\003\020m)\"$\004\323g\015\002p\215\014\343\261\210"
  89      6D292224 
  89      04D3670D 
  89      02708D0C 
  89      E3B188
  90 005f 0DE00302 		.ascii	"\015\340\003\002\215\0036\030\237\300\213\271K3\221"
  90      8D033618 
  90      9FC08BB9 
  90      4B3391
  91 006e 6975F9F1 		.ascii	"iu\371\361\306\267\262(\356\345\3339\300B\033m\2002"
  91      C6B7B228 
  91      EEE5DB39 
  91      C0421B6D 
  91      8032
  92 0080 D0B12688 		.ascii	"\320\261&\210k`\374\356\334he~Z\312d\341\334A\255\352"
  92      6B60FCEE 
  92      DC68657E 
  92      5ACA64E1 
  92      DC41ADEA 
  93 0094 FCA77A62 		.ascii	"\374\247zb\251\234\373t\261\321$\244\211>\261\223\342"
  93      A99CFB74 
  93      B1D124A4 
  93      893EB193 
ARM GAS  /tmp/ccIdAxfh.s 			page 7


  93      E2
  94 00a5 015D4A31 		.ascii	"\001]J1SO^\257\226\250\367\023'\010<\232\036\270\306"
  94      534F5EAF 
  94      96A8F713 
  94      27083C9A 
  94      1EB8C6
  95 00b8 17BAAADE 		.ascii	"\027\272\252\336/\242\024\217\272-\3219}\311\265t,L"
  95      2FA2148F 
  95      BA2DD139 
  95      7DC9B574 
  95      2C4C
  96 00ca 86A653C3 		.ascii	"\206\246S\303\310\215\366\016rP{\321\263\245\310\\\331"
  96      C88DF60E 
  96      72507BD1 
  96      B3A5C85C 
  96      D9
  97 00db 709B36EF 		.ascii	"p\2336\357\244<\264X[\255\266\232(\007V\330\330\"\316"
  97      A43CB458 
  97      5BADB69A 
  97      280756D8 
  97      D822CE
  98 00ee C12D63B1 		.ascii	"\301-c\261\336l\321\203\251\247y\245\242r\273?\3034"
  98      DE6CD183 
  98      A9A779A5 
  98      A272BB3F 
  98      C334
  99 0100 96E8205A 		.ascii	"\226\350 Z\363_\025\345\251\035\356g\024\366\317\216"
  99      F35F15E5 
  99      A91DEE67 
  99      14F6CF8E 
 100 0110 86361CF5 		.ascii	"\2066\034\365\325\203\226>\210a\001"
 100      D583963E 
 100      886101
 101              		.text
 102              		.section	.gnu.lto_openNewLogfile.part.1.46a1c66df1365aeb,"",%progbits
 103 0000 789CAD92 		.ascii	"x\234\255\222\317KUA\024\307\317w\346\376|\276\362i"
 103      CF4B5541 
 103      14C7CF77 
 103      E6FE7CBE 
 103      F269
 104 0012 2041F090 		.ascii	" A\360\220\"je.\022\267\012\272\017zR\255\342r+\031"
 104      226A652E 
 104      12B70ABA 
 104      0F7A52AD 
 104      E2722B19 
 105 0026 E8DA4208 		.ascii	"\350\332B\010\242\205\223\030>\\\275\245\033)Q\004q"
 105      A2859318 
 105      3E5CBDA5 
 105      1B295104 
 105      71
 106 0037 D1A29560 		.ascii	"\321\242\225``\255\"\250\210\334\270\211\267\311M\377"
 106      60AD22A8 
 106      88DCB889 
 106      B7C94DFF 
 107 0047 4144AF73 		.ascii	"AD\257s\346\336\373\362\211K\007\356\234s\277s\346|"
 107      E6DEFBF2 
 107      894B07EE 
ARM GAS  /tmp/ccIdAxfh.s 			page 8


 107      9C73BF73 
 107      E67C
 108 0059 3FCC8C22 		.ascii	"?\314\214\"E'\307,\177\177X\236\346\210\012!n}\341$"
 108      4527C72C 
 108      7F7F589E 
 108      E6880A21 
 108      6E7DE124 
 109 006d 86725129 		.ascii	"\206rQ)}0D\266\342\355\215\223\255j\204\242\276\210"
 109      7D3044B6 
 109      E2ED8D93 
 109      AD6A84A2 
 109      BE88
 110 007f 3CE537AF 		.ascii	"<\3457\257\261\034\310\\\365K9(\223\020Q\236D\200$\004"
 110      B11CC85C 
 110      F54B3928 
 110      9310519E 
 110      44802404 
 111 0093 5A8895F6 		.ascii	"Z\210\225\366\374 \214\260p\017b\214\313\264n\367[\355"
 111      FC208CB0 
 111      700F628C 
 111      CBB46EF7 
 111      5BED
 112 00a5 9F5BBBB0 		.ascii	"\237[\273\260\257\027[\366o\247\003\003F\254\200R\320"
 112      AF175BF6 
 112      6FA70303 
 112      46AC8052 
 112      D0
 113 00b6 5DFEC17E 		.ascii	"]\376\301~\036\325\305^\3507\312\266;\235\303\235\270"
 113      1ED5C55E 
 113      E837CAB6 
 113      3B9DC39D 
 113      B8
 114 00c7 0FC8648B 		.ascii	"\017\310d\213\201\3262\361\232OK\326\266\206Iz\360h"
 114      81D632F1 
 114      9A4F4BD6 
 114      B686497A 
 114      F068
 115 00d9 F02C080D 		.ascii	"\360,\010\015\304\022\365\014\224\213\037i\351\350\375"
 115      C412F50C 
 115      948B1F69 
 115      E9E8FD
 116 00e8 EE8A2ACA 		.ascii	"\356\212*\312\023\2543\020Q\202\015\370\356\\\000q\366"
 116      13AC3310 
 116      51820DF8 
 116      EE5C0071 
 116      F6
 117 00f9 E263B633 		.ascii	"\342c\2663lp0\244\277\322r{\355e%\301\246+}N\277m\323"
 117      6C7030A4 
 117      BFD2727B 
 117      ED6525C1 
 117      A62B7D4E 
 118 0110 D60CFC14 		.ascii	"\326\014\374\024\316\322)<n\033\004y\337\242T\032\206"
 118      CED2293C 
 118      6E1B0479 
 118      DFA2541A 
 118      86
 119 0121 B7DCF2AA 		.ascii	"\267\334\362\252\265\317\014\242:\325\326\354\352\204"
ARM GAS  /tmp/ccIdAxfh.s 			page 9


 119      B5CF0CA2 
 119      3AD5D6EC 
 119      EA84
 120 012f 61B8A286 		.ascii	"a\270\242\206}\015\337C\341\347\321\336x\216\372\356"
 120      7D0DDF43 
 120      E1E7D1DE 
 120      788EFAEE 
 121 013f 5335AF28 		.ascii	"S5\257(\301\322\0360\237~\\r`\257\316\004\254\257NW"
 121      C1D21E30 
 121      9F7E5C72 
 121      60AFCE04 
 121      ACAF4E57 
 122 0153 72B0EAE9 		.ascii	"r\260\352\351`A\351\267}&~\347\3524\226\373\235?\335"
 122      6041E9B7 
 122      7D267EE7 
 122      EA3496FB 
 122      9D3FDD
 123 0166 2F749726 		.ascii	"/t\227&\206;\323\3459\250\256a\177\012\3255lZ{\307\240"
 123      863BD3E5 
 123      39A8AE61 
 123      7F0AD535 
 123      6C5A7BC7 
 124 017b 96014527 		.ascii	"\226\001E'\021#\203\201\014\252W\031\314\240\217)<\276"
 124      11238381 
 124      0CAA5719 
 124      CCA08F29 
 124      3CBE
 125 018d E324AAC1 		.ascii	"\343$\252\301\005\242\317\364\341W\2617_\274IomS^k\367"
 125      05A2CFF4 
 125      E157B137 
 125      5FBC496F 
 125      6D535E6B 
 126 01a2 022207F8 		.ascii	"\002\"\007\370\215\337\274\240\313C\244C\322\014\031"
 126      8DDFBCA0 
 126      CB43A443 
 126      D20C19
 127 01b1 5E97C707 		.ascii	"^\227\307\007Y\026\3060K\314\334HJ\376\243\271${8\370"
 127      5916C630 
 127      4BCCDC48 
 127      4AFEA3B9 
 127      247B38F8 
 128 01c5 F8C9ECFC 		.ascii	"\370\311\354\374\215\251\311\306\375\321\321\253\017"
 128      8DA9C9C6 
 128      FDD1D1AB 
 128      0F
 129 01d2 46D2F9A7 		.ascii	"F\322\371\2474\360_*\224ZW)\204\177\002}\324\256"
 129      34F05F2A 
 129      945A5729 
 129      847F027D 
 129      D4AE
 130              		.text
 131              		.section	.gnu.lto_initialize.46a1c66df1365aeb,"",%progbits
 132 0000 789C8592 		.ascii	"x\234\205\222Oh\023A\024\306\3377\263\273I\266\215F"
 132      4F681341 
 132      14C6DF37 
 132      B3BB49B6 
 132      8D46
ARM GAS  /tmp/ccIdAxfh.s 			page 10


 133 0012 ABB5FE8B 		.ascii	"\253\265\376\213\241\036z\363*\364\244\240\202^\204"
 133      A11E7AF3 
 133      2AF4A4A0 
 133      825E84
 134 0021 34053D2E 		.ascii	"4\005=.[\221\201n<\264\036\324C'4\221\034{\263\036\212"
 134      5B91816E 
 134      3CB41ED4 
 134      43273491 
 134      1C7BB31E 
 135 0036 2DBD69C1 		.ascii	"-\275i\301\223\007Q\260\322\202\202\320\"zU\026z\020"
 135      930751B0 
 135      D28282D0 
 135      227A5516 
 135      7A10
 136 0048 C1BB5884 		.ascii	"\301\273X\204\370&\223\254\033\023p`wv\336|\363{\337"
 136      F82693AC 
 136      1B137060 
 136      7776DE7C 
 136      F37BDF
 137 005b CE7B8204 		.ascii	"\316{\202\004\375;\256\361\263\"\211&yF\206 \226v\210"
 137      FD3BAEF1 
 137      B3228926 
 137      79468620 
 137      967688
 138 006e 6A592164 		.ascii	"jY!ds\202\264\357\232\367\260\024\316\347Q^y\257\317"
 138      7382B4EF 
 138      9AF7B014 
 138      CEE7515E 
 138      79AFCF
 139 0081 F3CA8167 		.ascii	"\363\312\201gDp\355\\\313z\200\371 \320\202\220\216"
 139      4470ED5C 
 139      CB7A80F9 
 139      20D08290 
 139      8E
 140 0092 EB61E126 		.ascii	"\353a\341&\014\033\343\264\246\365R\334\370\031\343"
 140      0C1BE3B4 
 140      A6F552DC 
 140      F819E3
 141 00a1 91DEACAD 		.ascii	"\221\336\254\255\352\337\255\026\240\300>|P\010\272"
 141      EADFAD16 
 141      A0C03E7C 
 141      5008BA
 142 00b0 C10B64DB 		.ascii	"\301\013d\333\223@\257\261\347b3n\2656^\324\367\317"
 142      9340AFB1 
 142      E762336E 
 142      B5365ED4 
 142      F7CF
 143 00c2 147C0AB0 		.ascii	"\024|\012\260\306\264<)\260Wr\251\316\334\222\015\222"
 143      C6B43C29 
 143      B05772A9 
 143      CEDC920D 
 143      92
 144 00d3 01F1A8F0 		.ascii	"\001\361\250\360\333\330\230\2060\263\334\245\305\370"
 144      DBD89886 
 144      30B3DCA5 
 144      C5F8
 145 00e1 D96226C0 		.ascii	"\331b&\300:\\\336~@\373\272\251\013\012N\010\233J\231"
ARM GAS  /tmp/ccIdAxfh.s 			page 11


 145      3A5CDE7E 
 145      40FBBAA9 
 145      0B0A4E08 
 145      9B4A99
 146 00f4 B8516D6C 		.ascii	"\270Qml\015T\211\036\325\352K9H$\323\242z\374a\275\037"
 146      0D54891E 
 146      D5EA4B39 
 146      4824D3A2 
 146      7AFC61BD 
 147 0109 E58570DA 		.ascii	"\345\205p\332*\023\311*d\"PG\244\370\347\371\\#\336"
 147      2A13C92A 
 147      64225047 
 147      A4F8E7F9 
 147      5C23DE
 148 011c 19603417 		.ascii	"\031`4\027\266\327\3119?\002:\"\253\321w\025\206\"\210"
 148      B6D7C939 
 148      3F023A22 
 148      ABD17715 
 148      862288
 149 012f 04366C61 		.ascii	"\0046la\273\003L\344Cx\011\214\217>A\037pY\353W\034"
 149      BB034CE4 
 149      4378098C 
 149      8F3E411F 
 149      7059EB57 
 150 0144 3D50A4C2 		.ascii	"=P\244\302\212^\276\240p\360\257\315\202!?\214\277\354"
 150      8A5EBEA0 
 150      70F0AFCD 
 150      82213F8C 
 150      BFEC
 151 0156 7936741B 		.ascii	"y6t\033~\202>\024r\343\244\320\367\024\016G\220)2\233"
 151      7E823E14 
 151      72E3A4D0 
 151      F7140E47 
 151      9029329B 
 152 016a 1F89E0F4 		.ascii	"\037\211\340\364FR\331\025\216\330\353\373\272\216>"
 152      4652D915 
 152      8ED8EBFB 
 152      BA8E3E
 153 0179 E7474373 		.ascii	"\347GCsI<L\227\214n\217\260\372\030\321{\332\376\366"
 153      493C4C97 
 153      8C6E8FB0 
 153      FA18D17B 
 153      DAFEF6
 154 018c F6CD3B99 		.ascii	"\366\315;\231\3301\273c\351\006\232\346\3324'\244\301"
 154      D831BB63 
 154      E9069AE6 
 154      DA3427A4 
 154      C1
 155 019d 7EDFF3BB 		.ascii	"~\337\363\273\272|\302=\036\"\227\276\336\224g\205\023"
 155      BA7CC23D 
 155      1E2297BE 
 155      DE946785 
 155      13
 156 01ae 2643FD47 		.ascii	"&C\375G-\227\2343|\331\313w\350\351\220i\263l\237\347"
 156      2D979C33 
 156      7CD9CB77 
 156      E8E99069 
ARM GAS  /tmp/ccIdAxfh.s 			page 12


 156      B36C9FE7 
 157 01c2 9321FC4E 		.ascii	"\223!\374Nc\234\352\252]\353\246\021\377\332\362\376"
 157      639CEAAA 
 157      5DEBA611 
 157      FFDAF2FE 
 158 01d2 5B9EC703 		.ascii	"[\236\307\003\313\363\211\243\247\2134f\313S\354)\217"
 158      CBF389A3 
 158      A78B3466 
 158      CB53EC29 
 158      8F
 159 01e3 4DE2B55B 		.ascii	"M\342\265[\377#\325\342\326\331n\022;*\334\365\274g"
 159      FF23D5E2 
 159      D6D96E12 
 159      3B2ADCF5 
 159      BC67
 160 01f5 9A3A1305 		.ascii	"\232:\023\005\252z.$wn\346jUe\246*\027\313\025\237\306"
 160      AA7A2E24 
 160      776EE66A 
 160      5565A62A 
 160      17CB159F 
 161 020a FDCBE5F2 		.ascii	"\375\313\345\362\365\362di\352R\211\303\363*\230U\367"
 161      F5F26469 
 161      EA5289C3 
 161      F32A9855 
 161      F7
 162 021b 837975A7 		.ascii	"\203yu\247Z\272\022\250\331[3>\375\001-C\366\032"
 162      5ABA12A8 
 162      D95B333E 
 162      FD012D43 
 162      F61A
 163              		.text
 164              		.section	.gnu.lto_openNewLogfile.46a1c66df1365aeb,"",%progbits
 165 0000 789C5D50 		.ascii	"x\234]P=K\003A\020}ov\217\234\"h!\201t\251#\010\001"
 165      3D4B0341 
 165      107D6F76 
 165      8F9C2268 
 165      218174A9 
 166 0017 7F8A012D 		.ascii	"\177\212\001-\343\025\341\212\363\017\244\310\236\\"
 166      E315E18A 
 166      F30FA4C8 
 166      9E5C
 167 0025 6199DA34 		.ascii	"a\231\3324\332XI\264\264\264\024A%\205\205ba\2212\277"
 167      DA5849B4 
 167      B4B41441 
 167      25858562 
 167      619132BF 
 168 0039 C0269959 		.ascii	"\300&\231Y\022#Y\330\231\331\235\367\336|\010\004\233"
 168      122359D8 
 168      99D99DF7 
 168      DE7C0804 
 168      9B
 169 004a A7ADB74E 		.ascii	"\247\255\267N`K=\023P\206o@\231\212\270i\003a\307\337"
 169      604B3D13 
 169      50866F40 
 169      998AB869 
 169      0361C7DF 
 170 005e 1D216C3B 		.ascii	"\035!l;z\373\246'\315\203\030\210\363\034\2342j\334"
ARM GAS  /tmp/ccIdAxfh.s 			page 13


 170      7AFBA627 
 170      CD831888 
 170      F31C9C32 
 170      6ADC
 171 0070 CBD3CF7C 		.ascii	"\313\323\317|>~x\271\036SR\"\247\026R\343\3250a\021"
 171      3E7E78B9 
 171      1E535222 
 171      A71652E3 
 171      D5306111 
 172 0084 5109AA10 		.ascii	"Q\011\252\020\206M \213\317c\265\246\325\241\230w\257"
 172      864D208B 
 172      CF63B5A6 
 172      D5A19877 
 172      AF
 173 0095 B8F87ABC 		.ascii	"\270\370z\274\235H\2277\332F\217\376\000-e\217pU\206"
 173      9D489737 
 173      DA468FFE 
 173      002D658F 
 173      705586
 174 00a8 B09753FA 		.ascii	"\260\227S\372\370\015\227\026\271\202\246pB\015c\371"
 174      F80D9716 
 174      B982A670 
 174      420D63F9 
 175 00b8 33AE8679 		.ascii	"3\256\206yF5+w\377$\014\302\377\303v\2241m\270wT\351"
 175      46352B77 
 175      FF240CC2 
 175      FFC37694 
 175      316DB877 
 176 00ce 0AB4D6F5 		.ascii	"\012\264\326\365\331\022\334c\222kn\311\360\261\275"
 176      D912DC63 
 176      926B6EC9 
 176      F0B1BD
 177 00dd 89EEC432 		.ascii	"\211\356\3042\021\361\011*\321\321\364uR\371\376\330"
 177      11F1092A 
 177      D1D1F475 
 177      52F9FED8 
 178 00ed B7816848 		.ascii	"\267\201hH\333p\255\350\346\347\207\031\026>TA\001"
 178      DB70ADE8 
 178      E6E78719 
 178      163E5441 
 178      01
 179              		.text
 180              		.section	.gnu.lto_closeLog.46a1c66df1365aeb,"",%progbits
 181 0000 789C6362 		.ascii	"x\234cb`b@\007\222@<\031\2109\201\230\221\231\201\221"
 181      60624007 
 181      92403C19 
 181      88398198 
 181      91998191 
 182 0014 69C23906 		.ascii	"i\3029\006\206F\016&FF\020\203\201\221\241\236\211\261"
 182      86460E26 
 182      46461083 
 182      8191A19E 
 182      89B1
 183 0026 3E9211AC 		.ascii	">\222\021\254v=\323\201\007\377\377\257\373qj\301~F"
 183      763DD381 
 183      07FFFFAF 
 183      FB716AC1 
ARM GAS  /tmp/ccIdAxfh.s 			page 14


 183      7E46
 184 0038 2666A000 		.ascii	"&f\240\000+CKC\303\004\005\006\206d\260\202\020 \011"
 184      2B434B43 
 184      C3040506 
 184      8664B082 
 184      102009
 185 004b D215CAC8 		.ascii	"\322\025\312\310\004\242\231\3173\264<\330\273\224+"
 185      04A299CF 
 185      33B43CD8 
 185      BB942B
 186 005a 91712123 		.ascii	"\221q!#+P\272\232\341WCG\203@&#P9\304@\220\010G&#c."
 186      2B50BA9A 
 186      E1574347 
 186      83402623 
 186      5039C440 
 187 0075 23035451 		.ascii	"#\003TQ&P+\303E\206\306\007\373\2262B\204\"\0303\031"
 187      26502BC3 
 187      4586C607 
 187      FB963242 
 187      84221833 
 188 008a 9961AE0D 		.ascii	"\231a\256\015\001j\004\232\014\362\006{nbf\236^2\003"
 188      016A049A 
 188      0CF2067B 
 188      6E62669E 
 188      5E3203
 189 009d 00EDB729 		.ascii	"\000\355\267)\272"
 189      BA
 190              		.text
 191              		.section	.gnu.lto_printGps.46a1c66df1365aeb,"",%progbits
 192 0000 789C8D91 		.ascii	"x\234\215\221\255O\003A\020\305\337\333\273\353\227"
 192      AD4F0341 
 192      10C5DFDB 
 192      BBEB97
 193 000f C262A0A6 		.ascii	"\302b\240\246\206\022\024\012E\005!$\005\004G\000Y*"
 193      8612140A 
 193      45052124 
 193      05044700 
 193      592A
 194 0021 9A15C580 		.ascii	"\232\025\305\200\242\242[@ \253\010)!\200E\300\237\000"
 194      A2A25B40 
 194      20AB0829 
 194      218045C0 
 194      9F00
 195 0033 9E004156 		.ascii	"\236\000AV4i\202@@\202\257)\263{%G.\210Nr3\273ow~3s"
 195      34698240 
 195      4082AF29 
 195      B37B2547 
 195      2E884E72 
 196 004e ABA090B4 		.ascii	"\253\240\220\264I\371\212\"\317K\244\007\252\366\013"
 196      49F98A22 
 196      CF4BA407 
 196      AAF60B
 197 005d D0CA28D2 		.ascii	"\320\312(\322.@4\025\233;tw\357\325c\1778\274\353<]"
 197      2E403415 
 197      9B3B7477 
 197      EFD5637F 
 197      38BCEB3C 
ARM GAS  /tmp/ccIdAxfh.s 			page 15


 198 0072 F7A8B264 		.ascii	"\367\250\262d\235\002\324\204'\216\276u\201\335\246"
 198      9D02D484 
 198      278EBE75 
 198      81DDA6
 199 0081 AC130B70 		.ascii	"\254\023\013pbL;\017T\3356\024o\231\233T6z\3178\032"
 199      624C3B0F 
 199      54DD3614 
 199      6F999B54 
 199      367ACF38 
 200 0096 1C3F9C4D 		.ascii	"\034?\234MWx#y5\252\006\016%\261\210[#\266\245\251."
 200      57782379 
 200      35AA060E 
 200      25B1885B 
 200      23B6A5A9 
 201 00ab D0A1A657 		.ascii	"\320\241\246W#\267%\372\256\207]\376i\336!\336c\204"
 201      23B725FA 
 201      AE875DFE 
 201      69DE21DE 
 201      6384
 202 00bd E7108C11 		.ascii	"\347\020\214\021\301\377\010&\020\0371\302\037\023\241"
 202      C1FF0826 
 202      101F31C2 
 202      1F13A1
 203 00cc 1288CF18 		.ascii	"\022\210\317\030\021\2149\210\227@|\307\210\324\230"
 203      118C3988 
 203      97407CC7 
 203      88D498
 204 00db 083F46BC 		.ascii	"\010?F\274\242c\276\272\007\021\001h``N\315\204f\252"
 204      A263BEBA 
 204      07110168 
 204      60604ECD 
 204      8466AA
 205 00ee 3A1A3752 		.ascii	":\0327R\314\225\244\247\353\344\350\242U\317\215\351"
 205      CC95A4A7 
 205      EBE4E8A2 
 205      55CF8DE9 
 206 00fe 8A9A9942 		.ascii	"\212\232\231B\356\322\234/jf1:\225W\251\331\242\276"
 206      EED29C2F 
 206      6A66313A 
 206      9557A9D9 
 206      A2BE
 207 0110 4C255D69 		.ascii	"L%]i\346\2007\264\372\275\302o\235\310B\251!oj\177J"
 207      E68037B4 
 207      FABDC26F 
 207      9DC842A9 
 207      216F6A7F 
 208 0125 BA5ED17B 		.ascii	"\272^\321{sU\314\204+\253K\013\205\375\331|\271\024"
 208      7355CC84 
 208      2BAB4B0B 
 208      85FDD97C 
 208      B914
 209 0137 46717D6D 		.ascii	"Fq}m\331-J\345H\330p\0079\374\000\264\336\210\247"
 209      D92D4AE5 
 209      48D87007 
 209      39FC00B4 
 209      DE88A7
 210              		.text
ARM GAS  /tmp/ccIdAxfh.s 			page 16


 211              		.section	.gnu.lto_writeHeader.46a1c66df1365aeb,"",%progbits
 212 0000 789C8551 		.ascii	"x\234\205Q\275K\303@\024\177\357\222\230\266~\342\326"
 212      BD4BC340 
 212      147FEF92 
 212      98B67EE2 
 212      D6
 213 0011 412805D7 		.ascii	"A(\005\327\352\340\340*\030\350\240K\211`')\241\310"
 213      EAE0E02A 
 213      18E8A04B 
 213      89602729 
 213      A1C8
 214 0023 415B7070 		.ascii	"A[ppr\350\265\026-\250\020D\020\355\322\"\342\350\340"
 214      72E8B516 
 214      2DA81044 
 214      10EDD222 
 214      E2E8E0
 215 0036 E8602838 		.ascii	"\350`(8\024\277p\023\244\320\275\377\201\210\361]\322"
 215      14BF7013 
 215      A4D0BDFF 
 215      8188F15D 
 215      D2
 216 0047 D45A071F 		.ascii	"\324Z\007\037\344\336\345\336\357\343\335;\006\014\206"
 216      E4DEE5DE 
 216      EFE3DD3B 
 216      060C86
 217 0056 234ADF22 		.ascii	"#J\337\"\035\317RF\005\220\331\317\000\245\020C\224"
 217      1DCF5246 
 217      0590D9CF 
 217      00A51043 
 217      94
 218 0067 1B402832 		.ascii	"\033@(2,\246QB\22584\2048\356\334\337\266\224\263\023"
 218      2CA65142 
 218      95383484 
 218      38EEDCDF 
 218      B694B313 
 219 007b A752179F 		.ascii	"\247R\027\237\256\213\310\221d#\010\026\302:\375`\314"
 219      AE8BC891 
 219      64230816 
 219      C23AFD60 
 219      CC
 220 008c 4B4CFDED 		.ascii	"KL\375\355#\271\216\355\274\037\034\241\250\227m\361"
 220      23B98EED 
 220      BC1F1CA1 
 220      A8976DF1 
 221 009c 45548E0A 		.ascii	"ET\216\012\203\231\037\246\243\372\324\344_\252\260"
 221      83991FA6 
 221      A3FAD4E4 
 221      5FAAB0
 222 00ab 9DF6C361 		.ascii	"\235\366\303at\200\2522\210\377gz\315\234\216\353>\266"
 222      7480AA32 
 222      88FF677A 
 222      CD9C8EEB 
 222      3EB6
 223 00bd 2BCDB930 		.ascii	"+\315\2710\203\01460\016*\345K\312\032p\324tZF\010\250"
 223      830C3630 
 223      0E2AE54B 
 223      CA1A70D4 
ARM GAS  /tmp/ccIdAxfh.s 			page 17


 223      745A4608 
 224 00d2 41852C62 		.ascii	"A\205,b\031\274\240\212_\007\251Ma\322*G\261\206Lf\345"
 224      19BCA08A 
 224      5F07A94D 
 224      61D22A47 
 224      B1864C66 
 225 00e7 09CAAD37 		.ascii	"\011\312\2557\232@\006\257P\203Md58/\0111Ec\330\201"
 225      9A4006AF 
 225      50834D64 
 225      35382F09 
 225      314563D8 
 226 00fc 0F51953B 		.ascii	"\017Q\225;=\357QeKz\257\225\027\330s\242\001G\355#C"
 226      3DEF5165 
 226      4B7AAF95 
 226      17D873A2 
 226      0147ED23 
 227 0111 167A508F 		.ascii	"\026zP\217K\261\3151\034t!\261\236F$)}8\216\002\220"
 227      4BB1CD31 
 227      1C7421B1 
 227      9E462429 
 227      7D388E02 
 228 0126 7B77F7EE 		.ascii	"{w\367\356t1P\322HL\212\357;Zp\244\367\305\307,d}\361"
 228      743150D2 
 228      484C8AEF 
 228      3B5A70A4 
 228      F7C5C72C 
 229 013d AA105B1C 		.ascii	"\252\020[\034\307\363\210=\345\236c\015\207-IU\272N"
 229      C7F3883D 
 229      E59E630D 
 229      872D4955 
 229      BA4E
 230 014f 000D6752 		.ascii	"\000\015gRZ6\273\314/\371\260\005\270\021U\371x\244"
 230      5A36BBCC 
 230      2FF9B005 
 230      B81155F9 
 230      78A4
 231 0161 FC0AA501 		.ascii	"\374\012\245\001g\377\252&]\211&%\255\365|\206\027\022"
 231      67FFAA26 
 231      5D892625 
 231      ADF57C86 
 231      1712
 232 0173 164C9BC6 		.ascii	"\026L\233\306\212\261j\230\251\364F\322XZ6R\211y5\307"
 232      8AB16A98 
 232      A9F446D2 
 232      585A3652 
 232      897935C7 
 233 0187 0B592597 		.ascii	"\013Y%\227-|\003*\255\223\261"
 233      2D7C032A 
 233      AD93B1
 234              		.text
 235              		.section	.gnu.lto_main.46a1c66df1365aeb,"",%progbits
 236 0000 789C8D52 		.ascii	"x\234\215R\273N\033A\024\275gf\275v\034\023l \212Ra"
 236      BB4E1B41 
 236      14BD6766 
 236      BD761C13 
 236      6C208A52 
 237 0015 B90E7C43 		.ascii	"\271\016|CR\221\017\260\245P\240\260\032\244d$\300\221"
ARM GAS  /tmp/ccIdAxfh.s 			page 18


 237      52910FB0 
 237      A550A0B0 
 237      1AA46424 
 237      C091
 238 0027 42450A86 		.ascii	"BE\012\206`\011\323\271\211\004R$l\241\310<\012Z\002"
 238      6009D3B9 
 238      89045224 
 238      6CA1C83C 
 238      0A5A02
 239 003a 8D1B8A34 		.ascii	"\215\033\2124v\213h\260\"E44iRD\340\315\214g\261C\274"
 239      768B68B0 
 239      22453434 
 239      695244E0 
 239      CD8C67B1 
 240 0050 D172A59D 		.ascii	"\321r\245\235\307\335s\346\236\373`\304\350_\233\320"
 240      C7DD73E6 
 240      9EFB60C4 
 240      E85F9BD0 
 241 0060 DF674EF4 		.ascii	"\337gN\364T\357\210\021X\245I\264\232`\340\366\300\341"
 241      54EF8811 
 241      58A549B4 
 241      9A60E0F6 
 241      C0E1
 242 0072 D883633D 		.ascii	"\330\203c=/@+\214;X\231\206\241\263\034\325T\243\322"
 242      2F402B8C 
 242      3B589986 
 242      A1B31CD5 
 242      54A3D2
 243 0085 3EFDFE8D 		.ascii	">\375\376\215\255\252F\251\252\256}\037\220\320\241"
 243      ADAA46A9 
 243      AAAE7D1F 
 243      90D0A1
 244 0094 9220017A 		.ascii	"\222 \001z\245/\310v7\346\334\215m\271\215\257\315O"
 244      A52FC876 
 244      37E6DC8D 
 244      6DB98DAF 
 244      CD4F
 245 00a6 50D58F15 		.ascii	"P\325\217\025\325\321T\011\316(\323g*\327Rg\357R\017"
 245      D5D15409 
 245      CE28D367 
 245      2AD75267 
 245      EF520F
 246 00b9 59A3EDFB 		.ascii	"Y\243\355\373W\027\245\363\227\031}\215QI\251J\326C"
 246      5717A5F3 
 246      97197D8D 
 246      5149A94A 
 246      D643
 247 00cb 0D39F2B0 		.ascii	"\0159\362\260\243W2Oh\313\353\025T\000#\360\026\255"
 247      A357324F 
 247      68CBEB15 
 247      540023F0 
 247      16AD
 248 00dd B5FD1F71 		.ascii	"\265\375\037q\017_t\252D\037\350\267*\253\264\204#\320"
 248      0F5F74AA 
 248      441FE8B7 
 248      2AABB484 
 248      23D0
ARM GAS  /tmp/ccIdAxfh.s 			page 19


 249 00ef C59234FE 		.ascii	"\305\2224\376\026m\252\253\237G\030\200\271\002\266"
 249      166DAAAB 
 249      9F471880 
 249      B902B6
 250 00fe 80D6A35E 		.ascii	"\200\326\243^K\304\027@\001\316\310L\234\245\272\373"
 250      4BC41740 
 250      01CEC84C 
 250      9CA5BAFB 
 251 010e 83E7B798 		.ascii	"\203\347\267\230\031\211\244\000\0170\306\251m\313\225"
 251      1989A400 
 251      0F30C6A9 
 251      6DCB95
 252 011d 78782BB6 		.ascii	"xx+\266\373C\"e\002\227\332\333\227\311\201\270C\002"
 252      FB432265 
 252      0297DADB 
 252      97C981B8 
 252      4302
 253 012f B672E6E9 		.ascii	"\266r\346\351G\320\340a\013\336]\017\005\307B\301{\365"
 253      47D0E061 
 253      0BDE5D0F 
 253      05C742C1 
 253      7BF5
 254 0141 C18CD202 		.ascii	"\301\214\322\002n\017\2349z\242\321#\026\275\037\251"
 254      6E0F9C39 
 254      7AA2D123 
 254      16BD1FA9 
 255 0151 83FA4F1F 		.ascii	"\203\372O\037D\352\010\300\306\012\340\244'\211\033"
 255      44EA08C0 
 255      C60AE0A4 
 255      27891B
 256 0160 E2717DB0 		.ascii	"\342q}\260\031\377M\340$$\312\250@<h\311\262\304\230"
 256      19FF4DE0 
 256      2424CAA8 
 256      403C68C9 
 256      B2C498
 257 0173 6D7DAFA6 		.ascii	"m}\257\246\217-\361z*\"\361\352x?\361\233\360\\\302"
 257      8F2DF17A 
 257      2A22F1EA 
 257      783FF19B 
 257      F05CC2
 258 0186 1BD089D4 		.ascii	"\033\320\211\324\377W\225\374(\031\277\236\365e\224"
 258      FF5795FC 
 258      2819BF9E 
 258      F56594
 259 0195 37EE597F 		.ascii	"7\356Y\177;\343\216))\362\301\030S|\301\223\213\223"
 259      3BE38E29 
 259      29F2C118 
 259      537CC193 
 259      8B93
 260 01a7 82DC37EF 		.ascii	"\202\3347\357\336\347\337\316%\346\213\302[\222\305"
 260      DEE7DFCE 
 260      25E68BC2 
 260      5B92C5
 261 01b6 C53F14A6 		.ascii	"\305?\024\246\344n"
 261      E46E
 262              		.text
 263              		.section	.gnu.lto_.symbol_nodes.46a1c66df1365aeb,"",%progbits
ARM GAS  /tmp/ccIdAxfh.s 			page 20


 264 0000 789C4D8F 		.ascii	"x\234M\217\315R\023A\024\205o\237N\223F\2018\312O \240"
 264      CD521341 
 264      14856F9F 
 264      4E934681 
 264      38CA4F20 
 265 0015 F803BAB0 		.ascii	"\370\003\272\260|'\037\301'8\201\321$\212(\010\370\017"
 265      7C271FC1 
 265      273881D1 
 265      248A2808 
 265      F80F
 266 0027 08E30F0B 		.ascii	"\010\343\017\013}\001\227\246\312r\345\312r\255\306"
 266      7D0197A6 
 266      CA72E5CA 
 266      72ADC6
 267 0036 854FE052 		.ascii	"\205O\340R\355\236\036\274\231\315\351\357\234s\357"
 267      ED9E1EBC 
 267      99CDE9EF 
 267      9C73EF
 268 0045 AD8140AE 		.ascii	"\255\201@\256XI\037\376\032\032\331\370,B\256\367\256"
 268      58491FFE 
 268      1A1AD9F8 
 268      2C42AEF7 
 268      AE
 269 0056 E30D880A 		.ascii	"\343\015\210\012w{\306\335\202\324h\335M\230(\017\001"
 269      777BC6DD 
 269      82D468DD 
 269      4D98280F 
 269      01
 270 0067 A1E008B4 		.ascii	"\241\340\010\264C\235\016l\014\273\250\271\020\336\001"
 270      439D0E6C 
 270      0CBBA8B9 
 270      10DE01
 271 0076 6B55B817 		.ascii	"kU\270\027\302m\324\303\210\273\215\221\330\351\301"
 271      C26DD4C3 
 271      88BB8D91 
 271      D8E9C1
 272 0085 C5CE1AE8 		.ascii	"\305\316\032\350\264\203\273\340\310\020\256\203\365"
 272      B483BBE0 
 272      C810AE83 
 272      F5
 273 0092 21BC07FA 		.ascii	"!\274\007\372\241\205m\214\206M\270\017\216\036\273"
 273      A1856D8C 
 273      864DB80F 
 273      8E1EBB
 274 00a1 9FE056E0 		.ascii	"\237\340V\340\203k\012P\222\333^1f\027<QQ\333\230\347"
 274      836B0A50 
 274      92DB5E31 
 274      66173C51 
 274      51DB98E7 
 275 00b5 E049A567 		.ascii	"\340I\245g\340\230\322Sp\\i\017\234P\332\007\033JO\300"
 275      E098D253 
 275      705C690F 
 275      9C50DA07 
 275      1B4A4FC0 
 276 00c9 534A8FC1 		.ascii	"SJ\217\301L\351\021xZi\007<\243\264\005N*=\000\247\224"
 276      4CE91178 
 276      5A69073C 
ARM GAS  /tmp/ccIdAxfh.s 			page 21


 276      A3B4054E 
 276      2A3D00A7 
 277 00de 36C169A5 		.ascii	"6\301i\245\015pF\351\005\330T:\000g\225^\202sJ\257\300"
 277      0D7046E9 
 277      05D8543A 
 277      0067955E 
 277      82734AAF 
 278 00f3 96D26B70 		.ascii	"\226\322kp^\351\020\\\370OV\246%\377\366'\350\224\024"
 278      5EE9105C 
 278      F84F56A6 
 278      25FFF627 
 278      E89414
 279 0106 A54E4A3F 		.ascii	"\245NJ?\252\231I\276\233\225\342{\324\246\344\357\256"
 279      AA9949BE 
 279      9B95E27B 
 279      D4A6E4EF 
 279      AE
 280 0117 4519BC2D 		.ascii	"E\031\274-\2458Z\266\376|*\371\3054\354\317\245a\177"
 280      A5385AB6 
 280      FE7C2AF9 
 280      C534ECCF 
 280      A5617F
 281 012a 5606A52E 		.ascii	"V\006\245.H\036\207\275\310a\251\363\322/\265%\203R"
 281      481E87BD 
 281      C861A9F3 
 281      D22FB525 
 281      8352
 282 013c E7A4E8FC 		.ascii	"\347\244\350\374\256[o\344\307\307/\210\275\325n\340"
 282      AE5B6FE4 
 282      C7C72F88 
 282      BDD56EE0 
 283 014c 31271F7E 		.ascii	"1'\037~]\265\343\027\322\372\211j\274\321Lg\032\027"
 283      5DB5E317 
 283      D2FA896A 
 283      BCD14C67 
 283      1A17
 284 015e D3FACCCB 		.ascii	"\323\372\314\313j\251\227\223\237]J\347\263\245*o\245"
 284      6AA99793 
 284      9F5D4AE7 
 284      B3A52A6F 
 284      A5
 285 016f F3C12FFF 		.ascii	"\363\301/\377!\370\375J\007\007_\327\3526[\226\274\363"
 285      21F8FD4A 
 285      07075FD7 
 285      EA365B96 
 285      BCF3
 286 0181 F3FD8DD8 		.ascii	"\363\375\215\330,\322#\254H\217\3209\216\362n\025\025"
 286      2CD223AC 
 286      488FD039 
 286      8EF26E15 
 286      15
 287 0192 F121FF00 		.ascii	"\361!\377\000\244|\361\024"
 287      A47CF114 
 288              		.text
 289              		.section	.gnu.lto_.refs.46a1c66df1365aeb,"",%progbits
 290 0000 789C258A 		.ascii	"x\234%\212\211\015\200@\014\303R\267\024\216\357x\346"
 290      890D8040 
ARM GAS  /tmp/ccIdAxfh.s 			page 22


 290      0CC352B7 
 290      148EEF78 
 290      E6
 291 0011 61FFB5A8 		.ascii	"a\377\265\250 R\254X\012B\217\376\270\001N\370@\326"
 291      2052AC58 
 291      0A428FFE 
 291      B8014EF8 
 291      40D6
 292 0023 1ADB4423 		.ascii	"\032\333D#\230\253\316\3621lU\332F\332^\336u\324\363"
 292      98ABCEF2 
 292      316C55DA 
 292      46DA5EDE 
 292      75D4F3
 293 0036 E4E2D60B 		.ascii	"\344\342\326\013/\212\001l"
 293      2F8A016C 
 294              		.text
 295              		.section	.gnu.lto_.decls.46a1c66df1365aeb,"",%progbits
 296 0000 789CBD7D 		.ascii	"x\234\275}\011t\024U\366wU\365\036\"\240\343\002\016"
 296      09741455 
 296      F67755F5 
 296      1E22A0E3 
 296      020E
 297 0012 6A74743E 		.ascii	"jtt>g\2061\200\214:\363\377\217\212lr\006\224/\211\333"
 297      67863180 
 297      8C3AF3FF 
 297      8F8A6C72 
 297      06942F89 
 298 0027 7CFF7362 		.ascii	"|\377sb\223t \177\263\321\335a\231\377w\216\005\201"
 298      9374207F 
 298      B3D1DD61 
 298      99FF778E 
 298      0581
 299 0039 00821259 		.ascii	"\000\202\022Y\303\036\020\020T\020\310\260\204\265\001"
 299      C31E1010 
 299      5410C8B0 
 299      84B501
 300 0048 6517C222 		.ascii	"e\027\302\"\213l\001\0276Q$\204\260\010\371\356\273"
 300      8B6C0117 
 300      36512484 
 300      B008F9EE 
 300      BB
 301 0059 AFAAFB55 		.ascii	"\257\252\373UuU\365\253v\346\353s\352\326\353\352z\277"
 301      7555F5AB 
 301      76E6EB73 
 301      EAD6EBEA 
 301      7ABF
 302 006b 77DFBDF7 		.ascii	"w\337\275\367\335w\337\253W\257%A\022J\\\202\320\004"
 302      DD77DFAB 
 302      57AF2541 
 302      124A5C82 
 302      D004
 303 007d 9FD4D582 		.ascii	"\237\324\325\202\260\340W\202\220\"\010\302\263p<\004"
 303      B0E05782 
 303      902208C2 
 303      B3703C04 
 304 008d 87138ED9 		.ascii	"\207\023\216\331p\354\221\004\241\026\216\217 \275\017"
 304      70EC9104 
ARM GAS  /tmp/ccIdAxfh.s 			page 23


 304      A1168E8F 
 304      20BD0F
 305 009c CEA7E078 		.ascii	"\316\247\340x\333!\0102\034C\341(\203c8\034\345p\214"
 305      DB210832 
 305      1C43E128 
 305      8363381C 
 305      E5708C
 306 00af 8463221C 		.ascii	"\204c\"\034+\341X\005\207\007\362,\203c5\244\327\300"
 306      2BE15805 
 306      8707F22C 
 306      836335A4 
 306      D7C0
 307 00c1 B10E8E1D 		.ascii	"\261\016\216\035p\374\001\300\333\302\261\021~{\002"
 307      70FC01C0 
 307      DBC2B111 
 307      7E7B02
 308 00d0 CEC08630 		.ascii	"\316\300\2060Q\024\204+\200}\003\316\344\363 \034\177"
 308      5114842B 
 308      807D03CE 
 308      E4F3201C 
 308      7F
 309 00e1 81DFFE13 		.ascii	"\201\337\376\023\216W\341\370;\034}\341x\013\216\376"
 309      8E57E1F8 
 309      3B1C7DE1 
 309      780B8EFE 
 310 00f1 7094C231 		.ascii	"p\224\3021\026\216qpL\204c\022\034s\341\230\007\307"
 310      168E7170 
 310      4C846312 
 310      1C73E198 
 310      07C7
 311 0103 27702C83 		.ascii	"'p,\203\243\006\216u\244\0348\266\302\261\033\216}p"
 311      A3068E75 
 311      A41C38B6 
 311      C2B11B8E 
 311      7D70
 312 0115 1C80E320 		.ascii	"\034\200\343 \034\207\3418\006\307\327p\234\201\343"
 312      1C87E138 
 312      06C7D770 
 312      9C81E3
 313 0124 1C1C179C 		.ascii	"\034\034\027\234T\016W\341\334\010\307u8n\302q\013\216"
 313      540E57E1 
 313      DC08C775 
 313      386EC271 
 313      0B8E
 314 0136 26384460 		.ascii	"&8D`\326\011\207\033\016\257K\320|\010\257\315\340<"
 314      D609871B 
 314      0EAF4BD0 
 314      7C08AFCD 
 314      E03C
 315 0148 0DCECDE1 		.ascii	"\015\316\315\341\234\252\310\261\005\334\367+8Z\302"
 315      9CAAC8B1 
 315      05DCF72B 
 315      385AC2
 316 0157 71371C93 		.ascii	"q7\034\223\341\342=p\276W\311\357T\362\316U\352A\352"
 316      E1E23D70 
 316      BE57C9EF 
 316      54F2CE55 
ARM GAS  /tmp/ccIdAxfh.s 			page 24


 316      EA41EA
 317 016a 03A210FE 		.ascii	"\003\242\020\3767\2343\235\3322^U\370\373/\246\214V"
 317      379C339D 
 317      DA325E55 
 317      F8FB2FA6 
 317      8C56
 318 017c 2E635DCD 		.ascii	".c]\315W\362JJ>\"\033\207\256n\354\207\310\370n8\017"
 318      57F24A4A 
 318      3E221B87 
 318      AE6EEC87 
 318      C8F86E38 
 319 0191 65B04939 		.ascii	"e\260I9D'\255\241\214\373]Z\375/r\306\333\300\257]\324"
 319      4427ADA1 
 319      8CFB5D5A 
 319      FD2F72C6 
 319      DBC0AF5D 
 320 01a6 0E083FC4 		.ascii	"\016\010?\304\026\252\2252\034\012\276\252\033r9W\221"
 320      16AA9532 
 320      1C0ABEAA 
 320      1B723957 
 320      91
 321 01b7 ED5545BE 		.ascii	"\355UE\276\354\207\350\372!]=\211\275\264\001\374~p"
 321      EC87E8FA 
 321      215D3D89 
 321      BDB401FC 
 321      7E70
 322 01c9 ED0117B5 		.ascii	"\355\001\027\265\245=\220~\320E\353K\354k\033\311\347"
 322      A53D907E 
 322      D045EB4B 
 322      EC6B1BC9 
 322      E7
 323 01da 8AD9DC5F 		.ascii	"\212\331\334_\341{\232\213\312\204\330\342&\370\376"
 323      E17B9A8B 
 323      CA84D8E2 
 323      26F8FE
 324 01e9 B08BDAE6 		.ascii	"\260\213\332\346z\245\314G\310\375\220\376\015\234_"
 324      7AA5CC47 
 324      C8FD90FE 
 324      0D9C5F
 325 01f8 73C6EC97 		.ascii	"s\306\354\227|\232)\274\034T\354f\237bG[\025\333\334"
 325      7C9A29BC 
 325      1C54EC66 
 325      9F62475B 
 325      15DBDC
 326 020b A8D8588D 		.ascii	"\250\330X\215b\247D\245\304>\256+\266\322\250\330\015"
 326      62A744A5 
 326      C43EAE2B 
 326      B6D2A8D8 
 326      0D
 327 021c FB2136EC 		.ascii	"\373!6\354V\352F\3524Ji;\217\302\375\377\207\344\203"
 327      56EA46EA 
 327      344A693B 
 327      8FC2FDFF 
 327      87E483
 328 022f 6BCB1D54 		.ascii	"k\313\035Too)\266O\322\305\212\274\330O\177E\226\217"
 328      6F6F29B6 
 328      4FD2C58A 
ARM GAS  /tmp/ccIdAxfh.s 			page 25


 328      BCD84F7F 
 328      45968F
 329 0242 29723FE2 		.ascii	")r?\342\244\270\252\336\373+vN0\365yK\025{%\272#\272"
 329      A4B8AADE 
 329      FB2B764E 
 329      30F5794B 
 329      157B25BA 
 330 0258 25FA1B0C 		.ascii	"%\372\033\014\327\0069\251\015<\244\310Um\257\177U\352"
 330      D70639A9 
 330      0D3CA4C8 
 330      556DAF7F 
 330      55EA
 331 026a F7369C87 		.ascii	"\3676\234\207\3001\034\216\021p\214R\370+UdB\322c\014"
 331      C0311C8E 
 331      11708C52 
 331      F82B5564 
 331      42D2630C 
 332 027e EC8BB4D7 		.ascii	"\354\213\264\327\226p\336.\305t\372[\027\345\337\241"
 332      9670DE2E 
 332      C574FA5B 
 332      17E5DFA1 
 333 028e C8E37117 		.ascii	"\310\343q\027\265\265\337)\266Fl\354\367J\335\210\254"
 333      B5B5DF29 
 333      B6466CEC 
 333      F74ADD88 
 333      AC
 334 029f 8E33F634 		.ascii	"\2163\3664V\261\247cJ\231\244=\352\353H\374\303\275"
 334      56B1A763 
 334      4A99A43D 
 334      EAEB48FC 
 334      C3BD
 335 02b1 70FE832B 		.ascii	"p\376\203+V&\251\243jG\035]\361>\350O\360\345{\270\366"
 335      5626A9A3 
 335      6A471D5D 
 335      F13EE84F 
 335      F0E57BB8 
 336 02c6 948B96F9 		.ascii	"\224\213\226\371\215\316f\236vQ\031\015P\312\362*\345"
 336      8DCE669E 
 336      7651190D 
 336      50CAF22A 
 336      E5
 337 02d7 F455FCC7 		.ascii	"\364U\374\307_\030\237\262N\361+D\376n\235\277h&\274"
 337      5F189FB2 
 337      4EF12B44 
 337      FE6E9DBF 
 337      6826BC
 338 02ea 23CB43E5 		.ascii	"#\313C\345\252r\371\305m\315\357\022\336\227\341\223"
 338      AA72F9C5 
 338      6DCDEF12 
 338      DE97E193 
 339 02fa B60DB87C 		.ascii	"\266\015\270|]\364\213\315}\202,b*\325\207R{L\230+\313"
 339      5DF48BCD 
 339      7D822C62 
 339      2AD58752 
 339      7B4C982B 
 340 030f 15759FEF 		.ascii	"\025u\237\357{@v\372\3059\342]P\347\226\242\360{a!d"
 340      7B4076FA 
ARM GAS  /tmp/ccIdAxfh.s 			page 26


 340      C539E25D 
 340      50E796A2 
 340      F07B6121 
 341 0324 AB90E539 		.ascii	"\253\220\3459-\204\370OBTIxT\024\374\342|\200\363\213"
 341      2D84F84F 
 341      42544978 
 341      5414FCE2 
 341      7C80F38B 
 342 0338 F3C4DFD3 		.ascii	"\363\304\337\323b\344H\375\233i\364\252\240\\7\370<"
 342      62E448FD 
 342      9B69F4AA 
 342      A05C37F8 
 342      3C
 343 0349 2C5401FF 		.ascii	",T\001\377\221\306+\333Dy\\j2\265\251\332P#B9\037ce"
 343      91C62BDB 
 343      44795C6A 
 343      32B5A9DA 
 343      50234239 
 344 0360 9E153545 		.ascii	"\236\0255Eq\260\336\215\344X\254g\375K\302\372b.\326"
 344      71B0DE8D 
 344      E458AC67 
 344      FD4BC2FA 
 344      622ED6
 345 0373 8F546DE7 		.ascii	"\217Tm\347a\275\312\241\226\3331\246\210\232\362\317"
 345      61BDCAA1 
 345      96DB31A6 
 345      889AF2CF 
 346 0383 3AC8B2D7 		.ascii	":\310\262\327/V#\367ebB\366\2650\204\273\025q\274oM"
 346      2F5623F7 
 346      656242F6 
 346      B53084BB 
 346      1571BC6F 
 347 0398 25DA5DC1 		.ascii	"%\332]\301\305\375\361\021\263Z\313U\233D#\366\341\006"
 347      C5FDF111 
 347      B35ACB55 
 347      9B4423F6 
 347      E106
 348 03aa 91959CA4 		.ascii	"\221\225\234\244\026\235\206\222{\027\2705\022\260\346"
 348      169D8692 
 348      7B17B835 
 348      12B0E6
 349 03b9 36BFB846 		.ascii	"6\277\270F\224\200\256\325sY=\002\271\\\313\305\345"
 349      9480AED5 
 349      73593D02 
 349      B95CCBC5 
 349      E5
 350 03ca F2ADF132 		.ascii	"\362\255\3612\276W\230\210L\226\003\227a\2570\202\374"
 350      BE579888 
 350      4C960397 
 350      61AF3082 
 350      FC
 351 03db 52375C1E 		.ascii	"R7\\\036\"\366\217\262\342U9\021U\221\023#\227\374\342"
 351      22F68FB2 
 351      E2553911 
 351      55911323 
 351      97FCE2
 352 03ee 46D10B15 		.ascii	"F\321\013\025\230*\212Fe\022v\310\015\344C\362\323\264"
ARM GAS  /tmp/ccIdAxfh.s 			page 27


 352      982A8A46 
 352      651276C8 
 352      0DE443F2 
 352      D3B4
 353 0400 9A12A3E8 		.ascii	"\232\022\243\350i*\272S\311\024\021\357\305\224\003"
 353      692ABA53 
 353      C91411EF 
 353      C59403
 354 040f 3D095C78 		.ascii	"=\011\\x\256\031\220W\034Q\\\263\214\033\304f\352-\222"
 354      AE199057 
 354      1C515CB3 
 354      8C1BC466 
 354      EA2D92
 355 0422 50854640 		.ascii	"P\205F@\344bt\273\222\324\340id%/\223e\237\233bJ\302"
 355      E46274BB 
 355      92D4E069 
 355      64252F93 
 355      659F9B62 
 356 0438 27B6C1D2 		.ascii	"'\266\301\322\314\301jx\300\274\234\234m\264\015f\300"
 356      CCC16A78 
 356      C0BC9C9C 
 356      6DB40D66 
 356      C0
 357 0449 99B94150 		.ascii	"\231\271APe\231\011|\267\201\246\224\264O\030\031\203"
 357      6599097C 
 357      B781A694 
 357      B44F1819 
 357      83
 358 045a 345699DA 		.ascii	"4V\231\332x\337\373|\2438\024\012\363\213{E\037\344"
 358      78DFFB7C 
 358      A338140A 
 358      F38B7B45 
 358      1FE4
 359 046c FE49D77C 		.ascii	"\376I\327|\371\241\032\306\256\3753\372\201\003\010"
 359      F9A11AC6 
 359      AEFD33FA 
 359      810308
 360 047b F4A9A405 		.ascii	"\364\251\244\005\362\213\236\250,\243\337\325\033\010"
 360      F28B9EA8 
 360      2CA3DFD5 
 360      1B08
 361 0489 1AFEAC24 		.ascii	"\032\376\254$H4\256u\343\234\267+\002\320\310T\251B"
 361      4834AE75 
 361      E39CB72B 
 361      02D0C854 
 361      A942
 362 049b DD3CB955 		.ascii	"\335<\271Ues\213vE\244\261\350\017X\205#X\205\325\222"
 362      65738B76 
 362      45A4B1E8 
 362      0F588523 
 362      5885D592 
 363 04af A12C3880 		.ascii	"\241,8\200\032\306\316|\006\201\216!\320\2468Y\210:"
 363      1AC6CE7C 
 363      06818E21 
 363      D0A63859 
 363      883A
 364 04c1 5988DACA 		.ascii	"Y\210\332\312\211\276X\242I\333\300\023\336kf/\207c"
ARM GAS  /tmp/ccIdAxfh.s 			page 28


 364      89BE58A2 
 364      49DBC013 
 364      DE6B662F 
 364      8763
 365 04d3 0D94B59A 		.ascii	"\015\224\265\232\275\224\025\2566\376\005\333\306wI"
 365      BD9415AE 
 365      36FE05DB 
 365      C67749
 366 04e2 1CC6DF92 		.ascii	"\034\306\337\222\305S>\324\370\241\337\270\330~\212"
 366      C5533ED4 
 366      F8A1DFB8 
 366      D87E8A
 367 04f1 1C19E648 		.ascii	"\034\031\346H\266\001|m\336\000\242\325\262\264\207"
 367      B6017C6D 
 367      DE00A2D5 
 367      B2B487
 368 0500 88A91AFD 		.ascii	"\210\251\032\375\342W\342c\311\213\372\314/\027\365"
 368      E257E263 
 368      C98BFACC 
 368      2F17F5
 369 050f 6956D47B 		.ascii	"iV\324{m\213:\215\025\265\326i\035\342\001ke\252\267"
 369      6D8B3A8D 
 369      15B5D669 
 369      1DE2016B 
 369      65AAB7
 370 0522 5FE6B47E 		.ascii	"_\346\264~4\327\231a\357\375<\343t\236g=\252\322\320"
 370      34D79961 
 370      EFFD3CE3 
 370      749E673D 
 370      AAD2D0
 371 0535 AE4D7A8E 		.ascii	"\256Mz\216\364\300\365\030zLv\030\206\036\346 \204\201"
 371      F4C0F518 
 371      7A4C7618 
 371      861EE620 
 371      8481
 372 0547 ABFA4EBD 		.ascii	"\253\372N\2751\220F\257&\356\322\257\317\303.]\365\235"
 372      319046AF 
 372      26EED2AF 
 372      CFC32E5D 
 372      F59D
 373 0559 1F62F957 		.ascii	"\037b\371W\223\355\365\"7\002\333\332\251XKlc\245\031"
 373      93EDF522 
 373      3702DBDA 
 373      A9584B6C 
 373      63A519
 374 056c 312AC4D5 		.ascii	"1*\304\325\322/6\242i_\023\037\006z\003hB[\274\2541"
 374      D22F36A2 
 374      695F131F 
 374      067A0368 
 374      425BBCAC 
 375 0581 672EF3FD 		.ascii	"g.\363\375\2015\337U\016\273\026\247\257\213\252\010"
 375      8135DF55 
 375      0EBB16A7 
 375      AF8BAA08 
 376 0591 BFB81ED9 		.ascii	"\277\270\036\331\336\202t\033\322\035Hw!=\205\364\002"
 376      DE82741B 
 376      D21D4877 
ARM GAS  /tmp/ccIdAxfh.s 			page 29


 376      213D85F4 
 376      02
 377 05a2 D28B3C55 		.ascii	"\322\213<U\253a\371\334\210|\256HV\177u5[\032\333O\226"
 377      AB61F9DC 
 377      887CAE48 
 377      567F7535 
 377      5B1ADB4F 
 378 05b7 23431C1E 		.ascii	"#C\034\036\241\234FrC\023u\024\327&=M\354\267I\364@"
 378      A19C4672 
 378      43137514 
 378      D7263D4D 
 378      ECB749F4 
 379 05cc F99FEBEC 		.ascii	"\371\237\353\354\227\003\206\324a\250\344\321Zp\315"
 379      970386D4 
 379      61A8E4D1 
 379      5A70CD
 380 05db E0347AD5 		.ascii	"\3404z\325\302\202\261\321IB\255\203\016%\234\276\330"
 380      C282B1D1 
 380      4942AD83 
 380      0E259CBE 
 380      D8
 381 05ec B5A3B16B 		.ascii	"\265\243\261k\"s\3537\261\313\022s\371\307\330e\007"
 381      2273EB37 
 381      B1CB1273 
 381      F9C7D865 
 381      07
 382 05fd 73F976EC 		.ascii	"s\371v\354\262\223\271\\\341\214^v1\227\247\306.\273"
 382      B293B95C 
 382      E18C5E76 
 382      3197A7C6 
 382      2EBB
 383 060f 99CBF363 		.ascii	"\231\313\363c\227=\314\345e\261\313^F\037\226\235fL"
 383      973DCCE5 
 383      65B1CB5E 
 383      461F969D 
 383      664C
 384 0621 487EB14C 		.ascii	"H~\261L\"\015`\230\3440\314&\301\330Vg\007\032\221'"
 384      220D6098 
 384      E430CC26 
 384      C1D85667 
 384      071A9127 
 385 0635 0A3865B4 		.ascii	"\0128e\264\203!\244g\273S\250PF\026\264Y\033\016\337"
 385      8321A467 
 385      BB53A850 
 385      4616B459 
 385      1B0EDF
 386 0648 087795D2 		.ascii	"\010w\225\322\235\230\302\256IV| \336af\270S$_\224\201"
 386      9D98C2AE 
 386      49567C20 
 386      DE6166B8 
 386      53245F94 
 387 065d 545F2CA1 		.ascii	"T_,\2416MI\370L_\013m\261\211B]by\330k\020\336$a\033"
 387      364D49F8 
 387      4C5F0B6D 
 387      B189425D 
 387      6279D86B 
 388 0676 175AA26E 		.ascii	"\027Z\242nC\365n\273\364hF-\355qS\260H\343\210\031\274"
ARM GAS  /tmp/ccIdAxfh.s 			page 30


 388      43F56EBB 
 388      F468462D 
 388      ED7153B0 
 388      48E38819 
 389 068b 23BE3755 		.ascii	"#\2767U\270\324h\253\213\\\337\"\246\031\214\3724\267"
 389      B8D468AB 
 389      8B5CDF22 
 389      A6198CFA 
 389      34B7
 390 069d FAC53960 		.ascii	"\372\3059`&\211\356\"\367\315\225t=\310\206-8,$\327"
 390      2689EE22 
 390      F7CD9574 
 390      3DC8862D 
 390      382C24D7 
 391 06b1 13F72187 		.ascii	"\023\367!\207\312\315\253\242\031\222F\007\315\355\242"
 391      CACDABA2 
 391      19924607 
 391      CDEDA2
 392 06c0 15A9FBEA 		.ascii	"\025\251\373\352\273K\377\215q\346\002\211t\200S]\211"
 392      BB4BFF8D 
 392      71E60289 
 392      7480535D 
 392      89
 393 06d1 A70E3430 		.ascii	"\247\01640~\361#\211\214l?\326W\241a\032V\341c\256*"
 393      7EF12389 
 393      8C6C3FD6 
 393      57A1611A 
 393      56E163AE 
 394 06e6 DC3A3AF3 		.ascii	"\334::\363>\271.\"\362\273\275)\027\"\367\227\341\250"
 394      3EB92E22 
 394      F2BBBD29 
 394      1722F797 
 394      E1A8
 395 06f8 63B1443C 		.ascii	"c\261D<\337!WR\236o\251\336\363-/oA\330^\312\345\373"
 395      DF215752 
 395      9E6FA9DE 
 395      F32D2F6F 
 395      41D85ECA 
 396 070e 4EBBE27D 		.ascii	"N\273\342}\337E\227\241\357\273\3522\364}\262\333\320"
 396      DF4597A1 
 396      EFBBEA32 
 396      F47DB2DB 
 396      D0
 397 071f F78D766B 		.ascii	"\367\215vk}\237\300\341\237\2262\376i\031\372\247j\023"
 397      7D9FC0E1 
 397      9F9632FE 
 397      6919FAA7 
 397      6A13
 398 0731 FFE41727 		.ascii	"\377\344\027'Eu\306\353\2374\372\252;\372]\355\240\365"
 398      4575C6EB 
 398      9F34FAAA 
 398      3BFA5DED 
 398      A0F5
 399 0743 D01E47B9 		.ascii	"\320\036G\271\223l?G\217\362\264\237\010g\373\331\244"
 399      936C3F47 
 399      8FF2B49F 
 399      0867FBD9 
ARM GAS  /tmp/ccIdAxfh.s 			page 31


 399      A4
 400 0754 37BEC947 		.ascii	"7\276\311G\321\3706q\031\337\254\2433\343\333\217.\""
 400      D1F83671 
 400      19DFACA3 
 400      33E3DB8F 
 400      2E22
 401 0766 7DF61E53 		.ascii	"}\366\036S?\272E\322\005\244\037J\034\023\036\212\034"
 401      3FBA45D2 
 401      05A41F4A 
 401      1C131E8A 
 401      1C
 402 0777 6E4DBD9B 		.ascii	"nM\275\2330\372\271D\342\352J\267\326\2065\014\321\202"
 402      30FAB944 
 402      E2EA4AB7 
 402      D686350C 
 402      D182
 403 0789 CC98D881 		.ascii	"\314\230\330\201e\032\3253\3567\350\024\261\234MR\262"
 403      651AD533 
 403      EE37E814 
 403      B19C4D52 
 403      B2
 404 079a 51668D91 		.ascii	"Qf\215\221\300\014\364T\027\235\003k\033\255q\335\232"
 404      C00CF454 
 404      179D036B 
 404      1BAD71DD 
 404      9A
 405 07ab FABA74DA 		.ascii	"\372\272t\332pw\243\307\251w'\3648Z\034\034\007\351"
 405      7077A3C7 
 405      A97727F4 
 405      385A1C1C 
 405      07E9
 406 07bd 155EBD13 		.ascii	"\025^\275\023\025\2767\261\302\207\225EV\356\234\216"
 406      15BE37B1 
 406      C2879545 
 406      56EE9C8E 
 407 07cd FC635F   		.ascii	"\374c_"
 408 07d0 59663933 		.ascii	"Yf93\341\027\367a\254\233x\352\000\332\262GTXKB\254"
 408      E117F761 
 408      AC9B78EA 
 408      00DAB247 
 408      54584B42 
 409 07e5 C0D6AA9D 		.ascii	"\300\326\252\235\251\025~\277x@\".\242\3346X\232\006"
 409      A9157EBF 
 409      7840222E 
 409      A2DC3658 
 409      9A06
 410 07f7 6C350BF6 		.ascii	"l5\013\366.\017\230Y?\016`kY\260\211\266\301\264\234"
 410      2E0F9859 
 410      3F0E606B 
 410      59B089B6 
 410      C1B49C
 411 080a AD67C1A6 		.ascii	"\255g\301\246\361\200\231M\001\000X-\0136\3136\030\313"
 411      F180994D 
 411      0100582D 
 411      0B36CB36 
 411      18CB
 412 081c D990C8C9 		.ascii	"\331\220\310\311\235;\310`\354W\3028Y\036\"W\271\315"
ARM GAS  /tmp/ccIdAxfh.s 			page 32


 412      9D3BC860 
 412      EC57C238 
 412      591E2257 
 412      B9CD
 413 082e 8C4210F0 		.ascii	"\214B\020\360\026\331\362\026\030\200K\277\322\032\351"
 413      16D9F216 
 413      18804BBF 
 413      D21AE9
 414 083d FED1CD89 		.ascii	"\376\321\315\211\221\222\353\211\275\322\227\212\221"
 414      9192EB89 
 414      BDD2978A 
 414      91
 415 084a AA01CF07 		.ascii	"\252\001\317\007X9\2227\231F+G\216\357l&\277\223\032"
 415      58399237 
 415      99462B47 
 415      8EEF6C26 
 415      BF931A
 416 085d 1DD02EB0 		.ascii	"\035\320.\260`\374\214\276u\035\332)\245\321\313\034"
 416      60FC8CBE 
 416      751DDA29 
 416      A5D1CB1C 
 417 086d 0F02764E 		.ascii	"\017\002vNo%Wm\024\2259\022\271\\~\234)\253\245Z\026"
 417      6F25576D 
 417      14953912 
 417      B95C7E9C 
 417      29ABA55A 
 418 0882 F195D139 		.ascii	"\361\225\3219\263\225m1\0049\217Z\234\3471\2343\343"
 418      B3956D31 
 418      04398F5A 
 418      9CE7319C 
 418      33E3
 419 0894 006A18FB 		.ascii	"\000j\030\373!\235?\274\210@\213u@~\321\241\2333sh["
 419      219D3FBC 
 419      88408B75 
 419      407ED1A1 
 419      9B337368 
 420 08a9 B5C3174B 		.ascii	"\265\303\027K459\004{7KB\015\026x&f\177\032&\023\367"
 420      34353904 
 420      7B374B42 
 420      0D167826 
 420      667F1A26 
 421 08bf AAABEBCF 		.ascii	"\252\253\353\317>Q)G\206:TQ\254\263\015\330R\247\024"
 421      3E512947 
 421      863A5451 
 421      ACB30DD8 
 421      52A714
 422 08d2 49D89CAC 		.ascii	"I\330\234\254\3350UW\207\316\337HdX\374\235\3640[\300"
 422      DD305557 
 422      87CEDF48 
 422      6458FC9D 
 422      F4305BC0 
 423 08e6 E73CADCE 		.ascii	"\347<\255\316,\254\207&|\211m\302;l\203\245i\300.\263"
 423      2CAC8726 
 423      7C896DC2 
 423      3B6C83A5 
 423      69C02EB3 
 424 08fa 607B78C0 		.ascii	"`{x\300\322\3149\273\302\202\035\260\015\246\345\354"
ARM GAS  /tmp/ccIdAxfh.s 			page 33


 424      D2CC39BB 
 424      C2821DB0 
 424      0DA6E5EC 
 425 090a 2A0B7684 		.ascii	"*\013v\204\007\314h\364b\364a\273C\350\2570\364\333"
 425      07CC68F4 
 425      62F461BB 
 425      43E8AF30 
 425      F4DB
 426 091c 8F9A3A88 		.ascii	"\217\232:\210\3640\322\257\220\036Cz\002i\035\322\006"
 426      F430D2AF 
 426      901E437A 
 426      02691DD2 
 426      06
 427 092d A48D48AF 		.ascii	"\244\215H\257#\275\311\352\327\"vi\034\327\206\270\263"
 427      23BDC9EA 
 427      D7227669 
 427      1CD786B8 
 427      B3
 428 093e 2F307639 		.ascii	"/0v9\356\261\214]v\233T\225p\337d\021\2734\351c\227"
 428      EEB18C5D 
 428      769B5495 
 428      70DF6411 
 428      BB34E963 
 429 0953 B31EBBB1 		.ascii	"\263\036\273\261\013\243\006\214\\#E\353\226\310\362"
 429      0BA3068C 
 429      5C2345EB 
 429      96C8F2
 430 0962 70B7DAC8 		.ascii	"p\267\332\310~\324#\03252\363\3479\221\303\323Rk\337"
 430      7ED4231A 
 430      3532F3E7 
 430      3991C3D3 
 430      526BDF
 431 0975 54C11A6C 		.ascii	"T\301\032l\203\351[\254\252\307\315\250\307\317P#\273"
 431      83E95BAC 
 431      AAC7CDA8 
 431      C7CF5023 
 431      BB
 432 0986 900E7110 		.ascii	"\220\016q\020Z\346\320\264\276\353qN\216\006\275\014"
 432      5AE6D0B4 
 432      BEEB714E 
 432      8E06BD0C 
 433 0996 5E2C3A16 		.ascii	"^,:\026\022#\232)i\275\304Ls\225yE\355\360\301\236\022"
 433      12239A29 
 433      69BDC44C 
 433      73957945 
 433      EDF0C19E 
 434 09ab 22334F40 		.ascii	"\"3O@[H\370\250\330\251\"u\211\332\\\335\3629\033[\255"
 434      5B48F8A8 
 434      D8A92275 
 434      89DA5CDD 
 434      F2391B5B 
 435 09c0 96E5967E 		.ascii	"\226\345\226~q\224\203D\217\233\275\211\237\025kp$a"
 435      71948344 
 435      8F9BBD89 
 435      9F156B70 
 435      2461
 436 09d2 176619E3 		.ascii	"\027f\031\343\320\366qu\307\347\237\372u%\"\223\237"
ARM GAS  /tmp/ccIdAxfh.s 			page 34


 436      D0F67175 
 436      C7E79FFA 
 436      75252293 
 436      9F
 437 09e3 12F77337 		.ascii	"\022\367s7\215F\335\224-3\031V8t\306<\332\247\262\222"
 437      8D46DD94 
 437      2D331956 
 437      3874C63C 
 437      DAA7B292 
 438 09f7 5C207E7B 		.ascii	"\\ ~{\013\372\024\202+\011\343l\203i\2252~+\023\025"
 438      0BFA1482 
 438      2B09E36C 
 438      83699532 
 438      7E2B1315 
 439 0a0b 733DAFAB 		.ascii	"s=\257\253\377\350\\\353u(\262\211\016b\340\247}z[\334"
 439      FFE85CEB 
 439      7528B289 
 439      0E62E0A7 
 439      7D7A5BDC 
 440 0a1f AB7F4AC5 		.ascii	"\253\177J\305\023G\237\347\251\210\371\254\023hro\233"
 440      13479FE7 
 440      A988F9AC 
 440      1368726F 
 440      9B
 441 0a30 1A1C9CAA 		.ascii	"\032\034\234\252\321\216i\230&\011?aaS\365\326P\377"
 441      D18E6998 
 441      26093F61 
 441      6153F5D6 
 441      50FF
 442 0a42 E9DE3F52 		.ascii	"\351\336?Rk\230\312e\015+wN\346\032\022U\271\325\342"
 442      6B98CA65 
 442      0D2B774E 
 442      E61A1255 
 442      B9D5E2
 443 0a55 73B1F8EA 		.ascii	"s\261\370\352\024R\374,}\361M\325\347\236\245\305\317"
 443      1452FC2C 
 443      7DF14DD5 
 443      E79EA5C5 
 443      CF
 444 0a66 E22AFEE4 		.ascii	"\342*\376\344\236\011F\306h2jU\325\367\351O\217\317"
 444      9E0946C6 
 444      68326A55 
 444      D5F7E94F 
 444      8FCF
 445 0a78 C2423E40 		.ascii	"\302B>@\003\272\225\242W\337s\354\254\275\240<\311g"
 445      03BA95A2 
 445      57DF73EC 
 445      ACBDA03C 
 445      C967
 446 0a8a ECB7BC99 		.ascii	"\354\267\274\231\312}R\366\013\325\334\370\334B\324"
 446      CA7D52F6 
 446      0BD5DCF8 
 446      DC42D4
 447 0a99 94CAC33B 		.ascii	"\224\312\303;\266\021\265F|y\017\266\010\012\366\036"
 447      B611B546 
 447      7C790FB6 
 447      080AF61E 
ARM GAS  /tmp/ccIdAxfh.s 			page 35


 448 0aa9 0F988567 		.ascii	"\017\230\205g\277\302\202\215\263\015\246\345\354*\013"
 448      BFC2828D 
 448      B30DA6E5 
 448      EC2A0B
 449 0ab8 368907CC 		.ascii	"6\211\007\314\374\311g\344\032\0136\3256\230\226\263"
 449      FCC967E4 
 449      1A0B36D5 
 449      369896B3 
 450 0ac8 1B2CD84C 		.ascii	"\033,\330L\0360\363I\332\310\317,\330\034\333`Z\316"
 450      1E30F349 
 450      DAC8CF2C 
 450      D81CDB60 
 450      5ACE
 451 0ada 6EB360F3 		.ascii	"n\263`\363y\300\322\3149\253\330\307\200}d\033L\313"
 451      79C0D2CC 
 451      39ABD8C7 
 451      807D641B 
 451      4CCB
 452 0aec D938166C 		.ascii	"\3318\026l1\017\230\305\\\364\004\026l\231m0-g\223X"
 452      310F98C5 
 452      5CF40416 
 452      6C996D30 
 452      2D679358 
 453 0b00 B0153C60 		.ascii	"\260\025<`\355\3149\253d\301V\333\006\323r6\225\005"
 453      EDCC39AB 
 453      64C156DB 
 453      06D37236 
 453      9505
 454 0b12 5BCF03F6 		.ascii	"[\317\003\366\2149g\323Y\260M\266\301\264\234-a\301"
 454      8C3967D3 
 454      59B04DB6 
 454      C1B49C2D 
 454      61C1
 455 0b24 B6F0803D 		.ascii	"\266\360\200=o\316\3312\026l\273m0-g\377d\301v\361\200"
 455      6FCED932 
 455      166CBB6D 
 455      302D67FF 
 455      64C176F1 
 456 0b39 BD68CED9 		.ascii	"\275h\316\331\012\026l\217m0-g\253X\260}<`\275\3159"
 456      0A166C8F 
 456      6D302D67 
 456      AB58B07D 
 456      3C60BDCD 
 457 0b4e 5BCD827D 		.ascii	"[\315\202}i\033L\313\331Z\026\3540\017\330\353\346\234"
 457      691B4CCB 
 457      D95A16EC 
 457      300FD8EB 
 457      E69C
 458 0b60 AD67C18E 		.ascii	"\255g\301\216\331\006\323rV\313\202\325\361\200\275"
 458      D906D372 
 458      56CB82D5 
 458      F180BD
 459 0b6f 69C059F4 		.ascii	"i\300Y\364c\026g\316t0\261\372\327\315\324\000\307f"
 459      631667CE 
 459      7430B1FA 
 459      D7CDD400 
 459      C766
ARM GAS  /tmp/ccIdAxfh.s 			page 36


 460 0b81 1F2DC430 		.ascii	"\037-\3040\3164\263\033\221i\352Mb\3536\253\225~\236"
 460      CE34B31B 
 460      9169EA4D 
 460      62EB36AB 
 460      957E9E
 461 0b94 06AB1779 		.ascii	"\006\253\027y\020-:\300\251[\231\310\267\3016\230\316"
 461      102D3AC0 
 461      A95B99C8 
 461      B7C13698 
 461      CE
 462 0ba5 94B7EA87 		.ascii	"\224\267\352\207#\034\013|b\013)\231E]\255\214\357\205"
 462      231C0B7C 
 462      620B2999 
 462      455DAD8C 
 462      EF85
 463 0bb7 B1B6838C 		.ascii	"\261\266\203\214\346N\351\346\220NE'\221H\212>:\276"
 463      E64EE9E6 
 463      904E4527 
 463      91488A3E 
 463      3ABE
 464 0bc9 D54CFB60 		.ascii	"\325L\373`'\372\341\311nf\021'X\213\030\232\312!.\213"
 464      27FAE1C9 
 464      6E661127 
 464      588B189A 
 464      CA212E8B 
 465 0bdd 2EFEE4D6 		.ascii	".\376\344\326\351\370\260\216\1771[\375G{\225\201\302"
 465      E9F8B08E 
 465      7F315BFD 
 465      477B9581 
 465      C2
 466 0bee B7385018 		.ascii	"\2678P\030\225\252\2174\217\330\\\316\006\361\230\276"
 466      95AA8F34 
 466      8FD85CCE 
 466      06F198BE 
 467 0bfe 16468FB0 		.ascii	"\026F\217\260\314c\013\260\311#\017\325,\226\3452\267"
 467      CC630BB0 
 467      C9230FD5 
 467      2C96E532 
 467      B7
 468 0c0f 9D7A6C57 		.ascii	"\235zlW\352q\036\3531\365_P\2179\266\353\361\270\256"
 468      EA711EEB 
 468      31F55F50 
 468      8F39B6EB 
 468      F1B8AE
 469 0c22 1E1B1FB7 		.ascii	"\036\033\037\267_\217#J=~\304z|\364/\250\3072\333\365"
 469      5F8F234A 
 469      3D7EC47A 
 469      7CF42FA8 
 469      C732DBF5 
 470 0c36 68C7D403 		.ascii	"h\307\324\003GmO\320Q\033\327\344\372\025\207nr\375"
 470      476D4FD0 
 470      511BD7E4 
 470      FA15876E 
 470      72FD
 471 0c48 C80EB2FE 		.ascii	"\310\016\262\376\235\\N4\\\222#\215;\230\241\256\314"
 471      9D5C4E34 
 471      5C92238D 
ARM GAS  /tmp/ccIdAxfh.s 			page 37


 471      3B98A1AE 
 471      CC
 472 0c59 37D4FD49 		.ascii	"7\324\375I\221X#J\254F'1~\244\232\335\237-U\326\313"
 472      9158234A 
 472      AC462731 
 472      7EA49ADD 
 472      9F2D55D6 
 473 0c6e DE40A80D 		.ascii	"\336@\250\015IC5\354YI\327\210\336B\240\255qZt\353\224"
 473      494335EC 
 473      5949D788 
 473      DE42A0AD 
 473      715A74EB 
 474 0c83 E8D62A11 		.ascii	"\350\326*\021\276\222\222\256\221\221\267\370\266r\205"
 474      BE9292AE 
 474      9191B7F8 
 474      B67285
 475 0c92 7CF108FF 		.ascii	"|\361\010\377\337\363I\302^d\237(\320fG\0253\240\266"
 475      DFF349C2 
 475      5E649F28 
 475      D0664715 
 475      33A0B6
 476 0ca5 354A2743 		.ascii	"5J'C\225t\370\027!\016\215T\217\236\241<\202y\216t3"
 476      9574F817 
 476      210E8D54 
 476      8F9EA13C 
 476      82798E74 
 477 0cba A77E21DC 		.ascii	"\247~!\334\336\235\366'X6\336O\255\256\034\327\015\234"
 477      DE9DF627 
 477      5836DE4F 
 477      ADAE1CD7 
 477      0D9C
 478 0ccc 8DD37052 		.ascii	"\215\323pR\023,W\222\255H\364#\0117y:\2214+m]\177\202"
 478      132C5792 
 478      AD48F423 
 478      0937793A 
 478      91342B6D 
 479 0ce3 7392263A 		.ascii	"s\222&:\365w\256\3256:A\347$S\177M:apL\366\274w\007"
 479      F577AED5 
 479      363A41E7 
 479      24537F4D 
 479      3A61704C 
 480 0cfb C932D619 		.ascii	"\3112\326\0317\365\267\2675\235m!?qL\366\224\253vAg"
 480      37F5B7B7 
 480      359D6D21 
 480      3F714CF6 
 480      94AB7641 
 481 0d10 F4DE7748 		.ascii	"\364\336wH\012l\262\362\324\2500\306\037@;I\3340\316"
 481      0A6CB2F2 
 481      D4A830C6 
 481      1F403B49 
 481      DC30CE
 482 0d23 A999F39D 		.ascii	"\251\231\363\235y\207]\331\247\261\262\217\334\3349"
 482      79875DD9 
 482      A7B1B28F 
 482      DCDC39
 483 0d32 5D24FC1B 		.ascii	"]$\374\033\314O=\317FsQ\301\237j\275\235N\363\241\340"
 483      CC4F3DCF 
ARM GAS  /tmp/ccIdAxfh.s 			page 38


 483      467351C1 
 483      9F6ABD9D 
 483      4EF3A1E0 
 484 0d46 17DC6173 		.ascii	"\027\334as\221\254$\254\302,\225\361\202\337~?\025|"
 484      91AC24AC 
 484      C22C95F1 
 484      82DF7E3F 
 484      157C
 485 0d58 2597E0BF 		.ascii	"%\227\340\2774\024|\245}\301+x\007c\363\247~q\274m\260"
 485      34147CA5 
 485      7DC12B78 
 485      0763F3A7 
 485      7E71BC6D 
 486 0d6d 342B2D56 		.ascii	"4+-V2Z\234\212Z\234\346$\263\355\323\265\272\334\256"
 486      325A9C8A 
 486      5A9CE624 
 486      B3EDD3B5 
 486      BADCAE
 487 0d80 D7A54672 		.ascii	"\327\245FrJ\322t\356@\216\214\337\255>&\246>\357\000"
 487      4AD274EE 
 487      408E8CDF 
 487      AD3E26A6 
 487      3EEF00
 488 0d93 8F6D588C 		.ascii	"\217mX\214\370g\356F\221P\177\363\225m\2604\015\330"
 488      F867EE46 
 488      91507FF3 
 488      956DB034 
 488      0DD8
 489 0da5 BAF73857 		.ascii	"\272\3678W\246\351\336F\373\026\313\235\2537\227\225"
 489      A6E9DE46 
 489      FB16CB9D 
 489      AB379795 
 490 0db5 3FEE1D21 		.ascii	"?\356\035!\016\301\256s.\207\275@?\377\255\017\027W"
 490      0EC1AE73 
 490      2E87BD40 
 490      3FFFAD0F 
 490      1757
 491 0dc7 53BB9DD5 		.ascii	"S\273\235\325\\E\265\020\265\205\265\334<\247\254\325"
 491      5C45B510 
 491      B585B5DC 
 491      3CA7ACD5 
 492 0dd7 A6A38E0F 		.ascii	"\246\243\216\017\365p\011\007EZ\270\333\201m\355\222"
 492      F5700907 
 492      455AB8DB 
 492      816DED92 
 493 0de7 79D32F72 		.ascii	"y\323/r\024\337\364[\204u\372\264\271\276G\240\222a"
 493      14DFF45B 
 493      8475FAB4 
 493      B9BE47A0 
 493      9261
 494 0df9 0C712E63 		.ascii	"\014q.c\210\363\321\020?DC\\\210\364c\326\034\315\202"
 494      88F3D110 
 494      3F44435C 
 494      88F463D6 
 494      1CCD82
 495 0e0c AD4F9CCC 		.ascii	"\255O\234\314\360a\245\355z\247\351\264cV\314\007l1"
 495      F061A5ED 
ARM GAS  /tmp/ccIdAxfh.s 			page 39


 495      7AA7E9B4 
 495      6356CC07 
 495      6C31
 496 0e1e EB9B73D8 		.ascii	"\353\233s\330\236\371\004\021q\352\177Q\303\001\372"
 496      9EF90411 
 496      71EA7F51 
 496      C301FA
 497 0e2d 78629B6D 		.ascii	"xb\233mD\2555\377\364\236&\034\330\317\003\367\274\001"
 497      44AD35FF 
 497      F49E261C 
 497      D8CF03F7 
 497      BC01
 498 0e3f 83461FF6 		.ascii	"\203F\037\366\201\224_|\017G\213c\361\351\3348\244\023"
 498      81945F7C 
 498      0F478B63 
 498      F1E9DC38 
 498      A413
 499 0e51 904E417A 		.ascii	"\220NAz\004\351Q\244\307\221~\203\364\034\322\037\220"
 499      04E951A4 
 499      C7917E83 
 499      F41CD21F 
 499      90
 500 0e62 D6231D8D 		.ascii	"\326#\035\215*\236\200t&\322*\244s\220.C\372\317D\006"
 500      2A9E8074 
 500      26D22AA4 
 500      73902E43 
 500      FACF4406 
 501 0e76 A0F4028D 		.ascii	"\240\364\002\215W\217\264\371\004}\365H4\377\361-\364"
 501      578FB4F9 
 501      047DF548 
 501      34FFF12D 
 501      F4
 502 0e87 9657E1D0 		.ascii	"\226W\341\320=.\210{\3365\277\005\307sC\213';G\277;"
 502      3D2E887B 
 502      DE35BF05 
 502      C773438B 
 502      273B47BF 
 503 0e9c 3B78DD50 		.ascii	";x\335P\252\323E\324\254\235\272\205\214\211\227(k\225"
 503      AAD345D4 
 503      AC9DBA85 
 503      8C899728 
 503      6B95
 504 0eae 7A7CA6F9 		.ascii	"z|\246\371\233\237\232\0077\3215h\217\306d\262\346\346"
 504      9B9F9A07 
 504      37D13568 
 504      8FC664B2 
 504      E6E6
 505 0ec0 91FF4BD7 		.ascii	"\221\377K\327\262\255\305\326xN'\223\2048\370\332\243"
 505      B2ADC5D6 
 505      784E2793 
 505      8438F8DA 
 505      A3
 506 0ed1 CECD457E 		.ascii	"\316\315E~:\201k\3316$vq\303\312\"\015'&(FIW\0264 \013"
 506      3A816BD9 
 506      36247671 
 506      C3CA220D 
 506      27262846 
ARM GAS  /tmp/ccIdAxfh.s 			page 40


 507 0eeb 1B92EB12 		.ascii	"\033\222\353\022\3112\205\023\3142\205\353\266\301\322"
 507      C9328513 
 507      CC3285EB 
 507      B6C1D2
 508 0efa 3460D758 		.ascii	"4`\327X\260[<`\026\213\320n\260`rK\273`Z\316~f\301\312"
 508      B05B3C60 
 508      168BD06E 
 508      B060724B 
 508      BB605ACE 
 509 0f12 78C02C16 		.ascii	"x\300,\026\241\335f\301F\331\006\323rVq\222\001\253"
 509      A1DD66C1 
 509      46D906D3 
 509      72567192 
 509      01AB
 510 0f24 E001B358 		.ascii	"\340\001\263X[3\216\005\233l\033L\313\331\004\026l\026"
 510      5B338E05 
 510      9B6C1B4C 
 510      CBD90416 
 510      6C16
 511 0f36 0F589A01 		.ascii	"\017X\232\001gF\037\266\021\370\305\010vR\033\321;m"
 511      67461FB6 
 511      11F8C508 
 511      76521BD1 
 511      3B6D
 512 0f48 46FA39D2 		.ascii	"F\3729\322\255H\267#\335\211\364\013\244{\220\356\345"
 512      AD48B723 
 512      DD89F40B 
 512      A47B90EE 
 512      E5
 513 0f59 E9C8D6B0 		.ascii	"\351\310\326\260=\314\274\226\034\336\310b\006\351\350"
 513      3DCCBC96 
 513      1CDEC862 
 513      06E9E8
 514 0f68 77B5FFF3 		.ascii	"w\265\377\363K\026A\327U\177\260\343?\211\373H\274\020"
 514      4B1641D7 
 514      557FB0E3 
 514      3F89FB48 
 514      BC10
 515 0f7a FA90936F 		.ascii	"\372\220\223o!\364\021\275/i\330\215\276\344\010Wx\335"
 515      21F411BD 
 515      2F69D88D 
 515      BEE40857 
 515      78DD
 516 0f8c C819AE45 		.ascii	"\310\031\256EDV:Q_\270\375Y\352\013\217\243/\274\324"
 516      44563A51 
 516      5FB8FD59 
 516      EA0B8FA3 
 516      2FBCD4
 517 0f9f 32       		.ascii	"2"
 518 0fa0 A12FD4E2 		.ascii	"\241/\324\342\3404\251\236\377\352=\310\177\035\227"
 518      E034A99E 
 518      FFEA3DC8 
 518      7F1D97
 519 0faf 2F5CB947 		.ascii	"/\\\271G\353\013\313\356\024\025\314\344|\341\252=\354"
 519      EB0BCBEE 
 519      1415CCE4 
 519      7CE1AA3D 
ARM GAS  /tmp/ccIdAxfh.s 			page 41


 519      EC
 520 0fc0 825CDB60 		.ascii	"\202\\\333`i\032\260\325,\330h\0360\253\005\271,\330"
 520      691AB0D5 
 520      2CD8681E 
 520      30AB05B9 
 520      2CD8
 521 0fd2 58DB605A 		.ascii	"X\333`Z\316\326\263`\023x\300\254\026\344\262`Sl\203"
 521      CED6B360 
 521      1378C0AC 
 521      16E4B260 
 521      536C83
 522 0fe5 A519A957 		.ascii	"\245\031\251W\210\263\016\277x\012\235\304il\372\337"
 522      88B30EBF 
 522      780A9DC4 
 522      696CFADF 
 523 0ff5 20FD0EE9 		.ascii	" \375\016\351Y\244\347\221~\317\343"
 523      59A4E791 
 523      7ECFE3
 524 1000 128EB12E 		.ascii	"\022\216\261.a\0062|$\331\001%\264\350\323\377\261:"
 524      6106327C 
 524      24D90125 
 524      B4E8D3FF 
 524      B13A
 525 1012 DE255079 		.ascii	"\336%Py\230qp\211\345`\256m\016\322X\016\"7w\323\311"
 525      98717089 
 525      E560AE6D 
 525      0ED2580E 
 525      223777D3 
 526 1027 79F50DF4 		.ascii	"y\365\015\364\205z<\243iY\253Q\312\356fK\336T\301\226"
 526      857A3CA3 
 526      6959AB51 
 526      CAEE664B 
 526      DE54C196 
 527 103b D806F36A 		.ascii	"\330\006\363j\300*\3660`\253m\203\231-\225\373\012m"
 527      C02AF630 
 527      60AB6D83 
 527      992D95FB 
 527      0A6D
 528 104d E128EAFC 		.ascii	"\341(\352\374G\244\227\221^AzU;\340\336xg\334\\\267"
 528      47A49791 
 528      5E417A55 
 528      3BE0DE78 
 528      67DC5CB7 
 529 1061 7EC414F3 		.ascii	"~\304\024\363\242\002/\256\231n\277du{\340N\216\016"
 529      A2022FAE 
 529      996EBF64 
 529      757BE04E 
 529      8E0E
 530 1073 27CDDCBA 		.ascii	"'\315\334\272\216~wI\351p(0\014\320m#j\255e\342\311"
 530      8E7E7749 
 530      E9702830 
 530      0CD06D23 
 530      6AAD65E2 
 531 1088 999A45E6 		.ascii	"\231\232E\346u<x\026+\031\246\323\020\201\202\235\267"
 531      753C7816 
 531      2B19A6D3 
 531      1081829D 
ARM GAS  /tmp/ccIdAxfh.s 			page 42


 531      B7
 532 1099 0D962698 		.ascii	"\015\226&\230~\3307\314`@\212\213#\027\341\"\306uHG"
 532      7ED837CC 
 532      60408A8B 
 532      2317E122 
 532      C6754847 
 533 10ad E080A706 		.ascii	"\340\200\247\0065\263\032\351\001\2447\220\376\214\364"
 533      35B31AE9 
 533      01A43790 
 533      FE8CF4
 534 10bc 368FC63E 		.ascii	"6\217\306>d\027:^\301*\314M\366M\231\272\232-\207f\213"
 534      64173A5E 
 534      C12ACC4D 
 534      F64D99BA 
 534      9A2D8766 
 535 10d1 E3CB64F2 		.ascii	"\343\313d\362V\366z\\'{\3356\242VcW\351\224\025\005"
 535      56F67A5C 
 535      277BDD36 
 535      A2566357 
 535      E9941505 
 536 10e5 6BE20133 		.ascii	"k\342\0013j\334\214X\251@\347\241@\347\323U\241.B\313"
 536      6ADC8C58 
 536      A940E7A1 
 536      40E7D355 
 536      A12E42CB 
 537 10f9 5C9A6633 		.ascii	"\\\232f3\374\256\270\211\006\375:\323\271\232u\246\246"
 537      FCAEB889 
 537      06FD3AD3 
 537      B99A75A6 
 537      A6
 538 110a 586682AF 		.ascii	"Xf\202\257\212\011\336/\226\343d\234\235\327;\265bj"
 538      8A09DE2F 
 538      96E3649C 
 538      9DD73BB5 
 538      626A
 539 111c DAAABA41 		.ascii	"\332\252\272A\272\311\315Xd?\301\013\271F\323bF\037"
 539      BAC9CD58 
 539      643FC10B 
 539      B946D362 
 539      461F
 540 112e 76B721BF 		.ascii	"v\267!\277\270\022_\020Z\205o\214\337F:\031\253>\015"
 540      B8125F10 
 540      5A856F8C 
 540      DF463A19 
 540      AB3E0D
 541 1141 E90CA4B3 		.ascii	"\351\014\244\263\220\226\363\210a\031\373>\371,d{q\322"
 541      9096F388 
 541      6119FB3E 
 541      F92C647B 
 541      71D2
 542 1153 EF936F58 		.ascii	"\357\223oX\276Q\302\0352\250]C\367b\033P+\327\343\227"
 542      BE51C21D 
 542      32A85D43 
 542      F7621B50 
 542      2BD7E397 
 543 1167 F876A8FA 		.ascii	"\370v\250\372\215\212\265\204\231B\250\256\376\352\001"
 543      8D8AB584 
ARM GAS  /tmp/ccIdAxfh.s 			page 43


 543      9942A8AE 
 543      FEEA01
 544 1176 1A22BEEB 		.ascii	"\032\"\276\353\"!\342q\235M%\006\302Y\005\227.F\\C_"
 544      2221E271 
 544      9D4D2506 
 544      C2590597 
 544      2E465C43 
 545 118b 9625D713 		.ascii	"\226%\327\023\307\270\353\266\254\021\345\362T\376g"
 545      C7B8EBB6 
 545      AC11E5F2 
 545      54FE67
 546 119a A593576E 		.ascii	"\245\223Wn\272\254<\257\033\357\"nm\372\257\364-\301"
 546      BAAC3CAF 
 546      1BEF226E 
 546      6DFAAFF4 
 546      2DC1
 547 11ac F6B3D2D9 		.ascii	"\366\263\322\331\010A\030\266\260F\013\265VW\337h\335"
 547      084118B6 
 547      B0460BB5 
 547      5657DF68 
 547      DD
 548 11bd 3854AE6C 		.ascii	"8T\256l\247\362\264\3206\240\266c\256\335\202\0353\005"
 548      A7F2B4D0 
 548      36A0B663 
 548      AEDD821D 
 548      3305
 549 11cf 5B641BAC 		.ascii	"[d\033\254\245\006l\037\013Vm\033\254\225\006\354\000"
 549      A5066C1F 
 549      0B566D1B 
 549      AC9506EC 
 549      00
 550 11e0 0BB6DA36 		.ascii	"\013\266\3326\230\326z\017\262`\021\333`\232\007\357"
 550      98D67A0F 
 550      B26011DB 
 550      609A07EF 
 551 11f0 91C3E5A9 		.ascii	"\221\303\345\251\265o\362\277\2344y\345\351\241\"\265"
 551      B56FF2BF 
 551      9C3479E5 
 551      E9A122B5 
 552 1200 FE3958FE 		.ascii	"\3769X\376\3668;\262\373z\222$\354\326\327!\341\013"
 552      F6383BB2 
 552      FB7A9224 
 552      ECD6D721 
 552      E10B
 553 1212 42EC4377 		.ascii	"B\354CwbH\347\357\037Q&/h\2472\265\227\007\320\"\\\274"
 553      6248E7EF 
 553      1F51262F 
 553      68A732B5 
 553      9707D022 
 554 1228 593EC6E6 		.ascii	"Y>\306\3463\316\311+\317\327+\355k!\262p4N.\366\267"
 554      33CEC92B 
 554      CFD72BED 
 554      6B21B270 
 554      344E2EF6 
 555 123d 7D928453 		.ascii	"}\222\204S\372\212\330\031\024\241d.\377\272R\211\265"
 555      FA8AD819 
 555      14A1642E 
ARM GAS  /tmp/ccIdAxfh.s 			page 44


 555      FFBA5289 
 555      B5
 556 124e 285FDFF3 		.ascii	"(_\337\363 Z,Y\232D\227,Q\260F\333`ZK\256d\301\344\273"
 556      205A2C59 
 556      9A44972C 
 556      51B046DB 
 556      605A4BAE 
 557 1266 39C02C16 		.ascii	"9\300,\026\364Le\301\312m\203i9\233\316\202\275\307"
 557      F44C65C1 
 557      CA6D8369 
 557      399BCE82 
 557      BDC7
 558 1278 039666CE 		.ascii	"\003\226f\316\331L\026l\222m0-gKX\260\231<`\026\221"
 558      D94C166C 
 558      926D302D 
 558      674B58B0 
 558      993C6016 
 559 128d EE3216EC 		.ascii	"\3562\026\354C\333`,grd\371\326f\320'\251{}T6\247.J"
 559      43DB602C 
 559      677264F9 
 559      D666D027 
 559      A97B7D54 
 560 12a5 ED02A360 		.ascii	"\355\002\243`r\364e\034\227\335\315>6\270|\321\342S"
 560      72F4651C 
 560      97DDCD3E 
 560      36B87CD1 
 560      E253
 561 12b7 7DB14453 		.ascii	"}\261DSl\267\217O\365\225\320\025l;H\212u\324~\361}"
 561      6CB78F4F 
 561      F595D015 
 561      6C3B488A 
 561      75D47EF1 
 562 12cc 173EC7C6 		.ascii	"\027>\307\306hp2\322)H\247!\235\201t\026\322\331H\347"
 562      687032D2 
 562      2948A721 
 562      9D817416 
 562      D2D948E7 
 563 12e0 235D8074 		.ascii	"#]\200t\021\322O\221.EZ\215t9\322\225Hk\220\256A\272"
 563      11D24F91 
 563      2E455A8D 
 563      7439D295 
 563      486B90AE 
 564 12f6 8E27CC1A 		.ascii	"\216'\314\032\343b\302\254\352\2739\242\"s\257W\267"
 564      E362C2AC 
 564      EABB39A2 
 564      2273AF57 
 564      B7
 565 1307 61DD5E11 		.ascii	"a\335^\021\267\355Q\303\3155z\300\204c[\255\251^\372"
 565      B7ED51C3 
 565      CD357AC0 
 565      84635BAD 
 565      A95EFA
 566 131a 2FD2B753 		.ascii	"/\322\267S\254\317lc=n\245\225\305L\350\272\004C\327"
 566      ACCF6C63 
 566      3D6EA595 
 566      C54CE8BA 
 566      0443D7
ARM GAS  /tmp/ccIdAxfh.s 			page 45


 567 132d A518B48E 		.ascii	"\245\030\264\216B\331\215F\272\011\351g<r\374H\263\241"
 567      42D98D46 
 567      BA09E967 
 567      3C72FC48 
 567      B3A1
 568 133f 1BB23A3F 		.ascii	"\033\262:?\351pu\370\236w\225\341(Q\017\010\300%\331"
 568      E97075F8 
 568      9E7795E1 
 568      28510F08 
 568      C025D9
 569 1352 C4D38AF1 		.ascii	"\304\323\212\361\346\331\370h\225.\2264\253\316v\326"
 569      E6D9F868 
 569      952E9634 
 569      ABCE76D6 
 570 1362 2C6A79AA 		.ascii	",jy\252c\321\031\336\372f\025\2115UE\036\326\303\331"
 570      63D119DE 
 570      FA661589 
 570      3555451E 
 570      D6C3D9
 571 1375 348AF71B 		.ascii	"4\212\367\033\"\242\374N\252\372\252\341\267z\270\204"
 571      22A2FC4E 
 571      AAFAAAE1 
 571      B77AB884 
 572 1385 5D753B2B 		.ascii	"]u;+\273\230\317\330\305\002\264\213\205h\027[\321\026"
 572      BB98CFD8 
 572      C502B48B 
 572      8568175B 
 572      D116
 573 1397 B621DD89 		.ascii	"\266!\335\211\364\013\036\273\230\035\263\013\215\370"
 573      F40B1EBB 
 573      981DB30B 
 573      8DF8
 574 13a5 152757E7 		.ascii	"\025'W\347\252\324j\"ng\226Z\333>n\257\211\217K\304"
 574      AAD46A22 
 574      6E67965A 
 574      DB3E6EAF 
 574      898F4BC4 
 575 13b9 EA1E9731 		.ascii	"\352\036\2271\253F3\326]\325\314\207\231\00525g\366"
 575      AB4633D6 
 575      5DD5CC87 
 575      99053235 
 575      67F6
 576 13cb B5A1CBB4 		.ascii	"\265\241\313\264\366\343\270f\316=\211\247\276\265@"
 576      F6E3B866 
 576      CE3D89A7 
 576      BEB540
 577 13da 7EF14B34 		.ascii	"~\361K4\365\203\372\261\315u\272?\354A\256\261\315\255"
 577      F583FAB1 
 577      CD75BA3F 
 577      EC41AEB1 
 577      CDAD
 578 13ec AD7393DD 		.ascii	"\255s\223\335\305\366\323{\270v\261=\212\\\036\323s"
 578      C5F6D37B 
 578      B876B13D 
 578      8A5C1ED3 
 578      73
 579 13fd B99F7279 		.ascii	"\271\237ry\214\213\313/\023\355b\313\037;6]8\375\227"
ARM GAS  /tmp/ccIdAxfh.s 			page 46


 579      8C8BCB2F 
 579      13ED62CB 
 579      1F3B365D 
 579      38FD97
 580 1410 4F51F0A7 		.ascii	"OQ\360\247\260\037\276\254\023\274_t\351BG\2276tt\371"
 580      B01FBEAC 
 580      13BC5F74 
 580      E9424797 
 580      367474F9 
 581 1424 62092574 		.ascii	"b\011%t4\263\222:\227\305^\221\312v\215\321\357\247"
 581      34B3923A 
 581      97C55E91 
 581      CA768DD1 
 581      EFA7
 582 1436 68B95C1B 		.ascii	"h\271\\\033\335\235t1\363\036\347EU\300\311yP0\305\007"
 582      DD9D7431 
 582      F31EE745 
 582      55C0C979 
 582      5030C507 
 583 144a 71BEC96A 		.ascii	"q\276\311j3\233S.\363Ft\316\252\232\207\177A5\317\262"
 583      339B532E 
 583      F34674CE 
 583      AA9A877F 
 583      4135CFB2 
 584 145e D5ACB35D 		.ascii	"\325\254\263]\3154\266\232\211w\220l\264\360\361?ZU"
 584      CD34B69A 
 584      8977906C 
 584      B4F0F13F 
 584      5A55
 585 1470 F1888D1D 		.ascii	"\361\210\215\0356\177`;\213\353h{\011\252\224h[\340"
 585      367F603B 
 585      8BEB687B 
 585      09AA9468 
 585      5BE0
 586 1482 64ABD460 		.ascii	"d\253\324`P%\256*\\q\351\226h\334\262]\215\177\241f"
 586      5025AE2A 
 586      5C71E996 
 586      68DCB25D 
 586      8D7FA166 
 587 1496 6E7068C6 		.ascii	"nph\306\366\006\305\313\347\234\232\257\0140o\243\227"
 587      F606C5CB 
 587      E79C9AAF 
 587      0C306FA3 
 587      97
 588 14a7 1872AFDE 		.ascii	"\030r\257\336K$\261\212\226\327F\256\26362\372^\016"
 588      4B24B18A 
 588      96D746AE 
 588      B33632FA 
 588      5E0E
 589 14b9 E15A6D78 		.ascii	"\341Zmx\313\323\272\255\004<\314m!\340\3336Zs\231\233"
 589      CBD3BAAD 
 589      043CCC6D 
 589      21E0DB36 
 589      5A73999B 
 590 14cd A95685ED 		.ascii	"\251V\205\355j\331\264\031+\207\365\216U\225L\374rR"
 590      6AD9B419 
 590      2B87F58E 
ARM GAS  /tmp/ccIdAxfh.s 			page 47


 590      55954CFC 
 590      7252
 591 14df 551EC556 		.ascii	"U\036\305Vy\"O\225\177\311\026\270VU\036gUe\023\037"
 591      79224F95 
 591      7FC916B8 
 591      56551E67 
 591      5565131F 
 592 14f3 9D5495DF 		.ascii	"\235T\225\337g\253<\335v\225\323\004\355'\366p\340\004"
 592      67AB3CDD 
 592      7695D304 
 592      ED27F670 
 592      E004
 593 1505 06926790 		.ascii	"\006\222g\220^DZ\217\364\032\322\241nBG\"\255ps\004"
 593      5E445A8F 
 593      F41AD2A1 
 593      6E424722 
 593      AD707304 
 594 1519 9B47D8BE 		.ascii	"\233G\330\276\345\226\250FR\311t\241r\3446\031\331\363"
 594      E596A846 
 594      52C974A1 
 594      72E43619 
 594      D9F3
 595 152b 2E4A9F50 		.ascii	".J\237P\177\2435\276\2021\305M\"\277#\367\032F~Vk\322"
 595      7FA335BE 
 595      8231C54D 
 595      22BF23F7 
 595      1A467E56 
 596 1541 CF6296E9 		.ascii	"\317b\226\351n]H\265\262\0347\206#\327\023\207T5\234"
 596      6E5D48B5 
 596      B21C3786 
 596      23D71387 
 596      54359C
 597 1554 3B405645 		.ascii	";@VE\027\\\334-\304\226\223\336\"\313Ig#\377\015\306"
 597      175CDC2D 
 597      C49693DE 
 597      22CB4967 
 597      23FF0DC6 
 598 1568 FC9B6348 		.ascii	"\374\233cHB\371}\370\014J\317\177\203?\215^\345Xv\242"
 598      42F97DF8 
 598      0C4ACF7F 
 598      833F8D5E 
 598      E55876A2 
 599 157c AEABAD72 		.ascii	"\256\253\255r\223G\024\023\243\200I\205@\221\237q\017"
 599      93471413 
 599      A3804985 
 599      40919F71 
 599      0F
 600 158d 64BA4677 		.ascii	"d\272Fw\206m\2544\015\326\373[\324\325\325tA\364B\036"
 600      866DAC34 
 600      0DD6FB5B 
 600      D4D5D574 
 600      41F4421E 
 601 15a1 3C8B11E1 		.ascii	"<\213\021\341\004\362\364\316\316\373\037\333\225\367"
 601      04F2F4CE 
 601      CEFB1FDB 
 601      95F7
 602 15af 3F16BB71 		.ascii	"?\026\273q2\375\276\177A\317%\011\021\333\265\320H\245"
ARM GAS  /tmp/ccIdAxfh.s 			page 48


 602      32FDBE7F 
 602      41CF2509 
 602      11DBB5D0 
 602      48A5
 603 15c1 6E62FDE9 		.ascii	"nb\375\351V\352\322Z\312\330v\036D\243\216\315\350\303"
 603      56EAD25A 
 603      CAD8761E 
 603      44A38ECD 
 603      E8C3
 604 15d3 5A138C4B 		.ascii	"Z\023\214K\335\270d\031\235\301B\244\037#]\204t\031"
 604      DDB86419 
 604      9DC142A4 
 604      1F235D84 
 604      7419
 605 15e5 8F7BA862 		.ascii	"\217{\250b\335\330\376\373\324\366f\323\274\214Y\235"
 605      DDD8FEFB 
 605      D4F666D3 
 605      BC8C599D 
 606 15f5 CEB03A13 		.ascii	"\316\260:\023Y\235\305\262$\011G\261<;\356H+\354\232"
 606      599DC5B2 
 606      240947B1 
 606      3C3BEE48 
 606      2BEC9A
 607 1608 33371EAA 		.ascii	"37\036\252'\317z\270\367F\215\334pK~q\245\233l\213z"
 607      27CF7AB8 
 607      F7468DDC 
 607      704B7E71 
 607      A59B6C8B 
 608 161d 4A67319C 		.ascii	"Jg1\234\333\242\256v\353\266E\255\247\333\242\222\353"
 608      DBA2AE76 
 608      EBB645AD 
 608      A7DBA292 
 608      EB
 609 162e 160D5AD9 		.ascii	"\026\015Z\331\275\364\302}\361\333\2426\334g\270-\352"
 609      BDF4C27D 
 609      F1DBA236 
 609      DC67B82D 
 609      EA
 610 163f ADFBB4DB 		.ascii	"\255\373\264\333\242*R\260\334\3504\306\234_\\\203\""
 610      A22A52B0 
 610      DCE834C6 
 610      9C5F5C83 
 610      22
 611 1650 5FEBB6DE 		.ascii	"_\353\266\336\350\364\240\365C\036\363\025\307\221\246"
 611      E8F4A0F5 
 611      431EF315 
 611      C791A6
 612 165f ADE40D02 		.ascii	"\255\344\015\002\336\365\3003\346\\P\326HoFw\272\256"
 612      DEF5C033 
 612      E65C50D6 
 612      486F4677 
 612      BAAE
 613 1671 5562776A 		.ascii	"Ubwj\200\003n\007w\326\332\202 ;\355\202H\302A\314\262"
 613      80036E07 
 613      77D6DA82 
 613      203BED82 
 613      48C241CC 
ARM GAS  /tmp/ccIdAxfh.s 			page 49


 614 1686 5DEF93D7 		.ascii	"]\357\223\327\225\3430};\207W&[\020\323\227\204\324"
 614      95E3307D 
 614      3B875726 
 614      5B10D397 
 614      84D4
 615 1698 B7274E46 		.ascii	"\267'NF1\225B\237g\305\227\330-\327\322\205\013t\240"
 615      3195429F 
 615      67C597D8 
 615      2DD7D285 
 615      0B74A0
 616 16ab 7E4E0F66 		.ascii	"~N\017f\323\217\356\217\276\010t\030\377\221\240\336"
 616      D38FEE8F 
 616      BE087418 
 616      FF91A0DE 
 617 16bb 369EA691 		.ascii	"6\236\246\221E\016P\346(\330\317<`\026\017z\016\263"
 617      450E50E6 
 617      28D8CF3C 
 617      60160F7A 
 617      0EB3
 618 16cd 60435BDB 		.ascii	"`C[\333\005\323r\366\025\013\366\016\017\230\305\203"
 618      05D372F6 
 618      150BF60E 
 618      0F98C583 
 619 16dd 9EE34A77 		.ascii	"\236\343Jw\226\344N\267_i\343N\375\366\264&l\341\";"
 619      96E44EB7 
 619      5F69E34E 
 619      FDF6B426 
 619      6CE1223B 
 620 16f1 3713A0F1 		.ascii	"7\023\240\361\355\214;\231\006@G0&\030\327Z\333\006"
 620      ED8C3B99 
 620      06404730 
 620      2618D75A 
 620      DB06
 621 1703 744513C6 		.ascii	"tE\023\306\314\212>\3516\337]N\367\033\304\270\266\005"
 621      CC8A3EE9 
 621      36DF5D4E 
 621      F71BC4B8 
 621      B605
 622 1715 ACD5D6C9 		.ascii	"\254\325\326\311r\315+\"\363x\340\322\014\364e\364a"
 622      72CD2B22 
 622      F378E0D2 
 622      0CF465F4 
 622      61
 623 1726 1BB45FDC 		.ascii	"\033\264_\334\211\216o\027v\202\273\221\326\"\335\207"
 623      898E6F17 
 623      7682BB91 
 623      D622DD87 
 624 1736 F400D283 		.ascii	"\364\000\322\203H\017#=\305\366J\377\036TI\370\244\265"
 624      480F233D 
 624      C5F64AFF 
 624      1E5449F8 
 624      A4B5
 625 1748 AEAFD33A 		.ascii	"\256\257\323:\246D\355P\306\316n\274\014\003\\~\217"
 625      A644ED50 
 625      C6CE6EBC 
 625      0C035C7E 
 625      8F
ARM GAS  /tmp/ccIdAxfh.s 			page 50


 626 1759 BBFF41EA 		.ascii	"\273\377A\352q\277EgY\2553\024j\226\377\256\372n\342"
 626      71BF4567 
 626      59AD3314 
 626      6A96FFAE 
 626      FA6EE2
 627 176c AAAFE9DB 		.ascii	"\252\257\351\333v\321\372V\266c\237\375\035\021\255"
 627      76D1FA56 
 627      B6639FFD 
 627      1D11AD
 628 177b 9EFD9D77 		.ascii	"\236\375\235w\337\251\244\324gz$\376\3223b\374\354\316"
 628      DFA9A4D4 
 628      677A24FE 
 628      D23362FC 
 628      ECCE
 629 178d 74D3145C 		.ascii	"t\323\024\\\303\340pStI\330\305\007W\3534\3033\032\340"
 629      C3E07053 
 629      7449D8C5 
 629      0757EB34 
 629      C3331AE0 
 630 17a1 1A6DEC1C 		.ascii	"\032m\354\034\035K\264\211\251t\365\315\353\243\224"
 630      1D4BB489 
 630      A974F5CD 
 630      EBA394
 631 17b0 B7FC2EA1 		.ascii	"\267\374.\241N\367\350t\232\020\210\010\247^\337\371"
 631      4EF7E874 
 631      9A108808 
 631      A75EDFF9 
 632 17c0 CD38BD4D 		.ascii	"\3158\275M\304\221Z}\342\356oXYd\351\351"
 632      C4915A7D 
 632      E2EE6F58 
 632      5964E9E9 
 633 17d0 6DEACA29 		.ascii	"m\352\312)\262v\027\354\010\3374\252OnX\002\200\313"
 633      B27617EC 
 633      08DF34AA 
 633      4F6E5802 
 633      80CB
 634 17e2 4E6FA3A3 		.ascii	"No\243\243\034\012\267\3156\\\232\006\356\237Z\270\237"
 634      1C0AB7CD 
 634      365C9A06 
 634      EE9F5AB8 
 634      9F
 635 17f3 250E388B 		.ascii	"%\0168\213\005\345+\264p\233x\270\263XR\276J\013\367"
 635      05E52BB4 
 635      709B78B8 
 635      B35852BE 
 635      4A0BF7
 636 1806 190F9CC5 		.ascii	"\031\017\234\305\242\362\325,\234$\034G\203\260\003"
 636      A2F2D52C 
 636      9C241C47 
 636      83B003
 637 1815 A7E56EAD 		.ascii	"\247\345n\255\026\356\024\017\234Q\257j\364a-\317/^"
 637      16EE140F 
 637      9C51AF6A 
 637      F4612DCF 
 637      2F5E
 638 1827 41FFD280 		.ascii	"A\377\322\200\276\343*\322F\244\327\220^Gz\003\351\317"
 638      BEE32AD2 
ARM GAS  /tmp/ccIdAxfh.s 			page 51


 638      46A4D790 
 638      5E477A03 
 638      E9CF
 639 1839 3C03991F 		.ascii	"<\003\231\037\331\201\314w\372Fj\304v\255\345\213\230"
 639      D981CC77 
 639      FA466AC4 
 639      76ADE58B 
 639      98
 640 184a 1ABE0F32 		.ascii	"\032\276\0172\217\353\017\341\343\372\3038\033S\211"
 640      8FEB0FE1 
 640      E3FAC338 
 640      1B5389
 641 1859 FCAD40BA 		.ascii	"\374\255@\272\011\3517H\317!\375\036\351\017<\334\357"
 641      09E93748 
 641      CF21FD1E 
 641      E90F3CDC 
 641      EF
 642 186a 3379CEC6 		.ascii	"3y\316\306\372>\346\211`E\264M\337\245\000\310\036\273"
 642      FA3EE689 
 642      6045B44D 
 642      DFA500C8 
 642      1EBB
 643 187c 8F048778 		.ascii	"\217\004\207x\214\037\011\336\231\200\325&\267-VG\212"
 643      8C1F09DE 
 643      9980D526 
 643      B72D5647 
 643      8A
 644 188d 5A60BF58 		.ascii	"Z`\277Xf\233\325a&\254\266L\300\352P\217-V\343\3779"
 644      669BD561 
 644      26ACB64C 
 644      C0EA508F 
 644      2D56E3FF 
 645 18a2 A6DC36AB 		.ascii	"\246\3346\253#LXm\221\200\325\341&\254\362\276b4|*\016"
 645      234C586D 
 645      9180D5E1 
 645      26ACF2BE 
 645      62347C2A 
 646 18b7 8B467948 		.ascii	"\213FyH\257\360}\342^A\013\"\011W1\313\030\217\256g"
 646      AFF07DE2 
 646      5E410B22 
 646      095731CB 
 646      188FAE67 
 647 18cb 9845A6AA 		.ascii	"\230E\246\252\310\325\304SU\325\327\231G\360p3>\016"
 647      C8D5C453 
 647      55D5D799 
 647      47F07033 
 647      3E0E
 648 18dd 25599512 		.ascii	"%Y\225\022\355m\370\035Y~QqDd\331\201$\334\216\362\227"
 648      ED6DF81D 
 648      597E5171 
 648      4464D981 
 648      24DC8EF2 
 649 18f2 449F0070 		.ascii	"D\237\000p+\027)\023i\263q\264Pv?\007\234\305 \253\346"
 649      2B172913 
 649      69B371B4 
 649      50763F07 
 649      9CC520AB 
ARM GAS  /tmp/ccIdAxfh.s 			page 52


 650 1907 1CD75ADF 		.ascii	"\034\327Z\337\252GT\254\271\232\265\276\233~GW;NBu\275"
 650      AA4754AC 
 650      B99AB5BE 
 650      9B7E4757 
 650      3B4E4275 
 651 191c 737FE251 		.ascii	"s\177\342Q\254\026\210hc\212^W\373\351\277\272N\341"
 651      AC168868 
 651      638A5E57 
 651      FBE9BFBA 
 651      4EE1
 652 192e D2D601BA 		.ascii	"\322\326\001\272Fk\014\012\367=d`\212\015\341j\301\016"
 652      466B0C0A 
 652      F73D6460 
 652      8A0DE16A 
 652      C10E
 653 1940 6DDD4C55 		.ascii	"m\335LU?\307\025S\375\024\033\252\327\352\352\360Vf"
 653      3FC71553 
 653      FD141BAA 
 653      D7EAEAF0 
 653      5666
 654 1952 29EAFB7A 		.ascii	")\352\373z\336\022.E\325,\343\214|\305\202M\262\015"
 654      DE122E45 
 654      D52CE38C 
 654      7CC5824D 
 654      B20D
 655 1964 F68C06EC 		.ascii	"\366\214\006\354\370\2101\312\030\206.n\233\312#8\013"
 655      F88831CA 
 655      18862E6E 
 655      9BCA2338 
 655      0B
 656 1975 333A115B 		.ascii	"3:\021[)\347\027\227\351\305fs\240~\211]v7\213\2073"
 656      29E71797 
 656      E9C56673 
 656      A07E895D 
 656      76378B87 
 657 198a 8B81FA65 		.ascii	"\213\201\372e\026l\276m0-gWX\260Ox\300,\006\352\327"
 657      166CBE6D 
 657      302D6757 
 657      58B04F78 
 657      C02C06EA 
 658 199f 58B065B6 		.ascii	"X\260e\266\301\264\234\335\210\333\336N\263\2760\316"
 658      C1B49CDD 
 658      88DBDE4E 
 658      B3BE30CE 
 659 19af 4D2FF630 		.ascii	"M/\3660Q\306\032\236\302\323\314j\002a\367\216f\270"
 659      51C61A9E 
 659      C2D3CC6A 
 659      0261F78E 
 659      66B8
 660 19c1 048A2C59 		.ascii	"\004\212,Y\224\204\315z4\343\201E\232Ae\214>\254\203"
 660      9484CD7A 
 660      34E38145 
 660      9A41658C 
 660      3EAC83
 661 19d4 F08B533D 		.ascii	"\360\213S=\270\313\212\207\004$3\220\316DZ\205t\016"
 661      B8CB8A87 
 661      04243390 
ARM GAS  /tmp/ccIdAxfh.s 			page 53


 661      CE445A85 
 661      740E
 662 19e6 D2B948E7 		.ascii	"\322\271H\347!\375\020\351B\244\037#]\204t\211\207#"
 662      21FD10E9 
 662      42A41F23 
 662      5D847489 
 662      8723
 663 19f8 9899C80A 		.ascii	"\230\231\310\012i\253mO\253\321P\335\274\311c5\257a"
 663      69AB6D4F 
 663      ABD150DD 
 663      BCC96335 
 663      AF61
 664 1a0a EDE2C1B3 		.ascii	"\355\342\301\2630\354u\3474\013\317\016\350\341\214"
 664      30EC75E7 
 664      340BCF0E 
 664      E8E18C
 665 1a19 3C02FF6B 		.ascii	"<\002\377k\230c\030\231\277\2072\037\213r\253@:\016"
 665      98631899 
 665      BF87321F 
 665      8B72AB40 
 665      3A0E
 666 1a2b E904A4D5 		.ascii	"\351\004\244\325H\227\363\310s\244\2750\246\":\320~"
 666      4897F3C8 
 666      73A4BD30 
 666      A6223AD0 
 666      7E
 667 1a3c 44015865 		.ascii	"D\001Xe;\214\2511\011c\036N\300\352J{\254>\243\346\367"
 667      3B8CA931 
 667      09631E4E 
 667      C0EA4A7B 
 667      AC3EA3E6 
 668 1a51 28F9D7D8 		.ascii	"(\371\327\330\346t\255\011\247\356\004\234\256\346\017"
 668      E674AD09 
 668      A7EE049C 
 668      AEE60F
 669 1a60 B8DE54F3 		.ascii	"\270\336T\3632\357\247\327\257\330\371W\332\207\257"
 669      32EFA7D7 
 669      AFD8F957 
 669      DA87AF
 670 1a6f C73EFC83 		.ascii	"\307>\374\203_'\354\30350\204\205\215\372\036\374$}"
 670      5F27ECC3 
 670      35308485 
 670      8DFA1EFC 
 670      247D
 671 1a81 237D2357 		.ascii	"#}#W\017\336\270[\373~\342\022\344`c\322\235x\305\330"
 671      0FDEB85B 
 671      FB7EE212 
 671      E46063D2 
 671      9D78C5D8 
 672 1a95 E87F3540 		.ascii	"\350\1775@\304\215\357\230mL\272\013\257\034\313\374"
 672      C48DEF98 
 672      6D4CBA0B 
 672      AF1CCBFC 
 673 1aa5 F1C30A3D 		.ascii	"\361\303\012=g\366\336\304\210,a\301V\363\200Y\276\327"
 673      67F6DEC4 
 673      882C61C1 
 673      56F38059 
ARM GAS  /tmp/ccIdAxfh.s 			page 54


 673      BED7
 674 1ab7 C77C581D 		.ascii	"\307|X\035\300\010\016\033\354fl\230\237#\335\202t\033"
 674      C0080E1B 
 674      EC666C98 
 674      9F23DD82 
 674      741B
 675 1ac9 4F235DC7 		.ascii	"O#]\307oO\206S;\267\326\324\027\255\301\331\272\235"
 675      6F4F8653 
 675      3BB7D6D4 
 675      17ADC1D9 
 675      BA9D
 676 1adb 6850E56D 		.ascii	"hP\345ml\316\354\370\305/<Di\273\365Vuk\026Z\325n.\253"
 676      6CCEECF8 
 676      C52F3C44 
 676      69BBF556 
 676      756B165A 
 677 1af3 9A78FAAC 		.ascii	"\232x\372\254\303\346\277\254\356?}\241\025m\012{=\370"
 677      C3E6BFAC 
 677      EE3F7DA1 
 677      156D0A7B 
 677      3DF8
 678 1b05 47AB3ACE 		.ascii	"G\253:\3169\237\253\035\360\350\236\253\215\247\317"
 678      399FAB1D 
 678      F0E89EAB 
 678      8DA7CF
 679 1b14 D5C8F5C4 		.ascii	"\325\310\365\304\317\325\366\266\211\177\256v\274\215"
 679      CFD5F6B6 
 679      897FAE76 
 679      BC8D
 680 1b22 E173B533 		.ascii	"\341s\2653m\354?W\2131\347\027\277D39\350\261~\256\266"
 680      6DEC3F57 
 680      8B31E717 
 680      BF443339 
 680      E8B17EAE 
 681 1b37 DB4690A9 		.ascii	"\333F\220\251Q\001\261\204\221\342\3363\303\345%o\332"
 681      5101B184 
 681      91E2DE33 
 681      C3E5256F 
 681      DA
 682 1b48 51427D6B 		.ascii	"QB}ke\213\011T\302\345\344\224P\247W\202\362\237\217"
 682      658B0954 
 682      C2E5E494 
 682      50A75782 
 682      F29F8F
 683 1b5b 755C4A90 		.ascii	"u\\J\220\037\210W\302\273\017\030*a\372\003\366\225"
 683      1F8857C2 
 683      BB0F182A 
 683      61FA03F6 
 683      95
 684 1b6c 50C728E1 		.ascii	"P\307(\341\024*\341\264\211\022$a\321\003\242M%h\336"
 684      142AE1B4 
 684      89122461 
 684      D103A24D 
 684      2568DE
 685 1b7f FA0325EC 		.ascii	"\372\003%\354\037\225\204\022n*\177\274y\036\225\260"
 685      1F958412 
 685      6E2A7FBC 
ARM GAS  /tmp/ccIdAxfh.s 			page 55


 685      791E95B0 
 686 1b8f FC81A494 		.ascii	"\374\201\244\224pQ\257\204CT\011\027\271\224\260\331"
 686      7051AF84 
 686      43540917 
 686      B994B0D9 
 687 1b9f 4009B5C6 		.ascii	"@\011\265\306J8\231\204\022.2J\370\001\225\360\243\251"
 687      4A389984 
 687      122E324A 
 687      F80195F0 
 687      A3A9
 688 1bb1 122ED956 		.ascii	"\022.\331V\202\346mI\322\022F\211\247>,\227\215\377"
 688      82E66D49 
 688      D2124689 
 688      A73E2C97 
 688      8DFF
 689 1bc3 11A7CA6A 		.ascii	"\021\247\312j\335\266\362\250\254\376\244\341\237i\312"
 689      DDB6F2A8 
 689      ACFEA4E1 
 689      9F69CA
 690 1bd2 BAC5DBD7 		.ascii	"\272\305\333\327=\206\233\310ho#7\336\324{\327CtG\252"
 690      3D869BC8 
 690      686F2337 
 690      DED47BD7 
 690      437447AA 
 691 1be6 9B5CDEF5 		.ascii	"\233\\\336\365\344\211_\364w\232M\036\335\342\266\035"
 691      E4895FF4 
 691      779A4D1E 
 691      DDE2B61D 
 692 1bf6 1EFEBFD3 		.ascii	"\036\376\277\323\2749\015\037\032\336\366\220\021\377"
 692      BC390D1F 
 692      1ADEF690 
 692      11FF
 693 1c04 359D65EA 		.ascii	"5\235e\352\206@\244 3&\312\274\346\017\015u\277I\302"
 693      8640A420 
 693      3326CABC 
 693      E60F0D75 
 693      BF49C2
 694 1c17 90074545 		.ascii	"\220\007EEh\311\005%\215'\324 \207\362=\3326^\232\006"
 694      68C90525 
 694      8D27D420 
 694      87F23DDA 
 694      365E9A06 
 695 1c2b 4FD98E8A 		.ascii	"O\331\216\212\202M\344\001\263\030\275O:\251\037<\362"
 695      824DE401 
 695      B318BD4F 
 695      3AA91F3C 
 695      F2
 696 1c3c AB72B4D7 		.ascii	"\253r\264\327@\225\321/\347%\276\205\210\212j\247\315"
 696      4095D12F 
 696      E725BE85 
 696      888A6AA7 
 696      CD
 697 1c4d 44D5BEE3 		.ascii	"D\325\276\343\305\177)y\320R\265\244`3\246*,T[\241W"
 697      C57F2979 
 697      D052B5A4 
 697      6033A62A 
 697      2C545BA1 
ARM GAS  /tmp/ccIdAxfh.s 			page 56


 698 1c62 ED02DBD2 		.ascii	"\355\002\333\322\323\252b\326\311_\324\026&X\010\220"
 698      D3AA62D6 
 698      C95FD416 
 698      26580890 
 699 1c72 7B155964 		.ascii	"{\025Yd\377\264{\210\344&{q2A'\271\177\333\342g\245"
 699      FFB47B88 
 699      E4267B71 
 699      324127B9 
 699      7FDBE267 
 700 1c87 F035546D 		.ascii	"\3605Tm\343Qm\353\255\3256\301Bm\323-\3246]\257\266"
 700      E3516DEB 
 700      ADD536C1 
 700      426DD32D 
 700      D4365DAF 
 701 1c9c 6D3C6AB3 		.ascii	"m<j\263\030?\327h\266E\361\213\237a\320i\007Ok\006\265"
 701      183FD768 
 701      B645F18B 
 701      9F61D069 
 701      074F6B06 
 702 1cb1 B3E2861D 		.ascii	"\263\342\206\0357\255\203{\213\271\241\303,\330V=g\011"
 702      37AD837B 
 702      8BB9A1C3 
 702      2CD8563D 
 702      6709
 703 1cc3 C1B4EFEA 		.ascii	"\301\264\357\352_b\301\266\333\006K\213\323\005\355"
 703      5F62C1B6 
 703      DB064B8B 
 703      D305ED
 704 1cd2 347FC64E 		.ascii	"4\177\306N\363\026\216,\206{\011\035\201t\024\322qH"
 704      F3168E2C 
 704      867B091D 
 704      817414D2 
 704      7148
 705 1ce4 67229D85 		.ascii	"g\"\235\205\264\012\351l\257\346\351\372\3368S\245\035"
 705      B40AE96C 
 705      AFE6E9FA 
 705      DE3853A5 
 705      1D
 706 1cf5 10535AAC 		.ascii	"\020SZ\254\247\022~iyf\206\327\350\211\333\226dw\322"
 706      A7127E69 
 706      796686D7 
 706      E889DB96 
 706      6477D2
 707 1d08 AEF9F8E9 		.ascii	"\256\371\370\351K\016\345\251\362\217\270\366\344\266"
 707      4B0EE5A9 
 707      F28FB8F6 
 707      E4B6
 708 1d16 9B03D0C2 		.ascii	"\233\003\320\302=7\300PF\001\244#\344c\017\2126\001"
 708      3D37C050 
 708      4601A423 
 708      E4630F8A 
 708      3601
 709 1d28 B51CDE8A 		.ascii	"\265\034\336\212qH\266\030\202\250\301\311\301\241E"
 709      7148B618 
 709      82A8C1C9 
 709      C1A145
 710 1d37 5B9AF0B5 		.ascii	"[\232\360\265\362\214\203\302\335\264\015\307\3607\254"
ARM GAS  /tmp/ccIdAxfh.s 			page 57


 710      F28C83C2 
 710      DDB40DC7 
 710      F037AC
 711 1d46 2C32E3EB 		.ascii	",2\343\353\263\016\374\217T\345\317\233\255v^\360\213"
 711      B30EFC8F 
 711      54E5CF9B 
 711      AD765EF0 
 711      8B
 712 1d57 17705B9B 		.ascii	"\027p[\233\304\373(|\243\227\032o\2334\372\260\303S"
 712      C4FB287C 
 712      A3971A6F 
 712      9B34FAB0 
 712      C353
 713 1d69 BFB8079B 		.ascii	"\277\270\007\233B-\232\3461\244\347\220^E\372\001\032"
 713      422D9AE6 
 713      31A4E790 
 713      5E45FA01 
 713      1A
 714 1d7a E25CA4F3 		.ascii	"\342\\\244\363\221~\210t\001\217i\356\2607\021U\033"
 714      917E8874 
 714      018F69EE 
 714      B0371155 
 714      1B
 715 1d8b 0DF47EAF 		.ascii	"\015\364~\257\000|\342\265;\023\265\310k<\023\365\273"
 715      007CE2B5 
 715      3B13B5C8 
 715      6B3C13F5 
 715      BB
 716 1d9c 04AC7EEC 		.ascii	"\004\254~\354\265fu\344\327\352\226\021\221ry\2448d"
 716      B56675E4 
 716      D7EA9611 
 716      917279A4 
 716      3864
 717 1dae 699B28D6 		.ascii	"i\233(\326\363\254\325\306\376\272\356w\037\341D\302"
 717      F3ACD5C6 
 717      FEBAEE77 
 717      1FE144C2 
 718 1dbe 12ECD5CE 		.ascii	"\022\354\325\316\353\\\205\035\254\232\367\366lT\336"
 718      EB5C851D 
 718      AC9AF7F6 
 718      6C54DE
 719 1dcd 0FAA46B0 		.ascii	"\017\252F\260\206\344\301\252\032\366\340#\312\025\010"
 719      86E4C1AA 
 719      1AF6E023 
 719      CA1508
 720 1ddc 743BCE81 		.ascii	"t;\316\201\371t]\255Ok\231>_,\321\244~\364\203\223\177"
 720      F9745DAD 
 720      4F6B993E 
 720      5F2CD1A4 
 720      7EF48393 
 721 1df1 631EA562 		.ascii	"c\036\245b\221\200Z\263\303\3524\336\247\266-\245\306"
 721      91805AB3 
 721      C3EA34DE 
 721      A7B62DA5 
 721      C6
 722 1e02 C45276A8 		.ascii	"\304Rv\250\274\231e\\\0343\225\207\204\231r]E]\365\215"
 722      BC99655C 
ARM GAS  /tmp/ccIdAxfh.s 			page 58


 722      1C339587 
 722      8499725D 
 722      455DF58D 
 723 1e16 9BAD2797 		.ascii	"\233\255'\227Um\223/\221\350\203\276\355&\011\025\017"
 723      556D932F 
 723      91E883BE 
 723      ED260915 
 723      0F
 724 1e27 69A5ABD6 		.ascii	"i\245\253\326u\215Wb/\020\214\310\245\272\206\033\027"
 724      758D5762 
 724      2F108CC8 
 724      A5BA861B 
 724      17
 725 1e38 5A7D4CD6 		.ascii	"Z}L\326\254\313\267\233\336\0362T\324\005aN\363\212"
 725      ACCBB79B 
 725      DE1E3254 
 725      D405614E 
 725      F38A
 726 1e4a ACF39AAF 		.ascii	"\254\363\232\257z\344}Md\335mu\346\"\342\305\211\257"
 726      7AE47D4D 
 726      64DD6D75 
 726      E622E2C5 
 726      89AF
 727 1e5c 34C3892F 		.ascii	"4\303\211/\353\277<\331\354\325\015\313\226\323\215"
 727      EBBF3CD9 
 727      ECD50DCB 
 727      96D38D
 728 1e6b 8FC8758E 		.ascii	"\217\310u\216wD\266|\302\375r\260n;\366ii\306/\007k"
 728      7744B67C 
 728      C2FD72B0 
 728      6E3BF669 
 728      69C62F07 
 729 1e80 6EF38BDB 		.ascii	"n\363\213\333\274\304\265o\327s9^Yu\314\305\345\304"
 729      BCC4B56F 
 729      D773395E 
 729      5975CCC5 
 729      E5C4
 730 1e92 2DCA23EC 		.ascii	"-\312#\354\223\370b\"}\035\226dMjhEW\241\321wO\325\227"
 730      93F86222 
 730      7D1D9664 
 730      4D6A6845 
 730      57A1D177 
 731 1ea9 4EED80A5 		.ascii	"N\355\200\245\031\201\375\200`\227]\034`\211^\367T\337"
 731      1981FD80 
 731      60975D1C 
 731      60895EF7 
 731      54DF
 732 1ebb BF6CB40D 		.ascii	"\277l\264\015\226\246\023_,\010\332\211\375\307.\244"
 732      96A6135F 
 732      2C08DA89 
 732      FDC72EA4 
 733 1ecb 5F20DDCD 		.ascii	"_ \335\315\323\227l\361\306\275B\265\331\276\330\215"
 733      D3976CF1 
 733      C6BD42B5 
 733      D9BED88D 
 734 1edb 3EACE142 		.ascii	">\254\341B(\355%\335\341\347<,m\210\261\024\035\000"
 734      28ED25DD 
ARM GAS  /tmp/ccIdAxfh.s 			page 59


 734      E1E73C2C 
 734      6D88B114 
 734      1D00
 735 1eed 9DD0EE31 		.ascii	"\235\320\3561.\011\325\272\226\364\250\360\201,\217"
 735      2E09D5BA 
 735      96F4A8F0 
 735      812C8F
 736 1efc C3E67E9E 		.ascii	"\303\346~\236\310\230\302H\302Z\274o\255\367!\303\342"
 736      C898C248 
 736      C25ABC6F 
 736      ADF721C3 
 736      E2
 737 1f0d 94C26866 		.ascii	"\224\302hfy\362\226\324\012\221\226%\011\221\004\031"
 737      79F296D4 
 737      0A919625 
 737      09910419 
 738 1f1d 158E7E2B 		.ascii	"\025\216~+\314#\355\343\3207\275_T\246\245\3143)\365"
 738      CC23EDE3 
 738      D037BD5F 
 738      54A6A5CC 
 738      3329F5
 739 1f30 AB357454 		.ascii	"\2535tTS\346\217Y(\236ZVE=\225\336OY\014\026\017)~*"
 739      53E68F59 
 739      289E5A56 
 739      453D95DE 
 739      4F590C16 
 740 1f48 36329384 		.ascii	"62\223\204]iz\037\211|B\237\273@v \032\256\374\002>"
 740      5D697A1F 
 740      897C429F 
 740      BB407620 
 740      1AAEFC02 
 741 1f5d 350A3B6C 		.ascii	"5\012;l\300Y]d\326;cZ\217\254\032\032ijzN\210\177a_"
 741      C0595D64 
 741      D63B635A 
 741      8FAC1A1A 
 741      696A7A4E 
 742 1f75 E6D94CAD 		.ascii	"\346\331L\255f\367'\277\307E\230\307\260\203<\221f\320"
 742      66F727BF 
 742      C74598C7 
 742      B0833C91 
 742      66D0
 743 1f87 D3720135 		.ascii	"\323r\0015\354\231\221\216@'\021\350\3334}O+\350zZA"
 743      EC99918E 
 743      402711E8 
 743      DB347D4F 
 743      2BE87A5A 
 744 1f9c DB03C257 		.ascii	"\333\003\302W"
 745 1fa0 39DAF1BD 		.ascii	"9\332\361\275\255\\y[H*\217\231B\216\352G\35770\020"
 745      AD5C795B 
 745      482A8F99 
 745      428EEA47 
 745      EF373010 
 746 1fb4 65C6CD92 		.ascii	"e\306\315\222\360\203\221\371V\020#\030+^&\223\202\242"
 746      F08391F9 
 746      56102318 
 746      2B5E2693 
 746      82A2
ARM GAS  /tmp/ccIdAxfh.s 			page 60


 747 1fc6 FA3751C3 		.ascii	"\3727Q\303\036&w~ej\2077\350\356a\212~\227\036\353\335"
 747      1E26777E 
 747      656A8737 
 747      E8EE618A 
 747      7E971EEB 
 748 1fdb 8A4A59D0 		.ascii	"\212JY\320\346\322M\304\342\317_\307\253\273\356Rd\177"
 748      E6D24DC4 
 748      E2CF5FC7 
 748      ABBBEE52 
 748      647F
 749 1fed F94E70C5 		.ascii	"\371Np\305\362\317MMe^\201\337\014\317\032\230\341;"
 749      F2CF4D4D 
 749      655E81DF 
 749      0CCF1A98 
 749      E13B
 750 1fff 0F       		.ascii	"\017"
 751 2000 1B9AA1AC 		.ascii	"\033\232\241\2545\3033z3<\027\317W\0255C\031\315p\003"
 751      35C3337A 
 751      333C17CF 
 751      57153543 
 751      19CD7003 
 752 2014 F4403AC6 		.ascii	"\364@:\306H\215\3158\373\236C\037\023\0376\322\207\334"
 752      488DCD38 
 752      FB9E431F 
 752      131F36D2 
 752      87DC
 753 2026 94FBA27A 		.ascii	"\224\373\242z\373\267\330\313]\340\322\203\254\323\303"
 753      FBB7D8CB 
 753      5DE0D283 
 753      ACD3C3
 754 2035 056B3DFC 		.ascii	"\005k=\374`X\337\253;R+\206\32455=d\243\252\227\015"
 754      6058DFAB 
 754      3B522B86 
 754      D435353D 
 754      64A3AA97 
 755 204a 9430D74C 		.ascii	"\2240\327L\011\213Q\011*\217?Y\363Xo\310\343\224\321"
 755      098B5109 
 755      2A8F3F59 
 755      F3586FC8 
 755      E394D1
 756 205d AAAD386C 		.ascii	"\252\2558l\230\312\325\304\221U\032\343\007\344\350"
 756      98CAD5C4 
 756      91551AE3 
 756      07E4E8
 757 206c 7F67BF29 		.ascii	"\177g\277)\304\326\231\335\250oT\266\325\273\216\241"
 757      C4D699DD 
 757      A86F54B6 
 757      D5BB8EA1 
 758 207c D5A2870D 		.ascii	"\325\242\207\015C+s IX\203Y~\326\007.\307\311\272\300"
 758      432B7320 
 758      49588359 
 758      7ED6072E 
 758      C7C9BAC0 
 759 2090 9F39C216 		.ascii	"\2379\302\0269\362\3239/\256\267 k)%aG\024\3170RJ\024"
 759      39F2D339 
 759      2FAEB720 
 759      6B292561 
ARM GAS  /tmp/ccIdAxfh.s 			page 61


 759      4714CF30 
 760 20a7 B6C891CB 		.ascii	"\266\310\221\313.\355\033\001\314 .~\317\364\241>\273"
 760      2EED1B01 
 760      CC202E7E 
 760      CFF4A13E 
 760      BB
 761 20b8 A17999CF 		.ascii	"\241y\231\31784\277/\332\014\366\350k\240-\326h\230"
 761      3834BF2F 
 761      DA0CF6E8 
 761      6BA02DD6 
 761      6898
 762 20ca AEADC115 		.ascii	"\256\255\301\025\027\331\300\212\260&\011\207\271\300"
 762      17D9C08A 
 762      B0260987 
 762      B9C0
 763 20d8 2CFEE3E8 		.ascii	",\376\343\350*\202Q\331\236\346\222\355\363\346`\327"
 763      2A8251D9 
 763      9EE692ED 
 763      F3E660D7 
 764 20e8 18B00B5C 		.ascii	"\030\260\013\\`F\377[k\364aM\310/\336\306@\247\011#"
 764      6046FF5B 
 764      6BF4614D 
 764      C82FDEC6 
 764      40A70923 
 765 20fc B0213E9C 		.ascii	"\260!>\234\230B:\002\351(\037G\000t\315k\374\326\224"
 765      98423A02 
 765      E9281F47 
 765      0074CD6B 
 765      FCD694
 766 210f 245C3172 		.ascii	"$\\1rS\343H\267\261K<\255t\033\3270\356\271\205w6\230"
 766      53E348B7 
 766      B14B3CAD 
 766      741BD730 
 766      EEB98577 
 767 2125 BA2BA50C 		.ascii	"\272+\245\014\305\025\274+\017o)F\035r\203\336!\217"
 767      C515BC2B 
 767      0F6F2946 
 767      1D7283DE 
 767      218F
 768 2137 F61935FE 		.ascii	"\366\0315\376C\243U\207\374\234\342z$a\310#\\\316f\254"
 768      43A35587 
 768      FC9CE27A 
 768      2461C823 
 768      5CCE66AC 
 769 214b CFD2D954 		.ascii	"\317\322\331T\030\224w*rs\347\0163gc1\214\033\357\323"
 769      1894772A 
 769      7273E70E 
 769      33676331 
 769      8C1BEFD3 
 770 215f BB44BFF8 		.ascii	"\273D\277\370\252d\314\344\262\005$pT\242\270q>\313"
 770      AA64CCE4 
 770      B2052470 
 770      54A2B871 
 770      3ECB
 771 2171 28EE550D 		.ascii	"(\356U\015\213\257\211\216\311Nu\334\332pcs\351\024"
 771      8BAF898E 
 771      C94E75DC 
ARM GAS  /tmp/ccIdAxfh.s 			page 62


 771      DA706373 
 771      E914
 772 2183 79D33088 		.ascii	"y\3230\210\032\336\266\301\351d\237\256\237\"\261\251"
 772      1ADEB6C1 
 772      E9649FAE 
 772      9F22B1A9 
 773 2193 3E0256BE 		.ascii	">\002V\276\363\016@\327,\033\263C\0342B\226%\2778\315"
 773      F30E40D7 
 773      2C1BB343 
 773      1C324296 
 773      25BF38CD 
 774 21a7 47FC64E4 		.ascii	"G\374d\344\021\233CPeB\177\351E\021\334\342L\304\330"
 774      119B4350 
 774      65427FE9 
 774      4511DCE2 
 774      4CC4D8
 775 21ba F6883EEC 		.ascii	"\366\210>\354\352\246\233\240\355\246\373\013\257\223"
 775      EAA69BA0 
 775      EDA6FB0B 
 775      AF93
 776 21c8 2B52E50A 		.ascii	"+R\345\012/^\227\204\257\037\321\316S0\371\272?l\362"
 776      2F5E9784 
 776      AF1FD1CE 
 776      5330F9BA 
 776      3F6CF2
 777 21db 43B7580B 		.ascii	"C\267X\013\233\355{,\376N]C\271\030g\207\364\246\017"
 777      9BED7B2C 
 777      FE4E5D43 
 777      B9186787 
 777      F4A60F
 778 21ee 7C7AB555 		.ascii	"|z\265UF\325\366\355w\021\321LmV\235\356|\275\336\310"
 778      46D5F6ED 
 778      7711D14C 
 778      6D569DEE 
 778      7CBDDEC8 
 779 2202 32ECE817 		.ascii	"2\354\350\027eg\271\350\367\217t\373t(oG\350\370o4\341"
 779      6567B9E8 
 779      F78F74FB 
 779      74286F47 
 779      E8F86F34 
 780 2217 FFE3F896 		.ascii	"\377\343\370\226\201\006\2673\031\203[\244g\234\360"
 780      8106B733 
 780      19835BA4 
 780      679CF0
 781 2226 6ABA8148 		.ascii	"j\272\201H\334\020l\314o\214y\\j\310\343\347g\222\223"
 781      DC106CCC 
 781      6F8C795C 
 781      6AC8E3E7 
 781      679293
 782 2239 6EB59EC9 		.ascii	"n\265\236\311\221\354\303\304\331:i*\3133\365\322\327"
 782      91ECC3C4 
 782      D93A692A 
 782      CB33F5D2 
 782      D7
 783 224a 4977B209 		.ascii	"Iw\262\011\347\253\0149\337\260pYky\266\301\370\207"
 783      E7AB0C39 
 783      DFB07059 
ARM GAS  /tmp/ccIdAxfh.s 			page 63


 783      6B79B6C1 
 783      F887
 784 225c AEB33463 		.ascii	"\256\2634c|\265\236q\242y\035#sL\030Yk\310H\343\325"
 784      7CB59E71 
 784      A2791D23 
 784      734C1859 
 784      6BC848E3 
 785 2271 73CF552E 		.ascii	"s\317U.\223\207\331\035!\256\327sr\333\025\027\000/"
 785      9387D91D 
 785      21AED773 
 785      72DB1517 
 785      002F
 786 2283 35E12462 		.ascii	"5\341$b\310\311\372\206\355\342HcWl\245\313MF\"\211"
 786      C8C9FA86 
 786      EDE24863 
 786      576CA5CB 
 786      4D462289 
 787 2297 7E59C6D5 		.ascii	"~Y\306\3252\326\2320\272\305\220\321UgN\3672\263:\013"
 787      32D69A30 
 787      BAC590D1 
 787      55674EF7 
 787      32B33A0B 
 788 22ab 896DD333 		.ascii	"\211m\3233\272/\3262\354\376\351\017\370q|\024\260Q"
 788      BA2FD632 
 788      ECFEE90F 
 788      F8717C14 
 788      B051
 789 22bd F3CC2AC9 		.ascii	"\363\314*\311\225x;}l#\324\211f\227\211h\2760\024\315"
 789      95783B7D 
 789      6C23D489 
 789      66978968 
 789      BE3014CD 
 790 22d1 B21B475B 		.ascii	"\262\033G['\323 \367\350e\023\267PC\022\016\230p\262"
 790      27D320F7 
 790      E86513B7 
 790      5043120E 
 790      9870B2
 791 22e4 D790939B 		.ascii	"\327\220\223\233\353\307\034\025\027}R\036!\343\235"
 791      EBC71C15 
 791      177D521E 
 791      21E39D
 792 22f3 B71FA263 		.ascii	"\267\037\242cII8k\002\262\337\020\344\313\015cv\213"
 792      4949386B 
 792      02B2DF10 
 792      E4CB0D63 
 792      768B
 793 2305 651FE841 		.ascii	"e\037\350A\346?j\014\362\245!H\355\327c\256\211\357"
 793      E63F6A0C 
 793      F2A52148 
 793      EDD763AE 
 793      89EF
 794 2317 3353CE14 		.ascii	"3S\316\024\344k\023\220C\206 \303.lK\246q\0341rt:\271"
 794      E46B1390 
 794      438620C3 
 794      2E6C4BA6 
 794      711C3172 
 795 232e 5E3061E4 		.ascii	"^0a\344\250\021#\221}[\306\310\242\3551\344qK\207\253"
ARM GAS  /tmp/ccIdAxfh.s 			page 64


 795      A8112391 
 795      7D5BC6C8 
 795      A2ED31E4 
 795      714B87AB 
 796 2342 EFCE94D5 		.ascii	"\357\316\224\325\034\321\357\304#\012q\226y\315\204"
 796      1CD1EFC4 
 796      230A7196 
 796      79CD84
 797 2351 EFD366F6 		.ascii	"\357\323f\366p\214\261\007\376f\373\215\236u\302\215"
 797      708CB107 
 797      FE66FB8D 
 797      9E75C28D 
 798 2361 8E95E18F 		.ascii	"\216\225\341\217\031\263\362\235\241\010W\257\2149:"
 798      19B3F29D 
 798      A10857AF 
 798      8C393A
 799 2370 8A2F0913 		.ascii	"\212/\011\023L\020\316\2324\263\233\367G\233\031\035"
 799      4C10CE9A 
 799      34B39BF7 
 799      479B191D 
 800 2380 FB4A4295 		.ascii	"\373JB\225\011\304y\023\277\277\361\331\031f~\237lx"
 800      09C47913 
 800      BFBFF1D9 
 800      19667E9F 
 800      6C78
 801 2392 643AF3A1 		.ascii	"d:\363\241\227\307s\026\375\373D\007\373]\267D\203<"
 801      97C77316 
 801      FDFB4407 
 801      FB5DB744 
 801      833C
 802 23a4 7AB10A0E 		.ascii	"z\261\012\016\267\342j\217\237|d\350\361\351c\372\350"
 802      B7E26A8F 
 802      9F7C64E8 
 802      F1E963FA 
 802      E8
 803 23b5 F08A4B13 		.ascii	"\360\212K\023:\304m?\250cQ\210\263\237\225&\362j\320"
 803      3AC46D3F 
 803      A8635188 
 803      B39F9526 
 803      F26AD0
 804 23c8 CAEB1161 		.ascii	"\312\353\021a\266\034\251%\303\241\267\027\221\277\213"
 804      B61CA925 
 804      C3A1B717 
 804      91BF8B
 805 23d7 24FF392E 		.ascii	"$\3779.6\301\270c\016nr;\336\243\306\375\206\303>A\271"
 805      36C1B863 
 805      0E6E723B 
 805      DEA3C6FD 
 805      86C33E41 
 806 23ec 450316B9 		.ascii	"E\003\026\2715\333\007\203\016\364\007\020~\211$~\335"
 806      35DB0783 
 806      0EF40710 
 806      7E89247E 
 806      DD
 807 23fd 1EE5C614 		.ascii	"\036\345\306\024\347\232O\203SG\026\325\327\377\015"
 807      E79A4F83 
 807      534716D5 
ARM GAS  /tmp/ccIdAxfh.s 			page 65


 807      D7FF0D
 808 240c 981A1663 		.ascii	"\230\032\026c\212n\032\273K\017\246\333\"\026\347\226"
 808      8A6E1ABB 
 808      4B0FA6DB 
 808      2216E796 
 809 241c 7C527C15 		.ascii	"|R|\025G\212\263\311\224\337\020Y\006\270\347\324\327"
 809      478AB3C9 
 809      94DF1059 
 809      06B8E7D4 
 809      D7
 810 242d 236BE3E0 		.ascii	"#k\343\340\342&\016~\326\361V\033\031\277%%VG\372\336"
 810      E2260E7E 
 810      D6F1561B 
 810      19BF2525 
 810      5647FADE 
 811 2441 DE577A1C 		.ascii	"\336Wz\034\203\267\364n\307\001M\334\362\256\010CB\031"
 811      83B7F46E 
 811      C7014DDC 
 811      F2AE0843 
 811      4219
 812 2453 0CB5096E 		.ascii	"\014\265\011n\256Fq\325\305A9T\250\216\012\222\234\242"
 812      AE4671D5 
 812      C5413954 
 812      A88E0A92 
 812      9CA2
 813 2465 17FB8C2D 		.ascii	"\027\373\214-\223X$\372\"\302wz$MG\213\223\"\012PG\241"
 813      935824FA 
 813      22C2777A 
 813      244D478B 
 813      93220A50 
 814 247b 5A1E1979 		.ascii	"Z\036\031y\236f\244\275-\271\323\003\272\032\346Q:^"
 814      9E66A4BD 
 814      2DB9D303 
 814      BA1AE651 
 814      3A5E
 815 248d 72C141C7 		.ascii	"r\301A\307z[\264_\267\261_\243\032\274\265f\377{\342"
 815      7A5BB45F 
 815      B7B15FA3 
 815      1ABCB566 
 815      FF7BE2
 816 24a0 D2797224 		.ascii	"\322yr$&s\272\234\375\242\236\255\370m\011\206\353+"
 816      2673BA9C 
 816      FDA29EAD 
 816      F86D0986 
 816      EB2B
 817 24b2 4834F87A 		.ascii	"H4\370z%\324o\251\254\202\221g\2550\304\217S`\374S\331"
 817      25D46FA9 
 817      AC829167 
 817      AD30C48F 
 817      5360FC53 
 818 24c7 115A3479 		.ascii	"\021Z4y_]\303\217cZ\317Z\306\232<}\265t\344ouhq>b\224"
 818      5F5DC38F 
 818      635ACF5A 
 818      C69A3C7D 
 818      B574E46F 
 819 24e1 82F53FC2 		.ascii	"\202\365?\302\015\271R\226'\212\\/>{T\230\376\012\314"
 819      0DB95296 
ARM GAS  /tmp/ccIdAxfh.s 			page 66


 819      278A5C2F 
 819      3E7B5498 
 819      FE0ACC
 820 24f4 9814BBB3 		.ascii	"\230\024\273\263Q\357\246\030\317F\225(53\3137:%\352"
 820      51EFA618 
 820      CF469528 
 820      3533CB37 
 820      3A25EA
 821 2507 4C1E14A6 		.ascii	"L\036\024\246\374v\206\\\371|\254x!\311\025w\025)\032"
 821      FC76865C 
 821      F97CAC78 
 821      21C91577 
 821      15291A
 822 251a 4F992A8C 		.ascii	"O\231*\214f\275_7\363\035n\306\245\244\012\272\217\331"
 822      66BD5F37 
 822      F31D6EC6 
 822      A5A40ABA 
 822      8FD9
 823 252c AD63538C 		.ascii	"\255cS\214\327B\320\221\271\351\374\205i.2_`\226k\202"
 823      D742D091 
 823      B9E9FC85 
 823      692E325F 
 823      60966B82 
 824 2540 492E7E89 		.ascii	"I.~\211LJ\321\365\035\244\246\\\273GN4\345x\276\005"
 824      4C4AD1F5 
 824      1DA4A65C 
 824      BB474E34 
 824      E578BE05 
 825 2554 C795A6B9 		.ascii	"\307\225\246\271\026Y\344\232b\232\213\314A\232\345"
 825      1659E49A 
 825      629A8BCC 
 825      419AE5
 826 2563 9A6A9AAB 		.ascii	"\232j\232\253\332\242\254i\246\271\316Z-`4\315\265\307"
 826      DAA2AC69 
 826      A6B9CE5A 
 826      2D6034CD 
 826      B5C7
 827 2575 A2AC19A6 		.ascii	"\242\254\031\246\271\266Y\344\232i\232k\235\005\207"
 827      B9B659E4 
 827      9A699A6B 
 827      9D0587
 828 2584 B34C736D 		.ascii	"\263Lsm\262(\253\3124\327z\213\\\263Ms\255\266\3105"
 828      B228ABCA 
 828      34D77A8B 
 828      5CB34D73 
 828      ADB6C835 
 829 2598 C734D721 		.ascii	"\3074\327!\213z}`\232\353\250E\256\271\246\271\216X"
 829      8B7A7D60 
 829      9AEBA845 
 829      AEB9A6B9 
 829      8E58
 830 25aa 70382F96 		.ascii	"p8/\226\313l\002\337\251\346yQ\3113\337\266\313\374"
 830      CB6C02DF 
 830      A9E67951 
 830      C933DFB6 
 830      CBFC
 831 25bc D0C46576 		.ascii	"\320\304ev7f\230t\001fP\013\314\033i\212y\303Yh\232"
ARM GAS  /tmp/ccIdAxfh.s 			page 67


 831      37669874 
 831      0166500B 
 831      CC1B698A 
 831      79C35968 
 832 25d1 EBB88570 		.ascii	"\353\270\205p>\212\345R\307\313\317/\260\236\267\254"
 832      3E8AE552 
 832      C7CBCF2F 
 832      B09EB7AC 
 833 25e1 BEB1B9F5 		.ascii	"\276\261\271\365j\\\350\365q\012\351bG\377/\343YKS\034"
 833      6A5CE8F5 
 833      710AE962 
 833      47FF2FE3 
 833      594B531C 
 834 25f5 BA1EC82F 		.ascii	"\272\036\310/.N\321=\335\231L\227\245\220\353\202AL"
 834      2E4ED13D 
 834      DD994C97 
 834      A590EB82 
 834      414C
 835 2607 A97C9465 		.ascii	"\251|\224e)\323\312\307\266\222\2536\212\352\013z\223"
 835      29D3CAC7 
 835      B692AB36 
 835      8AEA0B7A 
 835      93
 836 2618 910D9257 		.ascii	"\221\015\222W)\323\346\306\0173\312\337\325\374=\335"
 836      29D3E6C6 
 836      0F33CADF 
 836      D5FC3DDD 
 837 2628 6C3D1EEF 		.ascii	"l=\036\357K$F\037\266\262\020M\244\220I\207%)djaY\012"
 837      4B24461F 
 837      B6B2104D 
 837      A4904987 
 837      2529646A 
 838 263f 33B5A053 		.ascii	"3\265\240S\334\367\026\212\373\247\251\272?N1\357\261"
 838      DCF7168A 
 838      FBA7A9BA 
 838      3F4E31EF 
 838      B1
 839 2650 969BE6FA 		.ascii	"\226\233\346\372\306\242\254\025\246\271\256Z\264\326"
 839      C6A2AC15 
 839      A6B9AE5A 
 839      B4D6
 840 265e 95B15CC2 		.ascii	"\225\261\\\302\035\271\376\260\277\240\270o\337@\360"
 840      1DB9FEB0 
 840      BFA0B86F 
 840      DF40F0
 841 266d 897E426A 		.ascii	"\211~Bj\354[v\330\335\375\245W\322:\013)\261k\315C\271"
 841      EC5B76D8 
 841      DDFDA557 
 841      D23A0B29 
 841      B16BCD43 
 842 2682 858539A1 		.ascii	"\205\2059\241\374\302\222\202\000\334\355\301\257\331"
 842      FCC29282 
 842      00DCEDC1 
 842      AFD9
 843 2690 61179E9F 		.ascii	"a\027\236\237J\357W\\\030H\317)\316\035\234\236\033"
 843      4AEF575C 
 843      1848CF29 
ARM GAS  /tmp/ccIdAxfh.s 			page 68


 843      CE1D9C9E 
 843      1B
 844 26a1 18909ED3 		.ascii	"\030\220\236\323/\277O~q(=\034,-z+\035\022\375\374\005"
 844      2FBF4F7E 
 844      71283D1C 
 844      2C2D7A2B 
 844      1D12FDFC 
 845 26b6 E9F94539 		.ascii	"\351\371E9\005\245\271\201t\222/T\222\017 \276^\275"
 845      05A5B981 
 845      74922F54 
 845      920F20BE 
 845      5EBD
 846 26c8 3A7709E6 		.ascii	":w\011\346\017\010\004S\243\251W{e\271\262_(..h\226"
 846      0F080453 
 846      A3A9577B 
 846      65B9B25F 
 846      282E2E68 
 847 26dd 1FCACE2F 		.ascii	"\037\312\316/\012\005\202\341@n*\244K\202\305\341@\016"
 847      0A0582E1 
 847      406E2AA4 
 847      4B82C5E1 
 847      400E
 848 26ef 7CF1E414 		.ascii	"|\361\344\024\027\025A*%7?\244$\037M/\015\005\323\375"
 848      1715412A 
 848      25373FA4 
 848      241F4D2F 
 848      0D05D3FD 
 849 2703 C1C23F16 		.ascii	"\301\302?\026\025\027\005\376\030\360\367\311\217\026"
 849      151705FE 
 849      18F0F7C9 
 849      8F16
 850 2711 170AE7E6 		.ascii	"\027\012\347\346\027\205\2414o)\234\237\354\220\035"
 850      1785A134 
 850      6F299C9F 
 850      EC901D
 851 2720 EE687177 		.ascii	"\356hqw\241\037x/\012\244g\347\006\362\374\245\005\341"
 851      A11F782F 
 851      0AA467E7 
 851      06F2FCA5 
 851      05E1
 852 2732 ECF0E092 		.ascii	"\354\360\340\222@\010r\247dg\253\371=$\361Lv\330G/A"
 852      400872A7 
 852      6467ABF9 
 852      3D24F14C 
 852      76D8472F 
 853 2747 CA190CF8 		.ascii	"\312\031\014\370s]\003\203\371\341\20034\270(\347/v"
 853      735D0383 
 853      F9E18033 
 853      34B828E7 
 853      2F76
 854 2759 E401E9EC 		.ascii	"\344\001\351\354\374\342>\005\3059oA9-^ \211.\201\001"
 854      FCE23E05 
 854      C5396F41 
 854      392D5E20 
 854      892E8101 
 855 276d F939811E 		.ascii	"\3719\201\036Ey\305\336>\005oe\207\362\377\021\360\220"
 855      4579C5DE 
ARM GAS  /tmp/ccIdAxfh.s 			page 69


 855      3E056F65 
 855      87F2FF11 
 855      F090
 856 277f 445169A1 		.ascii	"DQi\241\267o \014\202\311+v\014(\014\247\300\305P\330"
 856      B76F200C 
 856      82C92B76 
 856      0C280CA7 
 856      C0C550D8 
 857 2793 1F0E6487 		.ascii	"\037\016d\207S^\350\371\267\354W^\352\361R\217,/Iff"
 857      535EE8F9 
 857      B7EC575E 
 857      EAF1528F 
 857      2C2F4966 
 858 27a8 BDDC1BAF 		.ascii	"\275\334\033\257u\352\234\325\343\325\256\315I\262\363"
 858      75EA9CD5 
 858      E3D5AECD 
 858      49B2F3
 859 27b7 CB2FBDD4 		.ascii	"\313/\275\324\025\276\276\324\375N\362\265K\217\314"
 859      15BEBED4 
 859      FD4EF2B5 
 859      4B8FCC
 860 27c6 D8151FB9 		.ascii	"\330\025\037\271\222\321\265S\2277"
 860      92D1B553 
 860      9737
 861 27d0 9AA929B8 		.ascii	"\232\251)\270\212\351\3272zd\251\351\3147^\352\014i"
 861      8AE9D732 
 861      7A64A9E9 
 861      CC375EEA 
 861      0C69
 862 27e2 1796EAC8 		.ascii	"\027\226\352\310\311\317u\344\204r\2759\376\022\177"
 862      C9CF75E4 
 862      8472BD39 
 862      FE127F
 863 27f1 4E7E7870 		.ascii	"N~xp\027\236\212\227\024\007\303\241\364\314\254^Ov"
 863      179E8A97 
 863      1407C3A1 
 863      F4CCAC5E 
 863      4F76
 864 2803 48EFD9B3 		.ascii	"H\357\331\263Kzf\357\036\003\332\247\203Id\027\024\344"
 864      4B7A66EF 
 864      1E03DAA7 
 864      83496417 
 864      14E4
 865 2815 12B3800B 		.ascii	"\022\263\200\013\324\030:\330\221#\265\251\0248\251"
 865      D4183AD8 
 865      9123B5A9 
 865      1438A9
 866 2824 12011C55 		.ascii	"\022\001\034U\"$I$B\260i-\361W*\233T\222\354\374r\257"
 866      22244924 
 866      42B0692D 
 866      F1572A9B 
 866      5492ECFC 
 867 283a DE3DBB66 		.ascii	"\336=\273fu\275\003\000r\374\005\005}\3749oAC\010\024"
 867      75BD0300 
 867      72FC0505 
 867      7DFC396F 
 867      41430814 
ARM GAS  /tmp/ccIdAxfh.s 			page 70


 868 284e E566E7F4 		.ascii	"\345f\347\364\351\232L\275\272\367\356\361\362\200\016"
 868      E99A4CBD 
 868      BAF7EEF1 
 868      F2800E
 869 285d E925A05F 		.ascii	"\351%\240_Z\261\324P\270\020\014\250oI~1\264\234^/w"
 869      5AB1D450 
 869      B8100CA8 
 869      6F497E31 
 869      B49C5E2F 
 870 2872 E99AE17E 		.ascii	"\351\232\341~9\353\215\336]3</g\366\356\332\265K\206"
 870      39EB8DDE 
 870      5D333C2F 
 870      67F6EEDA 
 870      B54B86
 871 2885 ABF72BBD 		.ascii	"\253\367+\275\273d8z\300\361r\227\014\3615\264\331\366"
 871      BB64387A 
 871      C0F17297 
 871      0CF135B4 
 871      D9F6
 872 2897 4F415DA8 		.ascii	"OA]\250\255\221\244#\024\010\273r\012\002\376\240\370"
 872      AD91A423 
 872      1408BB72 
 872      0A02FEA0 
 872      F8
 873 28a8 A2F385CC 		.ascii	"\242\363\205\314\214\014g\317\316\177\313pv\352\226"
 873      8C0C67CF 
 873      CE7FCB70 
 873      76EA96
 874 28b7 D1939017 		.ascii	"\321\223\220\027\035/dd\244\344\027\023n\362s\241\006"
 874      1D2F6464 
 874      A4E41713 
 874      6EF273A1 
 874      06
 875 28c8 A11049BA 		.ascii	"\241\020I\272\340\344\007e\005\333\023\021t..\312\313"
 875      E0E40765 
 875      05DB1311 
 875      742E2ECA 
 875      CB
 876 28d9 EFEBCEC1 		.ascii	"\357\353\316\301\3233\211*\027\014G\205\234\323/48\244"
 876      D333892A 
 876      170C4785 
 876      9CD32F34 
 876      38A4
 877 28eb B6096FB8 		.ascii	"\266\011o\270\0371|h\0119\375\262i\272\243=\254\234"
 877      1F317C68 
 877      0939FDB2 
 877      69BAA33D 
 877      AC9C
 878 28fd 7E442EEE 		.ascii	"~D.\356\222\354\242\300\2400\234J\202\201\001/r@PQw"
 878      92ECA2C0 
 878      A0309C4A 
 878      8281012F 
 878      72405051 
 879 2912 CAE8D5B9 		.ascii	"\312\350\325\271\327 \270\263\260$\277 \020\014\245"
 879      D720B8B3 
 879      B024BF20 
 879      100CA5
ARM GAS  /tmp/ccIdAxfh.s 			page 71


 880 2921 77EFDC19 		.ascii	"w\357\334\031nW\331\363\204K\202D\322\210\233_L\374"
 880      6E57D9F3 
 880      844B8244 
 880      D2889B5F 
 880      4CFC
 881 2933 46188AF9 		.ascii	"F\030\212\371\263m\374~9\305A\342\364\232\221\313\320"
 881      B36DFC7E 
 881      39C541E2 
 881      F49A91CB 
 881      D0
 882 2944 F6C239E1 		.ascii	"\366\3029\341A\177M\016%{\300\323\205Dr\301@_p@D\231"
 882      417F4D0E 
 882      257BC0D3 
 882      854472C1 
 882      405F7040 
 883 295a ED9F82E3 		.ascii	"\355\237\202\343i8\236\201\343\317\216P\207vp\264\207"
 883      69389E81 
 883      E3CF8E50 
 883      877670B4 
 883      87
 884 296b A3031C4F 		.ascii	"\243\003\034O\302\321\021\216?\301\001\367u\200\373"
 884      C2D1118E 
 884      3FC101F7 
 884      7580FB
 885 297a 3AC07D1D 		.ascii	":\300}\035\340\276'\341\276'\333K\301\216R\360OR\360"
 885      E0BE27E1 
 885      BE27DB4B 
 885      C18E52F0 
 885      4F52F0
 886 298d 2929F8B4 		.ascii	"))\370\264\024|F\012\376\331\021l\337\016\216\366RA"
 886      147C460A 
 886      FED9116C 
 886      DF0E8EF6 
 886      5241
 887 299f 104E4FBA 		.ascii	"\020NO\272J\262\201[\017\221\360\300@\020\316\305\005"
 887      4AB2815B 
 887      0F91F0C0 
 887      4010CEC5 
 887      05
 888 29b0 B981A033 		.ascii	"\271\201\2403\247\237?H\304\356/\014x\303J{\201\037"
 888      A79F3F48 
 888      C4EE2F0C 
 888      78C34A7B 
 888      811F
 889 29c2 31E50917 		.ascii	"1\345\011\027\026\347\322\357y\005\376\276!O8\030\310"
 889      16E7D2EF 
 889      7905FEBE 
 889      214F3818 
 889      C8
 890 29d3 0BA11C49 		.ascii	"\013\241\034I\302U\030\352\013?*\316\020\234\240\222"
 890      C25518EA 
 890      0B3F2ACE 
 890      109CA092 
 891 29e3 72077307 		.ascii	"r\007s\007\303O\336\300\240\3740\210%\340\036\030.\356"
 891      C34FDEC0 
 891      A0FC3088 
 891      25E01E18 
ARM GAS  /tmp/ccIdAxfh.s 			page 72


 891      2EEE
 892 29f5 F3DF25CD 		.ascii	"\363\337%\315\002\003\002E\341B\177\010[\323@\222p\224"
 892      02030245 
 892      E1427F08 
 892      5BD34092 
 892      7094
 893 2a07 649736A7 		.ascii	"d\2276\247\366\022\312.\200\346\232\035n\021\265 z\305"
 893      F612CA2E 
 893      80E69A1D 
 893      6E11B520 
 893      7AC5
 894 2a19 57923DD0 		.ascii	"W\222=\320\237\037\316/\352\333B\275\334\2774P\012\\"
 894      9F1FCE2F 
 894      EADB42BD 
 894      DCBF3450 
 894      0A5C
 895 2a2b B564EEC4 		.ascii	"\265d\356\304K)%\331P,&]\230\204\013\201\022h\267\220"
 895      4B2925D9 
 895      502C265D 
 895      98840B81 
 895      1268B790 
 896 2a3f D955580A 		.ascii	"\331UX\012*\177\322\226Q\026\206\007\021\343)\244\350"
 896      2A7FD296 
 896      51168607 
 896      11E329A4 
 896      E8
 897 2a50 702E1E58 		.ascii	"p.\036X\004\222C$\250B!\332*\360\007\367\021NS\210T"
 897      04924324 
 897      A84221DA 
 897      2AF007F7 
 897      114E5388 
 898 2a65 FC056861 		.ascii	"\374\005hap\261\004\272\256\247m\225\247T\006\312\274"
 898      70B104BA 
 898      AEA76D95 
 898      A75406CA 
 898      BC
 899 2a76 4B694F20 		.ascii	"KiO \345@0P\224\003\265u\323K\377\221\010\021XJ\357"
 899      E5403050 
 899      9403B575 
 899      D34BFF91 
 899      0811584A 
 900 2a8b DC2BB347 		.ascii	"\334+\263G&\370\237tt3y\035\333\265\037\204VK\274[\026"
 900      26F89F74 
 900      7433791D 
 900      DBB51F84 
 900      564BBC5B 
 901 2aa0 B4892E81 		.ascii	"\264\211.\201<G\347\214\366pt\22023$\3606\2353:\367"
 901      3C47E78C 
 901      F6707490 
 901      323324F0 
 901      369D333A 
 902 2ab5 CE7067BC 		.ascii	"\316pg\274\016\347\014w\026\236<=:dv\356\326=\303\005"
 902      0EE70C77 
 902      169E3C3D 
 902      3A6476EE 
 902      D63DC305 
 903 2ac9 E7DE190E 		.ascii	"\347\336\031\016p\206\335\354\372>\244\335:\016\032"
ARM GAS  /tmp/ccIdAxfh.s 			page 73


 903      7086DDEC 
 903      FA3EA4DD 
 903      3A0E1A
 904 2ad8 4419C9CE 		.ascii	"D\031\311\316-\364\223\312u\351\325);\023L\311_\250"
 904      2DF493CA 
 904      75E9D529 
 904      3B134CC9 
 904      5FA8
 905 2aea 722375CE 		.ascii	"r#u\316p\276\324%+\303\321\273S\206\263W;B\332w\312"
 905      70BED425 
 905      2BC3D1BB 
 905      5386B357 
 905      3B42DA77 
 906 2aff 70740366 		.ascii	"pt\003fBx\2433?/'\350\316\017\365\313\317\013\373B\201"
 906      4278A333 
 906      3F2F27E8 
 906      CE0FF5CB 
 906      CF0BFB42 
 907 2b14 82BCFCA2 		.ascii	"\202\274\374\242\334\300 \367\000\350\362\213\203wE"
 907      DCC020F7 
 907      00E8F28B 
 907      837745
 908 2b23 D1B3E9DD 		.ascii	"\321\263\351\335\340S\341Kp\020\241\341A\276\340 8\023"
 908      E053E14B 
 908      7010A1E1 
 908      41BEE020 
 908      3813
 909 2b35 4BF685D5 		.ascii	"K\366\205\325\224\023\252S\342*\010\345\344\365u\365"
 909      9413AA53 
 909      E22A08E5 
 909      E4F575F5 
 910 2b45 23944420 		.ascii	"#\224D \324\027\266\300\0168\333\237\233\033\014\204"
 910      D417B6C0 
 910      0E38DB9F 
 910      9B1B0C84 
 911 2b55 42819013 		.ascii	"B\201\220\023\302\224\\r\177nB\353!\262\317\363\207"
 911      C2945C72 
 911      7F6E42EB 
 911      21B2CFF3 
 911      87
 912 2b66 F342E9A1 		.ascii	"\363B\351\241`Nz^\036T\326\325\255SV\267\314\204\216"
 912      604E7A5E 
 912      1E54D6D5 
 912      AD5356B7 
 912      CC848E
 913 2b79 559B13DA 		.ascii	"U\233\023\332Q\200\306b\316\027\336\310\352\352!m\016"
 913      5180C662 
 913      CE17DEC8 
 913      EAEA216D 
 913      0E
 914 2b8a 04E5C80D 		.ascii	"\004\345\310\015\016p\345\220\020\300]\224\015w\207"
 914      0E70E590 
 914      10C05D94 
 914      0D7787
 915 2b99 5C0349B3 		.ascii	"\\\003I\263\364\346\205\362\261}:_{9\243\213\224\237"
 915      F4E685F2 
 915      B17D3A5F 
ARM GAS  /tmp/ccIdAxfh.s 			page 74


 915      7B39A38B 
 915      949F
 916 2bab EB2BCA0E 		.ascii	"\353+\312\016\026\027C\264\023tu!\227R\012\374\320\262"
 916      161743B4 
 916      13747521 
 916      97520AFC 
 916      D0B2
 917 2bbd C0CAC046 		.ascii	"\300\312\300F\363\202\201\000Mz\021\003Z\244+\017\243"
 917      F3828100 
 917      4D7A1103 
 917      5AA42B0F 
 917      A3
 918 2bce 8A01C5D0 		.ascii	"\212\001\305\320\323\205\002\036\270\210g\310N\316^"
 918      D385021E 
 918      B88867C8 
 918      4ECE5E
 919 2bdd 12F9E185 		.ascii	"\022\371\341\205\201$\010\313\011;\340\354\311\0037"
 919      812408CB 
 919      093BE0EC 
 919      C90337
 920 2bec 0BFEDF0B 		.ascii	"\013\376\337\013\262\311\000\253\034\014,\342\331\021"
 920      B2C900AB 
 920      1C0C2CE2 
 920      D911
 921 2bfa CACDF140 		.ascii	"\312\315\361@\234\330\333\037\356\227\232K\272\356^"
 921      9CD8DB1F 
 921      EE979A4B 
 921      BAEE5E
 922 2c09 C5A5509B 		.ascii	"\305\245P\233\\w\021f\371\223\255~<\020\314\367\027"
 922      5C771166 
 922      F993AD7E 
 922      3C10CCF7 
 922      17
 923 2c1a 90EE3213 		.ascii	"\220\3562\023S4\024h\301~\201 \261\003\006q\005\371"
 923      53341468 
 923      C17E8120 
 923      B1030671 
 923      05F9
 924 2c2c 7DD2FBE6 		.ascii	"}\322\373\346\344\350\202\271\216O<\363DG6\000\204`"
 924      E4E882B9 
 924      8E4F3CF3 
 924      44473600 
 924      8460
 925 2c3e 8E7433A4 		.ascii	"\216t3\244\302\340rKJ\303\016\010\242|\244'\313/\204"
 925      C2E0724B 
 925      4AC30E08 
 925      A27CA427 
 925      CB2F84
 926 2c51 2B4EB812 		.ascii	"+N\270\022v\302\245\260\033c\270\260\213\264\271p\302"
 926      76C2A5B0 
 926      1B63B8B0 
 926      8BB4B970 
 926      C2
 927 2c62 A856D38C 		.ascii	"\250V\323\214\321\315\221V\334\034S\331\241\342\322"
 927      D1CD9156 
 927      DC1C53D9 
 927      A1E2D2
ARM GAS  /tmp/ccIdAxfh.s 			page 75


 928 2c71 2069C1A9 		.ascii	" i\301\251\354\327\226\364\013\361\033\201\"\022h7\327"
 928      ECD796F4 
 928      0BF11B81 
 928      22126837 
 928      D7
 929 2c82 5EF0040A 		.ascii	"^\360\004\012\320\2754\203\263z\315\007i\012N\241\320"
 929      D0BD3483 
 929      B37ACD07 
 929      690A4EA1 
 929      D0
 930 2c93 276787BD 		.ascii	"'g\207\275p\031\223\344\367\201\324Q\007B\230\333\205"
 930      701993E4 
 930      F781D451 
 930      074298DB 
 930      85
 931 2ca4 F7F942B9 		.ascii	"\367\371B\271\212c\367evQ\342 \017\244H\030\344\205"
 931      8A63F765 
 931      7651E220 
 931      0FA44818 
 931      E485
 932 2cb6 334641F6 		.ascii	"3FA\366\352\210\036\221\324\361\216\374\"\220\231\352"
 932      EA881E91 
 932      D4F18EFC 
 932      229099EA 
 933 2cc6 9221DA50 		.ascii	"\222!\332P\223^5\351\353\257:pH\345\2405\004\275\375"
 933      935E35E9 
 933      EBAF3A70 
 933      48E5A035 
 933      04BDFD
 934 2cd9 B3FB94E6 		.ascii	"\263\373\224\346\201os\365\317\016\027\227x\340\226"
 934      816F73F5 
 934      CF0E1797 
 934      78E096
 935 2ce8 60493808 		.ascii	"`I8\010\347`.\234}\375\213\212\303\371y\203\001\245"
 935      E7602E9C 
 935      7DFD8B8A 
 935      C3F97983 
 935      01A5
 936 2cfa 7F364DBA 		.ascii	"\1776M\272\373\203\030\212\336r\347#f\363\342\3220S"
 936      FB83188A 
 936      DE72E723 
 936      66F3E2D2 
 936      3053
 937 2d0c ACBB1813 		.ascii	"\254\273\030\023R~\037\251\270\317\035\257dv\312\310"
 937      527E1FA9 
 937      B8CF1DAF 
 937      6476CAC8 
 938 2d1c 62FCDC93 		.ascii	"b\374\334\223\316\356Y\2753\\\245!\1770\354\003\333"
 938      CEEE59BD 
 938      335CA521 
 938      7F30EC03 
 938      DB
 939 2d2d 248608DD 		.ascii	"$\206\010\335\226\222r\222\236\317M\2076\216n=zJy!'"
 939      96927292 
 939      9ECF4D87 
 939      368E6E3D 
 939      7A4A7921 
ARM GAS  /tmp/ccIdAxfh.s 			page 76


 940 2d42 91A12310 		.ascii	"\221\241#\020\014:\363\200\031w\010\233\213\213\322"
 940      0C3AF380 
 940      1977089B 
 940      8B8BD2
 941 2d51 5CD204BC 		.ascii	"\\\322\004\274\3206\262I\2024\222l\270\307\001\265q"
 941      D036B249 
 941      8234926C 
 941      B8C701B5 
 941      71
 942 2d62 1234CFC0 		.ascii	"\0224\317\300`gREg1\364;=\222\211\025\221{\022\005\243"
 942      60675245 
 942      6731F43B 
 942      3D928915 
 942      917B1205 
 943 2d77 95ABF122 		.ascii	"\225\253\361\"\265y\352\240\\\241\222@\200\004p\035"
 943      B579EAA0 
 943      5CA19240 
 943      8004701D 
 944 2d87 E078B2FB 		.ascii	"\340x\262\373/)\244\024D\242\024\221\362\012\\\242\215"
 944      2F29A414 
 944      44A21491 
 944      F20A5CA2 
 944      8D
 945 2d98 2AA19F63 		.ascii	"*\241\237c\033)\201 }\0139+V\326\214@)v\346\3034\016"
 945      1B298120 
 945      7D0B392B 
 945      56D68C40 
 945      2976E6C3 
 946 2dae 413085B6 		.ascii	"A0\205\266v\007\2719<H\271=\025\177\310z=\273G\227\236"
 946      7607B939 
 946      3C48B93D 
 946      157FC87A 
 946      3DBB4797 
 947 2dc3 5D9BAB5F 		.ascii	"]\233\253_h@\336R\375\252\006\345\036%\033B\004\265"
 947      6840DE52 
 947      FDAA06E5 
 947      1E251B42 
 947      04B5
 948 2dd5 10192C44 		.ascii	"\020\031,D\206\026\"\203\201P\262y\011DN\037h\025\341"
 948      86162283 
 948      8150B279 
 948      09444E1F 
 948      6815E1
 949 2de8 411024B4 		.ascii	"A\020$\264\207\350\236\246:@\312\033\034D\003~\037\336"
 949      87E89EA6 
 949      3A40CA1B 
 949      1C44037E 
 949      1FDE
 950 2dfa 85B70507 		.ascii	"\205\267\005\007\221`\011\256ae\225\326\207\277\007"
 950      916009AE 
 950      616595D6 
 950      87BF07
 951 2e09 C8EF244B 		.ascii	"\310\357$K\220\374\2145\245\272\362(\375\215+8\010L"
 951      90FC8C35 
 951      A5BAF228 
 951      FD8D2B38 
 951      084C
ARM GAS  /tmp/ccIdAxfh.s 			page 77


 952 2e1b 2425147E 		.ascii	"$%\024~\313_\220\337\267\010n&A\374S\035\243\361<I\272"
 952      CB5F90DF 
 952      B7086E26 
 952      41FC531D 
 952      A3F13C49 
 953 2e30 FB969026 		.ascii	"\373\226\220&\345\203S\026v\366\011\0251\300\017\301"
 953      E5835316 
 953      76F60915 
 953      31C00FC1 
 954 2e40 4669087E 		.ascii	"Fi\010~\200\250\003\034\002\344\266\027r\320\376\222"
 954      80A8031C 
 954      02E4B617 
 954      72D0FE92 
 955 2e50 947AF70B 		.ascii	"\224z\367\013\340\3433\003\320\220\212\302`j\264\177"
 955      E0E33303 
 955      D0908AC2 
 955      606AB47F 
 956 2e60 BECFE822 		.ascii	"\276\317\350\"\370\\\257Z\240\003\022\216\274\302\260"
 956      F85CAF5A 
 956      A003128E 
 956      BCC2B0
 957 2e6f A7D09F5F 		.ascii	"\247\320\237_\364D\216pg~Q>\271\023\374\353\023%\304"
 957      F4448E70 
 957      677E513E 
 957      B913FCEB 
 957      1325C4
 958 2e82 32DAB9E9 		.ascii	"2\332\271\351\300\330\213\321!$\356!-\343\245\300\300"
 958      C0D88BD1 
 958      2124EE21 
 958      2DE3A5C0 
 958      C0
 959 2e93 9EB4F9D1 		.ascii	"\236\264\371\321\273\332\273\012\362^*-L\211\345n\256"
 959      BBDABB0A 
 959      F25E2A2D 
 959      4C89E56E 
 959      AE
 960 2ea4 BDCD9B53 		.ascii	"\275\315\233SP\034\012\300\227;@8=\213s\374\341\374"
 960      501C0AC0 
 960      973B4038 
 960      3D8B73FC 
 960      E1FC
 961 2eb6 62906273 		.ascii	"b\220bs\346\0330\347$^\334[\000_\303P=h\353E}1\345\365"
 961      E61B30E7 
 961      245EDC5B 
 961      005FC350 
 961      3D68EB45 
 962 2ece 17D04BDE 		.ascii	"\027\320K\336\220?\214\355\323\213\354w/\0119\240\263"
 962      903F8CED 
 962      D38BEC77 
 962      2F0939A0 
 962      B3
 963 2edf 6F86BEFE 		.ascii	"o\206\276\376E\0208\031h\332\350M\374\301\276$@\034"
 963      45103819 
 963      68DAE84D 
 963      FCC1BE24 
 963      401C
 964 2ef1 E04717DD 		.ascii	"\340G\027\335<;\273oQiN\266\362\265\331\177\366)\315"
ARM GAS  /tmp/ccIdAxfh.s 			page 78


 964      3C3BBB6F 
 964      51694EB6 
 964      F2B5D97F 
 964      F629CD
 965 2f04 2F08FF31 		.ascii	"/\010\3771\277\350Y\001bc\345*\014\220\006P\321\335"
 965      BFE85901 
 965      6263E52A 
 965      0C900650 
 965      D1DD
 966 2f16 4D3AD69E 		.ascii	"M:\326\236\350wzD\253\235\002*)\242\277\247(\016\012"
 966      E8777A44 
 966      AB9D022A 
 966      29A2BFA7 
 966      280E0A
 967 2f29 8440A75C 		.ascii	"\204@\247\\\272e*})\334\224\325/7\263 \020(i\201\277"
 967      BA652A7D 
 967      29DC94D5 
 967      2F37B320 
 967      10286981 
 968 2f3e C4F27B42 		.ascii	"\304\362{B\271\231a\220\250\027\004\203\211\224'\322"
 968      B9996190 
 968      A8170483 
 968      899427D2 
 969 2f4e FB14FB83 		.ascii	"\373\024\373\2038\232\306\004\271\327^\030\014\275#"
 969      389AC604 
 969      B9D75E18 
 969      0CBD23
 970 2f5d C99DD32F 		.ascii	"\311\235\323/sp\210\344\2665\026\357\207\035\270\007"
 970      737088E4 
 970      B63516EF 
 970      871DB807 
 971 2f6d 4E246BAA 		.ascii	"N$k\252R\247\316D\233\352\227\327\210\364\233#s\231"
 971      52A7CE44 
 971      9BEA97D7 
 971      88F49B23 
 971      7399
 972 2f7f 81F00BA5 		.ascii	"\201\360\013\245\377\370G \330L\375\332\263k\027\242"
 972      FFF84720 
 972      D84CFDDA 
 972      B36B17A2 
 973 2f8f E4EE9052 		.ascii	"\344\356\220R\364\354\011\347\225\026\345d\207\357D"
 973      F4EC09E7 
 973      9516E564 
 973      87EF44
 974 2f9e 2974     		.ascii	")t"
 975 2fa0 068B0C07 		.ascii	"\006\213\014\007\240\252\341\374\034)\224\353\310\354"
 975      A0AAE1FC 
 975      1C2994EB 
 975      C8EC
 976 2fae F214C487 		.ascii	"\362\024\304\207E\241\342 \210\326U\320\015\360]dJ\251"
 976      45A1E220 
 976      88D655D0 
 976      0DF05D64 
 976      4AA9
 977 2fc0 BD1B1C6A 		.ascii	"\275\033\034j\347\274\276nts\355]\003\375\240|\234\367"
 977      E7BCBE6E 
 977      7473ED5D 
ARM GAS  /tmp/ccIdAxfh.s 			page 79


 977      03FDA07C 
 977      9CF7
 978 2fd2 0AF99599 		.ascii	"\012\371\225\231\254\226Y]{v\355\3255+\343\215\354\027"
 978      AC96595D 
 978      7B76EDD5 
 978      352BE38D 
 978      EC17
 979 2fe4 C14B75CD 		.ascii	"\301Ku\315\350\237\325\243W\327\266=;e\265\355\371\362"
 979      E89FD5A3 
 979      57D7B63D 
 979      3B65B5ED 
 979      F9F2
 980 2ff6 4BDDDB76 		.ascii	"K\335\333v\352\231\3256\023\276"
 980      EA99D536 
 980      13BE
 981 3000 64F5EADD 		.ascii	"d\365\352\335\203\220\256\355\221vh\333;\243kff\017"
 981      8390AEED 
 981      917668DB 
 981      3BA36B66 
 981      660F
 982 3012 7A828BF4 		.ascii	"z\202\213\364\334\241\355\213\257\364\352\322\003)\\"
 982      DCA1ED8B 
 982      AFF4EAD2 
 982      03295C
 983 3021 C45387B6 		.ascii	"\304S\207\266\235:w~\235\2207\010\371{\333^\235\272"
 983      9D3A777E 
 983      9D903708 
 983      F97BDB5E 
 983      9DBA
 984 3033 BF4EC81B 		.ascii	"\277N\310\033\204\374=Eh\026m\372\340XBD\301Y`\321\036"
 984      84FC3D45 
 984      68166DFA 
 984      E0584244 
 984      C15960D1 
 985 3048 106C11F4 		.ascii	"\020l\021\364\237\377\017\000\260\307\033"
 985      9FFF0F00 
 985      B0C71B
 986              		.text
 987              		.section	.gnu.lto_.symtab.46a1c66df1365aeb,"",%progbits
 988 0000 6C46696C 		.ascii	"lFile\000\000\000\000\000\000\000\000\000\000\000\000"
 988      65000000 
 988      00000000 
 988      00000000 
 988      00
 989 0011 FD040000 		.ascii	"\375\004\000\000initialize\000\000\000\000\000\000\000"
 989      696E6974 
 989      69616C69 
 989      7A650000 
 989      00000000 
 990 0026 00000000 		.ascii	"\000\000\000\000\000g\004\000\000MMCD1\000\000\000\000"
 990      00670400 
 990      004D4D43 
 990      44310000 
 990      0000
 991 0038 00000000 		.ascii	"\000\000\000\000\000\000\000\000\377\004\000\000ope"
 991      00000000 
 991      FF040000 
ARM GAS  /tmp/ccIdAxfh.s 			page 80


 991      6F7065
 992 0047 6E4E6577 		.ascii	"nNewLogfile\000\000\000\000\000\000\000\000\000\000"
 992      4C6F6766 
 992      696C6500 
 992      00000000 
 992      00000000 
 993 005c 00006B04 		.ascii	"\000\000k\004\000\000closeLog\000\000\000\000\000\000"
 993      0000636C 
 993      6F73654C 
 993      6F670000 
 993      00000000 
 994 0070 00000000 		.ascii	"\000\000\000\000\000\000q\004\000\000printGps\000\000"
 994      00007104 
 994      00007072 
 994      696E7447 
 994      70730000 
 995 0084 00000000 		.ascii	"\000\000\000\000\000\000\000\000\000\000u\004\000\000"
 995      00000000 
 995      00007504 
 995      0000
 996 0092 77726974 		.ascii	"writeHeader\000\000\000\000\000\000\000\000\000\000"
 996      65486561 
 996      64657200 
 996      00000000 
 996      00000000 
 997 00a7 00008F04 		.ascii	"\000\000\217\004\000\000main\000\000\000\000\000\000"
 997      00006D61 
 997      696E0000 
 997      00000000 
 998 00b7 00000000 		.ascii	"\000\000\000\000\000\000\222\004\000\000SD6\000\000"
 998      00009204 
 998      00005344 
 998      360000
 999 00c6 02000000 		.ascii	"\002\000\000\000\000\000\000\000\000\000\371\004\000"
 999      00000000 
 999      0000F904 
 999      00
 1000 00d3 00554152 		.ascii	"\000UARTD1\000\000\002\000\000\000\000\000\000\000\000"
 1000      54443100 
 1000      00020000 
 1000      00000000 
 1000      0000
 1001 00e5 00040500 		.ascii	"\000\004\005\000\000gpsThread\000\000\002\000\000\000"
 1001      00677073 
 1001      54687265 
 1001      61640000 
 1001      02000000 
 1002 00f9 00000000 		.ascii	"\000\000\000\000\000\000:\004\000\000chvprintf\000\000"
 1002      00003A04 
 1002      00006368 
 1002      76707269 
 1002      6E746600 
 1003 010e 02000000 		.ascii	"\002\000\000\000\000\000\000\000\000\000\226\004\000"
 1003      00000000 
 1003      00009604 
 1003      00
 1004 011b 00646174 		.ascii	"\000dataLoggerInitialize\000\000\002\000\000\000\000"
ARM GAS  /tmp/ccIdAxfh.s 			page 81


 1004      614C6F67 
 1004      67657249 
 1004      6E697469 
 1004      616C697A 
 1005 0137 00000000 		.ascii	"\000\000\000\000\000\245\004\000\000chsnprintf\000\000"
 1005      00A50400 
 1005      00636873 
 1005      6E707269 
 1005      6E746600 
 1006 014c 02000000 		.ascii	"\002\000\000\000\000\000\000\000\000\000\254\004\000"
 1006      00000000 
 1006      0000AC04 
 1006      00
 1007 0159 006C6F67 		.ascii	"\000logfileNew\000\000\002\000\000\000\000\000\000\000"
 1007      66696C65 
 1007      4E657700 
 1007      00020000 
 1007      00000000 
 1008 016e 0000B204 		.ascii	"\000\000\262\004\000\000sdmmcFSMounted\000\000\002\000"
 1008      00007364 
 1008      6D6D6346 
 1008      534D6F75 
 1008      6E746564 
 1009 0186 00000000 		.ascii	"\000\000\000\000\000\000\000\000\271\004\000\000chT"
 1009      00000000 
 1009      B9040000 
 1009      636854
 1010 0195 6864536C 		.ascii	"hdSleep\000\000\002\000\000\000\000\000\000\000\000"
 1010      65657000 
 1010      00020000 
 1010      00000000 
 1010      0000
 1011 01a7 00BD0400 		.ascii	"\000\275\004\000\000sdmmcInitialize\000\000\002\000"
 1011      0073646D 
 1011      6D63496E 
 1011      69746961 
 1011      6C697A65 
 1012 01bf 00000000 		.ascii	"\000\000\000\000\000\000\000\000\301\004\000\000sdS"
 1012      00000000 
 1012      C1040000 
 1012      736453
 1013 01ce 74617274 		.ascii	"tart\000\000\002\000\000\000\000\000\000\000\000\000"
 1013      00000200 
 1013      00000000 
 1013      00000000 
 1014 01de C7040000 		.ascii	"\307\004\000\000gpsStart\000\000\002\000\000\000\000"
 1014      67707353 
 1014      74617274 
 1014      00000200 
 1014      000000
 1015 01f1 00000000 		.ascii	"\000\000\000\000\000\316\004\000\000boardInit\000\000"
 1015      00CE0400 
 1015      00626F61 
 1015      7264496E 
 1015      69740000 
 1016 0205 02000000 		.ascii	"\002\000\000\000\000\000\000\000\000\000\322\004\000"
 1016      00000000 
ARM GAS  /tmp/ccIdAxfh.s 			page 82


 1016      0000D204 
 1016      00
 1017 0212 00636853 		.ascii	"\000chSysInit\000\000\002\000\000\000\000\000\000\000"
 1017      7973496E 
 1017      69740000 
 1017      02000000 
 1017      00000000 
 1018 0226 0000D404 		.ascii	"\000\000\324\004\000\000halInit\000\000\002\000\000"
 1018      00006861 
 1018      6C496E69 
 1018      74000002 
 1018      0000
 1019 0238 00000000 		.ascii	"\000\000\000\000\000\000\000\326\004\000\000logfile"
 1019      000000D6 
 1019      0400006C 
 1019      6F676669 
 1019      6C65
 1020 024a 436C6F73 		.ascii	"Close\000\000\002\000\000\000\000\000\000\000\000\000"
 1020      65000002 
 1020      00000000 
 1020      00000000 
 1020      00
 1021 025b D8040000 		.ascii	"\330\004\000\000logfileWrite\000\000\002\000\000\000"
 1021      6C6F6766 
 1021      696C6557 
 1021      72697465 
 1021      00000200 
 1022 0271 00000000 		.ascii	"\000\000\000\000\000\000\334\004\000\000boardSetBuz"
 1022      0000DC04 
 1022      0000626F 
 1022      61726453 
 1022      65744275 
 1023 0286 7A657200 		.ascii	"zer\000\000\002\000\000\000\000\000\000\000\000\000"
 1023      00020000 
 1023      00000000 
 1023      000000
 1024 0295 E3040000 		.ascii	"\343\004\000\000boardSetLED\000\000\002\000\000\000"
 1024      626F6172 
 1024      64536574 
 1024      4C454400 
 1024      00020000 
 1025 02aa 00000000 		.ascii	"\000\000\000\000\000\000\347\004\000\000gpsGetLocat"
 1025      0000E704 
 1025      00006770 
 1025      73476574 
 1025      4C6F6361 
 1026 02bf 696F6E00 		.ascii	"ion\000\000\002\000\000\000\000\000\000\000\000\000"
 1026      00020000 
 1026      00000000 
 1026      000000
 1027 02ce E9040000 		.ascii	"\351\004\000\000chThdCreateStatic\000\000\002\000\000"
 1027      63685468 
 1027      64437265 
 1027      61746553 
 1027      74617469 
 1028 02e8 00000000 		.ascii	"\000\000\000\000\000\000\000\353\004\000\000"
 1028      000000EB 
ARM GAS  /tmp/ccIdAxfh.s 			page 83


 1028      040000
 1029              		.text
 1030              		.section	.gnu.lto_.opts,"",%progbits
 1031 0000 272D6D63 		.ascii	"'-mcpu=cortex-m4' '-mfloat-abi=hard' '-mfpu=fpv4-sp"
 1031      70753D63 
 1031      6F727465 
 1031      782D6D34 
 1031      2720272D 
 1032 0033 2D643136 		.ascii	"-d16' '-mno-thumb-interwork' '-mthumb' '-O2' '-fomi"
 1032      2720272D 
 1032      6D6E6F2D 
 1032      7468756D 
 1032      622D696E 
 1033 0066 742D6672 		.ascii	"t-frame-pointer' '-falign-functions=16' '-ffunction"
 1033      616D652D 
 1033      706F696E 
 1033      74657227 
 1033      20272D66 
 1034 0099 2D736563 		.ascii	"-sections' '-fdata-sections' '-fno-common' '-flto' "
 1034      74696F6E 
 1034      73272027 
 1034      2D666461 
 1034      74612D73 
 1035 00cc 272D6673 		.ascii	"'-fsingle-precision-constant'\000"
 1035      696E676C 
 1035      652D7072 
 1035      65636973 
 1035      696F6E2D 
 1036              		.text
 1037              		.section	.text.chprintf.constprop.2,"ax",%progbits
 1038              		.align	2
 1039              		.p2align 4,,15
 1040              		.thumb
 1041              		.thumb_func
 1042              		.type	chprintf.constprop.2, %function
 1043              	chprintf.constprop.2:
 1044              		@ args = 4, pretend = 12, frame = 8
 1045              		@ frame_needed = 0, uses_anonymous_args = 1
 1046 0000 0EB4     		push	{r1, r2, r3}
 1047 0002 00B5     		push	{lr}
 1048 0004 82B0     		sub	sp, sp, #8
 1049 0006 03AA     		add	r2, sp, #12
 1050 0008 0548     		ldr	r0, .L2
 1051 000a 52F8041B 		ldr	r1, [r2], #4
 1052 000e 0192     		str	r2, [sp, #4]
 1053 0010 FFF7FEFF 		bl	chvprintf
 1054 0014 02B0     		add	sp, sp, #8
 1055              		@ sp needed
 1056 0016 5DF804EB 		ldr	lr, [sp], #4
 1057 001a 03B0     		add	sp, sp, #12
 1058 001c 7047     		bx	lr
 1059              	.L3:
 1060 001e 00BF     		.align	2
 1061              	.L2:
 1062 0020 00000000 		.word	SD6
 1063              		.size	chprintf.constprop.2, .-chprintf.constprop.2
 1064 0024 AFF30080 		.section	.text.initialize,"ax",%progbits
ARM GAS  /tmp/ccIdAxfh.s 			page 84


 1064      AFF30080 
 1064      AFF30080 
 1065              		.align	2
 1066              		.p2align 4,,15
 1067              		.global	initialize
 1068              		.thumb
 1069              		.thumb_func
 1070              		.type	initialize, %function
 1071              	initialize:
 1072              		@ args = 0, pretend = 0, frame = 0
 1073              		@ frame_needed = 0, uses_anonymous_args = 0
 1074 0000 10B5     		push	{r4, lr}
 1075 0002 FFF7FEFF 		bl	halInit
 1076 0006 FFF7FEFF 		bl	chSysInit
 1077 000a FFF7FEFF 		bl	boardInit
 1078 000e 1448     		ldr	r0, .L9
 1079 0010 FFF7FEFF 		bl	gpsStart
 1080 0014 1348     		ldr	r0, .L9+4
 1081 0016 1449     		ldr	r1, .L9+8
 1082 0018 FFF7FEFF 		bl	sdStart
 1083 001c 1349     		ldr	r1, .L9+12
 1084 001e 1148     		ldr	r0, .L9+4
 1085 0020 FFF7FEFF 		bl	chprintf.constprop.2
 1086 0024 1248     		ldr	r0, .L9+16
 1087 0026 1349     		ldr	r1, .L9+20
 1088 0028 0E4A     		ldr	r2, .L9+4
 1089 002a FFF7FEFF 		bl	sdmmcInitialize
 1090 002e 0446     		mov	r4, r0
 1091 0030 40F6C410 		movw	r0, #2500
 1092 0034 FFF7FEFF 		bl	chThdSleep
 1093 0038 24B9     		cbnz	r4, .L5
 1094 003a 0D48     		ldr	r0, .L9+16
 1095 003c FFF7FEFF 		bl	sdmmcFSMounted
 1096 0040 30B9     		cbnz	r0, .L8
 1097 0042 10BD     		pop	{r4, pc}
 1098              	.L5:
 1099 0044 0748     		ldr	r0, .L9+4
 1100 0046 0C49     		ldr	r1, .L9+24
 1101 0048 BDE81040 		pop	{r4, lr}
 1102 004c FFF7FEBF 		b	chprintf.constprop.2
 1103              	.L8:
 1104 0050 0A48     		ldr	r0, .L9+28
 1105 0052 0B49     		ldr	r1, .L9+32
 1106 0054 064A     		ldr	r2, .L9+16
 1107 0056 034B     		ldr	r3, .L9+4
 1108 0058 BDE81040 		pop	{r4, lr}
 1109 005c FFF7FEBF 		b	dataLoggerInitialize
 1110              	.L10:
 1111              		.align	2
 1112              	.L9:
 1113 0060 00000000 		.word	UARTD1
 1114 0064 00000000 		.word	SD6
 1115 0068 00000000 		.word	.LANCHOR0
 1116 006c 00000000 		.word	.LC0
 1117 0070 00000000 		.word	.LANCHOR1
 1118 0074 00000000 		.word	.LANCHOR2
 1119 0078 0C000000 		.word	.LC2
ARM GAS  /tmp/ccIdAxfh.s 			page 85


 1120 007c 00000000 		.word	.LANCHOR3
 1121 0080 08000000 		.word	.LC1
 1122              		.size	initialize, .-initialize
 1123 0084 AFF30080 		.section	.text.openNewLogfile,"ax",%progbits
 1123      AFF30080 
 1123      AFF30080 
 1124              		.align	2
 1125              		.p2align 4,,15
 1126              		.global	openNewLogfile
 1127              		.thumb
 1128              		.thumb_func
 1129              		.type	openNewLogfile, %function
 1130              	openNewLogfile:
 1131              		@ args = 0, pretend = 0, frame = 24
 1132              		@ frame_needed = 0, uses_anonymous_args = 0
 1133 0000 10B5     		push	{r4, lr}
 1134 0002 114B     		ldr	r3, .L19
 1135 0004 1A7D     		ldrb	r2, [r3, #20]	@ zero_extendqisi2
 1136 0006 86B0     		sub	sp, sp, #24
 1137 0008 1AB1     		cbz	r2, .L17
 1138 000a 0220     		movs	r0, #2
 1139 000c 40B2     		sxtb	r0, r0
 1140 000e 06B0     		add	sp, sp, #24
 1141              		@ sp needed
 1142 0010 10BD     		pop	{r4, pc}
 1143              	.L17:
 1144 0012 0928     		cmp	r0, #9
 1145 0014 0346     		mov	r3, r0
 1146 0016 11DD     		ble	.L18
 1147 0018 6328     		cmp	r0, #99
 1148 001a 4FF05001 		mov	r1, #80
 1149 001e 6846     		mov	r0, sp
 1150 0020 D4BF     		ite	le
 1151 0022 0A4A     		ldrle	r2, .L19+4
 1152 0024 0A4A     		ldrgt	r2, .L19+8
 1153 0026 FFF7FEFF 		bl	chsnprintf
 1154              	.L14:
 1155 002a 6B46     		mov	r3, sp
 1156 002c 0949     		ldr	r1, .L19+12
 1157 002e 0A4A     		ldr	r2, .L19+16
 1158 0030 0548     		ldr	r0, .L19
 1159 0032 FFF7FEFF 		bl	logfileNew
 1160 0036 40B2     		sxtb	r0, r0
 1161 0038 06B0     		add	sp, sp, #24
 1162              		@ sp needed
 1163 003a 10BD     		pop	{r4, pc}
 1164              	.L18:
 1165 003c 6846     		mov	r0, sp
 1166 003e 5021     		movs	r1, #80
 1167 0040 064A     		ldr	r2, .L19+20
 1168 0042 FFF7FEFF 		bl	chsnprintf
 1169 0046 F0E7     		b	.L14
 1170              	.L20:
 1171              		.align	2
 1172              	.L19:
 1173 0048 00000000 		.word	.LANCHOR4
 1174 004c 44000000 		.word	.LC4
ARM GAS  /tmp/ccIdAxfh.s 			page 86


 1175 0050 58000000 		.word	.LC5
 1176 0054 00000000 		.word	.LANCHOR3
 1177 0058 00000000 		.word	.LANCHOR5
 1178 005c 30000000 		.word	.LC3
 1179              		.size	openNewLogfile, .-openNewLogfile
 1180              		.section	.text.closeLog,"ax",%progbits
 1181              		.align	2
 1182              		.p2align 4,,15
 1183              		.global	closeLog
 1184              		.thumb
 1185              		.thumb_func
 1186              		.type	closeLog, %function
 1187              	closeLog:
 1188              		@ args = 0, pretend = 0, frame = 0
 1189              		@ frame_needed = 0, uses_anonymous_args = 0
 1190 0000 08B5     		push	{r3, lr}
 1191 0002 0248     		ldr	r0, .L22
 1192 0004 FFF7FEFF 		bl	logfileClose
 1193 0008 0020     		movs	r0, #0
 1194 000a 08BD     		pop	{r3, pc}
 1195              	.L23:
 1196              		.align	2
 1197              	.L22:
 1198 000c 00000000 		.word	.LANCHOR4
 1199              		.size	closeLog, .-closeLog
 1200              		.section	.text.printGps,"ax",%progbits
 1201              		.align	2
 1202              		.p2align 4,,15
 1203              		.global	printGps
 1204              		.thumb
 1205              		.thumb_func
 1206              		.type	printGps, %function
 1207              	printGps:
 1208              		@ args = 0, pretend = 0, frame = 0
 1209              		@ frame_needed = 0, uses_anonymous_args = 0
 1210 0000 00B5     		push	{lr}
 1211 0002 0246     		mov	r2, r0
 1212 0004 02F14001 		add	r1, r2, #64
 1213 0008 02F15003 		add	r3, r2, #80
 1214 000c 85B0     		sub	sp, sp, #20
 1215 000e 2830     		adds	r0, r0, #40
 1216 0010 8DE80B00 		stmia	sp, {r0, r1, r3}
 1217 0014 02F11003 		add	r3, r2, #16
 1218 0018 0349     		ldr	r1, .L25
 1219 001a 0448     		ldr	r0, .L25+4
 1220 001c FFF7FEFF 		bl	chprintf.constprop.2
 1221 0020 05B0     		add	sp, sp, #20
 1222              		@ sp needed
 1223 0022 5DF804FB 		ldr	pc, [sp], #4
 1224              	.L26:
 1225 0026 00BF     		.align	2
 1226              	.L25:
 1227 0028 68000000 		.word	.LC6
 1228 002c 00000000 		.word	SD6
 1229              		.size	printGps, .-printGps
 1230              		.section	.text.writeHeader,"ax",%progbits
 1231              		.align	2
ARM GAS  /tmp/ccIdAxfh.s 			page 87


 1232              		.p2align 4,,15
 1233              		.global	writeHeader
 1234              		.thumb
 1235              		.thumb_func
 1236              		.type	writeHeader, %function
 1237              	writeHeader:
 1238              		@ args = 0, pretend = 0, frame = 72
 1239              		@ frame_needed = 0, uses_anonymous_args = 0
 1240 0000 00B5     		push	{lr}
 1241 0002 93B0     		sub	sp, sp, #76
 1242 0004 6846     		mov	r0, sp
 1243 0006 4821     		movs	r1, #72
 1244 0008 054A     		ldr	r2, .L28
 1245 000a FFF7FEFF 		bl	chsnprintf
 1246 000e 6946     		mov	r1, sp
 1247 0010 82B2     		uxth	r2, r0
 1248 0012 0023     		movs	r3, #0
 1249 0014 0348     		ldr	r0, .L28+4
 1250 0016 FFF7FEFF 		bl	logfileWrite
 1251 001a 13B0     		add	sp, sp, #76
 1252              		@ sp needed
 1253 001c 5DF804FB 		ldr	pc, [sp], #4
 1254              	.L29:
 1255              		.align	2
 1256              	.L28:
 1257 0020 94000000 		.word	.LC7
 1258 0024 00000000 		.word	.LANCHOR4
 1259              		.size	writeHeader, .-writeHeader
 1260 0028 AFF30080 		.section	.text.startup.main,"ax",%progbits
 1260      AFF30080 
 1261              		.align	2
 1262              		.p2align 4,,15
 1263              		.global	main
 1264              		.thumb
 1265              		.thumb_func
 1266              		.type	main, %function
 1267              	main:
 1268              		@ args = 0, pretend = 0, frame = 104
 1269              		@ frame_needed = 0, uses_anonymous_args = 0
 1270 0000 00B5     		push	{lr}
 1271 0002 9DB0     		sub	sp, sp, #116
 1272 0004 FFF7FEFF 		bl	initialize
 1273 0008 03AB     		add	r3, sp, #12
 1274 000a 4FF4CB61 		mov	r1, #1624
 1275 000e 4022     		movs	r2, #64
 1276 0010 0093     		str	r3, [sp]
 1277 0012 1648     		ldr	r0, .L32
 1278 0014 164B     		ldr	r3, .L32+4
 1279 0016 FFF7FEFF 		bl	chThdCreateStatic
 1280 001a 0120     		movs	r0, #1
 1281 001c FFF7FEFF 		bl	boardSetBuzzer
 1282 0020 0120     		movs	r0, #1
 1283 0022 FFF7FEFF 		bl	boardSetLED
 1284 0026 40F6B830 		movw	r0, #3000
 1285 002a FFF7FEFF 		bl	chThdSleep
 1286 002e 0020     		movs	r0, #0
 1287 0030 FFF7FEFF 		bl	boardSetBuzzer
ARM GAS  /tmp/ccIdAxfh.s 			page 88


 1288 0034 0020     		movs	r0, #0
 1289 0036 FFF7FEFF 		bl	boardSetLED
 1290              	.L31:
 1291 003a 0120     		movs	r0, #1
 1292 003c FFF7FEFF 		bl	boardSetLED
 1293 0040 04A8     		add	r0, sp, #16
 1294 0042 FFF7FEFF 		bl	gpsGetLocation
 1295 0046 4FF47A60 		mov	r0, #4000
 1296 004a FFF7FEFF 		bl	chThdSleep
 1297 004e 0120     		movs	r0, #1
 1298 0050 FFF7FEFF 		bl	boardSetBuzzer
 1299 0054 0020     		movs	r0, #0
 1300 0056 FFF7FEFF 		bl	boardSetLED
 1301 005a 41F27660 		movw	r0, #5750
 1302 005e FFF7FEFF 		bl	chThdSleep
 1303 0062 0020     		movs	r0, #0
 1304 0064 FFF7FEFF 		bl	boardSetBuzzer
 1305 0068 E7E7     		b	.L31
 1306              	.L33:
 1307 006a 00BF     		.align	2
 1308              	.L32:
 1309 006c 00000000 		.word	.LANCHOR6
 1310 0070 00000000 		.word	gpsThread
 1311              		.size	main, .-main
 1312              		.global	MMCD1
 1313              		.global	lFile
 1314 0074 AFF30080 		.section	.data.serCfg,"aw",%progbits
 1314      AFF30080 
 1314      AFF30080 
 1315              		.align	2
 1316              		.set	.LANCHOR0,. + 0
 1317              		.type	serCfg, %object
 1318              		.size	serCfg, 12
 1319              	serCfg:
 1320 0000 00C20100 		.word	115200
 1321 0004 0000     		.short	0
 1322 0006 0000     		.short	0
 1323 0008 0000     		.short	0
 1324 000a 0000     		.space	2
 1325              		.section	.bss.waGps,"aw",%nobits
 1326              		.align	3
 1327              		.set	.LANCHOR6,. + 0
 1328              		.type	waGps, %object
 1329              		.size	waGps, 1624
 1330              	waGps:
 1331 0000 00000000 		.space	1624
 1331      00000000 
 1331      00000000 
 1331      00000000 
 1331      00000000 
 1332              		.section	.bss.MMCD1,"aw",%nobits
 1333              		.align	2
 1334              		.set	.LANCHOR2,. + 0
 1335              		.type	MMCD1, %object
 1336              		.size	MMCD1, 52
 1337              	MMCD1:
 1338 0000 00000000 		.space	52
ARM GAS  /tmp/ccIdAxfh.s 			page 89


 1338      00000000 
 1338      00000000 
 1338      00000000 
 1338      00000000 
 1339              		.section	.rodata.str1.4,"aMS",%progbits,1
 1340              		.align	2
 1341              	.LC0:
 1342 0000 53544152 		.ascii	"START\012\000"
 1342      540A00
 1343 0007 00       		.space	1
 1344              	.LC1:
 1345 0008 00       		.ascii	"\000"
 1346 0009 000000   		.space	3
 1347              	.LC2:
 1348 000c 0A455252 		.ascii	"\012ERROR: SD Initialization Failed\012\000"
 1348      4F523A20 
 1348      53442049 
 1348      6E697469 
 1348      616C697A 
 1349 002e 0000     		.space	2
 1350              	.LC3:
 1351 0030 6C6F6773 		.ascii	"logs/DAT_00%d.csv\000"
 1351      2F444154 
 1351      5F303025 
 1351      642E6373 
 1351      7600
 1352 0042 0000     		.space	2
 1353              	.LC4:
 1354 0044 6C6F6773 		.ascii	"logs/DAT_0%d.csv\000"
 1354      2F444154 
 1354      5F302564 
 1354      2E637376 
 1354      00
 1355 0055 000000   		.space	3
 1356              	.LC5:
 1357 0058 6C6F6773 		.ascii	"logs/DAT_%d.csv\000"
 1357      2F444154 
 1357      5F25642E 
 1357      63737600 
 1358              	.LC6:
 1359 0068 54494D45 		.ascii	"TIME:%s, LAT:%s, LONG:%s, ALT:%s, SAT:%s\012\000"
 1359      3A25732C 
 1359      204C4154 
 1359      3A25732C 
 1359      204C4F4E 
 1360 0092 0000     		.space	2
 1361              	.LC7:
 1362 0094 54494D45 		.ascii	"TIME,LAT,LONG,ALT,SAT,TMPI,TMPE1,TMPE2,PRESSI,PRESS"
 1362      2C4C4154 
 1362      2C4C4F4E 
 1362      472C414C 
 1362      542C5341 
 1363 00c7 45312C50 		.ascii	"E1,PRESSE2,HUMDI,HUMDE1,HUMDE2,ACCX,ACCY,ACCZ,MAGX,"
 1363      52455353 
 1363      45322C48 
 1363      554D4449 
 1363      2C48554D 
ARM GAS  /tmp/ccIdAxfh.s 			page 90


 1364 00fa 4D414759 		.ascii	"MAGY,MAGZ\012\000"
 1364      2C4D4147 
 1364      5A0A00
 1365 0105 000000   		.section	.bss.sensorLog,"aw",%nobits
 1366              		.align	2
 1367              		.set	.LANCHOR4,. + 0
 1368              		.type	sensorLog, %object
 1369              		.size	sensorLog, 24
 1370              	sensorLog:
 1371 0000 00000000 		.space	24
 1371      00000000 
 1371      00000000 
 1371      00000000 
 1371      00000000 
 1372              		.section	.bss.sd,"aw",%nobits
 1373              		.align	2
 1374              		.set	.LANCHOR1,. + 0
 1375              		.type	sd, %object
 1376              		.size	sd, 16
 1377              	sd:
 1378 0000 00000000 		.space	16
 1378      00000000 
 1378      00000000 
 1378      00000000 
 1379              		.section	.bss.logger,"aw",%nobits
 1380              		.align	2
 1381              		.set	.LANCHOR3,. + 0
 1382              		.type	logger, %object
 1383              		.size	logger, 16
 1384              	logger:
 1385 0000 00000000 		.space	16
 1385      00000000 
 1385      00000000 
 1385      00000000 
 1386              		.section	.bss.lFile,"aw",%nobits
 1387              		.align	2
 1388              		.set	.LANCHOR5,. + 0
 1389              		.type	lFile, %object
 1390              		.size	lFile, 548
 1391              	lFile:
 1392 0000 00000000 		.space	548
 1392      00000000 
 1392      00000000 
 1392      00000000 
 1392      00000000 
 1393              		.comm	__gnu_lto_v1,1,1
 1394              		.ident	"GCC: (GNU Tools for ARM Embedded Processors) 4.8.4 20140526 (release) [ARM/embedded-4_8-br
ARM GAS  /tmp/ccIdAxfh.s 			page 91


DEFINED SYMBOLS
                            *ABS*:0000000000000000 main.c
     /tmp/ccIdAxfh.s:1038   .text.chprintf.constprop.2:0000000000000000 $t
     /tmp/ccIdAxfh.s:1043   .text.chprintf.constprop.2:0000000000000000 chprintf.constprop.2
     /tmp/ccIdAxfh.s:1062   .text.chprintf.constprop.2:0000000000000020 $d
     /tmp/ccIdAxfh.s:1065   .text.initialize:0000000000000000 $t
     /tmp/ccIdAxfh.s:1071   .text.initialize:0000000000000000 initialize
     /tmp/ccIdAxfh.s:1113   .text.initialize:0000000000000060 $d
     /tmp/ccIdAxfh.s:1124   .text.openNewLogfile:0000000000000000 $t
     /tmp/ccIdAxfh.s:1130   .text.openNewLogfile:0000000000000000 openNewLogfile
     /tmp/ccIdAxfh.s:1173   .text.openNewLogfile:0000000000000048 $d
     /tmp/ccIdAxfh.s:1181   .text.closeLog:0000000000000000 $t
     /tmp/ccIdAxfh.s:1187   .text.closeLog:0000000000000000 closeLog
     /tmp/ccIdAxfh.s:1198   .text.closeLog:000000000000000c $d
     /tmp/ccIdAxfh.s:1201   .text.printGps:0000000000000000 $t
     /tmp/ccIdAxfh.s:1207   .text.printGps:0000000000000000 printGps
     /tmp/ccIdAxfh.s:1227   .text.printGps:0000000000000028 $d
     /tmp/ccIdAxfh.s:1231   .text.writeHeader:0000000000000000 $t
     /tmp/ccIdAxfh.s:1237   .text.writeHeader:0000000000000000 writeHeader
     /tmp/ccIdAxfh.s:1257   .text.writeHeader:0000000000000020 $d
     /tmp/ccIdAxfh.s:1261   .text.startup.main:0000000000000000 $t
     /tmp/ccIdAxfh.s:1267   .text.startup.main:0000000000000000 main
     /tmp/ccIdAxfh.s:1309   .text.startup.main:000000000000006c $d
     /tmp/ccIdAxfh.s:1337   .bss.MMCD1:0000000000000000 MMCD1
     /tmp/ccIdAxfh.s:1391   .bss.lFile:0000000000000000 lFile
     /tmp/ccIdAxfh.s:1315   .data.serCfg:0000000000000000 $d
     /tmp/ccIdAxfh.s:1319   .data.serCfg:0000000000000000 serCfg
     /tmp/ccIdAxfh.s:1326   .bss.waGps:0000000000000000 $d
     /tmp/ccIdAxfh.s:1330   .bss.waGps:0000000000000000 waGps
     /tmp/ccIdAxfh.s:1333   .bss.MMCD1:0000000000000000 $d
     /tmp/ccIdAxfh.s:1340   .rodata.str1.4:0000000000000000 $d
     /tmp/ccIdAxfh.s:1366   .bss.sensorLog:0000000000000000 $d
     /tmp/ccIdAxfh.s:1370   .bss.sensorLog:0000000000000000 sensorLog
     /tmp/ccIdAxfh.s:1373   .bss.sd:0000000000000000 $d
     /tmp/ccIdAxfh.s:1377   .bss.sd:0000000000000000 sd
     /tmp/ccIdAxfh.s:1380   .bss.logger:0000000000000000 $d
     /tmp/ccIdAxfh.s:1384   .bss.logger:0000000000000000 logger
     /tmp/ccIdAxfh.s:1387   .bss.lFile:0000000000000000 $d
                            *COM*:0000000000000001 __gnu_lto_v1
     /tmp/ccIdAxfh.s:1064   .text.chprintf.constprop.2:0000000000000024 $t
     /tmp/ccIdAxfh.s:1123   .text.initialize:0000000000000084 $t
     /tmp/ccIdAxfh.s:1260   .text.writeHeader:0000000000000028 $t
     /tmp/ccIdAxfh.s:1314   .text.startup.main:0000000000000074 $t

UNDEFINED SYMBOLS
chvprintf
SD6
halInit
chSysInit
boardInit
gpsStart
sdStart
sdmmcInitialize
chThdSleep
sdmmcFSMounted
dataLoggerInitialize
UARTD1
ARM GAS  /tmp/ccIdAxfh.s 			page 92


chsnprintf
logfileNew
logfileClose
logfileWrite
chThdCreateStatic
boardSetBuzzer
boardSetLED
gpsGetLocation
gpsThread
