ARM GAS  /tmp/ccRIKfpM.s 			page 1


   1              		.syntax unified
   2              		.cpu cortex-m4
   3              		.eabi_attribute 27, 3
   4              		.eabi_attribute 28, 1
   5              		.fpu fpv4-sp-d16
   6              		.eabi_attribute 20, 1
   7              		.eabi_attribute 21, 1
   8              		.eabi_attribute 23, 3
   9              		.eabi_attribute 24, 1
  10              		.eabi_attribute 25, 1
  11              		.eabi_attribute 26, 1
  12              		.eabi_attribute 30, 2
  13              		.eabi_attribute 34, 1
  14              		.eabi_attribute 18, 4
  15              		.thumb
  16              		.file	"main.c"
  17              		.section	.gnu.lto_.jmpfuncs.68965d224f53fd2,"",%progbits
  18 0000 789C8552 		.ascii	"x\234\205R\315N\302@\020\236i)\205\312?\012\342OmLH"
  18      CD4EC240 
  18      109E6929 
  18      85CA3F0A 
  18      E24F6D4C 
  19 0015 8C21CA55 		.ascii	"\214!\312UN4\001\225\004\305@\017\036L\014\001cjX8@"
  19      4E340195 
  19      04C5400F 
  19      1E4C0C01 
  19      636A5838 
  20 002a 38E885A3 		.ascii	"8\350\205\243'\317\\L|\014\037\300\207\360\021|\002"
  20      27CF5C4C 
  20      7C0C1FC0 
  20      87F0117C 
  20      02
  21 003b 0F9E6C77 		.ascii	"\017\236lwWZh\301\275\354\3547\337\316~\363\355\010"
  21      575A68C1 
  21      BDECEC37 
  21      DFCE7EF3 
  21      ED08
  22 004d 2080DF7A 		.ascii	" \200\337z\020\001^\254=\014\"\002\210\326\011\306\326"
  22      10015EAC 
  22      3D0C2202 
  22      88D609C6 
  22      D6
  23 005e 0E80633B 		.ascii	"\016\200c;m]\022\256\321D;F\010\010O\3603y\236$LDB1"
  23      6D5D12AE 
  23      D1443B46 
  23      08084FF0 
  23      33799E24 
  24 0076 A0C8D446 		.ascii	"\240\310\324F\004\025\360u2-\233(:\031\312\015\020\304"
  24      0415F075 
  24      322D9B28 
  24      3A19CA0D 
  24      10C4
  25 0088 79442248 		.ascii	"yD\"H\345H\030\340\017\004\257\334\265d\025DV+DkqY\376"
  25      E54818E0 
  25      0F04AFDC 
  25      B5641544 
  25      562B446B 
ARM GAS  /tmp/ccRIKfpM.s 			page 2


  26 009f E4B00A19 		.ascii	"\344\260\012\031FV\376'\257\251p\300\310\2219\262\243"
  26      4656FE27 
  26      AFA970C0 
  26      C89139B2 
  26      A3
  27 00b0 2D4A5803 		.ascii	"-JX\003Kz\245H\214\330\302\355\025\002\301\333\226\363"
  27      4B7AA548 
  27      8CD8C2ED 
  27      1502C1DB 
  27      96F3
  28 00c2 5C5C8513 		.ascii	"\\\\\205\023\366\\\202\361\321k\013R\231\311/\331R\263"
  28      F65C82F1 
  28      D16B0B52 
  28      99C92FD9 
  28      52B3
  29 00d4 CAB41441 		.ascii	"\312\264\024A\311\337F^\341#\015\253\325\244U\270aj"
  29      C9DF465E 
  29      E1230DAB 
  29      D5A455B8 
  29      616A
  30 00e6 D659434B 		.ascii	"\326YCK\310\024\331 \030\\P\234!(\363\271\211 r\353"
  30      C814D920 
  30      185C509C 
  30      2128F3B9 
  30      892072EB 
  31 00fa A26EC69F 		.ascii	"\242n\306\237y1\224W\011\311\252\320eB6\027\3461\356"
  31      79319457 
  31      09C9AAD0 
  31      65423617 
  31      E631EE
  32 010d F715F4B2 		.ascii	"\367\025\364\262\335b\216\375\030\373\327s\033N\362"
  32      DD628EFD 
  32      18FBD773 
  32      1B4EF2
  33 011c E6738E0D 		.ascii	"\346s\216\015\337\005\360\2009\234\245\337\366\354Q"
  33      DF05F080 
  33      399CA5DF 
  33      F6EC51
  34 012b F6E02EAE 		.ascii	"\366\340.\256S\352=\353C\264\"\311\321\270E\330\214"
  34      53EA3DEB 
  34      43B422C9 
  34      D1B845D8 
  34      8C
  35 013c D2DCF667 		.ascii	"\322\334\366g\204G;e\267\227\273\035\234u\210\220\352"
  35      84473B65 
  35      B797BB1D 
  35      9C758890 
  35      EA
  36 014d 0DEE87C7 		.ascii	"\015\356\207\307\025\335\270-\026\363\335\243\316p\014"
  36      15DDB82D 
  36      16F3DDA3 
  36      CE700C
  37 015c 4907E248 		.ascii	"I\007\342Hb\206p`_\2516\233\215fIkU\264Z\337\034\231"
  37      62867060 
  37      5FA9369B 
  37      8D66496B 
  37      55B45ADF 
ARM GAS  /tmp/ccRIKfpM.s 			page 3


  38 0172 ED9EF9D8 		.ascii	"\355\236\371\330\036\231\203\276v\3326{w]\005\344\226"
  38      1E9983BE 
  38      76DA367B 
  38      775D05E4 
  38      96
  39 0183 A1370D05 		.ascii	"\2417\015\005\016\215\332E\265\224\037\026\264\272n"
  39      0E8DDA45 
  39      B5941F16 
  39      B4BA6E
  40 0192 B0BD7179 		.ascii	"\260\275qyF\003\275\316\200\026M(\360\013D\347\277q"
  40      4603BDCE 
  40      80164D28 
  40      F00B44E7 
  40      BF71
  41              		.text
  42              		.section	.gnu.lto_.inline.68965d224f53fd2,"",%progbits
  43 0000 789C8D51 		.ascii	"x\234\215Q1\016\3020\014<\227\244\244\024(\010\0111"
  43      310EC230 
  43      0C3C97A4 
  43      A4142808 
  43      0931
  44 0012 5414FA00 		.ascii	"T\024\372\000^\300\300\0132\263\003\003\277\311\310"
  44      5EC0C00B 
  44      32B30303 
  44      BFC9C8
  45 0021 C8731879 		.ascii	"\310s\030y\004\017`c%q\322@\021B4\222{=\237\317v\223"
  45      040F6063 
  45      2571D240 
  45      11423492 
  45      7B3D9FCF 
  46 0037 20C1B747 		.ascii	" \301\267G\006:\203\310K\260(=WQK\220C\240c\264;\235"
  46      063A83C8 
  46      4BB0283D 
  46      57514B90 
  46      43A063B4 
  47 004d 3E0B086A 		.ascii	">\013\010jD-\245\323\010\006\263\262&\211\375\226\216"
  47      442DA5D3 
  47      0806B3B2 
  47      2689FD96 
  47      8E
  48 005e 34CF2C71 		.ascii	"4\317,q\210\310s\273\310\355\330\335\327\261\2178W\033"
  48      88C873BB 
  48      C8EDD8DD 
  48      D7B18F38 
  48      571B
  49 0070 88D374A3 		.ascii	"\210\323t\243\202\245\340\234\321\026\216\324\013/\032"
  49      82A5E09C 
  49      D1168ED4 
  49      0B2F1A
  50 007f 9C16A1AB 		.ascii	"\234\026\241\253B\375\260^\211\272\257\342H\315\254"
  50      42FDB05E 
  50      89BAAFE2 
  50      48CDAC
  51 008e BD806D3A 		.ascii	"\275\200m:\217\353X\316\177\005Uxy\216K^\241\217,\263"
  51      8FEB58CE 
  51      7F055578 
  51      798E4B5E 
ARM GAS  /tmp/ccRIKfpM.s 			page 4


  51      A18F2CB3 
  52 00a2 C5E98737 		.ascii	"\305\351\2077\031=\200\034\264\377\2037\030\"\237\020"
  52      193D801C 
  52      B4FF8337 
  52      18229F10 
  53 00b2 F172EF49 		.ascii	"\361r\357I5\006\272n\356\346\024\027\024\013k\220\\"
  53      3506BA6E 
  53      EEE61417 
  53      140B6B90 
  53      5C
  54 00c3 8B280A3B 		.ascii	"\213(\012;\031\335\014j\364\370\206\345m\355\033\011"
  54      19DD0C6A 
  54      F4F886E5 
  54      6DED1B09 
  55 00d3 843EC40B 		.ascii	"\204>\304\013\375\023\361#\272n\322\337\263[\025O\265"
  55      FD13F123 
  55      BA6ED2DF 
  55      B35B154F 
  55      B5
  56 00e4 8425E7   		.ascii	"\204%\347"
  57              		.text
  58              		.section	.gnu.lto_.pureconst.68965d224f53fd2,"",%progbits
  59 0000 789C6362 		.ascii	"x\234cb`b\020f\200\000N\006\011F\011V\011\016\011\036"
  59      60621066 
  59      80004E06 
  59      09460956 
  59      090E091E 
  60 0014 095E093E 		.ascii	"\011^\011>\011~\011A\023\000\015?\001j"
  60      097E0941 
  60      13000D3F 
  60      016A
  61              		.text
  62              		.section	.gnu.lto_chprintf.68965d224f53fd2,"",%progbits
  63 0000 789C8550 		.ascii	"x\234\205P\315J\002Q\024>\337\0355uc\333v\342\0034\213"
  63      CD4A0251 
  63      143EDF1D 
  63      357563DB 
  63      76E20334 
  64 0015 22E80D7A 		.ascii	"\"\350\015z\000\203Z\3058\216z\011\035\321Q\260\026"
  64      00835AC5 
  64      388E7A09 
  64      1DD151B0 
  64      16
  65 0026 5EC1C245 		.ascii	"^\301\302E\013ig\021)\321:\244\027\030\202\332DI\273"
  65      0B696711 
  65      29D13AA4 
  65      171882DA 
  65      4449BB
  66 0039 162D2497 		.ascii	"\026-$\227\265h\321*\202\351\336\031\024\372\201\016"
  66      B568D12A 
  66      82E9DE19 
  66      14FA810E 
  67 0049 DC7B7EBE 		.ascii	"\334{~\276s\276\363\303\210\321OY\220o\010\2425\251"
  67      73BEF3C3 
  67      88D14F59 
  67      906F08A2 
  67      35A9
ARM GAS  /tmp/ccRIKfpM.s 			page 5


  68 005b A11158F7 		.ascii	"\241\021X\367\236\250\025e\2002\010\324dhnB\245\262"
  68      9EA81565 
  68      803208D4 
  68      64686E42 
  68      A5B2
  69 006d 140D84DB 		.ascii	"\024\015\204\333\035_O\036\321\023n\273/>=\017\340\220"
  69      1D5F4F1E 
  69      D1136EBB 
  69      2F3E3D0F 
  69      E090
  70 007f B42B2013 		.ascii	"\264+ \023\264!\035$}\305B\337\373\250Z\321uOon!\016"
  70      B4211D24 
  70      7DC542DF 
  70      FBA85AD1 
  70      754F6F6E 
  71 0095 45EBCDF3 		.ascii	"E\353\315\363\022\034\032\243\325\377\012/\230\373\354"
  71      121C1AA3 
  71      D5FF0A2F 
  71      98FBEC
  72 00a4 794FC3F7 		.ascii	"yO\303\367\203W\364XLC\021\024\222\037\"d\340\014)\225"
  72      8357F458 
  72      4C431114 
  72      921F2264 
  72      E00C2995 
  73 00b8 13A6B624 		.ascii	"\023\246\266$O\032\030H\177\0325\375\241\323\362W\233"
  73      4F1A1848 
  73      7F1A35FD 
  73      A1D3F257 
  73      9B
  74 00c9 AC8329AD 		.ascii	"\254\203)\255\215ho\3343\015\234#,\321]\372\020\035"
  74      8D686FDC 
  74      330D9C23 
  74      2CD15DFA 
  74      101D
  75 00db 31CF1132 		.ascii	"1\317\0212\341\247\313\310\016Gx\312\344g\251\2514\""
  75      E1A7CBC8 
  75      0E4778CA 
  75      E467A9A9 
  75      3422
  76 00ed 2E3BD288 		.ascii	".;\322\210\366\307G\223x\200\344\021\231\021\314\231"
  76      F6C74793 
  76      7880E411 
  76      9911CC99 
  77 00fd 088E9B87 		.ascii	"\010\216\233\207\226G( \340\210\252\222\366\370\370"
  77      96472820 
  77      E088AA92 
  77      F6F8F8
  78 010c 77C798A9 		.ascii	"w\307\230\251H\377\356\310\021'\272\243\253\027\026"
  78      48FFEEC8 
  78      1127BAA3 
  78      AB1716
  79 011b 04027099 		.ascii	"\004\002p\231.EG\235[\312\003\265\372'\332l\214\340"
  79      2E45479D 
  79      5BCA03B5 
  79      FA27DA6C 
  79      8CE0
  80 012d 5469B983 		.ascii	"Ti\271\203\334Q\315\261\244\027\354\242\245\233v\266"
ARM GAS  /tmp/ccRIKfpM.s 			page 6


  80      DC51CDB1 
  80      A417ECA2 
  80      A59B76B6 
  81 013d A167ADBA 		.ascii	"\241g\255\272n\026x\206\333U\335\251\324J\333\2724\352"
  81      6E167886 
  81      DB55DDA9 
  81      D44ADBBA 
  81      34EA
  82 014f 4685DBB5 		.ascii	"F\205\333\265\252\004\312\025^rr\213\005bF9\221\263"
  82      AA04CA15 
  82      5E72728B 
  82      05624639 
  82      91B3
  83 0161 2B45C371 		.ascii	"+E\303q\254\354V\246\341X\325/\251H\201#"
  83      ACEC56A6 
  83      E158D52F 
  83      A9488123 
  84              		.text
  85              		.section	.gnu.lto_initialize.part.0.68965d224f53fd2,"",%progbits
  86 0000 789C8551 		.ascii	"x\234\205Q\261J\003A\020\2357{\347\235V\251\264\023"
  86      B14A0341 
  86      109D377B 
  86      E79D56A9 
  86      B413
  87 0012 89A5E02F 		.ascii	"\211\245\340/hk\177\001\005\233\343\222b\301K\223\322"
  87      686B7F01 
  87      059BE392 
  87      62C14B93 
  87      D2
  88 0023 227318D0 		.ascii	"\"s\030\3202\215x\215`\020k\353t\371\002\305\316\362"
  88      328D788D 
  88      60106BEB 
  88      74F902C5 
  88      CEF2
  89 0035 1A2B7B41 		.ascii	"\032+{A\0216\263w'D\033\007v\336\314\233};3,\023\323"
  89      1136B377 
  89      27441B07 
  89      76DECC9B 
  89      7D3B332C 
  90 004b 5FDBD333 		.ascii	"_\333\3233\000\321\226\"BB0}\322 \000\327\3100\036\213"
  90      00D19622 
  90      4242307D 
  90      D22000D7 
  90      C8301E8B 
  91 005f D8003E20 		.ascii	"\330\000> \3208`\203\361\011\274\230\2734\023\231Vo"
  91      D0386083 
  91      F109BC98 
  91      BB341399 
  91      566F
  92 0071 1FAF7C23 		.ascii	"\037\257|#\213\342N\276\235\003,\264\321\006(\003\035"
  92      8BE24EBE 
  92      9D032CB4 
  92      D1062803 
  92      1D
  93 0082 6B82B806 		.ascii	"k\202\270\006\306\357\316\215V\346\247\245L\026\316"
  93      C6EFCE8D 
  93      56E6A7A5 
ARM GAS  /tmp/ccRIKfpM.s 			page 7


  93      4C16CE
  94 0091 1DD4AACE 		.ascii	"\035\324\252\316\177\252G\226\312\271O\027\033MB\232"
  94      7FAA4796 
  94      CAB94F17 
  94      1B4D429A 
  95 00a1 E8133B29 		.ascii	"\350\023;)\356\321\245\0243\365\344\365j\211z?q\202"
  95      EED1A514 
  95      33F5E4F5 
  95      6A897A3F 
  95      7182
  96 00b3 C0A3E981 		.ascii	"\300\243\351\201k|\246\313\352\375\"J\361\240\333\022"
  96      6B7CA6CB 
  96      EAFD224A 
  96      F1A0DB12 
  97 00c3 9DD3975C 		.ascii	"\235\323\227\\I\307\302dh:5\214\\k\357 \007\265\027"
  97      49C7C264 
  97      683A358C 
  97      5C6BEF20 
  97      07B517
  98 00d6 3D5B8ACC 		.ascii	"=[\212\314\225\015\267i\363V\312C\213\265\325j\253\211"
  98      950DB769 
  98      F356CA43 
  98      8BB5D56A 
  98      AB89
  99 00e8 7260858D 		.ascii	"r`\205\215-\342\034\3342\026\353\315\026=\230z\232\027"
  99      2DE21CDC 
  99      3216EBCD 
  99      163D987A 
  99      9A17
 100 00fa 2A2AB7FB 		.ascii	"**\267\3733Lc\211\016\2425\377UQ\236\332\341~Fa\377"
 100      334C6389 
 100      0EA235FF 
 100      55519EDA 
 100      E17E4661 
 101 010f EC6868C3 		.ascii	"\354hh\303Q_=h\011\306[a`"
 101      515F3D68 
 101      09C65B61 
 101      60
 102              		.text
 103              		.section	.gnu.lto_openNewLogfile.part.1.68965d224f53fd2,"",%progbits
 104 0000 789CAD92 		.ascii	"x\234\255\222\317KUA\024\307\317w\346\376|\276\362i"
 104      CF4B5541 
 104      14C7CF77 
 104      E6FE7CBE 
 104      F269
 105 0012 2041F090 		.ascii	" A\360\220\"je.\022\267\012\272\017zR\255\342r+\031"
 105      226A652E 
 105      12B70ABA 
 105      0F7A52AD 
 105      E2722B19 
 106 0026 E8DA4208 		.ascii	"\350\332B\010\242\205\223\030>\\\275\245\033)Q\004q"
 106      A2859318 
 106      3E5CBDA5 
 106      1B295104 
 106      71
 107 0037 D1A29560 		.ascii	"\321\242\225``\255\"\250\210\334\270\211\267\311M\377"
 107      60AD22A8 
ARM GAS  /tmp/ccRIKfpM.s 			page 8


 107      88DCB889 
 107      B7C94DFF 
 108 0047 4144AF73 		.ascii	"AD\257s\346\336\373\362\211K\007\356\234s\277s\346|"
 108      E6DEFBF2 
 108      894B07EE 
 108      9C73BF73 
 108      E67C
 109 0059 3FCC8C22 		.ascii	"?\314\214\"E'\307,\177\177X\236\346\210\012!n}\341$"
 109      4527C72C 
 109      7F7F589E 
 109      E6880A21 
 109      6E7DE124 
 110 006d 86725129 		.ascii	"\206rQ)}0D\266\342\355\215\223\255j\204\242\276\210"
 110      7D3044B6 
 110      E2ED8D93 
 110      AD6A84A2 
 110      BE88
 111 007f 3CE537AF 		.ascii	"<\3457\257\261\034\310\\\365K9(\223\020Q\236D\200$\004"
 111      B11CC85C 
 111      F54B3928 
 111      9310519E 
 111      44802404 
 112 0093 5A8895F6 		.ascii	"Z\210\225\366\374 \214\260p\017b\214\313\264n\367[\355"
 112      FC208CB0 
 112      700F628C 
 112      CBB46EF7 
 112      5BED
 113 00a5 9F5BBBB0 		.ascii	"\237[\273\260\257\027[\366o\247\003\003F\254\200R\320"
 113      AF175BF6 
 113      6FA70303 
 113      46AC8052 
 113      D0
 114 00b6 5DFEC17E 		.ascii	"]\376\301~\036\325\305^\3507\312\266;\235\303\235\270"
 114      1ED5C55E 
 114      E837CAB6 
 114      3B9DC39D 
 114      B8
 115 00c7 0FC8648B 		.ascii	"\017\310d\213\201\3262\361\232OK\326\266\206Iz\360h"
 115      81D632F1 
 115      9A4F4BD6 
 115      B686497A 
 115      F068
 116 00d9 F02C080D 		.ascii	"\360,\010\015\304\022\365\014\224\213\037i\351\350\375"
 116      C412F50C 
 116      948B1F69 
 116      E9E8FD
 117 00e8 EE8A2ACA 		.ascii	"\356\212*\312\023\2543\020Q\202\015\370\356\\\000q\366"
 117      13AC3310 
 117      51820DF8 
 117      EE5C0071 
 117      F6
 118 00f9 E263B633 		.ascii	"\342c\2663lp0\244\277\322r{\355e%\301\246+}N\277m\323"
 118      6C7030A4 
 118      BFD2727B 
 118      ED6525C1 
 118      A62B7D4E 
 119 0110 D60CFC14 		.ascii	"\326\014\374\024\316\322)<n\033\004y\337\242T\032\206"
ARM GAS  /tmp/ccRIKfpM.s 			page 9


 119      CED2293C 
 119      6E1B0479 
 119      DFA2541A 
 119      86
 120 0121 B7DCF2AA 		.ascii	"\267\334\362\252\265\317\014\242:\325\326\354\352\204"
 120      B5CF0CA2 
 120      3AD5D6EC 
 120      EA84
 121 012f 61B8A286 		.ascii	"a\270\242\206}\015\337C\341\347\321\336x\216\372\356"
 121      7D0DDF43 
 121      E1E7D1DE 
 121      788EFAEE 
 122 013f 5335AF28 		.ascii	"S5\257(\301\322\0360\237~\\r`\257\316\004\254\257NW"
 122      C1D21E30 
 122      9F7E5C72 
 122      60AFCE04 
 122      ACAF4E57 
 123 0153 72B0EAE9 		.ascii	"r\260\352\351`A\351\267}&~\347\3524\226\373\235?\335"
 123      6041E9B7 
 123      7D267EE7 
 123      EA3496FB 
 123      9D3FDD
 124 0166 2F749726 		.ascii	"/t\227&\206;\323\3459\250\256a\177\012\3255lZ{\307\240"
 124      863BD3E5 
 124      39A8AE61 
 124      7F0AD535 
 124      6C5A7BC7 
 125 017b 96014527 		.ascii	"\226\001E'\021#\203\201\014\252W\031\314\240\217)<\276"
 125      11238381 
 125      0CAA5719 
 125      CCA08F29 
 125      3CBE
 126 018d E324AAC1 		.ascii	"\343$\252\301\005\242\317\364\341W\2617_\274IomS^k\367"
 126      05A2CFF4 
 126      E157B137 
 126      5FBC496F 
 126      6D535E6B 
 127 01a2 022207F8 		.ascii	"\002\"\007\370\215\337\274\240\313C\244C\322\014\031"
 127      8DDFBCA0 
 127      CB43A443 
 127      D20C19
 128 01b1 5E97C707 		.ascii	"^\227\307\007Y\026\3060K\314\334HJ\376\243\271${8\370"
 128      5916C630 
 128      4BCCDC48 
 128      4AFEA3B9 
 128      247B38F8 
 129 01c5 F8C9ECFC 		.ascii	"\370\311\354\374\215\251\311\306\375\321\321\253\017"
 129      8DA9C9C6 
 129      FDD1D1AB 
 129      0F
 130 01d2 46D2F9A7 		.ascii	"F\322\371\2474\360_*\224ZW)\204\177\002}\324\256"
 130      34F05F2A 
 130      945A5729 
 130      847F027D 
 130      D4AE
 131              		.text
 132              		.section	.gnu.lto_initialize.68965d224f53fd2,"",%progbits
ARM GAS  /tmp/ccRIKfpM.s 			page 10


 133 0000 789C8593 		.ascii	"x\234\205\223Oh\023A\024\306\3377\3737\233\032S\253"
 133      4F681341 
 133      14C6DF37 
 133      FB379B1A 
 133      53AB
 134 0012 B5FE8BA1 		.ascii	"\265\376\213\241\036z\363*\364\244\240\202^\2044\005"
 134      1E7AF32A 
 134      F4A4A082 
 134      5E843405 
 135 0022 3D2E5B91 		.ascii	"=.[\221\201n<\264\036\324C74\225\034{\263\036\304\226"
 135      816E3CB4 
 135      1ED44337 
 135      34951C7B 
 135      B31EC496 
 136 0036 DCB4E0C9 		.ascii	"\334\264\340\311\203(XiA\241\320\"zTY(\242\202g\301"
 136      83285869 
 136      41A1D022 
 136      7A545928 
 136      A28267C1 
 137 004a 22C43799 		.ascii	"\"\3047\231d\2731\201\016\354\274\2357\337|\363\033"
 137      64BB3181 
 137      0EECBC9D 
 137      37DF7CF3 
 137      1B
 138 005b DE8C2041 		.ascii	"\336\214 A\377\267\253\374m\032D\343\034\341\020\304"
 138      FFB7ABFC 
 138      6D1A44E3 
 138      1CE110C4 
 139 006b E21651D5 		.ascii	"\342\026Q\325\025\302\250\217Q\344Y\252\0370\204\371"
 139      15C2A88F 
 139      51E459AA 
 139      1F3084F9 
 140 007b 699847F6 		.ascii	"i\230G\366\353s<2a+\021,\035\253\256\015\250\037\002"
 140      EB733C32 
 140      612B112C 
 140      1DABAE0D 
 140      A81F02
 141 008e CD09C3B4 		.ascii	"\315\011\303\264l\314\335\200\362\306(\255D\321b\374"
 141      6CCCDD80 
 141      F2C628AD 
 141      44D162FC 
 142 009e ED778C87 		.ascii	"\355w\214\207\321Zu9\372\333l\002\022\314\341\201\002"
 142      D15A7539 
 142      FADB6C02 
 142      12CCE181 
 142      02
 143 00af D0751EC0 		.ascii	"\320u\036\300m\005\201n\260\347b-n6W_\324vO\017f\311"
 143      6D05816E 
 143      B0E7622D 
 143      6E36575F 
 143      D4764F0F 
 144 00c5 C70ABBE5 		.ascii	"\307\012\273\345H\202Y\311\242\032\373\026u\222\224"
 144      488259C9 
 144      A21AFB16 
 144      759294
 145 00d4 11B732F7 		.ascii	"\021\2672\367\012c\022BEc\233\346\343g\363\216\217\006"
 145      0A631242 
ARM GAS  /tmp/ccRIKfpM.s 			page 11


 145      45639BE6 
 145      E367F38E 
 145      8F06
 146 00e6 2C9EBE4F 		.ascii	",\236\276O\273Q=\312K\230\001\364VR\345\225ju\275\257"
 146      BB513DCA 
 146      4B9801F4 
 146      5652E595 
 146      6A75BDAF 
 147 00fa 4A74A996 		.ascii	"Jt\251\226_\032\375DFZT\2137\033\275Vv\000\263\245R"
 147      5F1AFD44 
 147      465A548B 
 147      371BBD56 
 147      7600B3A5 
 148 010f 1957C209 		.ascii	"\031W\302\011Am\221\344\303\363\272\205x\253\017h&h"
 148      416D91E4 
 148      C3F3BA85 
 148      78AB0F68 
 148      2668
 149 0121 8D93755E 		.ascii	"\215\223u^\010\264EZ\023\335\221\310\206\020\211\331"
 149      08B4455A 
 149      13DD91C8 
 149      861089D9 
 150 0131 8036DBEE 		.ascii	"\2006\333\356\003q \200\235\230\361\322'\3501\\\212"
 150      03712080 
 150      9D98F1D2 
 150      27E8315C 
 150      8A
 151 0142 A2579CCD 		.ascii	"\242W\234\315\025(\3778Z:/qp\0173\257\217\367\271\201"
 151      1528FF38 
 151      5A3A2F71 
 151      700F33AF 
 151      8FF7B981 
 152 0156 1EE7C180 		.ascii	"\036\347\301\200\357\215j\252\212\2076\206X=\244\324"
 152      EF8D6AAA 
 152      8A873686 
 152      583DA4D4 
 153 0166 0FE22F3B 		.ascii	"\017\342/;\266V\337B6\221\037\016\324\231\367@\356J"
 153      B656DF42 
 153      36911F0E 
 153      D499F740 
 153      EE4A
 154 0178 1C0961A4 		.ascii	"\034\011a\2448\370\250\303!\314\356L\212U\342\250\246"
 154      38F8A8C3 
 154      21CCEE4C 
 154      8A55E2A8 
 154      A6
 155 0189 F9BA2FCD 		.ascii	"\371\272/\315\017G\323\274\247\215\357o\337\2743\022"
 155      0F47D3BC 
 155      A78DEF6F 
 155      DFBC3312 
 156 0199 1C353B92 		.ascii	"\0345;\222\276n\223\\\311\372\230\241l\177\356x\035"
 156      BE6E935C 
 156      C9FA98A1 
 156      6C7FEE78 
 156      1D
 157 01aa 5D2EF13D 		.ascii	"].\361=\026 \223.F\212Y\342\270\332\241\366\253\232"
 157      1620932E 
ARM GAS  /tmp/ccRIKfpM.s 			page 12


 157      468A59E2 
 157      B8DAA1F6 
 157      AB9A
 158 01bc 49D6297F 		.ascii	"I\326)\177\243\333\337\244\247Yu)\335\036\346\023\001"
 158      A3DBDFA4 
 158      A7597529 
 158      DD1EE613 
 158      01
 159 01cd BCF6353A 		.ascii	"\274\3665:\331Q[\232f!\376\263n\357[\314G}\213\371\221"
 159      D9515B9A 
 159      6621FEB3 
 159      6EEF5BCC 
 159      477D8BF9 
 160 01e2 B3A70A34 		.ascii	"\263\247\0124\242\213Y\350*\246\336\304n=\224\017T\215"
 160      A28B59E8 
 160      2AA6DEC4 
 160      6E3D940F 
 160      548D
 161 01f4 9B673A9B 		.ascii	"\233g:\233\350V\3467\302s\352\0118\241/+g\003\262f\246"
 161      E856E637 
 161      C273EA09 
 161      38A12F2B 
 161      6703B266 
 162 0209 AE54A433 		.ascii	"\256T\2443Q\276P*{4\352]*\225\256\225\306\213\023\027"
 162      51BE502A 
 162      7B34EA5D 
 162      2A95AE95 
 162      C68B1317 
 163 021d 8B9C9E95 		.ascii	"\213\234\236\225\376\264\274\347\317\312\333\225\342"
 163      FEB4BCE7 
 163      CFCADB95 
 163      E2
 164 022a 655F4EDF 		.ascii	"e_N\337\234\362\350\037\201\263\001\262"
 164      9CF2E81F 
 164      81B301B2 
 165              		.text
 166              		.section	.gnu.lto_openNewLogfile.68965d224f53fd2,"",%progbits
 167 0000 789C5D50 		.ascii	"x\234]P=K\003A\020}ov\217\234\"h!\201t\251#\010\001"
 167      3D4B0341 
 167      107D6F76 
 167      8F9C2268 
 167      218174A9 
 168 0017 7F8A012D 		.ascii	"\177\212\001-\343\025\341\212\363\017\244\310\236\\"
 168      E315E18A 
 168      F30FA4C8 
 168      9E5C
 169 0025 6199DA34 		.ascii	"a\231\3324\332XI\264\264\264\024A%\205\205ba\2212\277"
 169      DA5849B4 
 169      B4B41441 
 169      25858562 
 169      619132BF 
 170 0039 C0269959 		.ascii	"\300&\231Y\022#Y\330\231\331\235\367\336|\010\004\233"
 170      122359D8 
 170      99D99DF7 
 170      DE7C0804 
 170      9B
 171 004a A7ADB74E 		.ascii	"\247\255\267N`K=\023P\206o@\231\212\270i\003a\307\337"
ARM GAS  /tmp/ccRIKfpM.s 			page 13


 171      604B3D13 
 171      50866F40 
 171      998AB869 
 171      0361C7DF 
 172 005e 1D216C3B 		.ascii	"\035!l;z\373\246'\315\203\030\210\363\034\2342j\334"
 172      7AFBA627 
 172      CD831888 
 172      F31C9C32 
 172      6ADC
 173 0070 CBD3CF7C 		.ascii	"\313\323\317|>~x\271\036SR\"\247\026R\343\3250a\021"
 173      3E7E78B9 
 173      1E535222 
 173      A71652E3 
 173      D5306111 
 174 0084 5109AA10 		.ascii	"Q\011\252\020\206M \213\317c\265\246\325\241\230w\257"
 174      864D208B 
 174      CF63B5A6 
 174      D5A19877 
 174      AF
 175 0095 B8F87ABC 		.ascii	"\270\370z\274\235H\2277\332F\217\376\000-e\217pU\206"
 175      9D489737 
 175      DA468FFE 
 175      002D658F 
 175      705586
 176 00a8 B09753FA 		.ascii	"\260\227S\372\370\015\227\026\271\202\246pB\015c\371"
 176      F80D9716 
 176      B982A670 
 176      420D63F9 
 177 00b8 33AE8679 		.ascii	"3\256\206yF5+w\377$\014\302\377\303v\2241m\270wT\351"
 177      46352B77 
 177      FF240CC2 
 177      FFC37694 
 177      316DB877 
 178 00ce 0AB4D6F5 		.ascii	"\012\264\326\365\331\022\334c\222kn\311\360\261\275"
 178      D912DC63 
 178      926B6EC9 
 178      F0B1BD
 179 00dd 89EEC432 		.ascii	"\211\356\3042\021\361\011*\321\321\364uR\371\376\330"
 179      11F1092A 
 179      D1D1F475 
 179      52F9FED8 
 180 00ed B7816848 		.ascii	"\267\201hH\333p\255\350\346\347\207\031\026>TA\001"
 180      DB70ADE8 
 180      E6E78719 
 180      163E5441 
 180      01
 181              		.text
 182              		.section	.gnu.lto_closeLog.68965d224f53fd2,"",%progbits
 183 0000 789C6362 		.ascii	"x\234cb`b@\007\222@<\031\2109\201\230\221\231\201\221"
 183      60624007 
 183      92403C19 
 183      88398198 
 183      91998191 
 184 0014 69C23906 		.ascii	"i\3029\006\206F\016&FF\020\203\201\221\241\236\211\261"
 184      86460E26 
 184      46461083 
 184      8191A19E 
ARM GAS  /tmp/ccRIKfpM.s 			page 14


 184      89B1
 185 0026 3E9211AC 		.ascii	">\222\021\254v=\323\201\007\377\377\257\373qj\301~F"
 185      763DD381 
 185      07FFFFAF 
 185      FB716AC1 
 185      7E46
 186 0038 2666A000 		.ascii	"&f\240\000+CKC\303\004\005\006\206d\260\202\020 \011"
 186      2B434B43 
 186      C3040506 
 186      8664B082 
 186      102009
 187 004b D215CAC8 		.ascii	"\322\025\312\310\004\242\231\3173\264<\330\273\224+"
 187      04A299CF 
 187      33B43CD8 
 187      BB942B
 188 005a 91712123 		.ascii	"\221q!#+P\272\232\341WCG\203@&#P9\304@\220\010G&#c."
 188      2B50BA9A 
 188      E1574347 
 188      83402623 
 188      5039C440 
 189 0075 23035451 		.ascii	"#\003TQ&P+\303E\206\306\007\373\2262B\204\"\0303\031"
 189      26502BC3 
 189      4586C607 
 189      FB963242 
 189      84221833 
 190 008a 9961AE0D 		.ascii	"\231a\256\015\001j\004\232\014\362\006{nbf\236^2\003"
 190      016A049A 
 190      0CF2067B 
 190      6E62669E 
 190      5E3203
 191 009d 00EDB729 		.ascii	"\000\355\267)\272"
 191      BA
 192              		.text
 193              		.section	.gnu.lto_printGps.68965d224f53fd2,"",%progbits
 194 0000 789C8D91 		.ascii	"x\234\215\221\255O\003A\020\305\337\333\273\353\227"
 194      AD4F0341 
 194      10C5DFDB 
 194      BBEB97
 195 000f C262A0A6 		.ascii	"\302b\240\246\206\022\024\012E\005!$\005\004G\000Y*"
 195      8612140A 
 195      45052124 
 195      05044700 
 195      592A
 196 0021 9A15C580 		.ascii	"\232\025\305\200\242\242[@ \253\010)!\200E\300\237\000"
 196      A2A25B40 
 196      20AB0829 
 196      218045C0 
 196      9F00
 197 0033 9E004156 		.ascii	"\236\000AV4i\202@@\202\257)\263{%G.\210Nr3\273ow~3s"
 197      34698240 
 197      4082AF29 
 197      B37B2547 
 197      2E884E72 
 198 004e ABA090B4 		.ascii	"\253\240\220\264I\371\212\"\317K\244\007\252\366\013"
 198      49F98A22 
 198      CF4BA407 
 198      AAF60B
ARM GAS  /tmp/ccRIKfpM.s 			page 15


 199 005d D0CA28D2 		.ascii	"\320\312(\322.@4\025\233;tw\357\325c\1778\274\353<]"
 199      2E403415 
 199      9B3B7477 
 199      EFD5637F 
 199      38BCEB3C 
 200 0072 F7A8B264 		.ascii	"\367\250\262d\235\002\324\204'\216\276u\201\335\246"
 200      9D02D484 
 200      278EBE75 
 200      81DDA6
 201 0081 AC130B70 		.ascii	"\254\023\013pbL;\017T\3356\024o\231\233T6z\3178\032"
 201      624C3B0F 
 201      54DD3614 
 201      6F999B54 
 201      367ACF38 
 202 0096 1C3F9C4D 		.ascii	"\034?\234MWx#y5\252\006\016%\261\210[#\266\245\251."
 202      57782379 
 202      35AA060E 
 202      25B1885B 
 202      23B6A5A9 
 203 00ab D0A1A657 		.ascii	"\320\241\246W#\267%\372\256\207]\376i\336!\336c\204"
 203      23B725FA 
 203      AE875DFE 
 203      69DE21DE 
 203      6384
 204 00bd E7108C11 		.ascii	"\347\020\214\021\301\377\010&\020\0371\302\037\023\241"
 204      C1FF0826 
 204      101F31C2 
 204      1F13A1
 205 00cc 1288CF18 		.ascii	"\022\210\317\030\021\2149\210\227@|\307\210\324\230"
 205      118C3988 
 205      97407CC7 
 205      88D498
 206 00db 083F46BC 		.ascii	"\010?F\274\242c\276\272\007\021\001h``N\315\204f\252"
 206      A263BEBA 
 206      07110168 
 206      60604ECD 
 206      8466AA
 207 00ee 3A1A3752 		.ascii	":\0327R\314\225\244\247\353\344\350\242U\317\215\351"
 207      CC95A4A7 
 207      EBE4E8A2 
 207      55CF8DE9 
 208 00fe 8A9A9942 		.ascii	"\212\232\231B\356\322\234/jf1:\225W\251\331\242\276"
 208      EED29C2F 
 208      6A66313A 
 208      9557A9D9 
 208      A2BE
 209 0110 4C255D69 		.ascii	"L%]i\346\2007\264\372\275\302o\235\310B\251!oj\177J"
 209      E68037B4 
 209      FABDC26F 
 209      9DC842A9 
 209      216F6A7F 
 210 0125 BA5ED17B 		.ascii	"\272^\321{sU\314\204+\253K\013\205\375\331|\271\024"
 210      7355CC84 
 210      2BAB4B0B 
 210      85FDD97C 
 210      B914
 211 0137 46717D6D 		.ascii	"Fq}m\331-J\345H\330p\0079\374\000\264\336\210\247"
ARM GAS  /tmp/ccRIKfpM.s 			page 16


 211      D92D4AE5 
 211      48D87007 
 211      39FC00B4 
 211      DE88A7
 212              		.text
 213              		.section	.gnu.lto_writeHeader.68965d224f53fd2,"",%progbits
 214 0000 789C8551 		.ascii	"x\234\205Q\275K\303@\024\177\357\222\230\266~\342\326"
 214      BD4BC340 
 214      147FEF92 
 214      98B67EE2 
 214      D6
 215 0011 412805D7 		.ascii	"A(\005\327\352\340\340*\030\350\240K\211`')\241\310"
 215      EAE0E02A 
 215      18E8A04B 
 215      89602729 
 215      A1C8
 216 0023 415B7070 		.ascii	"A[ppr\350\265\026-\250\020D\020\355\322\"\342\350\340"
 216      72E8B516 
 216      2DA81044 
 216      10EDD222 
 216      E2E8E0
 217 0036 E8602838 		.ascii	"\350`(8\024\277p\023\244\320\275\377\201\210\361]\322"
 217      14BF7013 
 217      A4D0BDFF 
 217      8188F15D 
 217      D2
 218 0047 D45A071F 		.ascii	"\324Z\007\037\344\336\345\336\357\343\335;\006\014\206"
 218      E4DEE5DE 
 218      EFE3DD3B 
 218      060C86
 219 0056 234ADF22 		.ascii	"#J\337\"\035\317RF\005\220\331\317\000\245\020C\224"
 219      1DCF5246 
 219      0590D9CF 
 219      00A51043 
 219      94
 220 0067 1B402832 		.ascii	"\033@(2,\246QB\22584\2048\356\334\337\266\224\263\023"
 220      2CA65142 
 220      95383484 
 220      38EEDCDF 
 220      B694B313 
 221 007b A752179F 		.ascii	"\247R\027\237\256\213\310\221d#\010\026\302:\375`\314"
 221      AE8BC891 
 221      64230816 
 221      C23AFD60 
 221      CC
 222 008c 4B4CFDED 		.ascii	"KL\375\355#\271\216\355\274\037\034\241\250\227m\361"
 222      23B98EED 
 222      BC1F1CA1 
 222      A8976DF1 
 223 009c 45548E0A 		.ascii	"ET\216\012\203\231\037\246\243\372\324\344_\252\260"
 223      83991FA6 
 223      A3FAD4E4 
 223      5FAAB0
 224 00ab 9DF6C361 		.ascii	"\235\366\303at\200\2522\210\377gz\315\234\216\353>\266"
 224      7480AA32 
 224      88FF677A 
 224      CD9C8EEB 
ARM GAS  /tmp/ccRIKfpM.s 			page 17


 224      3EB6
 225 00bd 2BCDB930 		.ascii	"+\315\2710\203\01460\016*\345K\312\032p\324tZF\010\250"
 225      830C3630 
 225      0E2AE54B 
 225      CA1A70D4 
 225      745A4608 
 226 00d2 41852C62 		.ascii	"A\205,b\031\274\240\212_\007\251Ma\322*G\261\206Lf\345"
 226      19BCA08A 
 226      5F07A94D 
 226      61D22A47 
 226      B1864C66 
 227 00e7 09CAAD37 		.ascii	"\011\312\2557\232@\006\257P\203Md58/\0111Ec\330\201"
 227      9A4006AF 
 227      50834D64 
 227      35382F09 
 227      314563D8 
 228 00fc 0F51953B 		.ascii	"\017Q\225;=\357QeKz\257\225\027\330s\242\001G\355#C"
 228      3DEF5165 
 228      4B7AAF95 
 228      17D873A2 
 228      0147ED23 
 229 0111 167A508F 		.ascii	"\026zP\217K\261\3151\034t!\261\236F$)}8\216\002\220"
 229      4BB1CD31 
 229      1C7421B1 
 229      9E462429 
 229      7D388E02 
 230 0126 7B77F7EE 		.ascii	"{w\367\356t1P\322HL\212\357;Zp\244\367\305\307,d}\361"
 230      743150D2 
 230      484C8AEF 
 230      3B5A70A4 
 230      F7C5C72C 
 231 013d AA105B1C 		.ascii	"\252\020[\034\307\363\210=\345\236c\015\207-IU\272N"
 231      C7F3883D 
 231      E59E630D 
 231      872D4955 
 231      BA4E
 232 014f 000D6752 		.ascii	"\000\015gRZ6\273\314/\371\260\005\270\021U\371x\244"
 232      5A36BBCC 
 232      2FF9B005 
 232      B81155F9 
 232      78A4
 233 0161 FC0AA501 		.ascii	"\374\012\245\001g\377\252&]\211&%\255\365|\206\027\022"
 233      67FFAA26 
 233      5D892625 
 233      ADF57C86 
 233      1712
 234 0173 164C9BC6 		.ascii	"\026L\233\306\212\261j\230\251\364F\322XZ6R\211y5\307"
 234      8AB16A98 
 234      A9F446D2 
 234      585A3652 
 234      897935C7 
 235 0187 0B592597 		.ascii	"\013Y%\227-|\003*\255\223\261"
 235      2D7C032A 
 235      AD93B1
 236              		.text
 237              		.section	.gnu.lto_main.68965d224f53fd2,"",%progbits
 238 0000 789C8D52 		.ascii	"x\234\215R\273N\033A\024\275gf\275v\034\023l \212Ra"
ARM GAS  /tmp/ccRIKfpM.s 			page 18


 238      BB4E1B41 
 238      14BD6766 
 238      BD761C13 
 238      6C208A52 
 239 0015 B90E7C43 		.ascii	"\271\016|CR\221\017\260\245P\240\260\032\244d$\300\221"
 239      52910FB0 
 239      A550A0B0 
 239      1AA46424 
 239      C091
 240 0027 42450A86 		.ascii	"BE\012\206`\011\323\271\211\004R$l\241\310<\012Z\002"
 240      6009D3B9 
 240      89045224 
 240      6CA1C83C 
 240      0A5A02
 241 003a 8D1B8A34 		.ascii	"\215\033\2124v\213h\260\"E44iRD\340\315\214g\261C\274"
 241      768B68B0 
 241      22453434 
 241      695244E0 
 241      CD8C67B1 
 242 0050 D172A59D 		.ascii	"\321r\245\235\307\335s\346\236\373`\304\350_\233\320"
 242      C7DD73E6 
 242      9EFB60C4 
 242      E85F9BD0 
 243 0060 DF674EF4 		.ascii	"\337gN\364T\357\210\021X\245I\264\232`\340\366\300\341"
 243      54EF8811 
 243      58A549B4 
 243      9A60E0F6 
 243      C0E1
 244 0072 D883633D 		.ascii	"\330\203c=/@+\214;X\231\206\241\263\034\325T\243\322"
 244      2F402B8C 
 244      3B589986 
 244      A1B31CD5 
 244      54A3D2
 245 0085 3EFDFE8D 		.ascii	">\375\376\215\255\252F\251\252\256}\037\220\320\241"
 245      ADAA46A9 
 245      AAAE7D1F 
 245      90D0A1
 246 0094 9220017A 		.ascii	"\222 \001z\245/\310v7\346\334\215m\271\215\257\315O"
 246      A52FC876 
 246      37E6DC8D 
 246      6DB98DAF 
 246      CD4F
 247 00a6 50D58F15 		.ascii	"P\325\217\025\325\321T\011\316(\323g*\327Rg\357R\017"
 247      D5D15409 
 247      CE28D367 
 247      2AD75267 
 247      EF520F
 248 00b9 59A3EDFB 		.ascii	"Y\243\355\373W\027\245\363\227\031}\215QI\251J\326C"
 248      5717A5F3 
 248      97197D8D 
 248      5149A94A 
 248      D643
 249 00cb 0D39F2B0 		.ascii	"\0159\362\260\243W2Oh\313\353\025T\000#\360\026\255"
 249      A357324F 
 249      68CBEB15 
 249      540023F0 
 249      16AD
ARM GAS  /tmp/ccRIKfpM.s 			page 19


 250 00dd B5FD1F71 		.ascii	"\265\375\037q\017_t\252D\037\350\267*\253\264\204#\320"
 250      0F5F74AA 
 250      441FE8B7 
 250      2AABB484 
 250      23D0
 251 00ef C59234FE 		.ascii	"\305\2224\376\026m\252\253\237G\030\200\271\002\266"
 251      166DAAAB 
 251      9F471880 
 251      B902B6
 252 00fe 80D6A35E 		.ascii	"\200\326\243^K\304\027@\001\316\310L\234\245\272\373"
 252      4BC41740 
 252      01CEC84C 
 252      9CA5BAFB 
 253 010e 83E7B798 		.ascii	"\203\347\267\230\031\211\244\000\0170\306\251m\313\225"
 253      1989A400 
 253      0F30C6A9 
 253      6DCB95
 254 011d 78782BB6 		.ascii	"xx+\266\373C\"e\002\227\332\333\227\311\201\270C\002"
 254      FB432265 
 254      0297DADB 
 254      97C981B8 
 254      4302
 255 012f B672E6E9 		.ascii	"\266r\346\351G\320\340a\013\336]\017\005\307B\301{\365"
 255      47D0E061 
 255      0BDE5D0F 
 255      05C742C1 
 255      7BF5
 256 0141 C18CD202 		.ascii	"\301\214\322\002n\017\2349z\242\321#\026\275\037\251"
 256      6E0F9C39 
 256      7AA2D123 
 256      16BD1FA9 
 257 0151 83FA4F1F 		.ascii	"\203\372O\037D\352\010\300\306\012\340\244'\211\033"
 257      44EA08C0 
 257      C60AE0A4 
 257      27891B
 258 0160 E2717DB0 		.ascii	"\342q}\260\031\377M\340$$\312\250@<h\311\262\304\230"
 258      19FF4DE0 
 258      2424CAA8 
 258      403C68C9 
 258      B2C498
 259 0173 6D7DAFA6 		.ascii	"m}\257\246\217-\361z*\"\361\352x?\361\233\360\\\302"
 259      8F2DF17A 
 259      2A22F1EA 
 259      783FF19B 
 259      F05CC2
 260 0186 1BD089D4 		.ascii	"\033\320\211\324\377W\225\374(\031\277\236\365e\224"
 260      FF5795FC 
 260      2819BF9E 
 260      F56594
 261 0195 37EE597F 		.ascii	"7\356Y\177;\343\216))\362\301\030S|\301\223\213\223"
 261      3BE38E29 
 261      29F2C118 
 261      537CC193 
 261      8B93
 262 01a7 82DC37EF 		.ascii	"\202\3347\357\336\347\337\316%\346\213\302[\222\305"
 262      DEE7DFCE 
 262      25E68BC2 
ARM GAS  /tmp/ccRIKfpM.s 			page 20


 262      5B92C5
 263 01b6 C53F14A6 		.ascii	"\305?\024\246\344n"
 263      E46E
 264              		.text
 265              		.section	.gnu.lto_.symbol_nodes.68965d224f53fd2,"",%progbits
 266 0000 789C4D8F 		.ascii	"x\234M\217;W\024A\024\204oWo\263\215\002\353(\217\205"
 266      3B571441 
 266      14846F57 
 266      6FB38D02 
 266      EB288F85 
 267 0014 0541114C 		.ascii	"\005A\021L<\036\377\222?\301_P\013\243\273\253\210\342"
 267      3C1EFF92 
 267      3FC15F50 
 267      0BA3BBAB 
 267      88E2
 268 0026 035F0808 		.ascii	"\003_\010\010\343\203@\377\200\241\033hd\3441\326\263"
 268      E38340FF 
 268      80A11B68 
 268      64E431D6 
 268      B3
 269 0037 0606C686 		.ascii	"\006\006\306\206j\367\364\340\335I\252\277\252\272\267"
 269      6AF7F4E0 
 269      DD49AABF 
 269      AABAB7
 270 0046 7B20902B 		.ascii	"{ \220+V\322\207\277\206F\266>\213\220\233\275\253x"
 270      56D287BF 
 270      8646B63E 
 270      8B909BBD 
 270      AB78
 271 0058 03A2C2DD 		.ascii	"\003\242\302\335\236q7 5Zw\035&\312#@(8\002\355P\247"
 271      9E713720 
 271      355A771D 
 271      26CA2340 
 271      283802ED 
 272 006e 031BC32E 		.ascii	"\003\033\303.j.\204\267\300Z\025\356\205\360!\352a\304"
 272      6A2E84B7 
 272      C05A15EE 
 272      85F021EA 
 272      61C4
 273 0080 DDC448EC 		.ascii	"\335\304H\354\364\340bg\003t\332\301mpd\0107\301\372"
 273      F4E06267 
 273      0374DAC1 
 273      6D706408 
 273      37C1FA
 274 0093 10DE01FD 		.ascii	"\020\336\001\375\320\3026F\303&\334\005G\217\335Opk"
 274      D0C23646 
 274      C326DC05 
 274      478FDD4F 
 274      706B
 275 00a5 F0C13505 		.ascii	"\360\3015\005(\311m\257\031\263\013\236\250\250m\314"
 275      28C96DAF 
 275      19B30B9E 
 275      A8A86DCC 
 276 00b5 73F0A4D2 		.ascii	"s\360\244\322\0168\246\364\014\034W\332\003'\224\366"
 276      0E38A6F4 
 276      0C1C57DA 
 276      032794F6 
ARM GAS  /tmp/ccRIKfpM.s 			page 21


 277 00c5 C186D253 		.ascii	"\301\206\322S\360\224\322c0Sz\002\236V\332\006\317("
 277      F094D263 
 277      30537A02 
 277      9E56DA06 
 277      CF28
 278 00d7 3D002795 		.ascii	"=\000'\225\356\203SJ\367\300i\245-pF\351\005\330T:\000"
 278      EE83534A 
 278      F7C069A5 
 278      2D7046E9 
 278      05D8543A 
 279 00ec 67955E82 		.ascii	"g\225^\202sJ\257\300\226\322kp^\351\020\\\370OV\246"
 279      734AAFC0 
 279      96D26B70 
 279      5EE9105C 
 279      F84F56A6 
 280 0100 25FFF627 		.ascii	"%\377\366'\350\224\024\245NJ?\252\231I\276\233\225\342"
 280      E89414A5 
 280      4E4A3FAA 
 280      9949BE9B 
 280      95E2
 281 0112 7BD4A6E4 		.ascii	"{\324\246\344\357.G\031\274-\2458Z\265\376\\*\371\245"
 281      EF2E4719 
 281      BC2DA538 
 281      5AB5FE5C 
 281      2AF9A5
 282 0125 34EC17D3 		.ascii	"4\354\027\323\260?+\203R\027$\217\303^\344\260\324\226"
 282      B03F2B83 
 282      5217248F 
 282      C35EE4B0 
 282      D496
 283 0137 F44B9D97 		.ascii	"\364K\235\227A\305y\347\327\242\365s\322\357\374\256"
 283      41C579E7 
 283      D7A2F573 
 283      D2EFFCAE 
 284 0147 5B6F64FD 		.ascii	"[od\375\343\027\224\375n\3401'\037~^\262\343\347\323"
 284      E31794FD 
 284      6EE03127 
 284      1F7E5EB2 
 284      E3E7D3
 285 015a 3513D59A 		.ascii	"5\023\325\232F3]\327XN\327d^\326K\275\230\374\354Bz"
 285      46335DD7 
 285      584ED764 
 285      5ED64BBD 
 285      98FCEC42 
 286 016f 46B652E5 		.ascii	"F\266R\345\255\364\214\340\227\377\022\374~\245\203"
 286      ADF48CE0 
 286      97FF12FC 
 286      7EA583
 287 017e 83AF1B75 		.ascii	"\203\257\033u\233\255\206w\374x\177-6\213t\010+\322"
 287      9BAD8677 
 287      FC787F2D 
 287      368B7408 
 287      2BD2
 288 0190 21748EA3 		.ascii	"!t\216\243\274[EE<\310?\333&\3637"
 288      BC5B4545 
 288      3CC83FDB 
 288      26F337
ARM GAS  /tmp/ccRIKfpM.s 			page 22


 289              		.text
 290              		.section	.gnu.lto_.refs.68965d224f53fd2,"",%progbits
 291 0000 789C258A 		.ascii	"x\234%\212\211\015\200@\014\303R\267\024\216\357x\346"
 291      890D8040 
 291      0CC352B7 
 291      148EEF78 
 291      E6
 292 0011 61FFB5A8 		.ascii	"a\377\265\250 R\254X\012B\217\376\270\001N\370@\326"
 292      2052AC58 
 292      0A428FFE 
 292      B8014EF8 
 292      40D6
 293 0023 1ADB4423 		.ascii	"\032\333D#\230\253\316\3621lU\332F\332^\336u\324\363"
 293      98ABCEF2 
 293      316C55DA 
 293      46DA5EDE 
 293      75D4F3
 294 0036 E4E2D60B 		.ascii	"\344\342\326\013/\212\001l"
 294      2F8A016C 
 295              		.text
 296              		.section	.gnu.lto_.decls.68965d224f53fd2,"",%progbits
 297 0000 789CBD7D 		.ascii	"x\234\275}\011t\024U\366wU\365\036\"\240\343\002\016"
 297      09741455 
 297      F67755F5 
 297      1E22A0E3 
 297      020E
 298 0012 6A74743E 		.ascii	"jtt>g\2061\200\214:\363\377\217\212lr\006\224/\211\333"
 298      67863180 
 298      8C3AF3FF 
 298      8F8A6C72 
 298      06942F89 
 299 0027 7CFF7362 		.ascii	"|\377sb\223t \177\263\321\335a\231\377w\216\005\201"
 299      9374207F 
 299      B3D1DD61 
 299      99FF778E 
 299      0581
 300 0039 00821259 		.ascii	"\000\202\022Y\303\036\020\020T\020\310\260\204\265\001"
 300      C31E1010 
 300      5410C8B0 
 300      84B501
 301 0048 6517C222 		.ascii	"e\027\302\"\213l\001\0276Q$\204\260\010\371\356\273"
 301      8B6C0117 
 301      36512484 
 301      B008F9EE 
 301      BB
 302 0059 AFAAFB55 		.ascii	"\257\252\373UuU\365\253v\346\353s\352\326\353\352z\277"
 302      7555F5AB 
 302      76E6EB73 
 302      EAD6EBEA 
 302      7ABF
 303 006b 77DFBDF7 		.ascii	"w\337\275\367\335w\337\253W\257%A\022J\\\202\320\004"
 303      DD77DFAB 
 303      57AF2541 
 303      124A5C82 
 303      D004
 304 007d 9FD4D582 		.ascii	"\237\324\325\202\260\340W\202\220\"\010\302\263p<\004"
 304      B0E05782 
ARM GAS  /tmp/ccRIKfpM.s 			page 23


 304      902208C2 
 304      B3703C04 
 305 008d 87138ED9 		.ascii	"\207\023\216\331p\354\221\004\241\026\216\217 \275\017"
 305      70EC9104 
 305      A1168E8F 
 305      20BD0F
 306 009c CEA7E078 		.ascii	"\316\247\340x\333!\0102\034C\341(\203c8\034\345p\214"
 306      DB210832 
 306      1C43E128 
 306      8363381C 
 306      E5708C
 307 00af 8463221C 		.ascii	"\204c\"\034+\341X\005\207\007\362,\203c5\244\327\300"
 307      2BE15805 
 307      8707F22C 
 307      836335A4 
 307      D7C0
 308 00c1 B10E8E1D 		.ascii	"\261\016\216\035p\374\001\300\333\302\261\021~{\002"
 308      70FC01C0 
 308      DBC2B111 
 308      7E7B02
 309 00d0 CEC08630 		.ascii	"\316\300\2060Q\024\204+\200}\003\316\344\363 \034\177"
 309      5114842B 
 309      807D03CE 
 309      E4F3201C 
 309      7F
 310 00e1 81DFFE13 		.ascii	"\201\337\376\023\216W\341\370;\034}\341x\013\216\376"
 310      8E57E1F8 
 310      3B1C7DE1 
 310      780B8EFE 
 311 00f1 7094C231 		.ascii	"p\224\3021\026\216qpL\204c\022\034s\341\230\007\307"
 311      168E7170 
 311      4C846312 
 311      1C73E198 
 311      07C7
 312 0103 27702C83 		.ascii	"'p,\203\243\006\216u\244\0348\266\302\261\033\216}p"
 312      A3068E75 
 312      A41C38B6 
 312      C2B11B8E 
 312      7D70
 313 0115 1C80E320 		.ascii	"\034\200\343 \034\207\3418\006\307\327p\234\201\343"
 313      1C87E138 
 313      06C7D770 
 313      9C81E3
 314 0124 1C1C179C 		.ascii	"\034\034\027\234T\016W\341\334\010\307u8n\302q\013\216"
 314      540E57E1 
 314      DC08C775 
 314      386EC271 
 314      0B8E
 315 0136 26384460 		.ascii	"&8D`\326\011\207\033\016\257K\320|\010\257\315\340<"
 315      D609871B 
 315      0EAF4BD0 
 315      7C08AFCD 
 315      E03C
 316 0148 0DCECDE1 		.ascii	"\015\316\315\341\234\252\310\261\005\334\367+8Z\302"
 316      9CAAC8B1 
 316      05DCF72B 
 316      385AC2
ARM GAS  /tmp/ccRIKfpM.s 			page 24


 317 0157 71371C93 		.ascii	"q7\034\223\341\342=p\276W\311\357T\362\316U\352A\352"
 317      E1E23D70 
 317      BE57C9EF 
 317      54F2CE55 
 317      EA41EA
 318 016a 03A210FE 		.ascii	"\003\242\020\3767\2343\235\3322^U\370\373/\246\214V"
 318      379C339D 
 318      DA325E55 
 318      F8FB2FA6 
 318      8C56
 319 017c 2E635DCD 		.ascii	".c]\315W\362JJ>\"\033\207\256n\354\207\310\370n8\017"
 319      57F24A4A 
 319      3E221B87 
 319      AE6EEC87 
 319      C8F86E38 
 320 0191 65B04939 		.ascii	"e\260I9D'\255\241\214\373]Z\375/r\306\333\300\257]\324"
 320      4427ADA1 
 320      8CFB5D5A 
 320      FD2F72C6 
 320      DBC0AF5D 
 321 01a6 0E083FC4 		.ascii	"\016\010?\304\026\252\2252\034\012\276\252\033r9W\221"
 321      16AA9532 
 321      1C0ABEAA 
 321      1B723957 
 321      91
 322 01b7 ED5545BE 		.ascii	"\355UE\276\354\207\350\372!]=\211\275\264\001\374~p"
 322      EC87E8FA 
 322      215D3D89 
 322      BDB401FC 
 322      7E70
 323 01c9 ED0117B5 		.ascii	"\355\001\027\265\245=\220~\320E\353K\354k\033\311\347"
 323      A53D907E 
 323      D045EB4B 
 323      EC6B1BC9 
 323      E7
 324 01da 8AD9DC5F 		.ascii	"\212\331\334_\341{\232\213\332\342zH?\354\242\362!v"
 324      E17B9A8B 
 324      DAE27A48 
 324      3FECA2F2 
 324      2176
 325 01ec B94929F3 		.ascii	"\271I)\363\021r?\244\177\003\347\327\2341\373%\237f"
 325      11723FA4 
 325      7F03E7D7 
 325      9C31FB25 
 325      9F66
 326 01fe 0A2F0715 		.ascii	"\012/\007\025\273\331\247\330\321V\3056U\373\252Q\354"
 326      BBD9A7D8 
 326      D156C536 
 326      55FBAA51 
 326      EC
 327 020f 94A894D8 		.ascii	"\224\250\224\330\307u\305V\032\025\273a?\304\206\335"
 327      C775C556 
 327      1A15BB61 
 327      3FC486DD 
 328 021f 4ADD489D 		.ascii	"J\335H\235F)m\347Q\270\377\377\220|pm\271\203\352\355"
 328      46296DE7 
 328      51B8FFFF 
ARM GAS  /tmp/ccRIKfpM.s 			page 25


 328      907C706D 
 328      B983EAED 
 329 0233 2DC5F649 		.ascii	"-\305\366I\272X\221\027\373\351\257\310\3621E\356G\234"
 329      BA589117 
 329      FBE9AFC8 
 329      F23145EE 
 329      479C
 330 0245 1457D57B 		.ascii	"\024W\325{\177\305\316\011\246>o\251b\257DwD\267D\177"
 330      7FC5CE09 
 330      A63E6FA9 
 330      62AF4477 
 330      44B7447F 
 331 0259 83E1DA20 		.ascii	"\203\341\332 '\265\201\207\024\271\252\355\365\257J"
 331      27B58187 
 331      14B9AAED 
 331      F5AF4A
 332 0268 FDDE86F3 		.ascii	"\375\336\206\363\0208\206\3031\002\216Q\012\177\245"
 332      103886C3 
 332      31028E51 
 332      0A7FA5
 333 0277 8A4C487A 		.ascii	"\212LHz\214\201}\221\366\332\022\316\333\245\230N\177"
 333      8C817D91 
 333      F6DA12CE 
 333      DBA5984E 
 333      7F
 334 0288 EBA2FC3B 		.ascii	"\353\242\374;\024y<\356\242\266\366;\305\326\210\215"
 334      14793CEE 
 334      A2B6F63B 
 334      C5D6888D 
 335 0298 FD5EA91B 		.ascii	"\375^\251\033\221\325q\306\236\306*\366tL)\223\264G"
 335      91D571C6 
 335      9EC62AF6 
 335      744C2993 
 335      B447
 336 02aa 7D1D897F 		.ascii	"}\035\211\177\270\027\316\177p\305\312$uT\355\250\243"
 336      B817CE7F 
 336      70C5CA24 
 336      7554EDA8 
 336      A3
 337 02bb 2BDE07FD 		.ascii	"+\336\007\375\011\276|\017\327\236r\3212\277\321\331"
 337      09BE7C0F 
 337      D79E72D1 
 337      32BFD1D9 
 338 02cb D0D32E2A 		.ascii	"\320\323.*\243\001JY^\245\234\276\212\377\370\013\343"
 338      A3014A59 
 338      5EA59CBE 
 338      8AFFF80B 
 338      E3
 339 02dc 53D6297E 		.ascii	"S\326)~\205\310\337\255\363\027\315\204wdy\250\\U.\277"
 339      85C8DFAD 
 339      F317CD84 
 339      776479A8 
 339      5C552EBF 
 340 02f0 B8ADF95D 		.ascii	"\270\255\371]\302\3732|\322\266\001\227\257\213~\261"
 340      C2FB327C 
 340      D2B60197 
 340      AF8B7EB1 
ARM GAS  /tmp/ccRIKfpM.s 			page 26


 341 0300 B94F9045 		.ascii	"\271O\220EL\245\372Pj\217\011se\271\242\356\363}\017"
 341      4CA5FA50 
 341      6A8F0973 
 341      65B9A2EE 
 341      F37D0F
 342 0313 C84EBF38 		.ascii	"\310N\2778G\274\013\352\334R\024~/,\204l\025\262<\247"
 342      47BC0BEA 
 342      DC52147E 
 342      2F2C846C 
 342      15B23CA7 
 343 0327 8510FF49 		.ascii	"\205\020\377I\210*\011\217\212\202_\234\017p~q\236\370"
 343      882A098F 
 343      8A825F9C 
 343      0F707E71 
 343      9EF8
 344 0339 7B5A8C1C 		.ascii	"{Z\214\034\251\1773\215^\025\224\353\006\237\207\205"
 344      A97F338D 
 344      5E1594EB 
 344      069F8785 
 345 0349 2AE03FD2 		.ascii	"*\340?\322xe\233(\217KM\2466U\033jD(\347c\254\314\263"
 345      78659B28 
 345      8F4B4DA6 
 345      36551B6A 
 345      4428E763 
 346 0360 A2A6280E 		.ascii	"\242\246(\016\326\273\221\034\213\365\254\177IX_\314"
 346      D6BB911C 
 346      8BF5AC7F 
 346      49585FCC 
 347 0370 C5FA91AA 		.ascii	"\305\372\221\252\355<\254W9\324r;\306\024QS\376Y\007"
 347      ED3CAC57 
 347      39D4723B 
 347      C6145153 
 347      FE5907
 348 0383 59F6FAC5 		.ascii	"Y\366\372\305j\344\276LL\310\276\026\206p\267\"\216"
 348      6AE4BE4C 
 348      4CC8BE16 
 348      8670B722 
 348      8E
 349 0394 F7ADA944 		.ascii	"\367\255\251D\273+\270\270?>bVk\271j\223h\304>\334 "
 349      BB2BB8B8 
 349      3F3E6256 
 349      6BB96A93 
 349      68C43EDC 
 350 03a9 B29293D4 		.ascii	"\262\222\223\324\242\323Pr\357\002\267F\002\326\334"
 350      A2D35072 
 350      EF02B746 
 350      02D6DC
 351 03b8 E617D788 		.ascii	"\346\027\327\210\022\320\265z.\253G \227k\271\270\\"
 351      12D0B57A 
 351      2EAB4720 
 351      976BB9B8 
 351      5C
 352 03c9 BE355EC6 		.ascii	"\2765^\306\367\012\023\221\311r\3402\354\025F\220_\352"
 352      F70A1391 
 352      C972E032 
 352      EC154690 
 352      5FEA
ARM GAS  /tmp/ccRIKfpM.s 			page 27


 353 03db 86CB43C4 		.ascii	"\206\313C\304\376QV\274*'\242*rb\344\222_\334(z\241"
 353      FE5156BC 
 353      2A27A22A 
 353      7262E492 
 353      5FDC287A 
 354 03f0 025345D1 		.ascii	"\002SE\321\250L\302\016\271\201|H~\232VSb\024=MEw*\231"
 354      A84CC20E 
 354      B9817C48 
 354      7E9A5653 
 354      62143D4D 
 355 0408 22E2BD98 		.ascii	"\"\342\275\230r\240'\201\013\3175\003\362\212#\212k"
 355      72A02781 
 355      0BCF3503 
 355      F28A238A 
 355      6B
 356 0419 967183D8 		.ascii	"\226q\203\330L\275E\022\252\320\010\210\\\214nW\222"
 356      4CBD4512 
 356      AAD00888 
 356      5C8C6E57 
 356      92
 357 042a 1A3C8DAC 		.ascii	"\032<\215\254\344e\262\354sSLI\370\3046X\2329X\015\017"
 357      E465B2EC 
 357      73534C49 
 357      F8C43658 
 357      9A39580D 
 358 043f 989793B3 		.ascii	"\230\227\223\263\215\266\301\014837\010\252,3\201\357"
 358      8DB6C10C 
 358      38333708 
 358      AA2C3381 
 358      EF
 359 0450 36D09492 		.ascii	"6\320\224\222\366\011#c\220\306*S\033\357{\237o\024"
 359      F6092363 
 359      90C62A53 
 359      1BEF7B9F 
 359      6F14
 360 0462 8742617E 		.ascii	"\207Ba~q\257\350\203\334?\351\232/?T\303\330\265\177"
 360      71AFE883 
 360      DC3FE99A 
 360      2F3F54C3 
 360      D8B57F
 361 0475 463F7000 		.ascii	"F?p\000\201>\225\264@~\321\023\225e\364\273z\003A\303"
 361      813E95B4 
 361      407ED113 
 361      9565F4BB 
 361      7A0341C3 
 362 0489 9F950489 		.ascii	"\237\225\004\211\306\265n\234\363vE\000\032\231*U\250"
 362      C6B56E9C 
 362      F3764500 
 362      1A992A55 
 362      A8
 363 049a 9B27B7AA 		.ascii	"\233'\267\252ln\321\256\2104\026\375\001\253p\004\253"
 363      6C6ED1AE 
 363      883416FD 
 363      01AB7004 
 363      AB
 364 04ab B05A3294 		.ascii	"\260Z2\224\005\007P\303\330\231\317 \3201\004\332\024"
 364      050750C3 
ARM GAS  /tmp/ccRIKfpM.s 			page 28


 364      D899CF20 
 364      D03104DA 
 364      14
 365 04bc 270B5127 		.ascii	"'\013Q'\013Q[9\321\027K4i\033x\302{\315\354\345p\254"
 365      0B515B39 
 365      D1174B34 
 365      691B78C2 
 365      7BCDECE5 
 366 04d2 81B256B3 		.ascii	"\201\262V\263\227\262\302\325\306\277`\333\370.\211"
 366      97B2C2D5 
 366      C6BF60DB 
 366      F82E89
 367 04e1 C3F85BB2 		.ascii	"\303\370[\262x\312\207\032?\364\033\027\333O\221#\303"
 367      78CA871A 
 367      3FF41B17 
 367      DB4F9123 
 367      C3
 368 04f2 1CC93680 		.ascii	"\034\3116\200\257\315\033@\264Z\226\366\0201U\243_\374"
 368      AFCD1B40 
 368      B45A96F6 
 368      103155A3 
 368      5FFC
 369 0504 4A7C2C79 		.ascii	"J|,yQ\237\371\345\242>\315\212z\257mQ\247\261\242\326"
 369      519FF9E5 
 369      A23ECD8A 
 369      7AAF6D51 
 369      A7B1A2D6 
 370 0518 3AAD433C 		.ascii	":\255C<`\255L\365\366\313\234\326\217\346:3\354\275"
 370      60AD4CF5 
 370      F6CB9CD6 
 370      8FE63A33 
 370      ECBD
 371 052a 9F679CCE 		.ascii	"\237g\234\316\363\254GU\032\332\265I\317\221\036\270"
 371      F3AC4755 
 371      1ADAB549 
 371      CF911EB8 
 372 053a 1E438FC9 		.ascii	"\036C\217\311\016\303\320\303\034\2040pU\337\2517\006"
 372      0EC3D0C3 
 372      1C843070 
 372      55DFA937 
 372      06
 373 054b D2E8D5C4 		.ascii	"\322\350\325\304]\372\365y\330\245\253\276\363C,\377"
 373      5DFAF579 
 373      D8A5ABBE 
 373      F3432CFF 
 374 055b 6AB2BD5E 		.ascii	"j\262\275^\344F`[;\025k\211m\2544#F\205\270Z\372\305"
 374      E446605B 
 374      3B156B89 
 374      6DAC3423 
 374      4685B85A 
 375 0571 4634ED6B 		.ascii	"F4\355k\342\303@o\000Mh\213\2275\346\314e\276?\260\346"
 375      E2C3406F 
 375      004D688B 
 375      9735E6CC 
 375      65BE3FB0 
 376 0586 BBCA61D7 		.ascii	"\273\312a\327\342\364uQ\025\341\027\327#\333[\220nC"
 376      E2F47551 
ARM GAS  /tmp/ccRIKfpM.s 			page 29


 376      15E117D7 
 376      23DB5B90 
 376      6E43
 377 0598 BA03E92E 		.ascii	"\272\003\351.\244\247\220^@z\221\247j5,\237\033\221"
 377      A4A7905E 
 377      407A91A7 
 377      6A352C9F 
 377      1B91
 378 05aa CF15C9EA 		.ascii	"\317\025\311\352\257\256fKc\373\311rd\210\303#\224\323"
 378      AFAE664B 
 378      63FBC972 
 378      6488C323 
 378      94D3
 379 05bc 486E68A2 		.ascii	"Hnh\242\216\342\332\244\247\211\3756\211\036(\377s\235"
 379      8EE2DAA4 
 379      A789FD36 
 379      891E28FF 
 379      739D
 380 05ce FD72C090 		.ascii	"\375r\300\220:\014\225<Z\013\256\031\234F\257ZX06:I"
 380      3A0C953C 
 380      5A0BAE19 
 380      9C46AF5A 
 380      5830363A 
 381 05e3 A875D0A1 		.ascii	"\250u\320\241\204\323\027\273v4vMdn\375&vYb.\377\030"
 381      84D317BB 
 381      7634764D 
 381      646EFD26 
 381      7659622E 
 382 05f9 BBEC602E 		.ascii	"\273\354`.\337\216]v2\227+\234\321\313.\346\362\324"
 382      DF8E5D76 
 382      32972B9C 
 382      D1CB2EE6 
 382      F2D4
 383 060b D8653773 		.ascii	"\330e7sy~\354\262\207\271\274,v\331\313\350\303\262"
 383      797EECB2 
 383      87B9BC2C 
 383      76D9CBE8 
 383      C3B2
 384 061d D38C09C9 		.ascii	"\323\214\011\311/\226I\244\001\014\223\034\206\331$"
 384      2F9649A4 
 384      010C931C 
 384      86D924
 385 062c 18DBEAEC 		.ascii	"\030\333\352\354@#\362D\001\247\214v0\204\364lw\012"
 385      4023F244 
 385      01A78C76 
 385      3084F46C 
 385      770A
 386 063e 15CAC882 		.ascii	"\025\312\310\2026k\303\341\033\341\256R\272\023S\330"
 386      366BC3E1 
 386      1BE1AE52 
 386      BA1353D8 
 387 064e 35C98A0F 		.ascii	"5\311\212\017\304;\314\014w\212\344\2132\220\352\213"
 387      C43BCC0C 
 387      778AE48B 
 387      3290EA8B 
 388 065e 25D4A629 		.ascii	"%\324\246)\011\237\351k\241-6Q\250K,\017{\015\302\233"
 388      099FE96B 
ARM GAS  /tmp/ccRIKfpM.s 			page 30


 388      A12D3651 
 388      A84B2C0F 
 388      7B0DC29B 
 389 0672 246CE342 		.ascii	"$l\343BK\324m\250\336m\227\036\315\250\245=n\012\026"
 389      4BD46DA8 
 389      DE6D971E 
 389      CDA8A53D 
 389      6E0A16
 390 0685 691C3183 		.ascii	"i\0341\203w\304\367\246\012\227\032mu\221\353[\3044"
 390      77C4F7A6 
 390      0A971A6D 
 390      7591EB5B 
 390      C434
 391 0697 83519FE6 		.ascii	"\203Q\237\346V\2778\007\314$\321]\344\276\271\222\256"
 391      56BF3807 
 391      CC24D15D 
 391      E4BEB992 
 391      AE
 392 06a8 07D9B005 		.ascii	"\007\331\260\005\207\205\344z\342>\344P\271yU4C\322"
 392      8785E47A 
 392      E23EE450 
 392      B9795534 
 392      43D2
 393 06ba E8A0B95D 		.ascii	"\350\240\271]\264\"u_}w\351\2771\316\\ \221\016p\252"
 393      B422755F 
 393      7D77E9BF 
 393      31CE5C20 
 393      910E70AA 
 394 06ce 2BF1D481 		.ascii	"+\361\324\201\006\306/~$\221\221\355\307\372*4L\303"
 394      06C62F7E 
 394      249191ED 
 394      C7FA2A34 
 394      4CC3
 395 06e0 2A7CCC55 		.ascii	"*|\314U\205[Gg\336'\327ED~\2677\345B\344\3762\034u,"
 395      855B4767 
 395      DE27D745 
 395      447EB737 
 395      E542E4FE 
 396 06f8 9688E73B 		.ascii	"\226\210\347;\344J\312\363-\325{\276\345\345-\010\333"
 396      E44ACAF3 
 396      2DD57BBE 
 396      E5E52D08 
 396      DB
 397 0709 4BB97CDF 		.ascii	"K\271|\337iW\274\357\273\3502\364}W]\206\276Ov\033\372"
 397      6957BCEF 
 397      BBE832F4 
 397      7D575D86 
 397      BE4F761B 
 398 071e BED16EAD 		.ascii	"\276\321n\255\357\0238\374\323R\306?-C\377Tm\342\237"
 398      EF1338FC 
 398      D352C63F 
 398      2D43FF54 
 398      6DE29F
 399 0731 FCE2A4A8 		.ascii	"\374\342\244\250\316x\375\223F_uG\277\253\035\264\036"
 399      CE78FD93 
 399      465F7547 
 399      BFAB1DB4 
ARM GAS  /tmp/ccRIKfpM.s 			page 31


 399      1E
 400 0742 DAE32877 		.ascii	"\332\343(w\222\355\347\350Q\236\366\023\341l?\233\364"
 400      92EDE7E8 
 400      519EF613 
 400      E16C3F9B 
 400      F4
 401 0753 C637F928 		.ascii	"\3067\371(\032\337&.\343\233utf|\373\321E\244\317\336"
 401      1ADF262E 
 401      E39B7574 
 401      667CFBD1 
 401      45A4CFDE 
 402 0767 63EA47B7 		.ascii	"c\352G\267H\272\200\364C\211c\302C\221\303\255\251w"
 402      48BA80F4 
 402      438963C2 
 402      4391C3AD 
 402      A977
 403 0779 13463F97 		.ascii	"\023F?\227H\\]\351\326\332\260\206!Z\220\031\023;\260"
 403      485C5DE9 
 403      D6DAB086 
 403      215A9019 
 403      133BB0
 404 078c 4CA37AC6 		.ascii	"L\243z\306\375\006\235\"\226\263IJ6\312\2541\022\230"
 404      FD069D22 
 404      96B3494A 
 404      36CAAC31 
 404      1298
 405 079e 819EEAA2 		.ascii	"\201\236\352\242s`m\2435\256[S_\227N\033\356n\3648\365"
 405      73606DA3 
 405      35AE5B53 
 405      5F974E1B 
 405      EE6EF438 
 406 07b3 EE841E47 		.ascii	"\356\204\036G\213\203\343 \275\302\253w\242\302\367"
 406      8B83E320 
 406      BDC2AB77 
 406      A2C2F7
 407 07c2 2656F8B0 		.ascii	"&V\370\260\262\310\312\235\323\221\177\354+\313"
 407      B2C8CA9D 
 407      D3917FEC 
 407      2BCB
 408 07d0 2C6726FC 		.ascii	",g&\374\342>\214u\023O\035@[\366\210\012kI\210\025\330"
 408      E23E8C75 
 408      134F1D40 
 408      5BF6880A 
 408      6B498815 
 409 07e5 5AB533B5 		.ascii	"Z\2653\265\302\357\027\017H\304E\224\333\006K\323\200"
 409      C2EF170F 
 409      48C44594 
 409      DB064BD3 
 409      80
 410 07f6 AD66C1DE 		.ascii	"\255f\301\336\345\0013\353\307\001l-\0136\3216\230\226"
 410      E50133EB 
 410      C7016C2D 
 410      0B36D136 
 410      9896
 411 0808 B3F52CD8 		.ascii	"\263\365,\3304\0360\263)\000\000\253e\301f\331\006c"
 411      341E30B3 
 411      290000AB 
ARM GAS  /tmp/ccRIKfpM.s 			page 32


 411      65C166D9 
 411      0663
 412 081a 391B1239 		.ascii	"9\033\0229\271s\007\031\214\375J\030'\313C\344*\267"
 412      B9730719 
 412      8CFD4A18 
 412      27CB43E4 
 412      2AB7
 413 082c 99510802 		.ascii	"\231Q\010\002\336\"[\336\002\003p\351WZ#\335?\27291"
 413      DE225BDE 
 413      020370E9 
 413      575A23DD 
 413      3FBA3931 
 414 0840 52723DB1 		.ascii	"Rr=\261W\372R1R5\340\371\000+G\362&\323h\345\310\361"
 414      57FA5231 
 414      5235E0F9 
 414      002B47F2 
 414      26D368E5 
 415 0856 9DCDE477 		.ascii	"\235\315\344wR\243\003\332\005\026\214\237\321\267\256"
 415      52A303DA 
 415      05168C9F 
 415      D1B7AE
 416 0865 433BA534 		.ascii	"C;\2454z\231\343A\300\316\351\255\344\252\215\2422G"
 416      7A99E341 
 416      C0CEE9AD 
 416      E4AA8DA2 
 416      3247
 417 0877 2297CB8F 		.ascii	"\"\227\313\2173e\265T\313\"\2762:g\266\262-\206 \347"
 417      3365B554 
 417      CB22BE32 
 417      3A67B6B2 
 417      2D8620E7 
 418 088b 518BF33C 		.ascii	"Q\213\363<\206sf\034@\015c?\244\363\207\027\021h\261"
 418      8673661C 
 418      400D633F 
 418      A4F38717 
 418      1168B1
 419 089e 0EC82F3A 		.ascii	"\016\310/:tsf\016m\253v\370b\211\246&\207`\357fI\250"
 419      7473660E 
 419      6DAB76F8 
 419      6289A626 
 419      8760EF66 
 420 08b4 C102CFC4 		.ascii	"\301\002\317\304\354O\303d\342^uu\375\331'*\345\310"
 420      EC4FC364 
 420      E25E7575 
 420      FDD9272A 
 420      E5C8
 421 08c6 50872A8A 		.ascii	"P\207*\212u\266\001[\352\224\"\011\233\223\265\033\246"
 421      75B6015B 
 421      EA942209 
 421      9B93B51B 
 421      A6
 422 08d7 EAEAD0F9 		.ascii	"\352\352\320\371\033\211\014\213\277\223\036f\013\370"
 422      1B890C8B 
 422      BF931E66 
 422      0BF8
 423 08e5 9CA7D599 		.ascii	"\234\247\325\231\205\365\320\204/\261Mx\207m\2604\015"
 423      85F5D084 
ARM GAS  /tmp/ccRIKfpM.s 			page 33


 423      2FB14D78 
 423      876DB034 
 423      0D
 424 08f6 D865166C 		.ascii	"\330e\026l\017\017X\2329gWX\260\003\266\301\264\234"
 424      0F0F589A 
 424      39675758 
 424      B003B6C1 
 424      B49C
 425 0908 5D65C18E 		.ascii	"]e\301\216\360\200\031\215^\214>lw\010\375\025\206~"
 425      F080198D 
 425      5E8C3E6C 
 425      7708FD15 
 425      867E
 426 091a FB515307 		.ascii	"\373QS\007\221\036F\372\025\322cHO \255C\332\200\264"
 426      911E46FA 
 426      15D26348 
 426      4F20AD43 
 426      DA80B4
 427 092d 11E975A4 		.ascii	"\021\351u\2447Y\375Z\304.\215\343\332\020w\366\005\306"
 427      3759FD5A 
 427      C42E8DE3 
 427      DA1077F6 
 427      05C6
 428 093f 2EC73D96 		.ascii	".\307=\226\261\313n\223\252\022\356\233,b\227&}\354"
 428      B1CB6E93 
 428      AA12EE9B 
 428      2C629726 
 428      7DEC
 429 0951 72D66337 		.ascii	"r\326c7va\324\200\221k\244h\335\022Y\036\356V\033\331"
 429      7661D480 
 429      916BA468 
 429      DD12591E 
 429      EE561BD9 
 430 0965 8F7A44A3 		.ascii	"\217zD\243Ff\376<'rxZj\355\233*X\203m0}\213U\365\270"
 430      4666FE3C 
 430      2772785A 
 430      6AED9B2A 
 430      58836D30 
 431 097e 19F5F819 		.ascii	"\031\365\370\031jd\027\322!\016B\313\034\232\326w=\316"
 431      6A6417D2 
 431      210E42CB 
 431      1C9AD677 
 431      3DCE
 432 0990 C9D1A097 		.ascii	"\311\321\240\227\301\213E\307BbD3%\255\227\230i\256"
 432      C18B45C7 
 432      42624433 
 432      25AD9798 
 432      69AE
 433 09a2 32AFA81D 		.ascii	"2\257\250\035>\330SBd\346\011h\013\011\037\025;U\244"
 433      3ED85342 
 433      64E60968 
 433      0B091F15 
 433      3B55A4
 434 09b5 2E519BAB 		.ascii	".Q\233\253[>gc\253\325\262\334\322/\216r\220\350q\263"
 434      5B3E6763 
 434      ABD5B2DC 
 434      D22F8E72 
ARM GAS  /tmp/ccRIKfpM.s 			page 34


 434      90E871B3 
 435 09c9 37F1B362 		.ascii	"7\361\263b\015\216$\354\302,c\034\332>\256\356\370\374"
 435      0D8E24EC 
 435      C22C631C 
 435      DA3EAEEE 
 435      F8FC
 436 09db 53BFAE44 		.ascii	"S\277\256Dd\362S\342~\356\246\321\250\233\262e&\303"
 436      64F253E2 
 436      7EEEA6D1 
 436      A89BB265 
 436      26C3
 437 09ed 0A87CE98 		.ascii	"\012\207\316\230G\373TV\222\013\304ooA\237Bp%a\234m"
 437      47FB5456 
 437      920BC46F 
 437      6F419F42 
 437      7025619C 
 438 0a02 30AD52C6 		.ascii	"0\255R\306oe\242b\256\347u\365\037\235k\275\016E6\321"
 438      6F65A262 
 438      AEE775F5 
 438      1F9D6BBD 
 438      0E4536D1 
 439 0a16 410CFCB4 		.ascii	"A\014\374\264Oo\213{\365O\251x\342\350\363<\0251\237"
 439      4F6F8B7B 
 439      F54FA978 
 439      E2E8F33C 
 439      15319F
 440 0a29 75024DEE 		.ascii	"u\002M\356mS\203\203S5\3321\015\323$\341',l\252\336"
 440      6D538383 
 440      5335DA31 
 440      0DD324E1 
 440      272C6CAA 
 441 0a3e 1AEA3FDD 		.ascii	"\032\352?\335\373Gj\015S\271\254a\345\316\311\\C\242"
 441      FB476A0D 
 441      53B9AC61 
 441      E5CEC95C 
 441      43A2
 442 0a50 2AB75A7C 		.ascii	"*\267Z|.\026_\235B\212\237\245/\276\251\372\334\263"
 442      2E165F9D 
 442      428A9FA5 
 442      2FBEA9FA 
 442      DCB3
 443 0a62 B4F8595C 		.ascii	"\264\370Y\\\305\237\3343\301\310\030MF\255\252\372>"
 443      C59FDC33 
 443      C1C8184D 
 443      46ADAAFA 
 443      3E
 444 0a73 FDE9F159 		.ascii	"\375\351\361YX\310\007h@\267R\364\352{\216\235\265\027"
 444      58C80768 
 444      40B752F4 
 444      EA7B8E9D 
 444      B517
 445 0a85 9427F98C 		.ascii	"\224'\371\214\375\2267S\271O\312~\241\232\033\237[\210"
 445      FD963753 
 445      B94FCA7E 
 445      A19A1B9F 
 445      5B88
 446 0a97 9A527978 		.ascii	"\232Ryx\3076\242\326\210/\357\301\026A\301\336\343\001"
ARM GAS  /tmp/ccRIKfpM.s 			page 35


 446      C736A2D6 
 446      882FEFC1 
 446      1641C1DE 
 446      E301
 447 0aa9 B3F0EC57 		.ascii	"\263\360\354WX\260q\266\301\264\234]e\301&\361\200\231"
 447      58B071B6 
 447      C1B49C5D 
 447      65C126F1 
 447      8099
 448 0abb 3FF98C5C 		.ascii	"?\371\214\\c\301\246\332\006\323rv\203\005\233\311\003"
 448      63C1A6DA 
 448      06D37276 
 448      83059BC9 
 448      03
 449 0acc 663E491B 		.ascii	"f>I\033\371\231\005\233c\033L\313\331m\026l>\017X\232"
 449      F999059B 
 449      631B4CCB 
 449      D96D166C 
 449      3E0F589A 
 450 0ae0 396715FB 		.ascii	"9g\025\373\030\260\217l\203i9\033\307\202-\346\001\263"
 450      18B08F6C 
 450      8369391B 
 450      C7822DE6 
 450      01B3
 451 0af2 988B9EC0 		.ascii	"\230\213\236\300\202-\263\015\246\345l\022\013\266\202"
 451      822DB30D 
 451      A6E56C12 
 451      0BB682
 452 0b01 07AC9D39 		.ascii	"\007\254\2359g\225,\330j\333`Z\316\246\262`\353y\300"
 452      67952CD8 
 452      6ADB605A 
 452      CEA6B260 
 452      EB79C0
 453 0b14 9E31E76C 		.ascii	"\2361\347l:\013\266\3116\230\226\263%,\330\026\036\260"
 453      3A0BB6C9 
 453      369896B3 
 453      252CD816 
 453      1EB0
 454 0b26 E7CD395B 		.ascii	"\347\3159[\306\202m\267\015\246\345\354\237,\330.\036"
 454      C6826DB7 
 454      0DA6E5EC 
 454      9F2CD82E 
 454      1E
 455 0b37 B017CD39 		.ascii	"\260\027\3159[\301\202\355\261\015\246\345l\025\013"
 455      5BC182ED 
 455      B10DA6E5 
 455      6C150B
 456 0b46 B68F07AC 		.ascii	"\266\217\007\254\2679g\253Y\260/m\203i9[\313\202\035"
 456      B73967AB 
 456      59B02F6D 
 456      8369395B 
 456      CB821D
 457 0b59 E6017BDD 		.ascii	"\346\001{\335\234\263\365,\3301\333`Z\316jY\260:\036"
 457      9CB3F52C 
 457      D831DB60 
 457      5ACE6A59 
 457      B03A1E
ARM GAS  /tmp/ccRIKfpM.s 			page 36


 458 0b6c B0370D38 		.ascii	"\2607\0158\213~\314\342\314\231\016&V\377\272\231\032"
 458      8B7ECCE2 
 458      CC990E26 
 458      56FFBA99 
 458      1A
 459 0b7d E0D8ECA3 		.ascii	"\340\330\354\243\205\030\306\231fv#2M\275Il\335f\265"
 459      8518C699 
 459      66762332 
 459      4DBD496C 
 459      DD66B5
 460 0b90 D2CFD360 		.ascii	"\322\317\323`\365\"\017\242E\0078u+\023\3716\330\006"
 460      F5220FA2 
 460      45073875 
 460      2B13F936 
 460      D806
 461 0ba2 D399F256 		.ascii	"\323\231\362V\375p\204c\201Ol!%\263\250\253\225\361"
 461      FD708463 
 461      814F6C21 
 461      25B3A8AB 
 461      95F1
 462 0bb4 BD30D676 		.ascii	"\2750\326v\220\321\334)\335\034\322\251\350$\022I\321"
 462      90D1DC29 
 462      DD1CD2A9 
 462      E8241249 
 462      D1
 463 0bc5 47C7B79A 		.ascii	"G\307\267\232i\037\354D?<\331\315,\342\004k\021CS9\304"
 463      691FEC44 
 463      3F3CD9CD 
 463      2CE2046B 
 463      11435339 
 464 0bda 65D1C59F 		.ascii	"e\321\305\237\334:\035\037\326\361/f\253\377h\2572P"
 464      DC3A1D1F 
 464      D6F12F66 
 464      ABFF68AF 
 464      3250
 465 0bec F816070A 		.ascii	"\370\026\007\012\243R\365\221\346\021\233\313\331 \036"
 465      A352F591 
 465      E6119BCB 
 465      D9201E
 466 0bfb D3D7C2E8 		.ascii	"\323\327\302\350\021\226yl\0016y\344\241\232\305\262"
 466      1196796C 
 466      013679E4 
 466      A19AC5B2 
 467 0c0b 5CE6B653 		.ascii	"\\\346\266S\217\355J=\316c=\246\376\013\3521\307v=\036"
 467      8FED4A3D 
 467      CE633DA6 
 467      FE0BEA31 
 467      C7763D1E 
 468 0c1f D7D563E3 		.ascii	"\327\325c\343\343\366\353qD\251\307\217X\217\217\376"
 468      E3F6EB71 
 468      44A9C78F 
 468      588F8FFE 
 469 0c2f 05F55866 		.ascii	"\005\365Xf\273\036\355\230z\340\250\355\011:j\343\232"
 469      BB1EED98 
 469      7AE0A8ED 
 469      093A6AE3 
 469      9A
ARM GAS  /tmp/ccRIKfpM.s 			page 37


 470 0c40 5CBFE2D0 		.ascii	"\\\277\342\320M\256\037\331A\326\277\223\313\211\206"
 470      4DAE1FD9 
 470      41D6BF93 
 470      CB8986
 471 0c4f 4B72A471 		.ascii	"Kr\244q\0073\324\225\371\206\272?)\022kD\211\325\350"
 471      0733D495 
 471      F986BA3F 
 471      29126B44 
 471      89D5E8
 472 0c62 24C68F54 		.ascii	"$\306\217T\263\373\263\245\312z\331\033\010\265!i\250"
 472      B3FBB3A5 
 472      CA7AD91B 
 472      08B52169 
 472      A8
 473 0c73 863D2BE9 		.ascii	"\206=+\351\032\321[\010\2645N\213n\235\022\335Z%\302"
 473      1AD15B08 
 473      B4354E8B 
 473      6E9D12DD 
 473      5A25C2
 474 0c86 5752D235 		.ascii	"WR\32252\362\026\337V\256\220/\036\341\377{>I\330\213"
 474      32F216DF 
 474      56AE902F 
 474      1EE1FF7B 
 474      3E49D88B 
 475 0c9a EC1305DA 		.ascii	"\354\023\005\332\354\250b\006\324\266F\351d\250\222"
 475      ECA86206 
 475      D4B646E9 
 475      64A892
 476 0ca9 0EFF22C4 		.ascii	"\016\377\"\304\241\221\352\3213\224G0\317\221n\346\324"
 476      A191EAD1 
 476      33944730 
 476      CF916EE6 
 476      D4
 477 0cba 2F84DBBB 		.ascii	"/\204\333\273\323\376\004\313\306\373\251\325\225\343"
 477      D3FE04CB 
 477      C6FBA9D5 
 477      95E3
 478 0cc8 BA81B371 		.ascii	"\272\201\263q\032Nj\202\345J\262\025\211~$\341&O'\222"
 478      1A4E6A82 
 478      E54AB215 
 478      897E24E1 
 478      264F2792 
 479 0cdc 66A5ADEB 		.ascii	"f\245\255\353OpN\322D\247\376\316\265\332F'\350\234"
 479      4F704ED2 
 479      44A7FECE 
 479      B5DA4627 
 479      E89C
 480 0cee 64EAAF49 		.ascii	"d\352\257I'\014\216\311\236\367\356 Y\306:\343\246\376"
 480      270C8EC9 
 480      9EF7EE20 
 480      59C63AE3 
 480      A6FE
 481 0d00 F6B6A6B3 		.ascii	"\366\266\246\263-\344'\216\311\236r\325.\350\214\336"
 481      2DE4278E 
 481      C99E72D5 
 481      2EE88CDE 
 482 0d10 FB0E4981 		.ascii	"\373\016I\201MV\236\032\025\306\370\003h'\211\033\306"
ARM GAS  /tmp/ccRIKfpM.s 			page 38


 482      4D569E1A 
 482      15C6F803 
 482      6827891B 
 482      C6
 483 0d21 393573BE 		.ascii	"95s\2763\357\260+\3734V\366\221\233;\247\213\204\177"
 483      33EFB02B 
 483      FB3456F6 
 483      919B3BA7 
 483      8B847F
 484 0d34 83F9A9E7 		.ascii	"\203\371\251\347\331h.*\370S\255\267\323i>\024\374\202"
 484      D9682E2A 
 484      F853ADB7 
 484      D3693E14 
 484      FC82
 485 0d46 3B6C2E92 		.ascii	";l.\222\225\204U\230\2452^\360\333\357\247\202\257\344"
 485      95845598 
 485      A5325EF0 
 485      DBEFA782 
 485      AFE4
 486 0d58 12FC9786 		.ascii	"\022\374\227\206\202\257\264/x\005\357`l\376\324/\216"
 486      82AFB42F 
 486      7805EF60 
 486      6CFED42F 
 486      8E
 487 0d69 B70D9666 		.ascii	"\267\015\226f\245\305JF\213SQ\213\323\234d\266}\272"
 487      A5C54A46 
 487      8B53518B 
 487      D39C64B6 
 487      7DBA
 488 0d7b 5697DBF5 		.ascii	"V\227\333\365\272\324HNI\232\316\035\310\221\361\273"
 488      BAD4484E 
 488      499ACE1D 
 488      C891F1BB 
 489 0d8b D5C7C4D4 		.ascii	"\325\307\304\324\347\035\340\261\015\213\021\377\314"
 489      E71DE0B1 
 489      0D8B11FF 
 489      CC
 490 0d98 DD2812EA 		.ascii	"\335(\022\352o\276\262\015\226\246\001[\367\036\347"
 490      6FBEB20D 
 490      96A6015B 
 490      F71EE7
 491 0da7 CA34DDDB 		.ascii	"\3124\335\333h\337b\271s\365\346\262\362\307\275#\304"
 491      68DF62B9 
 491      73F5E6B2 
 491      F2C7BD23 
 491      C4
 492 0db8 21D875CE 		.ascii	"!\330u\316\345\260\027\350\347\277\365\341\342jj\267"
 492      E5B017E8 
 492      E7BFF5E1 
 492      E26A6AB7 
 493 0dc8 B39AABA8 		.ascii	"\263\232\253\250\026\242\266\260\226\233\347\224\265"
 493      16A2B6B0 
 493      969BE794 
 493      B5
 494 0dd5 DA74D4F1 		.ascii	"\332t\324\361\241\036.\341\240H\013w;\260\255]2o\372"
 494      A11E2EE1 
 494      A0480B77 
ARM GAS  /tmp/ccRIKfpM.s 			page 39


 494      3BB0AD5D 
 494      326FFA
 495 0de8 458EE29B 		.ascii	"E\216\342\233~\213\260N\2376\327\367\010T2\214!\316"
 495      7E8BB04E 
 495      9F36D7F7 
 495      0854328C 
 495      21CE
 496 0dfa 650C713E 		.ascii	"e\014q>\032\342\207h\210\013\221~\314\232\243Y\260\365"
 496      1AE28768 
 496      880B917E 
 496      CC9AA359 
 496      B0F5
 497 0e0c 8993193E 		.ascii	"\211\223\031>\254\264]\3574\235v\314\212\371\200-f}"
 497      ACB45DEF 
 497      349D76CC 
 497      8AF9802D 
 497      667D
 498 0e1e 730EDB33 		.ascii	"s\016\3333\237 \"N\375/j8@\037Ol\263\215\250\265\346"
 498      9F20224E 
 498      FD2F6A38 
 498      401F4F6C 
 498      B38DA8B5 
 499 0e33 9FDED384 		.ascii	"\237\336\323\204\003\373y\340\2367`\320\350\303>\220"
 499      03FB79E0 
 499      9E3760D0 
 499      E8C33E90 
 500 0e43 F28BEFE1 		.ascii	"\362\213\357\341hq,>\235\033\207t\002\322)H\217 =\212"
 500      68712C3E 
 500      9D1B8774 
 500      02D22948 
 500      8F203D8A 
 501 0e57 F438D26F 		.ascii	"\3648\322o\220\236C\372\003\322z\244\243Q\305\023\220"
 501      909E43FA 
 501      03D27AA4 
 501      A351C513 
 501      90
 502 0e68 CE445A85 		.ascii	"\316DZ\205t\016\322eH\377\231\310\000\224^\240\361\352"
 502      740ED265 
 502      48FF99C8 
 502      00945EA0 
 502      F1EA
 503 0e7a 91369FA0 		.ascii	"\2216\237\240\257\036\211\346?\276\205\336\362*\034"
 503      AF1E89E6 
 503      3FBE85DE 
 503      F22A1C
 504 0e89 BAC70571 		.ascii	"\272\307\005q\317\273\346\267\340xnh\361d\347\350wg"
 504      CFBBE6B7 
 504      E0786E68 
 504      F164E7E8 
 504      7767
 505 0e9b 07AF1B4A 		.ascii	"\007\257\033Ju\272\210\232\265S\267\2201\361\022e\255"
 505      75BA889A 
 505      B553B790 
 505      31F11265 
 505      AD
 506 0eac 528FCF34 		.ascii	"R\217\3174\177\363S\363\340&\272\006\355\321\230L\326"
 506      7FF353F3 
ARM GAS  /tmp/ccRIKfpM.s 			page 40


 506      E026BA06 
 506      EDD1984C 
 506      D6
 507 0ebd DC3CF27F 		.ascii	"\334<\362\177\351Z\266\265\330\032\317\351d\222\020"
 507      E95AB6B5 
 507      D81ACFE9 
 507      649210
 508 0ecc 075F7BD4 		.ascii	"\007_{\324\271\271\310O'p-\333\206\304.nXY\244\341\304"
 508      B9B9C84F 
 508      27702DDB 
 508      86C42E6E 
 508      5859A4E1 
 509 0ee1 04C528E9 		.ascii	"\004\305(\351\312\202\006daCr]\"Y\246p\202Y\246p\335"
 509      CA820664 
 509      6143725D 
 509      2259A670 
 509      8259A670 
 510 0ef6 36589A06 		.ascii	"6X\232\006\354\032\013v\213\007\314b\021\332\015\026"
 510      EC1A0B76 
 510      8B07CC62 
 510      11DA0D16 
 511 0f06 4C6E6917 		.ascii	"Lni\027L\313\331\317,X\031\017\230\305\"\264\333,\330"
 511      4CCBD9CF 
 511      2C58190F 
 511      98C522B4 
 511      DB2CD8
 512 0f19 28DB605A 		.ascii	"(\333`Z\316*N2`\025<`\026kk\306\261`\223m\203i9\233"
 512      CE2A4E32 
 512      60153C60 
 512      166B6BC6 
 512      B160936D 
 513 0f31 C082CDE2 		.ascii	"\300\202\315\342\001K3\340\314\350\3036\002\277\030"
 513      014B33E0 
 513      CCE8C336 
 513      02BF18
 514 0f40 C14E6A23 		.ascii	"\301Nj#z\247\315H?G\272\025\351v\244;\221~\201t\017"
 514      7AA7CD48 
 514      3F47BA15 
 514      E976A43B 
 514      917E8174 
 515 0f55 D2BD3C1D 		.ascii	"\322\275<\035\331\032\266\207\231\327\222\303\033Y\314"
 515      D91AB687 
 515      99D792C3 
 515      1B59CC
 516 0f64 201DFDAE 		.ascii	" \035\375\256\366\177~\311\"\350\272\352\017v\374'q"
 516      F67F7EC9 
 516      22E8BAEA 
 516      0F76FC27 
 516      71
 517 0f75 1F891742 		.ascii	"\037\211\027B\037r\362-\204>\242\367%\015\273\321\227"
 517      1F72F22D 
 517      843EA2F7 
 517      250DBBD1 
 517      97
 518 0f86 1CE10AAF 		.ascii	"\034\341\012\257\0339\303\265\210\310J'\352\013\267"
 518      1B39C3B5 
 518      88C84A27 
ARM GAS  /tmp/ccRIKfpM.s 			page 41


 518      EA0BB7
 519 0f95 3F4B7DE1 		.ascii	"?K}\341q\364\205\227Z&\364"
 519      71F48597 
 519      5A26F4
 520 0fa0 855A1C9C 		.ascii	"\205Z\034\234&\325\363_\275\007\371\257\343\362\205"
 520      26D5F35F 
 520      BD07F9AF 
 520      E3F285
 521 0faf 2BF7687D 		.ascii	"+\367h}a\331\235\242\202\231\234/\\\265\207]\220k\033"
 521      61D99DA2 
 521      82999C2F 
 521      5CB5875D 
 521      906B1B
 522 0fc2 2C4D03B6 		.ascii	",M\003\266\232\005\033\315\003f\265 \227\005\033k\033"
 522      9A051BCD 
 522      0366B520 
 522      97051B6B 
 522      1B
 523 0fd3 4CCBD97A 		.ascii	"L\313\331z\026l\002\017\230\325\202\\\026l\212m\260"
 523      166C020F 
 523      98D5825C 
 523      166C8A6D 
 523      B0
 524 0fe4 3423F50A 		.ascii	"4#\365\012q\326\341\027O\241\2238\215M\377\033\244\337"
 524      71D6E117 
 524      4FA19338 
 524      8D4DFF1B 
 524      A4DF
 525 0ff6 213D8BF4 		.ascii	"!=\213\364<\322\357y\\\302"
 525      3CD2EF79 
 525      5CC2
 526 1000 31D625CC 		.ascii	"1\326%\314@\206\217$;\240\204\026}\372?V\307\273\004"
 526      40868F24 
 526      3BA08416 
 526      7DFA3F56 
 526      C7BB04
 527 1013 2A0F330E 		.ascii	"*\0173\016.\261\034\314\265\315A\032\313A\344\346n:"
 527      2EB11CCC 
 527      B5CD411A 
 527      CB41E4E6 
 527      6E3A
 528 1025 39AFBE81 		.ascii	"9\257\276\201\276P\217g4-k5J\331\335l\311\233*\330\022"
 528      BE508F67 
 528      342D6B35 
 528      4AD9DD6C 
 528      C99B2AD8 
 529 103a DB605E0D 		.ascii	"\333`^\015X\305\036\006l\265m0\263\245r_\241-\034E\235"
 529      58C51E06 
 529      6CB56D30 
 529      B3A5725F 
 529      A12D1C45 
 530 104f FF88F432 		.ascii	"\377\210\3642\322+H\257j\007\334\033\357\214\233\353"
 530      D22B48AF 
 530      6A07DC1B 
 530      EF8C9BEB 
 531 105f D68F9862 		.ascii	"\326\217\230b^T\340\3055\323\355\227\254n\017\334\311"
 531      5E54E0C5 
ARM GAS  /tmp/ccRIKfpM.s 			page 42


 531      35D3ED97 
 531      AC6E0FDC 
 531      C9
 532 1070 D1E1A499 		.ascii	"\321\341\244\231[\327\321\357.)\035\016\005\206\001"
 532      5BD7D1EF 
 532      2E291D0E 
 532      058601
 533 107f BA6D44AD 		.ascii	"\272mD\255\265L<9S\263\310\274\216\007\317b%\303t\032"
 533      B54C3C39 
 533      53B3C8BC 
 533      8E07CF62 
 533      25C3741A 
 534 1093 2250B0F3 		.ascii	"\"P\260\363\266\301\322\004\323\017\373\206\031\014"
 534      B6C1D204 
 534      D30FFB86 
 534      190C
 535 10a1 487171E4 		.ascii	"Hqq\344\"\\\304\270\016\351\010\034\360\324\240fV#="
 535      225CC4B8 
 535      0EE9081C 
 535      F0D4A066 
 535      56233D
 536 10b4 80F406D2 		.ascii	"\200\364\006\322\237\221\336\346\321\330\207\354B\307"
 536      9F91DEE6 
 536      D1D887EC 
 536      42C7
 537 10c2 2B5885B9 		.ascii	"+X\205\271\311\276)SW\263\345\320lq|\231L\336\312^\217"
 537      C9BE2953 
 537      57B3E5D0 
 537      6C717C99 
 537      4CDECA5E 
 538 10d7 EB64AFDB 		.ascii	"\353d\257\333F\324j\354*\235\262\242`M<`F\215\233\021"
 538      46D46AEC 
 538      2A9DB2A2 
 538      604D3C60 
 538      468D9B11 
 539 10eb 2B15E83C 		.ascii	"+\025\350<\024\350|\272*\324Eh\231K\323l\206\337\025"
 539      14E87CBA 
 539      2AD44568 
 539      994BD36C 
 539      86DF15
 540 10fe 37D1A05F 		.ascii	"7\321\240_g:W\263\316\324\024\313L\360U1\301\373\305"
 540      673A57B3 
 540      CED414CB 
 540      4CF05531 
 540      C1FBC5
 541 1111 729C8CB3 		.ascii	"r\234\214\263\363z\247VLM[U7H7\271\031\213\354'x!\327"
 541      F37AA756 
 541      4C4D5B55 
 541      374837B9 
 541      198BEC27 
 542 1128 685ACCE8 		.ascii	"hZ\314\350\303\3566\344\027W\342\013B\253\360\215\361"
 542      C3EE36E4 
 542      1757E20B 
 542      42ABF08D 
 542      F1
 543 1139 DB482763 		.ascii	"\333H'c\325\247!\235\201t\026\322r\0361,c\337'\237\205"
 543      D5A7219D 
ARM GAS  /tmp/ccRIKfpM.s 			page 43


 543      817416D2 
 543      721E312C 
 543      63DF279F 
 544 114e 6C2F4EFA 		.ascii	"l/N\372}\362\015\3137J\270C\006\265k\350^l\003j\345"
 544      7DF20DCB 
 544      374AB843 
 544      06B56BE8 
 544      5E6C036A 
 545 1163 7AFC12DF 		.ascii	"z\374\022\337\016U\277Q\261\2260S\010\325\325_=@C\304"
 545      0E55BF51 
 545      B1963053 
 545      08D5D55F 
 545      3D4043C4 
 546 1177 775D2444 		.ascii	"w]$D<\256\263\251\304@8\253\340\322\305\210k\350\313"
 546      3CAEB3A9 
 546      C44038AB 
 546      E0D2C588 
 546      6BE8CB
 547 118a B2E47AE2 		.ascii	"\262\344z\342\030w\335\2265\242\\\236\312\377\254t\362"
 547      1877DD96 
 547      35A25C9E 
 547      CAFFAC74 
 547      F2
 548 119b CA4D9795 		.ascii	"\312M\227\225\347u\343]\304\255M\377\225\276%\330~V"
 548      E775E35D 
 548      C4AD4DFF 
 548      95BE25D8 
 548      7E56
 549 11ad 3A1B2108 		.ascii	":\033!\010\303\026\326h\241\326\352\352\033\255\033"
 549      C316D668 
 549      A1D6EAEA 
 549      1BAD1B
 550 11bc 87CA95ED 		.ascii	"\207\312\225\355T\236\026\332\006\324v\314\265[\260"
 550      549E16DA 
 550      06D476CC 
 550      B55BB0
 551 11cb 63A6608B 		.ascii	"c\246`\213l\203\265\324\200\355c\301\252m\203\265\322"
 551      6C83B5D4 
 551      80ED63C1 
 551      AA6D83B5 
 551      D2
 552 11dc 801D60C1 		.ascii	"\200\035`\301V\333\006\323Z\357A\026,b\033L\363\340"
 552      56DB06D3 
 552      5AEF4116 
 552      2C621B4C 
 552      F3E0
 553 11ee 3D72B83C 		.ascii	"=r\270<\265\366M\376\227\223&\257<=T\244\326?\007\313"
 553      B5F64DFE 
 553      979326AF 
 553      3C3D54A4 
 553      D63F07CB 
 554 1202 DF1E6747 		.ascii	"\337\036gGv_O\222\204\335\372:$|A\210}\350N\014\351"
 554      765F4F92 
 554      84DDFA3A 
 554      247C4188 
 554      7DE84E0C 
 555 1217 FCFD23CA 		.ascii	"\374\375#\312\344\005\355T\246\366\362\000Z\204\213"
ARM GAS  /tmp/ccRIKfpM.s 			page 44


 555      E405ED54 
 555      A6F6F200 
 555      5A848B
 556 1226 37CBC7D8 		.ascii	"7\313\307\330|\3069y\345\371z\245}-D\026\216\306\311"
 556      7CC63979 
 556      E5F97AA5 
 556      7D2D4416 
 556      8EC6C9
 557 1239 C5FEB64F 		.ascii	"\305\376\266O\222pJ_\021;\203\"\224\314\345_W*\261\026"
 557      92704A5F 
 557      113B8322 
 557      94CCE55F 
 557      572AB116 
 558 124d E5EB7B1E 		.ascii	"\345\353{\036D\213%K\223\350\222%\012\326h\033Lk\311"
 558      448B254B 
 558      93E89225 
 558      0AD6681B 
 558      4C6BC9
 559 1260 952C987C 		.ascii	"\225,\230|7\007\230\305\202\236\251,X\271m0-g\323Y\260"
 559      370798C5 
 559      829EA92C 
 559      58B96D30 
 559      2D67D359 
 560 1275 F778C0D2 		.ascii	"\367x\300\322\3149\233\311\202M\262\015\246\345l\011"
 560      CC399BC9 
 560      824DB20D 
 560      A6E56C09 
 561 1285 0B369307 		.ascii	"\0136\223\007\314\"\322]\306\202}h\033\214\345L\216"
 561      CC22D25D 
 561      C6827D68 
 561      1B8CE54C 
 561      8E
 562 1296 2CDFDA0C 		.ascii	",\337\332\014\372$u\257\217\312\346\324E\251]`\024L"
 562      FA2475AF 
 562      8FCAE6D4 
 562      45A95D60 
 562      144C
 563 12a8 8EBE8CE3 		.ascii	"\216\276\214\343\262\273\331\307\006\227/Z|\252/\226"
 563      B2BBD9C7 
 563      06972F5A 
 563      7CAA2F96 
 564 12b8 688AEDF6 		.ascii	"h\212\355\366\361\251\276\022\272\202m\007I\261\216"
 564      F1A9BE12 
 564      BA826D07 
 564      49B18E
 565 12c7 DA2FBEEF 		.ascii	"\332/\276\357\302\347\330\030\015NF:\005\3514\2443\220"
 565      C2E7D818 
 565      0D4E463A 
 565      05E934A4 
 565      3390
 566 12d9 CE423A1B 		.ascii	"\316B:\033\351|\244\013\220.B\372)\322\245H\253\221"
 566      E97CA40B 
 566      902E42FA 
 566      29D2A548 
 566      AB91
 567 12eb 2E47BA12 		.ascii	".G\272\022i\015\3225H\327\361\204Yc\\L\230U}7GTd\356"
 567      690DD235 
ARM GAS  /tmp/ccRIKfpM.s 			page 45


 567      48D7F184 
 567      59635C4C 
 567      98557D37 
 568 1303 F5EA36AC 		.ascii	"\365\3526\254\333+\342\266=j\270\271F\017\230pl\253"
 568      DB2BE2B6 
 568      3D6AB8B9 
 568      460F9870 
 568      6CAB
 569 1315 35D54BFF 		.ascii	"5\325K\377E\372v\212\365\231m\254\307\255\264\262\230"
 569      45FA768A 
 569      F5996DAC 
 569      C7ADB4B2 
 569      98
 570 1326 095D9760 		.ascii	"\011]\227`\350\272\024\203\326Q(\273\321H7!\375\214"
 570      E8BA1483 
 570      D65128BB 
 570      D1483721 
 570      FD8C
 571 1338 478E1F69 		.ascii	"G\216\037i6tCV\347'\035\256\016\337\363\2562\034%\352"
 571      36744356 
 571      E7271DAE 
 571      0EDFF3AE 
 571      321C25EA 
 572 134c 0101B824 		.ascii	"\001\001\270$\233xZ1\336<\033\037\255\322\305\222f\325"
 572      9B785A31 
 572      DE3C1B1F 
 572      ADD2C592 
 572      66D5
 573 135e D9CE9A45 		.ascii	"\331\316\232E-Ou,:\303[\337\254\"\261\246\252\310\303"
 573      2D4F752C 
 573      3AC35BDF 
 573      AC22B1A6 
 573      AAC8C3
 574 1371 7A389B46 		.ascii	"z8\233F\361~CD\224\337IU_5\374V\017\227\260\253nge\027"
 574      F17E4344 
 574      94DF4955 
 574      5F35FC56 
 574      0F97B0AB 
 575 1389 F319BB58 		.ascii	"\363\031\273X\200v\261\020\355b+\332\3026\244;\221~"
 575      8076B110 
 575      ED622BDA 
 575      C236A43B 
 575      917E
 576 139b C16317B3 		.ascii	"\301c\027\263cv\241\021\277\342\344\352\\\225ZM\304"
 576      6376A111 
 576      BFE2E4EA 
 576      5C955A4D 
 576      C4
 577 13ac EDCC526B 		.ascii	"\355\314Rk\333\307\3555\361q\211X\335\3432f\325h\306"
 577      DBC7ED35 
 577      F1718958 
 577      DDE33266 
 577      D568C6
 578 13bf BAAB9AF9 		.ascii	"\272\253\232\3710\263@\246\346\314\2766t\231\326~\034"
 578      30B340A6 
 578      E6CCBE36 
 578      7499D67E 
ARM GAS  /tmp/ccRIKfpM.s 			page 46


 578      1C
 579 13d0 D7CCB927 		.ascii	"\327\314\271'\361\324\267\026\310/~\211\246~P?\266\271"
 579      F1D4B716 
 579      C82F7E89 
 579      A67E503F 
 579      B6B9
 580 13e2 4EF7873D 		.ascii	"N\367\207=\3105\266\271\265un\262\273\330~z\017\327"
 580      C835B6B9 
 580      B5756EB2 
 580      BBD87E7A 
 580      0FD7
 581 13f4 2EB64791 		.ascii	".\266G\221\313cz.\367S.\217qq\371e\242]l\371c\307\246"
 581      CB637A2E 
 581      F7532E8F 
 581      7171F965 
 581      A25D6CF9 
 582 140b 0BA7FFF2 		.ascii	"\013\247\377\362)\012\376\024\366\303\227u\202\367\213"
 582      290AFE14 
 582      F6C39775 
 582      82F78B
 583 141a 2E5DE8E8 		.ascii	".]\350\350\322\206\216._,\241\204\216fVR\347\262\330"
 583      D2868E2E 
 583      5F2CA184 
 583      8E665652 
 583      E7B2D8
 584 142d 2B52D9AE 		.ascii	"+R\331\2561\372\375\024-\227k\243\273\223.f\336\343"
 584      31FAFD14 
 584      2D976BA3 
 584      BB932E66 
 584      DEE3
 585 143f BCA80A38 		.ascii	"\274\250\01289\017\012\246\370 \3167Ymfs\312e\336\210"
 585      390F0AA6 
 585      F820CE37 
 585      596D6673 
 585      CA65DE88 
 586 1453 CE5955F3 		.ascii	"\316YU\363\360/\250\346Y\266\232u\266\253\231\306V3"
 586      F02FA8E6 
 586      59B69A75 
 586      B6AB99C6 
 586      5633
 587 1465 F10E928D 		.ascii	"\361\016\222\215\026>\376G\253*\036\261\261\303\346"
 587      163EFE47 
 587      AB2A1EB1 
 587      B1C3E6
 588 1474 0F6C6771 		.ascii	"\017lgq\035m/A\225\022m\013\234l\225\032\014\252\304"
 588      1D6D2F41 
 588      95126D0B 
 588      9C6C951A 
 588      0CAAC4
 589 1487 55852B2E 		.ascii	"U\205+.\335\022\215[\266\253\361/\324\314\015\016\315"
 589      DD128D5B 
 589      B6ABF12F 
 589      D4CC0D0E 
 589      CD
 590 1498 D8DEA078 		.ascii	"\330\336\240x\371\234S\363\225\001\346m\364\022C\356"
 590      F99C53F3 
 590      9501E66D 
ARM GAS  /tmp/ccRIKfpM.s 			page 47


 590      F41243EE 
 591 14a8 D57B8924 		.ascii	"\325{\211$V\321\362\332\310u\326FF\337\313!\\\253\015"
 591      56D1F2DA 
 591      C875D646 
 591      46DFCB21 
 591      5CAB0D
 592 14bb 6F795AB7 		.ascii	"oyZ\267\225\200\207\271-\004|\333Fk.s3\325\252\260]"
 592      958087B9 
 592      2D047CDB 
 592      466B2E73 
 592      33D5AAB0 
 593 14d0 2D9B3663 		.ascii	"-\2336c\345\260\336\261\252\222\211_N\252\312\243\330"
 593      E5B0DEB1 
 593      AA92895F 
 593      4EAACAA3 
 593      D8
 594 14e1 2A4FE4A9 		.ascii	"*O\344\251\362/\331\002\327\252\312\343\254\252l\342"
 594      F22FD902 
 594      D7AACAE3 
 594      ACAA6CE2 
 595 14f1 A393AAF2 		.ascii	"\243\223\252\362\373l\225\247\333\256r\232\240\375\304"
 595      FB6C95A7 
 595      DBAE729A 
 595      A0FDC4
 596 1500 1E0E9CC0 		.ascii	"\036\016\234\300@\362\014\322\213H\353\221^C:\324M\350"
 596      40F20CD2 
 596      8B48EB91 
 596      5E433AD4 
 596      4DE8
 597 1512 48A4156E 		.ascii	"H\244\025n\216`\363\010\333\267\334\022\325H*\231.T"
 597      8E60F308 
 597      DBB7DC12 
 597      D5482A99 
 597      2E54
 598 1524 8EDC2623 		.ascii	"\216\334&#{\336E\351\023\352o\264\306W0\246\270I\344"
 598      7BDE45E9 
 598      13EA6FB4 
 598      C65730A6 
 598      B849E4
 599 1537 77E45EC3 		.ascii	"w\344^\303\310\317jM\372Y\3142\335\255\013\251V\226"
 599      C8CF6A4D 
 599      FA59CC32 
 599      DDAD0BA9 
 599      5696
 600 1549 E3C670E4 		.ascii	"\343\306p\344z\342\220\252\206s\007\310\252\350\202"
 600      7AE290AA 
 600      867307C8 
 600      AAE882
 601 1558 8BBB85D8 		.ascii	"\213\273\205\330r\322[d9\351l\344\277\301\230\177s\014"
 601      72D25B64 
 601      39E96CE4 
 601      BFC1987F 
 601      730C
 602 156a 4928BF0F 		.ascii	"I(\277\017\237A\351\371o\360\247\321\253\034\313N\324"
 602      9F41E9F9 
 602      6FF0A7D1 
 602      AB1CCB4E 
ARM GAS  /tmp/ccRIKfpM.s 			page 48


 602      D4
 603 157b 75B5556E 		.ascii	"u\265Un\362\210bb\0240\251\020(\3623\356\201L\327\350"
 603      F2886262 
 603      1430A910 
 603      28F233EE 
 603      814CD7E8 
 604 158f CEB08D95 		.ascii	"\316\260\215\225\246\301z\177\213\272\272\232.\210^"
 604      A6C17A7F 
 604      8BBABA9A 
 604      2E885E
 605 159e C8836731 		.ascii	"\310\203g1\"\234@\236\336\331y\377c\273\362\376\307"
 605      229C409E 
 605      DED979FF 
 605      63BBF2FE 
 605      C7
 606 15af 62374EA6 		.ascii	"b7N\246\337\367/\350\271$!b\273\026\032\251\324M\254"
 606      DFF72FE8 
 606      B9242162 
 606      BB161AA9 
 606      D44DAC
 607 15c2 3FDD4A5D 		.ascii	"?\335J]ZK\031\333\316\203h\324\261\031}Xk\202q\251\033"
 607      5A4B19DB 
 607      CE8368D4 
 607      B1197D58 
 607      6B8271A9 
 608 15d7 972CA333 		.ascii	"\227,\2433X\210\364c\244\213\220.\343q\017U\254\033"
 608      5888F463 
 608      A48B902E 
 608      E3710F55 
 608      AC1B
 609 15e9 DB7F9FDA 		.ascii	"\333\177\237\332\336l\232\2271\253\323\031Vg\"\253\263"
 609      DE6C9A97 
 609      31ABD319 
 609      566722AB 
 609      B3
 610 15fa 589624E1 		.ascii	"X\226$\341(\226g\307\035i\205]s\346\306C\365\344Y\017"
 610      289667C7 
 610      1D69855D 
 610      73E6C643 
 610      F5E4590F 
 611 160e F7DEA891 		.ascii	"\367\336\250\221\033n\311/\256t\223mQO\351,\206s[\324"
 611      1B6EC92F 
 611      AE74936D 
 611      514FE92C 
 611      86735BD4 
 612 1622 D56EDDB6 		.ascii	"\325n\335\266\250\365t[Tr\335\242A+\273\227^\270/~["
 612      A8F5745B 
 612      5472DDA2 
 612      412BBB97 
 612      5EB82F7E 
 613 1637 D486FB0C 		.ascii	"\324\206\373\014\267E\275u\237v[TE\012\226\033\235\306"
 613      B745BD75 
 613      9F765B54 
 613      450A961B 
 613      9DC6
 614 1649 98F38B6B 		.ascii	"\230\363\213kP\344k\335\326\033\235\036\264~\310c\276"
 614      50E46BDD 
ARM GAS  /tmp/ccRIKfpM.s 			page 49


 614      D61B9D1E 
 614      B47EC863 
 614      BE
 615 165a E238D2B4 		.ascii	"\3428\322\264\225\274A\300\273\036x\306\234\013\312"
 615      95BC41C0 
 615      BB1E78C6 
 615      9C0BCA
 616 1669 1AE9CDE8 		.ascii	"\032\351\315\350N\327\265J\354N\015p\300\355\340\316"
 616      4ED7B54A 
 616      EC4E0D70 
 616      C0EDE0CE 
 617 1679 5A5B1064 		.ascii	"Z[\020d\247]\020I8\210Y\266\353}\362\272r\034\246o\347"
 617      A75D1049 
 617      388859B6 
 617      EB7DF2BA 
 617      721CA66F 
 618 168e F0CA640B 		.ascii	"\360\312d\013b\372\222\220\372\366\304\311(\246R\350"
 618      62FA9290 
 618      FAF6C4C9 
 618      28A652E8 
 619 169e F3ACF812 		.ascii	"\363\254\370\022\273\345Z\272p\201\016\324\317\351\301"
 619      BBE55ABA 
 619      70810ED4 
 619      CFE9C1
 620 16ad 6CFAD1FD 		.ascii	"l\372\321\375\321\027\201\016\343?\022\324\333\306\323"
 620      D117810E 
 620      E33F12D4 
 620      DBC6D3
 621 16bc 34B2C801 		.ascii	"4\262\310\001\312\034\005\373\231\007\314\342A\317a"
 621      CA1C05FB 
 621      9907CCE2 
 621      41CF61
 622 16cb 166C686B 		.ascii	"\026lhk\273`Z\316\276b\301\336\341\001\263x\320s\\\351"
 622      BB605ACE 
 622      BE62C1DE 
 622      E101B378 
 622      D0735CE9 
 623 16df CE92DCE9 		.ascii	"\316\222\334\351\366+m\334\251\337\236\326\204-\\d\347"
 623      F62B6DDC 
 623      A9DF9ED6 
 623      842D5C64 
 623      E7
 624 16f0 660234BE 		.ascii	"f\0024\276\235q'\323\000\350\010\306\004\343Zk\333\200"
 624      9D7127D3 
 624      00E808C6 
 624      04E35A6B 
 624      DB80
 625 1702 AE68C298 		.ascii	"\256h\302\230Y\321'\335\346\273\313\351~\203\030\327"
 625      59D127DD 
 625      E6BBCBE9 
 625      7E8318D7 
 626 1712 B680B5DA 		.ascii	"\266\200\265\332:Y\256yEd\036\017\\\232\201\276\214"
 626      3A59AE79 
 626      45641E0F 
 626      5C9A81BE 
 626      8C
 627 1723 3E6C83F6 		.ascii	">l\203\366\213;\321\361\355\302Np7\322Z\244\373\220"
ARM GAS  /tmp/ccRIKfpM.s 			page 50


 627      8B3BD1F1 
 627      EDC24E70 
 627      37D25AA4 
 627      FB90
 628 1735 1E407A10 		.ascii	"\036@z\020\351a\244\247\330^\351\337\203*\011\237\264"
 628      E961A4A7 
 628      D85EE9DF 
 628      832A099F 
 628      B4
 629 1746 D6F5755A 		.ascii	"\326\365uZ\307\224\250\035\312\330\331\215\227a\200"
 629      C794A81D 
 629      CAD8D98D 
 629      976180
 630 1755 CBEF71F7 		.ascii	"\313\357q\367?H=\356\267\350,\253u\206B\315\362\337"
 630      3F483DEE 
 630      B7E82CAB 
 630      758642CD 
 630      F2DF
 631 1767 55DF4D5C 		.ascii	"U\337M\\\3655}\333.Z\337\312v\354\263\277#\242\325\263"
 631      F5357DDB 
 631      2E5ADFCA 
 631      76ECB3BF 
 631      23A2D5B3 
 632 177b BFF3EE3B 		.ascii	"\277\363\356;\225\224\372L\217\304_zF\214\237\335\231"
 632      9594FA4C 
 632      8FC45F7A 
 632      468C9FDD 
 632      99
 633 178c 6E9A826B 		.ascii	"n\232\202k\030\034n\212.\011\273\370\340j\235fxF\003"
 633      181C6E8A 
 633      2E09BBF8 
 633      E06A9D66 
 633      784603
 634 179f 5CA38D9D 		.ascii	"\\\243\215\235\243c\21161\225\256\276y}\224\362\226"
 634      A3638936 
 634      3195AEBE 
 634      797D94F2 
 634      96
 635 17b0 DF25D4E9 		.ascii	"\337%\324\351\036\235N\023\002\021\341\324\353;\277"
 635      1E9D4E13 
 635      0211E1D4 
 635      EB3BBF
 636 17bf 19A7B789 		.ascii	"\031\247\267\2118R\253O\334\375\015+\213,=\275M"
 636      3852AB4F 
 636      DCFD0D2B 
 636      8B2C3DBD 
 636      4D
 637 17d0 5D3945D6 		.ascii	"]9E\326\356\202\035\341\233F\365\311\015K\000p\331\351"
 637      EE821DE1 
 637      9B46F5C9 
 637      0D4B0070 
 637      D9E9
 638 17e2 6D749443 		.ascii	"mt\224C\341\266\331\206K\323\300\375S\013\367\263\304"
 638      E1B6D986 
 638      4BD3C0FD 
 638      530BF7B3 
 638      C4
ARM GAS  /tmp/ccRIKfpM.s 			page 51


 639 17f3 0167B1A0 		.ascii	"\001g\261\240|\205\026n\023\017w\026K\312Wi\341>\343"
 639      7C85166E 
 639      130F7716 
 639      4BCA5769 
 639      E13EE3
 640 1806 81B35854 		.ascii	"\201\263XT\276\232\205\223\204\343h\020v\340\264\334"
 640      BE9A8593 
 640      84E36810 
 640      76E0B4DC 
 641 1816 ADD5C29D 		.ascii	"\255\325\302\235\342\2013\352U\215>\254\345\371\305"
 641      E28133EA 
 641      558D3EAC 
 641      E5F9C5
 642 1825 2BE85F1A 		.ascii	"+\350_\032\320w\\E\332\210\364\032\322\353Ho \375\231"
 642      D0775C45 
 642      DA88F41A 
 642      D2EB486F 
 642      20FD99
 643 1838 6720F323 		.ascii	"g \363#;\220\371N\337H\215\330\256\265|\021S\303\367"
 643      3B90F94E 
 643      DF488DD8 
 643      AEB57C11 
 643      53C3F7
 644 184b 41E671FD 		.ascii	"A\346q\375!|\\\177\030gc*\221\277\025H7!\375\006\351"
 644      217C5C7F 
 644      1867632A 
 644      91BF1548 
 644      3721FD06 
 645 1860 39A4DF23 		.ascii	"9\244\337#\375\201\207\373}&\317\331X\337\307<\021\254"
 645      FD8187FB 
 645      7D26CFD9 
 645      58DFC73C 
 645      11AC
 646 1872 88B6E9BB 		.ascii	"\210\266\351\273\024\000\331c\367\221\340\020\217\361"
 646      1400D963 
 646      F791E010 
 646      8FF1
 647 1880 23C13B13 		.ascii	"#\301;\023\260\332\344\266\305\352HQ\013\354\027\313"
 647      B0DAE4B6 
 647      C5EA4851 
 647      0BEC17CB 
 648 1890 6CB33ACC 		.ascii	"l\263:\314\204\325\226\011X\035\352\261\305j\374?\307"
 648      84D59609 
 648      581DEAB1 
 648      C56AFC3F 
 648      C7
 649 18a1 94DB6675 		.ascii	"\224\333fu\204\011\253-\022\260:\334\204U\336W\214\206"
 649      8409AB2D 
 649      12B03ADC 
 649      8455DE57 
 649      8C86
 650 18b3 4FC561D1 		.ascii	"O\305a\321(\017\351\025\276O\334+hA$\341*f\031\343\321"
 650      280FE915 
 650      BE4FDC2B 
 650      684124E1 
 650      2A6619E3 
 651 18c8 F50CB3C8 		.ascii	"\365\014\263\310T\025\271\232x\252\252\372:\363\010"
ARM GAS  /tmp/ccRIKfpM.s 			page 52


 651      5415B99A 
 651      78AAAAFA 
 651      3AF308
 652 18d7 1E6EC6C7 		.ascii	"\036n\306\307\241$\253R\242\275\015\277#\313/*\216\210"
 652      A124AB52 
 652      A2BD0DBF 
 652      23CB2F2A 
 652      8E88
 653 18e9 2C3B9084 		.ascii	",;\220\204\333Q\376\222\350\023\000n\345\"e\"m6\216"
 653      DB51FE92 
 653      E813006E 
 653      E5226522 
 653      6D368E
 654 18fc 16CAEEE7 		.ascii	"\026\312\356\347\200\263\030d\325\234\343Z\353[\365"
 654      80B31864 
 654      D59CE35A 
 654      EB5BF5
 655 190b 888A3557 		.ascii	"\210\2125W\263\326w\323\357\350j\307I\250\256w\356O"
 655      B3D677D3 
 655      EFE86AC7 
 655      49A8AE77 
 655      EE4F
 656 191d 3C8AD502 		.ascii	"<\212\325\002\021mL\321\353j?\375W\327)\\\332:@\327"
 656      116D4CD1 
 656      EB6A3FFD 
 656      57D7295C 
 656      DA3A40D7 
 657 1931 688D41E1 		.ascii	"h\215A\341\276\207\014L\261!\\-\330\241\255\233\251"
 657      BE870C4C 
 657      B1215C2D 
 657      D8A1AD9B 
 657      A9
 658 1942 EAE7B862 		.ascii	"\352\347\270b\252\237bC\365Z]\035\336\312,E}_\317[\302"
 658      AA9F6243 
 658      F55A5D1D 
 658      DECA2C45 
 658      7D5FCF5B 
 659 1957 A5A89A65 		.ascii	"\245\250\232e\234\221\257X\260I\266\301\236\321\200"
 659      9C91AF58 
 659      B049B6C1 
 659      9ED180
 660 1966 1D1F3146 		.ascii	"\035\0371F\031\303\320\305mSy\004gaF'b+\345\374\342"
 660      19C3D0C5 
 660      6D537904 
 660      67614627 
 660      622BE5FC 
 661 197b 32BDD86C 		.ascii	"2\275\330l\016\324/\261\313\356f\361pf1P\277\314\202"
 661      0ED42FB1 
 661      CBEE66F1 
 661      70663150 
 661      BFCC82
 662 198e CDB70DA6 		.ascii	"\315\267\015\246\345\354\012\013\366\011\017\230\305"
 662      E5EC0A0B 
 662      F6090F98 
 662      C5
 663 199b 40FD1A0B 		.ascii	"@\375\032\013\266\3146\230\226\263\033q\333\333i\326"
 663      B6CC3698 
ARM GAS  /tmp/ccRIKfpM.s 			page 53


 663      96B31B71 
 663      DBDB69D6 
 664 19ab 17C6B9E9 		.ascii	"\027\306\271\351\305\036&\312X\303Sx\232YM \354\336"
 664      C51E26CA 
 664      58C35378 
 664      9A594D20 
 664      ECDE
 665 19bd D10C9740 		.ascii	"\321\014\227@\221%\213\222\260Y\217f<\260H3\250\214"
 665      91258B92 
 665      B0598F66 
 665      3CB04833 
 665      A88C
 666 19cf D1877510 		.ascii	"\321\207u\020~q\252\007wY\361\220\200d\006\322\231H"
 666      7E71AA07 
 666      7759F190 
 666      806406D2 
 666      9948
 667 19e1 AB90CE41 		.ascii	"\253\220\316A:\027\351<\244\037\"]\210\364c\244\213"
 667      3A17E93C 
 667      A41F225D 
 667      88F463A4 
 667      8B
 668 19f2 902EF170 		.ascii	"\220.\361p\0043\023Y!m\265\355i5\032\252\2337y\254\346"
 668      04331359 
 668      216DB5ED 
 668      69351AAA 
 668      9B3779AC 
 669 1a07 35AC5D3C 		.ascii	"5\254]<x\026\206\275\356\234f\341\331\001=\234\221G"
 669      781686BD 
 669      EE9C66E1 
 669      D9013D9C 
 669      9147
 670 1a19 E07F0D73 		.ascii	"\340\177\015s\014#\363\367P\346cQn\025H\307!\235\200"
 670      0C23F3F7 
 670      50E66351 
 670      6E1548C7 
 670      219D80
 671 1a2c B41AE972 		.ascii	"\264\032\351r\036y\216\264\027\306TD\007\332\217(\000"
 671      1E798EB4 
 671      17C65444 
 671      07DA8F28 
 671      00
 672 1a3d AB6C8731 		.ascii	"\253l\20715&a\314\303\011X]i\217\325g\324\374\036%\377"
 672      352661CC 
 672      C309585D 
 672      698FD567 
 672      D4FC1E25 
 673 1a52 1ADB9CAE 		.ascii	"\032\333\234\2565\341\324\235\200\323\325\374\001\327"
 673      35E1D49D 
 673      80D3D5FC 
 673      01D7
 674 1a60 9B6A5EE6 		.ascii	"\233j^\346\375\364\372\025;\377J\373\360\365\330\207"
 674      FDF4FA15 
 674      3BFF4AFB 
 674      F0F5D887 
 675 1a70 7FF0EB84 		.ascii	"\177\360\353\204}\270\006\206\260\260Q\337\203\237\244"
 675      7DB80686 
ARM GAS  /tmp/ccRIKfpM.s 			page 54


 675      B0B051DF 
 675      839FA4
 676 1a7f 6FA46FE4 		.ascii	"o\244o\344\352\301\033wk\337O\\\202\034lL\272\023\257"
 676      EAC11B77 
 676      6BDF4F5C 
 676      821C6C4C 
 676      BA13AF
 677 1a92 181BFDAF 		.ascii	"\030\033\375\257\006\210\270\361\035\263\215Iw\341\225"
 677      0688B8F1 
 677      1DB38D49 
 677      77E195
 678 1aa1 63993F7E 		.ascii	"c\231?~X\241\347\314\336\233\030\221%,\330j\0360\313"
 678      58A1E7CC 
 678      DE9B1891 
 678      252CD86A 
 678      1E30CB
 679 1ab4 F7FA980F 		.ascii	"\367\372\230\017\253\003\030\301a\203\335\214\015\363"
 679      AB0318C1 
 679      6183DD8C 
 679      0DF3
 680 1ac2 73A45B90 		.ascii	"s\244[\220n\343i\244\353\370\355\311pj\347\326\232\372"
 680      6EE369A4 
 680      EBF8EDC9 
 680      706AE7D6 
 680      9AFA
 681 1ad4 A235385B 		.ascii	"\24258[\267\023\015\252\274\215\315\231\035\277\370"
 681      B7130DAA 
 681      BC8DCD99 
 681      1DBFF8
 682 1ae3 8587286D 		.ascii	"\205\207(m\267\336\252n\315B\253\332\315eU\023O\237"
 682      B7DEAA6E 
 682      CD42ABDA 
 682      CD655513 
 682      4F9F
 683 1af5 75D8FC97 		.ascii	"u\330\374\227\325\375\247/\264\242Ma\257\007\377hU\307"
 683      D5FDA72F 
 683      B4A24D61 
 683      AF07FF68 
 683      55C7
 684 1b07 39E773B5 		.ascii	"9\347s\265\003\036\335s\265\361\364\271\032\271\236"
 684      031EDD73 
 684      B5F1F4B9 
 684      1AB99E
 685 1b16 F8B9DADE 		.ascii	"\370\271\332\3366\361\317\325\216\2671|\256v\246\215"
 685      36F1CFD5 
 685      8EB7317C 
 685      AE76A68D 
 686 1b26 FDE76A31 		.ascii	"\375\347j1\346\374\342\227h&\007=\326\317\325v\333\010"
 686      E6FCE297 
 686      6826073D 
 686      D6CFD576 
 686      DB08
 687 1b38 32352A20 		.ascii	"25* \2260R\334{f\270\274\344M;J\250o\255l1\201J\270"
 687      963052DC 
 687      7B66B8BC 
 687      E44D3B4A 
 687      A86FAD6C 
ARM GAS  /tmp/ccRIKfpM.s 			page 55


 688 1b50 9C9C12EA 		.ascii	"\234\234\022\352\364JP\376\363\261\216K\011\362\003"
 688      F44A50FE 
 688      F3B18E4B 
 688      09F203
 689 1b5f F14A78F7 		.ascii	"\361Jx\367\001C%L\177\300\276\022\352\030%\234B%\234"
 689      0143254C 
 689      7FC0BE12 
 689      EA18259C 
 689      42259C
 690 1b72 36518224 		.ascii	"6Q\202$,z@\264\251\004\315[\177\240\204\375\243\222"
 690      2C7A40B4 
 690      A904CD5B 
 690      7FA084FD 
 690      A392
 691 1b84 50C24DE5 		.ascii	"P\302M\345\2177\317\243\022\226?\220\224\022.\352\225"
 691      8F37CFA3 
 691      12963F90 
 691      94122EEA 
 691      95
 692 1b95 70882AE1 		.ascii	"p\210*\341\"\227\0226\033(\241\326X\011'\223P\302EF"
 692      22971236 
 692      1B28A1D6 
 692      58092793 
 692      50C24546 
 693 1ba9 093FA012 		.ascii	"\011?\240\022~4U\302%\333J\320\274-IZ\302(\361\324\207"
 693      7E3455C2 
 693      25DB4AD0 
 693      BC2D495A 
 693      C228F1D4 
 694 1bbe E5B2F13F 		.ascii	"\345\262\361?\342TY\255\333V\036\225\325\2374\3743M"
 694      E25459AD 
 694      DB561E95 
 694      D59F34FC 
 694      334D
 695 1bd0 59B778FB 		.ascii	"Y\267x\373\272\307p\023\031\355m\344\306\233z\357z\210"
 695      BAC77013 
 695      19ED6DE4 
 695      C69B7AEF 
 695      7A88
 696 1be2 EE487593 		.ascii	"\356Hu\223\313\273\236<\361\213\376N\263\311\243[\334"
 696      CBBB9E3C 
 696      F18BFE4E 
 696      B3C9A35B 
 696      DC
 697 1bf3 B6C3C3FF 		.ascii	"\266\303\303\377w\2327\247\341C\303\333\0362\342\277"
 697      779A37A7 
 697      E143C3DB 
 697      1E32E2BF 
 698 1c03 A6B34CDD 		.ascii	"\246\263L\335\020\210\024d\306D\231\327\374\241\241"
 698      10881464 
 698      C64499D7 
 698      FCA1A1
 699 1c12 EE374918 		.ascii	"\3567I\030\362\240\250\010-\271\240\244\361\204\032"
 699      F2A0A808 
 699      2DB9A0A4 
 699      F1841A
 700 1c21 E450BE47 		.ascii	"\344P\276G\333\306K\323\340)\333QQ\260\211<`\026\243"
ARM GAS  /tmp/ccRIKfpM.s 			page 56


 700      DBC64BD3 
 700      E029DB51 
 700      51B0893C 
 700      6016A3
 701 1c34 F74927F5 		.ascii	"\367I'\365\203G~U\216\366\032\2502\372\345\274\304\267"
 701      83477E55 
 701      8EF61AA8 
 701      32FAE5BC 
 701      C4B7
 702 1c46 105151ED 		.ascii	"\020QQ\355\264\231\250\332w\274\370/%\017Z\252\226\024"
 702      B499A8DA 
 702      77BCF82F 
 702      250F5AAA 
 702      9614
 703 1c58 6CC65485 		.ascii	"l\306T\205\205j+\364\252]`[zZU\314:\371\213\332\302"
 703      856A2BF4 
 703      AA5D605B 
 703      7A5A55CC 
 703      3AF98BDA 
 704 1c6d 040B0172 		.ascii	"\004\013\001r\257\"\213\354\237v\017\221\334d/N&\350"
 704      AF228BEC 
 704      9F760F91 
 704      DC642F4E 
 704      26E8
 705 1c7f 24F76F5B 		.ascii	"$\367o[\374\254\024\276\206\252m<\252m\275\265\332&"
 705      FCAC14BE 
 705      86AA6D3C 
 705      AA6DBDB5 
 705      DA26
 706 1c91 58A86DBA 		.ascii	"X\250m\272\205\332\246\353\325\266\215Gm\026\343\347"
 706      85DAA6EB 
 706      D5B68D47 
 706      6D16E3E7 
 707 1ca1 1ACDB628 		.ascii	"\032\315\266(~\3613\014:\355\340i\315\240vV\334\260"
 707      7EF1330C 
 707      3AEDE069 
 707      CDA07656 
 707      DCB0
 708 1cb3 E3A67570 		.ascii	"\343\246upo17t\230\005\333\252\347,!\230\366]\375K,"
 708      6F313774 
 708      9805DBAA 
 708      E72C2198 
 708      F65DFD4B 
 709 1cc8 D876DB60 		.ascii	"\330v\333`iq\272\240\235\346\317\330i\336\302\221\305"
 709      6971BAA0 
 709      9DE6CFD8 
 709      69DEC291 
 709      C5
 710 1cd9 702FA123 		.ascii	"p/\241#\220\216B:\016\351L\244\263\220V!\235\355\325"
 710      908E423A 
 710      0EE94CA4 
 710      B3905621 
 710      9DEDD5
 711 1cec 3C5DDF1B 		.ascii	"<]\337\033g\252\264\003bJ\213\365T\302/-\317\314\360"
 711      67AAB403 
 711      624A8BF5 
 711      54C22F2D 
ARM GAS  /tmp/ccRIKfpM.s 			page 57


 711      CFCCF0
 712 1cff 1A3D71DB 		.ascii	"\032=q\333\222\354N\3325\037?}\311\241<U\376\021\327"
 712      92EC4EDA 
 712      351F3F7D 
 712      C9A13C55 
 712      FE11D7
 713 1d12 9EDC7673 		.ascii	"\236\334vs\000Z\270\347\006\030\312(\200t\204|\354A"
 713      005AB8E7 
 713      0618CA28 
 713      8074847C 
 713      EC41
 714 1d24 D126A096 		.ascii	"\321&\240\226\303[1\016\311\026C\0205898\264hK\023\276"
 714      C35B310E 
 714      C9164310 
 714      35383938 
 714      B4684B13 
 715 1d39 569E7150 		.ascii	"V\236qP\270\233\266\341\030\376\206\225Ef|}\326\201"
 715      B89BB6E1 
 715      18FE8695 
 715      45667C7D 
 715      D681
 716 1d4b FF91AAFC 		.ascii	"\377\221\252\374y\263\325\316\013~\361\002nk\223x\037"
 716      79B3D5CE 
 716      0B7EF102 
 716      6E6B9378 
 716      1F
 717 1d5c 856FF452 		.ascii	"\205o\364R\343m\223F\037vx\352\027\367`S\250E\323<\206"
 717      E36D9346 
 717      1F7678EA 
 717      17F76053 
 717      A845D33C 
 718 1d71 F41CD2AB 		.ascii	"\364\034\322\253H?@C\234\213t>\322\017\221.\3401\315"
 718      483F4043 
 718      9C8B743E 
 718      D20F912E 
 718      E031CD
 719 1d84 1DF626A2 		.ascii	"\035\366&\242j\243\201\336\357\025\200O\274vg\242\026"
 719      6AA381DE 
 719      EF15804F 
 719      BC7667A2 
 719      16
 720 1d95 798D67A2 		.ascii	"y\215g\242~\227\200\325\217\275\326\254\216\374Z\335"
 720      7E9780D5 
 720      8FBDD6AC 
 720      8EFC5ADD 
 721 1da5 3222522E 		.ascii	"2\"R.\217\024\207,m\023\305z\236\265\332\330_\327\375"
 721      8F14872C 
 721      6D13C57A 
 721      9EB5DAD8 
 721      5FD7FD
 722 1db8 EE239C48 		.ascii	"\356#\234HX\202\275\332y\235\253\260\203U\363\336\236"
 722      5882BDDA 
 722      799DABB0 
 722      8355F3DE 
 722      9E
 723 1dc9 8DCAFB41 		.ascii	"\215\312\373A\325\010\326\220<XU\303\036|D\271\002\201"
 723      D508D690 
ARM GAS  /tmp/ccRIKfpM.s 			page 58


 723      3C5855C3 
 723      1E7C44B9 
 723      0281
 724 1ddb 6EC73930 		.ascii	"n\30790\237\256\253\365i-\323\347\213%\232\324\217~"
 724      9FAEABF5 
 724      692DD3E7 
 724      8B259AD4 
 724      8F7E
 725 1ded 70F26FCC 		.ascii	"p\362o\314\243T,\022PkvX\235\306\373\324\266\245\324"
 725      A3542C12 
 725      506B7658 
 725      9DC6FBD4 
 725      B6A5D4
 726 1e00 9858CA0E 		.ascii	"\230X\312\016\2257\263\214\213c\246\362\2200S\256\253"
 726      9537B38C 
 726      8B63A6F2 
 726      903053AE 
 726      AB
 727 1e11 A8ABBE71 		.ascii	"\250\253\276q\263\365\344\262\252m\362%\022}\320\267"
 727      B3F5E4B2 
 727      AA6DF225 
 727      127DD0B7 
 728 1e21 DD24A1E2 		.ascii	"\335$\241\342!\255t\325\272\256\361J\354\005\202\021"
 728      21AD74D5 
 728      BAAEF14A 
 728      EC058211 
 729 1e31 B954D770 		.ascii	"\271T\327p\343B\253\217\311\232u\371v\323\333C\206\212"
 729      E342AB8F 
 729      C99A75F9 
 729      76D3DB43 
 729      868A
 730 1e43 BA20CC69 		.ascii	"\272 \314i^\221u^\363U\217\274\257\211\254\273\255\316"
 730      5E91755E 
 730      F3558FBC 
 730      AF89ACBB 
 730      ADCE
 731 1e55 5C44BC38 		.ascii	"\\D\2748\361\225f8\361e\375\227'\233\275\272a\331r\272"
 731      F1956638 
 731      F165FD97 
 731      279BBDBA 
 731      61D972BA 
 732 1e69 F111B9CE 		.ascii	"\361\021\271\316\361\216\310\226O\270_\016\326m\307"
 732      F18EC896 
 732      4FB85F0E 
 732      D66DC7
 733 1e78 3E2DCDF8 		.ascii	">-\315\370\345`\315m~q\233\227\270\366\355z.\307+\253"
 733      E560CD6D 
 733      7E719B97 
 733      B8F6ED7A 
 733      2EC72BAB 
 734 1e8c 8EB9B89C 		.ascii	"\216\271\270\234\270Ey\204}\022_L\244\257\303\222\254"
 734      B8457984 
 734      7D125F4C 
 734      A4AFC392 
 734      AC
 735 1e9d 490DADE8 		.ascii	"I\015\255\350*4\372\356\251\372\322\251\035\2604#\260"
 735      2A34FAEE 
ARM GAS  /tmp/ccRIKfpM.s 			page 59


 735      A9FAD2A9 
 735      1DB03423 
 735      B0
 736 1eae 1F10ECB2 		.ascii	"\037\020\354\262\213\003,\321\353\236\352\373\227\215"
 736      8B032CD1 
 736      EB9EEAFB 
 736      978D
 737 1ebc B6C1D274 		.ascii	"\266\301\322t\342\213\005A;\261\377\330\205\364\013"
 737      E28B0541 
 737      3BB1FFD8 
 737      85F40B
 738 1ecb A4BB79FA 		.ascii	"\244\273y\372\222-\336\270W\2506\333\027\273\321\207"
 738      922DDEB8 
 738      57A836DB 
 738      17BBD187 
 739 1edb 355C08A5 		.ascii	"5\\\010\245\275\244;\374\234\207\245\0151\226\242\003"
 739      BDA43BFC 
 739      9C87A50D 
 739      3196A203 
 740 1eeb A013DA3D 		.ascii	"\240\023\332=\306%\241Z\327\222\036\025>\220\345q\330"
 740      C625A15A 
 740      D7921E15 
 740      3E90E571 
 740      D8
 741 1efc DCCF1319 		.ascii	"\334\317\023\031S\030IX\213\367\255\365>dX\234R\030"
 741      53184958 
 741      8BF7ADF5 
 741      3E64589C 
 741      5218
 742 1f0e CD2C4FDE 		.ascii	"\315,O\336\222Z!\322\262$!\222 \243\302\321o\205y\244"
 742      925A21D2 
 742      B2242192 
 742      20A3C2D1 
 742      6F8579A4 
 743 1f22 7D1CFAA6 		.ascii	"}\034\372\246\367\213\312\264\224y&\245~\265\206\216"
 743      F78BCAB4 
 743      947926A5 
 743      7EB5868E 
 744 1f32 6ACAFC31 		.ascii	"j\312\3741\013\305S\313\252\250\247\322\373)\213\301"
 744      0BC553CB 
 744      AAA8A7D2 
 744      FB298BC1 
 745 1f42 E221C54F 		.ascii	"\342!\305O\305Ff\222\260+M\357#\221O\350s\027\310\016"
 745      C5466692 
 745      B02B4DEF 
 745      23914FE8 
 745      7317C80E 
 746 1f56 44C3955F 		.ascii	"D\303\225_\300\247Fa\207\0158\253\213\314zgL\353\221"
 746      C0A74661 
 746      870D38AB 
 746      8BCC7A67 
 746      4CEB91
 747 1f69 5543234D 		.ascii	"UC#MM\317\011\361/\354\313<\233\251\325\354\376\344"
 747      4DCF09F1 
 747      2FECCB3C 
 747      9BA9D5EC 
 747      FEE4
ARM GAS  /tmp/ccRIKfpM.s 			page 60


 748 1f7b F7B808F3 		.ascii	"\367\270\010\363\030v\220'\322\014zZ.\240\206=3\322"
 748      18769027 
 748      D20C7A5A 
 748      2EA0863D 
 748      33D2
 749 1f8d 11E82402 		.ascii	"\021\350$\002}\233\246\357i\005]O+h{@\370*G"
 749      7D9BA6EF 
 749      69055D4F 
 749      2B687B40 
 749      F82A47
 750 1fa0 3BBEB795 		.ascii	";\276\267\225+o\013I\3451S\310Q\375\350\375\006\006"
 750      2B6F0B49 
 750      E53153C8 
 750      51FDE8FD 
 750      0606
 751 1fb2 A2CCB859 		.ascii	"\242\314\270Y\022~02\337\012b\004c\305\313dRPT\377&"
 751      127E3032 
 751      DF0A6204 
 751      63C5CB64 
 751      525054FF 
 752 1fc7 6AD8C3E4 		.ascii	"j\330\303\344\316\257L\355\360\006\335=L\321\357\322"
 752      CEAF4CED 
 752      F006DD3D 
 752      4CD1EFD2 
 753 1fd7 63BD5B51 		.ascii	"c\275[Q)\013\332\\\272\211X\374\371\353xu\327]\212\354"
 753      290BDA5C 
 753      BA8958FC 
 753      F9EB7875 
 753      D75D8AEC 
 754 1feb 2FDF09AE 		.ascii	"/\337\011\256X\376\271\251\251\314+\360\233\341Y\003"
 754      58FEB9A9 
 754      A9CC2BF0 
 754      9BE15903 
 755 1ffb 337CE761 		.ascii	"3|\347aC"
 755      43
 756 2000 3394B566 		.ascii	"3\224\265fxFo\206\347\342\371\252\242f(\243\031n\200"
 756      78466F86 
 756      E7E2F9AA 
 756      A26628A3 
 756      196E80
 757 2013 1E48C718 		.ascii	"\036H\307\030\251\261\031g\337s\350c\342\303F\372\220"
 757      A9B11967 
 757      DF73E863 
 757      E2C346FA 
 757      90
 758 2024 9B725F54 		.ascii	"\233r_To\377\026{\271\013\\z\220uz\270`\255\207\037"
 758      6FFF167B 
 758      B90B5C7A 
 758      90757AB8 
 758      60AD871F 
 759 2038 0CEB7B75 		.ascii	"\014\353{uGj\305\220\272\246\246\207lT\365\262\201\022"
 759      476AC590 
 759      BAA6A687 
 759      6C54F5B2 
 759      8112
 760 204a E69A2961 		.ascii	"\346\232)a1*A\345\361'k\036\353\015y\2342Z\265\025\207"
 760      312A41E5 
ARM GAS  /tmp/ccRIKfpM.s 			page 61


 760      F1276B1E 
 760      EB0D799C 
 760      325AB515 
 761 205f 0D53B99A 		.ascii	"\015S\271\2328\262Jc\374\200\034\375\357\3547\205\330"
 761      38B24A63 
 761      FC801CFD 
 761      EFEC3785 
 761      D8
 762 2070 3AB31BF5 		.ascii	":\263\033\365\215\312\266z\3271\264Z\364\260ahe\016"
 762      8DCAB67A 
 762      D731B45A 
 762      F4B06168 
 762      650E
 763 2082 24096B30 		.ascii	"$\011k0\313\317\372\300\3458Y\027\3703G\330\"G~:\347"
 763      CBCFFAC0 
 763      E5385917 
 763      F83347D8 
 763      22477E3A 
 764 2097 C5F51664 		.ascii	"\305\365\026d-\245$\354\210\342\031FJ\211\302\0269r"
 764      2DA524EC 
 764      88E21946 
 764      4A89C216 
 764      3972
 765 20a9 D9A57D23 		.ascii	"\331\245}#\200\031\304\305\357\231>\324g74/\363\031"
 765      8019C4C5 
 765      EF993ED4 
 765      6737342F 
 765      F319
 766 20bb 87E6F745 		.ascii	"\207\346\367E\233\301\036}\015\264\305\032\015\323\265"
 766      9BC11E7D 
 766      0DB4C51A 
 766      0DD3B5
 767 20ca 35B8E222 		.ascii	"5\270\342\"\033X\021\326$\3410\027\230\305\177\034]"
 767      1B5811D6 
 767      24E13017 
 767      98C57F1C 
 767      5D
 768 20db 45302ADB 		.ascii	"E0*\333\323\\\262}\336\034\354\032\003v\201\013\314"
 768      D35CB27D 
 768      DE1CEC1A 
 768      0376810B 
 768      CC
 769 20ec E87F6B8D 		.ascii	"\350\177k\215>\254\011\371\305\333\030\3504a\0046\304"
 769      3EAC09F9 
 769      C5DB18E8 
 769      34610436 
 769      C4
 770 20fd 87135348 		.ascii	"\207\023SHG \035\345\343\010\200\256y\215\337\232\222"
 770      47201DE5 
 770      E30880AE 
 770      798DDF9A 
 770      92
 771 210e 842B466E 		.ascii	"\204+Fnj\034\3516v\211\247\225n\343\032\306=\267\360"
 771      6A1CE936 
 771      7689A795 
 771      6EE31AC6 
 771      3DB7F0
ARM GAS  /tmp/ccRIKfpM.s 			page 62


 772 2121 CE065377 		.ascii	"\316\006Sw\245\224\241\270\202w\345\341-\305\250Cn\320"
 772      A594A1B8 
 772      8277E5E1 
 772      2DC5A843 
 772      6ED0
 773 2133 3BE4D13E 		.ascii	";\344\321>\243\306\177h\264\352\220\237S\\\217$\014"
 773      A3C67F68 
 773      B4EA909F 
 773      535C8F24 
 773      0C
 774 2144 7984CBD9 		.ascii	"y\204\313\331\214\365Y:\233\012\203\362NEn\356\334a"
 774      8CF5593A 
 774      9B0A83F2 
 774      4E456EEE 
 774      DC61
 775 2156 E66C2C86 		.ascii	"\346l,\206q\343}z\227\350\027_\225\214\231\\\266\200"
 775      71E37D7A 
 775      97E8175F 
 775      958C995C 
 775      B680
 776 2168 048E4A14 		.ascii	"\004\216J\0247\316g\031\305\275\252a\3615\3211\331\251"
 776      37CE6719 
 776      C5BDAA61 
 776      F135D131 
 776      D9A9
 777 217a 8E5B1B6E 		.ascii	"\216[\033nl.\235\"o\032\006Q\303\33368\235\354\323\365"
 777      6C2E9D22 
 777      6F1A0651 
 777      C3DB3638 
 777      9DECD3F5 
 778 218e 532436D5 		.ascii	"S$6\325G\300\312w\336\001\350\232ecv\210CF\310\262\344"
 778      47C0CA77 
 778      DE01E89A 
 778      65637688 
 778      4346C8B2 
 779 21a3 17A7F988 		.ascii	"\027\247\371\210\237\214<bs\010\252L\350/\275(\202["
 779      9F8C3C62 
 779      7308AA4C 
 779      E82FBD28 
 779      825B
 780 21b5 9C8918DB 		.ascii	"\234\211\030\333\036\321\207]\335t\023\264\335t\177"
 780      1ED1875D 
 780      DD7413B4 
 780      DD747F
 781 21c4 E1757245 		.ascii	"\341urE\252\\\341\305\353\222\360\365#\332y\012&_\367"
 781      AA5CE1C5 
 781      EB92F0F5 
 781      23DA790A 
 781      265FF7
 782 21d7 874D7EE8 		.ascii	"\207M~\350\026ka\263}\217\305\337\251k(\027\343\354"
 782      166B61B3 
 782      7D8FC5DF 
 782      A96B2817 
 782      E3EC
 783 21e9 90DEF481 		.ascii	"\220\336\364\201O\257\266\312\250\332\276\375.\"\232"
 783      4FAFB6CA 
 783      A8DABEFD 
ARM GAS  /tmp/ccRIKfpM.s 			page 63


 783      2E229A
 784 21f8 A9CDAAD3 		.ascii	"\251\315\252\323\235\257\327\033Y\206\035\375\242\354"
 784      9DAFD71B 
 784      59861DFD 
 784      A2EC
 785 2206 2C17FDFE 		.ascii	",\027\375\376\221n\237\016\345\355\010\035\377\215&"
 785      916E9F0E 
 785      E5ED081D 
 785      FF8D26
 786 2215 FC7F1CDF 		.ascii	"\374\177\034\3372\320\340v&cp\213\364\214\023^M7\020"
 786      32D0E076 
 786      2663708B 
 786      F48C135E 
 786      4D3710
 787 2228 891B828D 		.ascii	"\211\033\202\215\371\2151\217K\015y\374\374Lr\322\255"
 787      F98D318F 
 787      4B0D79FC 
 787      FC4C72D2 
 787      AD
 788 2239 D6333992 		.ascii	"\32639\222}\2308['Mey\246^\372:\351N6\341|\225!\347"
 788      7D98385B 
 788      274D6579 
 788      A65EFA3A 
 788      E94E36E1 
 789 2251 1B162E6B 		.ascii	"\033\026.k-\3176\030\377\320u\226f\214\257\3263N4\257"
 789      2DCF3618 
 789      FFD07596 
 789      668CAFD6 
 789      334E34AF 
 790 2265 63648E09 		.ascii	"cd\216\011#k\015\031i\274z\356\271\312e\3620\273#\304"
 790      236B0D19 
 790      69BC7AEE 
 790      B9CA65F2 
 790      30BB23C4 
 791 2279 F57A4E6E 		.ascii	"\365zNn\273\342\002\340\245&\234D\0149Y\337\260]\034"
 791      BBE202E0 
 791      A5269C44 
 791      0C3959DF 
 791      B05D1C
 792 228c 69EC8AAD 		.ascii	"i\354\212\255t\271\311H$\321/\313\270Z\306Z\023F\267"
 792      74B9C948 
 792      24D12FCB 
 792      B85AC65A 
 792      1346B7
 793 229f 1832BAEA 		.ascii	"\0302\272\352\314\351^fVg!\261mzF\367\305Z\206\335?"
 793      CCE95E66 
 793      566721B1 
 793      6D7A46F7 
 793      C55A86DD 
 794 22b4 FD013F8E 		.ascii	"\375\001?\216\217\0026j\236Y%\271\022o\247\217m\204"
 794      8F02366A 
 794      9E5925B9 
 794      126FA78F 
 794      6D84
 795 22c6 3AD1EC32 		.ascii	":\321\3542\021\315\027\206\242Yv\343h\353d\032\344\036"
 795      11CD1786 
 795      A25976E3 
ARM GAS  /tmp/ccRIKfpM.s 			page 64


 795      68EB641A 
 795      E41E
 796 22d8 BD6CE216 		.ascii	"\275l\342\026jH\302\001\023N\366\032rrs\375\230\243"
 796      6A48C201 
 796      134EF61A 
 796      727273FD 
 796      98A3
 797 22ea E2A24FCA 		.ascii	"\342\242O\312#d\274\363\366Ct,)\011gM@\366\033\202|"
 797      2364BCF3 
 797      F643742C 
 797      2909674D 
 797      40F61B82 
 798 22ff B961CC6E 		.ascii	"\271a\314n\261\354\003=\310\374G\215A\2764\004\251\375"
 798      B1EC033D 
 798      C8FC478D 
 798      41BE3404 
 798      A9FD
 799 2311 7ACC35F1 		.ascii	"z\3145\361}f\312\231\202|m\002r\310\020d\330\205m\311"
 799      7D66CA99 
 799      827C6D02 
 799      72C81064 
 799      D8856DC9 
 800 2325 348E2346 		.ascii	"4\216#F\216N'\327\013&\214\0345b$\262o\313\030Y\264"
 800      8E4E27D7 
 800      0B268C1C 
 800      356224B2 
 800      6FCB1859 
 801 233a 3D863C6E 		.ascii	"=\206<n\351p\365\335\231\262\232#\372\235xD!\3162\257"
 801      E970F5DD 
 801      99B29A23 
 801      FA9D7844 
 801      21CE32AF 
 802 234e 99F07DDA 		.ascii	"\231\360}\332\314\036\2161\366\300\337l\277\321\263"
 802      CC1E8E31 
 802      F6C0DF6C 
 802      BFD1B3
 803 235d 4EB8D1B1 		.ascii	"N\270\321\2612\3741cV\2763\024\341\352\2251GG\361%a"
 803      32FC3163 
 803      56BE3314 
 803      E1EA9531 
 803      4747F125 
 804 2372 8209C259 		.ascii	"\202\011\302Y\223fv\363\376h3\243c_I\2502\2018o\342"
 804      936676F3 
 804      FE6833A3 
 804      635F49A8 
 804      3281386F 
 805 2387 F7373E3B 		.ascii	"\3677>;\303\314\357\223\015\217Lg>\364\362x\316\242"
 805      C3CCEF93 
 805      0D8F4C67 
 805      3EF4F278 
 805      CEA2
 806 2399 7F9FE860 		.ascii	"\177\237\350`\277\353\226h\220G/V\301\341V\\\355\361"
 806      BFEB9668 
 806      90472F56 
 806      C1E1565C 
 806      EDF1
 807 23ab 938F0C3D 		.ascii	"\223\217\014=>}L\037\035^qiB\207\270\355\007u,\012q"
ARM GAS  /tmp/ccRIKfpM.s 			page 65


 807      3E7D4C1F 
 807      1D5E7169 
 807      4287B8ED 
 807      07752C0A 
 808 23c0 F6B3D244 		.ascii	"\366\263\322D^\015Zy=\"\314\226#\265d8\364\366\"\362"
 808      5E0D5A79 
 808      3D22CC96 
 808      23B56438 
 808      F4F622F2 
 809 23d4 7791E43F 		.ascii	"w\221\344?\307\305&\030w\314\301Mn\307{\324\270\337"
 809      C7C52618 
 809      77CCC14D 
 809      6EC77BD4 
 809      B8DF
 810 23e6 70D82728 		.ascii	"p\330'(\267h\300\"\267f\373`\320\201\376\000\302/\221"
 810      B768C022 
 810      B766FB60 
 810      D081FE00 
 810      C22F91
 811 23f9 C4AFDBA3 		.ascii	"\304\257\333\243\334\230\342\\\363ip\352\310\242\372"
 811      DC98E25C 
 811      F36970EA 
 811      C8A2FA
 812 2408 FABF0153 		.ascii	"\372\277\001S\303bL\321Mcw\351\301t[\304\342\334\222"
 812      C3624CD1 
 812      4D6377E9 
 812      C1745BC4 
 812      E2DC92
 813 241b 4F8AAFE2 		.ascii	"O\212\257\342Hq6\231\362\033\"\313\000\367\234\372z"
 813      48713699 
 813      F21B22CB 
 813      00F79CFA 
 813      7A
 814 242c 646D1C5C 		.ascii	"dm\034\\\334\304\301\317:\336j#\343\267\244\304\352"
 814      DCC4C1CF 
 814      3ADE6A23 
 814      E3B7A4C4 
 814      EA
 815 243d 48DFDBFB 		.ascii	"H\337\333\373J\217c\360\226\336\3558\240\211[\336\025"
 815      4A8F63F0 
 815      96DEED38 
 815      A0895BDE 
 815      15
 816 244e 61482883 		.ascii	"aH(\203\2416\301\315\325(\256\2728(\207\012\325QA\222"
 816      A136C1CD 
 816      D528AEBA 
 816      3828870A 
 816      D5514192 
 817 2462 53F4629F 		.ascii	"S\364b\237\261e\022\213D_D\370N\217\244\351hqRD\001"
 817      B165128B 
 817      445F44F8 
 817      4E8FA4E9 
 817      68715244 
 818 2477 EA2854CB 		.ascii	"\352(T\313##\317\323\214\264\267%wz@W\303<J\307K.8\350"
 818      2323CFD3 
 818      8CB4B725 
 818      777A4057 
ARM GAS  /tmp/ccRIKfpM.s 			page 66


 818      C33C4AC7 
 819 248f 586F8BF6 		.ascii	"Xo\213\366\3536\366kT\203\267\326\354\177O\\:O\216\304"
 819      EB36F66B 
 819      5483B7D6 
 819      EC7F4F5C 
 819      3A4F8EC4 
 820 24a3 644E97B3 		.ascii	"dN\227\263_\324\263\025\277-\301p}\005\211\006_\257"
 820      5FD4B315 
 820      BF2DC170 
 820      7D058906 
 820      5FAF
 821 24b5 84FA2D95 		.ascii	"\204\372-\225U0\362\254\025\206\370q\012\214\177*;B"
 821      5530F2AC 
 821      1586F871 
 821      0A8C7F2A 
 821      3B42
 822 24c7 8B26EFAB 		.ascii	"\213&\357\253k\370qL\353Y\313X\223\247\257\226\216\374"
 822      6BF8714C 
 822      EB59CB58 
 822      93A7AF96 
 822      8EFC
 823 24d9 AD0E2DCE 		.ascii	"\255\016-\316G\214R\260\376G\270!W\312\362D\221\353"
 823      478C52B0 
 823      FE47B821 
 823      57CAF244 
 823      91EB
 824 24eb C5678F0A 		.ascii	"\305g\217\012\323_\201\031\223bw6\352\335\024\343\331"
 824      D35F8119 
 824      93627736 
 824      EADD14E3 
 824      D9
 825 24fc A812A566 		.ascii	"\250\022\245ff\371F\247D\235\311\203\302\224\337\316"
 825      66F946A7 
 825      449DC983 
 825      C294DFCE 
 826 250c 902B9F8F 		.ascii	"\220+\237\217\025/$\271\342\256\"E\343)S\205\321\254"
 826      152F24B9 
 826      E2AE2245 
 826      E3295385 
 826      D1AC
 827 251e F7EB66BE 		.ascii	"\367\353f\276\303\315\270\224TA\3671\273ul\212\361Z"
 827      C3CDB894 
 827      5441F731 
 827      BB756C8A 
 827      F15A
 828 2530 083A3237 		.ascii	"\010:27\235\2770\315E\346\013\314rM0\311\305/\221I)"
 828      9DBF30CD 
 828      45E60BCC 
 828      724D30C9 
 828      C52F9149 
 829 2545 BABE83D4 		.ascii	"\272\276\203\324\224k\367\310\211\246\034\317\267\340"
 829      946BF7C8 
 829      89A61CCF 
 829      B7E0
 830 2553 B8D234D7 		.ascii	"\270\3224\327\"\213\\SLs\2219H\263\\SMsU[\2245\3154"
 830      228B5C53 
 830      4C739139 
ARM GAS  /tmp/ccRIKfpM.s 			page 67


 830      48B35C53 
 830      4D73555B 
 831 256b D759AB05 		.ascii	"\327Y\253\005\214\246\271\366X\2245\3034\3276\213\\"
 831      8CA6B9F6 
 831      589435C3 
 831      34D7368B 
 831      5C
 832 257c 334D73AD 		.ascii	"3Ms\255\263\340p\226i\256\365\026eU\231\346\332d\221"
 832      B3E07096 
 832      69AEF516 
 832      655599E6 
 832      DA6491
 833 258f 6BB669AE 		.ascii	"k\266i\256\325\026\271\346\230\346:dQ\257\017Ls\035"
 833      D516B9E6 
 833      98E63A64 
 833      51AF0F4C 
 833      731D
 834 25a1 B5C835D7 		.ascii	"\265\3105\3274\327\021\013\016\347\305r\231M\340;\325"
 834      34D7110B 
 834      0EE7C572 
 834      994DE03B 
 834      D5
 835 25b2 3C2F2A79 		.ascii	"</*y\346\333v\231\037\232\270\314\356\306\014\223.\300"
 835      E6DB7699 
 835      1F9AB8CC 
 835      EEC60C93 
 835      2EC0
 836 25c4 0C6A8179 		.ascii	"\014j\201y#M1o8\013Ms\035\267\020\316G\261\\\352x\371"
 836      234D316F 
 836      380B4D73 
 836      1DB710CE 
 836      47B15CEA 
 837 25da F905D6F3 		.ascii	"\371\005\326\363\226\32576\267^\215\013\275>N!]\354"
 837      96D53736 
 837      B75E8D0B 
 837      BD3E4E21 
 837      5DEC
 838 25ec E8FF653C 		.ascii	"\350\377e<ki\212C\327\003\371\305\305)\272\247;\223"
 838      6B698A43 
 838      D703F9C5 
 838      C529BAA7 
 838      3B93
 839 25fe E9B21472 		.ascii	"\351\262\024r]0\210)\225\217\262,eZ\371\330Vr\325FQ"
 839      5D308829 
 839      958FB22C 
 839      655AF9D8 
 839      5672D546 
 840 2613 7D416F32 		.ascii	"}Ao2\262A\362*e\332\334\370aF\371\273\232\277\247\233"
 840      B241F22A 
 840      65DADCF8 
 840      6146F9BB 
 840      9ABFA79B 
 841 2627 ADC7E37D 		.ascii	"\255\307\343}\211\304\350\303V\026\242\211\0242\351"
 841      89C4E8C3 
 841      5616A289 
 841      1432E9
 842 2636 B024854C 		.ascii	"\260$\205L-,Ka\246\026t\212\373\336Bq\3774U\367\307"
ARM GAS  /tmp/ccRIKfpM.s 			page 68


 842      2D2C4B61 
 842      A616748A 
 842      FBDE4271 
 842      FF3455F7 
 843 264b 29E63DD6 		.ascii	")\346=\326r\323\\\337X\224\265\3024\327U\213\326\272"
 843      72D35CDF 
 843      5894B5C2 
 843      34D7558B 
 843      D6BA
 844 265d 32964BB8 		.ascii	"2\226K\270#\327\037\366\027\024\367\355\033\010>\321"
 844      23D71FF6 
 844      1714F7ED 
 844      1B083ED1 
 845 266d 4F488D7D 		.ascii	"OH\215}\313\016\273\273\277\364JZg!%v\255y(\267\260"
 845      CB0EBBBB 
 845      BFF44A5A 
 845      67212576 
 845      AD7928B7 
 846 2682 3027945F 		.ascii	"0'\224_XR\020\200\273=\3705;\354\302\363S\351\375\212"
 846      58521080 
 846      BB3DF835 
 846      3BECC2F3 
 846      53E9FD8A 
 847 2696 0B03E939 		.ascii	"\013\003\3519\305\271\203\323s\003\003\322s\372\345"
 847      C5B983D3 
 847      730303D2 
 847      73FAE5
 848 26a5 F7C92F0E 		.ascii	"\367\311/\016\245\207\203\245Eo\245C\242\237\277 =\277"
 848      A58783A5 
 848      456FA543 
 848      A29FBF20 
 848      3DBF
 849 26b7 28A7A034 		.ascii	"(\247\24047\220N\362\205J\362\001\304\327\253W\347."
 849      37904EF2 
 849      854AF201 
 849      C4D7AB57 
 849      E72E
 850 26c9 C1FC0181 		.ascii	"\301\374\001\201`j4\365j\257,W\366\013\305\305\005\315"
 850      606A34F5 
 850      6AAF2C57 
 850      F60BC5C5 
 850      05CD
 851 26db F243D9F9 		.ascii	"\362C\331\371E\241@0\034\310M\205tI\2608\034\310\201"
 851      45A14030 
 851      1CC84D85 
 851      7449B038 
 851      1CC881
 852 26ee 2F9E9CE2 		.ascii	"/\236\234\342\242\"H\245\344\346\207\224\344\243\351"
 852      A22248A5 
 852      E4E68794 
 852      E4A3E9
 853 26fd A5A160BA 		.ascii	"\245\241`\272?X\370\307\242\342\242\300\037\003\376"
 853      3F58F8C7 
 853      A2E2A2C0 
 853      1F03FE
 854 270c 3EF9D1E2 		.ascii	">\371\321\342B\341\334\374\2420\224\346-\205\363\223"
 854      42E1DCFC 
ARM GAS  /tmp/ccRIKfpM.s 			page 69


 854      A23094E6 
 854      2D85F393 
 855 271c 1DB2C31D 		.ascii	"\035\262\303\035-\356.\364\003\357E\201\364\354\334"
 855      2DEE2EF4 
 855      03EF4581 
 855      F4ECDC
 856 272b 409EBFB4 		.ascii	"@\236\277\264 \234\035\036\\\022\010A\356\224\354l5"
 856      209C1D1E 
 856      5C120841 
 856      EE94EC6C 
 856      35
 857 273c BF87249E 		.ascii	"\277\207$\236\311\016\373\350%H9\203\001\177\256k`0"
 857      C90EFBE8 
 857      25483983 
 857      017FAE6B 
 857      6030
 858 274e 3F1C7086 		.ascii	"?\034p\206\006\027\345\374\305\216< \235\235_\334\247"
 858      0617E5FC 
 858      C58E3C20 
 858      9D9D5FDC 
 858      A7
 859 275f A038E72D 		.ascii	"\2408\347-(\247\305\013$\321%0 ?'\320\243(\257\330\333"
 859      28A7C50B 
 859      24D12530 
 859      203F27D0 
 859      A328AFD8 
 860 2774 A7E0ADEC 		.ascii	"\247\340\255\354P\376?\002\036\222(*-\364\366\015\204"
 860      50FE3F02 
 860      1E92282A 
 860      2DF4F60D 
 860      84
 861 2785 413079C5 		.ascii	"A0y\305\216\001\205\341\024\270\030\012\373\303\201"
 861      8E0185E1 
 861      14B8180A 
 861      FBC381
 862 2794 EC70CA0B 		.ascii	"\354p\312\013=\377\226\375\312K=^\352\221\345%\311\314"
 862      3DFF96FD 
 862      CA4B3D5E 
 862      EA91E525 
 862      C9CC
 863 27a6 AC977BE3 		.ascii	"\254\227{\343\265N\235\263z\274\332\2659Iv~\371\245"
 863      B54E9DB3 
 863      7ABCDAB5 
 863      3949767E 
 863      F9A5
 864 27b8 97BAC2D7 		.ascii	"\227\272\302\327\227\272\337I\276v\351\221\031\273\342"
 864      97BADF49 
 864      BE76E991 
 864      19BBE2
 865 27c7 235732BA 		.ascii	"#W2\272v\352\362F3"
 865      76EAF246 
 865      33
 866 27d0 35055731 		.ascii	"5\005W1\375ZF\217,5\235\371\306K\235!\355\302R\0359"
 866      FD5A468F 
 866      2C359DF9 
 866      C64B9D21 
 866      EDC2521D 
ARM GAS  /tmp/ccRIKfpM.s 			page 70


 867 27e5 F9B98E9C 		.ascii	"\371\271\216\234P\2567\307_\342\317\311\017\017\356"
 867      50AE37C7 
 867      5FE2CFC9 
 867      0F0FEE
 868 27f4 C253F192 		.ascii	"\302S\361\222\342`8\224\236\231\325\353\311\016\351"
 868      E2603894 
 868      9E99D5EB 
 868      C90EE9
 869 2803 3D7B7649 		.ascii	"={vI\317\354\335c@\373t0\211\354\202\202\\b\026p\201"
 869      CFECDD63 
 869      40FB7430 
 869      89EC8282 
 869      5C621670 
 870 2818 1A43073B 		.ascii	"\032C\007;r\2446\225\002'U\"\200\243J\204$\211D\010"
 870      72A43695 
 870      02275522 
 870      80A34A84 
 870      24894408 
 871 282c 36AD25FE 		.ascii	"6\255%\376Je\223J\222\235_\356\325\273g\327\254\256"
 871      4A65934A 
 871      929D5FEE 
 871      D5BB67D7 
 871      ACAE
 872 283e 7700408E 		.ascii	"w\000@\216\277\240\240\217?\347-h\010\201\242\334\354"
 872      BFA0A08F 
 872      3FE72D68 
 872      0881A2DC 
 872      EC
 873 284f 9C3E5D93 		.ascii	"\234>]\223\251W\367\336=^\036\320!\275\004\364K+\226"
 873      A957F7DE 
 873      3D5E1ED0 
 873      21BD04F4 
 873      4B2B96
 874 2862 1A0A1782 		.ascii	"\032\012\027\202\001\365-\311/\206\226\323\353\345."
 874      01F52DC9 
 874      2F8696D3 
 874      EBE52E
 875 2871 5D33DC2F 		.ascii	"]3\334/g\275\321\273k\206\347\345\314\336]\273v\311"
 875      67BDD1BB 
 875      6B86E7E5 
 875      CCDE5DBB 
 875      76C9
 876 2883 70F57EA5 		.ascii	"p\365~\245w\227\014G\0178^\356\222!\276\2066\333\376"
 876      77970C47 
 876      0F385EEE 
 876      9221BE86 
 876      36DBFE
 877 2896 29A80BB5 		.ascii	")\250\013\2655\222t\204\002aWNA\300\037\024_t\276\220"
 877      35927484 
 877      0261574E 
 877      41C01F14 
 877      5F74BE90 
 878 28aa 9991E1EC 		.ascii	"\231\221\341\354\331\371o\031\316N\3352z\022\362\242"
 878      D9F96F19 
 878      CE4EDD32 
 878      7A12F2A2 
 879 28ba E3858C8C 		.ascii	"\343\205\214\214\224\374b\302M~.\324 \024\"I\027\234"
ARM GAS  /tmp/ccRIKfpM.s 			page 71


 879      94FC62C2 
 879      4D7E2ED4 
 879      20142249 
 879      179C
 880 28cc FCA0AC60 		.ascii	"\374\240\254`{\"\202\316\305Ey\371}\3359xz&Q\345\202"
 880      7B2282CE 
 880      C54579F9 
 880      7DDD3978 
 880      7A2651E5 
 881 28e1 E1A89073 		.ascii	"\341\250\220s\372\205\006\207\3246\341\015\367#\206"
 881      FA850687 
 881      D436E10D 
 881      F72386
 882 28f0 0F2D21A7 		.ascii	"\017-!\247_6Mw\264\207\225\323\217\310\305]\222]\024"
 882      5F364D77 
 882      B48795D3 
 882      8FC8C55D 
 882      925D14
 883 2903 18148653 		.ascii	"\030\024\206SI00\340E\016\010*\352N\031\275:\367\032"
 883      493030E0 
 883      450E082A 
 883      EA4E19BD 
 883      3AF71A
 884 2916 04771696 		.ascii	"\004w\026\226\344\027\004\202\241\364\356\235;\303\355"
 884      E4170482 
 884      A1F4EE9D 
 884      3BC3ED
 885 2925 2A7B9E70 		.ascii	"*{\236pI\220H\032q\363\213\211\337\010C1\177\266\215"
 885      4990481A 
 885      71F38B89 
 885      DF084331 
 885      7FB68D
 886 2938 DF2FA738 		.ascii	"\337/\2478H\234^3r\031\332^8'<\350\257\311\241d\017"
 886      489C5E33 
 886      7219DA5E 
 886      38273CE8 
 886      AFC9A164 
 887 294d 78BA9048 		.ascii	"x\272\220H.\030\350\013\016\210(\263\375Sp<\015\307"
 887      2E18E80B 
 887      0E8828B3 
 887      FD53703C 
 887      0DC7
 888 295f 3370FCD9 		.ascii	"3p\374\331\021\352\320\016\216\366pt\200\343I8:\302"
 888      11EAD00E 
 888      8EF67074 
 888      80E34938 
 888      3AC2
 889 2971 F12738E0 		.ascii	"\361'8\340\276\016p_\007\270\257\003\334\367$\334\367"
 889      BE0E705F 
 889      07B8AF03 
 889      DCF724DC 
 889      F7
 890 2982 647B29D8 		.ascii	"d{)\330Q\012\376I\012>%\005\237\226\202\317H\301?;\202"
 890      510AFE49 
 890      0A3E2505 
 890      9F9682CF 
 890      48C13F3B 
ARM GAS  /tmp/ccRIKfpM.s 			page 72


 891 2997 EDDBC1D1 		.ascii	"\355\333\301\321^*\010\302\351IWI6p\353!\022\036\030"
 891      5E2A08C2 
 891      E9495749 
 891      3670EB21 
 891      121E18
 892 29aa 08C2B9B8 		.ascii	"\010\302\271\270 7\020t\346\364\363\007\211\330\375"
 892      20371074 
 892      E6F4F307 
 892      89D8FD
 893 29b9 85016F58 		.ascii	"\205\001oXi/\360#\246<\341\302\342\\\372=\257\300\337"
 893      692FF023 
 893      A63CE1C2 
 893      E25CFA3D 
 893      AFC0DF
 894 29cc 37E40907 		.ascii	"7\344\011\007\003y!\224#I\270\012C}\341G\305\031\202"
 894      03792194 
 894      2349B80A 
 894      437DE147 
 894      C51982
 895 29df 135452EE 		.ascii	"\023TR\356`\356`\370\311\033\030\224\037\006\261\004"
 895      60EE60F8 
 895      C91B1894 
 895      1F06B104 
 896 29ef DC03C3C5 		.ascii	"\334\003\303\305}\376\273\244Y`@\240(\\\350\017ak\032"
 896      7DFEBBA4 
 896      596040A0 
 896      285CE80F 
 896      616B1A
 897 2a02 48128E92 		.ascii	"H\022\216\222\354\322\346\324^B\331\005\320\\\263\303"
 897      ECD2E6D4 
 897      5E42D905 
 897      D05CB3C3 
 898 2a12 2DA21644 		.ascii	"-\242\026D\257\370J\262\007\372\363\303\371E}[\250\227"
 898      AFF84AB2 
 898      07FAF3C3 
 898      F9457D5B 
 898      A897
 899 2a24 FB97064A 		.ascii	"\373\227\006J\201\253\226\314\235x)\245$\033\212\305"
 899      81AB96CC 
 899      9D7829A5 
 899      241B8AC5 
 900 2a34 A40B9370 		.ascii	"\244\013\223p!P\002\355\0262\273\012KA\345O\3322\312"
 900      215002ED 
 900      1632BB0A 
 900      4B41E54F 
 900      DA32CA
 901 2a47 C2F02062 		.ascii	"\302\360 b<\205\024\035\316\305\003\213@r\210\004U("
 901      3C85141D 
 901      CEC5038B 
 901      40728804 
 901      5528
 902 2a59 445B05FE 		.ascii	"D[\005\376\340>\302i\012\221\212\277\000-\014.\226@"
 902      E03EC269 
 902      0A918ABF 
 902      002D0C2E 
 902      9640
 903 2a6b D7F5B4AD 		.ascii	"\327\365\264\255\362\224\312@\231w)\355\011\244\034"
ARM GAS  /tmp/ccRIKfpM.s 			page 73


 903      F294CA40 
 903      997729ED 
 903      09A41C
 904 2a7a 08068A72 		.ascii	"\010\006\212r\240\266nz\351?\022!\002K\351\235{e\366"
 904      A0B66E7A 
 904      E93F1221 
 904      024BE99D 
 904      7B65F6
 905 2a8d C804FF93 		.ascii	"\310\004\377\223\216n&\257c\273\366\203\320j\211w\313"
 905      8E6E26AF 
 905      63BBF683 
 905      D06A8977 
 905      CB
 906 2a9e 8236D125 		.ascii	"\2026\321%\220\347\350\234\321\036\216\016Rf\206\004"
 906      90E7E89C 
 906      D11E8E0E 
 906      52668604 
 907 2aae DEA67346 		.ascii	"\336\246sF\347\336\031\356\214\327\341\234\341\316\302"
 907      E7DE19EE 
 907      8CD7E19C 
 907      E1CEC2
 908 2abd 93A74787 		.ascii	"\223\247G\207\314\316\335\272g\270\340\334;\303\001"
 908      CCCEDDBA 
 908      67B8E0DC 
 908      3BC301
 909 2acc CEB09B5D 		.ascii	"\316\260\233]\337\207\264[\307A\203(#\331\271\205~R"
 909      DF87B45B 
 909      C7418328 
 909      23D9B985 
 909      7E52
 910 2ade B92EBD3A 		.ascii	"\271.\275:eg\202)\371\013Un\244\316\031\316\227\272"
 910      65678229 
 910      F90B556E 
 910      A4CE19CE 
 910      97BA
 911 2af0 6465387A 		.ascii	"de8zw\312p\366jGH\373N\031\216n\300L\010ot\346\347\345"
 911      77CA70F6 
 911      6A4748FB 
 911      4E198E6E 
 911      C04C086F 
 912 2b08 04DDF9A1 		.ascii	"\004\335\371\241~\371ya_(P\220\227_\224\033\030\344"
 912      7EF97961 
 912      5F285090 
 912      975F941B 
 912      18E4
 913 2b1a 1E005D7E 		.ascii	"\036\000]~q\360\256(z6\275\033|*|\011\016\"4<\310\027"
 913      71F0AE28 
 913      7A36BD1B 
 913      7C2A7C09 
 913      0E22343C 
 914 2b30 1C046762 		.ascii	"\034\004gb\311\276\260\232rBuJ\\\005\241\234\274\276"
 914      C9BEB09A 
 914      7242754A 
 914      5C05A19C 
 914      BCBE
 915 2b42 AE7E8492 		.ascii	"\256~\204\222\010\204\372\302\026\330\001g\373ss\203"
 915      0884FAC2 
ARM GAS  /tmp/ccRIKfpM.s 			page 74


 915      16D80167 
 915      FB737383 
 916 2b52 81502810 		.ascii	"\201P(\020rB\230\222K\356\317Mh=D\366y\376p^(=\024\314"
 916      72429892 
 916      4BEECF4D 
 916      683D44F6 
 916      79FE705E 
 917 2b6a 49CFCB83 		.ascii	"I\317\313\203\312\272\272u\312\352\226\231\320\261j"
 917      CABABA75 
 917      CAEA9699 
 917      D0B16A
 918 2b79 73423B0A 		.ascii	"sB;\012\320X\314\371\302\033Y]=\244\315\201\240\034"
 918      D058CCF9 
 918      C21B595D 
 918      3DA4CD81 
 918      A01C
 919 2b8b B9C101AE 		.ascii	"\271\301\001\256\034\022\002\270\213\262\341\356\220"
 919      1C1202B8 
 919      8BB2E1EE 
 919      90
 920 2b98 6B206996 		.ascii	"k i\226\336\274P>\266O\347k/gt\221\362s}E\331\301\342"
 920      DEBC503E 
 920      B64FE76B 
 920      2F677491 
 920      F2737D45 
 921 2baf 62887682 		.ascii	"b\210v\202\256.\344RJ\201\037Z\026X\031\330h^0\020\240"
 921      AE2EE452 
 921      4A811F5A 
 921      165819D8 
 921      685E3010 
 922 2bc4 492F6240 		.ascii	"I/b@\213t\345aT1\240\030z\272P\300\003\027\361\014\331"
 922      8B74E561 
 922      5431A018 
 922      7ABA50C0 
 922      0317F10C 
 923 2bd9 C9D94B22 		.ascii	"\311\331K\"?\2740\220\004a9a\007\234=y\340f\301\377"
 923      3FBC3090 
 923      04613961 
 923      079C3D79 
 923      E066C1FF 
 924 2bed 7B413619 		.ascii	"{A6\031`\225\203\201E<;B\2719\036\210\023{\373\303\375"
 924      60958381 
 924      453C3B42 
 924      B9391E88 
 924      137BFBC3 
 925 2c02 527349D7 		.ascii	"RsI\327\335\253\270\024j\223\353.\302,\177\262\325\217"
 925      DDABB814 
 925      6A93EB2E 
 925      C22C7FB2 
 925      D58F
 926 2c14 0782F9FE 		.ascii	"\007\202\371\376\002\322]fb\212\206\002-\330/\020$v"
 926      02D25D66 
 926      628A8602 
 926      2DD82F10 
 926      2476
 927 2c26 C020AE20 		.ascii	"\300 \256 \277Oz\337\234\034]0\327\361\211g\236\350"
 927      BF4F7ADF 
ARM GAS  /tmp/ccRIKfpM.s 			page 75


 927      9C1C5D30 
 927      D7F18967 
 927      9EE8
 928 2c38 C8068010 		.ascii	"\310\006\200\020\314\221n\206T\030\\nIi\330\001A\224"
 928      CC916E86 
 928      54185C6E 
 928      4969D801 
 928      4194
 929 2c4a 8FF464F9 		.ascii	"\217\364d\371\205p\305\011W\302N\270\024vc\014\027v"
 929      8570C509 
 929      57C24EB8 
 929      1476630C 
 929      1776
 930 2c5c 9136174E 		.ascii	"\2216\027N\030\325j\2321\2729\322\212\233c*;T\\\032"
 930      18D56A9A 
 930      31BA39D2 
 930      8A9B632A 
 930      3B545C1A 
 931 2c70 242D3895 		.ascii	"$-8\225\375\332\222~!~#PD\002\355\346\332\013\236@\001"
 931      FDDA927E 
 931      217E2350 
 931      4402EDE6 
 931      DA0B9E40 
 932 2c85 BA976670 		.ascii	"\272\227fpV\257\371 M\301)\024\372\344\354\260\027."
 932      56AFF920 
 932      4DC12914 
 932      FAE4ECB0 
 932      172E
 933 2c97 6392FC3E 		.ascii	"c\222\374>\220:\352@\010s\273\360>_(Wq\354\276\314."
 933      903AEA40 
 933      0873BBF0 
 933      3E5F2857 
 933      71ECBECC 
 934 2cac 4A1CE481 		.ascii	"J\034\344\201\024\011\203\274p\306(\310^\035\321#\222"
 934      140983BC 
 934      70C628C8 
 934      5E1DD123 
 934      92
 935 2cbd 3ADE915F 		.ascii	":\336\221_\0042S]2D\033j\322\253&}\375U\007\016\251"
 935      0432535D 
 935      32441B6A 
 935      D2AB267D 
 935      FD55070E 
 936 2cd2 1CB486A0 		.ascii	"\034\264\206\240\267\177v\237\322<\360m\256\376\331"
 936      B77F769F 
 936      D23CF06D 
 936      AEFED9
 937 2ce1 E1E2120F 		.ascii	"\341\342\022\017\334\022,\011\007\341\034\314\205\263"
 937      DC122C09 
 937      07E11CCC 
 937      85B3
 938 2cef AF7F5171 		.ascii	"\257\177Qq8?o0\240\364\317\246Iw\177\020C\321[\356|"
 938      383F6F30 
 938      A0F4CFA6 
 938      49777F10 
 938      43D15BEE 
 939 2d04 C46C5E5C 		.ascii	"\304l^\\\032f\212u\027cB\312\357#\025\367\271\343\225"
ARM GAS  /tmp/ccRIKfpM.s 			page 76


 939      1A668A75 
 939      176342CA 
 939      EF2315F7 
 939      B9E395
 940 2d17 CC4E1959 		.ascii	"\314N\031Y\214\237{\322\331=\253w\206\2534\344\017\206"
 940      8C9F7BD2 
 940      D93DAB77 
 940      86AB34E4 
 940      0F86
 941 2d29 7D609BC4 		.ascii	"}`\233\304\020\241\333RRN\322\363\271\351\320\306\321"
 941      10A1DB52 
 941      524ED2F3 
 941      B9E9D0C6 
 941      D1
 942 2d3a AD474F29 		.ascii	"\255GO)/\344$2t\004\202Ag\0360\343\016asqQ\232K\232"
 942      2FE42432 
 942      74048241 
 942      671E30E3 
 942      0E617371 
 943 2d52 8017DA46 		.ascii	"\200\027\332F6I\220F\222\015\3678\2406N\202\346\031"
 943      36499046 
 943      920DF738 
 943      A0364E82 
 943      E619
 944 2d64 18EC4CAA 		.ascii	"\030\354L\252\350,\206~\247G2\261\"rO\242`\264r5^\244"
 944      E82C867E 
 944      A74732B1 
 944      22724FA2 
 944      60B47235 
 945 2d7a 364F1D94 		.ascii	"6O\035\224+T\022\010\220\000\256\003\034Ov\377%\205"
 945      2B541208 
 945      9000AE03 
 945      1C4F76FF 
 945      2585
 946 2d8c 94824894 		.ascii	"\224\202H\224\"R^\201K\264Q%\364sl#%\020\244o!g\305"
 946      22525E81 
 946      4BB45125 
 946      F4736C23 
 946      2510A46F 
 947 2da3 CA9A1128 		.ascii	"\312\232\021(\305\316|\230\306!\010\246\320\326\356"
 947      C5CE7C98 
 947      C62108A6 
 947      D0D6EE
 948 2db2 20378707 		.ascii	" 7\207\007)\267\247\342\017Y\257g\367\350\322\263ks"
 948      29B7A7E2 
 948      0F59AF67 
 948      F7E8D2B3 
 948      6B73
 949 2dc4 F50B0DC8 		.ascii	"\365\013\015\310[\252_\325\240\334\243dC\210\240\026"
 949      5BAA5FD5 
 949      A0DCA364 
 949      4388A016 
 950 2dd4 228385C8 		.ascii	"\"\203\205\310\320Bd0\020J6/\201\310\351\003\255\"<"
 950      D0426430 
 950      104A362F 
 950      81C8E903 
 950      AD223C
ARM GAS  /tmp/ccRIKfpM.s 			page 77


 951 2de7 088284F6 		.ascii	"\010\202\204\366\020\335\323T\007Hy\203\203h\300\357"
 951      10DDD354 
 951      07487983 
 951      8368C0EF 
 952 2df7 C3BBF0B6 		.ascii	"\303\273\360\266\340 \022,\3015\254\254\322\372\360"
 952      E020122C 
 952      C135ACAC 
 952      D2FAF0
 953 2e06 F700F99D 		.ascii	"\367\000\371\235d\011\222\237\261\246TW\036\245\277"
 953      6409929F 
 953      B1A65457 
 953      1EA5BF
 954 2e15 71050781 		.ascii	"q\005\007\201\211\244\204\302o\371\013\362\373\026\301"
 954      89A484C2 
 954      6FF90BF2 
 954      FB16C1
 955 2e24 CD24887F 		.ascii	"\315$\210\177\252c4\236'Iw\337\022\322\244|p\312\302"
 955      AA63349E 
 955      274977DF 
 955      12D2A47C 
 955      70CAC2
 956 2e37 CE3EA122 		.ascii	"\316>\241\"\006\370!\330(\015\301\017\020u\200C\200"
 956      06F821D8 
 956      280DC10F 
 956      10758043 
 956      80
 957 2e48 DCF6420E 		.ascii	"\334\366B\016\332_\222R\357~\001||f\000\032RQ\030L\215"
 957      DA5F9252 
 957      EF7E017C 
 957      7C66001A 
 957      5251184C 
 958 2e5d F6CFF719 		.ascii	"\366\317\367\031]\004\237\353U\013t@\302\221W\030\366"
 958      5D049FEB 
 958      550B7440 
 958      C2915718 
 958      F6
 959 2e6e 14FAF38B 		.ascii	"\024\372\363\213\236\310\021\356\314/\312'w\202\177"
 959      9EC811EE 
 959      CC2FCA27 
 959      77827F
 960 2e7d 7DA28458 		.ascii	"}\242\204XF;7\035\030{1:\204\304=\244e\274\024\030\330"
 960      463B371D 
 960      187B313A 
 960      84C43DA4 
 960      65BC1418 
 961 2e92 93363F7A 		.ascii	"\2236?zW{WA\336K\245\205)\261\334\315\265\267ys\012"
 961      577B5741 
 961      DE4BA585 
 961      29B1DCCD 
 961      B5B77973 
 962 2ea7 8A4301F8 		.ascii	"\212C\001\370r\007\010\247gq\216?\234_\014Rl\316|\003"
 962      720708A7 
 962      67718E3F 
 962      9C5F0C52 
 962      6CCE7C03 
 963 2ebb E69CC48B 		.ascii	"\346\234\304\213{\013\340k\030\252\007m\275\250/\246"
 963      7B0BE06B 
ARM GAS  /tmp/ccRIKfpM.s 			page 78


 963      18AA076D 
 963      BDA82FA6 
 964 2ecb BCFE027A 		.ascii	"\274\376\002z\311\033\362\207\261}z\221\375\356%!\007"
 964      C91BF287 
 964      B17D7A91 
 964      FDEE2521 
 964      07
 965 2edc 74F6CDD0 		.ascii	"t\366\315\320\327\277\010\002'\003M\033\275\211?\330"
 965      D7BF0802 
 965      27034D1B 
 965      BD893FD8 
 966 2eec 97048803 		.ascii	"\227\004\210\003\374\350\242\233gg\367-*\315\311V\276"
 966      FCE8A29B 
 966      6767F72D 
 966      2ACDC956 
 966      BE
 967 2efd 36FBCF3E 		.ascii	"6\373\317>\245\371\005\341?\346\027=+@l\254\\\205\001"
 967      A5F905E1 
 967      3FE6173D 
 967      2B406CAC 
 967      5C8501
 968 2f10 D2002ABA 		.ascii	"\322\000*\272\273I\307\332\023\375N\217h\265S@%E\364"
 968      BB49C7DA 
 968      13FD4E8F 
 968      68B55340 
 968      2545F4
 969 2f23 F714C541 		.ascii	"\367\024\305A\201\020\350\224K\267L\245/\205\233\262"
 969      8110E894 
 969      4BB74CA5 
 969      2F859BB2 
 970 2f33 FAE56616 		.ascii	"\372\345f\026\004\002%-\360\227X~O(73\014\022\365\202"
 970      0402252D 
 970      F097587E 
 970      4F283733 
 970      0C12F582 
 971 2f47 603091F2 		.ascii	"`0\221\362Dz\237b\177\020G\323\230 \367\332\013\203"
 971      447A9F62 
 971      7F1047D3 
 971      9820F7DA 
 971      0B83
 972 2f59 A17724B9 		.ascii	"\241w$\271s\372e\016\016\221\334\266\306\342\375\260"
 972      73FA650E 
 972      0E91DCB6 
 972      C6E2FDB0 
 973 2f69 03F7C089 		.ascii	"\003\367\300\211dMU\352\324\231hS\375\362\032\221~s"
 973      644D55EA 
 973      D4996853 
 973      FDF21A91 
 973      7E73
 974 2f7b 642E3310 		.ascii	"d.3\020~\241\364\037\377\010\004\233\251_{v\355B\224"
 974      7EA1F41F 
 974      FF08049B 
 974      A95F7B76 
 974      ED4294
 975 2f8e DC1D528A 		.ascii	"\334\035R\212\236=\341\274\322\242\234\354\360\235("
 975      9E3DE1BC 
 975      D2A29CEC 
ARM GAS  /tmp/ccRIKfpM.s 			page 79


 975      F09D28
 976 2f9d 85CE60   		.ascii	"\205\316`"
 977 2fa0 91E10054 		.ascii	"\221\341\000T5\234\237#\205r\035\231]\236\202\370\260"
 977      359C9F23 
 977      85721D99 
 977      5D9E82F8 
 977      B0
 978 2fb1 28541C04 		.ascii	"(T\034\004\321\272\012\272\001\276\213L)\265w\203C\355"
 978      D1BA0ABA 
 978      01BE8B4C 
 978      29B57783 
 978      43ED
 979 2fc3 9CD7D78D 		.ascii	"\234\327\327\215n\256\275k\240\037\224\217\363^!\277"
 979      6EAEBD6B 
 979      A01F948F 
 979      F35E21BF 
 980 2fd3 3293D532 		.ascii	"2\223\3252\253k\317\256\275\272fe\274\221\375\"x\251"
 980      AB6BCFAE 
 980      BDBA6665 
 980      BC91FD22 
 980      78A9
 981 2fe5 AE19FDB3 		.ascii	"\256\031\375\263z\364\352\332\266g\247\254\266=_~\251"
 981      7AF4EADA 
 981      B667A7AC 
 981      B63D5F7E 
 981      A9
 982 2ff6 7BDB4E3D 		.ascii	"{\333N=\263\332f\302\227\254"
 982      B3DA66C2 
 982      97AC
 983 3000 5EBD7B10 		.ascii	"^\275{\020\322\265=\322\016m{gt\315\314\354AOp\221\236"
 983      D2B53DD2 
 983      0E6D7B67 
 983      74CDCCEC 
 983      414F7091 
 984 3015 3BB47DF1 		.ascii	";\264}\361\225^]z \205\213x\352\320\266S\347\316\257"
 984      955E5D7A 
 984      20858B78 
 984      EAD0B653 
 984      E7CEAF
 985 3028 13F20621 		.ascii	"\023\362\006!\177o\333\253S\367\327\011y\203\220\277"
 985      7F6FDBAB 
 985      53F7D709 
 985      798390BF 
 986 3038 A708CDA2 		.ascii	"\247\010\315\242M\037\034K\210(8\013,\332\003\202-\202"
 986      4D1F1C4B 
 986      8828380B 
 986      2CDA0382 
 986      2D82
 987 304a FEF3FF01 		.ascii	"\376\363\377\001%A\307\032"
 987      2541C71A 
 988              		.text
 989              		.section	.gnu.lto_.symtab.68965d224f53fd2,"",%progbits
 990 0000 6C46696C 		.ascii	"lFile\000\000\000\000\000\000\000\000\000\000\000\000"
 990      65000000 
 990      00000000 
 990      00000000 
 990      00
ARM GAS  /tmp/ccRIKfpM.s 			page 80


 991 0011 FD040000 		.ascii	"\375\004\000\000initialize\000\000\000\000\000\000\000"
 991      696E6974 
 991      69616C69 
 991      7A650000 
 991      00000000 
 992 0026 00000000 		.ascii	"\000\000\000\000\000g\004\000\000MMCD1\000\000\000\000"
 992      00670400 
 992      004D4D43 
 992      44310000 
 992      0000
 993 0038 00000000 		.ascii	"\000\000\000\000\000\000\000\000\377\004\000\000ope"
 993      00000000 
 993      FF040000 
 993      6F7065
 994 0047 6E4E6577 		.ascii	"nNewLogfile\000\000\000\000\000\000\000\000\000\000"
 994      4C6F6766 
 994      696C6500 
 994      00000000 
 994      00000000 
 995 005c 00006B04 		.ascii	"\000\000k\004\000\000closeLog\000\000\000\000\000\000"
 995      0000636C 
 995      6F73654C 
 995      6F670000 
 995      00000000 
 996 0070 00000000 		.ascii	"\000\000\000\000\000\000q\004\000\000printGps\000\000"
 996      00007104 
 996      00007072 
 996      696E7447 
 996      70730000 
 997 0084 00000000 		.ascii	"\000\000\000\000\000\000\000\000\000\000u\004\000\000"
 997      00000000 
 997      00007504 
 997      0000
 998 0092 77726974 		.ascii	"writeHeader\000\000\000\000\000\000\000\000\000\000"
 998      65486561 
 998      64657200 
 998      00000000 
 998      00000000 
 999 00a7 00008F04 		.ascii	"\000\000\217\004\000\000main\000\000\000\000\000\000"
 999      00006D61 
 999      696E0000 
 999      00000000 
 1000 00b7 00000000 		.ascii	"\000\000\000\000\000\000\222\004\000\000SD6\000\000"
 1000      00009204 
 1000      00005344 
 1000      360000
 1001 00c6 02000000 		.ascii	"\002\000\000\000\000\000\000\000\000\000\371\004\000"
 1001      00000000 
 1001      0000F904 
 1001      00
 1002 00d3 00554152 		.ascii	"\000UARTD1\000\000\002\000\000\000\000\000\000\000\000"
 1002      54443100 
 1002      00020000 
 1002      00000000 
 1002      0000
 1003 00e5 00040500 		.ascii	"\000\004\005\000\000gpsThread\000\000\002\000\000\000"
 1003      00677073 
ARM GAS  /tmp/ccRIKfpM.s 			page 81


 1003      54687265 
 1003      61640000 
 1003      02000000 
 1004 00f9 00000000 		.ascii	"\000\000\000\000\000\000:\004\000\000chvprintf\000\000"
 1004      00003A04 
 1004      00006368 
 1004      76707269 
 1004      6E746600 
 1005 010e 02000000 		.ascii	"\002\000\000\000\000\000\000\000\000\000\226\004\000"
 1005      00000000 
 1005      00009604 
 1005      00
 1006 011b 00646174 		.ascii	"\000dataLoggerInitialize\000\000\002\000\000\000\000"
 1006      614C6F67 
 1006      67657249 
 1006      6E697469 
 1006      616C697A 
 1007 0137 00000000 		.ascii	"\000\000\000\000\000\245\004\000\000chsnprintf\000\000"
 1007      00A50400 
 1007      00636873 
 1007      6E707269 
 1007      6E746600 
 1008 014c 02000000 		.ascii	"\002\000\000\000\000\000\000\000\000\000\254\004\000"
 1008      00000000 
 1008      0000AC04 
 1008      00
 1009 0159 006C6F67 		.ascii	"\000logfileNew\000\000\002\000\000\000\000\000\000\000"
 1009      66696C65 
 1009      4E657700 
 1009      00020000 
 1009      00000000 
 1010 016e 0000B204 		.ascii	"\000\000\262\004\000\000sdmmcFSMounted\000\000\002\000"
 1010      00007364 
 1010      6D6D6346 
 1010      534D6F75 
 1010      6E746564 
 1011 0186 00000000 		.ascii	"\000\000\000\000\000\000\000\000\271\004\000\000chT"
 1011      00000000 
 1011      B9040000 
 1011      636854
 1012 0195 6864536C 		.ascii	"hdSleep\000\000\002\000\000\000\000\000\000\000\000"
 1012      65657000 
 1012      00020000 
 1012      00000000 
 1012      0000
 1013 01a7 00BD0400 		.ascii	"\000\275\004\000\000sdmmcInitialize\000\000\002\000"
 1013      0073646D 
 1013      6D63496E 
 1013      69746961 
 1013      6C697A65 
 1014 01bf 00000000 		.ascii	"\000\000\000\000\000\000\000\000\301\004\000\000sdS"
 1014      00000000 
 1014      C1040000 
 1014      736453
 1015 01ce 74617274 		.ascii	"tart\000\000\002\000\000\000\000\000\000\000\000\000"
 1015      00000200 
 1015      00000000 
ARM GAS  /tmp/ccRIKfpM.s 			page 82


 1015      00000000 
 1016 01de C7040000 		.ascii	"\307\004\000\000gpsStart\000\000\002\000\000\000\000"
 1016      67707353 
 1016      74617274 
 1016      00000200 
 1016      000000
 1017 01f1 00000000 		.ascii	"\000\000\000\000\000\316\004\000\000boardInit\000\000"
 1017      00CE0400 
 1017      00626F61 
 1017      7264496E 
 1017      69740000 
 1018 0205 02000000 		.ascii	"\002\000\000\000\000\000\000\000\000\000\322\004\000"
 1018      00000000 
 1018      0000D204 
 1018      00
 1019 0212 00636853 		.ascii	"\000chSysInit\000\000\002\000\000\000\000\000\000\000"
 1019      7973496E 
 1019      69740000 
 1019      02000000 
 1019      00000000 
 1020 0226 0000D404 		.ascii	"\000\000\324\004\000\000halInit\000\000\002\000\000"
 1020      00006861 
 1020      6C496E69 
 1020      74000002 
 1020      0000
 1021 0238 00000000 		.ascii	"\000\000\000\000\000\000\000\326\004\000\000logfile"
 1021      000000D6 
 1021      0400006C 
 1021      6F676669 
 1021      6C65
 1022 024a 436C6F73 		.ascii	"Close\000\000\002\000\000\000\000\000\000\000\000\000"
 1022      65000002 
 1022      00000000 
 1022      00000000 
 1022      00
 1023 025b D8040000 		.ascii	"\330\004\000\000logfileWrite\000\000\002\000\000\000"
 1023      6C6F6766 
 1023      696C6557 
 1023      72697465 
 1023      00000200 
 1024 0271 00000000 		.ascii	"\000\000\000\000\000\000\334\004\000\000boardSetBuz"
 1024      0000DC04 
 1024      0000626F 
 1024      61726453 
 1024      65744275 
 1025 0286 7A657200 		.ascii	"zer\000\000\002\000\000\000\000\000\000\000\000\000"
 1025      00020000 
 1025      00000000 
 1025      000000
 1026 0295 E3040000 		.ascii	"\343\004\000\000boardSetLED\000\000\002\000\000\000"
 1026      626F6172 
 1026      64536574 
 1026      4C454400 
 1026      00020000 
 1027 02aa 00000000 		.ascii	"\000\000\000\000\000\000\347\004\000\000gpsGetLocat"
 1027      0000E704 
 1027      00006770 
ARM GAS  /tmp/ccRIKfpM.s 			page 83


 1027      73476574 
 1027      4C6F6361 
 1028 02bf 696F6E00 		.ascii	"ion\000\000\002\000\000\000\000\000\000\000\000\000"
 1028      00020000 
 1028      00000000 
 1028      000000
 1029 02ce E9040000 		.ascii	"\351\004\000\000chThdCreateStatic\000\000\002\000\000"
 1029      63685468 
 1029      64437265 
 1029      61746553 
 1029      74617469 
 1030 02e8 00000000 		.ascii	"\000\000\000\000\000\000\000\353\004\000\000"
 1030      000000EB 
 1030      040000
 1031              		.text
 1032              		.section	.gnu.lto_.opts,"",%progbits
 1033 0000 272D6D63 		.ascii	"'-mcpu=cortex-m4' '-mfloat-abi=hard' '-mfpu=fpv4-sp"
 1033      70753D63 
 1033      6F727465 
 1033      782D6D34 
 1033      2720272D 
 1034 0033 2D643136 		.ascii	"-d16' '-mno-thumb-interwork' '-mthumb' '-O2' '-fomi"
 1034      2720272D 
 1034      6D6E6F2D 
 1034      7468756D 
 1034      622D696E 
 1035 0066 742D6672 		.ascii	"t-frame-pointer' '-falign-functions=16' '-ffunction"
 1035      616D652D 
 1035      706F696E 
 1035      74657227 
 1035      20272D66 
 1036 0099 2D736563 		.ascii	"-sections' '-fdata-sections' '-fno-common' '-flto' "
 1036      74696F6E 
 1036      73272027 
 1036      2D666461 
 1036      74612D73 
 1037 00cc 272D6673 		.ascii	"'-fsingle-precision-constant'\000"
 1037      696E676C 
 1037      652D7072 
 1037      65636973 
 1037      696F6E2D 
 1038              		.text
 1039              		.section	.text.chprintf.constprop.2,"ax",%progbits
 1040              		.align	2
 1041              		.p2align 4,,15
 1042              		.thumb
 1043              		.thumb_func
 1044              		.type	chprintf.constprop.2, %function
 1045              	chprintf.constprop.2:
 1046              		@ args = 4, pretend = 12, frame = 8
 1047              		@ frame_needed = 0, uses_anonymous_args = 1
 1048 0000 0EB4     		push	{r1, r2, r3}
 1049 0002 00B5     		push	{lr}
 1050 0004 82B0     		sub	sp, sp, #8
 1051 0006 03AA     		add	r2, sp, #12
 1052 0008 0548     		ldr	r0, .L2
 1053 000a 52F8041B 		ldr	r1, [r2], #4
ARM GAS  /tmp/ccRIKfpM.s 			page 84


 1054 000e 0192     		str	r2, [sp, #4]
 1055 0010 FFF7FEFF 		bl	chvprintf
 1056 0014 02B0     		add	sp, sp, #8
 1057              		@ sp needed
 1058 0016 5DF804EB 		ldr	lr, [sp], #4
 1059 001a 03B0     		add	sp, sp, #12
 1060 001c 7047     		bx	lr
 1061              	.L3:
 1062 001e 00BF     		.align	2
 1063              	.L2:
 1064 0020 00000000 		.word	SD6
 1065              		.size	chprintf.constprop.2, .-chprintf.constprop.2
 1066 0024 AFF30080 		.section	.text.initialize,"ax",%progbits
 1066      AFF30080 
 1066      AFF30080 
 1067              		.align	2
 1068              		.p2align 4,,15
 1069              		.global	initialize
 1070              		.thumb
 1071              		.thumb_func
 1072              		.type	initialize, %function
 1073              	initialize:
 1074              		@ args = 0, pretend = 0, frame = 0
 1075              		@ frame_needed = 0, uses_anonymous_args = 0
 1076 0000 10B5     		push	{r4, lr}
 1077 0002 FFF7FEFF 		bl	halInit
 1078 0006 FFF7FEFF 		bl	chSysInit
 1079 000a FFF7FEFF 		bl	boardInit
 1080 000e 1648     		ldr	r0, .L9
 1081 0010 FFF7FEFF 		bl	gpsStart
 1082 0014 1548     		ldr	r0, .L9+4
 1083 0016 1649     		ldr	r1, .L9+8
 1084 0018 FFF7FEFF 		bl	sdStart
 1085 001c 1549     		ldr	r1, .L9+12
 1086 001e 1348     		ldr	r0, .L9+4
 1087 0020 FFF7FEFF 		bl	chprintf.constprop.2
 1088 0024 40F6C410 		movw	r0, #2500
 1089 0028 FFF7FEFF 		bl	chThdSleep
 1090 002c 1248     		ldr	r0, .L9+16
 1091 002e 1349     		ldr	r1, .L9+20
 1092 0030 0E4A     		ldr	r2, .L9+4
 1093 0032 FFF7FEFF 		bl	sdmmcInitialize
 1094 0036 0446     		mov	r4, r0
 1095 0038 4FF47A70 		mov	r0, #1000
 1096 003c FFF7FEFF 		bl	chThdSleep
 1097 0040 24B9     		cbnz	r4, .L5
 1098 0042 0D48     		ldr	r0, .L9+16
 1099 0044 FFF7FEFF 		bl	sdmmcFSMounted
 1100 0048 30B9     		cbnz	r0, .L8
 1101 004a 10BD     		pop	{r4, pc}
 1102              	.L5:
 1103 004c 0748     		ldr	r0, .L9+4
 1104 004e 0C49     		ldr	r1, .L9+24
 1105 0050 BDE81040 		pop	{r4, lr}
 1106 0054 FFF7FEBF 		b	chprintf.constprop.2
 1107              	.L8:
 1108 0058 0A48     		ldr	r0, .L9+28
ARM GAS  /tmp/ccRIKfpM.s 			page 85


 1109 005a 0B49     		ldr	r1, .L9+32
 1110 005c 064A     		ldr	r2, .L9+16
 1111 005e 034B     		ldr	r3, .L9+4
 1112 0060 BDE81040 		pop	{r4, lr}
 1113 0064 FFF7FEBF 		b	dataLoggerInitialize
 1114              	.L10:
 1115              		.align	2
 1116              	.L9:
 1117 0068 00000000 		.word	UARTD1
 1118 006c 00000000 		.word	SD6
 1119 0070 00000000 		.word	.LANCHOR0
 1120 0074 00000000 		.word	.LC0
 1121 0078 00000000 		.word	.LANCHOR1
 1122 007c 00000000 		.word	.LANCHOR2
 1123 0080 0C000000 		.word	.LC2
 1124 0084 00000000 		.word	.LANCHOR3
 1125 0088 08000000 		.word	.LC1
 1126              		.size	initialize, .-initialize
 1127 008c AFF30080 		.section	.text.openNewLogfile,"ax",%progbits
 1128              		.align	2
 1129              		.p2align 4,,15
 1130              		.global	openNewLogfile
 1131              		.thumb
 1132              		.thumb_func
 1133              		.type	openNewLogfile, %function
 1134              	openNewLogfile:
 1135              		@ args = 0, pretend = 0, frame = 24
 1136              		@ frame_needed = 0, uses_anonymous_args = 0
 1137 0000 10B5     		push	{r4, lr}
 1138 0002 114B     		ldr	r3, .L19
 1139 0004 1A7D     		ldrb	r2, [r3, #20]	@ zero_extendqisi2
 1140 0006 86B0     		sub	sp, sp, #24
 1141 0008 1AB1     		cbz	r2, .L17
 1142 000a 0220     		movs	r0, #2
 1143 000c 40B2     		sxtb	r0, r0
 1144 000e 06B0     		add	sp, sp, #24
 1145              		@ sp needed
 1146 0010 10BD     		pop	{r4, pc}
 1147              	.L17:
 1148 0012 0928     		cmp	r0, #9
 1149 0014 0346     		mov	r3, r0
 1150 0016 11DD     		ble	.L18
 1151 0018 6328     		cmp	r0, #99
 1152 001a 4FF05001 		mov	r1, #80
 1153 001e 6846     		mov	r0, sp
 1154 0020 D4BF     		ite	le
 1155 0022 0A4A     		ldrle	r2, .L19+4
 1156 0024 0A4A     		ldrgt	r2, .L19+8
 1157 0026 FFF7FEFF 		bl	chsnprintf
 1158              	.L14:
 1159 002a 6B46     		mov	r3, sp
 1160 002c 0949     		ldr	r1, .L19+12
 1161 002e 0A4A     		ldr	r2, .L19+16
 1162 0030 0548     		ldr	r0, .L19
 1163 0032 FFF7FEFF 		bl	logfileNew
 1164 0036 40B2     		sxtb	r0, r0
 1165 0038 06B0     		add	sp, sp, #24
ARM GAS  /tmp/ccRIKfpM.s 			page 86


 1166              		@ sp needed
 1167 003a 10BD     		pop	{r4, pc}
 1168              	.L18:
 1169 003c 6846     		mov	r0, sp
 1170 003e 5021     		movs	r1, #80
 1171 0040 064A     		ldr	r2, .L19+20
 1172 0042 FFF7FEFF 		bl	chsnprintf
 1173 0046 F0E7     		b	.L14
 1174              	.L20:
 1175              		.align	2
 1176              	.L19:
 1177 0048 00000000 		.word	.LANCHOR4
 1178 004c 44000000 		.word	.LC4
 1179 0050 58000000 		.word	.LC5
 1180 0054 00000000 		.word	.LANCHOR3
 1181 0058 00000000 		.word	.LANCHOR5
 1182 005c 30000000 		.word	.LC3
 1183              		.size	openNewLogfile, .-openNewLogfile
 1184              		.section	.text.closeLog,"ax",%progbits
 1185              		.align	2
 1186              		.p2align 4,,15
 1187              		.global	closeLog
 1188              		.thumb
 1189              		.thumb_func
 1190              		.type	closeLog, %function
 1191              	closeLog:
 1192              		@ args = 0, pretend = 0, frame = 0
 1193              		@ frame_needed = 0, uses_anonymous_args = 0
 1194 0000 08B5     		push	{r3, lr}
 1195 0002 0248     		ldr	r0, .L22
 1196 0004 FFF7FEFF 		bl	logfileClose
 1197 0008 0020     		movs	r0, #0
 1198 000a 08BD     		pop	{r3, pc}
 1199              	.L23:
 1200              		.align	2
 1201              	.L22:
 1202 000c 00000000 		.word	.LANCHOR4
 1203              		.size	closeLog, .-closeLog
 1204              		.section	.text.printGps,"ax",%progbits
 1205              		.align	2
 1206              		.p2align 4,,15
 1207              		.global	printGps
 1208              		.thumb
 1209              		.thumb_func
 1210              		.type	printGps, %function
 1211              	printGps:
 1212              		@ args = 0, pretend = 0, frame = 0
 1213              		@ frame_needed = 0, uses_anonymous_args = 0
 1214 0000 00B5     		push	{lr}
 1215 0002 0246     		mov	r2, r0
 1216 0004 02F14001 		add	r1, r2, #64
 1217 0008 02F15003 		add	r3, r2, #80
 1218 000c 85B0     		sub	sp, sp, #20
 1219 000e 2830     		adds	r0, r0, #40
 1220 0010 8DE80B00 		stmia	sp, {r0, r1, r3}
 1221 0014 02F11003 		add	r3, r2, #16
 1222 0018 0349     		ldr	r1, .L25
ARM GAS  /tmp/ccRIKfpM.s 			page 87


 1223 001a 0448     		ldr	r0, .L25+4
 1224 001c FFF7FEFF 		bl	chprintf.constprop.2
 1225 0020 05B0     		add	sp, sp, #20
 1226              		@ sp needed
 1227 0022 5DF804FB 		ldr	pc, [sp], #4
 1228              	.L26:
 1229 0026 00BF     		.align	2
 1230              	.L25:
 1231 0028 68000000 		.word	.LC6
 1232 002c 00000000 		.word	SD6
 1233              		.size	printGps, .-printGps
 1234              		.section	.text.writeHeader,"ax",%progbits
 1235              		.align	2
 1236              		.p2align 4,,15
 1237              		.global	writeHeader
 1238              		.thumb
 1239              		.thumb_func
 1240              		.type	writeHeader, %function
 1241              	writeHeader:
 1242              		@ args = 0, pretend = 0, frame = 72
 1243              		@ frame_needed = 0, uses_anonymous_args = 0
 1244 0000 00B5     		push	{lr}
 1245 0002 93B0     		sub	sp, sp, #76
 1246 0004 6846     		mov	r0, sp
 1247 0006 4821     		movs	r1, #72
 1248 0008 054A     		ldr	r2, .L28
 1249 000a FFF7FEFF 		bl	chsnprintf
 1250 000e 6946     		mov	r1, sp
 1251 0010 82B2     		uxth	r2, r0
 1252 0012 0023     		movs	r3, #0
 1253 0014 0348     		ldr	r0, .L28+4
 1254 0016 FFF7FEFF 		bl	logfileWrite
 1255 001a 13B0     		add	sp, sp, #76
 1256              		@ sp needed
 1257 001c 5DF804FB 		ldr	pc, [sp], #4
 1258              	.L29:
 1259              		.align	2
 1260              	.L28:
 1261 0020 94000000 		.word	.LC7
 1262 0024 00000000 		.word	.LANCHOR4
 1263              		.size	writeHeader, .-writeHeader
 1264 0028 AFF30080 		.section	.text.startup.main,"ax",%progbits
 1264      AFF30080 
 1265              		.align	2
 1266              		.p2align 4,,15
 1267              		.global	main
 1268              		.thumb
 1269              		.thumb_func
 1270              		.type	main, %function
 1271              	main:
 1272              		@ args = 0, pretend = 0, frame = 104
 1273              		@ frame_needed = 0, uses_anonymous_args = 0
 1274 0000 00B5     		push	{lr}
 1275 0002 9DB0     		sub	sp, sp, #116
 1276 0004 FFF7FEFF 		bl	initialize
 1277 0008 03AB     		add	r3, sp, #12
 1278 000a 4FF4CB61 		mov	r1, #1624
ARM GAS  /tmp/ccRIKfpM.s 			page 88


 1279 000e 4022     		movs	r2, #64
 1280 0010 0093     		str	r3, [sp]
 1281 0012 1648     		ldr	r0, .L32
 1282 0014 164B     		ldr	r3, .L32+4
 1283 0016 FFF7FEFF 		bl	chThdCreateStatic
 1284 001a 0120     		movs	r0, #1
 1285 001c FFF7FEFF 		bl	boardSetBuzzer
 1286 0020 0120     		movs	r0, #1
 1287 0022 FFF7FEFF 		bl	boardSetLED
 1288 0026 40F6B830 		movw	r0, #3000
 1289 002a FFF7FEFF 		bl	chThdSleep
 1290 002e 0020     		movs	r0, #0
 1291 0030 FFF7FEFF 		bl	boardSetBuzzer
 1292 0034 0020     		movs	r0, #0
 1293 0036 FFF7FEFF 		bl	boardSetLED
 1294              	.L31:
 1295 003a 0120     		movs	r0, #1
 1296 003c FFF7FEFF 		bl	boardSetLED
 1297 0040 04A8     		add	r0, sp, #16
 1298 0042 FFF7FEFF 		bl	gpsGetLocation
 1299 0046 4FF47A60 		mov	r0, #4000
 1300 004a FFF7FEFF 		bl	chThdSleep
 1301 004e 0120     		movs	r0, #1
 1302 0050 FFF7FEFF 		bl	boardSetBuzzer
 1303 0054 0020     		movs	r0, #0
 1304 0056 FFF7FEFF 		bl	boardSetLED
 1305 005a 41F27660 		movw	r0, #5750
 1306 005e FFF7FEFF 		bl	chThdSleep
 1307 0062 0020     		movs	r0, #0
 1308 0064 FFF7FEFF 		bl	boardSetBuzzer
 1309 0068 E7E7     		b	.L31
 1310              	.L33:
 1311 006a 00BF     		.align	2
 1312              	.L32:
 1313 006c 00000000 		.word	.LANCHOR6
 1314 0070 00000000 		.word	gpsThread
 1315              		.size	main, .-main
 1316              		.global	MMCD1
 1317              		.global	lFile
 1318 0074 AFF30080 		.section	.data.serCfg,"aw",%progbits
 1318      AFF30080 
 1318      AFF30080 
 1319              		.align	2
 1320              		.set	.LANCHOR0,. + 0
 1321              		.type	serCfg, %object
 1322              		.size	serCfg, 12
 1323              	serCfg:
 1324 0000 00C20100 		.word	115200
 1325 0004 0000     		.short	0
 1326 0006 0000     		.short	0
 1327 0008 0000     		.short	0
 1328 000a 0000     		.space	2
 1329              		.section	.bss.waGps,"aw",%nobits
 1330              		.align	3
 1331              		.set	.LANCHOR6,. + 0
 1332              		.type	waGps, %object
 1333              		.size	waGps, 1624
ARM GAS  /tmp/ccRIKfpM.s 			page 89


 1334              	waGps:
 1335 0000 00000000 		.space	1624
 1335      00000000 
 1335      00000000 
 1335      00000000 
 1335      00000000 
 1336              		.section	.bss.MMCD1,"aw",%nobits
 1337              		.align	2
 1338              		.set	.LANCHOR2,. + 0
 1339              		.type	MMCD1, %object
 1340              		.size	MMCD1, 52
 1341              	MMCD1:
 1342 0000 00000000 		.space	52
 1342      00000000 
 1342      00000000 
 1342      00000000 
 1342      00000000 
 1343              		.section	.rodata.str1.4,"aMS",%progbits,1
 1344              		.align	2
 1345              	.LC0:
 1346 0000 53544152 		.ascii	"START\012\000"
 1346      540A00
 1347 0007 00       		.space	1
 1348              	.LC1:
 1349 0008 00       		.ascii	"\000"
 1350 0009 000000   		.space	3
 1351              	.LC2:
 1352 000c 0A455252 		.ascii	"\012ERROR: SD Initialization Failed\012\000"
 1352      4F523A20 
 1352      53442049 
 1352      6E697469 
 1352      616C697A 
 1353 002e 0000     		.space	2
 1354              	.LC3:
 1355 0030 6C6F6773 		.ascii	"logs/DAT_00%d.csv\000"
 1355      2F444154 
 1355      5F303025 
 1355      642E6373 
 1355      7600
 1356 0042 0000     		.space	2
 1357              	.LC4:
 1358 0044 6C6F6773 		.ascii	"logs/DAT_0%d.csv\000"
 1358      2F444154 
 1358      5F302564 
 1358      2E637376 
 1358      00
 1359 0055 000000   		.space	3
 1360              	.LC5:
 1361 0058 6C6F6773 		.ascii	"logs/DAT_%d.csv\000"
 1361      2F444154 
 1361      5F25642E 
 1361      63737600 
 1362              	.LC6:
 1363 0068 54494D45 		.ascii	"TIME:%s, LAT:%s, LONG:%s, ALT:%s, SAT:%s\012\000"
 1363      3A25732C 
 1363      204C4154 
 1363      3A25732C 
ARM GAS  /tmp/ccRIKfpM.s 			page 90


 1363      204C4F4E 
 1364 0092 0000     		.space	2
 1365              	.LC7:
 1366 0094 54494D45 		.ascii	"TIME,LAT,LONG,ALT,SAT,TMPI,TMPE1,TMPE2,PRESSI,PRESS"
 1366      2C4C4154 
 1366      2C4C4F4E 
 1366      472C414C 
 1366      542C5341 
 1367 00c7 45312C50 		.ascii	"E1,PRESSE2,HUMDI,HUMDE1,HUMDE2,ACCX,ACCY,ACCZ,MAGX,"
 1367      52455353 
 1367      45322C48 
 1367      554D4449 
 1367      2C48554D 
 1368 00fa 4D414759 		.ascii	"MAGY,MAGZ\012\000"
 1368      2C4D4147 
 1368      5A0A00
 1369 0105 000000   		.section	.bss.sensorLog,"aw",%nobits
 1370              		.align	2
 1371              		.set	.LANCHOR4,. + 0
 1372              		.type	sensorLog, %object
 1373              		.size	sensorLog, 24
 1374              	sensorLog:
 1375 0000 00000000 		.space	24
 1375      00000000 
 1375      00000000 
 1375      00000000 
 1375      00000000 
 1376              		.section	.bss.sd,"aw",%nobits
 1377              		.align	2
 1378              		.set	.LANCHOR1,. + 0
 1379              		.type	sd, %object
 1380              		.size	sd, 16
 1381              	sd:
 1382 0000 00000000 		.space	16
 1382      00000000 
 1382      00000000 
 1382      00000000 
 1383              		.section	.bss.logger,"aw",%nobits
 1384              		.align	2
 1385              		.set	.LANCHOR3,. + 0
 1386              		.type	logger, %object
 1387              		.size	logger, 16
 1388              	logger:
 1389 0000 00000000 		.space	16
 1389      00000000 
 1389      00000000 
 1389      00000000 
 1390              		.section	.bss.lFile,"aw",%nobits
 1391              		.align	2
 1392              		.set	.LANCHOR5,. + 0
 1393              		.type	lFile, %object
 1394              		.size	lFile, 548
 1395              	lFile:
 1396 0000 00000000 		.space	548
 1396      00000000 
 1396      00000000 
 1396      00000000 
ARM GAS  /tmp/ccRIKfpM.s 			page 91


 1396      00000000 
 1397              		.comm	__gnu_lto_v1,1,1
 1398              		.ident	"GCC: (GNU Tools for ARM Embedded Processors) 4.8.4 20140526 (release) [ARM/embedded-4_8-br
ARM GAS  /tmp/ccRIKfpM.s 			page 92


DEFINED SYMBOLS
                            *ABS*:0000000000000000 main.c
     /tmp/ccRIKfpM.s:1040   .text.chprintf.constprop.2:0000000000000000 $t
     /tmp/ccRIKfpM.s:1045   .text.chprintf.constprop.2:0000000000000000 chprintf.constprop.2
     /tmp/ccRIKfpM.s:1064   .text.chprintf.constprop.2:0000000000000020 $d
     /tmp/ccRIKfpM.s:1067   .text.initialize:0000000000000000 $t
     /tmp/ccRIKfpM.s:1073   .text.initialize:0000000000000000 initialize
     /tmp/ccRIKfpM.s:1117   .text.initialize:0000000000000068 $d
     /tmp/ccRIKfpM.s:1128   .text.openNewLogfile:0000000000000000 $t
     /tmp/ccRIKfpM.s:1134   .text.openNewLogfile:0000000000000000 openNewLogfile
     /tmp/ccRIKfpM.s:1177   .text.openNewLogfile:0000000000000048 $d
     /tmp/ccRIKfpM.s:1185   .text.closeLog:0000000000000000 $t
     /tmp/ccRIKfpM.s:1191   .text.closeLog:0000000000000000 closeLog
     /tmp/ccRIKfpM.s:1202   .text.closeLog:000000000000000c $d
     /tmp/ccRIKfpM.s:1205   .text.printGps:0000000000000000 $t
     /tmp/ccRIKfpM.s:1211   .text.printGps:0000000000000000 printGps
     /tmp/ccRIKfpM.s:1231   .text.printGps:0000000000000028 $d
     /tmp/ccRIKfpM.s:1235   .text.writeHeader:0000000000000000 $t
     /tmp/ccRIKfpM.s:1241   .text.writeHeader:0000000000000000 writeHeader
     /tmp/ccRIKfpM.s:1261   .text.writeHeader:0000000000000020 $d
     /tmp/ccRIKfpM.s:1265   .text.startup.main:0000000000000000 $t
     /tmp/ccRIKfpM.s:1271   .text.startup.main:0000000000000000 main
     /tmp/ccRIKfpM.s:1313   .text.startup.main:000000000000006c $d
     /tmp/ccRIKfpM.s:1341   .bss.MMCD1:0000000000000000 MMCD1
     /tmp/ccRIKfpM.s:1395   .bss.lFile:0000000000000000 lFile
     /tmp/ccRIKfpM.s:1319   .data.serCfg:0000000000000000 $d
     /tmp/ccRIKfpM.s:1323   .data.serCfg:0000000000000000 serCfg
     /tmp/ccRIKfpM.s:1330   .bss.waGps:0000000000000000 $d
     /tmp/ccRIKfpM.s:1334   .bss.waGps:0000000000000000 waGps
     /tmp/ccRIKfpM.s:1337   .bss.MMCD1:0000000000000000 $d
     /tmp/ccRIKfpM.s:1344   .rodata.str1.4:0000000000000000 $d
     /tmp/ccRIKfpM.s:1370   .bss.sensorLog:0000000000000000 $d
     /tmp/ccRIKfpM.s:1374   .bss.sensorLog:0000000000000000 sensorLog
     /tmp/ccRIKfpM.s:1377   .bss.sd:0000000000000000 $d
     /tmp/ccRIKfpM.s:1381   .bss.sd:0000000000000000 sd
     /tmp/ccRIKfpM.s:1384   .bss.logger:0000000000000000 $d
     /tmp/ccRIKfpM.s:1388   .bss.logger:0000000000000000 logger
     /tmp/ccRIKfpM.s:1391   .bss.lFile:0000000000000000 $d
                            *COM*:0000000000000001 __gnu_lto_v1
     /tmp/ccRIKfpM.s:1066   .text.chprintf.constprop.2:0000000000000024 $t
     /tmp/ccRIKfpM.s:1127   .text.initialize:000000000000008c $t
     /tmp/ccRIKfpM.s:1264   .text.writeHeader:0000000000000028 $t
     /tmp/ccRIKfpM.s:1318   .text.startup.main:0000000000000074 $t

UNDEFINED SYMBOLS
chvprintf
SD6
halInit
chSysInit
boardInit
gpsStart
sdStart
chThdSleep
sdmmcInitialize
sdmmcFSMounted
dataLoggerInitialize
UARTD1
ARM GAS  /tmp/ccRIKfpM.s 			page 93


chsnprintf
logfileNew
logfileClose
logfileWrite
chThdCreateStatic
boardSetBuzzer
boardSetLED
gpsGetLocation
gpsThread
