ARM GAS  /tmp/ccfxbxQ2.s 			page 1


   1              		.syntax unified
   2              		.cpu cortex-m4
   3              		.eabi_attribute 27, 3
   4              		.eabi_attribute 28, 1
   5              		.fpu fpv4-sp-d16
   6              		.eabi_attribute 20, 1
   7              		.eabi_attribute 21, 1
   8              		.eabi_attribute 23, 3
   9              		.eabi_attribute 24, 1
  10              		.eabi_attribute 25, 1
  11              		.eabi_attribute 26, 1
  12              		.eabi_attribute 30, 2
  13              		.eabi_attribute 34, 1
  14              		.eabi_attribute 18, 4
  15              		.thumb
  16              		.file	"ms5607.c"
  17              		.section	.gnu.lto_.jmpfuncs.d016aea9906b8342,"",%progbits
  18 0000 789CAD8E 		.ascii	"x\234\255\216;\022\200 \014Dw\003\350-<\217\235-W\240"
  18      3B128020 
  18      0C447703 
  18      E82D3C8F 
  18      9D2D57A0 
  19 0014 B1E48C1E 		.ascii	"\261\344\214\036\313\360\023gd\250\244I\302f\337F \030"
  19      CBF01367 
  19      64A8A449 
  19      C266DF46 
  19      2018
  20 0026 BD83A52E 		.ascii	"\275\203\245.X\235E\250\223x\006\222\275U\263m\262\001"
  20      589D45A8 
  20      93780692 
  20      BD55B36D 
  20      B201
  21 0038 18998AC4 		.ascii	"\030\231\212\304\252\313\245\012\215\224\025\226\025"
  21      AACBA50A 
  21      8D941596 
  21      15
  22 0045 D5E8DA0F 		.ascii	"\325\350\332\017\224\226I[\207\347\306<\031\011\375"
  22      9496495B 
  22      87E7C63C 
  22      1909FD
  23 0054 3AA21906 		.ascii	":\242\031\006\327$|\311=\201\257c\237E\374\021\340g"
  23      D7247CC9 
  23      3D81AF63 
  23      9F45FC11 
  23      E067
  24 0066 01160EB8 		.ascii	"\001\026\016\270\001\241\202\031\310"
  24      01A18219 
  24      C8
  25              		.text
  26              		.section	.gnu.lto_.inline.d016aea9906b8342,"",%progbits
  27 0000 789C6362 		.ascii	"x\234cb`b\300\006\234\030!4\033\003\263\344\024FFF\006"
  27      6062C006 
  27      9C182134 
  27      1B03B3E4 
  27      14464646 
  28 0015 109F4974 		.ascii	"\020\237It\336e6\006\366en`=l\374\214\014\254\027\370"
  28      DE653606 
ARM GAS  /tmp/ccfxbxQ2.s 			page 2


  28      F6656E60 
  28      3D6CFC8C 
  28      0CAC17F8 
  29 0029 414C563E 		.ascii	"ALV>\006\006\226\011~ \010T\310\306\007S\017R\265@\036"
  29      06069609 
  29      7E200854 
  29      C8C60753 
  29      0F52B540 
  30 003e AC9A9907 		.ascii	"\254\232\231\007\310\007)`b\344\026\206\3113\001\265"
  30      C8072960 
  30      62E41686 
  30      C93301B5 
  31 004e C314B00B 		.ascii	"\303\024\260\013\000\315\001\352\007\251e\377\310\320"
  31      00CD01EA 
  31      07A965FF 
  31      C8D0
  32 005c CAC8C8CE 		.ascii	"\312\310\310\316\230\021\301\230\311\310\002\024aL\207"
  32      9811C198 
  32      C9C80214 
  32      614C87
  33 006b B198E062 		.ascii	"\261\230\340bLp1\260a\214`\023A\004G\033\343\233[,\014"
  33      4C7031B0 
  33      618C6013 
  33      4104471B 
  33      E39B5B2C 
  34 0080 7C1B5C99 		.ascii	"|\033\\\231\030X:\204\033\200\226\265\261\2600\201I"
  34      18583A84 
  34      1B8096B5 
  34      B1B03081 
  34      49
  35 0091 B0001303 		.ascii	"\260\000\023\003\323\011\016\001\010\211f5\0237\310"
  35      D3090E01 
  35      08896635 
  35      1337C8
  36 00a0 3424017C 		.ascii	"4$\001|r,\014\314@\013\221}\311\212!\302\000\000\022"
  36      722C0CCC 
  36      400B917D 
  36      C98A21C2 
  36      000012
  37 00b3 2E2125   		.ascii	".!%"
  38              		.text
  39              		.section	.gnu.lto_.pureconst.d016aea9906b8342,"",%progbits
  40 0000 789C6362 		.ascii	"x\234cb`b\340e\200\0006\006)F\011&\011f)\026\006V\006"
  40      6062E065 
  40      80003606 
  40      29460926 
  40      09662916 
  41 0017 00053E00 		.ascii	"\000\005>\000\213"
  41      8B
  42              		.text
  43              		.section	.gnu.lto_ms5607_init.d016aea9906b8342,"",%progbits
  44 0000 789C8554 		.ascii	"x\234\205TMh\023A\024~of7I\363\237\264\264\036<H\300"
  44      4D681341 
  44      147E6F66 
  44      3749F39F 
  44      B4B41E3C 
  45 0016 534DADE0 		.ascii	"SM\255\340\317I\004\365\342\275\005\005Abl\227=\004"
ARM GAS  /tmp/ccfxbxQ2.s 			page 3


  45      CF4904F5 
  45      E2BD0505 
  45      41626C97 
  45      3D04
  46 0028 255591F6 		.ascii	"%U\221\366\220\211[h\017\026CNE/-\241\324\212\326\203"
  46      90895B68 
  46      0F16434E 
  46      452F2DA1 
  46      D48AD683 
  47 003c 67211584 		.ascii	"g!\025\204P\360\247\336\012\036\342E\017\202\024\374"
  47      50F0A7DE 
  47      0A1EE245 
  47      0F8214FC 
  48 004c 39D4E2FA 		.ascii	"9\324\342\372f&\223.\266\342\300\276\231y?\337\367\275"
  48      6626932E 
  48      B6E2C0BE 
  48      99793FDF 
  48      F7BD
  49 005e 99611930 		.ascii	"\231a\0310\370{\234\246\257n\001\014\321\214!@V{\003"
  49      F87B9CA6 
  49      AF6E010C 
  49      D18C2140 
  49      567B03
  50 0071 508D30B4 		.ascii	"P\2150\264\364\202\353\305Z\304b|n\015@Dm/\001\"n#J"
  50      F482EBC5 
  50      5AC4627C 
  50      6E0D4044 
  50      6D2F0122 
  51 0088 3F205418 		.ascii	"? T\030\267l\254\\B\011g\345`Q\210z\373\325\375\271"
  51      B76CAC5C 
  51      420967E5 
  51      6051887A 
  51      FBD5FDB9 
  52 009c 81F5B6A8 		.ascii	"\201\365\266\250\211\337\276\217.\022q\037B\021\341"
  52      89DFBE8F 
  52      2E12711F 
  52      4211E1
  53 00ab 226D30A2 		.ascii	"\"m0\242&&\013dz\263.V\205\340\013b\307\367\271\213"
  53      26260B64 
  53      7AB32E56 
  53      85E00B62 
  53      C7F7B98B 
  54 00bf 9CC1C17D 		.ascii	"\234\301\301}s\367\033\252\276\326\374\361=\"\352\242"
  54      73F71BAA 
  54      BED6FCF1 
  54      3D22EAA2 
  55 00cf BAE5FB29 		.ascii	"\272\345\373)\027-\006\271]\200\264\006`{\353D\275\371"
  55      172D06B9 
  55      5D80B406 
  55      607BEB44 
  55      BDF9
  56 00e1 F3F2BC98 		.ascii	"\363\362\274\230n\372\376\031E\233\377\037m\001\033"
  56      6EFAFE19 
  56      459BFF1F 
  56      6D011B
  57 00f0 988367AC 		.ascii	"\230\203g\254\331\366\375{\313\357\016\037@r-\223\213"
  57      D9F6FD7B 
ARM GAS  /tmp/ccfxbxQ2.s 			page 4


  57      CBEF0E1F 
  57      40722D93 
  57      8B
  58 0101 6309C102 		.ascii	"c\011\301\002\027\355\020\2550L\206\365Pl\221bqr\207"
  58      17ED10AD 
  58      304C86F5 
  58      506C9162 
  58      717287
  59 0114 12D224C9 		.ascii	"\022\322$\311@\212L8-MFn\263r\325+M\177\007\213\206"
  59      408A4C38 
  59      2D4D466E 
  59      B372D52B 
  59      4D7F078B 
  60 0129 0DD342D4 		.ascii	"\015\323B\324\016\025p\211\366\306[TbF\310\322\005\214"
  60      0E157089 
  60      F6C65B54 
  60      6246C8D2 
  60      058C
  61 013b 22A389BF 		.ascii	"\"\243\211\277\206\273\333\336\347MV\300\025\264\301"
  61      86BBDBDE 
  61      E74D56C0 
  61      15B4C1
  62 014a 416B0A26 		.ascii	"Ak\012&I\304 <\0264\256\270\030y\010\017\250\221\036"
  62      49C4203C 
  62      1634AEB8 
  62      1879080F 
  62      A8911E
  63 015d 07B96C28 		.ascii	"\007\271l(\252\332\270\032l\353-\3144\007u=\300\024"
  63      AADAB81A 
  63      6CEB2DCC 
  63      3407753D 
  63      C014
  64 016f 6C8B5991 		.ascii	"l\213Y\221v1VD\235D\230\016\206\034\014\313\362x\013"
  64      76315644 
  64      9D44980E 
  64      861C0CCB 
  64      F2780B
  65 0182 49694217 		.ascii	"IiB\027\216\"\007z\021\244\301\233\365~m`WtC\3115\220"
  65      8E22077A 
  65      11A4C19B 
  65      F57E6D60 
  65      577443C9 
  66 0198 8440EC28 		.ascii	"\204@\354(\313\371\202\304$\315\027\012\270JA\235Jq"
  66      CBF982C4 
  66      24CD170A 
  66      B84A419D 
  66      4A71
  67 01aa A9625EEC 		.ascii	"\251b^\354\314\304\264?\240#YDft\250\336R\272\250\223"
  67      CCC4B43F 
  67      A0235944 
  67      6674A8DE 
  67      52BAA893 
  68 01be A85051A5 		.ascii	"\250PQ\245\323xA\273\2649\264\3358#\315\031\305\373"
  68      D37841BB 
  68      B439B4DD 
  68      3823CD19 
  68      C5FB
ARM GAS  /tmp/ccfxbxQ2.s 			page 5


  69 01d0 D56BBC47 		.ascii	"\325k\274G\035r0\356\310\026\245zn\\\011\362\312\222"
  69      1D7230EE 
  69      C816A57A 
  69      6E5C09F2 
  69      CA92
  70 01e2 906F0656 		.ascii	"\220o\006VT\341\207\255\244\311I\346\341\010\201j\032"
  70      54E187AD 
  70      A4C949E6 
  70      E108816A 
  70      1A
  71 01f3 951C384C 		.ascii	"\225\0348L\3051iRS\224\255\030\236v\031\322\344\225"
  71      C5316952 
  71      5394AD18 
  71      9E7619D2 
  71      E495
  72 0205 45D90874 		.ascii	"E\331\010t\200\007L(\263\007\030\377\005\234utC\001"
  72      80074C28 
  72      B30718FF 
  72      059C7574 
  72      4301
  73 0217 E9BD0A3B 		.ascii	"\351\275\012;\033<\336<<\221\247r\214\330:\017\"\354"
  73      1B3CDE3C 
  73      3C91A772 
  73      8CD83A0F 
  73      22EC
  74 0229 62EFFE0F 		.ascii	"b\357\376\017\302\\v\347n%\240\204z\371\205\005\257"
  74      C25C76E7 
  74      6E25A084 
  74      7AF98505 
  74      AF
  75 023a EA383C17 		.ascii	"\3528<\027\263\362HA\263{\337>v\237^\277\271d\243z\024"
  75      B3F24841 
  75      B37BDF3E 
  75      769F5EBF 
  75      B964A37A 
  76 024f 2DA05F04 		.ascii	"-\240_\004o\301\364\247j\314\244\351\034\273\333\330"
  76      6FC1F4A7 
  76      6ACCA4E9 
  76      1CBBDBD8 
  77 025f 26982AF6 		.ascii	"&\230*\366\210\023\012o\331\262\324\326\257[\361\257"
  77      88130A6F 
  77      D9B2D4D6 
  77      AF5BF1AF 
  78 026f 28FEA500 		.ascii	"(\376\245\000?\375\257`\003\252\355\365\250\216J\204"
  78      3FFDAF60 
  78      03AAEDF5 
  78      A88E4A84 
  79 027f 3E833842 		.ascii	">\2038B\315x\011\371j2\347\313\356\355\261\362\304\321"
  79      CD7809F9 
  79      6A32E7CB 
  79      EEEDB1F2 
  79      C4D1
  80 0291 D2C48993 		.ascii	"\322\304\211\223\303\247\206\212\020\276y\347\\\351"
  80      C3A7868A 
  80      10BE79E7 
  80      5CE9
  81 029f DAD0B0AD 		.ascii	"\332\320\260\255\346\350\215\362\365\322\331[\343\343"
ARM GAS  /tmp/ccfxbxQ2.s 			page 6


  81      E6E88DF2 
  81      F5D2D95B 
  81      E3E3
  82 02ad 636574FF 		.ascii	"cet\377\000\374[\017\011"
  82      00FC5B0F 
  82      09
  83              		.text
  84              		.section	.gnu.lto_ms5607_stop.d016aea9906b8342,"",%progbits
  85 0000 789C6362 		.ascii	"x\234cb`b@\007\222@|\005\210\205\201\230\221\231\201"
  85      60624007 
  85      92407C05 
  85      88858198 
  85      919981
  86 0013 9169C239 		.ascii	"\221i\3029\006\206F\016&FF\020\203\201\221\241\236\211"
  86      0686460E 
  86      26464610 
  86      838191A1 
  86      9E89
  87 0025 B13E9211 		.ascii	"\261>\222\021\254v=\323\201\007\377\377\257\333\324"
  87      AC763DD3 
  87      8107FFFF 
  87      AFDBD4
  88 0034 FA88958D 		.ascii	"\372\210\225\215\2211\227\021h\\&#\003\013\220\005\222"
  88      91319711 
  88      685C2623 
  88      030B9005 
  88      92
  89 0045 67656869 		.ascii	"gehih\230\240\300\300\220\014V\035\002$AF\20422\201"
  89      6898A0C0 
  89      C0900C56 
  89      1D022441 
  89      46843232 
  90 005a 68E6B30C 		.ascii	"h\346\263\014M\277\232_\337bJd\\\310\310\312\220\316"
  90      4DBF9A5F 
  90      DF624A64 
  90      5CC8C8CA 
  90      90CE
  91 006c C854CD50 		.ascii	"\310T\315P\005\324\255\315\260\252\001\010b3\031\031"
  91      05D4ADCD 
  91      B0AA0108 
  91      62331919 
  92 007c 6733CC62 		.ascii	"g3\314b\314ddJgd\214\000\322\314`+\223\030\221\334z"
  92      CC64644A 
  92      67648C00 
  92      D2CC602B 
  92      931891DC 
  93 0091 9EA1F580 		.ascii	"\236\241\365\2006D?\003C5\303\257\206\216\006\201LF"
  93      36443F03 
  93      4335C3AF 
  93      868E0681 
  93      4C46
  94 00a3 96644688 		.ascii	"\226dF\210\242t\220^\226L\220\354E\206\306\007\267\271"
  94      A274905E 
  94      964C90EC 
  94      4586C607 
  94      B7B9
  95 00b5 204A4186 		.ascii	" JA\206\261\301\214\010\001\252\005\272\006\024\016"
ARM GAS  /tmp/ccfxbxQ2.s 			page 7


  95      B1C18C08 
  95      01AA05BA 
  95      06140E
  96 00c4 822E4599 		.ascii	"\202.E\231e\251E\305\372\271\305\246f\006\346z\311\014"
  96      65A945C5 
  96      FAB9C5A6 
  96      6606E67A 
  96      C90C
  97 00d6 00CDB136 		.ascii	"\000\315\2616\317"
  97      CF
  98              		.text
  99              		.section	.gnu.lto_ms5607_reset.d016aea9906b8342,"",%progbits
 100 0000 789C5D51 		.ascii	"x\234]Q=K\003A\020}o/\027/\026\242 \210 \"\266\202Z"
 100      3D4B0341 
 100      107D6F2F 
 100      172F16A2 
 100      20882022 
 101 0017 A8F901FA 		.ascii	"\250\371\001\372\023\"\3042\306\020\256\270\346N,\014"
 101      1322C432 
 101      C610AEB8 
 101      E64E2C0C 
 102 0027 928D5AA4 		.ascii	"\222\215Z\244\222\240\215\230*\210\215 \0266\001\233"
 102      92A08D98 
 102      2A888D20 
 102      1636019B 
 103 0037 60ED679D 		.ascii	"`\355g\235&\275\245\335\025\236\263\267*\321\201\235"
 103      26BDA5DD 
 103      159EB3B7 
 103      2AD1819D 
 104 0047 D961DEBE 		.ascii	"\331a\336\276\367\206UP\370\037\323r\"\0023R\351\200"
 104      F7865550 
 104      F81FD372 
 104      22023352 
 104      E980
 105 0059 AAF50C34 		.ascii	"\252\365\0144<E\232\013\210\272b}\213\006\312ytt\357"
 105      3C459A0B 
 105      88BA627D 
 105      8B06CA79 
 105      7474EF
 106 006c 7470D53F 		.ascii	"tp\325?\231\322\003\335\322\237IB\237B:I\224\211\242"
 106      99D203DD 
 106      D29F4942 
 106      9F423A49 
 106      9489A2
 107 007f 34F4D2A2 		.ascii	"4\364\322\242\370W\345V\365\006I\362x\363\232\367\034"
 107      F857E556 
 107      F50649F2 
 107      78F39AF7 
 107      1C
 108 0090 0644063E 		.ascii	"\006D\006>\235\254\244\214\014]\034k\335\232+\261#\012"
 108      9DACA48C 
 108      0C5D1C6B 
 108      DD9A2BB1 
 108      230A
 109 00a2 304C1205 		.ascii	"0L\022\005\311\306\301&\225\251\316\023\016\273\335"
 109      C9C6C126 
 109      95A9CE13 
ARM GAS  /tmp/ccfxbxQ2.s 			page 8


 109      0EBBDD
 110 00b1 FE588997 		.ascii	"\376X\211\227ta\241F\010\263\202\225Y|t\377\341\330"
 110      7461A146 
 110      08B38295 
 110      597C74FF 
 110      E1D8
 111 00c3 6195991A 		.ascii	"a\225\231\032\366\205\177\001\327Z\342L`n\033\027R\262"
 111      F6857F01 
 111      D75AE24C 
 111      606E1B17 
 111      52B2
 112 00d5 553AE6D5 		.ascii	"U:\346\325Hjj{\330\344\013\316u\361\207 [C\254\233z"
 112      486A6A7B 
 112      D8E40BCE 
 112      75F18720 
 112      5B43AC9B 
 113 00ea DCA757A6 		.ascii	"\334\247W\246E\245\254\261\341;\360\231\263\006,\334"
 113      45A5ACB1 
 113      E13BF099 
 113      B3062CDC 
 114 00fa FAB0EBE7 		.ascii	"\372\260\353\347\276;\310j\243\306\330\303\273\032\266"
 114      BE3BC86A 
 114      A3C6D8C3 
 114      BB1AB6
 115 0109 BC823BDD 		.ascii	"\274\202;\335\264\000\274\241\321s\177\025\255\213\202"
 115      B400BCA1 
 115      D1737F15 
 115      AD8B82
 116 0118 A8C9B6E6 		.ascii	"\250\311\266\346\233&6B\177\257\022FKA\264\272\266\234"
 116      9B263642 
 116      7FAF1246 
 116      4B41B4BA 
 116      B69C
 117 012a 5F2CC30B 		.ascii	"_,\303\013+Qew=\330\371\002\007c^/"
 117      2B516577 
 117      3DD8F902 
 117      07635E2F 
 118              		.text
 119              		.section	.gnu.lto_ms5607_readPressure.d016aea9906b8342,"",%progbits
 120 0000 789C9D57 		.ascii	"x\234\235W{lTe\026\377\276{g:\323i\261E\352\322\226"
 120      7B6C5465 
 120      16FFBE7B 
 120      673AD369 
 120      B145EAD2 
 121 0015 F2AA0F28 		.ascii	"\362\252\017(\257\322J\251\250\274\344\251\362\246\225"
 121      AFD24AA9 
 121      A8BCE4A9 
 121      F2A695
 122 0024 22A20CED 		.ascii	"\"\242\014\355P\212\024qZw\023\311\206[\247\251]\003"
 122      508A1471 
 122      5A7713C9 
 122      865BA7A9 
 122      5D03
 123 0036 E364FF11 		.ascii	"\343d\377\021\021\343\243\032WXl\200ei\027\215S\262"
 123      11E3A31A 
 123      57586C80 
 123      6569178D 
ARM GAS  /tmp/ccfxbxQ2.s 			page 9


 123      53B2
 124 0048 A226CB6E 		.ascii	"\242&\313n\335%YX\033m4V\226\032\266qWS\353c<\347|\217"
 124      DD255958 
 124      1B6D3456 
 124      961AB671 
 124      5753EB63 
 125 0060 3B733B84 		.ascii	";s;\204a\233\364\334\371\316\343w~\347\334\363}\367"
 125      619BF4DC 
 125      F9CEE377 
 125      7EE7DCF3 
 125      7DF7
 126 0072 5E8319CC 		.ascii	"^\203\031\314\371\327\014\377\2159\214\005\340\3123"
 126      F9D70CFF 
 126      8D398C05 
 126      E0CA33
 127 0081 1837227F 		.ascii	"\0307\"\177e\254\311k\030\346\371bf\371|o\217cV\246"
 127      65ACC96B 
 127      18E6F962 
 127      66F97C6F 
 127      8F6356A6 
 128 0095 69B85A27 		.ascii	"i\270Z'\301*\015e\246\313p\307\255\334<M\204\244\031"
 128      C12A0D65 
 128      A6CB70C7 
 128      ADDC3C4D 
 128      84A419
 129 00a8 9E3F9C61 		.ascii	"\236?\234a\240\367\366d\200\336\303\275B\3575\322\017"
 129      A0F7F664 
 129      80DEC3BD 
 129      42EF35D2 
 129      0F
 130 00b9 9E45BDEF 		.ascii	"\236E\275\357[\017\350\323\271O\350}\234\343\017\306"
 130      5B0FE8D3 
 130      B94FE87D 
 130      9CE30FC6 
 131 00c9 D95EC374 		.ascii	"\331^\303t\271\323<\336t\037\337\273\221#\253\033\012"
 131      B9D33CDE 
 131      741FDFBB 
 131      9123AB1B 
 131      0A
 132 00da D92B56F4 		.ascii	"\331+V\364\267\275\357}\032\036m\365Z\021\353\247X\214"
 132      B7BDEF7D 
 132      1A1E6DF5 
 132      5A11EBA7 
 132      588C
 133 00ec D771E09F 		.ascii	"\327q\340\237\303Y5gU\260\340^\272\030<\261 \212\214"
 133      C3593567 
 133      55B0E05E 
 133      BA183CB1 
 133      208A8C
 134 00ff 447F727F 		.ascii	"D\177r\177`5Gc\261\371u\3344X\201\035\225+\242\314\244"
 134      60354763 
 134      B1F975DC 
 134      3458811D 
 134      952BA2CC 
 135 0114 5191A591 		.ascii	"Q\221\245\221\246V+\026\333KQE\251DY\221\350sg\367\347"
 135      A6562B16 
 135      DB4B5145 
ARM GAS  /tmp/ccfxbxQ2.s 			page 10


 135      A9445991 
 135      E87367F7 
 136 0129 592F3FA5 		.ascii	"Y/?\245X\272\014VjGN\020\221\256\244\221\037\265$D\272"
 136      58BA0C56 
 136      6A474E10 
 136      91AEA491 
 136      1FB52444 
 137 013e 0D3627C5 		.ascii	"\0156'\305\310\277\237\315\324T!l^\212a\347[FDZ\254"
 137      C8BF9FCD 
 137      D454216C 
 137      5E8A61E7 
 137      5B46445A 
 138 0153 A681582C 		.ascii	"\246\201X,\253\216\247\031l\221\035\267@\304y\223\305"
 138      AB8EA719 
 138      6C911DB7 
 138      40C47993 
 138      C5
 139 0164 59EF6E6F 		.ascii	"Y\357no\015E\255\301X\314Ca\313R\013\213\376sX}+R$z"
 139      0D45ADC1 
 139      58CC4361 
 139      CB520B8B 
 139      FE73587D 
 140 017c 21B1BED5 		.ascii	"!\261\276\325)\206\365$\206\255K1\354\223\304\260\015"
 140      2986F524 
 140      86AD4B31 
 140      EC93C4B0 
 140      0D
 141 018d 2986FDD8 		.ascii	")\206\375\330\362\254\243\274\315)F\276\360\276\263"
 141      F2ACA3BC 
 141      CD2946BE 
 141      F0BEB3
 142 019c 31FE6B45 		.ascii	"1\376kE\266\033\321\336X\254\247\275\373G\036\344\340"
 142      B61BD1DE 
 142      58ACA7BD 
 142      FB471EE4 
 142      E0
 143 01ad 7E941732 		.ascii	"~\224\0272\014k\207\253\011\327cp\365\362z\316\322Y"
 143      0C6B87AB 
 143      09D76370 
 143      F5F27ACE 
 143      D259
 144 01bf 1DF76480 		.ascii	"\035\367d\200\346\015\320d\301\302\233-\027\243p\221"
 144      E60DD064 
 144      C1C29B2D 
 144      17A37091 
 145 01cf 2317B9B8 		.ascii	"#\027\271\270\310\223\213|X\244\217\001\341+@1\026\227"
 145      C8938B7C 
 145      58A48F01 
 145      E12B4031 
 145      1697
 146 01e1 E3F0D778 		.ascii	"\343\360\327x\024\023PLD]!\376\272\031\202\336\204\240"
 146      1413504C 
 146      445D21FE 
 146      BA1982DE 
 146      84A0
 147 01f3 5B50732B 		.ascii	"[Ps+jnC1\011\227\223\361W\021\212)(\246\242n\032\376"
 147      6A6E4331 
ARM GAS  /tmp/ccfxbxQ2.s 			page 11


 147      099793F1 
 147      57118A29 
 147      28A6A26E 
 148 0209 9A0E4147 		.ascii	"\232\016AG h\006,2\212Q3\023E\011\250O\200\272\024\325"
 148      2068062C 
 148      328A5133 
 148      134509A8 
 148      4F80BA14 
 149 021e B723A559 		.ascii	"\267#\245Y(\312P\314\006\333I\260\225\243\355\016\364"
 149      28CA50CC 
 149      06DB49B0 
 149      95A3ED0E 
 149      F4
 150 022f 9E83E24E 		.ascii	"\236\203\342N\\\336\205\016w\243\230\213b\036\212\371"
 150      5CDE850E 
 150      77A3988B 
 150      621E8AF9 
 151 023f B22B0BD0 		.ascii	"\262+\013\320a!\272\336\203b\021.\027\243\303\022\024"
 151      6121BADE 
 151      8362112E 
 151      17A3C312 
 151      14
 152 0250 4B512C43 		.ascii	"KQ,C\261\\v\357^\270v\302\365>T\336\017\"s\005\212\225"
 152      B15C76EF 
 152      5EB876C2 
 152      F53E54DE 
 152      0F227305 
 153 0266 B2A9AB50 		.ascii	"\262\251\253P\275\032\305\032\020#\326\312,\353P\263"
 153      BD1AC51A 
 153      1023D6CA 
 153      2CEB50B3 
 154 0276 1E351512 		.ascii	"\0365\025\022\247\022\256\247\341\372\200\274n@\217"
 154      A712AEA7 
 154      E1FA80BC 
 154      6E408F
 155 0285 2AF4D828 		.ascii	"*\364\330(c\036D\315&\324<$c6\313\032\037F\345#(\266"
 155      631E44CD 
 155      26D43C24 
 155      6336CB1A 
 155      1F46E523 
 156 029b A0F0A3D8 		.ascii	"\240\360\243\330\212\242\032\034N\201C\015,n\010\240"
 156      8AA21A1C 
 156      4E81430D 
 156      2C6E08A0 
 157 02ab A845B11D 		.ascii	"\250E\261\035\305\016\270\335|'\010\243\036\2270$n\326"
 157      C50EB8DD 
 157      7C2708A3 
 157      1E973024 
 157      6ED6
 158 02bd 0CE335C1 		.ascii	"\014\3435\301\317_\201\020?o#\371:I\274\315\014g\014"
 158      CF5F8110 
 158      3F6F23F9 
 158      3A49BCCD 
 158      0C670C
 159 02d0 FE2A40E2 		.ascii	"\376*@\342\341[\311\015\274\232\347\330S\035\027>\273"
 159      E15BC90D 
 159      BC9AE7D8 
ARM GAS  /tmp/ccfxbxQ2.s 			page 12


 159      531D173E 
 159      BB
 160 02e1 C4FDFC1D 		.ascii	"\304\375\374\035\356f\"\032g\220U\2013\030\207B\355"
 160      EE66221A 
 160      67905581 
 160      33188742 
 160      ED
 161 02f2 FB560963 		.ascii	"\373V\011c-O\337\303\236\204\011\233\312\016[\360w\022"
 161      2D4FDFC3 
 161      9E84099B 
 161      CA0E5BF0 
 161      7712
 162 0304 DCB25E60 		.ascii	"\334\262^`\007\341\222]\013\345\302u$\315\353\326\370"
 162      07E1925D 
 162      0BE5C275 
 162      24CDEBD6 
 162      F8
 163 0315 83F96FEC 		.ascii	"\203\371o\354\200\325a*\204\214=l\310j\265\262\353\370"
 163      80D5612A 
 163      848C3D6C 
 163      C86AB5B2 
 163      EBF8
 164 0327 8DD55CB8 		.ascii	"\215\325\\\270\021\354\020\002\276\010\010\243T\001"
 164      11EC1002 
 164      BE0808A3 
 164      5401
 165 0335 E82F9888 		.ascii	"\350/\230\210\2751J\256\030\324\233\203\260\315\275"
 165      BD314AAE 
 165      18D49B83 
 165      B0CDBD
 166 0344 FBDA246D 		.ascii	"\373\332$m\3064\354M\325\\<\352\3209s\0278\377\202\352"
 166      C634EC4D 
 166      D55C3CEA 
 166      D0397317 
 166      38FF82EA 
 167 0358 E8E8F83C 		.ascii	"\350\350\370<I\221\212\340W\307^3\024\305\254\253P|"
 167      49918AE0 
 167      57C75E33 
 167      14C5ACAB 
 167      507C
 168 036a F22AE4C8 		.ascii	"\362*\344\3102Z\365\332\266\230\202\3509\026\352\014"
 168      325AF5DA 
 168      B69882E8 
 168      3916EA0C 
 169 037a 05153834 		.ascii	"\005\02584*\013\272 (\035\350KBi\271\244t\350\204Mi"
 169      2A0BBA20 
 169      281DE84B 
 169      4269B9A4 
 169      74E8844D 
 170 038f D475524A 		.ascii	"\324uRJ\322\257D\0329\200\011dD\033\017^O\033\007\223"
 170      D2AF441A 
 170      39800964 
 170      441B0F5E 
 170      4F1B0793 
 171 03a3 71566DFC 		.ascii	"qVm\374K\034\347\334\377\263\215m\251\2641\017\360k"
 171      4B1CE7DC 
 171      FFB38D6D 
ARM GAS  /tmp/ccfxbxQ2.s 			page 13


 171      A9B4310F 
 171      F06B
 172 03b5 51FD01FB 		.ascii	"Q\375\001\373\363\227]\357\234\325\363\225\2071\011"
 172      F3975DEF 
 172      9CD5F395 
 172      873109
 173 03c4 4FA44A6E 		.ascii	"O\244Jn\262\363\3058\347=\007.w\233z\233\274Iy\216\220"
 173      B2F3C538 
 173      E73D072E 
 173      779B7A9B 
 173      BC49798E 
 174 03d9 3C4AB29D 		.ascii	"<J\262\235\3441\222'H\236$y\212\266\217j\021$\311\237"
 174      E4319227 
 174      489E2479 
 174      8AB68F6A 
 174      1124C99F 
 175 03ed CEA6D571 		.ascii	"\316\246\325q\271\2750\241/.\037$\272\022\032\202\036"
 175      B9BD30A1 
 175      2F2E1F24 
 175      BA121A82 
 175      1E
 176 03fe 9D234263 		.ascii	"\235#Bc\300\235\330\0375\225\252\000\264\024\225-\334"
 176      C09DD81F 
 176      3595AA00 
 176      B414952D 
 176      DC
 177 040f 7B22F9CA 		.ascii	"{\"\371\3124v\0302w \037\3270\343\300\335\201<\036\264"
 177      34761832 
 177      77201FD7 
 177      30E3C0DD 
 177      813C1EB4 
 178 0423 14E525F7 		.ascii	"\024\345%\367Pk\350\217\206\262M\240\304\343e\306j\245"
 178      506BE88F 
 178      86B24DA0 
 178      C4E365C6 
 178      6AA5
 179 0435 9E382CA3 		.ascii	"\2368,\243\341\310\270C\271\026\202\267\200\325\011"
 179      E1C8B843 
 179      B91682B7 
 179      80D509
 180 0444 6F26DC42 		.ascii	"o&\334B\001\332qy@\033nQ\260mWk\321a\315\354Vpw\024"
 180      01DA7179 
 180      401B6E51 
 180      B06D576B 
 180      D161CDEC 
 181 045c 721B6813 		.ascii	"r\033h\023[4N\231&\015Cv\266\350k\0153\031\334\035\310"
 181      5B344E99 
 181      260D4376 
 181      B6E86B0D 
 181      3319DC1D 
 182 0471 45A04D6C 		.ascii	"E\240MlQ\237&2\205\022\027\311\214\272\356\251\3032"
 182      519F2632 
 182      851217C9 
 182      8CBAEEA9 
 182      C332
 183 0483 5EB545D3 		.ascii	"^\265E\323\300\333\321\242\351\204;M\200\036\350\277"
 183      C0DBD1A2 
ARM GAS  /tmp/ccfxbxQ2.s 			page 14


 183      E9843B4D 
 183      801EE8BF 
 184 0493 A40D3308 		.ascii	"\244\0153\0106W\036\246\217\327\361\274\344g)\327\373"
 184      36571EA6 
 184      8FD7F1BC 
 184      E46729D7 
 184      FB
 185 04a4 D0E772E4 		.ascii	"\320\347r\344=\256\307\254\030\360D\245\241Wu=3A\037"
 185      3DAEC7AC 
 185      18F044A5 
 185      A157753D 
 185      33411F
 186 04b7 5FEB6F6C 		.ascii	"_\353ol\242%t\357f\012V\027\372\273]\312P\232\300jO"
 186      A22574EF 
 186      660A5617 
 186      FABB5DCA 
 186      509AC06A 
 187 04cc 2AACDC0E 		.ascii	"*\254\334\016VW4\253\333\001\2172?\243\253\236E\332"
 187      565734AB 
 187      DB018F32 
 187      3FA3AB9E 
 187      45DA
 188 04de 12D2BE15 		.ascii	"\022\322\276\0257\236e`\"\264\321\352\276h\256\263\301"
 188      379E6560 
 188      22B4D1EA 
 188      BE68AEB3 
 188      C1
 189 04ef 4ADBBA3B 		.ascii	"J\333\272;KNC\307\225A\235\243<\201pY*\204\235\003\363"
 189      4B4E43C7 
 189      95419DA3 
 189      3C817059 
 189      2A849D03 
 190 0504 9906BB03 		.ascii	"\231\006\273\003\360d\033\017k\345\034\320S\334H\231"
 190      F0641B0F 
 190      6BE51CD0 
 190      53DC4899 
 191 0514 BEFB4665 		.ascii	"\276\373Fe\272\363\372\273e:\222\333-\270\013\360\034"
 191      BAF3FABB 
 191      653A92DB 
 191      2DB80BF0 
 191      1C
 192 0525 DDBA9BB4 		.ascii	"\335\272\233\264\252[\366\244\316\005\023\241\245\251"
 192      AA5BF6A4 
 192      CE0513A1 
 192      A5A9
 193 0533 6ED935CC 		.ascii	"n\3315\314#\306s%\274>Z\346\203E\336\356+Q\015\264 "
 193      23C67325 
 193      BC3E5AE6 
 193      8345DEEE 
 193      2B510DB4 
 194 0548 A180F254 		.ascii	"\241\200\362T\012pn\344>\235y!\340\311\356\275\245\225"
 194      0A706EE4 
 194      3E9D7921 
 194      E0C9EEBD 
 194      A595
 195 055a F7803E61 		.ascii	"\367\200>a+\017\350\356-JH\376\353T\222;w\336\237t%"
 195      2B0FE8EE 
ARM GAS  /tmp/ccfxbxQ2.s 			page 15


 195      2D4A48FE 
 195      EB54923B 
 195      77DE9F74 
 196 056f 8B01CFD1 		.ascii	"\213\001\317\321\275%\244U\335\273\254]\227\202\211"
 196      BD25A455 
 196      DDBBAC5D 
 196      978289
 197 057e D03CFA0C 		.ascii	"\320<\372\014\320t\227\021\343\245\022^\237:\313\301"
 197      D0749711 
 197      E3A5125E 
 197      9F3ACBC1 
 198 058e 824F9BE6 		.ascii	"\202O\233\346\276\256\357Z4\320lDq\277t(\376}\247\222"
 198      BEAEEF5A 
 198      34D06C44 
 198      71BF7428 
 198      FE7DA792 
 199 05a2 BBD8E5D1 		.ascii	"\273\330\345\321&\022\011\305\366\347\353\347M\247|"
 199      261209C5 
 199      F6E7EBE7 
 199      4DA77C
 200 05b1 8A9C534F 		.ascii	"\212\234SO\221{i\350\313\004\347P[x\254\237\367\021"
 200      917B69E8 
 200      CB04E750 
 200      5B78AC9F 
 200      F711
 201 05c3 EA7DB43D 		.ascii	"\352}\264=K$\205W\271\322\337\017&\362\336o*\325\012"
 201      4B248557 
 201      B9D2DF0F 
 201      26F2DE6F 
 201      2AD50A
 202 05d6 D0D2131A 		.ascii	"\320\322\023\032\033\350UM\331\246\314+\301C\342\277"
 202      1BE8554D 
 202      D9A6CC2B 
 202      C143E2BF 
 203 05e6 111EAFB4 		.ascii	"\021\036\257\264\253 7\355\247\271\242\374\375t\267"
 203      AB2037ED 
 203      A7B9A2FC 
 203      FD74B7
 204 05f5 846D3598 		.ascii	"\204m5\230\311\226\035w\266\011\323\032\260\212cD\247"
 204      C9961D77 
 204      B609D31A 
 204      B08A6344 
 204      A7
 205 0606 5F4B63B5 		.ascii	"_Kc\265F\2468b\247X\247R\030\012f\2272\255\007\253\003"
 205      46A63862 
 205      A758A752 
 205      180A6697 
 205      32AD07AB 
 206 061b A682FABB 		.ascii	"\246\202\372\273\236\236\346_t=\367t\2462P\177\275\227"
 206      9E9EE65F 
 206      743DF774 
 206      A632507F 
 206      BD97
 207 062d 9E89893F 		.ascii	"\236\211\211?\2767\276\315n\366M\206Iw\357Tx\214n\363"
 207      BE37BECD 
 207      6EF64D86 
 207      4977EF54 
ARM GAS  /tmp/ccfxbxQ2.s 			page 16


 207      788C6EF3 
 208 0641 69D9E63E 		.ascii	"i\331\346>\325\346Jyz\270\377g2I\364t8\327\317\277\244"
 208      D5E64A79 
 208      7AB8FF67 
 208      3249F474 
 208      38D7CFBF 
 209 0656 0C0F9043 		.ascii	"\014\017\220C\2454\274\033.P\206\015`\243\354Y\314\236"
 209      A534BC1B 
 209      2E50860D 
 209      60A3EC59 
 209      CC9E
 210 0668 0561AA02 		.ascii	"\005a\252\002\253\256@\2506R/\252$\314\3476\314\203"
 210      ABAE40A8 
 210      36522FAA 
 210      24CCE736 
 210      CC83
 211 067a 0A46DF9C 		.ascii	"\012F\337\234\255\312\264\011\254\016\230\207\250\027"
 211      ADCAB409 
 211      AC0E9887 
 211      A817
 212 0688 9B548569 		.ascii	"\233T\205i\342\305\005\316\355\377\204=j\3466\323\201"
 212      E2C505CE 
 212      EDFF843D 
 212      6AE636D3 
 212      81
 213 0699 684AB4FF 		.ascii	"hJ\264\377\206\213\224\341ax\32686\300#\2445\344\006"
 213      868B94E1 
 213      6178D638 
 213      36C023A4 
 213      35E406
 214 06ac B08F882D 		.ascii	"\260\217\210-`\242\015p\223z0\330/,~2s\031s\\\317\372"
 214      60A20D70 
 214      937A30D8 
 214      2F2C7E32 
 214      7319735C 
 215 06c2 5630518C 		.ascii	"V0Q\214lH?V\"L\325`%\335\357B\261\360d\245\255\001\256"
 215      6C483F56 
 215      224CD560 
 215      25DDEF42 
 215      B1F064A5 
 216 06d9 B2215F6B 		.ascii	"\262!_k\364\000\350\363\331\363\360b\030\351\306;\312"
 216      F400E8F3 
 216      D9F3F062 
 216      18E9C63B 
 216      CA
 217 06ea 184EAE15 		.ascii	"\030N\256\025=\323\337\306\305w\014\300|\330-\253\225"
 217      3DD3DFC6 
 217      C5770CC0 
 217      7CD82DAB 
 217      95
 218 06fb 2783072C 		.ascii	"'\203\007,\311O\006q\034\000\254L\337\366\254nG-\360"
 218      C94F0671 
 218      1C00AC4C 
 218      DFF6AC6E 
 218      472DF0
 219 070e 92E9EDE2 		.ascii	"\222\351\355\342\266\203\376\332\351\007RMo\312\364"
 219      B683FEDA 
ARM GAS  /tmp/ccfxbxQ2.s 			page 17


 219      E907524D 
 219      6FCAF4
 220 071d DBE968F8 		.ascii	"\333\351h\370\252\353\037O\353v\355@\277|{^/2\016\233"
 220      AAEB1F4F 
 220      EB76ED40 
 220      BF7C7B5E 
 220      2F320E9B 
 221 0731 C53C740A 		.ascii	"\305<t\012\336[\327\272\016u\002\223\215\356\037:\013"
 221      DE5BD7BA 
 221      0E750293 
 221      8DEE1F3A 
 221      0B
 222 0742 2E3203A6 		.ascii	".2\003\246\337|\255\034n\275\353\367\235;a\010\334\373"
 222      DF7CAD1C 
 222      6EBDEBF7 
 222      9D3B6108 
 222      DCFB
 223 0754 4E6FB9C8 		.ascii	"No\271\310L\032Z\306\314\267O\202\357J\327\276Nh\350"
 223      4C1A5AC6 
 223      CCB74F82 
 223      EF4AD7BE 
 223      4E68E8
 224 0767 4A370D86 		.ascii	"J7\015\206\207uM\3067\332\017\007\207\324Q\016\004\233"
 224      87754DC6 
 224      37DA0F07 
 224      87D4510E 
 224      049B
 225 0779 80EB08FC 		.ascii	"\200\353\010\374J\214ON\344\3048yq\234\210\347\3076"
 225      4A8C4F4E 
 225      E4C43879 
 225      719C88E7 
 225      C736
 226 078b CF9D0E9E 		.ascii	"\317\235\016\236\350\230\316\376=\005\341\3775\370\375"
 226      E898CEFE 
 226      3D05E1FF 
 226      35F8FD
 227 079a 8076AC9F 		.ascii	"\200v\254\237\312\246\\\343>\310\356\371\2220\332\031"
 227      CAA65CE3 
 227      3EC8EEF9 
 227      9230DA19 
 228 07aa CFA85E25 		.ascii	"\317\250^%\362\311O\3203\375F\3747\305,v\302j\225\337"
 228      F2C94FD0 
 228      33FD46FC 
 228      37C52C76 
 228      C26A95DF 
 229 07be 1509C6B6 		.ascii	"\025\011\306\2668\243\3514\276\3560~\304\232z\207\324"
 229      38A3E934 
 229      BEEE307E 
 229      C49A7A87 
 229      D4
 230 07cf A7       		.ascii	"\247"
 231 07d0 0DA6D76F 		.ascii	"\015\246\327oO\0250\336\220\030I\217\\\034\254\373e"
 231      4F1530DE 
 231      9018498F 
 231      5C1CACFB 
 231      65
 232 07e1 20D8505C 		.ascii	" \330P\\\337P6{f\371\214j\346\011\006j\027\326\324\004"
ARM GAS  /tmp/ccfxbxQ2.s 			page 18


 232      DF50367B 
 232      66F98C6A 
 232      E609066A 
 232      17D6D404 
 233 07f5 33770703 		.ascii	"3w\007\003\015\015O\004\003\213\375\215~oc\240~7\376"
 233      0D0D4F04 
 233      038BFD8D 
 233      7E6F63A0 
 233      7E37FE
 234 0808 486B68F4 		.ascii	"Hkh\3647>\321\340j\014\372\177\345\332\015\302|l\333"
 234      373ED1E0 
 234      6A0CFA7F 
 234      E5DA0DC2 
 234      7C6CDB
 235 081b 36574360 		.ascii	"6WC`W\203QQj\324T\270\320\321M\241fc\351\243\256\306"
 235      57835151 
 235      6AD454B8 
 235      D0D14DA1 
 235      6663E9A3 
 236 0831 9247CB7E 		.ascii	"\222G\313~\006O\357\336\205"
 236      064FEFDE 
 236      85
 237              		.text
 238              		.section	.gnu.lto_ms5607_readTemperature.d016aea9906b8342,"",%progbits
 239 0000 789C6362 		.ascii	"x\234cb`b@\007\222@\034\015\304\302@\314\310\314\300"
 239      60624007 
 239      92401C0D 
 239      C4C240CC 
 239      C8CCC0
 240 0013 C834E11C 		.ascii	"\3104\341\034\003C#\007\023##\210\301\300\310P\317\304"
 240      03432307 
 240      13232388 
 240      C1C0C850 
 240      CFC4
 241 0025 581FC908 		.ascii	"X\037\311\010V\273\236\351\300\203\377\377\327M:\265"
 241      56BB9EE9 
 241      C083FFFF 
 241      D74D3AB5 
 242 0035 A0879109 		.ascii	"\240\207\221\011d\024+CKC\303\004\005\006\206d\260\202"
 242      64142B43 
 242      4B43C304 
 242      05068664 
 242      B082
 243 0047 102009D2 		.ascii	"\020 \011\322\025\312\310\004\242\231/24>\350^\312\230"
 243      15CAC804 
 243      A2992F32 
 243      343EE85E 
 243      CA98
 244 0059 C8B89091 		.ascii	"\310\270\220\221\225!\2021\223\021nk\010##H\005\310"
 244      95218231 
 244      93116E6B 
 244      08232348 
 244      05C8
 245 006b 0C4197A2 		.ascii	"\014A\227\242\314\262\324\242b\375\334bS3\003s\275d"
 245      CCB2D4A2 
 245      62FDDC62 
 245      53330373 
ARM GAS  /tmp/ccfxbxQ2.s 			page 19


 245      BD64
 246 007d 06007916 		.ascii	"\006\000y\026\037\022"
 246      1F12
 247              		.text
 248              		.section	.gnu.lto_ms5607_readPROMValues.d016aea9906b8342,"",%progbits
 249 0000 789C6362 		.ascii	"x\234cb`b@\007\222@\034\015\304\302@\314\310\314\300"
 249      60624007 
 249      92401C0D 
 249      C4C240CC 
 249      C8CCC0
 250 0013 C834E11C 		.ascii	"\3104\341\034\003C#\007\023##\210\301\300\310P\317\304"
 250      03432307 
 250      13232388 
 250      C1C0C850 
 250      CFC4
 251 0025 581FC908 		.ascii	"X\037\311\010V\273\236\351\300\203\377\377\327m9\265"
 251      56BB9EE9 
 251      C083FFFF 
 251      D76D39B5 
 252 0035 602E2313 		.ascii	"`.#\023\310(V\206\226\206\206\011\012\014\014\311`\005"
 252      C8285686 
 252      96868609 
 252      0A0C0CC9 
 252      6005
 253 0047 214012A4 		.ascii	"!@\022\244+\224\221\011D3_dh|0g)c\"\343BFV\206\010\306"
 253      2B949109 
 253      44335F64 
 253      687C3067 
 253      296322E3 
 254 0061 4C46B8AD 		.ascii	"LF\270\255!\214\214 \025 3\004]\2122\313R\213\212\365"
 254      218C8C20 
 254      15203304 
 254      5D8A32CB 
 254      528B8AF5 
 255 0075 738B4DCD 		.ascii	"s\213M\315\014\314\365\222\031\000\217f\037V"
 255      0CCCF592 
 255      19008F66 
 255      1F56
 256              		.text
 257              		.section	.gnu.lto_.symbol_nodes.d016aea9906b8342,"",%progbits
 258 0000 789C4DC8 		.ascii	"x\234M\3101\022\2020\000D\321\315F\003\034\301\212\243"
 258      31128230 
 258      0044D1CD 
 258      46031CC1 
 258      8AA3
 259 0012 2E1A05B4 		.ascii	".\032\005\264\362\0046\234\302\232\3363\310hIi\355\010"
 259      F204369C 
 259      C29ADE33 
 259      C8684969 
 259      ED08
 260 0024 064DB6F9 		.ascii	"\006M\266\371\363\226 \236X\306-\005\234o\200ti\015"
 260      F396209E 
 260      58C62D05 
 260      9C6F8074 
 260      690D
 261 0036 779449E8 		.ascii	"w\224I\350)&\334S6\341\201Z%\254\251u\244i)\027XU\306"
 261      2926DC53 
ARM GAS  /tmp/ccfxbxQ2.s 			page 20


 261      36E1815A 
 261      25ACA975 
 261      A4692917 
 262 004d 34541675 		.ascii	"4T\026u\244\362\250\023U\374e\221\241\273\277\247:\370"
 262      A4F2A813 
 262      55FC6591 
 262      A1BBBFA7 
 262      3AF8
 263 005f EB6B634D 		.ascii	"\353kcM\036L\207~\256\375\265\300cq7\204\372z,\347\277"
 263      1E4C877E 
 263      AEFDB5C0 
 263      63713784 
 263      FA7A2CE7 
 264 0074 FF767233 		.ascii	"\377vr3\226\370\000\331#D\274"
 264      96F800D9 
 264      2344BC
 265              		.text
 266              		.section	.gnu.lto_.refs.d016aea9906b8342,"",%progbits
 267 0000 789C6362 		.ascii	"x\234cb`b`d\200\002\000\000F\000\006"
 267      60626064 
 267      80020000 
 267      460006
 268              		.text
 269              		.section	.gnu.lto_.decls.d016aea9906b8342,"",%progbits
 270 0000 789CBD5B 		.ascii	"x\234\275[\177t\024E\236\357\356\231$3I6\374\360\364"
 270      7F741445 
 270      9EEFEE99 
 270      24334936 
 270      FCF0F4
 271 0013 70F5CEF1 		.ascii	"p\365\316\361\235\273\217\347*!\001\001\237wJ6A\311"
 271      9DBB8FE7 
 271      2A210101 
 271      9F774A36 
 271      41C9
 272 0025 1D015F12 		.ascii	"\035\001_\022|ro\357\215\355LCfM2\331\236\016\204\373"
 272      7C726FEF 
 272      8DED4C43 
 272      664D32D9 
 272      9E0E84FB 
 273 0039 C7264056 		.ascii	"\307&@VP1\020\220\037\362#\256\200\350\372\203\010\010"
 273      50311090 
 273      1FF223AE 
 273      80E8FA83 
 273      0808
 274 004b B880833F 		.ascii	"\270\200\203? \242\006\024A\210\272\216\273\212\374"
 274      20A20614 
 274      4188BA8E 
 274      BB8AFC
 275 005a 58564123 		.ascii	"XVA# B\356[\337\256\236\251\356t\317tG\367\346\275\252"
 275      2042EE5B 
 275      DFAE9EA9 
 275      EE74CF74 
 275      47F7E6BD 
 276 006f A9AEA9FA 		.ascii	"\251\256\251\372\324\367g}\253\252k\004N\340\326\012"
 276      D4F7677D 
 276      ABAA6B04 
 276      4EE0D60A 
ARM GAS  /tmp/ccfxbxQ2.s 			page 21


 277 007f 1CD70B9F 		.ascii	"\034\327\013\237[\3129.\356\343\270\034\216\343n\207"
 277      5BCA392E 
 277      EEE3B81C 
 277      8EE36E87 
 278 008f 9405E949 		.ascii	"\224\005\351IH[8\255n\020\264\033\305i\237\\H\203\341"
 278      485B38AD 
 278      6E10B41B 
 278      C5699F5C 
 278      4883E1
 279 00a2 B910D26D 		.ascii	"\271\020\322m\220J U@\232\014i\012\244\373!E \325\013"
 279      904A2055 
 279      409A0C69 
 279      0AA4FB21 
 279      4520D50B 
 280 00b6 5C9F0FE9 		.ascii	"\\\237\017\351w%|\363\220\012 \345\3231d\250\377\015"
 280      77257CF3 
 280      900A20E5 
 280      D33164A8 
 280      FF0D
 281 00c8 242F943D 		.ascii	"$/\224=t\354\253H[H\212\240\321\020\202\357FA\243e:"
 281      74ECAB48 
 281      5B488AA0 
 281      D11082EF 
 281      4641A365 
 282 00dd A4FF86B4 		.ascii	"\244\377\206\264\003\200\376\025\276\233\341\233\014"
 282      0380FE15 
 282      BE9BE19B 
 282      0C
 283 00ea 770D64FF 		.ascii	"w\015d\377\"h\030\203)-S\350\363P\370\276\021\322M&"
 283      22681883 
 283      292D53E8 
 283      F350F8BE 
 283      11D24D26 
 284 00fe BA0A293E 		.ascii	"\272\012)>\031\237\035w\006\244\337Rl\236b\013\264}"
 284      199F1D77 
 284      06A4DF52 
 284      6C9E620B 
 284      B47D
 285 0110 84964743 		.ascii	"\204\226GC6\306\204Gd\222G\371\322y\374\015\305a\361"
 285      36C68447 
 285      649247F9 
 285      D279FC0D 
 285      C561F1
 286 0123 755E081F 		.ascii	"u^\010\037,\376m\224fRw\207\011\233\310\372\032\023"
 286      2CFE6D94 
 286      66527787 
 286      099BC8FA 
 286      1A13
 287 0135 7613C59E 		.ascii	"v\023\305\236\013\351\177\251\034\263\251\214uy\022"
 287      0BE97FA9 
 287      1CB3A98C 
 287      757912
 288 0144 FE40BDDC 		.ascii	"\376@\275\3340\316\236\006\025R\024\322,F\256\243(\206"
 288      30CE9E06 
 288      155214D2 
 288      2C46AEA3 
 288      2886
ARM GAS  /tmp/ccfxbxQ2.s 			page 22


 289 0156 2ED7EB21 		.ascii	".\327\353!\375\033\225g\011\245\263\236>\337\005\337"
 289      FD1B9567 
 289      09A5B39E 
 289      3EDF05DF 
 290 0166 E321FDA7 		.ascii	"\343!\375\247\211\346\012\312\013\241\221\243tUX\330"
 290      89E60ACA 
 290      0BA191A3 
 290      745558D8 
 291 0176 C6648B76 		.ascii	"\306d\213v\223\255l\210[\250\302'\320\011\002\270\227"
 291      93AD6C88 
 291      5BA8C227 
 291      D00902B8 
 291      97
 292 0187 17F9023F 		.ascii	"\027\371\002?w\037\026\362\375(\217_pkU\26551\367a>"
 292      771F16F2 
 292      FD288F5F 
 292      706B55B5 
 292      3531F761 
 293 019c 20F24FF2 		.ascii	" \362O\362\203A\250Cx\356F\356\031\350\324\252\252\315"
 293      8341A843 
 293      78EE46EE 
 293      19E8D4AA 
 293      AACD
 294 01ae 57F485CC 		.ascii	"W\364\205\314\210\311q\"\277\016\240D~-\177\2436\202"
 294      88C97122 
 294      BF0EA044 
 294      7E2D7FA3 
 294      3682
 295 01c0 1ADF190E 		.ascii	"\032\337\031\016h\265\034\255\267\370\\\317\265\303"
 295      68B51CAD 
 295      B7F85CCF 
 295      B5C3
 296 01ce 90F1F736 		.ascii	"\220\361\3676o\347\325\226\374\034\256\005\236\324\304"
 296      6FE7D596 
 296      FC1CAE05 
 296      9ED4C4
 297 01dd DCE621CB 		.ascii	"\334\346!\313R#\371\364\221\370$\365\361\355>A\3447"
 297      5223F9F4 
 297      91F824F5 
 297      F1ED3E41 
 297      E437
 298 01ef F03940FC 		.ascii	"\3609@\374\257x\003\274\003\014B\317\037\241\257\201"
 298      AF7803BC 
 298      030C42CF 
 298      1FA1AF81 
 299 01ff DA0EAFA0 		.ascii	"\332\016\257\240\325\246\241\326\303\241\015\336\306"
 299      D5A6A1D6 
 299      C3A10DDE 
 299      C6
 300 020c 239AD79F 		.ascii	"#\232\327\237\252*KV\361L\303\362d\255\256'\362\310"
 300      AA2A4B56 
 300      F14CC3F2 
 300      64ADAE27 
 300      F2C8
 301 021e FB53855E 		.ascii	"\373S\205^\3360\000K\227\310?\307\377\002\362\347y\217"
 301      DE30004B 
 301      97C83FC7 
ARM GAS  /tmp/ccfxbxQ2.s 			page 23


 301      FF02F2E7 
 301      798F
 302 0230 6537819B 		.ascii	"e7\201\233\310S\261[1I\213\251a\013\364\007]\350\007"
 302      C853B15B 
 302      31498BA9 
 302      610BF407 
 302      5DE807
 303 0243 BFDD4684 		.ascii	"\277\335F\204\356\347\036B\201\255S3\010=q\264\345\371"
 303      EEE71E42 
 303      81AD5333 
 303      083D71B4 
 303      E5F9
 304 0255 5FA9AA4F 		.ascii	"_\251\252O\344\267\360\204\243\231F\301;\307i\233\277"
 304      E4B7F084 
 304      A39946C1 
 304      3BC7699B 
 304      BF
 305 0266 7A0CE26C 		.ascii	"z\014\342lC\234\227y#\020e\225\021\012<\353\0152\012"
 305      439C9779 
 305      23106595 
 305      110A3CEB 
 305      0D320A
 306 0279 30435B81 		.ascii	"0C[\201\213\363n\305\346c\305\226xs\376\342\253\325"
 306      8BF36EC5 
 306      E663C596 
 306      7873FEE2 
 306      ABD5
 307 028b F6D7F83C 		.ascii	"\366\327\370<n>\341\267\275E\035\337Y`\341 q\217\016"
 307      6E3EE1B7 
 307      BD451DDF 
 307      5960E120 
 307      718F0E
 308 029e 3626C57A 		.ascii	"6&\305zG\327\241\365\374lU\205\037v\241\353=*\030\231"
 308      47D7A1F5 
 308      FC6C5585 
 308      1F76A1EB 
 308      3D2A1899 
 309 02b2 CF0824F2 		.ascii	"\317\010$\362q^\200|\267\331\335\316\254\310W\275Z}"
 309      715E807C 
 309      B7D9DDCE 
 309      ACC857BD 
 309      5A7D
 310 02c4 6687BBD0 		.ascii	"f\207\273\320\275\372\237\325D\234w\354q\211O\337\377"
 310      BDFA9FD5 
 310      449C77EC 
 310      71894FDF 
 310      FF
 311 02d5 B00895F6 		.ascii	"\260\010\225\366\006z\335>\241_n\267\327\354v\357\265"
 311      067ADD3E 
 311      A15F6EB7 
 311      D7EC76EF 
 311      B5
 312 02e6 0C2054EF 		.ascii	"\014 T\357u\344x\207\204\276\236\227\020,]\357\204`"
 312      75E47887 
 312      84BE9E97 
 312      102C5DEF 
 312      8460
ARM GAS  /tmp/ccfxbxQ2.s 			page 24


 313 02f8 F43D5AFD 		.ascii	"\364=Z\375M\252\332\303T\317\362$\253\275L\365c\251"
 313      4DAADAC3 
 313      54CFF224 
 313      ABBD4CF5 
 313      63A9
 314 030a EA2CC624 		.ascii	"\352,\306$\322\332\337^\306\201;\321\201\337\262q`\221"
 314      D2DADF5E 
 314      C6813BD1 
 314      81DFB271 
 314      6091
 315 031c DF94D464 		.ascii	"\337\224\324d\277<8\321\261\340\363c|\333l\265s\270"
 315      BF3C38D1 
 315      B1E0F363 
 315      7CDB6CB5 
 315      73B8
 316 032e 95314213 		.ascii	"\2251B\023>}\020\210\357\354\346\003\231\346v\221?\002"
 316      3E7D1088 
 316      EFECE603 
 316      99E67691 
 316      3F02
 317 0340 6C388900 		.ascii	"l8\211\000\335f\223\\\325\215&\331\355\310$;\272\227"
 317      DD66935C 
 317      D58D26D9 
 317      EDC8243B 
 317      BA97
 318 0352 B833C9F8 		.ascii	"\2703\311\370\231\017I\010\373\004\355q\205\247_\366"
 318      990F4908 
 318      FB04ED71 
 318      85A75FF6 
 319 0362 9830DBE3 		.ascii	"\2300\333\343\321\245h\217\011G\366\270\336\303\330"
 319      D1A5688F 
 319      0947F6B8 
 319      DEC3D8
 320 0371 1EADEBF0 		.ascii	"\036\255\353\360X\032\336\233\036\243\34191\245\004"
 320      581ADE9B 
 320      1EA3E139 
 320      31A504
 321 0380 634A9FA1 		.ascii	"cJ\237\241)\375\3056\026|\210\374w\367;\030l\352^\202"
 321      29FDC536 
 321      167C88FC 
 321      77F73B18 
 321      6CEA5E82 
 322 0394 B31A9DC5 		.ascii	"\263\032\235\3055CJ\266\015\350\010^\216\211\006o\356"
 322      35434AB6 
 322      0DE8085E 
 322      8E89066F 
 322      EE
 323 03a5 E69B712A 		.ascii	"\346\233q*;\211\363\370\247\036\313\200\340\000\252"
 323      3B89F3F8 
 323      A71ECB80 
 323      E000AA
 324 03b4 6DFE8E5B 		.ascii	"m\376\216[qn9\215@\307=\346\200\220c\012\0109\306I>"
 324      716E398D 
 324      40C73DE6 
 324      8090630A 
 324      0839C649 
 325 03c9 C79F2A90 		.ascii	"\307\237*\220\345\372\000\316ms\230\031\314\0024\020"
ARM GAS  /tmp/ccfxbxQ2.s 			page 25


 325      E5FA00CE 
 325      6D739819 
 325      CC023410 
 326 03d9 6A25C000 		.ascii	"j%\300\000+@\360\305\256\227\371\263\315\352\262\341"
 326      2B40F0C5 
 326      AE97F9B3 
 326      CDEAB2E1 
 327 03e9 CE0DB8AD 		.ascii	"\316\015\270\255\233\030\360Y4\340\336\376\031p\217"
 327      9B18F059 
 327      34E0DEFE 
 327      19708F
 328 03f8 D9802F6A 		.ascii	"\331\200/j\006\334\343\310\200\027x\373\032\360*\257"
 328      06DCE3C8 
 328      801778FB 
 328      1AF02AAF 
 329 0408 A501BFE8 		.ascii	"\245\001\277\350uo\300=\214\001\177\207\006|\316\326"
 329      756FC03D 
 329      8C017F87 
 329      067CCED6 
 330 0418 80DFF03A 		.ascii	"\200\337\360:0`\237\205\0013\343i#}\204#}\314_\017\371"
 330      30609F85 
 330      0133E369 
 330      237D8423 
 330      7DCC5F0F 
 331 042d 09CCCF40 		.ascii	"\011\314\317@\236\374\010\334~\257\331\276\264\031\212"
 331      9EFC08DC 
 331      7EAFD9BE 
 331      B4198A
 332 043c 414A4D65 		.ascii	"AJMe\\:,+S!\035\016\363y\251\341\216\342p\273\373kY"
 332      5C3A2C2B 
 332      53211D0E 
 332      F379A9E1 
 332      8EE270BB 
 333 0453 F1E51FAD 		.ascii	"\361\345\037\255v\347\232\361W\227^Il`\226@T\230\350"
 333      76E79AF1 
 333      57975E49 
 333      6C609640 
 333      5498E8
 334 0466 C3ED49F3 		.ascii	"\303\355I\363\372\312\211\177\234r\302\205\225~\220"
 334      FACA897F 
 334      9C72C285 
 334      957E90
 335 0475 0B35BEE9 		.ascii	"\0135\276\351\243\325<\341\302\"\220\250\274\336\177"
 335      A3D53CE1 
 335      C22290A8 
 335      BCDE7F
 336 0484 609287C4 		.ascii	"`\222\207\304\241/\217\037\243\323K\213@VJ\353\2632"
 336      A12F8F1F 
 336      A3D34B8B 
 336      40564AEB 
 336      B332
 337 0496 AE948C40 		.ascii	"\256\224\214@\002\367\002v\231'\230\302R\217\030\320"
 337      02F70276 
 337      992798C2 
 337      528F18D0 
 338 04a6 6A330525 		.ascii	"j3\005%5~\356\013\277\272(\337b\250\261,\313\372\214"
 338      357EEE0B 
ARM GAS  /tmp/ccfxbxQ2.s 			page 26


 338      BFBA28DF 
 338      62A8B12C 
 338      CBFA8C
 339 04b9 782A71F5 		.ascii	"x*q\365[\252:P\344\037E\212O[S\334>\326\016G\340.a\227"
 339      5BAA3A50 
 339      E41F458A 
 339      4F5B53DC 
 339      3ED60E47 
 340 04d1 5613C589 		.ascii	"V\023\305\211\235g;\177\276\014\221[\035\220\335\034"
 340      9D673B7F 
 340      BE0C915B 
 340      1D90DD1C 
 341 04e1 3FD4B2CA 		.ascii	"?\324\262\312\321\032\265\335\253\017_\226b\343\310"
 341      D11AB5DD 
 341      AB0F5F96 
 341      62E3C8
 342 04f0 A9F8109C 		.ascii	"\251\370\020\234\215\227 \027\257gg\224\273\021F\340"
 342      8D972017 
 342      AF676794 
 342      BB1146E0 
 343 0500 DEC12ECB 		.ascii	"\336\301.\313\372r\221\270F\343b\231#..R.D~\261\220"
 343      FA7291B8 
 343      46E36299 
 343      232E2E52 
 343      2E447EB1 
 344 0515 07B08793 		.ascii	"\007\260\207\223\260N\035\311\210wyO~\253\250\203}\342"
 344      B04E1DC9 
 344      8877794F 
 344      7EABA883 
 344      7DE2
 345 0527 1A2C6000 		.ascii	"\032,`\000k\333\273\322e\300\\~\356\370\325;\221\375"
 345      6BDBBBD2 
 345      65C05C7E 
 345      EEF8D53B 
 345      91FD
 346 0539 7674CCE7 		.ascii	"vt\314\347s~\022\307\334\222\343\200\021{\307\004\255"
 346      737E12C7 
 346      DC92E380 
 346      117BC704 
 346      AD
 347 054a 1CB876FB 		.ascii	"\034\270v\373K\252:/[\267\317l;F\004n\007\016\266\316"
 347      4BAA3A2F 
 347      5BB7CF6C 
 347      3B46046E 
 347      070EB6CE 
 348 055e ACD9E597 		.ascii	"\254\331\345\227\017\334\254iv\235#\315n}{\2513\373"
 348      0FDCAC69 
 348      769D23CD 
 348      6E7D7BA9 
 348      33FB
 349 0570 CCD6870F 		.ascii	"\314\326\207\017\343\360\227q\370g\315\303o\371\303"
 349      E3F09771 
 349      F867CDC3 
 349      6FF9C3
 350 057f 89DBB5E1 		.ascii	"\211\333\265\341\237u4\374\247\373-\266p\"\177\373\225"
 350      9F7534FC 
 350      A7FB2DB6 
ARM GAS  /tmp/ccfxbxQ2.s 			page 27


 350      70227FFB 
 350      95
 351 0590 69D577F9 		.ascii	"i\325w\371\353\241kp\220\027\320\200:}f\365\335\221"
 351      EBA16B70 
 351      9017D080 
 351      3A7D66F5 
 351      DD91
 352 05a2 C78E85CF 		.ascii	"\307\216\205\317L\003\201{\317\247S\337/\373\0056w\337"
 352      4C03817B 
 352      CFA753DF 
 352      2FFB0536 
 352      77DF
 353 05b4 F10C6A4A 		.ascii	"\361\014jJ\247\341\220kD\243\021\237\335\217\036\241"
 353      A7E1906B 
 353      44A3119F 
 353      DD8F1EA1 
 354 05c4 811D7502 		.ascii	"\201\035u\002fkH\315\361oY\260O\\\203\031)\373\216\005"
 354      666B48CD 
 354      F16F59B0 
 354      4F5C8319 
 354      29FB8E05 
 355 05d8 FBCC09D8 		.ascii	"\373\314\011\330@{\312\316\263`_\270\0063R\366=\013"
 355      407BCACE 
 355      B3605FB8 
 355      063352F6 
 355      3D0B
 356 05ea 76C209D8 		.ascii	"v\302\011\330\020{\312~`\301N\273\0063Rv\231\005;\343"
 356      107BCA7E 
 356      60C14EBB 
 356      06335276 
 356      99053BE3 
 357 05fe 042C604F 		.ascii	"\004,`OY\353\373\014X\217k0#e\213X\260\013N\300\206"
 357      59EBFB0C 
 357      588F6B30 
 357      23658B58 
 357      B00B4EC0 
 358 0613 DA53B698 		.ascii	"\332S\266\230\005\273\344\032\314H\331\343,\330,\277"
 358      05BBE41A 
 358      CC48D9E3 
 358      2CD82CBF 
 359 0623 03B0E1F6 		.ascii	"\003\260\341\366\224-c\301\346\272\0063R\266\202\005"
 359      942D63C1 
 359      E6BA0633 
 359      52B68205 
 360 0633 9BE7046C 		.ascii	"\233\347\004l\214=e+Y\260G]\203\031)\333\310\202-t\002"
 360      8C3D652B 
 360      59B0475D 
 360      831929DB 
 360      C8822D74 
 361 0648 36D69EB2 		.ascii	"6\326\236\262\227X\260\305\256\301\214\224mf\301\226"
 361      9758B0C5 
 361      AEC18C94 
 361      6D66C196 
 362 0658 3A011B6F 		.ascii	":\001\033oO\331\313,\330\012\327`F\312\266\261`\253"
 362      4FD9CB2C 
 362      D80AD760 
 362      46CAB6B1 
ARM GAS  /tmp/ccfxbxQ2.s 			page 28


 362      60AB
 363 066a 9C80DD6D 		.ascii	"\234\200\335mO\331+,X\273k0#e;X\260\247\234\200\335"
 363      4FD92B2C 
 363      58BB6B30 
 363      23653B58 
 363      B0A79C80 
 364 067f 6B4FD92E 		.ascii	"kO\331.\026\354i\327`F\312\016\260`\177t\002v\237\005"
 364      16EC69D7 
 364      6046CA0E 
 364      B0607F74 
 364      02769F05 
 365 0693 65C98F55 		.ascii	"e\311\217U?\022\246\237\021\230\315\332\013~}\201\343"
 365      3F12A69F 
 365      1198CDDA 
 365      0B7E7D81 
 365      E3
 366 06a4 32467329 		.ascii	"2Fs)\214\227\374nWd\006\276\311:\371\332Wh\234\327\026"
 366      8C97FC6E 
 366      576406BE 
 366      C93AF9DA 
 366      57689CD7 
 367 06b9 ABDB9C20 		.ascii	"\253\333\234 \246\011\200+\3662+\337\270k0\223)\023"
 367      A609802B 
 367      F6322BDF 
 367      B86B3093 
 367      2913
 368 06cb 30C3D229 		.ascii	"0\303\322)y\364\037O\177\342A\336/\011\314{\202!\326"
 368      79F41F4F 
 368      7FE241DE 
 368      2F09CC7B 
 368      8221D6
 369 06de 6D45FE94 		.ascii	"mE\376\224@\266\360\177\023\374I*\264\262^\322\216\014"
 369      40B6F07F 
 369      13FC492A 
 369      B4B25ED2 
 369      8E0C
 370 06f0 3AFDC603 		.ascii	":\375\306\003\207\344'SW;K8\301Z\302\273N\304\224&\264"
 370      87E42753 
 370      573B4B38 
 370      C15AC2BB 
 370      4EC49426 
 371 0705 7FBA7725 		.ascii	"\177\272w%\236g:\177/\262\374\334\001\272A\370\0327"
 371      9E673A7F 
 371      2FB2FCDC 
 371      01BA41F8 
 371      1A37
 372 0717 081FF8CD 		.ascii	"\010\037\370\315+\314-.\337\214\300:\314\314\205\325"
 372      2BCC2D2E 
 372      DF8CC03A 
 372      CCCC85D5 
 373 0727 B18AFD9A 		.ascii	"\261\212\375\232\002l\361\310u\333_P\325\331\331n\370"
 373      026CF1C8 
 373      75DB5F50 
 373      D5D9D96E 
 373      F8
 374 0738 E8A47CF4 		.ascii	"\350\244|\364 \037_\374\004|\234v\315\307P\023\037\361"
 374      201F5FFC 
ARM GAS  /tmp/ccfxbxQ2.s 			page 29


 374      047C9C76 
 374      CDC75013 
 374      1FF1
 375 074a A1EEF938 		.ascii	"\241\356\3718B\371\370\036\371\350\371\011\370\270\344"
 375      42F9F81E 
 375      F9E8F909 
 375      F8B8E4
 376 0759 9A8FE10C 		.ascii	"\232\217\341\014\037\270[\033\246\355\326\256\340\026"
 376      1FB85B1B 
 376      A6EDD6AE 
 376      E016
 377 0767 A5DFAD11 		.ascii	"\245\337\255\021zz\205+L\347\333\373\310\221#\251vp"
 377      7A7A852B 
 377      4CE7DBFB 
 377      C89123A9 
 377      7670
 378 0779 F8B18FD9 		.ascii	"\370\261\217\331\342\252\316\266\270_S\2115{\210\304"
 378      E2AACEB6 
 378      B85F5389 
 378      357B88C4 
 379 0789 E6E45A1C 		.ascii	"\346\344Z\034\011;B:\272\347\215\016z\3743\027\241\346"
 379      093B423A 
 379      BAE78D0E 
 379      7AFC3317 
 379      A1E6
 380 079b F71BAA6D 		.ascii	"\367\033\252m\337V\355u\343C\010\264(\327\254\305l\223"
 380      DF56ED75 
 380      E34308B4 
 380      28D7ACC5 
 380      6C93
 381 07ad 12B38D4A 		.ascii	"\022\263\215J\204G2\322y\262\343\346\037\2445\344!\207"
 381      844732D2 
 381      79B2E3E6 
 381      1FA435E4 
 381      2187
 382 07bf FB7FEF27 		.ascii	"\373\177\357'p+\221|\242@\227\001*e@7m"
 382      702B917C 
 382      A2409701 
 382      2A654037 
 382      6D
 383 07d0 A7C14553 		.ascii	"\247\301ES\322S?\012\2619\276\351a\375\230\346\016\022"
 383      D2533F0A 
 383      B139BEE9 
 383      61FD98E6 
 383      0E12
 384 07e2 5E9EFB91 		.ascii	"^\236\373\221p\357\275\355\376`%\376s\315\352\026\""
 384      70EFBDED 
 384      FE6025FE 
 384      73CDEA16 
 384      22
 385 07f3 439BFA68 		.ascii	"C\233\372h\270_\007+\257\366\227\221\344G\340\366\344"
 385      B85F072B 
 385      AFF69791 
 385      E447E0F6 
 385      E4
 386 0804 3A082281 		.ascii	":\010\"\201t\332:?\314\341\341L\362\020\362\370\220"
 386      74DA3A3F 
ARM GAS  /tmp/ccfxbxQ2.s 			page 30


 386      CCE1E14C 
 386      F210F2F8 
 386      90
 387 0815 4E14C652 		.ascii	"N\024\306R\0179\276\333g\022\206\203C\236\243\330e\205"
 387      0F39BEDB 
 387      67128683 
 387      439EA3D8 
 387      6585
 388 0827 A7CFF1DD 		.ascii	"\247\317\361\335\201\253\265S\026\362\223\203C\036\303"
 388      81ABB553 
 388      16F29383 
 388      431EC3
 389 0836 F19DC8AF 		.ascii	"\361\235\310\257\024\004\012\333_y\032T\230\242\017"
 389      14040ADB 
 389      5F791A54 
 389      98A20F
 390 0845 A03D64BD 		.ascii	"\240=d\275\260\312c8\346?\341Z\366\001V\366\361\213"
 390      B0CA6338 
 390      E63FE15A 
 390      F60156F6 
 390      F18B
 391 0857 6FAFE435 		.ascii	"o\257\3445\372\265\343\334o\314xc\331\265\034-\332\356"
 391      FAB5E3DC 
 391      6FCC7863 
 391      D9B51C2D 
 391      DAEE
 392 0869 5BD5F8A2 		.ascii	"[\325\370\242.\\\204iNw\331\011qi\266\232\25350\315"
 392      2E5C8469 
 392      4E77D909 
 392      7169B69A 
 392      AB3530CD 
 393 087d E0E7E4B9 		.ascii	"\340\347\344\271\005\013\030\300v.\2608.\326\216\310"
 393      050B18C0 
 393      762EB038 
 393      2ED68EC8 
 394 088d ED02CB7A 		.ascii	"\355\002\313z\017\263Tz\314\311\370iv\247\207\272VR"
 394      0FB3547A 
 394      CCC9F869 
 394      76A787BA 
 394      5652
 395 089f 4BD14E46 		.ascii	"K\321NF\227\273\3063\362sf\201aFZ\353\004n\254c\303"
 395      97BBC633 
 395      F2736681 
 395      61465AEB 
 395      046EAC63 
 396 08b4 4B9D6B83 		.ascii	"K\235k\203\021\342B\365\011\201\274\031Z\205\371\032"
 396      11E242F5 
 396      0981BC19 
 396      5A85F91A 
 397 08c4 CCD762FE 		.ascii	"\314\327b\3769\346\3070?\216\371W\230\177\213\371\005"
 397      39E6C730 
 397      3F8EF957 
 397      987F8BF9 
 397      05
 398 08d5 CC2F63FE 		.ascii	"\314/c\376\270\007\373b\376$\346Oa\276\016\363\015\230"
 398      B807FB62 
 398      FE24E64F 
ARM GAS  /tmp/ccfxbxQ2.s 			page 31


 398      61BE0EF3 
 398      0D98
 399 08e7 3FCB9AB7 		.ascii	"?\313\232\267\235^4WK:\246\356u\255\375>4?\234:4\027"
 399      9D5E3457 
 399      4B3AA6EE 
 399      75ADFD3E 
 399      343F9C3A 
 400 08fd F9D5AEC1 		.ascii	"\371\325\256\301\002\351$\331\312Hr\021J\262\015\245"
 400      02E924D9 
 400      CA487211 
 400      4AB20DA5 
 401 090d F19CD191 		.ascii	"\361\234\321\221\237\313\323_\343\244q<{\026\022\037"
 401      9FCBD35F 
 401      E3A4713C 
 401      7B16121F 
 402 091d 7C793C67 		.ascii	"|y<g\271\032\237\343\321w@\233\315\200\0317hF\231\\"
 402      B91A9FE3 
 402      D177409B 
 402      CD801937 
 402      6846995C 
 403 0931 964C372E 		.ascii	"\226L7.\264wTv:\351`}e\207\353\261\323\212p\036#\302"
 403      B4775476 
 403      3AE9607D 
 403      6587EBB1 
 403      D38A701E 
 404 0947 8751848F 		.ascii	"\207Q\204\217\240\010_@\223\331\310\012R\344\347\013"
 404      A0085F40 
 404      93D9C80A 
 404      52E4E70B 
 405 0957 A6FB26C6 		.ascii	"\246\373&\306\027fi\006O\276\344\3569lq\341D{U\224&"
 405      17666906 
 405      4FBEE4EE 
 405      396C71E1 
 405      447B5594 
 406 096c 282DDD75 		.ascii	"(-\335u\364\332\3470tl\366\020\005\\\3143G\350\305\202"
 406      F4DAE730 
 406      746CF610 
 406      055CCC33 
 406      47E8C582 
 407 0980 E9F0DC64 		.ascii	"\351\360\334d\310\002\267 \337\301\013\3104;\231\216"
 407      C802B720 
 407      DFC10BC8 
 407      343B998E 
 408 0990 05E70EF3 		.ascii	"\005\347\016\363\263g\253\033\206\323\225\205\332\242"
 408      B367AB1B 
 408      86D39585 
 408      DAA2
 409 099e 0EDD900A 		.ascii	"\016\335\220\012\202\003u\014!Iw|\213\366\"u;\316\262"
 409      8203750C 
 409      2149777C 
 409      8BF62275 
 409      3BCEB2
 410 09b1 4BF22DEF 		.ascii	"K\362-\3577d\206I\034m\331z\023\256@w \320\232~\003"
 410      37648649 
 410      1C6DD97A 
 410      13AE4077 
 410      20D09A7E 
ARM GAS  /tmp/ccfxbxQ2.s 			page 32


 411 09c6 B5CD7F5A 		.ascii	"\265\315\177Z\273(\361*\002m\3107\213\321cZ\347x\214"
 411      BB28F12A 
 411      026DC837 
 411      8BD1635A 
 411      E7788C
 412 09d9 EB1C8F3F 		.ascii	"\353\034\217?U\350\355\365p\377\300\306\260\0143+\314"
 412      55E8EDF5 
 412      70FFC0C6 
 412      B00C332B 
 412      CC
 413 09ea C051A6B5 		.ascii	"\300Q\246\265\017Q\330%jl\372\015\223mNL\300\200h0\201"
 413      0F51D825 
 413      6A6CFA0D 
 413      936D4E4C 
 413      C0806830 
 414 09ff F80F1FE1 		.ascii	"\370\017\037\341\\\246\201\275\346\004,\3151\364\222"
 414      5CA681BD 
 414      E6042CCD 
 414      31F492
 415 0a0e D56B6CDF 		.ascii	"\325kl\337a\265g\274z\225\330~\354\255\177'\027\001"
 415      61B567BC 
 415      7A95D87E 
 415      ECAD7F27 
 415      1701
 416 0a20 335FBFDA 		.ascii	"3_\277\332\347qv\375\352\035\217\371=w\027^\277z\307"
 416      E77176FD 
 416      EA1D8FF9 
 416      3D77175E 
 416      BF7AC7
 417 0a33 D16AED9C 		.ascii	"\321j\355\234\325\032\300\3526br\312\030\222b\346\303"
 417      D51AC0EA 
 417      366272CA 
 417      189262E6 
 417      C3
 418 0a44 936FDDAE 		.ascii	"\223o\335\256\335j<\200\213\316\375?\313|\253\321\200"
 418      DD6A3C80 
 418      8BCEFD3F 
 418      CB7CABD1 
 418      80
 419 0a55 43E83B68 		.ascii	"C\350;h\246\177\323~\244\377`f\372\347\314\216o\245"
 419      A67FD37E 
 419      A4FF6066 
 419      FAE7CC8E 
 419      6FA5
 420 0a67 EFF4D099 		.ascii	"\357\364\320\231f\247\3356\210\374)\274\"\342d\023\360"
 420      66A7DD36 
 420      88FC29BC 
 420      22E26413 
 420      F0
 421 0a78 17E4E4A0 		.ascii	"\027\344\344\240\373E+%k\233\366N\3460\372\353\027\256"
 421      FB452B25 
 421      6B9BF64E 
 421      E630FAEB 
 421      17AE
 422 0a8a C10206B0 		.ascii	"\301\002\006\260WX\260\223N\300\354\202\030\200\355"
 422      5758B093 
 422      4EC0EC82 
ARM GAS  /tmp/ccfxbxQ2.s 			page 33


 422      1880ED
 423 0a99 60C1FEEE 		.ascii	"`\301\376\356\032\314H\331.\026\354\033'`v\247\225\000"
 423      1ACC48D9 
 423      2E16EC1B 
 423      276076A7 
 423      9500
 424 0aab 7680053B 		.ascii	"v\200\005;\357\032,`e%\\\037#\023\371\017p\327p\010"
 424      EF1A2C60 
 424      65255C1F 
 424      2313F90F 
 424      70D77008 
 425 0abf 23E511CC 		.ascii	"#\345\021\314\2731\377\030\363?c\236p\262\350\332\317"
 425      BB31FF18 
 425      F33F639E 
 425      70B2E8DA 
 425      CF
 426 0ad0 06F81F90 		.ascii	"\006\370\037\220\340w\372g10\355m?\366\331m\332\351"
 426      E077FA67 
 426      3130ED6D 
 426      3FF6D96D 
 426      DAE9
 427 0ae2 AF29C612 		.ascii	"\257)\306\022y\330Q\3609K\301\354\002\267\024\004X\012"
 427      79D851F0 
 427      394BC1EC 
 427      02B71404 
 427      580A
 428 0af4 E217BBB4 		.ascii	"\342\027\273\264\223K\375\242\367Cf<\247W\263\364\345"
 428      934BFDA2 
 428      F743663C 
 428      A757B3F4 
 428      E5
 429 0b05 5257DEC6 		.ascii	"RW\336\306\373t\260\307\\\203\031\256_\307[\3673`\313"
 429      FB74B0C7 
 429      5C8319AE 
 429      5FC75BF7 
 429      3360CB
 430 0b18 5D830DEC 		.ascii	"]\203\015\354c\021\232-\274\213\266\320\205:\377+\346"
 430      63119A2D 
 430      BC8BB6D0 
 430      853AFF2B 
 430      E6
 431 0b29 C7303F8E 		.ascii	"\3070?\216\371I\343\202\264\275\300\034w\2659\226AM"
 431      F949E382 
 431      B4BDC01C 
 431      77B53996 
 431      414D
 432 0b3b 4DC69C53 		.ascii	"M\306\234S\\;\335v\262\272\335T\3406j\031t\013Au\357"
 432      5C3BDD76 
 432      B2BADD54 
 432      E0366A19 
 432      740B4175 
 433 0b50 977A50ED 		.ascii	"\227zP\355\304\265\330v'\210iv\242\233\377l~\035`5\333"
 433      C4B5D876 
 433      27886976 
 433      A29BFF6C 
 433      7E1D6035 
 434 0b65 0B2C6DC9 		.ascii	"\013,m\311\250\261{\212\0265\316b\324x\265 s\324\020"
ARM GAS  /tmp/ccfxbxQ2.s 			page 34


 434      A8B17B8A 
 434      1635CE62 
 434      D478B520 
 434      73D410
 435 0b78 8C3C8A7C 		.ascii	"\214<\212|\2179j\\8\210Q\243\307Q\324\270tp1\335)j\263"
 435      8F396A5C 
 435      388851A3 
 435      C751D4B8 
 435      747031DD 
 436 0b8f CDDB4842 		.ascii	"\315\333HBO\277\247\373\313\007\231\251k\277k\260\200"
 436      4FBFA7FB 
 436      CB0799A9 
 436      6BBF6BB0 
 436      80
 437 0ba0 01ACF530 		.ascii	"\001\254\3650\003v\320\011X\232\351~\021\013v\3045\230"
 437      0376D009 
 437      589AE97E 
 437      110B76C4 
 437      3598
 438 0bb2 91B2C52C 		.ascii	"\221\262\305,\330'N\300\322L\367\217\263`\011\327`F"
 438      D8274EC0 
 438      D24CF78F 
 438      B36009D7 
 438      6046
 439 0bc4 CA96B160 		.ascii	"\312\226\261`\237;\001\263{\205\003`+X\260\343\256\301"
 439      9F3B01B3 
 439      7B850360 
 439      2B58B0E3 
 439      AEC1
 440 0bd6 8C94AD64 		.ascii	"\214\224\255d\301\376\346\004,`O\331j\026\354\254k\260"
 440      C1FEE604 
 440      2C604FD9 
 440      6A16ECAC 
 440      6BB0
 441 0be8 80954B68 		.ascii	"\200\225Kh\037\326\243D\376;\234\026\317\341du\001\363"
 441      1FD6A344 
 441      FE3B9C16 
 441      CFE16475 
 441      01F3
 442 0bfa 8B985FC2 		.ascii	"\213\230_\302\274\027\363Y^\222\317\306|.\346\277\307"
 442      BC17F359 
 442      5E92CFC6 
 442      7C2EE6BF 
 442      C7
 443 0c0b 7C9ED7C1 		.ascii	"|\236\327\301\344v\206\235\334\316\271\236\212\3222"
 443      E476869D 
 443      DCCEB99E 
 443      8AD232
 444 0c1a 92FA8B8C 		.ascii	"\222\372\213\214\310\277\206+\276\327\361\012\357!\314"
 444      C8BF862B 
 444      BED7F10A 
 444      EF21CC
 445 0c29 55DC27CF 		.ascii	"U\334'\317\305|\0232\262\015\363\3271\177\023\363\275"
 445      C57C1332 
 445      B20DF3D7 
 445      317F13F3 
 445      BD
ARM GAS  /tmp/ccfxbxQ2.s 			page 35


 446 0c3a 98FF1DF3 		.ascii	"\230\377\035\363\257\235\314\325;S\027\177a?\356%\333"
 446      AF9DCCD5 
 446      3B53177F 
 446      613FEE25 
 446      DB
 447 0c4b ED75FDBE 		.ascii	"\355u\375\276R\376\305\276\307\334\336\311?\225XO\337"
 447      52FEC5BE 
 447      C7DCDEC9 
 447      3F95584F 
 447      DF
 448 0c5c 9A3C8AF7 		.ascii	"\232<\212\367\267/\366\211T\375:\012\237;\200\317\314"
 448      B72FF689 
 448      54FD3A0A 
 448      9F3B80CF 
 448      CC
 449 0c6d 49DACBD9 		.ascii	"I\332\313\331\206!\3271\212Y\217\212y\032U\262\031\363"
 449      8621D731 
 449      8A598F8A 
 449      791A55B2 
 449      19F3
 450 0c7f 1D983FC2 		.ascii	"\035\230?\302Z\217i%D\202\277\235\006\026z\223\032\270"
 450      5A8F6925 
 450      4482BF9D 
 450      06167A93 
 450      1AB8
 451 0c91 8E5BADB6 		.ascii	"\216[\255\266'\022\177\372\376\202L\216\177\324\336"
 451      27127FFA 
 451      FE824C8E 
 451      7FD4DE
 452 0ca0 DE07B9AB 		.ascii	"\336\007\271\253\270%\364\265\221\312+\332a\254\035"
 452      B825F4B5 
 452      91CA2BDA 
 452      61AC1D
 453 0caf 529BF72A 		.ascii	"R\233\367*,y\264{\360\231B\234*\260\256F\025\322\373"
 453      2C79B47B 
 453      F099429C 
 453      2AB0AE46 
 453      15D2FB
 454 0cc2 FDD11B70 		.ascii	"\375\321\033p\303\376\270\227D\270\216\001\031#\234"
 454      C3FEB897 
 454      44B88E01 
 454      19239C
 455 0cd1 1186D0B1 		.ascii	"\021\206\320\261\334k\212p\027\311\037+Im\346Wx\275"
 455      DC6B8A70 
 455      17C91F2B 
 455      496DE657 
 455      78BD
 456 0ce3 6BC9FD65 		.ascii	"k\311\375e\375\177\236\257\340\360\244'\035\314\260"
 456      FD7F9EAF 
 456      E0F0A427 
 456      1DCCB0
 457 0cf2 87CCB434 		.ascii	"\207\314\2644U\343\013/\370\324\371\371\203\270V$zC"
 457      55E30B2F 
 457      F8D4F9F9 
 457      83B85624 
 457      7A43
 458 0d04 8176A061 		.ascii	"\201v\240a\205E([\355\035\204%\303\233:la'\3615\336"
ARM GAS  /tmp/ccfxbxQ2.s 			page 36


 458      8545285B 
 458      ED1D8425 
 458      C39B3A6C 
 458      6127F135 
 459 0d19 D45BFB7C 		.ascii	"\324[\373|\177\252\240\377\371J\340v;\341\300\366\000"
 459      7FAAA0FF 
 459      F94AE076 
 459      3BE1C0F6 
 459      00
 460 0d2a 4B8DB79D 		.ascii	"K\215\267\235^\346A\201\014\313\005\2647\315hn\342\003"
 460      5EE64181 
 460      0CCB05B4 
 460      37CD686E 
 460      E203
 461 0d3c A02D7E97 		.ascii	"\240-~\227'\353(\304\352r\215\025\260\364\216>J\027"
 461      27EB28C4 
 461      EA728D15 
 461      B0F48E3E 
 461      4A17
 462 0d4e F9155E3C 		.ascii	"\371\025^<d\306Iu\025\346Ob\376\224\223\011vI\312\037"
 462      64C64975 
 462      15E64F62 
 462      FE949309 
 462      7649CA1F 
 463 0d62 A8212767 		.ascii	"\250!'g\251\3443}\215-\362\223S\247<\260H0\031\353\015"
 463      A9E4337D 
 463      8D2DF293 
 463      53A73CB0 
 463      483019EB 
 464 0d77 DC53AABA 		.ascii	"\334S\252\272\210\270\323\373d\0059^\303\206(\213\355"
 464      88B8D3FB 
 464      6405395E 
 464      C386288B 
 464      ED
 465 0d88 1679AFB3 		.ascii	"\026y\257\263\244\201R\240uV\267J\343\265\341\005\356"
 465      A48152A0 
 465      7556B74A 
 465      E3B5E105 
 465      EE
 466 0d99 58866E48 		.ascii	"X\206nH$\355v\356\177\206\350K\376\323\346n\246\253"
 466      24ED76EE 
 466      7F86E84B 
 466      FED3E66E 
 466      A6AB
 467 0dab 2394975F 		.ascii	"#\224\227_r\353\210\321\275\3302w\240Wss.\315hTVO{\015"
 467      72EB88D1 
 467      BDD83277 
 467      A0577373 
 467      2ECD6854 
 468 0dc3 FFA7D6E6 		.ascii	"\377\247\326\346\217\370F\251S\375\032&B\027S\307F\343"
 468      8FF846A9 
 468      53FD1A26 
 468      421753C7 
 468      46E3
 469 0dd5 D4A1C980 		.ascii	"\324\241\311\200>\370\270\337k\177\354Qg\361\277\343"
 469      3EF8B8DF 
 469      6B7FEC51 
ARM GAS  /tmp/ccfxbxQ2.s 			page 37


 469      67F1BFE3 
 470 0de5 2CB9485D 		.ascii	",\271H]\226\201\320\344\365A\277\357\006\360v\226B\032"
 470      9681D0E4 
 470      F541BFEF 
 470      06F07696 
 470      421A
 471 0df7 E806A095 		.ascii	"\350\006\240\225\365\022\317Yh\365\007K\255\252\027"
 471      F512CF59 
 471      68F5074B 
 471      ADAA17
 472 0e06 C3549F22 		.ascii	"\303T\237\"\377\014\206\255\027\035\351\363\011\242"
 472      FF0C86AD 
 472      171DE9F3 
 472      09A2
 473 0e14 188DC487 		.ascii	"\030\215\304\207\006\362\306n&\305P:\255\025c7\032\345"
 473      06F2C66E 
 473      26C5503A 
 473      AD156337 
 473      1AE5
 474 0e26 E0654BC5 		.ascii	"\340eK\305\034v\257\230\035V\2121I\250u\240\245\204"
 474      1C76AF98 
 474      1D568A31 
 474      49A875A0 
 474      A584
 475 0e38 2E9925F4 		.ascii	".\231%\364\247\364\022\262c\325\256\033\245p\227%\253"
 475      A7F412B2 
 475      63D5AE1B 
 475      A5709725 
 475      AB
 476 0e49 E7DDB3FA 		.ascii	"\347\335\263\372Z\032\033\024\371Q\306\031@{4\011b\225"
 476      5A1A1B14 
 476      F951C619 
 476      407B3409 
 476      6295
 477 0e5b B5209E90 		.ascii	"\265 \236\220L\202\330\355\310T^%\335F\021\317\357@"
 477      4C82D8ED 
 477      C8545E25 
 477      DD4611CF 
 477      EF40
 478 0e6d 5CFB5EA3 		.ascii	"\\\373^\243R\235\026\356\311o\345i\267W\034t\263\023"
 478      529D16EE 
 478      C96FE569 
 478      B7571C74 
 478      B313
 479 0e7f BA5D2F2A 		.ascii	"\272]/*\253=}\205\2761\021o\335\227\337:+\321\333{\235"
 479      AB3D7D85 
 479      BE31116F 
 479      DD97DF3A 
 479      2BD1DB7B 
 480 0e94 0BA97739 		.ascii	"\013\251w9\220\272I\314{\254\304\334\254v\230\305\374"
 480      90BA49CC 
 480      7BACC4DC 
 480      AC7698C5 
 480      FC
 481 0ea5 AE033137 		.ascii	"\256\00317\253\207\250\230E\376\355\014\275\322\311"
 481      AB87A898 
 481      45FEED0C 
ARM GAS  /tmp/ccfxbxQ2.s 			page 38


 481      BDD2C9
 482 0eb4 CBAE17E5 		.ascii	"\313\256\027\345\362=Ky\275\244\313K\3633\330\031Zs"
 482      F23D4B79 
 482      BDA4CB4B 
 482      F333D819 
 482      5A73
 483 0ec6 B6C6CCD9 		.ascii	"\266\306\314\331\241\376y\222]7J\344\341\276D&Z\023"
 483      A1FE7992 
 483      5D374AE4 
 483      E1BE4426 
 483      5A13
 484 0ed8 73BA1E51 		.ascii	"s\272\036Qy\327j\355N\263\026\324VWv=?\266\210\277t"
 484      79D76AED 
 484      4EB316D4 
 484      5657763D 
 484      3FB688BF 
 485 0eed 8D6A8EBF 		.ascii	"\215j\216\277\231~7\331\3157&\351\352|\177f\305w\374"
 485      997E37D9 
 485      CD3726E9 
 485      EA7C7F66 
 485      C577FC
 486 0f00 9323767C 		.ascii	"\223#v|\333\374\355\205@\375\325l\315\037\263\326l\263"
 486      DBFCED85 
 486      40FDD56C 
 486      CD1FB3D6 
 486      6CB3
 487 0f12 8C483E3F 		.ascii	"\214H>?\352\265\"\273e\2205\331\307-\311\376\364\343"
 487      EAB522BB 
 487      659035D9 
 487      C72DC9FE 
 487      F4E3
 488 0f24 FEA8EB64 		.ascii	"\376\250\353dZ\272i$2\321\265\304\206\256\323\226f\264"
 488      5ABA6924 
 488      32D1B5C4 
 488      86AED396 
 488      66B4
 489 0f36 74D7893B 		.ascii	"t\327\211;\226\275\244\316\231\247^\356}\220w.\321\257"
 489      96BDA4CE 
 489      99A75EEE 
 489      7D90772E 
 489      D1AF
 490 0f48 CC941121 		.ascii	"\314\224\021!\231(YkC\311\031#%t\035\336>v\231qKdx\315"
 490      9928596B 
 490      43C91923 
 490      25741DDE 
 490      3E769971 
 491 0f60 46FA9D75 		.ascii	"F\372\235u\275\020\377\306f!\256/BL\366O\314\304\016"
 491      BD10FFC6 
 491      6621AE2F 
 491      424CF64F 
 491      CCC40E
 492 0f73 EADB94FD 		.ascii	"\352\333\224\375\233zu\247\351\325c\333\2130c\327\353"
 492      9B7A75A7 
 492      E9D563DB 
 492      8B3063D7 
 492      EB
 493 0f84 3BDB5E27 		.ascii	";\333^'\323\214u.\325K\337\332\230$:D\357\342\241]\316"
ARM GAS  /tmp/ccfxbxQ2.s 			page 39


 493      D38C752E 
 493      D54BDFDA 
 493      98243A44 
 493      EFE2A15D 
 494 0f99 BB96E805 		.ascii	"\273\226\350\005\033\211\352"
 494      1B89EA
 495 0fa0 1AA548F1 		.ascii	"\032\245H\361\026\365!~V\307\265\311u\341XvS\223\274"
 495      16F5217E 
 495      56C7B5C9 
 495      75E15876 
 495      5393BC
 496 0fb3 1BD9A5DF 		.ascii	"\033\331\245\337\215\374\036w\371/\232\014\306\005X"
 496      8DFC1E77 
 496      F92F9A0C 
 496      C60558
 497 0fc2 7BDBFC6B 		.ascii	"{\333\374k\311q\351%\004\332:\310|\\\3403\235\026\370"
 497      C971E925 
 497      04DA3AC8 
 497      7C5CE033 
 497      9D16F8
 498 0fd5 8CA7053E 		.ascii	"\214\247\005>\355\256\"~\264\273\212>\355\330\200|\036"
 498      EDAE227E 
 498      B4BB8A3E 
 498      EDD8807C 
 498      1E
 499 0fe6 E47E545F 		.ascii	"\344~T_\223\012\277J\243B5\313N\361\347\323\230\313"
 499      930ABF4A 
 499      A34235CB 
 499      4EF1E7D3 
 499      98CB
 500 0ff8 AC542FEE 		.ascii	"\254T/\356\312292"
 500      CA323932 
 501 1000 5D926385 		.ascii	"]\222c\205\221\342P0&\325\307\242\362\260\032.\257\274"
 501      91E25030 
 501      26D5C7A2 
 501      F2B01A2E 
 501      AFBC
 502 1012 B8B40A1F 		.ascii	"\270\264\012\037\202J\366]\023'\007J\271\001\251\252"
 502      824AF65D 
 502      1327074A 
 502      B901A9AA 
 503 1022 98222A92 		.ascii	"\230\"*\222\257|bIiu\371=\343\274\345e\023\306y\177"
 503      AF7C6249 
 503      6975F93D 
 503      E3BCE565 
 503      13C6797F 
 504 1036 3DB96A4A 		.ascii	"=\271jJ\026\376pCacL.\024\345\272\233\353\243\365\322"
 504      16FE7043 
 504      61634C2E 
 504      14E5BA9B 
 504      EBA3F5D2 
 505 104a CD92787F 		.ascii	"\315\222x\177\2440R\037\252m\014K\2051%\034\251W`\200"
 505      A430521F 
 505      AA6D0C4B 
 505      8531251C 
 505      A9576080 
 506 105e 9C46F81E 		.ascii	"\234F\370\036\023TF\246i\\'\206j\"\365Ra0,M\025\033"
ARM GAS  /tmp/ccfxbxQ2.s 			page 40


 506      135446A6 
 506      695C2786 
 506      6A22F552 
 506      61302C4D 
 507 1074 6B95A032 		.ascii	"k\225\2402\263A\212Ag\1770H\273\347\210\341\260,\305"
 507      B3418A41 
 507      677F3048 
 507      BBE788E1 
 507      B02CC5
 508 1087 62658535 		.ascii	"be\2055\321:\2510\024\015\317,\014K\323\013\241\343"
 508      D13AA930 
 508      140DCF2C 
 508      0C4BD30B 
 508      A1E3
 509 1099 FD9168AC 		.ascii	"\375\221h\254P\221\033\353\037(\204B\215X[\330\020\225"
 509      50911BEB 
 509      1F288442 
 509      8D585BD8 
 509      1095
 510 10ab 95586155 		.ascii	"\225XaUu\305\210\342\302\011\023\312\012\201\241\351"
 510      75C588E2 
 510      C20913CA 
 510      0A81A1E9 
 511 10bb 45C8776D 		.ascii	"E\310wmm\230\300B\205&\215b'p:\231\000\000\235s\341"
 511      6D98C042 
 511      85268D62 
 511      27703A99 
 511      00009D73 
 512 10d0 0BD90F2A 		.ascii	"\013\331\017*\271\200\023\234<\261|by\265\217\024\253"
 512      B980139C 
 512      3CB17C62 
 512      79B58F14 
 512      AB
 513 10e1 AA27DD4D 		.ascii	"\252'\335M\260\203\225\343J\312\246\374\214\2244\311"
 513      B08395E3 
 513      4ACAA6FC 
 513      8C9434C9 
 514 10f1 05ABEF65 		.ascii	"\005\253\357e\237*\357\305\236\023&\225\376\327\270"
 514      9F2AEFC5 
 514      9E132695 
 514      FED7B8
 515 1100 B23CC08B 		.ascii	"\262<\300\2136\324E\303\004p\322\335\025\223\312\306"
 515      36D445C3 
 515      0470D2DD 
 515      1593CAC6 
 516 1110 05E1D72B 		.ascii	"\005\341\327+h\261\252\002\004\036,\033wOy\351\270A"
 516      68B1AA02 
 516      041E2C1B 
 516      774F79E9 
 516      B841
 517 1122 86BAF193 		.ascii	"\206\272\361\223\252\252s\242\015A\322\325G\3044\242"
 517      AAAA73A2 
 517      0D41D2D5 
 517      47C434A2 
 518 1132 18103489 		.ascii	"\030\0204\211\221b^\2506\032z \030k\220\244p\001\014"
 518      91625EA8 
 518      361A7A20 
ARM GAS  /tmp/ccfxbxQ2.s 			page 41


 518      186B90A4 
 518      70010C
 519 1145 126E5466 		.ascii	"\022nTf\206f\206ja\234\202\252\352\262`\331\344\352"
 519      8666866A 
 519      619C82AA 
 519      EAB260D9 
 519      E4EA
 520 1157 29C1D229 		.ascii	")\301\322)\245\023\306\015\272\263\244\252\232y\016"
 520      A513C60D 
 520      BAB3A4AA 
 520      9A790E
 521 1166 16FF93B9 		.ascii	"\026\377\223\271\246hT\360\326\\\202\020D\010\302ei"
 521      A66854F0 
 521      D65C8210 
 521      4408C265 
 521      69
 522 1177 B47E6A64 		.ascii	"\264~jdZv\010\277\210T\246\326\212\323b`F\222,G\345"
 522      5A7608BF 
 522      8854A6D6 
 522      8AD36260 
 522      46922C47 
 523 118c D8884CA2 		.ascii	"\330\210L\242\225\225\244dC5uJ\0231\226\272FEj\012*"
 523      9595A464 
 523      4335754A 
 523      133196BA 
 523      46456A0A 
 524 11a1 59F83DC6 		.ascii	"Y\370=\306\025BlfL7\233\001J\215,\211\341X\360w\215"
 524      15426C66 
 524      4C379B01 
 524      4A8D2C89 
 524      E158F077 
 525 11b6 5223B03B 		.ascii	"R#\260;0T\0234T\215t\207\034\252!V\343\323 \202\212"
 525      30541334 
 525      548D7487 
 525      1CAA2156 
 525      E3D32082 
 526 11cb 3F0997DD 		.ascii	"?\011\227\335\020\254\227\232\024\370j\220\245\351\343"
 526      10AC979A 
 526      14F86A90 
 526      A5E9E3
 527 11da 1DA06AA6 		.ascii	"\035\240j\246YRYQZ\321\004-\353\032\"\265\304'\357*"
 527      59525951 
 527      5AD1042D 
 527      EB1A22B5 
 527      C427EF2A 
 528 11ee 2D85E63A 		.ascii	"-\205\346:\3759J\203\034\211\0065\334H4\007D\014\342"
 528      FD394A83 
 528      1C890635 
 528      DC483407 
 528      440CE2
 529 1201 506E758D 		.ascii	"Pnu\215_\023\212\312\022\361rR\035\004\273\010)M\377"
 529      5F138ACA 
 529      12F17252 
 529      1D04BB08 
 529      294DFF
 530 1214 D13F94E0 		.ascii	"\321?\224\340\364\321uD\010\2624\015\2348\250xbE\243"
 530      F4D17544 
ARM GAS  /tmp/ccfxbxQ2.s 			page 42


 530      08B2340D 
 530      9C38A878 
 530      6245A3
 531 1227 208D8634 		.ascii	" \215\2064\006\322\255\236X\361pHE\220\212!\215\200"
 531      06D2AD9E 
 531      58F17048 
 531      45908A21 
 531      8D80
 532 1239 3412D22D 		.ascii	"4\022\322-\220\240]1\264+\206v\305\320n\004\264\033"
 532      90A05D31 
 532      B42B8676 
 532      C5D06E04 
 532      B41B
 533 124b 5124C823 		.ascii	"Q$\310#\005\371\026A\036%\310\243\005y\214 \337\352"
 533      05F91641 
 533      1E25C8A3 
 533      05798C20 
 533      DFEA
 534 125d 918B8643 		.ascii	"\221\213\206C*\022je\370\032\221\325\020\004js\210\204"
 534      2A126A65 
 534      F81A91D5 
 534      10046A73 
 534      8884
 535 126f 6748327C 		.ascii	"gH2|Gk\303\222\354\015\325\2102\021\273X'\371\024\352"
 535      476BC392 
 535      EC0DD588 
 535      3211BB58 
 535      27F914EA 
 536 1283 87F02396 		.ascii	"\207\360#\226r\024\315\215\340\031m1G\221\245\2511\224"
 536      7214CD8D 
 536      E0196D31 
 536      4791A5A9 
 536      3194
 537 1295 232964D5 		.ascii	"#)d\325\305\246\301\217\324=`n\241\245l9<\023~\362I"
 537      C5A6C18F 
 537      D43D606E 
 537      A1A56C39 
 537      3C137EF2 
 538 12aa 4D1105C4 		.ascii	"M\021\005\304\"e\317P\242\367\377\266!O\232.\325+ub"
 538      2265CF50 
 538      A2F7FFB6 
 538      214F9A2E 
 538      D52B7562 
 539 12be EC0162D3 		.ascii	"\354\001b\3233H\301\323\020l,\320-\2516\022\203\231"
 539      3348C1D3 
 539      106C2CD0 
 539      2DA93612 
 539      8399
 540 12d0 6A00635B 		.ascii	"j\000c[\244\306\337\020\234!F\224H\375\264\\p\315\330"
 540      A4C6DF10 
 540      9C214694 
 540      48FDB45C 
 540      70CDD8
 541 12e3 34B4B72C 		.ascii	"4\264\267,,B\205\324 \325\303\3048\015Z\201\305\223"
 541      2C4285D4 
 541      20D5C3C4 
 541      380D5A81 
ARM GAS  /tmp/ccfxbxQ2.s 			page 43


 541      C593
 542 12f5 F6B98436 		.ascii	"\366\271\2046\261\026\365\014\225\015\321hmN\235f\245"
 542      B116F50C 
 542      950DD168 
 542      6D4E9D66 
 542      A5
 543 1306 F01D9D51 		.ascii	"\360\035\235Q/\311\331uhe\243]\031-\245\011T6\230\332"
 543      2FC9D975 
 543      6865A35D 
 543      192DA509 
 543      543698DA 
 544 131a 2D884092 		.ascii	"-\210@\222\245\372\020\010([\253\362\203\323\222y5\250"
 544      A5FA1008 
 544      285BABF2 
 544      83D39279 
 544      35A8
 545 132c E0FC013E 		.ascii	"\340\374\001>\256\317\037\244\350%?\371\345\246p\235"
 545      AECF1FA4 
 545      E8253FF9 
 545      E5A6709D 
 546 133c 48C4EA57 		.ascii	"H\304\352W\364\322\235n\347`\314\357\034\331\324\004"
 546      F4D29D6E 
 546      E760CCEF 
 546      1CD9D404 
 547 134c 61A10E24 		.ascii	"a\241\016$\0168@\327m\231`\200\347\302\322\212\252\362"
 547      0E3840D7 
 547      6D996080 
 547      E7C2D28A 
 547      AAF2
 548 135e 2A00D07A 		.ascii	"*\000\320zN\0359\274\250\211\030\364\340\262\212\222"
 548      4E1D39BC 
 548      A88918F4 
 548      E0B28A92 
 549 136e 6015A857 		.ascii	"`\025\250W\254\013V\203\327\224IS\205\322J\357\304\262"
 549      AC0B5683 
 549      D7944953 
 549      85D24AEF 
 549      C4B2
 550 1380 EA4ACFDD 		.ascii	"\352J\317\335%\225\336\212\341$+*\251\364\334YZ\231"
 550      2595DE8A 
 550      E1242B2A 
 550      A9F4DC59 
 550      5A99
 551 1392 1DC386DE 		.ascii	"\035\303\206\336\310\324\220\234\035\211\325D\246*\376"
 551      C8D4909C 
 551      1D89D544 
 551      A62AFE
 552 13a1 98543B35 		.ascii	"\230T;5R\037\226\232\262\247K!%*\017NR\026\324Z\303"
 552      521F969A 
 552      B2A74B21 
 552      252A0F4E 
 552      5216D45A 
 553 13b6 24040F72 		.ascii	"$\004\017r\023\311\225&\022&\365\201<\245\225E\220\212"
 553      13C99526 
 553      1226F581 
 553      3CA59545 
 553      908A
ARM GAS  /tmp/ccfxbxQ2.s 			page 44


 554 13c8 BD934A2A 		.ascii	"\275\223J*\213HV,\224Uz\252\240\262\252\262\330SZZ\231"
 554      8B48562C 
 554      94557AAA 
 554      A0B2AAB2 
 554      D8535A5A 
 555 13dd 555D595E 		.ascii	"U]Y^5\316{\347\004 \006$\354'3S\244\216\330%\371\212"
 555      35CE7BE7 
 555      04200624 
 555      EC273353 
 555      A48ED825 
 556 13f3 362A83F4 		.ascii	"6*\203\364P\\\027\273e\324\360\321\303B\234\271\006"
 556      505C17BB 
 556      65D4F0D1 
 556      C3429CB9 
 556      06
 557 1404 1C4D2B81 		.ascii	"\034M+\201\256\264X\355\011\211\265\276Z1\246TKu\015"
 557      AEB458ED 
 557      0989B5BE 
 557      5A31A654 
 557      4B750D
 558 1417 7E52B89B 		.ascii	"~R\270\233\304\303<\332,R\037Q\370\272\3540\302\370"
 558      C4C33CDA 
 558      2C521F51 
 558      F8BAEC30 
 558      C2F8
 559 1429 EE176352 		.ascii	"\356\027cR\011h/+\370k\260'\275ML\2116\344\220\014\230"
 559      09682F2B 
 559      F86BB027 
 559      BD4D4C89 
 559      36E4900C 
 560 143e C9A77580 		.ascii	"\311\247u\200!)W$\037\3040\2426\312\222\257\201\026"
 560      21295724 
 560      1FC430A2 
 560      36CA92AF 
 560      8116
 561 1450 F2141850 		.ascii	"\362\024\030P\222E\005\312W1\015\253S\325W\262\375+"
 561      924505CA 
 561      57310DAB 
 561      53D557B2 
 561      FD2B
 562 1462 2755DC23 		.ascii	"'U\334#\3266J\261\301\314\322B\026\353cbH)HU\021\202"
 562      D6364AB1 
 562      C1CCD242 
 562      16EB6362 
 562      48294855 
 563 1478 0BD89546 		.ascii	"\013\330\225F\264!7TS]\023\256\252\225\244\006\342\244"
 563      B4213754 
 563      535D13AE 
 563      AA95A406 
 563      E2A4
 564 148a A346EA4E 		.ascii	"\243F\352NJJ\377\007\366n\336\233"
 564      4A4AFF07 
 564      F66EDE9B 
 565              		.text
 566              		.section	.gnu.lto_.symtab.d016aea9906b8342,"",%progbits
 567 0000 6D733536 		.ascii	"ms5607_init\000\000\000\000\000\000\000\000\000\000"
 567      30375F69 
ARM GAS  /tmp/ccfxbxQ2.s 			page 45


 567      6E697400 
 567      00000000 
 567      00000000 
 568 0015 00001202 		.ascii	"\000\000\022\002\000\000ms5607_stop\000\000\000\000"
 568      00006D73 
 568      35363037 
 568      5F73746F 
 568      70000000 
 569 002a 00000000 		.ascii	"\000\000\000\000\000\000\000\000/\002\000\000ms5607"
 569      00000000 
 569      2F020000 
 569      6D733536 
 569      3037
 570 003c 5F726573 		.ascii	"_reset\000\000\000\000\000\000\000\000\000\000\000\000"
 570      65740000 
 570      00000000 
 570      00000000 
 570      0000
 571 004e 3B020000 		.ascii	";\002\000\000ms5607_readPressure\000\000\000\000\000"
 571      6D733536 
 571      30375F72 
 571      65616450 
 571      72657373 
 572 006a 00000000 		.ascii	"\000\000\000\000\000\000\000A\002\000\000ms5607_rea"
 572      00000041 
 572      0200006D 
 572      73353630 
 572      375F7265 
 573 007f 6454656D 		.ascii	"dTemperature\000\000\000\000\000\000\000\000\000\000"
 573      70657261 
 573      74757265 
 573      00000000 
 573      00000000 
 574 0095 00004D02 		.ascii	"\000\000M\002\000\000ms5607_readPROMValues\000\000\000"
 574      00006D73 
 574      35363037 
 574      5F726561 
 574      6450524F 
 575 00b3 00000000 		.ascii	"\000\000\000\000\000\000\000\000\000U\002\000\000I2"
 575      00000000 
 575      00550200 
 575      004932
 576 00c2 4353656E 		.ascii	"CSensor_transact\000\000\002\000\000\000\000\000\000"
 576      736F725F 
 576      7472616E 
 576      73616374 
 576      00000200 
 577 00db 00000059 		.ascii	"\000\000\000Y\002\000\000I2CSensor_init\000\000\002"
 577      02000049 
 577      32435365 
 577      6E736F72 
 577      5F696E69 
 578 00f3 00000000 		.ascii	"\000\000\000\000\000\000\000\000\000b\002\000\000I2"
 578      00000000 
 578      00620200 
 578      004932
 579 0102 4353656E 		.ascii	"CSensor_stop\000\000\002\000\000\000\000\000\000\000"
ARM GAS  /tmp/ccfxbxQ2.s 			page 46


 579      736F725F 
 579      73746F70 
 579      00000200 
 579      00000000 
 580 0118 00006902 		.ascii	"\000\000i\002\000\000chThdSleep\000\000\002\000\000"
 580      00006368 
 580      54686453 
 580      6C656570 
 580      00000200 
 581 012d 00000000 		.ascii	"\000\000\000\000\000\000\000n\002\000\000"
 581      0000006E 
 581      020000
 582              		.text
 583              		.section	.gnu.lto_.opts,"",%progbits
 584 0000 272D6D63 		.ascii	"'-mcpu=cortex-m4' '-mfloat-abi=hard' '-mfpu=fpv4-sp"
 584      70753D63 
 584      6F727465 
 584      782D6D34 
 584      2720272D 
 585 0033 2D643136 		.ascii	"-d16' '-mno-thumb-interwork' '-mthumb' '-O2' '-fomi"
 585      2720272D 
 585      6D6E6F2D 
 585      7468756D 
 585      622D696E 
 586 0066 742D6672 		.ascii	"t-frame-pointer' '-falign-functions=16' '-ffunction"
 586      616D652D 
 586      706F696E 
 586      74657227 
 586      20272D66 
 587 0099 2D736563 		.ascii	"-sections' '-fdata-sections' '-fno-common' '-flto' "
 587      74696F6E 
 587      73272027 
 587      2D666461 
 587      74612D73 
 588 00cc 272D6673 		.ascii	"'-fsingle-precision-constant'\000"
 588      696E676C 
 588      652D7072 
 588      65636973 
 588      696F6E2D 
 589              		.text
 590              		.section	.text.ms5607_init,"ax",%progbits
 591              		.align	2
 592              		.p2align 4,,15
 593              		.global	ms5607_init
 594              		.thumb
 595              		.thumb_func
 596              		.type	ms5607_init, %function
 597              	ms5607_init:
 598              		@ args = 0, pretend = 0, frame = 8
 599              		@ frame_needed = 0, uses_anonymous_args = 0
 600 0000 F0B5     		push	{r4, r5, r6, r7, lr}
 601 0002 C823     		movs	r3, #200
 602 0004 85B0     		sub	sp, sp, #20
 603 0006 0646     		mov	r6, r0
 604 0008 FFF7FEFF 		bl	I2CSensor_init
 605 000c 3546     		mov	r5, r6
 606 000e A124     		movs	r4, #161
ARM GAS  /tmp/ccfxbxQ2.s 			page 47


 607 0010 0227     		movs	r7, #2
 608              	.L3:
 609 0012 0122     		movs	r2, #1
 610 0014 03AB     		add	r3, sp, #12
 611 0016 0097     		str	r7, [sp]
 612 0018 3046     		mov	r0, r6
 613 001a 0DF10B01 		add	r1, sp, #11
 614 001e 8DF80B40 		strb	r4, [sp, #11]
 615 0022 FFF7FEFF 		bl	I2CSensor_transact
 616 0026 0134     		adds	r4, r4, #1
 617 0028 9DF80C20 		ldrb	r2, [sp, #12]	@ zero_extendqisi2
 618 002c 9DF80D30 		ldrb	r3, [sp, #13]	@ zero_extendqisi2
 619 0030 E4B2     		uxtb	r4, r4
 620 0032 03EB0223 		add	r3, r3, r2, lsl #8
 621 0036 A62C     		cmp	r4, #166
 622 0038 AB81     		strh	r3, [r5, #12]	@ movhi
 623 003a 05F10205 		add	r5, r5, #2
 624 003e E8D1     		bne	.L3
 625 0040 0020     		movs	r0, #0
 626 0042 05B0     		add	sp, sp, #20
 627              		@ sp needed
 628 0044 F0BD     		pop	{r4, r5, r6, r7, pc}
 629              		.size	ms5607_init, .-ms5607_init
 630 0046 00BFAFF3 		.section	.text.ms5607_stop,"ax",%progbits
 630      0080AFF3 
 630      0080
 631              		.align	2
 632              		.p2align 4,,15
 633              		.global	ms5607_stop
 634              		.thumb
 635              		.thumb_func
 636              		.type	ms5607_stop, %function
 637              	ms5607_stop:
 638              		@ args = 0, pretend = 0, frame = 0
 639              		@ frame_needed = 0, uses_anonymous_args = 0
 640 0000 08B5     		push	{r3, lr}
 641 0002 FFF7FEFF 		bl	I2CSensor_stop
 642 0006 0020     		movs	r0, #0
 643 0008 08BD     		pop	{r3, pc}
 644              		.size	ms5607_stop, .-ms5607_stop
 645 000a 00BFAFF3 		.section	.text.ms5607_reset,"ax",%progbits
 645      0080
 646              		.align	2
 647              		.p2align 4,,15
 648              		.global	ms5607_reset
 649              		.thumb
 650              		.thumb_func
 651              		.type	ms5607_reset, %function
 652              	ms5607_reset:
 653              		@ args = 0, pretend = 0, frame = 8
 654              		@ frame_needed = 0, uses_anonymous_args = 0
 655 0000 00B5     		push	{lr}
 656 0002 85B0     		sub	sp, sp, #20
 657 0004 04A9     		add	r1, sp, #16
 658 0006 1E23     		movs	r3, #30
 659 0008 01F8013D 		strb	r3, [r1, #-1]!
 660 000c 0023     		movs	r3, #0
ARM GAS  /tmp/ccfxbxQ2.s 			page 48


 661 000e 0093     		str	r3, [sp]
 662 0010 0122     		movs	r2, #1
 663 0012 FFF7FEFF 		bl	I2CSensor_transact
 664 0016 05B0     		add	sp, sp, #20
 665              		@ sp needed
 666 0018 5DF804FB 		ldr	pc, [sp], #4
 667              		.size	ms5607_reset, .-ms5607_reset
 668 001c AFF30080 		.section	.text.ms5607_readPressure,"ax",%progbits
 669              		.align	2
 670              		.p2align 4,,15
 671              		.global	ms5607_readPressure
 672              		.thumb
 673              		.thumb_func
 674              		.type	ms5607_readPressure, %function
 675              	ms5607_readPressure:
 676              		@ args = 0, pretend = 0, frame = 24
 677              		@ frame_needed = 0, uses_anonymous_args = 0
 678 0000 2DE9F04F 		push	{r4, r5, r6, r7, r8, r9, r10, fp, lr}
 679 0004 89B0     		sub	sp, sp, #36
 680 0006 08AD     		add	r5, sp, #32
 681 0008 5823     		movs	r3, #88
 682 000a 05F8093D 		strb	r3, [r5, #-9]!
 683 000e 0024     		movs	r4, #0
 684 0010 2346     		mov	r3, r4
 685 0012 0291     		str	r1, [sp, #8]
 686 0014 9346     		mov	fp, r2
 687 0016 2946     		mov	r1, r5
 688 0018 0122     		movs	r2, #1
 689 001a 0094     		str	r4, [sp]
 690 001c 8046     		mov	r8, r0
 691 001e FFF7FEFF 		bl	I2CSensor_transact
 692 0022 0326     		movs	r6, #3
 693 0024 0746     		mov	r7, r0
 694 0026 6E20     		movs	r0, #110
 695 0028 FFF7FEFF 		bl	chThdSleep
 696 002c 2946     		mov	r1, r5
 697 002e 0122     		movs	r2, #1
 698 0030 07AB     		add	r3, sp, #28
 699 0032 4046     		mov	r0, r8
 700 0034 0096     		str	r6, [sp]
 701 0036 8DF81740 		strb	r4, [sp, #23]
 702 003a FFF7FEFF 		bl	I2CSensor_transact
 703 003e 4FF0480E 		mov	lr, #72
 704 0042 2946     		mov	r1, r5
 705 0044 2346     		mov	r3, r4
 706 0046 0122     		movs	r2, #1
 707 0048 0743     		orrs	r7, r7, r0
 708 004a 0094     		str	r4, [sp]
 709 004c 4046     		mov	r0, r8
 710 004e 8DF817E0 		strb	lr, [sp, #23]
 711 0052 FFF7FEFF 		bl	I2CSensor_transact
 712 0056 0743     		orrs	r7, r7, r0
 713 0058 6E20     		movs	r0, #110
 714 005a FFF7FEFF 		bl	chThdSleep
 715 005e 0096     		str	r6, [sp]
 716 0060 2946     		mov	r1, r5
 717 0062 4046     		mov	r0, r8
ARM GAS  /tmp/ccfxbxQ2.s 			page 49


 718 0064 0122     		movs	r2, #1
 719 0066 06AB     		add	r3, sp, #24
 720 0068 8DF81740 		strb	r4, [sp, #23]
 721 006c FFF7FEFF 		bl	I2CSensor_transact
 722 0070 3843     		orrs	r0, r7, r0
 723 0072 40F08180 		bne	.L9
 724 0076 9DF81D70 		ldrb	r7, [sp, #29]	@ zero_extendqisi2
 725 007a 9DF81CA0 		ldrb	r10, [sp, #28]	@ zero_extendqisi2
 726 007e 9DF81E00 		ldrb	r0, [sp, #30]	@ zero_extendqisi2
 727 0082 B8F81410 		ldrh	r1, [r8, #20]
 728 0086 B8F81690 		ldrh	r9, [r8, #22]
 729 008a B8F81020 		ldrh	r2, [r8, #16]
 730 008e B8F80C30 		ldrh	r3, [r8, #12]
 731 0092 9DF818C0 		ldrb	ip, [sp, #24]	@ zero_extendqisi2
 732 0096 CDF80CC0 		str	ip, [sp, #12]
 733 009a 3F02     		lsls	r7, r7, #8
 734 009c 07EB0A4A 		add	r10, r7, r10, lsl #16
 735 00a0 8244     		add	r10, r10, r0
 736 00a2 AAEB012A 		sub	r10, r10, r1, lsl #8
 737 00a6 0AFB09F9 		mul	r9, r10, r9
 738 00aa 0AFB02F2 		mul	r2, r10, r2
 739 00ae 4FEAE959 		asr	r9, r9, #23
 740 00b2 9DF81940 		ldrb	r4, [sp, #25]	@ zero_extendqisi2
 741 00b6 B8F81260 		ldrh	r6, [r8, #18]
 742 00ba 9DF81A00 		ldrb	r0, [sp, #26]	@ zero_extendqisi2
 743 00be B8F80E50 		ldrh	r5, [r8, #14]
 744 00c2 9FED2F7A 		flds	s14, .L21
 745 00c6 D211     		asrs	r2, r2, #7
 746 00c8 09FB09F1 		mul	r1, r9, r9
 747 00cc 02EB0342 		add	r2, r2, r3, lsl #16
 748 00d0 039B     		ldr	r3, [sp, #12]
 749 00d2 C1EB011C 		rsb	ip, r1, r1, lsl #4
 750 00d6 2402     		lsls	r4, r4, #8
 751 00d8 11EB8C0C 		adds	ip, r1, ip, lsl #2
 752 00dc 04EB0344 		add	r4, r4, r3, lsl #16
 753 00e0 4FEA4101 		lsl	r1, r1, #1
 754 00e4 4FEAE273 		asr	r3, r2, #31
 755 00e8 0444     		add	r4, r4, r0
 756 00ea 48BF     		it	mi
 757 00ec 0CF10F0C 		addmi	ip, ip, #15
 758 00f0 0AFB06F6 		mul	r6, r10, r6
 759 00f4 521A     		subs	r2, r2, r1
 760 00f6 63EBE173 		sbc	r3, r3, r1, asr #31
 761 00fa 04FB03F3 		mul	r3, r4, r3
 762 00fe E117     		asrs	r1, r4, #31
 763 0100 B611     		asrs	r6, r6, #6
 764 0102 06EB4546 		add	r6, r6, r5, lsl #17
 765 0106 02FB0131 		mla	r1, r2, r1, r3
 766 010a A4FB0223 		umull	r2, r3, r4, r2
 767 010e 0B44     		add	r3, r3, r1
 768 0110 540D     		lsrs	r4, r2, #21
 769 0112 F717     		asrs	r7, r6, #31
 770 0114 4FEA2C1C 		asr	ip, ip, #4
 771 0118 44EAC324 		orr	r4, r4, r3, lsl #11
 772 011c 5D15     		asrs	r5, r3, #21
 773 011e B6EB0C06 		subs	r6, r6, ip
 774 0122 67EBEC77 		sbc	r7, r7, ip, asr #31
ARM GAS  /tmp/ccfxbxQ2.s 			page 50


 775 0126 A41B     		subs	r4, r4, r6
 776 0128 65EB0705 		sbc	r5, r5, r7
 777 012c E20B     		lsrs	r2, r4, #15
 778 012e 0AFB0AFA 		mul	r10, r10, r10
 779 0132 42EA4542 		orr	r2, r2, r5, lsl #17
 780 0136 06EE102A 		fmsr	s12, r2	@ int
 781 013a 09F5FA69 		add	r9, r9, #2000
 782 013e 4FEADA7A 		lsr	r10, r10, #31
 783 0142 CAEB0909 		rsb	r9, r10, r9
 784 0146 F8EEC67A 		fsitos	s15, s12
 785 014a 06EE109A 		fmsr	s12, r9	@ int
 786 014e F8EEC66A 		fsitos	s13, s12
 787 0152 67EE877A 		fmuls	s15, s15, s14
 788 0156 029B     		ldr	r3, [sp, #8]
 789 0158 C8ED077A 		fsts	s15, [r8, #28]
 790 015c 26EE877A 		fmuls	s14, s13, s14
 791 0160 88ED067A 		fsts	s14, [r8, #24]
 792 0164 0BB1     		cbz	r3, .L12
 793 0166 C3ED007A 		fsts	s15, [r3]
 794              	.L12:
 795 016a BBF1000F 		cmp	fp, #0
 796 016e 03D0     		beq	.L9
 797 0170 D8F81830 		ldr	r3, [r8, #24]	@ float
 798 0174 CBF80030 		str	r3, [fp]	@ float
 799              	.L9:
 800 0178 0020     		movs	r0, #0
 801 017a 09B0     		add	sp, sp, #36
 802              		@ sp needed
 803 017c BDE8F08F 		pop	{r4, r5, r6, r7, r8, r9, r10, fp, pc}
 804              	.L22:
 805              		.align	2
 806              	.L21:
 807 0180 0AD7233C 		.word	1008981770
 808              		.size	ms5607_readPressure, .-ms5607_readPressure
 809 0184 AFF30080 		.section	.text.ms5607_readTemperature,"ax",%progbits
 809      AFF30080 
 809      AFF30080 
 810              		.align	2
 811              		.p2align 4,,15
 812              		.global	ms5607_readTemperature
 813              		.thumb
 814              		.thumb_func
 815              		.type	ms5607_readTemperature, %function
 816              	ms5607_readTemperature:
 817              		@ args = 0, pretend = 0, frame = 0
 818              		@ frame_needed = 0, uses_anonymous_args = 0
 819              		@ link register save eliminated.
 820 0000 0020     		movs	r0, #0
 821 0002 7047     		bx	lr
 822              		.size	ms5607_readTemperature, .-ms5607_readTemperature
 823 0004 AFF30080 		.section	.text.ms5607_readPROMValues,"ax",%progbits
 823      AFF30080 
 823      AFF30080 
 824              		.align	2
 825              		.p2align 4,,15
 826              		.global	ms5607_readPROMValues
 827              		.thumb
ARM GAS  /tmp/ccfxbxQ2.s 			page 51


 828              		.thumb_func
 829              		.type	ms5607_readPROMValues, %function
 830              	ms5607_readPROMValues:
 831              		@ args = 0, pretend = 0, frame = 0
 832              		@ frame_needed = 0, uses_anonymous_args = 0
 833              		@ link register save eliminated.
 834 0000 0020     		movs	r0, #0
 835 0002 7047     		bx	lr
 836              		.size	ms5607_readPROMValues, .-ms5607_readPROMValues
 837              		.comm	__gnu_lto_v1,1,1
 838 0004 AFF30080 		.ident	"GCC: (GNU Tools for ARM Embedded Processors) 4.8.4 20140526 (release) [ARM/embedded-4_8-br
 838      AFF30080 
 838      AFF30080 
ARM GAS  /tmp/ccfxbxQ2.s 			page 52


DEFINED SYMBOLS
                            *ABS*:0000000000000000 ms5607.c
     /tmp/ccfxbxQ2.s:591    .text.ms5607_init:0000000000000000 $t
     /tmp/ccfxbxQ2.s:597    .text.ms5607_init:0000000000000000 ms5607_init
     /tmp/ccfxbxQ2.s:631    .text.ms5607_stop:0000000000000000 $t
     /tmp/ccfxbxQ2.s:637    .text.ms5607_stop:0000000000000000 ms5607_stop
     /tmp/ccfxbxQ2.s:646    .text.ms5607_reset:0000000000000000 $t
     /tmp/ccfxbxQ2.s:652    .text.ms5607_reset:0000000000000000 ms5607_reset
     /tmp/ccfxbxQ2.s:669    .text.ms5607_readPressure:0000000000000000 $t
     /tmp/ccfxbxQ2.s:675    .text.ms5607_readPressure:0000000000000000 ms5607_readPressure
     /tmp/ccfxbxQ2.s:807    .text.ms5607_readPressure:0000000000000180 $d
     /tmp/ccfxbxQ2.s:810    .text.ms5607_readTemperature:0000000000000000 $t
     /tmp/ccfxbxQ2.s:816    .text.ms5607_readTemperature:0000000000000000 ms5607_readTemperature
     /tmp/ccfxbxQ2.s:824    .text.ms5607_readPROMValues:0000000000000000 $t
     /tmp/ccfxbxQ2.s:830    .text.ms5607_readPROMValues:0000000000000000 ms5607_readPROMValues
                            *COM*:0000000000000001 __gnu_lto_v1
     /tmp/ccfxbxQ2.s:809    .text.ms5607_readPressure:0000000000000184 $t

UNDEFINED SYMBOLS
I2CSensor_init
I2CSensor_transact
I2CSensor_stop
chThdSleep
