ARM GAS  /tmp/ccA3dYra.s 			page 1


   1              		.syntax unified
   2              		.cpu cortex-m4
   3              		.eabi_attribute 27, 3
   4              		.eabi_attribute 28, 1
   5              		.fpu fpv4-sp-d16
   6              		.eabi_attribute 20, 1
   7              		.eabi_attribute 21, 1
   8              		.eabi_attribute 23, 3
   9              		.eabi_attribute 24, 1
  10              		.eabi_attribute 25, 1
  11              		.eabi_attribute 26, 1
  12              		.eabi_attribute 30, 2
  13              		.eabi_attribute 34, 1
  14              		.eabi_attribute 18, 4
  15              		.thumb
  16              		.file	"ms5607.c"
  17              		.section	.gnu.lto_.jmpfuncs.7963fd4435a6ae6,"",%progbits
  18 0000 789C6D8B 		.ascii	"x\234m\213\301\015\2000\014\003\317IJ\267\340\315H\254"
  18      C10D8030 
  18      0C03CF49 
  18      4AB7E0CD 
  18      48AC
  19 0012 508977E7 		.ascii	"P\211w\347'\205|\220\210\224\330r\316\206\3617W\351"
  19      27857C90 
  19      8894D872 
  19      CE86F137 
  19      57E9
  20 0024 468F6008 		.ascii	"F\217`\010\204\347\231\217\330\314=5\244#3\267\017\221"
  20      84E7998F 
  20      D8CC3D35 
  20      A42333B7 
  20      0F91
  21 0036 2FB574CC 		.ascii	"/\265t\314\225\211\305\331\376\362\256*\006e\026\350"
  21      9589C5D9 
  21      FEF2AE2A 
  21      066516E8 
  22 0046 040D6EB2 		.ascii	"\004\015n\262\226\007\221"
  22      960791
  23              		.text
  24              		.section	.gnu.lto_.inline.7963fd4435a6ae6,"",%progbits
  25 0000 789C6362 		.ascii	"x\234cb`b\300\006fBi6\006\006\016\001FF\006F \033\244"
  25      6062C006 
  25      66426936 
  25      06060E01 
  25      46460646 
  26 0017 926D813C 		.ascii	"\222m\201<X\003+\037\003\003\313\004?\020\004\312\261"
  26      58032B1F 
  26      0303CB04 
  26      3F1004CA 
  26      B1
  27 0028 F16151C2 		.ascii	"\361aQ\302\314\003\344\203\02401r\0133201]\340\207\313"
  27      CC03E483 
  27      14303172 
  27      0B333230 
  27      315DE087 
  28 003d B10B008D 		.ascii	"\261\013\000\215\000j\005)c`fbD\321\310\202!\302\212"
  28      006A0529 
ARM GAS  /tmp/ccA3dYra.s 			page 2


  28      63606662 
  28      44D1C882 
  28      21C28A
  29 0050 21C20000 		.ascii	"!\302\000\000&\247\014&"
  29      26A70C26 
  30              		.text
  31              		.section	.gnu.lto_.pureconst.7963fd4435a6ae6,"",%progbits
  32 0000 789C6362 		.ascii	"x\234cb`b\340e\200\0006\006\011F\011&\011f\006\026\006"
  32      6062E065 
  32      80003606 
  32      09460926 
  32      09660616 
  33 0015 56060004 		.ascii	"V\006\000\004\246\000o"
  33      A6006F
  34              		.text
  35              		.section	.gnu.lto_ms5607_init.7963fd4435a6ae6,"",%progbits
  36 0000 789C6362 		.ascii	"x\234cb`b@\007\222@\374\030\210\205\201\230\221\231"
  36      60624007 
  36      9240FC18 
  36      88858198 
  36      9199
  37 0012 819169C2 		.ascii	"\201\221i\3029\006\206F\016&FF\020\203\201\221\241\236"
  37      39068646 
  37      0E264646 
  37      10838191 
  37      A19E
  38 0024 89B13E92 		.ascii	"\211\261>\222\021\254v=\323\201\007\377\377\257\373"
  38      11AC763D 
  38      D38107FF 
  38      FFAFFB
  39 0033 D0F28A99 		.ascii	"\320\362\212\231\235\2211\227\021h\\&#\003\013\220\305"
  39      9D913197 
  39      11685C26 
  39      23030B90 
  39      C5
  40 0044 C80A2440 		.ascii	"\310\012$@\206\2632\26444LP``H\006k\011\001\222 sB\201"
  40      86B332B4 
  40      34344C50 
  40      60604806 
  40      6B090192 
  41 005c 92409AF9 		.ascii	"\222@\232\371,C\323\257\346\3477\231\022\031\0272\262"
  41      2C43D3AF 
  41      E6E73799 
  41      12191732 
  41      B2
  42 006d 32A43332 		.ascii	"2\24432U3T\001\215\320fX\325\000\004\261\231\214\214"
  42      55335401 
  42      8DD06658 
  42      D50004B1 
  42      998C8C
  43 0080 B3196631 		.ascii	"\263\031f1f22\24532F\000if\260\275I\214H\016>\317\320"
  43      663232A5 
  43      33324600 
  43      6966B0BD 
  43      498C480E 
  44 0097 7E401BA2 		.ascii	"~@\033\242\237\201\241\232\341WCG\203@&#K2#DQ:H/K:#"
  44      9F81A19A 
ARM GAS  /tmp/ccA3dYra.s 			page 3


  44      E1574347 
  44      83402623 
  44      4B322344 
  45 00b2 2B483BAB 		.ascii	"+H;\253\006\320\201l\014\014\027\031\032\037\354\341"
  45      06D0816C 
  45      0C0C1719 
  45      1A1FECE1 
  46 00c2 82680289 		.ascii	"\202h\002\211\263\303\014\013\001\352\002\272\013\344"
  46      B3C30C0B 
  46      01EA02BA 
  46      0BE4
  47 00d0 724197A2 		.ascii	"rA\227\242\314\262\324\242b\375\334bS3\003s\275d\006"
  47      CCB2D4A2 
  47      62FDDC62 
  47      53330373 
  47      BD6406
  48 00e3 00BC5A38 		.ascii	"\000\274Z8\325"
  48      D5
  49              		.text
  50              		.section	.gnu.lto_ms5607_stop.7963fd4435a6ae6,"",%progbits
  51 0000 789C6362 		.ascii	"x\234cb`b@\007\222@|\005\210\205\201\230\221\231\201"
  51      60624007 
  51      92407C05 
  51      88858198 
  51      919981
  52 0013 9169C239 		.ascii	"\221i\3029\006\206F\016&FF\020\203\201\221\241\236\211"
  52      0686460E 
  52      26464610 
  52      838191A1 
  52      9E89
  53 0025 B13E9211 		.ascii	"\261>\222\021\254v=\323\201\007\377\377\257\233\326"
  53      AC763DD3 
  53      8107FFFF 
  53      AF9BD6
  54 0034 FA89858D 		.ascii	"\372\211\205\215\2211\227\021h\\&#\003\013\220\005\222"
  54      91319711 
  54      685C2623 
  54      030B9005 
  54      92
  55 0045 67656869 		.ascii	"gehih\230\240\300\300\220\014V\035\002$AF\20422\201"
  55      6898A0C0 
  55      C0900C56 
  55      1D022441 
  55      46843232 
  56 005a 68E6B30C 		.ascii	"h\346\263\014M\277\2327\337bJd\\\310\310\312\220\316"
  56      4DBF9A37 
  56      DF624A64 
  56      5CC8C8CA 
  56      90CE
  57 006c C854CD50 		.ascii	"\310T\315P\005\324\255\315\260\252\001\010b3\031\031"
  57      05D4ADCD 
  57      B0AA0108 
  57      62331919 
  58 007c 6733CC62 		.ascii	"g3\314b\314ddJgd\214\000\322\314`+\223\030\221\334z"
  58      CC64644A 
  58      67648C00 
  58      D2CC602B 
ARM GAS  /tmp/ccA3dYra.s 			page 4


  58      931891DC 
  59 0091 9EA1F580 		.ascii	"\236\241\365\2006D?\003C5\303\257\206\216\006\201LF"
  59      36443F03 
  59      4335C3AF 
  59      868E0681 
  59      4C46
  60 00a3 96644688 		.ascii	"\226dF\210\242t\220^\226L\220\354E\206\306\007g\271"
  60      A274905E 
  60      964C90EC 
  60      4586C607 
  60      67B9
  61 00b5 204A4186 		.ascii	" JA\206\261\301\214\010\001\252\005\272\006\024\016"
  61      B1C18C08 
  61      01AA05BA 
  61      06140E
  62 00c4 822E4599 		.ascii	"\202.E\231e\251E\305\372\271\305\246f\006\346z\311\014"
  62      65A945C5 
  62      FAB9C5A6 
  62      6606E67A 
  62      C90C
  63 00d6 009D4336 		.ascii	"\000\235C6|"
  63      7C
  64              		.text
  65              		.section	.gnu.lto_ms5607_reset.7963fd4435a6ae6,"",%progbits
  66 0000 789C5D4F 		.ascii	"x\234]O=K\003A\020}o\3173W\371\001\202X\370\201\265"
  66      3D4B0341 
  66      107D6FCF 
  66      3357F901 
  66      8258F881 
  67 0015 A845D41F 		.ascii	"\250E\324\037\240?!\202Vr\304\020\2568\213\273\240\205"
  67      A03F2182 
  67      5672C410 
  67      AE388BBB 
  67      A085
  68 0027 45366291 		.ascii	"E6b\221B$\244\262\022\202X\211X\330X\036V6QS\245\275"
  68      4224A4B2 
  68      12825889 
  68      58D8581E 
  68      56365153 
  69 003d C64A1B3B 		.ascii	"\306J\033;\021\361\234\315\212\304\014\354\276\235\231"
  69      11F19CCD 
  69      8AC40CEC 
  69      BE9D99
  70 004c B7F3DE28 		.ascii	"\267\363\336((\014\306\224\2342\201\005A:\240j<\002"
  70      280CC694 
  70      9C328105 
  70      413AA06A 
  70      3C02
  71 005e 354F91E6 		.ascii	"5O\221\346\001\242\252X\335\246\241r\036-\2354\323\227"
  71      01A2AA58 
  71      DDA6A172 
  71      1E2D9D34 
  71      D397
  72 0070 EEE9A44E 		.ascii	"\356\351\244NuC\177g\031\003\312\320\011\242HlIB\257"
  72      75437F67 
  72      1903CAD0 
  72      09A2486C 
ARM GAS  /tmp/ccA3dYra.s 			page 5


  72      4942AF
  73 0083 078AFF55 		.ascii	"\007\212\377UnT\222f\331\333\325s>\3470$\\\004\"\006"
  73      6E549266 
  73      D9DBD573 
  73      3EE73024 
  73      5C042206 
  74 0097 C163AD1B 		.ascii	"\301c\255\033s>[2|\026\347:m$\235\367\007\326\233\372"
  74      733E5B32 
  74      7C16E73A 
  74      6D249DF7 
  74      07D69BFA 
  75 00ab 2BCB1C61 		.ascii	"+\313\034a\015)L\367\246\367\207\317K\016\254b\031\005"
  75      0D294CF7 
  75      A6F787CF 
  75      4B0EAC62 
  75      1905
  76 00bd B98DEF4D 		.ascii	"\271\215\357Mi\013:m\034\335}tG|^\320\205U1\3660#\334"
  76      690B3A6D 
  76      1CDD7D74 
  76      477C5ED0 
  76      855531F6 
  77 00d4 279CE993 		.ascii	"'\234\351\223k\332^\231\356!>u]\217\005t\213\264re:"
  77      6BDA5E99 
  77      EE213E75 
  77      5D8F0574 
  77      8BB47265 
  78 00e9 A6287110 		.ascii	"\246(q\020p\330~\267\364\336\224\234]\331\373\315`\334"
  78      70D87EB7 
  78      F4DE949C 
  78      5DD9FBCD 
  78      60DC
  79 00fb 026DDCBF 		.ascii	"\002m\334\277\252~\301<nu\335\210JtPK\334?E\353\274"
  79      AA7EC13C 
  79      6E75DD88 
  79      4A74504B 
  79      DC3F45EB 
  80 0110 206AE2D5 		.ascii	" j\342\325\3543\276\021\005\373\245(^\012\343\225\325"
  80      EC33BE11 
  80      05FBA528 
  80      5E0AE395 
  80      D5
  81 0121 E5B5C522 		.ascii	"\345\265\305\"\274\250\024\227*\353\341\356\250-\355"
  81      BCA81497 
  81      2AEBE1EE 
  81      A82DED
  82 0130 54227F2F 		.ascii	"T\"\177/\016\203\312\017\240xb\335"
  82      0E83CA0F 
  82      A07862DD 
  83              		.text
  84              		.section	.gnu.lto_ms5607_readPressure.7963fd4435a6ae6,"",%progbits
  85 0000 789C6362 		.ascii	"x\234cb`b@\007\222@\034\001\304\302@\314\310\314\300"
  85      60624007 
  85      92401C01 
  85      C4C240CC 
  85      C8CCC0
  86 0013 C834E11C 		.ascii	"\3104\341\034\003C#\007\023##\210\301\300\310P\317\304"
  86      03432307 
ARM GAS  /tmp/ccA3dYra.s 			page 6


  86      13232388 
  86      C1C0C850 
  86      CFC4
  87 0025 581FC908 		.ascii	"X\037\311\010V\273\236\351\300\203\377\377\327\335k"
  87      56BB9EE9 
  87      C083FFFF 
  87      D7DD6B
  88 0034 BDC40E32 		.ascii	"\275\304\0162\210\225\241\245\241a\202\002\003C2X:\004"
  88      8895A1A5 
  88      A1618202 
  88      03433258 
  88      3A04
  89 0046 4882F484 		.ascii	"H\202\364\20422\201h\346\213\014\215\017~r%2.dde\210"
  89      32328168 
  89      E68B0C8D 
  89      0F7E7225 
  89      322E6464 
  90 005c 60CC6484 		.ascii	"`\314d\204[\031\302\310\010R\0002B\320\245(\263,\265"
  90      5B19C2C8 
  90      08520032 
  90      42D0A528 
  90      B32CB5
  91 006f A8583FB7 		.ascii	"\250X?\267\330\324\314\300\\/\231\001\000$0\036\222"
  91      D8D4CCC0 
  91      5C2F9901 
  91      0024301E 
  91      92
  92              		.text
  93              		.section	.gnu.lto_ms5607_readTemperature.7963fd4435a6ae6,"",%progbits
  94 0000 789C6362 		.ascii	"x\234cb`b@\007\222@\034\015\304\302@\314\310\314\300"
  94      60624007 
  94      92401C0D 
  94      C4C240CC 
  94      C8CCC0
  95 0013 C834E11C 		.ascii	"\3104\341\034\003C#\007\023##\210\301\300\310P\317\304"
  95      03432307 
  95      13232388 
  95      C1C0C850 
  95      CFC4
  96 0025 581FC908 		.ascii	"X\037\311\010V\273\236\351\300\203\377\377\327M8\266"
  96      56BB9EE9 
  96      C083FFFF 
  96      D74D38B6 
  97 0035 A09B9111 		.ascii	"\240\233\221\021d\024+CKC\303\004\005\006\206d\260\202"
  97      64142B43 
  97      4B43C304 
  97      05068664 
  97      B082
  98 0047 102009D2 		.ascii	"\020 \011\322\025\012\224\004\322\314\027\031\032\037"
  98      150A9404 
  98      D2CC1719 
  98      1A1F
  99 0055 742D664C 		.ascii	"t-fLd\\\310\310\312\020\301\230\311\010\2675\204\221"
  99      645CC8C8 
  99      CA10C198 
  99      C908B735 
  99      8491
ARM GAS  /tmp/ccA3dYra.s 			page 7


 100 0067 11A40264 		.ascii	"\021\244\002d\206\240KQfYjQ\261~n\261\251\231\201\271"
 100      86A04B51 
 100      66596A51 
 100      B17E6EB1 
 100      A99981B9 
 101 007b 5E320300 		.ascii	"^2\003\000u\213\037\007"
 101      758B1F07 
 102              		.text
 103              		.section	.gnu.lto_ms5607_readPROMValues.7963fd4435a6ae6,"",%progbits
 104 0000 789C6362 		.ascii	"x\234cb`b@\007\222@\034\015\304\302@\314\310\314\300"
 104      60624007 
 104      92401C0D 
 104      C4C240CC 
 104      C8CCC0
 105 0013 C834E11C 		.ascii	"\3104\341\034\003C#\007\023##\210\301\300\310P\317\304"
 105      03432307 
 105      13232388 
 105      C1C0C850 
 105      CFC4
 106 0025 581FC908 		.ascii	"X\037\311\010V\273\236\351\300\203\377\377\327m:\266"
 106      56BB9EE9 
 106      C083FFFF 
 106      D76D3AB6 
 107 0035 600E2323 		.ascii	"`\016##\310(V\206\226\206\206\011\012\014\014\311`\005"
 107      C8285686 
 107      96868609 
 107      0A0C0CC9 
 107      6005
 108 0047 214012A4 		.ascii	"!@\022\244+\024(\011\244\231/24>\230\275\2301\221q!"
 108      2B142809 
 108      A4992F32 
 108      343E98BD 
 108      98319171 
 109 005c 232B4304 		.ascii	"#+C\004c&#\334\326\020FF\220\012\220\031\202.E\231e"
 109      632623DC 
 109      D6104646 
 109      900A9019 
 109      822E4599 
 110 0071 A945C5FA 		.ascii	"\251E\305\372\271\305\246f\006\346z\311\014\000\213"
 110      B9C5A666 
 110      06E67AC9 
 110      0C008B
 111 0080 DB1F4B   		.ascii	"\333\037K"
 112              		.text
 113              		.section	.gnu.lto_.symbol_nodes.7963fd4435a6ae6,"",%progbits
 114 0000 789C4DC7 		.ascii	"x\234M\307\311\015\2000\024\003Q\177\007\222\264A\245"
 114      C90D8030 
 114      1403517F 
 114      0792B441 
 114      A5
 115 0011 665F6E54 		.ascii	"f_nT\300\205~\250\201J\020B \222\271\214\036Al\370b"
 115      C0857EA8 
 115      814A1042 
 115      2092B98C 
 115      1E416CF8 
 116 0026 4301EB01 		.ascii	"C\001\353\001H\333ll)\313\330Q\314\330S.\343@\025\031"
 116      48DB6C6C 
ARM GAS  /tmp/ccA3dYra.s 			page 8


 116      29CBD851 
 116      CCD8532E 
 116      E3401519 
 117 003a 47AA4CB4 		.ascii	"G\252L\264\211\362/\353\332l\246B\322B\305_\016\036"
 117      89F22FEB 
 117      DA6CA642 
 117      D242C55F 
 117      0E1E
 118 004c FB7999B3 		.ascii	"\373y\231\263\360\236\361y\205\033\307\032/\177"
 118      F09EF179 
 118      851BC71A 
 118      2F7F
 119              		.text
 120              		.section	.gnu.lto_.refs.7963fd4435a6ae6,"",%progbits
 121 0000 789C6362 		.ascii	"x\234cb`b`d\200\002\000\000F\000\006"
 121      60626064 
 121      80020000 
 121      460006
 122              		.text
 123              		.section	.gnu.lto_.decls.7963fd4435a6ae6,"",%progbits
 124 0000 789CBD5B 		.ascii	"x\234\275[{t\024E\272\357\356\231d2$\033\020\026/z="
 124      7B741445 
 124      BAEFEE99 
 124      6432241B 
 124      10162F7A 
 125 0015 87F15CD7 		.ascii	"\207\361\\\327\303\331]\311\003\344q\274W\311&\001r"
 125      C3D95DC9 
 125      03E471BC 
 125      57C92601 
 125      72
 126 0026 96D74982 		.ascii	"\226\327I\202\007\316\335\335\261\235i\310\\3\231lO"
 126      07CEDDDD 
 126      B19D69C8 
 126      5C33996C 
 126      4F
 127 0037 07C25FDB 		.ascii	"\007\302_\333$\222\025\024\014\001\344!\204x\021D\027"
 127      24921514 
 127      0C01E421 
 127      84781144 
 127      17
 128 0048 59222084 		.ascii	"Y\" \204\005\031T <\014(\317\004\220q\257 \217u/\240"
 128      05195420 
 128      3C0C28CF 
 128      049071AF 
 128      208F752F 
 129 005d 1101496E 		.ascii	"\021\001In\325W\3353\325\235\356\231\356\254{\347\244"
 129      D557DD33 
 129      D59DEE99 
 129      EEAC7BE7 
 129      A4
 130 006e 6AAA6BAA 		.ascii	"j\252k\252~\365=\353\253\252\256p\014\307\034e\031\246"
 130      7EF53DEB 
 130      ABAAAE70 
 130      0CC71C65 
 130      19A6
 131 0080 1B7DDEC8 		.ascii	"\033}\336\310g\230\371i\014\343b\030\346i\224RPz\203"
 131      6798F969 
ARM GAS  /tmp/ccA3dYra.s 			page 9


 131      0CE36218 
 131      E6699452 
 131      507A83
 132 0093 21CFDB51 		.ascii	"!\317\333Qr\242\364\014C>n\224\036\340\030\346q\224"
 132      72A2F40C 
 132      433E6E94 
 132      1EE018E6 
 132      7194
 133 00a5 72511A85 		.ascii	"rQ\032\205R\036J\343P\3725J%(M\343\230\036\037\334\007"
 133      521E4AE3 
 133      50FA354A 
 133      25284DE3 
 133      981E1FDC 
 134 00ba 0DC14CE2 		.ascii	"\015\301L\342\010\366@\364\375S\224\376\223#\343L@\337"
 134      08F640F4 
 134      FD5394FE 
 134      9323E34C 
 134      40DF
 135 00cc 35881EF4 		.ascii	"5\210\036\364\307<\214\312\234\322\007c:Py0\372~\024"
 135      C73C8CCA 
 135      9CD20763 
 135      3A507930 
 135      FA7E14
 136 00df A57FD361 		.ascii	"\245\177\323a?\256\364\327\343\376\006\245R\003\314"
 136      3FAEF4D7 
 136      E3FE06A5 
 136      5203CC
 137 00ee C7151A71 		.ascii	"\307\025\032qy(\312\262tx\230'\267\302w&J\031\014\301"
 137      7928CAB2 
 137      74789827 
 137      B7C27726 
 137      4A190CC1 
 138 0102 988EEA7F 		.ascii	"\230\216\352\177\213\322\3578\255<8\245\017\346\031"
 138      8BD2EF38 
 138      AD3C38A5 
 138      0FE619
 139 0111 8F334287 		.ascii	"\2173B\2077J\251\307\030\370\303*u\372O\236A\273<\203"
 139      374AA9C7 
 139      18F8C32A 
 139      75FA4F9E 
 139      41BB3C83 
 140 0125 76E30CDA 		.ascii	"v\343\014\332\2153h\327\237Y,\243\217\247\02511\215"
 140      8D3368D7 
 140      9F592CA3 
 140      8FA71531 
 140      318D
 141 0137 E5D94C37 		.ascii	"\345\331L7\363\034\0242\334\300\323\317\2307e\271>:"
 141      F31C1432 
 141      DCC0D3CF 
 141      983765B9 
 141      3E3A
 142 0149 EF65D6C3 		.ascii	"\357e\326\303\263o\260\375\021#\203X\346\347\314\333"
 142      B36FB0FD 
 142      11238358 
 142      E6E7CCDB 
 143 0159 A853BD2C 		.ascii	"\250S\275,\327\014\350\011\231\024\223axv=\202\342\331"
 143      D70CE809 
ARM GAS  /tmp/ccA3dYra.s 			page 10


 143      99149361 
 143      78763D82 
 143      E2D9
 144 016b 37D99F93 		.ascii	"7\331\237\223\021\344\310\036\277\207\3242J\275\301"
 144      11E4C81E 
 144      BF87D432 
 144      4ABDC1
 145 017a E751A609 		.ascii	"\347Q\246\011\015\031\371t[\013+\327e\270\230:\364$"
 145      0D19F974 
 145      5B0B2BD7 
 145      65B8983A 
 145      F424
 146 018c 47E7D50C 		.ascii	"G\347\325\014Z\021\037)M\035\211\215Q\037iI\343xv#\353"
 146      5A111F29 
 146      4D1D898D 
 146      511F6949 
 146      E3787623 
 147 01a1 42C4FF82 		.ascii	"B\304\377\202\325\300[\300\300\364\374\011\365\325P"
 147      D5C05BC0 
 147      C0F4FC09 
 147      F5D550
 148 01b0 DBECE448 		.ascii	"\333\354\344Hm\002j\035\014\330\317S,\2409\335\361\252"
 148      6D026A1D 
 148      0CD8CF53 
 148      2CA039DD 
 148      F1AA
 149 01c2 8258154B 		.ascii	"\202X\025K5,\212\325\252z\302\217\254;^\350f5\003\320"
 149      352C8AD5 
 149      AA7AC28F 
 149      AC3B5EE8 
 149      663503D0 
 150 01d6 74F1EC26 		.ascii	"t\361\354&\366g(\177\227u\030v\343\230I\254\"v#&\225"
 150      F667287F 
 150      97751876 
 150      E39849AC 
 150      22762326 
 151 01eb 627CD84C 		.ascii	"b|\330L\365A\025\372\211owb\241\273\231\227@`\353\345"
 151      F54115FA 
 151      896F7762 
 151      A1BB9997 
 151      4060EBE5 
 152 01ff 24428FB6 		.ascii	"$B\217\266\327\275\373\013YN\343\331\355,\346h\216V"
 152      D7BDFB0B 
 152      594EE3D9 
 152      ED2CE668 
 152      8E56
 153 0211 F0D67196 		.ascii	"\360\326q\226,h\034\0058;\001\347}V\013\244\260J\011"
 153      2C681C05 
 153      383B01E7 
 153      7D560BA4 
 153      B04A09
 154 0224 053DAB0D 		.ascii	"\005=\253\015\222\0120I[\216\211\260v\305\226F\213-"
 154      920A3049 
 154      5B8E89B0 
 154      76C59646 
 154      8B2D
 155 0236 BA7FC1D2 		.ascii	"\272\177\301\322\207\344\246\017\331tf\001\346\267\251"
ARM GAS  /tmp/ccA3dYra.s 			page 11


 155      87E4A60F 
 155      D9746601 
 155      E6B7A9
 156 0245 4E1EDF9A 		.ascii	"N\036\337\232i\340 \021\207\0126*\316zs\333\251\015"
 156      69E02011 
 156      870A362A 
 156      CE7A73DB 
 156      A90D
 157 0257 6CAD2CA3 		.ascii	"l\255,\243\037>\000\327[\310i\231O\012\304\263\021\226"
 157      1F3E00D7 
 157      5BC86999 
 157      4F0AC4B3 
 157      1196
 158 0269 43F93EBD 		.ascii	"C\371>\275\273\335\\\225!;I}r\207\273\323\321\370/r"
 158      BBDD5C95 
 158      213B497D 
 158      7287BBD3 
 158      D1F82F72 
 159 027d 34C25AF6 		.ascii	"4\302Z\366\270\350\305\317\316\344\200\322>\006\257"
 159      B8E8C5CF 
 159      CEE480D2 
 159      3E06AF
 160 028c 3BCCF5CA 		.ascii	";\314\365\312\355\016\352\335\356\323\272\276\230\352"
 160      ED0EEADD 
 160      EED3BABE 
 160      98EA
 161 029a 83961CEF 		.ascii	"\203\226\034\357\024\327\323\363\242\234\241\353]\345"
 161      14D7D3F3 
 161      A29CA1EB 
 161      5DE5
 162 02a8 B4BEA754 		.ascii	"\264\276\247T\177\023\257vP\325s\035\261j'U\375j\274"
 162      7F13AF76 
 162      50D5731D 
 162      B16A2755 
 162      FD6ABC
 163 02bb 3A853289 		.ascii	":\2052\211\204\366w\220r\340Vp\340C&\016\314\263[c\232"
 163      84F67790 
 163      72E05670 
 163      E043260E 
 163      CCB35B63 
 164 02d0 EC950747 		.ascii	"\354\225\007G\233\027}y\231]R+\267f\033\031#j\302&\016"
 164      9B177D79 
 164      995D522B 
 164      B7661B19 
 164      236AC226 
 165 02e5 02913D1D 		.ascii	"\002\221=\035\254'\331\334\316\263g\021\033V\"@\207"
 165      AC27D9DC 
 165      CEB36711 
 165      1B562240 
 165      87
 166 02f6 DE24D774 		.ascii	"\336$\327t\200IvX2\311\346\216e\366L2r\363\014\016a"
 166      80497658 
 166      32C9E68E 
 166      65F64C32 
 166      72F30C0E 
 167 030b 17C01E57 		.ascii	"\027\300\036W9ze\217Q\275=\266/\007{\214Z\262\307\015"
 167      397A658F 
ARM GAS  /tmp/ccA3dYra.s 			page 12


 167      51BD3DB6 
 167      2F077B8C 
 167      5AB2C70D 
 168 031f 0ECAF694 		.ascii	"\016\312\366\224\272f\207\241\341\355wh\015\317\212"
 168      BA6687A1 
 168      E1ED7768 
 168      0DCF8A
 169 032e 29452953 		.ascii	")E)S\372\002L\351\257\246\261\340\014\360\337\321\353"
 169      FA024CE9 
 169      AFA6B1E0 
 169      0CF0DFD1 
 169      EB
 170 033f 60B0B563 		.ascii	"`\260\265c\031\314j\312,N\014)\326\326\243\"8\031*\032"
 170      19CC6ACA 
 170      2C4E0C29 
 170      D6D6A322 
 170      38192A1A 
 171 0353 ECDFC7D6 		.ascii	"\354\337\307\326\300Tv\015\346\361\213\016\303\200`"
 171      C054760D 
 171      E6F18B0E 
 171      C38060
 172 0362 016AC982 		.ascii	"\001j\311\202\335\243an\371\032\200\2568\364\001\301"
 172      DDA3616E 
 172      F91A80AE 
 172      38F401C1 
 173 0372 A50B082E 		.ascii	"\245\013\010.\355$\357r\307\013xY\333\227\261\333\034"
 173      ED24EF72 
 173      C70B7859 
 173      DB97B1DB 
 173      1C
 174 0383 CD0C7A01 		.ascii	"\315\014z\001j\0105\022\240\207\026 \362\305\266\367"
 174      6A083512 
 174      A0871620 
 174      F2C5B6F7 
 175 0393 D95B35F2 		.ascii	"\331[5\362\212l\353\006\274\244\003\033\360-0\340\356"
 175      8A6CEB06 
 175      BCA4031B 
 175      F02D30E0 
 175      EE
 176 03a4 DE1970A7 		.ascii	"\336\031p\247\336\200\357\021\003\356\264d\300\213\234"
 176      DE80EF11 
 176      03EEB464 
 176      C08B9C
 177 03b3 3D0D788D 		.ascii	"=\015x\215\323\320\200\377\354\264o\300\235\224\001"
 177      D3D080FF 
 177      ECB46FC0 
 177      9D9401
 178 03c2 7F07067C 		.ascii	"\177\007\006|\333\324\200?vZ0\3404\003\003\246\306#"
 178      DBD4803F 
 178      765A30E0 
 178      340303A6 
 178      C623
 179 03d4 239D8391 		.ascii	"#\235\203\221\316\263\217\242\374*\3447Q\036\373p\314"
 179      CEB38FA2 
 179      FC2AE437 
 179      511EFB70 
 179      CC
ARM GAS  /tmp/ccA3dYra.s 			page 13


 180 03e5 31A7DEBE 		.ascii	"1\247\336\276\310\014E!\305\2472&\021\226\221\251\340"
 180      C80C4521 
 180      C5A73226 
 180      119691A9 
 180      E0
 181 03f6 0EA7D1EA 		.ascii	"\016\247\321\352 6\\;\014\267\257\267\226\025Yy\256"
 181      20365C3B 
 181      0CB7AFB7 
 181      96155979 
 181      AE
 182 0407 D19E6B46 		.ascii	"\321\236kF\366.\037\210m`.\207U\030\355\301\3555\375"
 182      F62E1F88 
 182      6D602E87 
 182      5518EDC1 
 182      ED35FD
 183 041a FACA8A7F 		.ascii	"\372\312\212\177\\\267\302\205\221~\200\0139\262\365"
 183      5CB7C285 
 183      917E800B 
 183      39B2F5
 184 0429 5C238BB9 		.ascii	"\\#\213\2710\010$2\253\366\357\027\343!z\352\253+\227"
 184      30082432 
 184      ABF6EF17 
 184      E3217AEA 
 184      AB2B97
 185 043c 95E9A58E 		.ascii	"\225\351\245\216\303+\245\015)IWJZ \216\331\014]\346"
 185      C32BA50D 
 185      2949574A 
 185      5A208ED9 
 185      0C5DE6
 186 044f 73BAB0D4 		.ascii	"s\272\260\324\311{Hm\262\240$Gn_r\313\015\031\006C\215"
 186      C97B486D 
 186      B2A02447 
 186      6E5F72CB 
 186      0D190643 
 187 0464 A1595667 		.ascii	"\241YVg\304\353\321\207\016\311r?\236]\010\024\177m"
 187      C4EBD187 
 187      0EC9723F 
 187      9E5D0814 
 187      7F6D
 188 0476 4C71D318 		.ascii	"Lq\323\0303\034\216\271\017]\352u\024G\367\334j}x\005"
 188      331C8EB9 
 188      0F5DEA75 
 188      1447F7DC 
 188      6A7D7805 
 189 048a 20D75B20 		.ascii	" \327[ \273&r\252n\215\2455j\223S\035\276 \316\306\331"
 189      BB2672AA 
 189      6E8DA535 
 189      6A93531D 
 189      BE20CEC6 
 190 049f EB914130 		.ascii	"\353\221A0\033/\003.>JM*w-\014\307\034\205.+zr\021\375"
 190      1B2F032E 
 190      3E4A4D2A 
 190      772D0CC7 
 190      1C852E2B 
 191 04b7 57C2C50A 		.ascii	"W\302\305\012K\\\334S\270\340\331\245\\:\202=\035\203"
 191      4B5CDC53 
 191      B8E0D9A5 
ARM GAS  /tmp/ccA3dYra.s 			page 14


 191      5C3A823D 
 191      1D83
 192 04c9 B5EA485A 		.ascii	"\265\352HZ\274\256\003\031\365\274\012v\3016\230G\003"
 192      BCAE0319 
 192      F5BC0A76 
 192      C1369847 
 192      03
 193 04da B6E4E06A 		.ascii	"\266\344\340j\233\001s\345\355+\017\355\001\366\233"
 193      9B0173E5 
 193      ED2B0FED 
 193      01F69B
 194 04e9 C031DF75 		.ascii	"\3001\337u\375(\216\271\335e\201\021s\307DZ9\376H\313"
 194      FD288EB9 
 194      DD658111 
 194      73C7445A 
 194      39FE48CB 
 195 04fd 7BB23C3F 		.ascii	"{\262<?U\265\317T3F8f7\014\266^\257\331\225]\307\237"
 195      55B5CF54 
 195      33463866 
 195      370CB65E 
 195      AFD9955D 
 196 0513 209A5D6F 		.ascii	" \232]oI\263;\216,\267f\237\251\352\360~\030\276\013"
 196      49B33B8E 
 196      2CB7669F 
 196      A9EAF07E 
 196      18BE0B
 197 0526 867F473F 		.ascii	"\206\177G?\374\366\377\276\3724\031\376\035K\303_<f"
 197      FCF6FFBE 
 197      FA3419FE 
 197      1D4BC35F 
 197      3C66
 198 0538 B085E3D9 		.ascii	"\260\205\343\331\247\007&T_\327\215!ka\220\315`@\255"
 198      A7072654 
 198      5FD78D21 
 198      6B6190CD 
 198      6040AD
 199 054b 697AF53D 		.ascii	"iz\365=\223N\217\005\317T\003\216\3714M\245\276W\366"
 199      934E8F05 
 199      CF54038E 
 199      F9344DA5 
 199      BE57F6
 200 055e 8BD8DCF7 		.ascii	"\213\330\334\367\314\333\240)\225\206S\266\021\265F"
 200      CCDBA029 
 200      958653B6 
 200      11B546
 201 056d 7CEB1878 		.ascii	"|\353\030x\004\001k\267\002fjH5\221oi\260\013\266\301"
 201      04016BB7 
 201      02666A48 
 201      35916F69 
 201      B00BB6C1 
 202 0581 B4947D47 		.ascii	"\264\224}G\203}a\005\254\2379e\337\323`\227l\203i)\273"
 202      837D6105 
 202      AC9F3965 
 202      DFD36097 
 202      6C836929 
 203 0596 4B835DB5 		.ascii	"K\203]\265\0026\310\234\262\037h\260\257m\203i)\353"
 203      0236C89C 
ARM GAS  /tmp/ccA3dYra.s 			page 15


 203      B21F68B0 
 203      AF6D8369 
 203      29EB
 204 05a8 A2C16E5A 		.ascii	"\242\301nZ\001\363\230SV\377\031\005\326i\033LKY\003"
 204      01F39853 
 204      56FF1905 
 204      D6691B4C 
 204      4B5903
 205 05bb 0D76C70A 		.ascii	"\015v\307\012\330\020s\312\226\322`\367m\203i){\215"
 205      D81073CA 
 205      96D260F7 
 205      6D836929 
 205      7B8D
 206 05cd 069BEBB6 		.ascii	"\006\233\353\266\000\226mN\331\012\032l\236m0-e\253"
 206      00966D4E 
 206      D90A1A6C 
 206      9E6D302D 
 206      65AB
 207 05df 68B0F956 		.ascii	"h\260\371V\300F\231S\266\232\006[h\033LK\331\026\032"
 207      C0469953 
 207      B69A065B 
 207      681B4C4B 
 207      D9161A
 208 05f2 6CB115B0 		.ascii	"l\261\025\2601\346\224\275G\203-\265\015\246\245l\033"
 208      31E694BD 
 208      47832DB5 
 208      0DA6A56C 
 208      1B
 209 0603 0DB6DC0A 		.ascii	"\015\266\334\012\330xs\312\336\247\301V\331\006\323"
 209      D87873CA 
 209      DEA7C156 
 209      D906D3
 210 0612 52B69306 		.ascii	"R\266\223\006[c\005l\2129e\273h\260&\333`Z\312v\323"
 210      5B63056C 
 210      8A3965BB 
 210      68B026DB 
 210      605ACA76 
 211 0627 60EBAC80 		.ascii	"`\353\254\200M3\247\354\003\032\354-\333`Z\312\216\323"
 211      4D33A7EC 
 211      031AEC2D 
 211      DB605ACA 
 211      8ED3
 212 0639 607FB202 		.ascii	"`\177\262\002\366\234\001e\261\217Q?\034\246\337\346"
 212      F69C0165 
 212      B18F513F 
 212      1CA6DFE6 
 213 0649 A8CDDA66 		.ascii	"\250\315\332f\267\272\300\261\031\243\2318\306{n\273"
 213      B7BAC0B1 
 213      19A39938 
 213      C67B6EBB 
 214 0659 2B320DDF 		.ascii	"+2\015\337x\235\374\310.%\316\223\305\352N+\210\011"
 214      789DFCC8 
 214      2E25CE93 
 214      C5EA4E2B 
 214      8809
 215 066b 02E0AA83 		.ascii	"\002\340\252\203\324\3127b\033Lg\312\030L\263t\212\035"
 215      D4CA3762 
ARM GAS  /tmp/ccA3dYra.s 			page 16


 215      1B4C67CA 
 215      184CB374 
 215      8A1D
 216 067d FD47129F 		.ascii	"\375G\022\237x\340\367K\034\365\236`\220q[\236\275\316"
 216      78E0F74B 
 216      1CF59E60 
 216      90715B9E 
 216      BDCE
 217 068f E12DFCDF 		.ascii	"\341-\374\3378w\214\012RVK\344\310\240\325\255=p\210"
 217      38778C0A 
 217      52564BE4 
 217      C8A0D5AD 
 217      3D7088
 218 06a2 7D927535 		.ascii	"}\222u5\263\204\253\264%|bEL\011B\373\305\203\253\341"
 218      B384ABB4 
 218      257C6245 
 218      4C0942FB 
 218      C583ABE1 
 219 06b6 3CD3FA7B 		.ascii	"<\323\372{\221\225\267\217+\033\204\033\260A8\351\326"
 219      9195B78F 
 219      2B1B841B 
 219      B04138E9 
 219      D6
 220 06c7 AF30B7DB 		.ascii	"\2570\267\333|3\202\326az.\214\216U\314\327\024\310"
 220      7C3382D6 
 220      617A2E8C 
 220      8E55CCD7 
 220      14C8
 221 06d9 16CF0E6E 		.ascii	"\026\317\016n\331,\313\265\251v\370hU\370\350\004>."
 221      D92CCBB5 
 221      A976F868 
 221      55F8E804 
 221      3E2E
 222 06eb FD087C7C 		.ascii	"\375\010||m\233\217!:>\"C\354\363qV\341\343.\360\321"
 222      6D9B8F21 
 222      3A3E2243 
 222      ECF37156 
 222      E1E32EF0 
 223 0700 F923F071 		.ascii	"\371#\360q\3376\037\331\024\037\260[\033Jvk\003\230"
 223      DF361FD9 
 223      141FB05B 
 223      1B4A766B 
 223      0398
 224 0712 86C4BB35 		.ascii	"\206\304\2735LO77@w\276}\030\0379\342j\013\207\037\207"
 224      4C4F3737 
 224      4077BE7D 
 224      181F39E2 
 224      6A0B871F 
 225 0727 A92DAE6C 		.ascii	"\251-\256lm\213{C\221X\215\003K\354\305>\006G\302\226"
 225      6D8B7B43 
 225      91588D03 
 225      4BECC53E 
 225      0647C296 
 226 073b 90DA0F7C 		.ascii	"\220\332\017|\334\254\034\377\314\003\250\005\275\206"
 226      DCAC1CFF 
 226      CC03A805 
 226      BD86
ARM GAS  /tmp/ccA3dYra.s 			page 17


 227 0749 5A727807 		.ascii	"Zrx\007y\335\370\022\0005\364\321k1U\247\304T\255\022"
 227      79DDF812 
 227      0035F4D1 
 227      6B3155A7 
 227      C454AD12 
 228 075d D1231EE9 		.ascii	"\321#\036\351{\274\343f\377\240\324\340\007\027\363"
 228      7BBCE366 
 228      FFA0D4E0 
 228      0717F3
 229 076c FFDE8F63 		.ascii	"\377\336\217cV\003\371X\2016\003T\334\200~\331\242\004"
 229      5603F958 
 229      81360354 
 229      DC807ED9 
 229      A204
 230 077e 17A2A475 		.ascii	"\027\242\244u\377\020bMd\353\313\3521\31538\274l\372"
 230      FF10624D 
 230      64EBCBEA 
 230      31CD3338 
 230      BC6CFA
 231 0791 07E13E3D 		.ascii	"\007\341>=b\377`%\3620\261\272\305\300\320\326\036\032"
 231      62FF6025 
 231      F230B1BA 
 231      C5C0D0D6 
 231      1E1A
 232 07a3 EED5C1CA 		.ascii	"\356\325\301\312\336\3362\022\373p\314\201>\026\202"
 232      DEDE3212 
 232      FB70CC81 
 232      3E1682
 233 07b2 882791B6 		.ascii	"\210'\221\266\276\037j\361p&v\010yeP+\010c\271\003\037"
 233      BE1F6AF1 
 233      70267608 
 233      7965502B 
 233      0863B903 
 234 07c7 DF1DD609 		.ascii	"\337\035\326\011\303\302!O;"
 234      C3C2214F 
 234      3B
 235 07d0 7459E5E8 		.ascii	"tY\345\350q|w\374!r\312\202\177\262p\310\2439\276\343"
 235      717C77FC 
 235      2172CA82 
 235      7FB270C8 
 235      A339BEE3 
 236 07e4 D9D51CA7 		.ascii	"\331\325\034\247\300\366V\236\032\025\306\351C\320\016"
 236      C0F6569E 
 236      1A15C6E9 
 236      43D00E
 237 07f3 BC5E58E3 		.ascii	"\274^X\343\320\034\363_\265-{\017-\373\310\275#\253"
 237      D01CF35F 
 237      B52D7B0F 
 237      2DFBC8BD 
 237      23AB
 238 0805 59423F39 		.ascii	"YB?9\316\375F\2177\206^\313)E\323}\253\034ih\203E\030"
 238      CEFD468F 
 238      37865ECB 
 238      2945D37D 
 238      AB1C6968 
 239 081c 71BA2E2B 		.ascii	"q\272.+\304%\330j6\0220b\360/\246\333\005\363h\300\366"
 239      C425D86A 
ARM GAS  /tmp/ccA3dYra.s 			page 18


 239      36123062 
 239      F02FA6DB 
 239      05F368C0 
 240 0831 2C32382E 		.ascii	",28.&G\344f\201e\203\203Z*\275je\374\004\273\323Sm\253"
 240      2647E466 
 240      81658383 
 240      5A2ABD6A 
 240      65FC04BB 
 241 0849 154B2127 		.ascii	"\025K!'\243+m\343i\371\271\271H3#\275i\005n\214e\303"
 241      A32B6DE3 
 241      69F9B9B9 
 241      483323BD 
 241      69056E8C 
 242 085f 8B9F6B23 		.ascii	"\213\237k##\204\205\352\353\034~3\264\006\362\265\220"
 242      238485EA 
 242      EB1C7E33 
 242      B406F2B5 
 242      90
 243 0870 BF09F997 		.ascii	"\277\011\371\227\220_\206\374\012\344\377\013\371\267"
 243      905F86FC 
 243      0AE4FF0B 
 243      F9B7
 244 087e 90DF81BC 		.ascii	"\220\337\201\274\013\362\327\034\320\027\3627 _\007"
 244      0BF2D71C 
 244      D017F237 
 244      205F07
 245 088d F97AC837 		.ascii	"\371z\3107B\376\016m\336fz!\256\026sL\325\353\352{}"
 245      42FE0E6D 
 245      DE667A21 
 245      AE16734C 
 245      D5EBEA7B 
 246 08a2 687E3A7E 		.ascii	"h~:~h\316\263\215\266\301<\211$YOI\262\001$\271\004"
 246      68CEB38D 
 246      B6C13C89 
 246      24594F49 
 246      B20124B9 
 247 08b7 A4B149EB 		.ascii	"\244\261I\353\310\233\322\325\3278\011\034\317\234\205"
 247      C89BD2D5 
 247      D738091C 
 247      CF9C85
 248 08c6 E8C9AFAE 		.ascii	"\350\311\257\256\270V\312\221\027\035\352\016h\233\036"
 248      B856CA91 
 248      171DEA0E 
 248      689B1E
 249 08d5 30E9064D 		.ascii	"0\351\006M+\223.Aw\343\202\274\2432\323I3\355+\273m"
 249      2B932E41 
 249      77E382BC 
 249      A332D349 
 249      33ED2BBB 
 250 08ea 8F9D5084 		.ascii	"\217\235P\204\363)\021\276\014\"|\005D\270\031Lf\013"
 250      F32911BE 
 250      0C227C05 
 250      44B8194C 
 250      660B
 251 08fc 2D489E5D 		.ascii	"-H\236]\300\351\356\233h_\230%\030<\366\222\273\363"
 251      C0E9EE9B 
 251      685F9825 
ARM GAS  /tmp/ccA3dYra.s 			page 19


 251      183CF692 
 251      BBF3
 252 090e B4C18513 		.ascii	"\264\301\205\023\362\252(APZ\376A\373#\233 tls`\005"
 252      F2AA2841 
 252      505AFE41 
 252      FB239B20 
 252      746C7360 
 253 0923 DC4BD747 		.ascii	"\334K\327G\350\245\234\356\360\\g\310\034\263(\303\302"
 253      E8A59CEE 
 253      F05C67C8 
 253      1CB328C3 
 253      C2
 254 0934 0BC8043B 		.ascii	"\013\310\004;\231\346E\267O\263\265\265\362\306lee!"
 254      99E645B7 
 254      4FB3B5B5 
 254      F2C66C65 
 254      6521
 255 0946 D7C94336 		.ascii	"\327\311C6\306\203`?\025\203\213\321\035\331N^\244\266"
 255      C683603F 
 255      15838BD1 
 255      1DD94E5E 
 255      A4B6
 256 0958 C02CBB2C 		.ascii	"\300,\273,\303\360~Cr\230h{\335\216_\302\012t7\000\255"
 256      C3F07E43 
 256      7298687B 
 256      DD8E5FC2 
 256      0A743700 
 257 096d ED35D092 		.ascii	"\3555\320\222\005o\221\213\022{\001hc\206^\214\016\335"
 257      056F918B 
 257      127B0168 
 257      63865E8C 
 257      0EDD
 258 097f 3AC7A15D 		.ascii	":\307\241]\3478\334\361Bw\267\203\371'6F\3130\275\302"
 258      E738DCF1 
 258      4277B783 
 258      F9273646 
 258      CB30BDC2 
 259 0993 341C255B 		.ascii	"4\034%[\373`\205\335W\214M\275a\262\323\212\011h\020"
 259      FB6085DD 
 259      578C4DBD 
 259      61B2D38A 
 259      096810
 260 09a6 352610F9 		.ascii	"5&\020\371\341\034\314e\004\354C+`\011\216\241\2275"
 260      E11CCC65 
 260      04EC432B 
 260      60098EA1 
 260      9735
 261 09b8 AE357D87 		.ascii	"\2565}\207\325\224\364\352U\264\345\362\241\177\307"
 261      D594F4EA 
 261      55B4E5F2 
 261      A17FC7
 262 09c7 1701935F 		.ascii	"\027\001\223_\277:\354\260v\375\352\250C\377\236\273"
 262      BF3AECB0 
 262      76FDEAA8 
 262      43FF9EBB 
 263 09d7 0DAE5F1D 		.ascii	"\015\256_\035\265\264Z\273m\264\0060\272\215\030\233"
 263      B5B45ABB 
ARM GAS  /tmp/ccA3dYra.s 			page 20


 263      6DB40630 
 263      BA8D189B 
 264 09e7 3206C599 		.ascii	"2\006\305\2319s\355\320\323\344V\343qXt\036\373I\362"
 264      3973EDD0 
 264      D3E456E3 
 264      7158741E 
 264      FB49F2
 265 09fa 5B8D1A1C 		.ascii	"[\215\032\034L\337\011=\375[\217\001\375'\222\323\377"
 265      4CDF093D 
 265      FD5B8F01 
 265      FD2792D3 
 265      FF
 266 0a0b 626D6487 		.ascii	"bmd\207\362N\017\234\2516\341\266\201g\257\303\025\021"
 266      F24E0F9C 
 266      A936E1B6 
 266      8167AFC3 
 266      1511
 267 0a1d 2B9B80BF 		.ascii	"+\233\200\277\002''\354/Z\025\262v\222w2\247\301_/\331"
 267      022727EC 
 267      2F5A15B2 
 267      76927732 
 267      A7C15F2F 
 268 0a32 06F368C0 		.ascii	"\006\363h\300v\321`\327\254\200\231\0051\004\266\233"
 268      76D160D7 
 268      AC809905 
 268      3104B69B 
 269 0a42 06FBBB6D 		.ascii	"\006\373\273m0-e\037\320`\337X\0013;\255D`\307i\260"
 269      302D651F 
 269      D060DF58 
 269      01333BAD 
 269      4460C769 
 270 0a57 EF6D8379 		.ascii	"\357m\203y\214\254\204\351ad<{\022v\015\247 R\236\205"
 270      8CAC84E9 
 270      61643C7B 
 270      12760DA7 
 270      20529E85 
 271 0a6b BC03F2F3 		.ascii	"\274\003\362\363\220\177\016y\324\312\242\353\030\035"
 271      907F0E79 
 271      D4CAA2EB 
 271      181D
 272 0a79 E07F0082 		.ascii	"\340\177\000\202\217\366\316b\320\264\327r\371\213\247"
 272      8FF6CE62 
 272      D0B4D772 
 272      F98BA7
 273 0a88 C8E9AF2E 		.ascii	"\310\351\257.\306by\230Q\360%MAm\246]\012<4\005\221"
 273      C6627998 
 273      51F0254D 
 273      416DA65D 
 273      0A3C3405 
 274 0a9d 7B6DE4E4 		.ascii	"{m\344\344R\275\350\375\222\036\317\352\325,u\271\324"
 274      52BDE8FD 
 274      921ECFEA 
 274      D52C75B9 
 274      D4
 275 0aae 96BEE539 		.ascii	"\226\276\3459\025\354U\333`\232\353\327\221\372c\024"
 275      15EC55DB 
 275      609AEBD7 
ARM GAS  /tmp/ccA3dYra.s 			page 21


 275      91FA6314 
 276 0abe D84ADB60 		.ascii	"\330J\333`\375zX\004\261\205O\300\026\332@\347\377\003"
 276      FD7A5804 
 276      B1854FC0 
 276      16DA40E7 
 276      FF03
 277 0ad0 F965C8AF 		.ascii	"\371e\310\257@~M\273 m\312\324\307]2\307R\250\361\311"
 277      407E4DBB 
 277      206DCAD4 
 277      C75D32C7 
 277      52A8F1C9 
 278 0ae4 98B18A6B 		.ascii	"\230\261\212k\246\333VZ\267[3\355F-\215nQP=\370\225"
 278      A6DB565A 
 278      B75B33ED 
 278      462D8D6E 
 278      51503DF8 
 279 0af9 1A545B61 		.ascii	"\032T[a-\326b\0051\301Nt\333\347\372\327\001F\263=G"
 279      2DD66205 
 279      31C14E74 
 279      DBE7FAD7 
 279      0146B33D 
 280 0b0e D3168B1A 		.ascii	"\323\026\213\032\373\246\223\250q\013\242\306\336\314"
 280      FBA693A8 
 280      710BA2C6 
 280      DECC
 281 0b1c E45183D3 		.ascii	"\344Q\203\323\362\310\263\235\372\250q\347\004D\215"
 281      F2C8B39D 
 281      FAA871E7 
 281      04448D
 282 0b2b 4E4B51E3 		.ascii	"NKQ\343\376\211\245\312N\221\3146G\200\204\316^O\367"
 282      FE89A5CA 
 282      4E91CC36 
 282      478084CE 
 282      5E4FF7
 283 0b3e 5D27A8A9 		.ascii	"]'\250\251\353\230m0\217\006\254\3764\005v\302\012X"
 283      EB986D30 
 283      8F06ACFE 
 283      340576C2 
 283      0A58
 284 0b50 82E9BE81 		.ascii	"\202\351\276\201\006;k\033LK\331R\032\354\202\025\260"
 284      063B6B1B 
 284      4C4BD952 
 284      1AEC8215 
 284      B0
 285 0b61 04D3FD6B 		.ascii	"\004\323\375k4X\3246\230\226\262\0254\330\227V\300\314"
 285      3458D436 
 285      9896B215 
 285      34D89756 
 285      C0CC
 286 0b73 5EE120B0 		.ascii	"^\341 \260U4\330\025\333`Z\312V\323`\177\263\002\346"
 286      5534D815 
 286      DB605ACA 
 286      56D3607F 
 286      B302E6
 287 0b86 31A7AC91 		.ascii	"1\247\254\221\006\273e\033\314c\344\022\344C{\024\317"
 287      06BB651B 
 287      CC63E412 
ARM GAS  /tmp/ccA3dYra.s 			page 22


 287      E4437B14 
 287      CF
 288 0b97 7E07D3E2 		.ascii	"~\007\323\342m\230\254\356@~\017\362\373\220wC>\327"
 288      6D98ACEE 
 288      407E0FF2 
 288      FB907743 
 288      3ED7
 289 0ba9 89F35AC8 		.ascii	"\211\363Z\310\347A\376G\310\347;-Ln7\351\311\355\266"
 289      E741FE47 
 289      C8E73B2D 
 289      4C6E37E9 
 289      C9EDB6
 290 0bbc EDA92821 		.ascii	"\355\251(!#\361\177\221\341\331\017a\305\367\021\\\341"
 290      23F17F91 
 290      E1D90F61 
 290      C5F7115C 
 290      E1
 291 0bcd 3D05B90C 		.ascii	"=\005\271\014\373\344y\220o\005FvB\376\021\344\373!"
 291      FBE47990 
 291      6F054676 
 291      42FE11E4 
 291      FB21
 292 0bdf 3F08F9DF 		.ascii	"?\010\371\337!\277ae\256\336\023\277\370\213\366\343"
 292      21BF6165 
 292      AEDE13BF 
 292      F88BF6E3 
 293 0bef 4EBCDD5E 		.ascii	"N\274\335^\337\353+\345\227\016\277j\367N\376\365\350"
 293      DFEB2BE5 
 293      970EBF6A 
 293      F74EFEF5 
 293      E8
 294 0c00 06E5ADC9 		.ascii	"\006\345\255\311B\270\277}\257G\244\352\325Q\370\274"
 294      42B8BF7D 
 294      AF47A4EA 
 294      D551F8BC 
 295 0c10 BE6C724E 		.ascii	"\276lrN\022^\316\326\014\271\236R\314\006P\314[\240"
 295      125ECED6 
 295      0CB99E52 
 295      CC0650CC 
 295      5BA0
 296 0c22 926D90EF 		.ascii	"\222m\220\357\206\374\025\332z\0063\215rS4\372\227\273"
 296      86FC15DA 
 296      7A06338D 
 296      725334FA 
 296      97BB
 297 0c34 77447C90 		.ascii	"wD|\220#ww\377\201y\220Y\246\274\000\222Y\211\034\253"
 297      237777FF 
 297      81799059 
 297      A6BC0092 
 297      59891CAB 
 298 0c48 9A69A5C1 		.ascii	"\232i\245\301\371 \224\034\344F{\262`e\264]\353\276"
 298      F920941C 
 298      E4467BB2 
 298      6065B45D 
 298      EBBE
 299 0c5a 7BE83172 		.ascii	"{\3501r)\326\211CUs\337\244\241\252\307\376l\205S\027"
 299      29D68943 
ARM GAS  /tmp/ccA3dYra.s 			page 23


 299      5573DFA4 
 299      A1AAC7FE 
 299      6C855317 
 300 0c6e A9EEE37F 		.ascii	"\251\356\343\177\220\304\265\311_\305-^\217\357!\253"
 300      90C4B5C9 
 300      5FC52D5E 
 300      8FEF21AB 
 301 0c7e FFAFB90B 		.ascii	"\377\257\271\013F\307=\215\306J\020\245\214\325\021"
 301      46C73D8D 
 301      C64A10A5 
 301      8CD511
 302 0c8d 278C6757 		.ascii	"'\214gW:\261:VYq\335\245\316\230\255+\202\215\331\177"
 302      3AB13A56 
 302      5971DDA5 
 302      CE98AD2B 
 302      828DD97F 
 303 0ca1 EC597941 		.ascii	"\354YyA\312\263S\343\347\007\034\263O'\275\307\230u"
 303      CAB353E3 
 303      E7071CB3 
 303      4F27BDC7 
 303      9875
 304 0cb3 B2DC80D5 		.ascii	"\262\334\200\325\373\031^\233\214'\330\034\363\011\264"
 304      FB195E9B 
 304      8C27D81C 
 304      F309B4
 305 0cc2 5BEC1C6C 		.ascii	"[\354\034lH\203B\001\351,\357\020\306\223\341Q\334M"
 305      48834201 
 305      E92CEF10 
 305      C693E151 
 305      DC4D
 306 0cd4 D20D8854 		.ascii	"\322\015\210T\272\335\376\355 u1yZ\337Mw)A\341\345q"
 306      BADDFEED 
 306      20753179 
 306      5ADF4D77 
 306      2941E1E5 
 307 0ce9 663D56F5 		.ascii	"f=V\365\237\353\346\365s\022\263c\022\214\246\310\252"
 307      9FEBE6F5 
 307      7312B363 
 307      128CA6C8 
 307      AA
 308 0cfa D1A9F94F 		.ascii	"\321\251\371O]b\317\221\245B\253|\003\271\230\015S~"
 308      5D62CF91 
 308      A542AB7C 
 308      03B9980D 
 308      537E
 309 0d0c 4B6BCA44 		.ascii	"Kk\312D\006\312C\032\363G\362/#\362\\\366\367\214!\027"
 309      06CA431A 
 309      F347F22F 
 309      23F25CF6 
 309      F78C2117 
 310 0d20 F16B183C 		.ascii	"\361k\030<\373\2163\015\365\273\330\327\364\022\005"
 310      FB8E330D 
 310      F5BBD8D7 
 310      F41205
 311 0d2f 6EA01A00 		.ascii	"n\240\032\000)\253%\2261\320\352%C\255\312\367\374\212"
 311      29AB2596 
 311      31D0EA25 
ARM GAS  /tmp/ccA3dYra.s 			page 24


 311      43ADCAF7 
 311      FC8A
 312 0d41 3E79B609 		.ascii	">y\266\011&\304\015\226\364\371:V\014!\361&\000o0U\214"
 312      26C40D96 
 312      F4F93A56 
 312      0C21F126 
 312      006F3055 
 313 0d56 42A7B162 		.ascii	"B\247\261b\314FS8x\327P1\273\354+f\253\221bt\022\272"
 313      CC465338 
 313      78D75031 
 313      BBEC2B66 
 313      AB916274 
 314 0d6c 632CA1FB 		.ascii	"c,\241\373z\011\275\227XBf\254\232uS(\334\336\223\325"
 314      7A09BD97 
 314      584266AC 
 314      9A755328 
 314      DCDE93D5 
 315 0d80 2DD1C879 		.ascii	"-\321\310y\373\254\266$\260A\236\035\221n`\033u\375"
 315      FBACB624 
 315      B0419E1D 
 315      916E601B 
 315      75FD
 316 0d92 0C38AF91 		.ascii	"\0148\257\221_\027t\234\357\264`\0335\362^\334m\004"
 316      5F17749C 
 316      EFB4601B 
 316      35F25EDC 
 316      6D04
 317 0da4 5CCB035C 		.ascii	"\\\313\003\\\363^#\022\210\313\254\227\302\345nCqu)"
 317      F35E2312 
 317      88CBAC97 
 317      C2E56E43 
 317      717529
 318 0db7 E22252E0 		.ascii	"\342\"R\340\230u\306\2145\353\031\333g\211\261S1\306"
 318      9875C68C 
 318      35EB19DB 
 318      6789B153 
 318      31C6
 319 0dc9 7601AE79 		.ascii	"v\001\256y\257D\214\231\365R\030\373\320\220\261-\007"
 319      AF448C99 
 319      F55218FB 
 319      D090B12D 
 319      07
 320 0dda 32EAE746 		.ascii	"2\352\347F\273\273\007\023S\346\230\003\306\234\255"
 320      BBBB0713 
 320      53E69803 
 320      C69CAD
 321 0de9 D57376B0 		.ascii	"\325sv\260w\306j\326M!\262\265'\221\321\372\350\376"
 321      77C66AD6 
 321      4D21B2B5 
 321      2791D1FA 
 321      E8FE
 322 0dfb 978FB02F 		.ascii	"\227\217\260/5\310?\340\023f\235\301\232\\\336\207\275"
 322      35C83FE0 
 322      13669DC1 
 322      9A5CDE87 
 322      BD
 323 0e0c 7882F04F 		.ascii	"x\202\360OB\252Y\3176\353!.\366\274\320i\024\362\316"
ARM GAS  /tmp/ccA3dYra.s 			page 25


 323      42AA59CF 
 323      36EB212E 
 323      F6BCD069 
 323      14F2CE
 324 0e1f EBA4A9F2 		.ascii	"\353\244\251\362\371\231\021\237\221\213\347_\221Y\242"
 324      F999119F 
 324      918BE75F 
 324      9159A2
 325 0e2e 0E1B7E79 		.ascii	"\016\033~yR\357\227m\264_*\263\244\216\256\353&t\235"
 325      52EF976D 
 325      B45F2AB3 
 325      A48EAEEB 
 325      26749D
 326 0e41 3194FF5F 		.ascii	"1\224\377_\356\356;\300.\256m\">\240W\201\323\234\264"
 326      EEEE3BC0 
 326      2EAE6D22 
 326      3EA05781 
 326      D39CB4
 327 0e54 7685B4D8 		.ascii	"v\205\264\330\270w\373\351\303\016\317vh\307\324\351"
 327      B877FBE9 
 327      C30ECF76 
 327      68C7D4E9 
 328 0e64 096BD10C 		.ascii	"\011k\321\014\376\\\\O\272^'\023\364:o\332\253=A\257"
 328      FE5C5C4F 
 328      BA5E2713 
 328      F43A6FDA 
 328      AB3D41AF 
 329 0e78 0BA6BDB0 		.ascii	"\013\246\275\260%\230\365\372<\336\213\031X \006f\011"
 329      2598F5FA 
 329      3CDE8B19 
 329      58200666 
 329      09
 330 0e89 62382B90 		.ascii	"b8+\220\353\363\206\205\212pH\034Z\306\244\027\345\346"
 330      EBF38685 
 330      8A70481C 
 330      5AC6A417 
 330      E5E6
 331 0e9b 97C08357 		.ascii	"\227\300\203WJ\0357i\252'\237\351\033\257\012K\274$"
 331      4A1D3769 
 331      AA279FE9 
 331      1BAF0A4B 
 331      BC24
 332 0ead A4154DCA 		.ascii	"\244\025M\312\313/-z\266\320YT0\241\320\371\253\251"
 332      CB2F2D7A 
 332      B6D05954 
 332      30A1D0F9 
 332      ABA9
 333 0ebf 25D353E0 		.ascii	"%\323S\340\207\307\262\252\302b\026/\006\237\250\010"
 333      87C7B2AA 
 333      C262162F 
 333      069FA808 
 334 0ecf 55084F08 		.ascii	"U\010O\010\374\363\201\254@\205\257\274\312/d\205%\177"
 334      FCF381AC 
 334      4085AFBC 
 334      CA2F6485 
 334      257F
 335 0ee1 A0424203 		.ascii	"\240BB\003\270\252\320\367(\2574<A\343 \357+\013T\010"
ARM GAS  /tmp/ccA3dYra.s 			page 26


 335      B8AAD0F7 
 335      28AF343C 
 335      41E320EF 
 335      2B0B5408 
 336 0ef5 595EBF30 		.ascii	"Y^\2770\203\257*\227\274\322\234J!\214:\273\275^\245"
 336      83AF2A97 
 336      BCD29C4A 
 336      218C3ABB 
 336      BD5EA5
 337 0f08 BB8BF7FB 		.ascii	"\273\213\367\373E!\034.\310*\013\005\205,_\310?'\313"
 337      45211C2E 
 337      C82A0B05 
 337      852C5FC8 
 337      3F27CB
 338 0f1b 2FCCCA42 		.ascii	"/\314\312B\035\237\017\204\302Y\222XU\361B\026*\224"
 338      1D9F0F84 
 338      C2599258 
 338      55F14216 
 338      2A94
 339 0f2d F1E55995 		.ascii	"\361\345Y\225!Q\012g\225\224N\034\226\2335aBA\026bh"
 339      21510A67 
 339      95944E1C 
 339      969B3561 
 339      42411662 
 340 0f42 560EF05D 		.ascii	"V\016\360]^\356\307\260\250\202H#\327\012\234J&\002"
 340      5EEEC7B0 
 340      A8824823 
 340      D70A9C4A 
 340      2602
 341 0f54 409DFBA0 		.ascii	"@\235\373\240/`\337+\365A8\336\251\223\212&\025\225"
 341      2F60DF2B 
 341      F54138DE 
 341      A9938A26 
 341      1595
 342 0f66 A6E16249 		.ascii	"\246\341bI\351\344)\030\333[\\\230W0\375'\270D$\347"
 342      E9E42918 
 342      DB5B5C98 
 342      5730FD27 
 342      B84424E7 
 343 0f7a 2D9D463F 		.ascii	"-\235F?\025O\203\236\023&\347\377\272\260 \035\341\205"
 343      154F839E 
 343      1326E7FF 
 343      BAB0201D 
 343      E185
 344 0f8c 2A83213F 		.ascii	"*\203!?\006\234<e\342\344\202B/\372u\200R,\231\210"
 344      069C3C65 
 344      E2E48242 
 344      2FFA7580 
 344      522C9988 
 345 0fa0 04EE2D28 		.ascii	"\004\356-(|\266(\277\360\001M\335\370\311%\245\256P"
 345      7CB628BF 
 345      F0014DDD 
 345      F8C925A5 
 345      AE50
 346 0fb2 A517774D 		.ascii	"\245\027wM\303b\032\226\213\020\210\304p1\335W\036\362"
 346      C3621A96 
 346      8B1088C4 
ARM GAS  /tmp/ccA3dYra.s 			page 27


 346      7031DD57 
 346      1EF2
 347 0fc4 BDE00D57 		.ascii	"\275\340\015W\012\202?\023\015\342\257\222\346\370\346"
 347      0A823F13 
 347      0DE2AF92 
 347      E6F8E6
 348 0fd3 F8CAD138 		.ascii	"\370\312\3218\231%\245\005\336\202\251\245\323\275\371"
 348      9925A505 
 348      DE82A9A5 
 348      D3BDF9
 349 0fe2 D3F32714 		.ascii	"\323\363'\024>06\257\244\224z\366\346\376T_\2233\302"
 349      3E3036AF 
 349      A4947AF6 
 349      E6FE545F 
 349      9333C2
 350 0ff5 3BBA0F46 		.ascii	";\272\017F\360\002\004\3462?T"
 350      F00204E6 
 350      323F54
 351 1000 31233033 		.ascii	"1#03\325\007_X*3\312\371\231adF\202(\206\304\360\260"
 351      D5075F58 
 351      2A33CAF9 
 351      99616446 
 351      822886C4 
 352 1016 64A215A5 		.ascii	"d\242\025\245\230d}eA\251\032\033K\260J\022\252\275"
 352      98647D65 
 352      41A91A1B 
 352      4BB04A12 
 352      AABD
 353 1028 520A7C8F 		.ascii	"R\012|\217\262\205\020\236\023V\315\246\257T&\012\274"
 353      B285109E 
 353      1356CDA6 
 353      AF54260A 
 353      BC
 354 1039 3FECFD7D 		.ascii	"?\354\375}\225P\205\330\355\347+\363j\252\206\333C\366"
 354      955085D8 
 354      EDE72BF3 
 354      6AAA86DB 
 354      43F6
 355 104b 9561AB49 		.ascii	"\225a\253I#\020^\311\035\203K\255\364V\010\325\022\372"
 355      23105EC9 
 355      1D834BAD 
 355      F45608D5 
 355      12FA
 356 105d AA148559 		.ascii	"\252\024\205Y\343-\240\022\323\314+\236\230?\261\032"
 356      E32DA012 
 356      D3CC2B9E 
 356      983FB11A 
 357 106d B50C5606 		.ascii	"\265\014V\006\312\261O\216\313\317G\315U\372]R\245\030"
 357      CAB14F8E 
 357      CBCF47CD 
 357      55FA5D52 
 357      A518
 358 107f 0879096E 		.ascii	"\010y\011n \344B\"F\342\220F\333\306/\363\205D\001{"
 358      20E44222 
 358      46E29046 
 358      DBC62FF3 
 358      8544017B 
ARM GAS  /tmp/ccA3dYra.s 			page 28


 359 1093 39AEF622 		.ascii	"9\256\366\"\273\360I\325\377\321;\024\357\254\221A,"
 359      BBF049D5 
 359      FFD13B14 
 359      EFAC9141 
 359      2C
 360 10a4 04519889 		.ascii	"\004Q\230\211\234\330+9\3029#P\032\211\322(\224F;\302"
 360      9CD82B39 
 360      C2392350 
 360      1A89D228 
 360      94463BC2 
 361 10b8 B9D928E5 		.ascii	"\271\331(\345\240\224\213\3220\224\206\243\364$J\250"
 361      A0948BD2 
 361      309486A3 
 361      F4244AA8 
 362 10c8 5D2E6A97 		.ascii	"].j\227\213\332\345\242v\303P\273a9\2348\234\023\237"
 362      8BDAE5A2 
 362      76C350BB 
 362      61399C38 
 362      9C139F
 363 10db E4C4119C 		.ascii	"\344\304\021\2348\222\023Gq\342h\207\230\223\215R\016"
 363      38921347 
 363      71E26887 
 363      98938D52 
 363      0E
 364 10ec 572EA2AF 		.ascii	"W.\242\257a)\225^D\255\013Kx\266 \242\357P\271_\020"
 364      6129955E 
 364      44AD0B4B 
 364      78B620A2 
 364      EF50B95F 
 365 1101 9DBE325E 		.ascii	"\235\2762^\304b\347\203B\232\244\370!\372\021J.\211"
 365      C462E783 
 365      429AA4F8 
 365      21FA114A 
 365      2E89
 366 1113 B8117A06 		.ascii	"\270\021z\006[tI\2420#\014r\304\205\224`x&\372Qq\017"
 366      5B7449A2 
 366      30230C72 
 366      C4859460 
 366      7826FA51 
 367 1129 34B728A5 		.ascii	"4\267(\245T\321?\007\375\224&T\007$$\026!u\266\024z"
 367      54D13F07 
 367      FD942654 
 367      07242416 
 367      2175B614 
 368 113e FEBF2AD3 		.ascii	"\376\277*\323\205YB\205\024\344\303/`\233\236\215\013"
 368      85594285 
 368      14E4C32F 
 368      609B9E8D 
 368      0B
 369 114f 8E4A6F55 		.ascii	"\216JoU\246jI\345\2010\232\251\372R\266\205k\334\225"
 369      A66A49E5 
 369      81309AA9 
 369      FA52B685 
 369      6BDC95
 370 1162 DED97C40 		.ascii	"\336\331|@\012T\314\354\203\\3<\023\354-\005\212\250"
 370      0A54CCEC 
 370      835C333C 
ARM GAS  /tmp/ccA3dYra.s 			page 29


 370      13EC2D05 
 370      8AA8
 371 1174 42A8142A 		.ascii	"B\250\024*\320\3048\023\265B\026\217\333\367\301\264"
 371      D0C43813 
 371      B542168F 
 371      DBF7C1B4 
 372 1184 F1E5A067 		.ascii	"\361\345\240gTY\031\012\225\273\202\304J\321whv\205"
 372      5459190A 
 372      95BB82C4 
 372      4AD17768 
 372      7685
 373 1196 20A606C1 		.ascii	" \246\006\301\312F\3322Z\205&\244\262\376\212\335\""
 373      CA46DA32 
 373      5A8526A4 
 373      B2FE8ADD 
 373      22
 374 11a7 1108A250 		.ascii	"\021\010\242P\341C\002J%Un\344\264x^\365J0\177 \037"
 374      E143024A 
 374      25556EE4 
 374      B4785EF5 
 374      4A307F20 
 375 11bc 57E70F5C 		.ascii	"W\347\017\\t\342\237\334b\265?\310c\261\272%\2654\326"
 375      74E29FDC 
 375      62B53FC8 
 375      63B1BA25 
 375      B534D6
 376 11cf EE1C0CF9 		.ascii	"\356\034\014\371\330\341\325\325(,\004\221\304\021\016"
 376      D8E1D5D5 
 376      282C0491 
 376      C4110E
 377 11de A2EBA964 		.ascii	"\242\353\251d0\210\347\254\374\211%E%\010\200\364\234"
 377      3088E7AC 
 377      FC892545 
 377      250880F4 
 377      9C
 378 11ef 313C3BA7 		.ascii	"1<;\247\032\033t\377\202\211y\336\022\244^>\350-E^S"
 378      1A1B74FF 
 378      828979DE 
 378      12A45E3E 
 378      E82D455E 
 379 1204 20CCE0F2 		.ascii	" \314\340\362\213\235\223\012J\213\035S\362\212\235"
 379      8B9D930A 
 379      4A8B1D53 
 379      F28A9D
 380 1213 13B37196 		.ascii	"\023\263q\226\223W\354\030\233_\234\032\206\206\316"
 380      9357EC18 
 380      9B5F9C1A 
 380      8686CE
 381 1222 C00C9F98 		.ascii	"\300\014\237\230\032\010\227\005fH\356\260P>#P\341\027"
 381      1A089705 
 381      6648EEB0 
 381      503E2350 
 381      E117
 382 1234 AA536709 		.ascii	"\252Sg\011>)$\366\217Q\346%\255\321$\204\036\304j\234"
 382      3E2924F6 
 382      8F51E625 
 382      ADD12484 
ARM GAS  /tmp/ccA3dYra.s 			page 30


 382      1EC46A9C 
 383 1248 4BD5384C 		.ascii	"K\3258L\252\0039\362\213sP\312uN\316+\316\301Y.WP\354"
 383      AA0339F2 
 383      8B7350CA 
 383      754ECE2B 
 383      CEC1592E 
 384 125f 28419525 		.ascii	"(A\225%\305\271\216\374\374\342\224\322\342\242\222"
 384      C5B98EFC 
 384      FCE294D2 
 384      E2A292
 385 126e 42E7D809 		.ascii	"B\347\330\011\210\030$a7\236\231\002Al\227\370+T%=\240"
 385      88182461 
 385      379E9902 
 385      416C97F8 
 385      2B54253D 
 386 1283 86E260F8 		.ascii	"\206\342`\370\311\021\331#\207\372\030}\015r4RB\272"
 386      C911D923 
 386      87FA187D 
 386      0D723452 
 386      42BA
 387 1295 22B13A5D 		.ascii	"\"\261:]y\016T\004$6\230\352\207\366i\317\363a!\017"
 387      790E5404 
 387      243698EA 
 387      87F669CF 
 387      F361210F 
 388 12a9 A929C5FB 		.ascii	"\251)\305\373+d8j\233\260\024\252t\341\014Q\235\241"
 388      2B64386A 
 388      9BB014AA 
 388      74E10C51 
 388      9DA1
 389 12bb D4A1E029 		.ascii	"\324\241\340)H\003b\017\274\177\012\016\247U\242\220"
 389      4803620F 
 389      BC7F0A0E 
 389      A755A290 
 390 12cb 56A9141E 		.ascii	"V\251\024\036\244~,\025\202\225\202\310K\250:]\212\227"
 390      A47E2C15 
 390      829582C8 
 390      4BA83A5D 
 390      8A97
 391 12dd 07D2FD8B 		.ascii	"\007\322\375\213'O|\226/\257\022\302\231\361\005\003"
 391      274F7C96 
 391      2FAF12C2 
 391      99F10503 
 392 12ed A62E935E 		.ascii	"\246.\223^?\204*\373\252\214\210|E8\030\220\376\017"
 392      3F842AFB 
 392      AA8C887C 
 392      45381890 
 392      FE0F
 393 12ff E874C2FE 		.ascii	"\350t\302\376"
 394              		.text
 395              		.section	.gnu.lto_.symtab.7963fd4435a6ae6,"",%progbits
 396 0000 6D733536 		.ascii	"ms5607_init\000\000\000\000\000\000\000\000\000\000"
 396      30375F69 
 396      6E697400 
 396      00000000 
 396      00000000 
 397 0015 00001102 		.ascii	"\000\000\021\002\000\000ms5607_stop\000\000\000\000"
ARM GAS  /tmp/ccA3dYra.s 			page 31


 397      00006D73 
 397      35363037 
 397      5F73746F 
 397      70000000 
 398 002a 00000000 		.ascii	"\000\000\000\000\000\000\000\000&\002\000\000ms5607"
 398      00000000 
 398      26020000 
 398      6D733536 
 398      3037
 399 003c 5F726573 		.ascii	"_reset\000\000\000\000\000\000\000\000\000\000\000\000"
 399      65740000 
 399      00000000 
 399      00000000 
 399      0000
 400 004e 32020000 		.ascii	"2\002\000\000ms5607_readPressure\000\000\000\000\000"
 400      6D733536 
 400      30375F72 
 400      65616450 
 400      72657373 
 401 006a 00000000 		.ascii	"\000\000\000\000\000\000\0008\002\000\000ms5607_rea"
 401      00000038 
 401      0200006D 
 401      73353630 
 401      375F7265 
 402 007f 6454656D 		.ascii	"dTemperature\000\000\000\000\000\000\000\000\000\000"
 402      70657261 
 402      74757265 
 402      00000000 
 402      00000000 
 403 0095 00004102 		.ascii	"\000\000A\002\000\000ms5607_readPROMValues\000\000\000"
 403      00006D73 
 403      35363037 
 403      5F726561 
 403      6450524F 
 404 00b3 00000000 		.ascii	"\000\000\000\000\000\000\000\000\000G\002\000\000I2"
 404      00000000 
 404      00470200 
 404      004932
 405 00c2 4353656E 		.ascii	"CSensor_init\000\000\002\000\000\000\000\000\000\000"
 405      736F725F 
 405      696E6974 
 405      00000200 
 405      00000000 
 406 00d8 00004B02 		.ascii	"\000\000K\002\000\000I2CSensor_stop\000\000\002\000"
 406      00004932 
 406      4353656E 
 406      736F725F 
 406      73746F70 
 407 00f0 00000000 		.ascii	"\000\000\000\000\000\000\000\000S\002\000\000ms5607"
 407      00000000 
 407      53020000 
 407      6D733536 
 407      3037
 408 0102 5F747261 		.ascii	"_transmit\000\000\002\000\000\000\000\000\000\000\000"
 408      6E736D69 
 408      74000002 
 408      00000000 
ARM GAS  /tmp/ccA3dYra.s 			page 32


 408      00000000 
 409 0116 00580200 		.ascii	"\000X\002\000\000"
 409      00
 410              		.text
 411              		.section	.gnu.lto_.opts,"",%progbits
 412 0000 272D6D63 		.ascii	"'-mcpu=cortex-m4' '-mfloat-abi=hard' '-mfpu=fpv4-sp"
 412      70753D63 
 412      6F727465 
 412      782D6D34 
 412      2720272D 
 413 0033 2D643136 		.ascii	"-d16' '-mno-thumb-interwork' '-mthumb' '-O2' '-fomi"
 413      2720272D 
 413      6D6E6F2D 
 413      7468756D 
 413      622D696E 
 414 0066 742D6672 		.ascii	"t-frame-pointer' '-falign-functions=16' '-ffunction"
 414      616D652D 
 414      706F696E 
 414      74657227 
 414      20272D66 
 415 0099 2D736563 		.ascii	"-sections' '-fdata-sections' '-fno-common' '-flto' "
 415      74696F6E 
 415      73272027 
 415      2D666461 
 415      74612D73 
 416 00cc 272D6673 		.ascii	"'-fsingle-precision-constant'\000"
 416      696E676C 
 416      652D7072 
 416      65636973 
 416      696F6E2D 
 417              		.text
 418              		.section	.text.ms5607_init,"ax",%progbits
 419              		.align	2
 420              		.p2align 4,,15
 421              		.global	ms5607_init
 422              		.thumb
 423              		.thumb_func
 424              		.type	ms5607_init, %function
 425              	ms5607_init:
 426              		@ args = 0, pretend = 0, frame = 0
 427              		@ frame_needed = 0, uses_anonymous_args = 0
 428 0000 08B5     		push	{r3, lr}
 429 0002 2823     		movs	r3, #40
 430 0004 FFF7FEFF 		bl	I2CSensor_init
 431 0008 0020     		movs	r0, #0
 432 000a 08BD     		pop	{r3, pc}
 433              		.size	ms5607_init, .-ms5607_init
 434 000c AFF30080 		.section	.text.ms5607_stop,"ax",%progbits
 435              		.align	2
 436              		.p2align 4,,15
 437              		.global	ms5607_stop
 438              		.thumb
 439              		.thumb_func
 440              		.type	ms5607_stop, %function
 441              	ms5607_stop:
 442              		@ args = 0, pretend = 0, frame = 0
 443              		@ frame_needed = 0, uses_anonymous_args = 0
ARM GAS  /tmp/ccA3dYra.s 			page 33


 444 0000 08B5     		push	{r3, lr}
 445 0002 FFF7FEFF 		bl	I2CSensor_stop
 446 0006 0020     		movs	r0, #0
 447 0008 08BD     		pop	{r3, pc}
 448              		.size	ms5607_stop, .-ms5607_stop
 449 000a 00BFAFF3 		.section	.text.ms5607_reset,"ax",%progbits
 449      0080
 450              		.align	2
 451              		.p2align 4,,15
 452              		.global	ms5607_reset
 453              		.thumb
 454              		.thumb_func
 455              		.type	ms5607_reset, %function
 456              	ms5607_reset:
 457              		@ args = 0, pretend = 0, frame = 8
 458              		@ frame_needed = 0, uses_anonymous_args = 0
 459 0000 00B5     		push	{lr}
 460 0002 85B0     		sub	sp, sp, #20
 461 0004 04A9     		add	r1, sp, #16
 462 0006 1E23     		movs	r3, #30
 463 0008 01F8013D 		strb	r3, [r1, #-1]!
 464 000c 0023     		movs	r3, #0
 465 000e 0093     		str	r3, [sp]
 466 0010 0122     		movs	r2, #1
 467 0012 FFF7FEFF 		bl	ms5607_transmit
 468 0016 05B0     		add	sp, sp, #20
 469              		@ sp needed
 470 0018 5DF804FB 		ldr	pc, [sp], #4
 471              		.size	ms5607_reset, .-ms5607_reset
 472 001c AFF30080 		.section	.text.ms5607_readPressure,"ax",%progbits
 473              		.align	2
 474              		.p2align 4,,15
 475              		.global	ms5607_readPressure
 476              		.thumb
 477              		.thumb_func
 478              		.type	ms5607_readPressure, %function
 479              	ms5607_readPressure:
 480              		@ args = 0, pretend = 0, frame = 0
 481              		@ frame_needed = 0, uses_anonymous_args = 0
 482              		@ link register save eliminated.
 483 0000 0020     		movs	r0, #0
 484 0002 7047     		bx	lr
 485              		.size	ms5607_readPressure, .-ms5607_readPressure
 486 0004 AFF30080 		.section	.text.ms5607_readTemperature,"ax",%progbits
 486      AFF30080 
 486      AFF30080 
 487              		.align	2
 488              		.p2align 4,,15
 489              		.global	ms5607_readTemperature
 490              		.thumb
 491              		.thumb_func
 492              		.type	ms5607_readTemperature, %function
 493              	ms5607_readTemperature:
 494              		@ args = 0, pretend = 0, frame = 0
 495              		@ frame_needed = 0, uses_anonymous_args = 0
 496              		@ link register save eliminated.
 497 0000 0020     		movs	r0, #0
ARM GAS  /tmp/ccA3dYra.s 			page 34


 498 0002 7047     		bx	lr
 499              		.size	ms5607_readTemperature, .-ms5607_readTemperature
 500 0004 AFF30080 		.section	.text.ms5607_readPROMValues,"ax",%progbits
 500      AFF30080 
 500      AFF30080 
 501              		.align	2
 502              		.p2align 4,,15
 503              		.global	ms5607_readPROMValues
 504              		.thumb
 505              		.thumb_func
 506              		.type	ms5607_readPROMValues, %function
 507              	ms5607_readPROMValues:
 508              		@ args = 0, pretend = 0, frame = 0
 509              		@ frame_needed = 0, uses_anonymous_args = 0
 510              		@ link register save eliminated.
 511 0000 0020     		movs	r0, #0
 512 0002 7047     		bx	lr
 513              		.size	ms5607_readPROMValues, .-ms5607_readPROMValues
 514              		.comm	__gnu_lto_v1,1,1
 515 0004 AFF30080 		.ident	"GCC: (GNU Tools for ARM Embedded Processors) 4.8.4 20140526 (release) [ARM/embedded-4_8-br
 515      AFF30080 
 515      AFF30080 
ARM GAS  /tmp/ccA3dYra.s 			page 35

