ARM GAS  /tmp/ccO6mHhi.s 			page 1


   1              		.syntax unified
   2              		.cpu cortex-m4
   3              		.eabi_attribute 27, 3
   4              		.eabi_attribute 28, 1
   5              		.fpu fpv4-sp-d16
   6              		.eabi_attribute 20, 1
   7              		.eabi_attribute 21, 1
   8              		.eabi_attribute 23, 3
   9              		.eabi_attribute 24, 1
  10              		.eabi_attribute 25, 1
  11              		.eabi_attribute 26, 1
  12              		.eabi_attribute 30, 2
  13              		.eabi_attribute 34, 1
  14              		.eabi_attribute 18, 4
  15              		.thumb
  16              		.file	"ms5607.c"
  17              		.section	.gnu.lto_.jmpfuncs.170e1f62472a77de,"",%progbits
  18 0000 789C6D8B 		.ascii	"x\234m\213\201\015\200 \014\004\357K\321-\234\213\025"
  18      810D8020 
  18      0C04EF4B 
  18      D12D9C8B 
  18      15
  19 0011 5880519C 		.ascii	"X\200Q\234\311\261,\0121&4i\277\371\2777\214\325\234"
  19      C9B12C0A 
  19      31263469 
  19      BFF9BF37 
  19      8CD59C
  20 0024 43377677 		.ascii	"C7vw\252@\2448\355\021k\261EU\272z\222\354\207D\246"
  20      AA40A438 
  20      ED116BB1 
  20      4555BA7A 
  20      92EC8744 
  21 0039 3C1D243A 		.ascii	"<\035$:i\307\3330\215j\240\303\211'-\012\345+L\322\301"
  21      69C7DB30 
  21      8D6AA0C3 
  21      89272D0A 
  21      E52B4CD2 
  22 004e C9700397 		.ascii	"\311p\003\227T\013u"
  22      540B75
  23              		.text
  24              		.section	.gnu.lto_.inline.170e1f62472a77de,"",%progbits
  25 0000 789C6362 		.ascii	"x\234cb`b\300\006\326Ci6\006\006\016\001FF\006F \033"
  25      6062C006 
  25      D6436936 
  25      06060E01 
  25      46460646 
  26 0016 A4926D81 		.ascii	"\244\222m\201<X\003+\037\003\003\313\004?\020\004\312"
  26      3C58032B 
  26      1F0303CB 
  26      043F1004 
  26      CA
  27 0027 B1F16151 		.ascii	"\261\361aQ\302\314\003\344\203\02401r\013\303\344\231"
  27      C2CC03E4 
  27      83143031 
  27      720BC3E4 
  27      99
  28 0038 2EF0C315 		.ascii	".\360\303\025\260\013\000\315\001\352\007\251e\345\022"
ARM GAS  /tmp/ccO6mHhi.s 			page 2


  28      B00B00CD 
  28      01EA07A9 
  28      65E512
  29 0047 C2A6848D 		.ascii	"\302\246\204\215\037\256\204\205\201\231\211\021\325"
  29      1FAE8485 
  29      81998911 
  29      D5
  30 0054 0D18220C 		.ascii	"\015\030\"\014\000m\312\0165"
  30      006DCA0E 
  30      35
  31              		.text
  32              		.section	.gnu.lto_.pureconst.170e1f62472a77de,"",%progbits
  33 0000 789C6362 		.ascii	"x\234cb`b\340e\200\0006\006\011F\011&\011f\011\026\006"
  33      6062E065 
  33      80003606 
  33      09460926 
  33      09660916 
  34 0015 56060005 		.ascii	"V\006\000\005\036\000\207"
  34      1E0087
  35              		.text
  36              		.section	.gnu.lto_ms5607_init.170e1f62472a77de,"",%progbits
  37 0000 789C6362 		.ascii	"x\234cb`b@\007\222@\374\004\210\205\201\230\221\231"
  37      60624007 
  37      9240FC04 
  37      88858198 
  37      9199
  38 0012 819169C2 		.ascii	"\201\221i\3029\006\206F\016&FF\020\203\201\221\241\236"
  38      39068646 
  38      0E264646 
  38      10838191 
  38      A19E
  39 0024 89B13E92 		.ascii	"\211\261>\222\021\254v=\323\201\007\377\377\257\373"
  39      11AC763D 
  39      D38107FF 
  39      FFAFFB
  40 0033 D0F28A99 		.ascii	"\320\362\212\231\235\2211\227\021h\\&#\003\013\220\305"
  40      9D913197 
  40      11685C26 
  40      23030B90 
  40      C5
  41 0044 C80A2440 		.ascii	"\310\012$@\206\2632\26444LP``H\006k\011\001\222 sB\201"
  41      86B332B4 
  41      34344C50 
  41      60604806 
  41      6B090192 
  42 005c 92409AF9 		.ascii	"\222@\232\371,C\323\257\346\3477\231\022\031\0272\262"
  42      2C43D3AF 
  42      E6E73799 
  42      12191732 
  42      B2
  43 006d 32A43332 		.ascii	"2\24432U3T\001\215\320fX\325\000\004\261\231\214\214"
  43      55335401 
  43      8DD06658 
  43      D50004B1 
  43      998C8C
  44 0080 B3196631 		.ascii	"\263\031f1f22\24532F\000if\260\275I\214H\016>\317\320"
  44      663232A5 
ARM GAS  /tmp/ccO6mHhi.s 			page 3


  44      33324600 
  44      6966B0BD 
  44      498C480E 
  45 0097 7E401BA2 		.ascii	"~@\033\242\237\201\241\232\341WCG\203@&#K2#DQ:H/K:#"
  45      9F81A19A 
  45      E1574347 
  45      83402623 
  45      4B322344 
  46 00b2 2B483BEB 		.ascii	"+H;\353\011F\240\013\331\030\030.24>\330\303\005\321"
  46      0946A00B 
  46      D918182E 
  46      32343ED8 
  46      C305D1
  47 00c5 05926087 		.ascii	"\005\222`\207\231\026\002\324\006t\030\310\351\202."
  47      991602D4 
  47      067418C8 
  47      E9822E
  48 00d4 459965A9 		.ascii	"E\231e\251E\305\372\271\305\246f\006\346z\311\014\000"
  48      45C5FAB9 
  48      C5A66606 
  48      E67AC90C 
  48      00
  49 00e5 11003977 		.ascii	"\021\0009w"
  50              		.text
  51              		.section	.gnu.lto_ms5607_stop.170e1f62472a77de,"",%progbits
  52 0000 789C6362 		.ascii	"x\234cb`b@\007\222@|\005\210\205\201\230\221\231\201"
  52      60624007 
  52      92407C05 
  52      88858198 
  52      919981
  53 0013 9169C239 		.ascii	"\221i\3029\006\206F\016&FF\020\203\201\221\241\236\211"
  53      0686460E 
  53      26464610 
  53      838191A1 
  53      9E89
  54 0025 B13E9211 		.ascii	"\261>\222\021\254v=\323\201\007\377\377\257\233\326"
  54      AC763DD3 
  54      8107FFFF 
  54      AF9BD6
  55 0034 FA89858D 		.ascii	"\372\211\205\215\2211\227\021h\\&#\003\013\220\005\222"
  55      91319711 
  55      685C2623 
  55      030B9005 
  55      92
  56 0045 67656869 		.ascii	"gehih\230\240\300\300\220\014V\035\002$AF\20422\201"
  56      6898A0C0 
  56      C0900C56 
  56      1D022441 
  56      46843232 
  57 005a 68E6B30C 		.ascii	"h\346\263\014M\277\2327\337bJd\\\310\310\312\220\316"
  57      4DBF9A37 
  57      DF624A64 
  57      5CC8C8CA 
  57      90CE
  58 006c C854CD50 		.ascii	"\310T\315P\005\324\255\315\260\252\001\010b3\031\031"
  58      05D4ADCD 
  58      B0AA0108 
ARM GAS  /tmp/ccO6mHhi.s 			page 4


  58      62331919 
  59 007c 6733CC62 		.ascii	"g3\314b\314ddJgd\214\000\322\314`+\223\030\221\334z"
  59      CC64644A 
  59      67648C00 
  59      D2CC602B 
  59      931891DC 
  60 0091 9EA1F580 		.ascii	"\236\241\365\2006D?\003C5\303\257\206\216\006\201LF"
  60      36443F03 
  60      4335C3AF 
  60      868E0681 
  60      4C46
  61 00a3 96644688 		.ascii	"\226dF\210\242t\220^\226L\220\354E\206\306\007g\271"
  61      A274905E 
  61      964C90EC 
  61      4586C607 
  61      67B9
  62 00b5 204A4186 		.ascii	" JA\206\261\301\214\010\001\252\005\272\006\024\016"
  62      B1C18C08 
  62      01AA05BA 
  62      06140E
  63 00c4 822E4599 		.ascii	"\202.E\231e\251E\305\372\271\305\246f\006\346z\311\014"
  63      65A945C5 
  63      FAB9C5A6 
  63      6606E67A 
  63      C90C
  64 00d6 009D4336 		.ascii	"\000\235C6|"
  64      7C
  65              		.text
  66              		.section	.gnu.lto_ms5607_reset.170e1f62472a77de,"",%progbits
  67 0000 789C5D51 		.ascii	"x\234]Q=K\003A\020}o/\027/\026\242 \210 \"\266\202Z"
  67      3D4B0341 
  67      107D6F2F 
  67      172F16A2 
  67      20882022 
  68 0017 44FD01FA 		.ascii	"D\375\001\372\023\"\3042\306\020\256\270\346N,\014\222"
  68      1322C432 
  68      C610AEB8 
  68      E64E2C0C 
  68      92
  69 0028 8D5AA492 		.ascii	"\215Z\244\222\240\215\230*\244\323\302\302\306\362\260"
  69      A08D982A 
  69      A4D3C2C2 
  69      C6F2B0
  70 0037 F7AB4A9B 		.ascii	"\367\253J\233\306J;\033\271\302s6\253\022\035\330\231"
  70      C64A3B1B 
  70      B9C27336 
  70      AB121DD8 
  70      99
  71 0048 1DE6ED7B 		.ascii	"\035\346\355{oX\005\205\3771-'\"0#\225\016\250Z\017"
  71      6F580585 
  71      FF312D27 
  71      22302395 
  71      0EA85A0F 
  72 005c 40C353A4 		.ascii	"@\303S\244\271\200\250+\326\267h\240\234GG\307\247\375"
  72      B980A82B 
  72      D6B768A0 
  72      9C4747C7 
ARM GAS  /tmp/ccO6mHhi.s 			page 5


  72      A7FD
  73 006e 97DEC994 		.ascii	"\227\336\311\224\356\353\226\376LS\372\024\322I\242"
  73      EEEB96FE 
  73      4C53FA14 
  73      D249A2
  74 007d 4C14A5A1 		.ascii	"L\024\245\2417(\212\177U\256U\334O\323\267\253\247\274"
  74      37288A7F 
  74      55AE55DC 
  74      4FD3B7AB 
  74      A7BC
  75 008f E7302032 		.ascii	"\3470 2\360\351d%ed\350\342X\353\326\\\211\035Q\200"
  75      F0E96425 
  75      6564E8E2 
  75      58EBD65C 
  75      891D5180 
  76 00a3 61922848 		.ascii	"a\222(H6\0166\251Lu\356qx\373\321\033+\261K\027\026"
  76      360E36A9 
  76      4C75EE71 
  76      78FBD11B 
  76      2BB14B17 
  77 00b8 6A84302B 		.ascii	"j\2040+X\231%G\335w\307\016\253\314\324\260/\374\013"
  77      58992547 
  77      DD77C70E 
  77      ABCCD4B0 
  77      2FFC0B
  78 00cb B8D41267 		.ascii	"\270\324\022g\002s\333\270\220\222\255\3221\257F\006"
  78      0273DBB8 
  78      9092ADD2 
  78      31AF4606 
  79 00db A6B6874D 		.ascii	"\246\266\207M>\342\\\027\177\010\2625$\272\251\307}"
  79      3EE25C17 
  79      7F08B235 
  79      24BAA9C7 
  79      7D
  80 00ec 7A655AD4 		.ascii	"zeZ\324\20051|\007>s\326\200\205[\037v\375\334w\007"
  80      8035317C 
  80      073E73D6 
  80      80855B1F 
  80      76FDDC77 
  81 0101 596DD418 		.ascii	"Ym\324\030\273{U\303\226\363\270\321M\013\3003\032\261"
  81      BB7B55C3 
  81      96F3B8D1 
  81      4D0BC033 
  81      1AB1
  82 0113 FBAB685D 		.ascii	"\373\253h]\024DM\2665\3374\261\021\372{\2250Z\012\242"
  82      14444DB6 
  82      35DF34B1 
  82      11FA7B95 
  82      305A0AA2 
  83 0127 95D5E5B5 		.ascii	"\225\325\345\265\3052\274\260\022Uv\327\203\235/\254"
  83      C532BCB0 
  83      125576D7 
  83      839D2FAC 
  84 0137 225EAA   		.ascii	"\"^\252"
  85              		.text
  86              		.section	.gnu.lto_ms5607_readPressure.170e1f62472a77de,"",%progbits
  87 0000 789C5D52 		.ascii	"x\234]R;K\303P\024\376\316M\322V-\242 \210\340P:\011"
ARM GAS  /tmp/ccO6mHhi.s 			page 6


  87      3B4BC350 
  87      14FECE4D 
  87      D2562DA2 
  87      2088E050 
  88 0016 823AF818 		.ascii	"\202:\370\030E\350O\250P\307\330\226\222\241 \211:\330"
  88      45E84FA8 
  88      50C7D896 
  88      92A12089 
  88      3AD8
  89 0028 A1B75AA1 		.ascii	"\241\267Z\241\223T\247\2428\224\342\"\210C\227\216E"
  89      9354A7A2 
  89      3894E222 
  89      8843978E 
  89      45
  90 0039 1C5C7CFD 		.ascii	"\034\\|\375\201R\347n\272\0251\236\233XL{ \367\334\360"
  90      8152E76E 
  90      BA15319E 
  90      9B584C7B 
  90      20F7DCF0 
  91 004d 3DCE7742 		.ascii	"=\316wB\004\004Fk\216\237\017\002\026\270\223\006\022"
  91      0404466B 
  91      8E9F0F02 
  91      16B89306 
  91      12
  92 005e D517A014 		.ascii	"\325\027\240\024\021D\352\002BQPq\207\024U\304Q\227"
  92      1144EA02 
  92      42515071 
  92      871455C4 
  92      5197
  93 0070 ED8BEE69 		.ascii	"\355\213\356i\347lVveU\376\270.Y\304\2463\2044!\305"
  93      E76C5676 
  93      6555FEB8 
  93      2E59C4A6 
  93      33843421 
  94 0085 2F14F19A 		.ascii	"/\024\361\232\240\341)\236\262\332\3764\236d\271\355"
  94      A0E1299E 
  94      B2DAFE34 
  94      9E64B9ED 
  95 0095 BA9B1669 		.ascii	"\272\233\026i\002\363\377\252\230\257\322\207U\367\242"
  95      02F3FFAA 
  95      98AFD287 
  95      55F7A2
  96 00a4 DD75DDEF 		.ascii	"\335u\335\357\273\267G\212h\224'\350\260Hq\014\224\245"
  96      BBB7478A 
  96      689427E8 
  96      B048710C 
  96      94A5
  97 00b6 ACC64CAA 		.ascii	"\254\306L\252S\034&5\370\204\362\342J\362\251\222o\223"
  97      531C2635 
  97      F884F2E2 
  97      4AF2A992 
  97      6F93
  98 00c8 505D7BC6 		.ascii	"P]{\306q\253\326\2314\351\206\014\370\0025\012)\346"
  98      71ABD699 
  98      34E9860C 
  98      F802350A 
  98      29E6
ARM GAS  /tmp/ccO6mHhi.s 			page 7


  99 00da 32D63FE9 		.ascii	"2\326?\351}\351>\230#\275\200#\036\260\210[\311\325"
  99      7DE93E98 
  99      23BD8023 
  99      1EB0885B 
  99      C9D5
 100 00ec 649A7185 		.ascii	"d\232q\205Kn\241\034iJ\025\366b\355\006\227{EM\2664"
 100      4B6EA11C 
 100      694A15F6 
 100      62ED0697 
 100      7B454DB6 
 101 0101 DF0128A0 		.ascii	"\337\001(\240/+r\312\242H\232|\226\347\332W~\327l06"
 101      2F2B72CA 
 101      A2489A7C 
 101      96E7DA57 
 101      7ED76C30 
 102 0116 88ECD1BD 		.ascii	"\210\354\321\275 \204?\374<d\321\270\277L\020W;O\250"
 102      20843FFC 
 102      3C64D1B8 
 102      BF4C1057 
 102      3B4FA8
 103 0129 AC0F3D11 		.ascii	"\254\017=\021\334b\025MYQ\004\214\200\215\000\2501\370"
 103      DC62154D 
 103      5951048C 
 103      808D00A8 
 103      31F8
 104 013b 8E52B7D2 		.ascii	"\216R\267\322 \037V\226\321A\366$g\344o\244~\212\351"
 104      201F5696 
 104      D141F624 
 104      67E46FA4 
 104      7E8AE9
 105 014e 846D1D66 		.ascii	"\204m\035fmg9\357\254\255\257l,\245\021\266\263\271"
 105      6D6739EF 
 105      ACADAF6C 
 105      2CA511B6 
 105      B3B9
 106 0160 AD4CC68E 		.ascii	"\255L\306\216\356\331Y\3079\260\263\011s\337\374\005"
 106      EED959C7 
 106      39B0B309 
 106      73DFFC05 
 107 0170 DEE47F65 		.ascii	"\336\344\177e"
 108              		.text
 109              		.section	.gnu.lto_ms5607_readTemperature.170e1f62472a77de,"",%progbits
 110 0000 789C6362 		.ascii	"x\234cb`b@\007\222@\034\015\304\302@\314\310\314\300"
 110      60624007 
 110      92401C0D 
 110      C4C240CC 
 110      C8CCC0
 111 0013 C834E11C 		.ascii	"\3104\341\034\003C#\007\023##\210\301\300\310P\317\304"
 111      03432307 
 111      13232388 
 111      C1C0C850 
 111      CFC4
 112 0025 581FC908 		.ascii	"X\037\311\010V\273\236\351\300\203\377\377\327\315;"
 112      56BB9EE9 
 112      C083FFFF 
 112      D7CD3B
 113 0034 B6601623 		.ascii	"\266`\026##\310(V\206\226\206\206\011\012\014\014\311"
ARM GAS  /tmp/ccO6mHhi.s 			page 8


 113      23C82856 
 113      86968686 
 113      090A0C0C 
 113      C9
 114 0045 60052140 		.ascii	"`\005!@\022\244+\024(\011\244\231/24>\230\271\2301\221"
 114      12A42B14 
 114      2809A499 
 114      2F32343E 
 114      98B99831 
 115 005a 7121232B 		.ascii	"q!#+C\004c&#\334\326\020FF\220\012\220\031\202.E\231"
 115      43046326 
 115      23DCD610 
 115      4646900A 
 115      9019822E 
 116 0070 65A945C5 		.ascii	"e\251E\305\372\271\305\246f\006\346z\311\014\000\203"
 116      FAB9C5A6 
 116      6606E67A 
 116      C90C0083 
 117 0080 3B1F33   		.ascii	";\0373"
 118              		.text
 119              		.section	.gnu.lto_ms5607_readPROMValues.170e1f62472a77de,"",%progbits
 120 0000 789C6362 		.ascii	"x\234cb`b@\007\222@\034\015\304\302@\314\310\314\300"
 120      60624007 
 120      92401C0D 
 120      C4C240CC 
 120      C8CCC0
 121 0013 C834E11C 		.ascii	"\3104\341\034\003C#\007\023##\210\301\300\310P\317\304"
 121      03432307 
 121      13232388 
 121      C1C0C850 
 121      CFC4
 122 0025 581FC908 		.ascii	"X\037\311\010V\273\236\351\300\203\377\377\327]8\266"
 122      56BB9EE9 
 122      C083FFFF 
 122      D75D38B6 
 123 0035 60352323 		.ascii	"`5##\310(V\206\226\206\206\011\012\014\014\311`\005"
 123      C8285686 
 123      96868609 
 123      0A0C0CC9 
 123      6005
 124 0047 214012A4 		.ascii	"!@\022\244+\024(\011\244\231/24>X\265\2301\221q!#+C"
 124      2B142809 
 124      A4992F32 
 124      343E58B5 
 124      98319171 
 125 005f 04632623 		.ascii	"\004c&#\334\326\020FF\220\012\220\031\202.E\231e\251"
 125      DCD61046 
 125      46900A90 
 125      19822E45 
 125      9965A9
 126 0072 45C5FAB9 		.ascii	"E\305\372\271\305\246f\006\346z\311\014\000\237\213"
 126      C5A66606 
 126      E67AC90C 
 126      009F8B
 127 0081 1F87     		.ascii	"\037\207"
 128              		.text
 129              		.section	.gnu.lto_.symbol_nodes.170e1f62472a77de,"",%progbits
ARM GAS  /tmp/ccO6mHhi.s 			page 9


 130 0000 789C4DC7 		.ascii	"x\234M\307\271\015\2000\024\004\321\375k0t\275\334G"
 130      B90D8030 
 130      1404D1FD 
 130      6B3074BD 
 130      DC47
 131 0012 46052448 		.ascii	"F\005$H4BN\015T\202\0202\302\236d\364\010b\307\027k"
 131      34424E0D 
 131      54821032 
 131      C29E64F4 
 131      0862C717 
 132 0027 0A584E40 		.ascii	"\012XN@Z'cCY\302\226b\302\216r\011{*K8Py\244\215\224"
 132      5A276343 
 132      59C29662 
 132      C28E7209 
 132      7B2A4B38 
 133 0040 0FAC2AB3 		.ascii	"\017\254*\263\211*\242f\252\374\345\340\261]\2679+\302"
 133      892AA266 
 133      AAFCE5E0 
 133      B15DB739 
 133      2BC2
 134 0052 59E278EF 		.ascii	"Y\342x\357\302\361\000S\26627"
 134      C2F10053 
 134      B63237
 135              		.text
 136              		.section	.gnu.lto_.refs.170e1f62472a77de,"",%progbits
 137 0000 789C6362 		.ascii	"x\234cb`b`d\200\002\000\000F\000\006"
 137      60626064 
 137      80020000 
 137      460006
 138              		.text
 139              		.section	.gnu.lto_.decls.170e1f62472a77de,"",%progbits
 140 0000 789CBD5B 		.ascii	"x\234\275[yt\024U\272\257\245Iw\223\030\266\301\301"
 140      79741455 
 140      BAAFA549 
 140      779318B6 
 140      C1C1
 141 0012 19CFB1E7 		.ascii	"\031\317\261\347\034g\016gP\263\200,\307\247\202I\030"
 141      1C670E67 
 141      50B3802C 
 141      C7A78249 
 141      18
 142 0023 7286ED25 		.ascii	"r\206\355%\301\003\177\314k\313\356\012\3511\235\356"
 142      C1037FCC 
 142      6BCBEE0A 
 142      E9319DEE 
 143 0033 A9AE40F8 		.ascii	"\251\256@\370k\212 \031A\301\020@\026!\304\307\"*\242"
 143      6B8A2019 
 143      41C11040 
 143      1621C4C7 
 143      222AA2
 144 0046 1190E5B1 		.ascii	"\021\220\345\2614*\020\026Y\214,\211(\355\014`\200q"
 144      342A1016 
 144      598C2C89 
 144      28ED0C60 
 144      8071
 145 0058 06D08888 		.ascii	"\006\320\210\210$\357\336\257\252\272oU\252\272\253"
 145      24EFDEAF 
ARM GAS  /tmp/ccO6mHhi.s 			page 10


 145      AABA6F55 
 145      AABAAB
 146 0067 7A9CE993 		.ascii	"z\234\351\223\272}\353\366\275\277\373\255\367\273["
 146      BA7DEBF6 
 146      BDBFFBAD 
 146      F7BB5B
 147 0076 188AA1FA 		.ascii	"\030\212\241\3722\024\325\215>B\021E\325\273(\312IQ"
 147      3214D58D 
 147      3E421145 
 147      D5BB28CA 
 147      4951
 148 0088 D413E871 		.ascii	"\324\023\350q\240\3475J~\337\206\236~\250\036\376\270"
 148      A0E7354A 
 148      7EDF869E 
 148      7EA81EFE 
 148      B8
 149 0099 D1D31FE5 		.ascii	"\321\323\037\345\207\240g\004z\036G\317X\364\214G\317"
 149      87A06704 
 149      7A1E47CF 
 149      58F48C47 
 149      CF
 150 00aa 64F44C45 		.ascii	"d\364LE\317\037\224\272\344\007\267A\360T)#\343\336"
 150      CF1F94BA 
 150      E407B741 
 150      F0542923 
 150      E3DE
 151 00bc 8BBE07A2 		.ascii	"\213\276\007\242\207g\344>\376\033}\327\322\024\205"
 151      8767E43E 
 151      FE1B7DD7 
 151      D21485
 152 00cb FEA85FA2 		.ascii	"\376\250_\242<\243\264\301\230,\312?\210\276\177\203"
 152      3CA3B4C1 
 152      982CCA3F 
 152      88BE7F83 
 153 00db 9EC13AEC 		.ascii	"\236\301:\354!J{=n9z\246\031`\016Qh\304\371\241(\031"
 153      214A7B3D 
 153      6E397AA6 
 153      19600E51 
 153      68C4F9A1 
 154 00f1 A6C3C33C 		.ascii	"\246\303\303<e*<g\243'K\301\3068$\376tF\226\311\377"
 154      652A3C67 
 154      A3274BC1 
 154      C63824FE 
 154      744696C9 
 155 0106 305AFC11 		.ascii	"0Z\374\021\012\377\270\3541\0356\226\325=:\354\012\246"
 155      0AFFB8EC 
 155      311D3696 
 155      D53D3AEC 
 155      0AA6
 156 0118 27ED2AF6 		.ascii	"'\355*\366\037\025|=\017\217\023}<\245\353c\254R\216"
 156      1F157C3D 
 156      0F8F137D 
 156      3CA5EB63 
 156      AC528E
 157 012b DBE00FAD 		.ascii	"\333\340\017\255\224\351?\343\015\352\2157\322\033\265"
 157      94E93FE3 
 157      0DEA8D37 
ARM GAS  /tmp/ccO6mHhi.s 			page 11


 157      D21BB5
 158 013a 48421F4F 		.ascii	"HB\037O\013\"x*\315\321\331n\352\031\310d\271\201\376"
 158      0B22782A 
 158      CDD1D96E 
 158      EA19C864 
 158      B981FE
 159 014d 5F53EB24 		.ascii	"_S\353$\251>6\367E\332\303\321\257\321\375\021\201\203"
 159      A93E36F7 
 159      45DAC3D1 
 159      AFD1FD11 
 159      8183
 160 015f 68EAB7D4 		.ascii	"h\352\267\324\033\250Q\275$\325\016\350\011\231\022"
 160      1BA851BD 
 160      24D50EE8 
 160      099912
 161 016e 93A2387A 		.ascii	"\223\2428z=\202\342\350u\364o\345\036\244\350\036\277"
 161      3D82E2E8 
 161      75F46FE5 
 161      1EA4E81E 
 161      BF
 162 017f 472EA594 		.ascii	"G.\245\224r\203\317\257\250&\324e\364\324\326\235\264"
 162      7283CFAF 
 162      A826D465 
 162      F4D4D69D 
 162      B4
 163 0190 5497E5A4 		.ascii	"T\227\345\244\352\320\233\024\233[;hy\242'\227\332\023"
 163      EAD09B14 
 163      9B5B3B68 
 163      79A22797 
 163      DA13
 164 01a2 1DA73EBA 		.ascii	"\035\247>\272\323\305p\364F\332\211\210\037Bk\340-`"
 164      D3C570F4 
 164      46DA8988 
 164      1F426BE0 
 164      2D60
 165 01b4 607ADE42 		.ascii	"`z\336Bm5\3246;\030\2714\011\265,\005\372|\214\0064"
 165      6D35D436 
 165      3B18B934 
 165      09B52C05 
 165      FA7C8C06 
 166 01c9 873B5154 		.ascii	"\207;QT\030/\242\211\212\305\361RUO\370\225v'2\335\264"
 166      182FA289 
 166      8AC5F152 
 166      554FF895 
 166      762732DD 
 167 01de A603922E 		.ascii	"\246\003\222.\216\336D\377\032\245o\323\254a3\206\232"
 167      8EDE44FF 
 167      1AA56FD3 
 167      AC613386 
 167      9A
 168 01ef 482B6237 		.ascii	"H+b7bR\311&\272\315V_T\241\267~\273\003\013\335M\275"
 168      6252C926 
 168      BACD565F 
 168      54A1B77E 
 168      BB030BDD 
 169 0205 00025B2F 		.ascii	"\000\002[/\245\020z\254\255\356\355!\222\344\342\350"
 169      A5107AAC 
ARM GAS  /tmp/ccO6mHhi.s 			page 12


 169      ADEEED21 
 169      92E4E2E8 
 170 0215 6D34E668 		.ascii	"m4\346h\226V\360\326q\026\317o\034\0118;\000\347}Z\013"
 170      9656F0D6 
 170      7116CF6F 
 170      1C09383B 
 170      00E77D5A 
 171 022a A4B04A08 		.ascii	"\244\260J\010\005\275\253\025R\0120E]\206\212\322v\305"
 171      05BDAB15 
 171      520A3045 
 171      5D868AD2 
 171      76C5
 172 023c E622C516 		.ascii	"\346\"\305\026;0\177\311}R\323\007t&5\037\363\333T'"
 172      3B307FC9 
 172      7D52D307 
 172      7426351F 
 172      F3DB5427 
 173 0250 8D6BC936 		.ascii	"\215k\3116p\220(\253\202\215L\260\336|\374\364\006z"
 173      709028AB 
 173      828D4CB0 
 173      DE7CFCF4 
 173      067A
 174 0262 8E24A11F 		.ascii	"\216$\241\037\366\202\353-`\264\314\247\004\342\350"
 174      F682EB2D 
 174      60B4CCA7 
 174      04E2E8
 175 0271 28CDA074 		.ascii	"(\315\240t\277\336\335n\254\314\222\034ryj\207\273\335"
 175      BFDEDD6E 
 175      ACCC921C 
 175      72796A87 
 175      BBDD
 176 0283 DEF87329 		.ascii	"\336\370s)\026\245-{\\\354\302'g\363@i\037\201\327\035"
 176      16A52D7B 
 176      5CECC227 
 176      67F34069 
 176      1F81D71D 
 177 0297 61D272BB 		.ascii	"a\322r\273Cz\267;U\327\007S}\310\222\343\235fzz^\214"
 177      437AB73B 
 177      55D70753 
 177      7DC892E3 
 177      9D667A7A 
 178 02ad 3174BD2B 		.ascii	"1t\275+\214\326\367\224\342o\022\305,Q<\233\215\027"
 178      8CD6F794 
 178      E26F12C5 
 178      2C513C9B 
 178      8D17
 179 02bf 3B88E297 		.ascii	";\210\342\227\023\305\275\010\223Hj\177\207\010\007"
 179      13C5BD08 
 179      93486A7F 
 179      870807
 180 02ce 6E01073E 		.ascii	"n\001\007>l\342\300\034\275%\256\311\264<8\326\274\360"
 180      6CE2C01C 
 180      BD25AEC9 
 180      B43C38D6 
 180      BCF0
 181 02e0 E2657AF1 		.ascii	"\342ez\361\034\251%\327\310\030Q\025:y\020\210\356i"
 181      1CA925D7 
ARM GAS  /tmp/ccO6mHhi.s 			page 13


 181      C8185115 
 181      3A791088 
 181      EE69
 182 02f2 A73DA9C6 		.ascii	"\247=\251\306v\216>\207\330\260\022\001\332\365&\271"
 182      768E3E87 
 182      D8B01201 
 182      DAF526B9 
 183 0302 BA1D4CB2 		.ascii	"\272\035L\262\335\222I6\267/\265g\222\321\033gq\010"
 183      DD924936 
 183      B72FB567 
 183      92D11B67 
 183      7108
 184 0314 FB1CEC71 		.ascii	"\373\034\354q%\233\226=\306\364\366\330\266\014\354"
 184      259B963D 
 184      C6F4F6D8 
 184      B60CEC
 185 0323 3166C91E 		.ascii	"1f\311\0367\260\204\355)e\315\254\241\341\035`\265\206"
 185      37B084ED 
 185      2965CDAC 
 185      A1E11D60 
 185      B586
 186 0335 67C59462 		.ascii	"g\305\224b\204)}\011\246\364W\323Xp\026\370oO;\030l"
 186      84297D09 
 186      A6F457D3 
 186      587016F8 
 186      6F4F3B18 
 187 034a 695F0AA3 		.ascii	"i_\012\243\2322\212\313\206\024\257\353Q\021\034\024"
 187      9A328ACB 
 187      8614AFEB 
 187      51111C14 
 188 035a 110D0EEC 		.ascii	"\021\015\016\354\247ka(\273\012\343\370\005\3260 X\200"
 188      A76B6128 
 188      BB0AE3F8 
 188      05D63020 
 188      5880
 189 036c 5A3C7FF7 		.ascii	"Z<\177\367(\030[\276\006\240\016V\037\020\234\272\200"
 189      28185BBE 
 189      06A00E56 
 189      1F109CBA 
 189      80
 190 037d E0D40EF2 		.ascii	"\340\324\016\362Nw\"\203\247\306}(\273\325\321\310\240"
 190      4E772283 
 190      A7C67D28 
 190      BBD5D1C8 
 190      A0
 191 038e 17A08650 		.ascii	"\027\240\206P#\001zH\001\"_<\376>}\263VZ\236k\335\200"
 191      23017A48 
 191      01225F3C 
 191      FE3E7DB3 
 191      565A9E6B 
 192 03a4 17B76303 		.ascii	"\027\267c\003\276\011\006\334\235\236\001w\352\015\370"
 192      BE0906DC 
 192      9D9E0177 
 192      EA0DF8
 193 03b3 8E6CC09D 		.ascii	"\216l\300\235\226\014x\241\243\247\001\257v\030\032"
 193      960C78A1 
 193      A3A701AF 
ARM GAS  /tmp/ccO6mHhi.s 			page 14


 193      76181A
 194 03c2 F03B0EFB 		.ascii	"\360;\016\373\006\334I\030\360w`\300\267L\015\370#\207"
 194      06DC4918 
 194      F07760C0 
 194      B74C0DF8 
 194      2387
 195 03d4 05037619 		.ascii	"\005\003v\031\0300\321\237\334\323g\320\323y\372W(\275"
 195      1830D19F 
 195      DCD367D0 
 195      D379FA57 
 195      28BD
 196 03e6 02E90D94 		.ascii	"\002\351\015\224\306?\014u\302\241\267/y\204\"\220\022"
 196      C63F0C75 
 196      C2A1B72F 
 196      79842290 
 196      12
 197 03f7 4319950C 		.ascii	"C\031\225\014\313\310Tp\2033tf\242\2736\350n\177\272"
 197      CBC85470 
 197      83337466 
 197      A2BB36E8 
 197      6E7FBA
 198 040a 96155DF1 		.ascii	"\226\025]\361Y\243=\327\214\356[6\020\333\300l\006\253"
 198      59A33DD7 
 198      8CEE5B36 
 198      10DBC06C 
 198      06AB
 199 041c 30D683DB 		.ascii	"0\326\203\333\253\372\371\225\025\377\270f\205\013#"
 199      ABFAF995 
 199      15FFB866 
 199      850B23
 200 042b FD001752 		.ascii	"\375\000\027Rt\313g\2154\346\302 \220H\264\332\276o"
 200      74CB678D 
 200      34E6C220 
 200      9048B4DA 
 200      BE6F
 201 043d 9C87D8E9 		.ascii	"\234\207\330\351\257:.+\303K\035\203gJ\033z\245\234"
 201      AF3A2E2B 
 201      C34B1D83 
 201      674A1B7A 
 201      A59C
 202 044f 29698118 		.ascii	")i\201\030j34\231\307\350\302R'\347\221KS\005%)z\353"
 202      6A333499 
 202      C7E8C252 
 202      27E7914B 
 202      53052529 
 203 0465 925B6AC8 		.ascii	"\222[j\3102\350j4\311\262:\"^\213\335wX\222\372r\364"
 203      32E86A34 
 203      C9B23A22 
 203      5E8BDD77 
 203      5892FA72 
 204 047a 02A0F86B 		.ascii	"\002\240\370kc\212\233F\233\3410\324]hR\257\2438\266"
 204      638A9B46 
 204      9BE130D4 
 204      5D6852AF 
 204      A338B6
 205 048d E766CB2F 		.ascii	"\347f\313/\226\003r\275\005\262k\243\247\353V[\232\243"
 205      960372BD 
ARM GAS  /tmp/ccO6mHhi.s 			page 15


 205      05B26BA3 
 205      A7EB565B 
 205      9AA3
 206 049f 3639D4EE 		.ascii	"69\324\356\013\023l\234\273\026\035\004\243\361R\340"
 206      0B136C9C 
 206      BB161D04 
 206      A3F152E0 
 207 04af E2C38C94 		.ascii	"\342\303\214\224r\327\3020\3241h\262\274'\027\261_\312"
 207      72D7C230 
 207      D43168B2 
 207      BC2717B1 
 207      5FCA
 208 04c1 5C2CB7C4 		.ascii	"\\,\267\304\305\035\205\013\216^\302d\"\3303qX\253\216"
 208      C51D850B 
 208      8E5EC264 
 208      22D83371 
 208      58AB8E
 209 04d4 A4C5EB3A 		.ascii	"\244\305\353:\230U\317\251`\237\333\006\363h\300\026"
 209      9855CFA9 
 209      609FDB06 
 209      F368C016 
 210 04e4 1F5A6533 		.ascii	"\037Ze3`\256\270\325q\337\036`\277\011\034\363m\347"
 210      60AEB8D5 
 210      71DF1E60 
 210      BF091CF3 
 210      6DE7
 211 04f6 4FE298DB 		.ascii	"O\342\230\333\234\026\0301wL\244\225\223\367\357|O\222"
 211      9C161831 
 211      774CA495 
 211      93F7EF7C 
 211      4F92
 212 0508 E665A8F6 		.ascii	"\346e\250\366\231a\306\010C\355\206\316\326\3535\273"
 212      9961C608 
 212      43ED86CE 
 212      D6EB35BB 
 213 0518 A2EBE4C3 		.ascii	"\242\353\344\303\262f\327[\322\354\366\243\313\254\331"
 213      B266D75B 
 213      D2ECF6A3 
 213      CBACD9
 214 0527 6786DABD 		.ascii	"g\206\332\275\037\272\357\202\356\337\324w\277\355\177"
 214      1FBAEF82 
 214      EEDFD477 
 214      BFED7F
 215 0536 AF3C2177 		.ascii	"\257<!w\377\246\245\356/\2340X\302q\364\023\003\223"
 215      FFA6A5EE 
 215      2F9C3058 
 215      C271F413 
 215      0393
 216 0548 AAAFEBFA 		.ascii	"\252\257\353\372\3405\320\311f0\240\026\227^}Of\222"
 216      E035D0C9 
 216      6630A016 
 216      975E7D4F 
 216      6692
 217 055a 7DC13B51 		.ascii	"}\301;Q\201\241N\271T\352\323\262_\304\346\376'\337"
 217      81A14EB9 
 217      54EAD3B2 
 217      5FC4E6FE 
ARM GAS  /tmp/ccO6mHhi.s 			page 16


 217      27DF
 218 056c 004DA934 		.ascii	"\000M\2514\234\266\215\2505\342\233'\300#d\2606+`\246"
 218      9CB68DA8 
 218      35E29B27 
 218      C02364B0 
 218      362B60A6 
 219 0580 86541BFD 		.ascii	"\206T\033\375\226\004\373\3346\230\226\262\357H\260"
 219      9604FBDC 
 219      369896B2 
 219      EF48B0
 220 058f 2FAD80F5 		.ascii	"/\255\200\3655\247\354{\022\354\222m0-e?\220`W\254\200"
 220      35A7EC7B 
 220      12EC926D 
 220      302D653F 
 220      906057AC 
 221 05a4 0D32A7EC 		.ascii	"\0152\247\354G\022\354k\333`Z\312\272H\260\033V\300"
 221      4712EC6B 
 221      DB605ACA 
 221      BA48B01B 
 221      56C0
 222 05b6 3CE694D5 		.ascii	"<\346\224\325\177B\200u\332\006\323R\326@\202\335\266"
 222      7F428075 
 222      DA06D352 
 222      D64082DD 
 222      B6
 223 05c7 0236D89C 		.ascii	"\0026\330\234\262%$\330]\333`Z\312^!\301f\273-\200\345"
 223      B22524D8 
 223      5DDB605A 
 223      CA5E21C1 
 223      66BB2D80 
 224 05dc 9A53B69C 		.ascii	"\232S\266\234\004\233k\033LK\331J\022l\236\025\260\221"
 224      049B6B1B 
 224      4C4BD94A 
 224      126C9E15 
 224      B091
 225 05ee E694AD22 		.ascii	"\346\224\255\"\301\026\330\006\323R\366.\011\266\310"
 225      C116D806 
 225      D352F62E 
 225      09B6C8
 226 05fd 0AD86873 		.ascii	"\012\330hs\312\336#\301\226\330\006\323R\266\225\004"
 226      CADE23C1 
 226      96D806D3 
 226      52B69504 
 227 060d 5B66056C 		.ascii	"[f\005l\2349e\357\223`+m\203i)\333A\202\255\266\002"
 227      9C3965EF 
 227      93602B6D 
 227      836929DB 
 227      4182ADB6 
 228 0622 36D99CB2 		.ascii	"6\331\234\262]$X\223m0-e\273I\260\265V\300\246\232S"
 228      5D245893 
 228      6D302D65 
 228      BB49B0B5 
 228      56C0A69A 
 229 0637 B697047B 		.ascii	"\266\227\004{\3356\230\226\262\223$\330[V\300\2361\240"
 229      DD369896 
 229      B29324D8 
 229      5B56C09E 
ARM GAS  /tmp/ccO6mHhi.s 			page 17


 229      31A0
 230 0649 2CFE316A 		.ascii	",\3761j\207\303\364\033\014\261X\333\354V'86c4\225\300"
 230      87C3F41B 
 230      0CB158DB 
 230      EC562738 
 230      36633495 
 231 065e 78CF6D77 		.ascii	"x\317mwF\246\341\033\317\223\357\337\245\304yy\262\272"
 231      46A6E11B 
 231      CF93EFDF 
 231      A5C47979 
 231      B2BA
 232 0670 C30A6292 		.ascii	"\303\012b\222\000\270\362\0201\363\215\332\006\323\231"
 232      00B8F210 
 232      31F38DDA 
 232      06D399
 233 067f 3206D34C 		.ascii	"2\006\323L\235\342[\377\321\344;\036\370|\211!\316\011"
 233      9DE25BFF 
 233      D1E43B1E 
 233      F87C8921 
 233      CE09
 234 0691 0619D7E5 		.ascii	"\006\031\327\345\350k\014^\302\377\235q\307\251\220"
 234      E86B0C5E 
 234      C2FF9D71 
 234      C7A990
 235 06a0 F36A4EDE 		.ascii	"\363jN\3362hqk7\034\342\237TM\315,\341\012i\011\037"
 235      3268716B 
 235      371CE29F 
 235      544DCD2C 
 235      E10A6909 
 236 06b5 5B115392 		.ascii	"[\021S\222\320~\341\320*\330\317\264~.\262\342\326I"
 236      D07EE1D0 
 236      2AD8CFB4 
 236      7E2EB2E2 
 236      D649
 237 06c7 6581701D 		.ascii	"e\201p\035\026\010\237\272\3653\314m6OF\320<L\317\205"
 237      16089FBA 
 237      F533CC6D 
 237      364F46D0 
 237      3C4CCF85 
 238 06db D1B68AF9 		.ascii	"\321\266\212\371\234\002\331\342\271\007vn\226\2449"
 238      9C02D9E2 
 238      B907766E 
 238      96A439
 239 06ea 1976F868 		.ascii	"\031v\370hQ\370\350\004>.\375\004||m\233\217\301:>\242"
 239      51F8E804 
 239      3E2EFD04 
 239      7C7C6D9B 
 239      8FC13A3E 
 240 06ff 83EDF371 		.ascii	"\203\355\363qN\341\343\007\340\243\363'\340\343\256"
 240      4EE1E307 
 240      E0A3F327 
 240      E0E3AE
 241 070e 6D3E7209 		.ascii	"m>r\011>`\265\366\210\274Z\033@5$_\255az\272\231\001"
 241      3E60B5F6 
 241      88BC5A1B 
 241      4035245F 
 241      AD617ABA 
ARM GAS  /tmp/ccO6mHhi.s 			page 18


 242 0724 BAFDED23 		.ascii	"\272\375\355#x\313\021\027[\330\3748B,q%kK\334\353\212"
 242      78CB1117 
 242      5BD8FC38 
 242      422C7125 
 242      6B4BDCEB 
 243 0739 C46A592C 		.ascii	"\304jY,\261\347{\033l\011[Bj;\370Q\263\262\3753\027"
 243      B1E77B1B 
 243      6C095B42 
 243      6A3BF851 
 243      B3B2FD33 
 244 074e A0E6A70D 		.ascii	"\240\346\247\015\265\370\310v\371\270\361\005\000j\350"
 244      B5F8C876 
 244      F9B8F105 
 244      006AE8
 245 075d ADD76286 		.ascii	"\255\327b\206N\211\031Z%\242W\334\323\367x\305M\377"
 245      4E89195A 
 245      25A257DC 
 245      D3F778C5 
 245      4DFF
 246 076f 5929C12F 		.ascii	"Y)\301/N\352?\336\216\241V\001\371X\2016\003T\302\200"
 246      4EEA3FDE 
 246      8EA15601 
 246      F9588136 
 246      0354C280 
 247 0783 1EDAA904 		.ascii	"\036\332\251\004\027YIk\377%\304\332\350\226\027\325"
 247      1759496B 
 247      FF25C4DA 
 247      E89617D5 
 248 0793 6D9A2771 		.ascii	"m\232'qx\331\364/\302\235:j\177c%\372\013\331\352\026"
 248      78D9F42F 
 248      C29D3A6A 
 248      7F6325FA 
 248      0BD9EA16 
 249 07a7 01435B7A 		.ascii	"\001C[zh8\255\215\225}\3512\022\3770\324\301\336\026"
 249      6838AD8D 
 249      957DE932 
 249      12FF30D4 
 249      C1DE16
 250 07ba 82882799 		.ascii	"\202\210'\231\266\276\177\304\342\346L|\023\262cP\013"
 250      B6BE7FC4 
 250      E2E64C7C 
 250      13B26350 
 250      0B
 251 07cb 0863198B 		.ascii	"\010c\031\213\267"
 251      B7
 252 07d0 EF8EE884 		.ascii	"\357\216\350\204aa\223\247\015\232\254d{l\337\235\274"
 252      616193A7 
 252      0D9AAC64 
 252      7B6CDF9D 
 252      BC
 253 07e1 4FDE65C1 		.ascii	"O\336e\301?Y\330\344\321l\337q\364*\206Q`\323\225\247"
 253      3F59D8E4 
 253      D16CDF71 
 253      F42A8651 
 253      60D395A7 
 254 07f5 468509FA 		.ascii	"F\205\011\372\0204\213\347\013\253Y\3156\377\025\333"
 254      10348BE7 
ARM GAS  /tmp/ccO6mHhi.s 			page 19


 254      0BAB59CD 
 254      36FF15DB 
 255 0805 B2F790B2 		.ascii	"\262\367\220\262\217\3369\272\212\226\351\227\267s\277"
 255      8FDE39BA 
 255      8A96E997 
 255      B773BF
 256 0814 D1E38D26 		.ascii	"\321\343\215&\347rJ\326t\335*E\033\216\303$Lv\272.+"
 256      E7724AD6 
 256      74DD2A45 
 256      1B8EC324 
 256      4C76BA2E 
 257 0829 C425596A 		.ascii	"\304%Yj6\312`\262\301?\237i\027\314\243\001\333\263"
 257      36CA60B2 
 257      C13F9F69 
 257      17CCA301 
 257      DBB3
 258 083b D060BB58 		.ascii	"\320`\273X\336\"7\013,\033Xb\252\364\262\225\376\223"
 258      DE22370B 
 258      2C1B5862 
 258      AAF4B295 
 258      FE93
 259 084d AC4E4F1F 		.ascii	"\254NO\037_\245X\212\2743\272\3026\236\226\237\033\013"
 259      5FA5588A 
 259      BC33BAC2 
 259      369E969F 
 259      1B0B
 260 085f 3523D23A 		.ascii	"5#\322:+p\243-\033^b_\033\031!LT_e\360\311\320jH\327"
 260      2B70A32D 
 260      1B5E625F 
 260      1B19214C 
 260      545F65F0 
 261 0878 40BA0ED2 		.ascii	"@\272\016\322\213\220^\206\264\003\322\177B\372-\244"
 261      8B905E86 
 261      B403D27F 
 261      42FA2DA4 
 262 0888 B721ED82 		.ascii	"\267!\355\202\364\025\026\332B\372\032\244k!]\017\351"
 262      F41516DA 
 262      42FA1AA4 
 262      6B215D0F 
 262      E9
 263 0899 4648DF24 		.ascii	"FH\337$\315\333L/\262\253\305\035S\365\272\372\2647"
 263      CDDB4C2F 
 263      B2ABC51D 
 263      53F5BAFA 
 263      B437
 264 08ab CDCF2436 		.ascii	"\315\317$6\3159\272\3216\230'\231$\353\011I6\200$\027"
 264      CD39BAD1 
 264      36982799 
 264      24EB0949 
 264      36802417 
 265 08bf 83343669 		.ascii	"\20346i\035yS\246z\214\223\304\361\314Y\210}\372U\207"
 265      1D7953A6 
 265      7A8C93C4 
 265      F1CC5988 
 265      7DFA5587 
 266 08d3 7385147D 		.ascii	"s\205\024}\236UW@[\365\200)\027hZ\231t\361\272\033\027"
 266      9E555740 
ARM GAS  /tmp/ccO6mHhi.s 			page 20


 266      5BF58029 
 266      17685A99 
 266      74F1BA1B 
 267 08e8 F2199599 		.ascii	"\362\031\225\231N\232I_\331m\273\357\244\"\234G\210"
 267      4E9A495F 
 267      D96DBBEF 
 267      A4229C47 
 267      88
 268 08f9 F04510E1 		.ascii	"\360E\020\341K \302\315`2\357\222\202\344\350\371\214"
 268      4B20C2CD 
 268      6032EF92 
 268      82E4E8F9 
 268      8C
 269 090a EEBE89F6 		.ascii	"\356\276\211\366\300,I\347\361C\356\3163\006\027N\344"
 269      C02C49E7 
 269      F143EECE 
 269      3306174E 
 269      E4
 270 091b A3A22441 		.ascii	"\243\242$Ai\331\336\266\3737A\350\330\312b\005\334\311"
 270      69D9DEB6 
 270      FB3741E8 
 270      D8CA6205 
 270      DCC9
 271 092d D447E825 		.ascii	"\324G\350%\214n\363\\g\310\014\2650\313\302\001d\222"
 271      8C6EF35C 
 271      67C80CB5 
 271      30CBC201 
 271      6492
 272 093f 954CF3C2 		.ascii	"\225L\363\302[g\3509s\244\215\271\312\314B\252\223\006"
 272      5B67E839 
 272      73A48DB9 
 272      CACC42AA 
 272      9306
 273 0951 6F4C04C1 		.ascii	"oL\004\301\276*\006\023\247;\272M>H\335\011\243\354"
 273      BE2A0613 
 273      A73BBA4D 
 273      3E48DD09 
 273      A3EC
 274 0963 D22CC3FB 		.ascii	"\322,\303\373\015\251abmu\333\037\202\031\350n\000Z"
 274      0DA96162 
 274      6D75DB1F 
 274      8219E86E 
 274      005A
 275 0975 9336D0E2 		.ascii	"\2236\320\342\371\257\313\027%\366\001\320\306,\275"
 275      F9AFCB17 
 275      25F601D0 
 275      C62CBD
 276 0984 1859DD3C 		.ascii	"\030Y\335<\207\325\316sXw\"\323\335\315R\377\306\312"
 276      87D5CE73 
 276      587722D3 
 276      DDCD52FF 
 276      C6CA
 277 0996 681AA657 		.ascii	"h\032\246W\230\206\243Ts\037\254\260\273\212\261\251"
 277      9886A354 
 277      731FACB0 
 277      BB8AB1A9 
 278 09a6 374C7658 		.ascii	"7LvX1\001\015\242\306\004\242?~\006c\231\014\366\201"
ARM GAS  /tmp/ccO6mHhi.s 			page 21


 278      31010DA2 
 278      C604A23F 
 278      7E066399 
 278      0CF681
 279 09b9 15B024DB 		.ascii	"\025\260$\333\320K\033\327\230\236a5\245\274z\025\333"
 279      D04B1BD7 
 279      989E6135 
 279      A5BC7A15 
 279      DB
 280 09ca 79F9F07F 		.ascii	"y\371\360\177\341\213\200\251\257_\035a\255]\277:\306"
 280      E18B80A9 
 280      AF5F1D61 
 280      AD5DBF3A 
 280      C6
 281 09db EACFB98F 		.ascii	"\352\317\271\217\303\365\253c\226fk\267\214\346\000"
 281      C3F5AB63 
 281      96666BB7 
 281      8CE600
 282 09ea 46B711E3 		.ascii	"F\267\021\343C\306\240\0043g\257\036~B\276\325x\022"
 282      43C6A004 
 282      3367AF1E 
 282      7E42BED5 
 282      7812
 283 09fc 269D27EE 		.ascii	"&\235'\356I}\253Q\203\203\351k\325\323\277\345\004\320"
 283      497DAB51 
 283      8383E96B 
 283      D5D3BFE5 
 283      04D0
 284 0a0e DF9A9AFE 		.ascii	"\337\232\232\376\347\347D\267+gz\340Ls\222.\0338\372"
 284      E7E744B7 
 284      2B677AE0 
 284      4C73922E 
 284      1B38FA
 285 0a21 1A5C11B1 		.ascii	"\032\\\021\261\262\010\370+p\322j\177\322\252\220\265"
 285      B208F82B 
 285      70D26A7F 
 285      D2AA90B5 
 286 0a31 433E9339 		.ascii	"C>\2239\003\376z\3116\230G\003\266\213\004\273j\005"
 286      03FE7AC9 
 286      36984703 
 286      B68B04BB 
 286      6A05
 287 0a43 CC2C8821 		.ascii	"\314,\210!\260\335$\330?l\203i)\333K\202}c\005\314l"
 287      B0DD24D8 
 287      3F6C8369 
 287      29DB4B82 
 287      7D6305CC 
 288 0a58 B712819D 		.ascii	"\267\022\201\235$\301\276\267\015\3461\262\022\252\207"
 288      24C1BEB7 
 288      0DE631B2 
 288      12AA87
 289 0a67 9171F4A7 		.ascii	"\221q\364\247\260j8\015\221\362\034\244\355\220\236"
 289      B06A380D 
 289      91F21CA4 
 289      ED909E
 290 0a76 87F40B48 		.ascii	"\207\364\013HcV&]'\310\000\377#\020|,=\213A\303\336"
 290      6356265D 
ARM GAS  /tmp/ccO6mHhi.s 			page 22


 290      27C800FF 
 290      23107C2C 
 290      3D8B41C3 
 291 0a8b CECB5F3E 		.ascii	"\316\313_>&\357\376\352b,\226\207\031\005\027I\012\346"
 291      26EFFEEA 
 291      622C9687 
 291      19051749 
 291      0AE6
 292 0a9d 64DBA5C0 		.ascii	"d\333\245\300CR\020\275s\\\336\271T/z\277\240\307\263"
 292      435210BD 
 292      735CDEB9 
 292      542F7ABF 
 292      A0C7B3
 293 0ab0 7A354B9D 		.ascii	"z5K\235.\035\317|\367\031\025\354e\333`\232\353\327"
 293      2E1DCF7C 
 293      F71915EC 
 293      65DB609A 
 293      EBD7
 294 0ac2 D1FA1304 		.ascii	"\321\372\023\004\330\012\333`}{X\204l\013\037\203-\034"
 294      D80ADB60 
 294      7D7B5884 
 294      6C0B1F83 
 294      2D1C
 295 0ad4 079DFF0D 		.ascii	"\007\235\377\015\322\313\220v@zU;!m\312\326\307]y\214"
 295      D2CB9076 
 295      407A553B 
 295      216DCAD6 
 295      C75D798C 
 296 0ae8 25501383 		.ascii	"%P\023\2031e\025\327L\267-\244n\267d\333\215Z\032\335"
 296      316515D7 
 296      4CB72DA4 
 296      6EB764DB 
 296      8D5A1ADD 
 297 0afc A2A07AE8 		.ascii	"\242\240z\350+5\250\266\300\\l\247\025\304$+\321\255"
 297      2B35A8B6 
 297      C05C6CA7 
 297      15C4242B 
 297      D1AD
 298 0b0e 5FE88F03 		.ascii	"_\350\217\003\214F{\206\244-\0365\366O\223\243\306M"
 298      8C467B86 
 298      A42D1E35 
 298      F64F93A3 
 298      C64D
 299 0b20 881AFBB2 		.ascii	"\210\032\373\262SG\015F\313#Gw\352\243\306\355V\210"
 299      53470D46 
 299      CB234777 
 299      EAA3C6ED 
 299      5688
 300 0b32 1A9D96A2 		.ascii	"\032\235\226\242\306\335\326%\312JQ\036m\216\002\011"
 300      C6DDD625 
 300      CA4A511E 
 300      6D8E0209 
 301 0b42 9D690FF7 		.ascii	"\235i\017\367]\255\304\320u\3026\230G\003V\177\206\000"
 301      5DADC4D0 
 301      75C23698 
 301      4703567F 
 301      8600
ARM GAS  /tmp/ccO6mHhi.s 			page 23


 302 0b54 6BB50296 		.ascii	"k\265\002\226d\270o \301\316\331\006\323R\266\204\004"
 302      64B86F20 
 302      C1CED906 
 302      D352B684 
 302      04
 303 0b65 FBDC0A58 		.ascii	"\373\334\012X\222\341\376\025\022,f\033LK\331r\022\354"
 303      92E1FE15 
 303      122C661B 
 303      4C4BD972 
 303      12EC
 304 0b77 A21530B3 		.ascii	"\242\0250\263#\034\004\266\222\004\353\260\015\246\245"
 304      231C04B6 
 304      9204EBB0 
 304      0DA6A5
 305 0b86 6C1509F6 		.ascii	"l\025\011\366w+`\036s\312\032I\260\233\266\301<F.!\177"
 305      772B601E 
 305      73CA1A49 
 305      B09BB6C1 
 305      3C462E21 
 306 0b9b 488FE2E8 		.ascii	"H\217\342\350\357`X\274\005\203\325mH\357@z\027\322"
 306      EF6058BC 
 306      0583D56D 
 306      48EF407A 
 306      17D2
 307 0bad 6E48673B 		.ascii	"nHg;p:\007\322\271\220\376\005\322y\016\013\203\333"
 307      703A07D2 
 307      B990FE05 
 307      D2790E0B 
 307      83DB
 308 0bbf 0D7270BB 		.ascii	"\015rp\273e{(J\312H\342_d8\372\003\230\361}\010WxOC"
 308      657B284A 
 308      CA48E25F 
 308      6438FA03 
 308      98F17D08 
 309 0bd7 2AC13A79 		.ascii	"*\301:y.\244[\200\221\035\220~\010\351\001H\017A\372"
 309      2EA45B80 
 309      911D907E 
 309      08E90148 
 309      0F41FA
 310 0bea 0F48AF5B 		.ascii	"\017H\257[\031\253\367$.\376\242\365\270\003/\267\327"
 310      19ABF724 
 310      2EFEA2F5 
 310      B8032FB7 
 310      D7
 311 0bfb A77DA5FC 		.ascii	"\247}\245\374\322\221\227\355\336\311\277\026\333\240"
 311      D29197ED 
 311      DEC9BF16 
 311      DBA0
 312 0c09 9C9A2C80 		.ascii	"\234\232,\200\373\333wzD\252\264\266\302\347\366\241"
 312      FBDB777A 
 312      44AAB4B6 
 312      C2E7F6A1 
 313 0c19 537392F4 		.ascii	"Ss\222\364r\266\246\313\365\204b6\200b^\007\225l\205"
 313      72B6A6CB 
 313      F5846236 
 313      80625E07 
 313      956C85
ARM GAS  /tmp/ccO6mHhi.s 			page 24


 314 0c2c 7437A42F 		.ascii	"t7\244/\221\326\243\233\011\341\340o\246\201E\216\270"
 314      91D6A39B 
 314      09E1E06F 
 314      A681458E 
 314      B8
 315 0c3d 061EA01A 		.ascii	"\006\036\240\032\245\246X\354\377~\270-\340\355\037"
 315      A5A658EC 
 315      FF7EB82D 
 315      E0ED1F
 316 0c4c A9BBFBCF 		.ascii	"\251\273\373\317\324\275\324R\345\330H\242Ey3\326\014"
 316      D4BDD452 
 316      E5D848A2 
 316      457933D6 
 316      0C
 317 0c5d 69B1E35E 		.ascii	"i\261\343^\310\261\362=\370T!.\026\017M\017%\024\322"
 317      C8B1F23D 
 317      F854212E 
 317      160F4D0F 
 317      2514D2
 318 0c70 FDC3E107 		.ascii	"\375\303\341\007a\301\376\212\003G\270\346>)#\234\026"
 318      61C1FE8A 
 318      0347B8E6 
 318      3E29239C 
 318      16
 319 0c81 06D3B1C2 		.ascii	"\006\323\261\302\241\213pw\360?V\342\322\324Gx\335\353"
 319      A18B7077 
 319      F03F56E2 
 319      D2D44778 
 319      DDEB
 320 0c93 F0FD65F5 		.ascii	"\360\375e\365\377<wA\367\270\245\322\231f\015\231jj"
 320      FF3C7741 
 320      F7B8A5D2 
 320      99660D99 
 320      6A6A
 321 0ca5 2A4517DD 		.ascii	"*E\027\335v!\264~T\275B\264lMJU)N\270G!\274\321\321"
 321      7621B47E 
 321      54BD42B4 
 321      6C4D4A55 
 321      294EB847 
 322 0cbd 0F729AA3 		.ascii	"\017r\232\243:\250a&\3625\216\304\261}\226;\221QO\314"
 322      3AA86126 
 322      F2358EC4 
 322      B17D963B 
 322      91514FCC 
 323 0cd1 186ABF9E 		.ascii	"\030j\277\236\005m\267IB\227\261)&\204\313\321+\035"
 323      056DB749 
 323      4297B129 
 323      2684CBD1 
 323      2B1D
 324 0ce3 B0990B83 		.ascii	"\260\231\013\203\327j+\203\327\322\204\255)F\022\037"
 324      D76A2B83 
 324      D7D284AD 
 324      2946121F 
 325 0cf3 01E2EFCA 		.ascii	"\001\342\357\312\0211GOI\354\2400\324\001\235!<H\255"
 325      1131474F 
 325      49ECA030 
 325      D4019D21 
ARM GAS  /tmp/ccO6mHhi.s 			page 25


 325      3C48AD
 326 0d06 95A4066C 		.ascii	"\225\244\006l\252\237\340\331\3318\031\233\241NA\275"
 326      AA9FE0D9 
 326      D938199B 
 326      A14E41BD 
 327 0d16 06C70386 		.ascii	"\006\307\003\2064(\024\310\215\245\355\3748\271{4YH"
 327      342814C8 
 327      8DA5EDFC 
 327      38B97B34 
 327      5948
 328 0d28 D10C8854 		.ascii	"\321\014\210T\232\335\372\303 u:\335\256o\246\273\226"
 328      9ADDFAC3 
 328      20753ADD 
 328      AE6FA6BB 
 328      96
 329 0d39 A1F0F21B 		.ascii	"\241\360\362\033j=\326\347;us\373:d\027\242\222\364"
 329      6A3DD6E7 
 329      3B7573FB 
 329      3A6417A2 
 329      92F4
 330 0d4b A6C86AAD 		.ascii	"\246\310j\255C\363\277\312\262oF\227\360-\322u4\310"
 330      43F3BFCA 
 330      B26F4697 
 330      F02DD275 
 330      34C8
 331 0d5d D870CB4D 		.ascii	"\330p\313MZ\267\224e\240\274\270\250\277\310\3774#\315"
 331      5AB79465 
 331      A0BCB8A8 
 331      BFC8FF34 
 331      23CD
 332 0d6f A6FF4419 		.ascii	"\246\377D\031r\221\270\210\302\321\3578\\\250\335\337"
 332      7291B888 
 332      C2D1EF38 
 332      5CA8DDDF 
 333 0d7f FA985E23 		.ascii	"\372\230^#\301\025T\003\220\363j\216\246\014\264z\305"
 333      C1155403 
 333      90F36A8E 
 333      A60CB47A 
 333      C5
 334 0d90 50ABD21D 		.ascii	"P\253\322\035\277\242O4\362AHx\313\222>_\305\212\221"
 334      BFA24F34 
 334      F2414878 
 334      CB923E5F 
 334      C58A91
 335 0da3 49EC04E0 		.ascii	"I\354\004\340\267L\025\243\320i\254\030\263\336\024"
 335      B74C15A3 
 335      D069AC18 
 335      B3DE14
 336 0db2 0EDE3354 		.ascii	"\016\3363T\314.\373\212\331a\244\030\235\204\356\032"
 336      CC2EFB8A 
 336      D961A418 
 336      9D84EE1A 
 337 0dc2 4BE8AE5E 		.ascii	"K\350\256^B\333\223K\310\214U\263f\012\205\273\014Y"
 337      42DB934B 
 337      C88C55B3 
 337      660A85BB 
 337      0C59
ARM GAS  /tmp/ccO6mHhi.s 			page 26


 338 0dd4 3D6F9FD5 		.ascii	"=o\237\325\275Il\220\243\207g\032\330\306\374\276\206"
 338      BD496C90 
 338      A387671A 
 338      D8C6FCBE 
 338      86
 339 0de5 9CBFCAEB 		.ascii	"\234\277\312\3538\337c\3016j\245}\270\331p\354\352\215"
 339      38DF63C1 
 339      366AA57D 
 339      B8D970EC 
 339      EA8D
 340 0df7 806BDE6A 		.ascii	"\200k\336jx\022q\231\265R\270\334\337S\\\357\306\242"
 340      78127199 
 340      B552B8DC 
 340      DF535CEF 
 340      C6A2
 341 0e09 AB0E66D5 		.ascii	"\253\016f\325\317\216uw? \213\201\241^7\342\254Vj\326"
 341      CF8E7577 
 341      3F208B81 
 341      A15E37E2 
 341      AC566AD6 
 342 0e1d 7376D012 		.ascii	"sv\320\022g\247\343\234\355\005\\\363V\31183k\245pv"
 342      67A7E39C 
 342      ED055CF3 
 342      56C93833 
 342      6BA57076 
 343 0e31 C890B3BD 		.ascii	"\310\220\263\275\011\316v\000gG\2149[\243\347\354Xz"
 343      09CE7600 
 343      67478C39 
 343      5BA3E7EC 
 343      587A
 344 0e43 D66AD64C 		.ascii	"\326j\326L!\362\343\236D\306\352c\007^<J\277\320 \375"
 344      21F2E39E 
 344      44C6EA63 
 344      075E3C4A 
 344      BFD020FD 
 345 0e57 8837D975 		.ascii	"\2107\331u\026k\362\377\013\030\353T\222\271\214<;0"
 345      166BF2FF 
 345      0B18EB54 
 345      92B98C3C 
 345      3B30
 346 0e69 6BD96A3D 		.ascii	"k\331j=\306\305\337\0278\214b^L'M\225\317\263F|F/\234"
 346      C6C5DF17 
 346      388C625E 
 346      4C274D95 
 346      CFB3467C 
 347 0e80 7F49A265 		.ascii	"\177I\242eu\330p\3146\275c\266\222\216\251\014\223:"
 347      75D870CC 
 347      36BD63B6 
 347      928EA90C 
 347      933A
 348 0e92 BAFE6942 		.ascii	"\272\376iB\327yC\272\256_\224\\\266\307\213/\222\222"
 348      D77943BA 
 348      AE5F945C 
 348      B6C78B2F 
 348      9292
 349 0ea4 A54C594D 		.ascii	"\245LYM\305i\362\273\216\215.\0236.j\331\320\251\036"
 349      C569F2BB 
ARM GAS  /tmp/ccO6mHhi.s 			page 27


 349      8E8D2E13 
 349      362E6AD9 
 349      D0A91E
 350 0eb7 1B8619D5 		.ascii	"\033\206\031\325\227\022\252\327\265jK\322\352\262i"
 350      9712AAD7 
 350      B56A4BD2 
 350      EAB269
 351 0ec6 AB2F92B4 		.ascii	"\253/\222\264\372*\321J\231_6\215^\236b\252\337a{~y"
 351      FA2AD14A 
 351      995F368D 
 351      5E9E62AA 
 351      DF617B7E 
 352 0edb C5647EC9 		.ascii	"\305d~\311\032\023\214;0\203\272\232 \230\032X(\004"
 352      1A138C3B 
 352      3083BA9A 
 352      20981A58 
 352      2804
 353 0eed 66F04224 		.ascii	"f\360B$'\220\357\363F\370\252HHx\244\202\312,\316/("
 353      2790EFF3 
 353      46F8AA48 
 353      4878A482 
 353      CA2CCE2F 
 354 0f02 8517AF98 		.ascii	"\205\027\257\230\361\273\211S<\005T\237DQD\344D\336"
 354      F1BB8953 
 354      3C05549F 
 354      445144E4 
 354      44DE
 355 0f14 553C714C 		.ascii	"U<qLAY\361\323E\216\342\302\361E\216\247\246\224N\353"
 355      4159F1D3 
 355      458EE2C2 
 355      F1458EA7 
 355      A6944EEB 
 356 0f28 053F3C98 		.ascii	"\005?<\230S\035\021r8!\370pU\250\212\177\230\347\236"
 356      531D1172 
 356      3821F870 
 356      55A88A7F 
 356      98E79E
 357 0f3b 0DE404AA 		.ascii	"\015\344\004\252|\225\325~>'\"\372\003U\"\352\300Y\215"
 357      7C95D57E 
 357      3E2722FA 
 357      035522EA 
 357      C0598D
 358 0f4e BE477AC5 		.ascii	"\276Gz\305aI*\0079_E\240\212\317\361\372\371r\256\272"
 358      61492A07 
 358      395F45A0 
 358      8ACFF1FA 
 358      F972AEBA 
 359 0f62 52F48AB3 		.ascii	"R\364\212\263\302|\0045v{\275Js'\347\367\013|$R\230"
 359      C27C0435 
 359      767BBD4A 
 359      7327E7F7 
 359      0B7C2452 
 360 0f77 53110AF2 		.ascii	"S\021\012\3629\276\220\177V\216\237\237\221\203\032"
 360      39BE907F 
 360      568E9F9F 
 360      91831A
 361 0f86 3E1B0845 		.ascii	">\033\010ErD\241\272\352\271\034\224\251\340*s\302!"
ARM GAS  /tmp/ccO6mHhi.s 			page 28


 361      7244A1BA 
 361      EAB91C94 
 361      A9E02A73 
 361      C221
 362 0f98 418CE494 		.ascii	"A\214\344\224\226M\030\232"
 362      964D189A 
 363 0fa0 9F337E7C 		.ascii	"\2373~|a\016bhF\036\360]Y\351\307\260\250@\226F\276"
 363      610E6268 
 363      461EF05D 
 363      59E9C7B0 
 363      A8409646 
 364 0fb5 1538954C 		.ascii	"\0258\225L\004\200\032\367F_\300\276W\354\215p\274S"
 364      04801AF7 
 364      465FC0BE 
 364      57EC8D70 
 364      BC53
 365 0fc7 26164F2C 		.ascii	"&\026O,.s\341li\331\244\311\030\333[R4\246p\332=8'K"
 365      2E73E16C 
 365      69D9A4C9 
 365      18DB5B52 
 365      34A670DA 
 366 0fdf CE5B3695 		.ascii	"\316[6\225|+\231\012-\307O*\370}Qa&\302\013\205\203"
 366      7C2B990A 
 366      2DC74F2A 
 366      F87D5161 
 366      26C20B85 
 367 0ff4 213F069C 		.ascii	"!?\006\2344y\302\244\302\"/\372"
 367      3479C2A4 
 367      C2222FFA 
 368 1000 7580922D 		.ascii	"u\200\222-\235\200\004\356-,z\272\270\240\250\237\246"
 368      9D8004EE 
 368      2D2C7ABA 
 368      B8A0A89F 
 368      A6
 369 1011 6CDCA4D2 		.ascii	"l\334\244\3222g(\354\305M]XLC\363\021\202,1\234\315"
 369      326728EC 
 369      C54D5D58 
 369      4C43F311 
 369      822C319C 
 370 1026 F455867C 		.ascii	"\364U\206|\317y#a\236\367g\243N\374\325\342,\337,_%"
 370      CF792361 
 370      9EF767A3 
 370      4EFCD5E2 
 370      2CDF2C5F 
 371 103b EA27BBB4 		.ascii	"\352'\273\264\254\320[8\245l\232\267`Z\301\370\242~"
 371      ACD05B38 
 371      A56C9AB7 
 371      605AC1F8 
 371      A27E
 372 104d 63C79496 		.ascii	"c\307\224\226\021\357\336\374\237\351K\362\206{G\365"
 372      11EFDEFC 
 372      9FE94BF2 
 372      867B47F5 
 373 105d C6085E80 		.ascii	"\306\010^\200\300\\\026\204\252\312\003\3233|\360\205"
 373      C05C1684 
 373      AACA03D3 
 373      337CF085 
ARM GAS  /tmp/ccO6mHhi.s 			page 29


 374 106d A5525EC9 		.ascii	"\245R^\311M\217 3\342\005!$D\206\246\022\255 \306%\353"
 374      4D8F2033 
 374      E2052124 
 374      4486A612 
 374      AD20C625 
 375 1082 AB088A35 		.ascii	"\253\010\2125\330X\202\325\"_\343\025{\301\367H[\010"
 375      D85882D5 
 375      225FE315 
 375      7BC1F748 
 375      5B08
 376 1094 915911D5 		.ascii	"\221Y\021\325l\372\210\025\002\317\371#\336?U\363\325"
 376      6CFA8815 
 376      02CFF923 
 376      DE3F55F3 
 376      D5
 377 10a5 88DDBEBE 		.ascii	"\210\335\276\276\012\257\246h\230=d_\005\266\032\227"
 377      0AAFA668 
 377      983D645F 
 377      05B61A97 
 378 10b5 0CE115DD 		.ascii	"\014\341\025\335q\270\214\260\267\212\257\021\321WX"
 378      71B88CB0 
 378      B78AAF11 
 378      D15758
 379 10c4 E0678CB3 		.ascii	"\340g\214\263\200*\233\346\230\222\011\005\023jP\315"
 379      802A9BE6 
 379      98920905 
 379      136A50CD 
 380 10d4 60385089 		.ascii	"`8P\211}\362w\005\005\250\272J\277S\014\013\201\220"
 380      7DF27705 
 380      05A8BA4A 
 380      BF530C0B 
 380      8190
 381 10e6 57C60D84 		.ascii	"W\306\015\204\234H\304H\034\342(\333\370\025\276\220"
 381      9C48C448 
 381      1CE228DB 
 381      F815BE90 
 382 10f6 C0632FC7 		.ascii	"\300c/\307\305^d\027>\261\346\361\364P\2743F\004\261"
 382      C55E6417 
 382      3EB1E6F1 
 382      F450BC33 
 382      4604B1
 383 1109 10047E3A 		.ascii	"\020\004~:rb\257\310F\362\206\243g\004zF\242g\024\033"
 383      7262AFC8 
 383      46F286A3 
 383      67047A46 
 383      A267141B 
 384 111d C9CF454F 		.ascii	"\311\317EO\036z\362\3213\024=\303\320\363(zP\275|T/"
 384      1E7AF2D1 
 384      33143DC3 
 384      D0F3287A 
 384      50BD7C54 
 385 1132 1FD5CB47 		.ascii	"\037\325\313G\365\206\242zC\363\030a\030#<\312\010\303"
 385      F586A27A 
 385      43F31861 
 385      18233CCA 
 385      08C3
 386 1144 19610423 		.ascii	"\031a\004#\214d\204Q\254\220\227\213\236<\246R@_C{\205"
ARM GAS  /tmp/ccO6mHhi.s 			page 30


 386      8C648451 
 386      AC90978B 
 386      9E3CA652 
 386      405F437B 
 387 1159 BD885A27 		.ascii	"\275\210Z'\226\360L^@\337\241J?/8|\025\234\200\305\316"
 387      96F04C5E 
 387      40DFA14A 
 387      3F2F387C 
 387      159C80C5 
 388 116e 057997A8 		.ascii	"\005y\227\250\370!\372\021rNQv#\364\016\266\350\024"
 388      F821FA11 
 388      724E5176 
 388      23F40EB6 
 388      E814
 389 1180 05BE3C02 		.ascii	"\005\276<\002r\304\231^\301\310t\364\243\342\036hlQ"
 389      72C4995E 
 389      C1C874F4 
 389      A3E21E68 
 389      6C51
 390 1192 7219827F 		.ascii	"r\031\202\177\026\372\311\305\327\004D$\026>c\246\030"
 390      16FAC9C5 
 390      D7044424 
 390      163E63A6 
 390      18
 391 11a3 7AF68FE1 		.ascii	"z\366\217\341L~\006_%\006\271\310s\330\246g\342\014"
 391      4C7E065F 
 391      2506B9C8 
 391      73D8A667 
 391      E20C
 392 11b5 1BF65667 		.ascii	"\033\366Vg\253\226T\031\210\240\221\252\017a[\270\304"
 392      AB965419 
 392      88A091AA 
 392      0F615BB8 
 392      C4
 393 11c6 1DF6CEE4 		.ascii	"\035\366\316\344\002b\240jzo\344\232\221\351`o\275 "
 393      0262A06A 
 393      7A6FE49A 
 393      91E9606F 
 393      BD20
 394 11d8 8B0AF830 		.ascii	"\213\012\3700_\205\006\306\351\250\026\262x\\\2777\246"
 394      5F8506C6 
 394      E9A816B2 
 394      785CBF37 
 394      A6
 395 11e9 8DAB043D 		.ascii	"\215\253\004=\243\302p(T\351\014\312V\212\276C3\253"
 395      A3C27028 
 395      54E90CCA 
 395      568ABE43 
 395      33AB
 396 11fb 78212308 		.ascii	"x!#\010V6\302\226\321*4!\225\365W\354\026\211\200\027"
 396      5636C296 
 396      D12A3421 
 396      95F557EC 
 396      16898017 
 397 120f F82A1F12 		.ascii	"\370*\037\022P\206\\\344FN\213\307U\257\010\343\007"
 397      50865CE4 
 397      464E8BC7 
ARM GAS  /tmp/ccO6mHhi.s 			page 31


 397      55AF08E3 
 397      07
 398 1220 F27175FC 		.ascii	"\362qu\374\300Y\007\376\311-\324\370\203\034\026\253"
 398      C05907FE 
 398      C92DD4F8 
 398      831C16AB 
 399 1230 5B547363 		.ascii	"[Tsc\355\216\301\220\216\035VS\203\302B\020I\034\341"
 399      ED8EC190 
 399      8E1D5653 
 399      83C24210 
 399      491CE1
 400 1243 20BA1E4B 		.ascii	" \272\036K\005\203x\316)\230PZ\\\212\000\344\226\345"
 400      058378CE 
 400      2998505A 
 400      5C8A00E4 
 400      96E5
 401 1255 C372F36A 		.ascii	"\303r\363j\260A\367/\2340\306[\212\324\313\005\275e"
 401      B041F72F 
 401      9C30C65B 
 401      8AD4CB05 
 401      BD65
 402 1267 C86B0AF9 		.ascii	"\310k\012\371r\246\240\3041\261\260\254\204\235<\246"
 402      72A6A0C4 
 402      31B1B0AC 
 402      849D3CA6 
 403 1277 C4312117 		.ascii	"\3041!\027'ycJ\330\261\005%\031\021\250\350\010\224"
 403      2779634A 
 403      D8B10525 
 403      1911A8E8 
 403      0894
 404 1289 FB848C40 		.ascii	"\373\204\214@\244\"P.\272#|ey\240\312\317\327d\314\340"
 404      A422502E 
 404      BA237C65 
 404      79A0CACF 
 404      D764CCE0 
 405 129d 7D6248E8 		.ascii	"}bH\350\037\247\314+\327F\203\020z\021jp*\326\3400\251"
 405      1FA7CC2B 
 405      D7468310 
 405      7A116A70 
 405      2AD6E030 
 406 12b2 76C41694 		.ascii	"v\304\026\224\344\241'\3371iLI\036N\362\231\302\022"
 406      E4A127DF 
 406      31694C49 
 406      1E4EF299 
 406      C212
 407 12c4 B6141596 		.ascii	"\266\024\025\226\226\344\263\005\005%\275\312J\212K"
 407      96E4B305 
 407      0525BDCA 
 407      4A8A4B
 408 12d3 8B1C63C7 		.ascii	"\213\034c\307#b\220\204\335xd\012\004\261]\342\257P"
 408      23629084 
 408      DD78640A 
 408      04B15DE2 
 408      AF50
 409 12e5 B5D84F0D 		.ascii	"\265\330O\015\305\301\310\243\303sG<\342\243\364%\310"
 409      C5C1C8A3 
 409      C373473C 
ARM GAS  /tmp/ccO6mHhi.s 			page 32


 409      E2A3F425 
 409      C8
 410 12f6 D1E41CD2 		.ascii	"\321\344\034\322\225\034\253Y\037W\231\251\224\005\252"
 410      951CAB59 
 410      1F5799A9 
 410      9405AA
 411 1305 02221DCC 		.ascii	"\002\"\035\314\360C\033\327\263\\\204\037\203T\325\313"
 411      F0431BD7 
 411      B35C841F 
 411      8354D5CB 
 412 1315 FB14321E 		.ascii	"\373\0242\036\265ND\014\205\2358A\224g)e(\200\362\342"
 412      B54E440C 
 412      859D3841 
 412      94672965 
 412      2880F2E2 
 413 1329 80F80BE7 		.ascii	"\200\370\013\347\237\214Cj\265\300\273\302J\346^\342"
 413      9F8C436A 
 413      B5C0BBC2 
 413      4AE65EE2 
 414 1339 C7323E18 		.ascii	"\3072>\030\346\005ND\305\231b\"?\220l_2i\302\323\\e"
 414      E6054E44 
 414      C5996222 
 414      3F906C5F 
 414      3269C2D3 
 415 134f 351FC94E 		.ascii	"5\037\311NL\0320u\331\344\034\"\024\356O\3142\004\256"
 415      4C1A3075 
 415      D9E41C22 
 415      14EE4FCC 
 415      3204AE
 416 1362 2AC2F9C4 		.ascii	"*\302\371\304\377\007\340w\016\307"
 416      FF07E077 
 416      0EC7
 417              		.text
 418              		.section	.gnu.lto_.symtab.170e1f62472a77de,"",%progbits
 419 0000 6D733536 		.ascii	"ms5607_init\000\000\000\000\000\000\000\000\000\000"
 419      30375F69 
 419      6E697400 
 419      00000000 
 419      00000000 
 420 0015 00001202 		.ascii	"\000\000\022\002\000\000ms5607_stop\000\000\000\000"
 420      00006D73 
 420      35363037 
 420      5F73746F 
 420      70000000 
 421 002a 00000000 		.ascii	"\000\000\000\000\000\000\000\000+\002\000\000ms5607"
 421      00000000 
 421      2B020000 
 421      6D733536 
 421      3037
 422 003c 5F726573 		.ascii	"_reset\000\000\000\000\000\000\000\000\000\000\000\000"
 422      65740000 
 422      00000000 
 422      00000000 
 422      0000
 423 004e 37020000 		.ascii	"7\002\000\000ms5607_readPressure\000\000\000\000\000"
 423      6D733536 
 423      30375F72 
ARM GAS  /tmp/ccO6mHhi.s 			page 33


 423      65616450 
 423      72657373 
 424 006a 00000000 		.ascii	"\000\000\000\000\000\000\000=\002\000\000ms5607_rea"
 424      0000003D 
 424      0200006D 
 424      73353630 
 424      375F7265 
 425 007f 6454656D 		.ascii	"dTemperature\000\000\000\000\000\000\000\000\000\000"
 425      70657261 
 425      74757265 
 425      00000000 
 425      00000000 
 426 0095 00004602 		.ascii	"\000\000F\002\000\000ms5607_readPROMValues\000\000\000"
 426      00006D73 
 426      35363037 
 426      5F726561 
 426      6450524F 
 427 00b3 00000000 		.ascii	"\000\000\000\000\000\000\000\000\000L\002\000\000I2"
 427      00000000 
 427      004C0200 
 427      004932
 428 00c2 4353656E 		.ascii	"CSensor_init\000\000\002\000\000\000\000\000\000\000"
 428      736F725F 
 428      696E6974 
 428      00000200 
 428      00000000 
 429 00d8 00005002 		.ascii	"\000\000P\002\000\000I2CSensor_stop\000\000\002\000"
 429      00004932 
 429      4353656E 
 429      736F725F 
 429      73746F70 
 430 00f0 00000000 		.ascii	"\000\000\000\000\000\000\000\000X\002\000\000I2CSen"
 430      00000000 
 430      58020000 
 430      49324353 
 430      656E
 431 0102 736F725F 		.ascii	"sor_transact\000\000\002\000\000\000\000\000\000\000"
 431      7472616E 
 431      73616374 
 431      00000200 
 431      00000000 
 432 0118 00005D02 		.ascii	"\000\000]\002\000\000"
 432      0000
 433              		.text
 434              		.section	.gnu.lto_.opts,"",%progbits
 435 0000 272D6D63 		.ascii	"'-mcpu=cortex-m4' '-mfloat-abi=hard' '-mfpu=fpv4-sp"
 435      70753D63 
 435      6F727465 
 435      782D6D34 
 435      2720272D 
 436 0033 2D643136 		.ascii	"-d16' '-mno-thumb-interwork' '-mthumb' '-O2' '-fomi"
 436      2720272D 
 436      6D6E6F2D 
 436      7468756D 
 436      622D696E 
 437 0066 742D6672 		.ascii	"t-frame-pointer' '-falign-functions=16' '-ffunction"
 437      616D652D 
ARM GAS  /tmp/ccO6mHhi.s 			page 34


 437      706F696E 
 437      74657227 
 437      20272D66 
 438 0099 2D736563 		.ascii	"-sections' '-fdata-sections' '-fno-common' '-flto' "
 438      74696F6E 
 438      73272027 
 438      2D666461 
 438      74612D73 
 439 00cc 272D6673 		.ascii	"'-fsingle-precision-constant'\000"
 439      696E676C 
 439      652D7072 
 439      65636973 
 439      696F6E2D 
 440              		.text
 441              		.section	.text.ms5607_init,"ax",%progbits
 442              		.align	2
 443              		.p2align 4,,15
 444              		.global	ms5607_init
 445              		.thumb
 446              		.thumb_func
 447              		.type	ms5607_init, %function
 448              	ms5607_init:
 449              		@ args = 0, pretend = 0, frame = 0
 450              		@ frame_needed = 0, uses_anonymous_args = 0
 451 0000 08B5     		push	{r3, lr}
 452 0002 C823     		movs	r3, #200
 453 0004 FFF7FEFF 		bl	I2CSensor_init
 454 0008 0020     		movs	r0, #0
 455 000a 08BD     		pop	{r3, pc}
 456              		.size	ms5607_init, .-ms5607_init
 457 000c AFF30080 		.section	.text.ms5607_stop,"ax",%progbits
 458              		.align	2
 459              		.p2align 4,,15
 460              		.global	ms5607_stop
 461              		.thumb
 462              		.thumb_func
 463              		.type	ms5607_stop, %function
 464              	ms5607_stop:
 465              		@ args = 0, pretend = 0, frame = 0
 466              		@ frame_needed = 0, uses_anonymous_args = 0
 467 0000 08B5     		push	{r3, lr}
 468 0002 FFF7FEFF 		bl	I2CSensor_stop
 469 0006 0020     		movs	r0, #0
 470 0008 08BD     		pop	{r3, pc}
 471              		.size	ms5607_stop, .-ms5607_stop
 472 000a 00BFAFF3 		.section	.text.ms5607_reset,"ax",%progbits
 472      0080
 473              		.align	2
 474              		.p2align 4,,15
 475              		.global	ms5607_reset
 476              		.thumb
 477              		.thumb_func
 478              		.type	ms5607_reset, %function
 479              	ms5607_reset:
 480              		@ args = 0, pretend = 0, frame = 8
 481              		@ frame_needed = 0, uses_anonymous_args = 0
 482 0000 00B5     		push	{lr}
ARM GAS  /tmp/ccO6mHhi.s 			page 35


 483 0002 85B0     		sub	sp, sp, #20
 484 0004 04A9     		add	r1, sp, #16
 485 0006 1E23     		movs	r3, #30
 486 0008 01F8013D 		strb	r3, [r1, #-1]!
 487 000c 0023     		movs	r3, #0
 488 000e 0093     		str	r3, [sp]
 489 0010 0122     		movs	r2, #1
 490 0012 FFF7FEFF 		bl	I2CSensor_transact
 491 0016 05B0     		add	sp, sp, #20
 492              		@ sp needed
 493 0018 5DF804FB 		ldr	pc, [sp], #4
 494              		.size	ms5607_reset, .-ms5607_reset
 495 001c AFF30080 		.section	.text.ms5607_readPressure,"ax",%progbits
 496              		.align	2
 497              		.p2align 4,,15
 498              		.global	ms5607_readPressure
 499              		.thumb
 500              		.thumb_func
 501              		.type	ms5607_readPressure, %function
 502              	ms5607_readPressure:
 503              		@ args = 0, pretend = 0, frame = 8
 504              		@ frame_needed = 0, uses_anonymous_args = 0
 505 0000 00B5     		push	{lr}
 506 0002 85B0     		sub	sp, sp, #20
 507 0004 04A9     		add	r1, sp, #16
 508 0006 5823     		movs	r3, #88
 509 0008 01F8053D 		strb	r3, [r1, #-5]!
 510 000c 0423     		movs	r3, #4
 511 000e 0093     		str	r3, [sp]
 512 0010 0122     		movs	r2, #1
 513 0012 03AB     		add	r3, sp, #12
 514 0014 FFF7FEFF 		bl	I2CSensor_transact
 515 0018 0020     		movs	r0, #0
 516 001a 05B0     		add	sp, sp, #20
 517              		@ sp needed
 518 001c 5DF804FB 		ldr	pc, [sp], #4
 519              		.size	ms5607_readPressure, .-ms5607_readPressure
 520              		.section	.text.ms5607_readTemperature,"ax",%progbits
 521              		.align	2
 522              		.p2align 4,,15
 523              		.global	ms5607_readTemperature
 524              		.thumb
 525              		.thumb_func
 526              		.type	ms5607_readTemperature, %function
 527              	ms5607_readTemperature:
 528              		@ args = 0, pretend = 0, frame = 0
 529              		@ frame_needed = 0, uses_anonymous_args = 0
 530              		@ link register save eliminated.
 531 0000 0020     		movs	r0, #0
 532 0002 7047     		bx	lr
 533              		.size	ms5607_readTemperature, .-ms5607_readTemperature
 534 0004 AFF30080 		.section	.text.ms5607_readPROMValues,"ax",%progbits
 534      AFF30080 
 534      AFF30080 
 535              		.align	2
 536              		.p2align 4,,15
 537              		.global	ms5607_readPROMValues
ARM GAS  /tmp/ccO6mHhi.s 			page 36


 538              		.thumb
 539              		.thumb_func
 540              		.type	ms5607_readPROMValues, %function
 541              	ms5607_readPROMValues:
 542              		@ args = 0, pretend = 0, frame = 0
 543              		@ frame_needed = 0, uses_anonymous_args = 0
 544              		@ link register save eliminated.
 545 0000 0020     		movs	r0, #0
 546 0002 7047     		bx	lr
 547              		.size	ms5607_readPROMValues, .-ms5607_readPROMValues
 548              		.comm	__gnu_lto_v1,1,1
 549 0004 AFF30080 		.ident	"GCC: (GNU Tools for ARM Embedded Processors) 4.8.4 20140526 (release) [ARM/embedded-4_8-br
 549      AFF30080 
 549      AFF30080 
ARM GAS  /tmp/ccO6mHhi.s 			page 37


DEFINED SYMBOLS
                            *ABS*:0000000000000000 ms5607.c
     /tmp/ccO6mHhi.s:442    .text.ms5607_init:0000000000000000 $t
     /tmp/ccO6mHhi.s:448    .text.ms5607_init:0000000000000000 ms5607_init
     /tmp/ccO6mHhi.s:458    .text.ms5607_stop:0000000000000000 $t
     /tmp/ccO6mHhi.s:464    .text.ms5607_stop:0000000000000000 ms5607_stop
     /tmp/ccO6mHhi.s:473    .text.ms5607_reset:0000000000000000 $t
     /tmp/ccO6mHhi.s:479    .text.ms5607_reset:0000000000000000 ms5607_reset
     /tmp/ccO6mHhi.s:496    .text.ms5607_readPressure:0000000000000000 $t
     /tmp/ccO6mHhi.s:502    .text.ms5607_readPressure:0000000000000000 ms5607_readPressure
     /tmp/ccO6mHhi.s:521    .text.ms5607_readTemperature:0000000000000000 $t
     /tmp/ccO6mHhi.s:527    .text.ms5607_readTemperature:0000000000000000 ms5607_readTemperature
     /tmp/ccO6mHhi.s:535    .text.ms5607_readPROMValues:0000000000000000 $t
     /tmp/ccO6mHhi.s:541    .text.ms5607_readPROMValues:0000000000000000 ms5607_readPROMValues
                            *COM*:0000000000000001 __gnu_lto_v1

UNDEFINED SYMBOLS
I2CSensor_init
I2CSensor_stop
I2CSensor_transact
