ARM GAS  /tmp/ccqPV6tK.s 			page 1


   1              		.syntax unified
   2              		.cpu cortex-m4
   3              		.eabi_attribute 27, 3
   4              		.eabi_attribute 28, 1
   5              		.fpu fpv4-sp-d16
   6              		.eabi_attribute 20, 1
   7              		.eabi_attribute 21, 1
   8              		.eabi_attribute 23, 3
   9              		.eabi_attribute 24, 1
  10              		.eabi_attribute 25, 1
  11              		.eabi_attribute 26, 1
  12              		.eabi_attribute 30, 2
  13              		.eabi_attribute 34, 1
  14              		.eabi_attribute 18, 4
  15              		.thumb
  16              		.file	"ms5607.c"
  17              		.section	.gnu.lto_.jmpfuncs.75aa16ced05093bc,"",%progbits
  18 0000 789C6362 		.ascii	"x\234cb`b\300\006\242\2404;\203=#\210\004\002f\006\006"
  18      6062C006 
  18      A2A0343B 
  18      833D2388 
  18      04026606 
  19 0015 A6322883 		.ascii	"\2462(\203\245\014\"\015\224cbgfdad\203p\031\031\"\030"
  19      A50C220D 
  19      94636267 
  19      66646164 
  19      83701919 
  20 002b 331919E4 		.ascii	"3\031\031\344\030\230\3004H\032\304\000\322P\021 `e"
  20      1898C034 
  20      481AC400 
  20      D2501120 
  20      6065
  21 003d 60031908 		.ascii	"`\003\031\010\000\341\214\005\004"
  21      00E18C05 
  21      04
  22              		.text
  23              		.section	.gnu.lto_.inline.75aa16ced05093bc,"",%progbits
  24 0000 789C6D8E 		.ascii	"x\234m\216\275\015\302P\014\204?\337\373#\002\011\201"
  24      BD0DC250 
  24      0C843FDF 
  24      FB230209 
  24      81
  25 0011 A0A64C49 		.ascii	"\240\246LI\307\030\231+eF`$D\305\010\214\301\363# \244"
  25      C718992B 
  25      65466024 
  25      44C5088C 
  25      C1F32320 
  26 0026 604B67F9 		.ascii	"`Kg\371\354;[\210\177q\237k\201\343\331\002\006\201"
  26      EC3B5B88 
  26      7F719F6B 
  26      81E3D902 
  26      0681
  27 0038 5091E410 		.ascii	"P\221\344\020\323\330\323=.\302\236%\276\321\327\265"
  27      D3D8D33D 
  27      2EC29E25 
  27      BED1D7B5 
  28 0048 069B866E 		.ascii	"\006\233\206n_\225\323\360\233\363D\224l\350+\307}c"
ARM GAS  /tmp/ccqPV6tK.s 			page 2


  28      5F95D3F0 
  28      9BF34494 
  28      6CE82BC7 
  28      7D63
  29 005a 3556B5A0 		.ascii	"5V\265\240\214}\243\242m\016f~\024\351\266%_O\215_\355"
  29      8C7DA3A2 
  29      6D0E667E 
  29      14E9B625 
  29      5F4F8D5F 
  30 006f 20BB9B37 		.ascii	" \273\2337\211 k\357\177\306y\301\224\005\303\013\366"
  30      89206BEF 
  30      7FC679C1 
  30      9405C30B 
  30      F6
  31 0080 C316BB   		.ascii	"\303\026\273"
  32              		.text
  33              		.section	.gnu.lto_.pureconst.75aa16ced05093bc,"",%progbits
  34 0000 789C6362 		.ascii	"x\234cb`b\340g\200\000v\006I&)f)\026\011V\0066 \007"
  34      6062E067 
  34      80007606 
  34      49262966 
  34      29160956 
  35 0018 0006D400 		.ascii	"\000\006\324\000\233"
  35      9B
  36              		.text
  37              		.section	.gnu.lto_ms5607_transmit.isra.0.75aa16ced05093bc,"",%progbits
  38 0000 789C9551 		.ascii	"x\234\225Q;H\003A\020\235\331\275\313\347\222\234J\222"
  38      3B480341 
  38      109DD9BD 
  38      CBE7929C 
  38      4A92
  39 0012 42D28460 		.ascii	"B\322\204`\035\323\250\245\215\215\215XD\3202\204p\\"
  39      1DD3A8A5 
  39      8D8D8D58 
  39      44D03284 
  39      705C
  40 0024 11847C6C 		.ascii	"\021\204|l,\262\211\026\202\010\301\312Oc\220\324\266"
  40      2CB28916 
  40      8208C1CA 
  40      4F6390D4 
  40      B6
  41 0035 0A169682 		.ascii	"\012\026\226\202\370\353\304*\215\255\205\245\205\347"
  41      F8EBC42A 
  41      8DAD85A5 
  41      85E7
  42 0043 CC5DEE82 		.ascii	"\314]\356\202\001\021\027nf\356\355\2337\237\025 `\374"
  42      0111176E 
  42      66EEED9B 
  42      379F1520 
  42      60FC
  43 0055 E4E8BB26 		.ascii	"\344\350\273&x\206<j\200\262\373\000\320\216H\024\034"
  43      78863C6A 
  43      80B2FB00 
  43      D08E4814 
  43      1C
  44 0066 A040640F 		.ascii	"\240@d\017\010-)\260\265\201\234#r\320S\252;\350\337"
  44      082D29B0 
ARM GAS  /tmp/ccqPV6tK.s 			page 3


  44      B5819C23 
  44      72D053AA 
  44      3BE8DF
  45 0079 1D4CABB3 		.ascii	"\035L\253\263NW}9\016\332H\352)\2042\302:\375`\326u"
  45      4E577D39 
  45      0EDA48EA 
  45      298432C2 
  45      3AFD60D6 
  46 008e 421B2F47 		.ascii	"B\033/G\231\207\352\352m\365V\355\3368\316\242\215R"
  46      9987EAEA 
  46      6DF556ED 
  46      DE38CEA2 
  46      8D52
  47 00a0 40E6AFB4 		.ascii	"@\346\257\264\013\241\006\216s\274\222F\254r\035\033"
  47      0BA1068E 
  47      73BC9246 
  47      AC721D1B 
  48 00b0 35C94623 		.ascii	"5\311F#\243\353dB!\272\3000E\341\010E\"\312\221\001"
  48      A3EB6442 
  48      21BAC030 
  48      45E10845 
  48      22CA9101 
  49 00c4 253CC71C 		.ascii	"%<\307\034\304\010\221q2Z\202\220\036!&''\011\321Sd"
  49      C4089171 
  49      325A8290 
  49      1E212627 
  49      2709D153 
  50 00d9 42544187 		.ascii	"BTA\207]\032)\353]\003\267C\247H\226\307/\242d/\327"
  50      5D1A29EB 
  50      5D03B743 
  50      A74896C7 
  50      2FA2642F 
  51 00ee 50B8FE1E 		.ascii	"P\270\376\036:\257G\373\351\022\366Q\007\013\305)\234"
  51      3AAF47FB 
  51      E912F651 
  51      070BC529 
  51      9C
  52 00ff B4959A24 		.ascii	"\264\225\232$M\013\223\334\177d\330\367#h\036\011`\033"
  52      4D0B93DC 
  52      7F64D8F7 
  52      23681E09 
  52      601B
  53 0111 3ED51E73 		.ascii	">\325\036s\242et\3059\321F\003\200\325.\367\363\276"
  53      A26574C5 
  53      39D14603 
  53      80D52EF7 
  53      F3BE
  54 0123 9AFC558D 		.ascii	"\232\374U\215\211O\031\237\247\005\274\230\205)\346"
  54      894F199F 
  54      A705BC98 
  54      8529E6
  55 0132 C547BCF7 		.ascii	"\305G\274\367\235\017\341\023u\342z\240\364\241\260"
  55      9D0FE113 
  55      75E27AA0 
  55      F4A1B0
  56 0141 C543FF80 		.ascii	"\305C\377\200\242\026\327!h\331G\214\240@\"h\336\254"
  56      A216D721 
ARM GAS  /tmp/ccqPV6tK.s 			page 4


  56      68D9478C 
  56      A0402268 
  56      DEAC
  57 0153 D292C17D 		.ascii	"\322\222\301}#3\230\361D]\0062#\352D\031\305pN\3516"
  57      233398F1 
  57      445D0632 
  57      23EA4419 
  57      C5704EE9 
  58 0168 1173EBC6 		.ascii	"\021s\353\306\335R\206\215\223\336@/\243=\232\377\335"
  58      DD52868D 
  58      93DE402F 
  58      A33D9AFF 
  58      DD
  59 0179 A31CEA9B 		.ascii	"\243\034\352\233\356\036\237\241=\2700\202F\274\314"
  59      EE1E9FA1 
  59      3DB83082 
  59      46BCCC
  60 0188 222D9B9E 		.ascii	"\"-\233\236\214;\231Z\252\331[\225Z}\266Z\237\233/,"
  60      8C3B995A 
  60      AAD95B95 
  60      5A7DB65A 
  60      9F9B2F2C 
  61 019c E4CB10AA 		.ascii	"\344\313\020\2527J\215f=\332\260\253\225\315f#_\370"
  61      374A8D66 
  61      3DDAB0AB 
  61      95CD6623 
  61      5FF8
  62 01ae 061164A0 		.ascii	"\006\021d\240\373"
  62      FB
  63              		.text
  64              		.section	.gnu.lto_ms5607_init.75aa16ced05093bc,"",%progbits
  65 0000 789C6362 		.ascii	"x\234cb`b@\007\222@\034\300\310\300 \014\244\031\231"
  65      60624007 
  65      92401CC0 
  65      C8C0200C 
  65      A41999
  66 0013 19189926 		.ascii	"\031\030\231&\234c`h\344`bd\0041\030\030\031\352\231"
  66      9C636068 
  66      E4606264 
  66      04311818 
  66      19EA99
  67 0026 18EB2319 		.ascii	"\030\353#\031\301j\3273\035x\360\377\377\272)\255\227"
  67      C16AD733 
  67      1D78F0FF 
  67      FFBA29AD 
  67      97
  68 0037 58399918 		.ascii	"X9\231\030s\031\031X\200\004#\033\220\000\231\313\312"
  68      73191958 
  68      8004231B 
  68      900099CB 
  68      CA
  69 0048 D0D2D030 		.ascii	"\320\322\3200A\201\201!\031\254:\004H\202\214\010\005"
  69      41818121 
  69      19AC3A04 
  69      48828C08 
  69      05
  70 0059 4A0269E6 		.ascii	"J\002i\346\263\014M;~L\342Od\\\310\310\312\240\315\260"
ARM GAS  /tmp/ccqPV6tK.s 			page 5


  70      B30C4D3B 
  70      7E4CE24F 
  70      645CC8C8 
  70      CAA0CDB0 
  71 006d AA010878 		.ascii	"\252\001\010x3\031\031f3\314b\314ddLgd\212\000\322\020"
  71      33191966 
  71      33CC62CC 
  71      64644C67 
  71      648A00D2 
  72 0082 072641EC 		.ascii	"\007&A\354c\000\211\200\031@\315\247gL\346C\327\314"
  72      63008980 
  72      1940CDA7 
  72      674CE643 
  72      D7CC
  73 0094 8C5D3344 		.ascii	"\214]3DO:#\013D\343\216\313\030\032Y\260kd\202jd\003"
  73      4F3A230B 
  73      44E38ECB 
  73      181A59B0 
  73      6B64826A 
  74 00aa 6BDCF103 		.ascii	"k\334\361\003\246\021\250\272\261\241A \223\221\265"
  74      A611A8BA 
  74      B1A14120 
  74      9391B5
  75 00b9 9AE15743 		.ascii	"\232\341WC\007\210\305\226\013\014-\210\013\331\340"
  75      0788C596 
  75      0B0C2D88 
  75      0BD9E0
  76 00c8 6E65D700 		.ascii	"ne\327\0002.24>\270\311\005\321\010\022\344\200\005"
  76      322E3234 
  76      3EB8C905 
  76      D10812E4 
  76      8005
  77 00da 7508D061 		.ascii	"u\010\320a\300\220\000Y\"\350R\224Y\226ZT\254\237[l"
  77      C0900059 
  77      22E85294 
  77      59965A54 
  77      AC9F5B6C 
  78 00ee 6A6660AE 		.ascii	"jf`\256\227\314\000\000\264FP6"
  78      97CC0000 
  78      B4465036 
  79              		.text
  80              		.section	.gnu.lto_ms5607_stop.75aa16ced05093bc,"",%progbits
  81 0000 789C6362 		.ascii	"x\234cb`b@\007\222@<\013\210\205\201\230\221\231\201"
  81      60624007 
  81      92403C0B 
  81      88858198 
  81      919981
  82 0013 9169C239 		.ascii	"\221i\3029\006\206F\016&FF\020\203\201\221\241\236\211"
  82      0686460E 
  82      26464610 
  82      838191A1 
  82      9E89
  83 0025 B13E9211 		.ascii	"\261>\222\021\254v=\323\201\007\377\377\257\273\320"
  83      AC763DD3 
  83      8107FFFF 
  83      AFBBD0
  84 0034 7A8B8D85 		.ascii	"z\213\215\205\2111\027,\310\312\320\322\3200A\201\201"
ARM GAS  /tmp/ccqPV6tK.s 			page 6


  84      8931172C 
  84      C8CAD0D2 
  84      D0304181 
  84      81
  85 0045 2119CC0D 		.ascii	"!\031\314\015\001\222 \215\241\214L \232\371,C\323\216"
  85      0192208D 
  85      A18C4C20 
  85      9AF92C43 
  85      D38E
  86 0057 1DB3F813 		.ascii	"\035\263\370\023\031\0272\2622h3\254j\000\002\336LF"
  86      191732B2 
  86      326833AC 
  86      6A0002DE 
  86      4C46
  87 0069 86D90CB3 		.ascii	"\206\331\014\263\0303\031\031\323\031\231\"\2004\304"
  87      18331919 
  87      D3199922 
  87      8034C4
  88 0078 5949105B 		.ascii	"YI\020[\030@\"`\306E\206\306\007\257\270 zA\202\314"
  88      18402260 
  88      C64586C6 
  88      07AFB820 
  88      7A4182CC 
  89 008c 30478730 		.ascii	"0G\20702\202L\007i\023t)\312,K-*\326\317-6530\327Kf"
  89      32824C07 
  89      69137429 
  89      CA2C4B2D 
  89      2AD6CF2D 
  90 00a7 0000A77C 		.ascii	"\000\000\247|*\347"
  90      2AE7
  91              		.text
  92              		.section	.gnu.lto_ms5607_reset.75aa16ced05093bc,"",%progbits
  93 0000 789C5D51 		.ascii	"x\234]Q=K\003A\020}o\357\316\2734\242 \210 \"\332\253"
  93      3D4B0341 
  93      107D6FEF 
  93      CEBB34A2 
  93      20882022 
  94 0016 851FA585 		.ascii	"\205\037\245\205\376\204\010Z\206\030B\2124\211ha\221"
  94      FE84085A 
  94      8618428A 
  94      34896861 
  94      91
  95 0027 8928A492 		.ascii	"\211(\244\222\303\312h\025\362\003R\330XX\034\366*\366"
  95      C3CA6815 
  95      F20352D8 
  95      58581CF6 
  95      2AF6
  96 0039 42AEB7B6 		.ascii	"B\256\267\2660\205\347\254\253\207\272p3\267\354\373"
  96      3085E7AC 
  96      AB87BA70 
  96      33B7ECFB 
  97 0049 9A5D0383 		.ascii	"\232]\003\203\377kF\277.\201Y\355\364@\023?\002\355"
  97      FF6B46BF 
  97      2E8159ED 
  97      F440133F 
  97      02ED
  98 005b C890F607 		.ascii	"\310\220\366\007D\313\260\265G\013\345\002z\222\\\244"
ARM GAS  /tmp/ccqPV6tK.s 			page 7


  98      44CBB0B5 
  98      470BE502 
  98      7A925CA4 
  99 006b 67C3F369 		.ascii	"g\303\363iI%\226\217,c\215*:E\224\211]\3350\372j\206"
  99      4925968F 
  99      2C638D2A 
  99      3A459489 
  99      5DDD30FA 
 100 0081 7F5D0626 		.ascii	"\177]\006&I\263\354n\020o\026<\326\011\0375z\201\026"
 100      49B3EC6E 
 100      106F163C 
 100      D6091F35 
 100      7A8116
 101 0094 3FD41228 		.ascii	"?\324\022(\"\300\251H<_bOm`\345t\025\265\332\030;4\266"
 101      22C0A948 
 101      3C5F624F 
 101      6D60E574 
 101      15B5DA18 
 102 00ab 7B0F38B9 		.ascii	"{\0178\271\275\034\216\227\330W\216\203Z7\314)V\317"
 102      BD1C8E97 
 102      D8578E83 
 102      5A37CC29 
 102      56CF
 103 00bd 468B4095 		.ascii	"F\213@\225\3761F\"2\241\016\327\270j\213$o\357\012\032"
 103      FE314622 
 103      32A10ED7 
 103      B86A8B24 
 103      6FEF0A1A 
 104 00d1 ABD2B3E0 		.ascii	"\253\322\263\340\320\317S\345\224 \247\370J\261\212"
 104      D0CF53E5 
 104      9420A7F8 
 104      4AB18A
 105 00e0 3FE02807 		.ascii	"?\340(\007?\241+/\003:\357*CK\351XJT\246\233V\255s)"
 105      3FA12B2F 
 105      033AEF2A 
 105      434BE958 
 105      4A54A69B 
 106 00f8 39522D97 		.ascii	"9R-\227\3201\\PwI\376\367\016:{\301\306\270\1775\277"
 106      D0315C50 
 106      7749FEF7 
 106      0E3A7BC1 
 106      C6B87F35 
 107 010d 675AC58D 		.ascii	"gZ\305\215t\034\000\317h'An\352\242\024\325P\257\303"
 107      741C00CF 
 107      6827416E 
 107      EAA214D5 
 107      50AFC3
 108 0120 3EE6E476 		.ascii	">\346\344v\243vXi4\227\353\315\265\365\225\215\2452"
 108      A3765869 
 108      3497EBCD 
 108      B5F5958D 
 108      A532
 109 0132 A246A559 		.ascii	"\242F\245Y9\330\252\357\177\002\235\021g\365"
 109      39D8AAEF 
 109      7F029D11 
 109      67F5
 110              		.text
ARM GAS  /tmp/ccqPV6tK.s 			page 8


 111              		.section	.gnu.lto_ms5607_readPressure.75aa16ced05093bc,"",%progbits
 112 0000 789C6362 		.ascii	"x\234cb`b@\007\222@\034\015\304\302@\314\310\314\300"
 112      60624007 
 112      92401C0D 
 112      C4C240CC 
 112      C8CCC0
 113 0013 C834E11C 		.ascii	"\3104\341\034\003C#\007\023##\210\301\300\310P\317\304"
 113      03432307 
 113      13232388 
 113      C1C0C850 
 113      CFC4
 114 0025 581FC908 		.ascii	"X\037\311\010V\273\236\351\300\203\377\377\327\3158"
 114      56BB9EE9 
 114      C083FFFF 
 114      D7CD38
 115 0034 B6A09F91 		.ascii	"\266\240\237\221\021d\024+CKC\303\004\005\006\206d\260"
 115      1164142B 
 115      434B43C3 
 115      04050686 
 115      64B0
 116 0046 82102009 		.ascii	"\202\020 \011\322\025\012\224\004\322\314\027\031\032"
 116      D2150A94 
 116      04D2CC17 
 116      191A
 117 0054 1FF42D66 		.ascii	"\037\364-fLd\\\310\310\312\020\301\230\311\010\2675"
 117      4C645CC8 
 117      C8CA10C1 
 117      98C908B7 
 117      35
 118 0065 849111A4 		.ascii	"\204\221\021\244\002d\206\240KQfYjQ\261~n\261\251\231"
 118      026486A0 
 118      4B516659 
 118      6A51B17E 
 118      6EB1A999 
 119 0079 81B95E32 		.ascii	"\201\271^2\003\000z\313\037\027"
 119      03007ACB 
 119      1F17
 120              		.text
 121              		.section	.gnu.lto_ms5607_readTemperature.75aa16ced05093bc,"",%progbits
 122 0000 789C6362 		.ascii	"x\234cb`b@\007\222@\034\015\304\302@\314\310\314\300"
 122      60624007 
 122      92401C0D 
 122      C4C240CC 
 122      C8CCC0
 123 0013 C834E11C 		.ascii	"\3104\341\034\003C#\007\023##\210\301\300\310P\317\304"
 123      03432307 
 123      13232388 
 123      C1C0C850 
 123      CFC4
 124 0025 581FC908 		.ascii	"X\037\311\010V\273\236\351\300\203\377\377\327\355:"
 124      56BB9EE9 
 124      C083FFFF 
 124      D7ED3A
 125 0034 B6600523 		.ascii	"\266`\005##\310(V\206\226\206\206\011\012\014\014\311"
 125      23C82856 
 125      86968686 
 125      090A0C0C 
ARM GAS  /tmp/ccqPV6tK.s 			page 9


 125      C9
 126 0045 60052140 		.ascii	"`\005!@\022\244+\024(\011\244\231/24>\230\277\2301\221"
 126      12A42B14 
 126      2809A499 
 126      2F32343E 
 126      98BF9831 
 127 005a 7121232B 		.ascii	"q!#+C\004c&#\334\326\020FF\220\012\220\031\202.E\231"
 127      43046326 
 127      23DCD610 
 127      4646900A 
 127      9019822E 
 128 0070 65A945C5 		.ascii	"e\251E\305\372\271\305\246f\006\346z\311\014\000\224"
 128      FAB9C5A6 
 128      6606E67A 
 128      C90C0094 
 129 0080 031F63   		.ascii	"\003\037c"
 130              		.text
 131              		.section	.gnu.lto_ms5607_readPROMValues.75aa16ced05093bc,"",%progbits
 132 0000 789C6362 		.ascii	"x\234cb`b@\007\222@\034\015\304\302@\314\310\314\300"
 132      60624007 
 132      92401C0D 
 132      C4C240CC 
 132      C8CCC0
 133 0013 C834E11C 		.ascii	"\3104\341\034\003C#\007\023##\210\301\300\310P\317\304"
 133      03432307 
 133      13232388 
 133      C1C0C850 
 133      CFC4
 134 0025 581FC908 		.ascii	"X\037\311\010V\273\236\351\300\203\377\377\327\3359"
 134      56BB9EE9 
 134      C083FFFF 
 134      D7DD39
 135 0034 B6602723 		.ascii	"\266`'##\310(V\206\226\206\206\011\012\014\014\311`"
 135      23C82856 
 135      86968686 
 135      090A0C0C 
 135      C960
 136 0046 05214012 		.ascii	"\005!@\022\244+\024(\011\244\231/24>\330\261\2301\221"
 136      A42B1428 
 136      09A4992F 
 136      32343ED8 
 136      B1983191 
 137 005a 7121232B 		.ascii	"q!#+C\004c&#\334\326\020FF\220\012\220\031\202.E\231"
 137      43046326 
 137      23DCD610 
 137      4646900A 
 137      9019822E 
 138 0070 65A945C5 		.ascii	"e\251E\305\372\271\305\246f\006\346z\311\014\000\253"
 138      FAB9C5A6 
 138      6606E67A 
 138      C90C00AB 
 139 0080 EB1FAF   		.ascii	"\353\037\257"
 140              		.text
 141              		.section	.gnu.lto_.symbol_nodes.75aa16ced05093bc,"",%progbits
 142 0000 789C4DC8 		.ascii	"x\234M\310\261\021\202@\024\204\341}{\007\202MX\352"
 142      B1118240 
 142      1484E17D 
ARM GAS  /tmp/ccqPV6tK.s 			page 10


 142      7B07824D 
 142      58EA
 143 0012 DE80C0A9 		.ascii	"\336\200\300\251\211\015hb\033f\344\324\340\030S\203"
 143      890D6862 
 143      1B66E4D4 
 143      E0185383 
 144 0022 030C8CDC 		.ascii	"\003\014\214\334&\377|K\020ol\343\215\002\356\003 ="
 144      26FF7C4B 
 144      106F6CE3 
 144      8D02EE03 
 144      203D
 145 0034 A26581F0 		.ascii	"\242e\201\360r\254(\333\336g4\326\024\023\236)\227\260"
 145      72AC28DB 
 145      DE6734D6 
 145      14139E29 
 145      97B0
 146 0046 A17CC296 		.ascii	"\241|\302\226\312\022vT\276\323\256\324ae\010f\027\252"
 146      CA127654 
 146      BED3AED4 
 146      61650866 
 146      17AA
 147 0058 D815A9F2 		.ascii	"\330\025\251\362/\207#^\237\337\334\022u;\236\034\012"
 147      2F87235E 
 147      9FDFDC12 
 147      753B9E1C 
 147      0A
 148 0069 F44B3DF0 		.ascii	"\364K=\360\235\177LR\0307["
 148      9D7F4C52 
 148      18375B
 149              		.text
 150              		.section	.gnu.lto_.refs.75aa16ced05093bc,"",%progbits
 151 0000 789C6362 		.ascii	"x\234cb`b\340d\200\000F bdbdd\000\000\001\037\000\025"
 151      6062E064 
 151      80004620 
 151      62646264 
 151      64000001 
 152              		.text
 153              		.section	.gnu.lto_.decls.75aa16ced05093bc,"",%progbits
 154 0000 789CBD5C 		.ascii	"x\234\275\\yt\324F\232\327\321n\273msO\030\310\346\275"
 154      7974D446 
 154      9AD7D16E 
 154      BB6D734F 
 154      18C8E6BD 
 155 0014 78F64D66 		.ascii	"x\366Mfyy\023|@\200\314\354\020<6\014~\313\365l\223"
 155      7979137C 
 155      4080CCEC 
 155      103C360C 
 155      7ECBF56C 
 156 0029 853F763B 		.ascii	"\205?v;\242-p/n\267\243\226\301\354?#\314\221\220L\210"
 156      A22D702F 
 156      6EB7A396 
 156      C1EC3F23 
 156      CC91904C 
 157 003e B96F1B58 		.ascii	"\271o\033X`\201\015\011\306\231p$\220&!\234\023\216"
 157      60810D09 
 157      C6997024 
 157      9026219C 
ARM GAS  /tmp/ccqPV6tK.s 			page 11


 157      138E
 158 0050 10EECB90 		.ascii	"\020\356\313\220pL\256\301\220\004\302\345\375\352\223"
 158      704CAEC1 
 158      9004C2E5 
 158      FDEA93
 159 005f BA5592A5 		.ascii	"\272U\222\245n\311\223\335~\256R\251T\365\253\357\373"
 159      6EC993DD 
 159      7EAE52A9 
 159      54F5ABEF 
 159      FB
 160 0070 EAABEFAB 		.ascii	"\352\253\357\253C2\307p\314\030\216aZ\341\267c0\303"
 160      4332C770 
 160      CC188E61 
 160      5AE1B763 
 160      30C3
 161 0082 EC4B6318 		.ascii	"\354Kc\030\370c\006B\200lf\025\204\365\214\372K\207"
 161      F8630642 
 161      806C6615 
 161      84F58CFA 
 161      4B87
 162 0094 B0014267 		.ascii	"\260\001Bgx\220\013\3417\020\006A(\2020\022B\011\204"
 162      78900BE1 
 162      37100641 
 162      28823012 
 162      420984
 163 00a7 7F851084 		.ascii	"\177\205\020\204\300B\271\211\034c\370\221\272] D\340"
 163      C042B989 
 163      1C63F891 
 163      BA5D2044 
 163      E0
 164 00b8 6147B866 		.ascii	"aG\270fBH\205\260\211Q\313\363\020R \274\011!\004uK"
 164      424885B0 
 164      8951CBF3 
 164      105220BC 
 164      09210475 
 165 00cd 39BD7D11 		.ascii	"9\275}\021\322\225\020\302\020\306h\270\036\0153\250"
 165      D29510C2 
 165      10C668B8 
 165      1E0D33A8 
 166 00dd B54BDA27 		.ascii	"\265K\332'\264W\301\325\007\241\003\204T\010\031\020"
 166      B457C1D5 
 166      07A10384 
 166      54081910 
 167 00ed 7808295C 		.ascii	"x\010)\\[\232\010/>\270>\016\327\237A\350\306\251\364"
 167      5B9A082F 
 167      3EB83E0E 
 167      D79F41E8 
 167      C6A9F4
 168 0100 ACA2DA4C 		.ascii	"\254\242\332L\325h&\364\365\204\373\247 \374J\343\221"
 168      D56826F4 
 168      F584FBA7 
 168      20FC4AE3 
 168      91
 169 0111 D427743C 		.ascii	"\324't<\015\327_C\350m\321F\256V\206n\203\340\261\032"
 169      0DD75F43 
 169      E86DD146 
 169      AE56866E 
ARM GAS  /tmp/ccqPV6tK.s 			page 12


 169      83E0B11A 
 170 0125 1EAB9521 		.ascii	"\036\253\225!\327~\246\272D\306\351\032=1\231\275\251"
 170      D77EA6BA 
 170      44C6E91A 
 170      3D3199BD 
 170      A9
 171 0136 C9846010 		.ascii	"\311\204`\020Z\011\336K\0206ju8\255\336\006M\256\003"
 171      5A09DE4B 
 171      10366A75 
 171      38ADDE06 
 171      4DAE03
 172 0149 4D9883B4 		.ascii	"M\230\203\264\266H}F+3\310T\206\374\212,\312\025Y\224"
 172      B6487D46 
 172      2B33C854 
 172      86FC8A2C 
 172      CA155994 
 173 015d 1B69516E 		.ascii	"\033iQn\244E9\037\363\212\242\324*\315k\225\036\213"
 173      A445391F 
 173      F38AA2D4 
 173      2ACD6B95 
 173      1E8B
 174 016f 819731AC 		.ascii	"\201\2271\254\300v\364A\217\221D\246\017\253=\305\254"
 174      C076F441 
 174      8F9144A6 
 174      0FAB3DC5 
 174      AC
 175 0180 5194BAE6 		.ascii	"Q\224\272\346\217O>\246x\004v\025\353\003f\376\211e"
 175      8F4F3EA6 
 175      78047615 
 175      EB0366FE 
 175      8965
 176 0192 9E663628 		.ascii	"\236f6(\220\257(W~\336\026\326\005\356\205\226\335\274"
 176      90AF2857 
 176      7EDE16D6 
 176      05EE8596 
 176      DDBC
 177 01a4 A2A409EC 		.ascii	"\242\244\011\354ZD\236\3102\002\273\206}Z\303\021X\326"
 177      5A449EC8 
 177      3202BB86 
 177      7D5AC311 
 177      58D6
 178 01b6 47E3E27D 		.ascii	"G\343\342}\254\000\001\303\307Z\242\225e\\\225\315`"
 178      AC0001C3 
 178      C75AA295 
 178      655C95CD 
 178      60
 179 01c7 5E2544AE 		.ascii	"^%D\256\234\251\014\335\337QeM#4+F\250GCZ\317f\304`"
 179      9CA90CDD 
 179      DF51654D 
 179      23342B46 
 179      A847435A 
 180 01df 9F64EA95 		.ascii	"\237d\352\225\350\315\346s//\350\261\244.:]im\375#\323"
 180      E8CDE673 
 180      2F2FE8B1 
 180      A42E3A5D 
 180      696DFD23 
 181 01f4 9D5900C2 		.ascii	"\235Y\000\302 H\012+\013\254\307\036h#\333\035S<\252"
ARM GAS  /tmp/ccqPV6tK.s 			page 13


 181      20480A2B 
 181      0BACC71E 
 181      6823DB1D 
 181      533CAA
 182 0207 849104C3 		.ascii	"\204\221\004\303MWf\016\201\314\332\257\213/\312\307"
 182      4D57660E 
 182      81CCDAAF 
 182      8B2FCAC7 
 183 0217 D006E8F2 		.ascii	"\320\006\350\362k8xb\035;\015\332\025\330\267\330\256"
 183      6B387862 
 183      1D3B0DDA 
 183      15D8B7D8 
 183      AE
 184 0228 80FA17D6 		.ascii	"\200\372\027\326(\302\244@\002\273\231\345 n\204\352"
 184      28C2A440 
 184      02BB99E5 
 184      206E84EA 
 185 0238 6A458456 		.ascii	"jE\204V\242-K3I\227\223|\306\000i\370\375\202Y\011T"
 185      A22D4B33 
 185      4997937C 
 185      C60069F8 
 185      FD825909 
 186 024d 477F3C5B 		.ascii	"G\177<[\377s\2459\312\24623\261\347g\324&\355\371\303"
 186      FF73A539 
 186      CAA63233 
 186      B1E767D4 
 186      26EDF9C3 
 187 0261 A772B1E7 		.ascii	"\247r\261\347\337\201J\0343\2133\322\355\000\210P\265"
 187      DF814A1C 
 187      338B33D2 
 187      ED008850 
 187      B5
 188 0272 152A1BA8 		.ascii	"\025*\033\250>6\263\023\241\232\344'\240\032\345\317"
 188      3E36B313 
 188      A19AE427 
 188      A01AE5CF 
 189 0282 31F3A151 		.ascii	"1\363\241Q\002\350\361\351y\015z\036K\025]\257gsT\366"
 189      02E8F1E9 
 189      790D7A1E 
 189      4B155DAF 
 189      677354F6 
 190 0296 163D9BA7 		.ascii	"\026=\233\247\262\243z\266\207\312>\254g\247h\224$\325"
 190      B2A37AB6 
 190      87CA3EAC 
 190      67A76894 
 190      24D5
 191 02a8 629D4381 		.ascii	"b\235C\201\335\306>\005\361v\226\267\254\3061gP\210"
 191      DDC63E05 
 191      F17696B7 
 191      ACC63167 
 191      5088
 192 02ba A4C7ACE4 		.ascii	"\244\307\254\344\245%\365v;\306\007\227\332\213\315"
 192      A525F576 
 192      3BC60797 
 192      DA8BCD
 193 02c9 0DAF7E71 		.ascii	"\015\257~q\215\2357M\331\237c\245\214P\204\245\324\350"
 193      8D9D374D 
ARM GAS  /tmp/ccqPV6tK.s 			page 14


 193      D99F63A5 
 193      8C5084A5 
 193      D4E8
 194 02db C5186066 		.ascii	"\305\030`f\274S\243;\317\262Y\026\032g(*\260\007\200"
 194      BC53A33B 
 194      CFB25916 
 194      1A67282A 
 194      B00780
 195 02ee 8D64A548 		.ascii	"\215d\245H\271Cf\225\\q\026U\362\220#\225l<\273\300"
 195      B9436695 
 195      5C711655 
 195      F2902395 
 195      6C3CBBC0 
 196 0302 9D4A465B 		.ascii	"\235JF[N\261Y\002{\030\365\361R\373\364\361\230Y\037"
 196      4EB15902 
 196      7B18F5F1 
 196      52FBF4F1 
 196      98591F
 197 0315 CF2C427D 		.ascii	"\317,B}<\346H\037\277\242uO\313\373\301Z\361^\345\215"
 197      3CE6481F 
 197      BFA2754F 
 197      CBFBC15A 
 197      F15EE58D 
 198 0329 8AE74495 		.ascii	"\212\347D\225\216Q\252\364)\252\322q[UZ\316\263Z\017"
 198      8E51AAF4 
 198      29AAD271 
 198      5B555ACE 
 198      B35A0F
 199 033c B44B95A2 		.ascii	"\264K\225\242Mg\027\364TV~\310j\256@U\244xY\203a\214"
 199      4D6717F4 
 199      54567EC8 
 199      6AAE4055 
 199      A4785983 
 200 0352 B9982BCD 		.ascii	"\271\230+\315\034\032\204s\350\012\326\360\306\016p"
 200      1C1A8473 
 200      E80AD6F0 
 200      C60E70
 201 0361 0E74E1F2 		.ascii	"\016t\341\362!\325\247\\D\240M\274\331\251\244\232\234"
 201      21D5A75C 
 201      44A04DBC 
 201      D9A9A49A 
 201      9C
 202 0372 4AAAD151 		.ascii	"J\252\321Q\244\372\364\004\231\205ub\334\026\347\230"
 202      A4FAF404 
 202      99857562 
 202      DC16E798 
 203 0382 6D66F119 		.ascii	"mf\361\031\010\265\022_\026->\030\211\207\337eo\325"
 203      08B5125F 
 203      162D3E18 
 203      8987DF65 
 203      6FD5
 204 0394 2A8B739C 		.ascii	"*\213s\234\253\357\274\263D}?G\365\335\303\267K}\257"
 204      ABEFBCB3 
 204      447D3F47 
 204      F5DDC3B7 
 204      4B7DAF
 205 03a7 99D5F7BE 		.ascii	"\231\325\367\276\252\276\327\034\251\357q\276\255\372"
ARM GAS  /tmp/ccqPV6tK.s 			page 15


 205      AABED71C 
 205      A9EF71BE 
 205      ADFA
 206 03b5 5EE12DD5 		.ascii	"^\341-\325\367\273v\250\3575J}\257\243\372\336\260U"
 206      F7BB76A8 
 206      EF354A7D 
 206      AFA3FADE 
 206      B055
 207 03c7 DF591E07 		.ascii	"\337Y\036\007\352\233f\241\276T{jK\177\301\226>a\177"
 207      EA9B66A1 
 207      BE547B6A 
 207      4B7FC196 
 207      3E617F
 208 03da 01F1598C 		.ascii	"\001\361Y\214\257@\034\377\201\023\361\230\365K\265"
 208      AF401CFF 
 208      8113F198 
 208      F54BB5
 209 03e9 4F14926E 		.ascii	"O\024\222n\310\230DXv\263\206}\372\364\203c\352=&\033"
 209      C8984458 
 209      76B3867D 
 209      FAF48363 
 209      EA3D261B 
 210 03fd EF4EB3A2 		.ascii	"\357N\263\242K\316\325\273\033\230\321\017\026\341\334"
 210      4BCED5BB 
 210      1B98D10F 
 210      16E1DC
 211 040c EF168EA6 		.ascii	"\357\026\216\246\265m\270=g\236\2439\031\037\233\235"
 211      B56DB83D 
 211      679EA339 
 211      191F9B9D 
 212 041c 7061D53F 		.ascii	"pa\325?\310\205\022m:W\317\022.,\334\210\302\306\352"
 212      C885126D 
 212      3A57CF12 
 212      2E2CDC88 
 212      C2C6EA
 213 042f 778EF3D0 		.ascii	"w\216\363\320|\351\363\033\327\330Z\234'\335\301y\322"
 213      7CE9F31B 
 213      D7D85A9C 
 213      27DDC179 
 213      D2
 214 0440 579EA4F3 		.ascii	"W\236\244\363$#\020\307\334\306*\367\314N\351{!K\315"
 214      242310C7 
 214      DCC62AF7 
 214      CC4EE97B 
 214      214BCD
 215 0453 4DE69294 		.ascii	"M\346\222\224\350\235\253>en\246ES\203h\2265\222o_o"
 215      E89DAB3E 
 215      656EA645 
 215      53836896 
 215      35926F5F 
 216 0468 EE794051 		.ascii	"\356y@Q:\013\354#\244xK\212%\305+\007\331\341p\314\207"
 216      3A0BEC23 
 216      A4784B8A 
 216      25C52B07 
 216      D9E170CC 
 217 047d 58652A67 		.ascii	"Xe*g\244\270\371\324\267\373\037_\214\310\344QrOzb\346"
 217      A4B8F9D4 
ARM GAS  /tmp/ccqPV6tK.s 			page 16


 217      B7FB1F5F 
 217      8CC8E451 
 217      724F7A62 
 218 0492 0A549964 		.ascii	"\012T\231d3\324\225\236X\363\205:\033\267\256G{\240"
 218      33D4959E 
 218      58F3853A 
 218      1BB7AE47 
 218      7BA0
 219 04a4 359EC911 		.ascii	"5\236\311\021.^\361&\225\273\021\206c\346`\225Ym\271"
 219      2E5EF126 
 219      95BB1186 
 219      63E66095 
 219      596DB9
 220 04b7 68FE0795 		.ascii	"h\376\007\225\213Y\216\270\270\257q!\2603\270\014\200"
 220      8B598EB8 
 220      B8AF7121 
 220      B033B80C 
 220      80
 221 04c8 5D168775 		.ascii	"]\026\207u:\220\214x\217\366f\326\0111\260\325\256\301"
 221      3A908C78 
 221      8FF666D6 
 221      0931B0D5 
 221      AEC1
 222 04da B20C60F3 		.ascii	"\262\014`\363\366-w\351.\233n\337\350\271\023\331\237"
 222      F62D77E9 
 222      2E9B6EDF 
 222      E8B913D9 
 222      9F
 223 04eb C3918179 		.ascii	"\303\221\201y\313\373\223\014\314{N\030\261\037\230"
 223      CBFB930C 
 223      CC7B4E18 
 223      B11F98
 224 04fa D02B479F 		.ascii	"\320+G\237\330\276EQfyc\372\351\265c\204c\246\246\222"
 224      D8BE4551 
 224      667963FA 
 224      E9B56384 
 224      63A6A692 
 225 050e C6169A7B 		.ascii	"\306\026\232{\266\351\336\321g\324\236]\350\250g\267"
 225      B6E9DED1 
 225      67D49E5D 
 225      E8A867B7 
 226 051e 1E5AE44C 		.ascii	"\036Z\344L?\275\261\346\313\260\371\217\260\371e\346"
 226      3FBDB1E6 
 226      CBB0F98F 
 226      B0F965E6 
 227 052e E63F7874 		.ascii	"\346?xtc\240\332\3742G\315_:2\277m\363\002;\360\261"
 227      63A0DAFC 
 227      3247CD5F 
 227      3A32BF6D 
 227      F3023BF0 
 228 0543 84DD77EF 		.ascii	"\204\335w\357f\257\006l\244\001\025\350\3654s\367=\237"
 228      66AF066C 
 228      A40115E8 
 228      F53473F7 
 228      3D9F
 229 0555 41B785F7 		.ascii	"A\267\205\367T\001\216Y\230\026\243\276]\372\013lF\237"
 229      54018E59 
ARM GAS  /tmp/ccqPV6tK.s 			page 17


 229      9816A3BE 
 229      5DFA0B6C 
 229      469F
 230 0567 DF803D15 		.ascii	"\337\200=\025\243a\251kD\243\022\337:\202#B\005\253"
 230      A361A96B 
 230      44A312DF 
 230      3A822342 
 230      05AB
 231 0579 770266AB 		.ascii	"w\002f\253H\265\321\357h\260\325\256\301\214\224\375"
 231      48B5D1EF 
 231      68B0D5AE 
 231      C18C94FD 
 232 0589 4083AD73 		.ascii	"@\203\255s\002\326\331\236\262\2734\330F\327`F\312\356"
 232      02D6D99E 
 232      B2BB34D8 
 232      46D76046 
 232      CAEE
 233 059b D1606F39 		.ascii	"\321`o9\001\353aO\331\003\032l\213k0#e\217h\260w\235"
 233      01EB614F 
 233      D9031A6C 
 233      8B6B3023 
 233      658F68B0 
 234 05b1 8065D953 		.ascii	"\200e\331SV\367)\005\266\3035\230\221\262\2714\330."
 234      56F72905 
 234      B6C33598 
 234      91B2B934 
 234      D82E
 235 05c3 2760BDEC 		.ascii	"'`\275\354)\233O\203}\350\032\314H\331B\032l\257\023"
 235      299B4F83 
 235      7DE81ACC 
 235      48D9421A 
 235      6CAF13
 236 05d6 B01C7BCA 		.ascii	"\260\034{\312\026\323`\007]\203\031)[J\203\035v\002"
 236      16D36007 
 236      5D831929 
 236      5B4A831D 
 236      7602
 237 05e8 36C09EB2 		.ascii	"6\300\236\262\3454\330\247\256\301\214\224m\246\301"
 237      E534D8A7 
 237      AEC18C94 
 237      6DA6C1
 238 05f7 4E3A011B 		.ascii	"N:\001\033dO\331\026\032\354\214k0#e\357\320`\347\235"
 238      644FD916 
 238      1AEC8C6B 
 238      302365EF 
 238      D060E79D 
 239 060b 800DB5A7 		.ascii	"\200\015\265\247\354]\032\354\222k0#e\333h\260+N\300"
 239      EC5D1AEC 
 239      926B3023 
 239      65DB68B0 
 239      2B4EC0
 240 061e 46D953B6 		.ascii	"F\331S\266\203\006\273\352\032\314H\331\3734\330\015"
 240      8306BBEA 
 240      1ACC48D9 
 240      FB34D80D 
 241 062e 276063EC 		.ascii	"'`c\354)\333E\203}\355\032\314H\331Q\032\354\246\023"
 241      29DB4583 
ARM GAS  /tmp/ccqPV6tK.s 			page 18


 241      7DED1ACC 
 241      48D9511A 
 241      ECA613
 242 0641 B0172D28 		.ascii	"\260\027-(\213\377\254\352\0217\275\224\243\026k\267"
 242      8BFFACEA 
 242      1137BD94 
 242      A3166BB7 
 243 0651 D362131C 		.ascii	"\323b\023\034\227>\232\3211\356\244\271\235\221\031"
 243      973E9AD1 
 243      31EEA4B9 
 243      9D9119
 244 0660 F826F3E4 		.ascii	"\370&\363\344'vh~^\235\254>t\202\230\300\001.\335G\315"
 244      2776687E 
 244      5E9DAC3E 
 244      748298C0 
 244      012EDD47 
 245 0675 7C67F8DC 		.ascii	"|g\370\334\202\231T\231\200\031\246N\361\323\203h\342"
 245      82995499 
 245      8019A64E 
 245      F1D38368 
 245      E2
 246 0686 1D0F72FC 		.ascii	"\035\017r\374\300QG\015=\254\313\012\354y\216,\341/"
 246      C051470D 
 246      3DACCB0A 
 246      EC798E2C 
 246      E12F
 247 0698 70BE3815 		.ascii	"p\2768\025j:\226R\267\014^\367\0317\034\342\277dU\355"
 247      6A3A9652 
 247      B70C5EF7 
 247      19371CE2 
 247      BF6455ED 
 248 06ac 34E12CAD 		.ascii	"4\341,\255\011s\235\210)\201k\277\264o9\356f:?Zi\272"
 248      09739D88 
 248      29816BBF 
 248      B46F39EE 
 248      663A3F5A 
 249 06c2 7D545B20 		.ascii	"}T[ \\\306\005\302\022\237y\206\271\312\345\351\012"
 249      5CC605C2 
 249      129F7986 
 249      B9CAE5E9 
 249      0A
 250 06d3 CCC3CC5C 		.ascii	"\314\303\314\\Xm\253\330\317)@\027O?\271\375-E\231\346"
 250      586DABD8 
 250      CF294017 
 250      4F3FB9FD 
 250      2D4599E6 
 251 06e7 75C3C77E 		.ascii	"u\303\307~\215\217k\310\307\306\237\200\217-\256\371"
 251      8D8F6BC8 
 251      C7C69F80 
 251      8F2DAEF9 
 252 06f7 E865E223 		.ascii	"\350e\342#\332\313=\037\2475>\276B>v\374\004||\350\232"
 252      DACB3D1F 
 252      A7353EBE 
 252      423E76FC 
 252      047C7CE8 
 253 070c 8F1C8A0F 		.ascii	"\217\034\212\017\\\255\365VWk\335\230\271\211Wk\204"
 253      5CADF556 
ARM GAS  /tmp/ccqPV6tK.s 			page 19


 253      576BDD98 
 253      B989576B 
 253      84
 254 071d 9E9B5C37 		.ascii	"\236\233\\7\323\356\366A\262\345H\262\035l~\034\244"
 254      D3EEF641 
 254      B2E548B2 
 254      1D6C7E1C 
 254      A4
 255 072e 96B88AB3 		.ascii	"\226\270\212\263%\356MMb\267Qb\007L\022s\216\264\366"
 255      25EE4D4D 
 255      62B75162 
 255      074C1273 
 255      8EB4F6
 256 0741 CA69756F 		.ascii	"\312iuo\371\007\004:\322n\240\013;?R\367\226\177D\240"
 256      F907043A 
 256      D26EA00B 
 256      3B3F52F7 
 256      967F44A0 
 257 0755 536DFAD0 		.ascii	"Sm\372\320k\352B\257\261\013\341\226\264t\227\254\267"
 257      6BEA42AF 
 257      B10BE196 
 257      B47497AC 
 257      B7
 258 0766 D93F6A39 		.ascii	"\331?j9\344&\225\371\177\257\3071\227\221|\322}.\335"
 258      E42695F9 
 258      7FAFC731 
 258      97917CD2 
 258      7D2EDD
 259 0779 93AE3EBF 		.ascii	"\223\256>\277\336\256\271\026\265\213n\374]\210\265"
 259      DEAEB916 
 259      B58B6EFC 
 259      5D88B5
 260 0788 D1A6D762 		.ascii	"\321\246\327b\2334\317\023\347\322\362w\302\035;\344"
 260      9B34CF13 
 260      E7D2F277 
 260      C21D3BE4 
 261 0798 7E5B25FA 		.ascii	"~[%\372\270\252s\265<a\350n\233\036n\327\266\312\364"
 261      B8AA73B5 
 261      3C61E86E 
 261      9B1E6ED7 
 261      B6CAF4
 262 07ab F4763212 		.ascii	"\364v2\022\377q\314k\351\016\\HV\242\336\272\333\333"
 262      FF71CC6B 
 262      E90E5C48 
 262      56A2DEBA 
 262      DBDB
 263 07bd E1D64C7C 		.ascii	"\341\326L|\013\362F\217\375(\214Wx\262y\367F\272\365"
 263      0BF2468F 
 263      FD288C57 
 263      78B279F7 
 263      46BAF5
 264 07d0 1664822D 		.ascii	"\026d\202-\236z\254\362\032\337f\363\356hOu\217\205"
 264      9E7AACF2 
 264      1ADF66F3 
 264      EE684F75 
 264      8F85
 265 07e2 3C72B0C5 		.ascii	"<r\260\305c\330\274\023\330\3279N\203m\257<\015]\250"
ARM GAS  /tmp/ccqPV6tK.s 			page 20


 265      63D8BC13 
 265      D8D7394E 
 265      836DAF3C 
 265      0D5DA8
 266 07f5 D307D03C 		.ascii	"\323\007\320<\231-\314\346\015\233\374o\271\226}\026"
 266      992DCCE6 
 266      0D9BFC6F 
 266      B9967D16 
 267 0805 2DFBE8FD 		.ascii	"-\373\350\375C\313Y\225~u3w\233\031o\020=\223\323\222"
 267      43CB5995 
 267      7E753377 
 267      9B196F10 
 267      3D93D392 
 268 0819 B6AB5625 		.ascii	"\266\253V%:\3670N\301\324A\367\221\023\342\022,4\353"
 268      3AF7304E 
 268      C1D441F7 
 268      9113E212 
 268      2C34EB
 269 082c 553055E1 		.ascii	"U0U\341\017\270\006\3132\200\355\234m\261Y\254n\220"
 269      0FB806CB 
 269      3280ED9C 
 269      6DB159AC 
 269      6E90
 270 083e DBB99545 		.ascii	"\333\271\225E<5Q\372\314I\373\011\326\246'\016/\327"
 270      3C3551FA 
 270      CC49FB09 
 270      D6A6270E 
 270      2FD7
 271 0850 3445DD17 		.ascii	"4E\335\027\275\350\032\317\310O\313l\203E\372\253\023"
 271      BDE81ACF 
 271      C84FCB6C 
 271      8345FAAB 
 271      13
 272 0861 B8418E15 		.ascii	"\270A\216\025O\337\325\006%\304i\352\2378r.4\033\343"
 272      4FDFD506 
 272      25C469EA 
 272      9F38722E 
 272      341BE3
 273 0874 3A8C1760 		.ascii	":\214\027`|\002\343S\030\237\301\270\031\343\253\030"
 273      7C02E353 
 273      189FC1B8 
 273      19E3AB18 
 274 0884 7F89F1DF 		.ascii	"\177\211\361\3370~\231\307\272\030\317\305x>\306\013"
 274      307E99C7 
 274      BA18CFC5 
 274      783EC60B 
 275 0894 315E82F1 		.ascii	"1^\202\3612Z\275\355\372E\035j\361\201\031\033uS\333"
 275      325ABDED 
 275      FA451D6A 
 275      F181191B 
 275      7553DB
 276 08a7 BD657E52 		.ascii	"\275e~R\3372\027\3307\\\203e%\222\344TJ\222\323P\222"
 276      DF3217D8 
 276      375C8365 
 276      2592E454 
 276      4A92D350 
 277 08bc D3511A2B 		.ascii	"\323Q\032+\214\003\271%=v\210\223`\340\331\263\320|"
ARM GAS  /tmp/ccqPV6tK.s 			page 21


 277      8C03B925 
 277      3D768893 
 277      60E0D9B3 
 277      D07C
 278 08ce F1F31BA9 		.ascii	"\361\363\033\251K\224\350t>\266\376\371\321\014\230"
 278      4B94E874 
 278      3EB6FEF9 
 278      D10C98
 279 08dd 74796694 		.ascii	"tyf\224\311#\321\364\266\205zBe\327'\253\351\26125\303"
 279      C923D1F4 
 279      B6857A42 
 279      65D727AB 
 279      E9B13235 
 280 08f2 6DDB0945 		.ascii	"m\333\011E\250\037m\011\354\003<\366|\210\207\224\015"
 280      A81F6D09 
 280      EC033CF6 
 280      7C888794 
 280      0D
 281 0903 A832AB68 		.ascii	"\2502\253hA\012\354\375\370[C\032\264\361\270,A\343"
 281      410AECFD 
 281      F85B431A 
 281      B4F1B82C 
 281      41E3
 282 0915 F123EEEF 		.ascii	"\361#\356\357OZ\274l\242\036\024%pJ\215;\316<\361&\272"
 282      4F5ABC6C 
 282      A21E1425 
 282      704A8D3B 
 282      CE3CF126 
 283 092a 8EB53CE9 		.ascii	"\216\265<\351\200h\206\331C\317\340L[\347&E\346\230"
 283      806886D9 
 283      43CFE04C 
 283      5BE72645 
 283      E698
 284 093c E3190E8E 		.ascii	"\343\031\016\216\037\023\254c\032^\275s\222\2356MY\237"
 284      1F13AC63 
 284      1A5EBD73 
 284      929D364D 
 284      599F
 285 094e A3CD2C94 		.ascii	"\243\315,\224\231J\257\365\272\023\354\034\303\340\342"
 285      994AAFF5 
 285      BA13EC1C 
 285      C3E0E2
 286 095d 7447FFAC 		.ascii	"tG\377\254\036\243nD+{\326D\264c\230\346\217\227u'0"
 286      1EA36E44 
 286      2B7BD644 
 286      B46398E6 
 286      8F977527 
 287 0972 9B10E68B 		.ascii	"\233\020\346\213v\303\\\330~P\235\310nF\240o\332\010"
 287      76C35CD8 
 287      7E509DC8 
 287      6E46A06F 
 287      DA08
 288 0984 9137CD72 		.ascii	"\2217\315rx\343,\207\367\351\211\326V\236\371?,\014"
 288      78E32C87 
 288      F7E989D6 
 288      569EF93F 
 288      2C0C
ARM GAS  /tmp/ccqPV6tK.s 			page 22


 289 0996 93307377 		.ascii	"\2230sw\0318J6\363!\335\365PS\265\330\333%\017\235("
 289      19384A36 
 289      F321DDF5 
 289      5053B5D8 
 289      DB250F9D 
 290 09ab 8001D1A0 		.ascii	"\200\001\321\240\000\321\007\347\320\222\251`/g:\000"
 290      00D107E7 
 290      D092A960 
 290      2F673A00 
 291 09bb 4BB005BD 		.ascii	"K\260\005\275\240\276\301\366\374je\322\227\256\232"
 291      A0BEC1F6 
 291      FC6A65D2 
 291      97AE9A
 292 09ca 8F5F39F0 		.ascii	"\217_9\360\317\344\025\300\344/^\275\307;{\361j'o>\343"
 292      CFE415C0 
 292      E42F5EBD 
 292      C73B7BF1 
 292      6A276F3E 
 293 09df 3E8C2F5E 		.ascii	">\214/^\355t4W\273c5\003\260z\0171n0z\350\314\264\\"
 293      ED743457 
 293      BB633503 
 293      B07A0F31 
 293      6E307AE8 
 294 09f6 3B30507D 		.ascii	";0P}\237q7N9\347wH\376>\243\001\207\320\267\307L\177"
 294      9F71374E 
 294      39E77748 
 294      FE3EA301 
 294      87D0B7C7 
 295 0a0c D311A47F 		.ascii	"\323\021\244\177Or\372\247O\213n\325\316\363p0MK\270"
 295      4F72FAA7 
 295      4F8B6ED5 
 295      CEF37030 
 295      4D4BB8
 296 0a1f 6810D8F3 		.ascii	"h\020\330\363h'\235,\001\376\0339\331\343~\312\252\221"
 296      68279D2C 
 296      01FE1B39 
 296      D9E37ECA 
 296      AA91
 297 0a31 B54D3D8F 		.ascii	"\265M=\217\331\207\343u\243k\260,\003\330\016\032\354"
 297      D987E375 
 297      A36BB02C 
 297      03D80E1A 
 297      EC
 298 0a42 6D276076 		.ascii	"m'`v.\014\300\336\247\301\232\\\203\031)\333E\203ms"
 298      2E0CC0DE 
 298      A7C19A5C 
 298      831929DB 
 298      45836D73 
 299 0a56 0266B753 		.ascii	"\002f\267S\011`Gi\260\235\256\301\262\254\264\204i\243"
 299      09604769 
 299      B09DAEC1 
 299      B2ACB484 
 299      69A3
 300 0a68 6402FB31 		.ascii	"d\002\3731\256\031\366\242\237<\200\361!\214?\301\370"
 300      AE19F6A2 
 300      9F3C80F1 
 300      218C3FC1 
ARM GAS  /tmp/ccqPV6tK.s 			page 23


 300      F8
 301 0a79 08C6C79C 		.ascii	"\010\306\307\234L\271\242\264{\337\215\004\357l\237"
 301      4CB9A2B4 
 301      7BDF8D04 
 301      EF6C9F
 302 0a88 C680D93B 		.ascii	"\306\200\331;~\345\362o\325\235_\223\207%\362\260\243"
 302      7EE5F26F 
 302      D59D5F93 
 302      8725F2B0 
 302      A3
 303 0a99 E0044DC1 		.ascii	"\340\004M\301~\327\024d\321\024D\357\037Vw-co\216\177"
 303      7ED71464 
 303      D11444EF 
 303      1F56772D 
 303      636F8E7F 
 304 0aad 62C673FA 		.ascii	"b\306s\372ZVl\262t8c\363\2131\260\317\\\203\245\031"
 304      5A566CB2 
 304      743863F3 
 304      8B31B0CF 
 304      5C83A519 
 305 0ac1 C0EA8E50 		.ascii	"\300\352\216P`\027]\203un\243\021\252.\354B]\370\000"
 305      60175D83 
 305      756EA311 
 305      AA2EEC42 
 305      5DF800
 306 0ad4 FBFC338C 		.ascii	"\373\3743\214Oa|\006\343s\306\351\350\325\016f\277\253"
 306      4F617C06 
 306      E373C6E9 
 306      E8D50E66 
 306      BFAB
 307 0ae6 DA580A55 		.ascii	"\332X\012U7\306\214S\\\273\276\335N\367\355\335\016"
 307      37C68C53 
 307      5CBBBEDD 
 307      4EF7EDDD 
 307      0E
 308 0af7 6EBD96A1 		.ascii	"n\275\226\241o\301\251\356\273\036s\252\333q&\366\310"
 308      6FC1A9EE 
 308      BB1E73AA 
 308      DB7126F6 
 308      C8
 309 0b08 09628275 		.ascii	"\011b\202u\350;\027\315G\001V\326\236\243i\213{\215"
 309      E83B17CD 
 309      470156D6 
 309      9EA3698B 
 309      7B8D
 310 0b1a DD6355AF 		.ascii	"\335cU\257\3619z\215\351\035\223{\015\316\310\243\300"
 310      F1397A8D 
 310      E91D937B 
 310      0DCEC8A3 
 310      C0
 311 0b2b 5E337B8D 		.ascii	"^3{\215\037\217\243\327\270\346\310k<<>_['\252\326\246"
 311      1F8FA3D7 
 311      B8E6C86B 
 311      3C3C3E5F 
 311      5B27AAD6 
 312 0b40 0E49B8D6 		.ascii	"\016I\270\326ns\377\3508e\272\346\273\006\3132\200\325"
 312      6E73FFE8 
ARM GAS  /tmp/ccqPV6tK.s 			page 24


 312      3865BAE6 
 312      BB06CB32 
 312      80D5
 313 0b52 9DA4C016 		.ascii	"\235\244\300\026;\001K`\356\347\322`+\\\203\031)\233"
 313      3B014B60 
 313      EEE7D260 
 313      2B5C8319 
 313      299B
 314 0b64 4F83AD76 		.ascii	"O\203\255v\002\226\300\334/\244\301\326\272\0063R\266"
 314      0296C0DC 
 314      2FA4C1D6 
 314      BA063352 
 314      B6
 315 0b75 9806DBE0 		.ascii	"\230\006\333\340\004\314\356\370\006\300\226\322`\233"
 315      04CCEEF8 
 315      06C096D2 
 315      609B
 316 0b83 5C831929 		.ascii	"\\\203\031)[N\2035:\001\313\262\247\254\236\006\333"
 316      5B4E8335 
 316      3A01CBB2 
 316      A7AC9E06 
 316      DB
 317 0b94 EA1A2CCB 		.ascii	"\352\032,\313jH\250?zD\011\354u4\2137\320X}\211\361"
 317      6A48A83F 
 317      7A4409EC 
 317      75348B37 
 317      D0587D89 
 318 0ba9 D7187F8B 		.ascii	"\327\030\177\213\361M\214oa\374\035\306?`|\027\343{"
 318      F14D8C6F 
 318      61FC1DC6 
 318      3F607C17 
 318      E37B
 319 0bbb 4E8CDB15 		.ascii	"N\214\333\025\332\270\275\337\321\255)J\310H#\2652\336"
 319      DAB8BDDF 
 319      D1AD294A 
 319      C84823B5 
 319      32DE
 320 0bcd 8233BE26 		.ascii	"\2023\276&\\\031\357\305\270\005\343\0370^\203\004o"
 320      5C19EFC5 
 320      B805E31F 
 320      305E8304 
 320      6F
 321 0bde C0F81D8C 		.ascii	"\300\370\035\214\337\305x\033\306\2270\276\354\204\235"
 321      DFC5781B 
 321      C69730BE 
 321      EC849D
 322 0bed 4DFA4BBF 		.ascii	"M\372K\277vE\336\324\213h\037\024\305?U\262\275\327"
 322      7645DED4 
 322      8B681F14 
 322      C53F55B2 
 322      BDD7
 323 0bff CE98923D 		.ascii	"\316\230\222=\027\330\321\3722\015\326\330&{\372K\346"
 323      17D8D1FA 
 323      320DD6D8 
 323      267BFA4B 
 323      E6
 324 0c10 BF1465EE 		.ascii	"\277\024e\356\346\2313\352X\225\014\2169\205E6\260O"
ARM GAS  /tmp/ccqPV6tK.s 			page 25


 324      E69933EA 
 324      58950C8E 
 324      39854536 
 324      B04F
 325 0c22 DA4C9491 		.ascii	"\332L\224\221XC\275\365X\357b\222z\353\365z\344\253"
 325      5843BDF5 
 325      58EF6292 
 325      7AEBF57A 
 325      E4AB
 326 0c34 AB7F5FA2 		.ascii	"\253\177_\242D=\261\272W\235\327U\356\374[\217\230\257"
 326      443DB1BA 
 326      579DD755 
 326      EEFC5B8F 
 326      98AF
 327 0c46 FFABB99A 		.ascii	"\377\253\271\232\351\274\030e\240Uk\332\233\251\323"
 327      E9BC1865 
 327      A0556BDA 
 327      9BA9D3
 328 0c55 FA8D8BF6 		.ascii	"\372\215\213\366.\354\315\310\2115\330\342\244A\206"
 328      2EECCDC8 
 328      8935D8E2 
 328      A44186
 329 0c64 F915B396 		.ascii	"\371\025\263\226\034j7~1j\250\366M\222}c\232\012\324"
 329      1C6A377E 
 329      316AA8F6 
 329      4D927D63 
 329      9A0AD4
 330 0c77 7A0C9FF5 		.ascii	"z\014\237\365\221\257\323V6G\347]\310\254\233\332\334"
 330      91AFD356 
 330      3647E75D 
 330      C8AC9BDA 
 330      DC
 331 0c88 DAFAA4E9 		.ascii	"\332\372\244\351\3134\262]l\247Ls<\366\237\246%[3j^"
 331      CB34B25D 
 331      6CA74C73 
 331      3CF69FA6 
 331      255B336A 
 332 0c9d F8DC9D63 		.ascii	"\370\334\235cO\341\236\302|\017q\302/wJ\352\204\333"
 332      4FE19EC2 
 332      7C0F71C2 
 332      2F774AEA 
 332      84DB
 333 0caf AC3C1779 		.ascii	"\254<\027yL>x\231\230\245\346&_w64ng\225\231\231\316"
 333      4C3E7899 
 333      98A5E626 
 333      5F773634 
 333      6E679599 
 334 0cc5 3F9858E4 		.ascii	"?\230X\344\343\004v\251\207|/Qg\242\325\341\367\022"
 334      E30476A9 
 334      877C2F51 
 334      67A2D5E1 
 334      F712
 335 0cd7 2B3CA6EF 		.ascii	"+<\246\357%Z=\234\232\233\374k\211\206Nm?>[\337\311"
 335      255A3D9C 
 335      9A9BFC6B 
 335      89864E6D 
 335      3F3E5BDF 
ARM GAS  /tmp/ccqPV6tK.s 			page 26


 336 0cec F2E3B34D 		.ascii	"\362\343\263M\235\214\037Q0*E\011\277\226\320I\023\330"
 336      9D8C1F51 
 336      302A4509 
 336      BF96D049 
 336      13D8
 337 0cfe 7A0F3159 		.ascii	"z\0171Y\015\036\353\257%`\371\202{yD\312\011&\277z\273"
 337      0D1EEBAF 
 337      2560F982 
 337      7B7944CA 
 337      0926BF7A 
 338 0d13 6D266E8D 		.ascii	"m&n\215\253\016\260\312\334L\325h\011\354\003\336\004"
 338      AB0EB0CA 
 338      DC4CD568 
 338      09EC03DE 
 338      04
 339 0d24 E772D5D0 		.ascii	"\347r\325\320\364\3756\322\221\352\270\000Sk\206s\375"
 339      F4FD36D2 
 339      91EAB800 
 339      536B8673 
 339      FD
 340 0d35 2D874130 		.ascii	"-\207A0\272\212\011\354b\024\314\022\017\261\312k1^"
 340      BA8A09EC 
 340      6214CC12 
 340      0FB1CA6B 
 340      315E
 341 0d47 E771609B 		.ascii	"\347q`\233\347y\332\032\336M\216\014\351\226NV\206\264"
 341      E779DA1A 
 341      DE4D8E0C 
 341      E9964E56 
 341      86B4
 342 0d59 F9DCBE35 		.ascii	"\371\334\2765\277S\015\033\201\346\230]X\254\316cgh"
 342      BF530D1B 
 342      81E6985D 
 342      58ACCE63 
 342      6768
 343 0d6b 9000CDD0 		.ascii	"\220\000\315\320l\025\207\252\255\203\231NRm\223\265"
 343      6C1587AA 
 343      AD83994E 
 343      526D93B5 
 344 0d7b 3DDC67AE 		.ascii	"=\334g\256\226\300<)\312\3333gt\366\250\266\204I\320"
 344      96C03C29 
 344      CADB3367 
 344      74F6A8B6 
 344      8449D0
 345 0d8e 9A26AA0D 		.ascii	"\232&\252\015\226\006j\227\270_\271\331\332\332\311"
 345      96066A97 
 345      B85FB9D9 
 345      DADAC9
 346 0d9d 857DDA62 		.ascii	"\205}\332b\264O\252\014\222H\373\250\245\264\225\373"
 346      B44FAA0C 
 346      9248FBA8 
 346      A5B495FB 
 347 0dad 6543D5EA 		.ascii	"eC\325\352\002\373?\036\334\305v \350Z\245Q\227\330"
 347      02FB3F1E 
 347      DCC57620 
 347      E85AA551 
 347      97D8
ARM GAS  /tmp/ccqPV6tK.s 			page 27


 348 0dbf 79046E6C 		.ascii	"y\004nl\237\304\354Z\323\030\375\263\245\304\276s/\261"
 348      9FC4EC5A 
 348      D318FDB3 
 348      A5C4BE73 
 348      2FB1
 349 0dd1 F7AC2466 		.ascii	"\367\254$f\222\320\027\326\022zh\226\320\216\304\022"
 349      92D017D6 
 349      127A6896 
 349      D08EC412 
 350 0de1 B263D5AE 		.ascii	"\262c\325\256\232F\341\316\266\254nn\216.\334\353\336"
 350      9A46E1CE 
 350      B6AC6E6E 
 350      8E2EDCEB 
 350      DE
 351 0df2 7BED4EA8 		.ascii	"{\355N\250\035\3752,\224\243\305\212\365Ze\231hb=\352"
 351      1DFD322C 
 351      94A3C58A 
 351      F55A6599 
 351      68623DEA 
 352 0e06 48393E20 		.ascii	"H9> \325\372\341\013q\235\331\204\265\372%\220\227]"
 352      D5FAE10B 
 352      719DD984 
 352      B5FA2590 
 352      975D
 353 0e18 2D8DCB3D 		.ascii	"-\215\313=\226\362\332\026\223\227*\006\216\231\335"
 353      96F2DA16 
 353      93972A06 
 353      8E99DD
 354 0e27 D992B346 		.ascii	"\331\222\263F3g\007\034qv\"\316\331Z\304\265\257\225"
 354      3367071C 
 354      717622CE 
 354      D95AC4B5 
 354      AF95
 355 0e39 8833BB5A 		.ascii	"\2103\273Z\032g\007-9;\253s\366\036r\326h\315Y\203\231"
 355      1A67072D 
 355      393BAB73 
 355      F61E72D6 
 355      68CD5983 
 356 0e4e B323ED53 		.ascii	"\263#\355SW\273j\032\221G\333\022\331L>d\277T\313\316"
 356      57BB6A1A 
 356      9147DB12 
 356      D94C3E64 
 356      BF54CBCE 
 357 0e62 99B6521D 		.ascii	"\231\266R\035\237\346\177\006`\363\025\010\201\373\314"
 357      9FE67F06 
 357      60F31508 
 357      81FBCC
 358 0e71 ACB3AAF7 		.ascii	"\254\263\252\3674(\351>\023\3031RNZ\221\022=s\360O="
 358      3428E93E 
 358      13C33152 
 358      4E5A9112 
 358      3D73F04F 
 359 0e86 9555B5D1 		.ascii	"\225U\265\321\326\326\347\315t$\032<\247\255\010\211"
 359      D6D6E7CD 
 359      74241A3C 
 359      A7AD0889 
 360 0e96 DF6CE4E9 		.ascii	"\337l\344\351\025\203\33375\005v5\256\227\222\274\312"
ARM GAS  /tmp/ccqPV6tK.s 			page 28


 360      1583DB37 
 360      35057635 
 360      AE9792BC 
 360      CA
 361 0ea7 6647DA79 		.ascii	"fG\332y\017}\224\247\321\340\374m\236s\353\256\374\346"
 361      0F7D94A7 
 361      D1E0FC6D 
 361      9E73EBAE 
 361      FCE6
 362 0eb9 6D3C2BBC 		.ascii	"m<+\274\204s\247W\272\230\267\333RL\307\\)F:S|zB\377"
 362      8473A757 
 362      BA98B7DB 
 362      524CC75C 
 362      29463A53 
 363 0ed1 16D876F5 		.ascii	"\026\330v\365t\311\343k\027\235\267\2577\257\323>O\274"
 363      74C9E36B 
 363      179DB7AF 
 363      37AFD33E 
 363      4FBC
 364 0ee3 8A84BED1 		.ascii	"\212\204\276\321\206\320v\274v\304\264\261yK\272X\253"
 364      86D076BC 
 364      76C4B4B1 
 364      794BBA58 
 364      AB
 365 0ef4 D30D6BCD 		.ascii	"\323\015k\315\236m\320lUca\016c\003\362\245\021\344"
 365      9E6DD06C 
 365      5563610E 
 365      6303F2A5 
 365      11E4
 366 0f06 1F99558A 		.ascii	"\037\231U\212\362)Lmf?M\016\314\025\345Ak+\033g0\032"
 366      F2294C6D 
 366      663F4D0E 
 366      CC15E541 
 366      6B2B1B67 
 367 0f1c 07B1EBFA 		.ascii	"\007\261\353\372\257u8\323\3665!\303\256\3267\272\302"
 367      AF7538D3 
 367      F63521C3 
 367      AED637BA 
 367      C2
 368 0f2d 986A5D4D 		.ascii	"\230j]M\360\1779\276\265\255u:A[\177\323k\251~3zb\375"
 368      F07F39BE 
 368      B5AD753A 
 368      415B7FD3 
 368      6BA97E33 
 369 0f44 4156E96A 		.ascii	"AV\351j\264E\366\313E\264E\246\366\310\177\010\261k"
 369      B445F6CB 
 369      45B445A6 
 369      F6C87F08 
 369      B16B
 370 0f56 AF851A0C 		.ascii	"\257\205\032\014\277\314\256\216H\331\202\024z\2462"
 370      BFCCAE8E 
 370      48D98214 
 370      7AA632
 371 0f65 5C293E23 		.ascii	"\\)>#\012\343\202\331\301\312@Eu\231\230\035\221\313"
 371      0AE382D9 
 371      C1CA4045 
 371      7599981D 
ARM GAS  /tmp/ccqPV6tK.s 			page 29


 371      91CB
 372 0f77 829572EF 		.ascii	"\202\225r\357r&\265\032\256\003\374\262\367\017#Fg\025"
 372      7226B51A 
 372      AE03FCB2 
 372      F70F2346 
 372      6715
 373 0f89 307D13D4 		.ascii	"0}\023\324\011\011\201\362`\245\230\355/\023\307\013"
 373      090981F2 
 373      60A598ED 
 373      2F13C70B 
 374 0f99 D515B25F 		.ascii	"\325\025\262_\236R%"
 374      9E5225
 375 0fa0 4600C3E7 		.ascii	"F\000\303\347\367k(]\012\245\340$Q\212d\207\"\317\366"
 375      F76B285D 
 375      0AA5E024 
 375      518A6487 
 375      22CFF6
 376 0fb3 CBE9DF3B 		.ascii	"\313\351\337;\300\024f\227\207Cbv \\6%\273L\234\224"
 376      C0146697 
 376      87436276 
 376      205C3625 
 376      BB4C9C94 
 377 0fc7 0D10E382 		.ascii	"\015\020\343\202\341H\266,UWN\314\206D\271P\221]\025"
 377      E148B62C 
 377      55574ECC 
 377      8644B950 
 377      915D15
 378 0fda 96E44876 		.ascii	"\226\344HvI\351\360>y\331\303\206\025f\027\345\025L"
 378      49E9F03E 
 378      79D9C386 
 378      156617E5 
 378      154C
 379 0fec CACD0EE6 		.ascii	"\312\315\016\346\005\374\025\025e\244\001\310P\221\363"
 379      05FC1515 
 379      65A401C8 
 379      5091F3
 380 0ffb 9CC0C508 		.ascii	"\234\300\305\010\006"
 380      06
 381 1000 00A89C0E 		.ascii	"\000\250\234\016\227\210,\310\242_N\007\034\377\350"
 381      97882CC8 
 381      A25F4E07 
 381      1CFFE8
 382 100f 1145238A 		.ascii	"\021E#\212J\323H\262\244t\344(\202\355/\036\234_8\266"
 382      4AD348B2 
 382      A474E428 
 382      82ED2F1E 
 382      9C5F38B6 
 383 1023 0349E517 		.ascii	"\003I\345\027\224\026\2750\330_:\206\276+\036\2035\207"
 383      9416BD30 
 383      D85F3A86 
 383      BE2B1E83 
 383      3587
 384 1035 8D2CF897 		.ascii	"\215,\370\227\301\205)\010\226\001\250\341\252P\270"
 384      C1852908 
 384      9601A8E1 
 384      AA50B8
 385 1044 8CC08E1C 		.ascii	"\214\300\216\0345|d\341`?\224\351\246%K\206\377~t\211"
ARM GAS  /tmp/ccqPV6tK.s 			page 30


 385      357C64E1 
 385      603F94E9 
 385      A6254B86 
 385      FF7E7489 
 386 1058 BF70F00B 		.ascii	"\277p\360\013E\005\203\273\030\362\206\216,)M\015W\371"
 386      450583BB 
 386      18F2868E 
 386      2C294D0D 
 386      57F9
 387 106a 49D53422 		.ascii	"I\3254\"\266>y\200\240J\220$3\002\025\341\300D\177\244"
 387      B63E7980 
 387      A04A9024 
 387      330215E1 
 387      C0447FA4 
 388 107e 4A14CB3A 		.ascii	"J\024\313:B#e\325\362\224\300\224@\005\264\323\261\244"
 388      422365D5 
 388      F294C094 
 388      4005B4D3 
 388      B1A4
 389 1090 B4D05F38 		.ascii	"\264\320_8\272t\254\277`l\301\260\301]\206\344\227\224"
 389      BA74ACBF 
 389      606CC1B0 
 389      C15D86E4 
 389      9794
 390 10a2 52F7FEBC 		.ascii	"R\367\376\274\237\231sr\373\371\237K'\010~\204 \274"
 390      9F997372 
 390      FBF99F4B 
 390      27087E84 
 390      20BC
 391 10b4 16842BC7 		.ascii	"\026\204+\307\007'x\003x!\262\031_!L\210\200\002\210"
 391      07277803 
 391      7821B219 
 391      5F214C88 
 391      800288
 392 10c7 92149622 		.ascii	"\222\024\226\"}\222\011X\222\343\362\015\224\207\344"
 392      7D920958 
 392      92E3F20D 
 392      9487E4
 393 10d6 1AA243A1 		.ascii	"\032\242C\241jY\254\361\313)x\035\340\012!2%\022S\243"
 393      6A59ACF1 
 393      CB29781D 
 393      E00A2132 
 393      251253A3 
 394 10ea 4E72B924 		.ascii	"Nr\271$\012e\021\377K\325b5\260\3339P\3567d\365u\207"
 394      0A6511FF 
 394      4BD56235 
 394      B0DB3950 
 394      EE3764F5 
 395 1100 1C2827BA 		.ascii	"\034('\272\223\246B\370e_\034\316[\345\257\024kd\270"
 395      93A642F8 
 395      655F1CCE 
 395      5BE5AF14 
 395      6B64B8
 396 1113 5449E2A4 		.ascii	"TI\342\244\241\016PU\005\315/\036^0\274\006J\206\252"
 396      A10E5055 
 396      05CD2F1E 
 396      5E30BC06 
ARM GAS  /tmp/ccqPV6tK.s 			page 31


 396      4A86AA
 397 1126 821544CB 		.ascii	"\202\025D\313\377PP\000\305c\364\247\312UR0\354Wq\203"
 397      FF505000 
 397      C563F4A7 
 397      CA555230 
 397      EC577183 
 398 113a E1541031 		.ascii	"\341T\0201\210C~\3165~y ,\211\000\230A\262\375\240\027"
 398      88437ECE 
 398      357E7920 
 398      2C890098 
 398      41B2FDA0 
 399 114f 01B9E677 		.ascii	"\001\271\346w\355C\361O\352\037\"B\220\304\0110\250"
 399      ED43F14F 
 399      EA1F2242 
 399      90C40930 
 399      A8
 400 1160 FD321FC9 		.ascii	"\3752\037\311\355\007\241?\204\001\020\236\343#y9\020"
 400      ED07A13F 
 400      8401109E 
 400      E3237939 
 400      10
 401 1171 7221E441 		.ascii	"r!\344A\350\003\241/\204g!@\271<(\227\007\345\362\240"
 401      E803A12F 
 401      84672140 
 401      B93C2897 
 401      07E5F2A0 
 402 1185 5C1F28D7 		.ascii	"\\\037(\327'\227\223\372r\322\263\234\324\217\223\372"
 402      279793FA 
 402      72D2B39C 
 402      D48F93FA 
 403 1195 73D2004E 		.ascii	"s\322\000Nz\216\227rs \344r\025\022\\\372\244T\371\201"
 403      7A8E9772 
 403      7320E472 
 403      15125CFA 
 403      A454F981 
 404 11a9 DA5422E1 		.ascii	"\332T\"\341\311\242\004\327pE\231(y\002\345\202D\304"
 404      C9A204D7 
 404      70459928 
 404      7902E582 
 404      44C4
 405 11bb 2E84C434 		.ascii	".\204\3044Y\033\215\360\020S\251\262:\214\340\036u1"
 405      591B8DF0 
 405      1053A9B2 
 405      3A8CE01E 
 405      7531
 406 11cd 5596C4F1 		.ascii	"U\226\304\361\021\224#I\244\204\"\023\340\2416<\300"
 406      11942349 
 406      A4842213 
 406      E0A1363C 
 406      C0
 407 11de D66829AF 		.ascii	"\326h)\257T6\005\036\245\2115A\031\304\"z'\313\341q"
 407      5436051E 
 407      A5893541 
 407      19C4227A 
 407      27CBE171 
 408 11f2 FF519521 		.ascii	"\377Q\225!N\022+\345\220\020\231Htz2I\360U\376\352\216"
 408      4E122BE5 
ARM GAS  /tmp/ccqPV6tK.s 			page 32


 408      90109948 
 408      747A3249 
 408      F055FEEA 
 409 1207 314DAA08 		.ascii	"1M\252\010F\300ru\242t\213\344\370\252\374\223\205\240"
 409      46C07275 
 409      A2748BE4 
 409      F8AAFC93 
 409      85A0
 410 1219 1CAC9C90 		.ascii	"\034\254\234\220\016C32\001\365-\005\223\220!V\211\225"
 410      0E433332 
 410      01F52D05 
 410      93902156 
 410      8995
 411 122b 602F2740 		.ascii	"`/'@)\320xR>\235\320&T`?CfU8\\\221\032R\265\024\256"
 411      29D07852 
 411      3E9DD026 
 411      54603F43 
 411      6655385C 
 412 1245 E1C995A2 		.ascii	"\341\311\225\242\344\015\241\226\365w\245\264\032M\320"
 412      E40DA196 
 412      F577A5B4 
 412      1A4DD0
 413 1254 655D35BD 		.ascii	"e]5\275\005\021\210\222X\031\000\001y\325,\037\014Z"
 413      05118892 
 413      58190001 
 413      79D52C1F 
 413      0C5A
 414 1266 A1AC4CF2 		.ascii	"\241\254L\362\313h?`\214\307\354\007Iz\310#\237TS\026"
 414      CB683F60 
 414      8CC7EC07 
 414      497AC823 
 414      9F545316 
 415 127a 1288587D 		.ascii	"\022\210X}r,5\304\255%\306xH\337\232\032\360\026!\220"
 415      722C35C4 
 415      AD25C678 
 415      48DF9A1A 
 415      F0162190 
 416 128e 38E0005D 		.ascii	"8\340\000]\277M\006\003<g\027\014/)*\001\000\265\346"
 416      BF4D0603 
 416      3C67170C 
 416      2F292A01 
 416      00B5E6
 417 12a1 F8BE39B9 		.ascii	"\370\2769\2715D\241\273\026\016\317\367\227@\367\012"
 417      3544A1BB 
 417      160ECFF7 
 417      9740F70A 
 418 12b1 217F298C 		.ascii	"!\177)\214\232Bq<WP\354\031QXZ\314\217\312/\366\014"
 418      9A42713C 
 418      5750EC19 
 418      51585ACC 
 418      8FCA2FF6 
 419 12c6 CF21516E 		.ascii	"\317!Qn~1?\244\240\330\033\301\202\236\340\370\200\344"
 419      7E313FA4 
 419      A0D81BC1 
 419      829EE0F8 
 419      80E4
 420 12d8 0D46CA83 		.ascii	"\015F\312\203\343e_D\254\030\037\254,\023k\274\223\304"
ARM GAS  /tmp/ccqPV6tK.s 			page 33


 420      E3655F44 
 420      AC181FAC 
 420      2C136BBC 
 420      93C4
 421 12ea 801C96BA 		.ascii	"\200\034\226\272\306)\363\253\245\301\010\301\215TC"
 421      C629F3AB 
 421      A5C108C1 
 421      8D5443
 422 12f9 62B92683 		.ascii	"b\271&\203Xm\255!\276\2408\027B\236gd~q.\211\362\270"
 422      586DAD21 
 422      BEA03817 
 422      429E6764 
 422      7E712E89 
 423 130f C262BE04 		.ascii	"\302b\276\0042K\212\363\370\202\202\342\224\322\342"
 423      324B8AF3 
 423      F88282E2 
 423      94D2E2
 424 131e A292C19E 		.ascii	"\242\222\301\236!\303\200\030\220pw\325\205\371eI\250"
 424      21C38018 
 424      907077D5 
 424      85F96549 
 424      A8
 425 132f 8C848272 		.ascii	"\214\204\202r\357`D\022z\347x\213J\212\363{\347\251"
 425      EF604412 
 425      7AE7788B 
 425      4A8AF37B 
 425      E7A9
 426 1341 973EBC5C 		.ascii	"\227>\274\\3\016B\200\227\340*\325\004\314\376\017F"
 426      330E4280 
 426      97E02AD5 
 426      04CCFE0F 
 426      46
 427 1352 5E0CA6A3 		.ascii	"^\014\246\243\226\320\224?\255h\204\352\\<E\205\303"
 427      96D0943F 
 427      AD6884EA 
 427      5C3C4585 
 427      C3
 428 1363 067BC033 		.ascii	"\006{\3003\214\315\320J\004+\2032\033\362\226!T\332"
 428      8CCDD04A 
 428      042B8332 
 428      1BF29621 
 428      54DA
 429 1375 382122E6 		.ascii	"8!\"\346C\227f\304\353\207\253RI\004\274ejy\222\030"
 429      439766C4 
 429      EB87AB52 
 429      4904BC65 
 429      6A799218 
 430 1389 11E56EF1 		.ascii	"\021\345n\361\033\241l\024\344D\252%1\255JKt\247\036"
 430      1BA16C14 
 430      E444AA25 
 430      31AD4A4B 
 430      74A71E
 431 139c 968AA12A 		.ascii	"\226\212\241*Q\022d\310\316\220\365\364ct\375\342\221"
 431      511264C8 
 431      CE90F5F4 
 431      6374FDE2 
 431      91
ARM GAS  /tmp/ccqPV6tK.s 			page 34


 432 13ad C35F102A 		.ascii	"\303_\020*\252\305H\007\020E\261X!\002\025\277\257\216"
 432      AAC54807 
 432      1045B158 
 432      210215BF 
 432      AF8E
 433 13bf E4E1F4A0 		.ascii	"\344\341\364\240\"8.{B `\232&\364\355=\240w_z\202\001"
 433      22382E7B 
 433      4220609A 
 433      26F4ED3D 
 433      A0775F7A 
 434 13d5 D3041080 		.ascii	"\323\004\020\2007\022\374O\340\327G\014}0\004\251\036"
 434      3712FC4F 
 434      E0D7470C 
 434      7D3004A9 
 434      1E
 435 13e6 80385C88 		.ascii	"\2008\\\210\310\242T\252\211\266\024\362\303\3252i*"
 435      C8A254AA 
 435      89B614F2 
 435      C3D53269 
 435      2A
 436 13f7 3FF05275 		.ascii	"?\360RuP\"M\245\312j\356\377\002O\337K\250"
 436      50224DA5 
 436      CA6AEEFF 
 436      024FDF4B 
 436      A8
 437              		.text
 438              		.section	.gnu.lto_.symtab.75aa16ced05093bc,"",%progbits
 439 0000 6D733536 		.ascii	"ms5607_init\000\000\000\000\000\000\000\000\000\000"
 439      30375F69 
 439      6E697400 
 439      00000000 
 439      00000000 
 440 0015 00001002 		.ascii	"\000\000\020\002\000\000ms5607_stop\000\000\000\000"
 440      00006D73 
 440      35363037 
 440      5F73746F 
 440      70000000 
 441 002a 00000000 		.ascii	"\000\000\000\000\000\000\000\0001\002\000\000ms5607"
 441      00000000 
 441      31020000 
 441      6D733536 
 441      3037
 442 003c 5F726573 		.ascii	"_reset\000\000\000\000\000\000\000\000\000\000\000\000"
 442      65740000 
 442      00000000 
 442      00000000 
 442      0000
 443 004e 3A020000 		.ascii	":\002\000\000ms5607_readPressure\000\000\000\000\000"
 443      6D733536 
 443      30375F72 
 443      65616450 
 443      72657373 
 444 006a 00000000 		.ascii	"\000\000\000\000\000\000\000@\002\000\000ms5607_rea"
 444      00000040 
 444      0200006D 
 444      73353630 
 444      375F7265 
ARM GAS  /tmp/ccqPV6tK.s 			page 35


 445 007f 6454656D 		.ascii	"dTemperature\000\000\000\000\000\000\000\000\000\000"
 445      70657261 
 445      74757265 
 445      00000000 
 445      00000000 
 446 0095 00004902 		.ascii	"\000\000I\002\000\000ms5607_readPROMValues\000\000\000"
 446      00006D73 
 446      35363037 
 446      5F726561 
 446      6450524F 
 447 00b3 00000000 		.ascii	"\000\000\000\000\000\000\000\000\000O\002\000\000i2"
 447      00000000 
 447      004F0200 
 447      006932
 448 00c2 6352656C 		.ascii	"cReleaseBus\000\000\002\000\000\000\000\000\000\000"
 448      65617365 
 448      42757300 
 448      00020000 
 448      00000000 
 449 00d7 00005302 		.ascii	"\000\000S\002\000\000i2cMasterTransmitTimeout\000\000"
 449      00006932 
 449      634D6173 
 449      74657254 
 449      72616E73 
 450 00f7 02000000 		.ascii	"\002\000\000\000\000\000\000\000\000\000W\002\000\000"
 450      00000000 
 450      00005702 
 450      0000
 451 0105 69326341 		.ascii	"i2cAcquireBus\000\000\002\000\000\000\000\000\000\000"
 451      63717569 
 451      72654275 
 451      73000002 
 451      00000000 
 452 011c 00006902 		.ascii	"\000\000i\002\000\000"
 452      0000
 453              		.text
 454              		.section	.gnu.lto_.opts,"",%progbits
 455 0000 272D6D63 		.ascii	"'-mcpu=cortex-m4' '-mfloat-abi=hard' '-mfpu=fpv4-sp"
 455      70753D63 
 455      6F727465 
 455      782D6D34 
 455      2720272D 
 456 0033 2D643136 		.ascii	"-d16' '-mno-thumb-interwork' '-mthumb' '-O2' '-fomi"
 456      2720272D 
 456      6D6E6F2D 
 456      7468756D 
 456      622D696E 
 457 0066 742D6672 		.ascii	"t-frame-pointer' '-falign-functions=16' '-ffunction"
 457      616D652D 
 457      706F696E 
 457      74657227 
 457      20272D66 
 458 0099 2D736563 		.ascii	"-sections' '-fdata-sections' '-fno-common' '-flto' "
 458      74696F6E 
 458      73272027 
 458      2D666461 
 458      74612D73 
ARM GAS  /tmp/ccqPV6tK.s 			page 36


 459 00cc 272D6673 		.ascii	"'-fsingle-precision-constant'\000"
 459      696E676C 
 459      652D7072 
 459      65636973 
 459      696F6E2D 
 460              		.text
 461              		.section	.text.ms5607_init,"ax",%progbits
 462              		.align	2
 463              		.p2align 4,,15
 464              		.global	ms5607_init
 465              		.thumb
 466              		.thumb_func
 467              		.type	ms5607_init, %function
 468              	ms5607_init:
 469              		@ args = 0, pretend = 0, frame = 0
 470              		@ frame_needed = 0, uses_anonymous_args = 0
 471              		@ link register save eliminated.
 472 0000 0346     		mov	r3, r0
 473 0002 10B4     		push	{r4}
 474 0004 044C     		ldr	r4, .L2
 475 0006 4160     		str	r1, [r0, #4]
 476 0008 0020     		movs	r0, #0
 477 000a 2821     		movs	r1, #40
 478 000c 1A72     		strb	r2, [r3, #8]
 479 000e 2160     		str	r1, [r4]
 480 0010 1870     		strb	r0, [r3]
 481 0012 5DF8044B 		ldr	r4, [sp], #4
 482 0016 7047     		bx	lr
 483              	.L3:
 484              		.align	2
 485              	.L2:
 486 0018 00000000 		.word	.LANCHOR0
 487              		.size	ms5607_init, .-ms5607_init
 488 001c AFF30080 		.section	.text.ms5607_stop,"ax",%progbits
 489              		.align	2
 490              		.p2align 4,,15
 491              		.global	ms5607_stop
 492              		.thumb
 493              		.thumb_func
 494              		.type	ms5607_stop, %function
 495              	ms5607_stop:
 496              		@ args = 0, pretend = 0, frame = 0
 497              		@ frame_needed = 0, uses_anonymous_args = 0
 498              		@ link register save eliminated.
 499 0000 0023     		movs	r3, #0
 500 0002 0370     		strb	r3, [r0]
 501 0004 1846     		mov	r0, r3
 502 0006 7047     		bx	lr
 503              		.size	ms5607_stop, .-ms5607_stop
 504 0008 AFF30080 		.section	.text.ms5607_reset,"ax",%progbits
 504      AFF30080 
 505              		.align	2
 506              		.p2align 4,,15
 507              		.global	ms5607_reset
 508              		.thumb
 509              		.thumb_func
 510              		.type	ms5607_reset, %function
ARM GAS  /tmp/ccqPV6tK.s 			page 37


 511              	ms5607_reset:
 512              		@ args = 0, pretend = 0, frame = 8
 513              		@ frame_needed = 0, uses_anonymous_args = 0
 514 0000 30B5     		push	{r4, r5, lr}
 515 0002 87B0     		sub	sp, sp, #28
 516 0004 06AD     		add	r5, sp, #24
 517 0006 0446     		mov	r4, r0
 518 0008 1E23     		movs	r3, #30
 519 000a 4068     		ldr	r0, [r0, #4]
 520 000c 05F8013D 		strb	r3, [r5, #-1]!
 521 0010 FFF7FEFF 		bl	i2cAcquireBus
 522 0014 094B     		ldr	r3, .L6
 523 0016 217A     		ldrb	r1, [r4, #8]	@ zero_extendqisi2
 524 0018 1B68     		ldr	r3, [r3]
 525 001a 6068     		ldr	r0, [r4, #4]
 526 001c 0293     		str	r3, [sp, #8]
 527 001e 0023     		movs	r3, #0
 528 0020 2A46     		mov	r2, r5
 529 0022 0093     		str	r3, [sp]
 530 0024 0193     		str	r3, [sp, #4]
 531 0026 0123     		movs	r3, #1
 532 0028 FFF7FEFF 		bl	i2cMasterTransmitTimeout
 533 002c 0546     		mov	r5, r0
 534 002e 6068     		ldr	r0, [r4, #4]
 535 0030 FFF7FEFF 		bl	i2cReleaseBus
 536 0034 2846     		mov	r0, r5
 537 0036 07B0     		add	sp, sp, #28
 538              		@ sp needed
 539 0038 30BD     		pop	{r4, r5, pc}
 540              	.L7:
 541 003a 00BF     		.align	2
 542              	.L6:
 543 003c 00000000 		.word	.LANCHOR0
 544              		.size	ms5607_reset, .-ms5607_reset
 545              		.section	.text.ms5607_readPressure,"ax",%progbits
 546              		.align	2
 547              		.p2align 4,,15
 548              		.global	ms5607_readPressure
 549              		.thumb
 550              		.thumb_func
 551              		.type	ms5607_readPressure, %function
 552              	ms5607_readPressure:
 553              		@ args = 0, pretend = 0, frame = 0
 554              		@ frame_needed = 0, uses_anonymous_args = 0
 555              		@ link register save eliminated.
 556 0000 0020     		movs	r0, #0
 557 0002 7047     		bx	lr
 558              		.size	ms5607_readPressure, .-ms5607_readPressure
 559 0004 AFF30080 		.section	.text.ms5607_readTemperature,"ax",%progbits
 559      AFF30080 
 559      AFF30080 
 560              		.align	2
 561              		.p2align 4,,15
 562              		.global	ms5607_readTemperature
 563              		.thumb
 564              		.thumb_func
 565              		.type	ms5607_readTemperature, %function
ARM GAS  /tmp/ccqPV6tK.s 			page 38


 566              	ms5607_readTemperature:
 567              		@ args = 0, pretend = 0, frame = 0
 568              		@ frame_needed = 0, uses_anonymous_args = 0
 569              		@ link register save eliminated.
 570 0000 0020     		movs	r0, #0
 571 0002 7047     		bx	lr
 572              		.size	ms5607_readTemperature, .-ms5607_readTemperature
 573 0004 AFF30080 		.section	.text.ms5607_readPROMValues,"ax",%progbits
 573      AFF30080 
 573      AFF30080 
 574              		.align	2
 575              		.p2align 4,,15
 576              		.global	ms5607_readPROMValues
 577              		.thumb
 578              		.thumb_func
 579              		.type	ms5607_readPROMValues, %function
 580              	ms5607_readPROMValues:
 581              		@ args = 0, pretend = 0, frame = 0
 582              		@ frame_needed = 0, uses_anonymous_args = 0
 583              		@ link register save eliminated.
 584 0000 0020     		movs	r0, #0
 585 0002 7047     		bx	lr
 586              		.size	ms5607_readPROMValues, .-ms5607_readPROMValues
 587 0004 AFF30080 		.section	.bss.timeout,"aw",%nobits
 587      AFF30080 
 587      AFF30080 
 588              		.align	2
 589              		.set	.LANCHOR0,. + 0
 590              		.type	timeout, %object
 591              		.size	timeout, 4
 592              	timeout:
 593 0000 00000000 		.space	4
 594              		.comm	__gnu_lto_v1,1,1
 595              		.ident	"GCC: (GNU Tools for ARM Embedded Processors) 4.8.4 20140526 (release) [ARM/embedded-4_8-br
ARM GAS  /tmp/ccqPV6tK.s 			page 39


DEFINED SYMBOLS
                            *ABS*:0000000000000000 ms5607.c
     /tmp/ccqPV6tK.s:462    .text.ms5607_init:0000000000000000 $t
     /tmp/ccqPV6tK.s:468    .text.ms5607_init:0000000000000000 ms5607_init
     /tmp/ccqPV6tK.s:486    .text.ms5607_init:0000000000000018 $d
     /tmp/ccqPV6tK.s:489    .text.ms5607_stop:0000000000000000 $t
     /tmp/ccqPV6tK.s:495    .text.ms5607_stop:0000000000000000 ms5607_stop
     /tmp/ccqPV6tK.s:505    .text.ms5607_reset:0000000000000000 $t
     /tmp/ccqPV6tK.s:511    .text.ms5607_reset:0000000000000000 ms5607_reset
     /tmp/ccqPV6tK.s:543    .text.ms5607_reset:000000000000003c $d
     /tmp/ccqPV6tK.s:546    .text.ms5607_readPressure:0000000000000000 $t
     /tmp/ccqPV6tK.s:552    .text.ms5607_readPressure:0000000000000000 ms5607_readPressure
     /tmp/ccqPV6tK.s:560    .text.ms5607_readTemperature:0000000000000000 $t
     /tmp/ccqPV6tK.s:566    .text.ms5607_readTemperature:0000000000000000 ms5607_readTemperature
     /tmp/ccqPV6tK.s:574    .text.ms5607_readPROMValues:0000000000000000 $t
     /tmp/ccqPV6tK.s:580    .text.ms5607_readPROMValues:0000000000000000 ms5607_readPROMValues
     /tmp/ccqPV6tK.s:588    .bss.timeout:0000000000000000 $d
     /tmp/ccqPV6tK.s:592    .bss.timeout:0000000000000000 timeout
                            *COM*:0000000000000001 __gnu_lto_v1
     /tmp/ccqPV6tK.s:488    .text.ms5607_init:000000000000001c $t

UNDEFINED SYMBOLS
i2cAcquireBus
i2cMasterTransmitTimeout
i2cReleaseBus
