ARM GAS  /tmp/cclOCkDE.s 			page 1


   1              		.syntax unified
   2              		.cpu cortex-m4
   3              		.eabi_attribute 27, 3
   4              		.eabi_attribute 28, 1
   5              		.fpu fpv4-sp-d16
   6              		.eabi_attribute 20, 1
   7              		.eabi_attribute 21, 1
   8              		.eabi_attribute 23, 3
   9              		.eabi_attribute 24, 1
  10              		.eabi_attribute 25, 1
  11              		.eabi_attribute 26, 1
  12              		.eabi_attribute 30, 2
  13              		.eabi_attribute 34, 1
  14              		.eabi_attribute 18, 4
  15              		.thumb
  16              		.file	"pal.c"
  17              		.section	.gnu.lto_.jmpfuncs.627a89c1a632f008,"",%progbits
  18 0000 789C6362 		.ascii	"x\234cb`b\300\006D\24043\003##3\02333\204\315\300X\006"
  18      6062C006 
  18      44A03433 
  18      03232333 
  18      13333384 
  19 0018 A4010623 		.ascii	"\244\001\006#\000\243"
  19      00A3
  20              		.text
  21              		.section	.gnu.lto_.inline.627a89c1a632f008,"",%progbits
  22 0000 789C6362 		.ascii	"x\234cb`b\300\006\276Cif\006\006N\016Ff\006F0\023D:"
  22      6062C006 
  22      BE436966 
  22      06064E0E 
  22      46660646 
  23 0018 8049050E 		.ascii	"\200I\005\016\266\017z\014l\013\344\231\030\030_\260"
  23      B60F7A0C 
  23      6C0BE499 
  23      18185FB0 
  24 0028 B3404810 		.ascii	"\263@H\020\301\001fr\200\010\0010S\000d\014#\003\037"
  24      C1016672 
  24      80080130 
  24      5300640C 
  24      23031F
  25 003b 2F230BC4 		.ascii	"/#\013\304\024FF\210\010\320\020\210\201\334L\027\370"
  25      14464688 
  25      08D01088 
  25      81DC4C17 
  25      F8
  26 004c 318C028A 		.ascii	"1\214\002\212\241\030\302\262@^\002\304R`b`\336!\256"
  26      A118C2B2 
  26      405E02C4 
  26      52606260 
  26      DE21AE
  27 005f C000B4DE 		.ascii	"\300\000\264\336\002d\016\023\003\2670\212\373\240\206"
  27      02640E13 
  27      03B7308A 
  27      FBA086
  28 006e 7202E588 		.ascii	"r\002\345\210s\036\320&\011\220I,\274@}\023\374@\220"
  28      731ED026 
  28      0990492C 
ARM GAS  /tmp/cclOCkDE.s 			page 2


  28      BC407D13 
  28      FC4090
  29 0081 01003C62 		.ascii	"\001\000<b\037\210"
  29      1F88
  30              		.text
  31              		.section	.gnu.lto_.pureconst.627a89c1a632f008,"",%progbits
  32 0000 789C6362 		.ascii	"x\234cb`b`g\200\000f\006)F)&I\000\001\312\000_"
  32      60626067 
  32      80006606 
  32      29462926 
  32      490001CA 
  33              		.text
  34              		.section	.gnu.lto_palReadBus.627a89c1a632f008,"",%progbits
  35 0000 789C6D90 		.ascii	"x\234m\2201O\3030\020\205\337\235\223&\351\300\316\306"
  35      314FC330 
  35      1085DF9D 
  35      9326E9C0 
  35      CEC6
  36 0012 4CA59A1F 		.ascii	"L\245\232\037S$`K\323\252\211h\011j\001\211\251\241"
  36      5324604B 
  36      D3AA8968 
  36      096A0189 
  36      A9A1
  37 0024 A9C4DA95 		.ascii	"\251\304\332\2252\2610 TV$\026\304\300V\004+\023\023"
  37      32B13020 
  37      54562416 
  37      C4C05604 
  37      2B1313
  38 0037 237FA19C 		.ascii	"#\177\241\234]\022\004\252%\277;\333\367\275;\231\301"
  38      5D1204AA 
  38      25BF3BDB 
  38      F7BD3B99 
  38      C1
  39 0048 F8BFD665 		.ascii	"\370\277\326e\237\023\260%\221\024\210'/\300\231\317"
  39      9F13B025 
  39      91148827 
  39      2FC099CF 
  40 0058 44260161 		.ascii	"D&\001a\3104\334%[{\307\217\037\213\305l\372|}K\027"
  40      C834DC25 
  40      5B7BC78F 
  40      1F8BC56C 
  40      FA7C7D4B 
  41 006d 5C65EA11 		.ascii	"\\e\352\021\024\022\202#B\256\010WD\224g\216\276\221"
  41      14128223 
  41      42AE0857 
  41      4494678E 
  41      BE91
  42 007f 40C411D2 		.ascii	"@\304\021\322\3058\313&\033@d\235\032\242\306~\233\330"
  42      C538CB26 
  42      1B40649D 
  42      1AA2C67E 
  42      9BD8
  43 0091 4435C7E8 		.ascii	"D5\307\350\375\376\363\225B\272\022\233\016\251\032"
  43      FDFEF395 
  43      42BA129B 
  43      0EA91A
  44 00a0 3613722F 		.ascii	"6\023r/1\245\204*\035\342\035\211\236\235\241I\305\344"
ARM GAS  /tmp/cclOCkDE.s 			page 3


  44      31A5842A 
  44      1DE21D89 
  44      9E9DA149 
  44      C5E4
  45 00b2 733CED15 		.ascii	"s<\355\025\200S\303M6\226\"\177\311\004\342a\030\367"
  45      8053C34D 
  45      3696227F 
  45      C904E261 
  45      18F7
  46 00c4 87A19219 		.ascii	"\207\241\222\031\225\214k\233TW7\341_\340K\025\204\024"
  46      958C6B9B 
  46      545737E1 
  46      5FE04B15 
  46      8414
  47 00d6 B9E62A9F 		.ascii	"\271\346*\237\225W\236\364\226\207\277\316\276uvV;\253"
  47      95579EF4 
  47      9687BFCE 
  47      BE757656 
  47      3BAB
  48 00e8 D2397FC8 		.ascii	"\3229\177\310\327\012$\260V>\360\206\362\027\202eaC"
  48      D70A24B0 
  48      563EF086 
  48      F2178265 
  48      6143
  49 00fa A6974F32 		.ascii	"\246\227O2\023\325u\234\366\332:J[\247\272\325>\321"
  49      13D5759C 
  49      F6DA3A4A 
  49      5BA7BAD5 
  49      3ED1
  50 010c 519C3493 		.ascii	"Q\2344\223t\240\217\372\307\007\373Z\2228\354\352A?"
  50      74A08FFA 
  50      C707FB5A 
  50      9238ECEA 
  50      413F
  51 011e D28761B7 		.ascii	"\322\207a\267\036\341\033!qZ\314"
  51      1EE11B21 
  51      715ACC
  52              		.text
  53              		.section	.gnu.lto_palWriteBus.627a89c1a632f008,"",%progbits
  54 0000 789C6D91 		.ascii	"x\234m\221\277O\302P\020\307\357\336kK)\277t\323\315"
  54      BF4FC250 
  54      10C7EFDE 
  54      6B4B29BF 
  54      74D3CD
  55 0013 C44D129E 		.ascii	"\304M\022\236\243\377\202;&\352V\012\241\215 \006\324"
  55      A3FF823B 
  55      26EA560A 
  55      A18D2006 
  55      D4
  56 0024 C4095006 		.ascii	"\304\011P\006Gfqq5Q\027\027#\203qp1\232\270\031'\376"
  56      47667171 
  56      35511717 
  56      23837170 
  56      319AB819 
  57 003a 02076713 		.ascii	"\002\007g\023\274{\245%\022\232\364\356\336\367\335"
  57      BC7BA525 
  57      129AF4EE 
ARM GAS  /tmp/cclOCkDE.s 			page 4


  57      DEF7DD
  58 0049 7DEEAE15 		.ascii	"}\356\256\025 `\366Y\246w\203\344u\362(\001E\377\035"
  58      2060F659 
  58      A67783E4 
  58      75F22801 
  58      45FF1D
  59 005c A06B0B44 		.ascii	"\240k\013D\016\000\241-\260\275\203:\367N<\215\306\343"
  59      0E00A12D 
  59      B0BD833A 
  59      F74E3C8D 
  59      C6E3
  60 006e DBDF97FB 		.ascii	"\333\337\227\373!^\212E\201u\004\011\001\202A\021\232"
  60      215E8A45 
  60      81750409 
  60      01824111 
  60      9A
  61 007f 14A1C526 		.ascii	"\024\241\305&\301\306&#\222l\03422\305Z\232M\206\217"
  61      C1C62623 
  61      926C1C32 
  61      32C55A9A 
  61      4D868F
  62 0092 598E726C 		.ascii	"Y\216rl\210kB\257\323\351\257\000x\272O\221,7\337B\301"
  62      886B42AF 
  62      D3E9AF00 
  62      78BA4F91 
  62      2C37DF42 
  63 00a7 5EBEC1E9 		.ascii	"^\276\301\351\327\347\317\222\213W\324\243\2122\017"
  63      D7E7CF92 
  63      8B57D4A3 
  63      8A320F
  64 00b6 6B011A03 		.ascii	"k\001\032\003\270\300\000\315*\212m\362\226\036\260"
  64      B8C000CD 
  64      2A8A6DF2 
  64      961EB0
  65 00c5 84D15A54 		.ascii	"\204\321ZT3\224Q\005%\031Z\332\215\024K3\022\363\031"
  65      33945105 
  65      25195ADA 
  65      8D144B33 
  65      12F319
  66 00d8 1833CE1E 		.ascii	"\0303\316\036cFBc\254\377\030[c\354\371\0301\305\234"
  66      63464263 
  66      ACFF185B 
  66      63ECF918 
  66      31C59C
  67 00eb C7982415 		.ascii	"\307\230$\025q\222\275\020\016\371\035\3378t\251\223"
  67      7192BD10 
  67      0EF91DDF 
  67      3874A993 
  68 00fb 6F6229A5 		.ascii	"ob)\245\333:3\223\244i\233h\222iy\206\3003\345Y\235"
  68      DB3A3393 
  68      A4699B68 
  68      92697986 
  68      C033E559 
  69 0110 9BD1EA43 		.ascii	"\233\321\352C\254\34647\313\352\363f(\346\341\272\323"
  69      ACE63437 
  69      CBEAF366 
  69      28E6E1BA 
ARM GAS  /tmp/cclOCkDE.s 			page 5


  69      D3
  70 0121 A3A19251 		.ascii	"\243\241\222Q\340\204\033Q\236\344a\215\311Fr\342\303"
  70      E0841B51 
  70      9EE4618D 
  70      C94672E2 
  70      C3
  71 0132 33A1003E 		.ascii	"3\241\000>\240;z]\0151\321S\244/H\377\215\367/(\277"
  71      A03B7A5D 
  71      0D31D153 
  71      A42F48FF 
  71      8DF72F28 
  72 0147 51AF28AF 		.ascii	"Q\257(\257Q>Q\345\312\261\362\374\240\0244Z\352\260"
  72      513E51E5 
  72      CAB1F2FC 
  72      A014345A 
  72      EAB0
  73 0159 79B4BFA7 		.ascii	"y\264\277\247(\360\335\232j5=u\340\326\012\036\374\001"
  73      28F0DD9A 
  73      6A353D75 
  73      E0D60A1E 
  73      FC01
  74 016b 85E47B54 		.ascii	"\205\344{T"
  75              		.text
  76              		.section	.gnu.lto_palSetBusMode.627a89c1a632f008,"",%progbits
  77 0000 789C6D90 		.ascii	"x\234m\220\277N\0031\014\306?;\367\217N\214\260!\261"
  77      BF4E0331 
  77      0CC63F3B 
  77      F78F4E8C 
  77      B021B1
  78 0013 81D4F030 		.ascii	"\201\324\3600E\002\266kZ\335E\264\034j\001\0111\364"
  78      4502B66B 
  78      5ADD45B4 
  78      1C6A0109 
  78      31F4
  79 0025 0A0C8C9D 		.ascii	"\012\014\214\235a@\354@WF6&@\254\235\372\004<@\007\212"
  79      6140EC40 
  79      57463626 
  79      40AC9DFA 
  79      043C4007 
  80 003a 73C78184 		.ascii	"s\307\201\204j)\266\343\370\347/\011\203\361\337Ve\031"
  80      6A29B6E3 
  80      F8E72F09 
  80      83F1DF56 
  80      6519
  81 004c 02B62492 		.ascii	"\002\266$\222\002\361\350\015\030FL\344\022\020\006"
  81      02F1E80D 
  81      18464CE4 
  81      121006
  82 005b 4C835D2A 		.ascii	"L\203]*z\307\374<\235\317\037'/\343{\272\345\032S\227"
  82      7AC7FC3C 
  82      9DCF1F27 
  82      2FE37BBA 
  82      E51A5397 
  83 006f A060099E 		.ascii	"\240`\011\2368\362\305q N\205n\033\311\251\303|\\\346"
  83      38F2C571 
  83      204E856E 
  83      1BC9A9C3 
ARM GAS  /tmp/cclOCkDE.s 			page 6


  83      7C5CE6
  84 0082 F968AD54 		.ascii	"\371h\255T\001\032\342\335\344mb\027\325+\316'O_+1\335"
  84      011AE2DD 
  84      E46D6217 
  84      D52BCE27 
  84      4F5F2B31 
  85 0097 C98084D4 		.ascii	"\311\200\204\324&6,y7\270&K~B\274#1(\324\233T\335Y\230"
  85      26362C79 
  85      37B8264B 
  85      7E42BC23 
  85      3128D49B 
  86 00af BD0AF00A 		.ascii	"\275\012\360\012 \\\014\320\002\300/\200h1\300\177\300"
  86      205C0CD0 
  86      02C02F80 
  86      6831C07F 
  86      C0
  87 00c0 A7AA8840 		.ascii	"\247\252\210@ W\272x\370-\205\"\2348\352\035AY\003\316"
  87      2057BA78 
  87      F82D8522 
  87      9C38EA1D 
  87      415903CE 
  88 00d4 30CBAFF2 		.ascii	"0\313\257\362eKK\346GX\236S\264F\226j\300\007\206\323"
  88      654B4BE6 
  88      47589E53 
  88      B446966A 
  88      C00786D3 
  89 00e8 D97AD55D 		.ascii	"\331z\325]ZC:\345\027\234l]\247Y\267\255M\326:\325\255"
  89      5A433AE5 
  89      179C6C5D 
  89      A759B7AD 
  89      4DD63AD5 
  90 00fd F68936A9 		.ascii	"\366\2116\251m\332\254\257\217z\307\007\373Z\2224\356"
  90      6DDAACAF 
  90      8F7AC707 
  90      FB5A9234 
  90      EE
  91 010e E87ECFE8 		.ascii	"\350~\317\350\303\270S7\370\006o\201U\206"
  91      C3B85337 
  91      F8066F81 
  91      5586
  92              		.text
  93              		.section	.gnu.lto_.symbol_nodes.627a89c1a632f008,"",%progbits
  94 0000 789C4DC7 		.ascii	"x\234M\307\261\021@\000\020D\321\277{\265\251k\317\214"
  94      B1114000 
  94      1044D1BF 
  94      7BB5A96B 
  94      CF8C
  95 0012 40A80289 		.ascii	"@\250\002\211~\364\240\021\004\314\360\262g\314\300"
  95      7EF4A011 
  95      04CCF0B2 
  95      67CCC0
  96 0021 CB9702CB 		.ascii	"\313\227\002\313\016\311:\313\355\350\327\321\361WM"
  96      0EC93ACB 
  96      EDE8D7D1 
  96      F1574D
  97 0030 4E3DED56 		.ascii	"N=\355V\271\330\216S\334\343\365\024\320"
  97      B9D88E53 
ARM GAS  /tmp/cclOCkDE.s 			page 7


  97      DCE3F514 
  97      D0
  98              		.text
  99              		.section	.gnu.lto_.refs.627a89c1a632f008,"",%progbits
 100 0000 789C6362 		.ascii	"x\234cb`b`d\200\002\000\000F\000\006"
 100      60626064 
 100      80020000 
 100      460006
 101              		.text
 102              		.section	.gnu.lto_.decls.627a89c1a632f008,"",%progbits
 103 0000 789CB558 		.ascii	"x\234\265Xkl\024U\024\276wf\267t\333\025\032\010\244"
 103      6B6C1455 
 103      14BE7766 
 103      B774DB15 
 103      1A08A4
 104 0013 26262C11 		.ascii	"&&,\021\014!\300h1F\377\020\205VJ,\266\331B\320_\353"
 104      0C21C068 
 104      3146FF10 
 104      85564A2C 
 104      B6D942D0 
 105 0029 B43BA51B 		.ascii	"\264;\245\033\266\335fg\026\303/o\037\022-\021j\011"
 105      B6DD6667 
 105      16C32F6F 
 105      1F122D11 
 105      6A09
 106 003b 41126216 		.ascii	"A\022b\026\013\026\214\026\323R\012Xq! \265\333\200"
 106      0B168C16 
 106      D3520A58 
 106      712120B5 
 106      DB80
 107 004d 01F14182 		.ascii	"\001\361A\202\254@B\010h\012E\005\245\254\347\336\231"
 107      AC404208 
 107      680A4505 
 107      A5ACE7DE 
 107      99
 108 005e EDCE4C77 		.ascii	"\355\316Lw\366\321\304I\316\335;3\367|\347;\217\373"
 108      F6D1C449 
 108      CEDD3B33 
 108      F77CE73B 
 108      8FFB
 109 0070 98E51087 		.ascii	"\230\345\020\207\2320Bq\270\356\025!T\314!dC\010-G\311"
 109      9A304271 
 109      B8EE1521 
 109      54CC2164 
 109      43082D47 
 110 0085 8BDEEF05 		.ascii	"\213\336\357\005\271\0172\016\342\300h\322E\337\027"
 110      B90F320E 
 110      E2C068D2 
 110      45DF17
 111 0094 82DC0499 		.ascii	"\202\334\004\231\006b\327\364\272@\372A\016\201\364"
 111      0662D7F4 
 111      BA40FA41 
 111      0E81F4
 112 00a3 800C821C 		.ascii	"\200\014\202\034\001\271\243\275?\014r\032\3446\310"
 112      01B9A3BD 
 112      3F0C721A 
 112      E436C8
ARM GAS  /tmp/cclOCkDE.s 			page 8


 113 00b2 2D10AC61 		.ascii	"-\020\254a\321\337\273&\033\324\2763\205\015=~\227\206"
 113      D1DFBB26 
 113      1BD4BE33 
 113      850D3D7E 
 113      9786
 114 00c4 4DED7CA7 		.ascii	"M\355|\247\331\262kvniv\206@F4\033\024\023\\F\017A\376"
 114      D9B26B76 
 114      6E697686 
 114      4046341B 
 114      14135C46 
 115 00db 31D91BB7 		.ascii	"1\331\033\267\360)\225\275\031\000V\000\302\233lq\272"
 115      F02995BD 
 115      19005600 
 115      C29B6C71 
 115      BA
 116 00ec 98D1BE1D 		.ascii	"\230\321\276\035~\363L\361\233\213>&\341Xl\377\365Q"
 116      7EF34CF1 
 116      9B8B3E26 
 116      E1586CFF 
 116      F551
 117 00fe BC9B44DA 		.ascii	"\274\233D\332H<\376\016\232\203v\022\270\302[\010\301"
 117      483CFE0E 
 117      9A837612 
 117      B8C25B08 
 117      C1
 118 010f 8A03BD47 		.ascii	"\212\003\275GH\013\275)\037\232\216\320\033X\304\323"
 118      480BBD29 
 118      1F9A8ED0 
 118      1B58C4D3 
 119 011f 1DC8C53A 		.ascii	"\035\310\305:N\007\343\264\000\355#\244#v\361\341\276"
 119      4E07E3B4 
 119      00ED23A4 
 119      2376F1E1 
 119      BE
 120 0130 4584E48B 		.ascii	"E\204\344\213\270\013;\300\336\333\030-B\007\001\247"
 120      B80B3BC0 
 120      DEDB182D 
 120      420701A7 
 121 0140 03F49FE6 		.ascii	"\003\364\237\346&\247\015e\017=\320~\346$n\001:\"\356"
 121      26A70D65 
 121      0F3DD07E 
 121      E6246E01 
 121      3A22EE
 122 0153 66E05F62 		.ascii	"f\340_b\214D\374)^\2243\324\330\326\301\227\030\313"
 122      8C44FC29 
 122      5E9433D4 
 122      D8D6C197 
 122      18CB
 123 0165 CF18D01F 		.ascii	"\317\030\320\037& \021Os\3509\262\373\304\000\212\306"
 123      2620114F 
 123      73E839B2 
 123      FBC4008A 
 123      C6
 124 0176 5E6B1D5A 		.ascii	"^k\035Z\2703\320\377<<\225/T\363\023<\207\365x\226["
 124      B833D0FF 
 124      3C3C952F 
 124      54F3133C 
ARM GAS  /tmp/cclOCkDE.s 			page 9


 124      87F57896 
 125 018b 2896F664 		.ascii	"(\226\366d\004f\242\017i\006]\272X\274\225\320w\352"
 125      0466A20F 
 125      69065DBA 
 125      58BC95D0 
 125      77EA
 126 019d 6271FE5C 		.ascii	"bq\376\\\011\213\305!<\023P>\347\214\261\310\204BY\364"
 126      098BC521 
 126      3C13503E 
 126      E78CB1C8 
 126      844259F4 
 127 01b1 82A6AAC3 		.ascii	"\202\246\252\3030Id\374\254\223\330\324\347\310\200"
 127      304964FC 
 127      AC93D8D4 
 127      E7C880
 128 01c0 66B8E6A1 		.ascii	"f\270\346\2410\260\215\354\034\336\363$\011\237\302"
 128      30B08DEC 
 128      1CDEF324 
 128      099FC2
 129 01cf 99C8C7B8 		.ascii	"\231\310\307\270\204\335\305\272z\273\273\213g\354\217"
 129      84DDC5BA 
 129      7ABBBB8B 
 129      67EC8F
 130 01de 30F6BD99 		.ascii	"0\366\275\231\331\033a(\275cf\372}QF\377Xf\372m\255"
 130      D91B6128 
 130      BD6366FA 
 130      7D5146FF 
 130      5866FA6D 
 131 01f3 9181A84A 		.ascii	"\221\201\250J\237U_k\332\352\023\361\001\274 \253|s"
 131      9F555F6B 
 131      DAEA13F1 
 131      01BC20AB 
 131      7C73
 132 0205 E81BE609 		.ascii	"\350\033\346\011\245\220\012I\353\252\2276\300H\353"
 132      A5900A49 
 132      EBAA9736 
 132      C048EB
 133 0214 68D4D921 		.ascii	"h\324\331!\212x\220\025\370\231\234\301\\\006\260\343"
 133      8A789015 
 133      F8999CC1 
 133      5C06B0E3 
 134 0224 7AB0916C 		.ascii	"z\260\221l\300\362\255\231\015\352\301~\310\031\314"
 134      C0F2AD99 
 134      0DEAC17E 
 134      C819CC
 135 0233 C8EC841E 		.ascii	"\310\354\204\036\354r6`E\326\314\276\327\203\375\232"
 135      EC723660 
 135      45D6CCBE 
 135      D783FD9A 
 136 0243 33989E59 		.ascii	"3\230\236Ys\344jt\030\223N\347,\324IH3\011\347Y\025"
 136      73E46A74 
 136      18934EE7 
 136      2CD44948 
 136      3309E759 
 137 0258 05426C08 		.ascii	"\005Bl\010I;D\304\303x\226\261H/n\235N\213\224>\317"
 137      493B44C4 
 137      C37896B1 
ARM GAS  /tmp/cclOCkDE.s 			page 10


 137      482F6E9D 
 137      4E8B943E 
 138 026d 3CC72E69 		.ascii	"<\307.iE\232X:\2571\347\250\356\024\252\013\214_\211"
 138      459A583A 
 138      AF31E7A8 
 138      EE14AA0B 
 138      8C5F89
 139 0280 169276A7 		.ascii	"\026\222v\2476\273\302/\037HC\374\274yv\375\024\345"
 139      36BBC22F 
 139      1F4843FC 
 139      BC7976FD 
 139      14E5
 140 0292 5CEAE3CC 		.ascii	"\\\352\343\314\274\177\211\356)&\341\223X[\332\311\026"
 140      BC7F89EE 
 140      2926E193 
 140      585BDAC9 
 140      16
 141 02a3 B25067AB 		.ascii	"\262Pg\253(a\213.~\023\273\304\300b\266 \\`\216\336"
 141      28618B2E 
 141      7E13BBC4 
 141      C062B620 
 141      5C608EDE 
 142 02b7 E052EE11 		.ascii	"\340R\356\021Y\000\215m\355V\367\210K\014\350w\316\274"
 142      59008D6D 
 142      ED56F788 
 142      4B0CE877 
 142      CEBC
 143 02c9 47F0A63D 		.ascii	"G\360\246=\2027\316j\336\221\354\304\343<\312m0\207"
 143      8237CE6A 
 143      DE91ECC4 
 143      E33CCA6D 
 143      3087
 144 02db 1E3083E7 		.ascii	"\0360\203\347\223\365g \231)E-\261\013\375\273X\350"
 144      93F56720 
 144      9929452D 
 144      B10BFDBB 
 144      58E8
 145 02ed 12917894 		.ascii	"\022\221x\2243^\221)'\034j\341\247X6:\317U\247E<\202"
 145      335E9129 
 145      271C6AE1 
 145      A758363A 
 145      CF55A745 
 146 0303 E7417B0E 		.ascii	"\347A{\016Z\235\2016>\213IWl\3414\314\340Q\375\014~"
 146      5A9D8136 
 146      3E8B4957 
 146      6CE134CC 
 146      E051FD0C 
 147 0318 3F673097 		.ascii	"?g0\227\001\354\236\036l[6`.kf\367\365`;r\00632\373"
 147      01EC9E1E 
 147      6C5B3660 
 147      2E6B66F7 
 147      F5603B72 
 148 0330 4B0FF651 		.ascii	"K\017\366Q6`\013\323%\305\220\237\344n(\342\343l\273"
 148      36600BD3 
 148      25C5909F 
 148      E46E28E2 
 148      E36CBB
ARM GAS  /tmp/cclOCkDE.s 			page 11


 149 0343 FA8A65EA 		.ascii	"\372\212e\352\004k#\254=\305\332\323\254\375\226\265"
 149      046B23AC 
 149      3DC5DAD3 
 149      ACFD96B5 
 150 0353 43ACBDC2 		.ascii	"C\254\275\302\332\253\254\375\215\265\327\365\371\265"
 150      DAABACFD 
 150      8DB5D7F5 
 150      F9B5
 151 0361 3E9145FE 		.ascii	">\221E\376\356|\212\256f\375p\012\340\320\036\3368\327"
 151      EE7C8AAE 
 151      66FD700A 
 151      E0D01EDE 
 151      38D7
 152 0373 0C270375 		.ascii	"\014'\003u\253\267Zmn\002@\352Ee\322;\016u3;\275S\333"
 152      ABB75A6D 
 152      6E0240EA 
 152      4565D23B 
 152      0E75333B 
 153 038a 63618A8D 		.ascii	"ca\212\215m\037\351\304;Z\311\320\263\211\363nO\316"
 153      6D1FE9C4 
 153      3B5AC9D0 
 153      B389F36E 
 153      4FCE
 154 039c 882E3D62 		.ascii	"\210.=b\344\3500$6\227#\361\215\273\270\225\035\211"
 154      E4E83024 
 154      369723F1 
 154      8DBBB895 
 154      1D89
 155 03ae EF30FB7D 		.ascii	"\3570\373}\274y\225\262\233V)\273q\341\261;\222\235"
 155      BC7995B2 
 155      9B5629BB 
 155      71E1B13B 
 155      929D
 156 03c0 89B34724 		.ascii	"\211\263G$\033/R\355\360\251+\252WWQ}\254\242\016\263"
 156      1B2F52ED 
 156      F0A92BAA 
 156      5757517D 
 156      ACA20EB3 
 157 03d4 DAB8C5DA 		.ascii	"\332\270\305\332\333\231*\204B\364\340\302$\336\272"
 157      DB992A84 
 157      42F4E0C2 
 157      24DEBA
 158 03e3 E462CAA1 		.ascii	"\344b\312\241\263&\217\347\243.B:\341[&b\203o\031\233"
 158      B3268FE7 
 158      A32E423A 
 158      E15B2662 
 158      836F199B 
 159 03f7 AACAA10B 		.ascii	"\252\312\241\013l\330^<\327\342`\246\031x\006\355\247"
 159      6CD85E3C 
 159      D7E260A6 
 159      197806ED 
 159      A7
 160 0408 A1FFFA46 		.ascii	"\241\377\372FU\271\232R\224FK\2433\212\015\3375\352"
 160      55B99A52 
 160      94464BA3 
 160      338A0DDF 
 160      35EA
ARM GAS  /tmp/cclOCkDE.s 			page 12


 161 041a C754647C 		.ascii	"\307Td|K\024\266\177\362\210\256\346\206o)\021/\237"
 161      4B14B67F 
 161      F288AEE6 
 161      866F2911 
 161      2F9F
 162 042c 6DE9E79F 		.ascii	"m\351\347\237\306\363\274\312k\342F%d\216\300\217)#"
 162      C6F3BCCA 
 162      6BE24625 
 162      648EC08F 
 162      2923
 163 043e 40C6BCE5 		.ascii	"@\306\274\345\252\272\210\357\001C\021\337O\357\274"
 163      AABA88EF 
 163      014311DF 
 163      4FEFBC
 164 044d A6362095 		.ascii	"\2466 \225'\212\371\032\003\266V\323\350\260\230\021"
 164      278AF91A 
 164      03B656D3 
 164      E8B09811 
 165 045d F20179B7 		.ascii	"\362\001y\267\0103\347\220\246e(\202\007)\243t\371\254"
 165      0833E790 
 165      A6652882 
 165      0729A374 
 165      F9AC
 166 046f B3A33916 		.ascii	"\263\2439\026\217\317\315>D\217\323\204(\207\357\324"
 166      8FCFCD3E 
 166      448FD384 
 166      2887EFD4 
 167 047f 2FF6ABDF 		.ascii	"/\366\253\337\251\315\034u\365\346\244y\323\215\247"
 167      A9CD1C75 
 167      F5E6A479 
 167      D38DA7
 168 048e F209684A 		.ascii	"\362\011hJ\315\250Eq\376\3733\237,\316D~\306\263\312"
 168      CDA84571 
 168      FEFB339F 
 168      2CCE447E 
 168      C6B3CA
 169 04a1 4F1FCD8F 		.ascii	"O\037\315\217J\3721C\267V\243\243\254\3623n\316O\033"
 169      4AFA3143 
 169      B756A3A3 
 169      ACF2336E 
 169      CE4F1B
 170 04b4 37293F31 		.ascii	"7)?1\010\323\336\023\305\273\311\251\024\177\011\244"
 170      08D3DE13 
 170      C5BBC9A9 
 170      147F09A4 
 171 04c4 CD513B67 		.ascii	"\315Q;g\312Q\177\2122\236\270\327x\232b\327j3\306.A"
 171      CA517F8A 
 171      329EB8D7 
 171      789A62D7 
 171      6A33C62E 
 172 04d9 749B91A8 		.ascii	"t\233\221\250io\240\226\255Xm\347&\026\021\264T\250"
 172      696FA096 
 172      AD586DE7 
 172      261611B4 
 172      54A8
 173 04eb 0F344842 		.ascii	"\0174HBm\300\273Y\360J\233\204\332z_\215/ \013J0\324"
 173      6DC0BB59 
ARM GAS  /tmp/cclOCkDE.s 			page 13


 173      F04A9B84 
 173      DA7A5F8D 
 173      2F200B4A 
 174 0501 B851804E 		.ascii	"\270Q\200N\275\350\027\344`\255\320$\372\227\326\242"
 174      BDE817E4 
 174      60ADD024 
 174      FA97D6A2 
 175 0511 B26C8637 		.ascii	"\262l\2067\005\202\212,T\257]\263\254D\250\250(\025"
 175      05828A2C 
 175      54AF5DB3 
 175      AC44A8A8 
 175      2815
 176 0523 5655ADAE 		.ascii	"VU\255\256\334TB\021<~\277wi=r\372\002tL\203(o\364("
 176      DC544211 
 176      3C7EBF77 
 176      693D72FA 
 176      02744C83 
 177 053b 79AB5E5F 		.ascii	"y\253^_\347Z\211\346\013!9(\210\301\206%\215\201Fi\211"
 177      E75A89E6 
 177      0B213928 
 177      88C18625 
 177      8D814669 
 178 0550 24D6F804 		.ascii	"$\326\370\004_c\255?\344\225\004Y\361\372\032\025P\314"
 178      5F63AD3F 
 178      E4950459 
 178      F1FA1A15 
 178      50CC
 179 0562 0FC1EFB2 		.ascii	"\017\301\357\262\022\217\362|\232\321\015\"\260j\224"
 179      128FF27C 
 179      9AD10D22 
 179      B06A94
 180 0571 048F57AA 		.ascii	"\004\217W\252\023C~\305\243ln\222d\320.\360x\022\372"
 180      13437EC5 
 180      A36C6E92 
 180      64D02EF0 
 180      7812FA
 181 0584 25D9F891 		.ascii	"%\331\370\221\000\244\256\327#\373\352\312\025!\331"
 181      00A4AED7 
 181      23FBEACA 
 181      1521D9
 182 0593 292B0D00 		.ascii	")+\015\000\260\241\311\027\360(\3665\225\245e\356\274"
 182      B0A1C917 
 182      F028F635 
 182      95A565EE 
 182      BC
 183 05a4 CAB56F56 		.ascii	"\312\265oV\225\271\247UVW\225\225\225\272\355U\353\252"
 183      95B9A755 
 183      56579595 
 183      95BAED55 
 183      EBAA
 184 05b6 4ADDFC6A 		.ascii	"J\335\374j\220\312R7^\3178?\367\202G\321\314\323./K"
 184      90CA5237 
 184      5ECF383F 
 184      F78247D1 
 184      CCD32E2F 
 185 05cb 8ABDD62F 		.ascii	"\212\275\326/\211A\\n[Q\355v\333*V\276\346\266\275\362"
 185      89415C6E 
ARM GAS  /tmp/cclOCkDE.s 			page 14


 185      5B51ED76 
 185      DB2A56BE 
 185      E6B6BDF2 
 186 05df AABB8236 		.ascii	"\252\273\2026\345\374\012\267\273@\015\222\317\013!"
 186      E5FC0AB7 
 186      BB400D92 
 186      CF0B21
 187 05ee 523B361A 		.ascii	"R;6\0320'\305\360\324\211\262\362\"\274\010\324\325"
 187      3027C5F0 
 187      D489B2F2 
 187      22BC08D4 
 187      D5
 188 05ff 01540130 		.ascii	"\001T\0010tK\242\027\370\3615!\271\020n\327\007}\212"
 188      744BA217 
 188      F8F13521 
 188      B9106ED7 
 188      077D8A
 189 0612 04F7B61A 		.ascii	"\004\367\266\032\237\"\347\373\002\015\001\257\344Q"
 189      9F22E7FB 
 189      020D01AF 
 189      E451
 190 0620 9E8037D5 		.ascii	"\236\2007\325\222\002\317\327\300\275\215>\234\355\321"
 190      9202CFD7 
 190      C0BD8D3E 
 190      9CEDD1
 191 062f F2E201A0 		.ascii	"\362\342\001\240\015\301@\250\211>\375\017r\336\345"
 191      0DC140A8 
 191      893EFD0F 
 191      72DEE5
 192 063e 88       		.ascii	"\210"
 193              		.text
 194              		.section	.gnu.lto_.symtab.627a89c1a632f008,"",%progbits
 195 0000 70616C52 		.ascii	"palReadBus\000\000\000\000\000\000\000\000\000\000\000"
 195      65616442 
 195      75730000 
 195      00000000 
 195      00000000 
 196 0015 00A10000 		.ascii	"\000\241\000\000\000palWriteBus\000\000\000\000\000"
 196      0070616C 
 196      57726974 
 196      65427573 
 196      00000000 
 197 002a 00000000 		.ascii	"\000\000\000\000\000\000\000\364\000\000\000palSetB"
 197      000000F4 
 197      00000070 
 197      616C5365 
 197      7442
 198 003c 75734D6F 		.ascii	"usMode\000\000\000\000\000\000\000\000\000\000\000\000"
 198      64650000 
 198      00000000 
 198      00000000 
 198      0000
 199 004e FD000000 		.ascii	"\375\000\000\000_pal_lld_setgroupmode\000\000\002\000"
 199      5F70616C 
 199      5F6C6C64 
 199      5F736574 
 199      67726F75 
ARM GAS  /tmp/cclOCkDE.s 			page 15


 200 006b 00000000 		.ascii	"\000\000\000\000\000\000\000\000\011\001\000\000"
 200      00000000 
 200      09010000 
 201              		.text
 202              		.section	.gnu.lto_.opts,"",%progbits
 203 0000 272D6D63 		.ascii	"'-mcpu=cortex-m4' '-mfloat-abi=hard' '-mfpu=fpv4-sp"
 203      70753D63 
 203      6F727465 
 203      782D6D34 
 203      2720272D 
 204 0033 2D643136 		.ascii	"-d16' '-mno-thumb-interwork' '-mthumb' '-O2' '-fomi"
 204      2720272D 
 204      6D6E6F2D 
 204      7468756D 
 204      622D696E 
 205 0066 742D6672 		.ascii	"t-frame-pointer' '-falign-functions=16' '-ffunction"
 205      616D652D 
 205      706F696E 
 205      74657227 
 205      20272D66 
 206 0099 2D736563 		.ascii	"-sections' '-fdata-sections' '-fno-common' '-flto' "
 206      74696F6E 
 206      73272027 
 206      2D666461 
 206      74612D73 
 207 00cc 272D6673 		.ascii	"'-fsingle-precision-constant'\000"
 207      696E676C 
 207      652D7072 
 207      65636973 
 207      696F6E2D 
 208              		.text
 209              		.section	.text.palReadBus,"ax",%progbits
 210              		.align	2
 211              		.p2align 4,,15
 212              		.global	palReadBus
 213              		.thumb
 214              		.thumb_func
 215              		.type	palReadBus, %function
 216              	palReadBus:
 217              		@ args = 0, pretend = 0, frame = 0
 218              		@ frame_needed = 0, uses_anonymous_args = 0
 219              		@ link register save eliminated.
 220 0000 0368     		ldr	r3, [r0]
 221 0002 8268     		ldr	r2, [r0, #8]
 222 0004 1969     		ldr	r1, [r3, #16]
 223 0006 4368     		ldr	r3, [r0, #4]
 224 0008 21FA02F0 		lsr	r0, r1, r2
 225 000c 1840     		ands	r0, r0, r3
 226 000e 7047     		bx	lr
 227              		.size	palReadBus, .-palReadBus
 228              		.section	.text.palWriteBus,"ax",%progbits
 229              		.align	2
 230              		.p2align 4,,15
 231              		.global	palWriteBus
 232              		.thumb
 233              		.thumb_func
 234              		.type	palWriteBus, %function
ARM GAS  /tmp/cclOCkDE.s 			page 16


 235              	palWriteBus:
 236              		@ args = 0, pretend = 0, frame = 0
 237              		@ frame_needed = 0, uses_anonymous_args = 0
 238              		@ link register save eliminated.
 239 0000 0DC8     		ldmia	r0, {r0, r2, r3}
 240 0002 30B4     		push	{r4, r5}
 241 0004 22EA0105 		bic	r5, r2, r1
 242 0008 03F11004 		add	r4, r3, #16
 243 000c 0A40     		ands	r2, r2, r1
 244 000e 02FA03F3 		lsl	r3, r2, r3
 245 0012 05FA04F2 		lsl	r2, r5, r4
 246 0016 1343     		orrs	r3, r3, r2
 247 0018 8361     		str	r3, [r0, #24]
 248 001a 30BC     		pop	{r4, r5}
 249 001c 7047     		bx	lr
 250              		.size	palWriteBus, .-palWriteBus
 251 001e 00BF     		.section	.text.palSetBusMode,"ax",%progbits
 252              		.align	2
 253              		.p2align 4,,15
 254              		.global	palSetBusMode
 255              		.thumb
 256              		.thumb_func
 257              		.type	palSetBusMode, %function
 258              	palSetBusMode:
 259              		@ args = 0, pretend = 0, frame = 0
 260              		@ frame_needed = 0, uses_anonymous_args = 0
 261              		@ link register save eliminated.
 262 0000 10B4     		push	{r4}
 263 0002 0A46     		mov	r2, r1
 264 0004 4468     		ldr	r4, [r0, #4]
 265 0006 8168     		ldr	r1, [r0, #8]
 266 0008 0068     		ldr	r0, [r0]
 267 000a 04FA01F1 		lsl	r1, r4, r1
 268 000e 5DF8044B 		ldr	r4, [sp], #4
 269 0012 FFF7FEBF 		b	_pal_lld_setgroupmode
 270              		.size	palSetBusMode, .-palSetBusMode
 271              		.comm	__gnu_lto_v1,1,1
 272 0016 00BFAFF3 		.ident	"GCC: (GNU Tools for ARM Embedded Processors) 4.8.4 20140526 (release) [ARM/embedded-4_8-br
 272      0080AFF3 
 272      0080
ARM GAS  /tmp/cclOCkDE.s 			page 17

