ARM GAS  /tmp/ccVYm6nd.s 			page 1


   1              		.syntax unified
   2              		.cpu cortex-m4
   3              		.eabi_attribute 27, 3
   4              		.eabi_attribute 28, 1
   5              		.fpu fpv4-sp-d16
   6              		.eabi_attribute 20, 1
   7              		.eabi_attribute 21, 1
   8              		.eabi_attribute 23, 3
   9              		.eabi_attribute 24, 1
  10              		.eabi_attribute 25, 1
  11              		.eabi_attribute 26, 1
  12              		.eabi_attribute 30, 2
  13              		.eabi_attribute 34, 1
  14              		.eabi_attribute 18, 4
  15              		.thumb
  16              		.file	"pal_lld.c"
  17              		.section	.gnu.lto_.jmpfuncs.d3727e78fb3887f8,"",%progbits
  18 0000 789C6362 		.ascii	"x\234cb`b\300\006\330\2404\023\003##;\003\000\001/\000"
  18      6062C006 
  18      D8A03413 
  18      0323233B 
  18      0300012F 
  19 0015 16       		.ascii	"\026"
  20              		.text
  21              		.section	.gnu.lto_.inline.d3727e78fb3887f8,"",%progbits
  22 0000 789C6362 		.ascii	"x\234cb`b\300\006vBi\240\354]\206;\014\214\354\014\214"
  22      6062C006 
  22      764269A0 
  22      EC5D863B 
  22      0C8CEC0C 
  23 0015 0C0CCC0A 		.ascii	"\014\014\314\012`\322\001L&\200\311\006F0\265\000B\035"
  23      60D2014C 
  23      2680C906 
  23      4630B500 
  23      421D
  24 0027 80500C02 		.ascii	"\200P\014\002\315\214;\376\2633h\336\330\300\304\304"
  24      CD8C3BFE 
  24      B33368DE 
  24      D8C0C4C4 
  25 0037 C0F8829D 		.ascii	"\300\370\202\235\005B\202\010\0160\223\003D\010\200"
  25      05428208 
  25      0E309303 
  25      440880
  26 0046 99022042 		.ascii	"\231\002 B\001\314T\000\021\016`\246\003\210h`d\202"
  26      01CC5400 
  26      110E60A6 
  26      03886860 
  26      6482
  27 0058 50601262 		.ascii	"P`\022bT\003\330\275\214\0146\233\230\030\031\231\200"
  27      5403D8BD 
  27      8C0C369B 
  27      98181999 
  27      80
  28 0069 B6313087 		.ascii	"\26610\207\264\234W`\020\232s\221\231\211A\350B\017"
  28      B49C5760 
  28      109A7391 
  28      998941E8 
ARM GAS  /tmp/ccVYm6nd.s 			page 2


  28      420F
  29 007b 230BD8E1 		.ascii	"#\013\330\341\000\237`\037*"
  29      009F601F 
  29      2A
  30              		.text
  31              		.section	.gnu.lto_.pureconst.d3727e78fb3887f8,"",%progbits
  32 0000 789C6362 		.ascii	"x\234cb`b`e\200\000&\006)F)\000\001\006\000A"
  32      60626065 
  32      80002606 
  32      29462900 
  32      01060041 
  33              		.text
  34              		.section	.gnu.lto__pal_lld_init.d3727e78fb3887f8,"",%progbits
  35 0000 789CADD9 		.ascii	"x\234\255\331\313o\033U\024\006\360{\307\231\361\370"
  35      CB6F1B55 
  35      1406F07B 
  35      C799F1F8 
  36 0010 EDBC5FCE 		.ascii	"\355\274_\316\273y?&q\236\177\000\250\252T\004\022F"
  36      BB793F26 
  36      719E7F00 
  36      A8AA5404 
  36      1246
  37 0022 82154A9D 		.ascii	"\202\025J\235\312\261HI\324\226H\254:\206\200\272@\302"
  37      CAB14849 
  37      D49648AC 
  37      3A8680BA 
  37      40C2
  38 0034 0B242ABA 		.ascii	"\013$*\272\201v\201(RY\260\011\002\211\264\213*Y\264"
  38      81768128 
  38      5259B009 
  38      0289B48B 
  38      2A59B4
  39 0047 0A3BD455 		.ascii	"\012;\324U\005R\272`\303\012\272+s\346\330\3413\330"
  39      0552BA60 
  39      C30ABA2B 
  39      73E6D8E1 
  39      33D8
  40 0059 BE20DF91 		.ascii	"\276 \337\221\362y,\317=\363\313\315|\222\245\030\302"
  40      F2792CCF 
  40      3DF3CBCD 
  40      7C92A518 
  40      C2
  41 006a 10FF3CBA 		.ascii	"\020\377<\272\275\237\270\027g\275W\031\020\322(>\022"
  41      BD9FB817 
  41      67BD5719 
  41      10D2283E 
  41      12
  42 007b A2601B52 		.ascii	"\242`\033R\322\211\220\342\232!\257\275!\375k\2771\016"
  42      D28990E2 
  42      9A21AFBD 
  42      21FD6BBF 
  42      310E
  43 008d 9E3C7F7E 		.ascii	"\236<\177~\367\331\203\273?\310\257\214\254!\362R\004"
  43      F7D983BB 
  43      3FC8AF8C 
  43      AC21F252 
  43      04
ARM GAS  /tmp/ccVYm6nd.s 			page 3


  44 009e 284C0A8B 		.ascii	"(L\012\213\302\226\227\244H\320Y\222\242\231\242\205"
  44      C29697A4 
  44      48D05992 
  44      A299A285 
  45 00ae A295A28D 		.ascii	"\242\225\242\215\242\235\242\203\242\223\242\213\242"
  45      A29DA283 
  45      A293A28B 
  45      A2
  46 00bb 9BA287A2 		.ascii	"\233\242\207\242\227\"E\321G\321O1@1H1D1L1Bq\206b\224"
  46      972245D1 
  46      47D14F31 
  46      40314831 
  46      44314C31 
  47 00d4 628C629C 		.ascii	"b\214b\234b\202b\222b\212b\232b\206b\226b\216\302\241"
  47      62826292 
  47      628A629A 
  47      62866296 
  47      628EC2A1 
  48 00e8 98A758A0 		.ascii	"\230\247X\240HS,R,Q,S\254P\254R\254Qx\207)\366\\\267"
  48      48532C52 
  48      2C512C53 
  48      AC50AC52 
  48      AC517887 
  49 0100 382844D6 		.ascii	"8(D\326\177\233\361\222v\3505i\320k\340\241\270\377"
  49      7F9BF192 
  49      76E83569 
  49      D06BE0A1 
  49      B8FF
  50 0112 78FF8F63 		.ascii	"x\377\217cc]~!M\221\223\306\264\270\343\356\025\222"
  50      635D7E21 
  50      4D9193C6 
  50      B4B8E3EE 
  50      1592
  51 0124 79296F8A 		.ascii	"y)o\212\317d^\032\257{\021p\177\277\3566\011\377\324"
  51      CF645E1A 
  51      AF7B1170 
  51      7FBFEE36 
  51      09FFD4
  52 0137 DFD20BB2 		.ascii	"\337\322\013\262\374\207x(\336\377.P^\035\310\361\365"
  52      FC877828 
  52      DEFF2E50 
  52      5E1DC8F1 
  52      F5
  53 0148 DEAF4E9F 		.ascii	"\336\257N\237\334?\307\037\374\277\2319zO\256\303\335"
  53      DC3FC71F 
  53      FCBF9939 
  53      7A4FAEC3 
  53      DD
  54 0159 F25CF3BF 		.ascii	"\362\\\363\277N\220\325T\2267\240\001\225,\251,Z\374"
  54      4E90D554 
  54      9637A001 
  54      952CA92C 
  54      5AFC
  55 016b DEE367BF 		.ascii	"\336\343g\277\034\007N7\225O\334/?\356\025\202\247f"
  55      1C074E37 
  55      954FDC2F 
  55      3FEE1582 
ARM GAS  /tmp/ccVYm6nd.s 			page 4


  55      A766
  56 017d F9FA9C4C 		.ascii	"\371\372\234L\320\374\242{\360\351\207}y\331\344\335"
  56      D0FCA27B 
  56      F0E9877D 
  56      79D9E4DD 
  57 018d A2E0BADE 		.ascii	"\242\340\272\336\315\314\234\264i\272U\232n\320\302"
  57      CDCC9CB4 
  57      69BA559A 
  57      6ED0C2
  58 019c AFBD856C 		.ascii	"\257\275\205l;:\016\257\313;\247:w\201y\205\"\255\015"
  58      3B3A0EAF 
  58      CB3BA73A 
  58      77817985 
  58      22AD0D
  59 01af D242DB75 		.ascii	"\322B\333u\313B\2734#p:\303\273-+o\374z\034\340A9\231"
  59      CB42BB34 
  59      23703AC3 
  59      BB2D2B6F 
  59      FC7A1CE0 
  60 01c6 A459C97A 		.ascii	"\244Y\311z\210&\015\010\023\020IF\354\003\242Y\211\260"
  60      88260D08 
  60      13104946 
  60      EC03A259 
  60      89B0
  61 01d8 34208280 		.ascii	"4 \202\200hf\304\317\200hQ\"l\015\210\020 ZJ\017\015"
  61      6866C4CF 
  61      80685122 
  61      6C0D8810 
  61      205A4A0F 
  62 01ed 205A9588 		.ascii	" Z\225\210\260\006D\004\020\255\245g\342\344oD\233\022"
  62      B0064404 
  62      10ADA567 
  62      E2E46F44 
  62      9B12
  63 01ff 11D58088 		.ascii	"\021\325\200\210\001\242\255\364L\000\242]\211\210k"
  63      01A2ADF4 
  63      4C00A25D 
  63      89886B
  64 020e 402400D1 		.ascii	"@$\000\321^\273\303\337V\351p\207\242\303)\350\360Q"
  64      5EBBC3DF 
  64      56E97087 
  64      A2C329E8 
  64      F051
  65 0220 A5F2B0BE 		.ascii	"\245\362\260\276\362z\325\016\037\261\262\003;|\350"
  65      F27AD50E 
  65      1FB1B203 
  65      3B7CE8
  66 022f 6F5567ED 		.ascii	"oUg\355\255JA\207\033D\230\200\350\304\0163\242K\211"
  66      AD4A4187 
  66      1B449880 
  66      E8C40E33 
  66      A24B89
  67 0242 B0342082 		.ascii	"\2604 \202\200\350\302\0163\242[\211\2605 B\200\350"
  67      80E8C20E 
  67      33A25B89 
  67      B0352042 
  67      80E8
ARM GAS  /tmp/ccVYm6nd.s 			page 5


  68 0254 C60E33A2 		.ascii	"\306\0163\242G\211\010k@D\000\321\203\035fD\257\022"
  68      4789086B 
  68      404400D1 
  68      831D6644 
  68      AF12
  69 0266 11D58088 		.ascii	"\021\325\200\210\001\242\027;\314\210\224\022\021\327"
  69      01A2173B 
  69      CC889412 
  69      11D7
  70 0274 80480022 		.ascii	"\200H\000\"U\273\303?V\351p\237\242\303k\320\341\247"
  70      55BBC33F 
  70      56E9709F 
  70      A2C36BD0 
  70      E1A7
  71 0286 95CA93FA 		.ascii	"\225\312\223\372\312b\325\016?ee\037v\370\304\337\252"
  71      CA62D50E 
  71      3F65651F 
  71      76F8C4DF 
  71      AA
  72 0297 FEDA5BB5 		.ascii	"\376\332[\265\006\035n\020a\002\242\037;\314\210\001"
  72      061D6E10 
  72      6102A21F 
  72      3BCC8801 
  73 02a7 25C2D280 		.ascii	"%\302\322\200\010\002b\000;\314\210A%\302\326\200\010"
  73      08026200 
  73      3BCC8841 
  73      25C2D680 
  73      08
  74 02b8 0162103B 		.ascii	"\001b\020;\314\210!%\"\254\001\021\001\304\020v\230"
  74      CC882125 
  74      22AC0111 
  74      01C41076 
  74      98
  75 02c9 11C34A44 		.ascii	"\021\303JDT\003\"\006\210a\3540#F\224\210\270\006D\002"
  75      54032206 
  75      8861EC30 
  75      23469488 
  75      B8064402 
  76 02dd 1023B53B 		.ascii	"\020#\265;\374[\225\016\237Qt8\003\035\376\300\250P"
  76      FC5B950E 
  76      9F517438 
  76      031DFEC0 
  76      A850
  77 02ef EE197595 		.ascii	"\356\031u\2257\252v\330\237\341\335\026;L\203rr\264"
  77      37AA76D8 
  77      9FE1DD16 
  77      3B4C8372 
  77      72B4
  78 0301 F65665A0 		.ascii	"\366Ve\240\303\015\"L@\214b\207\0311\246DX\032\020A"
  78      C30D224C 
  78      408C6287 
  78      1931A644 
  78      581A1041 
  79 0315 408C6187 		.ascii	"@\214a\207\0311\256D\330\032\020!@\214c\207\0311\241"
  79      1931AE44 
  79      D81A1021 
  79      408C6387 
ARM GAS  /tmp/ccVYm6nd.s 			page 6


  79      1931A1
  80 0328 44843520 		.ascii	"D\2045 \"\200\230\300\0163bR\211\210j@\304\0001\211"
  80      228098C0 
  80      0E336252 
  80      89886A40 
  80      C4003189 
  81 033c 1D66C494 		.ascii	"\035f\304\224\022\021\327\200H\000b\252v\207\377\254"
  81      1211D780 
  81      480062AA 
  81      7687FFAC 
  82 034c D2E16945 		.ascii	"\322\341iE\207w\240\303\267+\225\267\352+?\257\332\341"
  82      8777A0C3 
  82      B72B95B7 
  82      EA2B3FAF 
  82      DAE1
  83 035e DBAC9CC6 		.ascii	"\333\254\234\306\016\337\362\267j\246\366V\355@\207"
  83      0EDFF2B7 
  83      6AA6F656 
  83      ED4087
  84 036d 1B449880 		.ascii	"\033D\230\200\230\301\0163bV\211\2604 \202\200\230\305"
  84      98C10E33 
  84      625689B0 
  84      34208280 
  84      98C5
  85 037f 0E33624E 		.ascii	"\0163bN\211\2605 B\200\230\303\0163\302Q\"\302\032\020"
  85      89B03520 
  85      428098C3 
  85      0E33C251 
  85      22C21A10 
  86 0393 114038D8 		.ascii	"\021@8\330aF\314+\021Q\015\210\030 \346\261\303\214"
  86      6146CC2B 
  86      11510D88 
  86      1820E6B1 
  86      C38C
  87 03a5 585022E2 		.ascii	"XP\"\342\032\020\011@,\324\356\360\367\237\374\273\303"
  87      1A100940 
  87      2CD4EEF0 
  87      F79FFCBB 
  87      C3
  88 03b6 6945873F 		.ascii	"iE\207?\222P\342{\225\314\203\372\314\375\252%\276\307"
  88      9250E27B 
  88      95CC83FA 
  88      CCFDAA25 
  88      BEC7
  89 03c8 CC3496F8 		.ascii	"\3144\226\370\300\337\253\305\332{UV4iP\230\240X\304"
  89      C0DFABC5 
  89      DA7B5556 
  89      34695098 
  89      A058C4
  90 03db 16B36249 		.ascii	"\026\263bI\255\2604(\202\240X\302\032\263bY\255\260"
  90      ADB03428 
  90      82A058C2 
  90      1AB36259 
  90      ADB0
  91 03ed 352842A0 		.ascii	"5(B\240X\306\036\263bE\255\010kPD@\261\202Ef\305\252"
  91      58C61EB3 
  91      6245AD08 
ARM GAS  /tmp/ccVYm6nd.s 			page 7


  91      6B504440 
  91      B1824566 
  92 0403 5A11D5A0 		.ascii	"Z\021\325\240\210\201b\025\233\314\2125\265\"\256A\221"
  92      88816215 
  92      9BCC8A35 
  92      B522AE41 
  92      91
  93 0414 0085F74D 		.ascii	"\000\205\367M\375'Qxrs\224;[>2^w\213\217\374\377\240"
  93      FD275178 
  93      7273943B 
  93      5B3E325E 
  93      778B8FFC 
  94 042a BCE86C6E 		.ascii	"\274\350ln_\272\350d\2677\336u6.\356:\331\315\374\205"
  94      5FBAE864 
  94      B737DE75 
  94      362EEE3A 
  94      D9CDFC85 
  95 043e FCF615E7 		.ascii	"\374\366\025\347\352\345w\336~\313\361N6\327\267\234"
  95      EAE577DE 
  95      7ECBF14E 
  95      36D7B79C 
  96 044e 9DEDCB57 		.ascii	"\235\355\313W\2578\257f^ZL;\347\317\277\340\234}\345"
  96      AF38AF66 
  96      5E5A4C3B 
  96      E7CFBFE0 
  96      9C7DE5
  97 0461 DCCBBB69 		.ascii	"\334\313\273igg}\353\315\255\255\215\271\254\370\013"
  97      67677DEB 
  97      CDADAD8D 
  97      B9ACF80B 
  98 0471 0176E3ED 		.ascii	"\001v\343\355"
  99              		.text
 100              		.section	.gnu.lto__pal_lld_setgroupmode.d3727e78fb3887f8,"",%progbits
 101 0000 789C9556 		.ascii	"x\234\225V[hTG\030\236\231s\316\336\022\215\03217\215"
 101      5B685447 
 101      189E9973 
 101      CEDE128D 
 101      1A31378D 
 102 0014 F17E8966 		.ascii	"\361~\211fsQ\203\2461\344\246\026\354\005\252\240\364"
 102      735183A6 
 102      31E4A616 
 102      EC05AAA0 
 102      F4
 103 0025 4137D965 		.ascii	"A7\331e\223\232u\227M\024l\241n\334}\010*%H\314\246"
 103      939A7597 
 103      4D146CA1 
 103      6EDC7D08 
 103      2A2548CC 
 104 003a F6A15A29 		.ascii	"\366\241Z)Ro\251\025\2655\"Q\204Zj\013}\322\025KRA\363"
 104      526FA915 
 104      B5352251 
 104      845A6A0B 
 104      7DD2154B 
 105 0051 D060B1D0 		.ascii	"\320`\261\320\326\007\333\355\377\317\345\354n\022\330"
 105      D607DBED 
 105      FFCFE5EC 
 105      6E12D8
ARM GAS  /tmp/ccVYm6nd.s 			page 8


 106 0060 CD42FE39 		.ascii	"\315B\37693\337\377\375\347\233o\346\314\204\021F&\376"
 106      33DFFFFD 
 106      E79B6FE6 
 106      CC841146 
 106      26FE
 107 0072 0EC15F34 		.ascii	"\016\301_4\233\2200\2644\213P\326\3733!\3356F5\361\240"
 107      9B9030B4 
 107      348B50D6 
 107      FB3321DD 
 107      364635F1 
 108 0087 31BD6705 		.ascii	"1\275g\005\0119l\030\263uf\360\236\205\367\014j\025"
 108      09396C18 
 108      B37566F0 
 108      9E85F70C 
 108      6A15
 109 0099 4916F560 		.ascii	"I\026\365`\2456\361`c\216\210\025\022\355\307\277'\220"
 109      A536F160 
 109      638E8815 
 109      12EDC7BF 
 109      2790
 110 00ab 6917E5EE 		.ascii	"i\027\345\356\330\034\224\342\003\241\3440\323t\303"
 110      D81C94E2 
 110      03A1E430 
 110      D374C3
 111 00ba 62B5D91D 		.ascii	"b\265\331\035\364\360n\212R\262\026\2233\241P\357\350"
 111      F4F06E8A 
 111      52B21693 
 111      33A150EF 
 111      E8
 112 00cb B31B2FE9 		.ascii	"\263\033/\351\247}\303\221\323\241\327\3618\245\355"
 112      A77DC391 
 112      D3A1D7F1 
 112      38A5ED
 113 00da 14646FA3 		.ascii	"\024do\243\244\225\222]\320\241%\274az\352<8\367\304"
 113      A495925D 
 113      D0A125BC 
 113      617AEA3C 
 113      38F7C4
 114 00ed 70FCE827 		.ascii	"p\374\350'\005\241\323GzC\377\001\265\235j\214\274\235"
 114      05A1D347 
 114      7A43FF01 
 114      B59D6A8C 
 114      BC9D
 115 00ff 21B3F7C7 		.ascii	"!\263\367\307\354\336\356\236P<~\230\323vdH;\221J{?"
 115      ECDEEE9E 
 115      503C7E98 
 115      D3766448 
 115      3B914A7B 
 116 0114 435A5F2A 		.ascii	"CZ_*\2555CZ\177*\255=C\332@*m\177\206\264\317\217\365"
 116      AD35435A 
 116      7F2AAD3D 
 116      43DA402A 
 116      6D7F86B4 
 117 012b 4D303398 		.ascii	"M03\230\0313\364\227\373~(2\034\217\327q\326G\031\262"
 117      1933F497 
 117      FB7E2832 
 117      1C8FD771 
ARM GAS  /tmp/ccVYm6nd.s 			page 9


 117      D64719B2 
 118 013f FE4D617D 		.ascii	"\376Ma}\234!\353\244'\231\325M\323\321\006\331\360h"
 118      9C21EBA4 
 118      2799D54D 
 118      D3D106D9 
 118      F068
 119 0151 3CFEE4E1 		.ascii	"<\376\344\341\370\3238\235\263\225\022\037\356/\027"
 119      F8D3389D 
 119      B395121F 
 119      EE2F17
 120 0160 3D4B1713 		.ascii	"=K\027\023\015\332/\241\325\241=\007\255\001\355W\320"
 120      0DDA2FA1 
 120      D5A13D07 
 120      AD01ED57 
 120      D0
 121 0171 5AA0BD04 		.ascii	"Z\240\275\004\255\203\372(|$\"9\033\354\327gH\306L\354"
 121      AD83FA28 
 121      7C242239 
 121      1BECD767 
 121      48C64CEC 
 122 0185 E448DA2C 		.ascii	"\344H\332,\354\314\226\3349\330\311\205\316\005\350"
 122      ECCC96DC 
 122      39D8C985 
 122      CE05E8
 123 0194 CC850264 		.ascii	"\314\205\002d\036\216\344a\310\307P\200\313X\010\011"
 123      1E8EE461 
 123      C8C75080 
 123      CB580809 
 124 01a4 83905084 		.ascii	"\203\220P\204\235\371\320\271\006\235\005\220\315\212"
 124      9DF9D0B9 
 124      069D0590 
 124      CD8A
 125 01b2 31672186 		.ascii	"1g!\206\022\014\2130,\301\260\024\3032\014\3131\254"
 125      120C8B30 
 125      2CC1B014 
 125      C3320CCB 
 125      31AC
 126 01c4 04D21920 		.ascii	"\004\322\031 \255\302\012\253\241s\005:\245\210\254"
 126      ADC20AAB 
 126      A173053A 
 126      A588AC
 127 01d3 C1B01643 		.ascii	"\301\260\026C\031\206r\014\025\230U\211\241\012R\257"
 127      1986720C 
 127      15985589 
 127      A10A52AF 
 128 01e3 42EA3A1C 		.ascii	"B\352:\034^\217a\003\206j\014\0331l\302P\203\241\026"
 128      5E8F6103 
 128      866A0C1B 
 128      316CC250 
 128      83A116
 129 01f6 C3660C75 		.ascii	"\303f\014u\030\352\321\272\006i@\243\234{\223\234v\263"
 129      18EAD1BA 
 129      066940A3 
 129      9C7B939C 
 129      76B3
 130 0208 74698BB4 		.ascii	"ti\213\264\016~\006\211\300\347]\"\306\005Kp\004C8\244"
 130      0E7E0689 
ARM GAS  /tmp/ccVYm6nd.s 			page 10


 130      C0E75D22 
 130      C6054B70 
 130      044338A4 
 131 021c B25BF991 		.ascii	"\262[\371\221\000_!\201sd'e\320h?\221\360P8~r\276\213"
 131      005F2181 
 131      73642765 
 131      D0683F91 
 131      F050387E 
 132 0233 DEA006F1 		.ascii	"\336\240\006\361\322,/u\340\012\353\032\244r\360l\377"
 132      D22C2F75 
 132      E00AEB1A 
 132      A472F06C 
 132      FF
 133 0244 1B0ACC56 		.ascii	"\033\012\314V\240.\300\313\341\240\202f\000\272K\234"
 133      A02EC0CB 
 133      E1A08266 
 133      00BA4B9C 
 134 0254 2B92772E 		.ascii	"+\222w.\301\233\251x\371\223x9\200r\236\371\276\013"
 134      C19BA978 
 134      F9937839 
 134      80729EF9 
 134      BE0B
 135 0266 09DE2CC5 		.ascii	"\011\336,\305\333;\2117\033P\3163\024o0\301\233\243"
 135      DB3B8937 
 135      1B50CE33 
 135      146F30C1 
 135      9BA3
 136 0278 78A19C49 		.ascii	"x\241\234I\304\\\2009\321*\367\356N\252\0218?\205\023"
 136      C45C8039 
 136      D12AF7EE 
 136      4EAA1138 
 136      3F8513
 137 028b 43FD0B55 		.ascii	"C\375\013U\342</\245\274\010\272v\237D\306\273+L\210"
 137      E23C2FA5 
 137      BC08BA76 
 137      9F44C6BB 
 137      2B4C88
 138 029e 8F27B67F 		.ascii	"\217'\266\177\214P/\235\313 \324\333\307\177m\213\021"
 138      8C502F9D 
 138      CB20D4DB 
 138      C77F6D8B 
 138      11
 139 02af 0646B2D7 		.ascii	"\006F\262\327\017\003^\332l\1770\322\021#\0328\304\216"
 139      0F035EDA 
 139      6C7F30D2 
 139      11231A38 
 139      C48E
 140 02c1 C760A0C1 		.ascii	"\307`\240\301\336\267'Ft\2309\353\333\355\245\215\366"
 140      DEB72746 
 140      749839EB 
 140      DBEDA58D 
 140      F6
 141 02d2 8B235D31 		.ascii	"\213#]1b\300\214\330E\304\233\354\267\220`\301W\200"
 141      62C08CD8 
 141      45C49BEC 
 141      B79060C1 
 141      5780
ARM GAS  /tmp/ccVYm6nd.s 			page 11


 142 02e4 27EC010E 		.ascii	"'\354\001\016n\261?\031\331\213Ru\322\263B(\035\353"
 142      6EB13F19 
 142      D98B5275 
 142      D2B34228 
 142      1DEB
 143 02f6 DF662EFE 		.ascii	"\337f.\376 _\344+<^\345\361\032_p\241\027~^\232\347"
 143      205FE42B 
 143      3C5EE5F1 
 143      1A5F70A1 
 143      177E5E9A 
 144 030b A5BCA46E 		.ascii	"\245\274\244n\025\216\034\015_g.\372-\237N>\300I\313"
 144      158E1C0D 
 144      5F672EFA 
 144      2D9F4E3E 
 144      C049CB
 145 031e 7AE445F8 		.ascii	"z\344E\3706UX\001\300\234p)\374\2059X\310m,\220\343"
 145      36555801 
 145      C09C7029 
 145      FC853958 
 145      C86D2C90 
 146 0333 BFA36702 		.ascii	"\277\243g\002(\342\316\346\020\011B\245\017\0244\037"
 146      28E2CEE6 
 146      100942A5 
 146      0F14341F 
 147 0343 50EEE3F3 		.ascii	"P\356\343\363;\327\263\324\240\230\2455\341$L\321 \367"
 147      3BD7B3D4 
 147      A098A535 
 147      E1244CD1 
 147      20F7
 148 0355 72618A77 		.ascii	"ra\212w\037\017\334\210i*\261\270\224\234\017E \331"
 148      1F0FDC88 
 148      692AB1B8 
 148      949C0F45 
 148      20D9
 149 0367 F88C9C82 		.ascii	"\370\214\234\202\306\342\245\013\220+\250-T\321\341"
 149      C6E2A50B 
 149      902BA82D 
 149      54D1E1
 150 0376 9DB7C2DF 		.ascii	"\235\267\302\337\2303[\010\357\225\333\343\2749X\002"
 150      98335B08 
 150      EF95DBE3 
 150      BC395802 
 151 0386 E500E2E3 		.ascii	"\345\000\342\343\337\205\237\233\343\2138T\210\343w"
 151      DF859F9B 
 151      E38B3854 
 151      88E377
 152 0395 7FE8951A 		.ascii	"\177\350\225\032\371{\273C5i\336\014l\245\337\242\364"
 152      F97BBB43 
 152      3569DE0C 
 152      6CA5DFA2 
 152      F4
 153 03a6 3F4AD2BF 		.ascii	"?J\322\277$\215~:\265\376\245S\351_\006\345\000\232"
 153      248D7E3A 
 153      B5FEA553 
 153      E95F06E5 
 153      009A
 154 03b8 A47F3987 		.ascii	"\244\1779\207\246\253\237J\375\313\225~\253\330b\260"
ARM GAS  /tmp/ccVYm6nd.s 			page 12


 154      A6AB9F4A 
 154      FDCB957E 
 154      ABD862B0 
 155 03c8 76F1FE62 		.ascii	"v\361\376bU{%\254\225XnsJ\253\370ZS\004'\256\365j@\271"
 155      557B25AC 
 155      95586E73 
 155      4AABF85A 
 155      530427AE 
 156 03e0 8CC70337 		.ascii	"\214\307\0037\1773\011\245i<`\311\036\3346\247\265\006"
 156      7F3309A5 
 156      693C60C9 
 156      1EDC36A7 
 156      B506
 157 03f2 EA490F12 		.ascii	"\352I\017\022[v-\224\003Hz\360\2479^\306!Mx\360u\252"
 157      5B762D94 
 157      03487AF0 
 157      A7395EC6 
 157      214D78F0 
 158 0408 07D569DE 		.ascii	"\007\325i\336\014l\371i\234\213\226\251\202\345\352"
 158      0C6CF969 
 158      9C8B96A9 
 158      82E5EA
 159 0417 BB61EADB 		.ascii	"\273a\352\333\370PA\025\200N\360\244R\036e\000N\364"
 159      F8504115 
 159      804EF0A4 
 159      521E6500 
 159      4EF4
 160 0429 A40A50E1 		.ascii	"\244\012P\341\311\243$O\326\245\361DK\366\344\2519\315"
 160      C9A3244F 
 160      D6A5F144 
 160      4BF6E4A9 
 160      39CD
 161 043b F5504F7A 		.ascii	"\365POzr\323\034\334\000\345\000\222\236\374m\216Ws"
 161      72D31CDC 
 161      00E50092 
 161      9EFC6D8E 
 161      5773
 162 044d 489FA627 		.ascii	"H\237\246'\232\364\244Z\210~\225$zc\032\321\272)\032"
 162      9AF4A45A 
 162      887E9524 
 162      7A631AD1 
 162      BA291A
 163 0460 F42536F3 		.ascii	"\364%6\363&\256{\243\324\367\302\034\257\341\2201M}"
 163      26AE7BA3 
 163      D4F7C21C 
 163      AFE19031 
 163      4D7D
 164 0472 BAD45723 		.ascii	"\272\324W#7\332PB_m\032}\306\324\3726s}\265\223\364"
 164      37DA5042 
 164      5F6D1A7D 
 164      C6D4FA36 
 164      737DB593 
 165 0487 D571884D 		.ascii	"\325q\210MS\237!\365\325\251\357\312\246n\231\313\341"
 165      539F21F5 
 165      D5A9EFCA 
 165      A66E99CB 
 165      E1
ARM GAS  /tmp/ccVYm6nd.s 			page 13


 166 0498 A168A1BA 		.ascii	"\241h\241\272J\352\345-C\304-so\354\316\310\261l\023"
 166      4AEAE52D 
 166      43C42D73 
 166      6FECCEC8 
 166      B16C13
 167 04ab 9C70CF60 		.ascii	"\234p\317`\031;\201\177\3775~\360\216E\315k\273\001"
 167      193B817F 
 167      FF357EF0 
 167      8E45CD6B 
 167      BB01
 168 04bd 36BD5946 		.ascii	"6\275YF\234\312\321\005\012l\204\325O\276\233/\205\377"
 168      9CCAD105 
 168      0A6C84D5 
 168      4FBE9B2F 
 168      85FF
 169 04cf 881629B0 		.ascii	"\210\026)\260\011\254O\005_\346)\254\031\246\235\214"
 169      09AC4F05 
 169      5FE629AC 
 169      19A69D8C 
 170 04df F584FF89 		.ascii	"\365\204\377\211\346+p\213:\276\251\251\315\201\377"
 170      E62B708B 
 170      3ABEA9A9 
 170      CD81FF
 171 04ee 51FC42BA 		.ascii	"Q\374B\272G_=\243\346\335\303\177;\340\234\211X\261"
 171      475F3DA3 
 171      E6DDC37F 
 171      3BE09C89 
 171      58B1
 172 0500 4CB3B3CD 		.ascii	"L\263\263\315\357\3638[\375\356CN\267\347\240\263\265"
 172      EFF3385B 
 172      FDEE434E 
 172      B7E7A0B3 
 172      B5
 173 0511 ADBDA5DD 		.ascii	"\255\275\245\335\337\351\354\012\036\330\277\317\011"
 173      DFE9EC0A 
 173      1ED8BFCF 
 173      09
 174 051e 0F6DAE0E 		.ascii	"\017m\256\016g\300\037\354\352t\276\267\343\255\252"
 174      67C01FEC 
 174      EA74BEB7 
 174      E3ADAA
 175 052d 4AE7F6ED 		.ascii	"J\347\366\355M\316\255\357\276\371\316\301Jg\300\325"
 175      4DCEADEF 
 175      BEF9CEC1 
 175      4A67C0D5 
 176 053d B1A7A3C3 		.ascii	"\261\247\243\303]\326J\214\226\366\256\262r\303\347"
 176      5DD64A8C 
 176      96F6AEB2 
 176      72C3E7
 177 054c 777B8216 		.ascii	"w{\202\026\177\327\241\200'h\365w\006<\036w\320\010"
 177      7FD7A180 
 177      2768F577 
 177      063C1E77 
 177      D008
 178 055e 1C08B883 		.ascii	"\034\010\270\203\272\253\243+\250A\226\015\037|\256"
 178      BAABA32B 
 178      A841960D 
ARM GAS  /tmp/ccVYm6nd.s 			page 14


 178      1F7CAE
 179 056d CE7DCC57 		.ascii	"\316}\314W\301|\225\314\267\356\1779\324\006G"
 179      C17C95CC 
 179      B7EE7F39 
 179      D40647
 180              		.text
 181              		.section	.gnu.lto_.symbol_nodes.d3727e78fb3887f8,"",%progbits
 182 0000 789C6362 		.ascii	"x\234cb`bP`\200\002\246\006\246z\006\206\011\347\030"
 182      60625060 
 182      8002A606 
 182      A67A0686 
 182      09E718
 183 0013 18EAEBE7 		.ascii	"\030\352\353\347u0252\3253\"\270\014\000\222\365\011"
 183      75303235 
 183      32D53322 
 183      B80C0092 
 183      F509
 184 0025 33       		.ascii	"3"
 185              		.text
 186              		.section	.gnu.lto_.refs.d3727e78fb3887f8,"",%progbits
 187 0000 789C6362 		.ascii	"x\234cb`b`d\200\002\000\000F\000\006"
 187      60626064 
 187      80020000 
 187      460006
 188              		.text
 189              		.section	.gnu.lto_.decls.d3727e78fb3887f8,"",%progbits
 190 0000 789CAD59 		.ascii	"x\234\255Y}p\023\307\025\337=\311\262eT\352\220\302"
 190      7D7013C7 
 190      15DF3DC9 
 190      B26554EA 
 190      90C2
 191 0012 90696650 		.ascii	"\220ifPfH\233\311$\025\3304\223NgRlY`OM\254\221 \244"
 191      66489BC9 
 191      2415D834 
 191      934E6752 
 191      6C59604F 
 192 002b FDA3CA61 		.ascii	"\375\243\312a\311X\023\333Re9C\376\352a\023JM\233Q\014"
 192      C95813DB 
 192      52653943 
 192      FEEA6113 
 192      4A4D9B51 
 193 0040 A4614CA8 		.ascii	"\244aL\250C\200\030B\301\230\217\230o\001\255\207\261"
 193      43801842 
 193      C1988F98 
 193      6F01AD87 
 193      B1
 194 0051 8387108C 		.ascii	"\203\207\020\214\015\265\301@\335B;i\034\207Bh\332\250"
 194      0DB5C140 
 194      DD423B69 
 194      1C874268 
 194      DAA8
 195 0063 BBEFEEE4 		.ascii	"\273\357\356\344]\241\223\356\030n\274o\327w\357\375"
 195      5DA193EE 
 195      186EBC6F 
 195      D777EFFD 
 196 0073 F6F776F7 		.ascii	"\366\367v\367\366\275=\011H@\2631B\011r\375\322\216"
 196      F6BD3D09 
ARM GAS  /tmp/ccVYm6nd.s 			page 15


 196      4840B331 
 196      420972FD 
 196      D28E
 197 0085 D06F4C08 		.ascii	"\320oL\010\221?\364\002\232\274\004R\336#e\000\335\177"
 197      913FF402 
 197      9ABC0452 
 197      DE236500 
 197      DD7F
 198 0097 D1FB5652 		.ascii	"\321\373VRrI\271J\312w\011\326/H\361\221\362\012)\""
 198      7249B94A 
 198      CA7709D6 
 198      2F48F191 
 198      F20A2922 
 199 00ab 2997C8FD 		.ascii	")\227\310\375|R\027\220\372yR/ \345\020i_#\345\010)"
 199      7C521790 
 199      FA79522F 
 199      20E51069 
 199      5F23E508 
 200 00c0 37483946 		.ascii	"7H9F\312\030)'H\271E\312I\332/\321;Mj3\251\367\222\372"
 200      CA182927 
 200      48B945CA 
 200      49DA2FD1 
 200      3B4D6A33 
 201 00d8 0AC36519 		.ascii	"\012\303e\031\271G\376\320\371\024>\224c\036\265!e*"
 201      B947FED0 
 201      F9143E94 
 201      631EB521 
 201      652A
 202 00ea 293652BA 		.ascii	")6R\272\030~\224\313\020)\026\005\237b_S8\214)}`\005"
 202      187E94CB 
 202      10291605 
 202      9F625F53 
 202      388C297D 
 203 0100 878EC30C 		.ascii	"\207\216\303\014\362\317LR\276\203\371~f\241\315R\373"
 203      F2CF4C52 
 203      BE83F97E 
 203      66A1CD52 
 203      FB
 204 0111 E8E81B9F 		.ascii	"\350\350\033\237w>&\2657\305\023\211\237\240\031h\203"
 204      773E26B5 
 204      37C51389 
 204      9FA01968 
 204      83
 205 0122 44AEF6D5 		.ascii	"D\256\366\325\222\204\243\"~a:z\031\213x\252\025\331"
 205      9284A322 
 205      7E613A7A 
 205      198B78AA 
 205      15D9
 206 0134 A161B302 		.ascii	"\241a\263\002):$[\360\014h\231\300\0354\005\265HR\023"
 206      293A245B 
 206      F00C6899 
 206      C01D3405 
 206      B5485213 
 207 0148 352C3B33 		.ascii	"5,;3u\032z\013P\010\310\031\342\200\002\021\317W1:("
 207      751A7A0B 
 207      5008C819 
 207      E2800211 
ARM GAS  /tmp/ccVYm6nd.s 			page 16


 207      CF57313A 
 208 015d 9127D156 		.ascii	"\221'\321VI\212\215\356]\235(\222\244<\305\304\256\255"
 208      498A8DEE 
 208      5D9D2892 
 208      A43CC5C4 
 208      AEAD
 209 016f 2FE2EDF8 		.ascii	"/\342\355\370I\224]\217jv\340i\350i\264\203(\306$\351"
 209      49945D8F 
 209      6A76E069 
 209      E869B483 
 209      28C624E9 
 210 0183 D4F705CE 		.ascii	"\324\367\005\316m\350X\212\177\331o\223\314\262*5\331"
 210      6DE8588A 
 210      7FD96F93 
 210      CCB22A35 
 210      D9
 211 0194 819F4EB3 		.ascii	"\201\237N\2634\320\023\250\235*\337\353\337\204\245"
 211      34D013A8 
 211      9D2ADFEB 
 211      DF84A5
 212 01a3 F653384D 		.ascii	"\366S8M\367\243X\355\376\361\244W\361O\372\261]\304"
 212      F7A358ED 
 212      FEF1A457 
 212      F14FFAB1 
 212      5DC4
 213 01b5 BB88BE80 		.ascii	"\273\210\276\2006`\314\341g\305\240t\366\020S\331H\241"
 213      3660CCE1 
 213      67C5A074 
 213      F61053D9 
 213      48A1
 214 01c7 BB4EA6BB 		.ascii	"\273N\246\273G\007\335\246\370\357\3737=F\351Z\321\232"
 214      4707DDA6 
 214      F8EFFB37 
 214      3D46E95A 
 214      D19A
 215 01d9 C9594169 		.ascii	"\311YAi\347R\235\206\265\177>\211\233\310\204\211\270"
 215      E7529D86 
 215      B57F3E89 
 215      9BC88489 
 215      B8
 216 01ea 8B9809E8 		.ascii	"\213\230\011\350l\012k\375P#o\036\375\021\231Q\021\037"
 216      6C0A6BFD 
 216      50236F1E 
 216      FD119951 
 216      111F
 217 01fc 00A0B502 		.ascii	"\000\240\265\002\017$\342\\+K\031\376W\025(\032<V\032"
 217      0F24E25C 
 217      2B4B19FE 
 217      5715281A 
 217      3C561A
 218 020f F495FE36 		.ascii	"\364\225\37662\252.\240\267\241S:X\351\210*M\371R\024"
 218      32AA2EA0 
 218      B7A1533A 
 218      58E9882A 
 218      4DF95214 
 219 0223 B8011CED 		.ascii	"\270\001\034\355\354\3511m\224\342\253L\352pl2\014h"
 219      ECE9316D 
ARM GAS  /tmp/ccVYm6nd.s 			page 17


 219      94E2AB4C 
 219      EA706C32 
 219      0C68
 220 0235 E7666473 		.ascii	"\347fds\277-&\252`\357\353\001\313\323d\027\357b\301"
 220      BF2D26AA 
 220      60EFEB01 
 220      CBD36417 
 220      EF62C1
 221 0248 3E340CC6 		.ascii	">4\014\3063;\310\202\355\325\003V\240\315\3540\013v"
 221      333BC882 
 221      EDD50356 
 221      A0CDEC30 
 221      0B76
 222 025a C03018CF 		.ascii	"\3000\030\317\3548\013vX\017\330\3144\314\322]\354\373"
 222      EC380B76 
 222      580FD8CC 
 222      34CCD25D 
 222      ECFB
 223 026c 25E24EB2 		.ascii	"%\342N\262\257\210x/~\202\310C \217\200<\006\362\004"
 223      AF88782F 
 223      7E82C843 
 223      208F803C 
 223      06F204
 224 027f C893204F 		.ascii	"\310\223 O\023\231\274\004t\0028uLr\342\337\343l\313"
 224      1399BC04 
 224      74023875 
 224      4C72E2DF 
 224      E36CCB
 225 0292 4C8AC72A 		.ascii	"L\212\307*\251\203\3626\321\243\013\214\363\320\316"
 225      A983F236 
 225      D1A30B8C 
 225      F3D0CE
 226 02a1 81BDC380 		.ascii	"\201\275\303\200\235\325\005\366\2746\263N\006\354\202"
 226      9DD505F6 
 226      BC36B34E 
 226      06EC82
 227 02b0 2E30B736 		.ascii	".0\2676\263n\006\354/\272\300\302\332\314\306\031\260"
 227      B36E06EC 
 227      2FBAC0C2 
 227      DACCC619 
 227      B0
 228 02c1 EBBAC0D6 		.ascii	"\353\272\300\326\3404\324\230\265 \257\202\235\260\012"
 228      E034D498 
 228      B520AF82 
 228      9DB00A
 229 02d0 3E8479EE 		.ascii	">\204y\356\001y\006d/\310\217A\366\363\363\177\353\276"
 229      01790664 
 229      2FC88F41 
 229      F6F3F37F 
 229      EBBE
 230 02e2 AD4D8E26 		.ascii	"\255M\216&\014vGr\235!c\350Zqw+\2362\211\276\304\304"
 230      0C764772 
 230      9D2163E8 
 230      5A71772B 
 230      9E3289BE 
 231 02f8 B0F93285 		.ascii	"\260\3712\205\315l\364\276$\265\222\360~\323L\2662\263"
 231      CD6CF4BE 
ARM GAS  /tmp/ccVYm6nd.s 			page 18


 231      24B592F0 
 231      7ED34CB6 
 231      32B3
 232 030a 6C2AA095 		.ascii	"l*\240\225&\252\366\036\236\225\266\213d\007\337C\333"
 232      26AAF61E 
 232      9E95B68B 
 232      6407DF43 
 232      DB
 233 031b 6894FA9D 		.ascii	"h\224\372\235\364F\001\206D\000)V\234{\237`.\266\312"
 233      F4460186 
 233      44002956 
 233      9C7B9F60 
 233      2EB6CA
 234 032e 1945FC4E 		.ascii	"\031E\374N\257-\266r4\221\230\245?\235\270\230=\235"
 234      AF2DB672 
 234      349198A5 
 234      3F9DB898 
 234      3D9D
 235 0340 E002A6A0 		.ascii	"\340\002\246\240\002<\203\230T\342\233B\010<\227`q\254"
 235      023C8398 
 235      54E29B42 
 235      083C9760 
 235      71AC
 236 0352 31658FBB 		.ascii	"1e\217\273\034\014\3451\234\032w\367\365A\334\035\316"
 236      1C0CE531 
 236      9C1A77F7 
 236      F541DC1D 
 236      CE
 237 0363 1E775735 		.ascii	"\036wW5\307?\352c\342ns\306`)\342}\260\340\364D\263"
 237      C73FEA63 
 237      E26E73C6 
 237      6029E27D 
 237      B0E0F444 
 238 0378 0DE0C9F0 		.ascii	"\015\340\311\360\203E3B\253\273\0176\322\253\260\221"
 238      83453342 
 238      ABBB0F36 
 238      D2ABB091 
 239 0388 B61906B3 		.ascii	"\266\031\006\263s`\207Y\260-z\300\264\"\031\001;\312"
 239      73608759 
 239      B02D7AC0 
 239      B4221901 
 239      3BCA
 240 039a 82ED340C 		.ascii	"\202\3554\014\3063;\316\202u\352\001\323\212d\004\354"
 240      C6333BCE 
 240      8275EA01 
 240      D38A6404 
 240      EC
 241 03ab 1C0BB6DF 		.ascii	"\034\013\266\3370\030\313le\374j_/\226Zm\217\242VIZ"
 241      3018CB6C 
 241      65FC6A5F 
 241      2F965A6D 
 241      8FA25649 
 242 03c0 29B55BB4 		.ascii	")\265[\264\026\005B\240\"eT\021\361g\370Q~\221~\272"
 242      160542A0 
 242      22655411 
 242      F167F851 
 242      7E917EBA 
ARM GAS  /tmp/ccVYm6nd.s 			page 19


 243 03d4 762A5DA4 		.ascii	"v*]\244\364~\366\344p@Y\244jd\355\006\347\250\355\203"
 243      F47EF6E4 
 243      704059A4 
 243      6A64ED06 
 243      E7A8ED83 
 244 03e8 E44A527C 		.ascii	"\344JR|\244o\212\324bSs\376\371\035\031\210O\244\276"
 244      A46F8AD4 
 244      625373FE 
 244      F91D1988 
 244      4FA4BE
 245 03fb 5D837D82 		.ascii	"]\203}\202]\276\235\235\367\245\276M3\245\366\223jR"
 245      5DBE9D9D 
 245      F7A5BE4D 
 245      33A5F693 
 245      6A52
 246 040d 2BAD969E 		.ascii	"+\255\226\236b\372*P\373\242\373G2\251\375\350\031\330"
 246      62FA2A50 
 246      FBA2FB47 
 246      32A9FDE8 
 246      19D8
 247 041f 10FE2DA7 		.ascii	"\020\376-\247\020)\033\202~\240\2217?\220S\332\257\000"
 247      10291B82 
 247      7EA09137 
 247      3F9053DA 
 247      AF00
 248 0431 E8B42975 		.ascii	"\350\264)u\3377\245\244\264&\376\2556Y'\033\211\204"
 248      DF37A5A4 
 248      B426FEAD 
 248      3659271B 
 248      8984
 249 0443 09195316 		.ascii	"\011\031S\026P?t81\271\3768\222z\322\331;\302;R\274"
 249      503F7438 
 249      31B9FE38 
 249      927AD2D9 
 249      3BC23B52 
 250 0458 C9A40EC5 		.ascii	"\311\244\016\305y\303\200\005)\223\"\240\241\007]7\214"
 250      79C38005 
 250      299322A0 
 250      A1075D37 
 250      8C
 251 0469 EB6A60FC 		.ascii	"\353j`\374\034\002\340\027|x\275\254\347\255K\227\362"
 251      1C02E017 
 251      7C78BDAC 
 251      E7AD4B97 
 251      F2
 252 047a 29AFF038 		.ascii	")\257\3608\373\012_5\014f\347\300&X\260\277\352\001"
 252      FB0A5F35 
 252      0C66E7C0 
 252      2658B0BF 
 252      EA01
 253 048c B36B33BB 		.ascii	"\263k3\273\315\202\3352\014\3063\273\303\202\375K\017"
 253      CD82DD32 
 253      0CC633BB 
 253      C382FD4B 
 253      0F
 254 049d D8539926 		.ascii	"\330S\231&\205\233\237a&M\036\201xu\005f\352\032\310"
 254      859B9F61 
ARM GAS  /tmp/ccVYm6nd.s 			page 20


 254      264D1E81 
 254      78750566 
 254      EA1AC8
 255 04b0 1B20C740 		.ascii	"\033 \307@\376\035\344-\220\377\004)\011T6\201\\\005"
 255      FE1DE42D 
 255      90FF0429 
 255      09543681 
 255      5C05
 256 04c2 72B59025 		.ascii	"r\265\220%\301QN\317w[\037\247\333\331\020\344+\023"
 256      C1514ECF 
 256      775B1FA7 
 256      DBD910E4 
 256      2B13
 257 04d4 292F1B97 		.ascii	")/\033\227\032\310\261^k\273i\021\246h\354*\367=S\362"
 257      1AC8B15E 
 257      6BBB6911 
 257      A668EC2A 
 257      F73D53F2 
 258 04e8 0EDDA7DC 		.ascii	"\016\335\247\334\370\261\326\351\224\343o\005:\352\377"
 258      F8B1D6E9 
 258      94E36F05 
 258      3AEAFF
 259 04f7 BB6F43A0 		.ascii	"\273oC\240[+\327\237\256C\256a\026\027\247\011\"\216"
 259      5B2BD79F 
 259      AE43AE61 
 259      1617A709 
 259      228E
 260 0509 018716F3 		.ascii	"\001\207\026\363\303\341\220\222U\256K\201U\262\312"
 260      C3E19092 
 260      55AE4B81 
 260      55B2CA
 261 0518 B1DDF794 		.ascii	"\261\335\367\224\254R\236\245\035\2406\240\231UR-\305"
 261      AC529EA5 
 261      1DA036A0 
 261      9955522D 
 261      C5
 262 0529 367EAF77 		.ascii	"6~\257w\027\011@\202:x\273\263\230R-\325\364\353\336"
 262      17094082 
 262      3A78BBB3 
 262      98522DD5 
 262      F4EBDE
 263 053c EDB2A9EC 		.ascii	"\355\262\251\354\363\276,\246T\013\251\271l\374nKs;"
 263      F3BE2CA6 
 263      540BA9B9 
 263      6CFC6E4B 
 263      733B
 264 054e 962CC96C 		.ascii	"\226,\311lv 5\233]'p\331l\272oMy\334\241B\011\017_\334"
 264      7620359B 
 264      5D2770D9 
 264      6CBA6F4D 
 264      79DCA142 
 265 0566 B859D30C 		.ascii	"\270Y\323\014\337N\332\004\232y\336N\031\263\354@\264"
 265      DF4EDA04 
 265      9A79DE4E 
 265      19B3EC40 
 265      B4
 266 0577 F7CD424A 		.ascii	"\367\315BJp\3348\010\251'\275\237=\365|wp\275\022\325"
ARM GAS  /tmp/ccVYm6nd.s 			page 21


 266      70DC3808 
 266      A927BD9F 
 266      3DF57C77 
 266      70BD12D5 
 267 058b E58D40CA 		.ascii	"\345\215@\312\301\012\346\203\345\214\233\007\231]\245"
 267      C10AE683 
 267      E58C9B07 
 267      995DA5
 268 059a D930989D 		.ascii	"\3310\230\235\003\353d\301\326\352\001\313\2203v\261"
 268      03EB64C1 
 268      D6EA01CB 
 268      903376B1 
 269 05aa 6031C360 		.ascii	"`1\303`<\263\375,\330z=`\031r\306\203,\330\273\206\301"
 269      3CB3FD2C 
 269      D87A3D60 
 269      1972C683 
 269      2CD8BB86 
 270 05bf 7866DD2C 		.ascii	"xf\335,\330v=`Z\241\220~\227\031d>\245\3541\014\306"
 270      D8763D60 
 270      5AA1907E 
 270      9719643E 
 270      A5EC310C 
 271 05d4 333BCA32 		.ascii	"3;\3122;\244\007\314\256=f\307Y\260S\206\301\030f\344"
 271      3BA407CC 
 271      AE3D66C7 
 271      59B05386 
 271      C11866E4 
 272 05e8 8D39B734 		.ascii	"\2159\2674&>\202br\"J\243\003uX\321\234\317\257\006"
 272      263E8262 
 272      72224AA3 
 272      037558D1 
 272      9CCFAF06 
 273 05fc 111F101E 		.ascii	"\021\037\020\036\201\026\354\266R2\240\330\254i;\247"
 273      8116ECB6 
 273      5232A0D8 
 273      AC693BA7 
 274 060c 1607E5ED 		.ascii	"\026\007\345\355dr\301+\015\365\273\272\200\372R\035"
 274      6472C12B 
 274      0DF5BBBA 
 274      80FA521D 
 275 061c E07ACD10 		.ascii	"\340z\315\020~\225\3218\317\216\306\200\236\321\230"
 275      7E95D138 
 275      CF8EC680 
 275      9ED198
 276 062b A30D7681 		.ascii	"\243\015v\201\005\0331\014\306O\372E\026lL\017\230\346"
 276      051B310C 
 276      C64FFA45 
 276      166C4C0F 
 276      98E6
 277 063d D7A5A6F8 		.ascii	"\327\245\246\370\020\273\034?3\014\3063\273\3142\273"
 277      10BB1C3F 
 277      330CC633 
 277      BBCC32BB 
 278 064d AB076CBE 		.ascii	"\253\007l\276\366\230\015\263`\011\303`\374r\274\262"
 278      F6980DB3 
 278      6009C360 
 278      FC72BCB2 
ARM GAS  /tmp/ccVYm6nd.s 			page 22


 279 065d 9462D175 		.ascii	"\224b\321u&\240_[t\254\2142mb\343,\261\267R\301\322"
 279      26A05F5B 
 279      74AC8C32 
 279      6D62E32C 
 279      B1B752C1 
 280 0672 11736B83 		.ascii	"\021sk\203M\260`m\206\301\370\361\277\315\202m\323\003"
 280      4DB0606D 
 280      86C1F8F1 
 280      BFCD826D 
 280      D303
 281 0684 F6B2F6CA 		.ascii	"\366\262\366\312\270\303mT\206\301xf_q\033\225\036\260"
 281      B8C36D54 
 281      86C17866 
 281      5F711B95 
 281      1EB0
 282 0696 57B4C7EC 		.ascii	"W\264\307\354?,\330i\303`\374\312\370/\2632\316\352"
 282      3F2CD869 
 282      C360FCCA 
 282      F82FB332 
 282      CEEA
 283 06a8 591935DA 		.ascii	"Y\0315\332\304\276a\211\015\352!\246\365u\225\200\305"
 283      C4BE6189 
 283      0DEA21A6 
 283      F5759580 
 283      C5
 284 06b9 2E3360C3 		.ascii	".3`\303\206\301x/[\177>\351\345\250\036/Wh\023[\317"
 284      86C1782F 
 284      5B7F3EE9 
 284      E5A81E2F 
 284      5768135B 
 285 06ce 12FB871E 		.ascii	"\022\373\207\036b\022\326F{\233E\0337\216fG\232\027"
 285      6212D646 
 285      7B9B451B 
 285      378E6647 
 285      9A17
 286 06e0 9BC889F8 		.ascii	"\233\310\211\370\017\002=4\265\303\361g\013\310\255"
 286      0F023D34 
 286      B5C3F167 
 286      0BC8AD
 287 06ef 20B783EC 		.ascii	" \267\203\354\000\271\023\344.\220\273Av\202\354\002"
 287      00B913E4 
 287      2E90BB41 
 287      7682EC02 
 288 06ff B91F6437 		.ascii	"\271\037d7\310\303 \217\202<\0162\016\362\024\310?\201"
 288      C8C3208F 
 288      823C0E32 
 288      0EF214C8 
 288      3F81
 289 0711 EC017906 		.ascii	"\354\001y\006d/\310\217A\366\203<\007\362<\310\013 "
 289      642FC88F 
 289      41F6833C 
 289      07F23CC8 
 289      0B20
 290 0723 2F821C02 		.ascii	"/\202\034\002y\031\3440{LK9n\265i\214\022\365\373\212"
 290      7919E430 
 290      7B4C4B39 
 290      6EB5698C 
ARM GAS  /tmp/ccVYm6nd.s 			page 23


 290      12F5FB8A 
 291 0737 90FC349D 		.ascii	"\220\3744\235<\301\304\037\302\007\320\364?'\363\237"
 291      3CC1C41F 
 291      C207D0F4 
 291      3F27F39F 
 292 0747 FA45FC47 		.ascii	"\372E\374G@\333\303}o7\374\233N\212\267\243\031\274"
 292      40DBC37D 
 292      6F37FC9B 
 292      4E8AB7A3 
 292      19BC
 293 0759 BD36E92D 		.ascii	"\2756\351-\375\354\035\037\037\335v\375&\246?\032J\211"
 293      FDEC1D1F 
 293      1FDD76FD 
 293      26A63F1A 
 293      4A89
 294 076b C4AFB0FE 		.ascii	"\304\257\260\376O\3377\004\356\323\267|4M\376\243t\223"
 294      4FDF3704 
 294      EED3B77C 
 294      344DFEA3 
 294      7493
 295 077d 722AFBDA 		.ascii	"r*\373\332\222\356T&m\014\224\311\346\002Z\225K5\256"
 295      92EE5426 
 295      6D0C94C9 
 295      E6025A95 
 295      4B35AE
 296 0790 0B5A4723 		.ascii	"\013ZG#\252\245\232\265\365\330bX\356J\304\237b!\243"
 296      AAA59AB5 
 296      F5D86258 
 296      EE4AC49F 
 296      6221A3
 297 07a3 A14248F9 		.ascii	"\241BH\371}\340\210\344\236\231<PQ#\356M\370\033\177"
 297      7DE088E4 
 297      9E993C50 
 297      5123EE4D 
 297      F81B7F
 298 07b6 A0422E47 		.ascii	"\240B.GM\250.\340\250\012\371_w\370\003\2579\252j\202"
 298      4DA82EE0 
 298      A80AF95F 
 298      77F803AF 
 298      39AA6A82 
 299 07ca CB82A106 		.ascii	"\313\202\241\006G4"
 299      4734
 300 07d0 D258FFAA 		.ascii	"\322X\377\252\2034j\304ZG8\024\21168\274\213\027\025"
 300      83346AC4 
 300      5A473814 
 300      893638BC 
 300      8B1715
 301 07e3 153A2A2A 		.ascii	"\025:**J\035\013\335\345\225\257\025:\302b\255\257\266"
 301      4A1D0BDD 
 301      E595AF15 
 301      3AC262AD 
 301      AFB6
 302 07f5 D6FF83AA 		.ascii	"\326\377\203\252\207\202R\203,\013_\\bw\242i\015\321"
 302      87825283 
 302      2C0B5F5C 
 302      6277A269 
 302      0DD1
ARM GAS  /tmp/ccVYm6nd.s 			page 24


 303 0807 BAA242DF 		.ascii	"\272\242B\337\362p0\344k\010D\033\303\276\350lGcC\304"
 303      F27030E4 
 303      6B08441B 
 303      C3BEE86C 
 303      476343C4 
 304 081b 2146EA9E 		.ascii	"!F\352\236\255\017\325\007\236\015\210\313\202\216`"
 304      AD0FD507 
 304      9E0D88CB 
 304      828E60
 305 082a 7D556DA3 		.ascii	"}Um\243?\340h\210\372\203\365Qb\236\327Hjb\030\235\227"
 305      3FE06888 
 305      FA83F551 
 305      629ED748 
 305      6A62189D 
 306 083f 41BB4E24 		.ascii	"A\273N$\334\352\003\016\237?P-6\326F}\321\327\303\201"
 306      DCEA030E 
 306      9F3F502D 
 306      36D6467D 
 306      D1D7C381 
 307 0853 06629DEF 		.ascii	"\006b\235\357\363\251\3669u!\177 b\011\321G\221\334"
 307      F3A9F639 
 307      75217F20 
 307      6209D147 
 307      91DC
 308 0865 50433810 		.ascii	"PC8\020\360Gr\302\215a\177\304\024\362G\314bu\244\226"
 308      F04772C2 
 308      8D617FC4 
 308      14F247CC 
 308      6275A496 
 309 0879 8A1A8BBB 		.ascii	"\212\032\213\273\270T\214\212\026w\211\\9\345\252T\256"
 309      B8548C8A 
 309      1677895C 
 309      39E5AA54 
 309      AE
 310 088a 5C725546 		.ascii	"\\rUF+\253\273\270\302\031\252\257\016.\377\226Oq\330"
 310      2BABBBB8 
 310      C219AAAF 
 310      0E2EFF96 
 310      4F71D8
 311 089d 17AC0F46 		.ascii	"\027\254\017F-Up\323\306\270\034\315YTY\352\362X*\027"
 311      2D5570D3 
 311      C6B81CCD 
 311      595459EA 
 311      F2582A17 
 312 08b1 FFCCEDF2 		.ascii	"\377\314\355\362\344Vz\335.W\251'\307\275\304]\3521"
 312      E4567ADD 
 312      2E57A927 
 312      C7BDC45D 
 312      EA31
 313 08c3 95935259 		.ascii	"\225\223RY\352\301K\301\331\271\317\371\242\012o\332"
 313      EAC14BC1 
 313      D9B9CFF9 
 313      A20A6FDA 
 314 08d3 3491D1CA 		.ascii	"4\221\321\312\251\252\015\210\021\\f.\361z<\346\012"
 314      A9AA0D88 
 314      115C662E 
 314      F17A3CE6 
ARM GAS  /tmp/ccVYm6nd.s 			page 25


 314      0A
 315 08e4 E74F3DE6 		.ascii	"\347O=\346\342\005\236\012*\312L%\036O~0D\347!\350\367"
 315      E2059E0A 
 315      2ACA4C25 
 315      1E4F7E30 
 315      44E721E8 
 316 08f9 456D72B3 		.ascii	"Emr\263Nlx\325\027\315\013\206\250\327\276\350\364$"
 316      4E6C78D5 
 316      17CD0B86 
 316      A8D7BEE8 
 316      F424
 317 090b 3F82B63C 		.ascii	"?\202\266<\022j\014\323\373f\252i\246\252f\372\357\217"
 317      126A0CD3 
 317      FB66AA69 
 317      A6AA66FA 
 317      EF8F
 318 091d B3CD7760 		.ascii	"\263\315w`E\324\341\\\344-\367\222\371v\200s\325\363"
 318      45D4E15C 
 318      E42DF792 
 318      F9768073 
 318      D5F3
 319 092f E6CC5D11 		.ascii	"\346\314]\021 \003=\305\343t\372\026\223\241-\015T\013"
 319      20033DC5 
 319      E374FA16 
 319      93A12D0D 
 319      540B
 320 0941 4E4FAEBB 		.ascii	"NO\256\273\242\302\271`\241\307L\205\311Y\356\311+."
 320      A2C2B960 
 320      A1C74C85 
 320      C959EEC9 
 320      2B2E
 321 0953 2B99EBF1 		.ascii	"+\231\353\361.\206F\241\332(\242\015\253\307\345uy^"
 321      2E8646A1 
 321      DA28A20D 
 321      ABC7E575 
 321      795E
 322 0965 7295CEC9 		.ascii	"r\225\316\311+v\253JnY)\371ln.\005p\275\350\241u\241"
 322      2B76AB4A 
 322      6E5929F9 
 322      6C6E2E05 
 322      70BDE8A1 
 323 097b 5217913A 		.ascii	"R\027\221:\251Q\230K\255\341\211\0334\222O\212\254\324"
 323      A951984B 
 323      ADE1891B 
 323      34924F8A 
 323      ACD4
 324 098d B6C24DEF 		.ascii	"\266\302M\357Q\353d\253Hn\251z\363\254\024Ay\352V\365"
 324      51EB64AB 
 324      486EA97A 
 324      F3AC1441 
 324      79EA56F5 
 325 09a1 D4A73F34 		.ascii	"\324\247?4\227\224:\211/\336\311[\317\345x\275\316\205"
 325      97943A89 
 325      2FDEC95B 
 325      CFE578BD 
 325      CE85
 326 09b3 9E7CE26C 		.ascii	"\236|\342ly\241\227\272\232G\247\237Nx\016\025\341\377"
ARM GAS  /tmp/ccVYm6nd.s 			page 26


 326      79A197BA 
 326      9A47A79F 
 326      4E780E15 
 326      E1FF
 327 09c5 03535AD8 		.ascii	"\003SZ\330\034"
 327      1C
 328              		.text
 329              		.section	.gnu.lto_.symtab.d3727e78fb3887f8,"",%progbits
 330 0000 5F70616C 		.ascii	"_pal_lld_init\000\000\000\000\000\000\000\000\000\000"
 330      5F6C6C64 
 330      5F696E69 
 330      74000000 
 330      00000000 
 331 0017 0000A100 		.ascii	"\000\000\241\000\000\000_pal_lld_setgroupmode\000\000"
 331      00005F70 
 331      616C5F6C 
 331      6C645F73 
 331      65746772 
 332 0034 00000000 		.ascii	"\000\000\000\000\000\000\000\000\000\000\325\000\000"
 332      00000000 
 332      0000D500 
 332      00
 333 0041 00       		.ascii	"\000"
 334              		.text
 335              		.section	.gnu.lto_.opts,"",%progbits
 336 0000 272D6D63 		.ascii	"'-mcpu=cortex-m4' '-mfloat-abi=hard' '-mfpu=fpv4-sp"
 336      70753D63 
 336      6F727465 
 336      782D6D34 
 336      2720272D 
 337 0033 2D643136 		.ascii	"-d16' '-mno-thumb-interwork' '-mthumb' '-O2' '-fomi"
 337      2720272D 
 337      6D6E6F2D 
 337      7468756D 
 337      622D696E 
 338 0066 742D6672 		.ascii	"t-frame-pointer' '-falign-functions=16' '-ffunction"
 338      616D652D 
 338      706F696E 
 338      74657227 
 338      20272D66 
 339 0099 2D736563 		.ascii	"-sections' '-fdata-sections' '-fno-common' '-flto' "
 339      74696F6E 
 339      73272027 
 339      2D666461 
 339      74612D73 
 340 00cc 272D6673 		.ascii	"'-fsingle-precision-constant'\000"
 340      696E676C 
 340      652D7072 
 340      65636973 
 340      696F6E2D 
 341              		.text
 342              		.section	.text._pal_lld_init,"ax",%progbits
 343              		.align	2
 344              		.p2align 4,,15
 345              		.global	_pal_lld_init
 346              		.thumb
 347              		.thumb_func
ARM GAS  /tmp/ccVYm6nd.s 			page 27


 348              		.type	_pal_lld_init, %function
 349              	_pal_lld_init:
 350              		@ args = 0, pretend = 0, frame = 0
 351              		@ frame_needed = 0, uses_anonymous_args = 0
 352              		@ link register save eliminated.
 353 0000 F0B4     		push	{r4, r5, r6, r7}
 354 0002 394F     		ldr	r7, .L2
 355 0004 394E     		ldr	r6, .L2+4
 356 0006 D7F830C0 		ldr	ip, [r7, #48]
 357 000a 394D     		ldr	r5, .L2+8
 358 000c 394C     		ldr	r4, .L2+12
 359 000e 3A49     		ldr	r1, .L2+16
 360 0010 3A4A     		ldr	r2, .L2+20
 361 0012 3B4B     		ldr	r3, .L2+24
 362 0014 4CF01F0C 		orr	ip, ip, #31
 363 0018 C7F830C0 		str	ip, [r7, #48]
 364 001c D7F850C0 		ldr	ip, [r7, #80]
 365 0020 4CF01F0C 		orr	ip, ip, #31
 366 0024 C7F850C0 		str	ip, [r7, #80]
 367 0028 4768     		ldr	r7, [r0, #4]
 368 002a 7760     		str	r7, [r6, #4]
 369 002c 8768     		ldr	r7, [r0, #8]
 370 002e B760     		str	r7, [r6, #8]
 371 0030 C768     		ldr	r7, [r0, #12]
 372 0032 F760     		str	r7, [r6, #12]
 373 0034 0769     		ldr	r7, [r0, #16]
 374 0036 7761     		str	r7, [r6, #20]
 375 0038 4769     		ldr	r7, [r0, #20]
 376 003a 3762     		str	r7, [r6, #32]
 377 003c 8769     		ldr	r7, [r0, #24]
 378 003e 7762     		str	r7, [r6, #36]
 379 0040 0768     		ldr	r7, [r0]
 380 0042 3760     		str	r7, [r6]
 381 0044 066A     		ldr	r6, [r0, #32]
 382 0046 6E60     		str	r6, [r5, #4]
 383 0048 466A     		ldr	r6, [r0, #36]
 384 004a AE60     		str	r6, [r5, #8]
 385 004c 866A     		ldr	r6, [r0, #40]
 386 004e EE60     		str	r6, [r5, #12]
 387 0050 C66A     		ldr	r6, [r0, #44]
 388 0052 6E61     		str	r6, [r5, #20]
 389 0054 066B     		ldr	r6, [r0, #48]
 390 0056 2E62     		str	r6, [r5, #32]
 391 0058 466B     		ldr	r6, [r0, #52]
 392 005a 6E62     		str	r6, [r5, #36]
 393 005c C669     		ldr	r6, [r0, #28]
 394 005e 2E60     		str	r6, [r5]
 395 0060 C56B     		ldr	r5, [r0, #60]
 396 0062 6560     		str	r5, [r4, #4]
 397 0064 056C     		ldr	r5, [r0, #64]
 398 0066 A560     		str	r5, [r4, #8]
 399 0068 456C     		ldr	r5, [r0, #68]
 400 006a E560     		str	r5, [r4, #12]
 401 006c 856C     		ldr	r5, [r0, #72]
 402 006e 6561     		str	r5, [r4, #20]
 403 0070 C56C     		ldr	r5, [r0, #76]
 404 0072 2562     		str	r5, [r4, #32]
ARM GAS  /tmp/ccVYm6nd.s 			page 28


 405 0074 056D     		ldr	r5, [r0, #80]
 406 0076 6562     		str	r5, [r4, #36]
 407 0078 856B     		ldr	r5, [r0, #56]
 408 007a 2560     		str	r5, [r4]
 409 007c 846D     		ldr	r4, [r0, #88]
 410 007e 4C60     		str	r4, [r1, #4]
 411 0080 C46D     		ldr	r4, [r0, #92]
 412 0082 8C60     		str	r4, [r1, #8]
 413 0084 046E     		ldr	r4, [r0, #96]
 414 0086 CC60     		str	r4, [r1, #12]
 415 0088 446E     		ldr	r4, [r0, #100]
 416 008a 4C61     		str	r4, [r1, #20]
 417 008c 846E     		ldr	r4, [r0, #104]
 418 008e 0C62     		str	r4, [r1, #32]
 419 0090 C46E     		ldr	r4, [r0, #108]
 420 0092 4C62     		str	r4, [r1, #36]
 421 0094 446D     		ldr	r4, [r0, #84]
 422 0096 0C60     		str	r4, [r1]
 423 0098 416F     		ldr	r1, [r0, #116]
 424 009a 5160     		str	r1, [r2, #4]
 425 009c 816F     		ldr	r1, [r0, #120]
 426 009e 9160     		str	r1, [r2, #8]
 427 00a0 C16F     		ldr	r1, [r0, #124]
 428 00a2 D160     		str	r1, [r2, #12]
 429 00a4 D0F88010 		ldr	r1, [r0, #128]
 430 00a8 5161     		str	r1, [r2, #20]
 431 00aa D0F88410 		ldr	r1, [r0, #132]
 432 00ae 1162     		str	r1, [r2, #32]
 433 00b0 D0F88810 		ldr	r1, [r0, #136]
 434 00b4 5162     		str	r1, [r2, #36]
 435 00b6 016F     		ldr	r1, [r0, #112]
 436 00b8 1160     		str	r1, [r2]
 437 00ba D0F89020 		ldr	r2, [r0, #144]
 438 00be 5A60     		str	r2, [r3, #4]
 439 00c0 D0F89420 		ldr	r2, [r0, #148]
 440 00c4 9A60     		str	r2, [r3, #8]
 441 00c6 D0F89820 		ldr	r2, [r0, #152]
 442 00ca DA60     		str	r2, [r3, #12]
 443 00cc D0F89C20 		ldr	r2, [r0, #156]
 444 00d0 5A61     		str	r2, [r3, #20]
 445 00d2 D0F8A020 		ldr	r2, [r0, #160]
 446 00d6 1A62     		str	r2, [r3, #32]
 447 00d8 D0F8A420 		ldr	r2, [r0, #164]
 448 00dc 5A62     		str	r2, [r3, #36]
 449 00de D0F88C20 		ldr	r2, [r0, #140]
 450 00e2 1A60     		str	r2, [r3]
 451 00e4 F0BC     		pop	{r4, r5, r6, r7}
 452 00e6 7047     		bx	lr
 453              	.L3:
 454              		.align	2
 455              	.L2:
 456 00e8 00380240 		.word	1073887232
 457 00ec 00000240 		.word	1073872896
 458 00f0 00040240 		.word	1073873920
 459 00f4 00080240 		.word	1073874944
 460 00f8 000C0240 		.word	1073875968
 461 00fc 00100240 		.word	1073876992
ARM GAS  /tmp/ccVYm6nd.s 			page 29


 462 0100 001C0240 		.word	1073880064
 463              		.size	_pal_lld_init, .-_pal_lld_init
 464 0104 AFF30080 		.section	.text._pal_lld_setgroupmode,"ax",%progbits
 464      AFF30080 
 464      AFF30080 
 465              		.align	2
 466              		.p2align 4,,15
 467              		.global	_pal_lld_setgroupmode
 468              		.thumb
 469              		.thumb_func
 470              		.type	_pal_lld_setgroupmode, %function
 471              	_pal_lld_setgroupmode:
 472              		@ args = 0, pretend = 0, frame = 0
 473              		@ frame_needed = 0, uses_anonymous_args = 0
 474              		@ link register save eliminated.
 475 0000 2DE9F00F 		push	{r4, r5, r6, r7, r8, r9, r10, fp}
 476 0004 0023     		movs	r3, #0
 477 0006 02F00307 		and	r7, r2, #3
 478 000a C2F38006 		ubfx	r6, r2, #2, #1
 479 000e C2F3C105 		ubfx	r5, r2, #3, #2
 480 0012 C2F34114 		ubfx	r4, r2, #5, #2
 481 0016 4FF00F09 		mov	r9, #15
 482 001a C2F3C312 		ubfx	r2, r2, #7, #4
 483 001e 4FF0010A 		mov	r10, #1
 484 0022 38E0     		b	.L9
 485              	.L14:
 486 0024 D0F820B0 		ldr	fp, [r0, #32]
 487 0028 2BEA0C0C 		bic	ip, fp, ip
 488 002c 4CEA0808 		orr	r8, ip, r8
 489 0030 C0F82080 		str	r8, [r0, #32]
 490              	.L7:
 491 0034 D0F804C0 		ldr	ip, [r0, #4]
 492 0038 0AFA03F8 		lsl	r8, r10, r3
 493 003c 2CEA080C 		bic	ip, ip, r8
 494 0040 4CEA060C 		orr	ip, ip, r6
 495 0044 C0F804C0 		str	ip, [r0, #4]
 496 0048 4FF0030B 		mov	fp, #3
 497 004c 4FEA430C 		lsl	ip, r3, #1
 498 0050 D0F80880 		ldr	r8, [r0, #8]
 499 0054 0BFA0CFC 		lsl	ip, fp, ip
 500 0058 6FEA0C0C 		mvn	ip, ip
 501 005c 0CEA0808 		and	r8, ip, r8
 502 0060 48EA0508 		orr	r8, r8, r5
 503 0064 C0F80880 		str	r8, [r0, #8]
 504 0068 D0F80C80 		ldr	r8, [r0, #12]
 505 006c 0CEA0808 		and	r8, ip, r8
 506 0070 48EA0408 		orr	r8, r8, r4
 507 0074 C0F80C80 		str	r8, [r0, #12]
 508 0078 D0F80080 		ldr	r8, [r0]
 509 007c 0CEA080C 		and	ip, ip, r8
 510 0080 4CEA070C 		orr	ip, ip, r7
 511 0084 C0F800C0 		str	ip, [r0]
 512              	.L5:
 513 0088 4908     		lsrs	r1, r1, #1
 514 008a 1AD0     		beq	.L4
 515 008c 7600     		lsls	r6, r6, #1
 516 008e AD00     		lsls	r5, r5, #2
ARM GAS  /tmp/ccVYm6nd.s 			page 30


 517 0090 A400     		lsls	r4, r4, #2
 518 0092 BF00     		lsls	r7, r7, #2
 519 0094 0133     		adds	r3, r3, #1
 520              	.L9:
 521 0096 03F0070C 		and	ip, r3, #7
 522 009a 4FEA8C0C 		lsl	ip, ip, #2
 523 009e 11F0010F 		tst	r1, #1
 524 00a2 02FA0CF8 		lsl	r8, r2, ip
 525 00a6 09FA0CFC 		lsl	ip, r9, ip
 526 00aa EDD0     		beq	.L5
 527 00ac 072B     		cmp	r3, #7
 528 00ae B9D9     		bls	.L14
 529 00b0 D0F824B0 		ldr	fp, [r0, #36]
 530 00b4 2BEA0C0C 		bic	ip, fp, ip
 531 00b8 4CEA0808 		orr	r8, ip, r8
 532 00bc C0F82480 		str	r8, [r0, #36]
 533 00c0 B8E7     		b	.L7
 534              	.L4:
 535 00c2 BDE8F00F 		pop	{r4, r5, r6, r7, r8, r9, r10, fp}
 536 00c6 7047     		bx	lr
 537              		.size	_pal_lld_setgroupmode, .-_pal_lld_setgroupmode
 538              		.comm	__gnu_lto_v1,1,1
 539 00c8 AFF30080 		.ident	"GCC: (GNU Tools for ARM Embedded Processors) 4.8.4 20140526 (release) [ARM/embedded-4_8-br
 539      AFF30080 
ARM GAS  /tmp/ccVYm6nd.s 			page 31


DEFINED SYMBOLS
                            *ABS*:0000000000000000 pal_lld.c
     /tmp/ccVYm6nd.s:343    .text._pal_lld_init:0000000000000000 $t
     /tmp/ccVYm6nd.s:349    .text._pal_lld_init:0000000000000000 _pal_lld_init
     /tmp/ccVYm6nd.s:456    .text._pal_lld_init:00000000000000e8 $d
     /tmp/ccVYm6nd.s:465    .text._pal_lld_setgroupmode:0000000000000000 $t
     /tmp/ccVYm6nd.s:471    .text._pal_lld_setgroupmode:0000000000000000 _pal_lld_setgroupmode
                            *COM*:0000000000000001 __gnu_lto_v1
     /tmp/ccVYm6nd.s:464    .text._pal_lld_init:0000000000000104 $t

NO UNDEFINED SYMBOLS
