ARM GAS  /tmp/cc3OCxar.s 			page 1


   1              		.syntax unified
   2              		.cpu cortex-m4
   3              		.eabi_attribute 27, 3
   4              		.eabi_attribute 28, 1
   5              		.fpu fpv4-sp-d16
   6              		.eabi_attribute 20, 1
   7              		.eabi_attribute 21, 1
   8              		.eabi_attribute 23, 3
   9              		.eabi_attribute 24, 1
  10              		.eabi_attribute 25, 1
  11              		.eabi_attribute 26, 1
  12              		.eabi_attribute 30, 2
  13              		.eabi_attribute 34, 1
  14              		.eabi_attribute 18, 4
  15              		.thumb
  16              		.file	"rfm23bp.c"
  17              		.section	.gnu.lto_.jmpfuncs.231f31978eb64e27,"",%progbits
  18 0000 789C6D88 		.ascii	"x\234m\210\301\021\200 \000\303\322V@X\306uX\301\005"
  18      C1118020 
  18      00C3D256 
  18      4058C675 
  18      58C105
  19 0013 9C5FBDE3 		.ascii	"\234_\275\343I>\311\305\230\035\327\362 \262\345|\375"
  19      493EC9C5 
  19      981DD7F2 
  19      20B2E57C 
  19      FD
  20 0024 084FDDFA 		.ascii	"\010O\335\372\177\242\265\016\027*\215\223\016/@\200"
  20      7FA2B50E 
  20      172A8D93 
  20      0E2F4080 
  21 0034 0232     		.ascii	"\0022"
  22              		.text
  23              		.section	.gnu.lto_.inline.231f31978eb64e27,"",%progbits
  24 0000 789C6362 		.ascii	"x\234cb`b\300\006\254\031!4\027\003\003\0133#\003\023"
  24      6062C006 
  24      AC192134 
  24      1703030B 
  24      33230313 
  25 0014 E30B7606 		.ascii	"\343\013v\006\366\016u\260bF\006\016VFf\306\214\010"
  25      F60E75B0 
  25      6246060E 
  25      564666C6 
  25      8C08
  26 0026 C64CB02A 		.ascii	"\306L\260*\306t8\013D\262\0021\333\002y&\006\226\005"
  26      C674380B 
  26      44B20231 
  26      DB027926 
  26      069605
  27 0039 F2020C4C 		.ascii	"\362\002\014LG89\030Xf\360\260\200\344\231\030\330\371"
  27      47383918 
  27      5866F0B0 
  27      80E49918 
  27      D8F9
  28 004b 8186315D 		.ascii	"\201\2061]\340\207\250\000\002f\036\240\360\004?\006"
  28      E087A800 
  28      02661EA0 
ARM GAS  /tmp/cc3OCxar.s 			page 2


  28      F0043F06 
  29 005b 66060E76 		.ascii	"f\006\016v<\206\262\240\032\272\201\207\003l\0367P\202"
  29      3C86B2A0 
  29      1ABA8187 
  29      036C1E37 
  29      5082
  30 006d 71821F0B 		.ascii	"q\202\037\013\003;\211.b\352a\003\273\210\225\201\231"
  30      033B892E 
  30      62EA6103 
  30      BB889581 
  30      99
  31 007e 89111C06 		.ascii	"\211\021\034\0060\007\261a\210\260c\210p`\210pb\210"
  31      3007B161 
  31      88B06388 
  31      70608870 
  31      6288
  32 0090 300000C0 		.ascii	"0\000\000\300m\031\250"
  32      6D19A8
  33              		.text
  34              		.section	.gnu.lto_.pureconst.231f31978eb64e27,"",%progbits
  35 0000 789C6362 		.ascii	"x\234cb`b\020e\200\000.\006)F)&)f)\026)V\0066\006v\006"
  35      60621065 
  35      80002E06 
  35      29462926 
  35      29662916 
  36 001b 0E064E06 		.ascii	"\016\006N\006\000\014\274\000\323"
  36      000CBC00 
  36      D3
  37              		.text
  38              		.section	.gnu.lto_rfm23_init.231f31978eb64e27,"",%progbits
  39 0000 789C6362 		.ascii	"x\234cb`b@\007\222@<\033\210E\200\230\221\231\201\221"
  39      60624007 
  39      92403C1B 
  39      88458098 
  39      91998191 
  40 0014 69C23906 		.ascii	"i\3029\006\206F\016&FF\020\203\201\221\241\236\211\261"
  40      86460E26 
  40      46461083 
  40      8191A19E 
  40      89B1
  41 0026 3E9211AC 		.ascii	">\222\021\254v=\323\201\007\377\377\257\333\327r\211"
  41      763DD381 
  41      07FFFFAF 
  41      DBD77289 
  42 0036 89958931 		.ascii	"\211\225\2111\227\221\201\031H\200\244X\031Z\032\032"
  42      97918119 
  42      4880A458 
  42      195A1A1A 
  43 0046 26283030 		.ascii	"&(00$\203\025\206\000I\220\356PF&\020\315|\226\241\351"
  43      24831586 
  43      004990EE 
  43      50462610 
  43      CD7C96A1 
  44 005b F48C2EFE 		.ascii	"\364\214.\376D\306\205\214\254\014\332\014\253\032\200"
  44      44C6858C 
  44      AC0CDA0C 
  44      AB1A80
ARM GAS  /tmp/cc3OCxar.s 			page 3


  45 006a C0309311 		.ascii	"\3000\223\021h\357,\306LF\306tF\246\010 \015q[\022\304"
  45      68EF2CC6 
  45      4C46C674 
  45      46A60820 
  45      0D715B12 
  46 007f 2A8674A0 		.ascii	"*\206t\240c\030.24>X\311\005\321\007R\302\014su\010"
  46      63182E32 
  46      343E58C9 
  46      05D10752 
  46      C20C7375 
  47 0094 D05AA0C9 		.ascii	"\320Z\240\311 -B.E\231e\251E\305\372Ei\271F\306I\005"
  47      202D422E 
  47      459965A9 
  47      45C5FA45 
  47      69B946C6 
  48 00aa 7AC90C00 		.ascii	"z\311\014\000\255\372+w"
  48      ADFA2B77 
  49              		.text
  50              		.section	.gnu.lto_rfm23_TXEN.231f31978eb64e27,"",%progbits
  51 0000 789CAD91 		.ascii	"x\234\255\221\261K\0031\030\305\337\373\222\024\025"
  51      B14B0331 
  51      18C5DFFB 
  51      921415
  52 000f 0711DDA4 		.ascii	"\007\021\335\244\270\013\026tu\364OhA\307\266\250\334"
  52      B80B1674 
  52      75F44F68 
  52      41C7B6A8 
  52      DC
  53 0020 50900AAE 		.ascii	"P\220\012\256\315\301\015\335\354\254\223\2709\350\332"
  53      CDC10DDD 
  53      ECAC93B8 
  53      39E8DA
  54 002f A1607572 		.ascii	"\241`ur\261\240T\220Nuw\024\212SMr^Q)N\006\222\357%"
  54      B1A05490 
  54      4E757714 
  54      8A534D72 
  54      5E51294E 
  55 0047 7979BF90 		.ascii	"yy\277\220\010\004\277\333\226\353\037\004\226\\e\016"
  55      0804BFDB 
  55      96EB1F04 
  55      965C650E 
  56 0057 94560F88 		.ascii	"\224V\017\210gDT'\017;\247\373\005\330yE\223.\353L\030"
  56      67445427 
  56      0F3BA7FB 
  56      05D87945 
  56      932EEB4C 
  57 006c D20B100D 		.ascii	"\322\013\020\015Q\332\260\261\313\020w-\335\341x|\365"
  57      51DAB0B1 
  57      CB10772D 
  57      DDE1787C 
  57      F5
  58 007d 9E0CF4AC 		.ascii	"\236\014\364\254\260Fh7\370-\203\304\332\326*P\015\306"
  58      B0466837 
  58      F82D83C4 
  58      DAD62A50 
  58      0DC6
  59 008f A21B7D40 		.ascii	"\242\033}@\211\342\253\272G\362v;Z)\363\234\006\007"
ARM GAS  /tmp/cc3OCxar.s 			page 4


  59      89E2ABBA 
  59      47F2763B 
  59      5A29F39C 
  59      0607
  60 00a1 941D46FC 		.ascii	"\224\035F\374q\317\022\025:y\365\200\273\366\313@&i"
  60      71CF1215 
  60      3A79F580 
  60      BBF6CB40 
  60      2669
  61 00b3 A9B0A357 		.ascii	"\251\260\243W\347N\017W\003\016k\270\264I\334}^\216"
  61      E74E0F57 
  61      030E6BB8 
  61      B449DC7D 
  61      5E8E
  62 00c5 C8A05DA0 		.ascii	"\310\240]\240dB\235\3414n\331\205\210\332\203\214m6"
  62      64429DE1 
  62      346ED985 
  62      88DA838C 
  62      6D36
  63 00d7 AD469001 		.ascii	"\255F\220\001V\361\021e^\370i\205\374\246e\242\275;"
  63      56F11165 
  63      5EF86985 
  63      FCA665A2 
  63      BD3B
  64 00e9 E77DE14A 		.ascii	"\347}\341J'L\351\031a:\223\177\002\361\005\013U\205"
  64      274CE919 
  64      613A937F 
  64      02F1050B 
  64      5585
  65 00fb 1A203279 		.ascii	"\032 2y\002\215~!<A\373I\376\231'\323x&\374\315#\342"
  65      028D7E21 
  65      3C41FB49 
  65      FE9927D3 
  65      7826FCCD 
  66 0111 E18D4E79 		.ascii	"\341\215NyY+\272\203n\317[\027\267\353\321\361^\375"
  66      592BBA83 
  66      6ECF5B17 
  66      B7EBD1F1 
  66      5EFD
  67 0123 A850DFAF 		.ascii	"\250P\337\257mlV\016\327\253\370\004U\322xq"
  67      6D6C560E 
  67      D7ABF804 
  67      55D27871 
  68              		.text
  69              		.section	.gnu.lto_rfm23_RXEN.part.0.231f31978eb64e27,"",%progbits
  70 0000 789C5D50 		.ascii	"x\234]P\261J\304@\020\235\267\233h\316F\021\304Vl\017"
  70      B14AC440 
  70      109DB79B 
  70      68CE4611 
  70      C4566C0F 
  71 0014 14B4B1B2 		.ascii	"\024\264\261\262\362\023r\240v\227pj\212\023\211`cq"
  71      F21372A0 
  71      7697706A 
  71      8A138960 
  71      6371
  72 0026 13382565 		.ascii	"\0238%e\260P\320\306\303\316\306\366\300N\260T\361\007"
  72      B050D0C6 
ARM GAS  /tmp/cc3OCxar.s 			page 5


  72      C3CEC6F6 
  72      C04EB054 
  72      F107
  73 0038 249F60A9 		.ascii	"$\237`\2516qfs)t`\367=\230}\363\336\254!C\377\253-g"
  73      36716673 
  73      297460F7 
  73      3D987DF3 
  73      DEAC2143 
  74 0050 13448B82 		.ascii	"\023D\213\202\360\011^\361*\304\203qh`\025\263\300\002"
  74      F0095EF1 
  74      2AC48371 
  74      686015B3 
  74      C002
  75 0062 4A0834F0 		.ascii	"J\0104\360\214\305`\007*\3062\215\230/\312\347\313G"
  75      8CC56007 
  75      2AC6328D 
  75      982FCAE7 
  75      CB47
  76 0074 F039679F 		.ascii	"\3609g\237U5\233@\\\026@1h\033\011\02080\370k\373`\270"
  76      55359B40 
  76      5C164031 
  76      681B0910 
  76      3830F86B 
  77 008b ACAAEF5D 		.ascii	"\254\252\357]\037\350\273\226OC\346b\251\213\221\014"
  77      1FE8BB96 
  77      4F43E662 
  77      A98B910C 
  78 009b 25554B85 		.ascii	"%UK\205r\253m\010O\321v`\034\276\321Y\371\261\321\305"
  78      72AB6D08 
  78      4FD17660 
  78      1CBED159 
  78      F9B1D1C5 
  79 00af 9D24263A 		.ascii	"\235$&:\245\037\316y.\201\215Q\333\354\003j*,\021%\275"
  79      A51FCE79 
  79      2E818D51 
  79      DBEC036A 
  79      2A2C1125 
  80 00c4 D0D3F8EB 		.ascii	"\320\323\370\353\012\365\3736\335\363P\232~C\246\032"
  80      0AF5FB36 
  80      DDF3509A 
  80      7E43A61A 
  81 00d4 327D43D7 		.ascii	"2}C\327Y\241\203\002U\2678\317\331s\351[nj4\331!\232"
  81      59A18302 
  81      55B738CF 
  81      D973E95B 
  81      6E6A34D9 
  82 00ea B844A8BF 		.ascii	"\270D\250\277S_\3144\373u`]\304w\312n\017\232\204u\205"
  82      535FCC34 
  82      FB75605D 
  82      C477CA6E 
  82      0F9A8475 
  83 00ff A293968A 		.ascii	"\242\223\226\212\346\267\322\344\244\227\036\257\246"
  83      E6B7D2E4 
  83      A4971EAF 
  83      A6
  84 010c 7BFDB5F5 		.ascii	"{\375\265\365\350h%&\323;\374\005\360\013O\345"
  84      E8682526 
ARM GAS  /tmp/cc3OCxar.s 			page 6


  84      D33BFC05 
  84      F00B4FE5 
  85              		.text
  86              		.section	.gnu.lto_rfm23_RXEN.231f31978eb64e27,"",%progbits
  87 0000 789C5D4F 		.ascii	"x\234]O=K\003A\024\234\331\217\313!\026\207\330\012"
  87      3D4B0341 
  87      149CD98F 
  87      CB211687 
  87      D80A
  88 0012 76168282 		.ascii	"v\026\202\202\226\222\316\237\220\200\226\336\241\341"
  88      9692CE9F 
  88      908096DE 
  88      A1E1
  89 0020 8A809C60 		.ascii	"\212\200\234`c\221=8\341\312t\001\255l-\264\023\355"
  89      63913D38 
  89      E1CA7401 
  89      AD6C2DB4 
  89      13ED
  90 0032 D4CAC688 		.ascii	"\324\312\306\210\235\244Ji\341\037\210M\334\275\275"
  90      9DA44A69 
  90      E11F884D 
  90      DCBDBD
  91 0041 13F4C1EE 		.ascii	"\023\364\301\356\014\373\346\315\233\025\020\370_;\366"
  91      0CFBE6CD 
  91      9B1510F8 
  91      5F3BF6
  92 0050 AC1158B6 		.ascii	"\254\021X\266\310\000\024\3031\220\207B\310Q\004\263"
  92      C80014C3 
  92      31908742 
  92      C85104B3 
  93 0060 A0666D98 		.ascii	"\240fm\230EI\355\236\251<\346\241&\035\0011\020Ri\016"
  93      4549ED9E 
  93      A93CE6A1 
  93      261D0131 
  93      1052690E 
  94 0074 F659B9DD 		.ascii	"\366Y\271\335\212\307\351|~sw>\011Zd\237\220\366r-\215"
  94      8AC7E97C 
  94      7E73773E 
  94      095A649F 
  94      90F6722D 
  95 0089 C298E12A 		.ascii	"\302\230\341*\220T\302\216\275\235A\227\302\241|A\361"
  95      9054C28E 
  95      BD9D4197 
  95      C2A17C41 
  95      F1
  96 009a F5F4B072 		.ascii	"\365\364\260r\300+j\364\310=\246\374\023\263K\211Q$"
  96      C02B6AF4 
  96      C83DA6FC 
  96      13B34B89 
  96      5124
  97 00ac DF50845E 		.ascii	"\337P\204^\004\234\341\333\224&J\311\204^\334\243L)"
  97      049CE1DB 
  97      94264AC9 
  97      845EDCA3 
  97      4C29
  98 00be 9A018559 		.ascii	"\232\001\205Y[\276\342\371\376c\"\374\314:\256Ma\235"
  98      5BBEE2F9 
ARM GAS  /tmp/cc3OCxar.s 			page 7


  98      FE6322FC 
  98      CC3AAE4D 
  98      619D
  99 00d0 65435443 		.ascii	"eCTC\364%.,\004no\313\224\245Q\250he\025\327Q\342zM"
  99      F4252E2C 
  99      046E6FCB 
  99      94A551A8 
  99      686515D7 
 100 00e8 5CEF708A 		.ascii	"\\\357p\212\220\277\001u\365\223w\344\323O\325d\364"
 100      90BF0175 
 100      F59377E4 
 100      D34FD564 
 100      F4
 101 00f9 D5B183B6 		.ascii	"\325\261\203\266\347\246\226v\263\364\3640;\331\314"
 101      E7A69676 
 101      B3F4F430 
 101      3BD9CC
 102 0108 8EFA5BDB 		.ascii	"\216\372[\333\361\361F\202\037\344\016J6"
 102      F1F14682 
 102      1FE40E4A 
 102      36
 103              		.text
 104              		.section	.gnu.lto_rfm23_SHUTDOWN.231f31978eb64e27,"",%progbits
 105 0000 789C6362 		.ascii	"x\234cb`b@\0076@\234\314\310\300 \002\244\031\331\030"
 105      60624007 
 105      36409CCC 
 105      C8C02002 
 105      A419D918 
 106 0014 1899269C 		.ascii	"\030\231&\234c`h\344`bb\336#\307\320\300\305rE\237\241"
 106      636068E4 
 106      606262DE 
 106      23C7D0C0 
 106      C572459F 
 107 0029 81879991 		.ascii	"\201\207\231\221\025\"\314\002c\26022\202\030\014\214"
 107      1522CC02 
 107      63B03232 
 107      82180C8C 
 108 0039 0CF54CCC 		.ascii	"\014\365L\314,\254\214\365\221\214`\343\3263\035x\360"
 108      2CAC8CF5 
 108      918C60E3 
 108      D6331D78 
 108      F0
 109 004a FFFFBA6F 		.ascii	"\377\377\272o\255\227$\330\230\030s\301\202\254\014"
 109      AD9724D8 
 109      981873C1 
 109      82AC0C
 110 0059 2D0D0D13 		.ascii	"-\015\015\023\024 \36600\204\000I\220\336PF&\020\315"
 110      1420F630 
 110      30840049 
 110      90DE5046 
 110      2610CD
 111 006c 7C82A1E5 		.ascii	"|\202\241\345\315\301\237\262\211\214\013\031Y\031\322"
 111      CDC19FB2 
 111      898C0B19 
 111      5919D2
 112 007b 19992218 		.ascii	"\031\231\"\0303\031Q\234\030\312\310\314\260G\216\371"
 112      3319519C 
ARM GAS  /tmp/cc3OCxar.s 			page 8


 112      18CAC8CC 
 112      B0478EF9 
 113 008b 2CC3A11D 		.ascii	",\303\241\0357\3463B\324i3\254jh\001*d\2041\230`\014"
 113      37E63342 
 113      D46933AC 
 113      6A68012A 
 113      64843198 
 114 00a1 E6D90CB3 		.ascii	"\346\331\014\263\200\024\013\310\030\326\206\216\216"
 114      80140BC8 
 114      18D6868E 
 114      8E
 115 00ae 06160630 		.ascii	"\006\026\0060\023lT\022\324\344$FF(\015\011\021\220"
 115      136C5412 
 115      D4E42446 
 115      46280D09 
 115      1190
 116 00c0 0AB6060E 		.ascii	"\012\266\006\016\270\205,\014W\364\301\026\356x\244"
 116      B8852C0C 
 116      57F4C116 
 116      EE78A4
 117 00cf 41650B99 		.ascii	"Ae\013\231\261Z\310\012\016\212\213\014\215\017\376"
 117      B15AC80A 
 117      0E8A8B0C 
 117      8D0FFE
 118 00de B3402C84 		.ascii	"\263@,\204\201\020\240N\240\034\310\235B.E\231e\251"
 118      8110A04E 
 118      A01CC89D 
 118      422E4599 
 118      65A9
 119 00f0 45C5FA45 		.ascii	"E\305\372Ei\271F\306I\005z\311\014\000\\/W\371"
 119      69B946C6 
 119      49057AC9 
 119      0C005C2F 
 119      57F9
 120              		.text
 121              		.section	.gnu.lto_rfm23_readRegister.231f31978eb64e27,"",%progbits
 122 0000 789C6362 		.ascii	"x\234cb`b@\007\222@\034\015\304\"@\314\310\314\300\310"
 122      60624007 
 122      92401C0D 
 122      C42240CC 
 122      C8CCC0C8 
 123 0014 34E11C03 		.ascii	"4\341\034\003C#\007\023##\210\301\300\310P\317\304X"
 123      43230713 
 123      232388C1 
 123      C0C850CF 
 123      C458
 124 0026 1FC90856 		.ascii	"\037\311\010V\273\236\351\300\203\377\377\327m8\266"
 124      BB9EE9C0 
 124      83FFFFD7 
 124      6D38B6
 125 0035 60362323 		.ascii	"`6##\310(V\206\226\206\206\011\012\014\014\311`\005"
 125      C8285686 
 125      96868609 
 125      0A0C0CC9 
 125      6005
 126 0047 214012A4 		.ascii	"!@\022\244+\024(\011\244\231/24>\230\265\2301\221q!"
 126      2B142809 
ARM GAS  /tmp/cc3OCxar.s 			page 9


 126      A4992F32 
 126      343E98B5 
 126      98319171 
 127 005c 232B4304 		.ascii	"#+C\004c&#\334\326\020FF\220\012\220\031B.E\231e\251"
 127      632623DC 
 127      D6104646 
 127      900A9019 
 127      422E4599 
 128 0072 45C5FA45 		.ascii	"E\305\372Ei\271F\306I\005z\311\014\000\255\352 \023"
 128      69B946C6 
 128      49057AC9 
 128      0C00ADEA 
 128      2013
 129              		.text
 130              		.section	.gnu.lto_rfm23_writeRegister.231f31978eb64e27,"",%progbits
 131 0000 789C6362 		.ascii	"x\234cb`b@\007\222@\034\015\304\"@\314\310\314\300\310"
 131      60624007 
 131      92401C0D 
 131      C42240CC 
 131      C8CCC0C8 
 132 0014 34E11C03 		.ascii	"4\341\034\003C#\007\023##\210\301\300\310P\317\304X"
 132      43230713 
 132      232388C1 
 132      C0C850CF 
 132      C458
 133 0026 1FC90856 		.ascii	"\037\311\010V\273\236\351\300\203\377\377\327]:\266"
 133      BB9EE9C0 
 133      83FFFFD7 
 133      5D3AB6
 134 0035 600D2323 		.ascii	"`\015##\310(V\206\226\206\206\011\012\014\014\311`\005"
 134      C8285686 
 134      96868609 
 134      0A0C0CC9 
 134      6005
 135 0047 214012A4 		.ascii	"!@\022\244+\024(\011\244\231/24>X\275\2301\221q!#+C"
 135      2B142809 
 135      A4992F32 
 135      343E58BD 
 135      98319171 
 136 005f 04632623 		.ascii	"\004c&#\334\326\020FF\220\012\220\031B.E\231e\251E\305"
 136      DCD61046 
 136      46900A90 
 136      19422E45 
 136      9965A945 
 137 0074 FA4569B9 		.ascii	"\372Ei\271F\306I\005z\311\014\000\304~ W"
 137      46C64905 
 137      7AC90C00 
 137      C47E2057 
 138              		.text
 139              		.section	.gnu.lto_rfm23_readBurst.231f31978eb64e27,"",%progbits
 140 0000 789C6362 		.ascii	"x\234cb`b@\007\222@\034\015\304\"@\314\310\314\300\310"
 140      60624007 
 140      92401C0D 
 140      C42240CC 
 140      C8CCC0C8 
 141 0014 34E11C03 		.ascii	"4\341\034\003C#\007\023##\210\301\300\310P\317\304X"
 141      43230713 
ARM GAS  /tmp/cc3OCxar.s 			page 10


 141      232388C1 
 141      C0C850CF 
 141      C458
 142 0026 1FC90856 		.ascii	"\037\311\010V\273\236\351\300\203\377\377\327}9\266"
 142      BB9EE9C0 
 142      83FFFFD7 
 142      7D39B6
 143 0035 600F2323 		.ascii	"`\017##\310(V\206\226\206\206\011\012\014\014\311`\005"
 143      C8285686 
 143      96868609 
 143      0A0C0CC9 
 143      6005
 144 0047 214012A4 		.ascii	"!@\022\244+\024(\011\244\231/24>\330\275\2301\221q!"
 144      2B142809 
 144      A4992F32 
 144      343ED8BD 
 144      98319171 
 145 005c 232B4304 		.ascii	"#+C\004c&#\334\326\020FF\220\012\220\031B.E\231e\251"
 145      632623DC 
 145      D6104646 
 145      900A9019 
 145      422E4599 
 146 0072 45C5FA45 		.ascii	"E\305\372Ei\271F\306I\005z\311\014\000\332\200 \231"
 146      69B946C6 
 146      49057AC9 
 146      0C00DA80 
 146      2099
 147              		.text
 148              		.section	.gnu.lto_rfm23_writeBurst.231f31978eb64e27,"",%progbits
 149 0000 789C6362 		.ascii	"x\234cb`b@\007\222@\034\015\304\"@\314\310\314\300\310"
 149      60624007 
 149      92401C0D 
 149      C42240CC 
 149      C8CCC0C8 
 150 0014 34E11C03 		.ascii	"4\341\034\003C#\007\023##\210\301\300\310P\317\304X"
 150      43230713 
 150      232388C1 
 150      C0C850CF 
 150      C458
 151 0026 1FC90856 		.ascii	"\037\311\010V\273\236\351\300\203\377\377\327M9\276"
 151      BB9EE9C0 
 151      83FFFFD7 
 151      4D39BE
 152 0035 E00C2323 		.ascii	"\340\014##\310(V\206\226\206\206\011\012\014\014\311"
 152      C8285686 
 152      96868609 
 152      0A0C0CC9 
 153 0045 60052140 		.ascii	"`\005!@\022\244+\024(\011\244\231/24>8\275\2301\221"
 153      12A42B14 
 153      2809A499 
 153      2F32343E 
 153      38BD9831 
 154 005a 7121232B 		.ascii	"q!#+C\004c&#\334\326\020FF\220\012\220\031B.E\231e\251"
 154      43046326 
 154      23DCD610 
 154      4646900A 
 154      9019422E 
ARM GAS  /tmp/cc3OCxar.s 			page 11


 155 0072 45C5FA45 		.ascii	"E\305\372Ei\271F\306I\005z\311\014\000\277\240 Z"
 155      69B946C6 
 155      49057AC9 
 155      0C00BFA0 
 155      205A
 156              		.text
 157              		.section	.gnu.lto_rfm23_sendByte.231f31978eb64e27,"",%progbits
 158 0000 789C6362 		.ascii	"x\234cb`b@\007\222@\034\015\304\"@\314\310\314\300\310"
 158      60624007 
 158      92401C0D 
 158      C42240CC 
 158      C8CCC0C8 
 159 0014 34E11C03 		.ascii	"4\341\034\003C#\007\023##\210\301\300\310P\317\304X"
 159      43230713 
 159      232388C1 
 159      C0C850CF 
 159      C458
 160 0026 1FC90856 		.ascii	"\037\311\010V\273\236\351\300\203\377\377\327m9\276"
 160      BB9EE9C0 
 160      83FFFFD7 
 160      6D39BE
 161 0035 E00E2323 		.ascii	"\340\016##\310(V\206\226\206\206\011\012\014\014\311"
 161      C8285686 
 161      96868609 
 161      0A0C0CC9 
 162 0045 60052140 		.ascii	"`\005!@\022\244+\024(\011\244\231/24>\270\275\2301\221"
 162      12A42B14 
 162      2809A499 
 162      2F32343E 
 162      B8BD9831 
 163 005a 7121232B 		.ascii	"q!#+C\004c&#\334\326\020FF\220\012\220\031B.E\231e\251"
 163      43046326 
 163      23DCD610 
 163      4646900A 
 163      9019422E 
 164 0072 45C5FA45 		.ascii	"E\305\372Ei\271F\306I\005z\311\014\000\324\340 \232"
 164      69B946C6 
 164      49057AC9 
 164      0C00D4E0 
 164      209A
 165              		.text
 166              		.section	.gnu.lto_.symbol_nodes.231f31978eb64e27,"",%progbits
 167 0000 789C4DC9 		.ascii	"x\234M\311\271\015\203P\024\005\321\373\347{\201\036"
 167      B90D8350 
 167      1405D1FB 
 167      E77B811E 
 168 0010 E8F5DA60 		.ascii	"\350\365\332`\266\214\006L@\342n\250\301\205 \313\004"
 168      B68C064C 
 168      40E26EA8 
 168      C18520CB 
 168      04
 169 0021 48BCC98E 		.ascii	"H\274\311\216\006\241\217\216x`iZ%{\036\022O\234\002"
 169      06A18F8E 
 169      7860695A 
 169      257B1E12 
 169      4F9C02
 170 0034 47CCC1F7 		.ascii	"G\314\301\367\316\032\347p\033|\011|\341k`\213o\201"
ARM GAS  /tmp/cc3OCxar.s 			page 12


 170      CE1AE770 
 170      1B7C097C 
 170      E16B608B 
 170      6F81
 171 0046 1DBE07F6 		.ascii	"\035\276\007\366\270\010\034py2\223T\177\177)g\264l"
 171      B8081C70 
 171      79329354 
 171      7F7F2967 
 171      B46C
 172 0058 95FEB165 		.ascii	"\225\376\261e2j"
 172      326A
 173              		.text
 174              		.section	.gnu.lto_.refs.231f31978eb64e27,"",%progbits
 175 0000 789C6362 		.ascii	"x\234cb`b`d\200\002\000\000F\000\006"
 175      60626064 
 175      80020000 
 175      460006
 176              		.text
 177              		.section	.gnu.lto_.decls.231f31978eb64e27,"",%progbits
 178 0000 789CBD5C 		.ascii	"x\234\275\\yp\324V\232\227\324\335v\267\355\030\206"
 178      7970D456 
 178      9A97D4DD 
 178      76B7ED18 
 178      86
 179 0011 ECCE90DD 		.ascii	"\354\316\220\335T\245S\225\331\312\034\241m\303$d\263"
 179      54A55395 
 179      D9CA1CA1 
 179      6DC32464 
 179      B3
 180 0022 4900DB04 		.ascii	"I\000\333\004\327r\270\332f'\363\307V#\334\002\367\216"
 180      D772B8DA 
 180      6627F3C7 
 180      5623DC02 
 180      F78E
 181 0034 AFE996C1 		.ascii	"\257\351\226\301\251\332\332\221\355\000\023\022.C\270"
 181      A9DADA91 
 181      ED001312 
 181      2E43B8
 182 0043 428CB393 		.ascii	"B\214\263\223\020\302\204\004\234\001s\247!\031.\317"
 182      10C28404 
 182      9C0173A7 
 182      21192ECF 
 183 0053 82096786 		.ascii	"\202\011g\206\004\032r\037\313\330\0040\247\275\337"
 183      041A721F 
 183      CBD80430 
 183      A7BDDF
 184 0062 FB24753F 		.ascii	"\373$u?\311\222Zr\246\266\253\336\323\323\363{\277\357"
 184      C9925A72 
 184      A6B6ABDE 
 184      D3D3F37B 
 184      BFEF
 185 0074 7CDF3B24 		.ascii	"|\337;$\231c8\346\317\034\303\364\303\357\233\022\206"
 185      996338E6 
 185      CF1CC3F4 
 185      C3EF9B12 
 185      86
 186 0085 11BD0C93 		.ascii	"\021\275\014\223\3150\314\023\220XH\2570\362/\013\322"
ARM GAS  /tmp/cc3OCxar.s 			page 13


 186      CD30CC13 
 186      905848AF 
 186      30F22F0B 
 186      D2
 187 0096 AB904640 		.ascii	"\253\220F@\333G =\016i\034\244\011\220\246B\232\006"
 187      DB47203D 
 187      0E691CA4 
 187      0990A642 
 187      9A06
 188 00a8 A906523D 		.ascii	"\251\006R=\307\014\370\221~nH\333 \265C\332\014i\235"
 188      C70CF891 
 188      7E6E48DB 
 188      20B543DA 
 188      0C699D
 189 00bb 82DFA15C 		.ascii	"\202\337\241\\I\033\322\365'\220\375L\207Ahf*\274\374"
 189      491BD2F5 
 189      2790FD4C 
 189      87416866 
 189      2ABCFC
 190 00ce 17947F0B 		.ascii	"\027\224\177\013\351\006\224\023\220~\004\235]\012\376"
 190      E9069413 
 190      907E049D 
 190      5D0AFE
 191 00dd 75487D04 		.ascii	"uH}\004\017\352|\254\2147B\341\225\224GA6R\207Md\311"
 191      0FEA7CAC 
 191      8C3742E1 
 191      95944741 
 191      3652874D 
 192 00f3 56B07321 		.ascii	"V\260s!\345@\222\240.\300\231\323rQ\264T:\004\207\320"
 192      E54092A0 
 192      2EC099D3 
 192      7251B454 
 192      3A0487D0 
 193 0107 22B23CA6 		.ascii	"\"\262<\246\243A\350\373\024\032\215P\036m\023\233U"
 193      A341E8FB 
 193      141A8D50 
 193      1E6D139B 
 193      55
 194 0118 B01F5774 		.ascii	"\260\037WtN\312c {R\207?n\220\372a\225\276\344Z\254"
 194      4ECA6320 
 194      7B52873F 
 194      6E90FA61 
 194      95BEE45A 
 195 012d C39CA0D4 		.ascii	"\303\234\240\324\257S\356Y\245N\377\233j\320n\252A\273"
 195      AF53EE59 
 195      A54EFF9B 
 195      6AD06EAA 
 195      41BB
 196 013f 6906EDA6 		.ascii	"i\006\355\246\031\264\2531hWc\320\256\336\240\235\221"
 196      19B4AB31 
 196      685763D0 
 196      AEDEA09D 
 196      91
 197 0150 EF799979 		.ascii	"\357y\231y\222\324$%\346H\215\354o\030\346i\226gs}P"
 197      92D42425 
 197      E6488DEC 
 197      6F18E669 
ARM GAS  /tmp/cc3OCxar.s 			page 14


 197      9667737D 
 198 0165 4B0A393E 		.ascii	"K\0129>\354\366c\346UI\222\026K\022\307\263\257\260"
 198      ECF663E6 
 198      55499216 
 198      4B12C7B3 
 198      AFB0
 199 0177 5E5033C7 		.ascii	"^P3\307\016\004\"?\371\357\344G\272\313e\265\004]\356"
 199      0E04223F 
 199      F9EFE447 
 199      BACB65B5 
 199      045DEE
 200 018a 635AA5B6 		.ascii	"cZ\245\266Db\363\365m\367HmM\361\376\376'\231\0372/"
 200      4462F3F5 
 200      6DF7486D 
 200      4DF1FEFE 
 200      27991F32 
 201 019f 02B6D436 		.ascii	"\002\266\3246W\222X\321\307\374N\271\231p07\311\213"
 201      579258D1 
 201      C7FC4EB9 
 201      99703037 
 201      C98B
 202 01b1 5FE5C5AD 		.ascii	"_\345\305\255\362\2628\321{\375\205\307%\311\313\263"
 202      F2B238D1 
 202      7BFD85C7 
 202      25C9CBB3 
 203 01c1 EB581FF0 		.ascii	"\353X\037\360\023f\231\2372o\310L\356{\330\2109\373"
 203      1366999F 
 203      326FC84C 
 203      EE7BD888 
 203      39FB
 204 01d3 D0C70FBC 		.ascii	"\320\307\017\274\277\231m\002vxv\003\202/\007w\340\331"
 204      BF996D02 
 204      76787603 
 204      822F0777 
 204      E0D9
 205 01e5 37D89F3A 		.ascii	"7\330\237:\206\272s\270c4r\271\021\201\216\353\200x"
 205      86BA73B8 
 205      633472B9 
 205      11818EEB 
 205      8078
 206 01f7 36C3A7D5 		.ascii	"6\303\247\325\036\334\253\015\010\032\334\022J\327I"
 206      1EDCAB0D 
 206      081ADC12 
 206      4AD749
 207 0206 EC617FAB 		.ascii	"\354a\177\253\324\220\233L\346\377\275\237\221\230\004"
 207      D4909B4C 
 207      E6FFBD9F 
 207      919804
 208 0215 E235F687 		.ascii	"\3425\366\207Xr\341\350\203P1\237\270\223\254\234a\314"
 208      5872E1E8 
 208      8350319F 
 208      B893AC9C 
 208      61CC
 209 0227 12D4D418 		.ascii	"\022\324\324\030JOcT\000oJO\267\026\366\337\217zjg\207"
 209      4A4F6354 
 209      006F4A4F 
 209      B716F6DF 
ARM GAS  /tmp/cc3OCxar.s 			page 15


 209      8F7A6A67 
 210 023c 014CB74E 		.ascii	"\001L\267NOia\010\037[\240\253\334Iv\327\370w\007r$"
 210      4F696108 
 210      1F5BA0AB 
 210      DC4976D7 
 210      F8770772 
 211 0251 B75CCF68 		.ascii	"\267\\\317h\3404\277\373\2316\3407\336;o\031\270\344"
 211      E034BFFB 
 211      9936E037 
 211      DE3B6F19 
 211      B8E4
 212 0263 3ED6887D 		.ascii	">\326\210}?EVr\251t\363R\354\367,:\275\216mF\217\331"
 212      3F455672 
 212      A974F352 
 212      ECF72C3A 
 212      BD8E6D46 
 213 0279 8E02ECE6 		.ascii	"\216\002\354\346\014\0050\007\342\331\235,\007\371."
 213      0C053007 
 213      E2D99D2C 
 213      07F92E
 214 0288 BD10575F 		.ascii	"\275\020W_B!v\331\022\342\316\331\326\037I\2118\233"
 214      422176D9 
 214      12E2CED9 
 214      D61F4989 
 214      389B
 215 029a C9CC9587 		.ascii	"\311\314\225\207t\323\360\225\271\026Czqb\355\362\023"
 215      74D3F095 
 215      B916437A 
 215      7162EDF2 
 215      13
 216 02ab F9A8F877 		.ascii	"\371\250\370w\241\023\307\334\324\361m\003\210p\265"
 216      A113C7DC 
 216      D4F16D03 
 216      8870B5
 217 02ba 0F3A6BB8 		.ascii	"\017:k\270\3362w\010\341\232\324[p\215\036\3031s\\,"
 217      DE327708 
 217      E19AD45B 
 217      708D1EC3 
 217      31735C2C 
 218 02ce 02BA7DA9 		.ascii	"\002\272}\251\272\305\251:\226j\272*U\315Q\325\277O"
 218      BAC5A93A 
 218      966ABA2A 
 218      55CD51D5 
 218      BF4F
 219 02e0 55BBA8EA 		.ascii	"U\273\250\352\267R\325n\205$\271e}\251B\2776T\320\242"
 219      B752D56E 
 219      8524B965 
 219      7DA942BF 
 219      3654D0A2 
 220 02f4 F0EC7BEC 		.ascii	"\360\354{\354\217!\177\237u\031v\343\230\235.V1\231"
 220      8F217F9F 
 220      751976E3 
 220      989D2E56 
 220      3199
 221 0306 91629462 		.ascii	"\221b\224b\212nnr\254\313\346\002\267\371\323\027\354"
 221      8A6E6E72 
 221      ACCBE602 
ARM GAS  /tmp/cc3OCxar.s 			page 16


 221      B7F9D317 
 221      EC
 222 0317 D266E960 		.ascii	"\322f\351`\236\341\240\001\177\242\374e\232\012\230"
 222      9EE1A001 
 222      7FA2FC65 
 222      9A0A98
 223 0326 93B45EFC 		.ascii	"\223\264^\374\354Y\326o\340Z\232\246<\373\001\210\221"
 223      EC59D66F 
 223      E05A9AA6 
 223      3CFB0188 
 223      91
 224 0337 AE156977 		.ascii	"\256\025iwB\357{+\316\242\357\235\260\345{k\317\266"
 224      42EF7B2B 
 224      CEA2EF9D 
 224      B0E57B6B 
 224      CFB6
 225 0349 0E1C409A 		.ascii	"\016\034@\232\340\316\263O\374\275i\0249\243\215\"<"
 225      E0CEB34F 
 225      FCBD6914 
 225      39A38D22 
 225      3C
 226 035a BB0D9078 		.ascii	"\273\015\220xv\252+I\307<\314\306\357\254\376;\302\350"
 226      76AA2B49 
 226      C73CCCC6 
 226      EFACFE3B 
 226      C2E8
 227 036c 69E8C231 		.ascii	"i\350\3021{]Z\037\3260$\0232c\342#\244i$\347\200\277"
 227      7B5D5A1F 
 227      D6302413 
 227      3263E223 
 227      A46924E7 
 228 0382 71CC51A4 		.ascii	"q\314Q\244s\"e}\015\\Z\353\307\267\033)\314\300N\011"
 228      7322657D 
 228      0D5C5AEB 
 228      C7B71B29 
 228      CCC04E09 
 229 0396 4E05FB79 		.ascii	"N\005\373yR\342\304\307\255}\0058n\023\030o\326\270"
 229      52E2C4C7 
 229      AD7D0538 
 229      6E13186F 
 229      D6B8
 230 03a8 D3C61B2D 		.ascii	"\323\306\033-\014\221\350\023\275\275\337\351D{\177"
 230      0C91E813 
 230      BDBDDFE9 
 230      447B7F
 231 03b7 92DEDECF 		.ascii	"\222\336\336\3176\307;:\327 \3738\0316\333\232W\347"
 231      36C73B3A 
 231      D720FB38 
 231      1936DB9A 
 231      57E7
 232 03c9 FD692FCE 		.ascii	"\375i/\316\253\330\245\311\262\013\317~\201\203/S;?"
 232      ABD8A5C9 
 232      B20BCF7E 
 232      81832F53 
 232      3B3F
 233 03db 65FA5205 		.ascii	"e\372R\0052-\015!\206x\303m0=[\303\253\323\363\374]"
 233      322D0D21 
ARM GAS  /tmp/cc3OCxar.s 			page 17


 233      8678C36D 
 233      303D5BC3 
 233      ABD3F3FC 
 234 03f0 8FA216BF 		.ascii	"\217\242\026\277\306\351\271\335\255\237\2363u\323s"
 234      C6E9B9DD 
 234      AD9F9E33 
 234      75D373
 235 03ff 7A761C36 		.ascii	"zv\0346\207\251\002\211~287z\2669\361Q\353%n\225\024"
 235      87A90289 
 235      7E323837 
 235      7AB639F1 
 235      51EB256E 
 236 0415 7FD6C5B3 		.ascii	"\177\326\305\263\237\243\024\3579\006\364k\014\273\243"
 236      9FA314EF 
 236      3906F46B 
 236      0CBBA3
 237 0424 336731AF 		.ascii	"3g1\257\202\035\266\003\3465\345.\276\213\006\373\300"
 237      821DB603 
 237      E635E52E 
 237      BE8B06FB 
 237      C0
 238 0435 319896B3 		.ascii	"1\230\226\263=4\330\031;`C\3159\353\242\301>r\014Fs"
 238      3D34D819 
 238      3B6043CD 
 238      39EBA2C1 
 238      3E720C46 
 239 044a D6183FDF 		.ascii	"\326\030?\337y\230\225Zr\356fZ$\251Qj\3130\363;\206"
 239      7998955A 
 239      72EE665A 
 239      24A9516A 
 239      CB30F33B 
 240 045f C1269265 		.ascii	"\301&\222e\023\236\275\311\336\255\035\231\307\237\317"
 240      139EBDC9 
 240      DEAD1D99 
 240      C79FCF
 241 046e 252393D4 		.ascii	"%#\223\324\247\217\304'\225\221\311\263_\242p\011\024"
 241      A78FC427 
 241      9591C9B3 
 241      5FA27009 
 241      14
 242 047f 8EF41D4C 		.ascii	"\216\364\035L\240\222\342\037wfK\363s\222k\260\365\026"
 242      A092E21F 
 242      77664BF3 
 242      73926BB0 
 242      F516
 243 0491 8CF7EB43 		.ascii	"\214\367\353C\312\351N\316/W\247\347\373\303\3165\303"
 243      CAE94ECE 
 243      2F57A7E7 
 243      FBC3CE35 
 243      C3
 244 04a2 A5B6BD6A 		.ascii	"\245\266\275jx\220\346J\017R\264\206\252\264\310\374"
 244      7890E64A 
 244      0F52B486 
 244      AAB4C8FC 
 245 04b2 908C281D 		.ascii	"\220\214(\035?\307\361\333\304\221\372\213\306\201\300"
 245      3FC7F1DB 
 245      C491FA8B 
ARM GAS  /tmp/cc3OCxar.s 			page 18


 245      C681C0
 246 04c1 06D09DF9 		.ascii	"\006\320\235\371\257\313\201`\016\002}3 \020\270t\201"
 246      AFCB8160 
 246      0E027D33 
 246      2010B874 
 246      81
 247 04d2 C0A51DD9 		.ascii	"\300\245\035\331._\252\320\337\357b\2345\346\230kH\260"
 247      2E5FAAD0 
 247      DFEF629C 
 247      35E6986B 
 247      48B0
 248 04e4 3FE57F1A 		.ascii	"?\345\177\032&\323\257$>:w\215[)\305\233\\\252*n:\006"
 248      26D3AF24 
 248      3E3A778D 
 248      5B29C59B 
 248      5CAA2A6E 
 249 04fa 1CAA330A 		.ascii	"\034\2523\012\307H\236A\372\015%\272,5\317\336f\357"
 249      C7489E41 
 249      FA0D25BA 
 249      2C35CFDE 
 249      66EF
 250 050c 87BC0F72 		.ascii	"\207\274\017r\212@\223\307\306\250\033n\"5\014\341n"
 250      8A4093C7 
 250      C6A81B6E 
 250      22350CE1 
 250      6E
 251 051d 7A08CF73 		.ascii	"z\010\317s\014\346\327\200]\246\301^\260\003\3467\347"
 251      0CE6D780 
 251      5DA6C15E 
 251      B003E637 
 251      E7
 252 052e EC0A0DB6 		.ascii	"\354\012\015\266\3041\230\226\263k4\330r;`\017Z\031"
 252      C4319896 
 252      B36B34D8 
 252      723B600F 
 252      5A19
 253 0540 45639FD4 		.ascii	"Ec\237\324\032\200g?\305\031\3673\264\324%\314\2731"
 253      1A80673F 
 253      C519F733 
 253      B4D425CC 
 253      BB31
 254 0552 BF8CF915 		.ascii	"\277\214\371\025\314\257a~\035\363\005\034\311\027a"
 254      CCAF617E 
 254      1DF3051C 
 254      C91761
 255 0561 BE04F3A5 		.ascii	"\276\004\363\245\034e_\213\365Zo\313\275$\234\235\307"
 255      1C655F8B 
 255      F55A6FCB 
 255      BD249C9D 
 255      C7
 256 0572 F5DA6A8F 		.ascii	"\365\332j\217\345z-a\"*\341~\005g\276^\323\375\215c"
 256      E57A2D61 
 256      222AE17E 
 256      0567BE5E 
 256      D3FD8D63 
 257 0586 5EF3385D 		.ascii	"^\3638]\257Qf\300\325\372\225Sls\263\264>O\035do\352"
 257      AF5166C0 
ARM GAS  /tmp/cc3OCxar.s 			page 19


 257      D5FA9553 
 257      6C73B3B4 
 257      3E4F1D64 
 258 059c 118D0699 		.ascii	"\021\215\006\231\331\344\010\001\357\314K9]\323T\260"
 258      D9E40801 
 258      EFCC4B39 
 258      5DD354B0 
 259 05ac 76C760FA 		.ascii	"v\307`\372\021\253\332\361$\332\361\024\332\350\034"
 259      11ABDAF1 
 259      24DAF114 
 259      DAE81C
 260 05bb E6ABD03A 		.ascii	"\346\253\320:/q\232\321\267\325\243\017r\362B\237\302"
 260      2F719AD1 
 260      B7D5A30F 
 260      72F2429F 
 260      C2
 261 05cc 4BED0898 		.ascii	"K\355\010\230\364\210fF\352b\263SD\343\036\335\226\311"
 261      F4886646 
 261      EA62B353 
 261      44E31EDD 
 261      96C9
 262 05de 9911E2AD 		.ascii	"\231\021\342\255\347`,\244[1\267\271U\244\"&\265\323"
 262      E7602CA4 
 262      5B31B7B9 
 262      55A42226 
 262      B5D3
 263 05f0 BD141FBE 		.ascii	"\275\024\037\276C\222\206\362\354+\034Y2K\031i\227\314"
 263      439286F2 
 263      EC2B1C59 
 263      324B1969 
 263      97CC
 264 0602 5A1C8E79 		.ascii	"Z\034\216y\016\273\274\312i\347\270\304\351\313\211"
 264      0EBBBCCA 
 264      69E7B8C4 
 264      E9CB89
 265 0611 7F5C89C8 		.ascii	"\177\\\211\310\344O\351\347\271[s_\036\270\360\227\331"
 265      E44FE9E7 
 265      B95B735F 
 265      1EB8F097 
 265      D9
 266 0622 32D3E17A 		.ascii	"2\323\341z\2753\037L\2622\270\315G\337~\214)\004\027"
 266      BD331F4C 
 266      B232B8CD 
 266      47DF7E8C 
 266      290417
 267 0635 76328EC1 		.ascii	"v2\216\301\264FYz\200\332\012\330Zx\367^QN\3576\242"
 267      B446597A 
 267      80DA0AD8 
 267      5A78F75E 
 267      514EEF36 
 268 064a EF9FCAD0 		.ascii	"\357\237\312\320\273\342\227\254\343\2257\307\234\263"
 268      BBE297AC 
 268      E39537C7 
 268      9CB3
 269 0658 2387E978 		.ascii	"#\207\351x$\206\354\272w{\273$=\227\241.vLWi\034\363"
 269      2486ECBA 
 269      777BBB24 
ARM GAS  /tmp/cc3OCxar.s 			page 20


 269      3D97A12E 
 269      764C5769 
 270 066e 19126BD7 		.ascii	"\031\022k\327;\303\316\336\256\207dgh\267\345\014\035"
 270      3BC3CEDE 
 270      AE876467 
 270      68B7E50C 
 270      1D
 271 067f 9D2B6CED 		.ascii	"\235+l\355\002\3332T\362a$\377z&!\3371\300\027o}\371"
 271      02DB3254 
 271      F26124FF 
 271      7A2621DF 
 271      31C0176F 
 272 0695 844CBEC3 		.ascii	"\204L\276\303\026\371\363G\015\216\275L7\352\212\365"
 272      16F9F347 
 272      0D8EBD4C 
 272      37EA8AF5 
 273 06a5 76F6763F 		.ascii	"v\366v?\270\026\211\354D\377\351\311\324\233\357\311"
 273      B81689EC 
 273      44FFE9C9 
 273      D49BEFC9 
 274 06b5 6C9A16DE 		.ascii	"l\232\026\336k\334\367f\222\373A\271/\210\031\177\362"
 274      6BDCF766 
 274      92FB41B9 
 274      2F88197F 
 274      F2
 275 06c6 0DB494CA 		.ascii	"\015\264\224\312C\237cD\255\017_>\212\003B\006k\362"
 275      439F6344 
 275      AD0F5F3E 
 275      8A034206 
 275      6BF2
 276 06d8 DA00B308 		.ascii	"\332\000\263\010\354Wh\260\271\216\301\264\234]\243"
 276      EC5768B0 
 276      B98EC1B4 
 276      9C5DA3
 277 06e7 C1E6DB01 		.ascii	"\301\346\333\0013\333\365\000\330u\032l\241c0-g7i\260"
 277      33DBF500 
 277      D8751A6C 
 277      A163302D 
 277      673769B0 
 278 06fb 163B6066 		.ascii	"\026;`f\2139\000\273M\203-w\014\246\345\254\217\006"
 278      8B3900BB 
 278      4D832D77 
 278      0CA6E5AC 
 278      8F06
 279 070d 5B6D07CC 		.ascii	"[m\007\314o\316\331\342\017(\260V\307`Z\316Zh\260\377"
 279      6FCED9E2 
 279      0F28B056 
 279      C7605ACE 
 279      5A68B0FF 
 280 0721 B60366B4 		.ascii	"\266\003f\264\230S\300\226\321`\353\034\203i9[N\203"
 280      9853C096 
 280      D160EB1C 
 280      8369395B 
 280      4E83
 281 0733 6DB00396 		.ascii	"m\260\003\226g\316\331J\032\354-\307`Z\316V\323`\355"
 281      67CED94A 
 281      1AEC2DC7 
ARM GAS  /tmp/cc3OCxar.s 			page 21


 281      605ACE56 
 281      D360ED
 282 0746 76C0469B 		.ascii	"v\300F\233s\266\206\006\333\352\030L\313\331&\032l\207"
 282      73B68606 
 282      DBEA184C 
 282      CBD9261A 
 282      6C87
 283 0758 1DB031E6 		.ascii	"\035\2601\346\234\265\323`\273\035\203i9\373#\015\026"
 283      9CB5D360 
 283      BB1D8369 
 283      39FB230D 
 283      16
 284 0769 B70336C1 		.ascii	"\267\0036\301\234\263\2554\330{\216\301\264\234m\243"
 284      9CB3AD34 
 284      D87B8EC1 
 284      B49C6DA3 
 285 0779 C1F6DB01 		.ascii	"\301\366\333\001+5\347l\007\015v\3101\230\226\263]4"
 285      2B35E76C 
 285      070D76C8 
 285      319896B3 
 285      5D34
 286 078b D89FED80 		.ascii	"\330\237\355\200=m\316\331\036\032\254\3131\230\226"
 286      3D6DCED9 
 286      1E1AACCB 
 286      319896
 287 079a B32E1AEC 		.ascii	"\263.\032\354\204\035\260i\006\234%\177f\313\314\255"
 287      841DB069 
 287      069C257F 
 287      66CBCCAD 
 288 07aa 1CB5543F 		.ascii	"\034\265T?\355U\0278\016\347h&\205q\326\353tE\246\221"
 288      ED551738 
 288      0EE76826 
 288      8571D6EB 
 288      7445A691 
 289 07be 9B2CADEF 		.ascii	"\233,\255\357\335\241\314\363\362Z\365\202\035D\213"
 289      DDA1CCF3 
 289      F25AF582 
 289      1D448B
 290 07cd 0970F5   		.ascii	"\011p\365"
 291 07d0 016AE1FB 		.ascii	"\001j\341\373\225c0\235+\037\320\357F\224%p\342\265"
 291      9563309D 
 291      2B1FD0EF 
 291      46942570 
 291      E2B5
 292 07e2 B8F59337 		.ascii	"\270\365\2237|\230\236l,\015\037n\334\026\266\332\034"
 292      7C989E6C 
 292      2C0D1F6E 
 292      DC16B6DA 
 292      1C
 293 07f3 D9CCDDE0 		.ascii	"\331\314\335\340|I.\344\262Z\222\237D\365xM\237\307"
 293      7C492EE4 
 293      B25A929F 
 293      44F5784D 
 293      9FC7
 294 0805 5B7735F3 		.ascii	"[w5\363\204k\264'\\\263\243&\213\251\375\374\2015\370"
 294      846BB427 
 294      5CB3A326 
ARM GAS  /tmp/cc3OCxar.s 			page 22


 294      8BA9FDFC 
 294      8135F8
 295 0818 58929237 		.ascii	"X\222\2227\315c\311\336/\225\375\301\035\334\037\334"
 295      CD63C9DE 
 295      2F95FDC1 
 295      1DDC1FDC 
 296 0828 F11A1EEC 		.ascii	"\361\032\036\354\331\000:>o\343\317\020Hr\021\240\271"
 296      D9003A3E 
 296      6FE3CF10 
 296      487211A0 
 296      B9
 297 0839 BEC102DD 		.ascii	"\276\301\002\335\231\337*?\311oF\240\205: \345\361 "
 297      99DF2A3F 
 297      C96F46A0 
 297      853A20E5 
 297      F120
 298 084b A57756BB 		.ascii	"\245wV\273a\261|\350\3707l\3131+}:k\031=\2254_;\301"
 298      61B17CE8 
 298      F8376CCB 
 298      312B7D3A 
 298      6B193D95 
 299 0863 983B73DF 		.ascii	"\230;s\337\366\267$\2519\303\201\275>U\354\365;\324"
 299      F6B724A9 
 299      39C381BD 
 299      3E55ECF5 
 299      3BD4
 300 0875 4EDB00ED 		.ascii	"N\333\000\355H\372\003\324\264b\254w,\306\203:1\342"
 300      48FA03D4 
 300      B462AC77 
 300      2CC6833A 
 300      31E2
 301 0887 0F3A16E3 		.ascii	"\017:\026\343[E\214\005(\306\246\277\201\030\333\034"
 301      5B458C05 
 301      28C6A6BF 
 301      8118DB1C 
 302 0897 8B914789 		.ascii	"\213\221G\211\201{\322\021\362\236\324\326\223\203\026"
 302      817BD211 
 302      F29ED4D6 
 302      938316
 303 08a6 97EEC9C1 		.ascii	"\227\356\311\301\207\207Y\277\\\235n3(\305{\017\253"
 303      878759BF 
 303      5C9D6E33 
 303      28C57B0F 
 303      AB
 304 08b7 0F0EE497 		.ascii	"\017\016\344\227j\336E\336I_\2073\200\202\267L>\270"
 304      6ADE45DE 
 304      495F8733 
 304      8082B74C 
 304      3EB8
 305 08c9 94C1F67F 		.ascii	"\224\301\366\177/\260\246\370;\317\277\2540\367$\236"
 305      2FB0A6F8 
 305      3BCFBFAC 
 305      30F7249E 
 306 08d9 597C4FB8 		.ascii	"Y|O\270c\235\216\317,\332\026\310\316\361\022:\307\251"
 306      639D8ECF 
 306      2CDA16C8 
 306      CEF1123A 
ARM GAS  /tmp/cc3OCxar.s 			page 23


 306      C7A9
 307 08eb 01CE31A8 		.ascii	"\001\3161\2503\213\213\203\225#\371\203iL\357c\2166"
 307      338B8B83 
 307      9523F983 
 307      694CEF63 
 307      8E36
 308 08fd 38C4C7AE 		.ascii	"8\304\307\256\217\260y\356\221<L\373r\370A\3710\315"
 308      8FB079EE 
 308      913C4CFB 
 308      72F841F9 
 308      30CD
 309 090f 450ED3FE 		.ascii	"E\016\323\376W\247\014\033\347'\267e\246]\003\016\323"
 309      57A70C1B 
 309      E727B765 
 309      A65D030E 
 309      D3
 310 0920 BAEE510E 		.ascii	"\272\356Q\016\323\\\266\316O\346\252n\241\234\221q\234"
 310      D35CB6CE 
 310      4FE6AA6E 
 310      A19C9171 
 310      9C
 311 0931 023B587D 		.ascii	"\002;X}jL\230\342\017\374\330E\246\342\327]\232S\324"
 311      6A4C98E2 
 311      0FFCD845 
 311      A6E2D75D 
 311      9A53D4
 312 0944 17B29CEA 		.ascii	"\027\262\234\352\336O\353>~\253s\015K\37078\362\031"
 312      DE4FEB3E 
 312      7EAB730D 
 312      4BF83738 
 312      F219
 313 0956 432F9092 		.ascii	"C/\220\222\212O\334s\010\325\263\001\025\277<\313\341"
 313      8A4FDC73 
 313      08D5B301 
 313      15BF3CCB 
 313      E1
 314 0967 9B52B04F 		.ascii	"\233R\260O\304.\033\007*\376\340?\310\212\337hK\361"
 314      C42E1B07 
 314      2AFEE03F 
 314      C88ADF68 
 314      4BF1
 315 0979 270D15BF 		.ascii	"'\015\025\277\321\271\342\025\274S\251\023I\236\375"
 315      D1B9E215 
 315      BC53A913 
 315      499EFD
 316 0988 836330BF 		.ascii	"\203c0\277\225\0257RV|\033\255\270\311E\316\2577km\331"
 316      95153752 
 316      567C1BAD 
 316      B8C945CE 
 316      AF376B6D 
 317 099d A1B7A546 		.ascii	"\241\267\245FsJ\321t;.\305\227\036\321\306\317}v|\303"
 317      734AD174 
 317      3B2EC597 
 317      1ED1C6CF 
 317      7D767CC3 
 318 09b1 6213DD7A 		.ascii	"b\023\335z\004U\"\307\233\203\216\301\374\032\260\335"
 318      045522C7 
ARM GAS  /tmp/cc3OCxar.s 			page 24


 318      9B838EC1 
 318      FC1AB0DD 
 319 09c1 0B0D4E9D 		.ascii	"\013\015N\235\215\336Kc\351\205/\307\034G\272\333\365"
 319      8DDE4B63 
 319      E9852FC7 
 319      1C47BADB 
 319      F5
 320 09d2 EEF2DDD6 		.ascii	"\356\362\335\326c\363\330F\371\2257\033\376\002\223"
 320      63F3D846 
 320      F995371B 
 320      FE0293
 321 09e1 CB673EA9 		.ascii	"\313g>\251%G\365\333\005\331*\252\205\252-\274\345\326"
 321      2547F5DB 
 321      05D92AAA 
 321      85AA2DBC 
 321      E5D6
 322 09f3 57875884 		.ascii	"W\207X\204\223\027\362/\352\341\322\3563\264p}\202\361"
 322      9317F22F 
 322      EAE1D2EE 
 322      33B4707D 
 322      82F1
 323 0a05 3B58E68A 		.ascii	";X\346\212Q\337\300\332N\246\327}(\323\313\331\372\031"
 323      51DFC0DA 
 323      4EA6D77D 
 323      28D3CBD9 
 323      FA19
 324 0a17 41D60CE5 		.ascii	"A\326\014\345\210\333)G\334\211\216\270\013\035q\017"
 324      88DB2947 
 324      DC898EB8 
 324      0B1D710F 
 325 0a27 E671DA1D 		.ascii	"\346q\332\035\315f\370\275.je\376\232c\271\375:\353"
 325      CD66F8BD 
 325      2E6A65FE 
 325      9A63B9FD 
 325      3AEB
 326 0a39 9891D946 		.ascii	"\230\221\331F\223y3\333\206\357\231\237\271\220\240"
 326      937933DB 
 326      86EF999F 
 326      B990A0
 327 0a48 FECFDB95 		.ascii	"\376\317\333\225m\234|\342\277\3251\242\326\233{\026"
 327      6D9C7CE2 
 327      BFD531A2 
 327      D69B7B16 
 328 0a58 6A56037B 		.ascii	"jV\003{\355\300\2151`\320\350G?\342\201\241\214\033"
 328      EDC08D31 
 328      60D0E847 
 328      3FE281A1 
 328      8C1B
 329 0a6a B0D7F179 		.ascii	"\260\327\361y\327\006\314\337\304|3\346=\230\177\207"
 329      D706CCDF 
 329      C47C33E6 
 329      3D987F87 
 330 0a7a F955CC6F 		.ascii	"\371U\314oc>\017\015\372\002\346K0o\303\374\015\314"
 330      633E0F0D 
 330      FA02E64B 
 330      306FC3FC 
 330      0DCC
ARM GAS  /tmp/cc3OCxar.s 			page 25


 331 0a8c DFC17C0B 		.ascii	"\337\301|\013\346\035\230\037\300\374P:\007Pf\201w\366"
 331      E61D981F 
 331      C0FC503A 
 331      07506681 
 331      77F6
 332 0a9e 7C78EF9B 		.ascii	"|x\357\233\030\253\333\320\375\033s\364\236\267\236"
 332      18ABDBD0 
 332      FD1B73F4 
 332      9EB79E
 333 0aad D39DC00F 		.ascii	"\323\235\300\017x\202\264,\307\306\2238\213\207%=G\217"
 333      7882B42C 
 333      C7C69338 
 333      8B87253D 
 333      478F
 334 0abf 9C66974A 		.ascii	"\234f\227J\322\301<\331\377yv\207\213\323\"jG\214\205"
 334      D2C13CD9 
 334      FF797687 
 334      8BD3226A 
 334      478C85
 335 0ad2 372A46FD 		.ascii	"7*F\375\270u\255\275g!\311W\331\036H\351\244\367\342"
 335      B875ADBD 
 335      6721C957 
 335      D91E48E9 
 335      A4F7E2
 336 0ae5 87FF29BF 		.ascii	"\207\377)\277\202{\014G\343i\235N\322\342\340\003O]"
 336      827B0C47 
 336      E3699D4E 
 336      D2E2E003 
 336      4F5D
 337 0af7 988BF79C 		.ascii	"\230\213\367\234\223_\201L\037\342\236m\216_=\267Lq"
 337      935F814C 
 337      1FE29E6D 
 337      8E5F3DB7 
 337      4C71
 338 0b09 4AF959FD 		.ascii	"J\371Y\375'\310\302\211\301M\211\344\301\3779\352\301"
 338      27C8C289 
 338      C14D89E4 
 338      C1FF39EA 
 338      C1
 339 0b1a FF178EC1 		.ascii	"\377\027\216\301\374\032\260\3534\3307v\300,^\353\272"
 339      FC1AB0EB 
 339      34D83776 
 339      C02C5EEB 
 339      BA
 340 0b2b 49835D72 		.ascii	"I\203]r\014\246\345\3546\015\326c\007\314\342\265\256"
 340      0CA6E5EC 
 340      360DD663 
 340      07CCE2B5 
 340      AE
 341 0b3c 3E1AACD7 		.ascii	">\032\254\3271\230\226\263\305\347)\260>;`\026o\253"
 341      319896B3 
 341      C5E729B0 
 341      3E3B6016 
 341      6FAB
 342 0b4e B4D06073 		.ascii	"\264\320`s\356r\012\246\345l\031\015\266\300\016\230"
 342      EE720AA6 
 342      E56C190D 
ARM GAS  /tmp/cc3OCxar.s 			page 26


 342      B6C00E98 
 343 0b5e DF8033A3 		.ascii	"\337\2003\243\037=\010x\366$NR\2470:\235\301\374/\230"
 343      1F3D0878 
 343      F6244E52 
 343      A7303A9D 
 343      C1FC2F98 
 344 0b72 7F84F939 		.ascii	"\177\204\3719\314\023\230_\304\374S\314?\2673\221u\321"
 344      CC13985F 
 344      C4FC53CC 
 344      3FB73391 
 344      75D1
 345 0b84 33CCD2BB 		.ascii	"3\314\322\273lD#\213C\213\236E\037\177\257W\251\023"
 345      6C44238B 
 345      438B9E45 
 345      1F7FAF57 
 345      A913
 346 0b96 E7BF3EF4 		.ascii	"\347\277>\364/$|\244\177\235\372[\227\275\327\251/\351"
 346      2F247CA4 
 346      7F9DFA5B 
 346      97BDD7A9 
 346      2FE9
 347 0ba8 63C9D523 		.ascii	"c\311\325#\030K.\331Z^\367\332\\\256\305YZ;\311Xx\350"
 347      184B2ED9 
 347      5A5EF7DA 
 347      5CAEC559 
 347      5A3BC958 
 348 0bbe 0939165E 		.ascii	"\0119\026^\306Xx\356\256\264\261P\213C\370\273\252\347"
 348      C65878EE 
 348      AEB4B150 
 348      8B43F8BB 
 348      AAE7
 349 0bd0 FF9DA3C8 		.ascii	"\377\235\243\310\377U[\261\260\343\2506\026\366 \013"
 349      FF555BB1 
 349      B0E3A836 
 349      16F6200B 
 350 0be0 57071D0B 		.ascii	"W\007\035\013\267\035\245\034\376\212c0\277\006l\007"
 350      B71DA51C 
 350      FE8A6330 
 350      BF066C07 
 351 0bf0 0D76C30E 		.ascii	"\015v\303\016\230\325+\2564\330\035\307`Z\316\366\320"
 351      98D52BAE 
 351      34D81DC7 
 351      605ACEF6 
 351      D0
 352 0c01 604DB936 		.ascii	"`M\2716\300\254^q\245\301\3469\006\363\033\231\227\031"
 352      C0AC5E71 
 352      A5C1E639 
 352      06F31B99 
 352      9719
 353 0c13 E01D3C7B 		.ascii	"\340\035<{\015\203D/\016\375\033\230\337\302\374\016"
 353      0D83442F 
 353      0EFD1B98 
 353      DFC2FC0E 
 354 0c23 E6FD9837 		.ascii	"\346\375\2307\272m\204\204\036:$<\217\014_\032\354\206"
 354      BA6D8484 
 354      1E3A243C 
 354      8F0C5F1A 
ARM GAS  /tmp/cc3OCxar.s 			page 27


 354      EC86
 355 0c35 1246F485 		.ascii	"\022F\364\205\307\344g\007\272\227\033\210>\3148\230"
 355      C7E46707 
 355      BA971B88 
 355      3ECC3898 
 356 0c45 E3A63868 		.ascii	"\343\2468hq\314\201\237\346 ~\353\210|\356\255\236>"
 356      71CC819F 
 356      E6207EEB 
 356      887CEEAD 
 356      9E3E
 357 0c57 AFD0E319 		.ascii	"\257\320\343\031\235\005Z\355R\216do\232\246\202\265"
 357      9D055AED 
 357      528E646F 
 357      9AA682B5 
 358 0c67 3A06F36A 		.ascii	":\006\363j\300\026\037\245\300\326;\0063{\371\354\257"
 358      C0161FA5 
 358      C0D63B06 
 358      337BF9EC 
 358      AF
 359 0c78 E80BDD68 		.ascii	"\350\013\335h\363g\335\270\024\306\3749\314\237\247"
 359      F367DDB8 
 359      14C6FC39 
 359      CC9FA7
 360 0c87 BD8063DE 		.ascii	"\275\200c\336\316\325\257[/\351wL\251(\312\330\3055"
 360      CED5AF5B 
 360      2FE9774C 
 360      A928CAD8 
 360      C535
 361 0c99 B3EDD7B4 		.ascii	"\263\355\327\264w\355\313\2651\341\370\315\275\253g"
 361      77EDCBB5 
 361      31E1F8CD 
 361      BDAB67
 362 0ca8 D17965C2 		.ascii	"\321ye\302\221\201a\203\356\030Q\353-/\236o\325\274"
 362      91816183 
 362      EE1851EB 
 362      2D2F9E6F 
 362      D5BC
 363 0cba B67DC40E 		.ascii	"\266}\304\016\236\305\313\001k\344%\202\014v\3061\230"
 363      9EC5CB01 
 363      6BE42582 
 363      0C76C631 
 363      98
 364 0ccb 9F31FDD1 		.ascii	"\2371\375\321\237\251\361\354n|\335p\017\276\026x\024"
 364      9FA9F1EC 
 364      6E7CDD70 
 364      0FBE1678 
 364      14
 365 0cdc F3B5B805 		.ascii	"\363\265\270\005:\202\266:\212\371W\230/B[-\301|\251"
 365      3A82B63A 
 365      8AF95798 
 365      2F425B2D 
 365      C17CA9
 366 0cef 1D8B6D4B 		.ascii	"\035\213mK\275:\010\202\340\366b\313`\277\267I\334Z"
 366      BD3A0882 
 366      E0F662CB 
 366      60BFB749 
 366      DC5A
ARM GAS  /tmp/cc3OCxar.s 			page 28


 367 0d01 D8B799BD 		.ascii	"\330\267\231\275\334$\255\314\263\375y\\\374\374<\262"
 367      DC24ADCC 
 367      B3FD795C 
 367      FCFC3CB2 
 368 0d11 BD5FEE26 		.ascii	"\275_\356&\337\306]\3249\253\315o\343V\271u\337\306"
 368      DFC65DD4 
 368      39ABCD6F 
 368      E356B975 
 368      DFC6
 369 0d23 1D7BCA2F 		.ascii	"\035{\312/\327\246\3772\256;w\340\227q7r\015\277\214"
 369      D7A6FF32 
 369      AE3B77E0 
 369      97713772 
 369      0DBF8C
 370 0d36 EBCB35FC 		.ascii	"\353\3135\3742n\336\020\303/\343\026\015\321~\031\247"
 370      326EDE10 
 370      C32FE316 
 370      0DD17E19 
 370      A7
 371 0d47 54AF4855 		.ascii	"T\257HU{(UZ>\217J\311\307\263\253\335\304\025^r\033"
 371      7B28555A 
 371      3E8F4AC9 
 371      C7B3ABDD 
 371      C4155E72 
 372 0d5c 7F30072E 		.ascii	"\1770\007.\301\352L\230\366\2039K/\334By\341V\364\302"
 372      C1EA4C98 
 372      F683394B 
 372      2FDC4279 
 372      E156F4C2 
 373 0d70 0EF4BF17 		.ascii	"\016\364\277\027\355\370\326\346\224oi\2769\303\002"
 373      EDF8D6E6 
 373      946F69BE 
 373      39C302
 374 0d7f F5D919C7 		.ascii	"\365\331\031\307\264\015\321\032\376\001\346\367\222"
 374      B40DD11A 
 374      FE01E6F7 
 374      92
 375 0d8c D492D87C 		.ascii	"\324\222\330|\375\214k\225\024w\313P\034\363\007l\366"
 375      FD8C6B95 
 375      1477CB50 
 375      1CF3076C 
 375      F6
 376 0d9d 2A7B9F21 		.ascii	"*{\237!I\205\240\334W\352\020&\310\324 \006\246\351"
 376      4985A0DC 
 376      57EA1026 
 376      C8D42006 
 376      A6E9
 377 0daf A6F0F44F 		.ascii	"\246\360\364O\314kd\311\366\366\3349C\335\362\371\""
 377      CC6B64C9 
 377      F6F6DC39 
 377      43DDF2F9 
 377      22
 378 0dc0 63D14D91 		.ascii	"c\321M\221q\275[\363\2757\371\372:\321\025\377\356L"
 378      71BD5BF3 
 378      BD37F9FA 
 378      3AD115FF 
 378      EE4C
ARM GAS  /tmp/cc3OCxar.s 			page 29


 379 0dd2 CEE2C644 		.ascii	"\316\342\306D\177\377}\366\277\316{\333\255\373:\217"
 379      7FFF7DF6 
 379      BFCE7BDB 
 379      ADFB3A8F 
 380 0de2 0893BC51 		.ascii	"\010\223\274Q>\371\326\251m\253\241\332\244\253\341"
 380      3EF9D6A9 
 380      6DABA1DA 
 380      A4ABE1
 381 0df1 0972779E 		.ascii	"\011rw\236\335\340&\356\360\226\333\216\306V\375\373"
 381      DDE026EE 
 381      F096DB8E 
 381      C656FDFB 
 382 0e01 70F5DBF3 		.ascii	"p\365\333\363\275\010Lu\323=2W\330Q4\266@\2323\224E"
 382      BD084C75 
 382      D33D3257 
 382      D85134B6 
 382      409A3394 
 383 0e16 E118A597 		.ascii	"\341\030\245\227\306\207\332\007\252(\336\035\377\343"
 383      C687DA07 
 383      AA28DE1D 
 383      FFE3
 384 0e24 67630E4A 		.ascii	"gc\016J\335\375\375C\354\253h\233\221\212t*y\337\246"
 384      DDFDFD43 
 384      ECAB689B 
 384      918A742A 
 384      79DFA6
 385 0e37 4A3AAC55 		.ascii	"J:\254U\242\310\266X'[\207^\266\035\006\346\357\226"
 385      A2C8B658 
 385      275B875E 
 385      B61D06E6 
 385      EF96
 386 0e49 6049E493 		.ascii	"`I\344\223\372\373\373\311\307\374\304\256\034s\312"
 386      FAFBFBC9 
 386      C7FCC4AE 
 386      1C73CA
 387 0e58 265BBB9D 		.ascii	"&[\273\235Y\012\006\250\276\233\003K\355\326K\263g\240"
 387      590A06A8 
 387      BE9B034B 
 387      EDD64BB3 
 387      67A0
 388 0e6a 346D89F8 		.ascii	"4m\211\370\025A6\224*\313\005#Y\232\244;zY\366\331\222"
 388      15413694 
 388      2ACB0523 
 388      599AA43B 
 388      7A59F6D9 
 389 0e7f 6573CAEB 		.ascii	"es\312\353\272\021x\337\240d\331\247\227\345\275\201"
 389      BA1178DF 
 389      A064D9A7 
 389      97E5BD81 
 390 0e8f B26C4AC4 		.ascii	"\262lJ\304\327\356\357d\201\350m\362Q\220\316\361\326"
 390      D7EEEF64 
 390      81E86DF2 
 390      5190CEF1 
 390      D6
 391 0ea0 59AC590F 		.ascii	"Y\254Y\017Y\016N\345\221\265\321\327\371\362\037\315"
 391      590E4EE5 
 391      91B5D1D7 
ARM GAS  /tmp/cc3OCxar.s 			page 30


 391      F9F21FCD 
 392 0eb0 60FFC74D 		.ascii	"`\377\307M\037!\352<\371\206\261\232W\010:5\037\264"
 392      1F21EA3C 
 392      F986B19A 
 392      57083A35 
 392      1FB4
 393 0ec2 A1E626E9 		.ascii	"\241\346&\351\030Q\263\274\022}a(\253\355\246S3\212"
 393      1851B3BC 
 393      127D6128 
 393      ABEDA653 
 393      338A
 394 0ed4 A374EB27 		.ascii	"\243t\353'\324\010\233\034\263D\337MGM\021\3068\212"
 394      D4089B1C 
 394      B344DF4D 
 394      474D11C6 
 394      388A
 395 0ee6 9A755304 		.ascii	"\232uS\004?bh\254\256\375\306Q\324\312R\247\034X*y\257"
 395      3F6268AC 
 395      AEFDC651 
 395      D4CA52A7 
 395      1C582A79 
 396 0efb D3FCF2A1 		.ascii	"\323\374\362\241\206\232_\245\327\374I[\232?\256j\236"
 396      869A5FA5 
 396      D7FC495B 
 396      9A3FAE6A 
 396      9E
 397 0f0c 678FE9BB 		.ascii	"g\217\351\273Yi>e\260\015\310O\232nf\2327cR\321\327"
 397      59693E65 
 397      B00DC84F 
 397      9A6E669A 
 397      376352D1 
 398 0f21 5F0C357F 		.ascii	"_\0145\177y\020\232\277\340H\363\212\267\244\261\304"
 398      79109ABF 
 398      E048F38A 
 398      B7A4B1C4 
 399 0f31 26634B2C 		.ascii	"&cK,\321[\"a\313\022;S*\215#p\302\226%\226\2022X\231"
 399      D15B2261 
 399      CB123B53 
 399      2A8D2370 
 399      C2962596 
 400 0f49 639E3D9E 		.ascii	"c\236=\236\206\036\312\245t|w\177v\236J\360\260\035"
 400      861ECAA5 
 400      747C777F 
 400      769E4AF0 
 400      B01D
 401 0f5b 82663634 		.ascii	"\202f64#\247h\376sC\033\266\034Pl(\233\206c\272\214"
 401      23A768FE 
 401      73431BB6 
 401      1C506C28 
 401      9B8663BA 
 402 0f70 95B954AF 		.ascii	"\225\271T\257\314K\266\224\271;\345\326_\351\273Y(\363"
 402      CC4BB694 
 402      B93BE5D6 
 402      5FE9BB59 
 402      28F3
 403 0f82 C581CA34 		.ascii	"\305\201\3124\247G+\363XR\231<\373\255\035\202f\312"
 403      A7472BF3 
ARM GAS  /tmp/cc3OCxar.s 			page 31


 403      5852993C 
 403      FBAD1D82 
 403      66CA
 404 0f94 3423A728 		.ascii	"4#\247(\363\257\206\312l?\340|"
 404      F3AF86CA 
 404      6C3FE07C 
 405 0fa0 405CB333 		.ascii	"@\\\2633 t\016\177\301\330F\375\372\271\365\252-\033"
 405      20740E7F 
 405      C1D846FD 
 405      FAB9F5AA 
 405      2D1B
 406 0fb2 6D4F397C 		.ascii	"mO9|7\002_\035\234\312\314\250)\202\336\320\252L\371"
 406      37025F1D 
 406      9CCACCA8 
 406      2982DED0 
 406      AA4CF9
 407 0fc5 770556DF 		.ascii	"w\005V\337\004\363l3>\363K\367\331.\236\2426\332\376"
 407      04F36C33 
 407      3EF34BF7 
 407      D92E9EA2 
 407      36DAFE
 408 0fd8 229ADC35 		.ascii	"\"\232\3345\342\316\3709\372\2639\335\214LV1fX\222'"
 408      E2CEF839 
 408      FAB339DD 
 408      8C4C5631 
 408      66589227 
 409 0fec DBA4D736 		.ascii	"\333\244\3276\213^\215\251^\214'4\256\266\266jXQ42"
 409      8B5E8DA9 
 409      5E8C2734 
 409      AEB6B66A 
 409      58513432 
 410 1000 4B88C602 		.ascii	"K\210\306\002\321\031\325\005#\247\327\215\250`&\004"
 410      D119D505 
 410      23A7D78D 
 410      A8602604 
 411 1010 2A6BAB85 		.ascii	"*k\253\205@Em\370\231@X\230\025\250\250\214L\217\324"
 411      40456DF8 
 411      99405898 
 411      15A8A88C 
 411      4C8FD4
 412 1023 C60262B4 		.ascii	"\306\002b\264\276\346\327\001(D\305@]mT\214\005\306"
 412      BEE6D701 
 412      2844C540 
 412      5D6D548C 
 412      05C6
 413 1035 0627154E 		.ascii	"\006'\025Nj\200\226\325u\221*\002\362Ta!4\027\237\251"
 413      6A8096D5 
 413      75912A02 
 413      F2546121 
 413      34179FA9 
 414 1049 1362232A 		.ascii	"\023b#*\031OulfH\314xj\362T\177!\363@\240>\026\015\360"
 414      194F756C 
 414      6648CC78 
 414      6AF2547F 
 414      21F340A0 
 415 1061 D1EA876A 		.ascii	"\321\352\207jjk\204\207\004~z$\020\251\251\250\252\017"
 415      6A6B8487 
ARM GAS  /tmp/cc3OCxar.s 			page 32


 415      047E7A24 
 415      10A9A9A8 
 415      AA0F
 416 1073 0B819818 		.ascii	"\013\201\230\030\216\324\210\320#\023.#\013B\342(\213"
 416      8ED488D0 
 416      23132E23 
 416      0B42E228 
 416      8B
 417 1084 C6D53C30 		.ascii	"\306\325<0T#\004Baa\006__%\206Tr\276PH\351>@(@\306b"
 417      54230442 
 417      6161065F 
 417      5F258654 
 417      72BE5048 
 418 109f 482C4A27 		.ascii	"H,J'\\%_\245HWV>idA`\342\304\242@Yi\311\254\374@\254"
 418      5C255FA5 
 418      4857563E 
 418      69644160 
 418      E2C4A240 
 419 10ba 2E12AAAA 		.ascii	".\022\252\252\012\023JP!\223(\260\003\227\024\263.\002"
 419      0A134A50 
 419      219328B0 
 419      039714B3 
 419      2E02
 420 10cc 9DB3E012 		.ascii	"\235\263\340\022\023yQ\010\211Y\200\023\232:\271drI"
 420      13795108 
 420      89598013 
 420      9A3AB964 
 420      7249
 421 10de B99714CB 		.ascii	"\271\227\024\313\312\247\224\022\354P\260xl\321\257"
 421      CAA79412 
 421      EC50B078 
 421      6CD1AF
 422 10ed F0AF630B 		.ascii	"\360\257c\013\313K\376\2558\207\024\013\247L*\235X\\"
 422      CB4BFEAD 
 422      3887140B 
 422      A74C2A9D 
 422      585C
 423 10ff 5EECC1DE 		.ascii	"^\354\301\336w\001L\005_U5\235\257\3705(Y\250\011\207"
 423      77014C05 
 423      5F55359D 
 423      AFF83528 
 423      59A80987 
 424 1113 2AA6170F 		.ascii	"*\246\027\017F\272\247JK\246\314*\010\324\361U\212x"
 424      46BAA74A 
 424      4BA6CC2A 
 424      08D4F155 
 424      8A78
 425 1125 3931B11A 		.ascii	"91\261\032\3248\263.R\033\022\275\365\212R\263B!\265"
 425      D438B32E 
 425      521B12BD 
 425      F58A52B3 
 425      4221B5
 426 1138 E89934A5 		.ascii	"\350\2314\245\2508\2301\245\374W\245\305\301\314)e\245"
 426      A8389831 
 426      A5FC57A5 
 426      C5C1CC29 
 426      65A5
ARM GAS  /tmp/cc3OCxar.s 			page 33


 427 114a C5C54541 		.ascii	"\305\305EAO\351\324\322\242\240\253\004\322\224\242"
 427      4FE9D4D2 
 427      A2A0AB04 
 427      D294A2
 428 1159 20FB4BEC 		.ascii	" \373K\354\230\377p\262#)\272b\202\350\251\250\022\370"
 428      98FF70B2 
 428      2329BA62 
 428      82E8A9A8 
 428      12F8
 429 116b 283BC13D 		.ascii	"(;\301=\256,\030tO,\374\327\240{\354\370\340D\222Mp"
 429      AE2C1874 
 429      4F2CFCD7 
 429      A07BECF8 
 429      E044924D 
 430 1180 8D0B06B3 		.ascii	"\215\013\006\263\"\265\204\303H\030\244\212\305H\321"
 430      22B584C3 
 430      4818A48A 
 430      C548D1
 431 118f 03173EEC 		.ascii	"\003\027>\354\252\210\346\023\345\024\326\326\314\210"
 431      AA88E613 
 431      E514D6D6 
 431      CC88
 432 119d CCCCA8C0 		.ascii	"\314\314\250\300\313h\033\276\252\252\277\2422\366L"
 432      CB681BBE 
 432      AAAABFA2 
 432      32F64C
 433 11ac 4C7516AF 		.ascii	"Lu\026\257X\031\025x\240\341\253\250\014\311\345Q\316"
 433      58191578 
 433      A0E1ABA8 
 433      0CC9E551 
 433      CE
 434 11bd B02A2A89 		.ascii	"\260**\211\2562\352B5B\203\010\227\272\2500+S\254\213"
 434      AE32EA42 
 434      35428308 
 434      97BAA830 
 434      2B53AC8B 
 435 11d1 12A5E16D 		.ascii	"\022\245\341m\2446\023\230\024\341\257\217:\036Q\225"
 435      A4361398 
 435      14E1AF8F 
 435      3A1E5195 
 436 11e1 15B55101 		.ascii	"\025\265Q\001\340\263I5q\353\012\261\341\361\301\241"
 436      E0B34935 
 436      71EB0AB1 
 436      E1F1C1A1 
 437 11f1 84663D52 		.ascii	"\204f=RM\004\216\0123a@\021\033\344?\014\351\021H\243"
 437      4D048E0A 
 437      33614011 
 437      1BE43F0C 
 437      E91148A3 
 438 1205 213DEA8A 		.ascii	"!=\352\212\025\344A\312\207T\000i$\244Q\220~\001\011"
 438      15E441CA 
 438      87540069 
 438      24A45190 
 438      7E0109
 439 1218 DA1540BB 		.ascii	"\332\025@\273\002hW\000\355FB\273\221\371\\t\024\027"
 439      02685700 
 439      ED4642BB 
ARM GAS  /tmp/cc3OCxar.s 			page 34


 439      91F95C74 
 439      1417
 440 122a FD05177D 		.ascii	"\375\005\027}\230\213>\302EGs\321G]\321\374<H\371\\"
 440      988B3EC2 
 440      454773D1 
 440      475DD1FC 
 440      3C48F95C 
 441 123e 55142E23 		.ascii	"U\024.#=u!\3406\223(f\266\020\205kmUX\210\272+*\371"
 441      3D7521E0 
 441      36932866 
 441      B610856B 
 441      6D555888 
 442 1256 28D1165F 		.ascii	"(\321\026_-xEe\000d\022\307\030\015F\220]\004J\320\034"
 442      2D784565 
 442      006412C7 
 442      180D4690 
 442      5D044AD0 
 443 126b FF962956 		.ascii	"\377\226)V\327\206\005\274\237Q\305\317\214e\212QaF"
 443      D78605BC 
 443      9F51C5CF 
 443      8C658A51 
 443      6146
 444 127d 0C354B0A 		.ascii	"\0145K\012\031\321\3603\020]\274BCD\004\205\010\031"
 444      19D1F033 
 444      105DBC42 
 444      43440485 
 444      0819
 445 128f B3C5DAE9 		.ascii	"\263\305\332\351\377Q\227-\314\022j\304j>\206Cb6)\270"
 445      FF51972D 
 445      CC126AC4 
 445      6A3E8643 
 445      623629B8 
 446 12a3 EA42F5B9 		.ascii	"\352B\365\271\262\201c\241*\030y!qH\322\344r\215\257"
 446      B28163A1 
 446      2A187921 
 446      7148D2E4 
 446      728DAF
 447 12b6 2E349B8F 		.ascii	".4\233\217\210\221\232\231C\324\352\337\324\013\365"
 447      88919A99 
 447      43D4EADF 
 447      D40BF5
 448 12c5 407D28D5 		.ascii	"@}(\325\022\253\262\352B@\026\213\036,B\205P\007\203"
 448      12ABB2EA 
 448      4240168B 
 448      1E2C4285 
 448      500783
 449 12d8 0F3A7BAA 		.ascii	"\017:{\252\353\301\330#\035yQ\265\330@\202S\265\214"
 449      EBC1D823 
 449      1D7951B5 
 449      D8408253 
 449      B58C
 450 12ea 0ED7DAD9 		.ascii	"\016\327\332\3315\2403D\002\021\252\321\271\200?hG8"
 450      35A03344 
 450      0211AAD1 
 450      B9803F68 
 450      4738
 451 12fc CD22D2F3 		.ascii	"\315\"\322\363U\350[PY\007\001\374\021G\364\024a\200"
ARM GAS  /tmp/cc3OCxar.s 			page 35


 451      55E85B50 
 451      590701FC 
 451      1147F414 
 451      6180
 452 130e E6306500 		.ascii	"\3460e\000\2006\205\250PS\001\322f\310U\217\245C\004"
 452      803685A8 
 452      505301D2 
 452      66C8558F 
 452      A54304
 453 1321 96028593 		.ascii	"\226\002\205\223\312J\312 \210\0040V\314\030\225\227"
 453      CA4ACA20 
 453      88043056 
 453      CC189597 
 454 1331 DF80FE4A 		.ascii	"\337\200\376J\002U9\214\261\"a\206\2530\230\017\251"
 454      0255398C 
 454      B1226186 
 454      AB30980F 
 454      A9
 455 1342 802B0B72 		.ascii	"\200+\013r\020\036\012\203\205\245\301\214\340\323p"
 455      101E0A83 
 455      85A5C18C 
 455      E0D370
 456 1351 0D6694E3 		.ascii	"\015f\224\343%\263\244\240\254p\374SA\017\\K\203.\210"
 456      25B3A4A0 
 456      AC70FC53 
 456      410F5C4B 
 456      832E88
 457 1364 68E39D06 		.ascii	"h\343\235\0060\314\307\217jh\220\031\011\205\253y\""
 457      30CCC78F 
 457      6A689019 
 457      0985AB79 
 457      22
 458 1375 5CD1A4B1 		.ascii	"\\\321\244\261\2412p\031\276Z\345\206+\014\272'\027"
 458      A1327019 
 458      BE5AE586 
 458      2B0CBA27 
 458      17
 459 1386 95075DA5 		.ascii	"\225\007]\245c\203\356Iy$\313\037\033t\215\007fb\330"
 459      6383EE49 
 459      7924CB1F 
 459      1B748D07 
 459      6662D8
 460 1399 D01D9951 		.ascii	"\320\035\231Q\021\315\210\304*#3D_L\250\232\021\251"
 460      11CD88C4 
 460      2A233344 
 460      5F4CA89A 
 460      11A9
 461 13ab 090B0D19 		.ascii	"\011\013\015\031\263\204\012\2616:,\211\036\222[C\020"
 461      B3840AB1 
 461      363A2C89 
 461      1E925B43 
 461      10
 462 13bc 849B6803 		.ascii	"\204\233h\003\311\305\006_\264\001\256\304c}\242Z\272"
 462      C9C5065F 
 462      B401AEC4 
 462      637DA25A 
 462      BA
ARM GAS  /tmp/cc3OCxar.s 			page 36


 463 13cd 4B9E7114 		.ascii	"K\236q\024O\367\226L\226C\271\273\244hb\261\267l\302"
 463      4FF7964C 
 463      9643B9BB 
 463      A46862B1 
 463      B76CC2
 464 13e0 D4F2A229 		.ascii	"\324\362\242)\277\234\234Y\376t\210\004\323\314\240"
 464      BF9C9C59 
 464      FE748804 
 464      D3CCA0
 465 13ef 7CF5962B 		.ascii	"|\365\226+\205,\271w\244&\"\272\240\230\021\306\351"
 465      852CB977 
 465      A42622BA 
 465      A09811C6 
 465      E9
 466 1400 46A92D7F 		.ascii	"F\251-\177\272x2'\324\374@\276\013\302\335\210:>*\216"
 466      BA783227 
 466      D4FC40BE 
 466      0BC2DD88 
 466      3A3E2A8E 
 467 1414 C8CB4AD5 		.ascii	"\310\313J\325\344\312E\225\2207VY/\206\301\273\206\311"
 467      E4CA4595 
 467      90375659 
 467      2F86C1BB 
 467      86C9
 468 1426 F5C4D041 		.ascii	"\365\304\320Aa&\370\024\014M>\034\216\272\303\274\310"
 468      6126F814 
 468      0C4D3E1C 
 468      8EBAC3BC 
 468      C8
 469 1437 DF2DFF71 		.ascii	"\337-\377qv4\"\012\352_=\263\370\252zaH\252\333\270"
 469      7634220A 
 469      EA5F3DB3 
 469      F8AA7A61 
 469      48AADBB8 
 470 144b FA288C19 		.ascii	"\372(\214\031\220+*\216\205\216\236\212\332\372\032"
 470      902B2A8E 
 470      858E9E8A 
 470      DAFA1A
 471 145a 7128D513 		.ascii	"q(\325\023\033(\364c06\306=#\012\356\351\220\375\037"
 471      1B28F463 
 471      3036C63D 
 471      230AEEE9 
 471      90FD1F
 472 146d C30F059F 		.ascii	"\303\017\005\237"
 473              		.text
 474              		.section	.gnu.lto_.symtab.231f31978eb64e27,"",%progbits
 475 0000 72666D32 		.ascii	"rfm23_init\000\000\000\000\000\000\000\000\000\000\000"
 475      335F696E 
 475      69740000 
 475      00000000 
 475      00000000 
 476 0015 00A40000 		.ascii	"\000\244\000\000\000rfm23_TXEN\000\000\000\000\000\000"
 476      0072666D 
 476      32335F54 
 476      58454E00 
 476      00000000 
 477 002a 00000000 		.ascii	"\000\000\000\000\000\000.\002\000\000rfm23_RXEN\000"
ARM GAS  /tmp/cc3OCxar.s 			page 37


 477      00002E02 
 477      00007266 
 477      6D32335F 
 477      5258454E 
 478 003f 00000000 		.ascii	"\000\000\000\000\000\000\000\000\000\000\000=\002\000"
 478      00000000 
 478      0000003D 
 478      0200
 479 004d 0072666D 		.ascii	"\000rfm23_SHUTDOWN\000\000\000\000\000\000\000\000\000"
 479      32335F53 
 479      48555444 
 479      4F574E00 
 479      00000000 
 480 0065 00000042 		.ascii	"\000\000\000B\002\000\000rfm23_readRegister\000\000"
 480      02000072 
 480      666D3233 
 480      5F726561 
 480      64526567 
 481 0080 00000000 		.ascii	"\000\000\000\000\000\000\000\000\000\000H\002\000\000"
 481      00000000 
 481      00004802 
 481      0000
 482 008e 72666D32 		.ascii	"rfm23_writeRegister\000\000\000\000\000\000\000\000"
 482      335F7772 
 482      69746552 
 482      65676973 
 482      74657200 
 483 00a9 00000000 		.ascii	"\000\000\000\000U\002\000\000rfm23_readBurst\000\000"
 483      55020000 
 483      72666D32 
 483      335F7265 
 483      61644275 
 484 00c2 00000000 		.ascii	"\000\000\000\000\000\000\000\000\000\000`\002\000\000"
 484      00000000 
 484      00006002 
 484      0000
 485 00d0 72666D32 		.ascii	"rfm23_writeBurst\000\000\000\000\000\000\000\000\000"
 485      335F7772 
 485      69746542 
 485      75727374 
 485      00000000 
 486 00e9 0000006E 		.ascii	"\000\000\000n\002\000\000rfm23_sendByte\000\000\000"
 486      02000072 
 486      666D3233 
 486      5F73656E 
 486      64427974 
 487 0101 00000000 		.ascii	"\000\000\000\000\000\000\000\000\000u\002\000\000"
 487      00000000 
 487      00750200 
 487      00
 488              		.text
 489              		.section	.gnu.lto_.opts,"",%progbits
 490 0000 272D6D63 		.ascii	"'-mcpu=cortex-m4' '-mfloat-abi=hard' '-mfpu=fpv4-sp"
 490      70753D63 
 490      6F727465 
 490      782D6D34 
 490      2720272D 
ARM GAS  /tmp/cc3OCxar.s 			page 38


 491 0033 2D643136 		.ascii	"-d16' '-mno-thumb-interwork' '-mthumb' '-O2' '-fomi"
 491      2720272D 
 491      6D6E6F2D 
 491      7468756D 
 491      622D696E 
 492 0066 742D6672 		.ascii	"t-frame-pointer' '-falign-functions=16' '-ffunction"
 492      616D652D 
 492      706F696E 
 492      74657227 
 492      20272D66 
 493 0099 2D736563 		.ascii	"-sections' '-fdata-sections' '-fno-common' '-flto' "
 493      74696F6E 
 493      73272027 
 493      2D666461 
 493      74612D73 
 494 00cc 272D6673 		.ascii	"'-fsingle-precision-constant'\000"
 494      696E676C 
 494      652D7072 
 494      65636973 
 494      696F6E2D 
 495              		.text
 496              		.section	.text.rfm23_init,"ax",%progbits
 497              		.align	2
 498              		.p2align 4,,15
 499              		.global	rfm23_init
 500              		.thumb
 501              		.thumb_func
 502              		.type	rfm23_init, %function
 503              	rfm23_init:
 504              		@ args = 0, pretend = 0, frame = 0
 505              		@ frame_needed = 0, uses_anonymous_args = 0
 506              		@ link register save eliminated.
 507 0000 0160     		str	r1, [r0]
 508 0002 0020     		movs	r0, #0
 509 0004 7047     		bx	lr
 510              		.size	rfm23_init, .-rfm23_init
 511 0006 00BFAFF3 		.section	.text.rfm23_TXEN,"ax",%progbits
 511      0080AFF3 
 511      0080
 512              		.align	2
 513              		.p2align 4,,15
 514              		.global	rfm23_TXEN
 515              		.thumb
 516              		.thumb_func
 517              		.type	rfm23_TXEN, %function
 518              	rfm23_TXEN:
 519              		@ args = 0, pretend = 0, frame = 0
 520              		@ frame_needed = 0, uses_anonymous_args = 0
 521              		@ link register save eliminated.
 522 0000 044B     		ldr	r3, .L7
 523 0002 11B9     		cbnz	r1, .L6
 524 0004 0222     		movs	r2, #2
 525 0006 1A83     		strh	r2, [r3, #24]	@ movhi
 526 0008 7047     		bx	lr
 527              	.L6:
 528 000a 0121     		movs	r1, #1
 529 000c 0222     		movs	r2, #2
ARM GAS  /tmp/cc3OCxar.s 			page 39


 530 000e 1983     		strh	r1, [r3, #24]	@ movhi
 531 0010 5A83     		strh	r2, [r3, #26]	@ movhi
 532 0012 7047     		bx	lr
 533              	.L8:
 534              		.align	2
 535              	.L7:
 536 0014 00040240 		.word	1073873920
 537              		.size	rfm23_TXEN, .-rfm23_TXEN
 538 0018 AFF30080 		.section	.text.rfm23_RXEN,"ax",%progbits
 538      AFF30080 
 539              		.align	2
 540              		.p2align 4,,15
 541              		.global	rfm23_RXEN
 542              		.thumb
 543              		.thumb_func
 544              		.type	rfm23_RXEN, %function
 545              	rfm23_RXEN:
 546              		@ args = 0, pretend = 0, frame = 0
 547              		@ frame_needed = 0, uses_anonymous_args = 0
 548              		@ link register save eliminated.
 549 0000 044B     		ldr	r3, .L13
 550 0002 11B9     		cbnz	r1, .L12
 551 0004 0122     		movs	r2, #1
 552 0006 1A83     		strh	r2, [r3, #24]	@ movhi
 553 0008 7047     		bx	lr
 554              	.L12:
 555 000a 0221     		movs	r1, #2
 556 000c 0122     		movs	r2, #1
 557 000e 1983     		strh	r1, [r3, #24]	@ movhi
 558 0010 5A83     		strh	r2, [r3, #26]	@ movhi
 559 0012 7047     		bx	lr
 560              	.L14:
 561              		.align	2
 562              	.L13:
 563 0014 00040240 		.word	1073873920
 564              		.size	rfm23_RXEN, .-rfm23_RXEN
 565 0018 AFF30080 		.section	.text.rfm23_SHUTDOWN,"ax",%progbits
 565      AFF30080 
 566              		.align	2
 567              		.p2align 4,,15
 568              		.global	rfm23_SHUTDOWN
 569              		.thumb
 570              		.thumb_func
 571              		.type	rfm23_SHUTDOWN, %function
 572              	rfm23_SHUTDOWN:
 573              		@ args = 0, pretend = 0, frame = 0
 574              		@ frame_needed = 0, uses_anonymous_args = 0
 575              		@ link register save eliminated.
 576 0000 034B     		ldr	r3, .L19
 577 0002 4FF48062 		mov	r2, #1024
 578 0006 09B9     		cbnz	r1, .L18
 579 0008 5A83     		strh	r2, [r3, #26]	@ movhi
 580 000a 7047     		bx	lr
 581              	.L18:
 582 000c 1A83     		strh	r2, [r3, #24]	@ movhi
 583 000e 7047     		bx	lr
 584              	.L20:
ARM GAS  /tmp/cc3OCxar.s 			page 40


 585              		.align	2
 586              	.L19:
 587 0010 00040240 		.word	1073873920
 588              		.size	rfm23_SHUTDOWN, .-rfm23_SHUTDOWN
 589 0014 AFF30080 		.section	.text.rfm23_readRegister,"ax",%progbits
 589      AFF30080 
 589      AFF30080 
 590              		.align	2
 591              		.p2align 4,,15
 592              		.global	rfm23_readRegister
 593              		.thumb
 594              		.thumb_func
 595              		.type	rfm23_readRegister, %function
 596              	rfm23_readRegister:
 597              		@ args = 0, pretend = 0, frame = 0
 598              		@ frame_needed = 0, uses_anonymous_args = 0
 599              		@ link register save eliminated.
 600 0000 0020     		movs	r0, #0
 601 0002 7047     		bx	lr
 602              		.size	rfm23_readRegister, .-rfm23_readRegister
 603 0004 AFF30080 		.section	.text.rfm23_writeRegister,"ax",%progbits
 603      AFF30080 
 603      AFF30080 
 604              		.align	2
 605              		.p2align 4,,15
 606              		.global	rfm23_writeRegister
 607              		.thumb
 608              		.thumb_func
 609              		.type	rfm23_writeRegister, %function
 610              	rfm23_writeRegister:
 611              		@ args = 0, pretend = 0, frame = 0
 612              		@ frame_needed = 0, uses_anonymous_args = 0
 613              		@ link register save eliminated.
 614 0000 0020     		movs	r0, #0
 615 0002 7047     		bx	lr
 616              		.size	rfm23_writeRegister, .-rfm23_writeRegister
 617 0004 AFF30080 		.section	.text.rfm23_readBurst,"ax",%progbits
 617      AFF30080 
 617      AFF30080 
 618              		.align	2
 619              		.p2align 4,,15
 620              		.global	rfm23_readBurst
 621              		.thumb
 622              		.thumb_func
 623              		.type	rfm23_readBurst, %function
 624              	rfm23_readBurst:
 625              		@ args = 0, pretend = 0, frame = 0
 626              		@ frame_needed = 0, uses_anonymous_args = 0
 627              		@ link register save eliminated.
 628 0000 0020     		movs	r0, #0
 629 0002 7047     		bx	lr
 630              		.size	rfm23_readBurst, .-rfm23_readBurst
 631 0004 AFF30080 		.section	.text.rfm23_writeBurst,"ax",%progbits
 631      AFF30080 
 631      AFF30080 
 632              		.align	2
 633              		.p2align 4,,15
ARM GAS  /tmp/cc3OCxar.s 			page 41


 634              		.global	rfm23_writeBurst
 635              		.thumb
 636              		.thumb_func
 637              		.type	rfm23_writeBurst, %function
 638              	rfm23_writeBurst:
 639              		@ args = 0, pretend = 0, frame = 0
 640              		@ frame_needed = 0, uses_anonymous_args = 0
 641              		@ link register save eliminated.
 642 0000 0020     		movs	r0, #0
 643 0002 7047     		bx	lr
 644              		.size	rfm23_writeBurst, .-rfm23_writeBurst
 645 0004 AFF30080 		.section	.text.rfm23_sendByte,"ax",%progbits
 645      AFF30080 
 645      AFF30080 
 646              		.align	2
 647              		.p2align 4,,15
 648              		.global	rfm23_sendByte
 649              		.thumb
 650              		.thumb_func
 651              		.type	rfm23_sendByte, %function
 652              	rfm23_sendByte:
 653              		@ args = 0, pretend = 0, frame = 0
 654              		@ frame_needed = 0, uses_anonymous_args = 0
 655              		@ link register save eliminated.
 656 0000 0020     		movs	r0, #0
 657 0002 7047     		bx	lr
 658              		.size	rfm23_sendByte, .-rfm23_sendByte
 659              		.comm	__gnu_lto_v1,1,1
 660 0004 AFF30080 		.ident	"GCC: (GNU Tools for ARM Embedded Processors) 4.8.4 20140526 (release) [ARM/embedded-4_8-br
 660      AFF30080 
 660      AFF30080 
ARM GAS  /tmp/cc3OCxar.s 			page 42


DEFINED SYMBOLS
                            *ABS*:0000000000000000 rfm23bp.c
     /tmp/cc3OCxar.s:497    .text.rfm23_init:0000000000000000 $t
     /tmp/cc3OCxar.s:503    .text.rfm23_init:0000000000000000 rfm23_init
     /tmp/cc3OCxar.s:512    .text.rfm23_TXEN:0000000000000000 $t
     /tmp/cc3OCxar.s:518    .text.rfm23_TXEN:0000000000000000 rfm23_TXEN
     /tmp/cc3OCxar.s:536    .text.rfm23_TXEN:0000000000000014 $d
     /tmp/cc3OCxar.s:539    .text.rfm23_RXEN:0000000000000000 $t
     /tmp/cc3OCxar.s:545    .text.rfm23_RXEN:0000000000000000 rfm23_RXEN
     /tmp/cc3OCxar.s:563    .text.rfm23_RXEN:0000000000000014 $d
     /tmp/cc3OCxar.s:566    .text.rfm23_SHUTDOWN:0000000000000000 $t
     /tmp/cc3OCxar.s:572    .text.rfm23_SHUTDOWN:0000000000000000 rfm23_SHUTDOWN
     /tmp/cc3OCxar.s:587    .text.rfm23_SHUTDOWN:0000000000000010 $d
     /tmp/cc3OCxar.s:590    .text.rfm23_readRegister:0000000000000000 $t
     /tmp/cc3OCxar.s:596    .text.rfm23_readRegister:0000000000000000 rfm23_readRegister
     /tmp/cc3OCxar.s:604    .text.rfm23_writeRegister:0000000000000000 $t
     /tmp/cc3OCxar.s:610    .text.rfm23_writeRegister:0000000000000000 rfm23_writeRegister
     /tmp/cc3OCxar.s:618    .text.rfm23_readBurst:0000000000000000 $t
     /tmp/cc3OCxar.s:624    .text.rfm23_readBurst:0000000000000000 rfm23_readBurst
     /tmp/cc3OCxar.s:632    .text.rfm23_writeBurst:0000000000000000 $t
     /tmp/cc3OCxar.s:638    .text.rfm23_writeBurst:0000000000000000 rfm23_writeBurst
     /tmp/cc3OCxar.s:646    .text.rfm23_sendByte:0000000000000000 $t
     /tmp/cc3OCxar.s:652    .text.rfm23_sendByte:0000000000000000 rfm23_sendByte
                            *COM*:0000000000000001 __gnu_lto_v1
     /tmp/cc3OCxar.s:538    .text.rfm23_TXEN:0000000000000018 $t
     /tmp/cc3OCxar.s:565    .text.rfm23_RXEN:0000000000000018 $t
     /tmp/cc3OCxar.s:589    .text.rfm23_SHUTDOWN:0000000000000014 $t

NO UNDEFINED SYMBOLS
