ARM GAS  /tmp/cc5Qo0yP.s 			page 1


   1              		.syntax unified
   2              		.cpu cortex-m4
   3              		.eabi_attribute 27, 3
   4              		.eabi_attribute 28, 1
   5              		.fpu fpv4-sp-d16
   6              		.eabi_attribute 20, 1
   7              		.eabi_attribute 21, 1
   8              		.eabi_attribute 23, 3
   9              		.eabi_attribute 24, 1
  10              		.eabi_attribute 25, 1
  11              		.eabi_attribute 26, 1
  12              		.eabi_attribute 30, 2
  13              		.eabi_attribute 34, 1
  14              		.eabi_attribute 18, 4
  15              		.thumb
  16              		.file	"rfm23bp.c"
  17              		.section	.gnu.lto_.jmpfuncs.9579a494f1e731df,"",%progbits
  18 0000 789C6D88 		.ascii	"x\234m\210\301\021\200 \000\303\322V@X\306uX\301\005"
  18      C1118020 
  18      00C3D256 
  18      4058C675 
  18      58C105
  19 0013 9C5FBDE3 		.ascii	"\234_\275\343I>\311\305\230\035\327\362 \262\345|\375"
  19      493EC9C5 
  19      981DD7F2 
  19      20B2E57C 
  19      FD
  20 0024 084FDDFA 		.ascii	"\010O\335\372\177\242\265\016\027*\215\223\016/@\200"
  20      7FA2B50E 
  20      172A8D93 
  20      0E2F4080 
  21 0034 0232     		.ascii	"\0022"
  22              		.text
  23              		.section	.gnu.lto_.inline.9579a494f1e731df,"",%progbits
  24 0000 789C6362 		.ascii	"x\234cb`b\300\006\254\031!4\027\003\003\0133#\003\023"
  24      6062C006 
  24      AC192134 
  24      1703030B 
  24      33230313 
  25 0014 E30B7606 		.ascii	"\343\013v\006\366\016u\260bF\006\016VFf\306\214\010"
  25      F60E75B0 
  25      6246060E 
  25      564666C6 
  25      8C08
  26 0026 C64CB02A 		.ascii	"\306L\260*\306t8\013D\262\0021\333\002y&\006\226\005"
  26      C674380B 
  26      44B20231 
  26      DB027926 
  26      069605
  27 0039 F2020C4C 		.ascii	"\362\002\014LG89\030Xf\360\260\200\344\231\030\330\371"
  27      47383918 
  27      5866F0B0 
  27      80E49918 
  27      D8F9
  28 004b 8186315D 		.ascii	"\201\2061]\340\207\250\000\002f\036\240\360\004?\006"
  28      E087A800 
  28      02661EA0 
ARM GAS  /tmp/cc5Qo0yP.s 			page 2


  28      F0043F06 
  29 005b 66060E76 		.ascii	"f\006\016v<\206\262\240\032\272\201\207\003l\0367P\202"
  29      3C86B2A0 
  29      1ABA8187 
  29      036C1E37 
  29      5082
  30 006d 71821F0B 		.ascii	"q\202\037\013\003;\211.b\352a\003\273\210\225\201\231"
  30      033B892E 
  30      62EA6103 
  30      BB889581 
  30      99
  31 007e 89111C06 		.ascii	"\211\021\034\0060\007\261a\210\260c\210p`\210pb\210"
  31      3007B161 
  31      88B06388 
  31      70608870 
  31      6288
  32 0090 300000C0 		.ascii	"0\000\000\300m\031\250"
  32      6D19A8
  33              		.text
  34              		.section	.gnu.lto_.pureconst.9579a494f1e731df,"",%progbits
  35 0000 789C6362 		.ascii	"x\234cb`b\020e\200\000.\006)F)&)f)\026)V\0066\006v\006"
  35      60621065 
  35      80002E06 
  35      29462926 
  35      29662916 
  36 001b 0E064E06 		.ascii	"\016\006N\006\000\014\274\000\323"
  36      000CBC00 
  36      D3
  37              		.text
  38              		.section	.gnu.lto_rfm23_init.9579a494f1e731df,"",%progbits
  39 0000 789C6362 		.ascii	"x\234cb`b@\007\222@<\033\210E\200\230\221\231\201\221"
  39      60624007 
  39      92403C1B 
  39      88458098 
  39      91998191 
  40 0014 69C23906 		.ascii	"i\3029\006\206F\016&FF\020\203\201\221\241\236\211\261"
  40      86460E26 
  40      46461083 
  40      8191A19E 
  40      89B1
  41 0026 3E9211AC 		.ascii	">\222\021\254v=\323\201\007\377\377\257\333\327r\211"
  41      763DD381 
  41      07FFFFAF 
  41      DBD77289 
  42 0036 89958931 		.ascii	"\211\225\2111\227\221\201\031H\200\244X\031Z\032\032"
  42      97918119 
  42      4880A458 
  42      195A1A1A 
  43 0046 26283030 		.ascii	"&(00$\203\025\206\000I\220\356PF&\020\315|\226\241\351"
  43      24831586 
  43      004990EE 
  43      50462610 
  43      CD7C96A1 
  44 005b F48C2EFE 		.ascii	"\364\214.\376D\306\205\214\254\014\332\014\253\032\200"
  44      44C6858C 
  44      AC0CDA0C 
  44      AB1A80
ARM GAS  /tmp/cc5Qo0yP.s 			page 3


  45 006a C0309311 		.ascii	"\3000\223\021h\357,\306LF\306tF\246\010 \015q[\022\304"
  45      68EF2CC6 
  45      4C46C674 
  45      46A60820 
  45      0D715B12 
  46 007f 2A8674A0 		.ascii	"*\206t\240c\030.24>X\311\005\321\007R\302\014su\010"
  46      63182E32 
  46      343E58C9 
  46      05D10752 
  46      C20C7375 
  47 0094 D05AA0C9 		.ascii	"\320Z\240\311 -B.E\231e\251E\305\372Ei\271F\306I\005"
  47      202D422E 
  47      459965A9 
  47      45C5FA45 
  47      69B946C6 
  48 00aa 7AC90C00 		.ascii	"z\311\014\000\255\372+w"
  48      ADFA2B77 
  49              		.text
  50              		.section	.gnu.lto_rfm23_TXEN.9579a494f1e731df,"",%progbits
  51 0000 789CAD91 		.ascii	"x\234\255\221\261K\0031\030\305\337\373\222\024\025"
  51      B14B0331 
  51      18C5DFFB 
  51      921415
  52 000f 0711DDA4 		.ascii	"\007\021\335\244\270\013\026tu\364OhA\307\266\250\334"
  52      B80B1674 
  52      75F44F68 
  52      41C7B6A8 
  52      DC
  53 0020 50900AAE 		.ascii	"P\220\012\256\315\301\015\335\354\254\223\2709\350\332"
  53      CDC10DDD 
  53      ECAC93B8 
  53      39E8DA
  54 002f A1607572 		.ascii	"\241`ur\261\240T\220Nuw\024\212SMr^Q)N\006\222\357%"
  54      B1A05490 
  54      4E757714 
  54      8A534D72 
  54      5E51294E 
  55 0047 7979BF90 		.ascii	"yy\277\220\010\004\277\333\226\353\037\004\226\\e\016"
  55      0804BFDB 
  55      96EB1F04 
  55      965C650E 
  56 0057 94560F88 		.ascii	"\224V\017\210gDT'\017;\247\373\005\330yE\223.\353L\030"
  56      67445427 
  56      0F3BA7FB 
  56      05D87945 
  56      932EEB4C 
  57 006c D20B100D 		.ascii	"\322\013\020\015Q\332\260\261\313\020w-\335\341x|\365"
  57      51DAB0B1 
  57      CB10772D 
  57      DDE1787C 
  57      F5
  58 007d 9E0CF4AC 		.ascii	"\236\014\364\254\260Fh7\370-\203\304\332\326*P\015\306"
  58      B0466837 
  58      F82D83C4 
  58      DAD62A50 
  58      0DC6
  59 008f A21B7D40 		.ascii	"\242\033}@\211\342\253\272G\362v;Z)\363\234\006\007"
ARM GAS  /tmp/cc5Qo0yP.s 			page 4


  59      89E2ABBA 
  59      47F2763B 
  59      5A29F39C 
  59      0607
  60 00a1 941D46FC 		.ascii	"\224\035F\374q\317\022\025:y\365\200\273\366\313@&i"
  60      71CF1215 
  60      3A79F580 
  60      BBF6CB40 
  60      2669
  61 00b3 A9B0A357 		.ascii	"\251\260\243W\347N\017W\003\016k\270\264I\334}^\216"
  61      E74E0F57 
  61      030E6BB8 
  61      B449DC7D 
  61      5E8E
  62 00c5 C8A05DA0 		.ascii	"\310\240]\240dB\235\3414n\331\205\210\332\203\214m6"
  62      64429DE1 
  62      346ED985 
  62      88DA838C 
  62      6D36
  63 00d7 AD469001 		.ascii	"\255F\220\001V\361\021e^\370i\205\374\246e\242\275;"
  63      56F11165 
  63      5EF86985 
  63      FCA665A2 
  63      BD3B
  64 00e9 E77DE14A 		.ascii	"\347}\341J'L\351\031a:\223\177\002\361\005\013U\205"
  64      274CE919 
  64      613A937F 
  64      02F1050B 
  64      5585
  65 00fb 1A203279 		.ascii	"\032 2y\002\215~!<A\373I\376\231'\323x&\374\315#\342"
  65      028D7E21 
  65      3C41FB49 
  65      FE9927D3 
  65      7826FCCD 
  66 0111 E18D4E79 		.ascii	"\341\215NyY+\272\203n\317[\027\267\353\321\361^\375"
  66      592BBA83 
  66      6ECF5B17 
  66      B7EBD1F1 
  66      5EFD
  67 0123 A850DFAF 		.ascii	"\250P\337\257mlV\016\327\253\370\004U\322xq"
  67      6D6C560E 
  67      D7ABF804 
  67      55D27871 
  68              		.text
  69              		.section	.gnu.lto_rfm23_RXEN.part.0.9579a494f1e731df,"",%progbits
  70 0000 789C5D50 		.ascii	"x\234]P\261J\304@\020\235\267\233h\316F\021\304Vl\017"
  70      B14AC440 
  70      109DB79B 
  70      68CE4611 
  70      C4566C0F 
  71 0014 14B4B1B2 		.ascii	"\024\264\261\262\362\023r\240v\227pj\212\023\211`cq"
  71      F21372A0 
  71      7697706A 
  71      8A138960 
  71      6371
  72 0026 13382565 		.ascii	"\0238%e\260P\320\306\303\316\306\366\300N\260T\361\007"
  72      B050D0C6 
ARM GAS  /tmp/cc5Qo0yP.s 			page 5


  72      C3CEC6F6 
  72      C04EB054 
  72      F107
  73 0038 249F60A9 		.ascii	"$\237`\2516qfs)t`\367=\230}\363\336\254!C\377\253-g"
  73      36716673 
  73      297460F7 
  73      3D987DF3 
  73      DEAC2143 
  74 0050 13448B82 		.ascii	"\023D\213\202\360\011^\361*\304\203qh`\025\263\300\002"
  74      F0095EF1 
  74      2AC48371 
  74      686015B3 
  74      C002
  75 0062 4A0834F0 		.ascii	"J\0104\360\214\305`\007*\3062\215\230/\312\347\313G"
  75      8CC56007 
  75      2AC6328D 
  75      982FCAE7 
  75      CB47
  76 0074 F039679F 		.ascii	"\3609g\237U5\233@\\\026@1h\033\011\02080\370k\373`\270"
  76      55359B40 
  76      5C164031 
  76      681B0910 
  76      3830F86B 
  77 008b ACAAEF5D 		.ascii	"\254\252\357]\037\350\273\226OC\346b\251\213\221\014"
  77      1FE8BB96 
  77      4F43E662 
  77      A98B910C 
  78 009b 25554B85 		.ascii	"%UK\205r\253m\010O\321v`\034\276\321Y\371\261\321\305"
  78      72AB6D08 
  78      4FD17660 
  78      1CBED159 
  78      F9B1D1C5 
  79 00af 9D24263A 		.ascii	"\235$&:\245\037\316y.\201\215Q\333\354\003j*,\021%\275"
  79      A51FCE79 
  79      2E818D51 
  79      DBEC036A 
  79      2A2C1125 
  80 00c4 D0D3F8EB 		.ascii	"\320\323\370\353\012\365\3736\335\363P\232~C\246\032"
  80      0AF5FB36 
  80      DDF3509A 
  80      7E43A61A 
  81 00d4 327D43D7 		.ascii	"2}C\327Y\241\203\002U\2678\317\331s\351[nj4\331!\232"
  81      59A18302 
  81      55B738CF 
  81      D973E95B 
  81      6E6A34D9 
  82 00ea B844A8BF 		.ascii	"\270D\250\277S_\3144\373u`]\304w\312n\017\232\204u\205"
  82      535FCC34 
  82      FB75605D 
  82      C477CA6E 
  82      0F9A8475 
  83 00ff A293968A 		.ascii	"\242\223\226\212\346\267\322\344\244\227\036\257\246"
  83      E6B7D2E4 
  83      A4971EAF 
  83      A6
  84 010c 7BFDB5F5 		.ascii	"{\375\265\365\350h%&\323;\374\005\360\013O\345"
  84      E8682526 
ARM GAS  /tmp/cc5Qo0yP.s 			page 6


  84      D33BFC05 
  84      F00B4FE5 
  85              		.text
  86              		.section	.gnu.lto_rfm23_RXEN.9579a494f1e731df,"",%progbits
  87 0000 789C5D4F 		.ascii	"x\234]O=K\003A\024\234\331\217\313!\026\207\330\012"
  87      3D4B0341 
  87      149CD98F 
  87      CB211687 
  87      D80A
  88 0012 76168282 		.ascii	"v\026\202\202\226\222\316\237\220\200\226\336\241\341"
  88      9692CE9F 
  88      908096DE 
  88      A1E1
  89 0020 8A809C60 		.ascii	"\212\200\234`c\221=8\341\312t\001\255l-\264\023\355"
  89      63913D38 
  89      E1CA7401 
  89      AD6C2DB4 
  89      13ED
  90 0032 D4CAC688 		.ascii	"\324\312\306\210\235\244Ji\341\037\210M\334\275\275"
  90      9DA44A69 
  90      E11F884D 
  90      DCBDBD
  91 0041 13F4C1EE 		.ascii	"\023\364\301\356\014\373\346\315\233\025\020\370_;\366"
  91      0CFBE6CD 
  91      9B1510F8 
  91      5F3BF6
  92 0050 AC1158B6 		.ascii	"\254\021X\266\310\000\024\3031\220\207B\310Q\004\263"
  92      C80014C3 
  92      31908742 
  92      C85104B3 
  93 0060 A0666D98 		.ascii	"\240fm\230EI\355\236\251<\346\241&\035\0011\020Ri\016"
  93      4549ED9E 
  93      A93CE6A1 
  93      261D0131 
  93      1052690E 
  94 0074 F659B9DD 		.ascii	"\366Y\271\335\212\307\351|~sw>\011Zd\237\220\366r-\215"
  94      8AC7E97C 
  94      7E73773E 
  94      095A649F 
  94      90F6722D 
  95 0089 C298E12A 		.ascii	"\302\230\341*\220T\302\216\275\235A\227\302\241|A\361"
  95      9054C28E 
  95      BD9D4197 
  95      C2A17C41 
  95      F1
  96 009a F5F4B072 		.ascii	"\365\364\260r\300+j\364\310=\246\374\023\263K\211Q$"
  96      C02B6AF4 
  96      C83DA6FC 
  96      13B34B89 
  96      5124
  97 00ac DF50845E 		.ascii	"\337P\204^\004\234\341\333\224&J\311\204^\334\243L)"
  97      049CE1DB 
  97      94264AC9 
  97      845EDCA3 
  97      4C29
  98 00be 9A018559 		.ascii	"\232\001\205Y[\276\342\371\376c\"\374\314:\256Ma\235"
  98      5BBEE2F9 
ARM GAS  /tmp/cc5Qo0yP.s 			page 7


  98      FE6322FC 
  98      CC3AAE4D 
  98      619D
  99 00d0 65435443 		.ascii	"eCTC\364%.,\004no\313\224\245Q\250he\025\327Q\342zM"
  99      F4252E2C 
  99      046E6FCB 
  99      94A551A8 
  99      686515D7 
 100 00e8 5CEF708A 		.ascii	"\\\357p\212\220\277\001u\365\223w\344\323O\325d\364"
 100      90BF0175 
 100      F59377E4 
 100      D34FD564 
 100      F4
 101 00f9 D5B183B6 		.ascii	"\325\261\203\266\347\246\226v\263\364\3640;\331\314"
 101      E7A69676 
 101      B3F4F430 
 101      3BD9CC
 102 0108 8EFA5BDB 		.ascii	"\216\372[\333\361\361F\202\037\344\016J6"
 102      F1F14682 
 102      1FE40E4A 
 102      36
 103              		.text
 104              		.section	.gnu.lto_rfm23_SHUTDOWN.9579a494f1e731df,"",%progbits
 105 0000 789C6362 		.ascii	"x\234cb`b@\0076@\234\314\310\300 \002\244\031\331\030"
 105      60624007 
 105      36409CCC 
 105      C8C02002 
 105      A419D918 
 106 0014 1899269C 		.ascii	"\030\231&\234c`h\344`bb\336#\307\320\300\305rE\237\241"
 106      636068E4 
 106      606262DE 
 106      23C7D0C0 
 106      C572459F 
 107 0029 81879991 		.ascii	"\201\207\231\221\025\"\314\002c\26022\202\030\014\214"
 107      1522CC02 
 107      63B03232 
 107      82180C8C 
 108 0039 0CF54CCC 		.ascii	"\014\365L\314,\254\214\365\221\214`\343\3263\035x\360"
 108      2CAC8CF5 
 108      918C60E3 
 108      D6331D78 
 108      F0
 109 004a FFFFBA6F 		.ascii	"\377\377\272o\255\227$\330\230\030s\301\202\254\014"
 109      AD9724D8 
 109      981873C1 
 109      82AC0C
 110 0059 2D0D0D13 		.ascii	"-\015\015\023\024 \36600\204\000I\220\336PF&\020\315"
 110      1420F630 
 110      30840049 
 110      90DE5046 
 110      2610CD
 111 006c 7C82A1E5 		.ascii	"|\202\241\345\315\301\237\262\211\214\013\031Y\031\322"
 111      CDC19FB2 
 111      898C0B19 
 111      5919D2
 112 007b 19992218 		.ascii	"\031\231\"\0303\031Q\234\030\312\310\314\260G\216\371"
 112      3319519C 
ARM GAS  /tmp/cc5Qo0yP.s 			page 8


 112      18CAC8CC 
 112      B0478EF9 
 113 008b 2CC3A11D 		.ascii	",\303\241\0357\3463B\324i3\254jh\001*d\2041\230`\014"
 113      37E63342 
 113      D46933AC 
 113      6A68012A 
 113      64843198 
 114 00a1 E6D90CB3 		.ascii	"\346\331\014\263\200\024\013\310\030\326\206\216\216"
 114      80140BC8 
 114      18D6868E 
 114      8E
 115 00ae 06160630 		.ascii	"\006\026\0060\023lT\022\324\344$FF(\015\011\021\220"
 115      136C5412 
 115      D4E42446 
 115      46280D09 
 115      1190
 116 00c0 0AB6060E 		.ascii	"\012\266\006\016\270\205,\014W\364\301\026\356x\244"
 116      B8852C0C 
 116      57F4C116 
 116      EE78A4
 117 00cf 41650B99 		.ascii	"Ae\013\231\261Z\310\012\016\212\213\014\215\017\376"
 117      B15AC80A 
 117      0E8A8B0C 
 117      8D0FFE
 118 00de B3402C84 		.ascii	"\263@,\204\201\020\240N\240\034\310\235B.E\231e\251"
 118      8110A04E 
 118      A01CC89D 
 118      422E4599 
 118      65A9
 119 00f0 45C5FA45 		.ascii	"E\305\372Ei\271F\306I\005z\311\014\000\\/W\371"
 119      69B946C6 
 119      49057AC9 
 119      0C005C2F 
 119      57F9
 120              		.text
 121              		.section	.gnu.lto_rfm23_readRegister.9579a494f1e731df,"",%progbits
 122 0000 789C6362 		.ascii	"x\234cb`b@\007\222@\034\015\304\"@\314\310\314\300\310"
 122      60624007 
 122      92401C0D 
 122      C42240CC 
 122      C8CCC0C8 
 123 0014 34E11C03 		.ascii	"4\341\034\003C#\007\023##\210\301\300\310P\317\304X"
 123      43230713 
 123      232388C1 
 123      C0C850CF 
 123      C458
 124 0026 1FC90856 		.ascii	"\037\311\010V\273\236\351\300\203\377\377\327m8\266"
 124      BB9EE9C0 
 124      83FFFFD7 
 124      6D38B6
 125 0035 60162323 		.ascii	"`\026##\310(V\206\226\206\206\011\012\014\014\311`\005"
 125      C8285686 
 125      96868609 
 125      0A0C0CC9 
 125      6005
 126 0047 214012A4 		.ascii	"!@\022\244+\024(\011\244\231/24>\230\271\2301\221q!"
 126      2B142809 
ARM GAS  /tmp/cc5Qo0yP.s 			page 9


 126      A4992F32 
 126      343E98B9 
 126      98319171 
 127 005c 232B4304 		.ascii	"#+C\004c&#\334\326\020FF\220\012\220\031B.E\231e\251"
 127      632623DC 
 127      D6104646 
 127      900A9019 
 127      422E4599 
 128 0072 45C5FA45 		.ascii	"E\305\372Ei\271F\306I\005z\311\014\000\255X \021"
 128      69B946C6 
 128      49057AC9 
 128      0C00AD58 
 128      2011
 129              		.text
 130              		.section	.gnu.lto_rfm23_writeRegister.9579a494f1e731df,"",%progbits
 131 0000 789C6362 		.ascii	"x\234cb`b@\007\222@\034\015\304\"@\314\310\314\300\310"
 131      60624007 
 131      92401C0D 
 131      C42240CC 
 131      C8CCC0C8 
 132 0014 34E11C03 		.ascii	"4\341\034\003C#\007\023##\210\301\300\310P\317\304X"
 132      43230713 
 132      232388C1 
 132      C0C850CF 
 132      C458
 133 0026 1FC90856 		.ascii	"\037\311\010V\273\236\351\300\203\377\377\327]8\266"
 133      BB9EE9C0 
 133      83FFFFD7 
 133      5D38B6
 134 0035 60152323 		.ascii	"`\025##\310(V\206\226\206\206\011\012\014\014\311`\005"
 134      C8285686 
 134      96868609 
 134      0A0C0CC9 
 134      6005
 135 0047 214012A4 		.ascii	"!@\022\244+\024(\011\244\231/24>X\271\2301\221q!#+C"
 135      2B142809 
 135      A4992F32 
 135      343E58B9 
 135      98319171 
 136 005f 04632623 		.ascii	"\004c&#\334\326\020FF\220\012\220\031B.E\231e\251E\305"
 136      DCD61046 
 136      46900A90 
 136      19422E45 
 136      9965A945 
 137 0074 FA4569B9 		.ascii	"\372Ei\271F\306I\005z\311\014\000\302\230 Q"
 137      46C64905 
 137      7AC90C00 
 137      C2982051 
 138              		.text
 139              		.section	.gnu.lto_rfm23_readBurst.9579a494f1e731df,"",%progbits
 140 0000 789C6362 		.ascii	"x\234cb`b@\007\222@\034\015\304\"@\314\310\314\300\310"
 140      60624007 
 140      92401C0D 
 140      C42240CC 
 140      C8CCC0C8 
 141 0014 34E11C03 		.ascii	"4\341\034\003C#\007\023##\210\301\300\310P\317\304X"
 141      43230713 
ARM GAS  /tmp/cc5Qo0yP.s 			page 10


 141      232388C1 
 141      C0C850CF 
 141      C458
 142 0026 1FC90856 		.ascii	"\037\311\010V\273\236\351\300\203\377\377\327}8\266"
 142      BB9EE9C0 
 142      83FFFFD7 
 142      7D38B6
 143 0035 60172323 		.ascii	"`\027##\310(V\206\226\206\206\011\012\014\014\311`\005"
 143      C8285686 
 143      96868609 
 143      0A0C0CC9 
 143      6005
 144 0047 214012A4 		.ascii	"!@\022\244+\024(\011\244\231/24>\330\271\2301\221q!"
 144      2B142809 
 144      A4992F32 
 144      343ED8B9 
 144      98319171 
 145 005c 232B4304 		.ascii	"#+C\004c&#\334\326\020FF\220\012\220\031B.E\231e\251"
 145      632623DC 
 145      D6104646 
 145      900A9019 
 145      422E4599 
 146 0072 45C5FA45 		.ascii	"E\305\372Ei\271F\306I\005z\311\014\000\327\330 \221"
 146      69B946C6 
 146      49057AC9 
 146      0C00D7D8 
 146      2091
 147              		.text
 148              		.section	.gnu.lto_rfm23_writeBurst.9579a494f1e731df,"",%progbits
 149 0000 789C6362 		.ascii	"x\234cb`b@\007\222@\034\015\304\"@\314\310\314\300\310"
 149      60624007 
 149      92401C0D 
 149      C42240CC 
 149      C8CCC0C8 
 150 0014 34E11C03 		.ascii	"4\341\034\003C#\007\023##\210\301\300\310P\317\304X"
 150      43230713 
 150      232388C1 
 150      C0C850CF 
 150      C458
 151 0026 1FC90856 		.ascii	"\037\311\010V\273\236\351\300\203\377\377\327M8\276"
 151      BB9EE9C0 
 151      83FFFFD7 
 151      4D38BE
 152 0035 E0142323 		.ascii	"\340\024##\310(V\206\226\206\206\011\012\014\014\311"
 152      C8285686 
 152      96868609 
 152      0A0C0CC9 
 153 0045 60052140 		.ascii	"`\005!@\022\244+\024(\011\244\231/24>8\271\2301\221"
 153      12A42B14 
 153      2809A499 
 153      2F32343E 
 153      38B99831 
 154 005a 7121232B 		.ascii	"q!#+C\004c&#\334\326\020FF\220\012\220\031B.E\231e\251"
 154      43046326 
 154      23DCD610 
 154      4646900A 
 154      9019422E 
ARM GAS  /tmp/cc5Qo0yP.s 			page 11


 155 0072 45C5FA45 		.ascii	"E\305\372Ei\271F\306I\005z\311\014\000\274\370 R"
 155      69B946C6 
 155      49057AC9 
 155      0C00BCF8 
 155      2052
 156              		.text
 157              		.section	.gnu.lto_rfm23_sendByte.9579a494f1e731df,"",%progbits
 158 0000 789C6362 		.ascii	"x\234cb`b@\007\222@\034\015\304\"@\314\310\314\300\310"
 158      60624007 
 158      92401C0D 
 158      C42240CC 
 158      C8CCC0C8 
 159 0014 34E11C03 		.ascii	"4\341\034\003C#\007\023##\210\301\300\310P\317\304X"
 159      43230713 
 159      232388C1 
 159      C0C850CF 
 159      C458
 160 0026 1FC90856 		.ascii	"\037\311\010V\273\236\351\300\203\377\377\327m8\276"
 160      BB9EE9C0 
 160      83FFFFD7 
 160      6D38BE
 161 0035 E0162323 		.ascii	"\340\026##\310(V\206\226\206\206\011\012\014\014\311"
 161      C8285686 
 161      96868609 
 161      0A0C0CC9 
 162 0045 60052140 		.ascii	"`\005!@\022\244+\024(\011\244\231/24>\270\271\2301\221"
 162      12A42B14 
 162      2809A499 
 162      2F32343E 
 162      B8B99831 
 163 005a 7121232B 		.ascii	"q!#+C\004c&#\334\326\020FF\220\012\220\031B.E\231e\251"
 163      43046326 
 163      23DCD610 
 163      4646900A 
 163      9019422E 
 164 0072 45C5FA45 		.ascii	"E\305\372Ei\271F\306I\005z\311\014\000\3228 \222"
 164      69B946C6 
 164      49057AC9 
 164      0C00D238 
 164      2092
 165              		.text
 166              		.section	.gnu.lto_.symbol_nodes.9579a494f1e731df,"",%progbits
 167 0000 789C4DC9 		.ascii	"x\234M\311\271\015\203P\024\005\321\373\347{\201\036"
 167      B90D8350 
 167      1405D1FB 
 167      E77B811E 
 168 0010 E8F5DA60 		.ascii	"\350\365\332`\266\214\006L@\342n\250\301\205 \313\004"
 168      B68C064C 
 168      40E26EA8 
 168      C18520CB 
 168      04
 169 0021 48BCC98E 		.ascii	"H\274\311\216\006\241\217\216x`iZ%{\036\022O\234\002"
 169      06A18F8E 
 169      7860695A 
 169      257B1E12 
 169      4F9C02
 170 0034 47CCC1F7 		.ascii	"G\314\301\367\316\032\347p\033|\011|\341k`\213o\201"
ARM GAS  /tmp/cc5Qo0yP.s 			page 12


 170      CE1AE770 
 170      1B7C097C 
 170      E16B608B 
 170      6F81
 171 0046 1DBE07F6 		.ascii	"\035\276\007\366\270\010\034py2\223T\177\177)g\264l"
 171      B8081C70 
 171      79329354 
 171      7F7F2967 
 171      B46C
 172 0058 95FEB165 		.ascii	"\225\376\261e2j"
 172      326A
 173              		.text
 174              		.section	.gnu.lto_.refs.9579a494f1e731df,"",%progbits
 175 0000 789C6362 		.ascii	"x\234cb`b`d\200\002\000\000F\000\006"
 175      60626064 
 175      80020000 
 175      460006
 176              		.text
 177              		.section	.gnu.lto_.decls.9579a494f1e731df,"",%progbits
 178 0000 789CBD5C 		.ascii	"x\234\275\\{t\024U\232\257[\335\235t'10\270;\203\273"
 178      7B741455 
 178      9AAF5BDD 
 178      9D742731 
 178      30B83B83 
 179 0015 9E637B8E 		.ascii	"\236c{\216\263\307yH'\201Q\\W\005\222 9\313#\247\023"
 179      B3C77948 
 179      2781515C 
 179      57059220 
 179      39CB23A7 
 180 002a 769C3FF6 		.ascii	"v\234?\3664E\272 \275\223\327tW \236\263g\247\222\010"
 180      3445BA20 
 180      BD93D774 
 180      57209EB3 
 180      67A79208 
 181 003e 8C286FE4 		.ascii	"\214(o\344%\206\270\243\210\214(\340Hx\333\240\303+"
 181      2586B8A3 
 181      888C28E0 
 181      4878DBA0 
 181      C32B
 182 0050 B3100401 		.ascii	"\263\020\004\001\007\205\366\375\\&A <\223\375\356W"
 182      0785F6FD 
 182      5C264120 
 182      3C93FDEE 
 182      57
 183 0061 55DDB72A 		.ascii	"U\335\267*U\335Uq\316\3669\367\326\255\233{\177\337"
 183      55DD5571 
 183      CEF639F7 
 183      D6AD9B7B 
 183      7FDF
 184 0073 F37EF751 		.ascii	"\363~\367QU\3419\236\3733\317q\375\360\373\246\214\343"
 184      55E1399E 
 184      FB33CF71 
 184      FDF0FBA6 
 184      8CE3
 185 0085 242FC7E5 		.ascii	"$/\307\345r\034\367\010$\002\351\005N\371\345@z\021"
 185      721CF708 
 185      2402E905 
ARM GAS  /tmp/cc5Qo0yP.s 			page 13


 185      4EF9E540 
 185      7A11
 186 0097 D20868FB 		.ascii	"\322\010h\373\000\244\207!\215\2034\001\322TH\323 \325"
 186      00A48721 
 186      8D833401 
 186      D25448D3 
 186      20D5
 187 00a9 416AE4B9 		.ascii	"Aj\344\271\001?\332\317\015i;\244\255\220\266@Z\257"
 187      013FDACF 
 187      0D693BA4 
 187      AD90B640 
 187      5AAF
 188 00bb E277A857 		.ascii	"\342w\250W\332\206v\375\011d?3`P\232\331*/\377\005\345"
 188      DA8676FD 
 188      09643F33 
 188      60509AD9 
 188      2A2FFF05 
 189 00d0 DF42BA06 		.ascii	"\337B\272\006\345\004\244\037Ag\227\212\177\025R\037"
 189      E504A41F 
 189      4167978A 
 189      7F15521F 
 190 00e0 C5833A1F 		.ascii	"\305\203:\037Q\360F\250\274\322\362(\310F\032\260\251"
 190      51F046A8 
 190      BCD2F228 
 190      C8461AB0 
 190      A9
 191 00f1 2CB92A76 		.ascii	",\271*v>\244<H2\324\005xkZ.\206\226F\207\342PZT\226"
 191      3EA43C48 
 191      32D40578 
 191      6B5A2E86 
 191      964687E2 
 192 0109 870C3428 		.ascii	"\207\0144(}\237J\243\031\312\243mb\023\025\373aU\347"
 192      7D9F4AA3 
 192      19CAA36D 
 192      621315FB 
 192      6155E7
 193 011c B43C06B2 		.ascii	"\264<\006\262G\015\370\343\006\251\037\242\366\245\327"
 193      470DF8E3 
 193      06A91FA2 
 193      F6A5D7
 194 012b 5203E604 		.ascii	"R\003\346\004\265~\275zO\324:\343o\252I\273\251&\355"
 194      B57EBD7A 
 194      4FD43AE3 
 194      6FAA49BB 
 194      A926ED
 195 013e A699B49B 		.ascii	"\246\231\264\233f\322\256\316\244]\235I\273F\223vf\276"
 195      66D2AECE 
 195      A45D9D49 
 195      BB469376 
 195      66BE
 196 0150 E7E5E6C9 		.ascii	"\347\345\346\311r\213\234\230#7\223\337p\334\343D \371"
 196      728B9C98 
 196      233793DF 
 196      70DCE344 
 196      20F9
 197 0162 3EA8A585 		.ascii	">\250\245\205<\037v\3731\367\242,\313\213e\231\027\310"
 197      3C1F76FB 
ARM GAS  /tmp/cc5Qo0yP.s 			page 14


 197      31F7A22C 
 197      CB8B6599 
 197      17C8
 198 0174 0BC40B6A 		.ascii	"\013\304\013j\346\311@ \372S\376N\177\264\273R\326J"
 198      E6C94020 
 198      FA53FE4E 
 198      7FB4BB52 
 198      D64A
 199 0186 D0E52EAE 		.ascii	"\320\345.\256MnO$\266\\\335~\207\334\336\022\357\357"
 199      4D6E4F24 
 199      B65CDD7E 
 199      87DCDE12 
 199      EFEF
 200 0198 7F94FB21 		.ascii	"\177\224\373!\367,`\313\355se\231H>\356w\352\315\204"
 200      F72C60CB 
 200      ED736599 
 200      483EEE77 
 200      EACD84
 201 01ab 43F9495E 		.ascii	"C\371I^\374\032/n\215\227\305\211\336\253\317<,\313"
 201      FC1A2F6E 
 201      8D97C589 
 201      DEABCF3C 
 201      2CCB
 202 01bd 5E81AC27 		.ascii	"^\201\254'>\340'L\270\237r\257(L\356\277\337\2149\373"
 202      3EE0274C 
 202      B89F72AF 
 202      284CEEBF 
 202      DF8C39FB 
 203 01d1 D0270EBE 		.ascii	"\320'\016\276\263\205\264\000;\002\331\210\340+\300"
 203      B385B400 
 203      3B02D988 
 203      E02BC0
 204 01e0 1D04F20A 		.ascii	"\035\004\362\012\371\251c\250[G:F#\227\233\020\350\204"
 204      F9A963A8 
 204      5B473A46 
 204      23979B10 
 204      E884
 205 01f2 01482059 		.ascii	"\001H Y>\275\366\340^k@\321\340\226R\272Jc\017\371\255"
 205      3EBDF6E0 
 205      5E6B40D1 
 205      E09652BA 
 205      4A630FF9 
 206 0207 5A436FB2 		.ascii	"ZCo\262\271\377\367~fbR\210\227\310\017\261\344\302"
 206      B9FFF77E 
 206      66625288 
 206      97C80FB1 
 206      E4C2
 207 0219 D107A162 		.ascii	"\321\007\241b>u'E9\303\270%\250\2511\214\236\306h\000"
 207      3E752745 
 207      39C3B825 
 207      A8A9318C 
 207      9EC66800 
 208 022d DE949E6E 		.ascii	"\336\224\236n,\354\277\033\365\264\225\014\003\230n"
 208      2CECBF1B 
 208      F5B4950C 
 208      03986E
 209 023c 839E32C2 		.ascii	"\203\2362\302P>\336\204\256J'\305]\343\337\035\314\223"
ARM GAS  /tmp/cc5Qo0yP.s 			page 15


 209      503EDE84 
 209      AE4A27C5 
 209      5DE3DF1D 
 209      CC93
 210 024e DD4A3DA7 		.ascii	"\335J=\247\203\323\375\356\346\332\201\337x\357\274"
 210      83D3FDEE 
 210      E6DA81DF 
 210      78EFBC
 211 025d E5E092FB 		.ascii	"\345\340\222\373\211\031\373~\206\254\354\322\350\026"
 211      8919FB7E 
 211      86ACECD2 
 211      E816
 212 026b A4D8EF59 		.ascii	"\244\330\357Ytz=iE\217\331\201\002\354\341M\005\260"
 212      747A3D69 
 212      458FD981 
 212      02ECE14D 
 212      05B0
 213 027d 0612C82E 		.ascii	"\006\022\310.\302C\276\333(\304\345\347P\210\335\266"
 213      C243BEDB 
 213      28C4E5E7 
 213      5088DDB6 
 214 028d 84B875B6 		.ascii	"\204\270u\266\355Gr\"N\262\271\271\312\220n\031\276"
 214      ED477222 
 214      4EB2B9B9 
 214      CA906E19 
 214      BE
 215 029e 2A3FCD90 		.ascii	"*?\315\220^\234X\267\342d!*\376-\350\304s\327\015|\333"
 215      5E9C58B7 
 215      E264212A 
 215      FE2DE8C4 
 215      73D70D7C 
 216 02b3 00A25CED 		.ascii	"\000\242\\\355\207\316:\256\337\234;\204rM\353\323p"
 216      87CE3AAE 
 216      DF9C3B84 
 216      724DEBD3 
 216      70
 217 02c4 8D1EC373 		.ascii	"\215\036\303ss\\\004\001\335\276T\335\342T\035a\232"
 217      735C0401 
 217      DDBE54DD 
 217      E2541D61 
 217      9A
 218 02d5 AE4E55F3 		.ascii	"\256NU\363L\365\357S\325.\246\372\265T\265[%Io\211/"
 218      4CF5EF53 
 218      D52EA6FA 
 218      B554B55B 
 218      25496F89 
 219 02ea 55E8D787 		.ascii	"U\350\327\207\012V\024\201\274M~\014\371;\304e\332\215"
 219      0A561481 
 219      BC4D7E0C 
 219      F93BC465 
 219      DA8D
 220 02fc E776B988 		.ascii	"\347v\271\210j23\305\250\305\024\335\374\344XW\314\005"
 220      6A3233C5 
 220      A8C514DD 
 220      FCE45857 
 220      CC05
 221 030e 6EF3A72F 		.ascii	"n\363\247/\310\262V\371P\201\351\240\001\177b\374e\232"
ARM GAS  /tmp/cc5Qo0yP.s 			page 16


 221      C8B256F9 
 221      5081E9A0 
 221      017F62FC 
 221      659A
 222 0320 069897B4 		.ascii	"\006\230\227\264^\374\354Y\3427q-]S\201\274\013bdjE"
 222      5EFCEC59 
 222      E237712D 
 222      5D5381BC 
 222      0B62646A 
 223 0335 DB9D34FA 		.ascii	"\333\2354\372\336\312\263\350{'m\371\336\272\263m\003"
 223      DECAB3E8 
 223      7B276DF9 
 223      DEBAB36D 
 223      03
 224 0346 07902EB8 		.ascii	"\007\220.\270\013\344\221\277\267\214\"g\364QD \333"
 224      0BE491BF 
 224      B78C2267 
 224      F4514420 
 224      DB
 225 0357 01492053 		.ascii	"\001I S]I:\326a6~k\315\337QFOC\027\236\333\347\322\373"
 225      5D493AD6 
 225      61367E6B 
 225      CDDF5146 
 225      4F43179E 
 226 036f B08E2185 		.ascii	"\260\216!\205\220\025\023\037 M39\007\374\215\347\216"
 226      9015131F 
 226      204D3339 
 226      07FC8DE7 
 226      8E
 227 0380 219D9329 		.ascii	"!\235\223)\353\353\3402Z?\276\303La&vJ\360\032\330\317"
 227      EBEBE032 
 227      5A3FBEC3 
 227      4C612676 
 227      4AF01AD8 
 228 0395 9312273E 		.ascii	"\223\022'>l\353+\302q\233\300x\263\326\2351\336\350"
 228      6CEB2BC2 
 228      719BC078 
 228      B3D69D31 
 228      DEE8
 229 03a7 61A8449F 		.ascii	"a\250D\237\030\355\375F'\332\373\223\314\366~\2625\336"
 229      18EDFD46 
 229      27DAFB93 
 229      CCF67EB2 
 229      35DE
 230 03b9 D1B916D9 		.ascii	"\321\271\026\331\307\311\260\325\326\274:\357O\373p"
 230      C7C9B0D5 
 230      D6BC3AEF 
 230      4FFB70
 231 03c8 5EC52E2D 		.ascii	"^\305.-i\273\010\344\013\034|\331\372\371)\333\227*"
 231      69BB08E4 
 231      0B1C7CD9 
 231      FAF929DB 
 231      972A
 232 03da D0696908 		.ascii	"\320ii\0105\304+n\223\3519=\2746=\317\337\375 j\361"
 232      35C42B6E 
 232      93E9393D 
 232      BC363DCF 
ARM GAS  /tmp/cc5Qo0yP.s 			page 17


 232      DFFD206A 
 233 03ef 6B9C9EB7 		.ascii	"k\234\236\267\272\215\323s\266az\316\314\216\303\346"
 233      BA8DD373 
 233      B6617ACE 
 233      CC8EC3E6 
 234 03ff 305520D1 		.ascii	"0U \321O\006\347FO\266&>h\273\300\257\226\343O\272\004"
 234      4F06E746 
 234      4FB6263E 
 234      68BBC0AF 
 234      96E34FBA 
 235 0414 F2394AF1 		.ascii	"\3629J\361\266c@\277\316\260;;\363\026\013\032\330\021"
 235      B66340BF 
 235      CEB03B3B 
 235      F3160B1A 
 235      D811
 236 0426 3B605E4B 		.ascii	";`^K\356\342\273Y\260w\035\203\3519\333\313\202\235"
 236      EEE2BB59 
 236      B0771D83 
 236      E939DBCB 
 236      829D
 237 0438 B10336D4 		.ascii	"\261\0036\324\232\263.\026\354\003\307`,g\315\361\363"
 237      9AB32E16 
 237      EC03C760 
 237      2C67CDF1 
 237      F3
 238 0449 9D4788BC 		.ascii	"\235G\210\2744\357vn\251,7\313\355YV~\307q\330DN\333"
 238      34EF766E 
 238      A92C37CB 
 238      ED59567E 
 238      C771D844 
 239 045f 4420D7C9 		.ascii	"D \327\311\355\372\221y\342\351|:2i}\346H\374\236:2"
 239      EDFA9179 
 239      E2E97C3A 
 239      32697DE6 
 239      48FC9E3A 
 240 0474 05F2250A 		.ascii	"\005\362%\012\227@\341h\337\301\004*9\376ag\256<?/\271"
 240      9740E168 
 240      DFC1042A 
 240      39FE6167 
 240      AE3C3F2F 
 241 0489 06DB9086 		.ascii	"\006\333\220\206\361~cH9\335\311\373\225\352\314|\277"
 241      F17E6348 
 241      39DDC9FB 
 241      95EACC7C 
 241      BF
 242 049a DFB976B8 		.ascii	"\337\271v\270\334\276O\013\017\362\\\371^\206\326P\215"
 242      DCBE4F0B 
 242      0FF25CF9 
 242      5E86D650 
 242      8D
 243 04ab 169D1F92 		.ascii	"\026\235\037\222\021\245\343\3478~[xZ\377\261y \260"
 243      11A5E3E7 
 243      387E5B78 
 243      5AFFB179 
 243      20B0
 244 04bd 01746BFE 		.ascii	"\001tk\376\313J \230\203@\337\014\010\004.C p\351G\266"
 244      CB4A2098 
ARM GAS  /tmp/cc5Qo0yP.s 			page 18


 244      8340DF0C 
 244      08042E43 
 244      2070E947 
 245 04d2 CB972AF4 		.ascii	"\313\227*\364\367\2738g\215y\356\012\022\354O\371\237"
 245      F7BB3867 
 245      8D79EE0A 
 245      12EC4FF9 
 245      9F
 246 04e3 8EC9CC2B 		.ascii	"\216\311\314+\211\017\316]\341W\311\361\026\227\246"
 246      890FCE5D 
 246      E157C9F1 
 246      1697A6
 247 04f2 8AEB8E01 		.ascii	"\212\353\216\001\207\032\214\302s\262g\220~\303\210"
 247      871A8CC2 
 247      73B26790 
 247      7EC388
 248 0501 AE482D90 		.ascii	"\256H-\220\233\344n\310\373 g\010\264xl\214\272\341"
 248      9BE46EC8 
 248      FB206708 
 248      B4786C8C 
 248      BAE1
 249 0513 1652C310 		.ascii	"\026R\303\020\356f\207\360<\307`~\035\330E\026\354\031"
 249      EE6687F0 
 249      3CC7607E 
 249      1DD84516 
 249      EC19
 250 0525 3B607E6B 		.ascii	";`~k\316.\261`K\034\203\3519\273\302\202\255\260\003"
 250      CE2EB160 
 250      4B1C83E9 
 250      39BBC282 
 250      ADB003
 251 0538 766F3AA3 		.ascii	"vo:\243\350\354\223Z\003\010\344S\234q?CK]\300\274\033"
 251      E8EC935A 
 251      0308E453 
 251      9C713F43 
 251      4B5DC0BC 
 252 054d F38B985F 		.ascii	"\363\213\230_\302\374\012\346W1_\300\323|\021\346K0"
 252      C2FC0AE6 
 252      57315FC0 
 252      D37C11E6 
 252      4B30
 253 055f 5FC633F6 		.ascii	"_\3063\366M\263^\353]z'\015g\347q\275\266\306\223v\275"
 253      4DB35EEB 
 253      5D7A270D 
 253      67E771BD 
 253      B6C69376 
 254 0574 96B01095 		.ascii	"\226\260\020\225r\277\222\267^\257\031\376\306s/y\234"
 254      72BF92B7 
 254      5EAF19FE 
 254      C6732F79 
 254      9C
 255 0585 AED71833 		.ascii	"\256\327\0303\340j\375\322)\322\332*o(\320\006\331\253"
 255      E06AFDD2 
 255      29D2DA2A 
 255      6F28D006 
 255      D9AB
 256 0597 4644B341 		.ascii	"FD\263Af59B\300;\363\\^\3274\015l\253c0\343\210\325"
ARM GAS  /tmp/cc5Qo0yP.s 			page 19


 256      66353942 
 256      C03BF35C 
 256      5ED7340D 
 256      6CAB6330 
 257 05ae ECF81EDA 		.ascii	"\354\370\036\332\361\024\332\350\034\346\253\321:\317"
 257      F114DAE8 
 257      1CE6ABD1 
 257      3ACF
 258 05bc F1BAD1B7 		.ascii	"\361\272\321\267\315c\014r\312B\237\301K\355\010\270"
 258      CD630C72 
 258      CA429FC1 
 258      4BED08B8 
 259 05cc CC885646 		.ascii	"\314\210VF\352\"\271)\242q\217a\313\344\314\010\361"
 259      EA22B929 
 259      A2718F61 
 259      CBE4CC08 
 259      F1
 260 05dd B6733016 		.ascii	"\266s0\0262\255\230\333\335\032R\011\227\332\351^\210"
 260      32AD98DB 
 260      DD1A5209 
 260      97DAE95E 
 260      88
 261 05ee 0FDF29CB 		.ascii	"\017\337)\313C\005\362\002O\227\314rV\306%\263\036\207"
 261      4305F202 
 261      4F97CC72 
 261      56C625B3 
 261      1E87
 262 0600 E79EC22E 		.ascii	"\347\236\302./\362\3729.q\372b\342\037W!2\375S\346y"
 262      2FF2FA39 
 262      2E71FA62 
 262      E21F5721 
 262      32FD53E6 
 263 0615 EEC6DCE7 		.ascii	"\356\306\334\347\007.\374\025\266\254t\270\301\350\314"
 263      072EFC15 
 263      B6AC74B8 
 263      C1E8CC
 264 0624 8792AC0C 		.ascii	"\207\222\254\014n\363\321w\000c\012\305\205\235\214"
 264      6EF3D177 
 264      00630AC5 
 264      859D8C
 265 0633 6330BD51 		.ascii	"c0\275Q\226\035d\266\002\266\026\336\275\227\324\323"
 265      961D64B6 
 265      02B616DE 
 265      BD97D4D3 
 266 0643 BB4DE8FB 		.ascii	"\273M\350\373\247\262\214\256\370%q\274\362\346\271"
 266      A7B28CAE 
 266      F82571BC 
 266      F2E6B9
 267 0652 7376E4B0 		.ascii	"sv\344\260\034\217\324\220]w\356\330*\313Oei\213\035"
 267      1C8FD490 
 267      5D77EED8 
 267      2ACB4F65 
 267      698B1D
 268 0665 CB551ACF 		.ascii	"\313U\032\317}\206\304\266\032\235aWo\327}\2123l\265"
 268      7D86C4B6 
 268      1A9D6157 
 268      6FD77D8A 
ARM GAS  /tmp/cc5Qo0yP.s 			page 20


 268      336CB5
 269 0678 E50C1D9D 		.ascii	"\345\014\035\235+m\355\002\333\2634\362a$\377r6%\337"
 269      2B6DED02 
 269      DBB334F2 
 269      6124FF72 
 269      3625DF
 270 068b 31C0176F 		.ascii	"1\300\027o|\371\210B\276\303\026\371\363\307L\216\275"
 270      7CF98842 
 270      BEC316F9 
 270      F3C74C8E 
 270      BD
 271 069c 2C37EAAA 		.ascii	",7\352\252\365v\365v\337\273\016\211\354B\377\351\311"
 271      F576F576 
 271      DFBB0E89 
 271      EC42FFE9 
 271      C9
 272 06ad 369AEFD1 		.ascii	"6\232\357\321\\\226\026\336\353\334\367z\222\373A\271"
 272      5C9616DE 
 272      EBDCF77A 
 272      92FB41B9 
 273 06bd 2F88197F 		.ascii	"/\210\031\177\364\025\264\224\306C\237cD\275\017_<\206"
 273      F415B494 
 273      C6439F63 
 273      44BD0F5F 
 273      3C86
 274 06cf 0342016B 		.ascii	"\003B\001k\361\332\000K\023\330/\261`s\035\203\3519"
 274      F1DA004B 
 274      13D82FB1 
 274      60731D83 
 274      E939
 275 06e1 BBC282CD 		.ascii	"\273\302\202\315\267\003f\265\353\001\260\253,\330B"
 275      B70366B5 
 275      EB01B0AB 
 275      2CD842
 276 06f0 C7607ACE 		.ascii	"\307`z\316\256\263`K\355\200Y-\346\000\354&\013\266"
 276      AEB3604B 
 276      ED80592D 
 276      E600EC26 
 276      0BB6
 277 0702 C231989E 		.ascii	"\3021\230\236\263>\026l\215\0350\2775g\213\337e\300"
 277      B33E166C 
 277      8D1D30BF 
 277      35678BDF 
 277      65C0
 278 0714 DA1C83E9 		.ascii	"\332\034\203\3519[\312\202\375\267\0350\263\305\234"
 278      395BCA82 
 278      FDB71D30 
 278      B3C59C
 279 0723 0AB69C05 		.ascii	"\012\266\234\005[\357\030L\317\331\012\026l\243\035"
 279      5BEF184C 
 279      CFD90A16 
 279      6CA31D
 280 0732 B0026BCE 		.ascii	"\260\002k\316V\261`\2579\006\323s\266\206\005\333j\007"
 280      56B160AF 
 280      3906D373 
 280      B68605DB 
 280      6A07
ARM GAS  /tmp/cc5Qo0yP.s 			page 21


 281 0744 6CB43567 		.ascii	"l\2645gkY\260m\216\301\364\234mf\301v\332\001\033c\315"
 281      6B59B06D 
 281      8EC1F49C 
 281      6D66C176 
 281      DA011B63 
 282 0759 D956166C 		.ascii	"\331V\026l\217c0=g\177d\301\342v\300&Xs\266\215\005"
 282      8F63303D 
 282      677F64C1 
 282      E276C026 
 282      5873B68D 
 283 076e 7BDB3198 		.ascii	"{\3331\230\236\263\355,\330\001;`\345\326\234\355d\301"
 283      9EB3ED2C 
 283      D8013B60 
 283      E5D69CED 
 283      64C1
 284 0780 0E3B06D3 		.ascii	"\016;\006\323s\266\233\005\373\263\035\260\307\2559"
 284      73B69B05 
 284      FBB31DB0 
 284      C7AD39
 285 078f DBCB8275 		.ascii	"\333\313\202u9\006\323s\326\305\202\235\264\0036\315"
 285      3906D373 
 285      D6C5829D 
 285      B40336CD 
 286 079f 84B3E4CF 		.ascii	"\204\263\344\317j\231\271\215g\226\352\247\275\332\002"
 286      6A99B98D 
 286      6796EAA7 
 286      BDDA02
 287 07ae C7E11CCD 		.ascii	"\307\341\034\315\2450\316z\235\256\310tr\323\245\365"
 287      A530CE7A 
 287      9DAEC874 
 287      72D3A5F5 
 288 07be 9D3BD579 		.ascii	"\235;\325y^Y\253~d\0071\315\004\270\346 \263\360"
 288      5E59AB7E 
 288      640731CD 
 288      04B8E620 
 288      B3F0
 289 07d0 FDCA3198 		.ascii	"\375\3121\230\301\225\017\032w#\352\0228\361R<\375\223"
 289      C1950F1A 
 289      7723EA12 
 289      38F1523C 
 289      FD93
 290 07e2 377C989E 		.ascii	"7|\230\236l,\017\037n\336\026\266\332<\335\314]\343"
 290      6C2C0F1F 
 290      6EDE16B6 
 290      DA3CDDCC 
 290      5DE3
 291 07f4 7D492E94 		.ascii	"}I.\224\262VR\236D\365x-\237\307\247\357j\345\011WX"
 291      B256529E 
 291      44F5782D 
 291      9FC7A7EF 
 291      6AE50957 
 292 0809 4FB86247 		.ascii	"O\270bGMi\246\366\363\007\327\342cIF\336\014\217%{\277"
 292      4D69A6F6 
 292      F307D7E2 
 292      634946DE 
 292      0C8F257B 
 293 081e 54F707B7 		.ascii	"T\367\007\267p\177p\313kz\260g\003\350\304\274M?C \331"
ARM GAS  /tmp/cc5Qo0yP.s 			page 22


 293      707F70CB 
 293      6B7AB067 
 293      03E8C4BC 
 293      4D3F4320 
 294 0833 4581E6FA 		.ascii	"E\201\346\372\006\013tk~\233\362$\277\025\201\026\032"
 294      060B746B 
 294      7E9BF224 
 294      BF158116 
 294      1A
 295 0844 80D4C783 		.ascii	"\200\324\307\203\214\336\211~\303\222\366\241\343\337"
 295      8CDE897E 
 295      C392F6A1 
 295      E3DF
 296 0852 B02DCFAD 		.ascii	"\260-\317\255\362\031\254e\366T\322z\355\004c\356\314"
 296      F219AC65 
 296      F654D27A 
 296      ED0463EE 
 296      CC
 297 0863 5D3B5E93 		.ascii	"];^\223\345\326,\007\366\372T\265\327\357P;\355\003"
 297      E5D62C07 
 297      F6FA54B5 
 297      D7EF503B 
 297      ED03
 298 0875 B4231B0F 		.ascii	"\264#\033\017P3\212\261\301\261\030\367\032\304\210"
 298      50338AB1 
 298      C1B118F7 
 298      1AC488
 299 0884 DFEB588C 		.ascii	"\337\353X\214oU1\026\240\030\233\377\006blw,F\001#\006"
 299      6F553116 
 299      A0189BFF 
 299      06626C77 
 299      2C460123 
 300 0899 EE494728 		.ascii	"\356IG({R[O\016\226\272\014O\016\336?B\374Ju\246\315"
 300      7B525B4F 
 300      0E96BA0C 
 300      4F0EDE3F 
 300      42FC4A75 
 301 08af A01CEF3D 		.ascii	"\240\034\357=\242=8P^\252y\013y\247}\035\316\000*\336"
 301      A23D3850 
 301      5EAA790B 
 301      79A77D1D 
 301      CE002ADE 
 302 08c3 72E5E052 		.ascii	"r\345\340R\001;\360\275\300Z\342o<\375\274\312\334\243"
 302      013BF0BD 
 302      C05AE26F 
 302      3CFDBCCA 
 302      DCA3
 303 08d5 7866F13D 		.ascii	"xf\361=\341\216w:>\263h_\2408\307s\350\034\247\0068"
 303      E18E773A 
 303      3EB3685F 
 303      A038C773 
 303      E81CA706 
 304 08ea C7A0CE2C 		.ascii	"\307\240\316,>\036\254\034\311\037LcF\037s\264\301\241"
 304      3E1EAC1C 
 304      C91F4C63 
 304      461F73B4 
 304      C1A1
ARM GAS  /tmp/cc5Qo0yP.s 			page 23


 305 08fc 3E767584 		.ascii	">vu\204\315s\217\344a\332\227\303\017)\207i.z\230\366"
 305      CD738FE4 
 305      61DA97C3 
 305      0F298769 
 305      2E7A98F6 
 306 0910 BF0665D8 		.ascii	"\277\006e\3308?\271\2510\355\032p\230\326u\207z\230"
 306      383FB9A9 
 306      30ED1A70 
 306      98D67587 
 306      7A98
 307 0922 E6B2757E 		.ascii	"\346\262u~2Ws\013\365\214\214\347U\330\301\352Sg\302"
 307      3257730B 
 307      F58C8CE7 
 307      55D8C1EA 
 307      5367C2
 308 0935 147FE0C7 		.ascii	"\024\177\340\307.:\025\277\354\322\235\242>\223\343"
 308      2E3A15BF 
 308      ECD29DA2 
 308      3E93E3
 309 0944 54F77E56 		.ascii	"T\367~V\367\361\033\235k\011\345\337\344\310g\014\273"
 309      F7F11B9D 
 309      6B09E5DF 
 309      E4C8670C 
 309      BB
 310 0955 404A2A3E 		.ascii	"@J*>q\307aT\317FT\374\212\034\207oJ\301>\021\273l\032"
 310      71C76154 
 310      CF4654FC 
 310      8A1C876F 
 310      4AC13E11 
 311 096c A8F843FF 		.ascii	"\250\370C\377\240(~\223-\305\277g\252\370M\316\025\257"
 311      A0287E93 
 311      2DC5BF67 
 311      AAF84DCE 
 311      15AF
 312 097e E29D4A9D 		.ascii	"\342\235J\235H\012\344\017\216\301\374\351\254\270\211"
 312      480AE40F 
 312      8EC1FCE9 
 312      ACB889
 313 098d B1E2EB68 		.ascii	"\261\342\353h\305\315.z~\275Eo\313\016\243-u\232S\213"
 313      C5CD2E7A 
 313      7EBD456F 
 313      CB0EA32D 
 313      759A538B 
 314 09a1 96DB7139 		.ascii	"\226\333q9\276\354\250>~\356\267\343\033i6\321mGQ%J"
 314      BEECA83E 
 314      7EEEB7E3 
 314      1B6936D1 
 314      6D475125 
 315 09b6 BC39E418 		.ascii	"\2749\344\030\314\257\003\333\263\320\344\324\331\354"
 315      CCAF03DB 
 315      B3D0E4D4 
 315      D9EC
 316 09c4 BD34C22E 		.ascii	"\2754\302.|y\356\004\322\335at\227\357\266\035\237G"
 316      7C79EE04 
 316      D2DD6174 
 316      97EFB61D 
 316      9F47
ARM GAS  /tmp/cc5Qo0yP.s 			page 24


 317 09d6 9A9557DE 		.ascii	"\232\225W\336l\370\013L.\237\371\344\245y\232\337.\310"
 317      6CF80B4C 
 317      2E9FF9E4 
 317      A5799ADF 
 317      2EC8
 318 09e8 D550D3A8 		.ascii	"\325P\323\250:\215\267\334\370\3520A8e!\377\254\021"
 318      3A8DB7DC 
 318      F8EA3041 
 318      386521FF 
 318      AC11
 319 09fa 2EE33E43 		.ascii	".\343>C\017\327'\232\277\203e\255\030\355\015\254\035"
 319      0FD7279A 
 319      BF8365AD 
 319      18ED0DAC 
 319      1D
 320 0a0b 747ADD8F 		.ascii	"tz\335\2172=\237k\234\021\024\3150\216\270\203q\304"
 320      323D9F6B 
 320      9C1114CD 
 320      308EB883 
 320      71C4
 321 0a1d 5DE888BB 		.ascii	"]\350\210\273\321\021\367b\036g\335\321j\206\337\347"
 321      D111F762 
 321      1E67DDD1 
 321      6A86DFE7 
 322 0a2d 6256E62F 		.ascii	"bV\346/9\226\333o\260\216\025\231\355,\231Wsm\370\236"
 322      3996DB6F 
 322      B08E1599 
 322      ED2C9957 
 322      736DF89E 
 323 0a41 F5990B0D 		.ascii	"\365\231\013\015\352\377\274C\335\306)'\376\333\034"
 323      EAFFBC43 
 323      DDC62927 
 323      FEDB1C
 324 0a50 23EABDB9 		.ascii	"#\352\275\271g\241n5\260\317\016\334\030\023\006\315"
 324      67A16E35 
 324      B0CF0EDC 
 324      181306CD 
 325 0a60 7EEC231E 		.ascii	"~\354#\036\030\312\270\001{\031\237wm\304\374U\314\267"
 325      18CAB801 
 325      7B199F77 
 325      6DC4FC55 
 325      CCB7
 326 0a72 60DE83F9 		.ascii	"`\336\203\371w\230_\306\374&\346\363\320\240\317`\276"
 326      77985FC6 
 326      FC26E6F3 
 326      D0A0CF60 
 326      BE
 327 0a83 04F376CC 		.ascii	"\004\363v\314_\301\374\015\314\337\304\274\003\363\203"
 327      5FC1FC0D 
 327      CCDFC4BC 
 327      03F383
 328 0a92 981FCEE4 		.ascii	"\230\037\316\344\000\352,\360\306\336\367\357|\025c"
 328      00EA2CF0 
 328      C6DEF7EF 
 328      7C1563
 329 0aa1 753BBA7F 		.ascii	"u;\272\177s\236\321\3636\360\206\023\370\001O\220\226"
 329      739ED1F3 
ARM GAS  /tmp/cc5Qo0yP.s 			page 25


 329      36F08613 
 329      F8014F90 
 329      96
 330 0ab2 E7D97812 		.ascii	"\347\331x\022\227\346aI\317\261\243\247\3112Y>T\240"
 330      97E66149 
 330      CFB1A3A7 
 330      C932593E 
 330      54A0
 331 0ac4 F8BF4076 		.ascii	"\370\277@v\272x=\242~\304\244\361F\325\250\037\266\255"
 331      BA783DA2 
 331      7EC4A4F1 
 331      46D5A81F 
 331      B6AD
 332 0ad6 B3F72C24 		.ascii	"\263\367,$\371*\333=)\235\364~\374\376\177*\257\340"
 332      F92ADB3D 
 332      299DF47E 
 332      FCFE7F2A 
 332      AFE0
 333 0ae8 1EC7D178 		.ascii	"\036\307\321x\332\240\223\2148\370\300\323\020\346\342"
 333      DAA0938C 
 333      38F8C0D3 
 333      10E6E2
 334 0af7 3DE79457 		.ascii	"=\347\224W 3\207\270'[\343\227\317-W\235RyV\377\011"
 334      203387B8 
 334      275BE397 
 334      CF2D579D 
 334      527956FF 
 335 0b0c B2707270 		.ascii	"\262prpS\"}\360\177\216y\360\377\205c0\277\016\354*"
 335      53227DF0 
 335      7F8E79F0 
 335      FF856330 
 335      BF0EEC2A 
 336 0b20 0BF68D1D 		.ascii	"\013\366\215\035\2604\257u]g\301.8\006\323sv\223\005"
 336      B034AF75 
 336      5D67C12E 
 336      3806D373 
 336      769305
 337 0b33 EBB10396 		.ascii	"\353\261\003\226\346\265\256>\026\254\3271\230\236\263"
 337      E6B5AE3E 
 337      16ACD731 
 337      989EB3
 338 0b42 C5E719B0 		.ascii	"\305\347\031\260>;`i\336VY\312\202\315\271\315)\230"
 338      3E3B6069 
 338      DE5659CA 
 338      82CDB9CD 
 338      2998
 339 0b54 9EB3E52C 		.ascii	"\236\263\345,\330\002;`~\023\316\314~\354 \020\310{"
 339      D8023B60 
 339      7E13CECC 
 339      7EEC2010 
 339      C87B
 340 0b66 38499DC2 		.ascii	"8I\235\302\350t\006\363\277`\376\001\346\3470O`\376"
 340      E87406F3 
 340      BF60FE01 
 340      E6E7304F 
 340      60FE
 341 0b78 31E69F62 		.ascii	"1\346\237b\376\271\235\211\254\213\235a\226\335f#\032"
ARM GAS  /tmp/cc5Qo0yP.s 			page 26


 341      FEB99D89 
 341      AC8B9D61 
 341      96DD6623 
 341      1A
 342 0b89 A539B4E8 		.ascii	"\2459\264\350Y\364\341\367z\225:q\376\353\303\377B\303"
 342      59F4E1F7 
 342      7A953A71 
 342      FEEBC3FF 
 342      42C3
 343 0b9b 47E6D7A9 		.ascii	"G\346\327\251\277u\331{\235\372\2021\226\\>\212\261"
 343      BF75D97B 
 343      9DFA8231 
 343      965C3E8A 
 343      B1
 344 0bac E482ADE5 		.ascii	"\344\202\255\345u\257\315\345Z\234\260\332I\306\302"
 344      75AFCDE5 
 344      5A9CB0DA 
 344      49C6C2
 345 0bbb C38F28B1 		.ascii	"\303\217(\261\360\"\306\302s\267e\214\205z\034\312\337"
 345      F022C6C2 
 345      73B7658C 
 345      857A1CCA 
 345      DF
 346 0bcc 6523FF6F 		.ascii	"e#\377o\034C\376/\333\212\205\035\307\364\261\260\007"
 346      1C43FE2F 
 346      DB8A851D 
 346      C7F4B1B0 
 346      07
 347 0bdd 59B83CE8 		.ascii	"Y\270<\350X\270\375\030\343\360\227\034\203\371u`;Y"
 347      58B8FD18 
 347      E3F0971C 
 347      83F97560 
 347      3B59
 348 0bef B06B76C0 		.ascii	"\260kv\300\322\275\342\312\202\335r\014\246\347l/\013"
 348      D2BDE2CA 
 348      82DD720C 
 348      A6E76C2F 
 348      0B
 349 0c00 D6926F03 		.ascii	"\326\222o\003,\335+\256,\330<\307`~3\363r\003\274C "
 349      2CDD2BAE 
 349      2CD83CC7 
 349      607E33F3 
 349      7203BC43 
 350 0c15 573048F4 		.ascii	"W0H\364\342\320\277\206\371\015\314oa\336\217y\263\333"
 350      E2D0BF86 
 350      F90DCC6F 
 350      61DE8F79 
 350      B3DB
 351 0c27 4648E861 		.ascii	"FH\350aC\302\323\310\360\205\301n(aD\177\364\220\362"
 351      43C2D3C8 
 351      F085C16E 
 351      2861447F 
 351      F490F2
 352 0c3a ECC0F072 		.ascii	"\354\300\360r\003\325\207\025\007s\334\014\007K\035"
 352      03D58715 
 352      0773DC0C 
 352      074B1D
ARM GAS  /tmp/cc5Qo0yP.s 			page 27


 353 0c49 73E06739 		.ascii	"s\340g9\210\3378\252\234{k\247\317+\215xfg\201\351v"
 353      88DF38AA 
 353      9C7B6BA7 
 353      CF2B8D78 
 353      666781E9 
 354 0c5e 29477337 		.ascii	")Gs7O\323\300\332\034\203yu`\213\2171`\033\034\203Y"
 354      4FD3C0DA 
 354      1C837975 
 354      608B8F31 
 354      601B1C83 
 355 0c73 BD7CF657 		.ascii	"\275|\366W\364\205n\264\371\223n\\\012c\376\024\346"
 355      F4856EB4 
 355      F9936E5C 
 355      0A63FE14 
 355      E6
 356 0c84 4FB35EC0 		.ascii	"O\263^\300s\257\347\033\327\255\027\214;\246T\024\345"
 356      73AFE71B 
 356      D7AD178C 
 356      3BA65414 
 356      E5
 357 0c95 ECE25AD9 		.ascii	"\354\342Z\331\366k\326\273\366\347\333\230p\374\326"
 357      F66BD6BB 
 357      F6E7DB98 
 357      70FCD6
 358 0ca4 DED5B3E8 		.ascii	"\336\325\263\350\274:\341(\300\260Aw\214\250\367\226"
 358      BC3AE128 
 358      C0B04177 
 358      8CA8F796 
 359 0cb4 67CFB7E9 		.ascii	"g\317\267\351^\333>j\007/\315\313\001k\225%\202\002"
 359      5EDB3E6A 
 359      072FCDCB 
 359      016B9525 
 359      8202
 360 0cc6 76C63198 		.ascii	"v\3061\230\237\263\374\261\237\251\011d\017\276n\270"
 360      9FB3FCB1 
 360      9FA90964 
 360      0FBE6EB8 
 361 0cd6 175F0B3C 		.ascii	"\027_\013<\206\371:\334\002\035E[\035\303\374+\314\027"
 361      86F93ADC 
 361      021D455B 
 361      1DC3FC2B 
 361      CC17
 362 0ce8 A1AD9660 		.ascii	"\241\255\226`\276\314\216\305\266\247^\035\004Ap{\361"
 362      BECC8EC5 
 362      B6A75E1D 
 362      0441707B 
 362      F1
 363 0cf9 E660BFB7 		.ascii	"\346`\277\267I\334X\330\267\205\\l\221W\025\330\376"
 363      49DC58D8 
 363      B7855C6C 
 363      915715D8 
 363      FE
 364 0d0a 3C2E7E7E 		.ascii	"<.~~\036\335\336\257p\323o\343>68\253\315o\343V\273"
 364      1EDDDEAF 
 364      70D36FE3 
 364      3E3638AB 
 364      CD6FE356 
ARM GAS  /tmp/cc5Qo0yP.s 			page 28


 365 0d1f 0DDFC61D 		.ascii	"\015\337\306\035\177\314\257\324f\3762\256;\177\340"
 365      7FCCAFD4 
 365      66FE32AE 
 365      3B7FE0
 366 0d2e 9771D7F2 		.ascii	"\227q\327\362M\277\214\353\3137\3752n\336\020\323/\343"
 366      4DBF8CEB 
 366      CB37FD32 
 366      6EDE10D3 
 366      2FE3
 367 0d40 160DD17F 		.ascii	"\026\015\321\177\031\247V\257LU{\030U\246}\036\225\222"
 367      19A756AF 
 367      4C557B18 
 367      55A67D1E 
 367      9592
 368 0d52 4F206BDC 		.ascii	"O k\334\324\025\236s\233\1770\007.A\014&\314\370\301"
 368      D4159E73 
 368      9B7F3007 
 368      2E410C26 
 368      CCF8C1
 369 0d65 5C5A2F7C 		.ascii	"\\Z/|\223\361\302m\350\205\035\350\177\317\332\361\255"
 369      93F1C26D 
 369      E8851DE8 
 369      7FCFDAF1 
 369      AD
 370 0d76 2D29DFD2 		.ascii	"-)\337\322}s\206\005\346\2633\236k\037\2427\374=\334"
 370      7D738605 
 370      E6B3339E 
 370      6B1FA237 
 370      FC3DDC
 371 0d89 EF657969 		.ascii	"\357eyib\313\3253\256\325r\334\255@\361\334\037\260"
 371      62CBD533 
 371      AED572DC 
 371      AD40F1DC 
 371      1FB0
 372 0d9b D98BE42E 		.ascii	"\331\213\344.S\222*A\245\257\334!NP\250A\014\314\320"
 372      53922A41 
 372      A5AFDC21 
 372      4E50A841 
 372      0CCCD0
 373 0dae 4DE5E99F 		.ascii	"M\345\351\237\270\227\350\222\355\365\271s\206\272\225"
 373      B897E892 
 373      EDF5B973 
 373      86BA95
 374 0dbd F3452E4D 		.ascii	"\363E.M7U\306\015n\335\367\336\364\353\353DW\374\273"
 374      3755C60D 
 374      6EDDF7DE 
 374      F4EBEB44 
 374      57FCBB
 375 0dd0 33798B9B 		.ascii	"3y\213\233\023\375\375w\331\377:\357u\267\341\353<*"
 375      13FDFD77 
 375      D9FF3AEF 
 375      75B7E1EB 
 375      3C2A
 376 0de2 4CF246FD 		.ascii	"L\362F\375\344\333\240\266m\246j\223/\207'(\335\005"
 376      E4DBA0B6 
 376      6DA66A93 
 376      2F872728 
ARM GAS  /tmp/cc5Qo0yP.s 			page 29


 376      DD05
 377 0df4 B2D14DDD 		.ascii	"\262\321M\335\3415\267\035\215\255\376\367\341\332\267"
 377      E135B71D 
 377      8DADFEF7 
 377      E1DAB7
 378 0e03 E7FB1098 		.ascii	"\347\373\020\230\351fxd\256\262\243jl\201<g(A\3418\265"
 378      E9667864 
 378      AEB2A36A 
 378      6C813C67 
 378      2841E138 
 379 0e18 97CE87B6 		.ascii	"\227\316\207\266\016TQ\274;\376\307\317\306\034\222"
 379      0E5451BC 
 379      3BFEC7CF 
 379      C61C92
 380 0e27 BBFBFB87 		.ascii	"\273\373\373\207\330W\321v3\025\031T\362\216M\225t\244"
 380      D857D176 
 380      33151954 
 380      F28E4D95 
 380      74A4
 381 0e39 57892ADB 		.ascii	"W\211*\333b\203l\035F\331v\232\230\277[\206%\221O\356"
 381      62836C1D 
 381      46D9769A 
 381      98BF5B86 
 381      25914FEE 
 382 0e4d EFEFA71F 		.ascii	"\357\357\247\037\363S\273\362\334)\233l\355qf)\030\240"
 382      F353BBF2 
 382      DC299B6C 
 382      ED716629 
 382      18A0
 383 0e5f C66E0E2C 		.ascii	"\306n\016,\265\307(\315\336\201\322\264'\342\227D\305"
 383      B5C728CD 
 383      DE81D2B4 
 383      27E29744 
 383      C5
 384 0e70 509A2C1F 		.ascii	"P\232,\037\231\311\322\"\3372\312\262\337\226,[R^\327"
 384      99C9D222 
 384      DF32CAB2 
 384      DF962C5B 
 384      525ED7
 385 0e83 8DC0FB07 		.ascii	"\215\300\373\007%\313~\243,o\017\224es\"\276\356@'\001"
 385      25CB7EA3 
 385      2C6F0F94 
 385      657322BE 
 385      EE402701 
 386 0e97 A237E947 		.ascii	"\2427\351GA\006\307[\237f\315z8\355\340T\037Y\233}\235"
 386      4106C75B 
 386      9F66CD7A 
 386      38EDE054 
 386      1F599B7D 
 387 0eac AFFCD10A 		.ascii	"\257\374\321\012\366\177\334\354\021\242\301\223\257"
 387      F67FDCEC 
 387      11A2C193 
 387      AF
 388 0eb9 99AB79A5 		.ascii	"\231\253y\245hP\363!\033jn\221\217S5++\321g\206\022"
 388      6850F321 
 388      1B6A6E91 
 388      8F53352B 
ARM GAS  /tmp/cc5Qo0yP.s 			page 30


 388      2BD16786 
 389 0ece 7D37839A 		.ascii	"}7\203\232Q\034\265[?\245F\331\344\271%\306n\006j\252"
 389      511CB55B 
 389      3FA546D9 
 389      E4B925C6 
 389      6E066AAA 
 390 0ee2 30E651D4 		.ascii	"0\346Q\324\252\233*\370QSc\355=`\036E\323Y\352\224\003"
 390      AA9B2AF8 
 390      515363ED 
 390      3D601E45 
 390      D359EA94 
 391 0ef7 4B25EF0D 		.ascii	"K%\357\015\232_1\324T\363\253\215\232\177\317\226\346"
 391      9A5F31D4 
 391      54F3AB8D 
 391      9A7FCF96 
 391      E6
 392 0f08 4F689A17 		.ascii	"Oh\232\027\310qc\267t\232O\031l#\362\223\241\233\225"
 392      C87163B7 
 392      749A4F19 
 392      6C23F293 
 392      A19B95
 393 0f1b E6AD9854 		.ascii	"\346\255\230T\365\365\027S\315\237\033\204\346?r\244"
 393      F5F51753 
 393      CD9F1B84 
 393      E63F72A4 
 394 0f2b 79D55B32 		.ascii	"y\325[2Xb\263\271%\226\030-\221\260e\211])\225\306\021"
 394      5862B3B9 
 394      2596182D 
 394      91B06589 
 394      5D2995C6 
 395 0f40 3861CB12 		.ascii	"8a\313\022\313@\031D\341X '2\320C\271\324\216o\035\310"
 395      CB401944 
 395      E1582027 
 395      32D043B9 
 395      D48E6F1D 
 396 0f55 2DD0081E 		.ascii	"-\320\010\036\261C\320\312\206V\344T\315\177nj\303>"
 396      B143D0CA 
 396      8656E454 
 396      CD7F6E6A 
 396      C33E
 397 0f67 CD868A69 		.ascii	"\315\206\212ix\256\313\\\231\313\214\312\274`K\231{"
 397      78AECB5C 
 397      99CB8CCA 
 397      BC604B99 
 397      7B
 398 0f78 526EFD95 		.ascii	"Rn\375\225\261[\032e>;P\231\326\364Xe\036O*S \337\332"
 398      B15B1A65 
 398      3E3B5099 
 398      D6F45865 
 398      1E4F2A53 
 399 0f8f 2168A54C 		.ascii	"!h\245L+r\2522\377j\252\314\266\203\316\007\304"
 399      2B72AA32 
 399      FF6AAACC 
 399      B683CE07 
 399      C4
 400 0fa0 153B03C2 		.ascii	"\025;\003\302\340\360\037\231\333\250\3378\267^\266"
 400      E0F01F99 
ARM GAS  /tmp/cc5Qo0yP.s 			page 31


 400      DBA8DF38 
 400      B75EB6
 401 0faf 65A31D29 		.ascii	"e\243\035)\207\357F\340\313\203S\231\0255U\320kz\225"
 401      87EF46E0 
 401      CB835399 
 401      153555D0 
 401      6B7A95
 402 0fc2 A9FFAE20 		.ascii	"\251\377\256 \3357\301\002i\305g~\231>\333\305S\324"
 402      DD37C102 
 402      69C5677E 
 402      993EDBC5 
 402      53D4
 403 0fd4 66DB5F44 		.ascii	"f\333_D\323\273f\334\031?\305~6g\230\221\351*\306\012"
 403      D3BB66DC 
 403      193FC57E 
 403      36679891 
 403      E92AC60A 
 404 0fe8 4BF6E45A 		.ascii	"K\366\344Z\364\332\236\246Ws\252\027\347\011\215\253"
 404      F4DA9EA6 
 404      5773AA17 
 404      E7098DAB 
 405 0ff8 AFAF1956 		.ascii	"\257\257\031V\022\215\314\022"
 405      128DCC12 
 406 1000 A3B14074 		.ascii	"\243\261@tFm\321\310\351\015#\252\270\011\201\352\372"
 406      466DD1C8 
 406      E90D23AA 
 406      B80981EA 
 406      FA
 407 1011 5A315055 		.ascii	"Z1PU\037~\"\020\026g\005\252\252#\323#\365\261\200\024"
 407      1F7E2210 
 407      166705AA 
 407      AA23D323 
 407      F5B18014 
 408 1025 6DACFB75 		.ascii	"m\254\373u\000\012Q)\320P\037\225b\201\261\301I\305"
 408      000A5129 
 408      D0501F95 
 408      6281B1C1 
 408      49C5
 409 1037 939AA065 		.ascii	"\223\232\240emC\244\206\202<V\\\014\315\245'\032\304"
 409      6D43A486 
 409      823C565C 
 409      0CCDA527 
 409      1AC4
 410 1049 D8886ACE 		.ascii	"\330\210j\316S\033\233\031\222\262\036\233<\325_\314"
 410      531B9B19 
 410      92B21E9B 
 410      3CD55FCC 
 411 1059 DD13688C 		.ascii	"\335\023h\214E\003B\264\366\276\272\372:\361>Q\230\036"
 411      450342B4 
 411      F6BEBAFA 
 411      3AF13E51 
 411      981E
 412 106b 0944EAAA 		.ascii	"\011D\352\252j\032\303b &\205#u\022\364\310\206\313"
 412      6A1AC362 
 412      20268523 
 412      7512F4C8 
 412      86CB
ARM GAS  /tmp/cc5Qo0yP.s 			page 32


 413 107d C8A29034 		.ascii	"\310\242\2204*M\343Z\001\030\252\023\003\241\2608Ch"
 413      2A4DE35A 
 413      0118AA13 
 413      03A1B038 
 413      4368
 414 108f AC91421A 		.ascii	"\254\221B\0329_(\244v\037 \024 c1$\225d\022\256Z\250"
 414      395F28A4 
 414      761F2014 
 414      20633124 
 414      956412AE 
 415 10a5 51A5ABA8 		.ascii	"Q\245\253\250\2344\262(0qbI\240\242\274lVa \326\020"
 415      9C34B228 
 415      30716249 
 415      A0A2BC6C 
 415      566120D6 
 416 10ba 09D5D484 		.ascii	"\011\325\324\204)%\250PH\024\331\201K\212\331\020\201"
 416      2925A850 
 416      4814D981 
 416      4B8AD910 
 416      81
 417 10cb CE397089 		.ascii	"\3169p\211I\202$\206\244\034\300\011M\235\\6\271\254"
 417      49822486 
 417      A41CC009 
 417      4D9D5C36 
 417      B9AC
 418 10dd D24B8B15 		.ascii	"\322K\213\025\225S\312)v(X:\266\344W\370\327\261\305"
 418      9553CA29 
 418      7628583A 
 418      B6E457F8 
 418      D7B1C5
 419 10f0 9565FF56 		.ascii	"\225e\377V\232G\213\305S&\225O,\255,\365`\357\333\000"
 419      9A478BC5 
 419      5326954F 
 419      2CAD2CF5 
 419      60EFDB00 
 420 1104 A64AA8A9 		.ascii	"\246J\250\251\231.T\375\032\224,\326\205CU\323K\007"
 420      992E54FD 
 420      1A942CD6 
 420      854355D3 
 420      4B07
 421 1116 23DD63E5 		.ascii	"#\335c\345eSf\025\005\032\204\032U\274\274\230T\013"
 421      65536615 
 421      051A841A 
 421      55BCBC98 
 421      540B
 422 1128 6A9CD910 		.ascii	"j\234\331\020\251\017I\336FU\2519\241\220V\364L\232"
 422      A90F49DE 
 422      4655A939 
 422      A19056F4 
 422      4C9A
 423 113a 52521ACC 		.ascii	"RR\032\314\232R\371\253\362\322`\366\224\212\362\322"
 423      9A52F9AB 
 423      F2D260F6 
 423      948AF2D2 
 424 114a D292A0A7 		.ascii	"\322\222\240\247|jyI\320U\006iJI\220\374\022;\026\336"
 424      7C6A7949 
 424      D0550669 
ARM GAS  /tmp/cc5Qo0yP.s 			page 33


 424      4A4990FC 
 424      123B16DE 
 425 115e 9FEC488B 		.ascii	"\237\354H\213\256\230(y\252jD!J&\270\307U\004\203\356"
 425      AE982879 
 425      AA6A4421 
 425      4A26B8C7 
 425      550483EE 
 426 1172 89C5FF1A 		.ascii	"\211\305\377\032t\217\035\037\234H\263\011\256q\301"
 426      748F1D1F 
 426      9C48B309 
 426      AE71C1
 427 1181 604EA49E 		.ascii	"`N\244\236r\030\011\203T\261\030-z\340\"\204]U\321B"
 427      72180983 
 427      54B1182D 
 427      7AE02284 
 427      5D55D142 
 428 1195 AA9CE2FA 		.ascii	"\252\234\342\372\272\031\221\231YUx\031m\303W5\365W"
 428      BA199199 
 428      59557819 
 428      6DC35735 
 428      F557
 429 11a7 55C79E88 		.ascii	"U\307\236\210i\316\342\225\252\243\242\0004|U\325!\245"
 429      69CEE295 
 429      AAA3A200 
 429      347C55D5 
 429      21A5
 430 11b9 3CCA1956 		.ascii	"<\312\031VU5\325UVC\250Nl\222\340\322\020\025geK\015"
 430      5535D555 
 430      5643A84E 
 430      6C92E0D2 
 430      10156765 
 431 11cf 51AA34BC 		.ascii	"Q\2524\274\215\324g\003\223\022\374\365A\307#\252\272"
 431      8DD46703 
 431      9312FCF5 
 431      41C723AA 
 431      BA
 432 11e0 AA3E2A02 		.ascii	"\252>*\002|.\255\246n]%5=<8\224\320\254\007j\251\300"
 432      7C2EADA6 
 432      6E5D2535 
 432      3D3C3894 
 432      D0AC076A 
 433 11f6 5171260C 		.ascii	"Qq&\014(j\203\302\373!=\000i4\244\007]\261\242\002H"
 433      286A83C2 
 433      FB213D00 
 433      6934A407 
 433      5DB1A202 
 434 120b 85908A20 		.ascii	"\205\220\212 \215\2044\012\322/ A\273\"hW\004\355\212"
 434      8D84340A 
 434      D22F2041 
 434      BB226857 
 434      04ED8A
 435 121e A0DD4868 		.ascii	"\240\335Hh7\262\220\217\216\342\243\277\340\243\367"
 435      37B2908F 
 435      8EE2A3BF 
 435      E0A3F7
 436 122d F3D107F8 		.ascii	"\363\321\007\370\350h>\372\240+ZX\000\251\220\257\211"
 436      E8683EFA 
ARM GAS  /tmp/cc5Qo0yP.s 			page 34


 436      A02B5A58 
 436      00A990AF 
 436      89
 437 123e C265A4A7 		.ascii	"\302e\244\247!\004\334fS\305\314\026\243p\255\257\011"
 437      2104DC66 
 437      53C5CC16 
 437      A370ADAF 
 437      09
 438 124f 8B517755 		.ascii	"\213QwU\265\020\245\332\022jE\257\244\016\200l\352\030"
 438      B510A5DA 
 438      126A45AF 
 438      A40E806C 
 438      EA18
 439 1261 A3C1088A 		.ascii	"\243\301\010\212\213@\011\232\343\337\262\245\332\372"
 439      8B40099A 
 439      E3DFB2A5 
 439      DAFA
 440 126f B088F733 		.ascii	"\260\210\3673j\204\231\261l)*\316\210\241fi!+\032~\002"
 440      6A8499B1 
 440      6C292ACE 
 440      88A16669 
 440      212B1A7E 
 441 1284 A28B576C 		.ascii	"\242\213Wl\212H\240\0201k\266T?\375?\032r\305Yb\235"
 441      8A48A010 
 441      316BB654 
 441      3FFD3F1A 
 441      72C55962 
 442 1299 542BC470 		.ascii	"T+\304pH\314\246\005WC\2501_1p,T\003#/$\015I\232\\\251"
 442      48CCA605 
 442      5743A831 
 442      5F31702C 
 442      5403232F 
 443 12b3 F1358466 		.ascii	"\3615\204f\013\021)R7s\210V\375\233F\261\021\250\017"
 443      0B112952 
 443      37738856 
 443      FD9B46B1 
 443      11A80F
 444 12c6 655A6255 		.ascii	"eZbUNC\010\310b\321\203E\250\020\033`\360AgOm#\030{"
 444      4E4308C8 
 444      62D18345 
 444      A8101B60 
 444      F041674F 
 445 12de A4232FAA 		.ascii	"\244#/\252\225\232hp\252U\320\341Z?\273\016t\206H B"
 445      959A6870 
 445      AA55D0E1 
 445      5A3FBB0E 
 445      74864820 
 446 12f3 2D3A17F0 		.ascii	"-:\027\360\007\355(\2479Tz\241\006}\013*\033 \200?\340"
 446      07ED28A7 
 446      39547AA1 
 446      067D0B2A 
 446      1B20803F 
 447 1308 889E2A0C 		.ascii	"\210\236*\014\320\034\246\016\000\320\246\030\025\353"
 447      D01CA60E 
 447      00D0A618 
 447      15EB
 448 1316 AA40DA2C 		.ascii	"\252@\332,\245\352\241L\210\300R\240xREY\005\004\221"
ARM GAS  /tmp/cc5Qo0yP.s 			page 35


 448      A5EAA14C 
 448      88C052A0 
 448      78524559 
 448      050491
 449 1329 00C68A19 		.ascii	"\000\306\212\031\243\012\012\233\320_i\240\252\2041"
 449      A30A0A9B 
 449      D05F69A0 
 449      AA8431
 450 1338 5622CE70 		.ascii	"V\"\316p\025\007\013!\025\361\025A\036\302Cq\260\270"
 450      15070B21 
 450      15F11541 
 450      1EC24371 
 450      B0B8
 451 134a 3C98157C 		.ascii	"<\230\025|\034\256\301\254J\274d\227\025U\024\217\177"
 451      1CAEC1AC 
 451      4ABC6497 
 451      1555148F 
 451      7F
 452 135b 2CE8816B 		.ascii	",\350\201ky\320\005\021m\274\323\000\206\371\370QMM"
 452      79D00511 
 452      6DBCD300 
 452      86F9F851 
 452      4D4D
 453 136d 0A23A170 		.ascii	"\012#\241p\255@\205+\23146T\001.#\324j\334\360\305A"
 453      AD40852B 
 453      99343654 
 453      012E23D4 
 453      6ADCF0C5 
 454 1382 F7E492CA 		.ascii	"\367\344\222\312\240\253|l\320=\251\200f\205c\203\256"
 454      A0AB7C6C 
 454      D03DA980 
 454      66856383 
 454      AE
 455 1393 F1C04C0C 		.ascii	"\361\300L\014\033\272#3\252\242Y\221Xud\206\344\213"
 455      1BBA2333 
 455      AAA25991 
 455      58756486 
 455      E48B
 456 13a5 89353322 		.ascii	"\21153\"ua\261)k\226X%\325G\207%\321CJk\010\202p\023"
 456      7561B129 
 456      6B965825 
 456      D5478725 
 456      D1434A6B 
 457 13bd 6DA2B9D4 		.ascii	"m\242\271\324\344\2136\301\225z\254O\322J\267)3\216"
 457      E48B36C1 
 457      957AAC4F 
 457      D24AB729 
 457      338E
 458 13cf EAE9DEB2 		.ascii	"\352\351\336\262\311J(w\227\225L,\365VL\230ZY2\345\227"
 458      C94A2877 
 458      97954C2C 
 458      F5564C98 
 458      5A5932E5 
 459 13e4 93B32B1F 		.ascii	"\223\263+\037\017\321`\232\035T\256\336J\265\220\243"
 459      0FD1609A 
 459      1D54AEDE 
 459      4AB590A3 
ARM GAS  /tmp/cc5Qo0yP.s 			page 36


 460 13f4 F48ED445 		.ascii	"\364\216\324E$\027\024\263\3028\335\250\265\225\217"
 460      241714B3 
 460      C238DDA8 
 460      B5958F
 461 1403 974EE6C5 		.ascii	"\227N\346\305\272\037(wA\270\033\321 D\245\021\0059"
 461      BA1F2877 
 461      41B81BD1 
 461      2044A511 
 461      0539
 462 1415 A99A7CA5 		.ascii	"\251\232|\245\250\021\362\306\252\033\2450x\3270\245"
 462      A811F2C6 
 462      AA1BA530 
 462      78D730A5 
 463 1425 9E1A3A28 		.ascii	"\236\032:(\316\004\237\202\241)\204\303QwX\220\204\333"
 463      CE049F82 
 463      A12984C3 
 463      51775890 
 463      84DB
 464 1437 953FCE8E 		.ascii	"\225?\316\216F$Q\373\253g\226P\323(\016Iu\033\327\030"
 464      462451FB 
 464      AB679650 
 464      D3280E49 
 464      751BD718 
 465 144b 85310372 		.ascii	"\2051\003rE\245\261\320\321SU\337X'\015ezb\003\225~"
 465      45A5B1D0 
 465      D15355DF 
 465      58270D65 
 465      7A620395 
 466 1460 0CC6C6B8 		.ascii	"\014\306\306\270'$\321=\035\262\377\003\307P\005\320"
 466      2724D13D 
 466      1DB2FF03 
 466      C75005D0 
 467              		.text
 468              		.section	.gnu.lto_.symtab.9579a494f1e731df,"",%progbits
 469 0000 72666D32 		.ascii	"rfm23_init\000\000\000\000\000\000\000\000\000\000\000"
 469      335F696E 
 469      69740000 
 469      00000000 
 469      00000000 
 470 0015 00A40000 		.ascii	"\000\244\000\000\000rfm23_TXEN\000\000\000\000\000\000"
 470      0072666D 
 470      32335F54 
 470      58454E00 
 470      00000000 
 471 002a 00000000 		.ascii	"\000\000\000\000\000\000.\002\000\000rfm23_RXEN\000"
 471      00002E02 
 471      00007266 
 471      6D32335F 
 471      5258454E 
 472 003f 00000000 		.ascii	"\000\000\000\000\000\000\000\000\000\000\000=\002\000"
 472      00000000 
 472      0000003D 
 472      0200
 473 004d 0072666D 		.ascii	"\000rfm23_SHUTDOWN\000\000\000\000\000\000\000\000\000"
 473      32335F53 
 473      48555444 
 473      4F574E00 
ARM GAS  /tmp/cc5Qo0yP.s 			page 37


 473      00000000 
 474 0065 00000042 		.ascii	"\000\000\000B\002\000\000rfm23_readRegister\000\000"
 474      02000072 
 474      666D3233 
 474      5F726561 
 474      64526567 
 475 0080 00000000 		.ascii	"\000\000\000\000\000\000\000\000\000\000H\002\000\000"
 475      00000000 
 475      00004802 
 475      0000
 476 008e 72666D32 		.ascii	"rfm23_writeRegister\000\000\000\000\000\000\000\000"
 476      335F7772 
 476      69746552 
 476      65676973 
 476      74657200 
 477 00a9 00000000 		.ascii	"\000\000\000\000U\002\000\000rfm23_readBurst\000\000"
 477      55020000 
 477      72666D32 
 477      335F7265 
 477      61644275 
 478 00c2 00000000 		.ascii	"\000\000\000\000\000\000\000\000\000\000`\002\000\000"
 478      00000000 
 478      00006002 
 478      0000
 479 00d0 72666D32 		.ascii	"rfm23_writeBurst\000\000\000\000\000\000\000\000\000"
 479      335F7772 
 479      69746542 
 479      75727374 
 479      00000000 
 480 00e9 0000006E 		.ascii	"\000\000\000n\002\000\000rfm23_sendByte\000\000\000"
 480      02000072 
 480      666D3233 
 480      5F73656E 
 480      64427974 
 481 0101 00000000 		.ascii	"\000\000\000\000\000\000\000\000\000u\002\000\000"
 481      00000000 
 481      00750200 
 481      00
 482              		.text
 483              		.section	.gnu.lto_.opts,"",%progbits
 484 0000 272D6D63 		.ascii	"'-mcpu=cortex-m4' '-mfloat-abi=hard' '-mfpu=fpv4-sp"
 484      70753D63 
 484      6F727465 
 484      782D6D34 
 484      2720272D 
 485 0033 2D643136 		.ascii	"-d16' '-mno-thumb-interwork' '-mthumb' '-O2' '-fomi"
 485      2720272D 
 485      6D6E6F2D 
 485      7468756D 
 485      622D696E 
 486 0066 742D6672 		.ascii	"t-frame-pointer' '-falign-functions=16' '-ffunction"
 486      616D652D 
 486      706F696E 
 486      74657227 
 486      20272D66 
 487 0099 2D736563 		.ascii	"-sections' '-fdata-sections' '-fno-common' '-flto' "
 487      74696F6E 
ARM GAS  /tmp/cc5Qo0yP.s 			page 38


 487      73272027 
 487      2D666461 
 487      74612D73 
 488 00cc 272D6673 		.ascii	"'-fsingle-precision-constant'\000"
 488      696E676C 
 488      652D7072 
 488      65636973 
 488      696F6E2D 
 489              		.text
 490              		.section	.text.rfm23_init,"ax",%progbits
 491              		.align	2
 492              		.p2align 4,,15
 493              		.global	rfm23_init
 494              		.thumb
 495              		.thumb_func
 496              		.type	rfm23_init, %function
 497              	rfm23_init:
 498              		@ args = 0, pretend = 0, frame = 0
 499              		@ frame_needed = 0, uses_anonymous_args = 0
 500              		@ link register save eliminated.
 501 0000 0160     		str	r1, [r0]
 502 0002 0020     		movs	r0, #0
 503 0004 7047     		bx	lr
 504              		.size	rfm23_init, .-rfm23_init
 505 0006 00BFAFF3 		.section	.text.rfm23_TXEN,"ax",%progbits
 505      0080AFF3 
 505      0080
 506              		.align	2
 507              		.p2align 4,,15
 508              		.global	rfm23_TXEN
 509              		.thumb
 510              		.thumb_func
 511              		.type	rfm23_TXEN, %function
 512              	rfm23_TXEN:
 513              		@ args = 0, pretend = 0, frame = 0
 514              		@ frame_needed = 0, uses_anonymous_args = 0
 515              		@ link register save eliminated.
 516 0000 044B     		ldr	r3, .L7
 517 0002 11B9     		cbnz	r1, .L6
 518 0004 0222     		movs	r2, #2
 519 0006 1A83     		strh	r2, [r3, #24]	@ movhi
 520 0008 7047     		bx	lr
 521              	.L6:
 522 000a 0121     		movs	r1, #1
 523 000c 0222     		movs	r2, #2
 524 000e 1983     		strh	r1, [r3, #24]	@ movhi
 525 0010 5A83     		strh	r2, [r3, #26]	@ movhi
 526 0012 7047     		bx	lr
 527              	.L8:
 528              		.align	2
 529              	.L7:
 530 0014 00040240 		.word	1073873920
 531              		.size	rfm23_TXEN, .-rfm23_TXEN
 532 0018 AFF30080 		.section	.text.rfm23_RXEN,"ax",%progbits
 532      AFF30080 
 533              		.align	2
 534              		.p2align 4,,15
ARM GAS  /tmp/cc5Qo0yP.s 			page 39


 535              		.global	rfm23_RXEN
 536              		.thumb
 537              		.thumb_func
 538              		.type	rfm23_RXEN, %function
 539              	rfm23_RXEN:
 540              		@ args = 0, pretend = 0, frame = 0
 541              		@ frame_needed = 0, uses_anonymous_args = 0
 542              		@ link register save eliminated.
 543 0000 044B     		ldr	r3, .L13
 544 0002 11B9     		cbnz	r1, .L12
 545 0004 0122     		movs	r2, #1
 546 0006 1A83     		strh	r2, [r3, #24]	@ movhi
 547 0008 7047     		bx	lr
 548              	.L12:
 549 000a 0221     		movs	r1, #2
 550 000c 0122     		movs	r2, #1
 551 000e 1983     		strh	r1, [r3, #24]	@ movhi
 552 0010 5A83     		strh	r2, [r3, #26]	@ movhi
 553 0012 7047     		bx	lr
 554              	.L14:
 555              		.align	2
 556              	.L13:
 557 0014 00040240 		.word	1073873920
 558              		.size	rfm23_RXEN, .-rfm23_RXEN
 559 0018 AFF30080 		.section	.text.rfm23_SHUTDOWN,"ax",%progbits
 559      AFF30080 
 560              		.align	2
 561              		.p2align 4,,15
 562              		.global	rfm23_SHUTDOWN
 563              		.thumb
 564              		.thumb_func
 565              		.type	rfm23_SHUTDOWN, %function
 566              	rfm23_SHUTDOWN:
 567              		@ args = 0, pretend = 0, frame = 0
 568              		@ frame_needed = 0, uses_anonymous_args = 0
 569              		@ link register save eliminated.
 570 0000 034B     		ldr	r3, .L19
 571 0002 4FF48062 		mov	r2, #1024
 572 0006 09B9     		cbnz	r1, .L18
 573 0008 5A83     		strh	r2, [r3, #26]	@ movhi
 574 000a 7047     		bx	lr
 575              	.L18:
 576 000c 1A83     		strh	r2, [r3, #24]	@ movhi
 577 000e 7047     		bx	lr
 578              	.L20:
 579              		.align	2
 580              	.L19:
 581 0010 00040240 		.word	1073873920
 582              		.size	rfm23_SHUTDOWN, .-rfm23_SHUTDOWN
 583 0014 AFF30080 		.section	.text.rfm23_readRegister,"ax",%progbits
 583      AFF30080 
 583      AFF30080 
 584              		.align	2
 585              		.p2align 4,,15
 586              		.global	rfm23_readRegister
 587              		.thumb
 588              		.thumb_func
ARM GAS  /tmp/cc5Qo0yP.s 			page 40


 589              		.type	rfm23_readRegister, %function
 590              	rfm23_readRegister:
 591              		@ args = 0, pretend = 0, frame = 0
 592              		@ frame_needed = 0, uses_anonymous_args = 0
 593              		@ link register save eliminated.
 594 0000 0020     		movs	r0, #0
 595 0002 7047     		bx	lr
 596              		.size	rfm23_readRegister, .-rfm23_readRegister
 597 0004 AFF30080 		.section	.text.rfm23_writeRegister,"ax",%progbits
 597      AFF30080 
 597      AFF30080 
 598              		.align	2
 599              		.p2align 4,,15
 600              		.global	rfm23_writeRegister
 601              		.thumb
 602              		.thumb_func
 603              		.type	rfm23_writeRegister, %function
 604              	rfm23_writeRegister:
 605              		@ args = 0, pretend = 0, frame = 0
 606              		@ frame_needed = 0, uses_anonymous_args = 0
 607              		@ link register save eliminated.
 608 0000 0020     		movs	r0, #0
 609 0002 7047     		bx	lr
 610              		.size	rfm23_writeRegister, .-rfm23_writeRegister
 611 0004 AFF30080 		.section	.text.rfm23_readBurst,"ax",%progbits
 611      AFF30080 
 611      AFF30080 
 612              		.align	2
 613              		.p2align 4,,15
 614              		.global	rfm23_readBurst
 615              		.thumb
 616              		.thumb_func
 617              		.type	rfm23_readBurst, %function
 618              	rfm23_readBurst:
 619              		@ args = 0, pretend = 0, frame = 0
 620              		@ frame_needed = 0, uses_anonymous_args = 0
 621              		@ link register save eliminated.
 622 0000 0020     		movs	r0, #0
 623 0002 7047     		bx	lr
 624              		.size	rfm23_readBurst, .-rfm23_readBurst
 625 0004 AFF30080 		.section	.text.rfm23_writeBurst,"ax",%progbits
 625      AFF30080 
 625      AFF30080 
 626              		.align	2
 627              		.p2align 4,,15
 628              		.global	rfm23_writeBurst
 629              		.thumb
 630              		.thumb_func
 631              		.type	rfm23_writeBurst, %function
 632              	rfm23_writeBurst:
 633              		@ args = 0, pretend = 0, frame = 0
 634              		@ frame_needed = 0, uses_anonymous_args = 0
 635              		@ link register save eliminated.
 636 0000 0020     		movs	r0, #0
 637 0002 7047     		bx	lr
 638              		.size	rfm23_writeBurst, .-rfm23_writeBurst
 639 0004 AFF30080 		.section	.text.rfm23_sendByte,"ax",%progbits
ARM GAS  /tmp/cc5Qo0yP.s 			page 41


 639      AFF30080 
 639      AFF30080 
 640              		.align	2
 641              		.p2align 4,,15
 642              		.global	rfm23_sendByte
 643              		.thumb
 644              		.thumb_func
 645              		.type	rfm23_sendByte, %function
 646              	rfm23_sendByte:
 647              		@ args = 0, pretend = 0, frame = 0
 648              		@ frame_needed = 0, uses_anonymous_args = 0
 649              		@ link register save eliminated.
 650 0000 0020     		movs	r0, #0
 651 0002 7047     		bx	lr
 652              		.size	rfm23_sendByte, .-rfm23_sendByte
 653              		.comm	__gnu_lto_v1,1,1
 654 0004 AFF30080 		.ident	"GCC: (GNU Tools for ARM Embedded Processors) 4.8.4 20140526 (release) [ARM/embedded-4_8-br
 654      AFF30080 
 654      AFF30080 
ARM GAS  /tmp/cc5Qo0yP.s 			page 42

