ARM GAS  /tmp/ccmHKIYO.s 			page 1


   1              		.syntax unified
   2              		.cpu cortex-m4
   3              		.eabi_attribute 27, 3
   4              		.eabi_attribute 28, 1
   5              		.fpu fpv4-sp-d16
   6              		.eabi_attribute 20, 1
   7              		.eabi_attribute 21, 1
   8              		.eabi_attribute 23, 3
   9              		.eabi_attribute 24, 1
  10              		.eabi_attribute 25, 1
  11              		.eabi_attribute 26, 1
  12              		.eabi_attribute 30, 2
  13              		.eabi_attribute 34, 1
  14              		.eabi_attribute 18, 4
  15              		.thumb
  16              		.file	"sdmmcsimple.c"
  17              		.section	.gnu.lto_.jmpfuncs.cc4600c20561ae58,"",%progbits
  18 0000 789C758F 		.ascii	"x\234u\217\277K\303@\024\307\337\313\265\306\246\326"
  18      BF4BC340 
  18      14C7DFCB 
  18      B5C6A6D6 
  19 0010 569D8A72 		.ascii	"V\235\212r\334\342&T\234\304\251\220\266[\024\222E\301"
  19      DCE22654 
  19      9CC4A990 
  19      B65B1492 
  19      45C1
  20 0022 456C8680 		.ascii	"El\206\200I \306\202t\011N\235\212c\021\374{\\\375{"
  20      4920C682 
  20      74094E9D 
  20      8A6311FC 
  20      7B5CFD7B 
  21 0036 9C7CF743 		.ascii	"\234|\367Ck\344\232\345\336\345\363y\357}\317\001\007"
  21      6BE49AE5 
  21      DEE5F379 
  21      EF7DCF01 
  21      07
  22 0047 6CDF0702 		.ascii	"l\337\007\002,\351t\201Q\305\030\2253:\001p&159\327"
  22      2CE97481 
  22      51C51895 
  22      333A0170 
  22      26313539 
  23 005c 98A0AC91 		.ascii	"\230\240\254\221n\314\225\177\346\360U\255\252^\202"
  23      6ECC957F 
  23      E6F055AD 
  23      AA5E82
  24 006b C801DFAB 		.ascii	"\310\001\337\253\3250A=\275\006\031\207C\015\033\240"
  24      D530413D 
  24      BD061987 
  24      430D1BA0 
  25 007b FBEBBCC9 		.ascii	"\373\353\274\311\341\\\363-\305\231B\013\211\334\024"
  25      E15CF32D 
  25      C599420B 
  25      89DC14
  26 008a F5BC5F79 		.ascii	"\365\274_y\233\303\215\226[\232\310T\036\250\250k\253"
  26      9BC38D96 
  26      5B9AC854 
  26      1EA8A86B 
ARM GAS  /tmp/ccmHKIYO.s 			page 2


  26      AB
  27 009b CDE1565B 		.ascii	"\315\341V[;\346}4\007\225\333\371\354\376\333\277\313"
  27      3BE67D34 
  27      0795DBF9 
  27      ECFEDBBF 
  27      CB
  28 00ac 61AEE56E 		.ascii	"a\256\345n-\274J\320K\321<\232r\311\376\275\212@\303"
  28      2DBC4AD0 
  28      4BD13C9A 
  28      72C9FEBD 
  28      8A40C3
  29 00bf 2CEE0C4D 		.ascii	",\356\014M\261\377\322\264\013\025\376\030o\033\014"
  29      B1FFD2B4 
  29      0B15FE18 
  29      6F1B0C
  30 00ce 61135EAD 		.ascii	"a\023^\255#\304ZX\330B\364\001Z\350a\033\241\037\215"
  30      23C45A58 
  30      D842F401 
  30      5AE8611B 
  30      A11F8D
  31 00e1 0641E05F 		.ascii	"\006A\340_\\\346\"\032\011\377\256\230\212I\376\224"
  31      5CE6221A 
  31      09FFAE98 
  31      8A49FE94 
  32 00f1 4D3D3832 		.ascii	"M=82d\222<\304\"z~,\343T\004\204\312\230\240\330\004"
  32      64923CC4 
  32      227A7E2C 
  32      E3540484 
  32      CA98A0D8 
  33 0106 C5B828F2 		.ascii	"\305\270(\362\302\003g\000\3348\3430\274\012\205\237"
  33      C2036700 
  33      DC38E330 
  33      BC0A859F 
  34 0116 67597C5F 		.ascii	"gY|_\236\320\355\370\364\214F\034\030\374w\3477\323"
  34      9ED0EDF8 
  34      F48C461C 
  34      18FC77E7 
  34      37D3
  35 0128 E9775C   		.ascii	"\351w\\"
  36              		.text
  37              		.section	.gnu.lto_.inline.cc4600c20561ae58,"",%progbits
  38 0000 789C8D91 		.ascii	"x\234\215\221\275\015\3020\020\205\337\235M\034\022"
  38      BD0DC230 
  38      1085DF9D 
  38      4D1C12
  39 000f 4041B448 		.ascii	"@A\264H\320Q\263\000b\202\324\224P\021\366\240\240\314"
  39      D051B300 
  39      6282D494 
  39      5011F6A0 
  39      A0CC
  40 0021 08E9E998 		.ascii	"\010\351\351\230\200)\230\201\0021\003\3473I\020\002"
  40      80299881 
  40      023103E7 
  40      33491002 
  41 0031 842DDDD9 		.ascii	"\204-\335\331\317\337=\3771\030\237ZE!;\330t\014\205"
  41      CFDF3DFF 
  41      31189F5A 
ARM GAS  /tmp/ccmHKIYO.s 			page 3


  41      45213BD8 
  41      740C85
  42 0044 A26AD2B0 		.ascii	"\242j\322\260\204\316\0000e\356\273\351)@\210\035\201"
  42      84CE0030 
  42      65EEBBE9 
  42      2940881D 
  42      81
  43 0055 93326F50 		.ascii	"\2232oP\206\213D\212\317\213F2\270\340H\"\316o'\306"
  43      868B448A 
  43      CF8B4632 
  43      B8E04822 
  43      CE6F27C6 
  44 0069 F0BE09AA 		.ascii	"\360\276\011\252\267\220\302:s*~Og\231\352f\202\331"
  44      B790C23A 
  44      732A7E4F 
  44      6799EA66 
  44      82D9
  45 007b BE6E8AB0 		.ascii	"\276n\212\260\"\200r\337\252\225\256\253~\344\256?\245"
  45      228072DF 
  45      AA95AEAB 
  45      7EE4AE3F 
  45      A5
  46 008c 45B1A21D 		.ascii	"E\261\242\035\215DZc\333\016\251\211\210\352G\240\253"
  46      8D445A63 
  46      DB0EA989 
  46      88EA47A0 
  46      AB
  47 009d CB189DC3 		.ascii	"\313\030\235\303,\003\355\335\324rH\376\"\311\233W\321"
  47      2C03EDDD 
  47      D47248FE 
  47      22C99B57 
  47      D1
  48 00ae 7A15EA12 		.ascii	"z\025\352\022\342\362\037\257\024\326\310Ki\225}\341"
  48      E2F21FAF 
  48      14D6C84B 
  48      69957DE1 
  49 00be 6D88FA11 		.ascii	"m\210\372\021\017 a)\210"
  49      0F206129 
  49      88
  50              		.text
  51              		.section	.gnu.lto_.pureconst.cc4600c20561ae58,"",%progbits
  52 0000 789C6362 		.ascii	"x\234cb`b\340g\200\000v\006\011F)&)f)NV.VnV\000\007"
  52      6062E067 
  52      80007606 
  52      09462926 
  52      2966294E 
  53 001b 1400B4   		.ascii	"\024\000\264"
  54              		.text
  55              		.section	.gnu.lto_chprintf.cc4600c20561ae58,"",%progbits
  56 0000 789C8550 		.ascii	"x\234\205P\315J\002Q\024>\337\0355uc\333v\342\0034\213"
  56      CD4A0251 
  56      143EDF1D 
  56      357563DB 
  56      76E20334 
  57 0015 22E80D7A 		.ascii	"\"\350\015z\000\203Z\3058\216z\011\035\321Q\260\026"
  57      00835AC5 
  57      388E7A09 
ARM GAS  /tmp/ccmHKIYO.s 			page 4


  57      1DD151B0 
  57      16
  58 0026 5EC1C245 		.ascii	"^\301\302E\013ig\021)\321:\244\027\030\202\332DI\273"
  58      0B696711 
  58      29D13AA4 
  58      171882DA 
  58      4449BB
  59 0039 162D2497 		.ascii	"\026-$\227\265h\321*\202\351\336\031\024\372\201\016"
  59      B568D12A 
  59      82E9DE19 
  59      14FA810E 
  60 0049 DC7B7EBE 		.ascii	"\334{~\276s\276\363\303\210\321OY\220o\010\2425\251"
  60      73BEF3C3 
  60      88D14F59 
  60      906F08A2 
  60      35A9
  61 005b A11158F7 		.ascii	"\241\021X\367\236\250\025e\2002\010\324dhnB\245\262"
  61      9EA81565 
  61      803208D4 
  61      64686E42 
  61      A5B2
  62 006d 140D84DB 		.ascii	"\024\015\204\333\035_O\036\321\023n\273/>=\017\340\220"
  62      1D5F4F1E 
  62      D1136EBB 
  62      2F3E3D0F 
  62      E090
  63 007f B42B2013 		.ascii	"\264+ \023\264!\035$}\305B\337\373\250Z\321uOon!\016"
  63      B4211D24 
  63      7DC542DF 
  63      FBA85AD1 
  63      754F6F6E 
  64 0095 45EBCDF3 		.ascii	"E\353\315\363\022\034\032\243\325\377\012/\230\373\354"
  64      121C1AA3 
  64      D5FF0A2F 
  64      98FBEC
  65 00a4 794FC3F7 		.ascii	"yO\303\367\203W\364XLC\021\024\222\037\"d\340\014)\225"
  65      8357F458 
  65      4C431114 
  65      921F2264 
  65      E00C2995 
  66 00b8 13A6B624 		.ascii	"\023\246\266$O\032\030H\177\0325\375\241\323\362W\233"
  66      4F1A1848 
  66      7F1A35FD 
  66      A1D3F257 
  66      9B
  67 00c9 AC8329AD 		.ascii	"\254\203)\255\215ho\3343\015\234#,\321]\372\020\035"
  67      8D686FDC 
  67      330D9C23 
  67      2CD15DFA 
  67      101D
  68 00db 31CF1132 		.ascii	"1\317\0212\341\247\313\310\016Gx\312\344g\251\2514\""
  68      E1A7CBC8 
  68      0E4778CA 
  68      E467A9A9 
  68      3422
  69 00ed 2E3BD288 		.ascii	".;\322\210\366\307G\223x\200\344\021\231\021\314\231"
  69      F6C74793 
ARM GAS  /tmp/ccmHKIYO.s 			page 5


  69      7880E411 
  69      9911CC99 
  70 00fd 088E9B87 		.ascii	"\010\216\233\207\226G( \340\210\252\222\366\370\370"
  70      96472820 
  70      E088AA92 
  70      F6F8F8
  71 010c 77C798A9 		.ascii	"w\307\230\251H\377\356\310\021'\272\243\253\027\026"
  71      48FFEEC8 
  71      1127BAA3 
  71      AB1716
  72 011b 04027099 		.ascii	"\004\002p\231.EG\235[\312\003\265\372'\332l\214\340"
  72      2E45479D 
  72      5BCA03B5 
  72      FA27DA6C 
  72      8CE0
  73 012d 5469B983 		.ascii	"Ti\271\203\334Q\315\261\244\027\354\242\245\233v\266"
  73      DC51CDB1 
  73      A417ECA2 
  73      A59B76B6 
  74 013d A167ADBA 		.ascii	"\241g\255\272n\026x\206\333U\335\251\324J\333\2724\352"
  74      6E167886 
  74      DB55DDA9 
  74      D44ADBBA 
  74      34EA
  75 014f 4685DBB5 		.ascii	"F\205\333\265\252\004\312\025^rr\213\005bF9\221\263"
  75      AA04CA15 
  75      5E72728B 
  75      05624639 
  75      91B3
  76 0161 2B45C371 		.ascii	"+E\303q\254\354V\246\341X\325/\251H\201#"
  76      ACEC56A6 
  76      E158D52F 
  76      A9488123 
  77              		.text
  78              		.section	.gnu.lto_sd_is_card_inserted.cc4600c20561ae58,"",%progbits
  79 0000 789C5D50 		.ascii	"x\234]PKJ\003A\020}\257\253\333\210\004\365\000\"\356"
  79      4B4A0341 
  79      107DAFAB 
  79      DB8804F5 
  79      0022EE
  80 0013 05035EC4 		.ascii	"\005\003^\304M\002\272\324Q\302\200\003B\016\220\016"
  80      4D02BAD4 
  80      51C28003 
  80      420E900E 
  81 0023 8EE07296 		.ascii	"\216\340r\226\242\"\270\025I\016\240\013q\345&\202\220"
  81      A222B815 
  81      490EA00B 
  81      71E52682 
  81      90
  82 0034 8DC18507 		.ascii	"\215\301\205\007\360\016\261\252\207\004\261\241_\025"
  82      F00EB1AA 
  82      8704B1A1 
  82      5F15
  83 0042 F55E7D1D 		.ascii	"\365^}\035\034\376\277]\375\033\004\326\3252\200\256"
  83      1CFEBF5D 
  83      FD1B04D6 
  83      D53280AE 
ARM GAS  /tmp/ccmHKIYO.s 			page 6


  84 0052 7A0706CB 		.ascii	"z\007\006\313\316\371\347M\304\025\231\264\020\233B"
  84      CEF9E74D 
  84      C41599B4 
  84      109B42
  85 0061 5F873D69 		.ascii	"_\207=i\016\210\276\023\317\376\001S\221\221{\371\236"
  85      0E88BE13 
  85      CFFE0153 
  85      91917BF9 
  85      9E
  86 0072 CD865F17 		.ascii	"\315\206_\027\323\306\022\221\023\242@o\020\014T\022"
  86      D3C61291 
  86      13A2406F 
  86      100C5412 
  87 0082 50C6586D 		.ascii	"P\306Xm\001YJi+Z\245\016\235Y\031\343uzu\327<\344\275"
  87      01594A69 
  87      2B5AA50E 
  87      9D5919E3 
  87      757A75D7 
  88 0099 667429DB 		.ascii	"ft)\333x\210%s\272\033\\\253\221}\005\037\253\313\350"
  88      78882573 
  88      BA1B5CAB 
  88      917D051F 
  88      ABCBE8
  89 00ac 91DCD4F6 		.ascii	"\221\334\324\366\210\363-\3068\037\312<\331wk}h\324"
  89      88F32DC6 
  89      381FCA3C 
  89      D9776B7D 
  89      68D4
  90 00be CCD38209 		.ascii	"\314\323\202\011J\032\223&zC\3713X[P)\376\3672m\012"
  90      4A1A9326 
  90      7A43F933 
  90      585B5029 
  90      FEF7326D 
  91 00d3 262DE968 		.ascii	"&-\351h3\233\360C\327\207\012\223\346\0234\275\336\301"
  91      339BF043 
  91      D7870A93 
  91      E61334BD 
  91      DEC1
  92 00e5 DDEE250F 		.ascii	"\335\356%\017\220\307\021-\213&\267C\257\366\216\213"
  92      90C7112D 
  92      8B26B743 
  92      AFF68E8B 
  93 00f5 22EBE5C5 		.ascii	"\"\353\345\305\331\351\311N\206_\306\036E\006"
  93      D9E9C94E 
  93      865FC61E 
  93      4506
  94              		.text
  95              		.section	.gnu.lto_sd_is_write_protected.cc4600c20561ae58,"",%progbits
  96 0000 789C6362 		.ascii	"x\234cb`b@\007\222@\374\015\210\005\200\230\221\231"
  96      60624007 
  96      9240FC0D 
  96      88058098 
  96      9199
  97 0012 819169C2 		.ascii	"\201\221i\3029\006\206F\016&FF\020\203\201\221\241\236"
  97      39068646 
  97      0E264646 
  97      10838191 
ARM GAS  /tmp/ccmHKIYO.s 			page 7


  97      A19E
  98 0024 89B13E92 		.ascii	"\211\261>\222\021\254v=\323\201\007\377\377\257\233"
  98      11AC763D 
  98      D38107FF 
  98      FFAF9B
  99 0033 726C412F 		.ascii	"rlA/##\033\023C&#\0033\210`\001\021\254@\002\244\214"
  99      23231B13 
  99      43262303 
  99      33886001 
  99      11AC4002 
 100 0049 95A1A5A1 		.ascii	"\225\241\245\241a\202\002\003C2XS\010\220\004\231\024"
 100      61820203 
 100      43325853 
 100      08900499 
 100      14
 101 005a CAC804A2 		.ascii	"\312\310\004\242\231\3172\034\2725\343\361\003\306D"
 101      99CF321C 
 101      BA35E3F1 
 101      03C644
 102 0069 C6858CAC 		.ascii	"\306\205\214\254\014\351\214L\332\014\253\032Z\0303"
 102      0CE98C4C 
 102      DA0CAB1A 
 102      5A1833
 103 0078 19996633 		.ascii	"\031\231f3\314\002R\314\021@\202\245\241\241\243\201"
 103      CC0252CC 
 103      114082A5 
 103      A1A1A381 
 104 0088 8501CC04 		.ascii	"\205\001\314\004\333\234\304\010s\357Y\206\346u\314"
 104      DB9CC408 
 104      73EF5986 
 104      E675CC
 105 0097 30CDCC40 		.ascii	"0\315\314@\375 E\254\234\020\231\335p\031\226t\210I"
 105      FD2045AC 
 105      9C1099DD 
 105      70199674 
 105      8849
 106 00a9 0C8C1099 		.ascii	"\014\214\020\231\033\315b0)V\240,X\012\004.2\300]\302"
 106      1BCD6230 
 106      2956A02C 
 106      580A042E 
 106      32C05DC2 
 107 00bd 0AB12004 		.ascii	"\012\261 \004\350\013\240CA!\305W\234\222\233\233\\"
 107      E80BA043 
 107      4121C557 
 107      9C929B9B 
 107      5C
 108 00ce 9C995B90 		.ascii	"\234\231[\220\223\252\227\314\000\000\376\035;="
 108      93AA97CC 
 108      0000FE1D 
 108      3B3D
 109              		.text
 110              		.section	.gnu.lto_sdmmcInitialize.cc4600c20561ae58,"",%progbits
 111 0000 789CAD56 		.ascii	"x\234\255V[l\024e\024>gfw\366JKK\265T\350t\254]WZz\345"
 111      5B6C1465 
 111      143E6766 
 111      77F64A4B 
 111      4BB554E8 
ARM GAS  /tmp/ccmHKIYO.s 			page 8


 112 001b C96B4810 		.ascii	"\311kH\020\336\020)4\221\2501\353v\335l\322mewy0>0\205"
 112      DE102934 
 112      91A831EB 
 112      76DD6CD2 
 112      6D657779 
 113 0033 D5948BB0 		.ascii	"\325\224\213\260\242\350\202B@BL\212\201\207\032\334"
 113      A2E88242 
 113      40424C8A 
 113      81871ADC 
 114 0043 4413B744 		.ascii	"D\023\267Db\233F\260\017\306\226\204\244\361\305\020"
 114      629B46B0 
 114      0FC69684 
 114      A4F1C510 
 115 0053 89916842 		.ascii	"\211\221hBC\224z\376\313\314^ZZH\330d\377\313\371\317"
 115      43947AFE 
 115      CBCC5E5A 
 115      5A48D864 
 115      FFCBF9CF 
 116 0067 77EEFFF9 		.ascii	"w\356\377\371G\001\005\312\177\373\350\177\305\007p"
 116      470105CA 
 116      7FFBE87F 
 116      C50770
 117 0076 9166F403 		.ascii	"\221f\364\003*\231+\000\203nEq\014\005\301\364\252l"
 117      2A992B00 
 117      836E4571 
 117      0C05C1F4 
 117      AA6C
 118 0088 F4ABE810 		.ascii	"\364\253\350\020d\207\3424'\200\350\336\214Jt\247\242"
 118      6487E234 
 118      2780E8DE 
 118      8C4A74A7 
 118      A2
 119 0099 FD58493B 		.ascii	"\375XI;\327\370\013\264\323\320'\270\\\212\233\035{"
 119      D7F80BB4 
 119      D3D027B8 
 119      5C8A9B1D 
 119      7B
 120 00aa 3D9CD7EF 		.ascii	"=\234\327\357\266\350\036k\341\265\026>D\266\000\204"
 120      B6E81E6B 
 120      E1B5163E 
 120      44B60084 
 121 00ba DD8AEA70 		.ascii	"\335\212\352pj.\267\307\353\303\335;\220\231\2466\302"
 121      6A2EB7C7 
 121      EBC3DD3B 
 121      9099A636 
 121      C2
 122 00cb 69D33C32 		.ascii	"i\323<2s\371\334$\036\3738\237>e\376;7\207\030Cr\243"
 122      73F9DC24 
 122      1EFB389F 
 122      3E65FE3B 
 122      37871843 
 123 00e1 0A218CF0 		.ascii	"\012!\214\360\012m\320\340\223\342(\365\213c3\371\243"
 123      0A6DD0E0 
 123      93E228F5 
 123      8B6333F9 
 123      A3
 124 00f2 FB0FD59A 		.ascii	"\373\017\325\2323f\306\274K\320\030\252\012\350\005"
ARM GAS  /tmp/ccmHKIYO.s 			page 9


 124      3366C6BC 
 124      4BD018AA 
 124      0AE805
 125 0101 A45B2071 		.ascii	"\244[ q\001\344\221\374\247\373\017\027#\035\012\004"
 125      01E491FC 
 125      A7FB0F17 
 125      231D0A04 
 126 0111 96425E50 		.ascii	"\226B^P\3623ss\007\277O\377\326\266\016\201\26490\216"
 126      F2337373 
 126      07BF4FFF 
 126      D6B60E81 
 126      B439308E 
 127 0125 A0D1802E 		.ascii	"\240\321\200.\032\224j\2429k\330P\013!<\215\215\260"
 127      1A946AA2 
 127      396BD850 
 127      0B213C8D 
 127      8DB0
 128 0137 8A6DEA69 		.ascii	"\212m\352i\320t\242\234!J\203<1\210\350j\242\315Y\332"
 128      D074A29C 
 128      214A833C 
 128      3188E86A 
 128      A2CD59DA 
 129 014b 042431C8 		.ascii	"\004$1\310\330\233\345\246U\316\355Dtw\260\241\223\015"
 129      D89BE5A6 
 129      55CEED44 
 129      7477B0A1 
 129      930D
 130 015d 5D4C1A19 		.ascii	"]L\032\031\343\2044\005\300\020R\205\030`\366\323o;"
 130      E3843405 
 130      C0105285 
 130      1860F6D3 
 130      6F3B
 131 016f 8D2CEC3D 		.ascii	"\215,\354=\250\260Y\375\011\366L\344\356\346\225\020"
 131      A8B059FD 
 131      09F64CE4 
 131      EEE69510 
 132 017f 7E894EF8 		.ascii	"~\211N\370\014\216\017\232\346r\012\363\273p\307\034"
 132      0C8E0F9A 
 132      E6720AF3 
 132      BB70C71C 
 133 018f 622B4F1C 		.ascii	"b+O\034U\3021\237=\334\323(R\270\031l\366\356_(`-0l"
 133      55C2319F 
 133      3DDCD328 
 133      52B8196C 
 133      F6EE5F28 
 134 01a7 D2AF922C 		.ascii	"\322\257\222,$\011\304\351\215\242\306\020>\216xS\306"
 134      2409C4E9 
 134      8DA2C610 
 134      3E8E7853 
 134      C6
 135 01b8 2A8A2E8E 		.ascii	"*\212.\216\274\263\367\357\303z9\322\2770R@\2055\346"
 135      BCB3F7EF 
 135      C37A39D2 
 135      BF305240 
 135      8535E6
 136 01cb 56628BA3 		.ascii	"Vb\213\243\3106\311\311\345\346\306\224r9\313\026\226"
 136      C836C9C9 
ARM GAS  /tmp/ccmHKIYO.s 			page 10


 136      E5E6C694 
 136      7239CB16 
 136      96
 137 01dc 23AA9F51 		.ascii	"#\252\237Q\226Y\350\251\005\320\332\302h\325Fk\022="
 137      9659E8A9 
 137      05D0DAC2 
 137      68D5466B 
 137      123D
 138 01ee 91FD6214 		.ascii	"\221\375b\024\313\202\346\263\203V\021'\272\000TH\327"
 138      CB82E6B3 
 138      83561127 
 138      BA005448 
 138      D7
 139 01ff 097815DE 		.ascii	"\011x\025\336\237\371\340\254DA!\304\225a\351&\343_"
 139      9FF9E0AC 
 139      444121C4 
 139      9561E926 
 139      E35F
 140 0211 6E0E0D99 		.ascii	"n\016\015\231\016\276t\257\347SU\035\245\265\232\303"
 140      0EBE74AF 
 140      E753551D 
 140      A5B59AC3 
 141 0221 4F1D722E 		.ascii	"O\035r.\205\316\330hS\024l\225Q\200\037^\022n\332pq"
 141      85CED868 
 141      53146C95 
 141      51801F5E 
 141      126EDA70 
 142 0236 B7AA8E3B 		.ascii	"\267\252\216;\013\360\354\003\300-\355\305\370c\017"
 142      0BF0EC03 
 142      C02DEDC5 
 142      F8630F
 143 0245 8097BEEF 		.ascii	"\200\227\276\357\221p\012\371\265\354\360\244LX\024"
 143      91700AF9 
 143      B5ECF0A4 
 143      4C5814
 144 0254 AB5BA059 		.ascii	"\253[\240Y\224\033\305\336|\365^%\307\364\246\363\315"
 144      941BC5DE 
 144      7CF55E25 
 144      C7F4A6F3 
 144      CD
 145 0265 F3D4AE08 		.ascii	"\363\324\256\010\313\212 I1\254\021\362s\3037\320\222"
 145      CB8A2049 
 145      31AC11F2 
 145      73C337D0 
 145      92
 146 0276 5F53227F 		.ascii	"_S\"\177\353b\362\337\313\327\317\223\377HX\326\014"
 146      EB62F2DF 
 146      CBD7CF93 
 146      FF4858D6 
 146      0C
 147 0287 4992C5BB 		.ascii	"I\222\305\2733\206\217\306Q\223\2541\254eJ/]\313\236"
 147      33868FC6 
 147      5193AC31 
 147      AC654A2F 
 147      5DCB9E
 148 029a F4CBEB6A 		.ascii	"\364\313\353j\335[s\344\350\263\000\202/,\252=\212\355"
 148      DD5B73E4 
ARM GAS  /tmp/ccmHKIYO.s 			page 11


 148      E8B30082 
 148      2F2CAA3D 
 148      8AED
 149 02ac AC46D383 		.ascii	"\254F\323\203\371[\241\030\256dVe\230\232\272\262\234"
 149      F95BA118 
 149      AE645665 
 149      989ABAB2 
 149      9C
 150 02bd 2F97C639 		.ascii	"/\227\3069\030\376\0227\211\224\354=\257\206p\224\273"
 150      18FE1237 
 150      8994EC3D 
 150      AF867094 
 150      BB
 151 02ce D5419218 		.ascii	"\325A\222\030\243\313%N\276\265O:\351\220\007\236y6"
 151      A3CB254E 
 151      BEB54F3A 
 151      E990079E 
 151      7936
 152 02e0 06E99B83 		.ascii	"\006\351\233\203\225\366\021\247\027w\273\355\344\335"
 152      95F611A7 
 152      1777BBED 
 152      E4DD
 153 02ee 5050ED21 		.ascii	"PP\355!E\254\2110\366\321)\257\025\273.\373\242\210"
 153      45AC8930 
 153      F6D129AF 
 153      15BB2EFB 
 153      A288
 154 0300 DF34080A 		.ascii	"\3374\010\0125\357\317\267\3103\365\253\013\310\272"
 154      35EFCFB7 
 154      C833F5AB 
 154      0BC8BA
 155 030f 9013E8A1 		.ascii	"\220\023\350\241`]h|\212Z\275%\241\366~\032\021\213"
 155      605D687C 
 155      8A5ABD25 
 155      A1F67E1A 
 155      118B
 156 0321 FDFC827A 		.ascii	"\375\374\202z,,\334fR\0301k\232\223\004Y\245\303\232"
 156      2C2CDC66 
 156      5218316B 
 156      9A930459 
 156      A5C39A
 157 0334 1366767D 		.ascii	"\023fv}\014W\203\235\202z\236\202\334\354\271\252B\037"
 157      0C57839D 
 157      827A9E82 
 157      DCECB9AA 
 157      421F
 158 0346 4813B36E 		.ascii	"H\023\263n-\032\254\205!\372B]\331\015\265\342\355\224"
 158      2D1AAC85 
 158      21FA425D 
 158      D90DB5E2 
 158      ED94
 159 0358 B3266797 		.ascii	"\263&g\227]\322\217\257\0275x*7\337\324\306\260\004"
 159      5DD28FAF 
 159      1735782A 
 159      37DFD4C6 
 159      B004
 160 036a F0F8FE5C 		.ascii	"\360\370\376\\I\026=!*q\352\374\015\273\322W\225T\342"
ARM GAS  /tmp/ccmHKIYO.s 			page 12


 160      49163D21 
 160      2A71EAFC 
 160      0DBBD257 
 160      9554E2
 161 037d CEC52BBD 		.ascii	"\316\305+\275\325B\325\333Z\232\302\322\034\022\025"
 161      D542D5DB 
 161      5A9AC2D2 
 161      1C1215
 162 038c C30057F0 		.ascii	"\303\000W\360\307\336\267,F=\312\3020\006?\374>z{\277"
 162      C7DEB72C 
 162      463DCAC2 
 162      30063FFC 
 162      3E7A7BBF 
 163 03a0 AD54670A 		.ascii	"\255Tg\012\236,~\343z\310\326\333\025<S\271\013\267"
 163      9E2C7EE3 
 163      7AC8D6DB 
 163      153C53B9 
 163      0BB7
 164 03b2 EC4C35DC 		.ascii	"\354L5\334_\246\010\366\247ja\014\256\362*h\213%\257"
 164      5FA608F6 
 164      A76A610C 
 164      AEF22A68 
 164      8B25AF
 165 03c5 41266F9A 		.ascii	"A&o\232\244\004ux^$\357)+y$\205\347O\230\346\202}\317"
 165      A4047578 
 165      5E24EF29 
 165      2B792485 
 165      E74F98E6 
 166 03dc A9FC6539 		.ascii	"\251\374e9\363I\351\313\342Y\342E(\274,\313\3422N\254"
 166      F349E9CB 
 166      E259E245 
 166      28BC2CCB 
 166      E2324EAC 
 167 03f0 4D8F5FB6 		.ascii	"M\217_\266=l\262\255[\023\226\267@P\362\037\036\250"
 167      3D6CB2AD 
 167      5B1396B7 
 167      4050F21F 
 167      1EA8
 168 0402 B161C2DA 		.ascii	"\261a\302\332\374G\023z\014\233uxM\230\333b\231\313"
 168      FC47137A 
 168      0C9B7578 
 168      4D98DB62 
 168      99CB
 169 0414 14AF6525 		.ascii	"\024\257e%\327*.\327\350\321\003v\254\233\330a\311'"
 169      D72A2ED7 
 169      E8D10376 
 169      AC9BD861 
 169      C927
 170 0426 4C0FE9F9 		.ascii	"L\017\351\371Z\341\261\316\216\024b\035x(\267\"P\024"
 170      5AE1B1CE 
 170      8E14621D 
 170      7828B722 
 170      5014
 171 0438 D8361DDE 		.ascii	"\3306\035\336\020\226\266\227\335\012\352\206#\323\266"
 171      1096B697 
 171      DD0AEA86 
 171      23D3B6
ARM GAS  /tmp/ccmHKIYO.s 			page 13


 172 0447 89C1921A 		.ascii	"\211\301\222\032|}\361\032l\231\247\235J\320\372v\010"
 172      7C7DF11A 
 172      6C99A79D 
 172      4AD0FA76 
 172      08
 173 0458 5A25989B 		.ascii	"Z%\230\233\032\231,}~;\357\367\361\026!\362\300/O\213"
 173      1A992C7D 
 173      7E3BEFF7 
 173      F11621F2 
 173      C02F4F8B 
 174 046c C671B110 		.ascii	"\306q\261\020\242\346\207\022\242\346\242\020u\350`"
 174      A2E68712 
 174      A2E6A210 
 174      75E860
 175 047b A2885167 		.ascii	"\242\210Qgy\214r\263\266\352B\271-\375\011\201\266\017"
 175      798C72B3 
 175      B6EA42B9 
 175      2DFD0981 
 175      B60F
 176 048d 5EC8A8DC 		.ascii	"^\310\250\334\207\331o\012\315\257\365\241\370\320Z"
 176      87D96F0A 
 176      CDAFF5A1 
 176      F8D05A
 177 049c D4FCBA74 		.ascii	"\324\374\272t8!}XW\342\203\260\302\307\233\370$}\223"
 177      38217D58 
 177      57E283B0 
 177      C2C79BF8 
 177      247D93
 178 04af 3320B76E 		.ascii	"3 \267n\032\220\232\200v\363\327\225L\245J\337\301\342"
 178      1A909A80 
 178      76F3D795 
 178      4CA54ADF 
 178      C1E2
 179 04c1 87BBDDFF 		.ascii	"\207\273\335\377\354\340\244\377\012$\357\301\353nN"
 179      ECE0A4FF 
 179      0A24EFC1 
 179      EB6E4E
 180 04d0 03F07C77 		.ascii	"\003\360|w\275\206=\017\310D\262\264U${\343\361p2\026"
 180      BD863D0F 
 180      C844B2B4 
 180      55247BE3 
 180      F1703216 
 181 04e4 7FBB2FD2 		.ascii	"\177\273/\322\026\006\1772\222\210\205\372^\036H\244"
 181      16067F32 
 181      928885FA 
 181      5E1E48A4 
 182 04f4 DA3AB464 		.ascii	"\332:\264d*\224\332\225T#\211\304\212m/\266o\336\274"
 182      2A94DA95 
 182      542389C4 
 182      8A6D2FB6 
 182      6FDEBC
 183 0507 E1990DA1 		.ascii	"\341\231\015\241D\257\261i`W\177\257\027tI\333\330\335"
 183      44AFB169 
 183      60577FAF 
 183      177449DB 
 183      D8DD
 184 0519 BDA5DBD8 		.ascii	"\275\245\333\3300\320\337\037\011\247\326\322.\320\321"
ARM GAS  /tmp/ccmHKIYO.s 			page 14


 184      30D0DF1F 
 184      09A7D6D2 
 184      2ED0D1
 185 0528 45C74A3B 		.ascii	"E\307J;\030\222cS\254/bl{'\231\212\304\215\315\004N"
 185      18926353 
 185      AC2F626C 
 185      7B27998A 
 185      C48DCD04 
 186 053d 191B1389 		.ascii	"\031\033\023\211\201\204\027V\337\213!B\002\352\344"
 186      81841756 
 186      DF8B2142 
 186      02EAE4
 187 054c E14B0324 		.ascii	"\341K\003$\307(\326\374?-\365\377\304"
 187      C728D6FC 
 187      3F2DF5FF 
 187      C4
 188              		.text
 189              		.section	.gnu.lto_sdmmGetMMCDriver.cc4600c20561ae58,"",%progbits
 190 0000 789C6D50 		.ascii	"x\234mP=KCA\020\234\331\275\247\"\242\021l\354R\212"
 190      3D4B4341 
 190      109CD9BD 
 190      A722A211 
 190      6CEC528A 
 191 0014 813416FE 		.ascii	"\2014\026\376\021\003Z\352\213\204\007y\020\310\017"
 191      11035AEA 
 191      8B840779 
 191      10C80F
 192 0023 C8455258 		.ascii	"\310ERX\246\326F;\261\320\326.V\"\004\205t\321\306\224"
 192      A6D6463B 
 192      B1D0D62E 
 192      56220485 
 192      74D1C694 
 193 0037 29FC0129 		.ascii	")\374\001)\204d\357$\242\222\205\273\335\275\233\231"
 193      8464EF24 
 193      A29285BB 
 193      DDBD9B99 
 194 0047 FD1008FE 		.ascii	"\375\020\010\376\333\236\235m\002\005\363L@\351\276"
 194      DB9E9D6D 
 194      0205F34C 
 194      40E9BE
 195 0056 02ED1511 		.ascii	"\002\355\025\021\275y\002\374\252\033/\303\257)\335"
 195      BD7902FC 
 195      AA1B2FC3 
 195      AF29DD
 196 0065 F7BB2343 		.ascii	"\367\273#C\000\242%\352\330:bT\271\227\307\321tz7\351"
 196      00A225EA 
 196      D83A6254 
 196      B997C7D1 
 196      747A37E9 
 197 0079 5F9D5397 		.ascii	"_\235S\227\210\214P\346\204\263\310T\263\210J\320\361"
 197      888C50E6 
 197      84B3C854 
 197      B3884AD0 
 197      F1
 198 008a BE5B04D2 		.ascii	"\276[\004\322\230\036\330\035\264*\224\340\365\005g"
 198      981ED81D 
 198      B42A94E0 
ARM GAS  /tmp/ccmHKIYO.s 			page 15


 198      F50567
 199 0099 EF0FBD01 		.ascii	"\357\017\275\001\217ym\224\032]\011\273\306\276\304"
 199      8F796D94 
 199      1A5D09BB 
 199      C6BEC4
 200 00a8 05334A8D 		.ascii	"\0053J\215zh^c\271\023\316\333\177F\347\263\275\361"
 200      7A685E63 
 200      B913CEDB 
 200      7F46E7B3 
 200      BDF1
 201 00ba 430910FE 		.ascii	"C\011\020\376\036\257b\014\033$\212\017{\233s`R\302"
 201      1EAF620C 
 201      1B248A0F 
 201      7B9B7360 
 201      52C2
 202 00cc AD37DBB7 		.ascii	"\2557\333\267\316\026\027\340\037\021\027;\034\330\002"
 202      CE1617E0 
 202      1F11173B 
 202      1CD802
 203 00db 60ECF8F7 		.ascii	"`\354\370\367\006\232\216\356\004\222\245\362\365\261"
 203      069A8EEE 
 203      0492A5F2 
 203      F5B1
 204 00e9 15666240 		.ascii	"\025fb@\2065\2577\253y\2366\263\274Q?-\247\230\001\255"
 204      8635AF37 
 204      AB799E36 
 204      B3BC513F 
 204      2DA79801 
 205 00fe 67456F   		.ascii	"gEo"
 206              		.text
 207              		.section	.gnu.lto_sdmmcGetFS.cc4600c20561ae58,"",%progbits
 208 0000 789C6D50 		.ascii	"x\234mP\273JCA\020=gf\257J\020\215`c\227R\014\330X\370"
 208      BB4A4341 
 208      103D6766 
 208      AF4A108D 
 208      60639752 
 209 0018 2306B434 		.ascii	"#\006\26447\022.\344B \037\220\215\344\003R\033\013"
 209      37122EE4 
 209      42201F90 
 209      8DE40352 
 209      1B0B
 210 002a EDC4422D 		.ascii	"\355\304B--,\254\304\306@\272h\225*X\330\371\001qv%"
 210      2D2CACC4 
 210      C640BA68 
 210      952A58D8 
 210      F9017176 
 211 003f 21060776 		.ascii	"!\006\007vgf\367\2343\017\201`\331\016\354\354\020("
 211      6766F79C 
 211      330F8160 
 211      D90EECEC 
 211      1028
 212 0051 9A67024A 		.ascii	"\232g\002Jo\000t\326D\364\346\005\360\005\367\271\012"
 212      6F0074D6 
 212      44F4E605 
 212      F005F7B9 
 212      0A
 213 0062 BFAE74BF 		.ascii	"\277\256t\277\357\216\014\001\210\266\250c\373\204Q"
ARM GAS  /tmp/ccmHKIYO.s 			page 16


 213      EF8E0C01 
 213      88B6A863 
 213      FB8451
 214 0071 E55E9EC7 		.ascii	"\345^\236\307\323\351\335\303\340\352\222\272Bd\204"
 214      D3E9DDC3 
 214      E0EA92BA 
 214      426484
 215 0080 32279C45 		.ascii	"2'\234E\246\232ET\202\256\367\275\022\220\306\364\310"
 215      A69A4554 
 215      82AEF7BD 
 215      1290C6F4 
 215      C8
 216 0091 EEA055A1 		.ascii	"\356\240U\241\004\257o8\377x\234\014y\312k\243\324\351"
 216      04AF6F38 
 216      FF789C0C 
 216      79CA6BA3 
 216      D4E9
 217 00a3 CAD83376 		.ascii	"\312\3303v\037\027\314(u\352\261y\215\345\252\234\265"
 217      1F17CC28 
 217      75EAB179 
 217      8DE5AA9C 
 217      B5
 218 00b4 FF8AEE57 		.ascii	"\377\212\356WgsN\011\020.\216W1\206\015\022\305G\223"
 218      67734E09 
 218      102E8E57 
 218      31860D12 
 218      C54793
 219 00c7 AD193029 		.ascii	"\255\0310)\343\326\233\035Zg\377\027\340\037\021\027"
 219      E3D69B1D 
 219      5A67FF17 
 219      E01F1117 
 220 00d7 3B1CDA02 		.ascii	";\034\332\002`\354\370\367\016\232\216\356\006\222\245"
 220      60ECF8F7 
 220      0E9A8EEE 
 220      0692A5
 221 00e6 F2F4BD1D 		.ascii	"\362\364\275\035fb@\2065o\264jy\236\266\262\274\331"
 221      66624086 
 221      356FB46A 
 221      799EB6B2 
 221      BCD9
 222 00f8 38DB4FF1 		.ascii	"8\333O\361\003\245\210E`"
 222      03A58845 
 222      60
 223              		.text
 224              		.section	.gnu.lto_sdmmcFSMounted.cc4600c20561ae58,"",%progbits
 225 0000 789C6362 		.ascii	"x\234cb`b@\007\222@<\003\210\005\200\230\221\231\201"
 225      60624007 
 225      92403C03 
 225      88058098 
 225      919981
 226 0013 9169C239 		.ascii	"\221i\3029\006\206F\016&FF\020\203\201\221\241\236\211"
 226      0686460E 
 226      26464610 
 226      838191A1 
 226      9E89
 227 0025 B13E9211 		.ascii	"\261>\222\021\254v=\323\201\007\377\377\257\273qn\301"
 227      AC763DD3 
ARM GAS  /tmp/ccmHKIYO.s 			page 17


 227      8107FFFF 
 227      AFBB716E 
 227      C1
 228 0036 3A466616 		.ascii	":Ff\026&\306\\F\006f\206L\260\034+CKC\303\004\005\006"
 228      26C65C46 
 228      0666864C 
 228      B01C2B43 
 228      4B43C304 
 229 004c 86643037 		.ascii	"\206d07\004H\202\364\20722\201h\346\263\014M\267v\274"
 229      044882F4 
 229      87323281 
 229      68E6B30C 
 229      4DB776BC 
 230 0060 564C645C 		.ascii	"VLd\\\310\310\312\220\316\310\254\315\260\252\001\010"
 230      C8C8CA90 
 230      CEC8ACCD 
 230      B0AA0108 
 231 0070 AC819A67 		.ascii	"\254\201\232g3\314b\314ddLgd\212\000\322\020\007&1\302"
 231      33CC62CC 
 231      64644C67 
 231      648A00D2 
 231      10072631 
 232 0085 9C7791A1 		.ascii	"\234w\221\241\361\000\013\\\033D,\204\221\021d(H)_q"
 232      F1000B5C 
 232      1B442C84 
 232      91116428 
 232      48295F71 
 233 0099 4A6E6E72 		.ascii	"JnnrqfnAN\252^2\003\000\371m*\335"
 233      71666E41 
 233      4EAA5E32 
 233      0300F96D 
 233      2ADD
 234              		.text
 235              		.section	.gnu.lto_.symbol_nodes.cc4600c20561ae58,"",%progbits
 236 0000 789C4DCC 		.ascii	"x\234M\314KR\302@\024\205\341\323\247\323\340\023\360"
 236      4B52C240 
 236      1485E1D3 
 236      A7D3E013 
 236      F0
 237 0011 3DD02A37 		.ascii	"=\320*7\340\246\\\311E\032!\212 \006\2153\007f\035N"
 237      E0A65CC9 
 237      451A218A 
 237      20068D33 
 237      07661D4E 
 238 0025 4CC6BA05 		.ascii	"L\306\272\005\225r\346\032\304t'e\247'_\375\367V_\202"
 238      9572E61A 
 238      C4742765 
 238      A7275FFD 
 238      F7565F82 
 239 0039 7851A81E 		.ascii	"xQ\250\036WJ\200\371\033 2\215\3179\246\250:\237b\305"
 239      574A80F9 
 239      1B20328D 
 239      CF39A6A8 
 239      3A9F62C5 
 240 004d 98C2465E 		.ascii	"\230\302F^QtH3 #\321fJ\015\201\271`\344jD\345\260D\011"
 240      51744833 
 240      2023D166 
ARM GAS  /tmp/ccmHKIYO.s 			page 18


 240      4A0D81B9 
 240      60E46A44 
 241 0065 AF2951E3 		.ascii	"\257)Q\343\300\204b\032yCi5\356\015i\334\327K\266J\324"
 241      C084621A 
 241      79436935 
 241      EE0D69DC 
 241      D74BB64A 
 242 007a 23A55D2D 		.ascii	"#\245]-\373}\245R\312Z\250\007\312z\250{\312F\250\005"
 242      FB7DA552 
 242      CA5AA807 
 242      CA7AA87B 
 242      CA46A805 
 243 008e 65335442 		.ascii	"e3TB\331\012uG\331\0165\247tB\335R\272\241f\224\336"
 243      D90A7547 
 243      D90E35A7 
 243      7442DD52 
 243      BAA16694 
 244 00a3 7F69F460 		.ascii	"\177i\364`?~K\273\310\274\035\344N}\204\374\263rYkG"
 244      3F7E4BBB 
 244      C8BC1DE4 
 244      4E7D84FC 
 244      B372596B 
 245 00b8 3FA7CEAC 		.ascii	"?\247\316\2546\367\036\302\216\235\007\310\275\300\363"
 245      36F71EC2 
 245      8E9D07C8 
 245      BDC0F3
 246 00c7 A428DDC7 		.ascii	"\244(\335\307\322\273\207lV\370\371\353\373\212Z\357"
 246      D2BB876C 
 246      56F8F9EB 
 246      FB8A5AEF 
 247 00d7 C226C589 		.ascii	"\302&\305\211\353\257\244\034\357 [\370\355 \375>\366"
 247      EBAFA41C 
 247      EF205BF8 
 247      ED20FD3E 
 247      F6
 248 00e8 D3F40C7F 		.ascii	"\323\364\014\177y\344|\017"
 248      79E47C0F 
 249              		.text
 250              		.section	.gnu.lto_.refs.cc4600c20561ae58,"",%progbits
 251 0000 789C25C5 		.ascii	"x\234%\305\301\015\000 \010\004\301c\001!Q\213\260\377"
 251      C10D0020 
 251      0804C163 
 251      0121518B 
 251      B0FF
 252 0012 268D713E 		.ascii	"&\215q>\203\320\3217\335\202\264A)\0244\375Vx\221,\266"
 252      83D0D137 
 252      DD82B441 
 252      291434FD 
 252      5678912C 
 253 0027 2E0E4800 		.ascii	".\016H\000\246"
 253      A6
 254              		.text
 255              		.section	.gnu.lto_.decls.cc4600c20561ae58,"",%progbits
 256 0000 789CBD7D 		.ascii	"x\234\275}\013t\024U\272nU\365+!\221\227\240\240(\355"
 256      0B741455 
 256      BA6E55F5 
 256      2B219197 
ARM GAS  /tmp/ccmHKIYO.s 			page 19


 256      A0A028ED 
 257 0014 9D99BB5C 		.ascii	"\235\231\273\\g\215\006\220q\2349\347\250\220\0070\002"
 257      678D0690 
 257      719C39E7 
 257      A8900730 
 257      02
 258 0025 C9EDC499 		.ascii	"\311\355\304\231q\235un\333$\035\350c^vw\020\357=kM"
 258      719D756E 
 258      DB241DE8 
 258      635E7677 
 258      10EF3D6B 
 259 003a 41E4A128 		.ascii	"A\344\241(Bx\204g\010/\001Q\0200\362\306\306A\010D "
 259      42788467 
 259      082F0151 
 259      1030F2C6 
 259      C6410844 
 260 004f 80088840 		.ascii	"\200\010\210@\004Q\001QBT0\010\271\377\376wU\367\256"
 260      04510151 
 260      42543008 
 260      B9FFFE77 
 260      55F7AE
 261 0062 4A55F7AE 		.ascii	"JU\367\256v\346\366Z{\327\356\335\265\277\375\377\377"
 261      76E6F65A 
 261      7BD7EEDD 
 261      B5BFFDFF 
 261      FF
 262 0073 FEF7BFFF 		.ascii	"\376\367\277\377\375\250jI\220\204\006\233 \264\223"
 262      FDA86A49 
 262      9084069B 
 262      20B493
 263 0082 CF744148 		.ascii	"\317tAH\353*\010)\202 <\016\241\007\004;\204%\020\226"
 263      EB2A0829 
 263      82203C0E 
 263      A107043B 
 263      84251096 
 264 0096 42580561 		.ascii	"BX\005a5\2045\020\336\202\260\026\302y\010_@\250\207"
 264      35843510 
 264      DE82B016 
 264      C279085F 
 264      40A887
 265 00a9 F02584AF 		.ascii	"\360%\204\257 \270 \\\204p\011\3027\020<\242 \374\207"
 265      20B8205C 
 265      847009C2 
 265      37103CA2 
 265      20FC87
 266 00bc 2408FF1B 		.ascii	"$\010\377\033\002\371t\203\340\203t\015\2046\010\267"
 266      02F97483 
 266      E083740D 
 266      843608B7 
 267 00cc 216C061A 		.ascii	"!l\006\032vB\330\015a?\204F\010'!|\012\3413\010=\200"
 267      7642D80D 
 267      613F8446 
 267      0827217C 
 267      0AE13308 
 268 00e2 90BB20DC 		.ascii	"\220\273 \334\003\241/\204_\331i=\277\205\353\303\020"
 268      03A12F84 
 268      5FD9693D 
ARM GAS  /tmp/ccmHKIYO.s 			page 20


 268      BF85EBC3 
 268      10
 269 00f3 FE1DC200 		.ascii	"\376\035\302\000\010O@x\024\302\037\355\202\346C\352"
 269      084F4078 
 269      14C21FED 
 269      82E643EA 
 270 0103 4B836B13 		.ascii	"K\203k\023`u\206k\272\302\333 \210\262!\014\206\220"
 270      6075866B 
 270      BAC2DB20 
 270      88B2210C 
 270      8690
 271 0115 03E123F8 		.ascii	"\003\341#\370}\010\\\207*\345\355J\331\223\012M\204"
 271      7D085C87 
 271      2AE5ED4A 
 271      D9930A4D 
 271      84
 272 0126 36C24635 		.ascii	"6\302F5D\263$m\035\204\037\247@\371$\264=\000|\337+"
 272      44B3246D 
 272      1D841FA7 
 272      40F924B4 
 272      3D007CDF 
 273 013b 52FE090E 		.ascii	"R\376\011\016\\\204\014\221^kte\311\247M)\357R0\342"
 273      5C840C91 
 273      5E6B7465 
 273      C9A74D29 
 273      EF5230E2 
 274 014f 956F3328 		.ascii	"\225o3(O\3448\020\256\275\031\036\005H\237\2010_\221"
 274      4FE43810 
 274      AEBD191E 
 274      05489F81 
 274      305F91
 275 0162 BF5DC1FF 		.ascii	"\277]\301\377\023$R \337\005\241Ui\313\247 o\270=\326"
 275      13245220 
 275      DF05A155 
 275      69CBA720 
 275      6FB83DD6 
 276 0176 5EBF86F4 		.ascii	"^\277\206\364\010\010n\010#\355\264-\357\265\307\350"
 276      08086E08 
 276      23EDB42D 
 276      EFB5C7E8 
 277 0186 CAB5C7DA 		.ascii	"\312\265\307\332y\024\334\237\007\337\377\027\204\201"
 277      7914DC9F 
 277      07DFFF17 
 277      8481
 278 0194 22562B78 		.ascii	"\"V+x }7\204|\010s\025zU\035)\260ku\347\264-\246W\252"
 278      207D3784 
 278      7C087315 
 278      7A551D29 
 278      B06B75E7 
 279 01ad 9EA97A47 		.ascii	"\236\251zG\364\2613\374\336\005B7\010=mT\016\217@\370"
 279      F4B133FC 
 279      DE054237 
 279      083D6D54 
 279      0E8F40F8 
 280 01c1 03842C08 		.ascii	"\003\204,\010\235\024\376\177\245\350\007\321\023\""
 280      9D14FE7F 
 280      A5E807D1 
ARM GAS  /tmp/ccmHKIYO.s 			page 21


 280      1322
 281 01cf 63D27644 		.ascii	"c\322vDo\210\376|\246\350\023\301\253\207\353z\010\033"
 281      6F88FE7C 
 281      A6E813C1 
 281      AB87EB7A 
 281      081B
 282 01e1 6D5ADD21 		.ascii	"mZ\335!\272\364[\235\356\020\335$Y\252\014U\271\021"
 282      BAF45B9D 
 282      EE10DD24 
 282      59AA0C55 
 282      B911
 283 01f3 96EEB451 		.ascii	"\226\356\264Q\332D\345>r\335n\323\226\337\251\224_+"
 283      DA44E53E 
 283      72DD6ED3 
 283      96DFA994 
 283      5F2B
 284 0205 742CDF53 		.ascii	"t,\337S\341IT\356#\327\017t\345I\237\260\351\312\212"
 284      E14954EE 
 284      23D70F74 
 284      E5499FB0 
 284      E9CA8A
 285 0218 4A5951F9 		.ascii	"JYQ\371\235\\\033t\345\322\204Wdy\202\\7I\036\332\320"
 285      9D5C1B74 
 285      E5D28457 
 285      6479825C 
 285      37491EDA 
 286 022d B99B305D 		.ascii	"\271\2330]\206\217{n\347Ta\012\311n^!\367\352%\010\177"
 286      868F7B6E 
 286      E754610A 
 286      C96E5E21 
 286      F7EA2508 
 287 0242 157D2264 		.ascii	"\025}\"d\245`\"=\025\201~#,\207[\341~\311'.\023S\201"
 287      A560223D 
 287      15817E23 
 287      2C875BE1 
 287      7EC9272E 
 288 0259 5049ECA8 		.ascii	"PI\354\250n\344C\177\377\027a5\275\377\234\3766\002"
 288      6EE4437F 
 288      FF176135 
 288      BDFF9CFE 
 288      3602
 289 026b 4AEE88A5 		.ascii	"J\356\210\245\332\305h\235\015\242Zio\005l\251\330\015"
 289      DAC5689D 
 289      0DA25A69 
 289      6F056CA9 
 289      D80D
 290 027d 5348A2AC 		.ascii	"SH\242\254P\216w(E\334j\011\273Rb%\202\013jv4\321\213"
 290      508E7728 
 290      45DC6A09 
 290      BB526225 
 290      820B6A76 
 291 0294 21C0A8DC 		.ascii	"!\300\250\334\0221-\201\230(\271J\371\346(\251}\024"
 291      12312D81 
 291      9828B94A 
 291      F9E628A9 
 291      7D14
 292 02a6 80D59649 		.ascii	"\200\325\226I}\323\204\324{\023\220\272\312\032\251"
ARM GAS  /tmp/ccmHKIYO.s 			page 22


 292      7DD384D4 
 292      7B1390BA 
 292      CA1AA9
 293 02b5 B2A402B8 		.ascii	"\262\244\002\270\025\200\267,\223\372\266\011\251}\023"
 293      1580B72C 
 293      93FAB609 
 293      A97D13
 294 02c4 90BAC684 		.ascii	"\220\272\306\204\324\356\302\014$\265\241s\264\254\374"
 294      D4EEC20C 
 294      24B5A173 
 294      B4ACFC
 295 02d3 2BB5F03B 		.ascii	"+\265\360;vU\345\2467\357\370f\232M\226S|\342:\261;"
 295      7655E5A6 
 295      37EFF866 
 295      9A4D9653 
 295      7CE23AB1 
 296 02e8 A8DD6011 		.ascii	"\250\335`\021@\337\020\377E\301L\014C\210\330\000Ei"
 296      40DF10FF 
 296      45C14C0C 
 296      4388D800 
 296      4569
 297 02fa 29AAC791 		.ascii	")\252\307\221m{\322e;\315\0274x\232\317\003B\035\020"
 297      6D7BD265 
 297      3BCD1734 
 297      789ACF03 
 297      421D10
 298 030d 1CD9B167 		.ascii	"\034\331\261g\233(OJg:\311\334\316qz\311\364\346\365"
 298      9B284F4A 
 298      673AC9DC 
 298      CE717AC9 
 298      F4E6F5
 299 0320 93666520 		.ascii	"\223fe \311\365\330S\306\213Z\232}\242\"K\366\273z\003"
 299      C9F5D853 
 299      C68B5A9A 
 299      7DA2224B 
 299      F6BB7A03 
 300 0334 418BF60E 		.ascii	"A\213\366\016\245sH\302$\204 \344\032U\033m\023\246"
 300      A57348C2 
 300      248420E4 
 300      1A551B6D 
 300      13A6
 301 0346 21342C34 		.ascii	"!4,4\357\370\371UW\215\034\031oSi\232f\0310E#\223\246"
 301      EFF8F955 
 301      578D1C19 
 301      6F53699A 
 301      66193045 
 302 035d 3D69EF3C 		.ascii	"=i\357<\253\202U[\006\353\252\001;\302\202\315\265\014"
 302      AB82555B 
 302      06EBAA01 
 302      3BC282CD 
 302      B50C
 303 036f D64B03F6 		.ascii	"\326K\003\3661\013\266\3302\230[\003\366\011\013\266"
 303      310BB6D8 
 303      32985B03 
 303      F6090BB6 
 304 037f C232D883 		.ascii	"\3022\330\203\032\260\023\223\322\233\236U\264H\236"
 304      1AB01393 
ARM GAS  /tmp/ccmHKIYO.s 			page 23


 304      D29B9E55 
 304      B4489E
 305 038e 243FB8AA 		.ascii	"$?\270\2523#\017\245\270\304j\321\234\307P\213vc\355"
 305      33230FA5 
 305      B8C46AD1 
 305      9CC7508B 
 305      7663ED
 306 03a1 6B3B6891 		.ascii	"k;h\221M\247E6\255\026\331Rc\211\366v\034\\6\3529\320"
 306      4DA74536 
 306      AD16D952 
 306      6389F676 
 306      1C5C36EA 
 307 03b7 D46BC441 		.ascii	"\324k\304A?\255\032\275\373\232k\256\034\231`S\211z"
 307      3FAD1ABD 
 307      FB9A6BAE 
 307      1C996053 
 307      897A
 308 03c9 8F0730C5 		.ascii	"\217\0070\305T/#7'\275\332[\256\373@T\244BM\203\261"
 308      542F2337 
 308      27BDDA5B 
 308      AEFB4054 
 308      A4424D83 
 309 03de 3151A5B2 		.ascii	"1Q\245\262\247\226\366\255F$ \322A*.\235T\\Z\251\270"
 309      A796F6AD 
 309      462420D2 
 309      412A2E9D 
 309      545C5AA9 
 310 03f3 526309E2 		.ascii	"Rc\011\342\340v!r\331\243gCS\263\021\033\0325i\336q"
 310      E0762172 
 310      D9A36743 
 310      53B3111B 
 310      1A3569DE 
 311 0408 E3B55EF3 		.ascii	"\343\265^\363\344\310K6\225\254\303<\200]\315\3452g"
 311      E4C84B36 
 311      95ACC33C 
 311      805DCDE5 
 311      3267
 312 041a 6FFA749F 		.ascii	"o\372t\237\012\366\231e0\255\022\317e\301.\360\200\365"
 312      0AF69965 
 312      30AD12CF 
 312      65C12EF0 
 312      80F5
 313 042c 32A76C3E 		.ascii	"2\247l>\013v\3312\230\226\262\205,X+\017\230\333\234"
 313      0B76D932 
 313      9896B285 
 313      2C582B0F 
 313      98DB9C
 314 043f B25A16EC 		.ascii	"\262Z\026\354\246e0-e\357\260`U\022\007\330\203\346"
 314      A665302D 
 314      65EFB060 
 314      551207D8 
 314      83E6
 315 0451 946D60C1 		.ascii	"\224m`\301^\265\014\306R&G\352\367\246\301`\304\216"
 315      5EB50CC6 
 315      522647EA 
 315      F7A6C160 
 315      C48E
ARM GAS  /tmp/ccmHKIYO.s 			page 24


 316 0463 F4F5CC48 		.ascii	"\364\365\314H\037\005\223\325\261\257\331\362P\377\271"
 316      1F0593D5 
 316      B1AFD9F2 
 316      50FFB9
 317 0472 C950DFAE 		.ascii	"\311P\337\256:\223\022\314stL\350*V\322\375\014db\364"
 317      3A9312CC 
 317      73744CE8 
 317      2A56D2FD 
 317      0C6462F4 
 318 0486 6147689F 		.ascii	"aGh\237\270Q\374\015\304\357\212\017@\274\005\343m\030"
 318      B851FC0D 
 318      C4EF8A0F 
 318      40BC05E3 
 318      6D18
 319 0498 EFC0F87D 		.ascii	"\357\300\370}\214wa\374w\214\0330\336\217\361!\214\017"
 319      8C7761FC 
 319      778C1B30 
 319      DE8FF121 
 319      8C0F
 320 04aa 637C14E3 		.ascii	"c|\024\343c\030\037\307\370$\306\2470>\215\361Y\210"
 320      63181FC7 
 320      F824C6A7 
 320      303E8DF1 
 320      5988
 321 04bc A31F3381 		.ascii	"\243\0373\201\254\215\357n\325=\251\363\2674F\220\000"
 321      AC8DEF6E 
 321      D53DA9F3 
 321      B7344690 
 321      00
 322 04cd 7C61B90D 		.ascii	"|a\271\015.\230\264\201\230\200\324\363\326<\303\253"
 322      2E98B481 
 322      9880D4F3 
 322      D63CC3AB 
 323 04dd 5127F67E 		.ascii	"Q'\366~\005\340+\313\244~mB\352}\011H\375\322\032\251"
 323      05E02BCB 
 323      A47E6D42 
 323      EA7D0948 
 323      FDD21AA9 
 324 04f1 73A3A4DE 		.ascii	"s\243\244\336\251\000\\\262L\352e\023R\273' \365\"\277"
 324      A9005CB2 
 324      4CEA6513 
 324      52BB2720 
 324      F522BF
 325 0504 13FBAC5A 		.ascii	"\023\373\254Z\226L\265\2251\253\245\372L\177\034\263"
 325      964CB595 
 325      31ABA5FA 
 325      4C7F1CB3 
 326 0514 AEA00B7B 		.ascii	"\256\240\013{HJ\350\303jP\010\005W\365\036\354\373\324"
 326      484AE8C3 
 326      6A500805 
 326      57F51EEC 
 326      FBD4
 327 0526 83BDCAE5 		.ascii	"\203\275\312\345\301\036\237\264\010\207\331\204\036"
 327      C11E9FB4 
 327      0887D984 
 327      1E
 328 0533 B88DEDB9 		.ascii	"\270\215\355\271\012\365\327\346\034w\"\365\337#\365"
ARM GAS  /tmp/ccmHKIYO.s 			page 25


 328      0AF5D7E6 
 328      1C7722F5 
 328      DF23F5
 329 0542 B5B6C41E 		.ascii	"\265\266\304\036\270\006\306'\376(J\020_\327\263\360"
 329      B806C627 
 329      FE284A10 
 329      5FD7B3F0 
 330 0552 C30264E1 		.ascii	"\303\002d\341:\027\013\267N\325\336-7GD\2270\011\275"
 330      3A170BB7 
 330      4ED5DE2D 
 330      37474497 
 330      3009BD
 331 0565 F0891312 		.ascii	"\360\211\023\022z\341\013>\246Ro\203B\222pJG7\007\020"
 331      7AE10B3E 
 331      A6526F83 
 331      4292704A 
 331      47370710 
 332 0579 A1EA1614 		.ascii	"\241\352\026\024\326P]?\251\013\241\232\344\307\241"
 332      D6505D3F 
 332      A90BA19A 
 332      E4C7A1
 333 0588 DA46FABE 		.ascii	"\332F\372\276$|i\243ZkO\215\345\265\304\362D\346\326"
 333      247C69A3 
 333      5A6B4F8D 
 333      E5B5C4F2 
 333      44E6D6
 334 059b B658B6C4 		.ascii	"\266X\266\304d\277d\217f\333\230\354\327c\331\352\322"
 334      64BF648F 
 334      66DB98EC 
 334      D763D9EA 
 334      D2
 335 05ac 04F9AA9F 		.ascii	"\004\371\252\23790\037\226\025\237x\033ml\273h3,&\011"
 335      39301F96 
 335      159F781B 
 335      6D6CBB68 
 335      332C2609 
 336 05c0 0BEDA2D2 		.ascii	"\013\355\242\322d\274\276\256\246\271\232[\347|\370"
 336      64BCBEAE 
 336      A6B99A5B 
 336      E77CF8
 337 05cf 9538B34A 		.ascii	"\2258\263Jn\350g\244sp\213\030\277\317DN\235\022\335"
 337      6EE867A4 
 337      73708B18 
 337      BFCF444E 
 337      9D12DD
 338 05e2 893A864F 		.ascii	"\211:\206O|M\372\015W\367y]\322\351^\315)\324=\222\237"
 338      7C4DFA0D 
 338      57F7795D 
 338      D2E95ECD 
 338      29D43D92 
 339 05f7 58F7169F 		.ascii	"X\367\026\237\252\355\330}\356\022f+VG\026\303>\361"
 339      AAEDD87D 
 339      EE12662B 
 339      564716C3 
 339      3EF1
 340 0609 F19EA6D6 		.ascii	"\361\236\246\326c\246tWL'HF+ \371\304\247ck3\346\376"
 340      63A67457 
ARM GAS  /tmp/ccmHKIYO.s 			page 26


 340      4C274846 
 340      2B20F9C4 
 340      A7636B33 
 341 061f 6EE4D6FC 		.ascii	"n\344\326\374\036\204\320j)\015J/\265kuXC\020\255\310"
 341      1E84D06A 
 341      290D4A2F 
 341      B56B7558 
 341      4310ADC8 
 342 0633 8C881A29 		.ascii	"\214\210\032)\315\204\317\016\277I0q\026\025\241\305"
 342      CD84CF0E 
 342      BF493071 
 342      1615A1C5 
 343 0643 F151CC5B 		.ascii	"\361Q\314[?\262\305H`\006\355\324\034]\230\370m\224"
 343      3FB2C548 
 343      6006EDD4 
 343      1C5D98F8 
 343      6D94
 344 0655 E3E6B3E7 		.ascii	"\343\346\263\347\2333\252@\250>q\201D\014\316-{B\203"
 344      9B33AA40 
 344      A83E7181 
 344      440CCE2D 
 344      7B4283
 345 0668 A3C5212C 		.ascii	"\243\305!,\325\352\033|c#6xm\342\006\177\251*\262\251"
 345      D5EA1B7C 
 345      63233678 
 345      6DE2067F 
 345      A92AB2A9 
 346 067c 71616C5A 		.ascii	"qalZR\3053-\251\277\324\324\353-Y\356\3121\221\361\211"
 346      52C5332D 
 346      A9BFD4D4 
 346      EB2D59EE 
 346      CA3191F1 
 347 0691 4BA5DF70 		.ascii	"K\245\337pNL\3269\264\274\363\317\223Z.GjD*\306\025"
 347      4E4CD639 
 347      B4BCF3CF 
 347      935A2E47 
 347      6A442AC6 
 348 06a6 12312957 		.ascii	"\0221)WtP\311\314\224,\336.\0117\260\322\332\344\024"
 348      7450C9CC 
 348      942CDE2E 
 348      0937B0D2 
 348      DAE414
 349 06b9 E9A5AAE6 		.ascii	"\351\245\252\3463\347\233\037R&VK\220\213\333\226\001"
 349      33E79B1F 
 349      5226564B 
 349      908BDB96 
 349      01
 350 06ca DD9A96DD 		.ascii	"\335\232\226\335\332\210\2568\005\233\350\344\0003\233"
 350      DA88AE38 
 350      059BE8E4 
 350      00339B
 351 06d9 BD02D876 		.ascii	"\275\002\330v\026\3545\313`Z\312v\262`3y\300\314\346"
 351      16EC35CB 
 351      605ACA76 
 351      B2603379 
 351      C0CCE6
 352 06ec 8F00D6C4 		.ascii	"\217\000\326\304\202\325X\006c)\033\0379\333\270_\224"
ARM GAS  /tmp/ccmHKIYO.s 			page 27


 352      82D55806 
 352      63291B1F 
 352      39DBB85F 
 352      94
 353 06fd ABD3EF14 		.ascii	"\253\323\357\024\252ey\274\\\3474\323<A\300[\344\270"
 353      AA6579BC 
 353      5CE734D3 
 353      3C41C05B 
 353      E4B8
 354 070f B7C07445 		.ascii	"\267\300tE\272S\3335\217N\355L\272&\311Ol\213\217)]"
 354      BA53DB35 
 354      8F4EED4C 
 354      BA26C94F 
 354      6C8B8F29 
 355 0724 137C4364 		.ascii	"\023|Cdn\0012G\312&c\252\344\310\351\3064\371\225tu"
 355      6E013247 
 355      CA2663AA 
 355      E4C8E9C6 
 355      34F99574 
 356 0739 5C7A7255 		.ascii	"\\zrU\034\302\267\352m\312\361F\311M\263\023\323}\262"
 356      1CC2B7EA 
 356      6DCAF146 
 356      C94DB313 
 356      D37DB2
 357 074c 71612FB9 		.ascii	"qa/\271n\227\310\277\376S\177\351\352\036q\002\366\340"
 357      6E97C8BF 
 357      FE537FE9 
 357      EA1E7102 
 357      F6E0
 358 075e 1DC8EA22 		.ascii	"\035\310\352\"\247\2411\340\200j\271|u\226b\014\"\010"
 358      A7A131E0 
 358      806AB97C 
 358      7596620C 
 358      2208
 359 0770 F586536F 		.ascii	"\365\206So\014\254.&Y\272Y\022\326c\205[%\376\225'\215"
 359      0CAC2E26 
 359      59BA5912 
 359      D663855B 
 359      25FE9527 
 360 0785 F8C0107C 		.ascii	"\370\300\020|\375\260\262\362D\205Qo\031\260\253\256"
 360      FDB0B2F2 
 360      4485516F 
 360      19B0ABAE 
 361 0795 6124615B 		.ascii	"a$a[\262\272\303\260N\271\366\211\233$\234\256J\017"
 361      B2BAC3B0 
 361      4EB9F689 
 361      9B249CAE 
 361      4A0F
 362 07a7 B015ECE0 		.ascii	"\260\025\354\340\351yf\213-\320\215\257\262\335\370"
 362      E979668B 
 362      2DD08DAF 
 362      B2DDF8
 363 07b6 03CB606E 		.ascii	"\003\313`n\015\3305\026l/\017\230\333\234\262\357Y\260"
 363      0DD83516 
 363      6C2F0F98 
 363      DB9CB2EF 
 363      59B0
ARM GAS  /tmp/ccmHKIYO.s 			page 28


 364 07c8 8F2C8369 		.ascii	"\217,\203i)\373\221\005"
 364      29FB9105 
 365 07d0 3BCC0366 		.ascii	";\314\003f\264\330b\364a\035\001\237\270\030\307\335"
 365      B4D862F4 
 365      611D019F 
 365      B818C7DD 
 366 07e0 3A6CA9D5 		.ascii	":l\251\325\030\257\301\370m\214\327a\274\036\343\215"
 366      18AFC1F8 
 366      6D8CD761 
 366      BC1EE38D 
 367 07f0 183760BC 		.ascii	"\0307`\274\037\343\2170>\310\266o\034\257\355zu\037"
 367      1FE38F30 
 367      3EC8B66F 
 367      1CAFED7A 
 367      751F
 368 0802 62D2E6A3 		.ascii	"b\322\346\243\327vL\327\331t^\333\002\023V\011\365G"
 368      D7764CD7 
 368      D9745EDB 
 368      02135609 
 368      F547
 369 0814 E2786D47 		.ascii	"\342xmG\364^[\263\323\252\327\3064\003\372\354\337\177"
 369      F45E5BB3 
 369      D3AAD7C6 
 369      3403FAEC 
 369      DF7F
 370 0826 225655C9 		.ascii	"\"VU\311\253\372\251\235\354+=\242\305\345\335\023\013"
 370      ABFAA99D 
 370      EC2B3DA2 
 370      C5E5DD13 
 370      0B
 371 0837 D29B9E55 		.ascii	"\322\233\236U\301\256X\006\323\367X\265\035\247c;\316"
 371      C1AE5806 
 371      D3F758B5 
 371      1DA7633B 
 371      CE
 372 0848 C0169987 		.ascii	"\300\026\231\207\361\307\030\177\242\355}-\035\214\034"
 372      F1C7187F 
 372      A2ED7D2D 
 372      1D8C1C
 373 0857 75F719BC 		.ascii	"u\367\031\274\330\274@H\214h\326HS\245\350\352\200$"
 373      D8BC4048 
 373      8C68D648 
 373      53A5E8EA 
 373      8024
 374 0869 DC74EA26 		.ascii	"\334t\352&N\326\032!R{\006\372B\"\277\271\316\256\""
 374      4ED61A21 
 374      527B06FA 
 374      4222BFB9 
 374      CEAE22
 375 087c 654575AE 		.ascii	"eEu\256yv[\244\327VpA}\342g\3507os%\364\233\2658\222"
 375      79765BA4 
 375      D7567041 
 375      7DE267E8 
 375      376F7325 
 376 0895 B01B8B9C 		.ascii	"\260\033\213\234\325\215s\315;n7\337;\027\221\317r\215"
 376      D58D73CD 
 376      3B6E37DF 
ARM GAS  /tmp/ccmHKIYO.s 			page 29


 376      3B1791CF 
 376      728D
 377 08a7 75378D96 		.ascii	"u7\215\226\033(Yf2<\257W\346\252\024\225\224\344\246"
 377      1B285966 
 377      323CAF57 
 377      E6AA1495 
 377      94E4A6
 378 08ba 20B7F7A0 		.ascii	" \267\367\240M9\217=\360\025\313`\332F\231\271w\241"
 378      4D398F3D 
 378      F015CB60 
 378      DA4699B9 
 378      77A1
 379 08cc C56D8AA3 		.ascii	"\305m\212\243K/\366\336\201\"\373\032\225\377\323\024"
 379      4B2FF6DE 
 379      8122FB1A 
 379      95FFD314 
 380 08dc BD2E12F7 		.ascii	"\275.\022\367E\243\213<\376\3649\036FL;$i\311\246>["
 380      45A38B3C 
 380      FEF4391E 
 380      464C3B24 
 380      69C9A63E 
 381 08f1 36C8F2CB 		.ascii	"6\310\362\313N\325\3431u\325$\341\"VvE\257\015GW\036"
 381      4ED5E331 
 381      75D524E1 
 381      22567645 
 381      AF0D4757 
 382 0906 7E886AC3 		.ascii	"~\210j\303\025.m\330\324X\3035\031\254s\252\325\027"
 382      152E6DD8 
 382      D458C335 
 382      19AC73AA 
 382      D517
 383 0918 61F56B52 		.ascii	"a\365kRI\365\327\364\325\237]s\361qZ\3755\256\352\317"
 383      49F5D7F4 
 383      D59F5D73 
 383      F1715AFD 
 383      35AEEACF 
 384 092c 1E9A65A4 		.ascii	"\036\232e\244\214&\363u\265\371V\266<\270\030+\371\021"
 384      8C26F375 
 384      B5F956B6 
 384      3CB8182B 
 384      F911
 385 093e 15E88754 		.ascii	"\025\350\207T}\363=\221\306\326\205\3375\372{;J}R\372"
 385      7DF33D91 
 385      C6D685DF 
 385      35FA7B3B 
 385      4A7D52FA 
 386 0952 0B6CEE7A 		.ascii	"\013l\356zb5\266\224J\303\204NV\021\265J|\355\020\366"
 386      6235B694 
 386      4AC3844E 
 386      5611B54A 
 386      7CED10F6 
 387 0966 080A3689 		.ascii	"\010\0126\211\007,\216e\377\236\005{\3052\230\226\262"
 387      072C8E65 
 387      FF9E057B 
 387      C5329896 
 387      B2
 388 0977 1F59B069 		.ascii	"\037Y\260i<`q\266\316n\260`\325\226\301\264\224\265"
ARM GAS  /tmp/ccmHKIYO.s 			page 30


 388      3C6071B6 
 388      CE6EB060 
 388      D596C1B4 
 388      94B5
 389 0989 B1607378 		.ascii	"\261`sx\300\342l\235\375\314\202\315\267\014\246\245"
 389      C0E26C9D 
 389      FDCC82CD 
 389      B70CA6A5 
 390 0999 EC360B56 		.ascii	"\3546\013V\313\003\3466\247l\372\021\006l\251e0-e\325"
 390      CB03E636 
 390      A76CFA11 
 390      066CA965 
 390      302D65D5 
 391 09ad 2CD81B3C 		.ascii	",\330\033<`q\266\316f\261`oZ\006\323R6\207\005[\313"
 391      6071B6CE 
 391      66B1606F 
 391      5A06D352 
 391      3687055B 
 392 09c2 0366B481 		.ascii	"\003f\264\201\245\356\252\262`\033,\203i)\233\317\202"
 392      A5EEAAB2 
 392      601B2C83 
 392      69299BCF 
 392      82
 393 09d3 BDC703F6 		.ascii	"\275\307\003\366\2309e\013Y\260\255\226\301\264\224"
 393      9839650B 
 393      59B0AD96 
 393      C1B494
 394 09e2 BDC382ED 		.ascii	"\275\303\202\355\344\001{\322\234\262\015,\330.\313"
 394      E4017BD2 
 394      9CB20D2C 
 394      D82ECB
 395 09f1 605ACADE 		.ascii	"`Z\312\336e\301v\363\200\0155\247\354=\026l\257e0-e"
 395      65C176F3 
 395      800D35A7 
 395      EC3D166C 
 395      AF65302D 
 396 0a06 9B59B0FD 		.ascii	"\233Y\260\375<`y\346\224me\301\016X\006\323R\266\235"
 396      3C6079E6 
 396      946D65C1 
 396      0E5806D3 
 396      52B69D
 397 0a19 056BE201 		.ascii	"\005k\342\001\373\2539e;Y\260\217-\203i)kb\301N\360"
 397      FBAB3965 
 397      3B59B08F 
 397      2D836929 
 397      6B62C14E 
 398 0a2e 803D6B40 		.ascii	"\200=k@Y\364c\346g\266\260\276\372\251N\252\203cq\214"
 398      59F463E6 
 398      67B6B0BE 
 398      FAA94EAA 
 398      8363718C 
 399 0a42 16621867 		.ascii	"\026b\030g;Y\365\3104|\023\337\272\317Ve\234\247\316"
 399      3B59F5C8 
 399      347C13DF 
 399      BACF5665 
 399      9CA7CE
 400 0a55 EA051EC4 		.ascii	"\352\005\036\3048\003\240rB\203\202]\261\014\246S\345"
ARM GAS  /tmp/ccmHKIYO.s 			page 31


 400      3803A072 
 400      4283825D 
 400      B10CA653 
 400      E5
 401 0a66 BDFAE948 		.ascii	"\275\372\351H\364\030\\\304t\337\314'.\307\355\245e"
 401      F4185CC4 
 401      74DFCC27 
 401      2EC7EDA5 
 401      65
 402 0a77 BA736DA6 		.ascii	"\272sm\246\307>;4\323z\033\323L?\360\360\020g\334=\273"
 402      C73E3B34 
 402      D37A1BD3 
 402      4C3FF0F0 
 402      1067DC3D 
 403 0a8c 77216E1D 		.ascii	"w!n\035\362\037\340;\272\364\260\342\275\327\333\210"
 403      F21FE03B 
 403      BAF4B0E2 
 403      BDD7DB88 
 404 0a9c F7FE7327 		.ascii	"\367\376s'\303\2257\016\244\372KM\365\312\"\336f\204"
 404      C395370E 
 404      A4FA4B4D 
 404      F5CA22DE 
 404      6684
 405 0aae 9A98962C 		.ascii	"\232\230\226,T\313\345\346*e\021o\033B\275\246\203\262"
 405      54CBE5E6 
 405      2A65116F 
 405      1B42BDA6 
 405      83B2
 406 0ac0 7CAEF09F 		.ascii	"|\256\360\237u\257$\324\244\351\232\314h\373\320\334"
 406      75AF24D4 
 406      A4E99ACC 
 406      68FBD0DC 
 407 0ad0 BB815E71 		.ascii	"\273\201^q\242\357\226\265\262\\\345\264\322h\373\224"
 407      A2EF96B5 
 407      B25CE5B4 
 407      D268FB94 
 408 0ae0 468BA078 		.ascii	"F\213\240x\026w\020\317f\375\"gB>VZ\346\343A\035\037"
 408      167710CF 
 408      66FD2267 
 408      423E565A 
 408      E6E3411D 
 409 0af5 9107ADF3 		.ascii	"\221\007\255\363qR\341\343C\344c\335?\200\217M\226\371"
 409      7152E1E3 
 409      43E463DD 
 409      3F808F4D 
 409      96F9
 410 0b07 600FFEE1 		.ascii	"`\017\376\341\274\361a:o\344Z\342\337o\323-\361\237"
 410      BCF1613A 
 410      6FE45AE2 
 410      DF6FD32D 
 410      F19F
 411 0b19 DC2FBA69 		.ascii	"\334/\272iv\242\011\233\034\271\276\237\231l\313|\223"
 411      76A2099B 
 411      1CB9BE9F 
 411      996CCB7C 
 411      93
 412 0b2a ED164562 		.ascii	"\355\026Eb\007Pb;\215\372\030\027R\375\245\206^k\020"
ARM GAS  /tmp/ccmHKIYO.s 			page 32


 412      0750623B 
 412      8DFA1817 
 412      52FDA586 
 412      5E6B10
 413 0b3d A9099176 		.ascii	"\251\011\221v'\215\324r\371\306$\245\267\036E\250\217"
 413      278DD472 
 413      F9C624A5 
 413      B71E45A8 
 413      8F
 414 0b4e 3A34A353 		.ascii	":4\243S\327\212Nm+\302WR\327\0152\371\027\377\246\344"
 414      D78A4E6D 
 414      2BC25752 
 414      D70D32F9 
 414      17FFA6E4 
 415 0b62 902F2EE1 		.ascii	"\220/.\341\377{9I\370\004\311'-hq\254\214i\320o\267"
 415      FF7B3949 
 415      F804C927 
 415      2D6871AC 
 415      8C69D06F 
 416 0b77 28E31C6D 		.ascii	"(\343\034m\245\323\277\010qBd\343\324E\312N\320\023"
 416      A5D3BF08 
 416      714264E3 
 416      D445CA4E 
 416      D013
 417 0b89 64A4FBF2 		.ascii	"d\244\373\362\027\302\035n\264\276\306\263\353\036\252"
 417      17C21D6E 
 417      B4BEC6B3 
 417      EB1EAA
 418 0b98 769F2143 		.ascii	"v\237!CW:\264pRk<?%\313H\364#\011r:\307\220\351\216"
 418      573AB470 
 418      526B3C3F 
 418      25CB48F4 
 418      2309723A 
 419 0bb0 D75A371E 		.ascii	"\327Z7\036\346\\'\212\256>~\335\253\001\205q\316FV\037"
 419      E65C278A 
 419      AE3E7EDD 
 419      AB018571 
 419      CE46561F 
 420 0bc4 5F4A375C 		.ascii	"_J7\\}\214\267\3364\023\213\\\260uX}l\352M\027|\310"
 420      7D8CB7DE 
 420      34138B5C 
 420      B075587D 
 420      6CEA4D17 
 421 0bda 4F1CEB4D 		.ascii	"O\034\353M\223T\275\240\213\212_H\222\002\233\254<5"
 421      9354BDA0 
 421      8B8A5F48 
 421      92029BAC 
 421      3C35
 422 0bec 4D18A3CF 		.ascii	"M\030\243\317'~e#n\316\3276\315\262\3632\313\262w\263"
 422      277E6523 
 422      6ECED736 
 422      CDB2F332 
 422      CBB277B3 
 423 0c00 B28FDC6C 		.ascii	"\262\217\334l\\(\022\372\015\226\310\236d\035\312\250"
 423      5C2812FA 
 423      0D96C89E 
 423      641DCAA8 
ARM GAS  /tmp/ccmHKIYO.s 			page 33


 424 0c10 E09B7BEF 		.ascii	"\340\233{\357C\361\\F\301\277m\"\370'\315p$a\007\026"
 424      43F15C46 
 424      C1BF6D22 
 424      F827CD70 
 424      24610716 
 425 0c24 F9B6A3E0 		.ascii	"\371\266\243\340\033\356\241\202\377\226K\360\307\014"
 425      1BEEA182 
 425      FF964BF0 
 425      C70C
 426 0c32 05FFAD75 		.ascii	"\005\377\255u\301G\017\337G\035Y\237\370\245e0w\274"
 426      C1470FDF 
 426      471D599F 
 426      F8A56530 
 426      77BC
 427 0c44 56FC9669 		.ascii	"V\374\226i\305\253\330\212-6\262\340\177M\333\226\007"
 427      C5ABD88A 
 427      2D36B2E0 
 427      7F4DDB96 
 427      07
 428 0c55 F56DA991 		.ascii	"\365m\251\221\234\2224]\276\220#3\017\252\273\325\324"
 428      9C92345D 
 428      BE902333 
 428      0FAABBD5 
 428      D4
 429 0c66 E69DE4D1 		.ascii	"\346\235\344\321\2158\213\016\265\007Q$\324\336\234"
 429      8D388B0E 
 429      B5075124 
 429      D4DE9C
 430 0c75 B50CE6D6 		.ascii	"\265\014\346\326\200\355\230\306y*0z\362\262+\012\345"
 430      80ED98C6 
 430      792A307A 
 430      F2B22B0A 
 430      E5
 431 0c86 12D6DBA6 		.ascii	"\022\326\333\246W\227\303_\035\236,\216\307\021\257"
 431      5797C35F 
 431      1D9E2C8E 
 431      C711AF
 432 0c95 8D435F60 		.ascii	"\215C_`\240\277\220*W\247\253z\273\374\016\0255\216"
 432      A0BF902A 
 432      57A7AB7A 
 432      BBFC0E15 
 432      358E
 433 0ca7 A8E368CB 		.ascii	"\250\343h\313\315\213\373D\204\243\023\237\267\364p"
 433      CD8BFB44 
 433      84A3139F 
 433      B7F470
 434 0cb6 09E7655A 		.ascii	"\011\347eZ\270\333~\343\243k\346\202Q\017\256m!\256"
 434      B8DB7EE3 
 434      A36BE682 
 434      510FAE6D 
 434      21AE
 435 0cc8 4E959DF0 		.ascii	"N\225\235\360\364\356\035\372\021\201J\206Q\3046F\021"
 435      F4EE1DFA 
 435      11814A86 
 435      51C43646 
 435      11
 436 0cd9 7F4645BC 		.ascii	"\177FE\274\205\212\330\216\361x;\307\376\323\004;3Y"
ARM GAS  /tmp/ccmHKIYO.s 			page 34


 436      858AD88E 
 436      F1783BC7 
 436      FED3043B 
 436      3359
 437 0ceb DA6E996F 		.ascii	"\332n\231o\267\256u\314\252\371\211\235\223\375\375"
 437      B7AE75CC 
 437      AAF9899D 
 437      93FDFD
 438 0cfa 0E0EDD33 		.ascii	"\016\016\3353_\243\"F\375\217\252;@wH\016XF\324js\313"
 438      5FA32246 
 438      FD8FAA3B 
 438      4077480E 
 438      5846D46A 
 439 0d10 348D3B70 		.ascii	"4\215;p\202\007\356I\003\002\215>\354\236\230O\374\034"
 439      8207EE49 
 439      03028D3E 
 439      EC9E984F 
 439      FC1C
 440 0d22 B71FCFE1 		.ascii	"\267\037\317\341\006\341\005\214\277\302\370\033\214"
 440      06E1058C 
 440      BFC2F81B 
 440      8C
 441 0d2f DFC2865B 		.ascii	"\337\302\206[\213\361;\030\277\213\361\373\030\357\306"
 441      8BF13B18 
 441      BF8BF1FB 
 441      18EFC6
 442 0d3e 781FC69F 		.ascii	"x\037\306\237c|\011\343\3571\376\021\343\033\030O\261"
 442      637C09E3 
 442      EF31FE11 
 442      E31B184F 
 442      B1
 443 0d4f 93F89544 		.ascii	"\223\370\225D\012\240\214\0023\276;\331\347-\264\325"
 443      0AA08C02 
 443      33BE3BD9 
 443      E72DB4D5 
 444 0d5f A750FDE7 		.ascii	"\247P\375\347v\326k\336yI\267c\321a\313mMg\216\255\313"
 444      76D66BDE 
 444      7949B763 
 444      D161CB6D 
 444      4D678EAD 
 445 0d74 389B4BAD 		.ascii	"8\233K\255\237\034<.\316\224\345\206~T\377}\342M\233"
 445      9F1C3C2E 
 445      CE94E586 
 445      7E54FF7D 
 445      E24D9B
 446 0d87 A445D4F6 		.ascii	"\244E\324\366\2308\332\2504\352\351\332\305|{G\321\003"
 446      9838DAA8 
 446      34EAE9DA 
 446      C57C7B47 
 446      D103
 447 0d99 80BF8EC9 		.ascii	"\200\277\216\311\344X\353\311\377\246\036x5\366\306"
 447      E458EBC9 
 447      FFA61E78 
 447      35F6C6
 448 0da8 6F753249 		.ascii	"ou2I\210C\2444\333\256;\364\323r\006\017\022\222\374"
 448      8843A434 
 448      DBAE3BF4 
ARM GAS  /tmp/ccmHKIYO.s 			page 35


 448      D372060F 
 448      1292FC
 449 0dbb C407097F 		.ascii	"\304\007\011\17783KQJz\270\241\015I e\223\030\022\311"
 449      38334B51 
 449      4A7AB8A1 
 449      0D492065 
 449      931812C9 
 450 0dcf 498933CC 		.ascii	"I\2113\314I\211\333\226\301\334\032\260\033,\330\204"
 450      4989DB96 
 450      C1DC1AB0 
 450      1B2CD884 
 451 0ddf 2E1C6071 		.ascii	".\034`q\316\302\265\261`\023-\203i)\373\231\005\233"
 451      CEC2B5B1 
 451      60132D83 
 451      6929FB99 
 451      059B
 452 0df1 C20316E7 		.ascii	"\302\003\026\347,\334m\026l\232e0-e\323\3172`\263y\300"
 452      2CDC6D16 
 452      6C9A6530 
 452      2D65D3CF 
 452      3260B379 
 453 0e06 E21CEFA9 		.ascii	"\342\034\357\251f\301\026Z\006\323R6\213\005[\316\003"
 453      66C1165A 
 453      06D35236 
 453      8B055BCE 
 453      03
 454 0e17 E636A0CC 		.ascii	"\3466\240\314\350\303v\002\2378\307N\254_\015Z\247y"
 454      E8C37602 
 454      9F38C74E 
 454      AC5F0D5A 
 454      A779
 455 0e29 182FC078 		.ascii	"\030/\300x\021\306\2131^\202\3612\214W`\274\222g \233"
 455      11C68B31 
 455      5E82F132 
 455      8C5760BC 
 455      9267209B 
 456 0e3d C10E646F 		.ascii	"\301\016dov\341\260Fq\226\220Z\347\234\376E'\320\233"
 456      76E1B046 
 456      7196905A 
 456      E79CFE45 
 456      27D09B
 457 0e50 77DCDCF7 		.ascii	"w\334\334\367o\304|$>\205\376\266\235\357\024\372:\275"
 457      6FC47C24 
 457      3E85FEB6 
 457      9DEF14FA 
 457      3ABD
 458 0e62 2DF9E120 		.ascii	"-\371\341 \332\222u\211m\011\330\302\353\234\356ZDd"
 458      DA927589 
 458      6D09D8C2 
 458      EB9CEE5A 
 458      4464
 459 0e74 A513B585 		.ascii	"\245\023\265\205\373\036\247\266p#\332\302\037\272$"
 459      FB1EA7B6 
 459      7023DAC2 
 459      1FBA24
 460 0e83 B4855A1C 		.ascii	"\264\205Z\034B\337{z\3727\036B\372\337\343\262\205\233"
 460      42DF7B7A 
ARM GAS  /tmp/ccmHKIYO.s 			page 36


 460      FA371E42 
 460      FADFE3B2 
 460      859B
 461 0e95 0E696DE1 		.ascii	"\016im\341\224\256\242\202\231\234-\334|\210Q\370\251"
 461      94AEA282 
 461      999C2DDC 
 461      7C8851F8 
 461      A9
 462 0ea6 96C1DC1A 		.ascii	"\226\301\334\032\260\255,\330t\036\260x\347\202Y\260"
 462      B0AD2CD8 
 462      741EB078 
 462      E78259B0 
 463 0eb6 5996C1B4 		.ascii	"Y\226\301\264\224\355d\301\346\361\200\305;\027\314"
 463      94ED64C1 
 463      E6F180C5 
 463      3B17CC
 464 0ec5 82D55A06 		.ascii	"\202\325Z\006s\0335\257\320A;|\342&4\022\233\261\353"
 464      731B35AF 
 464      D0413B7C 
 464      E2263412 
 464      9BB1EB
 465 0ed8 6FC5783B 		.ascii	"o\305x;\306;1\216`\374\001\217I\330\300\232\204\245"
 465      C63B318E 
 465      60FC018F 
 465      49D8C09A 
 465      84A5
 466 0eea 48F0BAE4 		.ascii	"H\360\272\3444\2068\2357?\377W\272\327\242;\014B\344"
 466      3486389D 
 466      373FFF57 
 466      BAD7A23B 
 466      0C42E4
 467 0efd 6146C11E 		.ascii	"aF\301\036\226\202\325\226)p\263\024Dn\036\244[\021"
 467      9682D596 
 467      2970B314 
 467      446E1EA4 
 467      5B11
 468 0f0f EA6EC05A 		.ascii	"\352n\300Z=\236\321\272l\274Y\312A|>\235\202\325[\006"
 468      3D9ED1BA 
 468      6CBC59CA 
 468      417C3E9D 
 468      82D55B06 
 469 0f23 D33ED33F 		.ascii	"\323>\323?\375\020\003\366\276e0\263\323z\357\240.\254"
 469      FD1003F6 
 469      BE6530B3 
 469      D37AEFA0 
 469      2EAC
 470 0f35 C736FF10 		.ascii	"\3076\377\020\343\006\214\367c\374\021\253\005\222\260"
 470      E3068CF7 
 470      63FC11AB 
 470      0592B0
 471 0f44 A7ABDE6F 		.ascii	"\247\253\336o\245\306\221A\215YQ\201\027\327\254m\327"
 471      A5C69141 
 471      8D595181 
 471      17D7AC6D 
 471      D7
 472 0f55 B06D7BB2 		.ascii	"\260m{\262+\307\200\3436\327\256\3269g\225\001\207\002"
 472      2BC780E3 
ARM GAS  /tmp/ccmHKIYO.s 			page 37


 472      36D7AED6 
 472      39679501 
 472      8702
 473 0f67 C304DD32 		.ascii	"\303\004\3352\242V[f\237\255\325\234u\277\300\203\027"
 473      A2565B66 
 473      9FADD59C 
 473      75BFC083 
 473      17
 474 0f78 E730C542 		.ascii	"\3470\305B\352\"P\260\357,\203\271\005\323\017\373t"
 474      EA2250B0 
 474      EF2C83B9 
 474      05D30FFB 
 474      74
 475 0f89 1F4C6070 		.ascii	"\037L`p\367\357'|\300\366\025\234\024}\212\361\353\330"
 475      F7EF277C 
 475      C0F6159C 
 475      147D8AF1 
 475      EBD8
 476 0f9b 32D3317E 		.ascii	"2\3231~\023"
 476      13
 477 0fa0 E3268C8F 		.ascii	"\343&\214\217`\3741O\213\265\212L\213\375\204,\\\265"
 477      60FC314F 
 477      8BB58A4C 
 477      8BFD842C 
 477      5CB5
 478 0fb2 70D652DB 		.ascii	"p\326R\333b-G\216/Q[l*N\233n[F\324\266\330\217t\311"
 478      622D478E 
 478      2F515B6C 
 478      2A4E9B6E 
 478      5B46D4B6 
 479 0fca 8A82BDD4 		.ascii	"\212\202\275\324\215\003\314\250s\033K\370*#\341\026"
 479      8D03CCA8 
 479      731B4BF8 
 479      2A23E116 
 480 0fda 94F035FA 		.ascii	"\224\3605\372h3J\357$\217\364\276\211I\217\177\231\373"
 480      68334AEF 
 480      248FF4BE 
 480      89498F7F 
 480      99FB
 481 0fec ECF9137F 		.ascii	"\354\371\023\177z\223N-\361\331\304W\272\375\003\226"
 481      7A934E2D 
 481      F1D9C457 
 481      BAFD0396 
 482 0ffc B95384C9 		.ascii	"\271S\204\311"
 483 1000 F4E94B79 		.ascii	"\364\351Ky\274\370<c\217\030\033\303\276r\350\214=\205"
 483      BCF83C63 
 483      8F181BC3 
 483      BE72E88C 
 483      3D85
 484 1012 2C1077D3 		.ascii	",\020w\323nD25\222\033T\316iZMA\221\276B\255\034\271"
 484      6E443235 
 484      921B54CE 
 484      695A4D41 
 484      91BE42AD 
 485 1028 DADCFAE6 		.ascii	"\332\334\372\346\245^k\210\371\227o\267\377m\374\004"
 485      A55E6B88 
 485      F9976FB7 
ARM GAS  /tmp/ccmHKIYO.s 			page 38


 485      FF6DFC04 
 486 1038 51F7049F 		.ascii	"Q\367\004\237\335|\0148g\327<\301g\350P&Z \337\266\366"
 486      DD7C0C38 
 486      67D73CC1 
 486      67E85026 
 486      5A20DFB6 
 487 104d 5A6FEA81 		.ascii	"Zo\352\201]@\017lbw\213\013\344\370\254\265\336\003"
 487      5D400F6C 
 487      62778B0B 
 487      E4F8ACB5 
 487      DE03
 488 105f ABA78F01 		.ascii	"\253\247\217\001\177\315\345An\331\363\226\251\007\251"
 488      7FCDE541 
 488      6ED9F396 
 488      A907A9
 489 106e 7388F56B 		.ascii	"s\210\365k~\363\201\332\204+`>\361\212\035Wi\365T\316"
 489      7EF381DA 
 489      842B603E 
 489      F18A1D57 
 489      69F554CE 
 490 1082 9C84547E 		.ascii	"\234\204T~\313E\345\354=\270\220g\376\260%\277\352\036"
 490      CB45E5EC 
 490      3DB89067 
 490      FEB025BF 
 490      EA1E
 491 1094 DB78EE8F 		.ascii	"\333x\356\217\353Pu[Qu/t\327\253\256C\247\271\016\255"
 491      EB50755B 
 491      51752F74 
 491      D7ABAE43 
 491      A7B90EAD 
 492 10a8 E63A5263 		.ascii	"\346:Rc\011Es\315\232\346\232]\367\224\347\023i\206"
 492      094573CD 
 492      9AE69A5D 
 492      F794E713 
 492      6986
 493 10ba FAC2757E 		.ascii	"\372\302u~b\013\256\004&\330\3265\243\344\206\235]\351"
 493      620BAE04 
 493      26D8D635 
 493      A3E4869D 
 493      5DE9
 494 10cc 893D758A 		.ascii	"\211=u\212\017!\013\011\037<\305c2\354\300\370\015J"
 494      0F210B09 
 494      1F3CC563 
 494      32ECC0F8 
 494      0D4A
 495 10de EDDBA4DD 		.ascii	"\355\333\244\335\256mk\217\364\3528\021\323\365\276"
 495      AE6D6B8F 
 495      F4EA3811 
 495      D3F5BE
 496 10ed D638DDEF 		.ascii	"\3268\335\3576\247h\251\357b\2062\336\361\213\305r\213"
 496      36A768A9 
 496      EF628632 
 496      DEF18BC5 
 496      728B
 497 10ff 15CB35CB 		.ascii	"\025\3135\313bq\263b\221\301\022\245:\343\211\344@\034"
 497      6271B362 
 497      91C112A5 
ARM GAS  /tmp/ccmHKIYO.s 			page 39


 497      3AE389E4 
 497      401C
 498 1111 6626394C 		.ascii	"f&9LE\022=\037\300\305\322D\007\303\322u\036\226\314"
 498      45123D1F 
 498      C0C5D244 
 498      07C3D275 
 498      1E96CC
 499 1124 DDD15FC6 		.ascii	"\335\321_\306\322\253\006,q\2610\325\241[\310\274i\231"
 499      D2AB062C 
 499      71B130D5 
 499      A15BC8BC 
 499      6999
 500 1136 0DB7A0FD 		.ascii	"\015\267\240\375\304\374\313\2538\272\376\214\361K\016"
 500      C4FCCBAB 
 500      38BAFE8C 
 500      F14B0E
 501 1145 F4681C1C 		.ascii	"\364h\034\034#\355eVS\332\221\236\257\255w \243\017"
 501      23ED6556 
 501      53DA919E 
 501      AFAD7720 
 501      A30F
 502 1157 3B08F8C4 		.ascii	";\010\370\304\213\350\\_\342\031\374\277\210\221\024"
 502      8BE85C5F 
 502      E219FCBF 
 502      889114
 503 1166 153173CE 		.ascii	"\0251s\316\212\222Zu\247\326B\376ZX&\313\3258t^\"\255"
 503      8A925A75 
 503      A7D642FE 
 503      5A5826CB 
 503      D538745E 
 504 117c 4B6124E1 		.ascii	"Ka$\341U\274\357s{_\303\352\224\312ha\271\006\234\""
 504      55BCEF73 
 504      7B5FC3EA 
 504      94CA6861 
 504      B9069C22 
 505 1190 91D60573 		.ascii	"\221\326\005s\353\004\005\025\212\376\247\260\202\350"
 505      EB040515 
 505      8AFEA7B0 
 505      82E8
 506 119e CDF12FF2 		.ascii	"\315\361/\362\206*oO0/\244\3607\303\241y\001&\031\364"
 506      862A6F4F 
 506      302FA4F0 
 506      37C3A179 
 506      012619F4 
 507 11b2 9BAF369F 		.ascii	"\233\2576\237\334z\251\230<A,\267\267\377M?\342\023"
 507      DC7AA998 
 507      3C412CB7 
 507      B7FF4D3F 
 507      E213
 508 11c4 F7C04C5A 		.ascii	"\367\300LZs\035\011\207|\315\302q\364\225\027\344u\233"
 508      731D0987 
 508      7CCDC271 
 508      F49517E4 
 508      759B
 509 11d6 D1F77EEC 		.ascii	"\321\367~\354\036\200o\240X\340 #\376\262;\015G|s\030"
 509      1E806FA0 
 509      58E02023 
ARM GAS  /tmp/ccmHKIYO.s 			page 40


 509      FEB23B0D 
 509      477C7318 
 510 11ea 7C7ECDA1 		.ascii	"|~\315\241\033K\217\355\245\017\262;x\306\322\323\223"
 510      1B4B8FED 
 510      A50FB23B 
 510      78C6D2D3 
 510      93
 511 11fb CDD7CFF5 		.ascii	"\315\327\317\365#\276\346%\201\222\360\366\235\306#"
 511      23BEE625 
 511      8192F0F6 
 511      9DC623
 512 120a BEE636F0 		.ascii	"\276\3466\360\375\034d\304_\256\247r\343d\244r9\027"
 512      FD1C64C4 
 512      5FAEA772 
 512      E364A472 
 512      3917
 513 121c 95F57B13 		.ascii	"\225\365{\023\214\370\361\233jU\262\206c%k\373\266b"
 513      8CF8F19B 
 513      6A55B286 
 513      63256BFB 
 513      B662
 514 122e EB108293 		.ascii	"\353\020\202\223\032\345\250\355\243\2300\215\265\014"
 514      1AE5A8ED 
 514      A398308D 
 514      B50C
 515 123c E636073B 		.ascii	"\3466\007;\312\003\226\310*\253`\247,\203\031P\226l"
 515      CA0396C8 
 515      2AAB60A7 
 515      2C831950 
 515      966C
 516 124e 4B6D8C37 		.ascii	"Km\2147j)\263\210\350we\274\326\377\316\325\262\033"
 516      6A29B388 
 516      E87765BC 
 516      D6FFCED5 
 516      B21B
 517 1260 622DEB13 		.ascii	"b-\353\023\253\242*\032\207e\363\003\265\277\214\345"
 517      ABA22A1A 
 517      8765F303 
 517      B5BF8CE5 
 518 1270 AD565856 		.ascii	"\255VXV<\267\244X\336\302\262|\323n\225\3458\372\367"
 518      3CB7A458 
 518      DEC2B27C 
 518      D36E95E5 
 518      38FAF7
 519 1283 258FCA98 		.ascii	"%\217\312\230\237\277\375e\362\373\273\271\374\014\215"
 519      9FBFFD65 
 519      F2FBBBB9 
 519      FC0C8D
 520 1292 9AE93117 		.ascii	"\232\3511\027\305&\277\367\3765\027\332\344\275h\223"
 520      C526BFF7 
 520      FE3517DA 
 520      E4BD6893 
 521 12a2 DFE861F1 		.ascii	"\337\350a\361\264\014\036o\324[\273\353~7\315Ml\353"
 521      B40C1E6F 
 521      D45BBBEB 
 521      7E37CD4D 
 521      6CEB
ARM GAS  /tmp/ccmHKIYO.s 			page 41


 522 12b4 7E5AA11C 		.ascii	"~Z\241\034S\240\2530\357a\375\373\223\265:\2216?Y\274"
 522      53A0AB30 
 522      EF61FDFB 
 522      93B53A91 
 522      363F59BC 
 523 12c8 A058EF5B 		.ascii	"\240X\357[\306r\033\021\252\352P\214K\237\330\350 n"
 523      C6721B11 
 523      AAEA508C 
 523      4B9FD8E8 
 523      206E
 524 12da C647E8FF 		.ascii	"\306G\350\377\034\344\361\177\366h\234m.\005\376\200"
 524      1CE4F17F 
 524      F6689C6D 
 524      2E05FE80 
 525 12ea B5C67B7B 		.ascii	"\265\306{{X\3259=/1\027\356\015${\015\306oc\274\016"
 525      58D5393D 
 525      2F3117EE 
 525      0D247B0D 
 525      C66F63BC 
 526 12ff E3F5186F 		.ascii	"\343\365\030o\306\370}\214w\361\260\266\204\355h\257"
 526      C6F87D8C 
 526      77F1B0B6 
 526      84ED68AF 
 527 130f A36DA94D 		.ascii	"\243m\251M\266\375\232[\216\\\357\217/f\345\177\257"
 527      B6FD9A5B 
 527      8E5CEF8F 
 527      2F66E57F 
 527      AF
 528 1320 1568307D 		.ascii	"\025h0}\037\327\021\007y\257U\223N\2039\337ku\314\241"
 528      1FD71107 
 528      79AF5593 
 528      4E8339DF 
 528      6B75CCA1 
 529 1334 7BAFD596 		.ascii	"{\257\325\226\027\33547\216\016+/\237:\325\243\343["
 529      17DD3437 
 529      8E0E2B2F 
 529      9F3AD5A3 
 529      E35B
 530 1346 ADBEEC61 		.ascii	"\255\276\354a\370V\253\357z\030\276\325\252\255\207"
 530      F856ABEF 
 530      7A18BED5 
 530      AAAD87
 531 1355 E15BAD5E 		.ascii	"\341[\255^\356\251}\253\225\222\275 \226\355`\262W\304"
 531      EEA97DAB 
 531      9592BD20 
 531      96ED60B2 
 531      57C4
 532 1367 B29D4CF6 		.ascii	"\262\235L\366\372X\266\213\311\336\021\313NaZ$\3569"
 532      FA58B68B 
 532      C9DE11CB 
 532      4E615A24 
 532      EE39
 533 1379 F798907C 		.ascii	"\367\230\220|\342'\330\005\216;\214\337\230\345\023"
 533      E227D805 
 533      8E3B8CDF 
 533      98E513
 534 1388 5F96749A 		.ascii	"_\226t\232`\351U\2632j\302x\362\252\033\365\375wd>\273"
ARM GAS  /tmp/ccmHKIYO.s 			page 42


 534      60E955B3 
 534      326AC278 
 534      F2AA1BF5 
 534      FD77643E 
 535 139d 2CB631A1 		.ascii	",\2661\241]j!5^rX~\377\235\262\334\021\245FI\304^\354"
 535      5D6A2135 
 535      5E72587E 
 535      FF9DB2DC 
 535      11A54649 
 536 13b4 B8AFA7A8 		.ascii	"\270\257\247\250\345\"\361\211\015V\241\361}$d\344 "
 536      E522F189 
 536      0D56A1F1 
 536      7D2464E4 
 536      20
 537 13c5 B449C201 		.ascii	"\264I\302\001.\264DC\207j\337\016\353\321\214\372Z\234"
 537      2EB44443 
 537      876ADF0E 
 537      EBD18CFA 
 537      5A9C
 538 13d7 E5EFEB93 		.ascii	"\345\357\353\223\3157P\343\355\007\303T\022\227[c\013"
 538      CD3750E3 
 538      ED07C354 
 538      12975B63 
 538      0B
 539 13e8 B0B8DE63 		.ascii	"\260\270\336cu\361\365\032k7N\352\265%!/n\015/\355{"
 539      75F1F51A 
 539      6B374EEA 
 539      B525212F 
 539      6E0D2FED 
 540 13fd D58D24BA 		.ascii	"\325\215$\2724\372\251^6F\332\307\377:\316Z\306\366"
 540      34FAA95E 
 540      3646DAC7 
 540      FF3ACE5A 
 540      C6F6
 541 140f 2F46C5AF 		.ascii	"/F\305\257C\003y\030\343\213\030_\301\370;\214[0\376"
 541      43037918 
 541      E38B185F 
 541      C1F83B8C 
 541      5B30FE
 542 1422 9EC77CCE 		.ascii	"\236\307|\316g\305\300\014\013\222p\251\247\341\334"
 542      67C5C00C 
 542      0B9270A9 
 542      A7E1DC
 543 1431 1366709F 		.ascii	"\023fp\237\210\263\252\344\241\264\254$\334\306\373"
 543      88B3AAE4 
 543      A1B4AC24 
 543      DCC6FB
 544 1440 6A1C6653 		.ascii	"j\034fSH\245\006\234BN\220\257L\234\330UT\027\2055\305"
 544      48A5069C 
 544      424E90AF 
 544      4C9CD855 
 544      54178535 
 545 1455 7436117F 		.ascii	"t6\021\177\376\261\343$\262\2569R\0153\330\361\315\355"
 545      FEB1E324 
 545      B2AE3952 
 545      0D33D8F1 
 545      CDED
ARM GAS  /tmp/ccmHKIYO.s 			page 43


 546 1467 ED7DE9BC 		.ascii	"\355}\351\274\020\246\311w\031\221*/\366+D\202+\207"
 546      10A6C977 
 546      19912A2F 
 546      F62B4482 
 546      2B87
 547 1479 03435B72 		.ascii	"\003C[rD\266\305'\362\246!\221g'\223w)\203j\264?!t\\"
 547      44B6C527 
 547      F2A62191 
 547      67279377 
 547      29836AB4 
 548 1491 2F95F99E 		.ascii	"/\225\371\236VjX\241<\255$;q\277Y\307'?T\313\345\023"
 548      566A58A1 
 548      3CAD243B 
 548      71BF59C7 
 548      273F54CB 
 549 14a7 AD0A5415 		.ascii	"\255\012T\025B\325\351\240|\242\240[{\025\264\313\235"
 549      42D5E9A0 
 549      7CA2A05B 
 549      7B15B4CB 
 549      9D
 550 14b8 F0556E57 		.ascii	"\360UnW>\364y\004\310\371\233\220T\0313el\2676\3137"
 550      3EF47904 
 550      C8F99B90 
 550      54193365 
 550      6CB736CB 
 551 14cd 3AF0D9BC 		.ascii	":\360\331\274\261u\377\005\205\323)N\342Sn\276\313\320"
 551      B175FF05 
 551      85D3294E 
 551      E2536EBE 
 551      CBD0
 552 14df A78C77A4 		.ascii	"\247\214w\2446\202E\246:u~\345\014\237\233\346r\254"
 552      368245A6 
 552      3A757EE5 
 552      0C9F9BE6 
 552      72AC
 553 14f1 9A2F51FC 		.ascii	"\232/Q\374JV\375H\321\344\374\3129\350W\222\3356\230"
 553      4A56FD48 
 553      D1E4FCCA 
 553      39E85792 
 553      DD3698
 554 1504 CC4689B3 		.ascii	"\314F\211\263\350W*X\363Z\032(ik\021\256\221\007.\316"
 554      E8572A58 
 554      F35A1A28 
 554      696B11AE 
 554      91072ECE 
 555 1518 9EF7828B 		.ascii	"\236\367\202\213\233\311\353\370U\313wT\017\227p\243"
 555      9BC9EBF8 
 555      55CB7754 
 555      0F9770A3 
 556 1528 5A4BDDC2 		.ascii	"ZK\335\302\377\234\333O\305\372\3142\326\203FM\242*"
 556      FF9CDB4F 
 556      C5FACC32 
 556      D683464D 
 556      A22A
 557 153a 67AC3D7D 		.ascii	"g\254=}\342kNbE\2479q\037\024\343\031\030\317\304x\266"
 557      E26B4E62 
 557      45A73971 
ARM GAS  /tmp/ccmHKIYO.s 			page 44


 557      1F14E319 
 557      18CFC478 
 558 154f 93C3724E 		.ascii	"\223\303rNvv\\\300\233\257\231$'<\032\224\255b\236`"
 558      76765CC0 
 558      9BAF9924 
 558      273C1A94 
 558      AD629E60 
 559 1563 A644F3AE 		.ascii	"\246D\363\256\037\351C\237c\231\217\372;\377\356\304"
 559      1FE9439F 
 559      63998FFA 
 559      3BFFEEC4 
 560 1573 6783B440 		.ascii	"g\203\264@>q\241\223\350\333\"\275\002\377D\227\201"
 560      3E71A193 
 560      E8DB22BD 
 560      02FF4497 
 560      81
 561 1584 1671A9F0 		.ascii	"\026q\251\360\255\275\313\223]\254Zy7\327b\325R\244"
 561      ADBDCB93 
 561      5DAC5A79 
 561      37D762D5 
 561      52A4
 562 1596 72999ECA 		.ascii	"r\231\236\312\243\224\312e\\T\036\333\253t4\262G\242"
 562      A394CA65 
 562      5C541EDB 
 562      AB7434B2 
 562      47A2
 563 15a8 CEB49725 		.ascii	"\316\264\227%\333\321T\017\347\026\202\321\225\012+"
 563      DBD1540F 
 563      E71682D1 
 563      950A2B
 564 15b7 606E23B0 		.ascii	"`n#\260\211h\002^\346\001K\274lDW\327\247Y\0063\240"
 564      8968025E 
 564      E6014BBC 
 564      6C4457D7 
 564      A7590633 
 565 15cc 2CD99D81 		.ascii	",\331\235\2015\316\304\233\035\312w\376\275\301\331"
 565      35CEC49B 
 565      1DCA77FE 
 565      BDC1D9
 566 15db 6DCD6F28 		.ascii	"m\315o(f{\035\016P\233\356\326\017PI\354k\013\234\223"
 566      667B1D0E 
 566      509BEED6 
 566      0F5049EC 
 566      6B0B9C93 
 567 15ef DD379DCC 		.ascii	"\3357\235\314dw\027\326\234@\270\346\013T\244\003\337"
 567      647717D6 
 567      9C40B8E6 
 567      0B54A403 
 567      DF
 568 1600 9F70832D 		.ascii	"\237p\203-\236\200\353\343\011x\235\223\177\021\352"
 568      9E80EBE3 
 568      09789D93 
 568      7F11EA
 569 160f 5D96AD3D 		.ascii	"]\226\255=\226\331\262\2503\361\366\014\267\305cI\277"
 569      96D9B2A8 
 569      33F1F60C 
 569      B7C56349 
ARM GAS  /tmp/ccmHKIYO.s 			page 45


 569      BF
 570 1620 CEA6EC01 		.ascii	"\316\246\354\001&\305\362V\226\345F\036\226\177\311"
 570      26C5F256 
 570      96E5461E 
 570      967FC9
 571 162f 52593C96 		.ascii	"RY<\226\377\036\217e\375j\352/a\371\003\226\345#\226"
 571      FF1E8F65 
 571      FD6AEA2F 
 571      61F90396 
 571      E52396
 572 1642 59760BDA 		.ascii	"Yv\013\332OlN\265\002\007\30370^\211\361*\214Wc\274"
 572      4F6C4EB5 
 572      0207C337 
 572      305E89F1 
 572      2A8C5763 
 573 1657 11E32D18 		.ascii	"\021\343-\030\357\342\0310\353\234\035Vj\026%i\250\345"
 573      EFE21930 
 573      EB9C1D56 
 573      6A162569 
 573      A8E5
 574 1669 C86DF226 		.ascii	"\310m\362&\004\336\303\036Wo\267\365\3065\232\3758\242"
 574      04DEC31E 
 574      576FB7F5 
 574      C6359AFD 
 574      38A2
 575 167b BEDECBE2 		.ascii	"\276\336\313\342Y\017I\250\305\"\007\364C\325\246I\370"
 575      590F49A8 
 575      C52207F4 
 575      43D5A649 
 575      F8
 576 168c 3AE8035C 		.ascii	":\350\003\\C\325\026\316\327\276\327E\275\321\036B\354"
 576      43D516CE 
 576      D7BED745 
 576      BDD11E42 
 576      EC
 577 169d 39A65B22 		.ascii	"9\246[\"8\237G\220\3765\306\364\233cH\302v,rLO\377\017"
 577      389F4790 
 577      FE35C6F4 
 577      9B6348C2 
 577      762C724C 
 578 16b4 C4A33DC6 		.ascii	"\304\243=\306E\375u\365\201\256\303Nt\033\243\200\311"
 578      45FD75F5 
 578      81AEC34E 
 578      741BA380 
 578      C9
 579 16c5 79B43FA3 		.ascii	"y\264?\243GK\037\016;j\031\313\255\301\232\261G}\254"
 579      474B1F0E 
 579      3B6A19CB 
 579      ADC19AB1 
 579      477DAC
 580 16d8 4F79128F 		.ascii	"Oy\022\217\007/\216K;\213\034\033\263\362\340\361>\345"
 580      072F8E4B 
 580      3B8B1C1B 
 580      B3F2E0F1 
 580      3EE5
 581 16ea C1E3B338 		.ascii	"\301\343\2638r]\354\365\017\030\271$\341G\313\\h\244"
 581      725DECF5 
ARM GAS  /tmp/ccmHKIYO.s 			page 46


 581      0F18B924 
 581      E147CB5C 
 581      68A4
 582 16fc D2DC72FB 		.ascii	"\322\334r\373\\/\365\231.JX;\017\242\321\300f\364a\265"
 582      5C2FF599 
 582      2E4A583B 
 582      0FA2D1C0 
 582      66F461B5 
 583 1710 C9271E47 		.ascii	"\311'\036G\177\372\004\032\203O1\376\014\3433\030\237"
 583      7FFA041A 
 583      834F31FE 
 583      0CE33318 
 583      9F
 584 1721 E7310F87 		.ascii	"\3471\017\207Y3\366ro\265\277YT/cR\0170\244\036BR\233"
 584      5933F672 
 584      6FB5BF59 
 584      542F6352 
 584      0F30A41E 
 585 1738 58922461 		.ascii	"X\222$a\006\326g\305\034i\205=\357z[\337\326\011\362"
 585      06D667C5 
 585      1C69853D 
 585      EF7A5BDF 
 585      D609F2
 586 174b DC7EDC0B 		.ascii	"\334~\334\013\307\2216\247\344\023\277v\222E\343\232"
 586      C79136A7 
 586      E413BF76 
 586      9245E39A 
 587 175b DE492D1A 		.ascii	"\336I-\032_v\352\026\215[\351\237!\220\374\304\313\306"
 587      5F76EA16 
 587      8D5BE99F 
 587      2190FCC4 
 587      CBC6
 588 176d 4B7A775C 		.ascii	"Kzw\\6^\323\333p\331xco\355\262\261\"\205\270\213\265"
 588      365ED3DB 
 588      70D97863 
 588      6FEDB2B1 
 588      2285B88B 
 589 1782 31E27CE2 		.ascii	"1\342|\3427(\362+\316\370\213\265\213,L\364\004F\372"
 589      3728F22B 
 589      CEF88BB5 
 589      8B2C4CF4 
 589      0446FA
 590 1795 72A47D2F 		.ascii	"r\244}/yt\225\367A\264\237\326\\V\036\316\373\036\315"
 590      797495F7 
 590      41B49FD6 
 590      5C561ECE 
 590      FB1ECD
 591 17a8 696BEFC4 		.ascii	"ik\357\304\346\324\000\007\314\016\276U\366:\202\214"
 591      E6D40007 
 591      CC0EBE55 
 591      F63A828C 
 592 17b8 BFC72288 		.ascii	"\277\307\"\210$\274\212E\332\3646y\007=\235\327\306"
 592      24BC8A45 
 592      DAF43679 
 592      073D9DD7 
 592      C6
 593 17c9 6195C9FF 		.ascii	"a\225\311\377\216\320\247"
ARM GAS  /tmp/ccmHKIYO.s 			page 47


 593      8ED0A7
 594 17d0 D3D5C776 		.ascii	"\323\325\307vgG1\225J\237d\305\227\330,7\321\023\263"
 594      67473195 
 594      4A9F64C5 
 594      97D82C37 
 594      D113B3
 595 17e3 F47CDE62 		.ascii	"\364|\336b=\230E;z4\372\004\372x\\)\\m\031O\323\311"
 595      3D98453B 
 595      7A34FA04 
 595      FA785C29 
 595      5C6D194F 
 596 17f9 221F53E2 		.ascii	"\"\037S\342(\330\006\036\2608\357e:\301\202m\266\014"
 596      28D8061E 
 596      B038EF65 
 596      3AC1826D 
 596      B60C
 597 180b A6A5EC53 		.ascii	"\246\245\354S\026,\302\003\026\347\005I\247\225\341"
 597      162CC203 
 597      16E70549 
 597      A795E1
 598 181a 2CC9FFB7 		.ascii	",\311\377\267\230\3522_D\243\332jV\3625\227\361Z\260"
 598      98EA325F 
 598      44A3DA6A 
 598      56F23597 
 598      F15AB0
 599 182d F9D817A9 		.ascii	"\371\330\027\251\241\016\320+.\302x\203\256\017\350"
 599      A10ED02B 
 599      2EC27883 
 599      AE0FE8
 600 183c AA268499 		.ascii	"\252&\204\231U=\335e\376fe\335o\340\343Z\026\260\266"
 600      553DDD65 
 600      FE6665DD 
 600      6FE0E35A 
 600      16B0B6
 601 184f B5CE4ED2 		.ascii	"\265\316N\322<\233|\212\007\316m\320^F\037\266C\373"
 601      3C9B7C8A 
 601      07CE6DD0 
 601      5E461FB6 
 601      43FB
 602 1861 C49FD1F0 		.ascii	"\304\237\321\360\335\302A\260\035\343\361.\022Wa<\021"
 602      DDC241B0 
 602      1DE3F12E 
 602      1257613C 
 602      11
 603 1872 E3C918BF 		.ascii	"\343\311\030\277\214q\265\353\201\1776\252$\234\273"
 603      8C71B5EB 
 603      817F36AA 
 603      249CBB
 604 1881 4737D669 		.ascii	"G7\326i\015S\242~(\343`\207\017\026\363[\334\243\367"
 604      0D53A27E 
 604      28E36087 
 604      0F16F35B 
 604      DCA3F7
 605 1894 538B3BC7 		.ascii	"S\213;\307E\254\324E\235\242P\265\374g\361{\203\213"
 605      45ACD445 
 605      9DA250B5 
 605      FC67F17B 
ARM GAS  /tmp/ccmHKIYO.s 			page 48


 605      838B
 606 18a6 5FD3D73C 		.ascii	"_\323\327<D\371\235\333\217\375/,\346l\253\034U\030"
 606      44F99DDB 
 606      8FFD2F2C 
 606      E66CAB1C 
 606      5518
 607 18b8 59D5E705 		.ascii	"Y\325\347\005\256nJJ\375\3736\342\177\351\011\321\025"
 607      AE6E4A4A 
 607      FDFB36E2 
 607      7FE909D1 
 607      15
 608 18c9 54D2A62F 		.ascii	"T\322\246/\014\304\355<\233\223\242K\302\204{\271\340"
 608      0CC4ED3C 
 608      9B93A24B 
 608      C2847BB9 
 608      E0
 609 18da 9AEC6678 		.ascii	"\232\354fxF\023\\\243\277s\321\374\265\256\322\244\037"
 609      46135CA3 
 609      BF73D1FC 
 609      B5AED2A4 
 609      1F
 610 18eb B7FEF4B2 		.ascii	"\267\376\364\262\362z\211%\330\246\023\357M8\000v\374"
 610      F27A8925 
 610      D8A613EF 
 610      4D380076 
 610      FC
 611 18fc 8FDEE52E 		.ascii	"\217\336\345.\335\340\267\350\\\203\21035\362K\202\341"
 611      DDE0B7E8 
 611      5C838833 
 611      35F24B82 
 611      E1
 612 190d EFA5AAC8 		.ascii	"\357\245\252\310\372s\015\022\363\207$>q!=i\343J\366"
 612      FA730D12 
 612      F387243E 
 612      71213D69 
 612      E34AF6
 613 1920 29C60DE7 		.ascii	")\306\015\347\224\305q\012Wk\031\316\255\201{W\013w"
 613      94C5710A 
 613      576B19CE 
 613      AD817B57 
 613      0B77
 614 1932 48E2808B 		.ascii	"H\342\200\213\363$\343{Z\270\271<\324\305y\226q\263"
 614      F324E37B 
 614      5AB8B93C 
 614      D4C57996 
 614      71B3
 615 1944 166E3E0F 		.ascii	"\026n>\017\\\234\247\031\267\262p\2220\023\025\302\012"
 615      5C9CA719 
 615      B7B27092 
 615      301315C2 
 615      0A
 616 1955 9C96BAED 		.ascii	"\234\226\272\355Z\270\032\0368\243Q\325\350\303j\236"
 616      5AB81A1E 
 616      38A351D5 
 616      E8C36A9E 
 617 1965 4F5CE122 		.ascii	"O\\\341\"\366\345\015\264\035+1^\205\361j\214\337\304"
 617      F6E50DB4 
ARM GAS  /tmp/ccmHKIYO.s 			page 49


 617      1D2B315E 
 617      85F16A8C 
 617      DFC4
 618 1977 780DC66F 		.ascii	"x\015\306o\263\226\305l,\253s1\023\231\205\372NjDvS"
 618      B396C56C 
 618      2CAB7331 
 618      139985FA 
 618      4E6A4476 
 619 198c DCD3CF1A 		.ascii	"\334\323\317\032\272\0271v\261\026\355\342b\264\210"
 619      BA173176 
 619      B116EDE2 
 619      62B488
 620 199b FB30FE0A 		.ascii	"\3730\376\012\343V\272\211\201\024\317\307x\021\306"
 620      E356BA89 
 620      8114CFC7 
 620      7811C6
 621 19aa 8B79A89F 		.ascii	"\213y\250\237\3474=*$\011Ku\235<\272'\334v\377>z\036"
 621      E7343D2A 
 621      24094B75 
 621      9D3CBA27 
 621      DC76FF3E 
 622 19c0 7932AE0E 		.ascii	"y2\256\016l\300\373n\233n\267\342\336\211\262K{\330"
 622      6CC0FB6E 
 622      9B6EB7E2 
 622      DE89B24B 
 622      7BD8
 623 19d2 1FDD4AAE 		.ascii	"\037\335J\256OP\014\267W\264\307\230\347a}[\022\024"
 623      4F500CB7 
 623      57B4C798 
 623      E7617D5B 
 623      1214
 624 19e4 5498528E 		.ascii	"T\230R\2161\257\377,\257\027\335R\025\264\245\214vw"
 624      31AFFF2C 
 624      AF17DD52 
 624      15B4A58C 
 624      7677
 625 19f6 DF7119ED 		.ascii	"\337q\031\355\356^o\234\246\356\356\246\350\\3B\244"
 625      EE5E6F9C 
 625      A6EEEEA6 
 625      E85C3342 
 625      A4
 626 1a07 9970B7B8 		.ascii	"\231p\267\270tk\202D\020:\031o7\2241\335\314\246\267"
 626      746B8244 
 626      103A196F 
 626      379431DD 
 626      CCA6B7
 627 1a1a 6F70918E 		.ascii	"op\221\216\272\331\025W\272\321\315\354mxh\233\356L"
 627      BAD91557 
 627      BAD1CDEC 
 627      6D78689B 
 627      EE4C
 628 1a2c 99975208 		.ascii	"\231\227R\010\334f\310\355\342\203\257\232qK6\021\315"
 628      DC66C8ED 
 628      E283AF9A 
 628      714B3611 
 628      CD
 629 1a3d B87D9F83 		.ascii	"\270}\237\203\333\003\306\334\336,\322q\273\223\223"
ARM GAS  /tmp/ccmHKIYO.s 			page 50


 629      DB03C6DC 
 629      DE2CD271 
 629      BB9393
 630 1a4c DB8DC82D 		.ascii	"\333\215\310-\375\213P\363R\012\201\273\014\271=>\255"
 630      FD8B50F3 
 630      520A81BB 
 630      0CB93D3E 
 630      AD
 631 1a5d 110C8FFC 		.ascii	"\021\014\217\374s{;y@L\260p:\362C\016\206O\0303|K\317"
 631      737B3B79 
 631      404CB070 
 631      3AF2430E 
 631      864F1833 
 632 1a74 F06E4E86 		.ascii	"\360nN\206ug\025\230bF\332\274W\313\361_D[\215\235\236"
 632      75671598 
 632      6246DABC 
 632      57CBF15F 
 632      445B8D9D 
 633 1a89 CD9FDEDC 		.ascii	"\315\237\336\334\372\346\007\225\363\344\017\360l\276"
 633      FAE60795 
 633      F3E40FF0 
 633      6CBE
 634 1a97 9EEB38EB 		.ascii	"\236\3538\353\334\037\351\231&\017\033\350\037iP\276"
 634      DC1FE999 
 634      260F1BE8 
 634      1F6950BE 
 635 1aa7 F32ED82E 		.ascii	"\363.\330.~\377h\237\315\364\305\217\350\\\314\357c"
 635      7EFF689F 
 635      CDF4C58F 
 635      E85CCCEF 
 635      63
 636 1ab8 71C55699 		.ascii	"q\305V\231\236\254\277BVM\217\"\306R\035\206O\314\321"
 636      9EACBF42 
 636      564D8F22 
 636      C6521D86 
 636      4FCCD1
 637 1acb F99C39FA 		.ascii	"\371\2349\372\277V8o\223\247\247`\276$\354\350\243]"
 637      BF56386F 
 637      93A7A760 
 637      BE24ECE8 
 637      A35D
 638 1add E160CA0D 		.ascii	"\341`\312\0151s\332sb\266\372\023\034ctw\352Tc\257\216"
 638      3173DA73 
 638      62B6FA13 
 638      1C637477 
 638      EA5463AF 
 639 1af2 42F5A613 		.ascii	"B\365\246\023\035\032mn\264\321Z\216\3740A\234QU\327"
 639      1D1A6D6E 
 639      B4D15A8E 
 639      FC30419C 
 639      5155D7
 640 1b05 205F25EB 		.ascii	" _%\353\206\352\211\230\303&P\247:j<\200\354\330^\333"
 640      86EA8998 
 640      C32650A7 
 640      3A6A3C80 
 640      ECD85EDB 
 641 1b19 DBB8E5F9 		.ascii	"\333\270\345\371\227\2636\036$\242>\343\"\353Ygu\265"
ARM GAS  /tmp/ccmHKIYO.s 			page 51


 641      97B3361E 
 641      24A23EE3 
 641      22EB5967 
 641      75B5
 642 1b2b 73AE677D 		.ascii	"s\256g}\356\322\255g\235\234\212\353Y$?\361z\326W}:"
 642      EED2AD67 
 642      9D9C8AEB 
 642      59243FF1 
 642      7AD6577D 
 643 1b40 AE675DE9 		.ascii	"\256g]\351c\270\236\365S\037\303c\220/\335gx\014r\306"
 643      63B89EF5 
 643      531FC363 
 643      902FDD67 
 643      780C72C6 
 644 1b54 7D86C720 		.ascii	"}\206\307 \027\336gx\014r\345}\206\307 7\335gx\014r"
 644      17DE6778 
 644      0C72E57D 
 644      86C72037 
 644      DD67780C 
 645 1b69 D77DDA63 		.ascii	"\327}\332c\220J\366\376Xv*\223\375Y,\273\023\223\375"
 645      904AF6FE 
 645      58762A93 
 645      FD592CBB 
 645      1393FD
 646 1b7c 5D2C3B8D 		.ascii	"],;\215\311\226\357\217f\2473\331\257\307\262\357`\262"
 646      C996EF8F 
 646      66A733D9 
 646      AFC7B2EF 
 646      60B2
 647 1b8e EB62D99D 		.ascii	"\353b\331\235\231\354wb\331]\230\354m\261\354\256L\366"
 647      99EC7762 
 647      D95D98EC 
 647      6DB1ECAE 
 647      4CF6
 648 1ba0 87B1EC6E 		.ascii	"\207\261\354nL\366\211Xvw\226\356X\366\235J[\222\257"
 648      4CF68958 
 648      767796EE 
 648      58F69D4A 
 648      5B92AF
 649 1bb3 71971563 		.ascii	"q\227\025c:\342\023\317a\237:\3572^V4\263W\247\365\366"
 649      3AE213CF 
 649      619F3AEF 
 649      325E5634 
 649      B357A7F5 
 650 1bc8 8A0C1649 		.ascii	"\212\014\026I>\032\252\350\376,\247\304\361Ba\237\370"
 650      3E1AAAE8 
 650      FE2CA7C4 
 650      F142619F 
 650      F8
 651 1bd9 7A0ADF7B 		.ascii	"z\012\337{\270A\025\373v\330C\320\277M:\371\327y\277"
 651      B84115FB 
 651      76D843D0 
 651      BF4D3AF9 
 651      D779BF
 652 1bec 9662F8E8 		.ascii	"\226b\370\350e\275\330q\317Q\022^\351klIf\246\030Y\222"
 652      65BDD871 
 652      CF51125E 
ARM GAS  /tmp/ccmHKIYO.s 			page 52


 652      E96B6C49 
 652      66A61859 
 653 1c01 966A4373 		.ascii	"\226jCsTm\0022\333\020d\372w\027\2370\033\210\342,|"
 653      546D0232 
 653      DB1064FA 
 653      77179F30 
 653      1B88E22C 
 654 1c16 D5A4E81A 		.ascii	"\325\244\350\032v\035\276RW\303\315\"\023B\346\031\022"
 654      761DBE52 
 654      57C3CD22 
 654      1342E619 
 654      12
 655 1c27 72B5FA7B 		.ascii	"r\265\372{)\011B\026\350\011!\316W\364\213r\360TG\330"
 655      29094216 
 655      E80921CE 
 655      57F48B72 
 655      F05447D8 
 656 1c3b 2A13C26A 		.ascii	"*\023\302j\215\010\213\354l|U\026\351\031H~\262\352"
 656      8D088BEC 
 656      6C7C5516 
 656      E919487E 
 656      B2EA
 657 1c4d 8CC8D291 		.ascii	"\214\310\322\221\261\336\204\214\245\206\3629s>\362"
 657      B1DE848C 
 657      A586F239 
 657      733EF2
 658 1c5c DF49C867 		.ascii	"\337I\310gy\007B\244\250|\270\267\335\";\252{\222\301"
 658      790742A4 
 658      A87CB8B7 
 658      DD223BAA 
 658      7B92C1
 659 1c6f 61650A3E 		.ascii	"ae\012>l\321\261\277$uZ$J\322)\203\347\220%\341#\023"
 659      6CD1B1BF 
 659      24755A24 
 659      4AD22983 
 659      E79025E1 
 660 1c85 F1ACD18A 		.ascii	"\361\254\321\212\347\177\010K\344H\023L\213\256\235"
 660      E77F084B 
 660      E448134C 
 660      8BAE9D
 661 1c94 13C15169 		.ascii	"\023\301Qi [\024\355b_\320H\374\317\356sQ\024u\341\346"
 661      205B14ED 
 661      625FD048 
 661      FCCFEE73 
 661      511475E1 
 662 1ca9 572A7FEF 		.ascii	"W*\177\357\2502z;\206H\321\"\365\253S\301O\304~\245"
 662      A8327A3B 
 662      8648D122 
 662      F5AB53C1 
 662      4FC47EA5 
 663 1cbd FE75F905 		.ascii	"\376u\371\005=\320\263*N\364\035W\012\314@a\243<%\322"
 663      3DD0B32A 
 663      4EF41D57 
 663      0ACC4061 
 663      A33C25D2 
 664 1cd1 8F16A4A7 		.ascii	"\217\026\244\247\245\377\257\320&O\221#[z\322\203\205"
 664      A5FFAFD0 
ARM GAS  /tmp/ccmHKIYO.s 			page 53


 664      264F9123 
 664      5B7AD283 
 664      85
 665 1ce2 A416E204 		.ascii	"\244\026\342\004\316\371a\245X-\327\305h\246\3773\376"
 665      CEF961A5 
 665      582DD7C5 
 665      68A6FF33 
 665      FE
 666 1cf3 4D079A35 		.ascii	"M\007\2325\377*N\352\332\250\021\002=\214M+!\207\206"
 666      FF2A4EEA 
 666      DAA81102 
 666      3D8C4D2B 
 666      218786
 667 1d06 9FD6AD06 		.ascii	"\237\326\255\006O\213\363\367c\3651\003\2450\337\272"
 667      4F8BF3F7 
 667      63F53103 
 667      A530DFBA 
 668 1d16 8A617E1A 		.ascii	"\212a~\032\376\241\332\265\204\314o\3220\377$-H\377"
 668      FEA1DAB5 
 668      84CC6FD2 
 668      30FF242D 
 668      48FF
 669 1d28 578EDC59 		.ascii	"W\216\334Y#\321I\302<\345;\371\007?y\312\024\331.\320"
 669      23D149C2 
 669      3CE53BF9 
 669      073F79CA 
 669      14D92ED0 
 670 1d3c FF9B2379 		.ascii	"\377\233#y62\212\323?\236S\276\366S\331;\031e/\262\243"
 670      36328AD3 
 670      3F9E53BE 
 670      F653D93B 
 670      19652FB2 
 671 1d51 27A55921 		.ascii	"'\245Y!v\366\352\016\304\336HH\354\266\177\006\261]"
 671      76F6EA0E 
 671      C4DE4848 
 671      ECB67F06 
 671      B15D
 672 1d63 5931CA47 		.ascii	"Y1\312G\"'7\223M|\2254:w\276\255'\255Cs\354\324\352"
 672      22273793 
 672      4D7C9534 
 672      3A77BEAD 
 672      27AD4373 
 673 1d7a 22E01C5B 		.ascii	"\"\340\034[\316\342\3209\377\313\356D8\221\030N\222"
 673      CEE2D039 
 673      FFCBEE44 
 673      3891184E 
 673      92
 674 1d8b 7B1B1F68 		.ascii	"{\033\037h-G\2720\225U\251\034s\215\332\235\222.\350"
 674      2D47BA30 
 674      9555A91C 
 674      738DDA9D 
 674      922EE8
 675 1d9e 3E66B7EE 		.ascii	">f\267\356\212)\237Ne\233L\026\237p\352gZ\352\2438\333"
 675      8A299F4E 
 675      659B4C16 
 675      9F70EA67 
 675      5AEAA338 
ARM GAS  /tmp/ccmHKIYO.s 			page 54


 676 1db3 1E7B4C4A 		.ascii	"\036{LJ\361K\244AoK\011\247\\\307\206\366\232RL\364"
 676      F14BA441 
 676      6F4B09A7 
 676      5CC786F6 
 676      9A524CF4 
 677 1dc7 C2ACD47E 		.ascii	"\302\254\324~\323R\223\343\224j4-E\306\002\323\231\245"
 677      D35293E3 
 677      946A342D 
 677      45C602D3 
 677      99A5
 678 1dd9 69A9BA38 		.ascii	"i\251\2728\245\016\230\226Z\020\247\324A\323R\344m3"
 678      A50E9896 
 678      5A10A7D4 
 678      41D352E4 
 678      6D33
 679 1deb 66A50EC5 		.ascii	"f\245\016\305J)\177N\036\357\357\177\241'\341\273j\023"
 679      4A297F4E 
 679      1EEFEF7F 
 679      A127E1BB 
 679      6A13
 680 1dfd FD3F2FCE 		.ascii	"\375?/\316n\307s\377\3751\371\266\035\337\350\264\233"
 680      6EC773FF 
 680      FD31F9B6 
 680      1DDFE8B4 
 680      9B
 681 1e0e FD7F4C1D 		.ascii	"\375\177L\035\0335q\230?b\312<q\337\314J\0355-u:\216"
 681      1B357198 
 681      3F62CA3C 
 681      71DFCC4A 
 681      1D352D75 
 682 1e24 CA7FCC38 		.ascii	"\312\177\3148\237\366\3021\276\240s\310\310\247\335"
 682      9FF6C231 
 682      BEA073C8 
 682      C8A7DD
 683 1e33 99C22319 		.ascii	"\231\302#\031c\312K\375\031\205\345E/f\024\371\307f"
 683      63CA4BFD 
 683      1985E545 
 683      2F6614F9 
 683      C766
 684 1e45 148E098C 		.ascii	"\024\216\011\214\012\224\2072\302\301\312\262\3472 "
 684      0A948732 
 684      C2C1CAB2 
 684      E73220
 685 1e54 E11F17CE 		.ascii	"\341\037\027\316(\366\205\213C\031\241`aFq\361\303c"
 685      28F6858B 
 685      4319A160 
 685      614671F1 
 685      C363
 686 1e66 0447CEA0 		.ascii	"\004G\316\240\202\234\374\307\254\225\014\224\205\375"
 686      829CFCC7 
 686      AC950C94 
 686      85FD
 687 1e74 A3FD4128 		.ascii	"\243\375A(n\037\374LA\266\2538\344\015\277X\341\267"
 687      6E1FFC4C 
 687      41B6AB38 
 687      E40DBF58 
 687      E1B7
ARM GAS  /tmp/ccmHKIYO.s 			page 55


 688 1e86 1505C73A 		.ascii	"\025\005\307:\012C\201\377\343w\226y\341\356\220\343"
 688      0A4381FF 
 688      E3779679 
 688      E1EE90E3 
 689 1e96 85E212DF 		.ascii	"\205\342\022\337\350\224\342P\300K\022\366\277\344z"
 689      E894E250 
 689      C04B12F6 
 689      BFE47A
 690 1ea5 B2A44051 		.ascii	"\262\244@Qj\2317X^\036.\012\004\035Y$\253S\211/\024"
 690      6A993758 
 690      5E1E2E0A 
 690      041D5924 
 690      AB53892F 
 691 1eba F6169654 		.ascii	"\366\026\226T\206\302\235\212\203~?M\246 \206\277,\354"
 691      86C29D8A 
 691      837E3F4D 
 691      A62086BF 
 691      2CEC
 692 1ecc 282690AE 		.ascii	"(&\220\256\261\345%\243|!\277\0132\361\012\305\3115"
 692      B1E525A3 
 692      7C21BF0B 
 692      32F10AC5 
 692      C935
 693 1ede A5C817F6 		.ascii	"\245\310\027\366a\306\013\201\262\220\2770l\203\353"
 693      61C60B81 
 693      B290BF30 
 693      6C83EB
 694 1eed A389F819 		.ascii	"\243\211\370\031\343+\001.\240\236\"\177Fii\2417T\021"
 694      E32B012E 
 694      A09E227F 
 694      466969A1 
 694      375411
 695 1f00 006E5247 		.ascii	"\000nRG\214\310\314,/+\016\214\316\342\001\250(\017"
 695      8CC8CC2C 
 695      2F2B0E8C 
 695      CEE201A8 
 695      280F
 696 1f12 864319F9 		.ascii	"\206C\031\371\005#\036\031\2201|xVF~\336\260\261\375"
 696      05231E19 
 696      90317C78 
 696      56467EDE 
 696      B0B1FD
 697 1f25 3300CA5B 		.ascii	"3\000\312[RRD\340 #+\030\030\353\017\016\260B\017\245"
 697      525244E0 
 697      20232B18 
 697      18EB0F0E 
 697      B0420FA5 
 698 1f39 A5135C42 		.ascii	"\245\023\\Ba\020\2007\334\011p\274O\217\0346rXA\012"
 698      61108037 
 698      DC0970BC 
 698      4F8F1C36 
 698      7258410A 
 699 1f4d 49E617E4 		.ascii	"I\346\027\344\346\021l\257'{P\3263\370\353\240\314\202"
 699      E6116CAF 
 699      277B50D6 
 699      33F8EBA0 
 699      CC82
ARM GAS  /tmp/ccmHKIYO.s 			page 56


 700 1f5f 617FCE4E 		.ascii	"a\177\316N'\311\314\334\021y\303\263\013\262\035X\372"
 700      27C9CCDC 
 700      1179C3B3 
 700      0BB21D58 
 700      FA
 701 1f70 0E8029F4 		.ascii	"\016\200)\364\225\200\350\012\237\363\206\235\376\262"
 701      9580E80A 
 701      9FF3869D 
 701      FEB2
 702 1f7e 226FE1A8 		.ascii	"\"o\341\250\354d\270\033\2227,w\354\200\214\012_\211"
 702      EC64B81B 
 702      92372C77 
 702      EC808C0A 
 702      5F89
 703 1f90 C25E7A28 		.ascii	"\302^z(\\\372\310\000\357\350\212@\2717\374\353"
 703      5CFAC800 
 703      EFE88A40 
 703      B937FCEB 
 704 1fa0 8CCA5030 		.ascii	"\214\312P0\303\027,}\250\254\274\314\377\220\3377*\020"
 704      C3172C7D 
 704      A8ACBCCC 
 704      FF90DF37 
 704      2A10
 705 1fb2 63089ABA 		.ascii	"c\010\232\272,\014%R*\341\012E\302\003\343\334]\352"
 705      2C0C2552 
 705      2AE10A45 
 705      C203E3DC 
 705      5DEA
 706 1fc4 0372CAFC 		.ascii	"\003r\312\374\031\336\"\177\261\257\262$\214\252\025"
 706      19DE227F 
 706      B1AFB224 
 706      8CAA15
 707 1fd3 2212F17A 		.ascii	"\"\022\361z\325\362\216\021\271Y\331\036gn\3013y\331"
 707      D5F28E11 
 707      B959D91E 
 707      676EC133 
 707      79D9
 708 1fe5 1E576E7E 		.ascii	"\036Wn~^vv\226\307\221\367t^\226\3076\014Bn\226G\374"
 708      5E767696 
 708      C791F774 
 708      5E96C736 
 708      0C426E96 
 709 1ffb 0BD6D6FF 		.ascii	"\013\326\326\377Q"
 709      51
 710 2000 901F2D48 		.ascii	"\220\037-H\222\266\220?\354(,\361\373\202\342P\373\340"
 710      92B6903F 
 710      EC282CF1 
 710      FB82E250 
 710      FBE0
 711 2012 7C8FC73E 		.ascii	"|\217\307><\363)\217}P\216g8\211\206\332\006{<\235\002"
 711      3CF3298F 
 711      7D508E67 
 711      388986DA 
 711      067B3C9D 
 712 2027 E584F740 		.ascii	"\345\204\367@\021\310+\024\"I\007\\|E\266\302`\177\""
 712      11C82B14 
 712      2249075C 
ARM GAS  /tmp/ccmHKIYO.s 			page 57


 712      7C45B6C2 
 712      607F22
 713 203a 76AA21CE 		.ascii	"v\252!\316B\274$\3549\301p\224\263\3021\241\027C*7)"
 713      42BC24EC 
 713      39C17094 
 713      B3C231A1 
 713      17432A37 
 714 204f E13141BF 		.ascii	"\3411A\277\017\352H-\034\343\245\351\201\326\260\012"
 714      0FEA482D 
 714      1CE3A5E9 
 714      81D6B00A 
 715 205f C7905670 		.ascii	"\307\220VpVx\313\240w\302\245\"\350\037;\224\003\202"
 715      5678CBA0 
 715      77C2A522 
 715      E81F3B94 
 715      0382
 716 2071 36EC20CF 		.ascii	"6\354 \317\210\314\021\343\340\316\322\212@\211?\030"
 716      88CC11E3 
 716      E0CED28A 
 716      40893F18 
 717 2081 CA189299 		.ascii	"\312\030\222\231\011\267\253\344\271\302\025A\322\256"
 717      09B7ABE4 
 717      B9C21541 
 717      D2AE
 718 208f 881B2877 		.ascii	"\210\033(w\001\267a\250\346\017\226\361\307\024\226"
 718      01B761A8 
 718      E60F96F1 
 718      C71496
 719 209e 07FD0098 		.ascii	"\007\375\000\230F\262\275\320\014\205\341q\377\236\034"
 719      46B2BDD0 
 719      0C85E171 
 719      FF9E1C
 720 20ad 8A77ECEF 		.ascii	"\212w\354\357K\211\344\202\376\321\240:\2441\373?\012"
 720      4B89E482 
 720      FED1A03A 
 720      A431FB3F 
 720      0A
 721 20be E1F7101E 		.ascii	"\341\367\020\036\203\360\007[h@?\010\375!\014\200\360"
 721      83F0075B 
 721      68403F08 
 721      FD210C80 
 721      F0
 722 20cf 08848110 		.ascii	"\010\204\201\020~\007\001\356\033\000\367\015\200\373"
 722      7E0701EE 
 722      1B00F70D 
 722      80FB
 723 20dd 06C07D8F 		.ascii	"\006\300}\217\300}\217\364\227\202\003\245\340\357\244"
 723      C07D8FF4 
 723      978203A5 
 723      E0EFA4
 724 20ec E0A352F0 		.ascii	"\340\243R\360\367R\3601)\370\007[\260\177?\010\375\245"
 724      F752F031 
 724      29F8075B 
 724      B07F3F08 
 724      FDA5
 725 20fe 92205C1E 		.ascii	"\222 \\\036qTx\201Z\027\221\360\013\376 \\\313K\212"
 725      71547881 
ARM GAS  /tmp/ccmHKIYO.s 			page 58


 725      5A1791F0 
 725      0BFE205C 
 725      CB4B8A
 726 2111 FC412271 		.ascii	"\374A\"q_\251?%\254tO\027Q\256\307\240!\251\232A\012"
 726      5FA93F25 
 726      AC744F17 
 726      51AEC7A0 
 726      21A99A41 
 727 2126 EEC4DF5C 		.ascii	"\356\304\337\\\341\322\362\"?~'\366/\344\012\007\375"
 727      E1D2F222 
 727      3F7E27F6 
 727      2FE40A07 
 727      FD
 728 2137 C4560202 		.ascii	"\304V\002\002I8JC\243\341GE\247\241\270\222r\006\213"
 728      49384A43 
 728      A3E14745 
 728      A7A1B892 
 728      72068B
 729 214a 5E849F52 		.ascii	"^\204\237R\374\343\002a\220\221\337\371B\270|\324\177"
 729      FCE30261 
 729      9091DFF9 
 729      42B87CD4 
 729      7F
 730 215b 55A4F9C7 		.ascii	"U\244\371\307\2025,\365\205\260#\277@\022\266\012oe"
 730      82352CF5 
 730      85B023BF 
 730      4012B60A 
 730      6F65
 731 216d 67AA3C21 		.ascii	"g\252<!o\011\330\013o\270KT\235hNj\205\367\005_ \034"
 731      6F09D80B 
 731      6FB84B54 
 731      9D684E6A 
 731      85F7055F 
 732 2183 281BDD45 		.ascii	"(\033\335E\315~\276\322_\011Tue\356\304\254N\025^\250"
 732      CD7EBED2 
 732      5F095475 
 732      65EEC4AC 
 732      4E155EA8 
 733 2197 16930E4C 		.ascii	"\026\223\016LB\206\277\002L\006\024v\224VB\373'\034"
 733      4286BF02 
 733      4C061476 
 733      945642FB 
 733      271C
 734 21a9 61341A5A 		.ascii	"a4\032Z\032\036G4\251\224\242\303\265\374\2052\020#"
 734      1A1E4734 
 734      A994A2C3 
 734      B5FC8532 
 734      1023
 735 21bb 22010BA5 		.ascii	"\"\001\013\245\250\270@\037\334G(\355D\244\342+Au\203"
 735      A8B8401F 
 735      DC4728ED 
 735      44A4E22B 
 735      417583
 736 21ce CC8AF2F2 		.ascii	"\314\212\362\362\222\337[\252Oa\006\352\354\256t.\220"
 736      92DF5BAA 
 736      4F6106EA 
 736      ECAE742E 
ARM GAS  /tmp/ccmHKIYO.s 			page 59


 736      90
 737 21df B23FE82F 		.ascii	"\262?\350/+\004n\2354\353_yF\272\314\021\371\303\362"
 737      2B046E9D 
 737      34EB5F79 
 737      46BACC11 
 737      F9C3F2
 738 21f2 C1F465A0 		.ascii	"\301\364e\240\205+\036\330\257\3778Tab^\013\240\203"
 738      852B1ED8 
 738      AFFF3854 
 738      61625E0B 
 738      A083
 739 2204 64F98B6D 		.ascii	"d\371\213m\231\236\376\020\006H\371\036\011LO\246'3"
 739      999EFE10 
 739      0648F91E 
 739      094C4FA6 
 739      2733
 740 2216 CFE3F4FC 		.ascii	"\317\343\364\374\025\256\036g\001^\\\303\006\344g\346"
 740      15AE1E67 
 740      015E5CC3 
 740      06E467E6 
 741 2226 0CF138E0 		.ascii	"\014\3618\340\232\347\261\201\035\316\261jv1\316\031"
 741      9AE7B181 
 741      1DCEB16A 
 741      7631CE19 
 742 2236 386E1C25 		.ascii	"8n\034%\304[T\352#\314e\215\030\344\315\007U\362\225"
 742      C45B54EA 
 742      23CC658D 
 742      18E4CD07 
 742      55F295
 743 2249 AAD44899 		.ascii	"\252\324H\231\036\373\310\254\002\217-o\220\307>\242"
 743      1EFBC8AC 
 743      028F2D6F 
 743      90C73EA2 
 744 2259 1F89FA0F 		.ascii	"\037\211\372\017\362\330r\200\230\020\336h\017\024\027"
 744      F2D87280 
 744      9810DE68 
 744      0F1417
 745 2268 069D81D0 		.ascii	"\006\235\201\320\230@q85\344/)\016\224\025\371\3079"
 745      98407138 
 745      35E42F29 
 745      0E9415F9 
 745      C739
 746 227a C7C27859 		.ascii	"\307\302xY\036\354\036E\367\322\273\301\300\302\227"
 746      1EEC1E45 
 746      F7D2BBC1 
 746      C0C297
 747 2289 E0381287 		.ascii	"\3408\022\207\307\245\006\307\301\225hrjXM\331\201\235"
 747      C7A506C7 
 747      C1956872 
 747      6A584DD9 
 747      819D
 748 229b 0A4749A8 		.ascii	"\012GI\250\260x\264c\014\211S\002\345T\327\035\336\301"
 748      B078B463 
 748      0C895302 
 748      E554D71D 
 748      DEC1
 749 22ad D0700915 		.ascii	"\320p\011\025e\254\017\232\2712\004?@{\227\205\211+"
ARM GAS  /tmp/ccmHKIYO.s 			page 60


 749      65AC0F9A 
 749      B932043F 
 749      407B9785 
 749      892B
 750 22bf 62ADB129 		.ascii	"b\255\261)\245\244\261{\014\206\321?\337\017JV\026\016"
 750      A5A4B17B 
 750      0C86D13F 
 750      DF0F4A56 
 750      160E
 751 22d1 F84AA864 		.ascii	"\370J\250d\3566\312\374\363\210\202\0018\362\224\004"
 751      EE36CAFC 
 751      F3888201 
 751      38F29404 
 752 22e1 46658C2E 		.ascii	"Fe\214.,\324\215@\003\037~\354\341\201\354\250\005#"
 752      2CD48D40 
 752      031F7EEC 
 752      E181ECA8 
 752      0523
 753 22f3 10B1B0C4 		.ascii	"\020\261\260\304\375\000\306^\010\006\302~;Q\"[Ee\330"
 753      FD00C65E 
 753      0806C27E 
 753      3B51225B 
 753      4565D8
 754 2306 36DA1FB6 		.ascii	"6\332\037\266\215-\015\247\250\034\330 a+.\015w\016"
 754      8D2D0DA7 
 754      A81CD820 
 754      612B2E0D 
 754      770E
 755 2318 15814711 		.ascii	"\025\201G\021\012\224V\224\370\037.D\237\202:\001\351"
 755      0A945694 
 755      F81F2E44 
 755      9F823A01 
 755      E9
 756 2329 D114D091 		.ascii	"\321\024\320\221\026\010y\211\277\022\014\373\213\322"
 756      16087989 
 756      BF120CFB 
 756      8BD2
 757 2337 215D112C 		.ascii	"!]\021,\017Cc\370\213\210\245-\203T\247\242@HI\332C"
 757      0F4363F8 
 757      8B88A52D 
 757      8354A7A2 
 757      404849DA 
 758 234c 2F9615FE 		.ascii	"/\226\025\376\321\212\013\001io\240|TIy\341s\300@\227"
 758      D18A0B01 
 758      696FA07C 
 758      544979E1 
 758      73C04097 
 759 2360 C12491E5 		.ascii	"\301$\221\345\037\033(\364\017++.O\031U\362\234\027"
 759      1F1B28F4 
 759      0F2B2B2E 
 759      4F1955F2 
 759      9C17
 760 2372 7D2A9228 		.ascii	"}*\222(\253,M\001^\200\232\342\362N\220\241:\035\203"
 760      AB2C4D01 
 760      5E809AE2 
 760      F24E90A1 
 760      3A1D83
ARM GAS  /tmp/ccmHKIYO.s 			page 61


 761 2385 873FA53A 		.ascii	"\207?\245:\035$I\234\016\314\243\256Fg\222\314\314\035"
 761      1D24499C 
 761      0ECCA3AE 
 761      466792CC 
 761      CC1D
 762 2397 39321BBE 		.ascii	"92\033\276\216\034\322\215|\315\032\226\037\313I%9\350"
 762      8E1CD28D 
 762      7CCD1A96 
 762      1FCB4925 
 762      39E8
 763 23a9 A0A4A929 		.ascii	"\240\244\251)\310\305\364_<\303\012\324t\3763#3!m+\014"
 763      C8C5F45F 
 763      3CC30AD4 
 763      74FE3323 
 763      33216D2B 
 764 23be C0F81A2A 		.ascii	"\300\370\032*J)\364U\370\012\003\341\027\273 \361^_"
 764      4A29F455 
 764      F80A03E1 
 764      17BB20F1 
 764      5E5F
 765 23d0 5151D01F 		.ascii	"QQ\320\037\012\371Cw\206\212\274 \246B_\260(*7;\310"
 765      0AF94377 
 765      868ABC20 
 765      A6425FB0 
 765      282A373B 
 766 23e5 B9A827FD 		.ascii	"\271\250'\375\001\033'&E'5\304)hS!\241i\024\260I\370"
 766      011B2726 
 766      452735C4 
 766      29685321 
 766      A16914B0 
 767 23fb 15DA14AF 		.ascii	"\025\332\024\257D\231\213\\\3050\014\302\370\234\002"
 767      44998B5C 
 767      C5300CC2 
 767      F89C02
 768 240a 191E68E3 		.ascii	"\031\036h\343\027\301\253\305\353\357,\371n\376 h\033"
 768      17C1ABC5 
 768      EBEF2CF9 
 768      6EFE2068 
 768      1B
 769 241b 718EF231 		.ascii	"q\216\3621E\333\273\013\373\005\032?\225\370\001\201"
 769      45DBBB0B 
 769      FB051A3F 
 769      95F80181 
 770 242b 5290B21D 		.ascii	"R\220\262\0354)l\007\361\207\235\310A\330A\364+\234"
 770      34296C07 
 770      F1879DC8 
 770      41D841F4 
 770      2B9C
 771 243d D07FD574 		.ascii	"\320\177\325t\005\034\027HO\350\214)o\250\2742HL^:\373"
 771      051C1748 
 771      4FE88C29 
 771      6FA8BC32 
 771      484C5E3A 
 772 2452 B52BFD42 		.ascii	"\265+\375B\014\255\037\2540\210D\233\341\362\227\240"
 772      0CAD1FAC 
 772      3088449B 
 772      E1F297A0 
ARM GAS  /tmp/ccmHKIYO.s 			page 62


 773 2462 3D4E83AB 		.ascii	"=N\203\253\232\227\012i\012N\241p\020\003\251B6&\311"
 773      9A970A69 
 773      0A4EA170 
 773      1003A942 
 773      3626C9
 774 2475 EF2FD091 		.ascii	"\357/\320\221\315\037\302\322\016\274/5T\244hQj~\226"
 774      CD1FC2D2 
 774      0EBC2F35 
 774      54A46851 
 774      6A7E96
 775 2488 A2442E48 		.ascii	"\242D.H\021\035J\201+\252\2055\036q\010!<\336\021(\003"
 775      111D4A81 
 775      2BAA8535 
 775      1E710821 
 775      3CDE1128 
 776 249d 99A96318 		.ascii	"\231\251c\030\370jj2EM\246>\257\216x\220*,\257\004\307"
 776      F86A6A32 
 776      454DA63E 
 776      AF8E7890 
 776      2A2CAF04 
 777 24b2 2598F2BC 		.ascii	"%\230\362\274wTe1\014\006\216\347\275\341\362\012\027"
 777      77546531 
 777      0C068EE7 
 777      BDE1F20A 
 777      17
 778 24c3 DC12AC08 		.ascii	"\334\022\254\010\007\341\032,\202k\352\363e\345\341"
 778      07E11A2C 
 778      826BEAF3 
 778      65E5E1
 779 24d2 40F18B80 		.ascii	"@\361\213\200\362\274\227&\235\317\203\030\312\236s"
 779      F2BC9726 
 779      9DCF8318 
 779      CA9E73
 780 24e1 0610B373 		.ascii	"\006\020\263sye\230\251\326Y\216\011)0J*\037u\307\323"
 780      796598A9 
 780      D6598E09 
 780      29304A2A 
 780      1F75C7D3 
 781 24f5 F9833C05 		.ascii	"\371\203<\005\314\300\360\210}HA\236\307Q\031\362\005"
 781      CCC0F088 
 781      7D48419E 
 781      C75119F2 
 781      05
 782 2506 C35D50C3 		.ascii	"\303]P\303\206\225\005\210\025\202.'\205\212l\245%E"
 782      86950588 
 782      15822E27 
 782      858A6CA5 
 782      2545
 783 2518 52A8A22B 		.ascii	"R\250\242+\371e\210?\034\265\012\235\360V\310\311\311"
 783      F965883F 
 783      1CB50A9D 
 783      F056C8C9 
 783      C9
 784 2529 A7EA9A93 		.ascii	"\247\352\232\223?\002\251/\262d\264|\301\321D\303\307"
 784      3F02A92F 
 784      B264B47C 
 784      C1D144C3 
ARM GAS  /tmp/ccmHKIYO.s 			page 63


 784      C7
 785 253a FAB0193B 		.ascii	"\372\260\031;{\275\243\313*\013\275\312\327\264\177"
 785      7BBDA3CB 
 785      2A0BBDCA 
 785      D7B47F
 786 2549 1B551928 		.ascii	"\033U\031(\011?\024({\\\000\207C\311\005\027t,5bw@\265"
 786      093F1428 
 786      7B5C0087 
 786      43C90517 
 786      742C3562 
 787 2560 5951C3E3 		.ascii	"YQ\303\343\312\361d\347?=\274\300\221\343\361\346>\225"
 787      CAF164E7 
 787      3F3DBCC0 
 787      91E3F1E6 
 787      3E95
 788 2572 063174F1 		.ascii	"\0061t\361\247\274\331\340#Cz\330\310\002\222L\207\344"
 788      A7BCD9E0 
 788      23437AD8 
 788      C802924C 
 788      87E4
 789 2584 C8DC0265 		.ascii	"\310\334\002e2\202_\2749\303\206g+\311\274A\005C\273"
 789      32825FBC 
 789      39C38667 
 789      2BC9BC41 
 789      0543BB
 790 2597 E0DD7F1E 		.ascii	"\340\335\177\0364|X\226w\344\240\021\331\251\004){\344"
 790      347C5896 
 790      77E4A011 
 790      D9A90429 
 790      7BE4
 791 25a9 B0ECAC14 		.ascii	"\260\354\254\024He\377uX~A7\346\226\334\301\177\002"
 791      4865FF75 
 791      587E4137 
 791      E696DCC1 
 791      7F02
 792 25bb 1BD21D72 		.ascii	"\033\322\035r\210\245\310\366\346yr\013 #;\253+sS\226"
 792      88A5C8F6 
 792      E679720B 
 792      20233BAB 
 792      2B735396 
 793 25cf 875821A5 		.ascii	"\207X!\245\356\354\221\203\006\017\247\277+\265\347"
 793      EEEC9183 
 793      060FA7BF 
 793      2BB5E7
 794 25de 3F935F90 		.ascii	"?\223_\220=\202T<\342\251\234|\357\240\301\271\036\000"
 794      3D82543C 
 794      E2A99C7C 
 794      EFA0C1B9 
 794      1E00
 795 25f0 2034150C 		.ascii	" 4\025\014\033\221\235\373t\001\241axn\346S\331Y\335"
 795      1B919DFB 
 795      7401A161 
 795      786EE653 
 795      D959DD
 796 2603 A320B94F 		.ascii	"\243 \271O\017\031\012F\315\223}\027\271/7\327;b\320"
 796      0F190A46 
 796      CD937D17 
ARM GAS  /tmp/ccmHKIYO.s 			page 64


 796      B92F37D7 
 796      3B62D0
 797 2616 C867BCB9 		.ascii	"\310g\274\271y\331#)f\017\246~\030i\201\223\202l\217"
 797      79D92329 
 797      660FA67E 
 797      18698193 
 797      826C8F
 798 2629 A32073E8 		.ascii	"\243 s\350 \217\253\330[J\032\253\023\0100S\261\340"
 798      208FABD8 
 798      5B4A1AAB 
 798      13083053 
 798      B1E0
 799 263b 85630AC6 		.ascii	"\205c\012\306\024\345\227\370\375\025\304\250\344\207"
 799      14E597F8 
 799      FD15C4A8 
 799      E487
 800 2649 411D887C 		.ascii	"A\035\210|sG\375\027\374JT\"\235\3164\250K\327\323\253"
 800      7347FD17 
 800      FC4A5422 
 800      9DCE34A8 
 800      4BD7D3AB 
 801 265d 4CADBC30 		.ascii	"L\255\2740G\031\035,\257\254 \003\252\224\223\357$\220"
 801      47191D2C 
 801      AFAC2003 
 801      AA9493EF 
 801      2490
 802 266f 30CE92D9 		.ascii	"0\316\222\331d\177\030s3q\314\205\270\023\2656y\000"
 802      647F1873 
 802      3371CC85 
 802      B813B536 
 802      7900
 803 2681 21E567FD 		.ascii	"!\345g\375?@\203\340\256"
 803      3F4083E0 
 803      AE
 804              		.text
 805              		.section	.gnu.lto_.symtab.cc4600c20561ae58,"",%progbits
 806 0000 73645F69 		.ascii	"sd_is_card_inserted\000\000\000\000\000\000\000\000"
 806      735F6361 
 806      72645F69 
 806      6E736572 
 806      74656400 
 807 001b 00000000 		.ascii	"\000\000\000\000\227\002\000\000sd_is_write_protect"
 807      97020000 
 807      73645F69 
 807      735F7772 
 807      6974655F 
 808 0036 65640000 		.ascii	"ed\000\000\000\000\000\000\000\000\000\000\000\000\372"
 808      00000000 
 808      00000000 
 808      0000FA
 809 0045 02000073 		.ascii	"\002\000\000sdmmcInitialize\000\000\000\000\000\000"
 809      646D6D63 
 809      496E6974 
 809      69616C69 
 809      7A650000 
 810 005d 00000000 		.ascii	"\000\000\000\000\000\000\376\002\000\000sdmmGetMMCD"
 810      0000FE02 
ARM GAS  /tmp/ccmHKIYO.s 			page 65


 810      00007364 
 810      6D6D4765 
 810      744D4D43 
 811 0072 72697665 		.ascii	"river\000\000\000\000\000\000\000\000\000\000\000\000"
 811      72000000 
 811      00000000 
 811      00000000 
 811      00
 812 0083 B8030000 		.ascii	"\270\003\000\000sdmmcGetFS\000\000\000\000\000\000\000"
 812      73646D6D 
 812      63476574 
 812      46530000 
 812      00000000 
 813 0098 00000000 		.ascii	"\000\000\000\000\000\276\003\000\000sdmmcFSMounted\000"
 813      00BE0300 
 813      0073646D 
 813      6D634653 
 813      4D6F756E 
 814 00b0 00000000 		.ascii	"\000\000\000\000\000\000\000\000\000\000\000\304\003"
 814      00000000 
 814      000000C4 
 814      03
 815 00bd 00005350 		.ascii	"\000\000SPID1\000\000\002\000\000\000\000\000\000\000"
 815      49443100 
 815      00020000 
 815      00000000 
 815      00
 816 00ce 00003204 		.ascii	"\000\0002\004\000\000chvprintf\000\000\002\000\000\000"
 816      00006368 
 816      76707269 
 816      6E746600 
 816      00020000 
 817 00e3 00000000 		.ascii	"\000\000\000\000\000\000\313\003\000\000mmcDisconne"
 817      0000CB03 
 817      00006D6D 
 817      63446973 
 817      636F6E6E 
 818 00f8 63740000 		.ascii	"ct\000\000\002\000\000\000\000\000\000\000\000\000\332"
 818      02000000 
 818      00000000 
 818      0000DA
 819 0107 03000066 		.ascii	"\003\000\000f_mount\000\000\002\000\000\000\000\000"
 819      5F6D6F75 
 819      6E740000 
 819      02000000 
 819      0000
 820 0119 00000000 		.ascii	"\000\000\000\000\334\003\000\000mmcConnect\000\000\002"
 820      DC030000 
 820      6D6D6343 
 820      6F6E6E65 
 820      63740000 
 821 012e 00000000 		.ascii	"\000\000\000\000\000\000\000\000\000\024\004\000\000"
 821      00000000 
 821      00140400 
 821      00
 822 013b 63685468 		.ascii	"chThdSleep\000\000\002\000\000\000\000\000\000\000\000"
 822      64536C65 
ARM GAS  /tmp/ccmHKIYO.s 			page 66


 822      65700000 
 822      02000000 
 822      00000000 
 823 0150 00160400 		.ascii	"\000\026\004\000\000mmcStart\000\000\002\000\000\000"
 823      006D6D63 
 823      53746172 
 823      74000002 
 823      000000
 824 0163 00000000 		.ascii	"\000\000\000\000\000\000\032\004\000\000mmcObjectIn"
 824      00001A04 
 824      00006D6D 
 824      634F626A 
 824      65637449 
 825 0178 69740000 		.ascii	"it\000\000\002\000\000\000\000\000\000\000\000\000\037"
 825      02000000 
 825      00000000 
 825      00001F
 826 0187 0400005F 		.ascii	"\004\000\000_pal_lld_setgroupmode\000\000\002\000\000"
 826      70616C5F 
 826      6C6C645F 
 826      73657467 
 826      726F7570 
 827 01a4 00000000 		.ascii	"\000\000\000\000\000\000\000#\004\000\000"
 827      00000023 
 827      040000
 828              		.text
 829              		.section	.gnu.lto_.opts,"",%progbits
 830 0000 272D6D63 		.ascii	"'-mcpu=cortex-m4' '-mfloat-abi=hard' '-mfpu=fpv4-sp"
 830      70753D63 
 830      6F727465 
 830      782D6D34 
 830      2720272D 
 831 0033 2D643136 		.ascii	"-d16' '-mno-thumb-interwork' '-mthumb' '-O2' '-fomi"
 831      2720272D 
 831      6D6E6F2D 
 831      7468756D 
 831      622D696E 
 832 0066 742D6672 		.ascii	"t-frame-pointer' '-falign-functions=16' '-ffunction"
 832      616D652D 
 832      706F696E 
 832      74657227 
 832      20272D66 
 833 0099 2D736563 		.ascii	"-sections' '-fdata-sections' '-fno-common' '-flto' "
 833      74696F6E 
 833      73272027 
 833      2D666461 
 833      74612D73 
 834 00cc 272D6673 		.ascii	"'-fsingle-precision-constant'\000"
 834      696E676C 
 834      652D7072 
 834      65636973 
 834      696F6E2D 
 835              		.text
 836              		.section	.text.chprintf,"ax",%progbits
 837              		.align	2
 838              		.p2align 4,,15
 839              		.thumb
ARM GAS  /tmp/ccmHKIYO.s 			page 67


 840              		.thumb_func
 841              		.type	chprintf, %function
 842              	chprintf:
 843              		@ args = 4, pretend = 12, frame = 8
 844              		@ frame_needed = 0, uses_anonymous_args = 1
 845 0000 0EB4     		push	{r1, r2, r3}
 846 0002 00B5     		push	{lr}
 847 0004 82B0     		sub	sp, sp, #8
 848 0006 03AA     		add	r2, sp, #12
 849 0008 52F8041B 		ldr	r1, [r2], #4
 850 000c 0192     		str	r2, [sp, #4]
 851 000e FFF7FEFF 		bl	chvprintf
 852 0012 02B0     		add	sp, sp, #8
 853              		@ sp needed
 854 0014 5DF804EB 		ldr	lr, [sp], #4
 855 0018 03B0     		add	sp, sp, #12
 856 001a 7047     		bx	lr
 857              		.size	chprintf, .-chprintf
 858 001c AFF30080 		.section	.text.sd_is_card_inserted,"ax",%progbits
 859              		.align	2
 860              		.p2align 4,,15
 861              		.global	sd_is_card_inserted
 862              		.thumb
 863              		.thumb_func
 864              		.type	sd_is_card_inserted, %function
 865              	sd_is_card_inserted:
 866              		@ args = 0, pretend = 0, frame = 0
 867              		@ frame_needed = 0, uses_anonymous_args = 0
 868              		@ link register save eliminated.
 869 0000 024B     		ldr	r3, .L3
 870 0002 1869     		ldr	r0, [r3, #16]
 871 0004 C0F3C010 		ubfx	r0, r0, #7, #1
 872 0008 7047     		bx	lr
 873              	.L4:
 874 000a 00BF     		.align	2
 875              	.L3:
 876 000c 00080240 		.word	1073874944
 877              		.size	sd_is_card_inserted, .-sd_is_card_inserted
 878              		.section	.text.sd_is_write_protected,"ax",%progbits
 879              		.align	2
 880              		.p2align 4,,15
 881              		.global	sd_is_write_protected
 882              		.thumb
 883              		.thumb_func
 884              		.type	sd_is_write_protected, %function
 885              	sd_is_write_protected:
 886              		@ args = 0, pretend = 0, frame = 0
 887              		@ frame_needed = 0, uses_anonymous_args = 0
 888              		@ link register save eliminated.
 889 0000 024B     		ldr	r3, .L6
 890 0002 1869     		ldr	r0, [r3, #16]
 891 0004 C0F34020 		ubfx	r0, r0, #9, #1
 892 0008 7047     		bx	lr
 893              	.L7:
 894 000a 00BF     		.align	2
 895              	.L6:
 896 000c 00000240 		.word	1073872896
ARM GAS  /tmp/ccmHKIYO.s 			page 68


 897              		.size	sd_is_write_protected, .-sd_is_write_protected
 898              		.section	.text.sdmmcInitialize,"ax",%progbits
 899              		.align	2
 900              		.p2align 4,,15
 901              		.global	sdmmcInitialize
 902              		.thumb
 903              		.thumb_func
 904              		.type	sdmmcInitialize, %function
 905              	sdmmcInitialize:
 906              		@ args = 0, pretend = 0, frame = 0
 907              		@ frame_needed = 0, uses_anonymous_args = 0
 908 0000 F8B5     		push	{r3, r4, r5, r6, r7, lr}
 909 0002 0446     		mov	r4, r0
 910 0004 354D     		ldr	r5, .L22
 911 0006 364F     		ldr	r7, .L22+4
 912 0008 DFF804E1 		ldr	lr, .L22+52
 913 000c 3548     		ldr	r0, .L22+8
 914 000e 364E     		ldr	r6, .L22+12
 915 0010 2160     		str	r1, [r4]
 916 0012 0023     		movs	r3, #0
 917 0014 A360     		str	r3, [r4, #8]
 918 0016 6373     		strb	r3, [r4, #13]
 919 0018 6060     		str	r0, [r4, #4]
 920 001a 2A60     		str	r2, [r5]
 921 001c 3846     		mov	r0, r7
 922 001e 4021     		movs	r1, #64
 923 0020 1922     		movs	r2, #25
 924 0022 CEF80040 		str	r4, [lr]
 925 0026 FFF7FEFF 		bl	_pal_lld_setgroupmode
 926 002a 3046     		mov	r0, r6
 927 002c 8021     		movs	r1, #128
 928 002e 2022     		movs	r2, #32
 929 0030 FFF7FEFF 		bl	_pal_lld_setgroupmode
 930 0034 2D48     		ldr	r0, .L22+16
 931 0036 2021     		movs	r1, #32
 932 0038 40F29A22 		movw	r2, #666
 933 003c FFF7FEFF 		bl	_pal_lld_setgroupmode
 934 0040 2A48     		ldr	r0, .L22+16
 935 0042 8021     		movs	r1, #128
 936 0044 40F29A22 		movw	r2, #666
 937 0048 FFF7FEFF 		bl	_pal_lld_setgroupmode
 938 004c 4021     		movs	r1, #64
 939 004e 40F28222 		movw	r2, #642
 940 0052 2648     		ldr	r0, .L22+16
 941 0054 FFF7FEFF 		bl	_pal_lld_setgroupmode
 942 0058 2068     		ldr	r0, [r4]
 943 005a FFF7FEFF 		bl	mmcObjectInit
 944 005e 2068     		ldr	r0, [r4]
 945 0060 2349     		ldr	r1, .L22+20
 946 0062 FFF7FEFF 		bl	mmcStart
 947 0066 3369     		ldr	r3, [r6, #16]
 948 0068 1B06     		lsls	r3, r3, #24
 949 006a 1FD5     		bpl	.L19
 950 006c 2149     		ldr	r1, .L22+24
 951 006e 2868     		ldr	r0, [r5]
 952 0070 FFF7FEFF 		bl	chprintf
 953 0074 4023     		movs	r3, #64
ARM GAS  /tmp/ccmHKIYO.s 			page 69


 954 0076 7B83     		strh	r3, [r7, #26]	@ movhi
 955 0078 4FF4FA60 		mov	r0, #2000
 956 007c FFF7FEFF 		bl	chThdSleep
 957 0080 2068     		ldr	r0, [r4]
 958 0082 FFF7FEFF 		bl	mmcConnect
 959 0086 0746     		mov	r7, r0
 960 0088 B8B9     		cbnz	r0, .L20
 961 008a 1B48     		ldr	r0, .L22+28
 962 008c A060     		str	r0, [r4, #8]
 963 008e 1B49     		ldr	r1, .L22+32
 964 0090 3A46     		mov	r2, r7
 965 0092 FFF7FEFF 		bl	f_mount
 966 0096 0646     		mov	r6, r0
 967 0098 2868     		ldr	r0, [r5]
 968 009a B6B9     		cbnz	r6, .L21
 969 009c 1849     		ldr	r1, .L22+36
 970 009e FFF7FEFF 		bl	chprintf
 971 00a2 0123     		movs	r3, #1
 972 00a4 3046     		mov	r0, r6
 973 00a6 6373     		strb	r3, [r4, #13]
 974              	.L11:
 975 00a8 40B2     		sxtb	r0, r0
 976 00aa F8BD     		pop	{r3, r4, r5, r6, r7, pc}
 977              	.L19:
 978 00ac 2868     		ldr	r0, [r5]
 979 00ae 1549     		ldr	r1, .L22+40
 980 00b0 FFF7FEFF 		bl	chprintf
 981 00b4 FD20     		movs	r0, #253
 982 00b6 40B2     		sxtb	r0, r0
 983 00b8 F8BD     		pop	{r3, r4, r5, r6, r7, pc}
 984              	.L20:
 985 00ba 2868     		ldr	r0, [r5]
 986 00bc 1249     		ldr	r1, .L22+44
 987 00be 0122     		movs	r2, #1
 988 00c0 FFF7FEFF 		bl	chprintf
 989 00c4 0120     		movs	r0, #1
 990 00c6 40B2     		sxtb	r0, r0
 991 00c8 F8BD     		pop	{r3, r4, r5, r6, r7, pc}
 992              	.L21:
 993 00ca 1049     		ldr	r1, .L22+48
 994 00cc FFF7FEFF 		bl	chprintf
 995 00d0 2068     		ldr	r0, [r4]
 996 00d2 FFF7FEFF 		bl	mmcDisconnect
 997 00d6 A760     		str	r7, [r4, #8]
 998 00d8 FE20     		movs	r0, #254
 999 00da E5E7     		b	.L11
 1000              	.L23:
 1001              		.align	2
 1002              	.L22:
 1003 00dc 00000000 		.word	.LANCHOR0
 1004 00e0 00040240 		.word	1073873920
 1005 00e4 00000000 		.word	SPID1
 1006 00e8 00080240 		.word	1073874944
 1007 00ec 00000240 		.word	1073872896
 1008 00f0 00000000 		.word	.LANCHOR2
 1009 00f4 7C000000 		.word	.LC5
 1010 00f8 00000000 		.word	.LANCHOR3
ARM GAS  /tmp/ccmHKIYO.s 			page 70


 1011 00fc 20000000 		.word	.LC1
 1012 0100 44000000 		.word	.LC3
 1013 0104 60000000 		.word	.LC4
 1014 0108 00000000 		.word	.LC0
 1015 010c 24000000 		.word	.LC2
 1016 0110 00000000 		.word	.LANCHOR1
 1017              		.size	sdmmcInitialize, .-sdmmcInitialize
 1018 0114 AFF30080 		.section	.text.sdmmGetMMCDriver,"ax",%progbits
 1018      AFF30080 
 1018      AFF30080 
 1019              		.align	2
 1020              		.p2align 4,,15
 1021              		.global	sdmmGetMMCDriver
 1022              		.thumb
 1023              		.thumb_func
 1024              		.type	sdmmGetMMCDriver, %function
 1025              	sdmmGetMMCDriver:
 1026              		@ args = 0, pretend = 0, frame = 0
 1027              		@ frame_needed = 0, uses_anonymous_args = 0
 1028              		@ link register save eliminated.
 1029 0000 037B     		ldrb	r3, [r0, #12]	@ zero_extendqisi2
 1030 0002 0BB1     		cbz	r3, .L26
 1031 0004 0068     		ldr	r0, [r0]
 1032 0006 7047     		bx	lr
 1033              	.L26:
 1034 0008 1846     		mov	r0, r3
 1035 000a 7047     		bx	lr
 1036              		.size	sdmmGetMMCDriver, .-sdmmGetMMCDriver
 1037 000c AFF30080 		.section	.text.sdmmcGetFS,"ax",%progbits
 1038              		.align	2
 1039              		.p2align 4,,15
 1040              		.global	sdmmcGetFS
 1041              		.thumb
 1042              		.thumb_func
 1043              		.type	sdmmcGetFS, %function
 1044              	sdmmcGetFS:
 1045              		@ args = 0, pretend = 0, frame = 0
 1046              		@ frame_needed = 0, uses_anonymous_args = 0
 1047              		@ link register save eliminated.
 1048 0000 437B     		ldrb	r3, [r0, #13]	@ zero_extendqisi2
 1049 0002 0BB1     		cbz	r3, .L29
 1050 0004 8068     		ldr	r0, [r0, #8]
 1051 0006 7047     		bx	lr
 1052              	.L29:
 1053 0008 1846     		mov	r0, r3
 1054 000a 7047     		bx	lr
 1055              		.size	sdmmcGetFS, .-sdmmcGetFS
 1056 000c AFF30080 		.section	.text.sdmmcFSMounted,"ax",%progbits
 1057              		.align	2
 1058              		.p2align 4,,15
 1059              		.global	sdmmcFSMounted
 1060              		.thumb
 1061              		.thumb_func
 1062              		.type	sdmmcFSMounted, %function
 1063              	sdmmcFSMounted:
 1064              		@ args = 0, pretend = 0, frame = 0
 1065              		@ frame_needed = 0, uses_anonymous_args = 0
ARM GAS  /tmp/ccmHKIYO.s 			page 71


 1066              		@ link register save eliminated.
 1067 0000 407B     		ldrb	r0, [r0, #13]	@ zero_extendqisi2
 1068 0002 7047     		bx	lr
 1069              		.size	sdmmcFSMounted, .-sdmmcFSMounted
 1070 0004 AFF30080 		.section	.data.hsCfg,"aw",%progbits
 1070      AFF30080 
 1070      AFF30080 
 1071              		.align	2
 1072              		.type	hsCfg, %object
 1073              		.size	hsCfg, 12
 1074              	hsCfg:
 1075 0000 00000000 		.word	0
 1076 0004 00040240 		.word	1073873920
 1077 0008 0600     		.short	6
 1078 000a 1000     		.short	16
 1079              		.section	.data.mmcCfg,"aw",%progbits
 1080              		.align	2
 1081              		.set	.LANCHOR2,. + 0
 1082              		.type	mmcCfg, %object
 1083              		.size	mmcCfg, 12
 1084              	mmcCfg:
 1085 0000 00000000 		.word	SPID1
 1086 0004 00000000 		.word	lsCfg
 1087 0008 00000000 		.word	hsCfg
 1088              		.section	.bss.serialPort,"aw",%nobits
 1089              		.align	2
 1090              		.set	.LANCHOR0,. + 0
 1091              		.type	serialPort, %object
 1092              		.size	serialPort, 4
 1093              	serialPort:
 1094 0000 00000000 		.space	4
 1095              		.section	.bss.SD,"aw",%nobits
 1096              		.align	2
 1097              		.set	.LANCHOR1,. + 0
 1098              		.type	SD, %object
 1099              		.size	SD, 4
 1100              	SD:
 1101 0000 00000000 		.space	4
 1102              		.section	.rodata.str1.4,"aMS",%progbits,1
 1103              		.align	2
 1104              	.LC0:
 1105 0000 53442F4D 		.ascii	"SD/MMC:ERROR Connect,ERR%02d\012\000"
 1105      4D433A45 
 1105      52524F52 
 1105      20436F6E 
 1105      6E656374 
 1106 001e 0000     		.space	2
 1107              	.LC1:
 1108 0020 2F00     		.ascii	"/\000"
 1109 0022 0000     		.space	2
 1110              	.LC2:
 1111 0024 53442F4D 		.ascii	"SD/MMC:File System Mount Error\012\000"
 1111      4D433A46 
 1111      696C6520 
 1111      53797374 
 1111      656D204D 
 1112              	.LC3:
ARM GAS  /tmp/ccmHKIYO.s 			page 72


 1113 0044 53442F4D 		.ascii	"SD/MMC:File System Mounted\012\000"
 1113      4D433A46 
 1113      696C6520 
 1113      53797374 
 1113      656D204D 
 1114              	.LC4:
 1115 0060 53442F4D 		.ascii	"SD/MMC:No SD Card Found\012\000"
 1115      4D433A4E 
 1115      6F205344 
 1115      20436172 
 1115      6420466F 
 1116 0079 000000   		.space	3
 1117              	.LC5:
 1118 007c 53442F4D 		.ascii	"SD/MMC:Card Found\012\000"
 1118      4D433A43 
 1118      61726420 
 1118      466F756E 
 1118      640A00
 1119 008f 00       		.section	.data.lsCfg,"aw",%progbits
 1120              		.align	2
 1121              		.type	lsCfg, %object
 1122              		.size	lsCfg, 12
 1123              	lsCfg:
 1124 0000 00000000 		.word	0
 1125 0004 00040240 		.word	1073873920
 1126 0008 0600     		.short	6
 1127 000a 3000     		.short	48
 1128              		.section	.bss.FS,"aw",%nobits
 1129              		.align	2
 1130              		.set	.LANCHOR3,. + 0
 1131              		.type	FS, %object
 1132              		.size	FS, 560
 1133              	FS:
 1134 0000 00000000 		.space	560
 1134      00000000 
 1134      00000000 
 1134      00000000 
 1134      00000000 
 1135              		.comm	__gnu_lto_v1,1,1
 1136              		.ident	"GCC: (GNU Tools for ARM Embedded Processors) 4.8.4 20140526 (release) [ARM/embedded-4_8-br
ARM GAS  /tmp/ccmHKIYO.s 			page 73


DEFINED SYMBOLS
                            *ABS*:0000000000000000 sdmmcsimple.c
     /tmp/ccmHKIYO.s:837    .text.chprintf:0000000000000000 $t
     /tmp/ccmHKIYO.s:842    .text.chprintf:0000000000000000 chprintf
     /tmp/ccmHKIYO.s:859    .text.sd_is_card_inserted:0000000000000000 $t
     /tmp/ccmHKIYO.s:865    .text.sd_is_card_inserted:0000000000000000 sd_is_card_inserted
     /tmp/ccmHKIYO.s:876    .text.sd_is_card_inserted:000000000000000c $d
     /tmp/ccmHKIYO.s:879    .text.sd_is_write_protected:0000000000000000 $t
     /tmp/ccmHKIYO.s:885    .text.sd_is_write_protected:0000000000000000 sd_is_write_protected
     /tmp/ccmHKIYO.s:896    .text.sd_is_write_protected:000000000000000c $d
     /tmp/ccmHKIYO.s:899    .text.sdmmcInitialize:0000000000000000 $t
     /tmp/ccmHKIYO.s:905    .text.sdmmcInitialize:0000000000000000 sdmmcInitialize
     /tmp/ccmHKIYO.s:1003   .text.sdmmcInitialize:00000000000000dc $d
     /tmp/ccmHKIYO.s:1019   .text.sdmmGetMMCDriver:0000000000000000 $t
     /tmp/ccmHKIYO.s:1025   .text.sdmmGetMMCDriver:0000000000000000 sdmmGetMMCDriver
     /tmp/ccmHKIYO.s:1038   .text.sdmmcGetFS:0000000000000000 $t
     /tmp/ccmHKIYO.s:1044   .text.sdmmcGetFS:0000000000000000 sdmmcGetFS
     /tmp/ccmHKIYO.s:1057   .text.sdmmcFSMounted:0000000000000000 $t
     /tmp/ccmHKIYO.s:1063   .text.sdmmcFSMounted:0000000000000000 sdmmcFSMounted
     /tmp/ccmHKIYO.s:1071   .data.hsCfg:0000000000000000 $d
     /tmp/ccmHKIYO.s:1074   .data.hsCfg:0000000000000000 hsCfg
     /tmp/ccmHKIYO.s:1080   .data.mmcCfg:0000000000000000 $d
     /tmp/ccmHKIYO.s:1084   .data.mmcCfg:0000000000000000 mmcCfg
     /tmp/ccmHKIYO.s:1123   .data.lsCfg:0000000000000000 lsCfg
     /tmp/ccmHKIYO.s:1089   .bss.serialPort:0000000000000000 $d
     /tmp/ccmHKIYO.s:1093   .bss.serialPort:0000000000000000 serialPort
     /tmp/ccmHKIYO.s:1096   .bss.SD:0000000000000000 $d
     /tmp/ccmHKIYO.s:1100   .bss.SD:0000000000000000 SD
     /tmp/ccmHKIYO.s:1103   .rodata.str1.4:0000000000000000 $d
     /tmp/ccmHKIYO.s:1120   .data.lsCfg:0000000000000000 $d
     /tmp/ccmHKIYO.s:1129   .bss.FS:0000000000000000 $d
     /tmp/ccmHKIYO.s:1133   .bss.FS:0000000000000000 FS
                            *COM*:0000000000000001 __gnu_lto_v1
     /tmp/ccmHKIYO.s:1018   .text.sdmmcInitialize:0000000000000114 $t

UNDEFINED SYMBOLS
chvprintf
_pal_lld_setgroupmode
mmcObjectInit
mmcStart
chThdSleep
mmcConnect
f_mount
mmcDisconnect
SPID1
