ARM GAS  /tmp/ccDZNm8G.s 			page 1


   1              		.syntax unified
   2              		.cpu cortex-m4
   3              		.eabi_attribute 27, 3
   4              		.eabi_attribute 28, 1
   5              		.fpu fpv4-sp-d16
   6              		.eabi_attribute 20, 1
   7              		.eabi_attribute 21, 1
   8              		.eabi_attribute 23, 3
   9              		.eabi_attribute 24, 1
  10              		.eabi_attribute 25, 1
  11              		.eabi_attribute 26, 1
  12              		.eabi_attribute 30, 2
  13              		.eabi_attribute 34, 1
  14              		.eabi_attribute 18, 4
  15              		.thumb
  16              		.file	"sdmmcsimple.c"
  17              		.section	.gnu.lto_.jmpfuncs.976c78eeb28e6291,"",%progbits
  18 0000 789C7591 		.ascii	"x\234u\2211K\0031\024\307\337\273\264\266\275\252mm"
  18      314B0331 
  18      14C7DFBB 
  18      B4B6BDAA 
  18      6D6D
  19 0012 97A28420 		.ascii	"\227\242\204 \272\011\025'q\022\256\355V\205vQp)\366"
  19      BA091527 
  19      7112AEED 
  19      56857651 
  19      7029F6
  20 0025 94039BC8 		.ascii	"\224\003\233\310y\026\304%8ut\021\212\340\367\360C8"
  20      7916C425 
  20      38757411 
  20      8AE0F7F0 
  20      4338
  21 0037 F80DFC1E 		.ascii	"\370\015\374\036N\346.I\275\323\366\226\274\344\367"
  21      4EE62E49 
  21      BDD3F696 
  21      BCE4F7
  22 0046 7FFFBC7F 		.ascii	"\177\377\274\177\316\001\007\026};\352\370K\255\005"
  22      CE010716 
  22      7D3BEAF8 
  22      4BAD05
  23 0055 20084088 		.ascii	" \010@\210*'j\005\300I\214\025u\3160\300\270F\265#\205"
  23      2A276A05 
  23      C0498C15 
  23      75CE30C0 
  23      B846B523 
  24 006a F8E411BE 		.ascii	"\370\344\021\276\345LV\003D\012\370&g\307\001j\367\014"
  24      E54C5603 
  24      440AF826 
  24      67C7016A 
  24      F70C
  25 007c 24143635 		.ascii	"$\02465\314\201\356\317\362<\205C\315W\022N\0224\215"
  25      CC81EECF 
  25      F23C8543 
  25      CD57124E 
  25      12348D
  26 008f 51618CDA 		.ascii	"Qa\214\332o..R8\327\342\222&\361T\356\337+\325<\027"
  26      6F2E2E52 
ARM GAS  /tmp/ccDZNm8G.s 			page 2


  26      38D7E292 
  26      26F154EE 
  26      DF2BD53C 
  27 00a4 E979481A 		.ascii	"\351yH\032\226)L4\\5\3413\275k\024^L\230\365\205\363"
  27      96294C34 
  27      5C35E133 
  27      BD6B145E 
  27      4C98F585 
  28 00b9 5628BC1B 		.ascii	"V(\274\033AU\013\222!j\237\225\377\302\217\214\320\322"
  28      41550B92 
  28      216A9F95 
  28      FFC28F8C 
  28      D0D2
  29 00cb 24DBC618 		.ascii	"$\333\306\030\315s\252\304\261A]>Oe\316D\252\311\252"
  29      CD73AAC4 
  29      B1415D3E 
  29      4F65CE44 
  29      AAC9AA
  30 00de A91A4FF9 		.ascii	"\251\032O\371%\012f\025\257\313\024\305E\212YJa\213"
  30      250A6615 
  30      AFCB14C5 
  30      458A594A 
  30      618B
  31 00f0 06FBE532 		.ascii	"\006\373\3452\355 \355\237o4\001J\350b\031\2419h\267"
  31      ED20ED9F 
  31      6F34014A 
  31      E86219A1 
  31      3968B7
  32 0103 7A3DEFE8 		.ascii	"z=\357\350D\260A\233y\303p\304\272\342\236\217\\\330"
  32      44B0419B 
  32      79C370C4 
  32      BAE29E8F 
  32      5CD8
  33 0115 32A41BDC 		.ascii	"2\244\033\334\370l\360p\027\371c\326S(\362\025d\313"
  33      F86CF070 
  33      17F963D6 
  33      5328F215 
  33      64CB
  34 0127 20EB84A1 		.ascii	" \353\204\241\010]pZsk\346\011\316\375\313(\020\234"
  34      085D705A 
  34      736BE609 
  34      CEFDCB28 
  34      109C
  35 0139 B505F75D 		.ascii	"\265\005\367]\240\206t\372\375\323\276\305{j\267\273"
  35      A08674FA 
  35      FDD3BEC5 
  35      7B6AB7BB 
  36 0149 7FA0CCB7 		.ascii	"\177\240\314\267-\346#&\256\322\355\303H]t\033\271P"
  36      2DE62326 
  36      AED2EDC3 
  36      485D741B 
  36      B950
  37 015b 3712CBF8 		.ascii	"7\022\313\370u\352,\025\342\007*P\246/"
  37      75EA2C15 
  37      E2072A50 
  37      A62F
  38              		.text
ARM GAS  /tmp/ccDZNm8G.s 			page 3


  39              		.section	.gnu.lto_.inline.976c78eeb28e6291,"",%progbits
  40 0000 789C6362 		.ascii	"x\234cb`b\300\006v0Bhv\006\026n\031\006\260\"\266\005"
  40      6062C006 
  40      76304268 
  40      7606166E 
  40      1906B022 
  41 0016 F270B58C 		.ascii	"\362p\265\214\014\254|\014\014\314\023\374@\220\231"
  41      0CAC7C0C 
  41      0CCC13FC 
  41      409099
  42 0025 07AC8091 		.ascii	"\007\254\200\221\201\203\235\221\201\211k\202\037\\"
  42      81839D91 
  42      81896B82 
  42      1F5C
  43 0033 2913033B 		.ascii	")\023\003;\033P\210\343\200\035\\\210\231\341\021\303"
  43      1B5088E3 
  43      801D5C88 
  43      99E111C3 
  44 0043 3946A0A0 		.ascii	"9F\240\240\371\233;L\014\202\357\022!\242 #\200\032"
  44      F99B3B4C 
  44      0C82EF12 
  44      21A22023 
  44      801A
  45 0055 61341337 		.ascii	"a4\0237\320<\250\311@.\3302$e,\274`\313\031\020*@4\222"
  45      D03CA8C9 
  45      402ED832 
  45      24652CBC 
  45      60CB1910 
  46 006d 06B07E5C 		.ascii	"\006\260~\\\246\202u\003M#Ds\202\\\317\302\220\021\301"
  46      A6827503 
  46      4D234473 
  46      825CCFC2 
  46      9011C1
  47 0080 98C9280A 		.ascii	"\230\311(\012\024J`HG0\031\341$\003\033,p\030_\260\013"
  47      144A6048 
  47      473019E1 
  47      24031B2C 
  47      70185FB0 
  48 0095 3031B076 		.ascii	"01\260v\250\01300\266\260+\2600A(\220\007\271\320\314"
  48      A80B3030 
  48      B6B02BB0 
  48      30412890 
  48      07B9D0CC 
  49 00a9 CA409895 		.ascii	"\312@\230\225\0016\005B:\020c\0267\003\01330\004\301"
  49      01360542 
  49      3A106316 
  49      37030B33 
  49      3004C1
  50 00bc BA5890D4 		.ascii	"\272X\220\324\263@Hp\004\001\000\207\376,\324"
  50      B3404870 
  50      04010087 
  50      FE2CD4
  51              		.text
  52              		.section	.gnu.lto_.pureconst.976c78eeb28e6291,"",%progbits
  53 0000 789C6362 		.ascii	"x\234cb`b\340g\200\000v\006\011F)&)f)NV.VnV\000\007"
  53      6062E067 
  53      80007606 
ARM GAS  /tmp/ccDZNm8G.s 			page 4


  53      09462926 
  53      2966294E 
  54 001b 1400B4   		.ascii	"\024\000\264"
  55              		.text
  56              		.section	.gnu.lto_chprintf.976c78eeb28e6291,"",%progbits
  57 0000 789C8550 		.ascii	"x\234\205P\315J\002Q\024>\337\0355uc\333v\342\0034\213"
  57      CD4A0251 
  57      143EDF1D 
  57      357563DB 
  57      76E20334 
  58 0015 22E80D7A 		.ascii	"\"\350\015z\000\203Z\3058\216z\011\035\321Q\260\026"
  58      00835AC5 
  58      388E7A09 
  58      1DD151B0 
  58      16
  59 0026 5EC1C245 		.ascii	"^\301\302E\013ig\021)\321:\244\027\030\202\332DI\273"
  59      0B696711 
  59      29D13AA4 
  59      171882DA 
  59      4449BB
  60 0039 162D2497 		.ascii	"\026-$\227\265h\321*\202\351\336\031\024\372\201\016"
  60      B568D12A 
  60      82E9DE19 
  60      14FA810E 
  61 0049 DC7B7EBE 		.ascii	"\334{~\276s\276\363\303\210\321OY\220o\010\2425\251"
  61      73BEF3C3 
  61      88D14F59 
  61      906F08A2 
  61      35A9
  62 005b A11158F7 		.ascii	"\241\021X\367\236\250\025e\2002\010\324dhnB\245\262"
  62      9EA81565 
  62      803208D4 
  62      64686E42 
  62      A5B2
  63 006d 140D84DB 		.ascii	"\024\015\204\333\035_O\036\321\023n\273/>=\017\340\220"
  63      1D5F4F1E 
  63      D1136EBB 
  63      2F3E3D0F 
  63      E090
  64 007f B42B2013 		.ascii	"\264+ \023\264!\035$}\305B\337\373\250Z\321uOon!\016"
  64      B4211D24 
  64      7DC542DF 
  64      FBA85AD1 
  64      754F6F6E 
  65 0095 45EBCDF3 		.ascii	"E\353\315\363\022\034\032\243\325\377\012/\230\373\354"
  65      121C1AA3 
  65      D5FF0A2F 
  65      98FBEC
  66 00a4 794FC3F7 		.ascii	"yO\303\367\203W\364XLC\021\024\222\037\"d\340\014)\225"
  66      8357F458 
  66      4C431114 
  66      921F2264 
  66      E00C2995 
  67 00b8 13A6B624 		.ascii	"\023\246\266$O\032\030H\177\0325\375\241\323\362W\233"
  67      4F1A1848 
  67      7F1A35FD 
  67      A1D3F257 
ARM GAS  /tmp/ccDZNm8G.s 			page 5


  67      9B
  68 00c9 AC8329AD 		.ascii	"\254\203)\255\215ho\3343\015\234#,\321]\372\020\035"
  68      8D686FDC 
  68      330D9C23 
  68      2CD15DFA 
  68      101D
  69 00db 31CF1132 		.ascii	"1\317\0212\341\247\313\310\016Gx\312\344g\251\2514\""
  69      E1A7CBC8 
  69      0E4778CA 
  69      E467A9A9 
  69      3422
  70 00ed 2E3BD288 		.ascii	".;\322\210\366\307G\223x\200\344\021\231\021\314\231"
  70      F6C74793 
  70      7880E411 
  70      9911CC99 
  71 00fd 088E9B87 		.ascii	"\010\216\233\207\226G( \340\210\252\222\366\370\370"
  71      96472820 
  71      E088AA92 
  71      F6F8F8
  72 010c 77C798A9 		.ascii	"w\307\230\251H\377\356\310\021'\272\243\253\027\026"
  72      48FFEEC8 
  72      1127BAA3 
  72      AB1716
  73 011b 04027099 		.ascii	"\004\002p\231.EG\235[\312\003\265\372'\332l\214\340"
  73      2E45479D 
  73      5BCA03B5 
  73      FA27DA6C 
  73      8CE0
  74 012d 5469B983 		.ascii	"Ti\271\203\334Q\315\261\244\027\354\242\245\233v\266"
  74      DC51CDB1 
  74      A417ECA2 
  74      A59B76B6 
  75 013d A167ADBA 		.ascii	"\241g\255\272n\026x\206\333U\335\251\324J\333\2724\352"
  75      6E167886 
  75      DB55DDA9 
  75      D44ADBBA 
  75      34EA
  76 014f 4685DBB5 		.ascii	"F\205\333\265\252\004\312\025^rr\213\005bF9\221\263"
  76      AA04CA15 
  76      5E72728B 
  76      05624639 
  76      91B3
  77 0161 2B45C371 		.ascii	"+E\303q\254\354V\246\341X\325/\251H\201#"
  77      ACEC56A6 
  77      E158D52F 
  77      A9488123 
  78              		.text
  79              		.section	.gnu.lto_sd_is_card_inserted.976c78eeb28e6291,"",%progbits
  80 0000 789C5D50 		.ascii	"x\234]P\273JCA\020=gf\257\212\004\365\003D\354\005\003"
  80      BB4A4341 
  80      103D6766 
  80      AF8A04F5 
  80      0344EC05 
  81 0015 FE884D02 		.ascii	"\376\210M\002Z\352U\302\005/\010\371\200l0\202e\312"
  81      5AEA55C2 
  81      052F08F9 
  81      806C3082 
ARM GAS  /tmp/ccDZNm8G.s 			page 6


  81      65CA
  82 0027 A022D88A 		.ascii	"\240\"\330\212$\037\240\205\210\205M\204@\032\203\205"
  82      241FA085 
  82      88854D84 
  82      401A8385 
  83 0037 9D9F1167 		.ascii	"\235\237\021g6$\210\013{f\230s\346)\020\374\177{\366"
  83      3624880B 
  83      7B669873 
  83      E62910FC 
  83      7F7BF6
  84 004a 37096C98 		.ascii	"7\011l\230e\006J\367\003h\257\210\204\347-\304U\035"
  84      65064AF7 
  84      0368AF88 
  84      84E72DC4 
  84      551D
  85 005c 57112BCA 		.ascii	"W\021+\3120\013\007\322\035\020-\321\300\326!S\221\201"
  85      300B07D2 
  85      1D102DD1 
  85      C0D62153 
  85      9181
  86 006e BC7C4FA7 		.ascii	"\274|O\247\375\257\313\311\362\022Q\020j\300\340\220"
  86      FDAFCBC9 
  86      F2125110 
  86      6AC0E090 
  87 007e 39982443 		.ascii	"9\230$C'\306\3566\220\247\224\232\241W\252S\334\352"
  87      27C6EE36 
  87      90A7949A 
  87      A157AA53 
  87      DCEA
  88 0090 10AF93DE 		.ascii	"\020\257\223\336]\345\210\367\226\321\240\356\340!v"
  88      5DE588F7 
  88      96D1A0EE 
  88      E02176
  89 009f 58506E70 		.ascii	"XPnpmF\017\014B\354]\305\200\344\246\266\307\234o1\304"
  89      6D460F0C 
  89      42EC5DC5 
  89      80E4A6B6 
  89      C79C6F31 
  90 00b4 455FE7C9 		.ascii	"E_\347\311\2411\323g2c\236\026Lf\2443i\242w\274\375"
  90      A131D367 
  90      32639E16 
  90      4C66A433 
  90      69A277BC 
  91 00c9 B4D71754 		.ascii	"\264\327\027T\212\377\275L\215\212qU\353\326\314'\034"
  91      8AFFBD4C 
  91      8D8A7155 
  91      EBD6CC27 
  91      1C
  92 00da D9FA3061 		.ascii	"\331\3720a\322|\202\256\267;\310\355~\362\000}\034\320"
  92      D27C82AE 
  92      B73BC8ED 
  92      7EF2007D 
  92      1CD0
  93 00ec B3E8726F 		.ascii	"\263\350ro\275\326<)\313\274Y\224\347g\247\2739~\001"
  93      BDD63C29 
  93      CBBC5994 
  93      E767A7BB 
ARM GAS  /tmp/ccDZNm8G.s 			page 7


  93      397E01
  94 00ff E29F4544 		.ascii	"\342\237ED"
  95              		.text
  96              		.section	.gnu.lto_sd_is_write_protected.976c78eeb28e6291,"",%progbits
  97 0000 789C5D4F 		.ascii	"x\234]O=k\002Q\020\234\331w/X\211U\300\316>\220_\243"
  97      3D6B0251 
  97      109CD977 
  97      2F588955 
  97      C0CE3E90 
  98 0016 104B3D83 		.ascii	"\020K=\203\034x\020\360\007\370\202\0266\202E\012\321"
  98      1C7810F0 
  98      07F88216 
  98      3682450A 
  98      D1
  99 0027 465B0BFD 		.ascii	"F[\013\375\001i\202\205\235B\272\220J\310\177Hkv\337"
  99      01698285 
  99      9D42BA90 
  99      4AC87F48 
  99      6B76DF
 100 003a 71165998 		.ascii	"q\026Y\230\331\205\331\217Y\201\340\177\324\025\277"
 100      D985D98F 
 100      5981E07F 
 100      D415BF
 101 0049 8A9A820E 		.ascii	"\212\232\202\016\224\371\031x\255\010i\005\210\221p"
 101      94F91978 
 101      AD086905 
 101      889170
 102 0058 D466ECDD 		.ascii	"\324f\354\335\313\307\345z\335\275\035\3273\362N\220"
 102      CBC7E57A 
 102      DDBD1DD7 
 102      33F24E90 
 103 0068 11CE2831 		.ascii	"\021\316(1\362J\326\3461\011a\336\000\3228\324T\266"
 103      F24AD6E6 
 103      310961DE 
 103      00D238D4 
 103      54B6
 104 007a 4D2D8A65 		.ascii	"M-\212ew\302\341{\361sa\207\033z\364)\017\330\206\011"
 104      77C2E17B 
 104      F1736187 
 104      1B7AF429 
 104      0FD88609 
 105 008e 33CA0A4B 		.ascii	"3\312\012KM\356I)\011\213iH\020\313x\271\313\322\357"
 105      4DEE4929 
 105      098B6948 
 105      10CB78B9 
 105      CBD2EF
 106 00a1 09E39D2B 		.ascii	"\011\343\235+\207\235\316[\223\227By\277)I\277\330\004"
 106      879DCE5B 
 106      93974279 
 106      BF2949BF 
 106      D804
 107 00b3 16CAD7F8 		.ascii	"\026\312\327\370\276\224\274\252Q\262\370\304\315\211"
 107      BE94BCAA 
 107      51B2F8C4 
 107      CD89
 108 00c1 2F0E34F5 		.ascii	"/\0164\365\0135j\033\253\303^\236\247\303,\177\031<"
 108      0B356A1B 
ARM GAS  /tmp/ccDZNm8G.s 			page 8


 108      ABC35E9E 
 108      A7C32C7F 
 108      193C
 109 00d3 3FA6F803 		.ascii	"?\246\370\003\011I;N"
 109      09493B4E 
 110              		.text
 111              		.section	.gnu.lto_sdmmcInitialize.976c78eeb28e6291,"",%progbits
 112 0000 789CAD57 		.ascii	"x\234\255W[l\024U\030\376\377\231\335\331\335\351\035"
 112      5B6C1455 
 112      18FEFF99 
 112      DDD9DDE9 
 112      1D
 113 0011 AAA5962E 		.ascii	"\252\245\226.\323\026\212t)\024*7\357\011\2277D.M4\352"
 113      D3168A74 
 113      29142A37 
 113      EF099737 
 113      442E4D34 
 114 0026 C3BA5D9A 		.ascii	"\303\272]\232I\330]\330.\017\306\007\246t\345\362 l"
 114      49D85DD8 
 114      2E0FC607 
 114      A674E5F2 
 114      206C
 115 0038 D087152F 		.ascii	"\320\207\025/\001\033cbTH\364a\025H\026\324\000A\245"
 115      011B6362 
 115      5448F461 
 115      154816D4 
 115      0041A5
 116 004b F5921422 		.ascii	"\365\222\024\"\241\211\017\020!\010!\201\246*\365?s"
 116      A1890F10 
 116      21082181 
 116      A62AF53F 
 116      73
 117 005c CECCEC8D 		.ascii	"\316\314\354\215\026\222N\262\347\234\371\317\371\376"
 117      16924EB2 
 117      E79CF9CF 
 117      F9FE
 118 006a CB77FEFF 		.ascii	"\313w\376\377\234Y\011$(|\366\322\357\325\012\000\017"
 118      9C590924 
 118      287CF6D2 
 118      EFD50A00 
 118      0F
 119 007b 026039A0 		.ascii	"\002`9\240\224\372\031\240\317+I\256=s\301Pe\326\226"
 119      94FA19A0 
 119      CF2B49AE 
 119      3D73C150 
 119      65D696
 120 008e CBE8E262 		.ascii	"\313\350\342b\227\3446\316\001\311\325\224Lr\267\244"
 120      97E436CE 
 120      01C9D594 
 120      4C72B7A4 
 121 009e 9CAEA237 		.ascii	"\234\256\2427\317\331g\351M\3012\276\312#y\331\264\352"
 121      CFD967E9 
 121      4DC132BE 
 121      CA2379D9 
 121      B4EA
 122 00b0 33D7967B 		.ascii	"3\327\226{-\271\317\032\250\326\240\014\221\015\000"
 122      2DB9CF1A 
ARM GAS  /tmp/ccDZNm8G.s 			page 9


 122      A8D6A00C 
 122      910D00
 123 00bf 618724BB 		.ascii	"a\207$\273\334\212\307\353S\313p\307\313\310\\\223\233"
 123      DC8AC7EB 
 123      53CB70C7 
 123      CBC85C93 
 123      9B
 124 00d0 E1B0611C 		.ascii	"\341\260a\034\030\371\341\316 \276\367n6y\310\370w|"
 124      18F9E1CE 
 124      20BEF76E 
 124      3679C8F8 
 124      777C
 125 00e2 1C51470A 		.ascii	"\034QG\012\243\006!\204\360\022\275\240fv\222+?.\023"
 125      A3062184 
 125      F012BDA0 
 125      6676922B 
 125      3F2E13
 126 00f5 9BCA5EDA 		.ascii	"\233\312^\332\265\257\316\0301R\306=\202\352(K\340w"
 126      B5AFCE18 
 126      3152C63D 
 126      82EA284B 
 126      E077
 127 0107 905E8EC4 		.ascii	"\220^\216\304\022\310\003\331\313\273\366\347\"]\022"
 127      12C803D9 
 127      CBBBF6E7 
 127      225D12
 128 0116 CC990C79 		.ascii	"\314\231\014yD\312\216\214\217\377\370U\362\227y+\020"
 128      44CA8E8C 
 128      8FFFF855 
 128      F297792B 
 128      10
 129 0127 C89A0B23 		.ascii	"\310\232\013#\010\0125\350\241F\232F2w-k\352 \210\207"
 129      080A35E8 
 129      A1469A46 
 129      32772D6B 
 129      EA208887 
 130 013b B1191A44 		.ascii	"\261\031\032D\337\310\204\263\250Q4\222\014\220\244"
 130      DFC884B3 
 130      A8513492 
 130      0C90A4
 131 014a 49CCB488 		.ascii	"I\314\264\210~6MzZ\305K\033\365\237P\037\020\357\355"
 131      7E364D7A 
 131      5AC54B1B 
 131      F59F501F 
 131      10EFED
 132 015d 0CDE215E 		.ascii	"\014\336!^:E\277\204\204\336\245\254Y\306\232\345L;"
 132      3A45BF84 
 132      84DEA5AC 
 132      59C69AE5 
 132      4C3B
 133 016f 39E98624 		.ascii	"9\351\206$\021\243q+\\\015\260\270\350\331D-\333\216"
 133      11A3712B 
 133      5C0DB0B8 
 133      E8D9442D 
 133      DB8E
 134 0181 2E94582F 		.ascii	".\224X/\377\004;\317e\256d\245 ~\212nx\037\016\366\031"
 134      FF043BCF 
ARM GAS  /tmp/ccDZNm8G.s 			page 10


 134      65AE64A5 
 134      207E8A6E 
 134      781F0EF6 
 135 0196 4635D1FF 		.ascii	"F5\321\377&\214\031{\330\310\027A\231p\214\013\237\311"
 135      268C197B 
 135      D8C81741 
 135      99708C0B 
 135      9FC9
 136 01a8 400FD236 		.ascii	"@\017\32260\330\350\225\233\310a\001\370\314\240\247"
 136      30D8E895 
 136      9BC86101 
 136      F8CCA0A7 
 137 01b8 8A3C240D 		.ascii	"\212<$\015\264R\355A\205!\312L\304\353\202\303\036\364"
 137      B452ED41 
 137      8521CA4C 
 137      C4EB82C3 
 137      1EF4
 138 01ca 98C8B1FE 		.ascii	"\230\310\261\376\201\267\375\205\310\362\322H\016\345"
 138      81B7FD85 
 138      C8F2D248 
 138      0EE5
 139 01d8 DE18EB69 		.ascii	"\336\030\353iY\004y\026\220\236L\346\2573R\241\236\212"
 139      59047916 
 139      909E4CE6 
 139      AF3352A1 
 139      9E8A
 140 01ea D27A7855 		.ascii	"\322zxU0I\205\205\036.\201VJ\243e\033\255\010\364\271"
 140      30498585 
 140      1E2E8156 
 140      4AA3651B 
 140      AD08F4B9 
 141 01fe F4B52C16 		.ascii	"\364\265,\026\220Vf\223V\031!9\007T\212\320\011x\036"
 141      90566693 
 141      56192139 
 141      07548AD0 
 141      09781E
 142 0211 768D7C33 		.ascii	"v\215|3 P\340P\\\025\022a\262\365\325\006\011]\346\320"
 142      2050E050 
 142      5C151261 
 142      B2F5D506 
 142      095DE6D0 
 143 0225 6B189239 		.ascii	"k\030\2229\250\251\247\215\235f*8\364\255<\031>m\343"
 143      A8A9A78D 
 143      9D662A38 
 143      F4AD3C19 
 143      3E6DE3
 144 0238 7957A339 		.ascii	"yW\2439\350c\223\242S\216u^\0015\007\335\016\376\370"
 144      E86393A2 
 144      538E755E 
 144      013507DD 
 144      0EFEF8
 145 024b C3E0B562 		.ascii	"\303\340\265b\374\211\207\301Ws\374N\201'\326/\246o"
 145      FC8987C1 
 145      5773FC4E 
 145      8127D62F 
 145      A66F
 146 025d 0F8A3DEB 		.ascii	"\017\212=\353\301i\001h\343\031G\364\033\257\334/\353"
ARM GAS  /tmp/ccDZNm8G.s 			page 11


 146      C1690168 
 146      E31947F4 
 146      1BAFDC2F 
 146      EB
 147 026e 98E164B6 		.ascii	"\230\341d\266\255\310\356\364\220H\012\322\244c-\327"
 147      ADC8EEF4 
 147      90480AD2 
 147      A4632DD7 
 148 027e 9FB97D15 		.ascii	"\237\271}\025-\375\265y\372\327O\244\377\255lc\221\376"
 148      2DFDB579 
 148      FAD74FA4 
 148      FFAD6C63 
 148      91FE
 149 0290 4742226D 		.ascii	"GB\"mH\223\310\337m:>\032AE,\325\261\216\031=u1\375"
 149      4893C8DF 
 149      6D3A3E1A 
 149      41452CD5 
 149      B18E193D 
 150 02a7 51B9A858 		.ascii	"Q\271\250X\253t\215?\367=\005\300\327\205x\302\367\340"
 150      AB748D3F 
 150      F73D05C0 
 150      D78578C2 
 150      F7E0
 151 02b9 1296A6C9 		.ascii	"\022\226\246\311\276\354\255\240\2163\230W)f\246\276"
 151      BEECADA0 
 151      8E339857 
 151      2966A6BE 
 152 02c9 60D3AB85 		.ascii	"`\323\253\205s.\206?e\272DF\372\277$\342O\232a-%Ml\241"
 152      732E863F 
 152      65BA4446 
 152      FABF24E2 
 152      4F9A612D 
 153 02e1 47E233C7 		.ascii	"G\3423\307\354\231e4i2\317\";\003\337_\351\253\262\247"
 153      EC996534 
 153      6932CF22 
 153      3B03DF5F 
 153      E9ABB2A7 
 154 02f5 4C79EE41 		.ascii	"Ly\356A\270\211\242\3333W\356\"C\354\0349\003\311\353"
 154      B889A2DB 
 154      3357EE22 
 154      43EC1C39 
 154      03C9EB
 155 0308 278F7A2C 		.ascii	"'\217z,\356\226\333\265\302\237\013\300%t\256\177\260"
 155      EE96DBB5 
 155      C29F0BC0 
 155      2574AE7F 
 155      B0
 156 0319 4ECCC99F 		.ascii	"N\314\311\237\037Av\020\271\201\356\020v\020\235\035"
 156      1F417610 
 156      B981EE10 
 156      76109D1D 
 157 0329 A65BC0D2 		.ascii	"\246[\300\322P\367 g\021\343\336]\304\374c!\0366\323"
 157      50F72067 
 157      11E3DE5D 
 157      C4FC6321 
 157      1E36D3
 158 033c C28469C3 		.ascii	"\302\204i\303\030\"H\203\037\346}h\244\237\327q&\330"
ARM GAS  /tmp/ccDZNm8G.s 			page 12


 158      18224883 
 158      1FE67D68 
 158      A49FD771 
 158      26D8
 159 034e 5BD0686E 		.ascii	"[\320hnAf\364N\265s\024$i\261\337\032\314\262\006\032"
 159      4166F44E 
 159      B5731424 
 159      69B1DF1A 
 159      CCB2061A 
 160 0362 3F1AEA0B 		.ascii	"?\032\352\013\212\324\342\333-zE\364\036;\247\233X\031"
 160      8AD4E2DB 
 160      2D7A45F4 
 160      1E3BA79B 
 160      5819
 161 0374 9B5978E8 		.ascii	"\233Yx\350\217\342\364o\016\011\210\311\360`\025\371"
 161      8FE2F46F 
 161      0E0988C9 
 161      F06015F9 
 162 0384 D462E6E2 		.ascii	"\324b\346\342\331\314]\207\215\206)a\243!\237\215gJ"
 162      D9CC5D87 
 162      8D862961 
 162      A3219F8D 
 162      674A
 163 0396 B3B1F3E2 		.ascii	"\263\261\363\342\360\335\253v\2255\346U\301\266\211"
 163      F0DDAB76 
 163      9535E655 
 163      C1B689
 164 03a5 ABACDD42 		.ascii	"\253\254\335B\315\262\315\317\016\011*H\225\216sL\003"
 164      CDB2CDCF 
 164      0E092A48 
 164      958E734C 
 164      03
 165 03b6 D7FA375B 		.ascii	"\327\3727[\0135Z\313\303\035\315\011\267iJ\302m\312"
 165      0B355ACB 
 165      C31DCD09 
 165      B7694AC2 
 165      6DCA
 166 03c8 09B7D50F 		.ascii	"\011\267\325\017\353y\270s\363\302ei~rh\267\035\256"
 166      EB79B873 
 166      F3C26569 
 166      7E7268B7 
 166      1DAE
 167 03da C6F43F9E 		.ascii	"\306\364?\236{\351w\321\376\334\255\344\3719v\323v\261"
 167      7BE977D1 
 167      FEDCADE4 
 167      F93976D3 
 167      76B1
 168 03ec E5C15C24 		.ascii	"\345\301\\$\330\015\331\302\3146\203=\017\312D^\267"
 168      D80DD9C2 
 168      CC36833D 
 168      0FCA445E 
 168      B7
 169 03fd 08AF2F90 		.ascii	"\010\257/\220\226y~Hp\257\333,\257I\213\3518w\315\003"
 169      96797E48 
 169      70AFDB2C 
 169      AF498BE9 
 169      3877CD03 
ARM GAS  /tmp/ccDZNm8G.s 			page 13


 170 0411 7B9F365D 		.ascii	"{\2376]\313\374\343\260\327:%\354\265\346\260\027\360"
 170      CBFCE3B0 
 170      D73A25EC 
 170      B5E6B017 
 170      F0
 171 0422 C33BC81D 		.ascii	"\303;\310\035\231_\230-c\375\307\366\347\337\346\276"
 171      995F982D 
 171      63FDC7F6 
 171      E7DFE6BE 
 172 0432 496E61E7 		.ascii	"Ina\3476\257\210\210\344`W\343\337\337\331\021\264\331"
 172      36AF8888 
 172      E46057E3 
 172      DFDFD911 
 172      B4D9
 173 0444 0EB587C4 		.ascii	"\016\265\207\304\261\303%\331K\273km\030w0{\371\264"
 173      B1C325D9 
 173      4BBB6B6D 
 173      1877307B 
 173      F9B4
 174 0456 5FC7057E 		.ascii	"_\307\005~\370Bx\270\320\362\220Y\356`\216.b\373L\347"
 174      F84278B8 
 174      D0F29059 
 174      EE608E2E 
 174      62FB4CE7 
 175 046a D32D679F 		.ascii	"\323-g\237\333\330d\336\367d\027\031\372Z\342\373|\317"
 175      DBD864DE 
 175      F7641719 
 175      FA5AE2FB 
 175      7CCF
 176 047c D9E7C094 		.ascii	"\331\347\300\224\220\031\310\331\324\305~8*\\\355,*"
 176      9019C8D9 
 176      D4C57E38 
 176      2A5CED2C 
 176      2A
 177 048d BDD17BC3 		.ascii	"\275\321{\303\266\217\355y\245\367\332\304\245\027("
 177      B68FED79 
 177      A5F7DAC4 
 177      A51728
 178 049c 324F9567 		.ascii	"2O\225g}\261\265[\225\227I\217\017\346\177\364,z\320"
 178      7DB1B55B 
 178      9597498F 
 178      0FE67FF4 
 178      2C7AD0
 179 04af 4F26CE91 		.ascii	"O&\316\221\017~_ar\224\376\370\226\315Q\307\224p\324"
 179      0F7E5F61 
 179      7294FEF8 
 179      96CD51C7 
 179      9470D4
 180 04c2 91C3D113 		.ascii	"\221\303\321\023~\030\022\034-)\344(\223\261M;\0117"
 180      7E18121C 
 180      2D29E428 
 180      93B14D3B 
 180      0937
 181 04d4 F9871BDA 		.ascii	"\371\207\033\3321\250\220\222y\321\014\014\3311tNI\014"
 181      31A89092 
 181      79D10C0C 
 181      D931744E 
ARM GAS  /tmp/ccDZNm8G.s 			page 14


 181      490C
 182 04e6 9DF94573 		.ascii	"\235\371Es\243d\321p/\312\314{s\210\376!1\240\351\335"
 182      A364D170 
 182      2FCACC7B 
 182      7388FE21 
 182      31A0E9DD 
 183 04fa 05403A81 		.ascii	"\005@:\201\224\343'f0\2232\375+\341\017\356\360\376"
 183      94E32766 
 183      309332FD 
 183      2BE10FEE 
 183      F0FE
 184 050c F69C29FA 		.ascii	"\366\234)\372\317\021\251\327\207\274\246\014\300\367"
 184      CF11A9D7 
 184      87BCA60C 
 184      C0F7
 185 051a C1AFB5EC 		.ascii	"\301\257\265\354FF\246\222m[eow$\022\352\325#[\267\204"
 185      4646A692 
 185      6D5B656F 
 185      772412EA 
 185      D5235BB7 
 186 052f 1784A0BC 		.ascii	"\027\204\240\2747\034\327\203[^\214\305\023\013:\224"
 186      371CD783 
 186      5B5E8CC5 
 186      130B3A94 
 187 053f DE4430B1 		.ascii	"\336D0\261\275W\016\307\343\3237\256Z\270v\355\312'"
 187      BD570EC7 
 187      E3D337AE 
 187      5AB876ED 
 187      CA27
 188 0551 5706E3DD 		.ascii	"W\006\343\335\332\232\330\366h\267\012\266,\026\215"
 188      DA9AD8F6 
 188      68B70AB6 
 188      2C168D
 189 0560 8643093D 		.ascii	"\206C\011=\332\243B\263\220\255\216vk\261\315\2325\025"
 189      DAA342B3 
 189      90AD8E76 
 189      6BB1CD9A 
 189      3515
 190 0572 8B6AC144 		.ascii	"\213j\301D\"\034\331\232P\301o-\331\260a\335\006k\305"
 190      221CD99A 
 190      50C16F2D 
 190      D9B061DD 
 190      066BC5
 191 0585 7C7A9BD3 		.ascii	"|z\233\323\261\230\264\326\213\351\\\354\252X4\254\202"
 191      B198B4D6 
 191      8BE95CEC 
 191      AA5834AC 
 191      82
 192 0596 B4103431 		.ascii	"\264\02041\271F\337\022\3266\276\321K*\265\265\344M"
 192      B946DF12 
 192      D636BED1 
 192      4B2AB5B5 
 192      E44D
 193 05a8 425B1D8F 		.ascii	"B[\035\217\307\342*\314\274\337\202p\216\352\027b\244"
 193      C7E22ACC 
 193      BCDF8270 
 193      8EEA1762 
ARM GAS  /tmp/ccDZNm8G.s 			page 15


 193      A4
 194 05b9 47CB0DE5 		.ascii	"G\313\015\345\177l\262~\330"
 194      7F6CB27E 
 194      D8
 195              		.text
 196              		.section	.gnu.lto_sdmmGetMMCDriver.976c78eeb28e6291,"",%progbits
 197 0000 789C6D50 		.ascii	"x\234mP\273J\003A\024=\347\316\254\212\004\037\220\306"
 197      BB4A0341 
 197      143DE7CE 
 197      AC8A041F 
 197      90C6
 198 0012 2EA52460 		.ascii	".\245$`c\341\217\030\320R7aY\310\202\220\017\310$\344"
 198      63E18F18 
 198      D0523761 
 198      59C88290 
 198      0FC824E4 
 199 0026 03B694A4 		.ascii	"\003\266\224\244\321NV\210\277`%\"(\004\264PRX\246\360"
 199      D14E5688 
 199      BF602522 
 199      2804B450 
 199      5258A6F0 
 200 003a 03D2AD77 		.ascii	"\003\322\255wF\"*^\230\271\367\316\234s\356C \370k\373"
 200      46222A5E 
 200      98B9F7CE 
 200      9C73EE43 
 200      20F86BFB 
 201 004e 7A76086C 		.ascii	"zv\010l\251g\004J\376\004\364\327D\314\325\035\340\326"
 201      A967044A 
 201      FE04F4D7 
 201      44CCD51D 
 201      E0D6
 202 0060 ED7C15AE 		.ascii	"\355|\025\256bh\277\336-\351\003\020=1\226\275c\006"
 202      6268BFDE 
 202      2DE90310 
 202      3D3196BD 
 202      6306
 203 0072 951BB97D 		.ascii	"\225\033\271}/\313\311\363\303\305\204\262B\244\204"
 203      2FCBC9F3 
 203      C3C584B2 
 203      42A484
 204 0081 6146588D 		.ascii	"aFX\215T5\015\250\010C\347\362\032\020\207\364Po\257"
 204      54350DA8 
 204      0843E7F2 
 204      1A1087F4 
 204      506FAF
 205 0094 D5A4786F 		.ascii	"\325\244xo\0361x[\024S\236\360R)\011m\003ue\2171bJI"
 205      1E31785B 
 205      14539EF0 
 205      5229096D 
 205      0375658F 
 206 00ac 688ED49B 		.ascii	"h\216\324\233P\356\224\313\366\3571\374\350o~S<\204"
 206      50EE94CB 
 206      F6EF31FC 
 206      E86F7E53 
 206      3C84
 207 00be 3FC76B2A 		.ascii	"?\307k*C\007\011\342\347\327\333K`\324@\341\324\016"
 207      430709E2 
ARM GAS  /tmp/ccDZNm8G.s 			page 16


 207      E7D7DB4B 
 207      60D440E1 
 207      D40E
 208 00d0 B4B3FF0B 		.ascii	"\264\263\377\013\360\227\210\015\035Nu\001Pv\370{\005"
 208      F097880D 
 208      1D4E7501 
 208      5076F87B 
 208      05
 209 00e1 55C7EC7A 		.ascii	"U\307\354z\222\2462{\251\372\231\350\221~\315\033\335"
 209      92A6327B 
 209      A9FA99E8 
 209      917ECD1B 
 209      DD
 210 00f2 5696C5DD 		.ascii	"V\226\305\3354;\353\264\367b|\002\243\262E\034"
 210      343BEBB4 
 210      F7627C02 
 210      A3B2451C 
 211              		.text
 212              		.section	.gnu.lto_sdmmcGetFS.976c78eeb28e6291,"",%progbits
 213 0000 789C6D50 		.ascii	"x\234mP\315J\202A\024=\347\316|\032\021\231\320\306"
 213      CD4A8241 
 213      143DE7CE 
 213      7C1A1199 
 213      D0C6
 214 0012 9DCB4868 		.ascii	"\235\313Hh\323\242\027Q\320e~\206|\340\007\201\017\340"
 214      D3A21751 
 214      D0657E86 
 214      7CE00781 
 214      0FE0
 215 0024 183E80CB 		.ascii	"\030>\200\313\250\026\265\213\026\011>\201\253\010!"
 215      A816B58B 
 215      16093E81 
 215      AB0821
 216 0033 C1E5D7AA 		.ascii	"\301\345\327\252e\213\036\300\205\240wF\214\212.\314"
 216      658B1EC0 
 216      85A07746 
 216      8C8A2ECC 
 217 0043 DC7B67CE 		.ascii	"\334{g\3169\367G \370k\247zJ\004\016\3243\002e8\003"
 217      39F74720 
 217      F86BA77A 
 217      4A040ED4 
 217      33026538 
 218 0058 FA3B22E6 		.ascii	"\372;\"\346\361\005p\273\3663\017\267gh7\357\226\364"
 218      F10570BB 
 218      F6330FB7 
 218      676837EF 
 218      96F4
 219 006a 01889E18 		.ascii	"\001\210\236\030\313^\203Ae$\223\217\325\352y9\275\237"
 219      CB5E8341 
 219      6524938F 
 219      D5EA7939 
 219      BD9F
 220 007c 52724442 		.ascii	"RrDB\030\246\204\325HU\223\200\2120pnX\006\342\220V"
 220      18A684D5 
 220      48559380 
 220      8A30706E 
 220      5806E290 
ARM GAS  /tmp/ccDZNm8G.s 			page 17


 221 0091 F5F65A35 		.ascii	"\365\366Z5\212\367\346\015W\357\213\321\234\347|PJ\233"
 221      8AF7E60D 
 221      57EF8BD1 
 221      9CE77C50 
 221      4A9B
 222 00a3 B6826365 		.ascii	"\266\202ce\337\342\206\011\245MSWoB\271&\267\355\277"
 222      DFE28609 
 222      A54D5357 
 222      6F42B926 
 222      B7EDBF
 223 00b6 62F0D52F 		.ascii	"b\360\325/|S<\204?\307\253)C\007\011\342\327\343\342"
 223      7C533C84 
 223      3FC7AB29 
 223      430709E2 
 223      D7E3E2
 224 00c9 161855F0 		.ascii	"\026\030U\360\344\324\316\264\263\377\013\360\227\210"
 224      E4D4CEB4 
 224      B3FF0BF0 
 224      9788
 225 00d7 0D1DCE75 		.ascii	"\015\035\316u\001Pv\370\313@\3251G\236\244\251\334e"
 225      015076F8 
 225      CB40D531 
 225      479EA4A9 
 225      DC65
 226 00e9 877E267A 		.ascii	"\207~&z\244_\363~\267\225\246q7I/;\027'1\326\356\343"
 226      A45FF37E 
 226      B795A671 
 226      37492F3B 
 226      172731D6 
 227 00ff 4530     		.ascii	"E0"
 228              		.text
 229              		.section	.gnu.lto_sdmmcFSMounted.976c78eeb28e6291,"",%progbits
 230 0000 789C6362 		.ascii	"x\234cb`b@\007\222@<\003\210\005\200\230\221\231\201"
 230      60624007 
 230      92403C03 
 230      88058098 
 230      919981
 231 0013 9169C239 		.ascii	"\221i\3029\006\206F\016&FF\020\203\201\221\241\236\211"
 231      0686460E 
 231      26464610 
 231      838191A1 
 231      9E89
 232 0025 B13E9211 		.ascii	"\261>\222\021\254v=\323\201\007\377\377\257\333rz\301"
 232      AC763DD3 
 232      8107FFFF 
 232      AFDB727A 
 232      C1
 233 0036 1D462616 		.ascii	"\035F&\026&\306\\F\006f\206L\260\034+CKC\303\004\005"
 233      26C65C46 
 233      0666864C 
 233      B01C2B43 
 233      4B43C304 
 234 004b 06866430 		.ascii	"\006\206d07\004H\202\364\20722\201h\346\263\014M\267"
 234      37044882 
 234      F4873232 
 234      8168E6B3 
 234      0C4DB7
ARM GAS  /tmp/ccDZNm8G.s 			page 18


 235 005e 7E6C534C 		.ascii	"~lSLd\\\310\310\312\220\316\310\254\315\260\252\001"
 235      645CC8C8 
 235      CA90CEC8 
 235      ACCDB0AA 
 235      01
 236 006f 08AC819A 		.ascii	"\010\254\201\232g3\314b\314ddLgd\212\000\322\020\007"
 236      6733CC62 
 236      CC64644C 
 236      67648A00 
 236      D21007
 237 0082 2631C29C 		.ascii	"&1\302\234w\221\241\361\000\013\\\033D,\204\221\021"
 237      7791A1F1 
 237      000B5C1B 
 237      442C8491 
 237      11
 238 0093 64284829 		.ascii	"d(H)_qJnnrqfnAN\252^2\003\000\001\014*\356"
 238      5F714A6E 
 238      6E727166 
 238      6E414EAA 
 238      5E320300 
 239              		.text
 240              		.section	.gnu.lto_.symbol_nodes.976c78eeb28e6291,"",%progbits
 241 0000 789C4DCC 		.ascii	"x\234M\314\313N\302@\024\306\361o\276i\301+\340}\241"
 241      CB4EC240 
 241      14C6F16F 
 241      BE69C12B 
 241      E07DA1
 242 0013 892FE04B 		.ascii	"\211/\340K\371$\007\250@\025)(Z\022\027.\344M,k\027"
 242      F92407A8 
 242      40152928 
 242      5A12172E 
 242      E44D2C6B 
 243 0028 26EE358D 		.ascii	"&\3565\215;\237A\234K\343t6\277\374\347\314\034\202"
 243      3B9F419C 
 243      4BE37436 
 243      BFFCE7CC 
 243      1C82
 244 003a F850F087 		.ascii	"\370P\360\207k%\300\354\015\020\231\244\227\034QT\225"
 244      6B25C0EC 
 244      0D1099A4 
 244      971C5154 
 244      95
 245 004b CFA9624A 		.ascii	"\317\251bJa-\257):d\334'#\321\361\204\032\202\270\307"
 245      612DAF29 
 245      3A64DC27 
 245      23D1F184 
 245      1A82B8C7 
 246 005f C8D690CA 		.ascii	"\310\326\220\312\222\020\006\336P\242\332\2021%\256"
 246      921006DE 
 246      50A2DA82 
 246      3125AE
 247 006e E52DA551 		.ascii	"\345-\245Q\333w\305\330~\035\260aP\013J\323\017\273"
 247      DB77C5D8 
 247      7E1DB061 
 247      500B4AD3 
 247      0FBB
 248 0080 5DA572CA 		.ascii	"]\245r\312F\250G\312f\250\007\312V\2509e;\324=e'\324"
ARM GAS  /tmp/ccDZNm8G.s 			page 19


 248      46A847CA 
 248      66A807CA 
 248      56A83965 
 248      3BD43D65 
 249 0096 1D6537D4 		.ascii	"\035e7\324\214\322\0125\245\264Ce\224\316\177it\220"
 249      8CD20A35 
 249      A5B44365 
 249      94CE7F69 
 249      7490
 250 00a8 7CFE1ADB 		.ascii	"|\376\032\333X:[(\254\372\004\305\227\267\254L\206?"
 250      583A5B28 
 250      ACFA04C5 
 250      97B7AC4C 
 250      863F
 251 00ba E7D66565 		.ascii	"\347\326ee\341<F2\262\036\241p\002/\343\225\361\020"
 251      E13C4632 
 251      B21EA170 
 251      022FE395 
 251      F110
 252 00cc A5D37466 		.ascii	"\245\323tf=@\231\371~\235V\276\257i\355\317WgZ\357\243"
 252      3D4099F9 
 252      7E9D56BE 
 252      AF69EDCF 
 252      57675AEF 
 253 00e1 709AF7B9 		.ascii	"p\232\367\271\031\357\241\314\375\253\305\367\251\273"
 253      19EFA1CC 
 253      FDABC5F7 
 253      A9BB
 254 00ef 7DBAC01F 		.ascii	"}\272\300\037\274z\203\005"
 254      BC7A8305 
 255              		.text
 256              		.section	.gnu.lto_.refs.976c78eeb28e6291,"",%progbits
 257 0000 789C6362 		.ascii	"x\234cb`bPg\200\000>fF\026&VF6&v\006\026\030d\342`\342"
 257      60625067 
 257      80003E66 
 257      46162656 
 257      46362676 
 258 001b 80B098D9 		.ascii	"\200\260\230\331\231X\231x\230x\031\000\022\357\000"
 258      99589978 
 258      98781900 
 258      12EF00
 259 002a BB       		.ascii	"\273"
 260              		.text
 261              		.section	.gnu.lto_.decls.976c78eeb28e6291,"",%progbits
 262 0000 789CBD7D 		.ascii	"x\234\275}\013t\024U\266vU\365+!\221\227\250\340\240"
 262      0B741455 
 262      B67655F5 
 262      2B219197 
 262      A8E0A0
 263 0013 B43373E7 		.ascii	"\2643s\347\272\356\272\032@F\235\271sUH\302c\004\222"
 263      BAEEBA1A 
 263      40469DB9 
 263      735548C2 
 263      630492
 264 0026 BF13C671 		.ascii	"\277\023\306q\255\273\376\266I:\320\327\274\354\356"
 264      ADBBFEB6 
 264      493AD0D7 
ARM GAS  /tmp/ccDZNm8G.s 			page 20


 264      BCECEE
 265 0035 20FEFF5D 		.ascii	" \376\377]k\212\207Q\021\031\010O\021B\000\345\251\210"
 265      6B8A8751 
 265      1119084F 
 265      114200E5 
 265      A988
 266 0047 4078071B 		.ascii	"@x\007\033\037$\020\201\000\" B\"\012\012\210\022\""
 266      1F241081 
 266      00222042 
 266      220A0A88 
 266      1222
 267 0059 2020E4DF 		.ascii	"  \344\337g\237\252\356S\225\252\356S\355\314\337k\235"
 267      679FAAEE 
 267      5395AAEE 
 267      53EDCCDF 
 267      6B9D
 268 006b 53A74FD7 		.ascii	"S\247O\327\371\316\336\373\354\263\317>\217\252\226"
 268      F9CEDEFB 
 268      ECB3CF3E 
 268      8FAA96
 269 007a 0449386A 		.ascii	"\004I8j\023\204v\370\254\230!\010i]\005!E\020\204\307"
 269      138476F8 
 269      AC982108 
 269      695D0521 
 269      451084C7 
 270 008e 20DC09C1 		.ascii	" \334\011\301\016a1\204%\020V@X\011a5\204\267!\254\201"
 270      0E613184 
 270      25105640 
 270      58096135 
 270      84B721AC 
 271 00a3 F01584AF 		.ascii	"\360\025\204\257!\324B8\003\341\033\010g!\234\203\360"
 271      21D44238 
 271      03E11B08 
 271      67219C83 
 271      F0
 272 00b4 1D840B10 		.ascii	"\035\204\013\020\\\020~\2000J\024\204\377-\011\202\017"
 272      5C107E80 
 272      304A1484 
 272      FF2D0982 
 272      0F
 273 00c5 02F97483 		.ascii	"\002\371t\203P\010\351\371\020nB\020\201\216m\020vB"
 273      5008E9F9 
 273      106E4210 
 273      818E6D10 
 273      7642
 274 00d7 A887B017 		.ascii	"\250\207\260\027\302>\010_@8\001\241\031\302]@P/\010"
 274      C23E085F 
 274      403801A1 
 274      19C25D40 
 274      502F08
 275 00ea F740F835 		.ascii	"\367@\3705\204\337\331)~\006\\\373Ax\002\302\357!\014"
 275      84DFD929 
 275      7E065CFB 
 275      417802C2 
 275      EF210C
 276 00fd 82F00708 		.ascii	"\202\360\007\010\377i\0274\037R_\032\\\017\001Vg\270"
 276      FF691734 
ARM GAS  /tmp/ccDZNm8G.s 			page 21


 276      1F525F1A 
 276      5C0F0156 
 276      67B8
 277 010f A62B3C66 		.ascii	"\246+<fA4\024B6\204a\020\366\303\357\177\206\353\223"
 277      41341442 
 277      36846110 
 277      F6C3EF7F 
 277      86EB93
 278 0122 4A79BB52 		.ascii	"Jy\273R\366\013\205&B\033ac6Ds%m\035\204\037\247@\371"
 278      F60B8526 
 278      421B6163 
 278      36447325 
 278      6D1D841F 
 279 0139 24B4FD16 		.ascii	"$\264\375\026\370\276W\244\374\023\034\270\010\375E"
 279      F8BE57A4 
 279      FC131CB8 
 279      08FD45
 280 0148 7A9DAF2B 		.ascii	"z\235\257+K>7\225\362.\005#^\371\233\006\345\211\034"
 280      4B3E3795 
 280      F22E0523 
 280      5EF99B06 
 280      E5891C
 281 015b 1F866B6F 		.ascii	"\037\206ko\206G\033\244\277\204\260P\221\277]\301\037"
 281      86471BA4 
 281      BF84B050 
 281      91BF5DC1 
 281      1F
 282 016c 018934C8 		.ascii	"\001\2114\310\357\004\341\212\322\246#!/\307\036k\257"
 282      EF04E18A 
 282      D2A62321 
 282      2FC71E6B 
 282      AF
 283 017d 7F85742E 		.ascii	"\177\205t.\204\337@\370_v\332\226\367\332cty\354\261"
 283      84DF40F8 
 283      5F76DA96 
 283      F7DA6374 
 283      79ECB1
 284 0190 B6F6C3FD 		.ascii	"\266\366\303\375y\360=\037\302#\360\233\215\264;\244"
 284      79F03D1F 
 284      C223F09B 
 284      8DB43BA4 
 285 01a0 EF86F017 		.ascii	"\357\206\360\027\010oH1\375\020\030\235Qu\354)\273V"
 285      086F4831 
 285      FD10189D 
 285      5175EC29 
 285      BB56
 286 01b2 A75A6C31 		.ascii	"\247Zl1}S\365\217\350g7\310\357\016\241\007\204\236"
 286      7D53F58F 
 286      E86737C8 
 286      EF0EA107 
 286      849E
 287 01c4 362A8F87 		.ascii	"6*\217\207!\374\011\302\020\010\235\0249\374N\321\023"
 287      21FC09C2 
 287      10089D14 
 287      39FC4ED1 
 287      13
 288 01d5 A22F44D6 		.ascii	"\242/D\326\244\015\211\376\020=jV\364\212\340m\206\353"
ARM GAS  /tmp/ccDZNm8G.s 			page 22


 288      A40D89FE 
 288      103D6A56 
 288      F48AE06D 
 288      86EB
 289 01e7 06081B6D 		.ascii	"\006\010\033mZ\035\":\225\241\323!\242\243$K\225\245"
 289      5A1D223A 
 289      95A1D321 
 289      A2A3244B 
 289      95A5
 290 01f9 2A3FD214 		.ascii	"*?\322\024w\332(m\242r\037\271\276o\323\226\337\251"
 290      77DA286D 
 290      A2721FB9 
 290      BE6FD396 
 290      DFA9
 291 020b 945F2374 		.ascii	"\224_#t,\337S\341IT\356#\327\217u\345I\337\260\351\312"
 291      2CDF53E1 
 291      4954EE23 
 291      D78F75E5 
 291      49DFB0E9 
 292 0220 8A4A5951 		.ascii	"\212JYQ\371\235\\\033u\345\322\204)\262<Q\256\251\224"
 292      F99D5C1B 
 292      75E5D284 
 292      29B23C51 
 292      AEA994
 293 0233 873674EE 		.ascii	"\2076t\356&L\227\341\343\236\3279Ux\231d\267\274%\367"
 293      264C97E1 
 293      E39ED739 
 293      55789964 
 293      B7BC25F7 
 294 0247 EC29087F 		.ascii	"\354)\010\177\025}\"d\245`\"=\025\201\376Ex\023n\205"
 294      157D2264 
 294      A560223D 
 294      1581FE45 
 294      78136E85 
 295 025b FB259FB8 		.ascii	"\373%\237\270TL\005B%\261\243\332\221\017\375\375\337"
 295      544C0542 
 295      25B1A3DA 
 295      910FFDFD 
 295      DF
 296 026c 8495F4FE 		.ascii	"\204\225\364\376S\372\333\010(\271#\226j\027\243u6\210"
 296      53FADB08 
 296      28B92396 
 296      6A17A375 
 296      3688
 297 027e 6AA5BD14 		.ascii	"j\245\275\024\260%b7L!\211\262B9\336\241\024q\253%\354"
 297      B0256237 
 297      4C2189B2 
 297      4239DEA1 
 297      1471AB25 
 298 0293 4A89E508 		.ascii	"J\211\345\010.\250\331\321DO\206\000\243r\213\305\264"
 298      2EA8D9D1 
 298      444F8600 
 298      A3728BC5 
 298      B4
 299 02a4 0462A2E4 		.ascii	"\004b\242\344*\345[\242\244\366V\000VZ&u\225\011\251"
 299      2AE55BA2 
 299      A4F65600 
ARM GAS  /tmp/ccDZNm8G.s 			page 23


 299      565A2675 
 299      9509A9
 300 02b7 BF4A40EA 		.ascii	"\277J@\352\012k\244\312\222\012\340V\000\336\266L\352"
 300      0A6BA4CA 
 300      920AE056 
 300      00DEB64C 
 300      EA
 301 02c8 3B26A4F6 		.ascii	";&\244\366I@\352j\023R\273\0133\220\324\206\316\321"
 301      4940EA6A 
 301      1352BB0B 
 301      3390D486 
 301      CED1
 302 02da B2F26FD4 		.ascii	"\262\362o\324\302k\355\252\312Mo\251\373n\232M\226S"
 302      C26BEDAA 
 302      CA4D6FA9 
 302      FB6E9A4D 
 302      9653
 303 02ec 7CE2BB62 		.ascii	"|\342\273bwP\273A\"\200.\023\377M\301L\014C\210X\007"
 303      7750BB41 
 303      22802E13 
 303      FF4DC14C 
 303      0C438858 
 304 0301 456929AA 		.ascii	"Ei)\252\307\221m\273\322e;\315\0274x\232\317}B\015\020"
 304      C7916DBB 
 304      D2653BCD 
 304      1734789A 
 304      CF7D420D 
 305 0316 1CA9DBB5 		.ascii	"\034\251\333\265M\224+\323\231N2\257s\234^2\275\345"
 305      4D942BD3 
 305      994E32AF 
 305      739C5E32 
 305      BDE5
 306 0328 BDCA5919 		.ascii	"\275\312Y\031Hr-\366\224\011\242\226f\237\250\310\222"
 306      48722DF6 
 306      9409A296 
 306      669FA8C8 
 306      92
 307 0339 FDAEDE40 		.ascii	"\375\256\336@\320\242\275C\351\034\222P\211\020\204"
 307      D0A2BD43 
 307      E91C9250 
 307      891084
 308 0348 5CA36AA3 		.ascii	"\\\243j\243m\3024\204\206\205\226\272\237\247\272\346"
 308      6DC23484 
 308      868596BA 
 308      9FA7BAE6 
 309 0358 CA910936 		.ascii	"\312\221\0116\225\246i\226\001S42i\332\225\266\366\031"
 309      95A66996 
 309      01533432 
 309      69DA95B6 
 309      F619
 310 036a 15ACCA32 		.ascii	"\025\254\3122XW\015\330A\026l\236e\260\236\032\260O"
 310      58570DD8 
 310      41166C9E 
 310      65B09E1A 
 310      B04F
 311 037c 59B04596 		.ascii	"Y\260E\226\301\334\032\260\317X\260\267,\203\335\257"
 311      C1DC1AB0 
ARM GAS  /tmp/ccDZNm8G.s 			page 24


 311      CF58B0B7 
 311      2C83DDAF 
 312 038c 013B5A99 		.ascii	"\001;Z\231\336\364\214\242Er\245|\377\212\316\214<\224"
 312      DEF48CA2 
 312      4572A57C 
 312      FF8ACE8C 
 312      3C94
 313 039e E212AB45 		.ascii	"\342\022\253Es\036E-\372\010k_\323A\213l:-\262i\265"
 313      731E452D 
 313      FA086B5F 
 313      D3418B6C 
 313      3A2DB269 
 314 03b3 C8961A4B 		.ascii	"\310\226\032K\264\267\343\340\262^\317\201\246^#\016"
 314      B4B7E3E0 
 314      B25ECF81 
 314      A65E230E 
 315 03c3 FA6AD568 		.ascii	"\372j\325h\303k\256yrd\242M%j#\017`\212\251^FnTN\355"
 315      C36BAE79 
 315      7264A24D 
 315      256A230F 
 315      608AA95E 
 316 03dc 25D77C20 		.ascii	"%\327| *R\241\246\301\330\230\250R\331UM\373V#\022\020"
 316      2A52A1A6 
 316      C1D898A8 
 316      52D9554D 
 316      FB562312 
 317 03f1 E9201597 		.ascii	"\351 \025\227N*.\255T\\\251\261\004\361x\273\020\271"
 317      4E2A2EAD 
 317      545CA9B1 
 317      04F178BB 
 317      10B9
 318 0403 ECD2B3A1 		.ascii	"\354\322\263\241\251\331\210\015\215\232\264\324\375"
 318      A9D9880D 
 318      8D9AB4D4 
 318      FD
 319 0410 F45ACFD7 		.ascii	"\364Z\317\327\345\310d\233J\326\001\036\300\256\346"
 319      E5C8649B 
 319      4AD6011E 
 319      C0AEE6
 320 041f 7299539F 		.ascii	"r\231S\237>\335\247\202}a\031L\253\304\363X\260\323"
 320      3EDDA782 
 320      7D61194C 
 320      ABC4F358 
 320      B0D3
 321 0431 3C603DCD 		.ascii	"<`=\315)\233\317\202\235\267\014\246\245l\001\013\326"
 321      299BCF82 
 321      9DB70CA6 
 321      A56C010B 
 321      D6
 322 0442 C603E636 		.ascii	"\306\003\3466\247\254\232\005\273a\031LK\331Z\026l\222"
 322      A7AC9A05 
 322      BB61194C 
 322      4BD95A16 
 322      6C92
 323 0454 C40176BF 		.ascii	"\304\001v\2779e\353X\260\251\226\301X\312\344Hm}\032"
 323      3965EB58 
 323      B0A996C1 
ARM GAS  /tmp/ccDZNm8G.s 			page 25


 323      58CAE448 
 323      6D7D1A
 324 0467 0C46EC48 		.ascii	"\014F\354H_\313\214\364Q0Y\035\373Z,\017\365_\232\014"
 324      5FCB8CF4 
 324      5130591D 
 324      FB5A2C0F 
 324      F55F9A0C 
 325 047b F5EDAA33 		.ascii	"\365\355\2523)\011\263\364L\350*V\322}\015db\364aGh"
 325      2909B3F4 
 325      4CE82A56 
 325      D27D0D64 
 325      62F46147 
 326 0490 9FB85EFC 		.ascii	"\237\270^\374\027\2107\210\367A\274\005\343m\030\327"
 326      17883788 
 326      F741BC05 
 326      E36D18D7 
 327 04a0 61FC3EC6 		.ascii	"a\374>\306;1\376\020\343\006\214\367`\274\037\343\003"
 327      3B31FE10 
 327      E3068CF7 
 327      60BC1FE3 
 327      03
 328 04b1 181FC2F8 		.ascii	"\030\037\302\3700\306G0>\206\361q\214O`\334\014q\364"
 328      30C64730 
 328      3E86F171 
 328      8C4F60DC 
 328      0C71F4
 329 04c4 63269035 		.ascii	"c&\2205\361\335\255\232't\376\226\306\010\022\200\257"
 329      F1DDAD9A 
 329      2774FE96 
 329      C6081280 
 329      AF
 330 04d5 2DB7C169 		.ascii	"-\267\301i\2236\020\023\220\372\2255\317\360b\324\211"
 330      93361013 
 330      90FA9535 
 330      CFF062D4 
 330      89
 331 04e6 BD5701F8 		.ascii	"\275W\001\370\3062\251\337\232\220zO\002R\317X#uz\324"
 331      C632A9DF 
 331      9A907A4F 
 331      0252CF58 
 331      23757AD4 
 332 04fa 89FDB502 		.ascii	"\211\375\265\002p\3162\251\347MH\275/\001\251g\255\221"
 332      70CE32A9 
 332      E74D48BD 
 332      2F01A967 
 332      AD91
 333 050c 3A2F2AD5 		.ascii	":/*\325\333\025\200\013\226I\375\336\204\324\356\011"
 333      DB15800B 
 333      9649FDDE 
 333      84D4EE09 
 334 051c 48FD8EDF 		.ascii	"H\375\216\337\337~F-KV\007\224\341\265\265\352d?\034"
 334      DF7E462D 
 334      4B560794 
 334      E1B5B5EA 
 334      643F1C
 335 052f 5E2FA2B7 		.ascii	"^/\242\267\275_J\350nkP\010\005mzg\373}\352l\267q9\333"
 335      BD5F4AE8 
ARM GAS  /tmp/ccDZNm8G.s 			page 26


 335      6E6B5008 
 335      056D7A67 
 335      FB7DEA6C 
 336 0547 472A17A2 		.ascii	"G*\027\242G\220p\262`c\215\214B\375\2459G\234H\375U"
 336      479070B2 
 336      60638D8C 
 336      42FDA539 
 336      479C48FD 
 337 055c A4BEDA96 		.ascii	"\244\276\332\226x\262\240\201\361\211\327D\011\342\353"
 337      78B2A081 
 337      F189D744 
 337      09E2EB
 338 056b 7A162EBF 		.ascii	"z\026.\277\201,\\\347b\341\346\361\352\273\344\226\210"
 338      812C5CE7 
 338      62E1E6F1 
 338      EABBE496 
 338      88
 339 057c E8122A71 		.ascii	"\350\022*q\302\360\342\304\204\023\2067>\245R\277\011"
 339      C2F0E2C4 
 339      84138637 
 339      3EA552BF 
 339      09
 340 058d 8524E1B8 		.ascii	"\205$\341\270\216n\016 B\225,\271\264T\327Vv!T\223\374"
 340      8E6E0E20 
 340      42952CB9 
 340      B454D756 
 340      76215493 
 341 05a2 3854DB88 		.ascii	"8T\333\210\231\222\20436\252\265\366\324X^k,Odn\275"
 341      99928433 
 341      36AAB5F6 
 341      D4585E6B 
 341      2C4F646E 
 342 05b7 1ECB9698 		.ascii	"\036\313\226\230\354\311\366h\266\215\311\376{,[]E!"
 342      ECC9F668 
 342      B68DC9FE 
 342      7B2C5B5D 
 342      4521
 343 05c9 5FF5931C 		.ascii	"_\365\223\034\346\303\262\342\023'Hd8\230(\331\014\213"
 343      E6C3B2E2 
 343      13274864 
 343      389828D9 
 343      0C8B
 344 05db 49C202BB 		.ascii	"I\302\002\273\2504\031\257[\256i\256\226\2669\037\177"
 344      A83419AF 
 344      5BAE69AE 
 344      96B6391F 
 344      7F
 345 05ec 23CE9C24 		.ascii	"#\316\234$7\3645\3229\270E\214\337g\"\307\217\213\356"
 345      37F435D2 
 345      39B8458C 
 345      DF6722C7 
 345      8F8BEE
 346 05ff 441DC327 		.ascii	"D\035\303'N\0076x\272O\225\244\323\275\271\307Q\367"
 346      4E073678 
 346      BA4F95A4 
 346      D3BDB9C7 
 346      51F7
ARM GAS  /tmp/ccDZNm8G.s 			page 27


 347 0611 487E62DD 		.ascii	"H~b\335[t\274\272c\367\271S\230\255X\035Y\014\373\304"
 347      5B74BCBA 
 347      63F7B953 
 347      98AD581D 
 347      590CFBC4 
 348 0625 C7EE30B5 		.ascii	"\307\3560\265\036s\244;c:A2\256\000\222O\034\025[F2"
 348      1E73A43B 
 348      633A4132 
 348      AE00924F 
 348      1C155B46 
 349 063a 77CD2337 		.ascii	"w\315#7\347\367 \204\316\226\322\240\364\022\273V\207"
 349      E7F72084 
 349      CE96D2A0 
 349      F412BB56 
 349      87
 350 064b 3504D18A 		.ascii	"5\004\321\212\314\210\230/\245\231\360\331\3417\011"
 350      CC88982F 
 350      A599F0D9 
 350      E13709
 351 065a E6F8A222 		.ascii	"\346\370\242\"\2648\356\224y\353G\266\030\011\314\240"
 351      B438EE94 
 351      79EB47B6 
 351      1809CCA0 
 352 066a 9D5AA2C3 		.ascii	"\235Z\242\303\317\277G9ni\376\252%c\022\010\325'VK\304"
 352      CFBF4739 
 352      6E69FEAA 
 352      25631208 
 352      D527564B 
 353 067f E0DCB427 		.ascii	"\340\334\264'48Z\034\\w\3227\370\372Fl\360\305\211\033"
 353      34385A1C 
 353      5C77D237 
 353      F8FA466C 
 353      F0C5891B 
 354 0693 7CF2A4C8 		.ascii	"|\362\244\310\246\306\005\261\031\324$\236\031T\355"
 354      A6C605B1 
 354      19D4249E 
 354      1954ED
 355 06a2 B9A69E6F 		.ascii	"\271\246\236o\313rW\2169\227O|\013;\037\317\034\352"
 355      CB72578E 
 355      39974F7C 
 355      0B3B1FCF 
 355      1CEA
 356 06b4 5D879677 		.ascii	"]\207\226w\376)]\353\371\310\\\221\212q\205DL\312\005"
 356      FE295DEB 
 356      F9C85C91 
 356      8A718544 
 356      4CCA05
 357 06c7 1D543293 		.ascii	"\035T2\223:\213\267K\302OX\351\342\344\024i\362\244"
 357      3A8BB74B 
 357      C24F58E9 
 357      E2E41469 
 357      F2A4
 358 06d9 96935FB5 		.ascii	"\226\223_\265<\240\314\001\337D.nY\006tkZvk#\316\032"
 358      3CA0CC01 
 358      DF442E6E 
 358      5906746B 
 358      5A766B23 
ARM GAS  /tmp/ccDZNm8G.s 			page 28


 359 06ef 28D88B4E 		.ascii	"(\330\213N\0160\263\2116\200mg\301^\263\014\246\245"
 359      0E30B389 
 359      36806D67 
 359      C15EB30C 
 359      A6A5
 360 0701 6C070B36 		.ascii	"l\007\0136\223\007\314l\252\013`M,\330\\\313`,e\023"
 360      9307CC6C 
 360      AA0B604D 
 360      2CD85CCB 
 360      602C6513 
 361 0715 22CD8D7B 		.ascii	"\"\315\215{D\271*\375v\241J\226'\3105N3\315\023\004"
 361      44B92AFD 
 361      76A14A96 
 361      27C8354E 
 361      33CD1304 
 362 0729 BC458E7B 		.ascii	"\274E\216{\213O\334,\335\256\355\232\207^\355L\272&"
 362      8B4FDC2C 
 362      DDAEED9A 
 362      875EED4C 
 362      BA26
 363 073b C94F6C8B 		.ascii	"\311Ol\213\017+]\023\356C\346\336@\346H\331dL\225\034"
 363      0F2B5D13 
 363      EE43E6DE 
 363      40E648D9 
 363      644C951C 
 364 074f 39D19826 		.ascii	"9\321\230&OIW\307\245'V\304!\274NoS\2164Jn\232\235\230"
 364      4F4957C7 
 364      A52756C4 
 364      21BC4E6F 
 364      538E344A 
 365 0767 EE638D0B 		.ascii	"\356c\215\013z\3125;E\376\245\252\332s\027w\211\023"
 365      7ACA353B 
 365      45FEA5AA 
 365      DA731777 
 365      8913
 366 0779 B1074790 		.ascii	"\261\007G\220\325\205NCc\300\001\325z\376\342,\305\030"
 366      D5854E43 
 366      63C001D5 
 366      7AFEE22C 
 366      C518
 367 078b 7C8850CB 		.ascii	"|\210P\313\234zc`u\335\313\322\315\222\360\036VX'\361"
 367      9C7A6360 
 367      75DDCBD2 
 367      CD92F01E 
 367      565827F1 
 368 079f 2F9269C4 		.ascii	"/\222i\304\007\206\340\333\007\225E2*\214Z\313\200]"
 368      0786E0DB 
 368      07954532 
 368      2A8C5ACB 
 368      805D
 369 07b1 750D2309 		.ascii	"u\015#\011\333\222\325\035\206u\312\265O\334*\221\231"
 369      DB92D51D 
 369      8675CAB5 
 369      4FDC2A91 
 369      99
 370 07c2 EF76E93E 		.ascii	"\357v\351>\266\202:\236\236g\266.\004\335"
 370      B6823A9E 
ARM GAS  /tmp/ccDZNm8G.s 			page 29


 370      9E67B62E 
 370      04DD
 371 07d0 F822DB8D 		.ascii	"\370\"\333\215?\260\014\346\326\200]b\301\352y\300\334"
 371      3FB00CE6 
 371      D6805D62 
 371      C1EA79C0 
 371      DC
 372 07e1 E694FDC8 		.ascii	"\346\224\375\310\202}b\031LK\331\025\026\354\000\017"
 372      827D6219 
 372      4C4BD915 
 372      16EC000F 
 373 07f1 98D1BA90 		.ascii	"\230\321\272\220\321\207u\004|\342\022\034w\227bK\275"
 373      D1877504 
 373      7CE2121C 
 373      7797624B 
 373      BD
 374 0802 8DF11A8C 		.ascii	"\215\361\032\214\327b\274\016\343\015\030o\304\270\021"
 374      D762BC0E 
 374      E30D186F 
 374      C4B811
 375 0811 E3BD18EF 		.ascii	"\343\275\030\357\307\370\000\333\276q\274\266\253U\275"
 375      C7F800DB 
 375      BE71BCB6 
 375      AB55BD
 376 0820 89495B88 		.ascii	"\211I[\210^\333a]g\323ym\325&\254\022\352\017\307\361"
 376      5EDB615D 
 376      67D3796D 
 376      D526AC12 
 376      EA0FC7F1 
 377 0834 DA0EEBBD 		.ascii	"\332\016\353\275\266\026\247U\257\215i\006\364\331\177"
 377      B616A755 
 377      AF8D6906 
 377      F4D97F
 378 0843 FC4C9C34 		.ascii	"\374L\2344I^\321W\355d\337\350\021-\256D\037}#\275\351"
 378      495ED157 
 378      ED64DFE8 
 378      112DAE44 
 378      1F7D23BD 
 379 0858 1915EC82 		.ascii	"\031\025\354\202e0}\217U\333q&\266\343,l\221\005\030"
 379      65307D8F 
 379      55DB7126 
 379      B6E32C6C 
 379      910518
 380 086b 1FC1F898 		.ascii	"\037\301\370\230\266\367\265v0r\324\335g\360b\363\002"
 380      B6F7B576 
 380      3072D4DD 
 380      67F062F3 
 380      02
 381 087c 2131A259 		.ascii	"!1\242Y#M\223\242\253\003\222p\303\251\2338Yk\204H\365"
 381      234D93A2 
 381      AB039270 
 381      C3A99B38 
 381      596B8448 
 382 0891 49E80B89 		.ascii	"I\350\013\211\374\346\032\273\212\224\025\325\271\226"
 382      FCE61ABB 
 382      8A9415D5 
 382      B996
ARM GAS  /tmp/ccDZNm8G.s 			page 30


 383 089f D9D7233D 		.ascii	"\331\327#=\267\202\013\352\023\233\321o\336\346J\350"
 383      B7820BEA 
 383      139BD16F 
 383      DEE64AE8 
 384 08af 376B7124 		.ascii	"7kq$\341#,rJ7\316\265\324\335j\371\325<D>\3055\326\335"
 384      E1232C72 
 384      4A37CEB5 
 384      D4DD6AF9 
 384      D53C443E 
 385 08c7 305A6EA0 		.ascii	"0Zn\240d\231\311\360\214^\231'\245\250\244$7\005\271"
 385      6499C9F0 
 385      8C5E9927 
 385      A5A8A424 
 385      3705B9
 386 08da B50B6DCA 		.ascii	"\265\013m\312\031\354\201S,\203i\033ef\375\002\213;"
 386      19EC8153 
 386      2C83691B 
 386      6566FD02 
 386      8B3B
 387 08ec 2A87969C 		.ascii	"*\207\226\234\355U\207\";\217\312\377y\212^\027\211"
 387      ED558722 
 387      3B8FCAFF 
 387      798A5E17 
 387      89
 388 08fd FBA2D145 		.ascii	"\373\242\321E\036\177\372\024\017#\246\035\222\264d"
 388      1E7FFA14 
 388      0F23A61D 
 388      92B464
 389 090c 53EF2DEB 		.ascii	"S\357-\353d\371\025\247\352\361\230\272j\222p\026+\273"
 389      64F915A7 
 389      EAF198BA 
 389      6A927016 
 389      2BBB
 390 091e A8D78643 		.ascii	"\250\327\206C\313\017<@\265\341\"\2276lj\234\3135\031"
 390      CB0F3C40 
 390      B5E12297 
 390      366C6A9C 
 390      CB3519
 391 0931 AC71AAD5 		.ascii	"\254q\252\325\027b\365\253SI\365\227\365\3257\257>\373"
 391      1762F5AB 
 391      5349F597 
 391      F5D537AF 
 391      3EFB
 392 0943 18ADFE32 		.ascii	"\030\255\3762W\365\315\373g\031)\243\311|]m\276\345"
 392      57F5CDFB 
 392      671929A3 
 392      C97C5D6D 
 392      BEE5
 393 0955 ADF72FC2 		.ascii	"\255\367/\302J\256\241\002]N\3257\337\343il]\370]\243"
 393      4AAEA102 
 393      5D4ED537 
 393      DFE3696C 
 393      5DF85DA3 
 394 0969 BFB7A2D4 		.ascii	"\277\267\242\324'\245\277\300\346\316\307WbK\2514L\354"
 394      27A5BFC0 
 394      E6CEC757 
 394      624BA934 
ARM GAS  /tmp/ccDZNm8G.s 			page 31


 394      4CEC
 395 097b 641551AB 		.ascii	"d\025Q\253\304\227\366c\217\240`\225<`q,\373\217,\330"
 395      C497F663 
 395      8FA06095 
 395      3C60712C 
 395      FB8F2CD8 
 396 098f 14CB605A 		.ascii	"\024\313`Z\312\256\260`\323x\300\342\354\362\375\304"
 396      CAAEB060 
 396      D378C0E2 
 396      ECF2FDC4 
 397 099f 82555906 		.ascii	"\202UY\006\323Rv\235\005\233\303\003\026g\227\357g\026"
 397      D352769D 
 397      059BC303 
 397      166797EF 
 397      6716
 398 09b1 6CBE6530 		.ascii	"l\276e0-e\267X\260j\0360\2679e\323\0172`K,\203i)\253"
 398      2D65B758 
 398      B06A1E30 
 398      B73965D3 
 398      0F32604B 
 399 09ca 62C196F1 		.ascii	"b\301\226\361\200\305\331\345\233\305\202\255\262\014"
 399      80C5D9E5 
 399      9BC582AD 
 399      B20C
 400 09d8 A6A56C0E 		.ascii	"\246\245l\016\013\266\206\007\314h\257M\335\000f\301"
 400      0BB68607 
 400      CC68AF4D 
 400      DD0066C1 
 401 09e8 D65906D3 		.ascii	"\326Y\006\323R6\237\005\333\310\003\366\2509e\013X\260"
 401      52369F05 
 401      DBC803F6 
 401      A839650B 
 401      58B0
 402 09fa AD96C1B4 		.ascii	"\255\226\301\264\224\255e\301v\360\200=aN\331:\026l"
 402      94AD65C1 
 402      76F0803D 
 402      614ED93A 
 402      166C
 403 0a0c A765302D 		.ascii	"\247e0-e\033X\260\217x\300\206\232S\266\221\005\253"
 403      651B58B0 
 403      8F78C086 
 403      9A53B691 
 403      05AB
 404 0a1e B70CA6A5 		.ascii	"\267\014\246\245l3\013\266\207\007,\327\234\262\255"
 404      6C330BB6 
 404      87072CD7 
 404      9CB2AD
 405 0a2d 2CD85ECB 		.ascii	",\330^\313`Z\312\266\263`M<`\1775\247l\007\013\366\251"
 405      605ACAB6 
 405      B3604D3C 
 405      607F35A7 
 405      6C070BF6 
 406 0a42 65302D65 		.ascii	"e0-eM,\330Q\036\260g\014(\213~\314\374\314\037Y_\375"
 406      4D2CD851 
 406      1EB0670C 
 406      288B7ECC 
 406      FCCC1F59 
ARM GAS  /tmp/ccDZNm8G.s 			page 32


 407 0a58 7827D5C1 		.ascii	"x'\325\301\2618F\0131\214\346NV=2\015\337\304\267\356"
 407      B138460B 
 407      318CE64E 
 407      563D320D 
 407      DFC4B7EE 
 408 0a6c BD5519E7 		.ascii	"\275U\031\347\251\263z\232\0071\316\000\250\034&\241"
 408      A9B37A9A 
 408      0731CE00 
 408      A81C26A1 
 409 0a7c 60172C83 		.ascii	"`\027,\203\351T\271^?\035\211\236\330\213\230\356\233"
 409      E954B95E 
 409      3F1D899E 
 409      D88B98EE 
 409      9B
 410 0a8d C1541E4F 		.ascii	"\301T\036O\033,\325\035\3013=\241\332\241\2316\330\230"
 410      1B2CD51D 
 410      C1333DA1 
 410      DAA19936 
 410      D898
 411 0a9f 66BACCC3 		.ascii	"f\272\314\303C\234q\267\271~\001n\035\362\2375<\264"
 411      439C71B7 
 411      B97E016E 
 411      1DF29F35 
 411      3CB4
 412 0ab1 E480E2BD 		.ascii	"\344\200\342\275o\266\021\357\375\347N\206+o\034H\265"
 412      6FB611EF 
 412      FDE74E86 
 412      2B6F1C48 
 412      B5
 413 0ac2 E79A6A95 		.ascii	"\347\232j\225E\274m\010\365bZ\262P\255\347[&)\213x;"
 413      45BC6D08 
 413      F5625AB2 
 413      50ADE75B 
 413      26298B78 
 414 0ad7 10EA351D 		.ascii	"\020\3525\035\224\345#\220\377\254{%an\232\256\311\214"
 414      94E52390 
 414      FFAC7B25 
 414      616E9AAE 
 414      C98C
 415 0ae9 B60FCDBD 		.ascii	"\266\017\315\275\033\350\025G\373lY#\313\223\234V\032"
 415      1BE81547 
 415      FB6C5923 
 415      CB939C56 
 415      1A
 416 0afa 6DB7D268 		.ascii	"m\267\322h\037\242x\026u\020\3176\375\"gB>\226[\346"
 416      1FA27816 
 416      7510CF36 
 416      FD226742 
 416      3E965BE6 
 417 0b0e E37E1D1F 		.ascii	"\343~\035\037\221\373\255\363qL\341\243\001\371x\367"
 417      91FBADF3 
 417      714CE1A3 
 417      01F978F7 
 418 0b1e 1FC0C726 		.ascii	"\037\300\307&\313|\260g\024q\336\370 \2357r-\361\357"
 418      CB7CB067 
 418      1471DEF8 
 418      209D3772 
ARM GAS  /tmp/ccDZNm8G.s 			page 33


 418      2DF1EF
 419 0b31 B5E996F8 		.ascii	"\265\351\226\370\217\355\021\3354;\321\204M\216\\\335"
 419      8FED11DD 
 419      343BD184 
 419      4D8E5CDD 
 420 0b41 C34CB665 		.ascii	"\303L\266e\276\311v\253\"\261&\224\330\016\243>\306"
 420      BEC976AB 
 420      22B12694 
 420      D80EA33E 
 420      C6
 421 0b52 85547BAE 		.ascii	"\205T{\256\241\347jD:\204H\037%\215\324z\376\247J\245"
 421      A1E76A44 
 421      3A84481F 
 421      258DD47A 
 421      FEA74AA5 
 422 0b66 B77E8650 		.ascii	"\267~\206P\237thF\247\256\025\235\332V\204\257\244\256"
 422      9F746846 
 422      A7AE159D 
 422      DA5684AF 
 422      A4AE
 423 0b78 9FC8E45F 		.ascii	"\237\310\344_\374\233\222C\276\270\204\377\357\345$"
 423      FC9B9243 
 423      BEB884FF 
 423      EFE524
 424 0b87 E133249F 		.ascii	"\3413$\237\264\240\305\2612\246A\377\276E\031\347h+"
 424      B4A0C5B1 
 424      32A641FF 
 424      BE4519E7 
 424      682B
 425 0b99 9DF84588 		.ascii	"\235\370E\210\023#\353_]\250\354\004=NF\2723\277\020"
 425      1323EB5F 
 425      5DA8EC04 
 425      3D4E46BA 
 425      33BF10
 426 0bac EE40A3F5 		.ascii	"\356@\243\3655\236\235wS\265kF\206.th\341\244\326x\256"
 426      359E9D77 
 426      53B56B46 
 426      862E7468 
 426      E1A4D678 
 427 0bc1 25CB48F4 		.ascii	"%\313H\364#\011r:\307\220\351\216\327Z?=\310\271N\024"
 427      2309723A 
 427      C790E98E 
 427      D75A3F3D 
 427      C8B94E14 
 428 0bd5 5D7DFCB6 		.ascii	"]}\374\266g\003\012\343\264\215\254>NN7\\}\214\267\336"
 428      67030AE3 
 428      B48DAC3E 
 428      4E4E375C 
 428      7D8CB7DE 
 429 0be9 34138B7C 		.ascii	"4\023\213|k\353\260\372\330\324\213.\370\220\2378\326"
 429      6BEBB0FA 
 429      D8D48B2E 
 429      F8909F38 
 429      D6
 430 0bfa 9B2A55BD 		.ascii	"\233*U\275\240\213\212\337H\222\002\233\254<5M\030\243"
 430      A08B8ADF 
 430      4892029B 
ARM GAS  /tmp/ccDZNm8G.s 			page 34


 430      AC3C354D 
 430      18A3
 431 0c0c CF279EB3 		.ascii	"\317'\236\263\0217\347\274M\263\354\274\324\262\354"
 431      1137E7BC 
 431      4DB3ECBC 
 431      D4B2EC
 432 0c1b DDACEC23 		.ascii	"\335\254\354#7\032\027\210\204~\203%\262'X\2072*\370"
 432      371A1788 
 432      847E8325 
 432      B2275887 
 432      322AF8
 433 0c2e 965EBB51 		.ascii	"\226^\273Q<\337\243\340\3371\021\374\023f8\222P\207"
 433      3CDFA3E0 
 433      DF3111FC 
 433      13663892 
 433      5087
 434 0c40 455A3B0A 		.ascii	"EZ;\012\276\341n*\370V.\301\0376\024|\253u\301G\237"
 434      BEE16E2A 
 434      F8562EC1 
 434      1F36147C 
 434      AB75C147 
 435 0c55 13883AB2 		.ascii	"\023\210:\262>\361\254e0w\274VleZ\261\015[\361G\033"
 435      3EF1AC65 
 435      3077BC56 
 435      6C655AB1 
 435      0D5BF147 
 436 0c6a 59F0BFAC 		.ascii	"Y\360\277\254m\313}\372\266\324HNI\232._\310\221\231"
 436      6DCB7DFA 
 436      B6D4484E 
 436      499A2E5F 
 436      C89199
 437 0c7d FBD4DD6A 		.ascii	"\373\324\335jj\363\216\361\350F\234E\207\352}(\022j"
 437      6AF38EF1 
 437      E8469C45 
 437      87EA7D28 
 437      126A
 438 0c8f 6F9A2D83 		.ascii	"o\232-\203\2715`u\3238O\005FO^vE\241\234\303zo\352\325"
 438      B9356075 
 438      D3384F05 
 438      464F5E76 
 438      45A19CC3 
 439 0ca7 E5C03707 		.ascii	"\345\3007\007^\022'\340\210w\223C_`\240?\235*W\245\253"
 439      5E1227E0 
 439      88779343 
 439      5F60A03F 
 439      9D2A57A5 
 440 0cbc 7AFBE66D 		.ascii	"z\373\346m*j\034Q\307\321\226\033gw\213\010G'>o\353"
 440      2A6A1C51 
 440      C7D1961B 
 440      67778B08 
 440      47273E6F 
 441 0cd1 E112CECB 		.ascii	"\341\022\316\313\264p\267\374\306G\327\314\005\243\036"
 441      B470B7FC 
 441      C647D7CC 
 441      05A31E
 442 0ce0 5CDB425C 		.ascii	"\\\333B\\\235J;\341i\303m\372\021\201J\206Q\304\233"
 442      9D4A3BE1 
ARM GAS  /tmp/ccDZNm8G.s 			page 35


 442      69C36DFA 
 442      11814A86 
 442      51C49B
 443 0cf3 8C22B6A3 		.ascii	"\214\"\266\243\"\312v\242\210\0231\236l\347\330\177"
 443      22CA76A2 
 443      8813319E 
 443      6CE7D87F 
 444 0d03 7AD1CE4C 		.ascii	"z\321\316L\226\266[\346\333\255k\035\263j~f\347d\037"
 444      96B65BE6 
 444      DBAD6B1D 
 444      B36A7E66 
 444      E7641F
 445 0d16 DEC6A17B 		.ascii	"\336\306\241{\346kT\304\250\377Qu\007\350\016\311^\313"
 445      E66B54C4 
 445      A8FF5175 
 445      07E80EC9 
 445      5ECB
 446 0d28 885A6D6E 		.ascii	"\210Zmn\235\246q\007\216\362\300=a@\240\321\207\335"
 446      9DA67107 
 446      8EF2C03D 
 446      6140A0D1 
 446      87DD
 447 0d3a 13F3895F 		.ascii	"\023\363\211_\343\366\343i\334 \374\026\343s\030\377"
 447      E3F6E369 
 447      DC20FC16 
 447      E37318FF 
 448 0d4a 80F1BB68 		.ascii	"\200\361\273hG\336\303x=\306\2330\376\000\343z\214?"
 448      47DEC378 
 448      3DC69B30 
 448      FE00E37A 
 448      8C3F
 449 0d5c C1F86B8C 		.ascii	"\301\370k\214/`|\025\343k\030\337\300\370UT\200\327"
 449      2F607C15 
 449      E36B18DF 
 449      C0F85554 
 449      80D7
 450 0d6e 12298032 		.ascii	"\022)\2002\012\314\370\341X\357\267\321V\237D\365\237"
 450      0ACCF8E1 
 450      58EFB7D1 
 450      569F44F5 
 450      9F
 451 0d7f D759AF79 		.ascii	"\327Y\257yg$\335\216E\207-\267\325\2359\266.\343l.\265"
 451      6724DD8E 
 451      45872DB7 
 451      D59D39B6 
 451      2EE36C2E 
 452 0d94 7DB6EF88 		.ascii	"}\266\357\2108S\226\033\372R\375\367\211\267l\222\026"
 452      3853961B 
 452      FA52FDF7 
 452      89B76C92 
 452      16
 453 0da5 51DB63E2 		.ascii	"Q\333c\342h\243\322\250'\252\027\361\355\035E\017\000"
 453      68A3D2A8 
 453      27AA17F1 
 453      ED1D450F 
 453      00
 454 0db6 FE362693 		.ascii	"\3766&\223\303m\307\376\207z\340\263\2617~\257\223I"
ARM GAS  /tmp/ccDZNm8G.s 			page 36


 454      C36DC7FE 
 454      877AE0B3 
 454      B1377EAF 
 454      9349
 455 0dc8 421C22A5 		.ascii	"B\034\"\245yv\335\241\237\326\223x\220\220\344'>Hx\371"
 455      7976DDA1 
 455      9FD69378 
 455      9090E427 
 455      3E4878F9 
 456 0ddc E42C4529 		.ascii	"\344,E)\351\341\206\353H\002)\233\304\220HNJ\234dNJ"
 456      E9E186EB 
 456      4802299B 
 456      C490484E 
 456      4A9C644E 
 457 0df1 DCB20CE6 		.ascii	"\334\262\014\346\326\200\375\304\202M\354\302\001\026"
 457      D680FDC4 
 457      824DECC2 
 457      0116
 458 0dff E72CDC75 		.ascii	"\347,\334u\026\354E\313`Z\312~f\301^\346\001\213s\026"
 458      16EC45CB 
 458      605ACA7E 
 458      66C15EE6 
 458      018B7316 
 459 0e13 EE160B36 		.ascii	"\356\026\0136\3152\230\226\262\351\315\014\330l\036"
 459      CD329896 
 459      B2E9CD0C 
 459      D86C1E
 460 0e22 B038C77B 		.ascii	"\2608\307{\252X\260\005\226\301\264\224\315b\301\336"
 460      AA58B005 
 460      96C1B494 
 460      CD62C1DE 
 461 0e32 E401731B 		.ascii	"\344\001s\033Pf\364a;\201O|\335N\254\337|\264N\0130"
 461      5066F461 
 461      3B814F7C 
 461      DD4EACDF 
 461      7CB44E0B 
 462 0e47 AEC6B806 		.ascii	"\256\306\270\006\343%\030\277\211\3612\214W`\274\212"
 462      E32518BF 
 462      89F1328C 
 462      5760BC8A 
 463 0e57 67209BC5 		.ascii	"g \233\305\016d\253\272pX\2438KHmsN\374\242\023\350"
 463      0E64ABBA 
 463      7058A338 
 463      4B486D73 
 463      4EFCA213 
 464 0e6c 2D753776 		.ascii	"-u7v\377\211\230\217\304\247\320\327\332\371N\241\257"
 464      FF89988F 
 464      C4A7D0D7 
 464      DAF94EA1 
 464      AF
 465 0e7d D3DB92CB 		.ascii	"\323\333\222\313\373\350\023\323\211m\011\330\302\253"
 465      FBE813D3 
 465      896D09D8 
 465      C2AB
 466 0e8b 9CEE5A44 		.ascii	"\234\356ZDd\245\023\265\205\273\037\243\266p#\332\302"
 466      64A513B5 
 466      85BB1FA3 
ARM GAS  /tmp/ccDZNm8G.s 			page 37


 466      B67023DA 
 466      C2
 467 0e9c CB5D12DA 		.ascii	"\313]\022\332B-\016\241o\213\236\376\365\373\221\376"
 467      422D0EA1 
 467      6F8B9EFE 
 467      F5FB91FE 
 468 0eac 2D5CB670 		.ascii	"-\\\266p\323~\255-|\271\253\250`&g\0137\357g\024\376"
 468      D37EAD2D 
 468      7CB9ABA8 
 468      6026670B 
 468      37EF6714 
 469 0ec1 55CB606E 		.ascii	"U\313`n\015\330V\026l:\017X\274s\301,\330,\313`Z\312"
 469      0DD85616 
 469      6C3A0F58 
 469      BC73C12C 
 469      D82CCB60 
 470 0ed7 76B060AF 		.ascii	"v\260`\257\363\200\305;\027\314\202U[\006s\0335\257"
 470      F380C53B 
 470      17CC8255 
 470      5B06731B 
 470      35AF
 471 0ee9 D0413B7C 		.ascii	"\320A;|\342V4\022\333\260\353\327a\374>\306;1\376\020"
 471      E2563412 
 471      DBB0EBD7 
 471      61FC3EC6 
 471      3B31FE10 
 472 0efd E38F794C 		.ascii	"\343\217yLB-k\022\226 \301\353\222\323\030\342t\336"
 472      422D6B12 
 472      9620C1EB 
 472      92D318E2 
 472      74DE
 473 0f0f F8F23FE8 		.ascii	"\370\362?\350^\213\3560\010\221\207\031\005\273Y\012"
 473      5E8BEE30 
 473      08918719 
 473      05BB590A 
 474 0f1f 565AA6C0 		.ascii	"VZ\246\300\315R\020\271\261\217nE\250\273\001k\364x"
 474      CD5210B9 
 474      B18F6E45 
 474      A8BB016B 
 474      F478
 475 0f31 46EBB2F1 		.ascii	"F\353\262\361f)\373\360Qz\012Vk\031L\373\372\201\351"
 475      6629FBF0 
 475      517A0A56 
 475      6B194CFB 
 475      FA81E9
 476 0f44 FB19B0F7 		.ascii	"\373\031\260\367-\203\231\235\326[\217\272\260\001\333"
 476      2D83999D 
 476      D65B8FBA 
 476      B001DB
 477 0f53 BC01E346 		.ascii	"\274\001\343F\214\367b\274\237\325\002I\330\325U\357"
 477      8CF762BC 
 477      9FD50249 
 477      D8D555EF 
 478 0f63 B752E3C8 		.ascii	"\267R\343\310\240\306\254\250\300\213k\326\266k\330"
 478      A0C6ACA8 
 478      C08B6BD6 
 478      B66BD8
ARM GAS  /tmp/ccDZNm8G.s 			page 38


 479 0f72 B63DD695 		.ascii	"\266=\326\225c\300q\233kW\333\234fe\300\241\3000A\267"
 479      63C0719B 
 479      6B57DB9C 
 479      6665C0A1 
 479      C03041B7 
 480 0f86 8CA8D596 		.ascii	"\214\250\325\226\331\315\325\232\263\356\247y\360\342"
 480      D9CDD59A 
 480      B3EEA779 
 480      F0E2
 481 0f94 1CA65840 		.ascii	"\034\246X@]\004\012\366\203e0\267"
 481      5D040AF6 
 481      836530B7 
 482 0fa0 60FA619F 		.ascii	"`\372a\237\356\203\011\014\356\376\375\214\317\002\277"
 482      EE83090C 
 482      EEFEFD8C 
 482      CF02BF
 483 0faf 8693A213 		.ascii	"\206\223\242\023\030Wa\313\314\304\370\035\214\017a"
 483      185761CB 
 483      CCC4F81D 
 483      8C0F61
 484 0fbe 7C18E323 		.ascii	"|\030\343#<-vEdZ\354\032\262\320f\341\254\245\266\305"
 484      3C2D7645 
 484      645AEC1A 
 484      B2D066E1 
 484      ACA5B6C5 
 485 0fd2 5A0F1E59 		.ascii	"Z\017\036Y\254\266\3304\2346\335\262\214\250m\261+t"
 485      ACB6D834 
 485      9C36DDB2 
 485      8CA86DB1 
 485      2B74
 486 0fe4 C98A824D 		.ascii	"\311\212\202M\356\306\001f\324\271\215%\334\306H\370"
 486      EEC60166 
 486      D4B98D25 
 486      DCC648F8 
 487 0ff4 4794F065 		.ascii	"G\224\360e\224\360\347(\275/x\244"
 487      94F0E728 
 487      BD2F78A4 
 488 1000 F7434C7A 		.ascii	"\367CLz\374\313\334\315_\035\375\363*:\265\304g\023"
 488      FCCBDCCD 
 488      5F1DFDF3 
 488      2A3AB5C4 
 488      6713
 489 1012 A774FB07 		.ascii	"\247t\373\007,s\247\010/\321\247/\345\011\342s\214="
 489      2C73A708 
 489      2FD1A72F 
 489      E509E273 
 489      8C3D
 490 1024 626C0CFB 		.ascii	"bl\014\373v\244/\355)d\201\270\233v#\222\251\221\334"
 490      76A42FED 
 490      296481B8 
 490      9B762392 
 490      A991DC
 491 1037 A0724ED3 		.ascii	"\240rN\323j\012\212\364\021\252\345\310\305\226\266"
 491      6A0A8AF4 
 491      11AAE5C8 
 491      C596B6
 492 1046 55E77AAE 		.ascii	"U\347z\256&\346_\276\325\376\267\011\023E\335\023|\366"
ARM GAS  /tmp/ccDZNm8G.s 			page 39


 492      26E65FBE 
 492      D5FEB709 
 492      1345DD13 
 492      7CF6
 493 1058 380F8EDB 		.ascii	"8\017\216\3335O\360\031:\224\211\026\310\267\255\271"
 493      354FF019 
 493      3A948916 
 493      C8B7ADB9 
 494 1068 D48B7A60 		.ascii	"\324\213z`\337\242\007\366bw\213\013\344\370\254\265"
 494      DFA207F6 
 494      62778B0B 
 494      E4F8ACB5 
 495 1078 DE03ABA5 		.ascii	"\336\003\253\245\217\001\237\347\362 \267\354z\333\324"
 495      8F019FE7 
 495      F220B7EC 
 495      7ADBD4
 496 1087 83D439C4 		.ascii	"\203\3249\304\3725\277\371@m\302\0250\237x\321\216\253"
 496      FA35BFF9 
 496      406DC215 
 496      309F78D1 
 496      8EAB
 497 1099 B47A2A67 		.ascii	"\264z*gV\"\225\255\\T\316\336\205\013y\346\017[\362"
 497      562295AD 
 497      5C54CEDE 
 497      850B79E6 
 497      0F5BF2
 498 10ac ABEEE1F5 		.ascii	"\253\356\341\365\247\376\370.\252\356\025T\335\323\335"
 498      A7FEF82E 
 498      AAEE1554 
 498      DDD3DD
 499 10bb F5AAEBD0 		.ascii	"\365\252\353\320i\256C\253\271\216\324XB\321\\\263\246"
 499      69AE43AB 
 499      B98ED458 
 499      42D15CB3 
 499      A6
 500 10cc B96CD73D 		.ascii	"\271l\327=\345\371x\232\241\276p\235\237\330\216+\201"
 500      E5F9789A 
 500      A1BE709D 
 500      9FD88E2B 
 500      81
 501 10dd 09B675CD 		.ascii	"\011\266u\315(\271agWzbO\235\342C\310B\302\007O\361"
 501      28B96167 
 501      577A624F 
 501      9DE243C8 
 501      42C2074F 
 502 10f2 980C3B30 		.ascii	"\230\014;0~\207RkM\332\355\332\266\346`\317\216\023"
 502      7E87526B 
 502      4DDAEDDA 
 502      B6E660CF 
 502      8E13
 503 1104 315DEFBB 		.ascii	"1]\357\273\022\247\373Mp\360\211\226\372.f(\223\035"
 503      12A7FB4D 
 503      70F08996 
 503      FA2E6628 
 503      931D
 504 1116 BF582CB2 		.ascii	"\277X,\262\203\021\313%\313bq\263b\221\301\022\245:"
 504      8311CB25 
ARM GAS  /tmp/ccDZNm8G.s 			page 40


 504      CB6271B3 
 504      6291C112 
 504      A53A
 505 1128 E389A429 		.ascii	"\343\211\244)\0163\257\230\213$z>\200\213\245\227Y\226"
 505      0E33AF98 
 505      8B247A3E 
 505      808BA597 
 505      5996
 506 113a AEF2B064 		.ascii	"\256\362\260d\356\216\3762\226\376n\300\022\027\013"
 506      EE8EFE32 
 506      96FE6EC0 
 506      12170B
 507 1149 D31CBA85 		.ascii	"\323\034\272\205\314\033\226\331p\013\332O\314\277l"
 507      CC1B96D9 
 507      700BDA4F 
 507      CCBF6C
 508 1158 C3D1B51D 		.ascii	"\303\321\265\035\343\227\034\350\32188F\332\357\331"
 508      E3971CE8 
 508      D1383846 
 508      DAEFD9
 509 1167 0ED48EF4 		.ascii	"\016\324\216\364\234\267\336\201\214>\354 \340\023\277"
 509      9CB7DE81 
 509      8C3EEC20 
 509      E013BF
 510 1176 43E7FA02 		.ascii	"C\347\372\002\317\340\377M\214\244\250\210\231sV\224"
 510      CFE0FF4D 
 510      8CA4A888 
 510      99735694 
 511 1186 D449B76B 		.ascii	"\324I\267k-\344o\205\245\262\\\205C\3479\322\272\024"
 511      2DE46F85 
 511      A5B25C85 
 511      43E739D2 
 511      BA14
 512 1198 4612A6E2 		.ascii	"F\022\246\342}_\333\373\030V\247TF\013\313s\301)\022"
 512      7D5FDBFB 
 512      1856A754 
 512      460BCB73 
 512      C12912
 513 11ab 695D30B7 		.ascii	"i]0\267NPP\241\350w\302[Do\216|\235;Ty{\202y!\205\277"
 513      4E5050A1 
 513      E877C25B 
 513      446F8E7C 
 513      9D3B5479 
 514 11c5 590ECD3B 		.ascii	"Y\016\315;;\311\240\337r\261\345\330\326sE\344\011b"
 514      3BC9A0DF 
 514      72B1E5D8 
 514      D67345E4 
 514      0962
 515 11d7 B9BDFD6F 		.ascii	"\271\275\375o\372\021\237\270\007f\322z\303\221p\310"
 515      FA119FB8 
 515      0766D27A 
 515      C39170C8 
 516 11e7 D72C1C47 		.ascii	"\327,\034G_y1@`\336\373\361Q\177|\003E\265\203\214\370"
 516      5F793140 
 516      60DEFBF1 
 516      517F7C03 
 516      45B5838C 
ARM GAS  /tmp/ccDZNm8G.s 			page 41


 517 11fc 4B6F371C 		.ascii	"Ko7\034\361\315a\360\3715\207n,=\\O\037dw\360\214\245"
 517      F1CD61F0 
 517      F935876E 
 517      2C3D5C4F 
 517      1F6477F0 
 518 1212 275E325F 		.ascii	"'^2_?\327\217\370\232\367\031J\302;\267\033\217\370"
 518      3FD78FF8 
 518      9AF7194A 
 518      C23BB71B 
 518      8FF8
 519 1224 9ADBA07E 		.ascii	"\232\333\240~\007\031\361\227\353\251\\\377\022R\271"
 519      0719F197 
 519      EBA95CFF 
 519      1252B9
 520 1233 9C8BCADA 		.ascii	"\234\213\312\332\372\004#~\374\246Z\235\254\341X\305"
 520      FA04237E 
 520      FCA65A9D 
 520      ACE158C5 
 521 1243 DABEADD8 		.ascii	"\332\276\255\330:\204\340\244F9j\373(&Lc-\203\271\315"
 521      3A84E0A4 
 521      46396AFB 
 521      28264C63 
 521      2D83B9CD 
 522 1257 C10EF180 		.ascii	"\301\016\361\200%\262\312*\330q\313`\006\224%\333R\033"
 522      25B2CA2A 
 522      D871CB60 
 522      069425DB 
 522      521B
 523 1269 E38D5ACA 		.ascii	"\343\215Z\312,\"\372]\031\257\365\277s\265lm\254e}b"
 523      2C22FA5D 
 523      19AFF5BF 
 523      73B56C6D 
 523      AC657D62 
 524 127d 655445E3 		.ascii	"eTE\343\260l~\240\366\227\261\\g\205e\305sK\212\345"
 524      B06C7EA0 
 524      F697B15C 
 524      678565C5 
 524      734B8AE5 
 525 1291 ED2CCBB7 		.ascii	"\355,\313\267\354VY\216\243\177gxT\306\374\374\355/"
 525      EC56598E 
 525      A37F6778 
 525      54C6FCFC 
 525      ED2F
 526 12a3 93DF2E4E 		.ascii	"\223\337.N\337/\3411\027\305&o|\377\222\013m\362\036"
 526      DF2FE131 
 526      17C5266F 
 526      7CFF920B 
 526      6DF21E
 527 12b6 B4C9CB7A 		.ascii	"\264\311\313zX<-\203\307\033\365\326\356\252\337Ms\023"
 527      583C2D83 
 527      C71BF5D6 
 527      EEAADF4D 
 527      7313
 528 12c8 DBBA6B6F 		.ascii	"\333\272ko)\307\024\350*\314F\254\177o\262V'r\335O\026"
 528      29C714E8 
 528      2ACC46AC 
 528      7F6FB256 
ARM GAS  /tmp/ccDZNm8G.s 			page 42


 528      2772DD4F 
 529 12dd 2F28D6FB 		.ascii	"/(\326\373\226\261\334F\204\252:\024\343\322'\356s\020"
 529      96B1DC46 
 529      84AA3A14 
 529      E3D227EE 
 529      7310
 530 12ef 37633FFA 		.ascii	"7c?\372?\007x\374\237\335\032g\233K\201?f\255q}\017"
 530      3F0778FC 
 530      9FDD1A67 
 530      9B4B813F 
 530      66AD717D 
 531 1304 AB3AA7E7 		.ascii	"\253:\247\347%\346\302\255D\262\327`\274\026\343u\030"
 531      25E6C2AD 
 531      44B2D760 
 531      BC16E375 
 531      18
 532 1315 6FC0781B 		.ascii	"o\300x\033\306\037`\374\021\017ko\262\035\255\012m\313"
 532      C61F60FC 
 532      110F6B6F 
 532      B21DAD0A 
 532      6DCB
 533 1327 E264DBAF 		.ascii	"\342d\333\257\245\365\340\325~\370\016Y\376\367Z\201"
 533      A5F5E0D5 
 533      7EF80E59 
 533      FEF75A81 
 534 1337 06D3F771 		.ascii	"\006\323\367q\035v\220\367Z5\3514\230\363\275VG\035"
 534      1D7690F7 
 534      5A35E934 
 534      98F3BD56 
 534      471D
 535 1349 BAF75A6D 		.ascii	"\272\367Zmy\301Ms\343\350\260\362\362\251\343=:\276"
 535      79C14D73 
 535      E3E8B0F2 
 535      F2A9E33D 
 535      3ABE
 536 135b D5EA4C0F 		.ascii	"\325\352L\017\303\267Z\375\320\303\360\255V\327{\030"
 536      C3B75AFD 
 536      D0C3F0AD 
 536      56D77B18 
 537 136b BED5EA95 		.ascii	"\276\325\352\225;\264o\265R\262\337\210e;\230\354\267"
 537      3BB46FB5 
 537      52B2DF88 
 537      653B98EC 
 537      B7
 538 137c 62D94E26 		.ascii	"b\331N&\373\275X\266\213\311\256\213e\2470-\022\367"
 538      FBBD58B6 
 538      8BC9AE8B 
 538      65A7302D 
 538      12F7
 539 138e 9C7B4C48 		.ascii	"\234{LH>\361\030v\201\317\035\306o\314\362\211S%\235"
 539      3EF11876 
 539      81CF1DC6 
 539      6FCCF289 
 539      53259D
 540 13a1 26587A2B 		.ascii	"&Xz+\256\214\2320\201\274\352F}\377\035\231\317.\213"
 540      AE8C9A30 
 540      81BCEA46 
ARM GAS  /tmp/ccDZNm8G.s 			page 43


 540      7DFF1D99 
 540      CF2E8B
 541 13b4 6D4C6897 		.ascii	"mLh\227ZH\215\027\034\226\337\177\247,wD\251Q\022\261"
 541      5A488D17 
 541      1C96DF7F 
 541      A72C7744 
 541      A95112B1 
 542 13c8 7750EEBE 		.ascii	"wP\356\276C\324r\221\370\304\006\253\320D\363p\344 "
 542      43D47291 
 542      F8C406AB 
 542      D044F370 
 542      E420
 543 13da B449C25E 		.ascii	"\264I\302^.\264DC\207j\337\016\350\321\214\372Z\234"
 543      2EB44443 
 543      876ADF0E 
 543      E8D18CFA 
 543      5A9C
 544 13ec E5EFAB2F 		.ascii	"\345\357\253/\231o\240\306\333\017\206\251$.\267\306"
 544      996FA0C6 
 544      DB0F86A9 
 544      242EB7C6 
 545 13fc 166071BD 		.ascii	"\026`q\275\307\352\342\353e\326n|\241\327\226\204\274"
 545      C7EAE2EB 
 545      65D66E7C 
 545      A1D79684 
 545      BC
 546 140d B835BCB4 		.ascii	"\2705\274\264\327\253\033Iti\364s\275l\214\264\217\377"
 546      D7AB1B49 
 546      7469F473 
 546      BD6C8CB4 
 546      8FFF
 547 141f CDA18B19 		.ascii	"\315\241\213\031\333\277\004\025\177)\032\310O1\376"
 547      DBBF0415 
 547      7F291AC8 
 547      4F31FE
 548 142e 0EE38B18 		.ascii	"\016\343\213\030_\302\370G\214\257\362\230\317\205\254"
 548      5FC2F847 
 548      8CAFF298 
 548      CF85AC
 549 143d 18986141 		.ascii	"\030\230aA\022\316\335a8\367\204\031\334g\342\254I\362"
 549      12CEDD61 
 549      38F78419 
 549      DC67E2AC 
 549      49F2
 550 144f 505A5612 		.ascii	"PZV\022n\341}\363\035fSH\245\006\234BN\224/\274\370"
 550      6EE17DF3 
 550      1D665348 
 550      A5069C42 
 550      4E942FBC 
 551 1464 6257515D 		.ascii	"bWQ]\024\326\024\323\331D\374\371Z\307IdMK\244\012f"
 551      14D614D3 
 551      D944FCF9 
 551      5AC74964 
 551      4D4BA40A 
 552 1479 B0135ADA 		.ascii	"\260\023Z\332\333\373\320y!L\223\3574\"U^\344W\210\004"
 552      DBFBD079 
 552      214C93EF 
ARM GAS  /tmp/ccDZNm8G.s 			page 44


 552      3422555E 
 552      E4578804 
 553 148d 570E0786 		.ascii	"W\016\007\206\233\311\021y3>\221\267\014\211\334\204"
 553      9BC91179 
 553      333E91B7 
 553      0C89DC84 
 554 149d AF7D06D5 		.ascii	"\257}\006\325h\177\\\350\270^*\363=\255\324\360\226"
 554      687F5CE8 
 554      B85E2AF3 
 554      3DADD4F0 
 554      96
 555 14ae F2B41279 		.ascii	"\362\264\022ybE\022^\327\361\311\017\325z\376h\233\002"
 555      6245125E 
 555      D7F1C90F 
 555      D57AFE68 
 555      9B02
 556 14c0 55895035 		.ascii	"U\211P5:(\237(\350\326^\005\355r'|\225\333\225\017}"
 556      3A289F28 
 556      E8D65E05 
 556      ED72277C 
 556      95DB950F 
 557 14d5 1E0172FE 		.ascii	"\036\001r\376&$U\306L\031':-\315\362\215\016|\326\254"
 557      262455C6 
 557      4C19273A 
 557      2DCDF28D 
 557      0E7CD6AC 
 558 14e9 6FBB24E1 		.ascii	"o\273$\341x\374\252\223x\224\233\3574\364(\343\035\250"
 558      78FCAA93 
 558      78949BEF 
 558      34F428E3 
 558      1DA8
 559 14fb 8D609169 		.ascii	"\215`\221iN\375L\377\0317\315M\354U\036\253Q\274JV\371"
 559      4EFD4CFF 
 559      1937CD4D 
 559      EC551EAB 
 559      51BC4A56 
 560 1510 48D1E4BC 		.ascii	"H\321\344\274\312\317\013\211WI\366\332`*\033%\316\242"
 560      CACF0B89 
 560      5749F6DA 
 560      602A1B25 
 560      CEA2
 561 1522 57A92E41 		.ascii	"W\251.A\\l\240\244\255A\270F\036\2708;\336\315\337n"
 561      5C6CA0A4 
 561      AD41B846 
 561      1EB8383B 
 561      DECDDF6E 
 562 1536 26FF1BA0 		.ascii	"&\377\033\240\332\275Cz\270\204\333\324Z\352.\376\327"
 562      DABD437A 
 562      B884DBD4 
 562      5AEA2EFE 
 562      D7
 563 1547 BCBE2AD6 		.ascii	"\274\276*\326\027\226\261\3567j\022U5c\355\351\023\247"
 563      1796B1EE 
 563      376A1255 
 563      3563EDE9 
 563      13A7
 564 1559 3B890D9D 		.ascii	";\211\015\235\341\304]P\214ga<\007\343yN\016\2739\305"
ARM GAS  /tmp/ccDZNm8G.s 			page 45


 564      E1C45D50 
 564      8C67613C 
 564      07E3794E 
 564      0EBB39C5 
 565 156d D971F96E 		.ascii	"\331q\371n\241f\212\234\360`P\266\212y\224\231\020\275"
 565      A1668A9C 
 565      F06050B6 
 565      8A799499 
 565      10BD
 566 157f 7EF5606F 		.ascii	"~\365`o\372\024\313B\324\337\371w%>\031\244\005\362"
 566      FA14CB42 
 566      D4DFF977 
 566      253E19A4 
 566      05F2
 567 1591 898B9C44 		.ascii	"\211\213\234D\337j\364\012|\215.\002\325p\251\360\315"
 567      DF6AF40A 
 567      7C8D2E02 
 567      D570A9F0 
 567      CD
 568 15a2 FA37935D 		.ascii	"\3727\223]\252Z~\027\327R\325[H\3452=\225\207(\225\313"
 568      AA5A7E17 
 568      D752D55B 
 568      48E5323D 
 568      95872895 
 569 15b7 B8A83C5C 		.ascii	"\270\250<\\\257t4\262C\242\316\263\227%\333\321T\377"
 569      AF7434B2 
 569      43A2CEB3 
 569      9725DBD1 
 569      54FF
 570 15c9 46C65E4B 		.ascii	"F\306^K\327)\254\200\271\215\300^F\260\251<`\211\027"
 570      D729AC80 
 570      B98DC05E 
 570      46B0A93C 
 570      608917
 571 15dc 8DE8DAFA 		.ascii	"\215\350\332\372\014\313`\006\224%\273/\260\306\231"
 571      0CCB6006 
 571      9425BB2F 
 571      B0C699
 572 15eb 78AB43F9 		.ascii	"x\253C\371\316\27738\373z\3132exZ\207\303\323\246\273"
 572      CEBF3338 
 572      FB7ACB32 
 572      65785A87 
 572      C3D3A6BB 
 573 15ff F4C35312 		.ascii	"\364\303S\022\273\332\002\347T\367\035'3\325\335Ik\216"
 573      BBDA02E7 
 573      54F71D27 
 573      33D5DD49 
 573      6B8E
 574 1611 2F5CF3E5 		.ascii	"/\\\363\345)\322\201\357M\270\275\026O\300\233\343\011"
 574      29D281EF 
 574      4DB8BD16 
 574      4FC09BE3 
 574      09
 575 1622 789D937F 		.ascii	"x\235\223\177\011j\023\313\326.\313lY\324\231x;\206"
 575      096A13CB 
 575      D62ECB6C 
 575      59D49978 
ARM GAS  /tmp/ccDZNm8G.s 			page 46


 575      3B86
 576 1634 3BE2B1A4 		.ascii	";\342\261\244_eSv\000\223b\271\216e\271\221\207\345"
 576      5F655376 
 576      009362B9 
 576      8E65B991 
 576      87E5
 577 1646 5FB25016 		.ascii	"_\262P\026\217\345]\361X\326\257\245\376\022\226?fY"
 577      8FE55DF1 
 577      58D6AFA5 
 577      FE12963F 
 577      6659
 578 1658 3E689965 		.ascii	">h\231e\267\240\375\304fT+p0\\\211\361*\214Wc\3746\306"
 578      B7A0FDC4 
 578      66542B70 
 578      305C89F1 
 578      2A8C5763 
 579 166f 1B31DE8E 		.ascii	"\0331\336\216\361G<\003\346Rg\207u\232\232$\015\265"
 579      F1473C03 
 579      E6526787 
 579      759A9A24 
 579      0DB5
 580 1681 1CB945DE 		.ascii	"\034\271E\336\203\300{\324\343\342\255\353\275\320#"
 580      83C07BD4 
 580      E3E2ADEB 
 580      BDD023
 581 1690 DC8B23EA 		.ascii	"\334\213#\352\337{Z<\351!\011\325X\244I?Tm\252\304\227"
 581      DF7B5A3C 
 581      E92109D5 
 581      58A4493F 
 581      546DAAC4 
 582 16a5 4137710D 		.ascii	"A7q\015U[8_\372^\023\365F{\010\261\247\230n\212\340"
 582      555B385F 
 582      FA5E13F5 
 582      467B08B1 
 582      A7986E8A 
 583 16ba 7C1E46FA 		.ascii	"|\036F\372W\033\323o\216!\011\333\261\310Q=\375\227"
 583      571BD36F 
 583      8E2109DB 
 583      B1C8513D 
 583      FD97
 584 16cc 7D6E9A9B 		.ascii	"}n\232\233\230\372\253\352\343\\\237:\321m\214\002&"
 584      98FAABEA 
 584      E35C9F3A 
 584      D16D8C02 
 584      26
 585 16dd E7D1FE8C 		.ascii	"\347\321\376\214\353\244\364\321\260C\226\261\334\032"
 585      EBA4F4D1 
 585      B04396B1 
 585      DC1A
 586 16eb AC19BBD4 		.ascii	"\254\031\273\324\207\372\224\347\360x\360\342\270\264"
 586      87FA94E7 
 586      F078F0E2 
 586      B8B4
 587 16f9 B3C8A131 		.ascii	"\263\310\2411+\217\035\357V\036;>\205#\327\331\236\377"
 587      2B8F1DEF 
 587      561E3B3E 
 587      8523D7D9 
ARM GAS  /tmp/ccDZNm8G.s 			page 47


 587      9EFF
 588 170b 80914B12 		.ascii	"\200\221K\022\256X\346B#\225\226\326[\247z\252OtQ\302"
 588      AE58E642 
 588      239596D6 
 588      5BA77AAA 
 588      4F7451C2 
 589 171f DA79108D 		.ascii	"\332y\020\215\0066\243\017\253M>\361s\364\247\217\243"
 589      0636A30F 
 589      AB4D3EF1 
 589      73F4A78F 
 589      A3
 590 1730 31388171 		.ascii	"18\201q3\306_b|\206\307<|\312\232\261Wz\251\375\315"
 590      33C65F62 
 590      7C86C73C 
 590      7CCA9AB1 
 590      577AA9FD 
 591 1745 A27A1993 		.ascii	"\242z\031\223\332\304\220z\020I=\304\222$\0113\260>"
 591      DAC4907A 
 591      10493DC4 
 591      92240933 
 591      B03E
 592 1757 2BE6482B 		.ascii	"+\346H+\354\327\257^\357\3236Q\236\327\227{\3318r\335"
 592      ECD7AF5E 
 592      EFD33651 
 592      9ED7977B 
 592      D93872DD 
 593 176b 29F9C4F3 		.ascii	")\371\304\363N\262d<\267WRK\306\337;uK\306m\364\257"
 593      4EB2643C 
 593      B757524B 
 593      C6DF3B75 
 593      4BC66DF4 
 594 1780 10487EE2 		.ascii	"\020H~\342E\343\305\275:.\032\257\356e\270h\274\276"
 594      45E3C5BD 
 594      3A2E1AAF 
 594      EE65B868 
 594      BCBE
 595 1792 9776D158 		.ascii	"\227v\321X\221B\334\245\332\030q>\361\007\024\371Eg"
 595      9142DCA5 
 595      DA18713E 
 595      F10714F9 
 595      4567
 596 17a4 FCA5DA1A 		.ascii	"\374\245\332\032\013\023=\201\221\276\034i\257'\017"
 596      0B133D81 
 596      91BE1C69 
 596      AF270F
 597 17b3 AEF23E86 		.ascii	"\256\362>\206vm\365y\345\321\274\253hN\333z%6\247\006"
 597      766DF579 
 597      E5D1BCAB 
 597      684EDB7A 
 597      2536A706 
 598 17c7 386076F0 		.ascii	"8`v\360\235\262\327\021d"
 598      9DB2D711 
 598      64
 599 17d0 C2DD1641 		.ascii	"\302\335\026A$a*\026\271\251\267\311u\364l\336M\016"
 599      24612A16 
 599      B9A9B7C9 
 599      75F46CDE 
ARM GAS  /tmp/ccDZNm8G.s 			page 48


 599      4D0E
 600 17e2 AB4CFE75 		.ascii	"\253L\376u\204>\233\256>\264;;\212\251T\372\004+\276"
 600      843E9BAE 
 600      3EB43B3B 
 600      8AA954FA 
 600      042BBE
 601 17f5 C466B989 		.ascii	"\304f\271\211\236\227\245\247\363\026\351\301,\332\321"
 601      9E97A5A7 
 601      F316E9C1 
 601      2CDAD1
 602 1804 43D1E7CF 		.ascii	"C\321\347\317'\343:\341J\313x\232N\026\371\224\022G"
 602      27E33AE1 
 602      4ACB789A 
 602      4E16F994 
 602      1247
 603 1816 C1D6F180 		.ascii	"\301\326\361\200\305y+\323Q\026l\263e0-e\237\263`\021"
 603      C5792BD3 
 603      51166CB3 
 603      65302D65 
 603      9FB36011 
 604 182a 1EB038AF 		.ascii	"\036\2608\257G:\241\014gI\376\273\3054\227\371\022\032"
 604      473AA10C 
 604      6749FEBB 
 604      C53497F9 
 604      121A
 605 183c D556B392 		.ascii	"\325V\263\222\323]\306+\301\346c_d.u\200^s\021\306\033"
 605      D35DC62B 
 605      C1E6635F 
 605      642E7580 
 605      5E7311C6 
 606 1851 747D4057 		.ascii	"t}@W5!\314\254\352\231.\363\367*\353~\003\037\327\262"
 606      3521CCAC 
 606      EA992EF3 
 606      F72AEB7E 
 606      031FD7B2 
 607 1865 80B5ADD5 		.ascii	"\200\265\255\325\\\251y2\3718\017\234\333\240\275\214"
 607      5CA97932 
 607      F9380F9C 
 607      DBA0BD8C 
 608 1875 3E6C87F6 		.ascii	">l\207\366\211\355h\370d\027\031\004'b<\031\343J\214"
 608      89ED68F8 
 608      64171904 
 608      27623C19 
 608      E34A8C
 609 1888 5FC6780A 		.ascii	"_\306x\012\306S1\236\355\272\357\237\215*\011\247\356"
 609      C653319E 
 609      EDBAEF9F 
 609      8D2A09A7 
 609      EE
 610 1899 D68D755A 		.ascii	"\326\215uZ\303\224\250\037\3128\330\341c\305\374\026"
 610      C394A81F 
 610      CA38D8E1 
 610      63C5FC16 
 611 18a9 F7D0BDD4 		.ascii	"\367\320\275\324\342\276\356\"V\352\254NQ\250Z\376\263"
 611      E2BEEE22 
 611      56EAAC4E 
 611      51A85AFE 
ARM GAS  /tmp/ccDZNm8G.s 			page 49


 611      B3
 612 18ba F8FD898B 		.ascii	"\370\375\211\213_\323\227<D\371\235\327\227\375',\346"
 612      5FD3973C 
 612      44F99DD7 
 612      97FD272C 
 612      E6
 613 18cb 64AB1C55 		.ascii	"d\253\034U\030Y\325\347jW7%\245\376\317\034\361\277"
 613      1859D5E7 
 613      6A573725 
 613      A5FECF1C 
 613      F1BF
 614 18dd F484E80A 		.ascii	"\364\204\350\012*i\323\327\005\342f\236\315I\321%a\342"
 614      2A69D3D7 
 614      05E2669E 
 614      CD49D125 
 614      61E2
 615 18ef AFB8E09A 		.ascii	"\257\270\340\232\354fxF\023\\\243?s\321\374\007\260"
 615      EC667846 
 615      135CA33F 
 615      73D1FC07 
 615      B0
 616 1900 D2A49FB6 		.ascii	"\322\244\237\266]{Ey\271\304\233\330\246/\376*\341\000"
 616      5D7B4579 
 616      B9C49BD8 
 616      A62FFE2A 
 616      E100
 617 1912 D8F1CF84 		.ascii	"\330\361\317\204\227\273t\203\337\302S\015\"\316\324"
 617      97BB7483 
 617      DFC2530D 
 617      22CED4
 618 1921 C82F0986 		.ascii	"\310/\011\206\277\311\223\"\357\235j\220\230\277#\361"
 618      BFC99322 
 618      EF9D6A90 
 618      98BF23F1 
 619 1931 898BE839 		.ascii	"\211\213\3509\033W\262\3170\256;\245,\216S\270\305\226"
 619      1B57B2CF 
 619      30AE3BA5 
 619      2C8E53B8 
 619      C596
 620 1943 E1DC1AB8 		.ascii	"\341\334\032\270\015Z\270\203\022\007\\\234\347\030"
 620      0D5AB883 
 620      12075C9C 
 620      E718
 621 1951 376AE1DE 		.ascii	"7j\341\336\340\241.\316\223\214\233\265p\013y\340\342"
 621      E0A12ECE 
 621      938C9BB5 
 621      700B79E0 
 621      E2
 622 1962 3CCBB895 		.ascii	"<\313\270\225\205\223\204\231\250\020V\340\264\324m"
 622      85938499 
 622      A81056E0 
 622      B4D46D
 623 1971 D7C2CDE5 		.ascii	"\327\302\315\345\2013\032U\215>\254\346\371\304\025"
 623      81331A55 
 623      8D3EACE6 
 623      F9C415
 624 1980 2E625F56 		.ascii	".b_V\242\355X\205\361j\214\337\306\370\035\214\327`"
ARM GAS  /tmp/ccDZNm8G.s 			page 50


 624      A2ED5885 
 624      F16A8CDF 
 624      C6F81D8C 
 624      D760
 625 1992 BC96B52C 		.ascii	"\274\226\265,fc\331R\0273\221Y\240\357\244Fd7\305=\373"
 625      6663D952 
 625      17339159 
 625      A0EFA446 
 625      6437C53D 
 626 19a7 ACA1BB86 		.ascii	"\254\241\273\206\261\213\213\321..\301)\326'\030\237"
 626      B18B8BD1 
 626      2E2EC129 
 626      D627189F 
 627 19b7 C3F80ADD 		.ascii	"\303\370\012\335\304@\212\027b\\\203\361\022\036\352"
 627      C4408A17 
 627      625C83F1 
 627      121EEA
 628 19c6 17384D0F 		.ascii	"\0278M\017\012I\302\022]'\217\356\010\177\336k7=\215"
 628      0A49C212 
 628      5D278FEE 
 628      087FDE6B 
 628      373D8D
 629 19d9 3C055707 		.ascii	"<\005W\007\326\341}\023\234f\233\255\270w\242\354\321"
 629      D6E17D13 
 629      9C669BAD 
 629      B877A2EC 
 629      D1
 630 19ea 1EF04737 		.ascii	"\036\360G7\222k\023\024\303\355\025\355!\346\005X\337"
 630      926B1314 
 630      C3ED15ED 
 630      21E60558 
 630      DF
 631 19fb 96040515 		.ascii	"\226\004\005\025\246\224C\314\357}\221\333\223n\250"
 631      A69443CC 
 631      EF7D91DB 
 631      936EA8
 632 1a0a 0ADA5246 		.ascii	"\012\332RF{\273\353]F{\273\207\366LS\367vSt\256\031"
 632      7BBBEB5D 
 632      467BBB87 
 632      F64C53F7 
 632      765374AE 
 633 1a1f 21D24CB8 		.ascii	"!\322L\270\333]\2725A\"\010\235\214\267\033\312\230"
 633      DB5DBA35 
 633      4122089D 
 633      8CB71BCA 
 633      98
 634 1a30 6E65D3DB 		.ascii	"ne\323\333k]\244\243ns\305\225nt+{\033\036\331\246;"
 634      6B5DA4A3 
 634      6E73C595 
 634      6E742B7B 
 634      1B1ED9A6 
 635 1a45 53E6A514 		.ascii	"S\346\245\024\002w\030r{c\317T3n\311&\242\031\267\037"
 635      02771872 
 635      7B63CF54 
 635      336EC926 
 635      A219B71F 
 636 1a59 7070BBD7 		.ascii	"pp\273\327\230\333\033\205:nwrr\273\036\271\245\377"
ARM GAS  /tmp/ccDZNm8G.s 			page 51


 636      98DB1B85 
 636      3A6E7772 
 636      72BB1EB9 
 636      A5FF
 637 1a6b 656A5E4A 		.ascii	"ej^J!\360#Cn\327\277\332\010\206G\376\271\275\235<\036"
 637      21F02343 
 637      6ED7BFDA 
 637      088647FE 
 637      B9BD9D3C 
 638 1a80 2658381B 		.ascii	"&X8\033\331\300\301\360Qc\206o\352\031\256\347dXwR\201"
 638      D9C0C1F0 
 638      5163866F 
 638      EA19AEE7 
 638      64587752 
 639 1a95 2966A4CD 		.ascii	")f\244\315{\264\034?%\332\346\332\351\311\374\351-m"
 639      7BB41C3F 
 639      25DAE6DA 
 639      E9C9FCE9 
 639      2D6D
 640 1aa7 AB3EA878 		.ascii	"\253>\250x]\376\000O\346\353\271\216\263\316\275_\317"
 640      5DFE004F 
 640      E6EBB98E 
 640      B3CEBD5F 
 640      CF
 641 1ab8 3479D440 		.ascii	"4y\324@\377@\203\362\235w\301v\321\373\207zo\246\257"
 641      FF4083F2 
 641      9D77C176 
 641      D1FB877A 
 641      6FA6AF
 642 1acb 7D44E762 		.ascii	"}D\347b~o\213+\266\312\364\344\275\013d\325\3643\304"
 642      7E6F8B2B 
 642      B6CAF4E4 
 642      BD0B64D5 
 642      F433C4
 643 1ade 58A2C3F0 		.ascii	"X\242\303\360\211\203u>\347`\375\037+|e\223\247\247"
 643      8983753E 
 643      E760FD1F 
 643      2B7C6593 
 643      A7A7
 644 1af0 60BE24D4 		.ascii	"`\276$\324\365\326\256p0\345\206\2309\355\203c\266\372"
 644      F5D6AE70 
 644      30E58698 
 644      39ED8363 
 644      B6FA
 645 1b02 188E31BA 		.ascii	"\030\2161\272;u\252Q\257\243P\275\351x\207F\233\027"
 645      3B75AA51 
 645      AFA350BD 
 645      E9788746 
 645      9B17
 646 1b14 6DB4D683 		.ascii	"m\264\326\203\227'\2123&\3254\310\027\311\272\241z\036"
 646      97278A33 
 646      26D534C8 
 646      17C9BAA1 
 646      7A1E
 647 1b26 E68009D4 		.ascii	"\346\200\011\324\311\216\032\017 u\333\253{\031\267"
 647      C98E1A0F 
 647      2075DBAB 
ARM GAS  /tmp/ccDZNm8G.s 			page 52


 647      7B19B7
 648 1b35 3CFF72D6 		.ascii	"<\377r\326\372}D\324_\272\310zV\263\256v\316\365\254"
 648      FA7D44D4 
 648      5FBAC87A 
 648      56B3AE76 
 648      CEF5AC
 649 1b48 AF5DBAF5 		.ascii	"\257]\272\365\254c\257\342z\026\311O\274\236\365M\357"
 649      AC63AFE2 
 649      7A16C94F 
 649      BC9EF54D 
 649      EF
 650 1b59 8EEB5917 		.ascii	"\216\353Y\027z\033\256g]\353mx\010r\362=\206\207 g\334"
 650      7A1BAE67 
 650      5DEB6D78 
 650      0872F23D 
 650      86872067 
 651 1b6e 63780872 		.ascii	"cx\010r\301=\206\207 \227\337cx\010r\323=\206\207 w"
 651      C13D8687 
 651      2097DF63 
 651      780872D3 
 651      3D868720 
 652 1b83 DEA33D04 		.ascii	"\336\243=\004\251d\357\211e\2472\331_\304\262;1\331"
 652      A964EF89 
 652      65A732D9 
 652      5FC4B23B 
 652      31D9
 653 1b95 3FC4B2D3 		.ascii	"?\304\262\323\230l\371\336hv:\223\375\367X\366mLvM,"
 653      986CF9DE 
 653      68763A93 
 653      FDF758F6 
 653      6D4C764D 
 654 1baa BB3393BD 		.ascii	"\2733\223\2756\226\335\205\311\336\026\313\356\312d"
 654      3696DD85 
 654      C9DE16CB 
 654      EECA64
 655 1bb9 7F1CCBEE 		.ascii	"\177\034\313\356\306d\037\215ewg\351\216e\337\256\264"
 655      C6641F8D 
 655      657767E9 
 655      8E65DFAE 
 655      B4
 656 1bca 25F91A77 		.ascii	"%\371\032wY1\246#>\3614\366\2513.\343eE3{\325\242\267"
 656      5931A623 
 656      3EF134F6 
 656      A9332EE3 
 656      6545337B 
 657 1be1 5764B048 		.ascii	"Wd\260H\362\301PE\367g9%\216\327\011\373\304\252\024"
 657      F2C15045 
 657      F7673925 
 657      8ED709FB 
 657      C4AA14
 658 1bf4 BEB77083 		.ascii	"\276\267p\203*\366\321\033\253\245\372wI'\3772\357\351"
 658      2AF6D11B 
 658      ABA5FA77 
 658      4927FF32 
 658      EFE9
 659 1c06 29860F5E 		.ascii	")\206\017^\326\212\035\367\034%aJ\037cK2'\305\310\222"
 659      D68A1DF7 
ARM GAS  /tmp/ccDZNm8G.s 			page 53


 659      1C25614A 
 659      1F634B32 
 659      27C5C892 
 660 1c1a B456199A 		.ascii	"\264V\031\232\243*\023\220y\206 \323\1778\373\270\331"
 660      A32A1390 
 660      798620D3 
 660      7F38FBB8 
 660      D9
 661 1c2b 401467E1 		.ascii	"@\024g\341k~\212\256a\327\341\013u5\334,4!d\201!!\027"
 661      6B7E8AAE 
 661      61D7E10B 
 661      7535DC2C 
 661      34216481 
 662 1c42 AB7E9492 		.ascii	"\253~\224\222 \244ZO\010q\276\242_\224c\247:\302V\230"
 662      20A45A4F 
 662      0871BEA2 
 662      5F9463A7 
 662      3AC25698 
 663 1c56 10B6D888 		.ascii	"\020\266\330\210\260\310\216\306\251\262HO@\362\223"
 663      B0C88EC6 
 663      A9B2484F 
 663      40F293
 664 1c65 B5D4882C 		.ascii	"\265\324\210,\035\031\357\231\220\361\226\241|N~\025"
 664      1D19EF99 
 664      90F196A1 
 664      7C4E7E15 
 665 1c75 F99F24E4 		.ascii	"\371\237$\344\263\274\003!RT>\334\333n\221\272\252;"
 665      B3BC0321 
 665      52543EDC 
 665      DB6E91BA 
 665      AA3B
 666 1c87 C8E0B02A 		.ascii	"\310\340\260*\005\037\265\350\320_\222;-\022%\351\244"
 666      051FB5E8 
 666      D05F923B 
 666      2D1225E9 
 666      A4
 667 1c98 C153C892 		.ascii	"\301S\310\222\360\211\211x\326h\305\363ka\261\034i\202"
 667      F0898978 
 667      D668C5F3 
 667      6B61B11C 
 667      6982
 668 1caa 69D1A553 		.ascii	"i\321\245S\"8*\015d\213\242]\354\343\023\337\305\177"
 668      22382A0D 
 668      648BA25D 
 668      ECE313DF 
 668      C57F
 669 1cbc EC3E1545 		.ascii	"\354>\025EQ\027n~\243\362\267V\225\321\332\030\"E\213"
 669      51176E7E 
 669      A3F2B756 
 669      95D1DA18 
 669      22458B
 670 1ccf D4AE4C05 		.ascii	"\324\256L\005?\021\373\225\372\307\345\247\365@\317"
 670      3F11FB95 
 670      FAC7E5A7 
 670      F540CF
 671 1cde A838D137 		.ascii	"\2508\3217\\)0\003\204\365\362\313\221\276\264 =+\375"
 671      5C293003 
ARM GAS  /tmp/ccDZNm8G.s 			page 54


 671      84F5F2CB 
 671      91BEB420 
 671      3D2BFD
 672 1cf1 7F85EBF2 		.ascii	"\177\205\353\362\313rd\313\035\364`!\251\2058\201sn"
 672      CB7264CB 
 672      1DF46021 
 672      A9853881 
 672      736E
 673 1d03 2E17ABE4 		.ascii	".\027\253\344\232\030\315\364_\306\277\353@\263\346"
 673      9A18CDF4 
 673      5FC6BFEB 
 673      40B3E6
 674 1d12 3FC5495D 		.ascii	"?\305I]\0335B\240G\261i%\344\310\360(\335j\360\2148"
 674      1B3542A0 
 674      47B16925 
 674      E4C8F028 
 674      DD6AF08C 
 675 1d27 7F3EB639 		.ascii	"\177>\2669f\240\024\346\333V0\314\317\300\277S\273\224"
 675      66A014E6 
 675      DB5630CC 
 675      CFC0BF53 
 675      BB94
 676 1d39 90F9AD1A 		.ascii	"\220\371\255\032\346\237\240\005\351\277\312\221;\347"
 676      E69FA005 
 676      E9BFCA91 
 676      3BE7
 677 1d47 4B7492B0 		.ascii	"Kt\222\260@\371N\376\277O\006j\355\002\375\2679\222"
 677      40F94EFE 
 677      BF4F066A 
 677      ED02FDB7 
 677      3992
 678 1d59 6723C31E 		.ascii	"g#\303\036\375\3339\345k_\225\275/\242\354E\352\356"
 678      FDDB39E5 
 678      6B5F95BD 
 678      2FA2EC45 
 678      EAEE
 679 1d6b A0342BC4 		.ascii	"\2404+\304\316^\331\201\330\237\022\022\273\343\237"
 679      CE5ED981 
 679      D89F1212 
 679      BBE39F
 680 1d7a 416C5756 		.ascii	"AlWV\214\362\301\310\261\315d\023_%\215\316\235o\351"
 680      8CF2C1C8 
 680      B1CD6413 
 680      5F258DCE 
 680      9D6FE9
 681 1d8d 49EBD01C 		.ascii	"I\353\320\034;\265\272\0108\207\337dq\350\234\377\025"
 681      3BB5BA08 
 681      3887DF64 
 681      71E89CFF 
 681      15
 682 1d9e 77229C0F 		.ascii	"w\"\234\017c8I\356m|\254\265\034\351\302\253\254J\015"
 682      633849EE 
 682      6D7CACB5 
 682      1CE9C2AB 
 682      AC4A0D
 683 1db1 36D7A8FA 		.ascii	"6\327\250\372\224tA\3671\273\365\243\230\362\351T\366"
 683      947441F7 
ARM GAS  /tmp/ccDZNm8G.s 			page 55


 683      31BBF5A3 
 683      98F2E954 
 683      F6
 684 1dc2 90C9E213 		.ascii	"\220\311\342\023N\375LK\355\217\263\355\261\333\244"
 684      4EFD4C4B 
 684      ED8FB3ED 
 684      B1DBA4
 685 1dd1 14BF441A 		.ascii	"\024\277D\032\365\266\224p\312ulh\217)\305D/\314J\355"
 685      F5B69470 
 685      CA756C68 
 685      8F29C544 
 685      2FCC4AED 
 686 1de5 352D3525 		.ascii	"5-5%N\251}\246\245\310X`:\2634-\2654N\251&\323R\325"
 686      4EA97DA6 
 686      A5C85860 
 686      3AB3342D 
 686      B5344EA9 
 687 1dfd 714A1D30 		.ascii	"qJ\0350-E\3365cV\352`\254\224\362\327\344\361\376\374"
 687      2D45DE35 
 687      6356EA60 
 687      AC94F2D7 
 687      E4F1FEFC 
 688 1e11 177A12BE 		.ascii	"\027z\022\276\2516\321\277\363\342\354v\002\367\237"
 688      A936D1BF 
 688      F3E2EC76 
 688      02F79F
 689 1e20 1F936FEF 		.ascii	"\037\223o\357\343\373\234\352\331\177\307\324\2611?"
 689      E3FB9CEA 
 689      D97FC7D4 
 689      B1313F
 690 1e2f 0EF3874D 		.ascii	"\016\363\207M\231'\356\233Y\251\317LK\265\304Q\371#"
 690      9927EE9B 
 690      59A9CF4C 
 690      4BB5C451 
 690      F923
 691 1e41 8CF3692F 		.ascii	"\214\363i/\030\353\013:\207\214\034\345\316\024\036"
 691      18EB0B3A 
 691      878C1CE5 
 691      CE141E
 692 1e50 CA185B56 		.ascii	"\312\030[V\342\317((+|!\243\320?.\243`l`t\240,\224\021"
 692      E2CF2828 
 692      2B7C21A3 
 692      D03F2EA3 
 692      606C6074 
 693 1e68 0E56943E 		.ascii	"\016V\224>\233\001\011\377\370pF\221/\\\024\312\010"
 693      9B0109FF 
 693      F8704691 
 693      2F5C14CA 
 693      08
 694 1e79 050B328A 		.ascii	"\005\0132\212\212\036\034+8\006\017\314\037\234\367"
 694      8A1E1C2B 
 694      38060FCC 
 694      1F9CF7
 695 1e88 A8B59281 		.ascii	"\250\265\222\201\322\260\177\214?\010\305\355\203\236"
 695      D2B07F8C 
 695      3F08C5ED 
 695      839E
ARM GAS  /tmp/ccDZNm8G.s 			page 56


 696 1e96 CECF7615 		.ascii	"\316\317v\025\205\274\341\027\312\375\266\302\3408G"
 696      85BCE117 
 696      CAFDB6C2 
 696      E03847
 697 1ea5 4128F07F 		.ascii	"A(\360\177\374\316R/\334\035r<_T\354\033\223R\024\012"
 697      FCCE522F 
 697      DC1D723C 
 697      5F54EC1B 
 697      9352140A 
 698 1eb9 7849C2FE 		.ascii	"xI\302\376T\216'K\012\024\246\226z\203ee\341\302@\320"
 698      548E274B 
 698      0A14A696 
 698      7A836565 
 698      E1C240D0 
 699 1ecd 9145B23A 		.ascii	"\221E\262:\025\373BaoAqE(\334\251(\350\367\323d\012"
 699      15FB4261 
 699      6F417145 
 699      28DCA928 
 699      E8F7D364 
 700 1ee2 62F84BC3 		.ascii	"b\370K\303\216\"\002\351\032WV<\332\027\362\273 \023"
 700      8E2202E9 
 700      1A57563C 
 700      DA17F2BB 
 700      2013
 701 1ef4 AF509C5C 		.ascii	"\257P\234\\S\012}a\037f<\037(\015\371\013\3026\270>"
 701      530A7D61 
 701      1F663C1F 
 701      280DF90B 
 701      C236B83E 
 702 1f08 9C889FB1 		.ascii	"\234\210\237\261\276b\340\002\352)\364g\224\224\024"
 702      BE62E002 
 702      EA29F467 
 702      949414
 703 1f17 7843E501 		.ascii	"xC\345\001\340&u\304\210\314\314\262\322\242\300\230"
 703      E02675C4 
 703      88CCCCB2 
 703      D2A2C098 
 704 1f27 2C1E80F2 		.ascii	",\036\200\362\262`8\224\221\227?\342\241\376\031\303"
 704      B2603894 
 704      91973FE2 
 704      A1FE19C3 
 705 1f37 876765E4 		.ascii	"\207ge\344\345\016\033\327/\003\240\274\305\305\205"
 705      E50E1BD7 
 705      2F03A0BC 
 705      C5C585
 706 1f46 040E32B2 		.ascii	"\004\0162\262\202\201q\376`\177+\364PZ:\301%\024\006"
 706      828171FE 
 706      607F2BF4 
 706      505A3AC1 
 706      251406
 707 1f59 0178C39D 		.ascii	"\001x\303\235\000\307;j\344\260\221\303\362SH2/?'\227"
 707      00C73B6A 
 707      E4B091C3 
 707      F2534832 
 707      2F3F2797 
 708 1f6d 607B3DD9 		.ascii	"`{=\331\003\263\236\306_\007f\346\017\373Kv:If\346\214"
 708      03B39EC6 
ARM GAS  /tmp/ccDZNm8G.s 			page 57


 708      5F0766E6 
 708      0FFB4B76 
 708      3A4966E6 
 709 1f82 C81D9E9D 		.ascii	"\310\035\236\235\237\355\300\322\267\001L\201\257\030"
 709      9FEDC0D2 
 709      B7014C81 
 709      AF18
 710 1f90 4457F0AC 		.ascii	"DW\360\2547\354\364\227\026z\013Fg'\303\335"
 710      37ECF497 
 710      167A0B46 
 710      6727C3DD 
 711 1fa0 90DC6139 		.ascii	"\220\334a9\343\372g\224\373\212\025\366\322C\341\222"
 711      E3FA6794 
 711      FB8A15F6 
 711      D243E192 
 712 1fb0 87FA7BC7 		.ascii	"\207\372{\307\224\007\312\274\341\337fT\204\202\031"
 712      9407CABC 
 712      E1DF6654 
 712      848219
 713 1fbf BE60C903 		.ascii	"\276`\311\003\245e\245\376\007\374\276\321\201\030C"
 713      A565A5FE 
 713      07FCBED1 
 713      811843
 714 1fce D0D4A561 		.ascii	"\320\324\245a(\221R\001W(\022\036\020\347\356\022\037"
 714      28915201 
 714      5728121E 
 714      10E7EE12 
 714      1F
 715 1fdf 9053EACF 		.ascii	"\220S\352\317\360\026\372\213|\025\305aT\255\020\221"
 715      F016FA8B 
 715      7C15C561 
 715      54AD1091 
 716 1fef 88D7AB96 		.ascii	"\210\327\253\226w\214\310\311\312\3668s\362\237\316"
 716      778CC8C9 
 716      CAF63873 
 716      F29FCE
 717 1ffe CDF6     		.ascii	"\315\366"
 718 2000 B872F272 		.ascii	"\270r\362r\263\263\263<\216\334Q\271Y\036\3330\0109"
 718      B3B3B33C 
 718      8EDC51B9 
 718      591EDB30 
 718      0839
 719 2012 591EF129 		.ascii	"Y\036\361)\254\255\337\303 ?Z\220$m!\177\330QP\354\367"
 719      ACADDFC3 
 719      203F5A90 
 719      246D217F 
 719      D85150EC 
 720 2027 05C5A1F6 		.ascii	"\005\305\241\366Ay\036\217}x\346\223\036\373\300\301"
 720      41791E8F 
 720      7D78E693 
 720      1EFBC0C1 
 721 2037 9EE1241A 		.ascii	"\236\341$\032j\033\344\361t\012\224\021\336\003\205"
 721      6A1BE4F1 
 721      740A9411 
 721      DE0385
 722 2046 20AF5088 		.ascii	" \257P\210$\035p\361\025\332\012\202\375\210\330\251"
 722      241D70F1 
ARM GAS  /tmp/ccDZNm8G.s 			page 58


 722      15DA0A82 
 722      FD88D8A9 
 723 2056 86380BF0 		.ascii	"\2068\013\360\222\260\347\004\303Q\316\012\306\206^"
 723      92B0E704 
 723      C351CE0A 
 723      C6865E
 724 2065 08A9DCA4 		.ascii	"\010\251\334\244\204\307\006\375>\250#\265`\254\227"
 724      84C706FD 
 724      3EA823B5 
 724      60AC97
 725 2074 A60758C3 		.ascii	"\246\007X\303*\030KZ\301Y\356-\205\336\011\227\362\240"
 725      2A184B5A 
 725      C159EE2D 
 725      85DE0997 
 725      F2A0
 726 2086 7FDC500E 		.ascii	"\177\334P\016\010\332\260\003=#2G\214\207;K\312\003"
 726      08DAB003 
 726      3D233247 
 726      8C873B4B 
 726      CA03
 727 2098 C5FE6028 		.ascii	"\305\376`(cHf&\334\256\222\347\012\227\007I\273\"n\240"
 727      63486626 
 727      DCAE92E7 
 727      0A970749 
 727      BB226EA0 
 728 20ac CC05DC86 		.ascii	"\314\005\334\206\241\232?X\306\037[P\026\364\003`\032"
 728      A19A3F58 
 728      C61F5B50 
 728      16F40360 
 728      1A
 729 20bd C9F64233 		.ascii	"\311\366B3\024\204\307\377gr(\336q\217\224\020\311\005"
 729      1484C7FF 
 729      677228DE 
 729      718F9410 
 729      C905
 730 20cf FD634075 		.ascii	"\375c@uHc\366{\030\302#\020\036\205\360\007[\250\177"
 730      4863F67B 
 730      18C22310 
 730      1E85F007 
 730      5BA87F
 731 20e2 5F08FD20 		.ascii	"_\010\375 \364\207\360\020\204\001\020~\017\001\356"
 731      F487F010 
 731      8401107E 
 731      0F01EE
 732 20f1 EB0FF7F5 		.ascii	"\353\017\367\365\207\373\372\303}\017\301}\017\365\223"
 732      87FBFAC3 
 732      7D0FC17D 
 732      0FF593
 733 2100 8203A4E0 		.ascii	"\202\003\244\340\357\245\340\303R\360\021)\370\250\024"
 733      EFA5E0C3 
 733      52F01129 
 733      F8A814
 734 210f FC832DD8 		.ascii	"\374\203-\330\257/\204~Rq\020.\0179\312\275@\255\213"
 734      AF2F847E 
 734      5271102E 
 734      0F39CABD 
 734      40AD8B
ARM GAS  /tmp/ccDZNm8G.s 			page 59


 735 2122 48F8797F 		.ascii	"H\370y\177\020\256e\305\205\376 \221\270\257\304\237"
 735      10AE65C5 
 735      85FE2091 
 735      B8AFC49F 
 736 2132 1256BAA7 		.ascii	"\022V\272\247\213(\327\243\320\220T\315 \005w\342o\256"
 736      8B28D7A3 
 736      D09054CD 
 736      200577E2 
 736      6FAE
 737 2144 704959A1 		.ascii	"pIY\241\037\277\023\373\027r\205\203~b+\001\201$\034"
 737      1FBF13FB 
 737      17728583 
 737      7E622B01 
 737      81241C
 738 2157 25A131F0 		.ascii	"%\2411\360\243\242\323P\\I9\203\205/\300O)\376\361\201"
 738      A3A2D350 
 738      5C493983 
 738      852FC04F 
 738      29FEF181 
 739 216b 30C8C8EF 		.ascii	"0\310\310\357|>\\6\372\277\313\323\374\343\300\032\226"
 739      7C3E5C36 
 739      FABFCBD3 
 739      FCE3C01A 
 739      96
 740 217c F842D891 		.ascii	"\370B\330\221\237'\011[\271\267\2423U\236\220\267\030"
 740      9F27095B 
 740      B9B7A233 
 740      559E90B7 
 740      18
 741 218d EC8537DC 		.ascii	"\354\2057\334%\252N4'\265\334\373\274/\020\016\224\216"
 741      25AA4E34 
 741      27B5DCFB 
 741      BC2F100E 
 741      948E
 742 219f E9A2663F 		.ascii	"\351\242f?W\341\257\000\252\2722wbV\247r/T\213I\007"
 742      57E1AF00 
 742      AABA3277 
 742      6256A772 
 742      2F548B49 
 743 21b4 2621C35F 		.ascii	"&!\303_\016&\003\012;J*\240\375\023\2160\032\015-\011"
 743      0E26030A 
 743      3B4A2AA0 
 743      FD138E30 
 743      1A0D2D09 
 744 21c8 8F279A54 		.ascii	"\217'\232TB\321\341Z\366|)\210\021\221\200\205\022T"
 744      42D1E15A 
 744      F67C2988 
 744      11918085 
 744      1254
 745 21da 5CA00FEE 		.ascii	"\\\240\017\356#\224v\"R\361\025\243\272AfyYY\361#\226"
 745      23947622 
 745      52F115A3 
 745      BA416679 
 745      5959F123 
 746 21ef EA539881 		.ascii	"\352S\230\201:\273+\235\013\244\354\017\372K\013\200"
 746      3ABB2B9D 
 746      0BA4EC0F 
ARM GAS  /tmp/ccDZNm8G.s 			page 60


 746      FA4B0B80 
 747 21ff 5B27CDFA 		.ascii	"['\315\372\017\236\221.sD\336\260<0}\031h\341\212\006"
 747      0F9E912E 
 747      7344DEB0 
 747      3C307D19 
 747      68E18A06 
 748 2213 F4ED371E 		.ascii	"\364\3557\036U\230\230\327|\350 Y\376\"[\246\247\037"
 748      559898D7 
 748      7CE82059 
 748      FE225BA6 
 748      A71F
 749 2225 84FE529E 		.ascii	"\204\376R\236G\002\323\223\351\311\314\3658=\177\205"
 749      4702D393 
 749      E9C9CCF5 
 749      383D7F85 
 750 2235 ABC7998F 		.ascii	"\253\307\231\217\027\327\260\376y\231\203\207x\034p"
 750      17D7B0FE 
 750      79998387 
 750      781C70
 751 2244 CDF5D8C0 		.ascii	"\315\365\330\300\016\017\266jv1\036<`\374xJ\210\267"
 751      0E0FB66A 
 751      76311E3C 
 751      60FC784A 
 751      88B7
 752 2256 B0C44798 		.ascii	"\260\304G\230\313\0321\320\233\007\252\344+Q\251\221"
 752      CB1A31D0 
 752      9B07AAE4 
 752      2B51A991 
 753 2266 323DF691 		.ascii	"2=\366\221Y\371\036[\356@\217}D_\022\365\033\350\261"
 753      59F91E5B 
 753      EE408F7D 
 753      445F12F5 
 753      1BE8B1
 754 2279 0D066242 		.ascii	"\015\006bBx\243=PT\020t\006Bc\003E\341\324\220\277\270"
 754      78A33D50 
 754      54107406 
 754      42630345 
 754      E1D490BF 
 755 228e 28505AE8 		.ascii	"(PZ\350\037\357\034\007\343eY\260{\024\335K\357\006"
 755      1FEF1C07 
 755      E36559B0 
 755      7B14DD4B 
 755      EF06
 756 22a0 030B5F82 		.ascii	"\003\013_\202\343I\034\036\237\032\034\017W\242\311"
 756      E3491C1E 
 756      9F1A1C0F 
 756      57A2C9
 757 22af A9613565 		.ascii	"\251a5e\007v\312\035\305\241\202\2421\216\261$N\011"
 757      0776CA1D 
 757      C5A182A2 
 757      318EB124 
 757      4E09
 758 22c1 94515D77 		.ascii	"\224Q]wx\007A\303%T\224q>h\346\212\020\374\000\355]"
 758      780741C3 
 758      25549471 
 758      3E68E68A 
 758      10FC00ED 
ARM GAS  /tmp/ccDZNm8G.s 			page 61


 759 22d6 1A26AE88 		.ascii	"\032&\256\210\265\306\246\224\222\306\3561\010F\377"
 759      B5C6A694 
 759      92C6EE31 
 759      0846FF
 760 22e5 3C3F2859 		.ascii	"<?(Yi8\340+\246\222\271\313(\363/#\362\373\343\310S"
 760      6938E02B 
 760      A692B9CB 
 760      28F32F23 
 760      F2FBE3C8 
 761 22fa 1C189D31 		.ascii	"\034\030\2351\246\240@7\002\015x\360\321\007\007\260"
 761      A6A04037 
 761      020D78F0 
 761      D10707B0 
 762 230a A3168C40 		.ascii	"\243\026\214@\304\302\022\367\003\030{>\030\010\373"
 762      C4C212F7 
 762      03187B3E 
 762      1808FB
 763 2319 ED44896C 		.ascii	"\355D\211l\345\025a\333\030\177\3306\256$\234\242r`"
 763      E51561DB 
 763      187FD836 
 763      AE249CA2 
 763      7260
 764 232b 8384ADA8 		.ascii	"\203\204\255\250$\3349T\010\036E(PR^\354\177\260\000"
 764      24DC3954 
 764      081E4528 
 764      50525EEC 
 764      7FB000
 765 233e 7D0AEA04 		.ascii	"}\012\352\004\244GS@GZ \344%\376J0\354/L\207ty\260,"
 765      A4475340 
 765      475A20E4 
 765      25FE4A30 
 765      EC2F4C87 
 766 2356 0C8DE12F 		.ascii	"\014\215\341/$\226\266\024R\235\012\003!%i\017\275P"
 766      2496B614 
 766      529D0A03 
 766      2125690F 
 766      BD50
 767 2368 5AF0472B 		.ascii	"Z\360G+.\004\244\275\201\262\321\305e\005\317\002\003"
 767      2E04A4BD 
 767      81B2D1C5 
 767      6505CF02 
 767      03
 768 2379 5D069144 		.ascii	"]\006\221D\226\177\\\240\300?\254\264\250,et\361\263"
 768      967F5CA0 
 768      C03FACB4 
 768      A82C6574 
 768      F1B3
 769 238b 5EF4A948 		.ascii	"^\364\251H\242\264\242$\005x\001j\212\312:A\206\352"
 769      A2B4A224 
 769      0578016A 
 769      8ACA3A41 
 769      86EA
 770 239d 740C1AFE 		.ascii	"t\014\032\376\244\352t\220$q:0\217\272\032\235I23g\344"
 770      A4EA7490 
 770      24713A30 
 770      8FBA1A9D 
 770      49323367 
ARM GAS  /tmp/ccDZNm8G.s 			page 62


 771 23b2 C86CF83A 		.ascii	"\310l\370:rH7\3625kX^,'\225\344\240\203\222\246\246"
 771      724837F2 
 771      356B585E 
 771      2C2795E4 
 771      A08392A6 
 772 23c7 2017D34F 		.ascii	" \027\323Oy\206\345\253\351\274\247GfB\332V\020\200"
 772      7986E5AB 
 772      E9BCA747 
 772      6642DA56 
 772      1080
 773 23d9 F1355498 		.ascii	"\3615T\230R\340+\367\025\004\302/tA\342\275\276\302"
 773      52E02BF7 
 773      1504C22F 
 773      7441E2BD 
 773      BEC2
 774 23eb C2A03F14 		.ascii	"\302\240?\024\362\207n\017\025zAL\005\276`aTnv\220s"
 774      F2876E0F 
 774      157A414C 
 774      05BE6061 
 774      546E7690 
 775 2400 E11DF407 		.ascii	"\341\035\364\007l\234\230\024\235\324\020\247\240M\205"
 775      6C9C9814 
 775      9DD410A7 
 775      A04D85
 776 240f 84A651C0 		.ascii	"\204\246Q\300&\341WhS\274\022e.t\025\3010\010\343s\012"
 776      26E15768 
 776      53BC1265 
 776      2E7415C1 
 776      3008E373 
 777 2424 6478A08D 		.ascii	"dx\240\215_\000\257\026\257\277\267\344\273\371\203"
 777      5F00AF16 
 777      AFBFB7E4 
 777      BBF983
 778 2433 A06DC439 		.ascii	"\240m\3049\312\303\024m\357.\354\027h\374T\342\007\004"
 778      CAC3146D 
 778      EF2EEC17 
 778      68FC54E2 
 778      0704
 779 2445 4A40CA76 		.ascii	"J@\312v\320\244\260\035\304\037v\"\007a\007\321\257"
 779      D0A4B01D 
 779      C41F7622 
 779      076107D1 
 779      AF
 780 2456 7042FF55 		.ascii	"pB\377U\323\025p\\ =\2413\246\274\241\262\212 1y\351"
 780      D315705C 
 780      203DA133 
 780      A6BCA1B2 
 780      8A203179 
 781 246b ECD7AEF4 		.ascii	"\354\327\256\364\0131\264~\260\302 \022m\206\313_\214"
 781      0B31B47E 
 781      B0C22012 
 781      6D86CB5F 
 781      8C
 782 247c F6380DAE 		.ascii	"\3668\015\256j^*\244)8\205\302A\014\244\012\331\230"
 782      6A5E2AA4 
 782      293885C2 
 782      410CA40A 
ARM GAS  /tmp/ccDZNm8G.s 			page 63


 782      D998
 783 248e 24BF3F4F 		.ascii	"$\277?OG6\177\010K;\360\276\324P\241\242E\251yY\212"
 783      47367F08 
 783      4B3BF0BE 
 783      D450A1A2 
 783      45A97959 
 784 24a3 12B92045 		.ascii	"\022\271 Et(\005\256\250\026\326x\304!\204\360x[\240"
 784      742805AE 
 784      A816D678 
 784      C42184F0 
 784      785BA0
 785 24b6 1464A68E 		.ascii	"\024d\246\216a\340\253\251\311\0245\231\372\234:\342"
 785      61E0ABA9 
 785      C9143599 
 785      FA9C3AE2 
 786 24c6 41AAA0AC 		.ascii	"A\252\240\254\002\034\227`\312s\336\321\025E0\0308\236"
 786      021C9760 
 786      CA73DED1 
 786      15453018 
 786      389E
 787 24d8 F386CBCA 		.ascii	"\363\206\313\312]pK\260<\034\204k\260\020\256\251\317"
 787      5D704BB0 
 787      3C1C846B 
 787      B010AEA9 
 787      CF
 788 24e9 95968503 		.ascii	"\225\226\205\003E/\000\312s^\232t>\007b(}\326\031@\314"
 788      452F00CA 
 788      735E9A74 
 788      3E076228 
 788      7DD61940 
 789 24fe CE651561 		.ascii	"\316e\025a\246Zg\031&\244\300h\251l\364m\243\362\006"
 789      A65A6719 
 789      26A4C068 
 789      A96CF46D 
 789      A3F206
 790 2511 7AF29981 		.ascii	"z\362\231\201\341!\373\220\374\\\217\243\"\344\013\206"
 790      E121FB90 
 790      FC5C8FA3 
 790      22E40B86 
 791 2521 BBA0860D 		.ascii	"\273\240\206\015+\015\020+\004]N\012\025\332J\212\013"
 791      2B0D102B 
 791      045D4E0A 
 791      15DA4A8A 
 791      0B
 792 2532 A5507957 		.ascii	"\245PyW\362\313\020\1778j\025:\341\255\22038\217\252"
 792      F2CB107F 
 792      386A153A 
 792      E1AD9033 
 792      388FAA
 793 2545 EBE0BC11 		.ascii	"\353\340\274\021H}\241%\243\345\013\216!\032>\316\207"
 793      487DA125 
 793      A3E50B8E 
 793      211A3ECE 
 793      87
 794 2556 CDD8D9EB 		.ascii	"\315\330\331\353\035SZQ\340U\276\246\375itE\2408\374"
 794      1D535A51 
 794      E055BEA6 
ARM GAS  /tmp/ccDZNm8G.s 			page 64


 794      FD697445 
 794      A038FC
 795 2569 40A0F431 		.ascii	"@\240\3641\001\034\016%\027\\\320q\324\210\335\006\325"
 795      011C0E25 
 795      175CD071 
 795      D488DD06 
 795      D5
 796 257a 66450D8F 		.ascii	"fE\015\217k\260';o\324\360|\307`\2177\347\3114\210\241"
 796      6BB0273B 
 796      6FD4F07C 
 796      C7608F37 
 796      E7C93488 
 797 258f 8B3FE9CD 		.ascii	"\213?\351\315\006\037\031\322\303F\346\223d:$G\346\344"
 797      061F19D2 
 797      C346E693 
 797      643A2447 
 797      E6E4
 798 25a1 2B9311FC 		.ascii	"+\223\021\374\342\035<lx\266\222\314\035\230?\264\013"
 798      E21D3C6C 
 798      78B692CC 
 798      1D983FB4 
 798      0B
 799 25b2 DEFD9781 		.ascii	"\336\375\227\201\303\207eyG\016\034\221\235J\220\262"
 799      C3876579 
 799      470E1C91 
 799      9D4A90B2 
 800 25c2 470ECBCE 		.ascii	"G\016\313\316J\201T\366_\207\345\345wcn\311\031\364"
 800      4A8154F6 
 800      5F87E5E5 
 800      77636EC9 
 800      19F4
 801 25d4 67B021DD 		.ascii	"g\260!\335!\207X\212lo\256''\0372\262\263\27227ey\210"
 801      2187588A 
 801      6C6FAE27 
 801      271F32B2 
 801      B3BA3237 
 802 25eb 1552EACE 		.ascii	"\025R\352\316\0369p\320p\372\273R{\336\323y\371\331"
 802      1E3970D0 
 802      70FABB52 
 802      7BDED379 
 802      F9D9
 803 25fd 2348C523 		.ascii	"#H\305#\236\034\234\347\0358(\307\003\000\204\246\374"
 803      9E1C9CE7 
 803      1D3828C7 
 803      030084A6 
 803      FC
 804 260e 6123B273 		.ascii	"a#\262sF\345\023\032\206\347d>\231\235\325=\012\222"
 804      46E5131A 
 804      86E7643E 
 804      999DD53D 
 804      0A92
 805 2620 336AC850 		.ascii	"3j\310P0j\236\354;\311}99\336\021\003G>\355\315\311"
 805      306A9EEC 
 805      3BC97D39 
 805      39DE1103 
 805      473EEDCD 
 806 2635 CD1E4931 		.ascii	"\315\036I1{0\365\303H\013\234\344g{\034\371\231C\007"
ARM GAS  /tmp/ccDZNm8G.s 			page 65


 806      7B30F5C3 
 806      480B9CE4 
 806      677B1CF9 
 806      994307
 807 2648 7A5C45DE 		.ascii	"z\\E\336\022\322X\235@\200\231\212\005/\030\233?\266"
 807      12D2589D 
 807      4080998A 
 807      052F189B 
 807      3FB6
 808 265a 30AFD8EF 		.ascii	"0\257\330\357/'F%/\014\352@\344\2333\372\277\341W\242"
 808      2F274625 
 808      2F0CEA40 
 808      E49B33FA 
 808      BFE157A2 
 809 266e 12E974A6 		.ascii	"\022\351t\246A]\272;\274\312\324\312\013s\2241\301\262"
 809      415DBA3B 
 809      BCCAD4CA 
 809      0B739431 
 809      C1B2
 810 2680 8A7232A0 		.ascii	"\212r2\240J\203\363\234\004\022\306Y2\233|\010\306\334"
 810      4A83F39C 
 810      0412C659 
 810      329B7C08 
 810      C6DC
 811 2692 4C1C7321 		.ascii	"L\034s!\356D\255M.@HyY\377\017\002\372\376x"
 811      EE44AD4D 
 811      2E404879 
 811      59FF0F02 
 811      FAFE78
 812              		.text
 813              		.section	.gnu.lto_.symtab.976c78eeb28e6291,"",%progbits
 814 0000 73645F69 		.ascii	"sd_is_card_inserted\000\000\000\000\000\000\000\000"
 814      735F6361 
 814      72645F69 
 814      6E736572 
 814      74656400 
 815 001b 00000000 		.ascii	"\000\000\000\000\232\002\000\000sd_is_write_protect"
 815      9A020000 
 815      73645F69 
 815      735F7772 
 815      6974655F 
 816 0036 65640000 		.ascii	"ed\000\000\000\000\000\000\000\000\000\000\000\000\375"
 816      00000000 
 816      00000000 
 816      0000FD
 817 0045 02000073 		.ascii	"\002\000\000sdmmcInitialize\000\000\000\000\000\000"
 817      646D6D63 
 817      496E6974 
 817      69616C69 
 817      7A650000 
 818 005d 00000000 		.ascii	"\000\000\000\000\000\000\001\003\000\000sdmmGetMMCD"
 818      00000103 
 818      00007364 
 818      6D6D4765 
 818      744D4D43 
 819 0072 72697665 		.ascii	"river\000\000\000\000\000\000\000\000\000\000\000\000"
 819      72000000 
ARM GAS  /tmp/ccDZNm8G.s 			page 66


 819      00000000 
 819      00000000 
 819      00
 820 0083 BB030000 		.ascii	"\273\003\000\000sdmmcGetFS\000\000\000\000\000\000\000"
 820      73646D6D 
 820      63476574 
 820      46530000 
 820      00000000 
 821 0098 00000000 		.ascii	"\000\000\000\000\000\301\003\000\000sdmmcFSMounted\000"
 821      00C10300 
 821      0073646D 
 821      6D634653 
 821      4D6F756E 
 822 00b0 00000000 		.ascii	"\000\000\000\000\000\000\000\000\000\000\000\307\003"
 822      00000000 
 822      000000C7 
 822      03
 823 00bd 00005350 		.ascii	"\000\000SPID3\000\000\002\000\000\000\000\000\000\000"
 823      49443300 
 823      00020000 
 823      00000000 
 823      00
 824 00ce 00003504 		.ascii	"\000\0005\004\000\000chvprintf\000\000\002\000\000\000"
 824      00006368 
 824      76707269 
 824      6E746600 
 824      00020000 
 825 00e3 00000000 		.ascii	"\000\000\000\000\000\000\316\003\000\000mmcDisconne"
 825      0000CE03 
 825      00006D6D 
 825      63446973 
 825      636F6E6E 
 826 00f8 63740000 		.ascii	"ct\000\000\002\000\000\000\000\000\000\000\000\000\335"
 826      02000000 
 826      00000000 
 826      0000DD
 827 0107 03000066 		.ascii	"\003\000\000f_mount\000\000\002\000\000\000\000\000"
 827      5F6D6F75 
 827      6E740000 
 827      02000000 
 827      0000
 828 0119 00000000 		.ascii	"\000\000\000\000\337\003\000\000mmcConnect\000\000\002"
 828      DF030000 
 828      6D6D6343 
 828      6F6E6E65 
 828      63740000 
 829 012e 00000000 		.ascii	"\000\000\000\000\000\000\000\000\000\027\004\000\000"
 829      00000000 
 829      00170400 
 829      00
 830 013b 63685468 		.ascii	"chThdSleep\000\000\002\000\000\000\000\000\000\000\000"
 830      64536C65 
 830      65700000 
 830      02000000 
 830      00000000 
 831 0150 00190400 		.ascii	"\000\031\004\000\000mmcStart\000\000\002\000\000\000"
 831      006D6D63 
ARM GAS  /tmp/ccDZNm8G.s 			page 67


 831      53746172 
 831      74000002 
 831      000000
 832 0163 00000000 		.ascii	"\000\000\000\000\000\000\035\004\000\000mmcObjectIn"
 832      00001D04 
 832      00006D6D 
 832      634F626A 
 832      65637449 
 833 0178 69740000 		.ascii	"it\000\000\002\000\000\000\000\000\000\000\000\000\""
 833      02000000 
 833      00000000 
 833      000022
 834 0187 0400005F 		.ascii	"\004\000\000_pal_lld_setgroupmode\000\000\002\000\000"
 834      70616C5F 
 834      6C6C645F 
 834      73657467 
 834      726F7570 
 835 01a4 00000000 		.ascii	"\000\000\000\000\000\000\000&\004\000\000"
 835      00000026 
 835      040000
 836              		.text
 837              		.section	.gnu.lto_.opts,"",%progbits
 838 0000 272D6D63 		.ascii	"'-mcpu=cortex-m4' '-mfloat-abi=hard' '-mfpu=fpv4-sp"
 838      70753D63 
 838      6F727465 
 838      782D6D34 
 838      2720272D 
 839 0033 2D643136 		.ascii	"-d16' '-mno-thumb-interwork' '-mthumb' '-O2' '-fomi"
 839      2720272D 
 839      6D6E6F2D 
 839      7468756D 
 839      622D696E 
 840 0066 742D6672 		.ascii	"t-frame-pointer' '-falign-functions=16' '-ffunction"
 840      616D652D 
 840      706F696E 
 840      74657227 
 840      20272D66 
 841 0099 2D736563 		.ascii	"-sections' '-fdata-sections' '-fno-common' '-flto' "
 841      74696F6E 
 841      73272027 
 841      2D666461 
 841      74612D73 
 842 00cc 272D6673 		.ascii	"'-fsingle-precision-constant'\000"
 842      696E676C 
 842      652D7072 
 842      65636973 
 842      696F6E2D 
 843              		.text
 844              		.section	.text.chprintf,"ax",%progbits
 845              		.align	2
 846              		.p2align 4,,15
 847              		.thumb
 848              		.thumb_func
 849              		.type	chprintf, %function
 850              	chprintf:
 851              		@ args = 4, pretend = 12, frame = 8
 852              		@ frame_needed = 0, uses_anonymous_args = 1
ARM GAS  /tmp/ccDZNm8G.s 			page 68


 853 0000 0EB4     		push	{r1, r2, r3}
 854 0002 00B5     		push	{lr}
 855 0004 82B0     		sub	sp, sp, #8
 856 0006 03AA     		add	r2, sp, #12
 857 0008 52F8041B 		ldr	r1, [r2], #4
 858 000c 0192     		str	r2, [sp, #4]
 859 000e FFF7FEFF 		bl	chvprintf
 860 0012 02B0     		add	sp, sp, #8
 861              		@ sp needed
 862 0014 5DF804EB 		ldr	lr, [sp], #4
 863 0018 03B0     		add	sp, sp, #12
 864 001a 7047     		bx	lr
 865              		.size	chprintf, .-chprintf
 866 001c AFF30080 		.section	.text.sd_is_card_inserted,"ax",%progbits
 867              		.align	2
 868              		.p2align 4,,15
 869              		.global	sd_is_card_inserted
 870              		.thumb
 871              		.thumb_func
 872              		.type	sd_is_card_inserted, %function
 873              	sd_is_card_inserted:
 874              		@ args = 0, pretend = 0, frame = 0
 875              		@ frame_needed = 0, uses_anonymous_args = 0
 876              		@ link register save eliminated.
 877 0000 034B     		ldr	r3, .L3
 878 0002 1869     		ldr	r0, [r3, #16]
 879 0004 C0F38000 		ubfx	r0, r0, #2, #1
 880 0008 80F00100 		eor	r0, r0, #1
 881 000c 7047     		bx	lr
 882              	.L4:
 883 000e 00BF     		.align	2
 884              	.L3:
 885 0010 000C0240 		.word	1073875968
 886              		.size	sd_is_card_inserted, .-sd_is_card_inserted
 887 0014 AFF30080 		.section	.text.sd_is_write_protected,"ax",%progbits
 887      AFF30080 
 887      AFF30080 
 888              		.align	2
 889              		.p2align 4,,15
 890              		.global	sd_is_write_protected
 891              		.thumb
 892              		.thumb_func
 893              		.type	sd_is_write_protected, %function
 894              	sd_is_write_protected:
 895              		@ args = 0, pretend = 0, frame = 0
 896              		@ frame_needed = 0, uses_anonymous_args = 0
 897              		@ link register save eliminated.
 898 0000 024B     		ldr	r3, .L6
 899 0002 1869     		ldr	r0, [r3, #16]
 900 0004 C0F38000 		ubfx	r0, r0, #2, #1
 901 0008 7047     		bx	lr
 902              	.L7:
 903 000a 00BF     		.align	2
 904              	.L6:
 905 000c 000C0240 		.word	1073875968
 906              		.size	sd_is_write_protected, .-sd_is_write_protected
 907              		.section	.text.sdmmcInitialize,"ax",%progbits
ARM GAS  /tmp/ccDZNm8G.s 			page 69


 908              		.align	2
 909              		.p2align 4,,15
 910              		.global	sdmmcInitialize
 911              		.thumb
 912              		.thumb_func
 913              		.type	sdmmcInitialize, %function
 914              	sdmmcInitialize:
 915              		@ args = 0, pretend = 0, frame = 0
 916              		@ frame_needed = 0, uses_anonymous_args = 0
 917 0000 F8B5     		push	{r3, r4, r5, r6, r7, lr}
 918 0002 0446     		mov	r4, r0
 919 0004 3E4D     		ldr	r5, .L22
 920 0006 3F4F     		ldr	r7, .L22+4
 921 0008 DFF834E1 		ldr	lr, .L22+64
 922 000c 3E48     		ldr	r0, .L22+8
 923 000e 3F4E     		ldr	r6, .L22+12
 924 0010 2160     		str	r1, [r4]
 925 0012 0023     		movs	r3, #0
 926 0014 A360     		str	r3, [r4, #8]
 927 0016 6373     		strb	r3, [r4, #13]
 928 0018 6060     		str	r0, [r4, #4]
 929 001a 2A60     		str	r2, [r5]
 930 001c 3846     		mov	r0, r7
 931 001e 4FF40041 		mov	r1, #32768
 932 0022 1922     		movs	r2, #25
 933 0024 CEF80040 		str	r4, [lr]
 934 0028 FFF7FEFF 		bl	_pal_lld_setgroupmode
 935 002c 3046     		mov	r0, r6
 936 002e 0421     		movs	r1, #4
 937 0030 2022     		movs	r2, #32
 938 0032 FFF7FEFF 		bl	_pal_lld_setgroupmode
 939 0036 3648     		ldr	r0, .L22+16
 940 0038 4FF48061 		mov	r1, #1024
 941 003c 40F29A22 		movw	r2, #666
 942 0040 FFF7FEFF 		bl	_pal_lld_setgroupmode
 943 0044 3248     		ldr	r0, .L22+16
 944 0046 4FF48051 		mov	r1, #4096
 945 004a 40F29A22 		movw	r2, #666
 946 004e FFF7FEFF 		bl	_pal_lld_setgroupmode
 947 0052 4FF40061 		mov	r1, #2048
 948 0056 40F28222 		movw	r2, #642
 949 005a 2D48     		ldr	r0, .L22+16
 950 005c FFF7FEFF 		bl	_pal_lld_setgroupmode
 951 0060 2068     		ldr	r0, [r4]
 952 0062 FFF7FEFF 		bl	mmcObjectInit
 953 0066 2068     		ldr	r0, [r4]
 954 0068 2A49     		ldr	r1, .L22+20
 955 006a FFF7FEFF 		bl	mmcStart
 956 006e 3369     		ldr	r3, [r6, #16]
 957 0070 5B07     		lsls	r3, r3, #29
 958 0072 2CD4     		bmi	.L19
 959 0074 2849     		ldr	r1, .L22+24
 960 0076 2868     		ldr	r0, [r5]
 961 0078 FFF7FEFF 		bl	chprintf
 962 007c 4FF40043 		mov	r3, #32768
 963 0080 7B83     		strh	r3, [r7, #26]	@ movhi
 964 0082 4FF4FA60 		mov	r0, #2000
ARM GAS  /tmp/ccDZNm8G.s 			page 70


 965 0086 FFF7FEFF 		bl	chThdSleep
 966 008a 2449     		ldr	r1, .L22+28
 967 008c 2868     		ldr	r0, [r5]
 968 008e FFF7FEFF 		bl	chprintf
 969 0092 2068     		ldr	r0, [r4]
 970 0094 FFF7FEFF 		bl	mmcConnect
 971 0098 2149     		ldr	r1, .L22+32
 972 009a 0746     		mov	r7, r0
 973 009c 2868     		ldr	r0, [r5]
 974 009e FFF7FEFF 		bl	chprintf
 975 00a2 DFB9     		cbnz	r7, .L20
 976 00a4 1F49     		ldr	r1, .L22+36
 977 00a6 2868     		ldr	r0, [r5]
 978 00a8 FFF7FEFF 		bl	chprintf
 979 00ac 1E48     		ldr	r0, .L22+40
 980 00ae A060     		str	r0, [r4, #8]
 981 00b0 1E49     		ldr	r1, .L22+44
 982 00b2 3A46     		mov	r2, r7
 983 00b4 FFF7FEFF 		bl	f_mount
 984 00b8 0646     		mov	r6, r0
 985 00ba 2868     		ldr	r0, [r5]
 986 00bc B6B9     		cbnz	r6, .L21
 987 00be 1C49     		ldr	r1, .L22+48
 988 00c0 FFF7FEFF 		bl	chprintf
 989 00c4 0123     		movs	r3, #1
 990 00c6 3046     		mov	r0, r6
 991 00c8 6373     		strb	r3, [r4, #13]
 992              	.L11:
 993 00ca 40B2     		sxtb	r0, r0
 994 00cc F8BD     		pop	{r3, r4, r5, r6, r7, pc}
 995              	.L19:
 996 00ce 2868     		ldr	r0, [r5]
 997 00d0 1849     		ldr	r1, .L22+52
 998 00d2 FFF7FEFF 		bl	chprintf
 999 00d6 FD20     		movs	r0, #253
 1000 00d8 40B2     		sxtb	r0, r0
 1001 00da F8BD     		pop	{r3, r4, r5, r6, r7, pc}
 1002              	.L20:
 1003 00dc 2868     		ldr	r0, [r5]
 1004 00de 1649     		ldr	r1, .L22+56
 1005 00e0 0122     		movs	r2, #1
 1006 00e2 FFF7FEFF 		bl	chprintf
 1007 00e6 0120     		movs	r0, #1
 1008 00e8 40B2     		sxtb	r0, r0
 1009 00ea F8BD     		pop	{r3, r4, r5, r6, r7, pc}
 1010              	.L21:
 1011 00ec 1349     		ldr	r1, .L22+60
 1012 00ee FFF7FEFF 		bl	chprintf
 1013 00f2 2068     		ldr	r0, [r4]
 1014 00f4 FFF7FEFF 		bl	mmcDisconnect
 1015 00f8 A760     		str	r7, [r4, #8]
 1016 00fa FE20     		movs	r0, #254
 1017 00fc E5E7     		b	.L11
 1018              	.L23:
 1019 00fe 00BF     		.align	2
 1020              	.L22:
 1021 0100 00000000 		.word	.LANCHOR0
ARM GAS  /tmp/ccDZNm8G.s 			page 71


 1022 0104 00000240 		.word	1073872896
 1023 0108 00000000 		.word	SPID3
 1024 010c 000C0240 		.word	1073875968
 1025 0110 00080240 		.word	1073874944
 1026 0114 00000000 		.word	.LANCHOR2
 1027 0118 98000000 		.word	.LC6
 1028 011c AC000000 		.word	.LC7
 1029 0120 C0000000 		.word	.LC8
 1030 0124 20000000 		.word	.LC1
 1031 0128 00000000 		.word	.LANCHOR3
 1032 012c 3C000000 		.word	.LC2
 1033 0130 60000000 		.word	.LC4
 1034 0134 7C000000 		.word	.LC5
 1035 0138 00000000 		.word	.LC0
 1036 013c 40000000 		.word	.LC3
 1037 0140 00000000 		.word	.LANCHOR1
 1038              		.size	sdmmcInitialize, .-sdmmcInitialize
 1039 0144 AFF30080 		.section	.text.sdmmGetMMCDriver,"ax",%progbits
 1039      AFF30080 
 1039      AFF30080 
 1040              		.align	2
 1041              		.p2align 4,,15
 1042              		.global	sdmmGetMMCDriver
 1043              		.thumb
 1044              		.thumb_func
 1045              		.type	sdmmGetMMCDriver, %function
 1046              	sdmmGetMMCDriver:
 1047              		@ args = 0, pretend = 0, frame = 0
 1048              		@ frame_needed = 0, uses_anonymous_args = 0
 1049              		@ link register save eliminated.
 1050 0000 037B     		ldrb	r3, [r0, #12]	@ zero_extendqisi2
 1051 0002 0BB1     		cbz	r3, .L26
 1052 0004 0068     		ldr	r0, [r0]
 1053 0006 7047     		bx	lr
 1054              	.L26:
 1055 0008 1846     		mov	r0, r3
 1056 000a 7047     		bx	lr
 1057              		.size	sdmmGetMMCDriver, .-sdmmGetMMCDriver
 1058 000c AFF30080 		.section	.text.sdmmcGetFS,"ax",%progbits
 1059              		.align	2
 1060              		.p2align 4,,15
 1061              		.global	sdmmcGetFS
 1062              		.thumb
 1063              		.thumb_func
 1064              		.type	sdmmcGetFS, %function
 1065              	sdmmcGetFS:
 1066              		@ args = 0, pretend = 0, frame = 0
 1067              		@ frame_needed = 0, uses_anonymous_args = 0
 1068              		@ link register save eliminated.
 1069 0000 437B     		ldrb	r3, [r0, #13]	@ zero_extendqisi2
 1070 0002 0BB1     		cbz	r3, .L29
 1071 0004 8068     		ldr	r0, [r0, #8]
 1072 0006 7047     		bx	lr
 1073              	.L29:
 1074 0008 1846     		mov	r0, r3
 1075 000a 7047     		bx	lr
 1076              		.size	sdmmcGetFS, .-sdmmcGetFS
ARM GAS  /tmp/ccDZNm8G.s 			page 72


 1077 000c AFF30080 		.section	.text.sdmmcFSMounted,"ax",%progbits
 1078              		.align	2
 1079              		.p2align 4,,15
 1080              		.global	sdmmcFSMounted
 1081              		.thumb
 1082              		.thumb_func
 1083              		.type	sdmmcFSMounted, %function
 1084              	sdmmcFSMounted:
 1085              		@ args = 0, pretend = 0, frame = 0
 1086              		@ frame_needed = 0, uses_anonymous_args = 0
 1087              		@ link register save eliminated.
 1088 0000 407B     		ldrb	r0, [r0, #13]	@ zero_extendqisi2
 1089 0002 7047     		bx	lr
 1090              		.size	sdmmcFSMounted, .-sdmmcFSMounted
 1091 0004 AFF30080 		.section	.data.hsCfg,"aw",%progbits
 1091      AFF30080 
 1091      AFF30080 
 1092              		.align	2
 1093              		.type	hsCfg, %object
 1094              		.size	hsCfg, 12
 1095              	hsCfg:
 1096 0000 00000000 		.word	0
 1097 0004 00000240 		.word	1073872896
 1098 0008 0F00     		.short	15
 1099 000a 1000     		.short	16
 1100              		.section	.data.mmcCfg,"aw",%progbits
 1101              		.align	2
 1102              		.set	.LANCHOR2,. + 0
 1103              		.type	mmcCfg, %object
 1104              		.size	mmcCfg, 12
 1105              	mmcCfg:
 1106 0000 00000000 		.word	SPID3
 1107 0004 00000000 		.word	lsCfg
 1108 0008 00000000 		.word	hsCfg
 1109              		.section	.bss.serialPort,"aw",%nobits
 1110              		.align	2
 1111              		.set	.LANCHOR0,. + 0
 1112              		.type	serialPort, %object
 1113              		.size	serialPort, 4
 1114              	serialPort:
 1115 0000 00000000 		.space	4
 1116              		.section	.bss.SD,"aw",%nobits
 1117              		.align	2
 1118              		.set	.LANCHOR1,. + 0
 1119              		.type	SD, %object
 1120              		.size	SD, 4
 1121              	SD:
 1122 0000 00000000 		.space	4
 1123              		.section	.rodata.str1.4,"aMS",%progbits,1
 1124              		.align	2
 1125              	.LC0:
 1126 0000 53442F4D 		.ascii	"SD/MMC:ERROR Connect,ERR%02d\012\000"
 1126      4D433A45 
 1126      52524F52 
 1126      20436F6E 
 1126      6E656374 
 1127 001e 0000     		.space	2
ARM GAS  /tmp/ccDZNm8G.s 			page 73


 1128              	.LC1:
 1129 0020 53442F4D 		.ascii	"SD/MMC: Connection Done\012\000"
 1129      4D433A20 
 1129      436F6E6E 
 1129      65637469 
 1129      6F6E2044 
 1130 0039 000000   		.space	3
 1131              	.LC2:
 1132 003c 2F00     		.ascii	"/\000"
 1133 003e 0000     		.space	2
 1134              	.LC3:
 1135 0040 53442F4D 		.ascii	"SD/MMC:File System Mount Error\012\000"
 1135      4D433A46 
 1135      696C6520 
 1135      53797374 
 1135      656D204D 
 1136              	.LC4:
 1137 0060 53442F4D 		.ascii	"SD/MMC:File System Mounted\012\000"
 1137      4D433A46 
 1137      696C6520 
 1137      53797374 
 1137      656D204D 
 1138              	.LC5:
 1139 007c 53442F4D 		.ascii	"SD/MMC:No SD Card Found\012\000"
 1139      4D433A4E 
 1139      6F205344 
 1139      20436172 
 1139      6420466F 
 1140 0095 000000   		.space	3
 1141              	.LC6:
 1142 0098 53442F4D 		.ascii	"SD/MMC:Card Found\012\000"
 1142      4D433A43 
 1142      61726420 
 1142      466F756E 
 1142      640A00
 1143 00ab 00       		.space	1
 1144              	.LC7:
 1145 00ac 53442F4D 		.ascii	"SD/MMC:Connecting\012\000"
 1145      4D433A43 
 1145      6F6E6E65 
 1145      6374696E 
 1145      670A00
 1146 00bf 00       		.space	1
 1147              	.LC8:
 1148 00c0 53442F4D 		.ascii	"SD/MMC:End of Connection attempt\012\000"
 1148      4D433A45 
 1148      6E64206F 
 1148      6620436F 
 1148      6E6E6563 
 1149 00e2 0000     		.section	.data.lsCfg,"aw",%progbits
 1150              		.align	2
 1151              		.type	lsCfg, %object
 1152              		.size	lsCfg, 12
 1153              	lsCfg:
 1154 0000 00000000 		.word	0
 1155 0004 00000240 		.word	1073872896
 1156 0008 0F00     		.short	15
ARM GAS  /tmp/ccDZNm8G.s 			page 74


 1157 000a 3000     		.short	48
 1158              		.section	.bss.FS,"aw",%nobits
 1159              		.align	2
 1160              		.set	.LANCHOR3,. + 0
 1161              		.type	FS, %object
 1162              		.size	FS, 560
 1163              	FS:
 1164 0000 00000000 		.space	560
 1164      00000000 
 1164      00000000 
 1164      00000000 
 1164      00000000 
 1165              		.comm	__gnu_lto_v1,1,1
 1166              		.ident	"GCC: (GNU Tools for ARM Embedded Processors) 4.8.4 20140526 (release) [ARM/embedded-4_8-br
ARM GAS  /tmp/ccDZNm8G.s 			page 75


DEFINED SYMBOLS
                            *ABS*:0000000000000000 sdmmcsimple.c
     /tmp/ccDZNm8G.s:845    .text.chprintf:0000000000000000 $t
     /tmp/ccDZNm8G.s:850    .text.chprintf:0000000000000000 chprintf
     /tmp/ccDZNm8G.s:867    .text.sd_is_card_inserted:0000000000000000 $t
     /tmp/ccDZNm8G.s:873    .text.sd_is_card_inserted:0000000000000000 sd_is_card_inserted
     /tmp/ccDZNm8G.s:885    .text.sd_is_card_inserted:0000000000000010 $d
     /tmp/ccDZNm8G.s:888    .text.sd_is_write_protected:0000000000000000 $t
     /tmp/ccDZNm8G.s:894    .text.sd_is_write_protected:0000000000000000 sd_is_write_protected
     /tmp/ccDZNm8G.s:905    .text.sd_is_write_protected:000000000000000c $d
     /tmp/ccDZNm8G.s:908    .text.sdmmcInitialize:0000000000000000 $t
     /tmp/ccDZNm8G.s:914    .text.sdmmcInitialize:0000000000000000 sdmmcInitialize
     /tmp/ccDZNm8G.s:1021   .text.sdmmcInitialize:0000000000000100 $d
     /tmp/ccDZNm8G.s:1040   .text.sdmmGetMMCDriver:0000000000000000 $t
     /tmp/ccDZNm8G.s:1046   .text.sdmmGetMMCDriver:0000000000000000 sdmmGetMMCDriver
     /tmp/ccDZNm8G.s:1059   .text.sdmmcGetFS:0000000000000000 $t
     /tmp/ccDZNm8G.s:1065   .text.sdmmcGetFS:0000000000000000 sdmmcGetFS
     /tmp/ccDZNm8G.s:1078   .text.sdmmcFSMounted:0000000000000000 $t
     /tmp/ccDZNm8G.s:1084   .text.sdmmcFSMounted:0000000000000000 sdmmcFSMounted
     /tmp/ccDZNm8G.s:1092   .data.hsCfg:0000000000000000 $d
     /tmp/ccDZNm8G.s:1095   .data.hsCfg:0000000000000000 hsCfg
     /tmp/ccDZNm8G.s:1101   .data.mmcCfg:0000000000000000 $d
     /tmp/ccDZNm8G.s:1105   .data.mmcCfg:0000000000000000 mmcCfg
     /tmp/ccDZNm8G.s:1153   .data.lsCfg:0000000000000000 lsCfg
     /tmp/ccDZNm8G.s:1110   .bss.serialPort:0000000000000000 $d
     /tmp/ccDZNm8G.s:1114   .bss.serialPort:0000000000000000 serialPort
     /tmp/ccDZNm8G.s:1117   .bss.SD:0000000000000000 $d
     /tmp/ccDZNm8G.s:1121   .bss.SD:0000000000000000 SD
     /tmp/ccDZNm8G.s:1124   .rodata.str1.4:0000000000000000 $d
     /tmp/ccDZNm8G.s:1150   .data.lsCfg:0000000000000000 $d
     /tmp/ccDZNm8G.s:1159   .bss.FS:0000000000000000 $d
     /tmp/ccDZNm8G.s:1163   .bss.FS:0000000000000000 FS
                            *COM*:0000000000000001 __gnu_lto_v1
     /tmp/ccDZNm8G.s:887    .text.sd_is_card_inserted:0000000000000014 $t
     /tmp/ccDZNm8G.s:1039   .text.sdmmcInitialize:0000000000000144 $t

UNDEFINED SYMBOLS
chvprintf
_pal_lld_setgroupmode
mmcObjectInit
mmcStart
chThdSleep
mmcConnect
f_mount
mmcDisconnect
SPID3
