ARM GAS  /tmp/ccpNBtS9.s 			page 1


   1              		.syntax unified
   2              		.cpu cortex-m4
   3              		.eabi_attribute 27, 3
   4              		.eabi_attribute 28, 1
   5              		.fpu fpv4-sp-d16
   6              		.eabi_attribute 20, 1
   7              		.eabi_attribute 21, 1
   8              		.eabi_attribute 23, 3
   9              		.eabi_attribute 24, 1
  10              		.eabi_attribute 25, 1
  11              		.eabi_attribute 26, 1
  12              		.eabi_attribute 30, 2
  13              		.eabi_attribute 34, 1
  14              		.eabi_attribute 18, 4
  15              		.thumb
  16              		.file	"sdmmcsimple.c"
  17              		.section	.gnu.lto_.jmpfuncs.a074ba61be8f47d3,"",%progbits
  18 0000 789C7591 		.ascii	"x\234u\2211K\303@\024\307\337\313\265M\233\252\255q"
  18      314BC340 
  18      14C7DFCB 
  18      B54D9BAA 
  18      AD71
  19 0012 2ACA718B 		.ascii	"*\312q\213\233Pq\022'!i\267(4\213\202\213\330 \001\233"
  19      9B507112 
  19      272169B7 
  19      28348B82 
  19      8BD82001 
  20 0027 83580BE2 		.ascii	"\203X\013\342rt\352\350\"\004\301\017\340w\360C\370"
  20      7274EAE8 
  20      2204C10F 
  20      E077F043 
  20      F8
  21 0038 799CBCE4 		.ascii	"y\234\274\344.\365R\333,\367\356\375\376\367\277\377"
  21      2EF552DB 
  21      2CF7EEFD 
  21      FEF7BFFF 
  22 0048 BB5860C1 		.ascii	"\273X`\301\272\257!\333_r\265\201 \000!\262\234\311"
  22      BAAF21DB 
  22      5F72B581 
  22      200021B2 
  22      9CC9
  23 005a 15006739 		.ascii	"\025\000g9\226\324\272\302\030\363\032\345\216\330y"
  23      96D4BAC2 
  23      18F31AE5 
  23      8ED879
  24 0069 E7057E44 		.ascii	"\347\005~D&\2721\"\005\374\020\331y\214\312\275\002"
  24      26BA3122 
  24      05FC10D9 
  24      798CCABD 
  24      02
  25 007a 09857D05 		.ascii	"\011\205}\005k\240\316Wy\235\302\251\342\215\202\223"
  25      6BA0CE57 
  25      799DC2A9 
  25      E28D8293 
  26 008a 022D7264 		.ascii	"\002-rdOP\371-\305M\012\327J\334R$O\345\254^)\363\334"
  26      4F50F92D 
  26      C54D0AD7 
ARM GAS  /tmp/ccpNBtS9.s 			page 2


  26      4ADC5224 
  26      4FE5AC5E 
  27 00a1 98798809 		.ascii	"\230y\210\011\333\024f\012n\351\341W\023mSx\323\363"
  27      DB14660A 
  27      6EE9E157 
  27      136D5378 
  27      D3F3
  28 00b3 EC284171 		.ascii	"\354(AqM\347\273\363_\370Y\021\226\264H\337\235\240"
  28      4DE7BBF3 
  28      5FF85911 
  28      96B448DF 
  28      9DA0
  29 00c5 7E303953 		.ascii	"~09Sn\260+^\027\242\246CwDWW\356\274\276A\301J\305\373"
  29      6EB02B5E 
  29      17A2A643 
  29      77445757 
  29      EEBCBE41 
  30 00dd 2645739D 		.ascii	"&Es\235\"3\024e\341\262?.L\007Q\376[\267\007\320B\007"
  30      22331465 
  30      E1B23F2E 
  30      4C0751FE 
  30      5BB707D0 
  31 00f3 DB08BDD0 		.ascii	"\333\010\275\320\357\007\201wv\301Y\3503\3576\035\263"
  31      EF078177 
  31      76C159E8 
  31      33EF361D 
  31      B3
  32 0104 217F4AC6 		.ascii	"!\177J\306\016\034h2\214\037\"\026>?N\243\011\013$\232"
  32      0E1C6832 
  32      8C1F2216 
  32      3E3F4EA3 
  32      090B249A 
  33 0118 4612B24D 		.ascii	"F\022\262M\220\015\322\224\247\016X\375\2455\363x\222"
  33      900DD294 
  33      A70E58FD 
  33      A535F378 
  33      92
  34 0129 4477D398 		.ascii	"Dw\323\230'\314\347I\344\000\325d0\032]\216J|$w\207"
  34      27CCE749 
  34      E400D564 
  34      301A5D8E 
  34      4A7C2477 
  35 013e C727D27C 		.ascii	"\307'\322|O\343\362\\ro\364\214\204\277\305\036\223"
  35      4FE3F25C 
  35      726FF48C 
  35      84BFC51E 
  35      93
  36 014f 61       		.ascii	"a"
  37              		.text
  38              		.section	.gnu.lto_.inline.a074ba61be8f47d3,"",%progbits
  39 0000 789C6362 		.ascii	"x\234cb`b\300\00660Bhv\006\026n\031\006\260\"\266\005"
  39      6062C006 
  39      36304268 
  39      7606166E 
  39      1906B022 
  40 0016 F270B58C 		.ascii	"\362p\265\214\014\254|\014\014\314\023\374@\220\231"
  40      0CAC7C0C 
ARM GAS  /tmp/ccpNBtS9.s 			page 3


  40      0CCC13FC 
  40      409099
  41 0025 07AC8091 		.ascii	"\007\254\200\221\201\203\235\221\201\211k\202\037\\"
  41      81839D91 
  41      81896B82 
  41      1F5C
  42 0033 2913033B 		.ascii	")\023\003;\033P\210\343\200\035\\\210\231\341\036\303"
  42      1B5088E3 
  42      801D5C88 
  42      99E11EC3 
  43 0043 4146A0A0 		.ascii	"AF\240\240\351\233\263L\014\202\357\022!\242 #\200\032"
  43      E99BB34C 
  43      0C82EF12 
  43      21A22023 
  43      801A
  44 0055 61341337 		.ascii	"a4\0237\320<\250\311@.\3302$e,\274`\313\031 *\220\024"
  44      D03CA8C9 
  44      402ED832 
  44      24652CBC 
  44      60CB1920 
  45 006c 82F5E132 		.ascii	"\202\365\3412\015\254\013h\012!\232\023\344j\026\206"
  45      0DAC0B68 
  45      0A219A13 
  45      E46A1686 
  46 007c 8C08C64C 		.ascii	"\214\010\306LFa\240P\002C:\202\311\010'\031\330`\201"
  46      4661A050 
  46      02433A82 
  46      C9082719 
  46      D86081
  47 008f C2F8825D 		.ascii	"\302\370\202]\200\211\201\265C]\200\201\261\205]\201"
  47      808981B5 
  47      435D8081 
  47      B1855D81 
  48 009f 85094281 		.ascii	"\205\011B\201<\306\205fV\006\302\254\014\260)\020\322"
  48      3CC68566 
  48      5606C2AC 
  48      0CB02910 
  48      D2
  49 00b0 8118B3B8 		.ascii	"\201\030\263\270\031X\230\201!\007\326\305\202\244\236"
  49      19589881 
  49      2107D6C5 
  49      82A49E
  50 00bf 05428223 		.ascii	"\005B\202#\006\000\251\201+\263"
  50      0600A981 
  50      2BB3
  51              		.text
  52              		.section	.gnu.lto_.pureconst.a074ba61be8f47d3,"",%progbits
  53 0000 789C6362 		.ascii	"x\234cb`b\340g\200\000v\006\011F)&)f)NV.VnV\000\007"
  53      6062E067 
  53      80007606 
  53      09462926 
  53      2966294E 
  54 001b 1400B4   		.ascii	"\024\000\264"
  55              		.text
  56              		.section	.gnu.lto_chprintf.a074ba61be8f47d3,"",%progbits
  57 0000 789C8550 		.ascii	"x\234\205P\315J\002Q\024>\337\0355uc\333v\342\0034\213"
  57      CD4A0251 
ARM GAS  /tmp/ccpNBtS9.s 			page 4


  57      143EDF1D 
  57      357563DB 
  57      76E20334 
  58 0015 22E80D7A 		.ascii	"\"\350\015z\000\203Z\3058\216z\011\035\321Q\260\026"
  58      00835AC5 
  58      388E7A09 
  58      1DD151B0 
  58      16
  59 0026 5EC1C245 		.ascii	"^\301\302E\013ig\021)\321:\244\027\030\202\332DI\273"
  59      0B696711 
  59      29D13AA4 
  59      171882DA 
  59      4449BB
  60 0039 162D2497 		.ascii	"\026-$\227\265h\321*\202\351\336\031\024\372\201\016"
  60      B568D12A 
  60      82E9DE19 
  60      14FA810E 
  61 0049 DC7B7EBE 		.ascii	"\334{~\276s\276\363\303\210\321OY\220o\010\2425\251"
  61      73BEF3C3 
  61      88D14F59 
  61      906F08A2 
  61      35A9
  62 005b A11158F7 		.ascii	"\241\021X\367\236\250\025e\2002\010\324dhnB\245\262"
  62      9EA81565 
  62      803208D4 
  62      64686E42 
  62      A5B2
  63 006d 140D84DB 		.ascii	"\024\015\204\333\035_O\036\321\023n\273/>=\017\340\220"
  63      1D5F4F1E 
  63      D1136EBB 
  63      2F3E3D0F 
  63      E090
  64 007f B42B2013 		.ascii	"\264+ \023\264!\035$}\305B\337\373\250Z\321uOon!\016"
  64      B4211D24 
  64      7DC542DF 
  64      FBA85AD1 
  64      754F6F6E 
  65 0095 45EBCDF3 		.ascii	"E\353\315\363\022\034\032\243\325\377\012/\230\373\354"
  65      121C1AA3 
  65      D5FF0A2F 
  65      98FBEC
  66 00a4 794FC3F7 		.ascii	"yO\303\367\203W\364XLC\021\024\222\037\"d\340\014)\225"
  66      8357F458 
  66      4C431114 
  66      921F2264 
  66      E00C2995 
  67 00b8 13A6B624 		.ascii	"\023\246\266$O\032\030H\177\0325\375\241\323\362W\233"
  67      4F1A1848 
  67      7F1A35FD 
  67      A1D3F257 
  67      9B
  68 00c9 AC8329AD 		.ascii	"\254\203)\255\215ho\3343\015\234#,\321]\372\020\035"
  68      8D686FDC 
  68      330D9C23 
  68      2CD15DFA 
  68      101D
  69 00db 31CF1132 		.ascii	"1\317\0212\341\247\313\310\016Gx\312\344g\251\2514\""
ARM GAS  /tmp/ccpNBtS9.s 			page 5


  69      E1A7CBC8 
  69      0E4778CA 
  69      E467A9A9 
  69      3422
  70 00ed 2E3BD288 		.ascii	".;\322\210\366\307G\223x\200\344\021\231\021\314\231"
  70      F6C74793 
  70      7880E411 
  70      9911CC99 
  71 00fd 088E9B87 		.ascii	"\010\216\233\207\226G( \340\210\252\222\366\370\370"
  71      96472820 
  71      E088AA92 
  71      F6F8F8
  72 010c 77C798A9 		.ascii	"w\307\230\251H\377\356\310\021'\272\243\253\027\026"
  72      48FFEEC8 
  72      1127BAA3 
  72      AB1716
  73 011b 04027099 		.ascii	"\004\002p\231.EG\235[\312\003\265\372'\332l\214\340"
  73      2E45479D 
  73      5BCA03B5 
  73      FA27DA6C 
  73      8CE0
  74 012d 5469B983 		.ascii	"Ti\271\203\334Q\315\261\244\027\354\242\245\233v\266"
  74      DC51CDB1 
  74      A417ECA2 
  74      A59B76B6 
  75 013d A167ADBA 		.ascii	"\241g\255\272n\026x\206\333U\335\251\324J\333\2724\352"
  75      6E167886 
  75      DB55DDA9 
  75      D44ADBBA 
  75      34EA
  76 014f 4685DBB5 		.ascii	"F\205\333\265\252\004\312\025^rr\213\005bF9\221\263"
  76      AA04CA15 
  76      5E72728B 
  76      05624639 
  76      91B3
  77 0161 2B45C371 		.ascii	"+E\303q\254\354V\246\341X\325/\251H\201#"
  77      ACEC56A6 
  77      E158D52F 
  77      A9488123 
  78              		.text
  79              		.section	.gnu.lto_sd_is_card_inserted.a074ba61be8f47d3,"",%progbits
  80 0000 789C5D50 		.ascii	"x\234]P\273JCA\020=gf\257\212\004\365\003D\354\005\003"
  80      BB4A4341 
  80      103D6766 
  80      AF8A04F5 
  80      0344EC05 
  81 0015 FE884D02 		.ascii	"\376\210M\002Z\352U\302\005/\010\371\200l0\202e\312"
  81      5AEA55C2 
  81      052F08F9 
  81      806C3082 
  81      65CA
  82 0027 A022D88A 		.ascii	"\240\"\330\212$\037\240\205\210\205M\204@\032\203\205"
  82      241FA085 
  82      88854D84 
  82      401A8385 
  83 0037 9D9F1167 		.ascii	"\235\237\021g6$\210\013{f\230s\346)\020\374\177{\366"
  83      3624880B 
ARM GAS  /tmp/ccpNBtS9.s 			page 6


  83      7B669873 
  83      E62910FC 
  83      7F7BF6
  84 004a 37096C98 		.ascii	"7\011l\230e\006J\367\003h\257\210\204\347-\304U\035"
  84      65064AF7 
  84      0368AF88 
  84      84E72DC4 
  84      551D
  85 005c 57112BCA 		.ascii	"W\021+\3120\013\007\322\035\020-\321\300\326!S\221\201"
  85      300B07D2 
  85      1D102DD1 
  85      C0D62153 
  85      9181
  86 006e BC7C4FA7 		.ascii	"\274|O\247\375\257\313\311\362\022Q\020j\300\340\220"
  86      FDAFCBC9 
  86      F2125110 
  86      6AC0E090 
  87 007e 39982443 		.ascii	"9\230$C'\306\3566\220\247\224\232\241W\252S\334\352"
  87      27C6EE36 
  87      90A7949A 
  87      A157AA53 
  87      DCEA
  88 0090 10AF93DE 		.ascii	"\020\257\223\336]\345\210\367\226\321\240\356\340!v"
  88      5DE588F7 
  88      96D1A0EE 
  88      E02176
  89 009f 58506E70 		.ascii	"XPnpmF\017\014B\354]\305\200\344\246\266\307\234o1\304"
  89      6D460F0C 
  89      42EC5DC5 
  89      80E4A6B6 
  89      C79C6F31 
  90 00b4 455FE7C9 		.ascii	"E_\347\311\2411\323g2c\236\026Lf\2443i\242w\274\375"
  90      A131D367 
  90      32639E16 
  90      4C66A433 
  90      69A277BC 
  91 00c9 B4D71754 		.ascii	"\264\327\027T\212\377\275L\215\212qU\353\326\314'\034"
  91      8AFFBD4C 
  91      8D8A7155 
  91      EBD6CC27 
  91      1C
  92 00da D9FA3061 		.ascii	"\331\3720a\322|\202\256\267;\310\355~\362\000}\034\320"
  92      D27C82AE 
  92      B73BC8ED 
  92      7EF2007D 
  92      1CD0
  93 00ec B3E8726F 		.ascii	"\263\350ro\275\326<)\313\274Y\224\347g\247\2739~\001"
  93      BDD63C29 
  93      CBBC5994 
  93      E767A7BB 
  93      397E01
  94 00ff E29F4544 		.ascii	"\342\237ED"
  95              		.text
  96              		.section	.gnu.lto_sd_is_write_protected.a074ba61be8f47d3,"",%progbits
  97 0000 789C5D4F 		.ascii	"x\234]O=k\002Q\020\234\331w/X\211U\300\316>\220_\243"
  97      3D6B0251 
  97      109CD977 
ARM GAS  /tmp/ccpNBtS9.s 			page 7


  97      2F588955 
  97      C0CE3E90 
  98 0016 104B3D83 		.ascii	"\020K=\203\034x\020\360\007\370\202\0266\202E\012\321"
  98      1C7810F0 
  98      07F88216 
  98      3682450A 
  98      D1
  99 0027 465B0BFD 		.ascii	"F[\013\375\001i\202\205\235B\272\220J\310\177Hkv\337"
  99      01698285 
  99      9D42BA90 
  99      4AC87F48 
  99      6B76DF
 100 003a 71165998 		.ascii	"q\026Y\230\331\205\331\217Y\201\340\177\324\025\277"
 100      D985D98F 
 100      5981E07F 
 100      D415BF
 101 0049 8A9A820E 		.ascii	"\212\232\202\016\224\371\031x\255\010i\005\210\221p"
 101      94F91978 
 101      AD086905 
 101      889170
 102 0058 D466ECDD 		.ascii	"\324f\354\335\313\307\345z\335\275\035\3273\362N\220"
 102      CBC7E57A 
 102      DDBD1DD7 
 102      33F24E90 
 103 0068 11CE2831 		.ascii	"\021\316(1\362J\326\3461\011a\336\000\3228\324T\266"
 103      F24AD6E6 
 103      310961DE 
 103      00D238D4 
 103      54B6
 104 007a 4D2D8A65 		.ascii	"M-\212ew\302\341{\361sa\207\033z\364)\017\330\206\011"
 104      77C2E17B 
 104      F1736187 
 104      1B7AF429 
 104      0FD88609 
 105 008e 33CA0A4B 		.ascii	"3\312\012KM\356I)\011\213iH\020\313x\271\313\322\357"
 105      4DEE4929 
 105      098B6948 
 105      10CB78B9 
 105      CBD2EF
 106 00a1 09E39D2B 		.ascii	"\011\343\235+\207\235\316[\223\227By\277)I\277\330\004"
 106      879DCE5B 
 106      93974279 
 106      BF2949BF 
 106      D804
 107 00b3 16CAD7F8 		.ascii	"\026\312\327\370\276\224\274\252Q\262\370\304\315\211"
 107      BE94BCAA 
 107      51B2F8C4 
 107      CD89
 108 00c1 2F0E34F5 		.ascii	"/\0164\365\0135j\033\253\303^\236\247\303,\177\031<"
 108      0B356A1B 
 108      ABC35E9E 
 108      A7C32C7F 
 108      193C
 109 00d3 3FA6F803 		.ascii	"?\246\370\003\011I;N"
 109      09493B4E 
 110              		.text
 111              		.section	.gnu.lto_sdmmcInitialize.a074ba61be8f47d3,"",%progbits
ARM GAS  /tmp/ccpNBtS9.s 			page 8


 112 0000 789CAD57 		.ascii	"x\234\255Wkl\024U\024>gfw\366\321\245\017\250\226Z\272"
 112      6B6C1455 
 112      143E6766 
 112      77F6D1A5 
 112      0FA8965A 
 113 0015 4C6B9196 		.ascii	"Lk\221\226\205By\031\337&<\376!\362h\2421\376\250\313"
 113      85427919 
 113      DF263CFE 
 113      21F268A2 
 113      31FEA8CB 
 114 0029 DA4CC276 		.ascii	"\332L\302va[~\030\1770\245+\017#\260!\376X\361\221b"
 114      615B7E18 
 114      7F30A52B 
 114      0F23B021 
 114      FE58F191 
 115 003e 634C0C01 		.ascii	"cL\014\001\023M\\E\342\202\030\300\252\2641&-Bh\242"
 115      134D5C45 
 115      E28218C0 
 115      AAB43126 
 115      2D4268A2 
 116 0052 09440C81 		.ascii	"\011D\014\201\220@S\265\365\334\307\314\354\213\026"
 116      904053B5 
 116      F5DCC7CC 
 116      EC8B16
 117 0061 924EB2F7 		.ascii	"\222N\262\367\3369\367~\347\361\235s\357\235U@\201\374"
 117      DE39F77E 
 117      E7F19D73 
 117      EF9D5540 
 117      81FC
 118 0073 671FFD86 		.ascii	"g\037\375\206\003\000\177R\217\001@%\371\013@\267WQ"
 118      03007F52 
 118      8F014025 
 118      F90B40B7 
 118      5751
 119 0085 5C7BE783 		.ascii	"\\{\347\203\351WY\033P\321%\304.\305m\366\003\311\375"
 119      E957591B 
 119      50D125C4 
 119      2EC56DF6 
 119      03C9FD
 120 0098 4995E46E 		.ascii	"I\225\344nE;[Fo\236\363\317\322\233\206%b\225G\361\262"
 120      453B5B46 
 120      6F9EF3CF 
 120      D29B8625 
 120      629547F1 
 121 00ad 69BF8FAF 		.ascii	"i\277\217\257\015x-\271\317\032\370\255A\011\"\033\000"
 121      0D782DB9 
 121      CF1AF8AD 
 121      4109221B 
 121      00
 122 00be C24E4575 		.ascii	"\302NEu\2715\217\327\347/\301\235/#sM\255\207#\246y"
 122      B9358FD7 
 122      E72FC19D 
 122      2F23734D 
 122      AD8723A6 
 123 00d3 68E4873B 		.ascii	"h\344\207;\003\370\336\273\231D\257\371\357\304\004"
 123      03F8DEBB 
 123      9944AFF9 
ARM GAS  /tmp/ccpNBtS9.s 			page 9


 123      EFC404
 124 00e2 A2811446 		.ascii	"\242\201\024F\005B\030\341%zA\235w\212+7.\216Mf.\357"
 124      054218E1 
 124      257A419D 
 124      778A2B37 
 124      2E8E4D66 
 125 00f8 3E50658E 		.ascii	">Pe\216\230Is\234\240\006\252\012\004\035\244W \261"
 125      9849739C 
 125      A006AA0A 
 125      041DA457 
 125      20B1
 126 010a 08F250E6 		.ascii	"\010\362P\346\312\356\203\331H\227\002\363\246B\036"
 126      CAEE83D9 
 126      489702F3 
 126      A6421E
 127 0119 57322313 		.ascii	"W2#\023\023?}\221\370\261\351q\004\262\346\302(\202"
 127      133F7D91 
 127      F8B1E971 
 127      04B2E6C2 
 127      2882
 128 012b 460D7AA8 		.ascii	"F\015z\250Qf\222\314]\311\232*h\303#X\0175\262\257e"
 128      516692CC 
 128      5DC99A2A 
 128      68C32358 
 128      0F35B2AF 
 129 0140 C2B9D468 		.ascii	"\302\271\324h:I\372HR'g\352I\350i\220/\215\324\177B"
 129      3A49FA48 
 129      522767EA 
 129      49E86990 
 129      2F8DD47F 
 130 0155 7D937C0F 		.ascii	"}\223|\0171X\263|i\221\3752\022z\227\263f\005kV2\255"
 130      3158B37C 
 130      6991FD32 
 130      127A97B3 
 130      66056B56 
 131 016b E49C1B12 		.ascii	"\344\234\033\022D\210.\264\0135\300\342\241g3\265,\015"
 131      44882EB4 
 131      0B35C0E2 
 131      A16733B5 
 131      2C0D
 132 017d ADA8B05E 		.ascii	"\255\250\260^\375\031v\365\247\257f\2246\374\024\335"
 132      FD1976F5 
 132      A7AF6694 
 132      36FC14DD 
 133 018d F03E1CEE 		.ascii	"\360>\034\3566\315r\242\375M\0303\367\262\221/\212*"
 133      36CD72A2 
 133      FD4D1833 
 133      F7B2912F 
 133      8A2A
 134 019f E118073E 		.ascii	"\341\030\007>\036y;\022\375\0146z\365&\012X\010>3\351"
 134      1E793B12 
 134      FD0C367A 
 134      F5260A58 
 134      083E33E9 
 135 01b3 29230F49 		.ascii	")#\017I\003\255\364\267\243\306\020%\034\361\232\344"
 135      03ADF4B7 
 135      A3C61025 
ARM GAS  /tmp/ccpNBtS9.s 			page 10


 135      1CF19AE4 
 136 01c3 AE1D3D1C 		.ascii	"\256\035=\0349\326\323\267?\230\217\014\024G\012\250"
 136      39D6D3B7 
 136      3F988F0C 
 136      14470AA8 
 137 01d3 F0C6DC40 		.ascii	"\360\306\334@\313\242(\262Oz\322\351\277\316)\371zf"
 137      CBA228B2 
 137      4F7AD2E9 
 137      BFCE29F9 
 137      7A66
 138 01e5 14D72376 		.ascii	"\024\327#v\003\223\314\260\320CE\320Zq\264j\2435\211"
 138      0393CCB0 
 138      D04345D0 
 138      5A71B46A 
 138      A33589
 139 01f8 EE4F5DCF 		.ascii	"\356O]\317`\036i%6i\245Q\222\013@\251\014\235\200\027"
 139      601E6925 
 139      3669A551 
 139      920B40A9 
 139      0C9D8017 
 140 020c 60F7C8D7 		.ascii	"`\367\310\327}\022\005\016\305ea\031&[_n\222\320\305"
 140      7D12050E 
 140      C5656119 
 140      265B5F6E 
 140      92D0C5
 141 021f 875ED354 		.ascii	"\207^\323T\370\240\242\232\022;\223+\350\375F\235\012"
 141      F8A0A29A 
 141      123B932B 
 141      E8FD469D 
 141      0A
 142 0230 9FB2F1A2 		.ascii	"\237\262\361\242\253\320\035\364\211)\321I\307\272\250"
 142      ABD01DF4 
 142      8929D149 
 142      C7BAA8
 143 023f FC8AC36E 		.ascii	"\374\212\303n\007\377\355\203\340\365B\374\311\007\301"
 143      07FFED83 
 143      E0F542FC 
 143      C907C1
 144 024e 970BFC2E 		.ascii	"\227\013\374.\211'\326/\246n\017\310\234\265\343\314"
 144      8927D62F 
 144      A66E0FC8 
 144      9CB5E3CC 
 145 025e 102C1015 		.ascii	"\020,\020\025G\364\233\257\334\253\352\230\341DfA\201"
 145      47F49BAF 
 145      DCABEA98 
 145      E1446641 
 145      81
 146 026f DD596159 		.ascii	"\335YaY\024\244\311\300J\241?}\373\032Z\372+s\364o\230"
 146      14A4C9C0 
 146      4AA13F7D 
 146      FB1A5AFA 
 146      2B73F46F 
 147 0284 4CFF5B99 		.ascii	"L\377[\231\332\002\375\017\205e\331\220&Y\277\333\015"
 147      DA02FD0F 
 147      8565D990 
 147      2659BFDB 
 147      0D
ARM GAS  /tmp/ccpNBtS9.s 			page 11


 148 0295 7C388A9A 		.ascii	"|8\212\232\\j`\0253z\372b\352\243\200\334\261\326\326"
 148      5C6A6015 
 148      337AFA62 
 148      EAA380DC 
 148      B1D6D6
 149 02a8 35FF38F0 		.ascii	"5\3778\360\024\200X\027\026\005\337\216\313X\231&\272"
 149      14805817 
 149      1605DF8E 
 149      CB589926 
 149      BA
 150 02b9 33B7DA0C 		.ascii	"3\267\332\014\234\315\274J23\325yI/\227\316\271\030"
 150      9CCDBC4A 
 150      3233D579 
 150      492F97CE 
 150      B918
 151 02cb FE347789 		.ascii	"\3764w\211\214\364\034#\342O\361\260\226\223&\266\320"
 151      8CF41C23 
 151      E24FF1B0 
 151      969326B6 
 151      D0
 152 02dc A3889913 		.ascii	"\243\210\231\023\366\314\012\232\344\314\263\310\316"
 152      F6CC0A9A 
 152      E4CCB3C8 
 152      CE
 153 02e9 C199ABDD 		.ascii	"\301\231\253\335e\366\024\227g\037\200\233)\272\275"
 153      65F61497 
 153      671F809B 
 153      29BABD
 154 02f8 F3D55632 		.ascii	"\363\325V2\304\316\221s\220\370\373\324\347\036\213"
 154      C4CE9173 
 154      90F8FBD4 
 154      E71E8B
 155 0307 BB95F65E 		.ascii	"\273\225\366^\021\3170\010\011\235\347\037\254\227s"
 155      11CF3008 
 155      099DE71F 
 155      AC9773
 156 0316 EAD1E3C8 		.ascii	"\352\321\343\310\016\"7\320\335\301\016\242\363Ct\372"
 156      0E2237D0 
 156      DDC10EA2 
 156      F34374FA 
 157 0326 5B1AAAEE 		.ascii	"[\032\252\356\347,b\334\273\013\230\177$,\302fZ\230"
 157      E72C62DC 
 157      BB0B987F 
 157      242CC266 
 157      5A98
 158 0338 30659A83 		.ascii	"0e\232\203\004\251\011B\323\207f\352y\003\347\200\235"
 158      04A90942 
 158      D38766EA 
 158      7903E780 
 158      9D
 159 0349 825A9E82 		.ascii	"\202Z\236\202\364\350\235r\347(H\320\342\2405\230k\015"
 159      F4E89D72 
 159      E72848D0 
 159      E2A03598 
 159      6B0D
 160 035b 74713454 		.ascii	"tq4T\347mR\213o\267\3545\331{\354\232\256c\333\230W"
 160      E76D528B 
ARM GAS  /tmp/ccpNBtS9.s 			page 12


 160      6FB7EC35 
 160      D97BEC9A 
 160      AE63DB98 
 161 0370 61EFA5C2 		.ascii	"a\357\245\302\362\257\017K\010gx\240\214|z\224\327\342"
 161      F2AF0F4B 
 161      086778A0 
 161      8C7C7A94 
 161      D7E2
 162 0382 F9F45D87 		.ascii	"\371\364]\207\215\232ia\243&\227\215g\212\263\261\353"
 162      8D9A6961 
 162      A326978D 
 162      678AB3B1 
 162      EB
 163 0393 E2D0DD6B 		.ascii	"\342\320\335k\366.\253\315\331\005\333'\337e\213,\324"
 163      F62EABCD 
 163      D905DB27 
 163      DF658B2C 
 163      D4
 164 03a4 5CDB7C43 		.ascii	"\\\333|CXRA\252\014\234\307\015\\\357y\335Z\250\323"
 164      585241AA 
 164      0C9CC70D 
 164      5CEF79DD 
 164      5AA8D3
 165 03b7 5A516CA7 		.ascii	"ZQl\247\276\333c\033\325\231\201\307\262\257\334Vb\351"
 165      BEDB631B 
 165      D59981C7 
 165      B2AFDC56 
 165      62E9
 166 03c9 6E29AF92 		.ascii	"n)\257\222\364\330M\233\227\272\373\343\205`7T\013S"
 166      F4D84D9B 
 166      97BAFBE3 
 166      85603754 
 166      0B53
 167 03db CF4D5E00 		.ascii	"\317M^\000m2\252\352$U\303\244e~\0206\010\252\032-\252"
 167      6D32AAEA 
 167      2455C3A4 
 167      657E1036 
 167      08AA1A2D 
 168 03f0 480B674B 		.ascii	"H\013gK\270\346\201}Os\327R\3778)k\230\226\2245d\245"
 168      B8E6817D 
 168      4F73D752 
 168      FF38296B 
 168      98969435 
 169 0406 AC2908DB 		.ascii	"\254)\010\333\204\037\013\362S6\326\363\325\301\334"
 169      841F0BF2 
 169      5336D6F3 
 169      D5C1DC
 170 0415 2BD537C5 		.ascii	"+\3257\305U\350\\\2513\2422C\354~\272\361\275\035@\243"
 170      55E85CA9 
 170      33A23243 
 170      EC7EBAF1 
 170      BD1D40A3 
 171 0429 ED4F282C 		.ascii	"\355O(,\367\276\220d~\337Si\303\204\177\231\313g\203"
 171      F7BE9064 
 171      7EDF5369 
 171      C3847F99 
 171      CB6783
ARM GAS  /tmp/ccpNBtS9.s 			page 13


 172 043c 062E0CC2 		.ascii	"\006.\014\302\333(<\\dy\310,73G\027\2634\323!q\305I"
 172      DB283C5C 
 172      6479C82C 
 172      37334717 
 172      B334D321 
 173 0453 73239BCC 		.ascii	"s#\233\314\371\230k%C_*\"\315\343N\232\233\246\205\313"
 173      F9986B25 
 173      435F2A22 
 173      CDE34E9A 
 173      9BA685CB 
 174 0467 A6AC9C2E 		.ascii	"\246\254\234.\011\302~\351jKa\375\217\017\331>\206r"
 174      09C27EE9 
 174      6A4B61FD 
 174      8F0FD93E 
 174      8672
 175 0479 EAFFD5C9 		.ascii	"\352\377\325\311\353?T`\236\312\337\372l\012Y\345\237"
 175      EB3F5460 
 175      9ECADFFA 
 175      6C0A59E5 
 175      9F
 176 048a 1E1D1FC8 		.ascii	"\036\035\037\310\375\362h\271\337\357\026\301\221\017"
 176      FDF268B9 
 176      DFEF16C1 
 176      910F
 177 0498 7E7B8273 		.ascii	"~{\202s4:\341p\324<-\0345gq\2644\010\307$G\313\3629"
 177      343AE170 
 177      D43C2D1C 
 177      356771B4 
 177      3408C724 
 178 04b0 4AA73EBE 		.ascii	"J\247>\276\205\371\0057\365\327\023\3321\370!\251\212"
 178      85F90537 
 178      F5D713DA 
 178      31F821A9 
 178      8A
 179 04c1 3DD33768 		.ascii	"=\3237h\307\3202-1\264\344\356\231~,\266i\204\027%\374"
 179      C7D0322D 
 179      31B4E4EE 
 179      997E2CB6 
 179      69841725 
 180 04d6 F21AA4BF 		.ascii	"\362\032\244\277'\014\310\275\033\006\244\003H;zr63"
 180      270CC8BD 
 180      1B06A403 
 180      483B7A72 
 180      3633
 181 04e8 A9D25F02 		.ascii	"\251\322_\002\361\340N\357\231\347\270\350?G\344\277"
 181      F1E04EEF 
 181      99E7B8E8 
 181      3F47E4BF 
 182 04f8 34E8E532 		.ascii	"4\350\3452\000\337;\277V\262k\021\231J\226\266\322\316"
 182      00DF3BBF 
 182      56B26B11 
 182      994A96B6 
 182      D2CE
 183 050a 2DD168B8 		.ascii	"-\321h\270\323\210n\333\032i\016C\2403\0227\332\266"
 183      D3886EDB 
 183      1A690E43 
 183      A0331237 
ARM GAS  /tmp/ccpNBtS9.s 			page 14


 183      DAB6
 184 051c BE188B77 		.ascii	"\276\030\213w5/\321:\273\332\272vt\252\221x|\326\246"
 184      352FD13A 
 184      BBDABA76 
 184      74AA9178 
 184      7CD6A6
 185 052f D58BD7AD 		.ascii	"\325\213\327\255[\365\344\252\266\370\026}mlG\307\026"
 185      5BF5E4AA 
 185      B6F8167D 
 185      6D6C47C7 
 185      16
 186 0540 3FD8B258 		.ascii	"?\330\262XGG$\334et\264\373!(ek6n\\\277Q\2273\013\351"
 186      474724DC 
 186      6574B4FB 
 186      2128656B 
 186      366E5CBF 
 187 0559 6DDE92A5 		.ascii	"m\336\222\245\004\251\226\323\326\214\021\353\320W\307"
 187      04A996D3 
 187      D68C11EB 
 187      D057C7
 188 0568 3A227E50 		.ascii	":\"~P\026\203.'\327\032[#\372\2467:\273\"Q}\035\231"
 188      16832E27 
 188      D71A5B23 
 188      FAA6373A 
 188      BB22517D 
 189 057e EAD2D7C4 		.ascii	"\352\322\327\304\343\261\270\037\346\334kA$K\365\013"
 189      E3B1B81F 
 189      E6DC6B41 
 189      244BF50B 
 190 058e 31D2A367 		.ascii	"1\322\243g\373\371?\016\216S\361"
 190      FBF93F0E 
 190      8E53F1
 191              		.text
 192              		.section	.gnu.lto_sdmmGetMMCDriver.a074ba61be8f47d3,"",%progbits
 193 0000 789C6D50 		.ascii	"x\234mP=K\003A\020}ovOE\202F\260\261K)\006lR\370G\014"
 193      3D4B0341 
 193      107D6F76 
 193      4F458246 
 193      B0B14B29 
 194 001a 68999C12 		.ascii	"h\231\234\022\016<\010\344\007\334F\356\007\\\255\215"
 194      0E3C08E4 
 194      07DC46EE 
 194      075CAD8D 
 195 002a 7672A0FE 		.ascii	"vr\240\376\005+\0211\201\010\202\246Ji\341\017\260\213"
 195      052B1131 
 195      810882A6 
 195      4A69E10F 
 195      B08B
 196 003c B32B2751 		.ascii	"\263+'Q\034\330\235\231\335\367\336|\010\004\177\255"
 196      1CD89D99 
 196      DDF7DE7C 
 196      08047FAD 
 197 004c A5678B40 		.ascii	"\245g\213@]=#P\21210\\\0211W\367\200[\265\357\313p5"
 197      5D3D2350 
 197      8A31305C 
 197      113157F7 
 197      805BB5EF 
ARM GAS  /tmp/ccpNBtS9.s 			page 15


 198 0063 43FBFD6E 		.ascii	"C\373\375nI\037\200\310\304Xf\207\014*\267r7\233\317"
 198      491F80C8 
 198      C4586687 
 198      0C2AB772 
 198      379BCF
 199 0076 6F9E1F2F 		.ascii	"o\236\037/\256)KDB\030\246\204\325HU\223\200\212\220"
 199      AE294B44 
 199      4218A684 
 199      D5485593 
 199      808A90
 200 0089 3B573480 		.ascii	";W4\2008\244\373z{\2556\305{3\302\351\364\265\234\260"
 200      38A4FB7A 
 200      7BAD36C5 
 200      7B33C2E9 
 200      F4B59CB0 
 201 009d C34BA5F4 		.ascii	"\303K\245\364h\233\330Q\3669\316\230Pz4\007\352M(\327"
 201      689BD851 
 201      F639CE98 
 201      507A3407 
 201      EA4D28D7 
 202 00b1 65D5FE03 		.ascii	"e\325\376\003\362\217\341\372\017\305C\2708^[\031:H"
 202      F28FE1FA 
 202      0FC543B8 
 202      385E5B19 
 202      3A48
 203 00c3 10FF2C37 		.ascii	"\020\377,7*`\324D\351\324\366\264\263\377\013\360\227"
 203      2A60D444 
 203      E9D4F6B4 
 203      B3FF0BF0 
 203      97
 204 00d4 880D1D4E 		.ascii	"\210\015\035Nt\001Pv\370{\003U\307l{\222\246\362\364"
 204      74015076 
 204      F87B0355 
 204      C76C7B92 
 204      A6F2F4
 205 00e7 B2E967A2 		.ascii	"\262\351g\242G\3725\257\015\216\3224\036$i\377\344x"
 205      47FA35AF 
 205      0D8ED234 
 205      1E2469FF 
 205      E478
 206 00f9 37C617B1 		.ascii	"7\306\027\261\230EH"
 206      984548
 207              		.text
 208              		.section	.gnu.lto_sdmmcGetFS.a074ba61be8f47d3,"",%progbits
 209 0000 789C6D50 		.ascii	"x\234mPMKBA\024=\347\316<\215\210Rh\323\256e$\264i\321"
 209      4D4B4241 
 209      143DE7CE 
 209      3C8D8852 
 209      68D3AE65 
 210 0018 1F51D065 		.ascii	"\037Q\320e>E\036\370 \360\0078\206\313\026\256kS;q\341"
 210      3E451EF8 
 210      20F00738 
 210      86CB16AE 
 210      6B533B71 
 211 002d FB0BAE22 		.ascii	"\373\013\256\"\003\005w\332\252e\213~@\264\261;\023"
 211      030577DA 
 211      AA658B7E 
ARM GAS  /tmp/ccpNBtS9.s 			page 16


 211      40B4B13B 
 211      13
 212 003e 46461766 		.ascii	"FF\027f\356\2753\347\234\373!\020\374\265s=G\004\012"
 212      EEBD33E7 
 212      9CFB2110 
 212      FCB5733D 
 212      47040A
 213 0051 EA198132 		.ascii	"\352\031\2012\230\003\275\035\0213|\004\334\256}\313"
 213      9803BD1D 
 213      11337C04 
 213      DCAE7DCB 
 214 0061 C3ED19DA 		.ascii	"\303\355\031\332\357wK\372\000DW\214e\267\306\240\222"
 214      EF774BFA 
 214      0044578C 
 214      65B7C6A0 
 214      92
 215 0072 C9E475BD 		.ascii	"\311\344u\275\036\177>\337O)9\"!\014S\302j\244\252I"
 215      1E7F3EDF 
 215      4F293922 
 215      210C53C2 
 215      6AA4AA49 
 216 0086 4045E83B 		.ascii	"@E\350;78\006\342\220\226\365\366Z\025\212\367f\206"
 216      373806E2 
 216      9096F5F6 
 216      5A158AF7 
 216      6686
 217 0098 EB9765B6 		.ascii	"\353\227e\266\340%\037\224\322\242-\341T\331w\270eB"
 217      E0251F94 
 217      D2A22DE1 
 217      54D977B8 
 217      6542
 218 00aa 69D154D5 		.ascii	"i\321T\325\233P\256\316M\373O\350\277\367\016~(\036"
 218      9B50AECE 
 218      4DFB4FE8 
 218      BFF70E7E 
 218      281E
 219 00bc C2DFE355 		.ascii	"\302\337\343U\224\241\203\004\361\217\254\270\001F%"
 219      94A18304 
 219      F18FACB8 
 219      014625
 220 00cb 8C9CDA85 		.ascii	"\214\234\332\205v\366\177\001n\211\330\320\341B\027"
 220      76F67F01 
 220      6E89D8D0 
 220      E14217
 221 00da 006587BF 		.ascii	"\000e\207\277\025\250:\346\304\2234\225\233\325\241"
 221      15A83AE6 
 221      C4933495 
 221      9BD5A1
 222 00e9 9F891EE9 		.ascii	"\237\211\036\351\327\274\337i\244i\334I\322\253v\363"
 222      D7BCDF69 
 222      A469DC49 
 222      D2AB76F3 
 223 00f9 2CC617FB 		.ascii	",\306\027\373\321EZ"
 223      D1455A
 224              		.text
 225              		.section	.gnu.lto_sdmmcFSMounted.a074ba61be8f47d3,"",%progbits
 226 0000 789C6362 		.ascii	"x\234cb`b@\007\222@<\003\210\005\200\230\221\231\201"
ARM GAS  /tmp/ccpNBtS9.s 			page 17


 226      60624007 
 226      92403C03 
 226      88058098 
 226      919981
 227 0013 9169C239 		.ascii	"\221i\3029\006\206F\016&FF\020\203\201\221\241\236\211"
 227      0686460E 
 227      26464610 
 227      838191A1 
 227      9E89
 228 0025 B13E9211 		.ascii	"\261>\222\021\254v=\323\201\007\377\377\257\333tz\301"
 228      AC763DD3 
 228      8107FFFF 
 228      AFDB747A 
 228      C1
 229 0036 6D462616 		.ascii	"mF&\026&\306\\F\006f\206L\260\034+CKC\303\004\005\006"
 229      26C65C46 
 229      0666864C 
 229      B01C2B43 
 229      4B43C304 
 230 004c 86643037 		.ascii	"\206d07\004H\202\364\20722\201h\346\263\014M\267nlS"
 230      044882F4 
 230      87323281 
 230      68E6B30C 
 230      4DB76E6C 
 231 0061 4C645CC8 		.ascii	"Ld\\\310\310\312\220\316\310\254\315\260\252\001\010"
 231      C8CA90CE 
 231      C8ACCDB0 
 231      AA0108
 232 0070 AC819A67 		.ascii	"\254\201\232g3\314b\314ddLgd\212\000\322\020\007&1\302"
 232      33CC62CC 
 232      64644C67 
 232      648A00D2 
 232      10072631 
 233 0085 9C7791A1 		.ascii	"\234w\221\241\361\000\013\\\033D,\204\221\021d(H)_q"
 233      F1000B5C 
 233      1B442C84 
 233      91116428 
 233      48295F71 
 234 0099 4A6E6E72 		.ascii	"JnnrqfnAN\252^2\003\000\362\322*\313"
 234      71666E41 
 234      4EAA5E32 
 234      0300F2D2 
 234      2ACB
 235              		.text
 236              		.section	.gnu.lto_.symbol_nodes.a074ba61be8f47d3,"",%progbits
 237 0000 789C4DCC 		.ascii	"x\234M\314MV\3020\024\206\341/_Z\360\027\360\177\240"
 237      4D56C230 
 237      1486E12F 
 237      5F5AF017 
 237      F07FA0
 238 0013 E7B80137 		.ascii	"\347\270\0017\345J.P\201*R\221*\2359\260;\261Lu\340"
 238      E54A2E50 
 238      812A5291 
 238      2A9D39B0 
 238      3BB14C75 
 239 0028 0AD41E67 		.ascii	"\012\324\036g\256AL\232\036\323L\236\363\346&\227 ^"
 239      AE414C9A 
ARM GAS  /tmp/ccpNBtS9.s 			page 18


 239      1ED34C9E 
 239      F3E62697 
 239      205E
 240 003a 15DCE15A 		.ascii	"\025\334\341Z\0110\177\003Df\361%'\024U\347S\254\030"
 240      09307F03 
 240      4466F125 
 240      271455E7 
 240      53AC18
 241 004d 53D8C86B 		.ascii	"S\330\310k\212\366\031\016\311@t8\243\206 \0340\260"
 241      8AF6190E 
 241      C9407438 
 241      A386201C 
 241      30B0
 242 005f 35A6B244 		.ascii	"5\246\262D\204\2017\224\240\261`J\011\033yKi5\366]1"
 242      84813794 
 242      A0B1604A 
 242      091B794B 
 242      6935F65D 
 243 0074 B45F476C 		.ascii	"\264_Gl\031TFi\273a\277\257\324\222\262\341\353\221"
 243      19544669 
 243      BB61BFAF 
 243      D492B2E1 
 243      EB91
 244 0086 B2E9EB81 		.ascii	"\262\351\353\201\262\345+\245l\373ZPv|\335Sv}\315)\035"
 244      B2E52BA5 
 244      6CFB5A50 
 244      767CDD53 
 244      767DCD29 
 245 009b 5F7794AE 		.ascii	"_w\224\256\257\204\322\373/\215\036\242\217_c\027ye"
 245      AF84D2FB 
 245      2F8D1EA2 
 245      8F5F6317 
 245      7965
 246 00ad 0785559F 		.ascii	"\007\205U\237\240\370t\226\265\321\370\347\334\232\327"
 246      A0F87496 
 246      B5D1F8E7 
 246      DC9AD7
 247 00bc 1695C788 		.ascii	"\026\225\307\210&\326#\024\225\300\363te<DYi:\261\036"
 247      26D62314 
 247      95C0F374 
 247      653C4459 
 247      693AB11E 
 248 00d0 A04C5C0F 		.ascii	"\240L\\\017\337\327\264\276,VgZ\357#J\255\300Wj\306"
 248      DFD7B4BE 
 248      2C56675A 
 248      EF234AAD 
 248      C0576AC6 
 249 00e4 7BC897EE 		.ascii	"{\310\227\356U\366}Z\335f\027\370\003\213$\200|"
 249      55F67D5A 
 249      DD6617F8 
 249      038B2480 
 249      7C
 250              		.text
 251              		.section	.gnu.lto_.refs.a074ba61be8f47d3,"",%progbits
 252 0000 789C25C6 		.ascii	"x\234%\306\261\001\000 \010\304\300'\200P\310\030\356"
 252      B1010020 
 252      08C4C027 
ARM GAS  /tmp/ccpNBtS9.s 			page 19


 252      8050C818 
 252      EE
 253 0011 BFA205B9 		.ascii	"\277\242\005\271&\010=m\343\026\244\035J\261hz\317\213"
 253      26083D6D 
 253      E316A41D 
 253      4AB1687A 
 253      CF8B
 254 0023 E432FA11 		.ascii	"\3442\372\021N\000\264"
 254      4E00B4
 255              		.text
 256              		.section	.gnu.lto_.decls.a074ba61be8f47d3,"",%progbits
 257 0000 789CBD7D 		.ascii	"x\234\275}\013t\024E\272\177w\3173$\362\022\024\024"
 257      0B741445 
 257      BA7F77CF 
 257      3324F212 
 257      1414
 258 0012 97F1EEEE 		.ascii	"\227\361\356\356\377x\356Y\015\257u\335\275\367\252"
 258      FF78EE59 
 258      0DAF75DD 
 258      BDF7AA
 259 0021 9007B002 		.ascii	"\220\007\260\002\311\177\022w\327s\357\371\217C2\201"
 259      C97F1277 
 259      D773EFF9 
 259      8F433281 
 260 0031 B9E6E5CC 		.ascii	"\271\346\345\314\004\361\177\3579\333\020\301\007\212"
 260      04F17FEF 
 260      39DB10C1 
 260      078A
 261 003f 101EE119 		.ascii	"\020\036\341\031\"\017\001Q\0200\362\306\301E\010 \020"
 261      220F0151 
 261      1030F2C6 
 261      C1450820 
 261      10
 262 0050 40144420 		.ascii	"@\024D \202\250\200(!*\020\204\334\257\276\352\236\251"
 262      82A88028 
 262      212A1084 
 262      DCAFBEEA 
 262      9EA9
 263 0062 EE74CF54 		.ascii	"\356t\317T\217\273w\316\251\352\232\232\256_}\337W_"
 263      8FBB77CE 
 263      A9EA9A9A 
 263      AE5F7DDF 
 263      575F
 264 0074 7DF5D5A3 		.ascii	"}\365\325\243{$A\022\032m\202\320\016\237\233\323\004"
 264      7B244112 
 264      1A6D82D0 
 264      0E9F9BD3 
 264      04
 265 0085 21BDAB20 		.ascii	"!\275\253 \270\005Ax\030B\017\010v\010\257AX\014a\005"
 265      B8054178 
 265      18420F08 
 265      7608AF41 
 265      580C6105 
 266 0099 84951056 		.ascii	"\204\225\020VAx\023\302j\010g!|\001\241\001\302\227"
 266      417813C2 
 266      6A086721 
 266      7C01A101 
ARM GAS  /tmp/ccpNBtS9.s 			page 20


 266      C297
 267 00ab 10BE8270 		.ascii	"\020\276\202p\036\302\005\010.\010\337@\360\212\202"
 267      1EC20508 
 267      2E08DF40 
 267      F08A82
 268 00ba F0EF9220 		.ascii	"\360\357\222 \374?\010\344\323\015\202\037\322\265\020"
 268      FC3F08E4 
 268      D30D821F 
 268      D2B510
 269 00c9 DA20DC82 		.ascii	"\332 \334\202\260\021h\330\016a'\204\275\020\366A8\016"
 269      B01168D8 
 269      0E612784 
 269      BD10F641 
 269      380E
 270 00db E153089F 		.ascii	"\341S\010\237A\350\001\204\334\001\341.\010}!\374\322"
 270      41E80184 
 270      DC01E12E 
 270      087D21FC 
 270      D2
 271 00ec 4EF17F03 		.ascii	"N\361\177\003\327\007 \374\033\204\001\020\036\201\360"
 271      D70720FC 
 271      1B840110 
 271      1E81F0
 272 00fb 20843FD8 		.ascii	" \204?\330\005\315\207\324\227\016\327&\300\352\014"
 272      05CD87D4 
 272      970ED726 
 272      C0EA0C
 273 010a D70C85B7 		.ascii	"\327\014\205\267\301\020\345@\030\002!\027\302\207\360"
 273      C110E540 
 273      18022117 
 273      C287F0
 274 0119 FB50B80E 		.ascii	"\373P\270\016S\312\333\225\262\307\025\232\010m\204"
 274      53CADB95 
 274      B2C7159A 
 274      086D84
 275 0128 8D1A8866 		.ascii	"\215\032\210fJ\332:\010?N\201\362Ih\273\027\370\276"
 275      4ADA3A08 
 275      3F4E81F2 
 275      4968BB17 
 275      F8BE
 276 013a 5BA4FC13 		.ascii	"[\244\374\023\034\270\010\231\"\275\326\352\312\222"
 276      1CB80899 
 276      22BDD6EA 
 276      CA92
 277 0148 4F9B52DE 		.ascii	"O\233R\336\245`$*\337fP\236\310q\020\\{3<\012\220>\005"
 277      A560242A 
 277      DF66509E 
 277      C871105C 
 277      7B333C0A 
 278 015f 619E227F 		.ascii	"a\236\"\177\273\202\377GH\270!\337\005\241Ui\313\307"
 278      BB82FF47 
 278      48B821DF 
 278      05A15569 
 278      CBC7
 279 0171 206F843D 		.ascii	" o\204=\336^\277\202\364H\010\036\010\243\354\264-\357"
 279      DE5EBF82 
 279      F448081E 
ARM GAS  /tmp/ccpNBtS9.s 			page 21


 279      08A3ECB4 
 279      2DEF
 280 0183 B6C7E9CA 		.ascii	"\266\307\351\312\263\307\333z4\334\237\017\337\377/"
 280      B3C7DB7A 
 280      34DC9F0F 
 280      DFFF2F
 281 0192 84412256 		.ascii	"\204A\"V+x!}'\204\002\010s\024zU\035Qu\252\320\256\325"
 281      2B78217D 
 281      27840208 
 281      73147A55 
 281      1D5175AA 
 282 01a9 A193B6B8 		.ascii	"\241\223\266\270~\251\372F\364\2613\344w\201\320\015"
 282      7EA9FA46 
 282      F4B133E4 
 282      7781D00D 
 283 01b9 424F1B95 		.ascii	"BO\033\225\303@\010\277\207\220\015\241\223\302\377"
 283      C34008BF 
 283      87900DA1 
 283      93C2FF
 284 01c8 2F15FD20 		.ascii	"/\025\375 zBdL\332\216\350\015\321\237\317\024}\"x\015"
 284      7A42644C 
 284      DA8EE80D 
 284      D19FCF14 
 284      7D22780D 
 285 01dc 705D0B61 		.ascii	"p]\013a\275M\253;D\227~\243\323\035\242\233$K\225\241"
 285      BD4DAB3B 
 285      44977EA3 
 285      D31DA29B 
 285      244B95A1 
 286 01f0 2A37C2D2 		.ascii	"*7\302\322\3556J\233\250\334G\256[m\332\362\333\225"
 286      ED364A9B 
 286      A8DC47AE 
 286      5B6DDAF2 
 286      DB95
 287 0202 F2AB858E 		.ascii	"\362\253\205\216\345{*<\211\312}\344\372\276\256<\351"
 287      E57B2A3C 
 287      89CA7DE4 
 287      FABEAE3C 
 287      E9
 288 0213 13365D59 		.ascii	"\0236]YQ)+*\277\223k\243\256\\\272\360\222,O\224\353"
 288      51292B2A 
 288      BF936BA3 
 288      AE5CBAF0 
 288      922C4F94 
 289 0228 27CBC31A 		.ascii	"'\313\303\032;w\023\246\311\360\361\314\351\234&\274"
 289      3B7713A6 
 289      C9F0F1CC 
 289      E99C26BC 
 290 0238 40B29B97 		.ascii	"@\262\233\227\311\275z\011\302_D\277\010YnLd\244!\320"
 290      C9BD7A09 
 290      C25F44BF 
 290      08596E4C 
 290      64A421D0 
 291 024c AF85A570 		.ascii	"\257\205\245p+\334/\371\305%b\032\020*\211\035\325\215"
 291      2BDC2FF9 
 291      C525621A 
 291      102A891D 
ARM GAS  /tmp/ccpNBtS9.s 			page 22


 291      D58D
 292 025e 7CE8EFFF 		.ascii	"|\350\357\377,\254\244\367\237\321\337F@\311\035\361"
 292      2CACA4F7 
 292      9FD1DF46 
 292      40C91DF1 
 293 026e 54BB18AB 		.ascii	"T\273\030\253\263QT+\355\255\200-\026\273a\012I\224"
 293      B351542B 
 293      EDAD802D 
 293      16BB610A 
 293      4994
 294 0280 15CAF10E 		.ascii	"\025\312\361\016\245\210G-aWJ,GpA\315\216%z1\004\030"
 294      A588472D 
 294      61574A2C 
 294      477041CD 
 294      8E257A31 
 295 0296 957B4D4C 		.ascii	"\225{MLO\"&J\256R\2769Fj\037\005`\245eR\3370!\365\356"
 295      4F22264A 
 295      AE52BE39 
 295      466A1F05 
 295      60A56552 
 296 02af 24A4AEB0 		.ascii	"$\244\256\260F\252,\251\000\036\005\340M\313\244\276"
 296      46AA2CA9 
 296      001E05E0 
 296      4DCBA4BE 
 297 02bf 65426ADF 		.ascii	"eBj\337$\244\2562!\265\2730\035Im\354\034++\377R-\374"
 297      24A4AE32 
 297      21B5BB30 
 297      1D496DEC 
 297      1C2B2BFF 
 298 02d6 B65D55B9 		.ascii	"\266]U\271i\315\333\276\231j\223e\267_\\#v\007\265\033"
 298      69CDDBBE 
 298      996A9365 
 298      B75F5C23 
 298      7607B51B 
 299 02ea 2202E8EB 		.ascii	"\"\002\350\353\342?+\230\311a\010\021\353\240(-E\365"
 299      E23F2B98 
 299      C9610811 
 299      EBA0282D 
 299      45F5
 300 02fc 38BA6557 		.ascii	"8\272eW\206l\247\371\202\006O\363\271W\250\007\202\243"
 300      866CA7F9 
 300      82064FF3 
 300      B957A807 
 300      82A3
 301 030e DB766D11 		.ascii	"\333vm\021\345\311\031L'\231\3239A/\231\326\274v\362"
 301      E5C9194C 
 301      2799D339 
 301      412F99D6 
 301      BC76F2
 302 0321 CC4C24B9 		.ascii	"\314L$\271\001{\312\004QK\263_Td\311~Wo h\261\336\241"
 302      017BCA04 
 302      514BB35F 
 302      5464C97E 
 302      576F2068 
 303 0338 740E4998 		.ascii	"t\016I\230\214\020\204\\\243jcm\3024\204\206\205\346"
 303      8C10845C 
 303      A36A636D 
ARM GAS  /tmp/ccpNBtS9.s 			page 23


 303      C2348486 
 303      85E6
 304 034a 6D3FBDEC 		.ascii	"m?\275\354\252\225\243\023l*MS-\003\27252i\332\225\376"
 304      AA95A313 
 304      6C2A4D53 
 304      2D03BA35 
 304      3269DA95 
 305 035f F6932A58 		.ascii	"\366\223*X\215e\260\256\032\260\303,\330\034\313`\275"
 305      8D65B0AE 
 305      1AB0C32C 
 305      D81CCB60 
 305      BD
 306 0370 34601FB1 		.ascii	"4`\037\261`\213,\203y4`\037\263`\313,\203\335\247\001"
 306      608B2C83 
 306      7934601F 
 306      B360CB2C 
 306      83DDA701 
 307 0384 3B3639A3 		.ascii	";69\243\351IE\213\344\311\362}+:3\362P\212K\254\026"
 307      E949458B 
 307      E4C9F27D 
 307      2B3A33F2 
 307      508A4BAC 
 308 0399 CD7E08B5 		.ascii	"\315~\010\265h'\326\276\272\203\026\331tZd\323j\221"
 308      6827D6BE 
 308      BA8316D9 
 308      745A64D3 
 308      6A91
 309 03ab 2D2D9E68 		.ascii	"--\236ho\307\301e\275\236\003M\275F\034\364\323\252"
 309      6FC7C165 
 309      BD9E034D 
 309      BD461CF4 
 309      D3AA
 310 03bd D13BAFB8 		.ascii	"\321;\257\270\346\310\321\2116\225\250wy\000\335\246"
 310      E6C8D189 
 310      3695A877 
 310      7900DDA6 
 311 03cd 7A19BD31 		.ascii	"z\031\2751\371\345\336r\375\373\242\"\025j\032\214\215"
 311      F9E5DE72 
 311      FDFBA222 
 311      156A1A8C 
 311      8D
 312 03de 892A955D 		.ascii	"\211*\225]u\264o\355C\002\242\035\244\342\322I\305\245"
 312      75B46FED 
 312      4302A21D 
 312      A4E2D249 
 312      C5A5
 313 03f0 958A2B2D 		.ascii	"\225\212+-\236 \036n\027\"\227]z645\033\261\241Q\223"
 313      9E201E6E 
 313      1722975D 
 313      7A363435 
 313      1BB1A151 
 314 0405 E66DD75E 		.ascii	"\346m\327^\3515W\216>gS\311:\304\003\330\325\\.\263"
 314      E935578E 
 314      3E6753C9 
 314      3AC403D8 
 314      D55C2EB3 
 315 0419 77674CF3 		.ascii	"wgL\363\253`\237Y\006\323*\361\034\026\354\034\017X"
ARM GAS  /tmp/ccpNBtS9.s 			page 24


 315      AB609F59 
 315      06D32AF1 
 315      1C16EC1C 
 315      0F58
 316 042b 2F73CAE6 		.ascii	"/s\312\346\261`\027-\203i)[\300\202\265\362\200y\314"
 316      B160172D 
 316      8369295B 
 316      C082B5F2 
 316      8079CC
 317 043e 29AB63C1 		.ascii	")\253c\301nX\006\323R\3666\013V-q\200\335gN\331:\026"
 317      6E5806D3 
 317      52F6360B 
 317      562D7180 
 317      DD674ED9 
 318 0454 EC65CB60 		.ascii	"\354e\313`,er\264aw:\014F\354H\337\300\214\36410Y\035"
 318      2C6572B4 
 318      61773A0C 
 318      46EC48DF 
 318      C08CF431 
 319 046b FB9A2D0F 		.ascii	"\373\232-\017\365\237\233\014\365\355\2523)\301<G\307"
 319      F59F9B0C 
 319      F5EDAA33 
 319      29C13C47 
 319      C7
 320 047c 84AE6225 		.ascii	"\204\256b%\335\317@&F\037v\204\366\213\353\305_C\374"
 320      DDCF4026 
 320      461F7684 
 320      F68BEBC5 
 320      5F43FC
 321 048f 8E782FC4 		.ascii	"\216x/\304\2330\336\202\3616\214\337\303x\007\306\177"
 321      9B30DE82 
 321      F1368CDF 
 321      C37807C6 
 321      7F
 322 04a0 C3B811E3 		.ascii	"\303\270\021\343\275\030\037\304\370\020\306G0>\212"
 322      BD181FC4 
 322      F810C647 
 322      303E8A
 323 04af F127181F 		.ascii	"\361'\030\037\307\370\004\306'1>\015q\354c&\220\325"
 323      C7F804C6 
 323      27313E0D 
 323      71EC6326 
 323      90D5
 324 04c1 89DDADFA 		.ascii	"\211\335\255\372Gu\376\226\306\010\022\200/,\267\301"
 324      4775FE96 
 324      C6081280 
 324      2F2CB7C1 
 325 04d1 39933610 		.ascii	"9\2236\020\223\220z\326\232gx9\346\304\376B\001\370"
 325      93907AD6 
 325      9A677839 
 325      E6C4FE42 
 325      01F8
 326 04e3 CA32A95F 		.ascii	"\3122\251_\233\220zO\022R\277\264F\352\234\030\251\267"
 326      9B907A4F 
 326      1252BFB4 
 326      46EA9C18 
 326      A9B7
ARM GAS  /tmp/ccpNBtS9.s 			page 25


 327 04f5 2B00172C 		.ascii	"+\000\027,\223z\321\204\324\356IH=\317\357\304>\251"
 327      937AD184 
 327      D4EE4948 
 327      3DCFEFC4 
 327      3EA9
 328 0507 9625536D 		.ascii	"\226%Sme\314j\2519\325\037\307\254K\350\302\036\224"
 328      65CC6AA9 
 328      39D51FC7 
 328      AC4BE8C2 
 328      1E94
 329 0519 92FAB01A 		.ascii	"\222\372\260\032\024B\301e\275\007\373\036\365`/sy\260"
 329      1442C165 
 329      BD07FB1E 
 329      F5602F73 
 329      79B0
 330 052b 9F4C5E88 		.ascii	"\237L^\210\303lR\017\334\306\366\\\205\372+\263?q\""
 330      C36C520F 
 330      DCC6F65C 
 330      85FA2BB3 
 330      3F7122
 331 053e F5DF23F5 		.ascii	"\365\337#\365u\266\344\036\270\006\306/\376(J\020_\325"
 331      75B6E41E 
 331      B806C62F 
 331      FE284A10 
 331      5FD5
 332 0550 B3F0C37C 		.ascii	"\263\360\303|d\341*\027\0137O\324\335)7GE\2270\031\275"
 332      64E12A17 
 332      0B374FD4 
 332      DD293747 
 332      45973019 
 333 0565 F0491393 		.ascii	"\360I\023\223z\341\363?\242Ro\203B\222pBG7\007\020\241"
 333      7AE1F33F 
 333      A2526F83 
 333      42927042 
 333      47370710 
 334 057a EA2614D6 		.ascii	"\352&\024\326P\3350\271\013\241\232\344'\240\332F\372"
 334      50DD30B9 
 334      0BA19AE4 
 334      27A0DA46 
 334      FA
 335 058b BE247C69 		.ascii	"\276$|i\243ZkO\213\347\265\304\363D\346\326\266x\266"
 335      A35A6B4F 
 335      8BE7B5C4 
 335      F344E6D6 
 335      B678B6
 336 059e C4643F67 		.ascii	"\304d?g\217e\333\230\354W\343\331\352\322\004\371\252"
 336      8F65DB98 
 336      EC57E3D9 
 336      EAD204F9 
 336      AA
 337 05af 9F39301F 		.ascii	"\23790\037\226\025\277x\013ml\273h3,&\011\013\354\242"
 337      9615BF78 
 337      0B6D6CBB 
 337      68332C26 
 337      090BECA2 
 338 05c3 D264BCBE 		.ascii	"\322d\274\276\256\246\271\232[g\177\360\2258\243Zn\354"
 338      AEA6B99A 
ARM GAS  /tmp/ccpNBtS9.s 			page 26


 338      5B677FF0 
 338      9538A35A 
 338      6EEC
 339 05d5 67A47370 		.ascii	"g\244sp\213\230\270\317DO\234\020=\311:\206_|E\3725"
 339      8B98B8CF 
 339      444F9C10 
 339      3DC93A86 
 339      5F7C45FA 
 340 05ea 57F77955 		.ascii	"W\367yU\322\351^\355\011\324=\222\237\\\367\026\235"
 340      D2E95EED 
 340      09D43D92 
 340      9F5CF716 
 340      9D
 341 05fb A8EBD87D 		.ascii	"\250\353\330}\356\020f)VG\026#~\361\341\236\246\326"
 341      EE106629 
 341      56471623 
 341      7EF1E19E 
 341      A6D6
 342 060d 63867447 		.ascii	"c\206tG\\'HF+ \371\305\307\343k3\346\376n\364\346\274"
 342      5C274846 
 342      2B20F9C5 
 342      C7E36B33 
 342      E6FE6EF4 
 343 0623 1E84D01A 		.ascii	"\036\204\320\032)\035J/\266kuXC\020\255\310\214\210"
 343      291D4A2F 
 343      B66B7558 
 343      4310ADC8 
 343      8C88
 344 0635 5A29DD84 		.ascii	"Z)\335\204\317\016\277I0q\026\025\241%\360Q\314[?\272"
 344      CF0EBF49 
 344      30711615 
 344      A125F051 
 344      CC5B3FBA 
 345 0649 C9486006 		.ascii	"\311H`\006\355\324\034[\230\370M\214\343\346\323g\233"
 345      EDD41C5B 
 345      98F84D8C 
 345      E3E6D367 
 345      9B
 346 065a 33AB41A8 		.ascii	"3\253A\250~q\276D\014\316M{R\203\243\305!,\325\351\033"
 346      7E71BE44 
 346      0CCE4D7B 
 346      5283A3C5 
 346      212CD5E9 
 347 066f 7CFD3E6C 		.ascii	"|\375>l\360\272\344\015\376\\ut\303\276\005\361iI5\317"
 347      F0BAE40D 
 347      FE5C7574 
 347      C3BE05F1 
 347      694935CF 
 348 0683 B4A4E142 		.ascii	"\264\244\341BS\2577e\271+\307D\306/.\226~\31591Y\343"
 348      53AF3765 
 348      B92BC744 
 348      C62F2E96 
 348      7ECD3931 
 349 0699 D0F2CE3F 		.ascii	"\320\362\316?Oj\271\030\255\025\251\030\227I\304\244"
 349      4F6AB918 
 349      AD15A918 
 349      9749C4A4 
ARM GAS  /tmp/ccpNBtS9.s 			page 27


 350 06a9 5CD241A5 		.ascii	"\\\322A\2452S\262x\273$\\\303J\353RS\244\347\252\233"
 350      3253B278 
 350      BB245CC3 
 350      4AEB5253 
 350      A4E7AA9B 
 351 06bd 4F9D6DBE 		.ascii	"O\235m\276_\231X\275\206\\\334\262\014\350\321\264\354"
 351      5F9958BD 
 351      865CDCB2 
 351      0CE8D1B4 
 351      EC
 352 06ce E67DE88A 		.ascii	"\346}\350\212S\260IN\0160\263\331+\200me\301^\261\014"
 352      53B0494E 
 352      0E30B3D9 
 352      2B806D65 
 352      C15EB10C 
 353 06e2 A6A56C3B 		.ascii	"\246\245l;\0136\203\007\314l\376\010`M,X\255e0\226\262"
 353      0B368307 
 353      CC6CFE08 
 353      604D2C58 
 353      AD653096 
 354 06f7 09D1D3FB 		.ascii	"\011\321\323\373\366\212rM\306\355B\215,O\220\353\235"
 354      F68A724D 
 354      C6ED428D 
 354      2C4F90EB 
 354      9D
 355 0708 669A2708 		.ascii	"f\232'\010x\213\234\360\026\230\256H\267k\273\346\221"
 355      788B9CF0 
 355      1698AE48 
 355      B76BBBE6 
 355      91
 356 0719 299D49D7 		.ascii	")\235I\327$\371\311m\361Q\245k\202o\210\314\315G\346"
 356      24F9C96D 
 356      F151A56B 
 356      826F88CC 
 356      CD47E6
 357 072c 48D9544C 		.ascii	"H\331TL\225\034=\271/]~)C\035\227\036]\221\200\360\315"
 357      951C3DB9 
 357      2F5D7E29 
 357      431D971E 
 357      5D9180F0 
 358 0741 7A9BF2C9 		.ascii	"z\233\362\311>\311C\263\223\323}|\337\202^r\375\016"
 358      3EC943B3 
 358      93D37D7C 
 358      DF825E72 
 358      FD0E
 359 0753 917FFDA7 		.ascii	"\221\177\375\247\341\302\345]\342D\354\301\333\220\325"
 359      E1C2E55D 
 359      E244ECC1 
 359      DB90D5
 360 0762 854E4363 		.ascii	"\205NCc\300\001\325r\361\362L\305\030D\021\352u\247"
 360      C001D572 
 360      F1F24CC5 
 360      184411EA 
 360      75A7
 361 0774 DE18585D 		.ascii	"\336\030X]L\262t\263$\254\305\0127K\374+O\032\361\201"
 361      4CB274B3 
 361      24ACC50A 
ARM GAS  /tmp/ccpNBtS9.s 			page 28


 361      374BFC2B 
 361      4F1AF181 
 362 0788 21F8FA01 		.ascii	"!\370\372\001e\345\211\012\243\3012`W]\303H\302\226"
 362      65E5890A 
 362      A3C13260 
 362      575DC348 
 362      C296
 363 079a 54758761 		.ascii	"Tu\207a\235r\355\0277H8]\225\356e+\330\306\323\363\314"
 363      9D72ED17 
 363      3748385D 
 363      95EE652B 
 363      D8C6D3F3 
 364 07af 165BA01B 		.ascii	"\026[\240\033_f\273\361\373\226\301<\032\260+,\330n"
 364      5F66BBF1 
 364      FB96C13C 
 364      1AB02B2C 
 364      D86E
 365 07c1 1E308F39 		.ascii	"\0360\2179e\337\263`\037Z\006\323R\366#"
 365      65DFB360 
 365      1F5A06D3 
 365      52F623
 366 07d0 0B768807 		.ascii	"\013v\210\007\314h\261\305\350\303:\002~q\021\216\273"
 366      CC68B1C5 
 366      E8C33A02 
 366      7E71118E 
 366      BB
 367 07e1 F5D8522B 		.ascii	"\365\330R+1^\205\361[\030\257\301x-\306\3531n\304x/"
 367      315E85F1 
 367      5B18AFC1 
 367      782DC6EB 
 367      316EC478 
 368 07f6 C61F627C 		.ascii	"\306\037b|\200m\337\004^\333\325\232>\304\244\315C\257"
 368      806DDF04 
 368      5EDBD59A 
 368      3EC4A4CD 
 368      43AF
 369 0808 EDA8AEB3 		.ascii	"\355\250\256\263\351\274\266\371&\254\022\352\017'\360"
 369      E9BCB6F9 
 369      26AC12EA 
 369      0F27F0
 370 0817 DA0EEBBD 		.ascii	"\332\016\353\275\266f\247U\257\215i\006\364\331\277"
 370      B666A755 
 370      AF8D6906 
 370      F4D9BF
 371 0826 FF58ACAE 		.ascii	"\377X\254\256\226W\364S;\331WzD\213\313\273\307\346"
 371      9657F453 
 371      3BD9577A 
 371      448BCBBB 
 371      C7E6
 372 0838 67343DA9 		.ascii	"g4=\251\202]\262\014\246\357\261j;N\303v\234\216-2\027"
 372      825DB20C 
 372      A6EFB16A 
 372      3B4EC376 
 372      9C8E2D32 
 373 084d E38F30FE 		.ascii	"\343\2170\376X\333\373Z:\0309\352\3563x\361y\201\220"
 373      58DBFB5A 
 373      3A1839EA 
ARM GAS  /tmp/ccpNBtS9.s 			page 29


 373      EE3378F1 
 373      798190
 374 0860 1CD1AC91 		.ascii	"\034\321\254\221\246H\261\325\001I\270\341\324M\234"
 374      A648B1D5 
 374      0149B8E1 
 374      D44D9C
 375 086f AC3542B4 		.ascii	"\2545B\264\356\024\364\205d~s\275]E\312\216\351\\\363"
 375      EE14F485 
 375      647E73BD 
 375      5D45CA8E 
 375      E95CF3
 376 0882 ACB668AF 		.ascii	"\254\266h\257\315\340\202\372\305\317\320o\336\342J"
 376      CDE082FA 
 376      C5CFD06F 
 376      DEE24A
 377 0891 EA376B71 		.ascii	"\3527kq$a'\0269\255\033\347\232\267\335j\276{\016\""
 377      24612716 
 377      39AD1BE7 
 377      9AB7DD6A 
 377      BE7B0E22 
 378 08a5 9FE61AEB 		.ascii	"\237\346\032\353n\030-7P\262\314dxV\257\314\325n\225"
 378      6E182D37 
 378      50B2CC64 
 378      7856AFCC 
 378      D56E95
 379 08b8 94D4A620 		.ascii	"\224\324\246 \267v\241M9\213=\360%\313`\332F\231\261"
 379      B776A14D 
 379      398B3DF0 
 379      25CB60DA 
 379      4699B1
 380 08cb 7B81C56D 		.ascii	"{\201\305m\212#\213\317\367\336\206\"\373\032\225\377"
 380      8A238BCF 
 380      F7DE8622 
 380      FB1A95FF 
 381 08db 53B75E17 		.ascii	"S\267^\027\211\373\242\321E\036\177\372\014\017#\246"
 381      89FBA2D1 
 381      451E7FFA 
 381      0C0F23A6 
 382 08eb 1D92B464 		.ascii	"\035\222\264dS\237M\353d\371E\247\352\361\230\272j\222"
 382      539F4DEB 
 382      64F945A7 
 382      EAF198BA 
 382      6A92
 383 08fd 701E2BBB 		.ascii	"p\036+\273\244\327\206#\313\017\335O\265\341\022\227"
 383      A4D78623 
 383      CB0FDD4F 
 383      B5E11297 
 384 090d 366CD857 		.ascii	"6l\330W\3135\031\254w\252\325\027c\365\253\322H\365"
 384      CB3519AC 
 384      77AAD517 
 384      63F5ABD2 
 384      48F5
 385 091f 57F4D59F 		.ascii	"W\364\325\237^u\376aZ\375\025\256\352O\037\234i\244"
 385      5E75FE61 
 385      5AFD15AE 
 385      EA4F1F9C 
 385      69A4
ARM GAS  /tmp/ccpNBtS9.s 			page 30


 386 0931 8C26F375 		.ascii	"\214&\363u\265\371\226\267\334\267\010+\371\021\025"
 386      B5F996B7 
 386      DCB7082B 
 386      F91115
 387 0940 E887347D 		.ascii	"\350\2074}\363=\222\316\326\205\3375\372{+F}J\372\013"
 387      F33D92CE 
 387      D685DF35 
 387      FA7B2B46 
 387      7D4AFA0B 
 388 0954 6CEE7864 		.ascii	"l\356xd%\266\224J\303\304NV\021\265J|\345 \366\010\012"
 388      25B6944A 
 388      C3C44E56 
 388      11B54A7C 
 388      E520F608 
 389 0969 3699072C 		.ascii	"6\231\007,\201e\377\236\005{\3112\230\226\262\037Y\260"
 389      8165FF9E 
 389      057BC932 
 389      9896B21F 
 389      59B0
 390 097b A93C6009 		.ascii	"\251<`\011\266\316\256\261`5\226\301\264\224\265\261"
 390      B6CEAEB1 
 390      603596C1 
 390      B494B5B1 
 391 098b 60B379C0 		.ascii	"`\263y\300\022l\235\375\304\202\315\263\014\246\245"
 391      126C9DFD 
 391      C482CDB3 
 391      0CA6A5
 392 099a EC160B56 		.ascii	"\354\026\013V\307\003\3461\247l\332a\006l\261e0-e5,"
 392      C703E631 
 392      A76CDA61 
 392      066CB165 
 392      302D6535 
 393 09af D8EB3C60 		.ascii	"\330\353<`\011\266\316f\262`oX\006\323R6\233\005[\315"
 393      09B6CE66 
 393      B2606F58 
 393      06D35236 
 393      9B055BCD 
 394 09c3 0366B481 		.ascii	"\003f\264\201\245\356\252\262`\353,\203i)\233\307\202"
 394      A5EEAAB2 
 394      60EB2C83 
 394      69299BC7 
 394      82
 395 09d4 BDCB03F6 		.ascii	"\275\313\003\366\2209e\013X\260\315\226\301\264\224"
 395      9039650B 
 395      58B0CD96 
 395      C1B494
 396 09e3 BDCD826D 		.ascii	"\275\315\202m\347\001{\324\234\262u,\330\016\313`Z\312"
 396      E7017BD4 
 396      9CB2752C 
 396      D80ECB60 
 396      5ACA
 397 09f5 DE61C176 		.ascii	"\336a\301v\362\200\0153\247\354]\026l\267e0-e\033Y\260"
 397      F2800D33 
 397      A7EC5D16 
 397      6CB76530 
 397      2D651B59 
 398 0a0a BD3C60F9 		.ascii	"\275<`\371\346\224mf\301\366[\006\323R\266\225\005k"
ARM GAS  /tmp/ccpNBtS9.s 			page 31


 398      E6946D66 
 398      C1F65B06 
 398      D352B695 
 398      056B
 399 0a1c E201FB8B 		.ascii	"\342\001\373\2139e\333Y\260\217,\203i)kb\301\216\361"
 399      3965DB59 
 399      B08F2C83 
 399      69296B62 
 399      C18EF1
 400 0a2f 803D6940 		.ascii	"\200=i@Y\354c\346g\266\260\276\372\211N\252\203cq\214"
 400      59EC63E6 
 400      67B6B0BE 
 400      FA894EAA 
 400      8363718C 
 401 0a43 16E218A7 		.ascii	"\026\342\030\247;Y\365\3104|\023\337\272\317fe\234\247"
 401      3B59F5C8 
 401      347C13DF 
 401      BACF6665 
 401      9CA7
 402 0a55 CEEA391E 		.ascii	"\316\3529\036\304\004\003\240rB\203\202]\262\014\246"
 402      C40403A0 
 402      72428382 
 402      5DB20CA6 
 403 0a65 53E5DDFA 		.ascii	"S\345\335\372\351H\354\030\\\324t\337\314/.\305\355"
 403      E948EC18 
 403      5CD474DF 
 403      CC2F2EC5 
 403      ED
 404 0a76 A525BA73 		.ascii	"\245%\272sm\246\307>;4\323Z\033\323L?\360\360\220`\334"
 404      6DA6C73E 
 404      3B34D35A 
 404      1BD34C3F 
 404      F0F09060 
 405 0a8b 3DBD7B01 		.ascii	"=\275{\001n\035\362\037\340;\262\370\220\342\2757\330"
 405      6E1DF21F 
 405      E03BB2F8 
 405      90E2BD37 
 405      D8
 406 0a9c 88F7FE53 		.ascii	"\210\367\376S'\303\2257\016\244\206\013M\015\312\"\336"
 406      27C39537 
 406      0EA4860B 
 406      4D0DCA22 
 406      DE
 407 0aad 46849A94 		.ascii	"F\204\232\224\236*T\313\305\346je\021o\013B\275\242"
 407      9E2A54CB 
 407      C5E66A65 
 407      116F0B42 
 407      BDA2
 408 0abf 83B27CAE 		.ascii	"\203\262|\256\360\037u\257$\324\246\353\232\314h\373"
 408      F01F75AF 
 408      24D4A6EB 
 408      9ACC68FB 
 409 0acf D0DCBB81 		.ascii	"\320\334\273\201^q\254\357\246\325\262\\\355\264\322"
 409      5E71ACEF 
 409      A6D5B25C 
 409      EDB4D2
 410 0ade 687B9446 		.ascii	"h{\224F\213\242x\026u\020\317F\375\"gR>\226[\346\343"
ARM GAS  /tmp/ccpNBtS9.s 			page 32


 410      8BA27816 
 410      7510CF46 
 410      FD226752 
 410      3E965BE6 
 411 0af3 3E1D1FD1 		.ascii	">\035\037\321\373\254\363q\\\341\343\003\344c\315\337"
 411      FBACF371 
 411      5CE1E303 
 411      E463CDDF 
 412 0b03 818F0D96 		.ascii	"\201\217\015\226\371`\017\376\341\274\361\001:o\344"
 412      F9600FFE 
 412      E1BCF101 
 412      3A6FE4
 413 0b12 5AE2DF6B 		.ascii	"Z\342\337k\323-\361\037\337+zhv\262\011\233\034\275"
 413      D32DF11F 
 413      DF2B7A68 
 413      76B2099B 
 413      1CBD
 414 0b24 BA97996C 		.ascii	"\272\227\231l\313|\223\355\026Eb\373Qb\333\215\372\030"
 414      CB7C93ED 
 414      164562FB 
 414      5162DB8D 
 414      FA18
 415 0b36 1752C385 		.ascii	"\027R\303\205\306^\253\020\251\011\221v\246\214\324"
 415      C65EAB10 
 415      A9099176 
 415      A68CD4
 416 0b45 72F1DA64 		.ascii	"r\361\332d\245\267\036A\250\017;4\243S\327\212Nm+\302"
 416      A5B71E41 
 416      A80F3B34 
 416      A353D78A 
 416      4E6D2BC2 
 417 0b59 5752D735 		.ascii	"WR\32752\371\027\377\252\344\220/.\341\177\275\234$"
 417      32F917FF 
 417      AAE4902F 
 417      2EE17FBD 
 417      9C24
 418 0b6b 7C8CE493 		.ascii	"|\214\344\223\026\2648V\3065\3507\233\224q\216\266\322"
 418      16B43856 
 418      C635E837 
 418      9B94718E 
 418      B6D2
 419 0b7d C99F8538 		.ascii	"\311\237\20581\272~\312Be'\350\0212\322}\3713\341\016"
 419      31BA7ECA 
 419      426527E8 
 419      1132D27D 
 419      F933E10E 
 420 0b91 EDB3BEC6 		.ascii	"\355\263\276\306\263\343.\252v\237!C\227:\264pJk<\327"
 420      B3E32EAA 
 420      769F2143 
 420      973AB470 
 420      4A6B3CD7 
 421 0ba5 536524F6 		.ascii	"Se$\366\221\0049\203c\310\364$j\255k\017p\256\023\305"
 421      91043983 
 421      63C8F424 
 421      6AAD6B0F 
 421      70AE13C5 
 422 0bb9 561FBFEE 		.ascii	"V\037\277\356\325\210\3028c#\253\217\317e\030\256>&"
ARM GAS  /tmp/ccpNBtS9.s 			page 33


 422      D588C238 
 422      6323AB8F 
 422      CF6518AE 
 422      3E26
 423 0bcb 5A6F9A81 		.ascii	"Zo\232\201E\316\331:\254>6\365\246\013>\344'\216\365"
 423      45CED93A 
 423      AC3E36F5 
 423      A60B3EE4 
 423      278EF5
 424 0bde A6C9AA5E 		.ascii	"\246\311\252^\320E\305/$I\201MU\236\232&\214\323\347"
 424      D045C52F 
 424      2449814D 
 424      559E9A26 
 424      8CD3E7
 425 0bf1 17BFB211 		.ascii	"\027\277\262\0217\347k\233f\331y\211e\331{X\331Go\354"
 425      37E76B9B 
 425      66D97989 
 425      65D97B58 
 425      D9476FEC 
 426 0c05 5B2012FA 		.ascii	"[ \022\372\015\226\310\036e\035\312\230\340\233{\357"
 426      0D96C81E 
 426      651DCA98 
 426      E09B7BEF 
 427 0c15 41F15C44 		.ascii	"A\361\\D\301\277e\"\370G\315p$a\033\026\371\266\243"
 427      C1BF6522 
 427      F847CD70 
 427      24611B16 
 427      F9B6A3
 428 0c28 E01BEFA2 		.ascii	"\340\033\357\242\202\377\226K\360G\015\005\377\255u"
 428      82FF964B 
 428      F0470D05 
 428      FFAD75
 429 0c37 C1C70EDF 		.ascii	"\301\307\016\337\307\034Y\277\370\245e0O\242V\374\226"
 429      C71C59BF 
 429      F8A56530 
 429      4FA256FC 
 429      96
 430 0c48 69C5CBD8 		.ascii	"i\305\313\330\212-6\262\340\177E\333\226\007\364m\251"
 430      8A2D36B2 
 430      E07F45DB 
 430      9607F46D 
 430      A9
 431 0c59 919C9234 		.ascii	"\221\234\2224]\276\220\2433\016\250\273\325\324\346"
 431      5DBE90A3 
 431      330EA8BB 
 431      D5D4E6
 432 0c68 1DE7D18D 		.ascii	"\035\347\321\215\004\213\016u\007P$\324\336\234\266"
 432      048B0E75 
 432      075024D4 
 432      DE9CB6
 433 0c77 0CE6D180 		.ascii	"\014\346\321\200m\233\312y*0v\362\262+\012\345\002\326"
 433      6D9BCA79 
 433      2A3076F2 
 433      B22B0AE5 
 433      02D6
 434 0c89 DBA65797 		.ascii	"\333\246W\227C_\035z^\234\200#^\033\207\276\300@\177"
 434      435F1D7A 
ARM GAS  /tmp/ccpNBtS9.s 			page 34


 434      5E9C8023 
 434      5E1B87BE 
 434      C0407F
 435 0c9c 2E4DAEC9 		.ascii	".M\256\311P\365v\351m*j\002Q'\320\226\033\347\367\210"
 435      50F576E9 
 435      6D2A6A02 
 435      5127D096 
 435      1BE7F788 
 436 0cb0 0847273E 		.ascii	"\010G'>o\352\341\222\316\313\264p\267\002\306G\327\314"
 436      6FEAE192 
 436      CECBB470 
 436      B702C647 
 436      D7CC
 437 0cc2 05A31E5C 		.ascii	"\005\243\036\\\333D\\\235j;\341\351\235\333\364#\002"
 437      DB445C9D 
 437      6A3BE1E9 
 437      9DDBF423 
 437      02
 438 0cd3 950CA388 		.ascii	"\225\014\243\210m\214\"\376\204\212x\023\025\261\035"
 438      6D8C22FE 
 438      848A7813 
 438      15B11D
 439 0ce2 E309768E 		.ascii	"\343\011v\216\375\247\211vf\262\264\3252\337\036]\353"
 439      FDA78976 
 439      66B2B4D5 
 439      32DF1E5D 
 439      EB
 440 0cf3 9855739D 		.ascii	"\230Us\235\235\223\375\3556\016\3353_\243\"F\375\017"
 440      9D93FDED 
 440      360EDD33 
 440      5FA32246 
 440      FD0F
 441 0d05 AA3B4077 		.ascii	"\252;@wH\366[F\324js\313T\215;p\214\007\356Q\003\002"
 441      48F65B46 
 441      D46A73CB 
 441      548D3B70 
 441      8C07EE51 
 442 0d1b 8D3EEC9E 		.ascii	"\215>\354\236\230_\374\034\267\037\317\340\006\3419"
 442      985FFC1C 
 442      B71FCFE0 
 442      06E139
 443 0d2a 8CBFC2F8 		.ascii	"\214\277\302\370\033\214\337\304\206[\215\361\333\030"
 443      1B8CDFC4 
 443      865B8DF1 
 443      DB18
 444 0d38 BF83F17B 		.ascii	"\277\203\361{\030\357\304x\017\306\237c|\001\343\357"
 444      18EFC478 
 444      0FC69F63 
 444      7C01E3EF 
 445 0d48 31FE11E3 		.ascii	"1\376\021\343k\030\277`'\361K\311\024@\031\005\246\177"
 445      6B18BF60 
 445      27F14BC9 
 445      14401905 
 445      A67F
 446 0d5a 77BCCF9B 		.ascii	"w\274\317\233h\253O\240\372\317\351\254\327\274\263"
 446      68AB4FA0 
 446      FACFE9AC 
ARM GAS  /tmp/ccpNBtS9.s 			page 35


 446      D7BCB3
 447 0d69 926EC7A2 		.ascii	"\222n\307\242\303\226\333\252\316\034[\227\0116\227"
 447      C396DBAA 
 447      CE1C5B97 
 447      093697
 448 0d78 5A3F3EF0 		.ascii	"Z?>\360\2118C\226\033\373Q\375\367\2137l\222\026Q\333"
 448      89384396 
 448      1BFB51FD 
 448      F78B376C 
 448      921651DB 
 449 0d8c 631268A3 		.ascii	"c\022h\243\322\250'\353\026\361\355\035\305\016\000"
 449      D2A827EB 
 449      16F1ED1D 
 449      C50E00
 450 0d9b FE2A2E93 		.ascii	"\376*.\223\243\255\307\377\233z\3405\330\033\277\325"
 450      A3ADC7FF 
 450      9B7AE035 
 450      D81BBFD5 
 451 0dab C924290E 		.ascii	"\311$)\016\221\322,\273\356\320O\313)<HH\362\223\037"
 451      91D22CBB 
 451      EED04FCB 
 451      293C4848 
 451      F2931F
 452 0dbe 24FCE1D4 		.ascii	"$\374\341\324LE)\351\341\2066$\201\224MaH$'%N1'%nY\006"
 452      4C4529E9 
 452      E1863624 
 452      81944D61 
 452      48242725 
 453 0dd9 F368C0AE 		.ascii	"\363h\300\256\261`\023\273p\200%8\013\327\306\202M\262"
 453      B16013BB 
 453      70802538 
 453      0BD7C682 
 453      4DB2
 454 0deb 0CA6A5EC 		.ascii	"\014\246\245\354'\026\354\005\036\260\004g\341n\261"
 454      2716EC05 
 454      1EB00467 
 454      E16EB1
 455 0dfa 60532D83 		.ascii	"`S-\203i)\233v\232\001\233\305\003\226\340xO\015\013"
 455      69299B76 
 455      9A019BC5 
 455      0396E078 
 455      4F0D0B
 456 0e0d B6C03298 		.ascii	"\266\3002\230\226\262\231,\330R\0360\217\001eF\037\266"
 456      96B2992C 
 456      D8521E30 
 456      8F016546 
 456      1FB6
 457 0e1f 13F8C5D9 		.ascii	"\023\370\305\331vb\375j\321:\315\305x>\306\0131^\204"
 457      7662FD6A 
 457      D13ACDC5 
 457      783EC60B 
 457      315E84
 458 0e32 F16B182F 		.ascii	"\361k\030/\301x\031\306\313y\006\262\351\354@\366F\027"
 458      C17819C6 
 458      CB7906B2 
 458      E9EC40F6 
 458      4617
ARM GAS  /tmp/ccpNBtS9.s 			page 36


 459 0e44 0E6B9460 		.ascii	"\016k\224`\011\251u\366\311\237u\002\275y\333\215=\377"
 459      09A975F6 
 459      C99F7502 
 459      BD79DB8D 
 459      3DFF
 460 0e56 4ACC47F2 		.ascii	"J\314G\362S\350o\331\371N\241\257\321\333\222\037\016"
 460      53E86FD9 
 460      F94EA1AF 
 460      D1DB921F 
 460      0E
 461 0e67 A02D5993 		.ascii	"\240-Y\223\334\226\200-\274\312\351\256EEV:1[\270\347"
 461      DC96802D 
 461      BCCAE9AE 
 461      4545563A 
 461      315BB8E7 
 462 0e7b 616A0BD7 		.ascii	"aj\013\327\243-\374\241KR[\250\305!\364\275\253\247"
 462      A32DFCA1 
 462      4B525BA8 
 462      C521F4BD 
 462      ABA7
 463 0e8d 7FFD41A4 		.ascii	"\177\375A\244\377].[\270\341\240\326\026\276\320UT0"
 463      FF5D2E5B 
 463      B8E1A0D6 
 463      16BED055 
 463      5430
 464 0e9f 53B3851B 		.ascii	"S\263\205\033\0172\012?\3052\230G\003\266\231\005\233"
 464      0F320A3F 
 464      C5329847 
 464      03B69905 
 464      9B
 465 0eb0 C60396E8 		.ascii	"\306\003\226\350\\0\0136\3232\230\226\262\355,\330\\"
 465      5C300B36 
 465      D3329896 
 465      B2ED2CD8 
 465      5C
 466 0ec1 1EB044E7 		.ascii	"\036\260D\347\202Y\260:\313`\036\243\346\025:h\207_"
 466      8259B03A 
 466      CB601EA3 
 466      E6153A68 
 466      875F
 467 0ed3 DC804662 		.ascii	"\334\200Fb#v\375\315\030o\305x;\306Q\214\337\3471\011"
 467      2376FDCD 
 467      186FC578 
 467      3BC6518C 
 467      DFE73109 
 468 0ee7 EB5893B0 		.ascii	"\353X\223\260\030\011^\223\232\306\020\247\363\306\347"
 468      18095E93 
 468      9AC610A7 
 468      F3C6E7
 469 0ef6 FF42F75A 		.ascii	"\377B\367Zt\207A\210<\314(\330\305R\260\3222\005\036"
 469      74874188 
 469      3CCC28D8 
 469      C552B0D2 
 469      32051E
 470 0f09 9682E88D 		.ascii	"\226\202\350\215\003t+B\335\015X\255\3073Z\227M4K9\200"
 470      03742B42 
 470      DD0D58AD 
ARM GAS  /tmp/ccpNBtS9.s 			page 37


 470      C7335A97 
 470      4D344B39 
 471 0f1e CFA753B0 		.ascii	"\317\247S\260\006\313`\332g\372\247\035d\300\336\263"
 471      06CB60DA 
 471      67FAA71D 
 471      64C0DEB3 
 472 0f2e 0C66765A 		.ascii	"\014fvZ\357m\324\205\265\330\346\037`\334\210\361^\214"
 472      EF6DD485 
 472      B5D8E61F 
 472      60DC88F1 
 472      5E8C
 473 0f40 3F64B540 		.ascii	"?d\265@\022vu\325\373\255\32482\250q+*\360\342\232\265"
 473      127675D5 
 473      FBADD438 
 473      32A8712B 
 473      2AF0E29A 
 474 0f55 ED2AB66D 		.ascii	"\355*\266m\217w\345\030p<\346\332\325:\373\2642\340"
 474      8F77E518 
 474      703CE6DA 
 474      D53AFBB4 
 474      32E0
 475 0f67 506098A0 		.ascii	"P`\230\240[F\324j\313\254\323u\232\263\356\347x\360"
 475      5B46D46A 
 475      CBACD375 
 475      9AB3EEE7 
 475      78F0
 476 0f79 121CA658 		.ascii	"\022\034\246X@]\004\012\366\235e0\217`\372a\237\356"
 476      405D040A 
 476      F69D6530 
 476      8F60FA61 
 476      9FEE
 477 0f8b 83090CEE 		.ascii	"\203\011\014\356\376]\307\007l_\302I\321\247\030\277"
 477      FE5DC707 
 477      6C5FC249 
 477      D1A718BF 
 478 0f9b 8A2D330D 		.ascii	"\212-3\015\343"
 478      E3
 479 0fa0 37306EC2 		.ascii	"70n\302\3700\306\037\361\264X\253\310\264\330ud\341"
 479      F830C61F 
 479      F1B458AB 
 479      C8B4D875 
 479      64E1
 480 0fb2 B285B396 		.ascii	"\262\205\263\226\332\026k9\374\311kj\213M\301i\323-"
 480      DA166B39 
 480      FCC96B6A 
 480      8B4DC169 
 480      D32D
 481 0fc4 CB88DA16 		.ascii	"\313\210\332\026\373\221.YQ\260\347\272q\200\031unc"
 481      FB912E59 
 481      51B0E7BA 
 481      71801975 
 481      6E63
 482 0fd6 095F6624 		.ascii	"\011_f$\334\202\022\276B\037mF\351\035\347\221\3367"
 482      DC8212BE 
 482      421F6D46 
 482      E91DE791 
 482      DE37
ARM GAS  /tmp/ccpNBtS9.s 			page 38


 483 0fe8 71E9F12F 		.ascii	"q\351\361/s\237>{\354\217o\320\251%>\233\370R\267\277"
 483      739F3E7B 
 483      EC8F6FD0 
 483      A9253E9B 
 483      F852B7BF 
 484 0ffc C332B75B 		.ascii	"\3032\267["
 485 1000 789E3E7D 		.ascii	"x\236>})O\020\237f\354\021cc\330W\016\235\262\273\311"
 485      294F109F 
 485      66EC1163 
 485      63D8570E 
 485      9DB2BBC9 
 486 1014 027137ED 		.ascii	"\002q7\355F$S#\271A\345\234\246\325\024\024\351+\324"
 486      46245323 
 486      B941E59C 
 486      A6D51414 
 486      E92BD4
 487 1027 C9D1CBCD 		.ascii	"\311\321\313\315\255o\\\350\265\212\230\177\371V\373"
 487      AD6F5CE8 
 487      B58A987F 
 487      F956FB
 488 1036 5F274C14 		.ascii	"_'L\024uO\360\331\315\307\2003v\315\023|\206\016e\262"
 488      754FF0D9 
 488      CDC78033 
 488      76CD137C 
 488      860E65B2 
 489 104a 05F22DAB 		.ascii	"\005\362-\253\257\364\246\036\3309\364\300&u\267\270"
 489      AFF4A61E 
 489      D839F4C0 
 489      2675B7B8 
 490 105a 408ECF5A 		.ascii	"@\216\317Z\353=\260\006\372\030\360\327\\\036\344\246"
 490      EB3DB006 
 490      FA18F0D7 
 490      5C1EE4A6 
 491 106a 5D6F9A7A 		.ascii	"]o\232z\220:\207X\277\3467\017\250M\272\002\346\027"
 491      903A8758 
 491      BFE6370F 
 491      A84DBA02 
 491      E617
 492 107c 2FD97195 		.ascii	"/\331q\225VO\345\214\311H\345\267\\T\316\332\205\013"
 492      564FE58C 
 492      C948E5B7 
 492      5C54CEDA 
 492      850B
 493 108e 79E60F5B 		.ascii	"y\346\017[\362\253\356\321\365g\376\260\006U\267\025"
 493      F2ABEED1 
 493      F567FEB0 
 493      0655B715 
 494 109e 55F75C77 		.ascii	"U\367\\w\275\352:t\232\353\320j\256#-\236P4\327\254"
 494      BDEA3A74 
 494      9AEBD06A 
 494      AE232D9E 
 494      5034D7AC 
 495 10b2 69AED875 		.ascii	"i\256\330uOy>\222n\250/\\\347'6\341J`\222m]3J\256\331"
 495      4F793E92 
 495      6EA82F5C 
 495      E72736E1 
 495      4A60926D 
ARM GAS  /tmp/ccpNBtS9.s 			page 39


 496 10cb D9959EF8 		.ascii	"\331\225\236\370S\247\370\020\262\220\364\301S<&\303"
 496      53A7F810 
 496      B290F4C1 
 496      533C26C3 
 497 10db 0E8CDFA0 		.ascii	"\016\214\337\240\324\276M\331\355\332\262\372p\257\216"
 497      D4BE4DD9 
 497      EDDAB2FA 
 497      70AF8E
 498 10ea 13315DEF 		.ascii	"\0231]\357kM\320\375nq\212\226\372.f(\023\034?[,7Y\261"
 498      6B4DD0FD 
 498      6E718A96 
 498      FA2E6628 
 498      131C3F5B 
 499 1102 5CB12C16 		.ascii	"\\\261,\026\017+\026\031,Q\2323\221H\366'`f\262\303"
 499      0F2B1619 
 499      2C519A33 
 499      9148F627 
 499      6066B2C3 
 500 1116 5424B1F3 		.ascii	"T$\261\363\001\\,Mr0,]\345a\311\334\035\375y,\275l\300"
 500      015C2C4D 
 500      72302C5D 
 500      E561C9DC 
 500      1DFD792C 
 501 112d 12170B53 		.ascii	"\022\027\013S\034\272\205\314\033\226\331\360\010\332"
 501      1CBA85CC 
 501      1B96D9F0 
 501      08DA
 502 113b 4FDCBFBC 		.ascii	"O\334\277\274\214\243\353O\030?\347@\217\306\3011\322"
 502      8CA3EB4F 
 502      183FE740 
 502      8FC6C131 
 502      D2
 503 114c 5E6435A5 		.ascii	"^d5\245\035\351\371\332z\0072\372\260\203\200_<\217"
 503      1DE9F9DA 
 503      7A0732FA 
 503      B083805F 
 503      3C8F
 504 115e CEF5059E 		.ascii	"\316\365\005\236\301\377\2138I1\0213\347\254(\251\325"
 504      C1FF8B38 
 504      49311133 
 504      E7AC28A9 
 504      D5
 505 116f B76B2DE4 		.ascii	"\267k-\344\257\204%\262\\\203C\347\005\322\272\024F"
 505      AF8425B2 
 505      5C8343E7 
 505      05D2BA14 
 505      46
 506 1180 125EC6FB 		.ascii	"\022^\306\373>\267\3675\254N\251\214\026\226k\301)\022"
 506      3EB7F735 
 506      AC4EA98C 
 506      16966BC1 
 506      2912
 507 1192 695D30B7 		.ascii	"i]0\267NRP\241\350\377\010\313\210\336|\362E\3760\345"
 507      4E5250A1 
 507      E8FF08CB 
 507      88DE7CF2 
 507      45FE30E5 
ARM GAS  /tmp/ccpNBtS9.s 			page 40


 508 11a6 ED09E685 		.ascii	"\355\011\346\205\024\376\246;4/\300$\203~\363\345\346"
 508      14FEA63B 
 508      342FC024 
 508      837EF3E5 
 508      E6
 509 11b7 E39B2F94 		.ascii	"\343\233/\224\220'\210\345\366\366\277\352G|\342\036"
 509      902788E5 
 509      F6F6BFEA 
 509      477CE21E 
 510 11c7 98496B8E 		.ascii	"\230Ik\216#\351\220\257Y8\216\275\362\202\274n3\366"
 510      23E990AF 
 510      59388EBD 
 510      F282BC6E 
 510      33F6
 511 11d9 DE8F9D03 		.ascii	"\336\217\235\003\360\015\024\363\035d\304_r\273\341"
 511      F00D14F3 
 511      1D64C45F 
 511      72BBE1
 512 11e8 886F0E83 		.ascii	"\210o\016\203\317\2579tc\351\321\335\364Av\007\317X"
 512      CFAF3974 
 512      63E9D1DD 
 512      F4417607 
 512      CF58
 513 11fa 7AF279F3 		.ascii	"z\362y\363\365s\375\210\257yI\240$\274u\273\361\210"
 513      F573FD88 
 513      AF7949A0 
 513      24BC75BB 
 513      F188
 514 120c AFB90D7C 		.ascii	"\257\271\015|?\007\031\361\227\352\251\\\377<R\271\224"
 514      3F0719F1 
 514      97EAA95C 
 514      FF3C52B9 
 514      94
 515 121d 8BCA86DD 		.ascii	"\213\312\206\335IF\374\304M\265\"U\303\261\234\265}"
 515      4946FCC4 
 515      4DB52255 
 515      C3B19CB5 
 515      7D
 516 122e 9BB17508 		.ascii	"\233\261u\010\301)\215r\324\366QL\230\306Z\006\363\230"
 516      C1298D72 
 516      D4F6514C 
 516      98C65A06 
 516      F398
 517 1240 831DE101 		.ascii	"\203\035\341\001Kf\225U\260\023\226\301\014(K\265\245"
 517      4B669555 
 517      B01396C1 
 517      0C284BB5 
 517      A5
 518 1251 D6271AB5 		.ascii	"\326'\032\265\224YD\354\2732^\353\177\347j\331u\361"
 518      945944EC 
 518      BB325EEB 
 518      7FE76AD9 
 518      75F1
 519 1263 96F58BD5 		.ascii	"\226\365\213\3251\025M\300\262\371\201\332\237\307\362"
 519      31154DC0 
 519      B2F981DA 
 519      9FC7F2
ARM GAS  /tmp/ccpNBtS9.s 			page 41


 520 1272 662B2C2B 		.ascii	"f+,+\236[J,obY\276a\267\312r\002\375\373\222Ge\314\317"
 520      9E5B4A2C 
 520      6F6259BE 
 520      61B7CA72 
 520      02FDFB92 
 521 128a DFFE3CF9 		.ascii	"\337\376<\371\375\315\\~\206F\315\364\230\213b\223\337"
 521      FDCD5C7E 
 521      8646CDF4 
 521      988B6293 
 521      DF
 522 129b 7DEF8A0B 		.ascii	"}\357\212\013m\362n\264\311\257\367\260xZ\006\2177\352"
 522      6DF26EB4 
 522      C9AFF7B0 
 522      785A068F 
 522      37EA
 523 12ad ADDDD580 		.ascii	"\255\335\325\200\207\346&\267u\327\227)\307\024\350"
 523      87E626B7 
 523      75D79729 
 523      C714E8
 524 12bc 2ACCBB58 		.ascii	"*\314\273X\377\336T\255N\264-@\026/(\326{\226\261<F"
 524      FFDE54AD 
 524      4EB42D40 
 524      162F28D6 
 524      7B96B13C 
 525 12d1 84AA3A14 		.ascii	"\204\252:\024\347\322/\356s\0207\343C\364\177\016\360"
 525      E7D22FEE 
 525      731037E3 
 525      43F47F0E 
 525      F0
 526 12e2 F83FBB34 		.ascii	"\370?\2734\3166\227\002\277\317Z\343\335=\254\352\234"
 526      CE369702 
 526      BFCF5AE3 
 526      DD3DACEA 
 526      9C
 527 12f3 9E97B80B 		.ascii	"\236\227\270\013\367:\222\275\012\343\2670^\203\361"
 527      F73A92BD 
 527      0AE3B730 
 527      5E83F1
 528 1302 5A8C3762 		.ascii	"Z\2147b\374\036\306;xX{\215\355h\257\242m\251K\265\375"
 528      FC1EC63B 
 528      78587B8D 
 528      ED68AFA2 
 528      6DA94BB5 
 529 1317 9A5B0E5F 		.ascii	"\232[\016_\355\217/f\345\177\257\025h0}\037\327a\007"
 529      ED8F2F66 
 529      E57FAF15 
 529      68307D1F 
 529      D76107
 530 132a 79AF5593 		.ascii	"y\257U\223N\2039\337ku\324\241{\257\325\246g=47\201"
 530      4E8339DF 
 530      6B75D4A1 
 530      7BAFD5A6 
 530      673D3437 
 531 133f 0E2B2F9F 		.ascii	"\016+/\237:\321\243\343[\255\276\354a\370V\253\357z"
 531      3AD1A3E3 
 531      5BADBEEC 
 531      61F856AB 
ARM GAS  /tmp/ccpNBtS9.s 			page 42


 531      EF7A
 532 1351 18BED5AA 		.ascii	"\030\276\325\252\255\207\341[\255^\354\251}\253\225"
 532      AD87E15B 
 532      AD5EECA9 
 532      7DAB95
 533 1360 923D3F9E 		.ascii	"\222=?\236\355`\262\227\305\263\235L\366\332x\266\213"
 533      ED60B297 
 533      C5B39D4C 
 533      F6DA78B6 
 533      8B
 534 1371 C9DE16CF 		.ascii	"\311\336\026\317v3-\222\360\234{\\H~\361c\354\002\237"
 534      76332D92 
 534      F09C7B5C 
 534      487EF163 
 534      EC029F
 535 1384 388CDF98 		.ascii	"8\214\337\230\345\027_\224t\232`\351U\2632j\302\004"
 535      E5175F94 
 535      749A60E9 
 535      55B3326A 
 535      C204
 536 1396 F2AA1BF5 		.ascii	"\362\252\033\365\375wd>\273$\2761\241]j!5^pX~\377\235"
 536      FD77643E 
 536      BB24BE31 
 536      A15D6A21 
 536      355E7058 
 537 13ad B2DC11A3 		.ascii	"\262\334\021\243FI\304_\354\270\247\247\250\345\"\371"
 537      4649C45F 
 537      ECB8A7A7 
 537      A8E522F9 
 538 13bd 890D56A1 		.ascii	"\211\015V\241\361}$d\344 \264I\302~.\264dC\207j\337"
 538      F17D2464 
 538      E420B449 
 538      C27E2EB4 
 538      6443876A 
 539 13d2 0EE9D18C 		.ascii	"\016\351\321\214\372Z\202\345\357\253\317\233o\240&"
 539      FA5A82E5 
 539      EFABCF9B 
 539      6FA026
 540 13e1 DA0F86A9 		.ascii	"\332\017\206\251$.\267\306\027`q\275\307\352\342\353"
 540      242EB7C6 
 540      176071BD 
 540      C7EAE2EB 
 541 13f1 15D66E1C 		.ascii	"\025\326n\034\327kKR^<\032^\332w\253\033Iti\364S\275"
 541      D76B4B52 
 541      5E3C1A5E 
 541      DA77AB1B 
 541      497469F4 
 542 1407 6C8CB48F 		.ascii	"l\214\264\217\377u\234u\214\355_\204\212_\217\006\362"
 542      FF759C75 
 542      8CED5F84 
 542      8A5F8F06 
 542      F2
 543 1418 10C6E731 		.ascii	"\020\306\3471\276\204\361w\030\267`\374=\217\371\234"
 543      BE84F177 
 543      18B760FC 
 543      3D8FF99C 
 544 1428 C78A8119 		.ascii	"\307\212\201\031\026$\341BO\303\271'\314\340>\026gV"
ARM GAS  /tmp/ccpNBtS9.s 			page 43


 544      1624E142 
 544      4FC3B927 
 544      CCE03E16 
 544      6756
 545 143a CBC36859 		.ascii	"\313\303hYI\270\205\367\325:\314\246\220J\0158\205\234"
 545      49B885F7 
 545      D53ACCA6 
 545      904A0D38 
 545      859C
 546 144c 285F9A34 		.ascii	"(_\2324\251\253\250.\012k\212\351l\"\376\374c\307Id"
 546      A9ABA82E 
 546      0A6B8AE9 
 546      6C22FEFC 
 546      63C74964 
 547 1460 7D73B406 		.ascii	"}s\264\006f\260\023\232\333\333\373\322y!L\223\3570"
 547      66B0139A 
 547      DBDBFBD2 
 547      79214C93 
 547      EF30
 548 1472 22555E14 		.ascii	"\"U^\024P\210\004W\016\007\206\266\324\210lKL\344\015"
 548      50880457 
 548      0E0786B6 
 548      D4886C4B 
 548      4CE40D
 549 1485 432237E0 		.ascii	"C\"7\340\273\224A5\332\037\021:\256\227\312|O+5.S\236"
 549      BB944135 
 549      DA1F113A 
 549      AE97CA7C 
 549      4F2B352E 
 550 149b 56929DB8 		.ascii	"V\222\235\270\337\254\343\223\037\252\345\342\261V\005"
 550      DFACE393 
 550      1FAAE5E2 
 550      B15605
 551 14aa AA1AA1EA 		.ascii	"\252\032\241\352uP~Q\320\255\275\012\332\345N\370*\267"
 551      75507E51 
 551      D0ADBD0A 
 551      DAE54EF8 
 551      2AB7
 552 14bc 2B1FFA3C 		.ascii	"+\037\372<\002\344\374UH\251\214\2312\266[\233\345\033"
 552      02E4FC55 
 552      48A98C99 
 552      32B65B9B 
 552      E51B
 553 14ce 1DF8AC5F 		.ascii	"\035\370\254_\337zE\302\361\370\005'\361(7\336a\350"
 553      DF7A45C2 
 553      F1F80527 
 553      F12837DE 
 553      61E8
 554 14e0 51263A50 		.ascii	"Q&:P\033\305\"S\234\372\231\376\223\036\232\233\334"
 554      1BC52253 
 554      9CFA99FE 
 554      931E9A9B 
 554      DC
 555 14f1 AB3C5EAF 		.ascii	"\253<^\257x\225\254\362\221\242\251y\225\237\026\023"
 555      7895ACF2 
 555      91A2A979 
 555      959F1613 
ARM GAS  /tmp/ccpNBtS9.s 			page 44


 556 1501 AF92ECB5 		.ascii	"\257\222\354\265\301T6F\234E\257R]\202\270\334HI[\215"
 556      C1543646 
 556      9C45AF52 
 556      5D82B8DC 
 556      48495B8D 
 557 1515 70FB78E0 		.ascii	"p\373x\340\022\354x\237\376z#y\031\277j\367\216\350"
 557      12EC789F 
 557      FE7A2379 
 557      19BF6AF7 
 557      8EE8
 558 1527 E1926E53 		.ascii	"\341\222nSk\251\273\374\037s\372\251X\237Y\306\272\317"
 558      6BA9BBFC 
 558      1F73FAA9 
 558      589F59C6 
 558      BACF
 559 1539 A84954D5 		.ascii	"\250IT\325\214\267\247_|\305Il\350T'\356\202b<\035\343"
 559      8CB7A75F 
 559      7CC5496C 
 559      E85427EE 
 559      82623C1D 
 560 154e 1918CF72 		.ascii	"\031\030\317rr\330\315\347\235\035\227\357\346i\246"
 560      72D8CDE7 
 560      9D1D97EF 
 560      E669A6
 561 155d C8490F06 		.ascii	"\310I\017\006\345\250\230\307\230\011\321\334\253\207"
 561      E5A898C7 
 561      9809D1DC 
 561      AB87
 562 156b FBD0A758 		.ascii	"\373\320\247X\346\241\376\316\2733\371\311 -\220_\\"
 562      E6A1FECE 
 562      BB33F9C9 
 562      202D905F 
 562      5C
 563 157c E024FAB6 		.ascii	"\340$\372\266P\257\300\327\351\"\320B.\025\276\271{"
 563      50AFC0D7 
 563      E922D042 
 563      2E15BEB9 
 563      7B
 564 158d 69AA4B55 		.ascii	"i\252KU\313\357\344Z\252Z\214T.\321Sy\204R\271\204\213"
 564      CBEFE45A 
 564      AA5A8C54 
 564      2ED15379 
 564      8452B984 
 565 15a2 CAA3BB95 		.ascii	"\312\243\273\225\216FvH\324y\366\222T;\232\352\337\334"
 565      8E467648 
 565      D479F692 
 565      543B9AEA 
 565      DFDC
 566 15b4 4430BA4E 		.ascii	"D0\272Na\005\314c\0046\011M\300\213<`\311\027\215\350"
 566      6105CC63 
 566      0436094D 
 566      C08B3C60 
 566      C9178DE8 
 567 15c8 DAFA54CB 		.ascii	"\332\372T\313`\006\224\245\272/\260\312\231|\253C\371"
 567      600694A5 
 567      BA2FB0CA 
 567      997CAB43 
ARM GAS  /tmp/ccpNBtS9.s 			page 45


 567      F9
 568 15d9 CEBF3338 		.ascii	"\316\27738\253\255\371uexZ\203\303\323\206;\365\303"
 568      ABADF975 
 568      65785A83 
 568      C3D3863B 
 568      F5C3
 569 15eb 530ABBDA 		.ascii	"S\012\273\332\002\347T\367\015'3\325\335\2015'\021\256"
 569      02E754F7 
 569      0D2733D5 
 569      DD813527 
 569      11AE
 570 15fd F9F214E9 		.ascii	"\371\362\024\351\300\277H\272\275\226H\300\015\211\004"
 570      C0BF48BA 
 570      BD9648C0 
 570      0D8904
 571 160c BCC6C9BF 		.ascii	"\274\306\311\277\004\365\016\313\326.\313lY\324\231"
 571      04F50ECB 
 571      D62ECB6C 
 571      59D499
 572 161b 443B865B 		.ascii	"D;\206[\022\261\244_eSv\000Sby3\313\362>\036\226\177"
 572      12B1A45F 
 572      65537600 
 572      53627933 
 572      CBF23E1E 
 573 1631 CE425922 		.ascii	"\316BY\"\226\377\226\210e\375Z\352\317a\371}\226\345"
 573      96FF9688 
 573      65FD5AEA 
 573      CF61F97D 
 573      96E5
 574 1643 C39659F6 		.ascii	"\303\226Y\366\010\332O|F\265\014\007\303\3271^\216\361"
 574      08DA4F7C 
 574      46B50C07 
 574      C3D7315E 
 574      8EF1
 575 1655 0A8C5762 		.ascii	"\012\214Wb\274\036\343M\030\357\340\0310\353\235\035"
 575      BC1EE34D 
 575      18EFE019 
 575      30EB9D1D 
 576 1665 D66916A6 		.ascii	"\326i\026\246h\250\345\350-\362\036\004\336\243\036"
 576      68A8E5E8 
 576      2DF21E04 
 576      DEA31E
 577 1674 976FB5F5 		.ascii	"\227o\265\365F\217p/\216\250\257\366\262x\322C\022\352"
 577      468F702F 
 577      8EA8AFF6 
 577      B278D243 
 577      12EA
 578 1686 B0C87EFD 		.ascii	"\260\310~\375P\265a2\276\014z?\327P\265\211\363\245"
 578      50B56132 
 578      BE0C7A3F 
 578      D750B589 
 578      F3A5
 579 1698 EFF5316F 		.ascii	"\357\3651o\264\207\020\177\212\351\246\010\316\347a"
 579      B487107F 
 579      8AE9A608 
 579      CEE761
 580 16a7 A47F9531 		.ascii	"\244\177\2251\375\346\030\222\260\025\213\034\325\323"
ARM GAS  /tmp/ccpNBtS9.s 			page 46


 580      FDE61892 
 580      B0158B1C 
 580      D5D3
 581 16b5 FF83DF43 		.ascii	"\377\203\337Cs\223S\177U}\234\353\220\023\335\306\030"
 581      7393537F 
 581      557D9CEB 
 581      9013DDC6 
 581      18
 582 16c6 606A1EED 		.ascii	"`j\036\355O\270NJ\037\015;b\031\313\243\301\232\276"
 582      4FB84E4A 
 582      1F0D3B62 
 582      19CBA3C1 
 582      9ABE
 583 16d8 4B7DA84F 		.ascii	"K}\250Oy\016\217\007/\201K;\223\034\032\263\362\330"
 583      790E8F07 
 583      2F814B3B 
 583      931C1AB3 
 583      F2D8
 584 16ea F11EE5B1 		.ascii	"\361\036\345\261\343\3238r\235\357\365w\030\271$\341"
 584      E3D33872 
 584      9DEFF577 
 584      18B924E1 
 585 16fa 47CB5C68 		.ascii	"G\313\\h\244\322\334r\353L/\365\211.JX;\017\242\321"
 585      A4D2DC72 
 585      EB4C2FF5 
 585      892E4A58 
 585      3B0FA2D1 
 586 170e C066F461 		.ascii	"\300f\364a\265\311/~\202\376\36414\006\237b\374\031"
 586      B5C92F7E 
 586      82FEF431 
 586      34069F62 
 586      FC19
 587 1720 C6A7303E 		.ascii	"\306\2470>\313c\036\016\261f\354\305\336j\177\263\250"
 587      CB631E0E 
 587      B166ECC5 
 587      DE6A7FB3 
 587      A8
 588 1731 5EC6A4EE 		.ascii	"^\306\244\356gH=\210\2446\261$I\302t\254\317\2129\322"
 588      67483D88 
 588      A436B124 
 588      49C274AC 
 588      CF8A39D2 
 589 1745 0A7BEED5 		.ascii	"\012{\356\325\266\276\255\023\3459\375\270\227\215\243"
 589      B6BEAD13 
 589      E539FDB8 
 589      978DA3
 590 1754 6D4EC92F 		.ascii	"mN\311/~\355$K\306\265\275SZ2\276\350\324-\031\267\322"
 590      7EED244B 
 590      C6B5BD53 
 590      5A32BEE8 
 590      D42D19B7 
 591 1769 BF4220F9 		.ascii	"\277B \371\311\027\215_\353\335q\321xUo\303E\343\365"
 591      C9178D5F 
 591      EBDD71D1 
 591      78556FC3 
 591      45E3F5
 592 177c BDB58BC6 		.ascii	"\275\265\213\306\212\024\022.\325\306\211\363\213\337"
ARM GAS  /tmp/ccpNBtS9.s 			page 47


 592      8A14122E 
 592      D5C689F3 
 592      8BDF
 593 178a A0C82F39 		.ascii	"\240\310/9\023/\325.\2640\321\023\030\351\313\321\366"
 593      132FD52E 
 593      B430D113 
 593      18E9CBD1 
 593      F6
 594 179b DDE4C155 		.ascii	"\335\344\301U\336\307\320\256\257\272\250<\232\367="
 594      DEC7D0AE 
 594      AFBAA83C 
 594      9AF73D
 595 17aa 9AD3D6DE 		.ascii	"\232\323\326\336\311\315\251\001\016\230\035|\247\354"
 595      C9CDA901 
 595      0E981D7C 
 595      A7EC
 596 17b8 55049970 		.ascii	"U\004\231p\227E\020Ix\031\213\264\351m\3626z6\257\215"
 596      97451049 
 596      78198BB4 
 596      E96DF236 
 596      7A36AF8D 
 597 17cc C32A937F 		.ascii	"\303*\223\177"
 598 17d0 1DA1CFA6 		.ascii	"\035\241\317\246\253\017\355\316\212a*\225>\312\212"
 598      AB0FEDCE 
 598      8A612A95 
 598      3ECA8A
 599 17df 2FB9596E 		.ascii	"/\271Yn\242\347e\351\351\274Ez0\213v\364H\354\371\363"
 599      A2E765E9 
 599      E9BC457A 
 599      308B76F4 
 599      48ECF9F3 
 600 17f3 09B84EB8 		.ascii	"\011\270N\270\3222\236\246\223E?\242\304Q\260u<`\011"
 600      D2329EA6 
 600      93453FA2 
 600      C451B075 
 600      3C6009
 601 1806 DECA748C 		.ascii	"\336\312t\214\005\333h\031LK\331\247,X\224\007,\301"
 601      05DB6819 
 601      4C4BD9A7 
 601      2C589407 
 601      2CC1
 602 1818 EB914E2A 		.ascii	"\353\221N*\303Y\212\377n1\305e\276\204F\265\325\254"
 602      C3598AFF 
 602      6E31C565 
 602      BE8446B5 
 602      D5AC
 603 182a E42B2EE3 		.ascii	"\344+.\343\225`\363\261/ZK\035\240\227\\\204\361F]\037"
 603      9560F3B1 
 603      2F5A4B1D 
 603      A0975C84 
 603      F1465D1F 
 604 183e D0554D08 		.ascii	"\320UM\0103\253z\232\313\374\275\312\272\337\300\307"
 604      33AB7A9A 
 604      CBFCBDCA 
 604      BADFC0C7 
 605 184e B52C606D 		.ascii	"\265,`mk\235\236\254y2\371\004\017\234\307\240\275\214"
 605      6B9D9EAC 
ARM GAS  /tmp/ccpNBtS9.s 			page 48


 605      7932F904 
 605      0F9CC7A0 
 605      BD8C
 606 1860 3E6C87F6 		.ascii	">l\207\366\213?\241\341\273\211\203`;\306\023\\$\256"
 606      8B3FA1E1 
 606      BB898360 
 606      3BC6135C 
 606      24AE
 607 1872 C67812C6 		.ascii	"\306x\022\306\317c\374\"\3065\256{\377\321\250\222p"
 607      CF63FC22 
 607      C635AE7B 
 607      FFD1A892 
 607      70
 608 1883 E62EDD58 		.ascii	"\346.\335X\2475L\311\372\241\214\203\035>V\314oq\217"
 608      A7354CC9 
 608      FAA18C83 
 608      1D3E56CC 
 608      6F718F
 609 1896 FC825ADC 		.ascii	"\374\202Z\334\331.b\245\316\353\024\205\252\345?\212"
 609      D92E62A5 
 609      CEEB1485 
 609      AAE53F8A 
 610 18a6 DF6B5CFC 		.ascii	"\337k\\\374\232\276\344!\306\357\234~\354?a1'[\345\230"
 610      9ABEE421 
 610      C6EF9C7E 
 610      EC3F6131 
 610      275BE598 
 611 18ba C2C8AA3E 		.ascii	"\302\310\252>\317wuSR\352\237\267\021\377KO\210\256"
 611      CF777553 
 611      52EA9FB7 
 611      11FF4B4F 
 611      88AE
 612 18cc A092367D 		.ascii	"\240\2226}] n\346\331\234\024]\022&\336\315\005\327"
 612      5D206EE6 
 612      D99C145D 
 612      1226DECD 
 612      05D7
 613 18de 6437C333 		.ascii	"d7\3033\232\340\032\375\231\213\346\217u\225&\375\250"
 613      9AE01AFD 
 613      998BE68F 
 613      759526FD 
 613      A8
 614 18ef F5FA8BCA 		.ascii	"\365\372\213\312\313%^\3036\235tw\322\001\260\343?\364"
 614      CB255EC3 
 614      369D7477 
 614      D201B0E3 
 614      3FF4
 615 1901 2E75E906 		.ascii	".u\351\006\277\205g\032E\234\251\221_\222\014\177\317"
 615      BF85671A 
 615      459CA991 
 615      5F920C7F 
 615      CF
 616 1912 5547D79E 		.ascii	"UG\327\236i\224\230\277#\361\213\013\3509\033W\252\317"
 616      699498BF 
 616      23F18B0B 
 616      E8391B57 
 616      AACF
ARM GAS  /tmp/ccpNBtS9.s 			page 49


 617 1924 30AE3BA3 		.ascii	"0\256;\243,\216S\270:\313p\036\015\334;Z\270\203\022"
 617      2C8E53B8 
 617      3ACB701E 
 617      0DDC3B5A 
 617      B88312
 618 1937 075C82E7 		.ascii	"\007\\\202\347\030\337\325\302\315\341\241.\301\223"
 618      18DFD5C2 
 618      CDE1A12E 
 618      C193
 619 1945 8C1BB570 		.ascii	"\214\033\265p\363x\340\022<\313\270\231\205\223\204"
 619      F378E012 
 619      3CCBB899 
 619      859384
 620 1954 19A81056 		.ascii	"\031\250\020V\340\264\324m\325\302\325\362\300\031\215"
 620      E0B4D46D 
 620      D5C2D5F2 
 620      C0198D
 621 1963 AA461F56 		.ascii	"\252F\037V\363\374\3422\027\261/\257\243\355X\216\361"
 621      F3FCE232 
 621      17B12FAF 
 621      A3ED588E 
 621      F1
 622 1974 0A8C5762 		.ascii	"\012\214Wb\374\006\306\2530~\213\265,fcY\275\213\231"
 622      FC06C6AB 
 622      307E8BB5 
 622      2C666359 
 622      BD8B99
 623 1987 C82CD077 		.ascii	"\310,\320wR#\262\233\022\236}\326\320\275\220\261\213"
 623      5223B29B 
 623      129E7DD6 
 623      D0BD90B1 
 623      8B
 624 1998 75681717 		.ascii	"uh\027\027\241E\334\203\361W\030\267\322M\014\244x\036"
 624      A145DC83 
 624      F15718B7 
 624      D24D0CA4 
 624      781E
 625 19aa C60B315E 		.ascii	"\306\0131^\304C\375\\\247\351A!IX\254\353\344\261\035"
 625      C443FD5C 
 625      A7E94121 
 625      4958ACEB 
 625      E4B11D
 626 19bd E14F7BEF 		.ascii	"\341O{\357\241\247\221\237\307\325\201ux\337-\323\315"
 626      A1A7919F 
 626      C7D58175 
 626      78DF2DD3 
 626      CD
 627 19ce 56DC3B51 		.ascii	"V\334;Q\366h\017\005b\033\311\015I\212\341\366\212\366"
 627      F6680F05 
 627      621BC90D 
 627      498AE1F6 
 627      8AF6
 628 19e0 10F35CAC 		.ascii	"\020\363\\\254oS\222\202\012S\312!\346\265\237\345\367"
 628      6F539282 
 628      0A53CA21 
 628      E6B59FE5 
 628      F7
ARM GAS  /tmp/ccpNBtS9.s 			page 50


 629 19f1 A21BAA82 		.ascii	"\242\033\252\202\266\224\321\336\356\333.\243\275\335"
 629      B694D1DE 
 629      EEDB2EA3 
 629      BDDD
 630 19ff 437BA7AA 		.ascii	"C{\247\252{\273n\235kF\2104\023\356&\227nM\220\010B"
 630      7BBB6E9D 
 630      6B468834 
 630      13EE2697 
 630      6E4D9008 
 631 1a14 27E3AD86 		.ascii	"'\343\255\2062\246[\331\364\366u.\322Q7\272\022J7\266"
 631      32A65BD9 
 631      F4F6752E 
 631      D25137BA 
 631      124A37B6 
 632 1a28 95BD058F 		.ascii	"\225\275\005\217l\323\235)\363R\012\201[\014\271\275"
 632      6CD39D29 
 632      F3520A81 
 632      5B0CB9BD 
 633 1a38 BEF76533 		.ascii	"\276\367e3n\311&\242\031\267\357qp\273\337\230\333\033"
 633      6EC926A2 
 633      19B7EF71 
 633      70BBDF98 
 633      DB1B
 634 1a4a C53A6EB7 		.ascii	"\305:n\267sr\273\036\271\245\177\020j^J!p\207!\267k"
 634      7372BB1E 
 634      B9A57F10 
 634      6A5E4A21 
 634      708721B7 
 635 1a5f A7EC03C3 		.ascii	"\247\354\003\303#\377\324\336N\036\017\023,\234\215"
 635      23FFD4DE 
 635      4E1E0F13 
 635      2C9C8D
 636 1a6e FC8083E1 		.ascii	"\374\200\203\341c\306\014\337\3243\274\223\223a\335"
 636      63C60CDF 
 636      D433BC93 
 636      9361DD
 637 1a7d 4905A698 		.ascii	"I\005\246\230\2216\357\326r\374g\321Vk\247'\363\247"
 637      9136EFD6 
 637      72FC67D1 
 637      566BA727 
 637      F3A7
 638 1a8f 35B7BEF1 		.ascii	"5\267\276\361~\325\\\371}<\231\257\347:\301:\367\207"
 638      7ED55CF9 
 638      7D3C99AF 
 638      E73AC13A 
 638      F787
 639 1aa1 7AA6C9A3 		.ascii	"z\246\311\243\006\372\007\032\224\357\274\013\266\213"
 639      06FA071A 
 639      94EFBC0B 
 639      B68B
 640 1aaf DE3BD267 		.ascii	"\336;\322g#}\355#:\027\363\372X\\\261U\246'k/\221U\323"
 640      237DED23 
 640      3A17F3FA 
 640      585CB155 
 640      A6276B2F 
 641 1ac6 2388B158 		.ascii	"#\210\261X\207\341\027su>g\256\376\217\025\316\332\344"
 641      87E11773 
ARM GAS  /tmp/ccpNBtS9.s 			page 51


 641      753E67AE 
 641      FE8F15CE 
 641      DAE4
 642 1ad8 696ECC97 		.ascii	"in\314\227\204m}\264+\034L\271\241fN{n\334V\177\214"
 642      846D7DB4 
 642      2B1C4CB9 
 642      A1664E7B 
 642      6EDC567F 
 643 1aed 638CEE4E 		.ascii	"c\214\356N\235j\354\326Q\250\336t\254C\243\315\2115"
 643      9D6AECD6 
 643      51A8DE74 
 643      AC43A3CD 
 643      8935
 644 1aff 5ACBE11F 		.ascii	"Z\313\341\037&\212\323\253\353\033\345\313d\335P=\017"
 644      268AD3AB 
 644      EB1BE5CB 
 644      64DD503D 
 644      0F
 645 1b10 73C804EA 		.ascii	"s\310\004\352DG\215\007\220m[\353z\033\267<\377r\326"
 645      44478D07 
 645      906D5BEB 
 645      7A1BB73C 
 645      FF72D6
 646 1b23 FA0344D4 		.ascii	"\372\003D\324\247\\d=\353\264\256v\316\365\254\317]"
 646      A75C643D 
 646      EBB4AE76 
 646      CEF5ACCF 
 646      5D
 647 1b34 BAF5ACE3 		.ascii	"\272\365\254\343Sp=\213\344'_\317\372\252O\307\365\254"
 647      53703D8B 
 647      E4275FCF 
 647      FAAA4FC7 
 647      F5AC
 648 1b46 4B7D0CD7 		.ascii	"K}\014\327\263\256\3671<\004\371\334=\206\207 \247\337"
 648      B3AEF731 
 648      3C04F9DC 
 648      3D868720 
 648      A7DF
 649 1b58 63780872 		.ascii	"cx\010r\301=\206\207 \227\337cx\010r\303=\206\207 w"
 649      C13D8687 
 649      2097DF63 
 649      780872C3 
 649      3D868720 
 650 1b6d DCA33D04 		.ascii	"\334\243=\004\251d\357\215g\2471\331\237\305\263;1\331"
 650      A964EF8D 
 650      67A731D9 
 650      9FC5B33B 
 650      31D9
 651 1b7f DFC5B3D3 		.ascii	"\337\305\263\323\231l\371\027\261\354\014&\373\325x"
 651      996CF917 
 651      B1EC0C26 
 651      FBD578
 652 1b8e F66D4C76 		.ascii	"\366mLv}<\2733\223\375v<\273\013\223\275%\236\335\225"
 652      7D3CBB33 
 652      93FD763C 
 652      BB0B93BD 
 652      259EDD95 
ARM GAS  /tmp/ccpNBtS9.s 			page 52


 653 1ba2 C9FE209E 		.ascii	"\311\376 \236\335\215\311>\026\317\356\316\322\035\317"
 653      DD8DC93E 
 653      16CFEECE 
 653      D21DCF
 654 1bb1 BE5D694B 		.ascii	"\276]iK\3625\341\262b\\G\374\342\031\354Sg]\306\313"
 654      F235E1B2 
 654      625C47FC 
 654      E219EC53 
 654      675DC6CB 
 655 1bc5 8A66F6EA 		.ascii	"\212f\366\352\244\336^\221\301\"\305\007C\025\335\237"
 655      A4DE5E91 
 655      C122C507 
 655      4315DD9F 
 656 1bd5 E994385E 		.ascii	"\351\2248^'\354\027_u\363\275\205\033T\261o\207=\004"
 656      27EC175F 
 656      75F3BD85 
 656      1B54B16F 
 656      873D04
 657 1be8 FDBBA453 		.ascii	"\375\273\244S\177\231\367+n\303\007/\033\304\216{\216"
 657      7F99F72B 
 657      6EC3072F 
 657      1BC48E7B 
 657      8E
 658 1bf9 92F0525F 		.ascii	"\222\360R_cK2\303mdIZj\014\315Q\215\011\310,C\220i\337"
 658      634B32C3 
 658      6D64495A 
 658      6A0CCD51 
 658      8D09C82C 
 659 1c11 9D7FC46C 		.ascii	"\235\177\304l J\260\360U\353\3265\354\032|\241\256\206"
 659      204AB0F0 
 659      55EBD635 
 659      EC1A7CA1 
 659      AE86
 660 1c23 9B852684 		.ascii	"\233\205&\204\3145$\344r\315\367R\012\204\314\327\023"
 660      CC3524E4 
 660      72CDF752 
 660      0A84CCD7 
 660      13
 661 1c34 429CAFD8 		.ascii	"B\234\257\330\027\345\330\251\216\260\025&\204\325\031"
 661      17E5D8A9 
 661      8EB01526 
 661      84D519
 662 1c43 1116DDBE 		.ascii	"\021\026\335\276\357eY\244' \371\311\2527\"KG\306Z\023"
 662      EF6559A4 
 662      2720F9C9 
 662      AA37224B 
 662      47C65A13 
 663 1c57 32161BCA 		.ascii	"2\026\033\312\347\324\331\350\177\247 \237\245\035\010"
 663      E7D4D9E8 
 663      7FA7209F 
 663      A51D08
 664 1c66 9162F2E1 		.ascii	"\221b\362\341\336v\213n\253\351I\006\207\345n|\324\242"
 664      DE768B6E 
 664      ABE94906 
 664      87E56E7C 
 664      D4A2
 665 1c78 637F49E9 		.ascii	"c\177I\351\264H\214\244\023\006O!K\302\207&\342Y\245"
ARM GAS  /tmp/ccpNBtS9.s 			page 53


 665      B4488CA4 
 665      13064F21 
 665      4BC28726 
 665      E259A5
 666 1c8b 15CF3F09 		.ascii	"\025\317?\011\257\311\321&\230\026]9#\202\243\322H\266"
 666      AFC9D126 
 666      98165D39 
 666      2382A3D2 
 666      48B6
 667 1c9d 28DAC5BE 		.ascii	"(\332\305\276\240\221\370\217\335gb(\352\302\315/U\376"
 667      A091F88F 
 667      DD676228 
 667      EAC2CD2F 
 667      55FE
 668 1caf DE5665F4 		.ascii	"\336Ve\364V\034\221\242E\033V\246\201\237\210\375J\375"
 668      561C91A2 
 668      451B56A6 
 668      819F88FD 
 668      4AFD
 669 1cc1 E3F2737A 		.ascii	"\343\362sz\240'U\234\330\033\256\024\230A\302z\371\205"
 669      A027559C 
 669      D81BAE14 
 669      9841C27A 
 669      F985
 670 1cd3 683F5A90 		.ascii	"h?Z\220\236\225\376/\241M~A\216n\352I\017\026\222Z\210"
 670      9E95FE2F 
 670      A14D7E41 
 670      8E6EEA49 
 670      0F16925A 
 671 1ce8 1338FBE6 		.ascii	"\0238\373\346r\261F\256\217\323L\377e\374\233\0164k"
 671      72B146AE 
 671      8FD34CFF 
 671      65FC9B0E 
 671      346B
 672 1cfa FE539CD4 		.ascii	"\376S\234\324\265^#\004z\024\233VB\216\014?\256[\015"
 672      B55E2304 
 672      7A149B56 
 672      428E0C3F 
 672      AE5B0D
 673 1d0d 9E9AE0CF 		.ascii	"\236\232\340\317\307\032\342\006Ja\276u\005\303\374"
 673      C71AE206 
 673      4A61BE75 
 673      05C3FC
 674 1d1c 54FC3BB5 		.ascii	"T\374;\265+I\231\337\240a\376QZ\220\376\253\034\271"
 674      2B4999DF 
 674      A061FE51 
 674      5A90FEAB 
 674      1CB9
 675 1d2e B356A293 		.ascii	"\263V\242\223\204\271\312w\362\377}2Pk\027\350\277\315"
 675      84B9CA77 
 675      F2FF7D32 
 675      506B17E8 
 675      BFCD
 676 1d40 913C1B19 		.ascii	"\221<\033\031\366\350\337\316)_\373\251\354\035\217"
 676      F6E8DFCE 
 676      295FFBA9 
 676      EC1D8F
ARM GAS  /tmp/ccpNBtS9.s 			page 54


 677 1d4f B117DDD6 		.ascii	"\261\027\335\326\223\322\254\020;ke\007b\257%%v\313"
 677      93D2AC10 
 677      3B6B6507 
 677      62AF2525 
 677      76CB
 678 1d61 3F82D8AE 		.ascii	"?\202\330\256\254\030\345\303\321\343\033\311&\276J"
 678      AC18E5C3 
 678      D1E31BC9 
 678      26BE4A
 679 1d70 1A9D3BDF 		.ascii	"\032\235;\337\322\223\326\2419\266ku\021p\216.eq\350"
 679      D293D6A1 
 679      39B66B75 
 679      11708E2E 
 679      6571E8
 680 1d83 9CFF454F 		.ascii	"\234\377EO2\234h\034'\305\275\215\367\265\226#C\230"
 680      329C681C 
 680      27C5BD8D 
 680      F7B59623 
 680      4398
 681 1d95 C2AA54AE 		.ascii	"\302\252T\256\271F\355tg\010\272\217\331\255;\342\312"
 681      B946ED74 
 681      6708BA8F 
 681      D9AD3BE2 
 681      CA
 682 1da6 A753D926 		.ascii	"\247S\331&\223\305'\234\372\231\226\3720\301\266\307"
 682      93C5279C 
 682      FA9996FA 
 682      30C1B6C7 
 683 1db6 2E9352FC 		.ascii	".\223R\374\022i\324\333R\302)\327\261\241\335\246\024"
 683      1269D4DB 
 683      52C229D7 
 683      B1A1DDA6 
 683      14
 684 1dc7 13BD302B 		.ascii	"\023\2750+\265\327\264\324\363\011J\3553-E\306\002\323"
 684      B5D7B4D4 
 684      F3094AED 
 684      332D45C6 
 684      02D3
 685 1dd9 99A569A9 		.ascii	"\231\245i\251\372\004\245\366\233\226\232\237\240\324"
 685      FA04A5F6 
 685      9B969A9F 
 685      A0D4
 686 1de7 01D352E4 		.ascii	"\001\323R\344]3f\245\016\306K)\177M\236\350\317\177"
 686      5D3366A5 
 686      0EC64B29 
 686      7F4D9EE8 
 686      CF7F
 687 1df9 A127E19B 		.ascii	"\241'\341\233j\223\375;/\316n'p\377\3711\371\266\025"
 687      6A93FD3B 
 687      2FCE6E27 
 687      70FFF931 
 687      F9B615
 688 1e0c DFE7B493 		.ascii	"\337\347\264\223\375wL\035\033\265\011\230?l\312<q\337"
 688      FD774C1D 
 688      1BB50998 
 688      3F6CCA3C 
 688      71DF
ARM GAS  /tmp/ccpNBtS9.s 			page 55


 689 1e1e CC4A1D31 		.ascii	"\314J\0351-u2\201\312\177\3048\237\366\242\261\376\220"
 689      2D753281 
 689      CA7FC438 
 689      9FF6A2B1 
 689      FE90
 690 1e30 73E8A8C7 		.ascii	"s\350\250\307=Y\302\300\314\261\025e\201\314\242\212"
 690      3D59C2C0 
 690      CCB11565 
 690      81CCA28A 
 691 1e40 E267338B 		.ascii	"\342g3\213\003\3432\213\306\006G\007+\302\231\221PU"
 691      03E3328B 
 691      C6064707 
 691      2BC29991 
 691      5055
 692 1e52 F9539990 		.ascii	"\371S\231\220\010\214\217d\226\370#%\341\314p\250(\263"
 692      088C8F64 
 692      96F82325 
 692      E1CC70A8 
 692      28B3
 693 1e64 A4E481B1 		.ascii	"\244\344\201\261\202#wpan\301C\326J\006\313#\2011\201"
 693      82237770 
 693      616EC143 
 693      D64A06CB 
 693      23813181 
 694 1e78 1014B70F 		.ascii	"\020\024\267\017y\2420\307U\022\366E\236\255\014\330"
 694      79A230C7 
 694      5512F645 
 694      9EAD0CD8 
 695 1e88 8A43E31C 		.ascii	"\212C\343\034E\341\340\377\0178\313}pw\330\361LI\251"
 695      45E1E0FF 
 695      0F38CB7D 
 695      7077D8F1 
 695      4C49A9
 696 1e9b 7F8CBB24 		.ascii	"\177\214\273$\034\364\221\204\375\317y\336l)X\234V\356"
 696      1CF49184 
 696      FDCF79DE 
 696      6C29589C 
 696      56EE
 697 1ead 0B555444 		.ascii	"\013UTD\212\203!G6\311\352T\352\017G|E\245U\341H\247"
 697      8A832147 
 697      36C9EA54 
 697      EA0F477C 
 697      45A555E1 
 698 1ec3 92502040 		.ascii	"\222P @\223n\304\010\224G\034%\004\3225\256\242t\264"
 698      936EC408 
 698      94471C25 
 698      04D235AE 
 698      A274B4
 699 1ed6 3F1C7041 		.ascii	"?\034pA&^\2418\271\272\213\375\021?f<\023,\017\007\212"
 699      265EA138 
 699      B9BA8BFD 
 699      113F663C 
 699      132C0F07 
 700 1eeb 2236B83E 		.ascii	"\"6\270>\230\214\237\261\376R\340\002\352)\016d\226"
 700      988C9FB1 
 700      FE52E002 
 700      EA290E64 
ARM GAS  /tmp/ccpNBtS9.s 			page 56


 700      96
 701 1efc 9515F9C2 		.ascii	"\225\025\371\302\225A\340&m\344\310\254\254\212\362"
 701      9541E026 
 701      6DE4C8AC 
 701      AC8AF2
 702 1f0b 92E0986C 		.ascii	"\222\340\230l\036\200\312\212P$\234YP8r\340\200\314"
 702      1E80CA8A 
 702      50249C59 
 702      503872E0 
 702      80CC
 703 1f1d 1123B233 		.ascii	"\021#\2623\013\362\207\217\353\237\011P\276\322\322"
 703      0BF2878F 
 703      EB9F0950 
 703      BED2D2
 704 1f2c 62020719 		.ascii	"b\002\007\031\331\241\340\270@h\200\025z(-\235\340\022"
 704      D9A1E0B8 
 704      40688015 
 704      7A282D9D 
 704      E012
 705 1f3e 8E80007C 		.ascii	"\216\200\000|\221N\200\343{|\324\360Q\303\013\335$Y"
 705      914E80E3 
 705      7B7CD4F0 
 705      51C30BDD 
 705      2459
 706 1f50 5098974F 		.ascii	"P\230\227O\260}\336\234\301\331O\340\257\203\263\012"
 706      B07DDE9C 
 706      C1D94FE0 
 706      AF83B30A 
 707 1f60 87FF2927 		.ascii	"\207\377)'\203$\263\362F\346\217\310)\314q`\351\333"
 707      8324B3F2 
 707      46E68FC8 
 707      29CC7160 
 707      E9DB
 708 1f72 00A6C85F 		.ascii	"\000\246\310_\012\242+z\312\027q\006\312\213}E\243s"
 708      0AA22B7A 
 708      CA177106 
 708      CA8B7D45 
 708      A373
 709 1f84 52E16E68 		.ascii	"R\341nh\376\360\274q\0032+\375\245\012{\031\341H\331"
 709      FEF0BC71 
 709      03322BFD 
 709      A50A7B19 
 709      E148D9
 710 1f97 C001BE31 		.ascii	"\300\001\2761\225\301\012_\344"
 710      95C10A5F 
 710      E4
 711 1fa0 579955E1 		.ascii	"W\231U\341P\246?Tv\177yEy\340\376\200\177t0\316\020"
 711      50A63F54 
 711      767F7945 
 711      79E0FE80 
 711      7F7430CE 
 712 1fb5 34757904 		.ascii	"4uy\004J\270\253\340\012E\"\203\022\334]\346\007r\312"
 712      4AB8ABE0 
 712      0A452283 
 712      12DC5DE6 
 712      0772CA
 713 1fc8 0399BEE2 		.ascii	"\003\231\276\342@\211\277\2524\202\252\025&\022\361"
ARM GAS  /tmp/ccpNBtS9.s 			page 57


 713      4089BFAA 
 713      3482AA15 
 713      2612F1
 714 1fd7 F9D4F28E 		.ascii	"\371\324\362\216\221y\3319^g^\341\023\3719^W^A~NN\266"
 714      9179D939 
 714      5E675EE1 
 714      13F9395E 
 714      575E417E 
 715 1fee D791FF78 		.ascii	"\327\221\377x~\266\3276\034B^\266W\3743\326\326\377"
 715      7EB6D736 
 715      1C425EB6 
 715      57FC33D6 
 715      D6FF
 716 2000 41901F2D 		.ascii	"A\220\037-H\222\266p \342(*\015\370C\3420\373\220\002"
 716      4892B670 
 716      20E2282A 
 716      0DF843E2 
 716      30FB9002 
 717 2014 AFD73E22 		.ascii	"\257\327>\"\3531\257}p\256w\004\211\206\331\206x\275"
 717      EB31AF7D 
 717      70AE7704 
 717      8986D986 
 717      78BD
 718 2026 9D821584 		.ascii	"\235\202\025\204\367`1\310+\034&I\007\\\374\305\266"
 718      F76031C8 
 718      2B1C2649 
 718      075CFCC5 
 718      B6
 719 2037 A2507F22 		.ascii	"\242P\177\"v\252!\316\"\274$\3559\241H\214\263\242\261"
 719      76AA21CE 
 719      22BC24ED 
 719      39A1488C 
 719      B3A2B1
 720 204a E167C32A 		.ascii	"\341g\303*7\356\310\330P\300\017u\244\025\215\365\321"
 720      37EEC8D8 
 720      50C00F75 
 720      A4158DF5 
 720      D1
 721 205b F4206B58 		.ascii	"\364 kXEcI+8+}\345\320;\341R\031\012\214\033\306\001"
 721      4563492B 
 721      382B7DE5 
 721      D03BE152 
 721      190A8C1B 
 722 2071 411B76B0 		.ascii	"A\033v\260wd\326\310\361pgYe\2604\020\012g\016\315\312"
 722      7764D6C8 
 722      F1706759 
 722      65B03410 
 722      0A670ECD 
 723 2086 82DB55F2 		.ascii	"\202\333U\362\\\221\312\020iW\304\015V\270\200\333\010"
 723      5C91CA10 
 723      6957C40D 
 723      56B880DB 
 723      08
 724 2097 54F37BCB 		.ascii	"T\363{\313\370c\213*B\001\000L'\331>h\206\242\310\370"
 724      F8638B2A 
 724      4201004C 
 724      27D93E68 
ARM GAS  /tmp/ccpNBtS9.s 			page 58


 724      86A2C8F8 
 725 20ab 7F4B0DC5 		.ascii	"\177K\015\3057\356weDr\241\300\030P\035\322\230\375"
 725      37EE7765 
 725      4472A1C0 
 725      18501DD2 
 725      98FD
 726 20bd 1F84F03B 		.ascii	"\037\204\360;\010\017A\370\275-<\240\037\204\376\020"
 726      080F41F8 
 726      BD2D3CA0 
 726      1F84FE10 
 727 20cd 06401808 		.ascii	"\006@\030\010a\020\204\337B\200\373\006\300}\003\340"
 727      611084DF 
 727      4280FB06 
 727      C07D03E0 
 728 20dd BE0170DF 		.ascii	"\276\001p\337@\270o`\177)4H\012\375V\012=(\205~'\205"
 728      40B86F60 
 728      7F293448 
 728      0AFD560A 
 728      3D28857E 
 729 20f3 1E9242BF 		.ascii	"\036\222B\277\267\205\372\367\203\320_*\015\301e\240"
 729      B785FAF7 
 729      83D05F2A 
 729      0DC165A0 
 730 2103 A3D207D4 		.ascii	"\243\322\007\324\272\210\204\237\011\204\340ZQZ\034"
 730      BA88849F 
 730      0984E05A 
 730      515A1C
 731 2112 081189FB 		.ascii	"\010\021\211\373\313\002\356\210\322=]D\271\036\202"
 731      CB02EE88 
 731      D23D5D44 
 731      B91E82
 732 2121 86A46A06 		.ascii	"\206\244j\006)\270\023\177sE\312*\212\003\370\235\330"
 732      29B8137F 
 732      7345CA2A 
 732      8A03F89D 
 732      D8
 733 2132 BFB02B12 		.ascii	"\277\260+\022\012\020[\011\010$\341(\013\217\201\037"
 733      0A105B09 
 733      0824E128 
 733      0B8F811F 
 734 2142 159D86E2 		.ascii	"\025\235\206\342J\312\031*~\026~r\007\306\007# \243"
 734      4ACA192A 
 734      7E167E72 
 734      07C60723 
 734      20A3
 735 2154 80F39948 		.ascii	"\200\363\231H\305\350\377\254L\017\214\003kX\346\017"
 735      C5E8FFAC 
 735      4C0F8C03 
 735      6B58E60F 
 736 2164 63477E86 		.ascii	"cG~\206$l\225\276\252\316Ty\302\276R\260\027\276H\227"
 736      246C95BE 
 736      AACE5479 
 736      C2BE52B0 
 736      17BE4897 
 737 2178 983AD19C 		.ascii	"\230:\321\234\264J\3373\376`$X>\246\213\232\375tU\240"
 737      B44ADF33 
 737      FE602458 
ARM GAS  /tmp/ccpNBtS9.s 			page 59


 737      3EA68B9A 
 737      FD7455A0 
 738 218c 0AA8EACA 		.ascii	"\012\250\352\312\334\211Y\235*}P-&\035\230\204\214@"
 738      DC89599D 
 738      2A7D502D 
 738      261D9884 
 738      8C40
 739 219e 25980C28 		.ascii	"%\230\014(\354(\253\202\366O:\302h4\264,2\236hR\031"
 739      EC28AB82 
 739      F64F3AC2 
 739      6834B42C 
 739      329E6852 
 740 21b3 45876BC5 		.ascii	"E\207k\3053\345 FD\002\026\312Pq\201>\270\217P\332\211"
 740      33E52046 
 740      440216CA 
 740      5071813E 
 740      B88F50DA 
 741 21c8 48C55F8A 		.ascii	"H\305_\212\352\006\231\225\025\025\245\277\263T\237"
 741      EA069995 
 741      1515A5BF 
 741      B3549F
 742 21d7 C20CD4D9 		.ascii	"\302\014\324\331]\351\\ \345@(P^\004\334:i\326\277\360"
 742      5DE95C20 
 742      E5402850 
 742      5E04DC3A 
 742      69D6BFF0 
 743 21eb 8C745923 		.ascii	"\214tY#\013\206\027\200\351\313D\013W2\250_\377\361"
 743      0B861780 
 743      E9CB440B 
 743      5732A85F 
 743      FFF1
 744 21fd A8C2C4BC 		.ascii	"\250\302\304\274\026B\007\311\016\224\330\262\274\375"
 744      164207C9 
 744      0E94D8B2 
 744      BCFD
 745 220b 210C900A 		.ascii	"!\014\220\012\274\022\230\236,oV\276\327\351\375\013"
 745      BC12989E 
 745      2C6F56BE 
 745      D7E9FD0B 
 746 221b 5CBDCE42 		.ascii	"\\\275\316B\274\270\206\017(\310\312\035\352u\3005\337"
 746      BCB8860F 
 746      28C8CA1D 
 746      EA75C035 
 746      DF
 747 222c 6B033B9C 		.ascii	"k\003;\234k\325\354b\234;h\374xJ\210\257\270\314O\230"
 747      6BD5EC62 
 747      9C3B68FC 
 747      784A88AF 
 747      B8CC4F98 
 748 2240 CB1E39D8 		.ascii	"\313\0369\330W\000\252\344/S\251\221\262\274\366Q\331"
 748      5700AAE4 
 748      2F53A991 
 748      B2BCF651 
 748      D9
 749 2251 855E5BFE 		.ascii	"\205^[\376`\257}d?\022\365\037\354\265\345\0021a\274"
 749      60AF7D64 
 749      3F12F51F 
ARM GAS  /tmp/ccpNBtS9.s 			page 60


 749      ECB5E502 
 749      3161BC
 750 2264 D11E2C29 		.ascii	"\321\036,)\0129\203\341\261\301\222HZ8PZ\022,/\016\214"
 750      0A3983E1 
 750      B1C19248 
 750      5A38505A 
 750      122C2F0E 
 751 2279 778E83F1 		.ascii	"w\216\203\361\262\"\324=\206\356\243w\203\201\205/\241"
 751      B222D43D 
 751      86EEA377 
 751      8381852F 
 751      A1
 752 228a F1248E8C 		.ascii	"\361$\216\214O\013\215\207+\321\344\264\210\232\262"
 752      4F0B8D87 
 752      2BD1E4B4 
 752      889AB2
 753 2299 033B958E 		.ascii	"\003;\225\216\322pQ\311\030\307X\022\273\203\025T\327"
 753      D27051C9 
 753      18C75812 
 753      BB831554 
 753      D7
 754 22aa 1DBE21D0 		.ascii	"\035\276!\320pI\025e\234\037\232\271*\014?@{\227G\210"
 754      70491565 
 754      9C1F9AB9 
 754      2A0C3F40 
 754      7B974788 
 755 22be 2B62ADB1 		.ascii	"+b\255\261)\245\244\261{\014\201\321\277 \000JV\036"
 755      29A5A4B1 
 755      7B0C81D1 
 755      BF20004A 
 755      561E
 756 22d0 09FA4BA9 		.ascii	"\011\372K\251d\3564\312\374\323\310\302\0018\362\224"
 756      64EE34CA 
 756      FCD3C8C2 
 756      0138F294 
 757 22e0 0647678E 		.ascii	"\006Gg\216)*\322\215@\203\036x\350\201A\354\250\005"
 757      292AD28D 
 757      40831E78 
 757      E88141EC 
 757      A805
 758 22f2 2310B1B0 		.ascii	"#\020\261\260\304\375\000\306\236\011\005#\001;Q\"["
 758      C4FD00C6 
 758      9E090523 
 758      013B5122 
 758      5B
 759 2303 6555C436 		.ascii	"eU\3046&\020\261\215+\213\270U\016l\220\260\225\224"
 759      2610B18D 
 759      2B8BB855 
 759      0E6C90B0 
 759      9594
 760 2315 453A878B 		.ascii	"E:\207\213\301\243\010\007\313*K\003\017\024\241OA\235"
 760      C1A30807 
 760      CB2A4B03 
 760      0F14A14F 
 760      419D
 761 2327 808C580A 		.ascii	"\200\214X\012\350H\017\206}\304_\011E\002\305\031\220"
 761      E8480F86 
ARM GAS  /tmp/ccpNBtS9.s 			page 61


 761      7DC45F09 
 761      4502C519 
 761      90
 762 2338 AE0C5544 		.ascii	"\256\014UD\2401\002\305\304\322\226C\252Sq0\254$\355"
 762      A03102C5 
 762      C4D29643 
 762      AA537130 
 762      AC24ED
 763 234b E167CB8B 		.ascii	"\341g\313\213\376`\305\205\200\264/X1\272\264\242\350"
 763      FE60C585 
 763      80B42F58 
 763      31BAB4A2 
 763      E8
 764 235c 2960A0CB 		.ascii	")`\240\313\020\222\310\016\214\013\026\005\206\227\227"
 764      1092C80E 
 764      8C0B1605 
 764      869797
 765 236b 54B84797 		.ascii	"T\270G\227>\345C\237\212$\312\253\312\334\300\013PS"
 765      3EE5439F 
 765      8A24CAAB 
 765      CADCC00B 
 765      5053
 766 237d 52D10932 		.ascii	"R\321\0112T\247c\310\210\307T\247\203$\211\323\201y"
 766      54A763C8 
 766      88C754A7 
 766      832489D3 
 766      8179
 767 238f D4D5E84C 		.ascii	"\324\325\350L\222Yy\243F\345\300\327QC\273\221\257\331"
 767      925979A3 
 767      46E5C0D7 
 767      5143BB91 
 767      AFD9
 768 23a1 C30BE239 		.ascii	"\303\013\3429i$\007\035\224t5\005\271\230\376\263wx"
 768      6924071D 
 768      94743505 
 768      B998FEB3 
 768      7778
 769 23b3 A19A2E78 		.ascii	"\241\232.xbT\026\244mEA\030_\303\305\356\"\177\245\277"
 769      625416A4 
 769      6D454118 
 769      5FC3C5EE 
 769      227FA5BF 
 770 23c7 281879B6 		.ascii	"(\030y\266\013\022\357\363\027\027\207\002\341p |{\270"
 770      0B12EFF3 
 770      17178702 
 770      E170207C 
 770      7BB8
 771 23d9 D807622A 		.ascii	"\330\007b*\362\207\212cr\263\203\234\213{\322\037\260"
 771      F2878A63 
 771      72B3839C 
 771      8B7BD21F 
 771      B0
 772 23ea 71E25274 		.ascii	"q\342RtRC\354F\233\012\011M\243\200M\302\257\320\246"
 772      5243EC46 
 772      9B0A094D 
 772      A3804DC2 
 772      AFD0A6
ARM GAS  /tmp/ccpNBtS9.s 			page 62


 773 23fd 7825CA5C 		.ascii	"x%\312\\\354*\201a\020\306g7dx\241\215\237\005\257\026"
 773      EC2A8161 
 773      10C66737 
 773      6478A18D 
 773      9F05AF16 
 774 2411 AFBFB5E4 		.ascii	"\257\277\265\344\273\005B\240m\3049*\300\024m\357.\354"
 774      BB0542A0 
 774      6DC4392A 
 774      C0146DEF 
 774      2EEC
 775 2423 1768FC34 		.ascii	"\027h\3744\342\007\004\313@\312v\320\244\210\035\304"
 775      E20704CB 
 775      40CA76D0 
 775      A4881DC4 
 776 2433 1F712207 		.ascii	"\037q\"\007\021\007\321\257HR\377U\323\025p\\ =\241"
 776      1107D1AF 
 776      4852FF55 
 776      D315705C 
 776      203DA1
 777 2446 33A67CE1 		.ascii	"3\246|\341\212\252\0201y\031\354\327\256\364\0131\264"
 777      8AAA1031 
 777      7919ECD7 
 777      AEF40B31 
 777      B4
 778 2457 01B0C220 		.ascii	"\001\260\302 \022m\206+P\212\3668\035\256j^\032\244"
 778      126D862B 
 778      508AF638 
 778      1DAE6A5E 
 778      1AA4
 779 2469 293885C2 		.ascii	")8\205\302A\014\244\012\331\230$\277?CG\266@\030K;\360"
 779      410CA40A 
 779      D99824BF 
 779      3F4347B6 
 779      40184B3B 
 780 247e BEB470B1 		.ascii	"\276\264p\261\242Ei\005\331\212\022\271 Et\310\015W"
 780      A2456905 
 780      D98A12B9 
 780      204574C8 
 780      0D57
 781 2490 540B6B3C 		.ascii	"T\013k<\342\020Bx\274-X\0162S\3070\360\325\324\244["
 781      E2104278 
 781      BC2D580E 
 781      3253C730 
 781      F0D5D4A4 
 782 24a5 4DA63DAD 		.ascii	"M\246=\255\216x\220*\252\250\002\307%\344~\3327\272"
 782      8E78902A 
 782      AAA802C7 
 782      25E47EDA 
 782      37BA
 783 24b7 AA040603 		.ascii	"\252\004\006\003\307\323\276HE\245\013n\011UFBp\015"
 783      C7D3BE48 
 783      45A50B6E 
 783      09554642 
 783      700D
 784 24c9 15C335ED 		.ascii	"\025\3035\355\351\362\212H\260\344Y@y\332G\223\316\247"
 784      E9F28A48 
 784      B0E45940 
ARM GAS  /tmp/ccpNBtS9.s 			page 63


 784      79DA4793 
 784      CEA7
 785 24db 410CE54F 		.ascii	"A\014\345O9\203\210\331\271\242*\302T\353\254\300\204"
 785      398388D9 
 785      B9A22AC2 
 785      54EBACC0 
 785      84
 786 24ec 141C2D55 		.ascii	"\024\034-U\214\276\355\361\202\301\336Bf`\030h\037Z"
 786      8CBEEDF1 
 786      82C1DE42 
 786      66601868 
 786      1F5A
 787 24fe 98EF7554 		.ascii	"\230\357uT\205\375\241H\027\324\260\341\345Ab\205\240"
 787      85FDA148 
 787      17D4B0E1 
 787      E5416285 
 787      A0
 788 250f CB49E162 		.ascii	"\313I\341b[Yi\261\024\256\354J~\031\032\210\304\254"
 788      5B5969B1 
 788      14AEEC4A 
 788      7E191A88 
 788      C4AC
 789 2521 4227BC15 		.ascii	"B'\274\025rr\013\250\272\346\026\214D\352\213-\031-"
 789      72720BA8 
 789      BAE6168C 
 789      44EA8B2D 
 789      192D
 790 2533 7F680CD1 		.ascii	"\177h\014\321\360q~l\306\316>\337\230\362\252\"\237"
 790      F0717E6C 
 790      C6CE3EDF 
 790      98F2AA22 
 790      9F
 791 2544 F235FD5F 		.ascii	"\3625\375_GW\005K#\367\007\313\037\026\300\341Pr\301"
 791      4757054B 
 791      23F707CB 
 791      1F16C0E1 
 791      5072C1
 792 2557 051D478D 		.ascii	"\005\035G\215\330mPmv\314\360\270r\2759\005\217\217"
 792      D86D506D 
 792      76CCF0B8 
 792      72BD3905 
 792      8F8F
 793 2569 2874E47A 		.ascii	"(t\344z}y\217\245C\014]\3741_\016\370\310\220\036>\252"
 793      7D798FA5 
 793      430C5DFC 
 793      315F0EF8 
 793      C8901E3E 
 794 257e 90243320 		.ascii	"\220$3 9*\257P\231\214\340\027_\356\360\0219J2\177p"
 794      392AAF50 
 794      998CE017 
 794      5FEEF011 
 794      394A327F 
 795 2593 E1B02E78 		.ascii	"\341\260.x\367\237\006\217\030\236\355\0335xdN\032A"
 795      F79F068F 
 795      189EED1B 
 795      3578644E 
 795      1A41
ARM GAS  /tmp/ccpNBtS9.s 			page 64


 796 25a5 CA19353C 		.ascii	"\312\0315<'\333\015\251\234\277\014/(\354\306\334\222"
 796      27DB0DA9 
 796      9CBF0C2F 
 796      28ECC6DC 
 796      92
 797 25b6 37E48F60 		.ascii	"7\344\217`C\272C\016\261\0249\276|o^!d\344dwen\312\366"
 797      43BA430E 
 797      B11439BE 
 797      7C6F5E21 
 797      64E46477 
 798 25ce 122BA4D4 		.ascii	"\022+\244\324\2353j\360\220\021\364w\245\366\202'\012"
 798      9D336AF0 
 798      9011F477 
 798      A5F68227 
 798      0A
 799 25df 0A734692 		.ascii	"\012sF\222\212G>\226[\340\033<$\317\013\000\204\246"
 799      8A473E96 
 799      5BE01B3C 
 799      24CF0B00 
 799      84A6
 800 25f1 C2E12373 		.ascii	"\302\341#s\362\036/$4\214\310\313z,'\273{\014$\357\361"
 800      F21E2F24 
 800      348CC8CB 
 800      7A2C27BB 
 800      7B0C24EF 
 801 2606 A1C3C0A8 		.ascii	"\241\303\300\250ys\356 \367\345\345\371F\016\036\365"
 801      7973EE20 
 801      F7E5E5F9 
 801      460E1EF5 
 802 2616 842F2F3F 		.ascii	"\204//?g\024\305\354\301\324\017#-pR\230\343u\024f\015"
 802      6714C5EC 
 802      C1D40F23 
 802      2D705298 
 802      E3751466 
 803 262b 1BEC7595 		.ascii	"\033\354u\225\370\312Hcu\002\001f)\026\274hl\341\330"
 803      F8CA4863 
 803      75020166 
 803      2916BC68 
 803      6CE1D8
 804 263e E282D240 		.ascii	"\342\202\322@\240\222\030\225\202\010\250\003\221o\336"
 804      A0921895 
 804      8208A803 
 804      916FDE
 805 264d E8FF845F 		.ascii	"\350\377\204_\211Jd\320\231\006u\351z\372\224\251\225"
 805      894A64D0 
 805      990675E9 
 805      7AFA94A9 
 805      95
 806 265e 0FE62863 		.ascii	"\017\346(cB\025U\225d@\225r\013\234\004\022\306Y2\233"
 806      42155595 
 806      64409572 
 806      0B9C0412 
 806      C659329B 
 807 2672 1C08636E 		.ascii	"\034\010cn\026\216\271\020w\242\326&\037 \244\202\354"
 807      168EB910 
 807      77A2D626 
 807      1F20A482 
ARM GAS  /tmp/ccpNBtS9.s 			page 65


 807      EC
 808 2683 FF01A174 		.ascii	"\377\001\241t\340\233"
 808      E09B
 809              		.text
 810              		.section	.gnu.lto_.symtab.a074ba61be8f47d3,"",%progbits
 811 0000 73645F69 		.ascii	"sd_is_card_inserted\000\000\000\000\000\000\000\000"
 811      735F6361 
 811      72645F69 
 811      6E736572 
 811      74656400 
 812 001b 00000000 		.ascii	"\000\000\000\000\227\002\000\000sd_is_write_protect"
 812      97020000 
 812      73645F69 
 812      735F7772 
 812      6974655F 
 813 0036 65640000 		.ascii	"ed\000\000\000\000\000\000\000\000\000\000\000\000\372"
 813      00000000 
 813      00000000 
 813      0000FA
 814 0045 02000073 		.ascii	"\002\000\000sdmmcInitialize\000\000\000\000\000\000"
 814      646D6D63 
 814      496E6974 
 814      69616C69 
 814      7A650000 
 815 005d 00000000 		.ascii	"\000\000\000\000\000\000\376\002\000\000sdmmGetMMCD"
 815      0000FE02 
 815      00007364 
 815      6D6D4765 
 815      744D4D43 
 816 0072 72697665 		.ascii	"river\000\000\000\000\000\000\000\000\000\000\000\000"
 816      72000000 
 816      00000000 
 816      00000000 
 816      00
 817 0083 B8030000 		.ascii	"\270\003\000\000sdmmcGetFS\000\000\000\000\000\000\000"
 817      73646D6D 
 817      63476574 
 817      46530000 
 817      00000000 
 818 0098 00000000 		.ascii	"\000\000\000\000\000\276\003\000\000sdmmcFSMounted\000"
 818      00BE0300 
 818      0073646D 
 818      6D634653 
 818      4D6F756E 
 819 00b0 00000000 		.ascii	"\000\000\000\000\000\000\000\000\000\000\000\304\003"
 819      00000000 
 819      000000C4 
 819      03
 820 00bd 00005350 		.ascii	"\000\000SPID3\000\000\002\000\000\000\000\000\000\000"
 820      49443300 
 820      00020000 
 820      00000000 
 820      00
 821 00ce 00003204 		.ascii	"\000\0002\004\000\000chvprintf\000\000\002\000\000\000"
 821      00006368 
 821      76707269 
 821      6E746600 
ARM GAS  /tmp/ccpNBtS9.s 			page 66


 821      00020000 
 822 00e3 00000000 		.ascii	"\000\000\000\000\000\000\313\003\000\000mmcDisconne"
 822      0000CB03 
 822      00006D6D 
 822      63446973 
 822      636F6E6E 
 823 00f8 63740000 		.ascii	"ct\000\000\002\000\000\000\000\000\000\000\000\000\332"
 823      02000000 
 823      00000000 
 823      0000DA
 824 0107 03000066 		.ascii	"\003\000\000f_mount\000\000\002\000\000\000\000\000"
 824      5F6D6F75 
 824      6E740000 
 824      02000000 
 824      0000
 825 0119 00000000 		.ascii	"\000\000\000\000\334\003\000\000mmcConnect\000\000\002"
 825      DC030000 
 825      6D6D6343 
 825      6F6E6E65 
 825      63740000 
 826 012e 00000000 		.ascii	"\000\000\000\000\000\000\000\000\000\024\004\000\000"
 826      00000000 
 826      00140400 
 826      00
 827 013b 63685468 		.ascii	"chThdSleep\000\000\002\000\000\000\000\000\000\000\000"
 827      64536C65 
 827      65700000 
 827      02000000 
 827      00000000 
 828 0150 00160400 		.ascii	"\000\026\004\000\000mmcStart\000\000\002\000\000\000"
 828      006D6D63 
 828      53746172 
 828      74000002 
 828      000000
 829 0163 00000000 		.ascii	"\000\000\000\000\000\000\032\004\000\000mmcObjectIn"
 829      00001A04 
 829      00006D6D 
 829      634F626A 
 829      65637449 
 830 0178 69740000 		.ascii	"it\000\000\002\000\000\000\000\000\000\000\000\000\037"
 830      02000000 
 830      00000000 
 830      00001F
 831 0187 0400005F 		.ascii	"\004\000\000_pal_lld_setgroupmode\000\000\002\000\000"
 831      70616C5F 
 831      6C6C645F 
 831      73657467 
 831      726F7570 
 832 01a4 00000000 		.ascii	"\000\000\000\000\000\000\000#\004\000\000"
 832      00000023 
 832      040000
 833              		.text
 834              		.section	.gnu.lto_.opts,"",%progbits
 835 0000 272D6D63 		.ascii	"'-mcpu=cortex-m4' '-mfloat-abi=hard' '-mfpu=fpv4-sp"
 835      70753D63 
 835      6F727465 
 835      782D6D34 
ARM GAS  /tmp/ccpNBtS9.s 			page 67


 835      2720272D 
 836 0033 2D643136 		.ascii	"-d16' '-mno-thumb-interwork' '-mthumb' '-O2' '-fomi"
 836      2720272D 
 836      6D6E6F2D 
 836      7468756D 
 836      622D696E 
 837 0066 742D6672 		.ascii	"t-frame-pointer' '-falign-functions=16' '-ffunction"
 837      616D652D 
 837      706F696E 
 837      74657227 
 837      20272D66 
 838 0099 2D736563 		.ascii	"-sections' '-fdata-sections' '-fno-common' '-flto' "
 838      74696F6E 
 838      73272027 
 838      2D666461 
 838      74612D73 
 839 00cc 272D6673 		.ascii	"'-fsingle-precision-constant'\000"
 839      696E676C 
 839      652D7072 
 839      65636973 
 839      696F6E2D 
 840              		.text
 841              		.section	.text.chprintf,"ax",%progbits
 842              		.align	2
 843              		.p2align 4,,15
 844              		.thumb
 845              		.thumb_func
 846              		.type	chprintf, %function
 847              	chprintf:
 848              		@ args = 4, pretend = 12, frame = 8
 849              		@ frame_needed = 0, uses_anonymous_args = 1
 850 0000 0EB4     		push	{r1, r2, r3}
 851 0002 00B5     		push	{lr}
 852 0004 82B0     		sub	sp, sp, #8
 853 0006 03AA     		add	r2, sp, #12
 854 0008 52F8041B 		ldr	r1, [r2], #4
 855 000c 0192     		str	r2, [sp, #4]
 856 000e FFF7FEFF 		bl	chvprintf
 857 0012 02B0     		add	sp, sp, #8
 858              		@ sp needed
 859 0014 5DF804EB 		ldr	lr, [sp], #4
 860 0018 03B0     		add	sp, sp, #12
 861 001a 7047     		bx	lr
 862              		.size	chprintf, .-chprintf
 863 001c AFF30080 		.section	.text.sd_is_card_inserted,"ax",%progbits
 864              		.align	2
 865              		.p2align 4,,15
 866              		.global	sd_is_card_inserted
 867              		.thumb
 868              		.thumb_func
 869              		.type	sd_is_card_inserted, %function
 870              	sd_is_card_inserted:
 871              		@ args = 0, pretend = 0, frame = 0
 872              		@ frame_needed = 0, uses_anonymous_args = 0
 873              		@ link register save eliminated.
 874 0000 034B     		ldr	r3, .L3
 875 0002 1869     		ldr	r0, [r3, #16]
ARM GAS  /tmp/ccpNBtS9.s 			page 68


 876 0004 C0F38000 		ubfx	r0, r0, #2, #1
 877 0008 80F00100 		eor	r0, r0, #1
 878 000c 7047     		bx	lr
 879              	.L4:
 880 000e 00BF     		.align	2
 881              	.L3:
 882 0010 000C0240 		.word	1073875968
 883              		.size	sd_is_card_inserted, .-sd_is_card_inserted
 884 0014 AFF30080 		.section	.text.sd_is_write_protected,"ax",%progbits
 884      AFF30080 
 884      AFF30080 
 885              		.align	2
 886              		.p2align 4,,15
 887              		.global	sd_is_write_protected
 888              		.thumb
 889              		.thumb_func
 890              		.type	sd_is_write_protected, %function
 891              	sd_is_write_protected:
 892              		@ args = 0, pretend = 0, frame = 0
 893              		@ frame_needed = 0, uses_anonymous_args = 0
 894              		@ link register save eliminated.
 895 0000 024B     		ldr	r3, .L6
 896 0002 1869     		ldr	r0, [r3, #16]
 897 0004 C0F38000 		ubfx	r0, r0, #2, #1
 898 0008 7047     		bx	lr
 899              	.L7:
 900 000a 00BF     		.align	2
 901              	.L6:
 902 000c 000C0240 		.word	1073875968
 903              		.size	sd_is_write_protected, .-sd_is_write_protected
 904              		.section	.text.sdmmcInitialize,"ax",%progbits
 905              		.align	2
 906              		.p2align 4,,15
 907              		.global	sdmmcInitialize
 908              		.thumb
 909              		.thumb_func
 910              		.type	sdmmcInitialize, %function
 911              	sdmmcInitialize:
 912              		@ args = 0, pretend = 0, frame = 0
 913              		@ frame_needed = 0, uses_anonymous_args = 0
 914 0000 F8B5     		push	{r3, r4, r5, r6, r7, lr}
 915 0002 0446     		mov	r4, r0
 916 0004 3C4D     		ldr	r5, .L22
 917 0006 3D4F     		ldr	r7, .L22+4
 918 0008 DFF828E1 		ldr	lr, .L22+60
 919 000c 3C48     		ldr	r0, .L22+8
 920 000e 3D4E     		ldr	r6, .L22+12
 921 0010 2160     		str	r1, [r4]
 922 0012 0023     		movs	r3, #0
 923 0014 A360     		str	r3, [r4, #8]
 924 0016 6373     		strb	r3, [r4, #13]
 925 0018 6060     		str	r0, [r4, #4]
 926 001a 2A60     		str	r2, [r5]
 927 001c 3846     		mov	r0, r7
 928 001e 4FF40041 		mov	r1, #32768
 929 0022 1922     		movs	r2, #25
 930 0024 CEF80040 		str	r4, [lr]
ARM GAS  /tmp/ccpNBtS9.s 			page 69


 931 0028 FFF7FEFF 		bl	_pal_lld_setgroupmode
 932 002c 3046     		mov	r0, r6
 933 002e 0421     		movs	r1, #4
 934 0030 2022     		movs	r2, #32
 935 0032 FFF7FEFF 		bl	_pal_lld_setgroupmode
 936 0036 3448     		ldr	r0, .L22+16
 937 0038 4FF48061 		mov	r1, #1024
 938 003c 40F29A22 		movw	r2, #666
 939 0040 FFF7FEFF 		bl	_pal_lld_setgroupmode
 940 0044 3048     		ldr	r0, .L22+16
 941 0046 4FF48051 		mov	r1, #4096
 942 004a 40F29A22 		movw	r2, #666
 943 004e FFF7FEFF 		bl	_pal_lld_setgroupmode
 944 0052 4FF40061 		mov	r1, #2048
 945 0056 40F28222 		movw	r2, #642
 946 005a 2B48     		ldr	r0, .L22+16
 947 005c FFF7FEFF 		bl	_pal_lld_setgroupmode
 948 0060 2068     		ldr	r0, [r4]
 949 0062 FFF7FEFF 		bl	mmcObjectInit
 950 0066 2068     		ldr	r0, [r4]
 951 0068 2849     		ldr	r1, .L22+20
 952 006a FFF7FEFF 		bl	mmcStart
 953 006e 3369     		ldr	r3, [r6, #16]
 954 0070 5B07     		lsls	r3, r3, #29
 955 0072 28D4     		bmi	.L19
 956 0074 2649     		ldr	r1, .L22+24
 957 0076 2868     		ldr	r0, [r5]
 958 0078 FFF7FEFF 		bl	chprintf
 959 007c 4FF40043 		mov	r3, #32768
 960 0080 7B83     		strh	r3, [r7, #26]	@ movhi
 961 0082 4FF4FA60 		mov	r0, #2000
 962 0086 FFF7FEFF 		bl	chThdSleep
 963 008a 2249     		ldr	r1, .L22+28
 964 008c 2868     		ldr	r0, [r5]
 965 008e FFF7FEFF 		bl	chprintf
 966 0092 2068     		ldr	r0, [r4]
 967 0094 FFF7FEFF 		bl	mmcConnect
 968 0098 0746     		mov	r7, r0
 969 009a D8B9     		cbnz	r0, .L20
 970 009c 1E49     		ldr	r1, .L22+32
 971 009e 2868     		ldr	r0, [r5]
 972 00a0 FFF7FEFF 		bl	chprintf
 973 00a4 1D48     		ldr	r0, .L22+36
 974 00a6 A060     		str	r0, [r4, #8]
 975 00a8 1D49     		ldr	r1, .L22+40
 976 00aa 3A46     		mov	r2, r7
 977 00ac FFF7FEFF 		bl	f_mount
 978 00b0 0646     		mov	r6, r0
 979 00b2 2868     		ldr	r0, [r5]
 980 00b4 B6B9     		cbnz	r6, .L21
 981 00b6 1B49     		ldr	r1, .L22+44
 982 00b8 FFF7FEFF 		bl	chprintf
 983 00bc 0123     		movs	r3, #1
 984 00be 3046     		mov	r0, r6
 985 00c0 6373     		strb	r3, [r4, #13]
 986              	.L11:
 987 00c2 40B2     		sxtb	r0, r0
ARM GAS  /tmp/ccpNBtS9.s 			page 70


 988 00c4 F8BD     		pop	{r3, r4, r5, r6, r7, pc}
 989              	.L19:
 990 00c6 2868     		ldr	r0, [r5]
 991 00c8 1749     		ldr	r1, .L22+48
 992 00ca FFF7FEFF 		bl	chprintf
 993 00ce FD20     		movs	r0, #253
 994 00d0 40B2     		sxtb	r0, r0
 995 00d2 F8BD     		pop	{r3, r4, r5, r6, r7, pc}
 996              	.L20:
 997 00d4 2868     		ldr	r0, [r5]
 998 00d6 1549     		ldr	r1, .L22+52
 999 00d8 0122     		movs	r2, #1
 1000 00da FFF7FEFF 		bl	chprintf
 1001 00de 0120     		movs	r0, #1
 1002 00e0 40B2     		sxtb	r0, r0
 1003 00e2 F8BD     		pop	{r3, r4, r5, r6, r7, pc}
 1004              	.L21:
 1005 00e4 1249     		ldr	r1, .L22+56
 1006 00e6 FFF7FEFF 		bl	chprintf
 1007 00ea 2068     		ldr	r0, [r4]
 1008 00ec FFF7FEFF 		bl	mmcDisconnect
 1009 00f0 A760     		str	r7, [r4, #8]
 1010 00f2 FE20     		movs	r0, #254
 1011 00f4 E5E7     		b	.L11
 1012              	.L23:
 1013 00f6 00BF     		.align	2
 1014              	.L22:
 1015 00f8 00000000 		.word	.LANCHOR0
 1016 00fc 00000240 		.word	1073872896
 1017 0100 00000000 		.word	SPID3
 1018 0104 000C0240 		.word	1073875968
 1019 0108 00080240 		.word	1073874944
 1020 010c 00000000 		.word	.LANCHOR2
 1021 0110 98000000 		.word	.LC6
 1022 0114 AC000000 		.word	.LC7
 1023 0118 20000000 		.word	.LC1
 1024 011c 00000000 		.word	.LANCHOR3
 1025 0120 3C000000 		.word	.LC2
 1026 0124 60000000 		.word	.LC4
 1027 0128 7C000000 		.word	.LC5
 1028 012c 00000000 		.word	.LC0
 1029 0130 40000000 		.word	.LC3
 1030 0134 00000000 		.word	.LANCHOR1
 1031              		.size	sdmmcInitialize, .-sdmmcInitialize
 1032 0138 AFF30080 		.section	.text.sdmmGetMMCDriver,"ax",%progbits
 1032      AFF30080 
 1033              		.align	2
 1034              		.p2align 4,,15
 1035              		.global	sdmmGetMMCDriver
 1036              		.thumb
 1037              		.thumb_func
 1038              		.type	sdmmGetMMCDriver, %function
 1039              	sdmmGetMMCDriver:
 1040              		@ args = 0, pretend = 0, frame = 0
 1041              		@ frame_needed = 0, uses_anonymous_args = 0
 1042              		@ link register save eliminated.
 1043 0000 037B     		ldrb	r3, [r0, #12]	@ zero_extendqisi2
ARM GAS  /tmp/ccpNBtS9.s 			page 71


 1044 0002 0BB1     		cbz	r3, .L26
 1045 0004 0068     		ldr	r0, [r0]
 1046 0006 7047     		bx	lr
 1047              	.L26:
 1048 0008 1846     		mov	r0, r3
 1049 000a 7047     		bx	lr
 1050              		.size	sdmmGetMMCDriver, .-sdmmGetMMCDriver
 1051 000c AFF30080 		.section	.text.sdmmcGetFS,"ax",%progbits
 1052              		.align	2
 1053              		.p2align 4,,15
 1054              		.global	sdmmcGetFS
 1055              		.thumb
 1056              		.thumb_func
 1057              		.type	sdmmcGetFS, %function
 1058              	sdmmcGetFS:
 1059              		@ args = 0, pretend = 0, frame = 0
 1060              		@ frame_needed = 0, uses_anonymous_args = 0
 1061              		@ link register save eliminated.
 1062 0000 437B     		ldrb	r3, [r0, #13]	@ zero_extendqisi2
 1063 0002 0BB1     		cbz	r3, .L29
 1064 0004 8068     		ldr	r0, [r0, #8]
 1065 0006 7047     		bx	lr
 1066              	.L29:
 1067 0008 1846     		mov	r0, r3
 1068 000a 7047     		bx	lr
 1069              		.size	sdmmcGetFS, .-sdmmcGetFS
 1070 000c AFF30080 		.section	.text.sdmmcFSMounted,"ax",%progbits
 1071              		.align	2
 1072              		.p2align 4,,15
 1073              		.global	sdmmcFSMounted
 1074              		.thumb
 1075              		.thumb_func
 1076              		.type	sdmmcFSMounted, %function
 1077              	sdmmcFSMounted:
 1078              		@ args = 0, pretend = 0, frame = 0
 1079              		@ frame_needed = 0, uses_anonymous_args = 0
 1080              		@ link register save eliminated.
 1081 0000 407B     		ldrb	r0, [r0, #13]	@ zero_extendqisi2
 1082 0002 7047     		bx	lr
 1083              		.size	sdmmcFSMounted, .-sdmmcFSMounted
 1084 0004 AFF30080 		.section	.data.hsCfg,"aw",%progbits
 1084      AFF30080 
 1084      AFF30080 
 1085              		.align	2
 1086              		.type	hsCfg, %object
 1087              		.size	hsCfg, 12
 1088              	hsCfg:
 1089 0000 00000000 		.word	0
 1090 0004 00000240 		.word	1073872896
 1091 0008 0F00     		.short	15
 1092 000a 1000     		.short	16
 1093              		.section	.data.mmcCfg,"aw",%progbits
 1094              		.align	2
 1095              		.set	.LANCHOR2,. + 0
 1096              		.type	mmcCfg, %object
 1097              		.size	mmcCfg, 12
 1098              	mmcCfg:
ARM GAS  /tmp/ccpNBtS9.s 			page 72


 1099 0000 00000000 		.word	SPID3
 1100 0004 00000000 		.word	lsCfg
 1101 0008 00000000 		.word	hsCfg
 1102              		.section	.bss.serialPort,"aw",%nobits
 1103              		.align	2
 1104              		.set	.LANCHOR0,. + 0
 1105              		.type	serialPort, %object
 1106              		.size	serialPort, 4
 1107              	serialPort:
 1108 0000 00000000 		.space	4
 1109              		.section	.bss.SD,"aw",%nobits
 1110              		.align	2
 1111              		.set	.LANCHOR1,. + 0
 1112              		.type	SD, %object
 1113              		.size	SD, 4
 1114              	SD:
 1115 0000 00000000 		.space	4
 1116              		.section	.rodata.str1.4,"aMS",%progbits,1
 1117              		.align	2
 1118              	.LC0:
 1119 0000 53442F4D 		.ascii	"SD/MMC:ERROR Connect,ERR%02d\012\000"
 1119      4D433A45 
 1119      52524F52 
 1119      20436F6E 
 1119      6E656374 
 1120 001e 0000     		.space	2
 1121              	.LC1:
 1122 0020 53442F4D 		.ascii	"SD/MMC: Connection Done\012\000"
 1122      4D433A20 
 1122      436F6E6E 
 1122      65637469 
 1122      6F6E2044 
 1123 0039 000000   		.space	3
 1124              	.LC2:
 1125 003c 2F00     		.ascii	"/\000"
 1126 003e 0000     		.space	2
 1127              	.LC3:
 1128 0040 53442F4D 		.ascii	"SD/MMC:File System Mount Error\012\000"
 1128      4D433A46 
 1128      696C6520 
 1128      53797374 
 1128      656D204D 
 1129              	.LC4:
 1130 0060 53442F4D 		.ascii	"SD/MMC:File System Mounted\012\000"
 1130      4D433A46 
 1130      696C6520 
 1130      53797374 
 1130      656D204D 
 1131              	.LC5:
 1132 007c 53442F4D 		.ascii	"SD/MMC:No SD Card Found\012\000"
 1132      4D433A4E 
 1132      6F205344 
 1132      20436172 
 1132      6420466F 
 1133 0095 000000   		.space	3
 1134              	.LC6:
 1135 0098 53442F4D 		.ascii	"SD/MMC:Card Found\012\000"
ARM GAS  /tmp/ccpNBtS9.s 			page 73


 1135      4D433A43 
 1135      61726420 
 1135      466F756E 
 1135      640A00
 1136 00ab 00       		.space	1
 1137              	.LC7:
 1138 00ac 53442F4D 		.ascii	"SD/MMC:Connecting\012\000"
 1138      4D433A43 
 1138      6F6E6E65 
 1138      6374696E 
 1138      670A00
 1139 00bf 00       		.section	.data.lsCfg,"aw",%progbits
 1140              		.align	2
 1141              		.type	lsCfg, %object
 1142              		.size	lsCfg, 12
 1143              	lsCfg:
 1144 0000 00000000 		.word	0
 1145 0004 00000240 		.word	1073872896
 1146 0008 0F00     		.short	15
 1147 000a 3000     		.short	48
 1148              		.section	.bss.FS,"aw",%nobits
 1149              		.align	2
 1150              		.set	.LANCHOR3,. + 0
 1151              		.type	FS, %object
 1152              		.size	FS, 560
 1153              	FS:
 1154 0000 00000000 		.space	560
 1154      00000000 
 1154      00000000 
 1154      00000000 
 1154      00000000 
 1155              		.comm	__gnu_lto_v1,1,1
 1156              		.ident	"GCC: (GNU Tools for ARM Embedded Processors) 4.8.4 20140526 (release) [ARM/embedded-4_8-br
ARM GAS  /tmp/ccpNBtS9.s 			page 74


DEFINED SYMBOLS
                            *ABS*:0000000000000000 sdmmcsimple.c
     /tmp/ccpNBtS9.s:842    .text.chprintf:0000000000000000 $t
     /tmp/ccpNBtS9.s:847    .text.chprintf:0000000000000000 chprintf
     /tmp/ccpNBtS9.s:864    .text.sd_is_card_inserted:0000000000000000 $t
     /tmp/ccpNBtS9.s:870    .text.sd_is_card_inserted:0000000000000000 sd_is_card_inserted
     /tmp/ccpNBtS9.s:882    .text.sd_is_card_inserted:0000000000000010 $d
     /tmp/ccpNBtS9.s:885    .text.sd_is_write_protected:0000000000000000 $t
     /tmp/ccpNBtS9.s:891    .text.sd_is_write_protected:0000000000000000 sd_is_write_protected
     /tmp/ccpNBtS9.s:902    .text.sd_is_write_protected:000000000000000c $d
     /tmp/ccpNBtS9.s:905    .text.sdmmcInitialize:0000000000000000 $t
     /tmp/ccpNBtS9.s:911    .text.sdmmcInitialize:0000000000000000 sdmmcInitialize
     /tmp/ccpNBtS9.s:1015   .text.sdmmcInitialize:00000000000000f8 $d
     /tmp/ccpNBtS9.s:1033   .text.sdmmGetMMCDriver:0000000000000000 $t
     /tmp/ccpNBtS9.s:1039   .text.sdmmGetMMCDriver:0000000000000000 sdmmGetMMCDriver
     /tmp/ccpNBtS9.s:1052   .text.sdmmcGetFS:0000000000000000 $t
     /tmp/ccpNBtS9.s:1058   .text.sdmmcGetFS:0000000000000000 sdmmcGetFS
     /tmp/ccpNBtS9.s:1071   .text.sdmmcFSMounted:0000000000000000 $t
     /tmp/ccpNBtS9.s:1077   .text.sdmmcFSMounted:0000000000000000 sdmmcFSMounted
     /tmp/ccpNBtS9.s:1085   .data.hsCfg:0000000000000000 $d
     /tmp/ccpNBtS9.s:1088   .data.hsCfg:0000000000000000 hsCfg
     /tmp/ccpNBtS9.s:1094   .data.mmcCfg:0000000000000000 $d
     /tmp/ccpNBtS9.s:1098   .data.mmcCfg:0000000000000000 mmcCfg
     /tmp/ccpNBtS9.s:1143   .data.lsCfg:0000000000000000 lsCfg
     /tmp/ccpNBtS9.s:1103   .bss.serialPort:0000000000000000 $d
     /tmp/ccpNBtS9.s:1107   .bss.serialPort:0000000000000000 serialPort
     /tmp/ccpNBtS9.s:1110   .bss.SD:0000000000000000 $d
     /tmp/ccpNBtS9.s:1114   .bss.SD:0000000000000000 SD
     /tmp/ccpNBtS9.s:1117   .rodata.str1.4:0000000000000000 $d
     /tmp/ccpNBtS9.s:1140   .data.lsCfg:0000000000000000 $d
     /tmp/ccpNBtS9.s:1149   .bss.FS:0000000000000000 $d
     /tmp/ccpNBtS9.s:1153   .bss.FS:0000000000000000 FS
                            *COM*:0000000000000001 __gnu_lto_v1
     /tmp/ccpNBtS9.s:884    .text.sd_is_card_inserted:0000000000000014 $t
     /tmp/ccpNBtS9.s:1032   .text.sdmmcInitialize:0000000000000138 $t

UNDEFINED SYMBOLS
chvprintf
_pal_lld_setgroupmode
mmcObjectInit
mmcStart
chThdSleep
mmcConnect
f_mount
mmcDisconnect
SPID3
