ARM GAS  /tmp/ccKQ3QAX.s 			page 1


   1              		.syntax unified
   2              		.cpu cortex-m4
   3              		.eabi_attribute 27, 3
   4              		.eabi_attribute 28, 1
   5              		.fpu fpv4-sp-d16
   6              		.eabi_attribute 20, 1
   7              		.eabi_attribute 21, 1
   8              		.eabi_attribute 23, 3
   9              		.eabi_attribute 24, 1
  10              		.eabi_attribute 25, 1
  11              		.eabi_attribute 26, 1
  12              		.eabi_attribute 30, 2
  13              		.eabi_attribute 34, 1
  14              		.eabi_attribute 18, 4
  15              		.thumb
  16              		.file	"sdmmcsimple.c"
  17              		.section	.gnu.lto_.jmpfuncs.81d8cfb4d0ce84bd,"",%progbits
  18 0000 789C7591 		.ascii	"x\234u\221\277K\303@\024\200\337\313\265\246M\255\215"
  18      BF4BC340 
  18      1480DFCB 
  18      B5A64DAD 
  18      8D
  19 0011 712ACA71 		.ascii	"q*\312q\213\233Pq\022'!m\267($\213\202\213\330\014\001"
  19      8B9B5071 
  19      1227216D 
  19      B728248B 
  19      828BD80C 
  20 0026 93408C05 		.ascii	"\223@\214\005\351r8u\022\307 \370\0179\371\3678y\227"
  20      E9723875 
  20      12C720F8 
  20      0F39F9F7 
  20      387997
  21 0039 BBD8449A 		.ascii	"\273\330D\232[\356\335}\337\373q\234\001\006l[_\010"
  21      5BEEDD7D 
  21      DFFB719C 
  21      01066C5B 
  21      5F08
  22 004b F0267613 		.ascii	"\360&v\023\210\210\010\021\341R\354\000\270\224X$\031"
  22      88880811 
  22      E152EC00 
  22      B8945824 
  22      19
  23 005c 3718A18C 		.ascii	"7\030\241\214Q\234\210)oV\360\303\013nG\210\024\360"
  23      519C8829 
  23      6F56F0C3 
  23      0B6E4788 
  23      14F0
  24 006e 93179711 		.ascii	"\223\027\227\021\252\352\015H(\034*\330\001\225\337"
  24      AAEA0D48 
  24      281C2AD8 
  24      0195DF
  25 007d E45D0AE7 		.ascii	"\344]\012\347\212\357\224\234\224h-\221\031\243\252"
  25      8AEF949C 
  25      94682D91 
  25      19A3AA
  26 008c F727F728 		.ascii	"\367'\367(\334*\271\257\210\234\312\202r\324\2155\240"
  26      DC2AB9AF 
ARM GAS  /tmp/ccKQ3QAX.s 			page 2


  26      889CCA82 
  26      72D48D35 
  26      A0
  27 009d 70A7AC5D 		.ascii	"p\247\254]\375>Q\007Kw\370=\372\327\177\217\302J\311"
  27      FD3E5107 
  27      4B77F83D 
  27      FAD77F8F 
  27      C24AC9
  28 00b0 A3C6F0E5 		.ascii	"\243\306\360\345\004v\214\372\321b.\231\277\317\337"
  28      04768CFA 
  28      D1622E99 
  28      BFCFDF
  29 00bf D7BCA31B 		.ascii	"\327\274\243\033\017\271\255#\347\265\333b\260\312\370"
  29      0FB9AD23 
  29      E7B5DB62 
  29      B0CAF8
  30 00ce 68337ADB 		.ascii	"h3z\333\214\242fT\201\3036\234\327+\360\352\177\234"
  30      8CA26654 
  30      81C3369C 
  30      D72BF0EA 
  30      7F9C
  31 00e0 31401F2D 		.ascii	"1@\037-\034 \214\203\351\304\363\334\213\253\224\005"
  31      1C208C83 
  31      E9C4F3DC 
  31      8BAB9405 
  32 00f0 53E6DE67 		.ascii	"S\346\336g\0136O\237\223\205\005G\232\314\243\307\220"
  32      0B364F9F 
  32      93850547 
  32      9ACCA3C7 
  32      90
  33 0101 052F4F79 		.ascii	"\005/Oy\0303O\240<\024\220\265A6\313\2624\263\300\230"
  33      18334FA0 
  33      3C1490B5 
  33      4136CBB2 
  33      34B3C098 
  34 0115 00D5CECC 		.ascii	"\000\325\316\314\367\257}\346\246I\022>\344'\342t|z"
  34      F7AF7DE6 
  34      A649123E 
  34      E427E274 
  34      7C7A
  35 0127 264A1C68 		.ascii	"&J\034h\\\357\371\013\321Vx\253"
  35      5CEFF90B 
  35      D15678AB 
  36              		.text
  37              		.section	.gnu.lto_.inline.81d8cfb4d0ce84bd,"",%progbits
  38 0000 789C8D91 		.ascii	"x\234\215\221\275\015\3020\020\205\337\235M\034\022"
  38      BD0DC230 
  38      1085DF9D 
  38      4D1C12
  39 000f 4041B448 		.ascii	"@A\264H\320Q\263\000b\202\324\224P\021\366\240\240\314"
  39      D051B300 
  39      6282D494 
  39      5011F6A0 
  39      A0CC
  40 0021 08E9E998 		.ascii	"\010\351\351\230\200)\230\201\0021\003\3473I\020\002"
  40      80299881 
  40      023103E7 
ARM GAS  /tmp/ccKQ3QAX.s 			page 3


  40      33491002 
  41 0031 842DDDD9 		.ascii	"\204-\335\331\317\337=\3771\030\237ZE!;\330t\014\205"
  41      CFDF3DFF 
  41      31189F5A 
  41      45213BD8 
  41      740C85
  42 0044 A26AD2B0 		.ascii	"\242j\322\260\204\316\0000e\356\273\351)@\210\035\201"
  42      84CE0030 
  42      65EEBBE9 
  42      2940881D 
  42      81
  43 0055 93326F50 		.ascii	"\2232oP\206\213D\212\317\213F2\270\340H\"\316o'\306"
  43      868B448A 
  43      CF8B4632 
  43      B8E04822 
  43      CE6F27C6 
  44 0069 F0BE09AA 		.ascii	"\360\276\011\252\267\220\302:s*~Og\231\352f\202\331"
  44      B790C23A 
  44      732A7E4F 
  44      6799EA66 
  44      82D9
  45 007b BE6E8AB0 		.ascii	"\276n\212\260\"\200r\337\252\225\256\253~\344\256?\245"
  45      228072DF 
  45      AA95AEAB 
  45      7EE4AE3F 
  45      A5
  46 008c 45B1A21D 		.ascii	"E\261\242\035\215DZc\333\016\251\211\210\352G\240\253"
  46      8D445A63 
  46      DB0EA989 
  46      88EA47A0 
  46      AB
  47 009d CB189DC3 		.ascii	"\313\030\235\303,\003\355\335\324rH\376\"\311\233W\321"
  47      2C03EDDD 
  47      D47248FE 
  47      22C99B57 
  47      D1
  48 00ae 7A15EA12 		.ascii	"z\025\352\022\342\362\037\257\024\326\310Ki\225}\341"
  48      E2F21FAF 
  48      14D6C84B 
  48      69957DE1 
  49 00be 6D88FA11 		.ascii	"m\210\372\021\017 a)\210"
  49      0F206129 
  49      88
  50              		.text
  51              		.section	.gnu.lto_.pureconst.81d8cfb4d0ce84bd,"",%progbits
  52 0000 789C6362 		.ascii	"x\234cb`b\340g\200\000v\006\011F)&)f)NV.VnV\000\007"
  52      6062E067 
  52      80007606 
  52      09462926 
  52      2966294E 
  53 001b 1400B4   		.ascii	"\024\000\264"
  54              		.text
  55              		.section	.gnu.lto_chprintf.81d8cfb4d0ce84bd,"",%progbits
  56 0000 789C8550 		.ascii	"x\234\205P\315J\002Q\024>\337\0355uc\333v\342\0034\213"
  56      CD4A0251 
  56      143EDF1D 
  56      357563DB 
ARM GAS  /tmp/ccKQ3QAX.s 			page 4


  56      76E20334 
  57 0015 22E80D7A 		.ascii	"\"\350\015z\000\203Z\3058\216z\011\035\321Q\260\026"
  57      00835AC5 
  57      388E7A09 
  57      1DD151B0 
  57      16
  58 0026 5EC1C245 		.ascii	"^\301\302E\013ig\021)\321:\244\027\030\202\332DI\273"
  58      0B696711 
  58      29D13AA4 
  58      171882DA 
  58      4449BB
  59 0039 162D2497 		.ascii	"\026-$\227\265h\321*\202\351\336\031\024\372\201\016"
  59      B568D12A 
  59      82E9DE19 
  59      14FA810E 
  60 0049 DC7B7EBE 		.ascii	"\334{~\276s\276\363\303\210\321OY\220o\010\2425\251"
  60      73BEF3C3 
  60      88D14F59 
  60      906F08A2 
  60      35A9
  61 005b A11158F7 		.ascii	"\241\021X\367\236\250\025e\2002\010\324dhnB\245\262"
  61      9EA81565 
  61      803208D4 
  61      64686E42 
  61      A5B2
  62 006d 140D84DB 		.ascii	"\024\015\204\333\035_O\036\321\023n\273/>=\017\340\220"
  62      1D5F4F1E 
  62      D1136EBB 
  62      2F3E3D0F 
  62      E090
  63 007f B42B2013 		.ascii	"\264+ \023\264!\035$}\305B\337\373\250Z\321uOon!\016"
  63      B4211D24 
  63      7DC542DF 
  63      FBA85AD1 
  63      754F6F6E 
  64 0095 45EBCDF3 		.ascii	"E\353\315\363\022\034\032\243\325\377\012/\230\373\354"
  64      121C1AA3 
  64      D5FF0A2F 
  64      98FBEC
  65 00a4 794FC3F7 		.ascii	"yO\303\367\203W\364XLC\021\024\222\037\"d\340\014)\225"
  65      8357F458 
  65      4C431114 
  65      921F2264 
  65      E00C2995 
  66 00b8 13A6B624 		.ascii	"\023\246\266$O\032\030H\177\0325\375\241\323\362W\233"
  66      4F1A1848 
  66      7F1A35FD 
  66      A1D3F257 
  66      9B
  67 00c9 AC8329AD 		.ascii	"\254\203)\255\215ho\3343\015\234#,\321]\372\020\035"
  67      8D686FDC 
  67      330D9C23 
  67      2CD15DFA 
  67      101D
  68 00db 31CF1132 		.ascii	"1\317\0212\341\247\313\310\016Gx\312\344g\251\2514\""
  68      E1A7CBC8 
  68      0E4778CA 
ARM GAS  /tmp/ccKQ3QAX.s 			page 5


  68      E467A9A9 
  68      3422
  69 00ed 2E3BD288 		.ascii	".;\322\210\366\307G\223x\200\344\021\231\021\314\231"
  69      F6C74793 
  69      7880E411 
  69      9911CC99 
  70 00fd 088E9B87 		.ascii	"\010\216\233\207\226G( \340\210\252\222\366\370\370"
  70      96472820 
  70      E088AA92 
  70      F6F8F8
  71 010c 77C798A9 		.ascii	"w\307\230\251H\377\356\310\021'\272\243\253\027\026"
  71      48FFEEC8 
  71      1127BAA3 
  71      AB1716
  72 011b 04027099 		.ascii	"\004\002p\231.EG\235[\312\003\265\372'\332l\214\340"
  72      2E45479D 
  72      5BCA03B5 
  72      FA27DA6C 
  72      8CE0
  73 012d 5469B983 		.ascii	"Ti\271\203\334Q\315\261\244\027\354\242\245\233v\266"
  73      DC51CDB1 
  73      A417ECA2 
  73      A59B76B6 
  74 013d A167ADBA 		.ascii	"\241g\255\272n\026x\206\333U\335\251\324J\333\2724\352"
  74      6E167886 
  74      DB55DDA9 
  74      D44ADBBA 
  74      34EA
  75 014f 4685DBB5 		.ascii	"F\205\333\265\252\004\312\025^rr\213\005bF9\221\263"
  75      AA04CA15 
  75      5E72728B 
  75      05624639 
  75      91B3
  76 0161 2B45C371 		.ascii	"+E\303q\254\354V\246\341X\325/\251H\201#"
  76      ACEC56A6 
  76      E158D52F 
  76      A9488123 
  77              		.text
  78              		.section	.gnu.lto_sd_is_card_inserted.81d8cfb4d0ce84bd,"",%progbits
  79 0000 789C5D50 		.ascii	"x\234]P;JCQ\020=g\346>\025\011\352\002D\354\005\003"
  79      3B4A4351 
  79      103D67E6 
  79      3E1509EA 
  79      0244EC05 
  80 0015 6EC42601 		.ascii	"n\304&\001-\365)!\340\003!\013\310\015>\3012eP\021l"
  80      2DF52921 
  80      E003210B 
  80      C80D3EC1 
  80      32655011 
  81 002a 45920568 		.ascii	"E\222\005h!V6\021\2044\006\013\027\340\036\342\314}"
  81      21563611 
  81      8434060B 
  81      17E01EE2 
  81      CC7D
  82 003c 248817EE 		.ascii	"$\210\027\356\231a\316\231\257@\360\377\355\331\337"
  82      9961CE99 
  82      AF40F0FF 
ARM GAS  /tmp/ccKQ3QAX.s 			page 6


  82      EDD9DF
  83 004b 24B06196 		.ascii	"$\260a\226\031(\375w\240\267\"\022\236\267\020WuRG\254"
  83      1928FD77 
  83      A0B72212 
  83      9EB71057 
  83      755247AC 
  84 005f 2943150E 		.ascii	")C\025\016\244; \272\242\201\335C\246\"#y\371\236\315"
  84      A43B20BA 
  84      A281DD43 
  84      A6222379 
  84      F99ECD
  85 0072 865F97D3 		.ascii	"\206_\227\323\345%\242M\250\001\203C\346`\222\014e\214"
  85      E525A24D 
  85      A8018343 
  85      E660920C 
  85      658C
  86 0084 FD6D204F 		.ascii	"\375m O)\015C\257\324\244\270\3251^\247\203\273\332"
  86      290D43AF 
  86      D4A4B8D5 
  86      315EA783 
  86      BBDA
  87 0096 11EF2DA3 		.ascii	"\021\357-\243E\335\301C,\331\246\334\340\332\214\036"
  87      45DDC143 
  87      2CD9A6DC 
  87      E0DA8C1E 
  88 00a6 188438B8 		.ascii	"\030\2048\270\212\001\311Mm\2179\337b\214\213\241\316"
  88      8A01C94D 
  88      6D8F39DF 
  88      628C8BA1 
  88      CE
  89 00b7 9343ABD2 		.ascii	"\223C\253\322gR1O\013&3\322\2314\321\033\312\237\336"
  89      6752314F 
  89      0B2633D2 
  89      9934D11B 
  89      CA9FDE
  90 00ca FA824AF1 		.ascii	"\372\202J\361\277\227iP1\251k\323\232\371\204\037\266"
  90      BF976950 
  90      31A96BD3 
  90      9AF9841F 
  90      B6
  91 00db 3E4C9834 		.ascii	">L\2304\237\240\353\355\016r\273\237<@\037G\364,\272"
  91      9FA0EBED 
  91      0E72BB9F 
  91      3C401F47 
  91      F42CBA
  92 00ee DC5BAF75 		.ascii	"\334[\257uN\212\"\357\264\213\363\263\323\335\034\277"
  92      4E8A22EF 
  92      B48BF3B3 
  92      D3DD1CBF 
  93 00fe C9404509 		.ascii	"\311@E\011"
  94              		.text
  95              		.section	.gnu.lto_sd_is_write_protected.81d8cfb4d0ce84bd,"",%progbits
  96 0000 789C5D4F 		.ascii	"x\234]O=k\002Q\020\234\331w/X\211U\300\316>\220_\243"
  96      3D6B0251 
  96      109CD977 
  96      2F588955 
  96      C0CE3E90 
ARM GAS  /tmp/ccKQ3QAX.s 			page 7


  97 0016 104B3D83 		.ascii	"\020K=\203\034x\020\360\007\370\202\0266\202E\012\321"
  97      1C7810F0 
  97      07F88216 
  97      3682450A 
  97      D1
  98 0027 465B0BFD 		.ascii	"F[\013\375\001i\202\205\235B\272\220J\310\177Hkv\337"
  98      01698285 
  98      9D42BA90 
  98      4AC87F48 
  98      6B76DF
  99 003a 71165998 		.ascii	"q\026Y\230\331\205\331\217Y\201\340\177\324\025\277"
  99      D985D98F 
  99      5981E07F 
  99      D415BF
 100 0049 8A9A820E 		.ascii	"\212\232\202\016\224\371\031x\255\010i\005\210\221p"
 100      94F91978 
 100      AD086905 
 100      889170
 101 0058 D466ECDD 		.ascii	"\324f\354\335\313\307\345z\335\275\035\3273\362N\220"
 101      CBC7E57A 
 101      DDBD1DD7 
 101      33F24E90 
 102 0068 11CE2831 		.ascii	"\021\316(1\362J\326\3461\011a\336\000\3228\324T\266"
 102      F24AD6E6 
 102      310961DE 
 102      00D238D4 
 102      54B6
 103 007a 4D2D8A65 		.ascii	"M-\212ew\302\341{\361sa\207\033z\364)\017\330\206\011"
 103      77C2E17B 
 103      F1736187 
 103      1B7AF429 
 103      0FD88609 
 104 008e 33CA0A4B 		.ascii	"3\312\012KM\356I)\011\213iH\020\313x\271\313\322\357"
 104      4DEE4929 
 104      098B6948 
 104      10CB78B9 
 104      CBD2EF
 105 00a1 09E39D2B 		.ascii	"\011\343\235+\207\235\316[\223\227By\277)I\277\330\004"
 105      879DCE5B 
 105      93974279 
 105      BF2949BF 
 105      D804
 106 00b3 16CAD7F8 		.ascii	"\026\312\327\370\276\224\274\252Q\262\370\304\315\211"
 106      BE94BCAA 
 106      51B2F8C4 
 106      CD89
 107 00c1 2F0E34F5 		.ascii	"/\0164\365\0135j\033\253\303^\236\247\303,\177\031<"
 107      0B356A1B 
 107      ABC35E9E 
 107      A7C32C7F 
 107      193C
 108 00d3 3FA6F803 		.ascii	"?\246\370\003\011I;N"
 108      09493B4E 
 109              		.text
 110              		.section	.gnu.lto_sdmmcInitialize.81d8cfb4d0ce84bd,"",%progbits
 111 0000 789CAD56 		.ascii	"x\234\255V[l\024e\024>gfw\366Vz\243Z*t:\326\326\265"
 111      5B6C1465 
ARM GAS  /tmp/ccKQ3QAX.s 			page 8


 111      143E6766 
 111      77F6567A 
 111      A35A2A74 
 112 0018 2DBDF2E4 		.ascii	"-\275\362\344\335\004\341\255\"\205&\0325\246n\327f"
 112      DD04E1AD 
 112      2285261A 
 112      35A66ED7 
 112      66
 113 0029 936E2BBB 		.ascii	"\223n+\273\313\203\361\241S\272ry\0206\304\207\025\305"
 113      CB83F1A1 
 113      53BA7279 
 113      1036C487 
 113      15C5
 114 003b 141B6262 		.ascii	"\024\033bb\210\230@\314*\022\267UCIQ\332\030\223\026"
 114      889840CC 
 114      2A12B755 
 114      434951DA 
 114      189316
 115 004e 2536F101 		.ascii	"%6\361\001\"j0$\320\020l=\377ef/-mI\330d\377\313\371"
 115      226A3024 
 115      D0106C3D 
 115      FF65662F 
 115      2D6D49D8 
 116 0066 CF77EEFF 		.ascii	"\317w\356\377\371G\001\005\362\177\007\350\377\263\017"
 116      F9470105 
 116      F27F07E8 
 116      FFB30F
 117 0075 E04B9AB1 		.ascii	"\340K\232\261\000PI\374\0040\350V\024\307~?\230^\225"
 117      005049FC 
 117      0430E856 
 117      14C77E3F 
 117      985E95
 118 0088 8D052A3A 		.ascii	"\215\005*:\004\331\2418\315\011 \2727\241\022\335\251"
 118      04D9A138 
 118      CD0920BA 
 118      37A112DD 
 118      A9
 119 0099 68E78A68 		.ascii	"h\347\212h\347:\377\014\3554\364\011.\227\342f\307^"
 119      E73AFF0C 
 119      ED34F409 
 119      2E97E266 
 119      C75E
 120 00ab 0FE72D70 		.ascii	"\017\347-p[t\217\265\360Z\013\037\"[\000\302\200\242"
 120      5B748FB5 
 120      F05A0B1F 
 120      225B00C2 
 120      80A2
 121 00bd 3A9C9ACB 		.ascii	":\234\232\313\355\361\372p\340ed\246\251\325p\3144\017"
 121      EDF1FA70 
 121      E06564A6 
 121      A9D570CC 
 121      340F
 122 00cf CFFE7073 		.ascii	"\317\376ps\022?x?\035\0376\357,, \206\220\334(A\010"
 122      123F783F 
 122      1D1F36EF 
 122      2C2C2086 
 122      90DC2841 
ARM GAS  /tmp/ccKQ3QAX.s 			page 9


 123 00e4 20BC441B 		.ascii	" \274D\0334\370\2448r\375\342\330D\372\362\336\203\345"
 123      34F8A438 
 123      72FDE2D8 
 123      44FAF2DE 
 123      83E5
 124 00f6 E6AC9930 		.ascii	"\346\254\2310\347\011\032BU\001=\203t\013$.\201<\234"
 124      E7091A42 
 124      55013D83 
 124      740B242E 
 124      813C9C
 125 0109 FE7DEFA1 		.ascii	"\376}\357\241l\244C\201\332\225\220'\225\364\354\302"
 125      6CA44381 
 125      DA959027 
 125      95F4ECC2 
 126 0119 C28553F1 		.ascii	"\302\205S\361\261\272M\010\244\315\201a\004\215\006"
 126      B1BA4D08 
 126      A4CD8161 
 126      048D06
 127 0128 74D1A094 		.ascii	"t\321\240\224\022\315Y\306\206r\350\302cX\015\353\331"
 127      12CD59C6 
 127      8672E8C2 
 127      63580DEB 
 127      D9
 128 0139 A692064D 		.ascii	"\246\222\006M'\312\010Q\252\344\211ADW\015m\216\323"
 128      27CA0851 
 128      AAE48941 
 128      44570D6D 
 128      8ED3
 129 014b A65612FD 		.ascii	"\246V\022\375\214\275^n\032\345\334LDw\013\033Z\331"
 129      8CBD5E6E 
 129      1AE5DC4C 
 129      44770B1B 
 129      5AD9
 130 015d D0C6A491 		.ascii	"\320\306\244\2211N\210S\000\014!U\210\001f?\375v\322"
 130      314E8853 
 130      000C2155 
 130      8801663F 
 130      FD76D2
 131 0170 C8C2DE89 		.ascii	"\310\302\336\211\012\233\325\037a\317D\352JZ\351\302"
 131      0A9BD51F 
 131      61CF44EA 
 131      4A5AE9C2 
 132 0180 4FD1091F 		.ascii	"O\321\011\037\302\221A\323,\2460\277\003\267\315\375"
 132      C29141D3 
 132      2CA630BF 
 132      03B7CDFD 
 133 0190 6CE509A3 		.ascii	"l\345\011\243J8\346\263\207{\332\203\024n\006\233\273"
 133      4A38E6B3 
 133      877BDA83 
 133      146E069B 
 133      BB
 134 01a1 721D05AC 		.ascii	"r\035\005\254\001>3\351WD\026\222\004\342\364\366\240"
 134      013E33E9 
 134      57441692 
 134      04E2F4F6 
 134      A0
 135 01b2 C6103E8E 		.ascii	"\306\020>\216xC\306\252\007]\034y{h\344==\037Y\2604"
ARM GAS  /tmp/ccKQ3QAX.s 			page 10


 135      7843C6AA 
 135      075D1C79 
 135      7B68E43D 
 135      3D1F59B0 
 136 01c7 52408535 		.ascii	"R@\2055\346vb\013\243\3106\311I\245\376\034W\362\345"
 136      E676620B 
 136      A3C836C9 
 136      49A5FE1C 
 136      57F2E5
 137 01da AC595A8E 		.ascii	"\254YZ\216\250~FYc\241\247\227@kK\243U\033\255I\364"
 137      A87E4659 
 137      63A1A797 
 137      406B4BA3 
 137      551BAD49 
 138 01ef 44F25A1A 		.ascii	"D\362Z\032\363\202\346\263\203V\030&\272\000\024J\327"
 138      F382E6B3 
 138      83561826 
 138      BA00144A 
 138      D7
 139 0200 097811F6 		.ascii	"\011x\021\366\316~5\"Q\220\011qQ@\272\311\370\213M\""
 139      CE7E3522 
 139      51900971 
 139      5140BAC9 
 139      F88B4D22 
 140 0214 3AF8D26D 		.ascii	":\370\322m\232\012_\224TPbK\271\200\341\257\325\225"
 140      9A0A5F94 
 140      5450624B 
 140      B980E1AF 
 140      D595
 141 0226 F0491B2F 		.ascii	"\360I\033/\246\022#\203>\263\":\221\321.*\275\344\210"
 141      A6122383 
 141      3EB3223A 
 141      91D12E2A 
 141      BDE488
 142 0239 3383FFE6 		.ascii	"3\203\377\346^\360\306b\374\331{\301\027\013\374\036"
 142      5EF0C662 
 142      FCD97BC1 
 142      170BFC1E 
 143 0249 89A7A85F 		.ascii	"\211\247\250_J\336\230\2249\353\301\322\006\250\027"
 143      4ADE9894 
 143      39EBC1D2 
 143      06A817
 144 0258 1547E137 		.ascii	"\025G\3417_\271[\3251\305\361t\375\"\275k\003\262(H"
 144      5FB95BD5 
 144      31C5F174 
 144      FD22BD6B 
 144      03B22848 
 145 026c 5208CB84 		.ascii	"R\010\313\204\374\324\215\253h\311/\313\221\277}9\371"
 145      FCD48DAB 
 145      68C92FCB 
 145      91BF7D39 
 145      F9
 146 027d EFA62B17 		.ascii	"\357\246+\027\311\177  \313\206$\311\372\335\025\302"
 146      C97F2020 
 146      CB8624C9 
 146      FADD15C2 
 147 028d 07C3A849 		.ascii	"\007\303\250I\326\020\2263\245c\227\222\037\027\310"
ARM GAS  /tmp/ccKQ3QAX.s 			page 11


 147      D6109633 
 147      A5639792 
 147      1F17C8
 148 029c 1B6B5D5D 		.ascii	"\033k]]\363\217\203O\002\010\276\200(\370\036lfe\032"
 148      F38F834F 
 148      0208BE80 
 148      28F81E6C 
 148      66651A
 149 02af 1F4CFFDB 		.ascii	"\037L\377\333\025\302u\314\252\004SS\221\227\364bi\234"
 149      15C275CC 
 149      AA045353 
 149      9197F462 
 149      699C
 150 02c1 83E1C7B8 		.ascii	"\203\341\307\270I\244d\350s\012\374(w\253\205$1F\227"
 150      49A464E8 
 150      730AFC28 
 150      77AB8524 
 150      314697
 151 02d4 224ECED8 		.ascii	"\"N\316\330'\255t\310#\317<\033\207\370_\203E\366\021"
 151      27AD74C8 
 151      23CF3C1B 
 151      87F85F83 
 151      45F611
 152 02e7 A76737BC 		.ascii	"\247g7\274\235\344\335~\277\332I\212X\037a\354\243_"
 152      9DE4DD7E 
 152      BFDA498A 
 152      581F61EC 
 152      A35F
 153 02f9 B8ACD8B5 		.ascii	"\270\254\330\265\331wE\374f@P\250\177\177\264M\236\251"
 153      D97745FC 
 153      664050A8 
 153      7F7FB44D 
 153      9EA9
 154 030b 274E226B 		.ascii	"'N\"kDN\240\267\2025\242\363\323\324\355-\011\345\253"
 154      444EA0B7 
 154      8235A2F3 
 154      D3D4ED2D 
 154      09E5AB
 155 031e E9452CF6 		.ascii	"\351E,\366\316E\221\177( \334fR\0301i\232S\004Y\257"
 155      CE45917F 
 155      2820DC66 
 155      52183169 
 155      9A530459 
 156 0333 43DD5133 		.ascii	"C\335Q3\371\\\0107\200\235\202J\236\202\324\334\315"
 156      F95C0837 
 156      809D824A 
 156      9E82D4DC 
 156      CD
 157 0344 E24C2B88 		.ascii	"\342L+\210\023\263n-\252\254\205!ZCE\336%\265\342\355"
 157      13B36E2D 
 157      AAAC8521 
 157      5A4345DE 
 157      25B5E2ED 
 158 0358 94B32667 		.ascii	"\224\263&g\227]\323\017\263k\314\253p\370\267\305\345"
 158      975DD30F 
 158      B36BCCAB 
 158      70F8B7C5 
ARM GAS  /tmp/ccKQ3QAX.s 			page 12


 158      E5
 159 0369 5F1D9010 		.ascii	"_\035\220\020\036\341\311\"\262\351\021Q\213\323\267"
 159      1EE1C922 
 159      B2E91151 
 159      8BD3B7
 160 0378 AEDAB5BE 		.ascii	"\256\332\265\276>\247\026w-_\353\215\026\252\322\326"
 160      3EA71677 
 160      2D5FEB8D 
 160      16AAD2D6 
 161 0388 52139006 		.ascii	"R\023\220\006\221\250\020\326r\005\327\206\336\264\030"
 161      91A810D6 
 161      7205D786 
 161      DEB418
 162 0397 F51E1688 		.ascii	"\365\036\026\210q\370\376\312\350\267\373l\245:S\360"
 162      71F8FECA 
 162      E8B7FB6C 
 162      A53A53F0 
 163 03a7 68F643D7 		.ascii	"h\366C\327I\266\336*\344\271J\335\276n\347\252ju\271"
 163      49B6DE2A 
 163      E4B94ADD 
 163      BE6EE7AA 
 163      6A75B9
 164 03ba 22D83FAA 		.ascii	"\"\330?\252\2051\270\312\213\240-\227\276*\231\276\031"
 164      8531B8CA 
 164      8BA02D97 
 164      BE2A99BE 
 164      19
 165 03cb 92E2D7E1 		.ascii	"\222\342\327\341i\221\276\307\254\364\221\024\236Aa"
 165      6991BEC7 
 165      ACF49114 
 165      9E4161
 166 03da 9A0B0E3C 		.ascii	"\232\013\016<\245\362\347\345\324\241\334\347\305\263"
 166      A5F2E7E5 
 166      D4A1DCE7 
 166      C5B3
 167 03e8 C2B39079 		.ascii	"\302\263\220y^\326\204e\234X\257\376\373;\333\303\032"
 167      5ED68465 
 167      9C58AFFE 
 167      FB3BDBC3 
 167      1A
 168 03f9 DBBABA80 		.ascii	"\333\272\272\200\274\007\202\222\236\331Wf\303\204\265"
 168      BC078292 
 168      9ED95766 
 168      C384B5
 169 0408 E95FCFE9 		.ascii	"\351_\317\351!\254\327\341Uan\203e.S\274\221\025]\243"
 169      21ACD7E1 
 169      55616E83 
 169      652E53BC 
 169      91155DA3 
 170 041c B85EA397 		.ascii	"\270^\243\2273\261\256a\2079\3371\235\244\347\264\302"
 170      33B1AE61 
 170      8739DF31 
 170      9DA4E7B4 
 170      C2
 171 042d 639D9CCF 		.ascii	"c\235\234\317\304\272\366\276\334\213\332\254\3006\351"
 171      C4BAF6BE 
 171      DC8BDAAC 
ARM GAS  /tmp/ccKQ3QAX.s 			page 13


 171      C036E9
 172 043c F0BAB0B4 		.ascii	"\360\272\260\2649\357^P?\234\237\266M\364\347\324\340"
 172      39EF5E50 
 172      3F9C9FB6 
 172      4DF4E7D4 
 172      E0
 173 044d 6BCBD760 		.ascii	"k\313\327`\303\"\355T\202\326\007\204\337*\301\324\364"
 173      C322ED54 
 173      82D60784 
 173      DF2AC1D4 
 173      F4
 174 045e FC64EE1B 		.ascii	"\374d\356\033\334\272\332\027\\\204\310\003\277<.Z\307"
 174      DCBADA17 
 174      5C84C803 
 174      BF3C2E5A 
 174      C7
 175 046f 422644F5 		.ascii	"B&D\365\367%D\365Y!j\321\301D\021\243\326\374\030\245"
 175      F72544F5 
 175      59216AD1 
 175      C14411A3 
 175      D6FC18A5 
 176 0483 E616F2BE 		.ascii	"\346\026\362\276\203<\253\371\216@\333\007/$T\356\303"
 176      833CABF9 
 176      8E40DB07 
 176      2F2454EE 
 176      C3
 177 0494 DC2753B6 		.ascii	"\334'S\266\017\215\367\305\207\306\254\366\327\246\303"
 177      0F8DF7C5 
 177      87C6ACF6 
 177      D7A6C3
 178 04a3 51E9C3A6 		.ascii	"Q\351\303\246\034\037\204\025>\336\306\247\350\303\234"
 178      1C1F8415 
 178      3EDEC6A7 
 178      E8C39C
 179 04b2 01B97533 		.ascii	"\001\271u3\200\324\004\264\023g\3271\225*}\014\213\037"
 179      80D404B4 
 179      1367D731 
 179      952A7D0C 
 179      8B1F
 180 04c4 0EB84F3F 		.ascii	"\016\270O?\313I\377eH\336\013SnN\003\360\334\231*c\017"
 180      CB49FF65 
 180      48DE0B53 
 180      6E4E03F0 
 180      DC992A63 
 181 04d9 0432912C 		.ascii	"\0042\221,m\205\321\356p8\020\015\205\337\352\0156\005"
 181      6D85D1EE 
 181      7038100D 
 181      85DFEA0D 
 181      3605
 182 04eb A0201A8C 		.ascii	"\240 \032\214\204\272z_\354\217\304\232Z\264h\254+\266"
 182      84BA7A5F 
 182      EC8FC49A 
 182      5AB468AC 
 182      2BB6
 183 04fd 3BAA0623 		.ascii	";\252\006#\221\265;\236ono\337\374\304\346\256H\267"
 183      91B53B9E 
 183      6F6E6FDF 
ARM GAS  /tmp/ccKQ3QAX.s 			page 14


 183      FCC4E6AE 
 183      48B7
 184 050f B1B57F77 		.ascii	"\261\265\177w_\267\027tI\333\322\321\261\255\303\330"
 184      5FB71774 
 184      49DBD2D1 
 184      B1ADC3D8 
 185 051f DCDFD717 		.ascii	"\334\337\327\027\014\3046\322\256\266\245\215\216\225"
 185      0CC436D2 
 185      AEB6A58D 
 185      8E95
 186 052d 663024C7 		.ascii	"f0$\307\326Po\320\330\361v4\026\014\033\355\004\216"
 186      D6506FD0 
 186      D8F17634 
 186      160C1BED 
 186      048E
 187 053f 195B2291 		.ascii	"\031[\"\221\376\210\0276\334\215!H\002*\344\341\013"
 187      FE881736 
 187      DC8D2148 
 187      022AE4E1 
 187      0B
 188 0550 FD24C7C8 		.ascii	"\375$\307\310\326\374?k)\006\301"
 188      D6FC3F6B 
 188      2906C1
 189              		.text
 190              		.section	.gnu.lto_sdmmGetMMCDriver.81d8cfb4d0ce84bd,"",%progbits
 191 0000 789C6D50 		.ascii	"x\234mP\273JCA\020=gv\257\212\004\037\220\306\3162\030"
 191      BB4A4341 
 191      103D6776 
 191      AF8A041F 
 191      90C6CE32 
 192 0015 B0B1F047 		.ascii	"\260\261\360G\014h\031oB\270\340\005\341~@6\222\017"
 192      0C68196F 
 192      42B8E005 
 192      E17E4036 
 192      920F
 193 0027 48AD4DEC 		.ascii	"H\255M\354\344\022bkaa%A\210$\205`R\245\264\360\037"
 193      E412626B 
 193      61612541 
 193      88248560 
 193      52A5B4F0 
 194 003c E2EC4A42 		.ascii	"\342\354JB\014\016\354\316\314\3569g\036\002\301\272"
 194      0C0EECCE 
 194      CCEE3967 
 194      1E02C1BA 
 195 004c 9DE83920 		.ascii	"\235\3509 \260\247\236\021(\235w\240\265%b\036^\001"
 195      B0A79E11 
 195      289D77A0 
 195      B525621E 
 195      5E01
 196 005e B76DBF36 		.ascii	"\267m\2776\341\012\206\366\367\335\222>\000\321\024"
 196      E10A86F6 
 196      F7DD923E 
 196      00D114
 197 006d 63D9BC60 		.ascii	"c\331\274`Py\224\227\331|\336\037\275u{\224\015\"!\014"
 197      50799497 
 197      D97CDE1F 
 197      BD757B94 
ARM GAS  /tmp/ccKQ3QAX.s 			page 15


 197      0D22210C 
 198 0081 53C26AA4 		.ascii	"S\302j\244\252I@Eh;\3279\004\342\220\236\351\355\265"
 198      AA494045 
 198      683BD739 
 198      04E2909E 
 198      E9EDB5
 199 0094 2A14EFCD 		.ascii	"*\024\357\315\0207\323\247|\314*\357\225\322\240-\343"
 199      1037D3A7 
 199      7CCC2AEF 
 199      95D2A02D 
 199      E3
 200 00a5 48D977B8 		.ascii	"H\331w\270eBi\320\234\2537\241\334%\027\355\017\320"
 200      654269D0 
 200      9CAB37A1 
 200      DC2517ED 
 200      0FD0
 201 00b7 FE6EED2E 		.ascii	"\376n\355.)\036\302\325\361*\312\320A\202\370g\276\277"
 201      291EC2D5 
 201      F12ACAD0 
 201      4182F867 
 201      BEBF
 202 00c9 004665E4 		.ascii	"\000Fe\344N\355T;\373\277\000\377\210\330\320\341X\027"
 202      4EED543B 
 202      FBBF00FF 
 202      88D8D0E1 
 202      5817
 203 00db 006587BF 		.ascii	"\000e\207\277\011\250:\246\344I\232\312\363G\321\317"
 203      09A83AA6 
 203      E4499ACA 
 203      F347D1CF 
 204 00eb 448FF46B 		.ascii	"D\217\364k\336\311ji\032gIz}U?\216\361\003\201zD\365"
 204      DEC96A69 
 204      1A67497A 
 204      7D553F8E 
 204      F103817A 
 205              		.text
 206              		.section	.gnu.lto_sdmmcGetFS.81d8cfb4d0ce84bd,"",%progbits
 207 0000 789C6D50 		.ascii	"x\234mP=K\003A\020}ovOE\304D\260\261\263\024\0036\026"
 207      3D4B0341 
 207      107D6F76 
 207      4F45C444 
 207      B0B1B314 
 208 0017 F9230692 		.ascii	"\371#\006\22229\3458\360@\310\017\310F\362\003Rkc:\261"
 208      3239E538 
 208      F040C80F 
 208      C846F203 
 208      526B633A 
 209 002c F0DA94A9 		.ascii	"\360\332\224\251B\010$\220\312\217\312\322\302\037`"
 209      42082490 
 209      CA8FCAD2 
 209      C21F60
 210 003b 219CB31B 		.ascii	"!\234\263\033\"F\034\330\235\231\335\367\336|\010\004"
 210      22461CD8 
 210      9D99DDF7 
 210      DE7C0804 
 211 004b 7FED54CF 		.ascii	"\177\355T\317\001\201\262zF\240\364\347@wK\304\334\217"
 211      0181B27A 
ARM GAS  /tmp/ccKQ3QAX.s 			page 16


 211      46A0F4E7 
 211      40774BC4 
 211      DC8F
 212 005d 01B76DDF 		.ascii	"\001\267m\3377\341v\014\355\362\335\222>\000\321\021"
 212      37E1760C 
 212      EDF2DD92 
 212      3E00D111 
 213 006d 63D96930 		.ascii	"c\331i0\250\3442z+\212\307\317\351\335\204\262A\244"
 213      A8E4327A 
 213      2B8AC7CF 
 213      E9DD84B2 
 213      41A4
 214 007f 84614658 		.ascii	"\204aFX\215T5\015\250\010=\347\372\207@\034\3223\275"
 214      8D54350D 
 214      A8083DE7 
 214      FA87401C 
 214      D233BD
 215 0092 BD568DE2 		.ascii	"\275V\215\342\275\231\341\372u\230/\330\344@)\011m\005"
 215      BD99E1FA 
 215      75982FD8 
 215      E4402909 
 215      6D05
 216 00a4 C7CABEC5 		.ascii	"\307\312\276\305\015SJBSWoB\271\026W\355O\320\373\350"
 216      0D534A42 
 216      53576F42 
 216      B91657ED 
 216      4FD0FBE8 
 217 00b8 967E281E 		.ascii	"\226~(\036\302\337\343\325\224\241\203\004\361\347|"
 217      C2DFE3D5 
 217      94A18304 
 217      F1E77C
 218 00c7 6F058C2A 		.ascii	"o\005\214*xpjU\355\354\377\002\\\023\261\241\303\205"
 218      78706A55 
 218      EDECFF02 
 218      5C13B1A1 
 218      C385
 219 00d9 2E00CA0E 		.ascii	".\000\312\016\177/\240\352\230#O\322T\276\236\366\375"
 219      7F2FA0EA 
 219      98234FD2 
 219      54BE9EF6 
 219      FD
 220 00ea 4CF448BF 		.ascii	"L\364H\277\346\335\366y\226\305\3554\273\272\2748\211"
 220      E6DDF679 
 220      96C5ED34 
 220      BBBABC38 
 220      89
 221 00fb F10DDAF7 		.ascii	"\361\015\332\367E\205"
 221      4585
 222              		.text
 223              		.section	.gnu.lto_sdmmcFSMounted.81d8cfb4d0ce84bd,"",%progbits
 224 0000 789C6362 		.ascii	"x\234cb`b@\007\222@<\003\210\005\200\230\221\231\201"
 224      60624007 
 224      92403C03 
 224      88058098 
 224      919981
 225 0013 9169C239 		.ascii	"\221i\3029\006\206F\016&FF\020\203\201\221\241\236\211"
 225      0686460E 
ARM GAS  /tmp/ccKQ3QAX.s 			page 17


 225      26464610 
 225      838191A1 
 225      9E89
 226 0025 B13E9211 		.ascii	"\261>\222\021\254v=\323\201\007\377\377\257\333pz\301"
 226      AC763DD3 
 226      8107FFFF 
 226      AFDB707A 
 226      C1
 227 0036 2D462616 		.ascii	"-F&\026&\306\\F\006f\206L\260\034+CKC\303\004\005\006"
 227      26C65C46 
 227      0666864C 
 227      B01C2B43 
 227      4B43C304 
 228 004c 86643037 		.ascii	"\206d07\004H\202\364\20722\201h\346\263\014M\267vlS"
 228      044882F4 
 228      87323281 
 228      68E6B30C 
 228      4DB7766C 
 229 0061 4C645CC8 		.ascii	"Ld\\\310\310\312\220\316\310\254\315\260\252\001\010"
 229      C8CA90CE 
 229      C8ACCDB0 
 229      AA0108
 230 0070 AC819A67 		.ascii	"\254\201\232g3\314b\314ddLgd\212\000\322\020\007&1\302"
 230      33CC62CC 
 230      64644C67 
 230      648A00D2 
 230      10072631 
 231 0085 9C7791A1 		.ascii	"\234w\221\241\361\000\013\\\033D,\204\221\021d(H)_q"
 231      F1000B5C 
 231      1B442C84 
 231      91116428 
 231      48295F71 
 232 0099 4A6E6E72 		.ascii	"JnnrqfnAN\252^2\003\000\344\247*\250"
 232      71666E41 
 232      4EAA5E32 
 232      0300E4A7 
 232      2AA8
 233              		.text
 234              		.section	.gnu.lto_.symbol_nodes.81d8cfb4d0ce84bd,"",%progbits
 235 0000 789C4DCC 		.ascii	"x\234M\314KR\302@\024\205\341\323\247\323\340\023\360"
 235      4B52C240 
 235      1485E1D3 
 235      A7D3E013 
 235      F0
 236 0011 3DD02A37 		.ascii	"=\320*7\340\246\\\311E\032!\212 \006\2153\007f\035N"
 236      E0A65CC9 
 236      451A218A 
 236      20068D33 
 236      07661D4E 
 237 0025 4CC6BA05 		.ascii	"L\306\272\005\225r\346\032\304t'e\247'_\375\367V_\202"
 237      9572E61A 
 237      C4742765 
 237      A7275FFD 
 237      F7565F82 
 238 0039 7851A81E 		.ascii	"xQ\250\036WJ\200\371\033 2\215\3179\246\250:\237b\305"
 238      574A80F9 
 238      1B20328D 
ARM GAS  /tmp/ccKQ3QAX.s 			page 18


 238      CF39A6A8 
 238      3A9F62C5 
 239 004d 98C2465E 		.ascii	"\230\302F^QtH3 #\321fJ\015\201\271`\344jD\345\260D\011"
 239      51744833 
 239      2023D166 
 239      4A0D81B9 
 239      60E46A44 
 240 0065 AF2951E3 		.ascii	"\257)Q\343\300\204b\032yCi5\356\015i\334\327K\266J\324"
 240      C084621A 
 240      79436935 
 240      EE0D69DC 
 240      D74BB64A 
 241 007a 23A55D2D 		.ascii	"#\245]-\373}\245R\312Z\250\007\312z\250{\312F\250\005"
 241      FB7DA552 
 241      CA5AA807 
 241      CA7AA87B 
 241      CA46A805 
 242 008e 65335442 		.ascii	"e3TB\331\012uG\331\0165\247tB\335R\272\241f\224\336"
 242      D90A7547 
 242      D90E35A7 
 242      7442DD52 
 242      BAA16694 
 243 00a3 7F69F460 		.ascii	"\177i\364`?~K\273\310\274\035\344N}\204\374\263rYkG"
 243      3F7E4BBB 
 243      C8BC1DE4 
 243      4E7D84FC 
 243      B372596B 
 244 00b8 3FA7CEAC 		.ascii	"?\247\316\2546\367\036\302\216\235\007\310\275\300\363"
 244      36F71EC2 
 244      8E9D07C8 
 244      BDC0F3
 245 00c7 A428DDC7 		.ascii	"\244(\335\307\322\273\207lV\370\371\353\373\212Z\357"
 245      D2BB876C 
 245      56F8F9EB 
 245      FB8A5AEF 
 246 00d7 C226C589 		.ascii	"\302&\305\211\353\257\244\034\357 [\370\355 \375>\366"
 246      EBAFA41C 
 246      EF205BF8 
 246      ED20FD3E 
 246      F6
 247 00e8 D3F40C7F 		.ascii	"\323\364\014\177y\344|\017"
 247      79E47C0F 
 248              		.text
 249              		.section	.gnu.lto_.refs.81d8cfb4d0ce84bd,"",%progbits
 250 0000 789C25C5 		.ascii	"x\234%\305\301\015\000 \010\004\301c\001!Q\213\260\377"
 250      C10D0020 
 250      0804C163 
 250      0121518B 
 250      B0FF
 251 0012 268D713E 		.ascii	"&\215q>\203\320\3217\335\202\264A)\0244\375Vx\221,\266"
 251      83D0D137 
 251      DD82B441 
 251      291434FD 
 251      5678912C 
 252 0027 2E0E4800 		.ascii	".\016H\000\246"
 252      A6
 253              		.text
ARM GAS  /tmp/ccKQ3QAX.s 			page 19


 254              		.section	.gnu.lto_.decls.81d8cfb4d0ce84bd,"",%progbits
 255 0000 789CBD7D 		.ascii	"x\234\275}\013t\024E\272\177w\3173$\362\022\024\024"
 255      0B741445 
 255      BA7F77CF 
 255      3324F212 
 255      1414
 256 0012 97F1EEEE 		.ascii	"\227\361\356\356\377x\356Y\015\257u\335\275\367\252"
 256      FF78EE59 
 256      0DAF75DD 
 256      BDF7AA
 257 0021 9007B002 		.ascii	"\220\007\260\002\311\177\022w\327s\357\371\217C2\201"
 257      C97F1277 
 257      D773EFF9 
 257      8F433281 
 258 0031 B9E6E5CC 		.ascii	"\271\346\345\314\004\361\177\3579\333\020\301\007\212"
 258      04F17FEF 
 258      39DB10C1 
 258      078A
 259 003f 101EE119 		.ascii	"\020\036\341\031\"\017\001Q\0200\362\206\301E\010 \020"
 259      220F0151 
 259      1030F286 
 259      C1450820 
 259      10
 260 0050 40144420 		.ascii	"@\024D \202\250\200(!*\030\204\334\257\276\352\236\251"
 260      82A88028 
 260      212A1884 
 260      DCAFBEEA 
 260      9EA9
 261 0062 EE74CF54 		.ascii	"\356t\317T\217\273w\316\251\352\232\232\256_}\337W_"
 261      8FBB77CE 
 261      A9EA9A9A 
 261      AE5F7DDF 
 261      575F
 262 0074 7DF5D5A3 		.ascii	"}\365\325\243{$A\022\032m\202\320\016\237\233\323\004"
 262      7B244112 
 262      1A6D82D0 
 262      0E9F9BD3 
 262      04
 263 0085 21BDAB20 		.ascii	"!\275\253 \270\005Ax\030B\017\010v\010\257AX\014a\005"
 263      B8054178 
 263      18420F08 
 263      7608AF41 
 263      580C6105 
 264 0099 84951056 		.ascii	"\204\225\020VAx\023\302j\010\347 |\016\241\001\302\027"
 264      417813C2 
 264      6A08E720 
 264      7C0EA101 
 264      C217
 265 00ab 10BE84E0 		.ascii	"\020\276\204\340\202p\001\302E\010_C\360\212\202\360"
 265      827001C2 
 265      45085F43 
 265      F08A82F0 
 266 00bb EF9220FC 		.ascii	"\357\222 \374?\010\344\323\015\202\037\322\265\020\332"
 266      3F08E4D3 
 266      0D821FD2 
 266      B510DA
 267 00ca 20DC82B0 		.ascii	" \334\202\260\021h\330\016a\027\204}\020\366C8\001\341"
ARM GAS  /tmp/ccKQ3QAX.s 			page 20


 267      1168D80E 
 267      6117847D 
 267      10F64338 
 267      01E1
 268 00dc 13089F42 		.ascii	"\023\010\237B\350\001\204\334\001\341.\010}!\374\322"
 268      E80184DC 
 268      01E12E08 
 268      7D21FCD2 
 269 00ec 4EEBF90D 		.ascii	"N\353\371\015\\\037\200\360o\020\006@x\004\302\203\020"
 269      5C1F80F0 
 269      6F100640 
 269      7804C283 
 269      10
 270 00fd FE601734 		.ascii	"\376`\0274\037R_:\\\233\000\2533\\3\024\336\006C\224"
 270      1F525F3A 
 270      5C9B00AB 
 270      335C3314 
 270      DE064394 
 271 0111 03610884 		.ascii	"\003a\010\204\\\010\037\300\357C\341:L)oW\312\236Ph"
 271      5C081FC0 
 271      EF43E13A 
 271      4C296F57 
 271      CA9E5068 
 272 0125 22B41136 		.ascii	"\"\264\0216j \232)i\353 \3748\005\312'\241\355^\340"
 272      6A209A29 
 272      69EB20FC 
 272      3805CA27 
 272      A1ED5EE0 
 273 0139 FB6E91F2 		.ascii	"\373n\221\362Op\340\"d\212\364Z\253+K>mJy\227\202\221"
 273      4F70E022 
 273      648AF45A 
 273      AB2B4B3E 
 273      6D4A7997 
 274 014f A87C9B41 		.ascii	"\250|\233Ay\"\307Ap\355\315\360(@\3724\204y\212\374"
 274      7922C741 
 274      70EDCDF0 
 274      2840FA34 
 274      84798AFC 
 275 0163 ED0AFE1F 		.ascii	"\355\012\376\037!\341\206|\027\204V\245-\037\203\274"
 275      21E1867C 
 275      178456A5 
 275      2D1F83BC 
 276 0173 11F6787B 		.ascii	"\021\366x{\375\012\322#!x \214\262\323\266\274\333\036"
 276      FD0AD223 
 276      2178208C 
 276      B2D3B6BC 
 276      DB1E
 277 0185 A72BCF1E 		.ascii	"\247+\317\036o\347\321p\177>|\377\277\020\006\211X\255"
 277      6FE7D170 
 277      7F3E7CFF 
 277      BF100689 
 277      58AD
 278 0197 E085F49D 		.ascii	"\340\205\364\235\020\012 \314Q\350Uu\244\320\256\325"
 278      100A20CC 
 278      51E85575 
 278      A4D0AED5 
 279 01a7 9D53B6B8 		.ascii	"\235S\266\270^\251z\246\352\035\321\307\316\360{\027"
ARM GAS  /tmp/ccKQ3QAX.s 			page 21


 279      5EA97AA6 
 279      EA1DD1C7 
 279      CEF07B17 
 280 01b7 08DD20F4 		.ascii	"\010\335 \364\264Q9\014\204\360{\010\331\020:)\374\377"
 280      B451390C 
 280      84F07B08 
 280      D9103A29 
 280      FCFF
 281 01c9 52D10FA2 		.ascii	"R\321\017\242'D\306\244\355\210\336\020\375\371T\321"
 281      2744C6A4 
 281      ED88DE10 
 281      FDF954D1 
 282 01d9 2782D700 		.ascii	"'\202\327\000\327\265\020\326\333\264\272Ct\3517:\335"
 282      D7B510D6 
 282      DBB4BA43 
 282      74E9373A 
 282      DD
 283 01ea 21BA49B2 		.ascii	"!\272I\262T\031\252r#,\335n\243\264\211\312}\344\272"
 283      5419AA72 
 283      232CDD6E 
 283      A3B489CA 
 283      7DE4BA
 284 01fd D5A62DBF 		.ascii	"\325\246-\277])\277Z\350X\276\247\302\223\250\334G\256"
 284      5D29BF5A 
 284      E858BEA7 
 284      C293A8DC 
 284      47AE
 285 020f EFE9CA93 		.ascii	"\357\351\312\223>a\323\225\025\225\262\242\362;\271"
 285      3E61D395 
 285      1595B2A2 
 285      F23BB9
 286 021e 36EACAA5 		.ascii	"6\352\312\245\013/\311\362D\271~\262<\254\261s7a\232"
 286      0B2FC9F2 
 286      44B97EB2 
 286      3CACB173 
 286      37619A
 287 0231 0C1FCF9C 		.ascii	"\014\037\317\234\316i\302\013$\273y\231\334\253\227"
 287      CE69C20B 
 287      24BB7999 
 287      DCAB97
 288 0240 20FC45F4 		.ascii	" \374E\364\213\220\345\306DF\032\002\375ZX\012\267\302"
 288      8B90E5C6 
 288      44461A02 
 288      FD5A580A 
 288      B7C2
 289 0252 FD925F5C 		.ascii	"\375\222_\\\"\246\001\241\222\330Q\335\310\207\376\376"
 289      22A601A1 
 289      92D851DD 
 289      C887FEFE 
 290 0262 CFC24A7A 		.ascii	"\317\302Jz\377Y\375m\004\224\334\021O\265\213\261:\033"
 290      FF59FD6D 
 290      0494DC11 
 290      4FB58BB1 
 290      3A1B
 291 0274 45B5D2DE 		.ascii	"E\265\322\336\012\330b\261\033\246\220DY\241\034\357"
 291      0AD862B1 
 291      1BA69044 
ARM GAS  /tmp/ccKQ3QAX.s 			page 22


 291      59A11CEF 
 292 0284 508A78D4 		.ascii	"P\212x\324\022v\245\304r\004\027\324\354X\242\027C\200"
 292      1276A5C4 
 292      720417D4 
 292      EC58A217 
 292      4380
 293 0296 51B9D7C4 		.ascii	"Q\271\327\304\364$b\242\344*\345\233c\244\366Q\000V"
 293      F42462A2 
 293      E42AE59B 
 293      63A4F651 
 293      0056
 294 02a8 5A26F50D 		.ascii	"Z&\365\015\023R\357NB\352\012k\244\312\222\012\340Q"
 294      1352EF4E 
 294      42EA0A6B 
 294      A4CA920A 
 294      E051
 295 02ba 00DEB44C 		.ascii	"\000\336\264L\352[&\244\366MB\352*\023R\273\013\323"
 295      EA5B26A4 
 295      F64D42EA 
 295      2A1352BB 
 295      0BD3
 296 02cc 91D4C6CE 		.ascii	"\221\324\306\316\261\262\362/\325\302o\333U\225\233"
 296      B1B2F22F 
 296      D5C26FDB 
 296      55959B
 297 02db D6BCEDEB 		.ascii	"\326\274\355\353\2516Yv\373\3055bwP\273!\"\200\276."
 297      A9365976 
 297      FBC53562 
 297      7750BB21 
 297      2280BE2E 
 298 02ef FEB38299 		.ascii	"\376\263\202\231\034\206\020\261\016\212\322RT\217\243"
 298      1C8610B1 
 298      0E8AD252 
 298      548FA3
 299 02fe 5B7667C8 		.ascii	"[vg\310v\232/h\3604\237{\205z 8\272m\367\026Q\236\234"
 299      769A2F68 
 299      F0349F7B 
 299      857A2038 
 299      BA6DF716 
 300 0315 C1749239 		.ascii	"\301t\2229\235\023\364\222i\315k'\317\314D\222\033\260"
 300      9D13F492 
 300      69CD6B27 
 300      CFCC4492 
 300      1BB0
 301 0327 A74C10B5 		.ascii	"\247L\020\2654\373EE\226\354w\365\006\202\026\353\035"
 301      34FB4545 
 301      96EC77F5 
 301      068216EB 
 301      1D
 302 0338 4AE79084 		.ascii	"J\347\220\204\311\010A\3105\2526\326&LChXh\336\366\323"
 302      C90841C8 
 302      35AA36D6 
 302      264C4368 
 302      5868DEF6 
 303 034d CBAE5A39 		.ascii	"\313\256Z9:\301\246\3224\3252\240[#\223\246\335\351"
 303      3AC1A6D2 
 303      34D532A0 
ARM GAS  /tmp/ccKQ3QAX.s 			page 23


 303      5B2393A6 
 303      DDE9
 304 035f 6F3FA982 		.ascii	"o?\251\202\325X\006\353\252\001;\302\202\315\261\014"
 304      D55806EB 
 304      AA013BC2 
 304      82CDB10C 
 305 036f D64B03F6 		.ascii	"\326K\003\366!\013\266\3102\230G\003\366\021\013\266"
 305      210BB6C8 
 305      32984703 
 305      F6110BB6 
 306 037f CC32D87D 		.ascii	"\3142\330}\032\260\343\2233\232\236T\264H\236,\337\267"
 306      1AB0E393 
 306      339A9E54 
 306      B4489E2C 
 306      DFB7
 307 0391 A233230F 		.ascii	"\2423#\017\245\270\304j\321\354\207P\213va\355\253;"
 307      A5B8C46A 
 307      D1EC8750 
 307      8B7661ED 
 307      AB3B
 308 03a3 68914DA7 		.ascii	"h\221M\247E6\255\026\331\322\342\211\366v\034\\\326"
 308      4536AD16 
 308      D9D2E289 
 308      F6761C5C 
 308      D6
 309 03b4 EB39D0D4 		.ascii	"\3539\320\324k\304A?\255\032\275\363\212k\216\034\235"
 309      6BC4413F 
 309      AD1ABDF3 
 309      8A6B8E1C 
 309      9D
 310 03c5 6853897A 		.ascii	"hS\211z\227\007\320m\252\227\321\033\223_\356-\327\277"
 310      9707D06D 
 310      AA97D11B 
 310      935FEE2D 
 310      D7BF
 311 03d7 272A52A1 		.ascii	"'*R\241\246\301\330\230\250R\331]G\373\326~$ \332A*"
 311      A6C1D898 
 311      A852D95D 
 311      47FBD67E 
 311      2420DA41 
 312 03ec 2E9D545C 		.ascii	".\235T\\Z\251\270\322\342\011\342\341v!r\331\255gCS"
 312      5AA9B8D2 
 312      E209E2E1 
 312      762172D9 
 312      AD674353 
 313 0400 B3111B1A 		.ascii	"\263\021\033\0325i\336v\375\225^s\345\350s6\225\254"
 313      3569DE76 
 313      FD955E73 
 313      E5E87336 
 313      95AC
 314 0412 C33C805D 		.ascii	"\303<\200]\315\3452{O\3064\277\012\366\251e0\255\022"
 314      CDE5327B 
 314      4FC634BF 
 314      0AF6A965 
 314      30AD12
 315 0425 CF61C1CE 		.ascii	"\317a\301\316\363\200\3652\247l\036\013v\3112\230\226"
 315      F380F532 
ARM GAS  /tmp/ccKQ3QAX.s 			page 24


 315      A76C1E0B 
 315      76C93298 
 315      96
 316 0436 B2052C58 		.ascii	"\262\005,X+\017\230\307\234\262:\026\354\206e0-eo\263"
 316      2B0F98C7 
 316      9CB23A16 
 316      EC866530 
 316      2D656FB3 
 317 044a 60D51207 		.ascii	"`\325\022\007\330}\346\224\255c\301^\266\014\306R&G"
 317      D87DE694 
 317      AD63C15E 
 317      B60CC652 
 317      2647
 318 045c 1BF6A4C3 		.ascii	"\033\366\244\303`\304\216\364\015\314H\037\003\223\325"
 318      60C48EF4 
 318      0DCC481F 
 318      0393D5
 319 046b B1AFD9F2 		.ascii	"\261\257\331\362P\377\231\311P\337\256:\223\022\314"
 319      50FF99C9 
 319      50DFAE3A 
 319      9312CC
 320 047a 73744CE8 		.ascii	"stL\350*V\322\375\014db\364aGh\277\270^\3745\304\357"
 320      2A56D2FD 
 320      0C6462F4 
 320      614768BF 
 320      B85EFC35 
 321 0490 88F742BC 		.ascii	"\210\367B\274\011\343-\030o\303x\007\306;1\376\033\306"
 321      09E32D18 
 321      6FC37807 
 321      C63B31FE 
 321      1BC6
 322 04a2 8D18EFC3 		.ascii	"\215\030\357\303\370\020\306\2071>\212\3611\214?\306"
 322      F810C687 
 322      313E8AF1 
 322      318C3FC6 
 323 04b2 F804C627 		.ascii	"\370\004\306'1>\205\361\031\210c\0373\201\254N\354n"
 323      313E85F1 
 323      1988631F 
 323      3381AC4E 
 323      EC6E
 324 04c4 D53FAAF3 		.ascii	"\325?\252\363\2674F\220\000|n\271\015\316\233\264\201"
 324      B7344690 
 324      007C6EB9 
 324      0DCE9BB4 
 324      81
 325 04d5 9884D473 		.ascii	"\230\204\324s\326<\303+1'\366\027\012\300\227\226I\375"
 325      D63CC32B 
 325      3127F617 
 325      0AC09796 
 325      49FD
 326 04e7 CA84D47B 		.ascii	"\312\204\324{\222\220\372\2055R\347\304H\275]\001\270"
 326      9290FA85 
 326      3552E7C4 
 326      48BD5D01 
 326      B8
 327 04f8 6899D44B 		.ascii	"h\231\324K&\244vOB\352\005~'\366I\265,\231j+cVK\315"
 327      26A4764F 
ARM GAS  /tmp/ccKQ3QAX.s 			page 25


 327      42EA057E 
 327      27F649B5 
 327      2C996A2B 
 328 0510 E9FE3866 		.ascii	"\351\3768f]F\027\366\220\224\324\207\325\240\020\012"
 328      5D4617F6 
 328      9094D487 
 328      D5A0100A 
 329 0520 AEE83DD8 		.ascii	"\256\350=\330\035\324\203\275\302\345\301~<y!\016\263"
 329      1DD483BD 
 329      C2E5C17E 
 329      3C79210E 
 329      B3
 330 0531 493D701B 		.ascii	"I=p\033\333s\025\352\257\316\376\330\211\324\177\207"
 330      DB7315EA 
 330      AFCEFED8 
 330      89D47F87 
 331 0541 D4D7D992 		.ascii	"\324\327\331\222{\340\032\030\277\370\203(A|M\317\302"
 331      7BE01A18 
 331      BFF88328 
 331      417C4DCF 
 331      C2
 332 0552 F7F39185 		.ascii	"\367\363\221\205k\\,\334<Yw\247\334\034\025]\302d\364"
 332      6B5C2CDC 
 332      3C5977A7 
 332      DC1C155D 
 332      C264F4
 333 0565 C2274D4C 		.ascii	"\302'ML\352\205\317\377\220J\275\015\012I\302I\035\335"
 333      EA85CFFF 
 333      904ABD0D 
 333      0A49C249 
 333      1DDD
 334 0577 1C4084AA 		.ascii	"\034@\204\252\233PXCu\303\344.\204j\222\237\200j\033"
 334      9B505843 
 334      75C3E42E 
 334      846A929F 
 334      806A1B
 335 058a E9FB92F0 		.ascii	"\351\373\222\360\205\215j\255=-\236\327\022\317\023"
 335      858D6AAD 
 335      3D2D9ED7 
 335      12CF13
 336 0599 995BDBE2 		.ascii	"\231[\333\342\331\022\223\375\234=\226mc\262_\215g\253"
 336      D91293FD 
 336      9C3D966D 
 336      63B25F8D 
 336      67AB
 337 05ab 4B13E4AB 		.ascii	"K\023\344\253~\346\300|XV\374\342-\264\261\355\242\315"
 337      7EE6C07C 
 337      5856FCE2 
 337      2DB4B1ED 
 337      A2CD
 338 05bd B098242C 		.ascii	"\260\230$,\260\213J\223\361\372\272\232\346jn\235\375"
 338      B08B4A93 
 338      F1FABA9A 
 338      E66A6E9D 
 338      FD
 339 05ce FE97E28C 		.ascii	"\376\227\342\214j\271\261\237\221\316\301-b\342>\023"
 339      6AB9B19F 
ARM GAS  /tmp/ccKQ3QAX.s 			page 26


 339      91CEC12D 
 339      62E23E13 
 340 05de 3D7952F4 		.ascii	"=yR\364$\353\030~\361\025\351\327\\\335\347UI\247{\265"
 340      24EB187E 
 340      F115E9D7 
 340      5CDDE755 
 340      49A77BB5 
 341 05f2 2751F748 		.ascii	"'Q\367H~r\335[t\262\256c\367\271C\230\245X\035Y\214"
 341      7E72DD5B 
 341      74B2AE63 
 341      F7B94398 
 341      A5581D59 
 342 0607 F8C5877B 		.ascii	"\370\305\207{\232Z\217\031\322\035q\235 \031\255\200"
 342      9A5A8F19 
 342      D21D719D 
 342      2019AD80 
 343 0617 E4171F8F 		.ascii	"\344\027\037\217\257\315\230\373\273\321\233\363z\020"
 343      AFCD98FB 
 343      BBD19BF3 
 343      7A10
 344 0625 426BA474 		.ascii	"Bk\244t(\275\330\256\325a\015A\264\"3\"j\245t\023>;"
 344      28BDD8AE 
 344      D5610D41 
 344      B4223322 
 344      6AA57413 
 345 063b FC26C1C4 		.ascii	"\374&\301\304YT\204\226\300G1o\375\350&#\201\031\264"
 345      59548496 
 345      C047316F 
 345      FDE82623 
 345      8119B4
 346 064e 53736C61 		.ascii	"Ssla\34271\216\233\317\234k\316\254\006\241\372\305"
 346      E237318E 
 346      9BCF9C6B 
 346      CEAC06A1 
 346      FAC5
 347 0660 F9123138 		.ascii	"\371\022187\355I\015\216\026\207\260T\247o\360\365\373"
 347      37ED490D 
 347      8E1687B0 
 347      54A76FF0 
 347      F5FB
 348 0672 B1C1EB92 		.ascii	"\261\301\353\2227\370s\325\321\015\373\027\304\247%"
 348      37F873D5 
 348      D10DFB17 
 348      C4A725
 349 0681 D53CD392 		.ascii	"\325<\323\222\206\213M\275\336\224\345\256\034\023\031"
 349      868B4DBD 
 349      DE94E5AE 
 349      1C1319
 350 0690 BFB858FA 		.ascii	"\277\270X\3725\347\304d\215C\313;\377<\251\345R\264"
 350      35E7C464 
 350      8D43CB3B 
 350      FF3CA9E5 
 350      52B4
 351 06a2 56A4625C 		.ascii	"V\244b\\&\021\223rY\007\225\312L\311\342\355\222p\035"
 351      26119372 
 351      590795CA 
 351      4CC9E2ED 
ARM GAS  /tmp/ccKQ3QAX.s 			page 27


 351      92701D
 352 06b5 2BAD4B4D 		.ascii	"+\255KM\221\236\253n>}\256\371~eb\365\032rq\3132\240"
 352      919EAB6E 
 352      3E7DAEF9 
 352      7E6562F5 
 352      1A7271CB 
 353 06cb 47D3B29B 		.ascii	"G\323\262\233\367\243+N\301&99\300\314f\257\000\266"
 353      F7A32B4E 
 353      C1263939 
 353      C0CC66AF 
 353      00B6
 354 06dd 95057BC5 		.ascii	"\225\005{\3052\230\226\262\355,\330\014\0360\263\371"
 354      329896B2 
 354      ED2CD80C 
 354      1E30B3F9 
 355 06ed 238035B1 		.ascii	"#\2005\261`\265\226\301X\312&D\317\354\337'\3125\031"
 355      60B596C1 
 355      58CA2644 
 355      CFECDF27 
 355      CA3519
 356 0700 B70B35B2 		.ascii	"\267\0135\262<A\256w\232i\236 \340-r\302[`\272\"\335"
 356      3C41AE77 
 356      9A699E20 
 356      E02D72C2 
 356      5B60BA22 
 357 0715 AEED9A47 		.ascii	"\256\355\232G\247t&]\223\344'\267\305\307\224\256\011"
 357      A774265D 
 357      93E427B7 
 357      C5C794AE 
 357      09
 358 0726 BE213237 		.ascii	"\276!27\037\231#eS1Ur\364\324\376t\371\245\014u\\zt"
 358      1F992365 
 358      53315572 
 358      F4D4FE74 
 358      F9A50C75 
 359 073d 4502C237 		.ascii	"E\002\3027\353m\312\307\373%\017\315NN\367\211\375\013"
 359      EB6DCAC7 
 359      FB250FCD 
 359      4E4EF789 
 359      FD0B
 360 074f 7AC9F53B 		.ascii	"z\311\365;E\376\365\237\206\213Wv\213\023\261\007oC"
 360      45FEF59F 
 360      868B5776 
 360      8B13B107 
 360      6F43
 361 0761 56173A0D 		.ascii	"V\027:\015\215\001\007T\313\245+3\025c\020E\250\327"
 361      8D010754 
 361      CBA52B33 
 361      15631045 
 361      A8D7
 362 0773 9D7A6360 		.ascii	"\235zc`u1\311\322\315\222\260\026+\334,\361\257<i\304"
 362      7531C9D2 
 362      CD92B016 
 362      2BDC2CF1 
 362      AF3C69C4 
 363 0787 0786E0AB 		.ascii	"\007\206\340\253\007\224\225'*\214\006\313\200]u\015"
 363      07949527 
ARM GAS  /tmp/ccKQ3QAX.s 			page 28


 363      2A8C06CB 
 363      805D750D 
 364 0797 23095B52 		.ascii	"#\011[R\325\035\206u\312\265_\334 \341tU\272\227\255"
 364      D51D8675 
 364      CAB55FDC 
 364      20E17455 
 364      BA97AD
 365 07aa 601B4FCF 		.ascii	"`\033O\3173[l\201n|\205\355\306\357Y\006\363h\300\256"
 365      335B6C81 
 365      6E7C85ED 
 365      C6EF5906 
 365      F368C0AE 
 366 07be B2607B78 		.ascii	"\262`{x\300<\346\224}\307\202}`\031LK\331\017"
 366      C03CE694 
 366      7DC7827D 
 366      60194C4B 
 366      D90F
 367 07d0 2CD8611E 		.ascii	",\330a\0360\243\305\026\243\017\353\010\370\305E8\356"
 367      30A3C516 
 367      A30FEB08 
 367      F8C54538 
 367      EE
 368 07e1 D6634BAD 		.ascii	"\326cK\255\304x\025\306oa\274\006\343\265\030\257\307"
 368      C47815C6 
 368      6F61BC06 
 368      E3B518AF 
 368      C7
 369 07f2 B811E37D 		.ascii	"\270\021\343}\030\177\200\361A\266}\023xm\327j\372\020"
 369      187F80F1 
 369      41B67D13 
 369      786DD76A 
 369      FA10
 370 0804 93360FBD 		.ascii	"\2236\017\275\266c\272\316\246\363\332\346\233\260J"
 370      B663BACE 
 370      A6F3DAE6 
 370      9BB04A
 371 0813 A83F92C0 		.ascii	"\250?\222\300k;\242\367\332\232\235V\2756\246\031\320"
 371      6B3BA2F7 
 371      DA9A9D56 
 371      BD36A619 
 371      D0
 372 0824 67FFEE23 		.ascii	"g\377\356#\261\272Z^\321O\355d_\352\021-.\357\036\237"
 372      B1BA5A5E 
 372      D14FED64 
 372      5FEA112D 
 372      2EEF1E9F 
 373 0838 9FD1F4A4 		.ascii	"\237\321\364\244\012v\3312\230\276\307\252\3558\015"
 373      0A76D932 
 373      98BEC7AA 
 373      ED380D
 374 0847 DB713AB6 		.ascii	"\333q:\266\310\\\214?\304\370#m\357k\351`\344\250\273"
 374      C85C8C3F 
 374      C4F8236D 
 374      EF6BE960 
 374      E4A8BB
 375 085a CFE0C5E7 		.ascii	"\317\340\305\347\005BrD\263F\232\"\305V\007$\341\206"
 375      05427244 
ARM GAS  /tmp/ccKQ3QAX.s 			page 29


 375      B3469A22 
 375      C5560724 
 375      E186
 376 086c 533771B2 		.ascii	"S7q\262\326\010\321\272\323\320\027\222\371\315\365"
 376      D608D1BA 
 376      D3D01792 
 376      F9CDF5
 377 087b 7615293B 		.ascii	"v\025);\246s\315\263\332\242\2756\203\013\352\027?E"
 377      A673CDB3 
 377      DAA2BD36 
 377      830BEA17 
 377      3F45
 378 088d BF798B2B 		.ascii	"\277y\213+\251\337\254\305\221\204]X\344\214n\234k\336"
 378      A9DFACC5 
 378      91845D58 
 378      E48C6E9C 
 378      6BDE
 379 089f 76ABF9EE 		.ascii	"v\253\371\3569\210|\206k\254\273a\264\334@\3112\223"
 379      39887C86 
 379      6BACBB61 
 379      B4DC40C9 
 379      3293
 380 08b1 E139BD32 		.ascii	"\3419\2752W\273URR\233\202\334\332\2156\345\034\366"
 380      57BB5552 
 380      529B82DC 
 380      DA8D36E5 
 380      1CF6
 381 08c3 C0972C83 		.ascii	"\300\227,\203i\033e\306\236\005\026\267)\216.\276\320"
 381      691B65C6 
 381      9E0516B7 
 381      298E2EBE 
 381      D0
 382 08d4 7B1B8AEC 		.ascii	"{\033\212\354+T\376O\334z]$\356\213F\027y\374\351\263"
 382      2B54FE4F 
 382      DC7A5D24 
 382      EE8B4617 
 382      79FCE9B3 
 383 08e8 3C8C9876 		.ascii	"<\214\230vH\322\222M}6\255\223\345\027\235\252\307c"
 383      48D2924D 
 383      7D36AD93 
 383      E5179DAA 
 383      C763
 384 08fa EAAA49C2 		.ascii	"\352\252I\302\005\254\354\262^\033\216.?|?\325\206\313"
 384      05ACECB2 
 384      5E1B8E2E 
 384      3F7C3FD5 
 384      86CB
 385 090c 5CDAB061 		.ascii	"\\\332\260a\177-\327d\260\336\251V_\214\325\257J#\325"
 385      7F2DD764 
 385      B0DEA956 
 385      5F8CD5AF 
 385      4A23D5
 386 091f 5FD5577F 		.ascii	"_\325W\177f\325\205\207i\365W\271\252?sh\246\2212\232"
 386      66D58587 
 386      69F557B9 
 386      AA3F7368 
 386      A691329A 
ARM GAS  /tmp/ccKQ3QAX.s 			page 30


 387 0933 CCD7D5E6 		.ascii	"\314\327\325\346[\336r\337\"\254\344\007T\240\357\323"
 387      5BDE72DF 
 387      22ACE407 
 387      54A0EFD3 
 388 0943 F4CDF748 		.ascii	"\364\315\367H:[\027~\327\350\357\255\030\365)\351/\260"
 388      3A5B177E 
 388      D7E8EFAD 
 388      18F529E9 
 388      2FB0
 389 0955 B9F39195 		.ascii	"\271\363\221\225\330R*\015\023;YE\324*\361\325C\330"
 389      D8522A0D 
 389      133B5945 
 389      D42AF1D5 
 389      43D8
 390 0967 2328D864 		.ascii	"#(\330d\036\260\004\226\375;\026\354%\313`Z\312~`\301"
 390      1EB00496 
 390      FD3B16EC 
 390      25CB605A 
 390      CA7E60C1 
 391 097b A6F28025 		.ascii	"\246\362\200%\330:\273\316\202\325X\006\323R\326\306"
 391      D83ABBCE 
 391      82D55806 
 391      D352D6C6 
 392 098b 82CDE601 		.ascii	"\202\315\346\001K\260u\366\023\0136\3172\230\226\262"
 392      4BB075F6 
 392      130B36CF 
 392      329896B2 
 393 099b 5B2C581D 		.ascii	"[,X\035\017\230\307\234\262iG\030\260\305\226\301\264"
 393      0F98C79C 
 393      B2694718 
 393      B0C596C1 
 393      B4
 394 09ac 94D5B060 		.ascii	"\224\325\260`\257\363\200%\330:\233\311\202\275a\031"
 394      AFF38025 
 394      D83A9BC9 
 394      82BD6119 
 395 09bc 4C4BD96C 		.ascii	"LK\331l\026l5\017\230\321\006\226\272\253\312\202\255"
 395      166C350F 
 395      98D10696 
 395      BAABCA82 
 395      AD
 396 09cd B30CA6A5 		.ascii	"\263\014\246\245l\036\013\366.\017\330C\346\224-`\301"
 396      6C1E0BF6 
 396      2E0FD843 
 396      E6942D60 
 396      C1
 397 09de 365B06D3 		.ascii	"6[\006\323R\3666\013\266\235\007\354Qs\312\326\261`"
 397      52F6360B 
 397      B69D07EC 
 397      5173CAD6 
 397      B160
 398 09f0 3B2D8369 		.ascii	";-\203i){\207\005\333\305\0036\314\234\262wY\260=\226"
 398      297B8705 
 398      DBC50336 
 398      CC9CB277 
 398      59B03D96 
 399 0a04 C1B4946D 		.ascii	"\301\264\224md\301\366\361\200\345\233S\266\231\005"
ARM GAS  /tmp/ccKQ3QAX.s 			page 31


 399      64C1F6F1 
 399      80E59B53 
 399      B69905
 400 0a13 3B60194C 		.ascii	";`\031LK\331V\026\254\211\007\354/\346\224mg\301>\264"
 400      4BD95616 
 400      AC8907EC 
 400      2FE6946D 
 400      67C13EB4 
 401 0a27 0CA6A5AC 		.ascii	"\014\246\245\254\211\005;\316\003\366\244\001e\261\217"
 401      89053BCE 
 401      03F6A401 
 401      65B18F
 402 0a36 999FD9C2 		.ascii	"\231\237\331\302\372\352';\251\016\216\3051Z\210c\234"
 402      FAEA273B 
 402      A90E8EC5 
 402      315A8863 
 402      9C
 403 0a47 E964D523 		.ascii	"\351d\325#\323\360M|\353>\233\225q\236:\253\347y\020"
 403      D3F04D7C 
 403      EB3E9B95 
 403      719E3AAB 
 403      E77910
 404 0a5a 130C80CA 		.ascii	"\023\014\200\312\011\015\012v\3312\230N\225\367\350"
 404      090D0A76 
 404      D932984E 
 404      95F7E8
 405 0a69 A723B163 		.ascii	"\247#\261cpQ\323}3\277\270\024\267\227\226\350\316\265"
 405      7051D37D 
 405      33BFB814 
 405      B79796E8 
 405      CEB5
 406 0a7b 991EFBEC 		.ascii	"\231\036\373\354\320LkmL3}\317\303C\202q\367\314\236"
 406      D04C6B6D 
 406      4C337DCF 
 406      C3438271 
 406      F7CC9E
 407 0a8e 05B875C8 		.ascii	"\005\270u\310\177\200\357\350\342\303\212\367\336`#"
 407      7F80EFE8 
 407      E2C38AF7 
 407      DE6023
 408 0a9d DEFB4F9D 		.ascii	"\336\373O\235\014W\3368\220\032.65(\213x\033\021jRz"
 408      0C57DE38 
 408      901A2E36 
 408      35288B78 
 408      1B116A52 
 409 0ab2 AA502D97 		.ascii	"\252P-\227\232\253\225E\274-\010\365\212\016\312\362"
 409      9AAB9545 
 409      BC2D08F5 
 409      8A0ECAF2 
 410 0ac2 B9C27FD4 		.ascii	"\271\302\177\324\275\222P\233\256k2\243\355Cs\357\006"
 410      BD92509B 
 410      AE6B32A3 
 410      ED4373EF 
 410      06
 411 0ad3 7AC5F1BE 		.ascii	"z\305\361\276\233V\313r\265\323J\243\355U\032-\212\342"
 411      9B56CB72 
 411      B5D34AA3 
ARM GAS  /tmp/ccKQ3QAX.s 			page 32


 411      ED551A2D 
 411      8AE2
 412 0ae5 59D4413C 		.ascii	"Y\324A<\033\365\213\234I\371Xn\231\217\373t|D\357\263"
 412      1BF58B9C 
 412      49F9586E 
 412      998FFB74 
 412      7C44EFB3 
 413 0af9 CEC70985 		.ascii	"\316\307\011\205\217\367\221\2175\177\007>6X\346\203"
 413      8FF7918F 
 413      357F073E 
 413      3658E683 
 414 0b09 3DF887F3 		.ascii	"=\370\207\363\306\007\350\274\221k\211\177\237M\267"
 414      C607E8BC 
 414      916B897F 
 414      9F4DB7
 415 0b18 C47F629F 		.ascii	"\304\177b\237\350\241\331\311&lr\364\332>f\262-\363"
 415      E8A1D9C9 
 415      266C72F4 
 415      DA3E66B2 
 415      2DF3
 416 0b2a 4DB65B14 		.ascii	"M\266[\024\211\035@\211m7\352c\\H\015\027\033{\255B"
 416      891D4089 
 416      6D37EA63 
 416      5C480D17 
 416      1B7BAD42 
 417 0b3e A42644DA 		.ascii	"\244&D\332\2252R\313\245\353\223\225\336z\024\241>\350"
 417      953252CB 
 417      A5EB9395 
 417      DE7A14A1 
 417      3EE8
 418 0b50 D08C4E5D 		.ascii	"\320\214N]+:\265\255\010_I]\327\311\344_\374\253\222"
 418      2B3AB5AD 
 418      085F495D 
 418      D7C9E45F 
 418      FCAB92
 419 0b63 43BEB884 		.ascii	"C\276\270\204\377\365r\222\360\021\222OZ\320\342X\031"
 419      FFF57292 
 419      F011924F 
 419      5AD0E258 
 419      19
 420 0b74 D7A0DF6C 		.ascii	"\327\240\337lR\3069\332J\247~\026\342\304\350\372)\013"
 420      52C639DA 
 420      4AA77E16 
 420      E2C4E8FA 
 420      290B
 421 0b86 959DA047 		.ascii	"\225\235\240G\310H\367\305\317\204;\274\337\372\032"
 421      C848F7C5 
 421      CF843BBC 
 421      DFFA1A
 422 0b95 CFCEBBA8 		.ascii	"\317\316\273\250\332}\212\014]\356\320\302)\255\361"
 422      DA7D8A0C 
 422      5DEED0C2 
 422      29ADF1
 423 0ba4 FC982A23 		.ascii	"\374\230*#\261\217$\310\031\034C\246'Qk]\177\200s\235"
 423      B18F24C8 
 423      191C43A6 
 423      27516B5D 
ARM GAS  /tmp/ccKQ3QAX.s 			page 33


 423      7F80739D 
 424 0bb8 28B6FAF8 		.ascii	"(\266\372\370U\257F\024\306Y\033Y}|.\303p\3651\321z"
 424      55AF4614 
 424      C6591B59 
 424      7D7C2EC3 
 424      70F531D1 
 425 0bcd D30C2C72 		.ascii	"\323\014,r\336\326a\365\261\2517]\360!?q\2547MV\365"
 425      DED661F5 
 425      B1A9375D 
 425      F0213F71 
 425      AC374D56 
 426 0be2 822E2A7E 		.ascii	"\202.*~.I\012l\252\362\3244a\234>\277\370\245\215\270"
 426      2E490A6C 
 426      AAF2D434 
 426      619C3EBF 
 426      F8A58DB8 
 427 0bf6 395FD934 		.ascii	"9_\3314\313\316K,\313\336\303\312>zc\377\002\221\320"
 427      CBCE4B2C 
 427      CBDEC3CA 
 427      3E7A63FF 
 427      0291D0
 428 0c09 6FB044F6 		.ascii	"o\260D\366(\353P\306\004\337\334{/\212\347\022\012\376"
 428      28EB50C6 
 428      04DFDC7B 
 428      2F8AE712 
 428      0AFE
 429 0c1b 2D13C13F 		.ascii	"-\023\301?j\206#\011\333\260\3107\035\005\337x\027\025"
 429      6A862309 
 429      DBB0C837 
 429      1D05DF78 
 429      1715
 430 0c2d FC375C82 		.ascii	"\3747\\\202?f(\370o\254\013>v\370>\346\310\372\305/"
 430      3F6628F8 
 430      6FAC0B3E 
 430      76F83EE6 
 430      C8FAC52F 
 431 0c41 2C837912 		.ascii	",\203y\022\265\3427L+^\301Vl\261\221\005\377\253\332"
 431      B5E2374C 
 431      2B5EC156 
 431      6CB19105 
 431      FFABDA
 432 0c54 B63CA86F 		.ascii	"\266<\250oK\215\344\224\244\351\362\205\034\235qP\335"
 432      4B8DE494 
 432      A4E9F285 
 432      1C9D7150 
 432      DD
 433 0c65 ADA636EF 		.ascii	"\255\2466\357\004\217n$Xt\250;\210\"\241\366\346\214"
 433      048F6E24 
 433      5874A83B 
 433      8822A1F6 
 433      E68C
 434 0c77 65308F06 		.ascii	"e0\217\006l\333T\316S\201\261\223\227]Q(\027\261\336"
 434      6CDB54CE 
 434      5381B193 
 434      975D5128 
 434      17B1DE
 435 0c8a 36BDBA1C 		.ascii	"6\275\272\034\376\362\360\363\342\004\034\361\3328\364"
ARM GAS  /tmp/ccKQ3QAX.s 			page 34


 435      FEF2F0F3 
 435      E2041CF1 
 435      DA38F4
 436 0c99 0506FAF3 		.ascii	"\005\006\372\363irM\206\252\267KoSQ\023\210:\201\266"
 436      69724D86 
 436      AAB74B6F 
 436      53511388 
 436      3A81B6
 437 0cac DCB8B057 		.ascii	"\334\270\260WD8:\361yS\017\227t^\246\205\273\0250>\272"
 437      44383AF1 
 437      79530F97 
 437      745EA685 
 437      BB15303E 
 438 0cc1 662E18F5 		.ascii	"f.\030\365\340\332&\342\352T\333\011O\357\334\246\037"
 438      E0DA26E2 
 438      EA54DB09 
 438      4FEFDCA6 
 438      1F
 439 0cd2 11A86418 		.ascii	"\021\250d\030Elc\024\361'T\304\233\250\210\355\030O"
 439      456C6314 
 439      F12754C4 
 439      9BA888ED 
 439      184F
 440 0ce4 B073EC3F 		.ascii	"\260s\354?M\2643\223\245\255\226\371\366\350Z\307\254"
 440      4DB43393 
 440      A5AD96F9 
 440      F6E85AC7 
 440      AC
 441 0cf5 9A1FD939 		.ascii	"\232\037\3319\331\337n\343\320=\3635*b\324\377\240\272"
 441      D9DF6EE3 
 441      D03DF335 
 441      2A62D4FF 
 441      A0BA
 442 0d07 037487E4 		.ascii	"\003t\207\344\200eD\2556\267L\325\270\003\307y\340\036"
 442      806544AD 
 442      36B74CD5 
 442      B803C779 
 442      E01E
 443 0d19 3520D0E8 		.ascii	"5 \320\350\303\356\211\371\305\317p\373\361,n\020\236"
 443      C3EE89F9 
 443      C5CF70FB 
 443      F12C6E10 
 443      9E
 444 0d2a C7F84B8C 		.ascii	"\307\370K\214\277\306\370Ml\270\325\030\277\215\361"
 444      BFC6F84D 
 444      6CB8D518 
 444      BF8DF1
 445 0d39 3B18EFC0 		.ascii	";\030\357\300x\027\306{1\376\014\343\213\030\177\207"
 445      7817C67B 
 445      31FE0CE3 
 445      8B187F87 
 446 0d49 F10F185F 		.ascii	"\361\017\030_\307\370\005;\211_J\246\000\312(0\375\333"
 446      C7F8053B 
 446      895F4AA6 
 446      00CA2830 
 446      FDDB
 447 0d5b 137DDE44 		.ascii	"\023}\336D[}\022\325\177Ng\275\346\235\223t;\026\035"
ARM GAS  /tmp/ccKQ3QAX.s 			page 35


 447      5B7D12D5 
 447      7F4E67BD 
 447      E69D9374 
 447      3B161D
 448 0d6e B6DC5675 		.ascii	"\266\334Vu\346\330\272L\260\271\324\372\321\301\217"
 448      E6D8BA4C 
 448      B0B9D4FA 
 448      D1C18F
 449 0d7d C519B2DC 		.ascii	"\305\031\262\334\330\217\352\277_\274a\223\264\210\332"
 449      D88FEABF 
 449      5FBC6193 
 449      B488DA
 450 0d8c 1E93401B 		.ascii	"\036\223@\033\225F=U\267\210o\357(v\000\360Wq\231\034"
 450      95463D55 
 450      B7886FEF 
 450      287600F0 
 450      5771991C 
 451 0da0 6B3DF1DF 		.ascii	"k=\361\337\324\003\257\301\336\370\215N&Iq\210\224f"
 451      D403AFC1 
 451      DEF88D4E 
 451      26497188 
 451      9466
 452 0db2 D975877E 		.ascii	"\331u\207~ZN\343AB\222\237\374 \341\367\247g*JI\017"
 452      5A4EE341 
 452      42929FFC 
 452      20E1F7A7 
 452      672A4A49 
 453 0dc7 37B42109 		.ascii	"7\264!\011\244l\012C\"9)q\2329)q\3132\230G\003v\235"
 453      A46C0A43 
 453      22392971 
 453      9A392971 
 453      CB329847 
 454 0dde 059BD885 		.ascii	"\005\233\330\205\003,\301Y\2706\026l\222e0-e?\261`/"
 454      032CC159 
 454      B836166C 
 454      9265302D 
 454      653FB160 
 455 0df3 F0802538 		.ascii	"\360\200%8\013w\213\005\233j\031LK\331\2643\014\330"
 455      0B778B05 
 455      9B6A194C 
 455      4BD9B433 
 455      0CD8
 456 0e05 2C1EB004 		.ascii	",\036\260\004\307{jX\260\005\226\301\264\224\315d\301"
 456      C77B6A58 
 456      B00596C1 
 456      B494CD64 
 456      C1
 457 0e16 96F28079 		.ascii	"\226\362\200y\014(3\372\260\235\300/\316\266\023\353"
 457      0C2833FA 
 457      B09DC02F 
 457      CEB613EB 
 458 0e26 578BD669 		.ascii	"W\213\326i.\306\3631^\210\361\"\214_\303x\011\306\313"
 458      2EC6F331 
 458      5E88F122 
 458      8C5FC378 
 458      09C6CB
 459 0e39 305ECE33 		.ascii	"0^\3163\220Mg\007\2627\272pX\243\004KH\255\263O\375"
ARM GAS  /tmp/ccKQ3QAX.s 			page 36


 459      904D6707 
 459      B237BA70 
 459      58A3044B 
 459      48ADB34F 
 460 0e4e AC13E8CD 		.ascii	"\254\023\350\315\333n\354\375Wb>\222\237B\177\313\316"
 460      DB6EECFD 
 460      57623E92 
 460      9F427FCB 
 460      CE
 461 0e5f 770A7D8D 		.ascii	"w\012}\215\336\226|\177\020m\311\232\344\266\004l\341"
 461      DE967C7F 
 461      106DC99A 
 461      E4B6046C 
 461      E1
 462 0e70 354E772D 		.ascii	"5Nw-*\262\322\211\331\302\275\017S[\270\036m\341\367"
 462      2AB2D289 
 462      D9C2BD0F 
 462      535BB81E 
 462      6DE1F7
 463 0e83 5D92DA42 		.ascii	"]\222\332B-\016\241\357]=\375\353\017!\375\357r\331"
 463      2D0EA1EF 
 463      5D3DFDEB 
 463      0F21FDEF 
 463      72D9
 464 0e95 C20D87B4 		.ascii	"\302\015\207\264\266\360\205\256\242\202\231\232-\334"
 464      B6F085AE 
 464      A282999A 
 464      2DDC
 465 0ea3 788851F8 		.ascii	"x\210Q\370)\226\301<\032\260\315,\3304\036\260D\347"
 465      2996C13C 
 465      1AB0CD2C 
 465      D8341EB0 
 465      44E7
 466 0eb5 8259B099 		.ascii	"\202Y\260\231\226\301\264\224mg\301\346\362\200%:\027"
 466      96C1B494 
 466      6D67C1E6 
 466      F280253A 
 466      17
 467 0ec6 CC82D559 		.ascii	"\314\202\325Y\006\363\0305\257\320A;\374\342\0064\022"
 467      06F31835 
 467      AFD0413B 
 467      FCE20634 
 467      12
 468 0ed7 1BB1EB6F 		.ascii	"\033\261\353o\306x+\306\3331\216b\374\036\217IX\307"
 468      C6782BC6 
 468      DB318E62 
 468      FC1E8F49 
 468      58C7
 469 0ee9 9A84C548 		.ascii	"\232\204\305H\360\232\3244\2068\2357>\373\027\272\327"
 469      F09AD434 
 469      86389D37 
 469      3EFB17BA 
 469      D7
 470 0efa A23B0C42 		.ascii	"\242;\014B\344aF\301n\226\202\225\226)\360\260\024D"
 470      E46146C1 
 470      6E968295 
 470      9629F0B0 
ARM GAS  /tmp/ccKQ3QAX.s 			page 37


 470      1444
 471 0f0c 6F1CA45B 		.ascii	"o\034\244[\021\352n\300j=\236\321\272l\242Y\312A|>\235"
 471      11EA6EC0 
 471      6A3D9ED1 
 471      BA6CA259 
 471      CA417C3E 
 472 0f21 82355806 		.ascii	"\2025X\006\323>\323?\355\020\003\266\3032\230\331i\275"
 472      D33ED33F 
 472      ED1003B6 
 472      C33298D9 
 472      69BD
 473 0f33 B75117D6 		.ascii	"\267Q\027\326b\233\277\217q#\306\3730\376\200\325\002"
 473      629BBF8F 
 473      7123C6FB 
 473      30FE80D5 
 473      02
 474 0f44 49D8DD55 		.ascii	"I\330\335U\357\267R\343\310\240\306\255\250\300\213"
 474      EFB752E3 
 474      C8A0C6AD 
 474      A8C08B
 475 0f53 6BD6B6AB 		.ascii	"k\326\266\253\330\266=\321\225c\300\361\230kW\353\354"
 475      D8B63DD1 
 475      9563C0F1 
 475      986B57EB 
 475      EC
 476 0f64 33CA8043 		.ascii	"3\312\200C\201a\202n\031Q\253-\263\316\324i\316\272"
 476      8161826E 
 476      1951AB2D 
 476      B3CED469 
 476      CEBA
 477 0f76 9FE7C14B 		.ascii	"\237\347\301Kp\230b\001u\021(\330\267\226\301<\202\351"
 477      70986201 
 477      751128D8 
 477      B796C13C 
 477      82E9
 478 0f88 877DBA0F 		.ascii	"\207}\272\017&0\270\373\367#>`\373\022N\212>\301\370"
 478      2630B8FB 
 478      F7233E60 
 478      FB124E8A 
 478      3EC1F8
 479 0f9b 556C9969 		.ascii	"Ul\231i\030"
 479      18
 480 0fa0 BF817113 		.ascii	"\277\201q\023\306G0\376\220\247\305ZE\246\305~D\026"
 480      C64730FE 
 480      90A7C55A 
 480      45A6C57E 
 480      4416
 481 0fb2 AE58386B 		.ascii	"\256X8k\251m\261\226#\037\277\246\266\330\024\2346\335"
 481      A96DB196 
 481      231FBFA6 
 481      B6D8149C 
 481      36DD
 482 0fc4 B28CA86D 		.ascii	"\262\214\250m\261\037\350\222\025\005{\256\033\007\230"
 482      B11FE892 
 482      15057BAE 
 482      1B0798
 483 0fd3 51E73696 		.ascii	"Q\3476\226\360\025F\302-(\341\253\364\321f\224\336\011"
ARM GAS  /tmp/ccKQ3QAX.s 			page 38


 483      F01546C2 
 483      2D28E1AB 
 483      F4D16694 
 483      DE09
 484 0fe5 1EE97D1D 		.ascii	"\036\351}\035\227\036\3772\367\231s\307\377\370\006"
 484      971EFF32 
 484      F79973C7 
 484      FFF806
 485 0ff4 9D5AE2B3 		.ascii	"\235Z\342\263\211/u\373;,s\273"
 485      892F75FB 
 485      3B2C73BB 
 486 1000 85E7E9D3 		.ascii	"\205\347\351\323\227\362\004\361i\306\03616\206}\345"
 486      97F204F1 
 486      69C61E31 
 486      36867DE5 
 487 1010 D069BB9B 		.ascii	"\320i\273\233,\020w\323nD25\222\033T\316iZMA\221\276"
 487      2C1077D3 
 487      6E443235 
 487      921B54CE 
 487      695A4D41 
 488 1026 429D1CBD 		.ascii	"B\235\034\275\322\334\372\306\305^\253\210\371\227o"
 488      D2DCFAC6 
 488      C55EAB88 
 488      F9976F
 489 1035 B5FF75C2 		.ascii	"\265\377u\302DQ\367\004\237\335|\0148k\327<\301g\350"
 489      4451F704 
 489      9FDD7C0C 
 489      386BD73C 
 489      C167E8
 490 1048 50265B20 		.ascii	"P&[ \337\262\372jo\352\201\235G\017lRw\213\013\344\370"
 490      DFB2FA6A 
 490      6FEA819D 
 490      470F6C52 
 490      778B0BE4 
 491 105d ACB5DE03 		.ascii	"\254\265\336\003k\240\217\001\177\305\345An\332\375"
 491      6BA08F01 
 491      7FC5E541 
 491      6EDAFD
 492 106c A6A907A9 		.ascii	"\246\251\007\251s\210\365k~\363\200\332\244+`~\361\262"
 492      7388F56B 
 492      7EF380DA 
 492      A42B607E 
 492      F1B2
 493 107e 1D5769F5 		.ascii	"\035Wi\365T\316\230\214T~\303E\345\254\335\270\220g"
 493      54CE988C 
 493      547EC345 
 493      E5ACDDB8 
 493      9067
 494 1090 FEB025BF 		.ascii	"\376\260%\277\352\036[\177\366\017kPu[Qu\317w\327\253"
 494      EA1E5B7F 
 494      F60F6B50 
 494      755B5175 
 494      CF77D7AB 
 495 10a4 AE43A7B9 		.ascii	"\256C\247\271\016\255\346:\322\342\011Es\315\232\346"
 495      0EADE63A 
 495      D2E20945 
 495      73CD9AE6 
ARM GAS  /tmp/ccKQ3QAX.s 			page 39


 496 10b4 AA5DF794 		.ascii	"\252]\367\224\347#\351\206\372\302u~b\023\256\004&\331"
 496      E723E986 
 496      FAC2757E 
 496      6213AE04 
 496      26D9
 497 10c6 D635A3E4 		.ascii	"\3265\243\344\272\235]\351\211?u\212\017!\013I\037<"
 497      BA9D5DE9 
 497      893F758A 
 497      0F210B49 
 497      1F3C
 498 10d8 C56332EC 		.ascii	"\305c2\354\300\3705J\355\233\224\335\256-\253\217\364"
 498      C0F8354A 
 498      ED9B94DD 
 498      AE2DAB8F 
 498      F4
 499 10e9 EA3811D3 		.ascii	"\3528\021\323\365\276\326\004\335\357\026\247h\251\357"
 499      F5BED604 
 499      DDEF16A7 
 499      68A9EF
 500 10f8 628632C1 		.ascii	"b\2062\301\361\263\305r\223\025\313U\313b\361\260b\221"
 500      F1B3C572 
 500      9315CB55 
 500      CB62F1B0 
 500      6291
 501 110a C112A539 		.ascii	"\301\022\2459\023\211\344@\002f&;LE\022;\037\300\305"
 501      1389E440 
 501      0266263B 
 501      4C45123B 
 501      1FC0C5
 502 111d D22407C3 		.ascii	"\322$\007\303\3225\036\226\314\335\321\237\307\322\313"
 502      D2351E96 
 502      CCDDD19F 
 502      C7D2CB
 503 112c 062C71B1 		.ascii	"\006,q\2610\305\241[\310\274a\231\015\217\240\375\304"
 503      30C5A15B 
 503      C8BC6199 
 503      0D8FA0FD 
 503      C4
 504 113d FDCB2B38 		.ascii	"\375\313+8\272\376\204\361s\016\364h\034\034#\355%V"
 504      BAFE84F1 
 504      730EF468 
 504      1C1C23ED 
 504      2556
 505 114f 53DA919E 		.ascii	"S\332\221\236\257\254w \243\017;\010\370\305\013\350"
 505      AFAC7720 
 505      A30F3B08 
 505      F8C50BE8 
 506 115f 5C5FE419 		.ascii	"\\_\344\031\374?\217\223\024\0231s\316\212\222Z}\273"
 506      FC3F8F93 
 506      14133173 
 506      CE8A925A 
 506      7DBB
 507 1171 D642FE4A 		.ascii	"\326B\376JX\"\31358t^$\255Ka$\341e\274\3573{_\303\352"
 507      5822CB35 
 507      38745E24 
 507      AD4B6124 
 507      E165BCEF 
ARM GAS  /tmp/ccKQ3QAX.s 			page 40


 508 118a 94CA6861 		.ascii	"\224\312ha\271\026\234\"\221\326\005s\353$\005\025\212"
 508      B9169C22 
 508      91D60573 
 508      EB240515 
 508      8A
 509 119b FE8FB08C 		.ascii	"\376\217\260\214\350\315\307\237\347\017S\336\236`^"
 509      E8CDC79F 
 509      E70F53DE 
 509      9E605E
 510 11aa 48E16FBA 		.ascii	"H\341o\272C\363\002L2\3507_i>\261\371b\011y\202Xno\377"
 510      43F3024C 
 510      32E8375F 
 510      693EB1F9 
 510      62097982 
 511 11c2 AB7EC427 		.ascii	"\253~\304'\356\201\231\264\3468\222\016\371\232\205"
 511      EE8199B4 
 511      E638920E 
 511      F99A85
 512 11d1 E3D82B2F 		.ascii	"\343\330+/\310\3536c\357\375\3305\000\337@1\337AF\374"
 512      C8EB3663 
 512      EFFDD835 
 512      00DF4031 
 512      DF4146FC 
 513 11e5 25B71B8E 		.ascii	"%\267\033\216\370\3460\370\374\232C7\226\036\333C\037"
 513      F8E630F8 
 513      FC9A4337 
 513      961EDB43 
 513      1F
 514 11f6 6477F08C 		.ascii	"dw\360\214\245\247\2367_?\327\217\370\232\227\004J\302"
 514      A5A79E37 
 514      5F3FD78F 
 514      F89A9704 
 514      4AC2
 515 1208 5BB71B8F 		.ascii	"[\267\033\217\370\232\333\300\367s\220\021\177\251\236"
 515      F89ADBC0 
 515      F7739011 
 515      7FA99E
 516 1217 CAF5CF23 		.ascii	"\312\365\317#\225K\271\250l\330\223d\304O\334T+R5\034"
 516      954BB9A8 
 516      6CD89364 
 516      C44FDC54 
 516      2B52351C 
 517 122b CB59DBB7 		.ascii	"\313Y\333\267\031[\207\020\234\322(Gm\037\305\204i\254"
 517      195B8710 
 517      9CD22847 
 517      6D1FC584 
 517      69AC
 518 123d 65308F39 		.ascii	"e0\2179\330Q\036\260dVY\005;i\031\314\200\262T[j}\242"
 518      D8511EB0 
 518      64565905 
 518      3B6919CC 
 518      80B2545B 
 519 1254 514B9945 		.ascii	"QK\231E\304\276+\343\265\376w\256\226]\027oY\277X\035"
 519      C4BE2BE3 
 519      B5FE77AE 
 519      965D176F 
 519      59BF581D 
ARM GAS  /tmp/ccKQ3QAX.s 			page 41


 520 1268 53D1042C 		.ascii	"S\321\004,\233\037\250\375y,o\266\302\262\342\271\245"
 520      9B1FA8FD 
 520      792C6FB6 
 520      C2B2E2B9 
 520      A5
 521 1279 C4F22696 		.ascii	"\304\362&\226\345\033v\253,'\320\277/xT\306\374\374"
 521      E51B76AB 
 521      2C27D0BF 
 521      2F7854C6 
 521      FCFC
 522 128b EDCF93DF 		.ascii	"\355\317\223\337\337\314\345gh\324L\217\271(6\371\335"
 522      DFCCE567 
 522      68D44C8F 
 522      B92836F9 
 522      DD
 523 129c 1D575D68 		.ascii	"\035W]h\223\367\240M~\275\207\305\3232x\274Qo\355\256"
 523      93F7A04D 
 523      7EBD87C5 
 523      D33278BC 
 523      516FEDAE 
 524 12b0 053C3437 		.ascii	"\005<47\271\255\373q\231rL\201\256\302\274\213\365\357"
 524      B9ADFB71 
 524      99724C81 
 524      AEC2BC8B 
 524      F5EF
 525 12c2 4BD5EA44 		.ascii	"K\325\352D\333\002d\361\202b\355\260\214\3451\"T\325"
 525      DB0264F1 
 525      8262EDB0 
 525      8CE53122 
 525      54D5
 526 12d4 A138977E 		.ascii	"\2418\227~q\277\203\270\031\037\240\377s\220\307\377"
 526      71BF83B8 
 526      191FA0FF 
 526      7390C7FF 
 527 12e4 D9AD71B6 		.ascii	"\331\255q\266\271\024\370=\326\032\357\351aU\347\364"
 527      B914F83D 
 527      D61AEFE9 
 527      6155E7F4 
 528 12f4 BCC45DB8 		.ascii	"\274\304]\270\327\221\354U\030\277\205\361\032\214\327"
 528      D791EC55 
 528      18BF85F1 
 528      1A8CD7
 529 1303 62BC11E3 		.ascii	"b\274\021\343\035\030\357\344a\3555\266\243\275\212"
 529      1D18EFE4 
 529      61ED35B6 
 529      A3BD8A
 530 1312 B6A52ED5 		.ascii	"\266\245.\325\366kn9r\255?\276\230\225\377\275V\240"
 530      F66B6E39 
 530      72AD3FBE 
 530      9895FFBD 
 530      56A0
 531 1324 C1F47D5C 		.ascii	"\301\364}\\G\034\344\275VM:\015\346|\257\3251\207\356"
 531      471CE4BD 
 531      564D3A0D 
 531      E67CAFD5 
 531      3187EE
 532 1337 BD569B9E 		.ascii	"\275V\233\236\365\320\334\004:\254\274|\352d\217\216"
ARM GAS  /tmp/ccKQ3QAX.s 			page 42


 532      F5D0DC04 
 532      3AACBC7C 
 532      EA648F8E 
 533 1347 6FB5FAA2 		.ascii	"o\265\372\242\207\341[\255\276\355a\370V\253\266\036"
 533      87E15BAD 
 533      BEED61F8 
 533      56ABB61E 
 534 1357 866FB57A 		.ascii	"\206o\265z\261\247\366\255VJ\366\374x\266\203\311^\026"
 534      B1A7F6AD 
 534      564AF6FC 
 534      78B683C9 
 534      5E16
 535 1369 CF7632D9 		.ascii	"\317v2\331k\343\331.&{[<\333\315\264H\302s\356q!\371"
 535      6BE3D92E 
 535      267B5B3C 
 535      DBCDB448 
 535      C273EE71 
 536 137f C58FB00B 		.ascii	"\305\217\260\013|\3540~c\226_|Q\322i\202\245W\315\312"
 536      7CEC307E 
 536      63965F7C 
 536      51D26982 
 536      A557CDCA 
 537 1393 A80913C8 		.ascii	"\250\011\023\310\253n\324\367\337\221\371\354\222\370"
 537      AB6ED4F7 
 537      DF91F9EC 
 537      92F8
 538 13a1 C68476A9 		.ascii	"\306\204v\251\205\324x\321a\371\375w\312rG\214\032%"
 538      85D478D1 
 538      61F9FD77 
 538      CA72478C 
 538      1A25
 539 13b3 117FB1E3 		.ascii	"\021\177\261\343\336\236\242\226\213\344'6X\205\306"
 539      DE9EA296 
 539      8BE42736 
 539      5885C6
 540 13c2 F7919091 		.ascii	"\367\221\220\221\203\320&\011\007\270\320\222\015\035"
 540      83D02609 
 540      07B8D092 
 540      0D1D
 541 13d0 AA7D3BAC 		.ascii	"\252};\254G3\352k\011\226\277\257=o\276\201\232h?\030"
 541      4733EA6B 
 541      0996BFAF 
 541      3D6FBE81 
 541      9A683F18 
 542 13e4 A692B8DC 		.ascii	"\246\222\270\334\032_\200\305\365\036\253\213\257WY"
 542      1A5F80C5 
 542      F51EAB8B 
 542      AF5759
 543 13f3 BB7142AF 		.ascii	"\273qB\257-Iy\361hxi\337\243n$\321\245\321O\364\262"
 543      2D4979F1 
 543      687869DF 
 543      A36E24D1 
 543      A5D14FF4 
 544 1408 31D23EFE 		.ascii	"1\322>\376\327q\3261\266\177\021*~=\032\310\303\030"
 544      D771D631 
 544      B67F112A 
 544      7E3D1AC8 
ARM GAS  /tmp/ccKQ3QAX.s 			page 43


 544      C318
 545 141a 5FC0F832 		.ascii	"_\300\3702\306\337b\334\202\361w<\346s\036+\006fX\220"
 545      C6DF62DC 
 545      82F1773C 
 545      E6731E2B 
 545      06665890 
 546 142e 848B3D0D 		.ascii	"\204\213=\015\347\2360\203\373H\234Y-\017\243e%\341"
 546      E79E3083 
 546      FB489C59 
 546      2D0FA365 
 546      25E1
 547 1440 16DE57EB 		.ascii	"\026\336W\3530\233B*5\340\024r\242|y\322\244\256\242"
 547      309B422A 
 547      35E01472 
 547      A27C79D2 
 547      A4AEA2
 548 1453 BA28AC29 		.ascii	"\272(\254)\246\263\211\370\363\017\035'\221\365\315"
 548      A6B389F8 
 548      F30F1D27 
 548      91F5CD
 549 1462 D11A98C1 		.ascii	"\321\032\230\301Nhno\357K\347\2050M\276\303\210TyQ@"
 549      4E686E6F 
 549      EF4BE785 
 549      304DBEC3 
 549      88547951 
 550 1477 21125C39 		.ascii	"!\022\\9\034\030\332R#\262-1\2217\014\211\334\200\357"
 550      1C18DA52 
 550      23B22D31 
 550      91370C89 
 550      DC80EF
 551 148a 5206D568 		.ascii	"R\006\325h\177D\350\270^*\363=\255\324\270LyZIv\342"
 551      7F44E8B8 
 551      5E2AF33D 
 551      ADD4B84C 
 551      795A4976 
 552 149f 7EB38E4F 		.ascii	"~\263\216O~\250\226K\307[\025\250j\204\252\327A\371"
 552      7EA8964B 
 552      C75B15A8 
 552      6A84AAD7 
 552      41F9
 553 14b1 4541B7F6 		.ascii	"EA\267\366*h\227;\341\253\334\256|\350\363\010\220\363"
 553      2A68973B 
 553      E1ABDCAE 
 553      7CE8F308 
 553      90F3
 554 14c3 5721A532 		.ascii	"W!\2452f\312\330nm\226ot\340\263~}\353U\011\307\343"
 554      66CAD86E 
 554      6D966F74 
 554      E0B37E7D 
 554      EB5509C7 
 555 14d8 179CC4A3 		.ascii	"\027\234\304\243\334x\207\241G\231\350@m\024\213Lq\352"
 555      DC7887A1 
 555      4799E840 
 555      6D148B4C 
 555      71EA
 556 14ea 67FA4F7A 		.ascii	"g\372Ozhnr\257\362D\275\342U\262\312G\212\246\346U~"
 556      686E72AF 
ARM GAS  /tmp/ccKQ3QAX.s 			page 44


 556      F244BDE2 
 556      55B2CA47 
 556      8AA6E655 
 557 14ff 524CBC4A 		.ascii	"RL\274J\262\327\006S\331\030q\026\275Ju\011\342J#%m"
 557      B2D70653 
 557      D9187116 
 557      BD4A7509 
 557      E24A2325 
 558 1514 35C2EDE7 		.ascii	"5\302\355\347\201K\260\343}\346\253\215\344e\374\252"
 558      814BB0E3 
 558      7DE6AB8D 
 558      E465FCAA 
 559 1524 DD3BAA87 		.ascii	"\335;\252\207K\272M\255\245\356\312\177\314\351\247"
 559      4BBA4DAD 
 559      A5EECA7F 
 559      CCE9A7
 560 1533 627D6A19 		.ascii	"b}j\031\353>\243&QU3\336\236~\361\025'\261\241S\235"
 560      EB3EA326 
 560      515533DE 
 560      9E7EF115 
 560      27B1A153 
 561 1548 B80B8AF1 		.ascii	"\270\013\212\361t\214g`<\313\311a7\237wv\\\276\233\247"
 561      748C6760 
 561      3CCBC961 
 561      379F7776 
 561      5CBE9BA7 
 562 155c 9922273D 		.ascii	"\231\"'=\030\224\243b\036g&Ds\257\035\351C\237b\231"
 562      1894A362 
 562      1E672644 
 562      73AF1DE9 
 562      439F6299 
 563 1570 87FA3BEF 		.ascii	"\207\372;\357\316\344'\203\264@~q\201\223\350\333B\275"
 563      CEE42783 
 563      B4407E71 
 563      8193E8DB 
 563      42BD
 564 1582 02FF4817 		.ascii	"\002\377H\027\201\026r\251\360\315=KS]\252Z~'\327R\325"
 564      811672A9 
 564      F0CD3D4B 
 564      535DAA5A 
 564      7E27D752 
 565 1597 62A47289 		.ascii	"b\244r\211\236\312\243\224\312%\\T\036\333\243t4\262"
 565      9ECAA394 
 565      CA255C54 
 565      1EDBA374 
 565      34B2
 566 15a9 43A2CEB3 		.ascii	"C\242\316\263\227\244\332\321T\377\346&\202\321u\012"
 566      97A4DAD1 
 566      54FFE626 
 566      82D1750A 
 567 15b9 2B601E23 		.ascii	"+`\036#\260Ih\002^\344\001K\276hD\327\326\247Z\0063"
 567      B0496802 
 567      5EE4014B 
 567      BE6844D7 
 567      D6A75A06 
 568 15ce A02CD57D 		.ascii	"\240,\325}\201U\316\344[\035\312w\376\235\301Ym\315"
 568      8155CEE4 
ARM GAS  /tmp/ccKQ3QAX.s 			page 45


 568      5B1DCA77 
 568      FE9DC159 
 568      6DCD
 569 15e0 AF2BC3D3 		.ascii	"\257+\303\323\032\034\2366\334\251\037\236R\330\325"
 569      1A1C9E36 
 569      DCA91F9E 
 569      52D8D5
 570 15ef 1638A7BA 		.ascii	"\0268\247\272o8\231\251\356N\2549\211p\315\227\247H"
 570      6F3899A9 
 570      EE4EAC39 
 570      8970CD97 
 570      A748
 571 1601 07FE45D2 		.ascii	"\007\376E\322\355\265D\002nH$\3405N\376%\250wX\266v"
 571      EDB54402 
 571      6E4824E0 
 571      354EFE25 
 571      A87758B6 
 572 1616 5B66CBA2 		.ascii	"[f\313\242\316$\3321\334\222\210%\375*\233\262\003\230"
 572      CE24DA31 
 572      DC928825 
 572      FD2A9BB2 
 572      0398
 573 1628 12CB9B59 		.ascii	"\022\313\233Y\226\367\363\260\374s\026\312\022\261\374"
 573      96F7F3B0 
 573      FC7316CA 
 573      12B1FC
 574 1637 B7442CEB 		.ascii	"\267D,\353\327R\177\016\313\357\261,\037\261\314\262"
 574      D7527F0E 
 574      CBEFB12C 
 574      1FB1CCB2 
 575 1647 47D07EE2 		.ascii	"G\320~\3423\252e8\030\276\216\361r\214W`\274\022\343"
 575      33AA6538 
 575      18BE8EF1 
 575      728C5760 
 575      BC12E3
 576 165a F5186FC2 		.ascii	"\365\030o\302x'\317\200Y\357\354\260N\2630EC-Go\221"
 576      7827CF80 
 576      59EFECB0 
 576      4EB33045 
 576      432D476F 
 577 166f F720F01E 		.ascii	"\367 \360\036\365\270r\253\2557z\204\373pD}\265\227"
 577      F5B872AB 
 577      AD377A84 
 577      FB70447D 
 577      B597
 578 1681 C5931E92 		.ascii	"\305\223\036\222P\207E\016\350\207\252\015\223\361e"
 578      5087450E 
 578      E887AA0D 
 578      93F165
 579 1690 D007B886 		.ascii	"\320\007\270\206\252M\234/}\257\217y\243=\204\370SL"
 579      AA4D9C2F 
 579      7DAF8F79 
 579      A33D84F8 
 579      534C
 580 16a2 3745703E 		.ascii	"7Ep>\217 \375\253\214\3517\307\220\204\255X\344\230"
 580      8F20FDAB 
 580      8CE937C7 
ARM GAS  /tmp/ccKQ3QAX.s 			page 46


 580      9084AD58 
 580      E498
 581 16b4 9EFEEFFD 		.ascii	"\236\376\357\375\036\232\233\234\372k\352\343\\\207"
 581      1E9A9B9C 
 581      FA6BEAE3 
 581      5C87
 582 16c2 9DE836C6 		.ascii	"\235\3506\306\000S\363h\177\302uR\372h\330Q\313X\036"
 582      0053F368 
 582      7FC27552 
 582      FA68D851 
 582      CB581E
 583 16d5 0DD6F4DD 		.ascii	"\015\326\364\335\352C}\312sx<x\011\\\332\231\344\320"
 583      EA437DCA 
 583      73783C78 
 583      095CDA99 
 583      E4D0
 584 16e7 9895C78E 		.ascii	"\230\225\307\216\367*\217\035\237\301\221\353B\257\277"
 584      F72A8F1D 
 584      9FC191EB 
 584      42AFBF
 585 16f6 C3C82509 		.ascii	"\303\310%\011?X\346B#\225\346\226[g{\251OtQ\302\332"
 585      3F58E642 
 585      2395E696 
 585      5B677BA9 
 585      4F7451C2 
 586 170b 79108D06 		.ascii	"y\020\215\0066\243\017\253M~\361c\364\247\217\2431\370"
 586      36A30FAB 
 586      4D7EF163 
 586      F4A78FA3 
 586      31F8
 587 171d 04E34F31 		.ascii	"\004\343O1>\215\3619\036\363p\2305c/\366V\373\233E\365"
 587      3E8DF139 
 587      1EF37098 
 587      35632FF6 
 587      56FB9B45 
 588 1732 3226F500 		.ascii	"2&\365\000C\352!$\265\211%I\022\246c}V\314\221V\330"
 588      43EA2124 
 588      B5892549 
 588      12A6637D 
 588      56CC9156 
 589 1747 73AFB5F5 		.ascii	"s\257\265\365m\235(\317\351\307\275l\034msJ~\361+'Y"
 589      6D9D28CF 
 589      E9C7BD6C 
 589      1C6D734A 
 589      7EF12B27 
 590 175c 32AEED9D 		.ascii	"2\256\355\235\322\222\361%\247n\311\270\225\376\025"
 590      D292F125 
 590      A76EC9B8 
 590      95FE15
 591 176b 02C94FBE 		.ascii	"\002\311O\276h\374Z\357\216\213\306\253z\033.\032\257"
 591      68FC5AEF 
 591      8E8BC6AB 
 591      7A1B2E1A 
 591      AF
 592 177c EFAD5D34 		.ascii	"\357\255]4V\244\220p\2516N\234_\374\032E~\331\231x\251"
 592      56A49070 
 592      A9364E9C 
ARM GAS  /tmp/ccKQ3QAX.s 			page 47


 592      5FFC1A45 
 592      7ED99978 
 593 1791 76A18589 		.ascii	"v\241\205\211\236\300H_\216\266\357!\017\256\362>\206"
 593      9EC0485F 
 593      8EB6EF21 
 593      0FAEF23E 
 593      86
 594 17a2 F6E3AA4B 		.ascii	"\366\343\252K\312\243y\337\2419m\355\235\334\234\032"
 594      CAA379DF 
 594      A1396DED 
 594      9DDC9C1A 
 595 17b2 E080D9C1 		.ascii	"\340\200\331\301w\312^C\220\011wY\004\221\204\227\261"
 595      77CA5E43 
 595      90097759 
 595      04918497 
 595      B1
 596 17c3 489BDE26 		.ascii	"H\233\336&o\243g\363\3328\2542\371"
 596      6FA367F3 
 596      DA38AC32 
 596      F9
 597 17d0 D711FA6C 		.ascii	"\327\021\372l\272\372\320\356\254\030\246R\351\243\254"
 597      BAFAD0EE 
 597      AC18A652 
 597      E9A3AC
 598 17df F8929BE5 		.ascii	"\370\222\233\345&z^\226\236\316[\244\007\263hG\217\306"
 598      267A5E96 
 598      9ECE5BA4 
 598      07B36847 
 598      8FC6
 599 17f1 9E3F9F80 		.ascii	"\236?\237\200\353\204+-\343i:Y\364CJ\034\005[\307\003"
 599      EB842B2D 
 599      E3693A59 
 599      F4434A1C 
 599      055BC703 
 600 1805 96E0AD4C 		.ascii	"\226\340\255L\307Y\260\215\226\301\264\224}\302\202"
 600      C759B08D 
 600      96C1B494 
 600      7DC282
 601 1814 4579C012 		.ascii	"Ey\300\022\274\036\351\2242\234\245\370\357\026S\\\346"
 601      BC1EE994 
 601      329CA5F8 
 601      EF16535C 
 601      E6
 602 1825 4B68545B 		.ascii	"KhT[\315J\276\3422^\0116\037\373\242\265\324\001z\311"
 602      CD4ABEE2 
 602      325E0936 
 602      1FFBA2B5 
 602      D4017AC9 
 603 1839 45186FD4 		.ascii	"E\030o\324\365\001]\325\2040\263\252\247\271\314\337"
 603      F5015DD5 
 603      8430B3AA 
 603      A7B9CCDF 
 604 1849 ABACFB0D 		.ascii	"\253\254\373\015|\\\313\002\326\266\326\231\311\232"
 604      7C5CCB02 
 604      D6B6D699 
 604      C99A
 605 1857 27934FF2 		.ascii	"'\223O\362\300y\014\332\313\350\303vh\277\370\023\032"
ARM GAS  /tmp/ccKQ3QAX.s 			page 48


 605      C0790CDA 
 605      CBE8C376 
 605      68BFF813 
 605      1A
 606 1868 BE9B3808 		.ascii	"\276\2338\010\266c<\301E\342j\214'a\374<\306/b\\\343"
 606      B6633CC1 
 606      45E26A8C 
 606      2761FC3C 
 606      C62F625C 
 607 187d BAF71F8D 		.ascii	"\272\367\037\215*\011g\357\322\215uZ\303\224\254\037"
 607      2A0967EF 
 607      D28D755A 
 607      C394AC1F 
 608 188d CA38D8E1 		.ascii	"\3128\330\341c\305\374\026\367\350/\250\305\235\355"
 608      63C5FC16 
 608      F7E82FA8 
 608      C59DED
 609 189c 2256EA82 		.ascii	"\"V\352\202NQ\250Z\376\243\370\275\316\305\257\351K"
 609      4E51A85A 
 609      FEA3F8BD 
 609      CEC5AFE9 
 609      4B
 610 18ad 1E62FCCE 		.ascii	"\036b\374\316\351\307\376\023\026s\262U\216)\214\254"
 610      E9C7FE13 
 610      1673B255 
 610      8E298CAC 
 611 18bd EAF37C57 		.ascii	"\352\363|W7%\245\376y\033\361\277\364\204\350\012*i"
 611      3725A5FE 
 611      791BF1BF 
 611      F484E80A 
 611      2A69
 612 18cf D3D705E2 		.ascii	"\323\327\005\342f\236\315I\321%a\342\335\\pMv3<\243"
 612      669ECD49 
 612      D12561E2 
 612      DD5C704D 
 612      76333CA3 
 613 18e3 09AED19F 		.ascii	"\011\256\321\237\271h\376XWi\322\017[\177|Qy\271\304"
 613      B968FE58 
 613      5769D20F 
 613      5B7F7C51 
 613      79B9C4
 614 18f6 6BD8A693 		.ascii	"k\330\246\223\356N:\000v\374\207\336\245.\335\340\267"
 614      EE4E3A00 
 614      76FC87DE 
 614      A52EDDE0 
 614      B7
 615 1907 F06CA388 		.ascii	"\360l\243\21035\362K\222\341\357\271\352\350\332\263"
 615      3335F24B 
 615      92E1EFB9 
 615      EAE8DAB3 
 616 1917 8D12F377 		.ascii	"\215\022\363w$~q\001=g\343J\365\031\306ug\225\305q\012"
 616      247E7101 
 616      3D67E34A 
 616      F519C675 
 616      6795C571 
 617 192c 576719CE 		.ascii	"Wg\031\316\243\201{G\013wH\342\200K\360\034\343\273"
 617      A3817B47 
ARM GAS  /tmp/ccKQ3QAX.s 			page 49


 617      0B7748E2 
 617      804BF01C 
 617      E3BB
 618 193e 5AB8393C 		.ascii	"Z\2709<\324%x\222q\243\026n\036\017\\\202g\0317\263"
 618      D4257892 
 618      71A3166E 
 618      1E0F5C82 
 618      671937B3 
 619 1952 70923003 		.ascii	"p\2220\003\025\302\012\234\226\272\255Z\270Z\0368\243"
 619      15C20A9C 
 619      96BAAD5A 
 619      B85A1E38 
 619      A3
 620 1963 51D5E8C3 		.ascii	"Q\325\350\303j\236_\\\346\"\366\345u\264\035\3131^\201"
 620      6A9E5F5C 
 620      E622F6E5 
 620      75B41DCB 
 620      315E81
 621 1976 F14A8CDF 		.ascii	"\361J\214\337\300x\025\306o\261\226\305l,\253w1\023"
 621      C07815C6 
 621      6FB196C5 
 621      6C2CAB77 
 621      3113
 622 1988 9905FA4E 		.ascii	"\231\005\372NjDvS\302\263\317\032\272\0272v\261\016"
 622      6A447653 
 622      C2B3CF1A 
 622      BA173276 
 622      B10E
 623 199a EDE222B4 		.ascii	"\355\342\"\264\210{1\376\022\343V\272\211\201\024\317"
 623      887B31FE 
 623      12E356BA 
 623      898114CF 
 624 19aa C37821C6 		.ascii	"\303x!\306\213x\250\237\3534=($\011\213u\235<\266#\374"
 624      8B78A89F 
 624      EB343D28 
 624      24098B75 
 624      9D3CB623 
 625 19bf 49EFBDF4 		.ascii	"I\357\275\3644\362\363\270:\260\016\357\273e\272\331"
 625      34F2F3B8 
 625      3AB00EEF 
 625      BB65BAD9 
 626 19cf 8A7B27CA 		.ascii	"\212{'\312\036\355\341@l#\271!I1\334^\321\036b\236\213"
 626      1EEDE140 
 626      6C23B921 
 626      4931DC5E 
 626      D11E629E 
 627 19e4 F56D4A52 		.ascii	"\365mJRPaJ9\304\274\366\323\374^tCU\320\2262\332\333"
 627      50614A39 
 627      C4BCF6D3 
 627      FC5E7443 
 627      55D09632 
 628 19fa 7DDB65B4 		.ascii	"}\333e\264\267\273c\337Tuo\327\255s\315\010\221f\302"
 628      B7BB63DF 
 628      54756FD7 
 628      AD73CD08 
 628      9166C2
 629 1a0d DDE4D2AD 		.ascii	"\335\344\322\255\011\022A\350d\274\325P\306t+\233\336"
ARM GAS  /tmp/ccKQ3QAX.s 			page 50


 629      091241E8 
 629      64BCD550 
 629      C6742B9B 
 629      DE
 630 1a1e BECE453A 		.ascii	"\276\316E:\352FWB\351\306\266\262\267\340\221m\2723"
 630      EA465742 
 630      E9C6B6B2 
 630      B7E0916D 
 630      BA33
 631 1a30 655E4A21 		.ascii	"e^J!p\213!\267\327\366\275l\306-\331D4\343v\007\007"
 631      708B21B7 
 631      D7F6BD6C 
 631      C62DD944 
 631      34E37607 
 632 1a45 B7078CB9 		.ascii	"\267\007\214\271\275Q\254\343v;'\267\353\221[\372\007"
 632      BD51ACE3 
 632      763B27B7 
 632      EB915BFA 
 632      07
 633 1a56 A1E6A514 		.ascii	"\241\346\245\024\002w\032r\273h\312~0<\362O\355\355"
 633      02771A72 
 633      BB68CA7E 
 633      303CF24F 
 633      EDED
 634 1a68 E4F130C1 		.ascii	"\344\3610\301\302\331\310\3679\030>n\314\360M=\303\273"
 634      C2D9C8F7 
 634      39183E6E 
 634      CCF04D3D 
 634      C3BB
 635 1a7a 3819D69D 		.ascii	"8\031\326\235T`\212\031i\363\036-\307\177\026m\265v"
 635      54608A19 
 635      69F31E2D 
 635      C77F166D 
 635      B576
 636 1a8c 7A327F5A 		.ascii	"z2\177Zs\353\033\357U\315\225\337\303\223\371z\256\023"
 636      73EB1BEF 
 636      55CD95DF 
 636      C393F97A 
 636      AE13
 637 1a9e AC737FA0 		.ascii	"\254s\177\240g\232<j\240\177\240A\371\316\273`\273h"
 637      679A3C6A 
 637      A07FA041 
 637      F9CEBB60 
 637      BB68
 638 1ab0 C7D13E1B 		.ascii	"\307\321>\033\351k\037\321\271\230\327\307\342\212\255"
 638      E96B1FD1 
 638      B998D7C7 
 638      E28AAD
 639 1abf 323D597B 		.ascii	"2=Y{\231\254\232\036E\214\305:\014\277\230\253\3639"
 639      99AC9A1E 
 639      458CC53A 
 639      0CBF98AB 
 639      F339
 640 1ad1 73F57FAC 		.ascii	"s\365\177\254p\316&Osc\276$l\353\243]\341`\312\0155"
 640      70CE264F 
 640      7363BE24 
 640      6CEBA35D 
ARM GAS  /tmp/ccKQ3QAX.s 			page 51


 640      E160CA0D 
 641 1ae6 73DA73E3 		.ascii	"s\332s\343\266\372#\034ctw\352Tc\217\216B\365\246\343"
 641      B6FA231C 
 641      637477EA 
 641      54638F8E 
 641      42F5A6E3 
 642 1afa 1D1A6D4E 		.ascii	"\035\032mN\254\321Z\216|?Q\234^]\337(_!\353\206\352"
 642      ACD15A8E 
 642      7C3F519C 
 642      5E5DDF28 
 642      5F21EB86 
 643 1b0f 7998C326 		.ascii	"y\230\303&P';j<\200l\333Z\327\333\270\345\371\227\263"
 643      50273B6A 
 643      3C806CDB 
 643      5AD7DBB8 
 643      E5F997B3 
 644 1b23 D61F24A2 		.ascii	"\326\037$\242>\355\"\353Ygt\265s\256g}\346\322\255g"
 644      3EED22EB 
 644      596774B5 
 644      73AE677D 
 644      E6D2AD67 
 645 1b37 9D9882EB 		.ascii	"\235\230\202\353Y$?\371z\326\227}:\256g]\356c\270\236"
 645      59243FF9 
 645      7AD6977D 
 645      3AAE675D 
 645      EE63B89E 
 646 1b4b F5631FC3 		.ascii	"\365c\037\303C\220\317\335cx\010r\372=\206\207 \027"
 646      4390CFDD 
 646      63780872 
 646      FA3D8687 
 646      2017
 647 1b5d DC637808 		.ascii	"\334cx\010r\371=\206\207 7\334cx\010r\347=\332C\220"
 647      72F93D86 
 647      872037DC 
 647      63780872 
 647      E73DDA43 
 648 1b72 4AF6BE78 		.ascii	"J\366\276xv\032\223\375i<\273\023\223\375m<;\235\311"
 648      761A93FD 
 648      693CBB13 
 648      93FD6D3C 
 648      3B9DC9
 649 1b85 967F11CB 		.ascii	"\226\177\021\313\316`\262_\215g\337\306d\327\307\263"
 649      CE60B25F 
 649      8D67DFC6 
 649      64D7C7B3 
 650 1b95 3B33D96F 		.ascii	";3\331o\307\263\2730\331[\342\331]\231\354\367\343\331"
 650      C7B3BB30 
 650      D95BE2D9 
 650      5D99ECF7 
 650      E3D9
 651 1ba7 DD98ECE3 		.ascii	"\335\230\354\343\361\354\356,\335\361\354\333\225\266"
 651      F1ECEE2C 
 651      DDF1ECDB 
 651      95B6
 652 1bb5 245F132E 		.ascii	"$_\023.+\306u\304/\236\305>u\316e\274\254hf\257N\351"
 652      2BC675C4 
 652      2F9EC53E 
ARM GAS  /tmp/ccKQ3QAX.s 			page 52


 652      75CE65BC 
 652      AC6866AF 
 653 1bcb ED15192C 		.ascii	"\355\025\031,R|0T\321\375\231N\211\343u\302~\361U7\337"
 653      527C3054 
 653      D1FD994E 
 653      89E375C2 
 653      7EF15537 
 654 1be0 5BB84115 		.ascii	"[\270A\025\373v\330C\320\277K:\365\227y\277\3426|\360"
 654      FB76D843 
 654      D0BF4B3A 
 654      F59779BF 
 654      E2367CF0 
 655 1bf4 B241ECB8 		.ascii	"\262A\354\270\347(\011/\3655\266$3\334F\226\244\245"
 655      E728092F 
 655      F535B624 
 655      33DC4696 
 655      A4A5
 656 1c06 C6D01CD5 		.ascii	"\306\320\034\325\230\200\3142\004\231\366\355\205G\314"
 656      9880CC32 
 656      0499F6ED 
 656      8547CC
 657 1c15 06A2040B 		.ascii	"\006\242\004\013_\265n]\303\256\301\027\352j\270YhB"
 657      5FB56E5D 
 657      C3AEC117 
 657      EA6AB859 
 657      6842
 658 1c27 C85C4342 		.ascii	"\310\\CB\256\324|'\245@\310|=!\304\371\212}Q\216\235"
 658      AED47C27 
 658      A540C87C 
 658      3D21C4F9 
 658      8A7D518E 
 659 1c3c EA085B61 		.ascii	"\352\010[aBX\235\021a\321\355\373_\226Ez\002\222\237"
 659      42589D11 
 659      61D1EDFB 
 659      5F96457A 
 659      02929F
 660 1c4f AC7A23B2 		.ascii	"\254z#\262td\2545!c\261\241|N\237\213\376w\012\362Y"
 660      7464AC35 
 660      2163B1A1 
 660      7C4E9F8B 
 660      FE770AF2 
 661 1c64 DA811029 		.ascii	"\332\201\020)&\037\356m\267\350\266\232\236dpX\356\306"
 661      261FEE6D 
 661      B7E8B69A 
 661      9E647058 
 661      EEC6
 662 1c76 472D3AF6 		.ascii	"G-:\366\227\224N\213\304H:i\360\024\262$|`\"\236UZ\361"
 662      97944E8B 
 662      C4483A69 
 662      F014B224 
 662      7C60229E 
 663 1c8d FC93F09A 		.ascii	"\374\223\360\232\034m\202i\321\325\263\"8*\215d\213"
 663      1C6D8269 
 663      D1D5B322 
 663      382A8D64 
 663      8B
 664 1c9e A25DEC0B 		.ascii	"\242]\354\013\032\211\377\330}6\206\242.\334\374R\345"
ARM GAS  /tmp/ccKQ3QAX.s 			page 53


 664      1A89FFD8 
 664      7D3686A2 
 664      2EDCFC52 
 664      E5
 665 1caf EF6D5546 		.ascii	"\357mUFo\305\021)Z\264ae\032\370\211\330\257\324?.?"
 665      6FC51129 
 665      5AB46165 
 665      1AF889D8 
 665      AFD43F2E 
 666 1cc4 AF077A52 		.ascii	"\257\007zR\305\211\275\341J\201\031$\254\227_\210\366"
 666      C589BDE1 
 666      4A811924 
 666      AC975F88 
 666      F6
 667 1cd5 A305E959 		.ascii	"\243\005\351Y\351\377\022\332\344\027\344\350\246\236"
 667      E9FF12DA 
 667      E417E4E8 
 667      A69E
 668 1ce3 F46021A9 		.ascii	"\364`!\251\2058\201\263o.\027k\344\3728\315\364_\306"
 668      853881B3 
 668      6F2E176B 
 668      E4FA38CD 
 668      F45FC6
 669 1cf6 BFEE40B3 		.ascii	"\277\356@\263\346?\305I]\3535B\240G\261i%\344\310\360"
 669      E63FC549 
 669      5DEB3542 
 669      A047B169 
 669      25E4C8F0 
 670 1d0a E3BAD5E0 		.ascii	"\343\272\325\340\251\011\376|\254!n\240\024\346[W0\314"
 670      A909FE7C 
 670      AC216EA0 
 670      14E65B57 
 670      30CC
 671 1d1c 4FC5BF53 		.ascii	"O\305\277S\273\232\224\371\015\032\346\037\245\005\351"
 671      BB9A94F9 
 671      0D1AE61F 
 671      A505E9
 672 1d2b BFCA913B 		.ascii	"\277\312\221;k%:I\230\253|'\377\337'\003\265v\201\376"
 672      6B253A49 
 672      98AB7C27 
 672      FFDF2703 
 672      B57681FE 
 673 1d3f DB1CC9B3 		.ascii	"\333\034\311\263\221a\217\376\355\234\362\265\237\312"
 673      91618FFE 
 673      ED9CF2B5 
 673      9FCA
 674 1d4d DE89187B 		.ascii	"\336\211\030{\321m=)\315\012\261\263Vv \366zRb\267\374"
 674      D16D3D29 
 674      CD0AB1B3 
 674      567620F6 
 674      7A5262B7 
 675 1d62 2388EDCA 		.ascii	"#\210\355\312\212Q>\022=\261\221l\342\253\244\321\271"
 675      8A513E12 
 675      3DB1916C 
 675      E2ABA4D1 
 675      B9
 676 1d73 F32D3D69 		.ascii	"\363-=i\035\232c\273V\027\001\347\330R\026\207\316\371"
ARM GAS  /tmp/ccKQ3QAX.s 			page 54


 676      1D9A63BB 
 676      561701E7 
 676      D8521687 
 676      CEF9
 677 1d85 5FF424C3 		.ascii	"_\364$\303\211\306qR\334\333xOk92\204)\254J\345\232"
 677      89C67152 
 677      DCDB784F 
 677      6B393284 
 677      29AC4AE5 
 678 1d9a 6BD42E77 		.ascii	"k\324.w\206\240\373\230\335\2723\256|:\225m2Y|\302\251"
 678      86A0FB98 
 678      DDBA33AE 
 678      7C3A956D 
 678      32597CC2 
 679 1daf 9F69A90F 		.ascii	"\237i\251\017\022l{\3546)\305/\221F\275-%\234r\035\033"
 679      126C7BEC 
 679      3629C52F 
 679      9146BD2D 
 679      259C721D 
 680 1dc4 DA634A31 		.ascii	"\332cJ1\321\013\263R\373LK=\237\240\324~\323Rd,0\235"
 680      D10BB352 
 680      FB4C4B3D 
 680      9FA0D47E 
 680      D352642C 
 681 1dda 599A96AA 		.ascii	"Y\232\226\252OP\352\200i\251\371\011J\0354-E\3365cV"
 681      4F50EA80 
 681      69A9F909 
 681      4A1D342D 
 681      45DE3563 
 682 1def EA50BC94 		.ascii	"\352P\274\224\362\327\344\211\376\374\027z\022\276\251"
 682      F2D7E489 
 682      FEFC177A 
 682      12BEA9
 683 1dfe 36D9BFF3 		.ascii	"6\331\277\363\342\354v\002\367\237\037\223o[\361}N\273"
 683      E2EC7602 
 683      F79F1F93 
 683      6F5BF17D 
 683      4EBB
 684 1e10 D87FC7D4 		.ascii	"\330\177\307\324\261Q\233\200\371#\246\314\023\367\315"
 684      B1519B80 
 684      F923A6CC 
 684      13F7CD
 685 1e1f ACD451D3 		.ascii	"\254\324Q\323R\247\022\250\374\207\214\363i/\032\353"
 685      52A712A8 
 685      FC878CF3 
 685      692F1AEB 
 686 1e2f 0F39878E 		.ascii	"\0179\207\216z\334\223%\014\314\034[Q\026\310,\252("
 686      7ADC9325 
 686      0CCC1C5B 
 686      5116C82C 
 686      AA28
 687 1e41 7E36B338 		.ascii	"~6\26380.\263hlpt\260\"\234\031\011U\225?\225\011\211"
 687      302EB368 
 687      6C7074B0 
 687      229C1909 
 687      55953F95 
 688 1e57 C0F84866 		.ascii	"\300\370Hf\211?R\022\316\014\207\2122KJ\036\030+8r\007"
ARM GAS  /tmp/ccKQ3QAX.s 			page 55


 688      893F5212 
 688      CE0C878A 
 688      324B4A1E 
 688      182B3872 
 689 1e6c 17E6163C 		.ascii	"\027\346\026<d\255d\260<\022\030\023\010Aq\373\220'"
 689      64AD64B0 
 689      3C121813 
 689      084171FB 
 689      9027
 690 1e7e 0A735C25 		.ascii	"\012s\\%a_\344\331\312\200\25584\316Q\024\016\376\377"
 690      615FE4D9 
 690      CA80AD38 
 690      34CE5114 
 690      0EFEFF
 691 1e91 80B3DC07 		.ascii	"\200\263\334\007w\207\035\317\224\224\372\307\270K\302"
 691      77871DCF 
 691      9494FAC7 
 691      B84BC2
 692 1ea0 411F49D8 		.ascii	"A\037I\330\377\234\347\315\226\202\305i\345\276PEE\244"
 692      FF9CE7CD 
 692      9682C569 
 692      E5BE5045 
 692      45A4
 693 1eb2 38187264 		.ascii	"8\030rd\223\254N\245\376p\304WTZ\025\216t*\011\005\002"
 693      93AC4EA5 
 693      FE70C457 
 693      545A158E 
 693      742A0905 
 694 1ec7 34E9468C 		.ascii	"4\351F\214@y\304QB ]\343*JG\373\303\001\027d\342\025"
 694      4079C451 
 694      42205DE3 
 694      2A4A47FB 
 694      C3011764 
 695 1edd 8A93ABBB 		.ascii	"\212\223\253\273\330\037\361c\3063\301\362p\240(b\203"
 695      D81FF163 
 695      C633C1F2 
 695      70A02862 
 695      83
 696 1eee EB83C9F8 		.ascii	"\353\203\311\370\031\353/\005.\240\236\342@fYY\221/"
 696      19EB2F05 
 696      2EA09EE2 
 696      40665959 
 696      912F
 697 1f00 5C19046E 		.ascii	"\\\031\004n\322F\216\314\312\252(/\011\216\311\346\001"
 697      D2468ECC 
 697      CAAA282F 
 697      098EC9E6 
 697      01
 698 1f11 A8AC0845 		.ascii	"\250\254\010E\302\231\005\205#\007\016\310\0341\";\263"
 698      C2990585 
 698      23070EC8 
 698      1C31223B 
 698      B3
 699 1f22 207FF8B8 		.ascii	" \177\370\270\376\231\000\345+--&p\220\221\035\012\216"
 699      FE9900E5 
 699      2B2D2D26 
 699      7090911D 
ARM GAS  /tmp/ccKQ3QAX.s 			page 56


 699      0A8E
 700 1f34 0B840658 		.ascii	"\013\204\006X\241\207\322\322\011.\341\010\010\300\027"
 700      A187D2D2 
 700      092EE108 
 700      08C017
 701 1f43 E90438BE 		.ascii	"\351\0048\276\307G\015\0375\274\320M\222\005\205y\371"
 701      C7470D1F 
 701      35BCD04D 
 701      92058579 
 701      F9
 702 1f54 04DBE7CD 		.ascii	"\004\333\347\315\031\234\375\004\376:8\253p\370\237"
 702      199CFD04 
 702      FE3A38AB 
 702      70F89F
 703 1f63 72324832 		.ascii	"r2H2+od\376\210\234\302\034\007\226\276\015`\212\374"
 703      2B6F64FE 
 703      889CC21C 
 703      0796BE0D 
 703      608AFC
 704 1f76 A520BAA2 		.ascii	"\245 \272\242\247|\021g\240\274\330W4:'\025\356\206"
 704      A77C1167 
 704      A0BCD857 
 704      343A2715 
 704      EE86
 705 1f88 E60FCF1B 		.ascii	"\346\017\317\0337 \263\322_\252\260\227\021\216\224"
 705      3720B3D2 
 705      5FAAB097 
 705      118E94
 706 1f97 0D1CE01B 		.ascii	"\015\034\340\033S\031\254\360E"
 706      5319ACF0 
 706      45
 707 1fa0 7E955915 		.ascii	"~\225Y\025\016e\372Ce\367\227W\224\007\356\017\370G"
 707      0E65FA43 
 707      65F79757 
 707      9407EE0F 
 707      F847
 708 1fb2 07E30C41 		.ascii	"\007\343\014AS\227G\240\204\273\012\256P$2(\301\335"
 708      539747A0 
 708      84BB0AAE 
 708      50243228 
 708      C1DD
 709 1fc4 657E20A7 		.ascii	"e~ \247<\220\351+\016\224\370\253J#\250Za\"\021\237"
 709      3C90E92B 
 709      0E94F8AB 
 709      4A23A85A 
 709      6122119F 
 710 1fd8 4F2DEF18 		.ascii	"O-\357\030\231\227\235\343u\346\025>\221\237\343u\345"
 710      99979DE3 
 710      75E6153E 
 710      919FE375 
 710      E5
 711 1fe9 15E4E7E4 		.ascii	"\025\344\347\344d{\035\371\217\347g{m\303!\344e{\305"
 711      647B1DF9 
 711      8FE7677B 
 711      6DC321E4 
 711      657BC5
 712 1ffc 3F636DFD 		.ascii	"?cm\375"
ARM GAS  /tmp/ccKQ3QAX.s 			page 57


 713 2000 1F04F9D1 		.ascii	"\037\004\371\321\202$i\013\007\"\216\242\322\200?$\016"
 713      8224690B 
 713      07228EA2 
 713      D2803F24 
 713      0E
 714 2011 B30F29F0 		.ascii	"\263\017)\360z\355#\262\036\363\332\007\347zG\220h\230"
 714      7AED23B2 
 714      1EF3DA07 
 714      E77A4790 
 714      6898
 715 2023 6D88D7DB 		.ascii	"m\210\327\333)XAx\017\026\203\274\302a\222t\300\305"
 715      29584178 
 715      0F1683BC 
 715      C2619274 
 715      C0C5
 716 2035 5F6C2B0A 		.ascii	"_l+\012\365'b\247\032\342,\302K\322\236\023\212\304"
 716      F52762A7 
 716      1AE22CC2 
 716      4BD29E13 
 716      8AC4
 717 2047 382B1A1B 		.ascii	"8+\032\033~6\254r\343\216\214\015\005\374PGZ\321X\037"
 717      7E36AC72 
 717      E38E8C0D 
 717      05FC5047 
 717      5AD1581F 
 718 205b 4D0FB286 		.ascii	"M\017\262\206U4\226\264\202\263\322W\016\275\023.\225"
 718      553496B4 
 718      82B3D257 
 718      0EBD132E 
 718      95
 719 206c A1C0B861 		.ascii	"\241\300\270a\034\020\264a\007{Gf\215\034\017w\226U"
 719      1C10B461 
 719      077B4766 
 719      8D1C0F77 
 719      9655
 720 207e 064B03A1 		.ascii	"\006K\003\241p\346\320\254,\270]%\317\025\251\014\221"
 720      70E6D0AC 
 720      2CB85D25 
 720      CF15A90C 
 720      91
 721 208f 7645DC60 		.ascii	"vE\334`\205\013\270\215@5\277\267\214?\266\250\"\024"
 721      850BB88D 
 721      4035BFB7 
 721      8C3FB6A8 
 721      2214
 722 20a1 00C07492 		.ascii	"\000\300t\222\355\203f(\212\214\377\267\324P|\343~W"
 722      ED836628 
 722      8A8CFFB7 
 722      D4507CE3 
 722      7E57
 723 20b3 4624170A 		.ascii	"F$\027\012\214\001\325!\215\331\377A\010\277\203\360"
 723      8C01D521 
 723      8DD9FF41 
 723      08BF83F0 
 724 20c3 1084DFDB 		.ascii	"\020\204\337\333\302\003\372A\350\017a\000\204\201\020"
 724      C203FA41 
 724      E80F6100 
ARM GAS  /tmp/ccKQ3QAX.s 			page 58


 724      848110
 725 20d2 0641F82D 		.ascii	"\006A\370-\004\270o\000\3347\000\356\033\000\367\015"
 725      04B86F00 
 725      DC3700EE 
 725      1B00F70D 
 726 20e2 84FB06F6 		.ascii	"\204\373\006\366\227B\203\244\320o\245\320\203R\350"
 726      974283A4 
 726      D06FA5D0 
 726      8352E8
 727 20f1 7752E821 		.ascii	"wR\350!)\364{[\250\177?\010\375\245\322\020\\\006:*"
 727      29F47B5B 
 727      A87F3F08 
 727      FDA5D210 
 727      5C063A2A 
 728 2105 7D40AD8B 		.ascii	"}@\255\213H\370\231@\010\256\025\245\305\201\020\221"
 728      48F89940 
 728      08AE15A5 
 728      C5811091 
 729 2115 B8BF2CE0 		.ascii	"\270\277,\340\216(\335\323E\224\353!hH\252f\220\202"
 729      8E28DDD3 
 729      4594EB21 
 729      6848AA66 
 729      9082
 730 2127 3BF13757 		.ascii	";\3617W\244\254\2428\200\337\211\375\013\273\"\241\000"
 730      A4ACA238 
 730      80DF89FD 
 730      0BBB22A1 
 730      00
 731 2138 B1958040 		.ascii	"\261\225\200@\022\216\262\360\030\370Q\321i(\256\244"
 731      128EB2F0 
 731      18F851D1 
 731      6928AEA4 
 732 2148 9CA1E267 		.ascii	"\234\241\342g\341'w`|0\0022\0128\237\211T\214\376\317"
 732      E1277760 
 732      7C300232 
 732      0A389F89 
 732      548CFECF 
 733 215c CAF4C038 		.ascii	"\312\364\3008\260\206e\3760v\344gH\302V\351\253\352"
 733      B08665FE 
 733      3076E467 
 733      48C256E9 
 733      ABEA
 734 216e 4C9527EC 		.ascii	"L\225'\354+\005{\341\213t\211\251\023\315I\253\364="
 734      2B057BE1 
 734      8B7489A9 
 734      13CD49AB 
 734      F43D
 735 2180 E30F4682 		.ascii	"\343\017F\202\345c\272\250\331OW\005\252\200\252\256"
 735      E563BAA8 
 735      D94F5705 
 735      AA80AAAE 
 736 2190 CC9D98D5 		.ascii	"\314\235\230\325\251\322\007\325b\322\201I\310\010T"
 736      A9D207D5 
 736      62D28149 
 736      C80854
 737 219f 82C980C2 		.ascii	"\202\311\200\302\216\262*h\377\244#\214FC\313\"\343"
 737      8EB22A68 
ARM GAS  /tmp/ccKQ3QAX.s 			page 59


 737      FFA4238C 
 737      4643CB22 
 737      E3
 738 21b0 89269551 		.ascii	"\211&\225Qt\270V<S\016bD$`\241\014\025\027\350\203\373"
 738      74B8563C 
 738      530E6244 
 738      2460A10C 
 738      1517E883 
 739 21c5 08A59D88 		.ascii	"\010\245\235\210T\374\245\250n\220YYQQ\372;K\365)\314"
 739      54FCA5A8 
 739      6E905959 
 739      5151FA3B 
 739      4BF529CC 
 740 21d9 409DDD95 		.ascii	"@\235\335\225\316\005R\016\204\002\345E\300\255\223"
 740      CE05520E 
 740      8402E545 
 740      C0AD93
 741 21e8 66FD0BCF 		.ascii	"f\375\013\317H\2275\262`x\001\230\276L\264p%\203\372"
 741      489735B2 
 741      60780198 
 741      BE4CB470 
 741      2583FA
 742 21fb F51F8F2A 		.ascii	"\365\037\217*L\314k!t\220\354@\211-\313\333\037\302"
 742      4CCC6B21 
 742      7490EC40 
 742      892DCBDB 
 742      1FC2
 743 220d 00A9C02B 		.ascii	"\000\251\300+\201\351\311\362f\345{\235\336\277\300"
 743      81E9C9F2 
 743      66E57B9D 
 743      DEBFC0
 744 221c D5EB2CC4 		.ascii	"\325\353,\304\213k\370\200\202\254\334\241^\007\\\363"
 744      8B6BF880 
 744      82ACDCA1 
 744      5E075CF3 
 745 222c BD36B0C3 		.ascii	"\2756\260\303\271V\315.\306\271\203\306\217\247\204"
 745      B956CD2E 
 745      C6B983C6 
 745      8FA784
 746 223b F88ACBFC 		.ascii	"\370\212\313\374\204\271\354\221\203}\005\240J\3762"
 746      84B9EC91 
 746      837D05A0 
 746      4AFE32
 747 224a 951A29CB 		.ascii	"\225\032)\313k\037\225]\350\265\345\017\366\332G\366"
 747      6B1F955D 
 747      E8B5E50F 
 747      F6DA47F6 
 748 225a 2351FFC1 		.ascii	"#Q\377\301^[.\020\023\306\033\355\301\222\242\2203\030"
 748      5E5B2E10 
 748      13C61BED 
 748      C192A290 
 748      3318
 749 226c 1E1B2C89 		.ascii	"\036\033,\211\244\205\003\245%\301\362\342\300x\347"
 749      A48503A5 
 749      25C1F2E2 
 749      C078E7
 750 227b 38182F2B 		.ascii	"8\030/+B\335c\350>z7\030X\370\022\032O\342\310\370\264"
ARM GAS  /tmp/ccKQ3QAX.s 			page 60


 750      42DD63E8 
 750      3E7A3718 
 750      58F8121A 
 750      4FE2C8F8 
 751 2290 D078B812 		.ascii	"\320x\270\022MN\213\250);\260S\351(\015\027\225\214"
 751      4D4E8BA8 
 751      293BB053 
 751      E9280D17 
 751      958C
 752 22a2 718C25B1 		.ascii	"q\214%\261;XAu\335\341\033\002\015\227TQ\306\371\241"
 752      3B584175 
 752      DDE11B02 
 752      0D975451 
 752      C6F9A1
 753 22b5 99ABC2F0 		.ascii	"\231\253\302\360\003\264wy\204\270\"\326\032\233RJ\032"
 753      03B47779 
 753      84B822D6 
 753      1A9B524A 
 753      1A
 754 22c6 BBC71018 		.ascii	"\273\307\020\030\375\013\002\240d\345\221\240\277\224"
 754      FD0B02A0 
 754      64E591A0 
 754      BF94
 755 22d4 4AE64EA3 		.ascii	"J\346N\243\314?\215,\034\200#Oipt\346\230\242\"\335"
 755      CC3F8D2C 
 755      1C80234F 
 755      697074E6 
 755      98A222DD 
 756 22e8 0834E881 		.ascii	"\0104\350\201\207\036\030\304\216Z0\002\021\013K\334"
 756      871E18C4 
 756      8E5A3002 
 756      110B4BDC 
 757 22f8 0F60EC99 		.ascii	"\017`\354\231P0\022\260\023%\262UVElc\002\021\333\270"
 757      503012B0 
 757      1325B255 
 757      56456C63 
 757      0211DBB8 
 758 230c B2885BE5 		.ascii	"\262\210[\345\300\006\011[IY\244s\270\030<\212p\260"
 758      C006095B 
 758      4959A473 
 758      B8183C8A 
 758      70B0
 759 231e ACB234F0 		.ascii	"\254\2624\360@\021\372\024\324\011\310\210\245\200\216"
 759      4011FA14 
 759      D409C888 
 759      A5808E
 760 232d F460D847 		.ascii	"\364`\330G\374\225P$P\234\001\351\312PE\004\032#PL,"
 760      FC955024 
 760      509C01E9 
 760      CA504504 
 760      1A23504C 
 761 2342 6D39A43A 		.ascii	"m9\244:\025\007\303J\322\036~\266\274\350\017V\\\010"
 761      1507C34A 
 761      D21E7EB6 
 761      BCE80F56 
 761      5C08
 762 2354 48FB8215 		.ascii	"H\373\202\025\243K+\212\236\002\006\272\014!\211\354"
ARM GAS  /tmp/ccKQ3QAX.s 			page 61


 762      A34B2B8A 
 762      9E0206BA 
 762      0C2189EC 
 763 2364 C0B86051 		.ascii	"\300\270`Q`xyI\205{t\351S>\364\251H\242\274\252\314"
 763      60787949 
 763      857B74E9 
 763      533EF4A9 
 763      48A2BCAA 
 764 2379 0DBC0035 		.ascii	"\015\274\0005%\025\235 Cu:\206\214xLu:H\2228\035\230"
 764      25159D20 
 764      43753A86 
 764      8C784C75 
 764      3A489238 
 765 238f 475D8DCE 		.ascii	"G]\215\316$\231\2257jT\016|\0355\264\033\371\232=\274"
 765      24999537 
 765      6A540E7C 
 765      1D35B41B 
 765      F99A3DBC 
 766 23a3 209E9346 		.ascii	" \236\223Fr\320AIWS\220\213\351?{\207\027\252\351\202"
 766      72D04149 
 766      5753908B 
 766      E93F7B87 
 766      17AAE982 
 767 23b7 27466541 		.ascii	"'FeA\332V\024\204\3615\\\354.\362W\372\213\202\221g"
 767      DA561484 
 767      F1355CEC 
 767      2EF257FA 
 767      8B829167 
 768 23cb BB20F13E 		.ascii	"\273 \361>\177qq(\020\016\007\302\267\207\213} \246"
 768      7F717128 
 768      100E07C2 
 768      B7878B7D 
 768      20A6
 769 23dd 227FA838 		.ascii	"\"\177\2508&7;\310\271\270'\375\001\033'.E'5\304n\264"
 769      26373BC8 
 769      B9B827FD 
 769      011B272E 
 769      452735C4 
 770 23f3 A990D034 		.ascii	"\251\220\3204\012\330$\374\012m\212W\242\314\305\256"
 770      0AD824FC 
 770      0A6D8A57 
 770      A2CCC5AE 
 771 2403 12180661 		.ascii	"\022\030\006a|vC\206\027\332\370Y\360j\361\372[K\276"
 771      7C764386 
 771      17DAF859 
 771      F06AF1FA 
 771      5B4BBE
 772 2416 5B2004DA 		.ascii	"[ \004\332F\234\243\002L\321\366\356\302~\201\306O#"
 772      469CA302 
 772      4CD1F6EE 
 772      C27E81C6 
 772      4F23
 773 2428 7E40B00C 		.ascii	"~@\260\014\244l\007M\212\330A\374\021'r\020q\020\375"
 773      A46C074D 
 773      8AD841FC 
 773      11277210 
 773      7110FD
ARM GAS  /tmp/ccKQ3QAX.s 			page 62


 774 243b 8A24F55F 		.ascii	"\212$\365_5]\001\307\005\322\023:c\312\027\256\250\012"
 774      355D01C7 
 774      05D2133A 
 774      63CA17AE 
 774      A80A
 775 244d 119397C1 		.ascii	"\021\223\227\301~\355J\277\020C\033\000+\014\"\321f"
 775      7EED4ABF 
 775      10431B00 
 775      2B0C22D1 
 775      66
 776 245e B802A568 		.ascii	"\270\002\245h\217\323\341\252\346\245A\232\202S(\034"
 776      8FD3E1AA 
 776      E6A5419A 
 776      8253281C 
 777 246e C440AA90 		.ascii	"\304@\252\220\215I\362\3733td\013\204\261\264\003\357"
 777      8D49F2FB 
 777      3374640B 
 777      84B1B403 
 777      EF
 778 247f 4B0B172B 		.ascii	"K\013\027+Z\224V\220\255(\221\013RD\207\334pE\265\260"
 778      5A945690 
 778      AD28910B 
 778      524487DC 
 778      7045B5B0 
 779 2493 C6230E21 		.ascii	"\306#\016!\204\307\333\202\345 3u\014\003_MM\272\325"
 779      84C7DB82 
 779      E5203375 
 779      0C035F4D 
 779      4DBAD5
 780 24a6 64DAD3EA 		.ascii	"d\332\323\352\210\007\251\242\212*p\\B\356\247}\243"
 780      8807A9A2 
 780      8A2A705C 
 780      42EEA77D 
 780      A3
 781 24b7 AB4A6030 		.ascii	"\253J`0p<\355\213TT\272\340\226Pe$\004\327P1\\\323\236"
 781      703CED8B 
 781      5454BAE0 
 781      96506524 
 781      04D75031 
 782 24ce 2EAF8804 		.ascii	".\257\210\004K\236\005\224\247}4\351|\032\304P\376\224"
 782      4B9E0594 
 782      A77D34E9 
 782      7C1AC450 
 782      FE94
 783 24e0 3388989D 		.ascii	"3\210\230\235+\252\"L\265\316\012LH\301\321R\305\350"
 783      2BAA224C 
 783      B5CE0A4C 
 783      48C1D152 
 783      C5E8
 784 24f2 DB1E2F18 		.ascii	"\333\036/\030\354-d\006\206\201\366\241\205\371^GU\330"
 784      EC2D6406 
 784      8681F6A1 
 784      85F95E47 
 784      55D8
 785 2504 1F8A7441 		.ascii	"\037\212tA\015\033^\036$V\010\272\234\024.\266\225\225"
 785      0D1B5E1E 
 785      245608BA 
ARM GAS  /tmp/ccKQ3QAX.s 			page 63


 785      9C142EB6 
 785      9595
 786 2516 164BE1CA 		.ascii	"\026K\341\312\256\344\227\241\201H\314*t\302[!'\267"
 786      AEE497A1 
 786      8148CC2A 
 786      74C25B21 
 786      27B7
 787 2528 80AA6B6E 		.ascii	"\200\252kn\301H\244\276\330\222\321\362\207\306\020"
 787      C148A4BE 
 787      D892D1F2 
 787      87C610
 788 2537 0D1FE7C7 		.ascii	"\015\037\347\307f\354\354\363\215)\257*\362)_\323\377"
 788      66ECECF3 
 788      8D29AF2A 
 788      F2295FD3 
 788      FF
 789 2548 757455B0 		.ascii	"utU\2604r\177\260\374a\001\034\016%\027\\\320q\324\210"
 789      34727FB0 
 789      FC61011C 
 789      0E25175C 
 789      D071D488 
 790 255c DD06D566 		.ascii	"\335\006\325f\307\014\217+\327\233S\360\370\210BG\256"
 790      C70C8F2B 
 790      D79B53F0 
 790      F8884247 
 790      AE
 791 256d D797F758 		.ascii	"\327\227\367X:\304\320\305\037\363\345\200\217\014\351"
 791      3AC4D0C5 
 791      1FF3E580 
 791      8F0CE9
 792 257c E1A30A49 		.ascii	"\341\243\012I2\003\222\243\362\012\225\311\010~\361"
 792      320392A3 
 792      F20A95C9 
 792      087EF1
 793 258b E50E1F91 		.ascii	"\345\016\037\221\243$\363\007\027\016\353\202w\377i"
 793      A324F307 
 793      170EEB82 
 793      77FF69
 794 259a F088E1D9 		.ascii	"\360\210\341\331\276Q\203G\346\244\021\244\234Q\303"
 794      BE518347 
 794      E6A411A4 
 794      9C51C3
 795 25a9 73B2DD90 		.ascii	"s\262\335\220\312\371\313\360\202\302n\314-yC\376\010"
 795      CAF9CBF0 
 795      82C26ECC 
 795      2D7943FE 
 795      08
 796 25ba 36A43BE4 		.ascii	"6\244;\344\020K\221\343\313\367\346\025BFNvW\346\246"
 796      104B91E3 
 796      CBF7E615 
 796      42464E76 
 796      57E6A6
 797 25cd 6C2FB142 		.ascii	"l/\261BJ\3359\243\006\017\031A\177Wj/x\242\2400g$\251"
 797      4ADD39A3 
 797      060F1941 
 797      7F576A2F 
 797      78A2A030 
ARM GAS  /tmp/ccKQ3QAX.s 			page 64


 798 25e4 78E463B9 		.ascii	"x\344c\271\005\276\301C\362\274\000@h*\034>2'\357\361"
 798      05BEC143 
 798      F2BC0040 
 798      682A1C3E 
 798      3227EFF1 
 799 25f8 4242C388 		.ascii	"BB\303\210\274\254\307r\262\273\307@\362\036\037:\014"
 799      BCACC772 
 799      B2BBC740 
 799      F21E1F3A 
 799      0C
 800 2609 8C9A37E7 		.ascii	"\214\2327\347\016r_^\236o\344\340QO\370\362\362sFQ\314"
 800      0E725F5E 
 800      9E6FE4E0 
 800      514FF8F2 
 800      F2734651 
 801 261e 1E4CFD30 		.ascii	"\036L\3750\322\002'\2059^Ga\326\260\301^W\211\257\214"
 801      D2022785 
 801      395E4761 
 801      D6B0C15E 
 801      5789AF8C 
 802 2632 34562710 		.ascii	"4V'\020`\226b\301\213\306\026\216-.(\015\004*\211Q)"
 802      609662C1 
 802      8BC6168E 
 802      2D2E280D 
 802      042A8951 
 803 2647 88803A10 		.ascii	"\210\200:\020\371\346\215\376O\370\225\250D\006\235"
 803      F9E68DFE 
 803      4FF895A8 
 803      44069D
 804 2656 695097AE 		.ascii	"iP\227\256\247O\231Z\371`\2162&TQUI\006T)\267\300I "
 804      A74F995A 
 804      F9608E32 
 804      26545155 
 804      49065429 
 805 266e 619C25B3 		.ascii	"a\234%\263\311\2010\346f\341\230\013q'jm\362\001B*\310"
 805      C98130E6 
 805      66E1980B 
 805      71276A6D 
 805      F201422A 
 806 2683 FE1F84FD 		.ascii	"\376\037\204\375\340u"
 806      E075
 807              		.text
 808              		.section	.gnu.lto_.symtab.81d8cfb4d0ce84bd,"",%progbits
 809 0000 73645F69 		.ascii	"sd_is_card_inserted\000\000\000\000\000\000\000\000"
 809      735F6361 
 809      72645F69 
 809      6E736572 
 809      74656400 
 810 001b 00000000 		.ascii	"\000\000\000\000\227\002\000\000sd_is_write_protect"
 810      97020000 
 810      73645F69 
 810      735F7772 
 810      6974655F 
 811 0036 65640000 		.ascii	"ed\000\000\000\000\000\000\000\000\000\000\000\000\372"
 811      00000000 
 811      00000000 
 811      0000FA
ARM GAS  /tmp/ccKQ3QAX.s 			page 65


 812 0045 02000073 		.ascii	"\002\000\000sdmmcInitialize\000\000\000\000\000\000"
 812      646D6D63 
 812      496E6974 
 812      69616C69 
 812      7A650000 
 813 005d 00000000 		.ascii	"\000\000\000\000\000\000\376\002\000\000sdmmGetMMCD"
 813      0000FE02 
 813      00007364 
 813      6D6D4765 
 813      744D4D43 
 814 0072 72697665 		.ascii	"river\000\000\000\000\000\000\000\000\000\000\000\000"
 814      72000000 
 814      00000000 
 814      00000000 
 814      00
 815 0083 B8030000 		.ascii	"\270\003\000\000sdmmcGetFS\000\000\000\000\000\000\000"
 815      73646D6D 
 815      63476574 
 815      46530000 
 815      00000000 
 816 0098 00000000 		.ascii	"\000\000\000\000\000\276\003\000\000sdmmcFSMounted\000"
 816      00BE0300 
 816      0073646D 
 816      6D634653 
 816      4D6F756E 
 817 00b0 00000000 		.ascii	"\000\000\000\000\000\000\000\000\000\000\000\304\003"
 817      00000000 
 817      000000C4 
 817      03
 818 00bd 00005350 		.ascii	"\000\000SPID3\000\000\002\000\000\000\000\000\000\000"
 818      49443300 
 818      00020000 
 818      00000000 
 818      00
 819 00ce 00003204 		.ascii	"\000\0002\004\000\000chvprintf\000\000\002\000\000\000"
 819      00006368 
 819      76707269 
 819      6E746600 
 819      00020000 
 820 00e3 00000000 		.ascii	"\000\000\000\000\000\000\313\003\000\000mmcDisconne"
 820      0000CB03 
 820      00006D6D 
 820      63446973 
 820      636F6E6E 
 821 00f8 63740000 		.ascii	"ct\000\000\002\000\000\000\000\000\000\000\000\000\332"
 821      02000000 
 821      00000000 
 821      0000DA
 822 0107 03000066 		.ascii	"\003\000\000f_mount\000\000\002\000\000\000\000\000"
 822      5F6D6F75 
 822      6E740000 
 822      02000000 
 822      0000
 823 0119 00000000 		.ascii	"\000\000\000\000\334\003\000\000mmcConnect\000\000\002"
 823      DC030000 
 823      6D6D6343 
 823      6F6E6E65 
ARM GAS  /tmp/ccKQ3QAX.s 			page 66


 823      63740000 
 824 012e 00000000 		.ascii	"\000\000\000\000\000\000\000\000\000\024\004\000\000"
 824      00000000 
 824      00140400 
 824      00
 825 013b 63685468 		.ascii	"chThdSleep\000\000\002\000\000\000\000\000\000\000\000"
 825      64536C65 
 825      65700000 
 825      02000000 
 825      00000000 
 826 0150 00160400 		.ascii	"\000\026\004\000\000mmcStart\000\000\002\000\000\000"
 826      006D6D63 
 826      53746172 
 826      74000002 
 826      000000
 827 0163 00000000 		.ascii	"\000\000\000\000\000\000\032\004\000\000mmcObjectIn"
 827      00001A04 
 827      00006D6D 
 827      634F626A 
 827      65637449 
 828 0178 69740000 		.ascii	"it\000\000\002\000\000\000\000\000\000\000\000\000\037"
 828      02000000 
 828      00000000 
 828      00001F
 829 0187 0400005F 		.ascii	"\004\000\000_pal_lld_setgroupmode\000\000\002\000\000"
 829      70616C5F 
 829      6C6C645F 
 829      73657467 
 829      726F7570 
 830 01a4 00000000 		.ascii	"\000\000\000\000\000\000\000#\004\000\000"
 830      00000023 
 830      040000
 831              		.text
 832              		.section	.gnu.lto_.opts,"",%progbits
 833 0000 272D6D63 		.ascii	"'-mcpu=cortex-m4' '-mfloat-abi=hard' '-mfpu=fpv4-sp"
 833      70753D63 
 833      6F727465 
 833      782D6D34 
 833      2720272D 
 834 0033 2D643136 		.ascii	"-d16' '-mno-thumb-interwork' '-mthumb' '-O2' '-fomi"
 834      2720272D 
 834      6D6E6F2D 
 834      7468756D 
 834      622D696E 
 835 0066 742D6672 		.ascii	"t-frame-pointer' '-falign-functions=16' '-ffunction"
 835      616D652D 
 835      706F696E 
 835      74657227 
 835      20272D66 
 836 0099 2D736563 		.ascii	"-sections' '-fdata-sections' '-fno-common' '-flto' "
 836      74696F6E 
 836      73272027 
 836      2D666461 
 836      74612D73 
 837 00cc 272D6673 		.ascii	"'-fsingle-precision-constant'\000"
 837      696E676C 
 837      652D7072 
ARM GAS  /tmp/ccKQ3QAX.s 			page 67


 837      65636973 
 837      696F6E2D 
 838              		.text
 839              		.section	.text.chprintf,"ax",%progbits
 840              		.align	2
 841              		.p2align 4,,15
 842              		.thumb
 843              		.thumb_func
 844              		.type	chprintf, %function
 845              	chprintf:
 846              		@ args = 4, pretend = 12, frame = 8
 847              		@ frame_needed = 0, uses_anonymous_args = 1
 848 0000 0EB4     		push	{r1, r2, r3}
 849 0002 00B5     		push	{lr}
 850 0004 82B0     		sub	sp, sp, #8
 851 0006 03AA     		add	r2, sp, #12
 852 0008 52F8041B 		ldr	r1, [r2], #4
 853 000c 0192     		str	r2, [sp, #4]
 854 000e FFF7FEFF 		bl	chvprintf
 855 0012 02B0     		add	sp, sp, #8
 856              		@ sp needed
 857 0014 5DF804EB 		ldr	lr, [sp], #4
 858 0018 03B0     		add	sp, sp, #12
 859 001a 7047     		bx	lr
 860              		.size	chprintf, .-chprintf
 861 001c AFF30080 		.section	.text.sd_is_card_inserted,"ax",%progbits
 862              		.align	2
 863              		.p2align 4,,15
 864              		.global	sd_is_card_inserted
 865              		.thumb
 866              		.thumb_func
 867              		.type	sd_is_card_inserted, %function
 868              	sd_is_card_inserted:
 869              		@ args = 0, pretend = 0, frame = 0
 870              		@ frame_needed = 0, uses_anonymous_args = 0
 871              		@ link register save eliminated.
 872 0000 024B     		ldr	r3, .L3
 873 0002 1869     		ldr	r0, [r3, #16]
 874 0004 C0F38000 		ubfx	r0, r0, #2, #1
 875 0008 7047     		bx	lr
 876              	.L4:
 877 000a 00BF     		.align	2
 878              	.L3:
 879 000c 000C0240 		.word	1073875968
 880              		.size	sd_is_card_inserted, .-sd_is_card_inserted
 881              		.section	.text.sd_is_write_protected,"ax",%progbits
 882              		.align	2
 883              		.p2align 4,,15
 884              		.global	sd_is_write_protected
 885              		.thumb
 886              		.thumb_func
 887              		.type	sd_is_write_protected, %function
 888              	sd_is_write_protected:
 889              		@ args = 0, pretend = 0, frame = 0
 890              		@ frame_needed = 0, uses_anonymous_args = 0
 891              		@ link register save eliminated.
 892 0000 024B     		ldr	r3, .L6
ARM GAS  /tmp/ccKQ3QAX.s 			page 68


 893 0002 1869     		ldr	r0, [r3, #16]
 894 0004 C0F38000 		ubfx	r0, r0, #2, #1
 895 0008 7047     		bx	lr
 896              	.L7:
 897 000a 00BF     		.align	2
 898              	.L6:
 899 000c 000C0240 		.word	1073875968
 900              		.size	sd_is_write_protected, .-sd_is_write_protected
 901              		.section	.text.sdmmcInitialize,"ax",%progbits
 902              		.align	2
 903              		.p2align 4,,15
 904              		.global	sdmmcInitialize
 905              		.thumb
 906              		.thumb_func
 907              		.type	sdmmcInitialize, %function
 908              	sdmmcInitialize:
 909              		@ args = 0, pretend = 0, frame = 0
 910              		@ frame_needed = 0, uses_anonymous_args = 0
 911 0000 F8B5     		push	{r3, r4, r5, r6, r7, lr}
 912 0002 0446     		mov	r4, r0
 913 0004 384D     		ldr	r5, .L22
 914 0006 394F     		ldr	r7, .L22+4
 915 0008 DFF810E1 		ldr	lr, .L22+52
 916 000c 3848     		ldr	r0, .L22+8
 917 000e 394E     		ldr	r6, .L22+12
 918 0010 2160     		str	r1, [r4]
 919 0012 0023     		movs	r3, #0
 920 0014 A360     		str	r3, [r4, #8]
 921 0016 6373     		strb	r3, [r4, #13]
 922 0018 6060     		str	r0, [r4, #4]
 923 001a 2A60     		str	r2, [r5]
 924 001c 3846     		mov	r0, r7
 925 001e 4FF40041 		mov	r1, #32768
 926 0022 1922     		movs	r2, #25
 927 0024 CEF80040 		str	r4, [lr]
 928 0028 FFF7FEFF 		bl	_pal_lld_setgroupmode
 929 002c 3046     		mov	r0, r6
 930 002e 0421     		movs	r1, #4
 931 0030 2022     		movs	r2, #32
 932 0032 FFF7FEFF 		bl	_pal_lld_setgroupmode
 933 0036 3048     		ldr	r0, .L22+16
 934 0038 4FF48061 		mov	r1, #1024
 935 003c 40F29A22 		movw	r2, #666
 936 0040 FFF7FEFF 		bl	_pal_lld_setgroupmode
 937 0044 2C48     		ldr	r0, .L22+16
 938 0046 4FF48051 		mov	r1, #4096
 939 004a 40F29A22 		movw	r2, #666
 940 004e FFF7FEFF 		bl	_pal_lld_setgroupmode
 941 0052 4FF40061 		mov	r1, #2048
 942 0056 40F28222 		movw	r2, #642
 943 005a 2748     		ldr	r0, .L22+16
 944 005c FFF7FEFF 		bl	_pal_lld_setgroupmode
 945 0060 2068     		ldr	r0, [r4]
 946 0062 FFF7FEFF 		bl	mmcObjectInit
 947 0066 2068     		ldr	r0, [r4]
 948 0068 2449     		ldr	r1, .L22+20
 949 006a FFF7FEFF 		bl	mmcStart
ARM GAS  /tmp/ccKQ3QAX.s 			page 69


 950 006e 3369     		ldr	r3, [r6, #16]
 951 0070 5B07     		lsls	r3, r3, #29
 952 0072 20D5     		bpl	.L19
 953 0074 2249     		ldr	r1, .L22+24
 954 0076 2868     		ldr	r0, [r5]
 955 0078 FFF7FEFF 		bl	chprintf
 956 007c 4FF40043 		mov	r3, #32768
 957 0080 7B83     		strh	r3, [r7, #26]	@ movhi
 958 0082 4FF4FA60 		mov	r0, #2000
 959 0086 FFF7FEFF 		bl	chThdSleep
 960 008a 2068     		ldr	r0, [r4]
 961 008c FFF7FEFF 		bl	mmcConnect
 962 0090 0746     		mov	r7, r0
 963 0092 B8B9     		cbnz	r0, .L20
 964 0094 1B48     		ldr	r0, .L22+28
 965 0096 A060     		str	r0, [r4, #8]
 966 0098 1B49     		ldr	r1, .L22+32
 967 009a 3A46     		mov	r2, r7
 968 009c FFF7FEFF 		bl	f_mount
 969 00a0 0646     		mov	r6, r0
 970 00a2 2868     		ldr	r0, [r5]
 971 00a4 B6B9     		cbnz	r6, .L21
 972 00a6 1949     		ldr	r1, .L22+36
 973 00a8 FFF7FEFF 		bl	chprintf
 974 00ac 0123     		movs	r3, #1
 975 00ae 3046     		mov	r0, r6
 976 00b0 6373     		strb	r3, [r4, #13]
 977              	.L11:
 978 00b2 40B2     		sxtb	r0, r0
 979 00b4 F8BD     		pop	{r3, r4, r5, r6, r7, pc}
 980              	.L19:
 981 00b6 2868     		ldr	r0, [r5]
 982 00b8 1549     		ldr	r1, .L22+40
 983 00ba FFF7FEFF 		bl	chprintf
 984 00be FD20     		movs	r0, #253
 985 00c0 40B2     		sxtb	r0, r0
 986 00c2 F8BD     		pop	{r3, r4, r5, r6, r7, pc}
 987              	.L20:
 988 00c4 2868     		ldr	r0, [r5]
 989 00c6 1349     		ldr	r1, .L22+44
 990 00c8 0122     		movs	r2, #1
 991 00ca FFF7FEFF 		bl	chprintf
 992 00ce 0120     		movs	r0, #1
 993 00d0 40B2     		sxtb	r0, r0
 994 00d2 F8BD     		pop	{r3, r4, r5, r6, r7, pc}
 995              	.L21:
 996 00d4 1049     		ldr	r1, .L22+48
 997 00d6 FFF7FEFF 		bl	chprintf
 998 00da 2068     		ldr	r0, [r4]
 999 00dc FFF7FEFF 		bl	mmcDisconnect
 1000 00e0 A760     		str	r7, [r4, #8]
 1001 00e2 FE20     		movs	r0, #254
 1002 00e4 E5E7     		b	.L11
 1003              	.L23:
 1004 00e6 00BF     		.align	2
 1005              	.L22:
 1006 00e8 00000000 		.word	.LANCHOR0
ARM GAS  /tmp/ccKQ3QAX.s 			page 70


 1007 00ec 00000240 		.word	1073872896
 1008 00f0 00000000 		.word	SPID3
 1009 00f4 000C0240 		.word	1073875968
 1010 00f8 00080240 		.word	1073874944
 1011 00fc 00000000 		.word	.LANCHOR2
 1012 0100 7C000000 		.word	.LC5
 1013 0104 00000000 		.word	.LANCHOR3
 1014 0108 20000000 		.word	.LC1
 1015 010c 44000000 		.word	.LC3
 1016 0110 60000000 		.word	.LC4
 1017 0114 00000000 		.word	.LC0
 1018 0118 24000000 		.word	.LC2
 1019 011c 00000000 		.word	.LANCHOR1
 1020              		.size	sdmmcInitialize, .-sdmmcInitialize
 1021              		.section	.text.sdmmGetMMCDriver,"ax",%progbits
 1022              		.align	2
 1023              		.p2align 4,,15
 1024              		.global	sdmmGetMMCDriver
 1025              		.thumb
 1026              		.thumb_func
 1027              		.type	sdmmGetMMCDriver, %function
 1028              	sdmmGetMMCDriver:
 1029              		@ args = 0, pretend = 0, frame = 0
 1030              		@ frame_needed = 0, uses_anonymous_args = 0
 1031              		@ link register save eliminated.
 1032 0000 037B     		ldrb	r3, [r0, #12]	@ zero_extendqisi2
 1033 0002 0BB1     		cbz	r3, .L26
 1034 0004 0068     		ldr	r0, [r0]
 1035 0006 7047     		bx	lr
 1036              	.L26:
 1037 0008 1846     		mov	r0, r3
 1038 000a 7047     		bx	lr
 1039              		.size	sdmmGetMMCDriver, .-sdmmGetMMCDriver
 1040 000c AFF30080 		.section	.text.sdmmcGetFS,"ax",%progbits
 1041              		.align	2
 1042              		.p2align 4,,15
 1043              		.global	sdmmcGetFS
 1044              		.thumb
 1045              		.thumb_func
 1046              		.type	sdmmcGetFS, %function
 1047              	sdmmcGetFS:
 1048              		@ args = 0, pretend = 0, frame = 0
 1049              		@ frame_needed = 0, uses_anonymous_args = 0
 1050              		@ link register save eliminated.
 1051 0000 437B     		ldrb	r3, [r0, #13]	@ zero_extendqisi2
 1052 0002 0BB1     		cbz	r3, .L29
 1053 0004 8068     		ldr	r0, [r0, #8]
 1054 0006 7047     		bx	lr
 1055              	.L29:
 1056 0008 1846     		mov	r0, r3
 1057 000a 7047     		bx	lr
 1058              		.size	sdmmcGetFS, .-sdmmcGetFS
 1059 000c AFF30080 		.section	.text.sdmmcFSMounted,"ax",%progbits
 1060              		.align	2
 1061              		.p2align 4,,15
 1062              		.global	sdmmcFSMounted
 1063              		.thumb
ARM GAS  /tmp/ccKQ3QAX.s 			page 71


 1064              		.thumb_func
 1065              		.type	sdmmcFSMounted, %function
 1066              	sdmmcFSMounted:
 1067              		@ args = 0, pretend = 0, frame = 0
 1068              		@ frame_needed = 0, uses_anonymous_args = 0
 1069              		@ link register save eliminated.
 1070 0000 407B     		ldrb	r0, [r0, #13]	@ zero_extendqisi2
 1071 0002 7047     		bx	lr
 1072              		.size	sdmmcFSMounted, .-sdmmcFSMounted
 1073 0004 AFF30080 		.section	.data.hsCfg,"aw",%progbits
 1073      AFF30080 
 1073      AFF30080 
 1074              		.align	2
 1075              		.type	hsCfg, %object
 1076              		.size	hsCfg, 12
 1077              	hsCfg:
 1078 0000 00000000 		.word	0
 1079 0004 00000240 		.word	1073872896
 1080 0008 0F00     		.short	15
 1081 000a 1000     		.short	16
 1082              		.section	.data.mmcCfg,"aw",%progbits
 1083              		.align	2
 1084              		.set	.LANCHOR2,. + 0
 1085              		.type	mmcCfg, %object
 1086              		.size	mmcCfg, 12
 1087              	mmcCfg:
 1088 0000 00000000 		.word	SPID3
 1089 0004 00000000 		.word	lsCfg
 1090 0008 00000000 		.word	hsCfg
 1091              		.section	.bss.serialPort,"aw",%nobits
 1092              		.align	2
 1093              		.set	.LANCHOR0,. + 0
 1094              		.type	serialPort, %object
 1095              		.size	serialPort, 4
 1096              	serialPort:
 1097 0000 00000000 		.space	4
 1098              		.section	.bss.SD,"aw",%nobits
 1099              		.align	2
 1100              		.set	.LANCHOR1,. + 0
 1101              		.type	SD, %object
 1102              		.size	SD, 4
 1103              	SD:
 1104 0000 00000000 		.space	4
 1105              		.section	.rodata.str1.4,"aMS",%progbits,1
 1106              		.align	2
 1107              	.LC0:
 1108 0000 53442F4D 		.ascii	"SD/MMC:ERROR Connect,ERR%02d\012\000"
 1108      4D433A45 
 1108      52524F52 
 1108      20436F6E 
 1108      6E656374 
 1109 001e 0000     		.space	2
 1110              	.LC1:
 1111 0020 2F00     		.ascii	"/\000"
 1112 0022 0000     		.space	2
 1113              	.LC2:
 1114 0024 53442F4D 		.ascii	"SD/MMC:File System Mount Error\012\000"
ARM GAS  /tmp/ccKQ3QAX.s 			page 72


 1114      4D433A46 
 1114      696C6520 
 1114      53797374 
 1114      656D204D 
 1115              	.LC3:
 1116 0044 53442F4D 		.ascii	"SD/MMC:File System Mounted\012\000"
 1116      4D433A46 
 1116      696C6520 
 1116      53797374 
 1116      656D204D 
 1117              	.LC4:
 1118 0060 53442F4D 		.ascii	"SD/MMC:No SD Card Found\012\000"
 1118      4D433A4E 
 1118      6F205344 
 1118      20436172 
 1118      6420466F 
 1119 0079 000000   		.space	3
 1120              	.LC5:
 1121 007c 53442F4D 		.ascii	"SD/MMC:Card Found\012\000"
 1121      4D433A43 
 1121      61726420 
 1121      466F756E 
 1121      640A00
 1122 008f 00       		.section	.data.lsCfg,"aw",%progbits
 1123              		.align	2
 1124              		.type	lsCfg, %object
 1125              		.size	lsCfg, 12
 1126              	lsCfg:
 1127 0000 00000000 		.word	0
 1128 0004 00000240 		.word	1073872896
 1129 0008 0F00     		.short	15
 1130 000a 3000     		.short	48
 1131              		.section	.bss.FS,"aw",%nobits
 1132              		.align	2
 1133              		.set	.LANCHOR3,. + 0
 1134              		.type	FS, %object
 1135              		.size	FS, 560
 1136              	FS:
 1137 0000 00000000 		.space	560
 1137      00000000 
 1137      00000000 
 1137      00000000 
 1137      00000000 
 1138              		.comm	__gnu_lto_v1,1,1
 1139              		.ident	"GCC: (GNU Tools for ARM Embedded Processors) 4.8.4 20140526 (release) [ARM/embedded-4_8-br
ARM GAS  /tmp/ccKQ3QAX.s 			page 73


DEFINED SYMBOLS
                            *ABS*:0000000000000000 sdmmcsimple.c
     /tmp/ccKQ3QAX.s:840    .text.chprintf:0000000000000000 $t
     /tmp/ccKQ3QAX.s:845    .text.chprintf:0000000000000000 chprintf
     /tmp/ccKQ3QAX.s:862    .text.sd_is_card_inserted:0000000000000000 $t
     /tmp/ccKQ3QAX.s:868    .text.sd_is_card_inserted:0000000000000000 sd_is_card_inserted
     /tmp/ccKQ3QAX.s:879    .text.sd_is_card_inserted:000000000000000c $d
     /tmp/ccKQ3QAX.s:882    .text.sd_is_write_protected:0000000000000000 $t
     /tmp/ccKQ3QAX.s:888    .text.sd_is_write_protected:0000000000000000 sd_is_write_protected
     /tmp/ccKQ3QAX.s:899    .text.sd_is_write_protected:000000000000000c $d
     /tmp/ccKQ3QAX.s:902    .text.sdmmcInitialize:0000000000000000 $t
     /tmp/ccKQ3QAX.s:908    .text.sdmmcInitialize:0000000000000000 sdmmcInitialize
     /tmp/ccKQ3QAX.s:1006   .text.sdmmcInitialize:00000000000000e8 $d
     /tmp/ccKQ3QAX.s:1022   .text.sdmmGetMMCDriver:0000000000000000 $t
     /tmp/ccKQ3QAX.s:1028   .text.sdmmGetMMCDriver:0000000000000000 sdmmGetMMCDriver
     /tmp/ccKQ3QAX.s:1041   .text.sdmmcGetFS:0000000000000000 $t
     /tmp/ccKQ3QAX.s:1047   .text.sdmmcGetFS:0000000000000000 sdmmcGetFS
     /tmp/ccKQ3QAX.s:1060   .text.sdmmcFSMounted:0000000000000000 $t
     /tmp/ccKQ3QAX.s:1066   .text.sdmmcFSMounted:0000000000000000 sdmmcFSMounted
     /tmp/ccKQ3QAX.s:1074   .data.hsCfg:0000000000000000 $d
     /tmp/ccKQ3QAX.s:1077   .data.hsCfg:0000000000000000 hsCfg
     /tmp/ccKQ3QAX.s:1083   .data.mmcCfg:0000000000000000 $d
     /tmp/ccKQ3QAX.s:1087   .data.mmcCfg:0000000000000000 mmcCfg
     /tmp/ccKQ3QAX.s:1126   .data.lsCfg:0000000000000000 lsCfg
     /tmp/ccKQ3QAX.s:1092   .bss.serialPort:0000000000000000 $d
     /tmp/ccKQ3QAX.s:1096   .bss.serialPort:0000000000000000 serialPort
     /tmp/ccKQ3QAX.s:1099   .bss.SD:0000000000000000 $d
     /tmp/ccKQ3QAX.s:1103   .bss.SD:0000000000000000 SD
     /tmp/ccKQ3QAX.s:1106   .rodata.str1.4:0000000000000000 $d
     /tmp/ccKQ3QAX.s:1123   .data.lsCfg:0000000000000000 $d
     /tmp/ccKQ3QAX.s:1132   .bss.FS:0000000000000000 $d
     /tmp/ccKQ3QAX.s:1136   .bss.FS:0000000000000000 FS
                            *COM*:0000000000000001 __gnu_lto_v1

UNDEFINED SYMBOLS
chvprintf
_pal_lld_setgroupmode
mmcObjectInit
mmcStart
chThdSleep
mmcConnect
f_mount
mmcDisconnect
SPID3
