ARM GAS  /tmp/cc5qhUpO.s 			page 1


   1              		.syntax unified
   2              		.cpu cortex-m4
   3              		.eabi_attribute 27, 3
   4              		.eabi_attribute 28, 1
   5              		.fpu fpv4-sp-d16
   6              		.eabi_attribute 20, 1
   7              		.eabi_attribute 21, 1
   8              		.eabi_attribute 23, 3
   9              		.eabi_attribute 24, 1
  10              		.eabi_attribute 25, 1
  11              		.eabi_attribute 26, 1
  12              		.eabi_attribute 30, 2
  13              		.eabi_attribute 34, 1
  14              		.eabi_attribute 18, 4
  15              		.thumb
  16              		.file	"sdmmcsimple.c"
  17              		.section	.gnu.lto_.jmpfuncs.9f85ff176bd8baed,"",%progbits
  18 0000 789C7590 		.ascii	"x\234u\220=K\0031\030\200\337\367\322\332\366\252\266"
  18      3D4B0331 
  18      1880DFF7 
  18      D2DAF6AA 
  18      B6
  19 0011 B55D8A12 		.ascii	"\265]\212\022\242\340&T\234\304\251\320\217\255\012"
  19      A2E02654 
  19      9CC4A9D0 
  19      8FAD0A
  20 0020 EDA2E052 		.ascii	"\355\242\340R\354)\0076\221\363,\210\313\341\344\350"
  20      EC290736 
  20      91F32C88 
  20      CBE1E4E8 
  21 0030 2214C1FF 		.ascii	"\"\024\301\377\341\217p\360\037\370?\234\314]\222\232"
  21      E18F70F0 
  21      1FF83F9C 
  21      CC5D929A 
  22 0040 D3EB2D79 		.ascii	"\323\353-y\223\347y\277\316\001\007\262\276m\371\374"
  22      93E779BF 
  22      CE0107B2 
  22      BE6DF9FC 
  23 0050 25CF0210 		.ascii	"%\317\002\020\004 D\2063y\002\340,\306\222:\247\350"
  23      04204486 
  23      337902E0 
  23      2CC6923A 
  23      A7E8
  24 0062 631CA3BC 		.ascii	"c\034\243\274\221B\374\362\000\337\321<\252\372\210"
  24      9142FCF2 
  24      00DFD13C 
  24      AAFA88
  25 0071 14F02D9A 		.ascii	"\024\360-\232\267}T\325S\220P\330T0\007*?\315\363\024"
  25      B77D54D5 
  25      539050D8 
  25      5430072A 
  25      3FCDF314 
  26 0085 0E155F49 		.ascii	"\016\025_I8I\320S\214\012ST\365\026r\221\302\231\222"
  26      3849D053 
  26      8C0A5354 
  26      F5167291 
  26      C29992
ARM GAS  /tmp/cc5qhUpO.s 			page 2


  27 0098 4B8AC453 		.ascii	"K\212\304S\271\177[\312y\316\355y\210\015\313\024f\012"
  27      B97F5BCA 
  27      79CEED79 
  27      880DCB14 
  27      660A
  28 00aa AEEAE553 		.ascii	"\256\352\345S\271k\024^\3642\353\231\363V(\274k\241"
  28      B96B145E 
  28      F432EB99 
  28      F35628BC 
  28      6BA1
  29 00bc AA846488 		.ascii	"\252\204d\210\332g\345\277\370\221\022\015Mv\333\230"
  29      DA67E5BF 
  29      F891120D 
  29      4D76DB98 
  30 00cc A2FE9D72 		.ascii	"\242\376\235r\343\270@=\222 \247W\252\265u\320x\314"
  30      E3B8403D 
  30      9220A757 
  30      AAB575D0 
  30      78CC
  31 00de 670B111A 		.ascii	"g\013\021\032\343u\211\301\262\204\271%\230\240\301"
  31      E37589C1 
  31      B284B925 
  31      98A0C1
  32 00ed 7EF9B3DD 		.ascii	"~\371\263\335\242h\204&@\011],#4G\335\326`\3209:\026"
  32      A2688426 
  32      40095D2C 
  32      233447DD 
  32      D660D039 
  33 0103 6CD4659D 		.ascii	"l\324e\235q0a}q\307'.li\322\367\257=6\272\277\015\275"
  33      7130617D 
  33      71C7272E 
  33      6C69D2F7 
  33      AF3D36BA 
  34 011a 291B4814 		.ascii	")\033H\024z\022\262e\220\365\202@\004.8\255Ei\326\021"
  34      7A12B265 
  34      90F58240 
  34      042E38AD 
  34      4569D611 
  35 012e 9C7B17A1 		.ascii	"\234{\027\241/8\353\012\356\271@5\351\015\207'C\203"
  35      2F38EB0A 
  35      EEB94035 
  35      E90D8727 
  35      4383
  36 0140 F7E46D77 		.ascii	"\367\344mw\377@\026\3371\230O\230\270\264\323\307\241"
  36      FF4016DF 
  36      31984F98 
  36      B8B4D3C7 
  36      A1
  37 0151 6C7413BA 		.ascii	"lt\023\272P\327\212a\374\312z\263\226\370\001Y\025\244"
  37      50D78A61 
  37      FCCA7AB3 
  37      96F80159 
  37      15A4
  38 0163 BB       		.ascii	"\273"
  39              		.text
  40              		.section	.gnu.lto_.inline.9f85ff176bd8baed,"",%progbits
  41 0000 789C8D91 		.ascii	"x\234\215\221\275\015\3020\020\205\337\235/1$\200BA"
ARM GAS  /tmp/cc5qhUpO.s 			page 3


  41      BD0DC230 
  41      1085DF9D 
  41      2F312480 
  41      4241
  42 0012 87041D23 		.ascii	"\207\004\035#\3202AjJ\250\010{PPf\004\266`\013&\240"
  42      D032416A 
  42      4AA8087B 
  42      50506604 
  42      B6600B26 
  43 0027 A2A240CC 		.ascii	"\242\242@\314\200}&? \020\330\322=\373\364\336g\331"
  43      807D263F 
  43      2010D8D2 
  43      3DFBF4DE 
  43      67D9
  44 0039 66303E8D 		.ascii	"f0>\215#\005\265\220t\0145\305\207I\355%D\003\300\224"
  44      2305B590 
  44      740C35C5 
  44      8749ED25 
  44      4403C094 
  45 004d B99FA6A7 		.ascii	"\271\237\246\247\006B\307\0228)\363\332\3120L/a\203"
  45      0642C712 
  45      3829F3DA 
  45      CA304C2F 
  45      6183
  46 005f 0B4EE47A 		.ascii	"\013N\344z\363\333\2311\274\257C\327\023\\\256RN\035"
  46      F3DB9931 
  46      BCAF43D7 
  46      135CAE52 
  46      4E1D
  47 0071 EE09765B 		.ascii	"\356\011v[=\253e\223\276\236\215\306\341\265\025\320"
  47      3DAB6593 
  47      BE9E8DC6 
  47      E1B515D0 
  48 0081 FC37AAA6 		.ascii	"\3747\252\246\035\355\227vac\022\024K\332\322\310\265"
  48      1DED9776 
  48      61631214 
  48      4BDAD2C8 
  48      B5
  49 0092 56D8344B 		.ascii	"V\3304K\252+\342\352zt\265\031#\332\3172\320\316N\205"
  49      AA2BE2EA 
  49      7A74B519 
  49      23DACF32 
  49      D0CE4E85 
  50 00a6 83F80B26 		.ascii	"\203\370\013&o\254\242a\025J\011u\361\017+\205\030\367"
  50      6FACA261 
  50      154A0975 
  50      F10F2B85 
  50      18F7
  51 00b8 829A9296 		.ascii	"\202\232\222\226_B\325\377y\000\371\250+\305"
  51      5F42D5FF 
  51      7900F9A8 
  51      2BC5
  52              		.text
  53              		.section	.gnu.lto_.pureconst.9f85ff176bd8baed,"",%progbits
  54 0000 789C6362 		.ascii	"x\234cb`b\340g\200\000v\006\011F)&\006f)NV.VnV\000\006"
  54      6062E067 
  54      80007606 
ARM GAS  /tmp/cc5qhUpO.s 			page 4


  54      09462926 
  54      0666294E 
  55 001b 2A009A   		.ascii	"*\000\232"
  56              		.text
  57              		.section	.gnu.lto_chprintf.9f85ff176bd8baed,"",%progbits
  58 0000 789C8550 		.ascii	"x\234\205P\315J\002Q\024>\337\0355uc\333v\342\0034\213"
  58      CD4A0251 
  58      143EDF1D 
  58      357563DB 
  58      76E20334 
  59 0015 22E80D7A 		.ascii	"\"\350\015z\000\203Z\3058\216z\011\035\321Q\260\026"
  59      00835AC5 
  59      388E7A09 
  59      1DD151B0 
  59      16
  60 0026 5EC1C245 		.ascii	"^\301\302E\013ig\021)\321:\244\027\030\202\332DI\273"
  60      0B696711 
  60      29D13AA4 
  60      171882DA 
  60      4449BB
  61 0039 162D2497 		.ascii	"\026-$\227\265h\321*\202\351\336\031\024\372\201\016"
  61      B568D12A 
  61      82E9DE19 
  61      14FA810E 
  62 0049 DC7B7EBE 		.ascii	"\334{~\276s\276\363\303\210\321OY\220o\010\2425\251"
  62      73BEF3C3 
  62      88D14F59 
  62      906F08A2 
  62      35A9
  63 005b A11158F7 		.ascii	"\241\021X\367\236\250\025e\2002\010\324dhnB\245\262"
  63      9EA81565 
  63      803208D4 
  63      64686E42 
  63      A5B2
  64 006d 140D84DB 		.ascii	"\024\015\204\333\035_O\036\321\023n\273/>=\017\340\220"
  64      1D5F4F1E 
  64      D1136EBB 
  64      2F3E3D0F 
  64      E090
  65 007f B42B2013 		.ascii	"\264+ \023\264!\035$}\305B\337\373\250Z\321uOon!\016"
  65      B4211D24 
  65      7DC542DF 
  65      FBA85AD1 
  65      754F6F6E 
  66 0095 45EBCDF3 		.ascii	"E\353\315\363\022\034\032\243\325\377\012/\230\373\354"
  66      121C1AA3 
  66      D5FF0A2F 
  66      98FBEC
  67 00a4 794FC3F7 		.ascii	"yO\303\367\203W\364XLC\021\024\222\037\"d\340\014)\225"
  67      8357F458 
  67      4C431114 
  67      921F2264 
  67      E00C2995 
  68 00b8 13A6B624 		.ascii	"\023\246\266$O\032\030H\177\0325\375\241\323\362W\233"
  68      4F1A1848 
  68      7F1A35FD 
  68      A1D3F257 
ARM GAS  /tmp/cc5qhUpO.s 			page 5


  68      9B
  69 00c9 AC8329AD 		.ascii	"\254\203)\255\215ho\3343\015\234#,\321]\372\020\035"
  69      8D686FDC 
  69      330D9C23 
  69      2CD15DFA 
  69      101D
  70 00db 31CF1132 		.ascii	"1\317\0212\341\247\313\310\016Gx\312\344g\251\2514\""
  70      E1A7CBC8 
  70      0E4778CA 
  70      E467A9A9 
  70      3422
  71 00ed 2E3BD288 		.ascii	".;\322\210\366\307G\223x\200\344\021\231\021\314\231"
  71      F6C74793 
  71      7880E411 
  71      9911CC99 
  72 00fd 088E9B87 		.ascii	"\010\216\233\207\226G( \340\210\252\222\366\370\370"
  72      96472820 
  72      E088AA92 
  72      F6F8F8
  73 010c 77C798A9 		.ascii	"w\307\230\251H\377\356\310\021'\272\243\253\027\026"
  73      48FFEEC8 
  73      1127BAA3 
  73      AB1716
  74 011b 04027099 		.ascii	"\004\002p\231.EG\235[\312\003\265\372'\332l\214\340"
  74      2E45479D 
  74      5BCA03B5 
  74      FA27DA6C 
  74      8CE0
  75 012d 5469B983 		.ascii	"Ti\271\203\334Q\315\261\244\027\354\242\245\233v\266"
  75      DC51CDB1 
  75      A417ECA2 
  75      A59B76B6 
  76 013d A167ADBA 		.ascii	"\241g\255\272n\026x\206\333U\335\251\324J\333\2724\352"
  76      6E167886 
  76      DB55DDA9 
  76      D44ADBBA 
  76      34EA
  77 014f 4685DBB5 		.ascii	"F\205\333\265\252\004\312\025^rr\213\005bF9\221\263"
  77      AA04CA15 
  77      5E72728B 
  77      05624639 
  77      91B3
  78 0161 2B45C371 		.ascii	"+E\303q\254\354V\246\341X\325/\251H\201#"
  78      ACEC56A6 
  78      E158D52F 
  78      A9488123 
  79              		.text
  80              		.section	.gnu.lto_sd_is_card_inserted.9f85ff176bd8baed,"",%progbits
  81 0000 789C5D50 		.ascii	"x\234]P;JCQ\020=g\346>\025\011\306\005\210\330\013\006"
  81      3B4A4351 
  81      103D67E6 
  81      3E1509C6 
  81      0588D80B 
  82 0015 5C4B025A 		.ascii	"\\K\002Z\352S\302\003\003B\026\220\033|\202e\312\240"
  82      EA53C203 
  82      03421690 
  82      1B7C8265 
ARM GAS  /tmp/cc5qhUpO.s 			page 6


  82      CAA0
  83 0027 22085616 		.ascii	"\"\010V\026\311\002\264\020+\233\010B\032\203\205\013"
  83      C902B410 
  83      2B9B0842 
  83      1A83850B 
  84 0037 700F71E6 		.ascii	"p\017q\346>\022\304\013\367\3140\347\314W \370\377\366"
  84      3E12C40B 
  84      F7CC30E7 
  84      CC5720F8 
  84      FFF6
  85 0049 ED6F11D8 		.ascii	"\355o\021\3304\313\014\224\301;\320_\023\011\317\333"
  85      34CB0C94 
  85      C13BD05F 
  85      1309CFDB 
  86 0059 88EB3A6D 		.ascii	"\210\353:m \326\224\241\012\007\322\035\020=\321\300"
  86      20D694A1 
  86      0A07D21D 
  86      103DD1C0 
  87 0069 DE215391 		.ascii	"\336!S\221\261\274|\317\347\243\257\313\331\352\012"
  87      B1BC7CCF 
  87      E7A3AFCB 
  87      D9EA0A
  88 0078 51106AC0 		.ascii	"Q\020j\300\340\2209\230$C\031\343`\007\310SJ\323\320"
  88      E0903998 
  88      244319E3 
  88      6007C853 
  88      4AD3D0
  89 008b 2BB5286E 		.ascii	"+\265(nu\202\327\331\360\256v\304{\313hSw\361\030K\026"
  89      7582D7D9 
  89      F0AE76C4 
  89      7BCB6853 
  89      77F1184B 
  90 00a0 941B5C9B 		.ascii	"\224\033\\\233\321\003\203\020\207W1 \271\251\3551\027"
  90      D1038310 
  90      87573120 
  90      B9A9ED31 
  90      17
  91 00b1 5B4C7031 		.ascii	"[Lp1\322ErhW\372L*\346i\311dF:\223&zC\371\323\257/\251"
  91      D2457268 
  91      57FA4C2A 
  91      E669C964 
  91      463A9326 
  92 00cc 14FF7B99 		.ascii	"\024\377{\231&\025\323\206\266\254\231O\370a\353\303"
  92      2615D386 
  92      B6AC994F 
  92      F861EBC3 
  93 00dc 8449F309 		.ascii	"\204I\363\011\272\336\356 \267\343\312\005\364\241\356"
  93      BADEEE20 
  93      B7E3CA05 
  93      F4A1EE
  94 00eb 5974B9B7 		.ascii	"Yt\271\267\336\350\236t:y\267\350\234\237\235\356\345"
  94      DEE89E74 
  94      3A79B7E8 
  94      9C9F9DEE 
  94      E5
  95 00fc F805C319 		.ascii	"\370\005\303\031D\301"
  95      44C1
ARM GAS  /tmp/cc5qhUpO.s 			page 7


  96              		.text
  97              		.section	.gnu.lto_sd_is_write_protected.9f85ff176bd8baed,"",%progbits
  98 0000 789C6362 		.ascii	"x\234cb`b@\007\222@\034\015\304\002@\314\310\314\300"
  98      60624007 
  98      92401C0D 
  98      C40240CC 
  98      C8CCC0
  99 0013 C834E11C 		.ascii	"\3104\341\034\003C#\007\023##\210\301\300\310P\317\304"
  99      03432307 
  99      13232388 
  99      C1C0C850 
  99      CFC4
 100 0025 581FC908 		.ascii	"X\037\311\010V\273\236\351\300\203\377\377\327M9\266"
 100      56BB9EE9 
 100      C083FFFF 
 100      D74D39B6 
 101 0035 A08F9111 		.ascii	"\240\217\221\021d\024+CKC\303\004\005\006\206d\260\202"
 101      64142B43 
 101      4B43C304 
 101      05068664 
 101      B082
 102 0047 102009D2 		.ascii	"\020 \011\322\025\012\224\004\322\314\027\031\032\037"
 102      150A9404 
 102      D2CC1719 
 102      1A1F
 103 0055 F42C664C 		.ascii	"\364,fLd\\\310\310\312\020\301\230\311\010\2675\204"
 103      645CC8C8 
 103      CA10C198 
 103      C908B735 
 103      84
 104 0066 9111A402 		.ascii	"\221\021\244\002d\006_qJnnrqfnAN\252^2\003\000\035\274"
 104      64065F71 
 104      4A6E6E72 
 104      71666E41 
 104      4EAA5E32 
 105 007e 1EE8     		.ascii	"\036\350"
 106              		.text
 107              		.section	.gnu.lto_sdmmcInitialize.9f85ff176bd8baed,"",%progbits
 108 0000 789CAD57 		.ascii	"x\234\255W[l\024U\030\376\377\231\275No\024\252\245"
 108      5B6C1455 
 108      18FEFF99 
 108      BD4E6F14 
 108      AAA5
 109 0012 962ED316 		.ascii	"\226.\323\026\212t),Tn^I\270\274\241ri\2021>\254\333"
 109      8A74292C 
 109      546E5E49 
 109      B8BCA172 
 109      6982313E 
 110 0028 B59984DD 		.ascii	"\265\231\204\335\305\355bB|`JW(\017\302\006}XQ\011\210"
 110      C5ED6242 
 110      7C604A57 
 110      280FC206 
 110      7D585109 
 111 003d 86C4A818 		.ascii	"\206\304\250\030\365a#\242[4\241\004\2256\304di4\364"
 111      F56123A2 
 111      5B34A104 
 111      9536C464 
ARM GAS  /tmp/cc5qhUpO.s 			page 8


 111      6934F4
 112 0050 41830143 		.ascii	"A\203\001ChHhS\221\372\2379gf\257\264\220t\222=\347"
 112      68486853 
 112      91FA9F39 
 112      6766AFB4 
 112      9074923D 
 113 0065 CC7FCEF7 		.ascii	"\314\177\316\367_\276\363\377\347\314J A\341s\220~;"
 113      5FBEF3FF 
 113      E7CC4A20 
 113      41E17390 
 113      7E3B
 114 0077 2A009C08 		.ascii	"*\000\234\010\200\345\200R\342W\200\036\227$\331\372"
 114      80E58052 
 114      E257801E 
 114      9724D9FA 
 115 0087 1681AEC8 		.ascii	"\026\201\256\310\254-\227\321\306\3056\311\256_\004"
 115      AC2D97D1 
 115      C6C536C9 
 115      AE5F04
 116 0096 922B0999 		.ascii	"\222+\011\231\344v\311q\276\212\336\234\027\236\245"
 116      E476C971 
 116      BE8ADE9C 
 116      179EA5
 117 00a5 370796F1 		.ascii	"7\007\226\361UN\311\305\246\025\267\261\266\334e\312"
 117      554EC9C5 
 117      A615B7B1 
 117      B6DC65CA 
 118 00b5 DDE64031 		.ascii	"\335\346@1\007e\210l\000\010{%\331fw8]n\245\014\367"
 118      0765886C 
 118      00087B25 
 118      D9667738 
 118      5D6EA50C 
 119 00ca BE84CC35 		.ascii	"\276\204\3145\271\011N\350\372\221\221\277\356\334\302"
 119      B9094EE8 
 119      FA9191BF 
 119      EEDCC2
 120 00d9 F7DE4DC7 		.ascii	"\367\336M\307\217\353w''\0215\2440\252\021\002\010;"
 120      8FEB7727 
 120      271135A4 
 120      30AA1102 
 120      083B
 121 00eb E80555A3 		.ascii	"\350\005U\243\223l\371q\031\330D\372\352\376C\265\372"
 121      936CF971 
 121      19D844FA 
 121      EAFE43B5 
 121      FA
 122 00fc 889ED0EF 		.ascii	"\210\236\320\357\021TCY\002O\026\351\342H,\201<\222"
 122      11544359 
 122      024F16E9 
 122      E2482C81 
 122      3C92
 123 010e 1EDD7F38 		.ascii	"\036\335\1778\027i\223`\341t\310\323Rzdr\362\367\257"
 123      17699360 
 123      E174C8D3 
 123      527A6472 
 123      F2F7AF
 124 0121 E3C38BD7 		.ascii	"\343\303\213\327\"\2205\033\206\020\034\324\240\223"
ARM GAS  /tmp/cc5qhUpO.s 			page 9


 124      2290351B 
 124      86101CD4 
 124      A093
 125 012f 1A6936C9 		.ascii	"\032i6\311\3545\254\251\005?\236\300&\250\027}\003\023"
 125      EC35ACA9 
 125      053F9EC0 
 125      26A8177D 
 125      0313
 126 0141 CEA7C6A1 		.ascii	"\316\247\306\241\222\344$I\032\305L\263\350\027\320"
 126      92E42449 
 126      1AC54CB3 
 126      E817D0
 127 0150 A4B345BC 		.ascii	"\244\263E\274\264R\377\011\365^\361\336\306\340>\361"
 127      B452FF09 
 127      F55EF1DE 
 127      C6E03EF1 
 128 0160 D22EFA95 		.ascii	"\322.\372\225$t\255b\315j\326\254a\332\311I;\304\211"
 128      2474AD62 
 128      CD6AD6AC 
 128      61DAC949 
 128      3BC489
 129 0173 18955BE1 		.ascii	"\030\225[\341j\200\305E\317vj\331vt\240\304z\371\027"
 129      6A80C545 
 129      CF766AD9 
 129      7674A0C4 
 129      7AF917
 130 0186 D8773173 		.ascii	"\330w1s--\371\361\024\332\341}8\332\243\353\263\210"
 130      2D2DF9F1 
 130      14DAE17D 
 130      38DAA3EB 
 130      B388
 131 0198 FE376142 		.ascii	"\3767aB\357c#w\010e\226?\304\205\333`\240\013i\033\030"
 131      EF632377 
 131      0865963F 
 131      C485DB60 
 131      A00B691B 
 132 01ad 2C79FD16 		.ascii	",y\375\026r\230\027>\325\351\251\"\017I\003\255T\272"
 132      7298173E 
 132      D5E9A922 
 132      0F4903AD 
 132      54BA
 133 01bf D0C11065 		.ascii	"\320\301\020e\006\342U\301a\027:\015\344D\357\251\267"
 133      06E255C1 
 133      61173A0D 
 133      E444EFA9 
 133      B7
 134 01d0 3D85C8F2 		.ascii	"=\205\310\362\322H\016\345\336\350[hY\010y\026\220\236"
 134      D2480EE5 
 134      DEE85B68 
 134      59087916 
 134      909E
 135 01e2 54E6FA80 		.ascii	"T\346\372\200T\250\247\242\264\036^\025LRa\242\307K"
 135      54A8A7A2 
 135      B41E5E15 
 135      4C5261A2 
 135      C74B
 136 01f4 A01DA5D1 		.ascii	"\240\035\245\321\262\205v\010\364\305\324\2154\026\220"
ARM GAS  /tmp/cc5qhUpO.s 			page 10


 136      B2857608 
 136      F4C5D48D 
 136      341690
 137 0203 56669156 		.ascii	"Vf\221V\031\"9\007T\212\320\011x\011\366\217|{R\240"
 137      19223907 
 137      548AD009 
 137      7809F68F 
 137      7C7B52A0 
 138 0217 204B7155 		.ascii	" KqU@\204\311\326\317\322\023}\272\315\030\272t\236"
 138      4084C9D6 
 138      CFD2137D 
 138      BACD18BA 
 138      749E
 139 0229 83D575B4 		.ascii	"\203\325u\264\257\263\015\374\3613\362t\360\244\005"
 139      AFB30DFC 
 139      F133F274 
 139      F0A405
 140 0238 E75DB59A 		.ascii	"\347]\265\232E\1777-Z\267\320\274\346\252\217\332\263"
 140      457F372D 
 140      5AB7D0BC 
 140      E6AA8FDA 
 140      B3
 141 0249 F0B30F01 		.ascii	"\360\263\017\001\327\261\030\377\375C\340\327q\370>"
 141      D7B118FF 
 141      FD43E0D7 
 141      71F83E
 142 0258 0127CA87 		.ascii	"\001'\312\207S\267\007\305\206u\341l/\264\362t#\356"
 142      53B707C5 
 142      8675E16C 
 142      2FB4F274 
 142      23EE
 143 026a F597EF97 		.ascii	"\365\227\357\227r\314n<\335ZdvN@d\004i\322\260\206\353"
 143      72CC6E3C 
 143      DD5A6476 
 143      4E406404 
 143      69D2B086 
 144 027f CFDCFE1B 		.ascii	"\317\334\376\033M\3755y\372\267L\245\377\255tC\221\376"
 144      4DFD3579 
 144      FAB74CA5 
 144      FFAD7443 
 144      91FE
 145 0291 47022267 		.ascii	"G\002\"gH\223H\336\3275|4\204\016\261T\303Zf\364\334"
 145      489348DE 
 145      D7357C34 
 145      840EB154 
 145      C35A66F4 
 146 02a6 70F258B9 		.ascii	"p\362X\271(W\263n\365k\207\236\002\340\353\002<\333"
 146      2857B36E 
 146      F56B879E 
 146      02E0EB02 
 146      3CDB
 147 02b8 BB7025CB 		.ascii	"\273p%\313\321xOz\324\257\341\\\346U\202\231\251+\330"
 147      D1784F7A 
 147      D4AFE15C 
 147      E6558299 
 147      A92BD8
 148 02cb F259C239 		.ascii	"\362Y\3029\033\303\2373\\\"#\275_\020\357\375FX\253"
ARM GAS  /tmp/cc5qhUpO.s 			page 11


 148      1BC39F33 
 148      5C2223BD 
 148      5F10EFFD 
 148      4658AB
 149 02de 48135BE8 		.ascii	"H\023[\350\224\370\314\031kf5M\032\304\263\310\006 "
 149      94F8CC19 
 149      6B66354D 
 149      1AC4B3C8 
 149      0620
 150 02f0 FE4F4F95 		.ascii	"\376OO\2255e\310sO\301\355\024]\337\"\271\203\014\261"
 150      3565C873 
 150      4FC1ED14 
 150      5DDF22B9 
 150      830CB1
 151 0303 43842DEF 		.ascii	"C\204-\357\377\312ir\267\306*\024\376\\\001.\241C\375"
 151      FFCA6972 
 151      B7C62A14 
 151      FE5C012E 
 151      A143FD
 152 0316 83D32826 		.ascii	"\203\323(&\345\217\253\330)d\007\272@\330)ta\374\316"
 152      E58FABD8 
 152      296407BA 
 152      40D82974 
 152      61FCCE
 153 0329 2D8BFDDA 		.ascii	"-\213\375\332\0079\210\030\367\366\"\346\037\013\360"
 153      07398818 
 153      F7F622E6 
 153      1F0BF0
 154 0338 B0991626 		.ascii	"\260\231\026&L\352\372\025\202\324{`\361\207zr\235\206"
 154      4CEAFA15 
 154      82D47B60 
 154      F1877A72 
 154      9D86
 155 034a F3C0DA82 		.ascii	"\363\300\332\202\006c\013R\3111_\366\034\210\323b\217"
 155      06630B52 
 155      C9315FF6 
 155      1C88D362 
 155      8F
 156 035b 39986F0E 		.ascii	"9\230o\016T~.\324\025T\250\311\267]\364\016\321;\255"
 156      547E2ED4 
 156      1554A8C9 
 156      B75DF40E 
 156      D13BAD
 157 036e 946ED45D 		.ascii	"\224n\324]<\011\217\377Q\234\374M\001\2010\010\036\254"
 157      3C098FFF 
 157      519CFC4D 
 157      01813008 
 157      1EAC
 158 0380 22979A8D 		.ascii	"\"\227\232\215T\274\220\031\313\222Q?#d\324\347\223"
 158      54BC9019 
 158      CB92513F 
 158      2364D4E7 
 158      93
 159 0391 F14C6932 		.ascii	"\361Li2\366\015\217\217\015\310\246\345\206\274\"\330"
 159      F60D8F8F 
 159      0DC8A6E5 
 159      86BC22D8 
ARM GAS  /tmp/cc5qhUpO.s 			page 12


 160 03a1 337591AD 		.ascii	"3u\221\2555Q\363-\363\013\002\202\011R\245\341B\303"
 160      3551F32D 
 160      F30B0282 
 160      0952A5E1 
 160      42C3
 161 03b3 C08DDE37 		.ascii	"\300\215\3367\314\205*\255\345\341&'\262\3416\316H\270"
 161      CC852AAD 
 161      E5E12627 
 161      B2E136CE 
 161      48B8
 162 03c5 8D39E1B6 		.ascii	"\2159\341\266x`\013\017wQ^\270\003\360\323\265\376\313"
 162      78600B0F 
 162      77515EB8 
 162      03F0D3B5 
 162      FECB
 163 03d7 07AC3345 		.ascii	"\007\2543Ee\372\037\317\275\360;h\177\306*yz\346\270"
 163      65FA1FCF 
 163      BDF03B68 
 163      7FC62A79 
 163      7AE6B8
 164 03ea D8FC602E 		.ascii	"\330\374`.\022\354\246\305\345\002#\330K\340\230\312"
 164      12ECA6C5 
 164      E50223D8 
 164      4BE098CA 
 165 03fa EBE61CAF 		.ascii	"\353\346\034\257\027{ \306\275n5\275&-\206\343\3345"
 165      177B20C6 
 165      BD6E35BD 
 165      262D86E3 
 165      DC35
 166 040c 271C7CDA 		.ascii	"'\034|\332p-\363\357\240\345Z\313\214\260\327\"\374"
 166      702DF3EF 
 166      A0E55ACB 
 166      8CB0D722 
 166      FC
 167 041d 182288D7 		.ascii	"\030\"\210\327\003\357 wdIa\266L\364\376p8\377&wOs\003"
 167      03EF2077 
 167      644961B6 
 167      4CF4FE70 
 167      38FF2677 
 168 0434 676FF28A 		.ascii	"go\362\212\220H\016v-\216\377hE\320j9\324\026\020\247"
 168      90480E76 
 168      2D8EFF68 
 168      45D06A39 
 168      D41610A7 
 169 0448 0E97A4AF 		.ascii	"\016\227\244\257\036\250\261`\334\301\364\350y\217\206"
 169      1EA8B160 
 169      DCC1F4E8 
 169      798F86
 170 0457 4B3DF0B9 		.ascii	"K=\360\271\360p\231\351!\263\354c\216.\347\247Y\377"
 170      F07099E9 
 170      21B3EC63 
 170      8E2EE7A7 
 170      59FF
 171 0469 EDEC3EB7 		.ascii	"\355\354>\267\262\311\274o\311\0162\364\215\304\367"
 171      B2C9BC6F 
 171      C90E32F4 
 171      8DC4F7
ARM GAS  /tmp/cc5qhUpO.s 			page 13


 172 0478 F95E769F 		.ascii	"\371^v\237\2753B\2467gSWx\340K\341j{Q\351%'3\226\217"
 172      BD3342A6 
 172      37675357 
 172      78E04BE1 
 172      6A7B51E9 
 173 0491 6D79A5F7 		.ascii	"my\245\367\312\324\245\347-2O\225g~\255\265\231\225"
 173      CAD4A5E7 
 173      2D324F95 
 173      677EADB5 
 173      9995
 174 04a3 974A4D0E 		.ascii	"\227JM\016\346\177\360,\177\320\317%\316\221\033~[k"
 174      E67FF02C 
 174      7FD0CF25 
 174      CE911B7E 
 174      5B6B
 175 04b5 7094FA68 		.ascii	"p\224\372h\324\342\3107#\034\371r8z\302\003C\202\243"
 175      D4E2C837 
 175      231CF972 
 175      387AC203 
 175      4382A3
 176 04c8 95851CA5 		.ascii	"\225\205\034\2452\226\351l\302M\377\321\206V\014\012"
 176      3296E96C 
 176      C24DFFD1 
 176      86560C0A 
 177 04d8 24645E34 		.ascii	"$d^4'\207\254\030\332g$\206\366\374\242\271Y\262h\270"
 177      2787AC18 
 177      DA672486 
 177      F6FCA2B9 
 177      59B268B8 
 178 04ec 1765C6B5 		.ascii	"\027e\306\2659D\377\216\030\320\360\356\012 \235@\216"
 178      3944FF8E 
 178      18D0F0EE 
 178      0A209D40 
 178      8E
 179 04fd 9FCFCE65 		.ascii	"\237\317\316e&e\372G\302\037\334\353\372\3639C\364_"
 179      2665FA47 
 179      C21FDCEB 
 179      FAF33943 
 179      F45F
 180 050f 56A4DC1D 		.ascii	"V\244\334\035r\0312\000\367g\227k\330\205\214L%\333"
 180      72193200 
 180      F767976B 
 180      D8858C4C 
 180      25DB
 181 0521 B6CAEECE 		.ascii	"\266\312\356\316P(\320\255\205v\355\014.\015@yw0\252"
 181      5028D0AD 
 181      8576ED0C 
 181      2E0D4079 
 181      7730AA
 182 0534 F977BE18 		.ascii	"\371w\276\030\211\306\226\372\034\3351\177lw\267\034"
 182      89C696FA 
 182      1CDD317F 
 182      6C77B71C 
 183 0544 8C46E76C 		.ascii	"\214F\347l\333\260l\363\346\365O\256\367G;\325M\221"
 183      DBB06CF3 
 183      E6F54FAE 
 183      F7473BD5 
ARM GAS  /tmp/cc5qhUpO.s 			page 14


 183      4D91
 184 0556 DDE14E05 		.ascii	"\335\341N\005,Y$\034\016\006bZ\270K\201&!\333\030\356"
 184      2C59241C 
 184      0E06625A 
 184      B84B8126 
 184      21DB18EE 
 185 056a 5423AFA9 		.ascii	"T#\257\251\346T$\254\372c\261`hWL\001\217\271d\353\326"
 185      E65424AC 
 185      FA63B160 
 185      68574C01 
 185      8FB964EB 
 186 057f 17B69A2B 		.ascii	"\027\266\232+\226\320\333B\337\012\322Z'\246s\261\033"
 186      96D0DB42 
 186      DF0AD25A 
 186      27A673B1 
 186      1B
 187 0590 22E1A002 		.ascii	"\"\341\240\002\3222P\305\344&mgP\335\266\247\233T\252"
 187      D23250C5 
 187      E4266D67 
 187      50DDB6A7 
 187      9B54AA
 188 05a3 9BC99B98 		.ascii	"\233\311\233\230\2721\032\215D\025\230w\277\005\301"
 188      BA311A8D 
 188      44159877 
 188      BF05C1
 189 05b2 1CD5CF47 		.ascii	"\034\325\317GH\217\232\033\312\377K\014~|"
 189      488F9A1B 
 189      CAFF4B0C 
 189      7E7C
 190              		.text
 191              		.section	.gnu.lto_sdmmGetMMCDriver.9f85ff176bd8baed,"",%progbits
 192 0000 789C6D50 		.ascii	"x\234mP=K\003A\020}ov\317\210\210\037`\223.\245\030"
 192      3D4B0341 
 192      107D6F76 
 192      CF88881F 
 192      60932EA5 
 193 0015 B0B1C81F 		.ascii	"\260\261\310\037\311\201)\365\"\307A\016\002\371\001"
 193      C98129F5 
 193      22C7410E 
 193      02F901
 194 0024 D9487E40 		.ascii	"\331H~@J\321&vb\300\264\226VA\204\010)\024\264\262L"
 194      4AD12676 
 194      62C0B496 
 194      56418408 
 194      2914B4B2 
 195 0039 91FF7099 		.ascii	"\221\377p\231]\211\030q`wfv\337{\363!\020\374\265\023"
 195      5D891871 
 195      60776676 
 195      DF7BF321 
 195      10FCB513 
 196 004d 3D65027B 		.ascii	"=e\002{\352\031\2012x\005z\233\"\346n\002\270-;/\301"
 196      EA198132 
 196      78057A9B 
 196      22E66E02 
 196      B82D3B2F 
 197 0062 6D1BDAEF 		.ascii	"m\033\332\357wK\372\000DW\214e\267\301\2402\226\247"
 197      774BFA00 
ARM GAS  /tmp/cc5qhUpO.s 			page 15


 197      44578C65 
 197      B7C1A032 
 197      96A7
 198 0074 AFA27878 		.ascii	"\257\242xx\177\031\216)\033DF\030\346\204\325HU\263"
 198      7F198E29 
 198      1B444618 
 198      E684D548 
 198      55B3
 199 0086 808AD077 		.ascii	"\200\212\320wnP\001\222\220\326\365\366Z1\305{3\305"
 199      6E500192 
 199      90D6F5F6 
 199      5A31C57B 
 199      33C5
 200 0098 E5E7D568 		.ascii	"\345\347\325h\3063\336*%\245\255\342H\3317\270fFIiN"
 200      C633DE2A 
 200      25A5ADE2 
 200      48D937B8 
 200      66464969 
 201 00ad D59B50EE 		.ascii	"\325\233P\356\234\253\366\237\321_\364v\177(\036\302"
 201      9CABF69F 
 201      D15FF476 
 201      7F281EC2 
 202 00bd DFE3C5CA 		.ascii	"\337\343\305\312\320A\202\370\343h\177\005\214\252\270"
 202      D04182F8 
 202      E3687F05 
 202      8CAAB8
 203 00cc 776A35ED 		.ascii	"wj5\355\354\377\002\\\023\261\241\303\231.\000\312\016"
 203      ECFF025C 
 203      13B1A1C3 
 203      992E00CA 
 203      0E
 204 00dd 7F1FA0EA 		.ascii	"\177\037\240\352\230CO\322T\026o\007~&z\244_\363N\247"
 204      98434FD2 
 204      54166F07 
 204      7E267AA4 
 204      5FF34EA7 
 205 00f1 99E74927 		.ascii	"\231\347I'\313\333\255\213\343\004Kg\251D\360"
 205      CBDBAD8B 
 205      E3044B67 
 205      A944F0
 206              		.text
 207              		.section	.gnu.lto_sdmmcGetFS.9f85ff176bd8baed,"",%progbits
 208 0000 789C6D50 		.ascii	"x\234mP\315J\202A\024=\347\316|\026\022\231\320\246"
 208      CD4A8241 
 208      143DE7CE 
 208      7C161299 
 208      D0A6
 209 0012 9DCB4870 		.ascii	"\235\313Hp\323\302\027I\320\245~\206|\340\007\201\017"
 209      D3C21749 
 209      D0A57E86 
 209      7CE00781 
 209      0F
 210 0023 E0183E80 		.ascii	"\340\030>\200K\251\215\355\"\242\300\225\313V\022I\202"
 210      4BA98DED 
 210      22A2C095 
 210      CB561249 
 210      82
ARM GAS  /tmp/cc5qhUpO.s 			page 16


 211 0034 4B5BB574 		.ascii	"K[\265t\3213hw&\214\212.\314\334{g\3169\367G \370k\247"
 211      D1336877 
 211      268C8A2E 
 211      CCDC7B67 
 211      CE39F747 
 212 004c 7A8E081C 		.ascii	"z\216\010\034\250g\004\312`\016\364vE\314\355\024pY"
 212      A86704CA 
 212      600EF476 
 212      45CCED14 
 212      7059
 213 005e BBDA81DB 		.ascii	"\273\332\201\3333\264_\357\226\364\001\210\256\030\313"
 213      33B45FEF 
 213      96F40188 
 213      AE18CB
 214 006d 6E8D41E5 		.ascii	"n\215A\345Q\236\3367\233\207\365\313hF\311\020\011a"
 214      519EDE37 
 214      9B87F5CB 
 214      6846C910 
 214      0961
 215 007f 98125623 		.ascii	"\230\022V#UM\002*B\337\271A\001\210Cz\246\267\327\252"
 215      554D022A 
 215      42DFB941 
 215      0188437A 
 215      A6B7D7AA 
 216 0093 50BC37AF 		.ascii	"P\2747\257\270|\033\216\027\254\363F)-\332\"N\224}\215"
 216      B87C1B8E 
 216      17ACF346 
 216      292DDA22 
 216      4E947D8D 
 217 00a7 2B269416 		.ascii	"+&\224\026MU\275\011\345\032\334\266\377\214\376G/\367"
 217      4D55BD09 
 217      E51ADCB6 
 217      FF8CFE47 
 217      2FF7
 218 00b9 4DF110FE 		.ascii	"M\361\020\376\034\257\242\014\035$\210O\306\371-0*\342"
 218      1CAFA20C 
 218      1D24884F 
 218      C6F92D30 
 218      2AE2
 219 00cb CEA995B5 		.ascii	"\316\251\225\265\263\377\013\360\227\210\015\035.t\001"
 219      B3FF0BF0 
 219      97880D1D 
 219      2E7401
 220 00da 5076F85B 		.ascii	"Pv\370[\202\252c\216=IS\271_\036\372\231\350\221~\315"
 220      82AA638E 
 220      3D4953B9 
 220      5F1EFA99 
 220      E8917ECD 
 221 00ee FB9D669A 		.ascii	"\373\235f\232\306\235$\275h\237\227b|\002\264\214E\006"
 221      C69D24BD 
 221      689F9762 
 221      7C02B48C 
 221      4506
 222              		.text
 223              		.section	.gnu.lto_sdmmcFSMounted.9f85ff176bd8baed,"",%progbits
 224 0000 789C6362 		.ascii	"x\234cb`b@\007\222@<\003\210\005\200\230\221\231\201"
 224      60624007 
ARM GAS  /tmp/cc5qhUpO.s 			page 17


 224      92403C03 
 224      88058098 
 224      919981
 225 0013 9169C239 		.ascii	"\221i\3029\006\206F\016&FF\020\203\201\221\241\236\211"
 225      0686460E 
 225      26464610 
 225      838191A1 
 225      9E89
 226 0025 B13E9211 		.ascii	"\261>\222\021\254v=\323\201\007\377\377\257\333vz\301"
 226      AC763DD3 
 226      8107FFFF 
 226      AFDB767A 
 226      C1
 227 0036 5D462616 		.ascii	"]F&\026&\306\\F\006f\206L\260\034+CKC\303\004\005\006"
 227      26C65C46 
 227      0666864C 
 227      B01C2B43 
 227      4B43C304 
 228 004c 86643037 		.ascii	"\206d07\004H\202\364\20722\201h\346\263\014M\267flW"
 228      044882F4 
 228      87323281 
 228      68E6B30C 
 228      4DB7666C 
 229 0061 4C645CC8 		.ascii	"Ld\\\310\310\312\220\316\310\254\315\260\252\001\010"
 229      C8CA90CE 
 229      C8ACCDB0 
 229      AA0108
 230 0070 AC819A67 		.ascii	"\254\201\232g3\314b\314ddLgd\212\000\322\020\007&1\302"
 230      33CC62CC 
 230      64644C67 
 230      648A00D2 
 230      10072631 
 231 0085 9C7791A1 		.ascii	"\234w\221\241\361\000\013\\\033D,\204\221\021d(H)_q"
 231      F1000B5C 
 231      1B442C84 
 231      91116428 
 231      48295F71 
 232 0099 4A6E6E72 		.ascii	"JnnrqfnAN\252^2\003\000\336\012*\222"
 232      71666E41 
 232      4EAA5E32 
 232      0300DE0A 
 232      2A92
 233              		.text
 234              		.section	.gnu.lto_.symbol_nodes.9f85ff176bd8baed,"",%progbits
 235 0000 789C4DCC 		.ascii	"x\234M\314\315N\302@\030\205\3413g:\340?\370o\242\211"
 235      CD4EC240 
 235      1885E133 
 235      673AE03F 
 235      F86FA289 
 236 0014 37E04D79 		.ascii	"7\340My%\037R\205*RP\264\030\027.\344N,k\027\254]h\032"
 236      251F5285 
 236      2A5250B4 
 236      18172EE4 
 236      4E2C6B17 
 237 002c 775E8338 		.ascii	"w^\20383m\234v\363\344\235~9\004\361\241P~\\*\001\306"
 237      336D9C76 
 237      F3E49D7E 
ARM GAS  /tmp/cc5qhUpO.s 			page 18


 237      3904F1A1 
 237      507E5C2A 
 238 0042 EF80C830 		.ascii	"\357\200\31009g\237\242\252|I\024\023\012kyM\321!M\227"
 238      39679FA2 
 238      AA7C4914 
 238      130A6B79 
 238      4DD1214D 
 239 0057 8C449B21 		.ascii	"\214D\233!5\004\346\202\221\253\036\225#&,\274\241D"
 239      3504E682 
 239      91AB1E95 
 239      23262CBC 
 239      A144
 240 0069 B58101C5 		.ascii	"\265\201\001\305\324\362\226\322\250\355=\322\270\241"
 240      D4F296D2 
 240      A8ED3DD2 
 240      B8A1
 241 0077 4B36DCC2 		.ascii	"K6\334\302\025\233\026\365Di\2267\235\216RS\312J\250"
 241      159B16F5 
 241      44699637 
 241      9D8E5253 
 241      CA4AA8
 242 008a 8CB21AEA 		.ascii	"\214\262\032\352\201\262\026jBY\017uO\331\010uG\331"
 242      81B2166A 
 242      42590F75 
 242      4FD90875 
 242      47D9
 243 009c 0C35A66C 		.ascii	"\0145\246l\205\032QZ\241RJ\373\2774\266\021\177\376"
 243      851A515A 
 243      A1524AFB 
 243      BF34B611 
 243      7FFE
 244 00ae 5ADB9879 		.ascii	"Z\333\230y[\310\235\372\010\371WiQ\031\367~N\235\263"
 244      5BC89DFA 
 244      08F95769 
 244      5119F77E 
 244      4E9DB3
 245 00c1 CADC7B88 		.ascii	"\312\334{\210\270\357<@\356\005^\007s\353>\012\257\355"
 245      B8EF3C40 
 245      EE055E07 
 245      73EB3E0A 
 245      AFED
 246 00d3 D4B98722 		.ascii	"\324\271\207\"-\373mT\271X\322\331\235\314O\264\336"
 246      2DFB6D54 
 246      B958D2D9 
 246      9DCC4FB4 
 246      DE
 247 00e4 45EEB5F7 		.ascii	"E\356\265\367\231\375\275\203\"+\257\246\337\307\376"
 247      99FDBD83 
 247      222BAFA6 
 247      DFC7FE
 248 00f3 F5F90C7F 		.ascii	"\365\371\014\177\\\260\204?"
 248      5CB0843F 
 249              		.text
 250              		.section	.gnu.lto_.refs.9f85ff176bd8baed,"",%progbits
 251 0000 789C6362 		.ascii	"x\234cb`bPg\200\000>fF\026&VF6&v\006\026\030d\342`\342"
 251      60625067 
 251      80003E66 
ARM GAS  /tmp/cc5qhUpO.s 			page 19


 251      46162656 
 251      46362676 
 252 001b 80B098D9 		.ascii	"\200\260\230\331\231x\230x\231\370\030\000\023\037\000"
 252      99789878 
 252      99F81800 
 252      131F00
 253 002a C4       		.ascii	"\304"
 254              		.text
 255              		.section	.gnu.lto_.decls.9f85ff176bd8baed,"",%progbits
 256 0000 789CBD7D 		.ascii	"x\234\275}\013t\024U\266vU\365+!\221\227\250\340\240"
 256      0B741455 
 256      B67655F5 
 256      2B219197 
 256      A8E0A0
 257 0013 B63373E7 		.ascii	"\2663s\347\272\356\272\032@F\235\271sG!\017`\004\222"
 257      BAEEBA1A 
 257      40469DB9 
 257      7347210F 
 257      600492
 258 0026 BF13C671 		.ascii	"\277\023\306q\255\273\376\266I:\320\327\274\354\356"
 258      ADBBFEB6 
 258      493AD0D7 
 258      BCECEE
 259 0035 20FEFF5D 		.ascii	" \376\377]k\212\207Q\021\021\302S\204\020@y*\"\020\344"
 259      6B8A8751 
 259      1111C253 
 259      84104079 
 259      2A2210E4 
 260 0049 156C7C90 		.ascii	"\025l|\220@\004\002\210\200\010\211(( J\210\200\200"
 260      40040288 
 260      80088928 
 260      28204A88 
 260      8080
 261 005b 907F9F7D 		.ascii	"\220\177\237}\252\272OU\252\272O\2653\177\257uN\235"
 261      AABA4F55 
 261      AABA4FB5 
 261      337FAF75 
 261      4E9D
 262 006d 3E5DE73B 		.ascii	">]\347;{\357\263\317>\373<\252Z\022$\341#\233 t\300"
 262      7BEFB3CF 
 262      3EFB3CAA 
 262      5A1224E1 
 262      239B2074 
 263 0082 E7EA0C41 		.ascii	"\347\352\014A\350\321]\020R\004A\3703\204\333!\330!"
 263      E8D15D10 
 263      520441F8 
 263      3384DB21 
 263      D821
 264 0094 2C86B004 		.ascii	",\206\260\004\302\012\010+!\254\206\360\026\2045\020"
 264      C20A082B 
 264      21AC86F0 
 264      16843510 
 265 00a4 BE82F035 		.ascii	"\276\202\3605\204:\010\247!|\003\341\014\204\263\020"
 265      843A08A7 
 265      217C03E1 
 265      0C84B310 
 266 00b4 BE83701E 		.ascii	"\276\203p\036\202\013\302\017\020F\211\202\360\277%"
ARM GAS  /tmp/cc5qhUpO.s 			page 20


 266      820BC20F 
 266      10468982 
 266      F0BF25
 267 00c3 41F04120 		.ascii	"A\360A \237\036\020\212 =\037\302\015\010\"\320\261"
 267      9F1E108A 
 267      203D1FC2 
 267      0D0822D0 
 267      B1
 268 00d4 15C20E08 		.ascii	"\025\302\016\010\015\020\366@\330\013\341\013\010\307"
 268      0D10F640 
 268      D80BE10B 
 268      08C7
 269 00e2 21B440B8 		.ascii	"!\264@\270\003\010\352\003\341.\010\277\206\360;;\245"
 269      0308EA03 
 269      E12E08BF 
 269      86F03B3B 
 269      A5
 270 00f3 3703AEFD 		.ascii	"7\003\256\375!<\006a0\204,\010\277\207\360\007\010\377"
 270      213C0661 
 270      30842C08 
 270      BF87F007 
 270      08FF
 271 0105 6917341F 		.ascii	"i\0274\037Rg\032\\\017\002^W\270\246+|\346@\364\027"
 271      52671A5C 
 271      0F025E57 
 271      B8A62B7C 
 271      E640F417 
 272 0119 0843203C 		.ascii	"\010C <\016a\037\374>\034\256#\224\362v\245\354\027"
 272      0E611FFC 
 272      3E1CAE23 
 272      94F276A5 
 272      EC17
 273 012b 0A5D843E 		.ascii	"\012]\204>\302\312l\210\346J\332:\010ON\201\362J\370"
 273      C2CA6C88 
 273      E64ADA3A 
 273      084F4E81 
 273      F24AF8
 274 013e FF2DF07E 		.ascii	"\377-\360~\267He@p\340\"\014\020\351u\276\256,\371\240"
 274      B7486540 
 274      70E0220C 
 274      10E975BE 
 274      AE2CF9A0 
 275 0152 3C8498AC 		.ascii	"<\204\230\254D%O\377!2{\010\256}\031^l\220\376\022\302"
 275      44254FFF 
 275      21327B08 
 275      AE7D195E 
 275      6C90FE12 
 276 0167 4245D676 		.ascii	"BE\326v\245\015r!\221\006\371] \\V\332/\017\362\376"
 276      A50D7221 
 276      9106F95D 
 276      205C56DA 
 276      2F0FF2FE 
 277 017b 973DD636 		.ascii	"\227=\3266\377\012i\017\204\337@\310\267\323v\273\333"
 277      FF0A690F 
 277      84DF40C8 
 277      B7D376BB 
 277      DB
ARM GAS  /tmp/cc5qhUpO.s 			page 21


 278 018c 1EA3BFC0 		.ascii	"\036\243\277\300\036kW?\334?\012\276\377\025\302\303"
 278      1E6B573F 
 278      DC3F0ABE 
 278      FF15C2C3 
 279 019c F01BC00A 		.ascii	"\360\033\300\012O@\372N\010\177\203\360\272\024\323"
 279      4F40FA4E 
 279      087F83F0 
 279      BA14D3
 280 01ab 0581D10F 		.ascii	"\005\201\321\017U\237\236\264k\365\247\325\026\323-"
 280      559F9EB4 
 280      6BF5A7D5 
 280      16D32D
 281 01ba 55D748DB 		.ascii	"U\327H\333\366\200\374\236\020zA\350m\243r{\010\302"
 281      F680FC9E 
 281      107A41E8 
 281      6DA3727B 
 281      08C2
 282 01cc 9F200C81 		.ascii	"\237 \014\201\320E\221\303\357\024\235 \272AdJ\332\212"
 282      D04591C3 
 282      EF149D20 
 282      BA41644A 
 282      DA8A
 283 01de E80AD199 		.ascii	"\350\012\321\231\026E\207\010\336&\270n\200\260\321"
 283      16458708 
 283      DE26B86E 
 283      80B0D1
 284 01ed A6D517A2 		.ascii	"\246\325\027\242?\031:]!\372H\262TY\252\362#Mq\273\215"
 284      3F193A5D 
 284      21FA48B2 
 284      5459AAF2 
 284      234D71BB 
 285 0202 D2262AF7 		.ascii	"\322&*\367\221\353\3736m\371\035J\3715B\347\362\275"
 285      91EBFB36 
 285      6DF91D4A 
 285      F93542E7 
 285      F2BD
 286 0214 159E44E5 		.ascii	"\025\236D\345>r\375XW\236\364\003\233\256\254\250\224"
 286      3E72FD58 
 286      579EF403 
 286      9BAEACA8 
 286      94
 287 0225 1595DFC9 		.ascii	"\025\225\337\311\265IW.M\230\"\313\023\345\332*yhc\327"
 287      B549572E 
 287      4D9822CB 
 287      13E5DA2A 
 287      796863D7 
 288 0239 1EC27419 		.ascii	"\036\302t\031>\356y]S\205\027Iv\353\233r\357\336\320"
 288      3EEE795D 
 288      53851749 
 288      76EB9B72 
 288      EFDED0
 289 024c 48A24F84 		.ascii	"H\242O\204\254\024L\244\247\"\320\277\010o\300\255p"
 289      AC144CA4 
 289      A722D0BF 
 289      086FC0AD 
 289      70
 290 025d BFE41397 		.ascii	"\277\344\023\227\212\251@\250$vV;\362\241\277\377\233"
ARM GAS  /tmp/cc5qhUpO.s 			page 22


 290      8AA940A8 
 290      2476563B 
 290      F2A1BFFF 
 290      9B
 291 026e B092DE7F 		.ascii	"\260\222\336\177R\177\033\001%w\304R\035b\264\316FQ"
 291      527F1B01 
 291      2577C452 
 291      1D62B4CE 
 291      4651
 292 0280 ADB48F02 		.ascii	"\255\264\217\002\266D\354\201)$QV(\307;\224\"n\265\204"
 292      B644EC81 
 292      29245156 
 292      28C73B94 
 292      226EB584 
 293 0294 5D29B11C 		.ascii	"])\261\034\301\0055;\232\350\315\020`Tn\261\230\226"
 293      C105353B 
 293      9AE8CD10 
 293      60546EB1 
 293      9896
 294 02a6 404C945C 		.ascii	"@L\224\\\245|k\224\324\276\012\300J\313\244\2562!\365"
 294      A57C6B94 
 294      D4BE0AC0 
 294      4ACBA4AE 
 294      3221F5
 295 02b9 5709485D 		.ascii	"W\011H]a\215TYR\001\334\012\300[\226I}\333\204\324{"
 295      618D5459 
 295      5201DC0A 
 295      C05B9649 
 295      7DDB84D4 
 296 02ce 1290BADA 		.ascii	"\022\220\272\332\204\324\236\302\014$\265\261k\264\254"
 296      84D49EC2 
 296      0C24B5B1 
 296      6BB4AC
 297 02dd FC1BB5F0 		.ascii	"\374\033\265\360Z\273\252r\323[\353\277\233f\223\345"
 297      5ABBAA72 
 297      D35BEBBF 
 297      9B6693E5 
 298 02ed 149FF88E 		.ascii	"\024\237\370\216\330\023\324n\260\010\240\313\304\177"
 298      D813D46E 
 298      B008A0CB 
 298      C47F
 299 02fb 533013C3 		.ascii	"S0\023\303\020\"\326AQZ\212\352qd\353\316t\331N\363"
 299      1022D641 
 299      515A8AEA 
 299      7164EBCE 
 299      74D94EF3 
 300 030f 050D9EE6 		.ascii	"\005\015\236\346s\257P\013\004G\352wn\025\345\252t\246"
 300      73AF500B 
 300      0447EA77 
 300      6E15E5AA 
 300      74A6
 301 0321 93CCEB1A 		.ascii	"\223\314\353\032\247\227Lo}\267jV\006\222\\\207=e\202"
 301      A7974C6F 
 301      7DB76A56 
 301      06925C87 
 301      3D6582
 302 0334 A8A5D927 		.ascii	"\250\245\331'*\262d\277\2537\020\264h\357P:\207$T!\004"
ARM GAS  /tmp/cc5qhUpO.s 			page 23


 302      2AB264BF 
 302      AB3710B4 
 302      68EF503A 
 302      87245421 
 303 0349 21D7A8DA 		.ascii	"!\327\250\332h\2330\015\241a\241\265\376\347\251\256"
 303      689B300D 
 303      A161A1B5 
 303      FEE7A9AE 
 304 0359 B9726482 		.ascii	"\271rd\202M\245i\232e\300\024\215L\232w\246\255}J\005"
 304      4DA5699A 
 304      65C0148D 
 304      4C9A77A6 
 304      AD7D4A05 
 305 036d ABB60CD6 		.ascii	"\253\266\014\326]\003v\200\005\233g\031\254\267\006"
 305      5D037680 
 305      059B6719 
 305      ACB706
 306 037c EC53166C 		.ascii	"\354S\026l\221e0\267\006\3543\026\354M\313`\367i\300"
 306      916530B7 
 306      06EC3316 
 306      EC4DCB60 
 306      F769C0
 307 038f 8E54A537 		.ascii	"\216T\2457?\245h\221\\%\337\267\242+#\017\245\270\304"
 307      3FA56891 
 307      5C25DFB7 
 307      A22B230F 
 307      A5B8C4
 308 03a2 6AD19C47 		.ascii	"j\321\234GP\213>\302\332\327t\322\"\233N\213lZ-\262"
 308      508B3EC2 
 308      DAD774D2 
 308      229B4E8B 
 308      6C5A2DB2 
 309 03b6 A5C6121D 		.ascii	"\245\306\022\035\0358\270\254\327s\240\251\327\210\203"
 309      1D38B8AC 
 309      D773A0A9 
 309      D78883
 310 03c5 7E5A35DA 		.ascii	"~Z5\332\360\212k\236\034\231hS\211\332\310\003\230b"
 310      F08A6B9E 
 310      1C996853 
 310      89DAC803 
 310      9862
 311 03d7 AA9791EB 		.ascii	"\252\227\221\353US\373\310\265\037\210\212T\250i06&"
 311      5553FBC8 
 311      B51F888A 
 311      54A86930 
 311      3626
 312 03e9 AA5476D6 		.ascii	"\252Tv\326\320\276\325\204\004D:I\305\245\223\212K+"
 312      D0BED584 
 312      04443A49 
 312      C5A5938A 
 312      4B2B
 313 03fb 15576A2C 		.ascii	"\025Wj,A\274\333nD.;\365lhj6bC\243&\255\365?\275\322"
 313      41BCDB6E 
 313      442E3BF5 
 313      6C686A36 
 313      6243A326 
 314 0414 FB353932 		.ascii	"\373592\331\246\222\265\237\007\260\273\271\\\3464\244"
ARM GAS  /tmp/cc5qhUpO.s 			page 24


 314      D9A692B5 
 314      9F07B0BB 
 314      B95CE634 
 314      A4
 315 0425 4FF7A960 		.ascii	"O\367\251`_X\006\323*\361<\026\354\024\017Xos\312\346"
 315      5F5806D3 
 315      2AF13C16 
 315      EC140F58 
 315      6F73CAE6 
 316 0439 B360E72C 		.ascii	"\263`\347,\203i)[\300\202\265\363\200\271\315)\253a"
 316      8369295B 
 316      C082B5F3 
 316      80B9CD29 
 316      AB61
 317 044b C1AE5B06 		.ascii	"\301\256[\006\323R\266\226\005\233$q\200\335gN\331:"
 317      D352B696 
 317      059B2471 
 317      80DD674E 
 317      D93A
 318 045d 166CAA65 		.ascii	"\026l\252e0\22629R\327\220\006\203\021;\322\3271#}\024"
 318      30963239 
 318      52D79006 
 318      83113BD2 
 318      D731237D 
 319 0472 4C56C7BE 		.ascii	"LV\307\276V\313C\375\227&C}\207\352LJ\302,=\023\272"
 319      56CB43FD 
 319      9726437D 
 319      87EA4C4A 
 319      C22C3D13 
 320 0487 8A95743F 		.ascii	"\212\225t?\003\231\030}\330\021\332'\256\027\377\005"
 320      0399187D 
 320      D811DA27 
 320      AE17FF05 
 321 0497 E20DE2BD 		.ascii	"\342\015\342\275\020o\306x+\306\365\030\277\217\361"
 321      106FC678 
 321      2BC6F518 
 321      BF8FF1
 322 04a6 0E8C3FC4 		.ascii	"\016\214?\304\270\021\343\335\030\357\303x?\306\007"
 322      B811E3DD 
 322      18EFC378 
 322      3FC607
 323 04b5 313E84F1 		.ascii	"1>\204\361a\214\217b|\014\343\343\030\267@\034\375\230"
 323      618C8F62 
 323      7C0CE3E3 
 323      18B7401C 
 323      FD98
 324 04c7 09644D7C 		.ascii	"\011dM|w\253\3661\235\277\2451\202\004\340k\313mp\312"
 324      77ABF631 
 324      9DBFA531 
 324      8204E06B 
 324      CB6D70CA 
 325 04db A40DC404 		.ascii	"\244\015\304\004\244~e\3153\274\020ub\357V\000\276\261"
 325      A47E65CD 
 325      33BC1075 
 325      62EF5600 
 325      BEB1
 326 04ed 4CEAB726 		.ascii	"L\352\267&\244\336\225\200\324\323\326H\235\036ub\177"
ARM GAS  /tmp/cc5qhUpO.s 			page 25


 326      A4DE9580 
 326      D4D3D648 
 326      9D1E7562 
 326      7F
 327 04fe AD009CB5 		.ascii	"\255\000\234\265L\3529\023R\357M@\352\031k\244\316\213"
 327      4CEA3913 
 327      52EF4D40 
 327      EA196BA4 
 327      CE8B
 328 0510 4AF55605 		.ascii	"J\365V\005\340\274eR\2777!\265g\002R\277\343\367\267"
 328      E0BC6552 
 328      BF3721B5 
 328      670252BF 
 328      E3F7B7
 329 0523 9F52CB92 		.ascii	"\237R\313\222\325\001exm\253>\321\037\207\327\013\350"
 329      D5016578 
 329      6DAB3ED1 
 329      1F87D70B 
 329      E8
 330 0534 6DEF9312 		.ascii	"m\357\223\022\272\333\032\024BA\273\336\331~\237:\333"
 330      BADB1A14 
 330      4241BBDE 
 330      D97E9F3A 
 330      DB
 331 0545 ED5CCEF6 		.ascii	"\355\\\316\366\341\252\205\350\021$\234,\330X#\243P"
 331      E1AA85E8 
 331      11249C2C 
 331      D85823A3 
 331      50
 332 0556 7F71CE61 		.ascii	"\177q\316a'R\177\005\251\257\261%\236,h`|\342UQ\202"
 332      27527F05 
 332      A9AFB125 
 332      9E2C6860 
 332      7CE25551 
 333 056b F89A9E85 		.ascii	"\370\232\236\205K\257#\013\327\270X\270q\254\346\016"
 333      4BAF230B 
 333      D7B858B8 
 333      71ACE60E 
 334 057b B93522BA 		.ascii	"\2715\"\272\204*\2340<?1\341\204\341\365O\251\324o@"
 334      842A9C30 
 334      3C3F31E1 
 334      84E1F54F 
 334      A9D46F40 
 335 058f 214938A6 		.ascii	"!I8\246\243\233\003\210P%K.-\325uU\335\010\325$?\016"
 335      A39B0388 
 335      50254B2E 
 335      2DD57555 
 335      DD08D524 
 336 05a5 D53662A6 		.ascii	"\3256b\246$\341\264\215j\255=5\226\327\026\313\023\231"
 336      24E1B48D 
 336      6AAD3D35 
 336      96D716CB 
 336      1399
 337 05b7 5BAFC5B2 		.ascii	"[\257\305\262%&{\262=\232mc\262_\215e\253\253(\344\253"
 337      25267BB2 
 337      3D9A6D63 
 337      B25F8D65 
ARM GAS  /tmp/cc5qhUpO.s 			page 26


 337      ABAB28E4 
 338 05cc 7E92C37C 		.ascii	"~\222\303|XV|\342\004\211\014\007\023%\233a1IX`\027"
 338      58567CE2 
 338      04890C07 
 338      13259B61 
 338      31495860 
 339 05e1 9526E375 		.ascii	"\225&\343u\3135\315\325\332>\347\343o\304\231\223\344"
 339      CB35CDD5 
 339      DA3EE7E3 
 339      6FC49993 
 339      E4
 340 05f2 C67E463A 		.ascii	"\306~F:\007\267\210\361\373L\344\3301\321\235\250c\370"
 340      07B788F1 
 340      FB4CE4D8 
 340      31D19DA8 
 340      63F8
 341 0604 C4E9C006 		.ascii	"\304\351\300\006O\367\251\226t\2727\367\030\352\036"
 341      4FF7A996 
 341      74BA37F7 
 341      18EA1E
 342 0613 C94FAC7B 		.ascii	"\311O\254{\213\216\325t\356>\267\013\263\025\253#\213"
 342      8B8ED574 
 342      EE3EB70B 
 342      B315AB23 
 342      8B
 343 0624 619FF8E7 		.ascii	"a\237\370\347\333L\255\307\034\351\366\230N\220\214"
 343      DB4CADC7 
 343      1CE9F698 
 343      4E908C
 344 0633 CB80E413 		.ascii	"\313\200\344\023G\305\226\221\314]\363\310\215\371\275"
 344      47C59691 
 344      CC5DF3C8 
 344      8DF9BD
 345 0642 08A1B3A5 		.ascii	"\010\241\263\2454(\275\304\256\325a\015A\264\"3\"\346"
 345      3428BDC4 
 345      AED5610D 
 345      41B42233 
 345      22E6
 346 0654 4B69267C 		.ascii	"Ki&|v\372M\2029\276\250\010-\216;e\336\372\221\315F"
 346      76FA4D82 
 346      39BEA808 
 346      2D8E3B65 
 346      DEFA91CD 
 347 0669 023368A7 		.ascii	"\0023h\247\326\350\360\363\357Q\216[[\276j\315\230\004"
 347      D6E8F0F3 
 347      EF518E5B 
 347      5BBE6ACD 
 347      9804
 348 067b 42F58935 		.ascii	"B\365\2115\022187\354\011\015\216\026\007\327\235\364"
 348      12313837 
 348      EC090D8E 
 348      1607D79D 
 348      F4
 349 068c 0DBEBE09 		.ascii	"\015\276\276\011\033|q\342\006\237<)\362^\323\202\330"
 349      1B7C71E2 
 349      069F3C29 
 349      F25ED382 
ARM GAS  /tmp/cc5qhUpO.s 			page 27


 349      D8
 350 069d 0C6A12CF 		.ascii	"\014j\022\317\014\252\356ls\357\267d\271;\307\234\313"
 350      0CAAEE6C 
 350      73EFB764 
 350      B93BC79C 
 350      CB
 351 06ae 27BE899D 		.ascii	"'\276\211\235\217g\016\365\216C\313;\377\224\256\355"
 351      8F670EF5 
 351      8E43CB3B 
 351      FF94AEED 
 352 06be 5C64AE48 		.ascii	"\\d\256H\305\270B\"&\345\274\016*\231I\235\305\333%"
 352      C5B84222 
 352      26E5BC0E 
 352      2A99499D 
 352      C5DB25
 353 06d1 E127AC74 		.ascii	"\341'\254tqr\2124yR\353\211\257Z\357W\346\200o \027"
 353      71728A34 
 353      7952EB89 
 353      AF5AEF57 
 353      E6806F20 
 354 06e6 372D03BA 		.ascii	"7-\003\2725-\273\245\011g\015\024\354y'\007\230\331"
 354      352DBBA5 
 354      09670D14 
 354      EC792707 
 354      98D9
 355 06f8 441BC0B6 		.ascii	"D\033\300\266\261`\257X\006\323R\266\235\005\233\311"
 355      B160AF58 
 355      06D352B6 
 355      9D059BC9 
 356 0708 036636D5 		.ascii	"\003f6\325\005\260f\026l\256e0\226\262\011\221\226\246"
 356      05B06616 
 356      6CAE6530 
 356      96B20991 
 356      96A6
 357 071a DDA25C9D 		.ascii	"\335\242\\\235~\253P-\313\023\344Z\247\231\346\011\002"
 357      7EAB502D 
 357      CB13E45A 
 357      A799E609 
 357      02
 358 072b DE22C7BD 		.ascii	"\336\"\307\275\305'n\222n\325v\315\203/w%]\223\344'"
 358      C5276E92 
 358      6ED576CD 
 358      832F7725 
 358      5D93E427 
 359 073f B6C58794 		.ascii	"\266\305\207\224\256\011\367!s\257#s\244l2\246J\216"
 359      AE09F721 
 359      73AF2373 
 359      A46C32A6 
 359      4A8E
 360 0751 1C6F4A93 		.ascii	"\034oJ\223\247\244\253\343\322c+\342\020^\257\267)\207"
 360      A7A4ABE3 
 360      D2632BE2 
 360      105EAFB7 
 360      2987
 361 0763 9B2437CD 		.ascii	"\233$7\315NL\367\321\246\005\275\345\332\035\"\377R"
 361      4E4CF7D1 
 361      A605BDE5 
ARM GAS  /tmp/cc5qhUpO.s 			page 28


 361      DA1D22FF 
 361      52
 362 0774 55DDD90B 		.ascii	"U\335\331\013;\305\211\330\203#\310\352B\247\2411\340"
 362      3BC589D8 
 362      8323C8EA 
 362      42A7A131 
 362      E0
 363 0785 806A3B77 		.ascii	"\200j;wa\226b\014>D\250eN\2751\260\272\356e\351fIx\027"
 363      6196620C 
 363      3E44A865 
 363      4EBD31B0 
 363      BAEE65E9 
 364 079d 2BAC97F8 		.ascii	"+\254\227\370\027\3114\342\003C\360\355\003\312\"\031"
 364      17C934E2 
 364      0343F0ED 
 364      03CA2219 
 365 07ad 15469D65 		.ascii	"\025F\235e\300\356\272\206\221\204\255\311\352\016\303"
 365      C0EEBA86 
 365      9184ADC9 
 365      EA0EC3
 366 07bc 3AE5DA27 		.ascii	":\345\332'n\221\310\314w\233t/[A=O\3173[\027"
 366      6E91C8CC 
 366      779B742F 
 366      5B413D4F 
 366      CF335B17 
 367 07d0 826E7C81 		.ascii	"\202n|\201\355\306\037X\006sk\300.\262`\015<`ns\312"
 367      EDC61F58 
 367      06736BC0 
 367      2EB2600D 
 367      3C606E73 
 368 07e5 7E64C13E 		.ascii	"~d\301>\261\014\246\245\3542\013\266\237\007\314h]\310"
 368      B10CA6A5 
 368      EC320BB6 
 368      9F07CC68 
 368      5DC8
 369 07f7 E8C33A02 		.ascii	"\350\303:\002>q\011\216\273K\261\245\336\302x\015\306"
 369      3E71098E 
 369      BB4BB1A5 
 369      DEC2780D 
 369      C6
 370 0808 6B315E87 		.ascii	"k1^\207\361\006\2147b\334\204\361\036\214\367a\274\237"
 370      F1068C37 
 370      62DC84F1 
 370      1E8CF761 
 370      BC9F
 371 081a 6DDF385E 		.ascii	"m\3378^\333\225\352\276\304\244-D\257\355\220\256\263"
 371      DB95EABE 
 371      C4A42D44 
 371      AFED90AE 
 371      B3
 372 082b E9BCB61A 		.ascii	"\351\274\266\032\023V\011\365\207\342xm\207\364^[\253"
 372      135609F5 
 372      87E2786D 
 372      87F45E5B 
 372      AB
 373 083c D3AAD7C6 		.ascii	"\323\252\327\3064\003\372\354?~&N\232$\257\350\247v"
 373      3403FAEC 
ARM GAS  /tmp/cc5qhUpO.s 			page 29


 373      3F7E264E 
 373      9A24AFE8 
 373      A776
 374 084e B26FF488 		.ascii	"\262o\364\210\026W\242\217\274\236\336\374\224\012v"
 374      1657A28F 
 374      BC9EDEFC 
 374      940A76
 375 085d DE3298BE 		.ascii	"\3362\230\276\307\252\3558\023\333q\026\266\310\002"
 375      C7AAED38 
 375      13DB7116 
 375      B6C802
 376 086c 8C0F637C 		.ascii	"\214\017c|T\333\373\332:\0319\352\3563x\261y\201\220"
 376      54DBFBDA 
 376      3A1939EA 
 376      EE3378B1 
 376      798190
 377 087f 18D1AC91 		.ascii	"\030\321\254\221\246I\321\325\001I\270\356\324M\234"
 377      A649D1D5 
 377      0149B8EE 
 377      D44D9C
 378 088e AC3542A4 		.ascii	"\2545B\244\346\004\364\205D~s\255]E\312\212\352\\\353"
 378      E604F485 
 378      447E73AD 
 378      5D45CA8A 
 378      EA5CEB
 379 08a1 EC6B91DE 		.ascii	"\354k\221\336[\300\005\365\211-\3507ou%\364\233\265"
 379      5BC005F5 
 379      892DE837 
 379      6F7525F4 
 379      9BB5
 380 08b3 3892F011 		.ascii	"8\222\360\021\0269\251\033\347Z\353o\266\376j\036\""
 380      1639A91B 
 380      E75AEB6F 
 380      B6FE6A1E 
 380      22
 381 08c4 9FE41AEB 		.ascii	"\237\344\032\353\256\033-7P\262\314dxZ\257\314\223R"
 381      AE1B2D37 
 381      50B2CC64 
 381      785AAFCC 
 381      9352
 382 08d6 5452929B 		.ascii	"TR\222\233\202\334\334\2116\3454\366\300)\226\301\264"
 382      82DCDC89 
 382      36E534F6 
 382      C02996C1 
 382      B4
 383 08e7 8D32B361 		.ascii	"\2152\263a\201\305\035\225\203K\316\364\251G\221\235"
 383      81C51D95 
 383      834BCEF4 
 383      A947919D 
 384 08f7 43E5FF3C 		.ascii	"C\345\377<E\257\213\304}\321\350\"\217?}\222\207\021"
 384      45AF8BC4 
 384      7DD1E822 
 384      8F3F7D92 
 384      8711
 385 0909 D30E495A 		.ascii	"\323\016IZ\262\271\357\346u\262\374\222S\365xL]5I8\203"
 385      B2B9EFE6 
 385      75B2FC92 
ARM GAS  /tmp/cc5qhUpO.s 			page 30


 385      53F5784C 
 385      5D354938 
 386 091e 955DD06B 		.ascii	"\225]\320k\303\301\345\373\357\247\332p\201K\033\336"
 386      C3C1E5FB 
 386      EFA7DA70 
 386      814B1BDE 
 387 092e 6B9ACB35 		.ascii	"k\232\3135\031\254u\252\325\027a\365\253SI\365\227\364"
 387      19AC75AA 
 387      D51761F5 
 387      AB5349F5 
 387      97F4
 388 0940 D5B7AC3E 		.ascii	"\325\267\254>\363gZ\375%\256\352[\366\3152RF\223\371"
 388      F3675AFD 
 388      25AEEA5B 
 388      F6CD3252 
 388      4693F9
 389 0953 BADA7CCB 		.ascii	"\272\332|\313\333\356[\204\225\\E\005\272\224\252o\276"
 389      DBEE5B84 
 389      955C4505 
 389      BA94AA6F 
 389      BE
 390 0964 47D3D8BA 		.ascii	"G\323\330\272\360\273F\177oF\251OJ\177\201\315\035\217"
 390      F0BB467F 
 390      6F46A94F 
 390      4A7F81CD 
 390      1D8F
 391 0976 AEC49652 		.ascii	"\256\304\226Ri\230\330\305*\242V\211/\356\303\036A\301"
 391      6998D8C5 
 391      2AA25689 
 391      2FEEC31E 
 391      41C1
 392 0988 AA78C0E2 		.ascii	"\252x\300\342X\366\037Y\260)\226\301\264\224]f\301\246"
 392      58F61F59 
 392      B02996C1 
 392      B4945D66 
 392      C1A6
 393 099a F180C5D9 		.ascii	"\361\200\305\331\345\373\211\005\253\266\014\246\245"
 393      E5FB8905 
 393      ABB60CA6 
 393      A5
 394 09a7 EC1A0B36 		.ascii	"\354\032\0136\207\007,\316.\337\317,\330|\313`Z\312"
 394      87072CCE 
 394      2EDFCF2C 
 394      D87CCB60 
 394      5ACA
 395 09b9 6EB26035 		.ascii	"n\262`5<`ns\312\246\037`\300\226X\006\323RV\315\202"
 395      3C606E73 
 395      CAA61F60 
 395      C0965806 
 395      D35256CD 
 396 09ce 2DE3018B 		.ascii	"-\343\001\213\263\3137\213\005[e\031LK\331\034\026l"
 396      B3CB378B 
 396      055B6519 
 396      4C4BD91C 
 396      166C
 397 09e0 0D0F98D1 		.ascii	"\015\017\230\321^\233\272\001\314\202\255\263\014\246"
 397      5E9BBA01 
ARM GAS  /tmp/cc5qhUpO.s 			page 31


 397      CC82ADB3 
 397      0CA6
 398 09ee A56C3E0B 		.ascii	"\245l>\013\266\221\007\354\021s\312\026\260`[,\203i"
 398      B69107EC 
 398      1173CA16 
 398      B0605B2C 
 398      8369
 399 0a00 295BCB82 		.ascii	")[\313\202m\347\001{\314\234\262u,\330\016\313`Z\312"
 399      6DE7017B 
 399      CC9CB275 
 399      2CD80ECB 
 399      605ACA
 400 0a13 36B0601F 		.ascii	"6\260`\037\361\200\0155\247l#\013\326`\031LK\331&\026"
 400      F1800D35 
 400      A76C230B 
 400      D660194C 
 400      4BD92616 
 401 0a27 6C370F58 		.ascii	"l7\017X\2369e[X\260=\226\301\264\224mc\301\232y\300"
 401      9E39655B 
 401      58B03D96 
 401      C1B4946D 
 401      63C19A79 
 402 0a3c FE664ED9 		.ascii	"\376fN\331v\026\354S\313`Z\312\232Y\260#<`O\031P\026"
 402      7616EC53 
 402      CB605ACA 
 402      9A59B023 
 402      3C604F19 
 403 0a52 FD98F999 		.ascii	"\375\230\371\231?\262\276\372\261.\252\203cq\214\026"
 403      3FB2BEFA 
 403      B12EAA83 
 403      63718C16 
 404 0a62 62182D5D 		.ascii	"b\030-]\254zd\032\276\211o\335w\2132\316Sg\365\024\017"
 404      AC7A641A 
 404      BE896FDD 
 404      778B32CE 
 404      5367F514 
 405 0a77 629C0150 		.ascii	"b\234\001P9LB\301\316[\006\323\251r\203~:\022=\261\027"
 405      394C42C1 
 405      CE5B06D3 
 405      A972837E 
 405      3A123DB1 
 406 0a8c 31DD3783 		.ascii	"1\3357\203\251<\2366X\252;\202gzB\265S3m\2601\315t\211"
 406      A93C9E36 
 406      58AA3B82 
 406      677A42B5 
 406      53336DB0 
 407 0aa4 878738E3 		.ascii	"\207\2078\343nK\303\002\334:\344?kxp\311~\305{\337d"
 407      6E4BC302 
 407      DC3AE43F 
 407      6B7870C9 
 407      7EC57BDF 
 408 0ab9 23DEFBCF 		.ascii	"#\336\373\317]\014W\3368\220\352\3166\327)\213x[\021"
 408      5D0C57DE 
 408      3890EACE 
 408      36D7298B 
 408      785B11
 409 0acc EAF9B464 		.ascii	"\352\371\264d\241\332\316\265NR\026\361\266#\324+:("
ARM GAS  /tmp/cc5qhUpO.s 			page 32


 409      A1DACEB5 
 409      4E5216F1 
 409      B623D42B 
 409      3A28
 410 0ade CB4720FF 		.ascii	"\313G \377Y\367J\302\3344]\223\031m\037\232{7\320+\216"
 410      59F74AC2 
 410      DC345D93 
 410      196D1F9A 
 410      7B37D02B 
 411 0af3 DCB3798D 		.ascii	"\334\263y\215,OrZi\264]J\243}\210\342Y\324I<[\365\213"
 411      2C4F725A 
 411      69B45D4A 
 411      A37D88E2 
 411      59D4493C 
 412 0b0a 9C09F958 		.ascii	"\234\011\371Xn\231\217\373t|D\356\263\316\307Q\205\217"
 412      6E998FFB 
 412      747C44EE 
 412      B3CEC751 
 412      858F
 413 0b1c 46E4E39D 		.ascii	"F\344\343\235\177\000\037\357Y\346\203=\243\210\363"
 413      7F001FEF 
 413      59E6833D 
 413      A388F3
 414 0b2b C607E8BC 		.ascii	"\306\007\350\274\221k\211\177\217M\267\304\177t\267"
 414      916B897F 
 414      8F4DB7C4 
 414      7F74B7
 415 0b3a E8A6D989 		.ascii	"\350\246\331\211&lr\344\312nf\262-\363M\266\333\024"
 415      266C72E4 
 415      CA6E66B2 
 415      2DF34DB6 
 415      DB14
 416 0b4c 8935A3C4 		.ascii	"\2115\243\304\266\033\3651.\244\272\263\215\275W#\322"
 416      B61BF531 
 416      2EA4BAB3 
 416      8DBD5723 
 416      D2
 417 0b5d 4144FA28 		.ascii	"AD\372(i\244\266s?U)\275\3653\204\372\244S3:u\255\350"
 417      69A4B673 
 417      3F5529BD 
 417      F53384FA 
 417      A453333A 
 418 0b74 D4B6227C 		.ascii	"\324\266\"|%u\375D&\377\342\337\225\034\362\305%\374"
 418      2575FD44 
 418      26FFE2DF 
 418      951CF2C5 
 418      25FC
 419 0b86 7F2F2709 		.ascii	"\177/'\011\237!\371\244\005-\216\2251\015\372\367\315"
 419      9F21F9A4 
 419      052D8E95 
 419      310DFAF7 
 419      CD
 420 0b97 CA38475B 		.ascii	"\3128G[\351\370/B\234\030Y\377\362Be'\350Q2\322\235"
 420      E9F82F42 
 420      9C1859FF 
 420      F2426527 
 420      E85132D2 
ARM GAS  /tmp/cc5qhUpO.s 			page 33


 421 0bac FE8570FB 		.ascii	"\376\205p\373\233\254\257\361\354\270\223\252]\0132"
 421      9BACAFF1 
 421      ECB893AA 
 421      5D0B32
 422 0bbb 74BE530B 		.ascii	"t\276S\013'\265\306s5YF\242\037I\220\3239\206Lw\274"
 422      27B5C673 
 422      355946A2 
 422      1F4990D3 
 422      39864C77 
 423 0bd0 D6FAE901 		.ascii	"\326\372\351\001\316u\242\350\352\343\267\275\033Q\030"
 423      CE75A2E8 
 423      EAE3B7BD 
 423      1B5118
 424 0bdf A76C64F5 		.ascii	"\247ld\365qr\272\341\352c\274\365\246\231X\344[[\247"
 424      7172BAE1 
 424      EA63BCF5 
 424      A69958E4 
 424      5B5BA7
 425 0bf2 D5C7E63E 		.ascii	"\325\307\346>t\301\207\374\304\261\336T\245\352\005"
 425      74C187FC 
 425      C4B1DE54 
 425      A5EA05
 426 0c01 5D54FC46 		.ascii	"]T\374F\222\024\330d\345\251i\302\030}>\361\254\215"
 426      9214D864 
 426      E5A969C2 
 426      187D3EF1 
 426      AC8D
 427 0c13 B839E76C 		.ascii	"\2709\347l\232e\347\245\226e\357fe\037\271\336\264@"
 427      9A65E7A5 
 427      9665EF66 
 427      651FB9DE 
 427      B440
 428 0c25 24F41B2C 		.ascii	"$\364\033,\221=\306:\224Q\301\267\366\331\205\342\371"
 428      913DC63A 
 428      9451C1B7 
 428      F6D985E2 
 428      F9
 429 0c36 1E05FFB6 		.ascii	"\036\005\377\266\211\340\0373\303\221\204z,\322\326"
 429      89E01F33 
 429      C391847A 
 429      2CD2D6
 430 0c45 59F08D77 		.ascii	"Y\360\215wR\301\267q\011\376\220\241\340\333\254\013"
 430      52C1B771 
 430      09FE90A1 
 430      E0DBAC0B 
 431 0c55 3EFA9C40 		.ascii	">\372\234@\324\221\365\211g,\203\271\343\265b\033\323"
 431      D491F589 
 431      672C83B9 
 431      E3B5621B 
 431      D3
 432 0c66 8AEDD88A 		.ascii	"\212\355\330\212?\332\310\202\377%m[\356\325\267\245"
 432      3FDAC882 
 432      FF256D5B 
 432      EED5B7A5 
 433 0c76 46724AD2 		.ascii	"FrJ\322t\371B\216\314\334\253\356VS\233w\224G7\342,"
 433      74F9428E 
 433      CCDCABEE 
ARM GAS  /tmp/cc5qhUpO.s 			page 34


 433      56539B77 
 433      944737E2 
 434 0c8b 3AD4EC45 		.ascii	":\324\354E\221P{\323b\031\314\255\001\253\237\306y*"
 434      91507BD3 
 434      6219CCAD 
 434      01AB9FC6 
 434      792A
 435 0c9d 307AF2B2 		.ascii	"0z\362\262;\012\345,\326{C\257.\373\277\331\377\202"
 435      3B0AE52C 
 435      D67B43AF 
 435      2EFBBFD9 
 435      FF82
 436 0caf 380147BC 		.ascii	"8\001G\274\033\034\372\002\003\375\251T\271:]\325\333"
 436      1B1CFA02 
 436      03FDA954 
 436      B93A5DD5 
 436      DB
 437 0cc0 376E5151 		.ascii	"7nQQ\343\210:\216\266\\?\263KD8:\361yK\017\227p^\246"
 437      E3883A8E 
 437      B65C3FB3 
 437      4B44383A 
 437      F1794B0F 
 438 0cd8 85BBE937 		.ascii	"\205\273\3517>\272f.\030\365\340\332f\342\352T\331\011"
 438      3EBA662E 
 438      18F5E0DA 
 438      66E2EA54 
 438      D909
 439 0cea 4F1B6ED1 		.ascii	"O\033n\321\217\010T2\214\"\336`\024\261\003\025Q\266"
 439      8F085432 
 439      8C22DE60 
 439      14B10315 
 439      51B6
 440 0cfc 13459C88 		.ascii	"\023E\234\210\361d;\307\376\323\363vf\262\264\3152\337"
 440      F1643BC7 
 440      FED3F376 
 440      66B2B4CD 
 440      32DF
 441 0d0e 6E5DEB98 		.ascii	"n]\353\230U\3633;'\373\360\026\016\3353_\243\"F\375"
 441      55F3333B 
 441      27FBF016 
 441      0EDD335F 
 441      A32246FD 
 442 0d22 8FAA3B40 		.ascii	"\217\252;@wH\366XF\324js\3334\215;p\204\007\3561\003"
 442      7748F658 
 442      46D46A73 
 442      DB348D3B 
 442      708407EE 
 443 0d38 028D3EEC 		.ascii	"\002\215>\354\236\230O\374\032\267\037O\341\006\341"
 443      9E984FFC 
 443      1AB71F4F 
 443      E106E1
 444 0d47 B7189FC5 		.ascii	"\267\030\237\305\370\007\214\337A;\362.\306\3531~\017"
 444      F8078CDF 
 444      413BF22E 
 444      C6EB317E 
 444      0F
 445 0d58 E30F306E 		.ascii	"\343\0170n\300\370\023\214\277\306\370<\306W0\276\212"
ARM GAS  /tmp/cc5qhUpO.s 			page 35


 445      C0F8138C 
 445      BFC6F83C 
 445      C65730BE 
 445      8A
 446 0d69 F1758C5F 		.ascii	"\361u\214_F\005x%\221\002(\243\300\214\037\216\366}"
 446      46057825 
 446      910228A3 
 446      C08C1F8E 
 446      F67D
 447 0d7b 0B6DF509 		.ascii	"\013m\365\011T\377y]\365\232wZ\322\355Xt\332r[\335\225"
 447      54FF795D 
 447      F59A775A 
 447      D2ED5874 
 447      DA725BDD 
 448 0d90 63EB32CE 		.ascii	"c\3532\316\346R\373g{\017\2133e\271\261\037\325\177"
 448      E652FB67 
 448      7B0F8B33 
 448      65B9B11F 
 448      D57F
 449 0da2 9F78D326 		.ascii	"\237x\323&i\021\265=&\2166*\215z\274f\021\337\336Q\364"
 449      6911B53D 
 449      268E362A 
 449      8D7ABC66 
 449      11DFDE51 
 450 0db7 00E06F63 		.ascii	"\000\340oc29\324~\364\177\250\007>\033{\343\367:\231"
 450      3239D47E 
 450      F47FA807 
 450      3E1B7BE3 
 450      F73A99
 451 0dca 24C42152 		.ascii	"$\304!R\232g\327\035\372i;\201\007\011I~\342\203\204"
 451      9A67D71D 
 451      FA693B81 
 451      0709497E 
 451      E28384
 452 0ddd 974ECC52 		.ascii	"\227N\314R\224\222\036n\270\206$\220\262I\014\211\344"
 452      94921E6E 
 452      B8862490 
 452      B2490C89 
 452      E4
 453 0dee A4C409E6 		.ascii	"\244\304\011\346\244\304M\313`n\015\330O,\330\304n\034"
 453      A4C44DCB 
 453      606E0DD8 
 453      4F2CD8C4 
 453      6E1C
 454 0e00 6071CEC2 		.ascii	"`q\316\302]c\301\236\267\014\246\245\354g\026\354E\036"
 454      5D63C19E 
 454      B70CA6A5 
 454      EC6716EC 
 454      451E
 455 0e12 B03867E1 		.ascii	"\2608g\341n\262`\323,\203i)\233\336\302\200\315\346"
 455      6EB260D3 
 455      2C836929 
 455      9BDEC280 
 455      CDE6
 456 0e24 018B73BC 		.ascii	"\001\213s\274\247\232\005[`\031LK\331,\026\354\015\036"
 456      A79A055B 
 456      60194C4B 
ARM GAS  /tmp/cc5qhUpO.s 			page 36


 456      D92C16EC 
 456      0D1E
 457 0e36 30B70165 		.ascii	"0\267\001eF\037\266\023\370\304\327\354\304\372\315"
 457      461FB613 
 457      F8C4D7EC 
 457      C4FACD
 458 0e45 47EBB400 		.ascii	"G\353\264\000\343\032\214k1^\202\361\033\030/\303x\005"
 458      E31A8C6B 
 458      315E82F1 
 458      1B182FC3 
 458      7805
 459 0e57 C6AB7806 		.ascii	"\306\253x\006\262Y\354@\266\252\033\2075\212\263\204"
 459      B259EC40 
 459      B6AA1B87 
 459      358AB384 
 460 0e67 D43EE7F8 		.ascii	"\324>\347\370/:\201\336Z\177}\327\237\210\371H|\012"
 460      2F3A81DE 
 460      5A7F7DD7 
 460      9F88F948 
 460      7C0A
 461 0e79 7DAD9DEF 		.ascii	"}\255\235\357\024\372:\275-\271\264\227>1\235\330\226"
 461      14FA3ABD 
 461      2DB9B497 
 461      3E319DD8 
 461      96
 462 0e8a 802DBCC2 		.ascii	"\200-\274\302\351\256EDV:Q[\270\353\317\324\026nD[x"
 462      E9AE4544 
 462      563A515B 
 462      B8EBCFD4 
 462      166E445B 
 463 0e9f A95B425B 		.ascii	"\251[B[\250\305!\364m\326\323\277~\037\322\277\231\313"
 463      A8C521F4 
 463      6DD6D3BF 
 463      7E1FD2BF 
 463      99CB
 464 0eb1 16BEB74F 		.ascii	"\026\276\267Ok\013_\354.*\230\311\331\302M\373\030\205"
 464      6B0B5FEC 
 464      2E2A98C9 
 464      D9C24DFB 
 464      1885
 465 0ec3 7FD93298 		.ascii	"\177\3312\230[\003\266\205\005\233\316\003\026\357\\"
 465      5B03B685 
 465      059BCE03 
 465      16EF5C
 466 0ed2 300B36CB 		.ascii	"0\0136\3132\230\226\262\355,\330k<`\361\316\005\263"
 466      329896B2 
 466      ED2CD86B 
 466      3C60F1CE 
 466      05B3
 467 0ee4 603596C1 		.ascii	"`5\226\301\334F\315+t\322\016\237\270\005\215\304V\354"
 467      DC46CD2B 
 467      74D20E9F 
 467      B8058DC4 
 467      56EC
 468 0ef6 FAF518BF 		.ascii	"\372\365\030\277\217\361\016\214?\304\370c\036\223P"
 468      8FF10E8C 
 468      3FC4F863 
ARM GAS  /tmp/cc5qhUpO.s 			page 37


 468      1E9350
 469 0f05 C79A8425 		.ascii	"\307\232\204%H\360\272\3444\2068\235\327\277\374\017"
 469      48F0BAE4 
 469      3486389D 
 469      D7BFFC0F 
 470 0f15 BAD7A23B 		.ascii	"\272\327\242;\014B\344aF\301.\226\202\225\226)p\263"
 470      0C42E461 
 470      46C12E96 
 470      82959629 
 470      70B3
 471 0f27 1444AEEF 		.ascii	"\024D\256\357\245[\021\352n\300\032=\236\321\272l\274"
 471      A55B11EA 
 471      6EC01A3D 
 471      9ED1BA6C 
 471      BC
 472 0f38 59CA5E7C 		.ascii	"Y\312^|\224\236\202\325Y\006\323\276~`\372>\006\354"
 472      949E82D5 
 472      5906D3BE 
 472      7E60FA3E 
 472      06EC
 473 0f4a 7DCB6066 		.ascii	"}\313`f\247\365\326\243.l\3006o\304\270\011\343=\030"
 473      A7F5D6A3 
 473      2E6CC036 
 473      6FC4B809 
 473      E33D18
 474 0f5d EF63B540 		.ascii	"\357c\265@\022vv\327\373\255\32482\2501+*\360\342\232"
 474      127676D7 
 474      FBADD438 
 474      32A8312B 
 474      2AF0E29A 
 475 0f71 B5ED1AB6 		.ascii	"\265\355\032\266m\217v\347\030p\334\346\332\325>\247"
 475      6D8F76E7 
 475      1870DCE6 
 475      DAD53EA7 
 476 0f81 45197028 		.ascii	"E\031p(0L\320-#j\265evK\215\346\254\373)\036\2748\207"
 476      304CD02D 
 476      236AB565 
 476      764B8DE6 
 476      ACFB291E 
 477 0f98 29165017 		.ascii	")\026P\027\201\202\375`"
 477      8182FD60 
 478 0fa0 19CC2D98 		.ascii	"\031\314-\230~\330\247\373`\002\203\273\177?\343\263"
 478      7ED8A7FB 
 478      600283BB 
 478      7F3FE3B3 
 479 0fb0 C0AFE0A4 		.ascii	"\300\257\340\244\3508\306\325\330231~\033\343\203\030"
 479      E838C6D5 
 479      D8323331 
 479      7E1BE383 
 479      18
 480 0fc1 1FC2F830 		.ascii	"\037\302\3700O\213]\026\231\026\273\212,\264[8k\251"
 480      4F8B5D16 
 480      9916BB8A 
 480      2CB45B38 
 480      6BA9
 481 0fd3 6DB1B603 		.ascii	"m\261\266\003\207\027\253-6\015\247M7-#j[\3542]\262"
 481      8717AB2D 
ARM GAS  /tmp/cc5qhUpO.s 			page 38


 481      360DA74D 
 481      372D236A 
 481      5BEC325D 
 482 0fe8 A260937B 		.ascii	"\242`\223{p\200\031unc\011\2673\022\376\021%|\011%\374"
 482      70801975 
 482      6E6309B7 
 482      3312FE11 
 482      257C0925 
 483 0ffd 394AEF   		.ascii	"9J\357"
 484 1000 0B1EE9FD 		.ascii	"\013\036\351\375\020\223\036\3772w\313WG\376\262\212"
 484      10931EFF 
 484      3277CB57 
 484      47FEB28A 
 485 1010 4E2DF1D9 		.ascii	"N-\361\331\304)=\376\001\313\334)\302\013\364\351Ky"
 485      C4293DFE 
 485      01CBDC29 
 485      C20BF4E9 
 485      4B79
 486 1022 82F80C63 		.ascii	"\202\370\014c\217\030\033\303\276\035\351K{\012Y \356"
 486      8F181BC3 
 486      BE1DE94B 
 486      7B0A5920 
 486      EE
 487 1033 A1DD8864 		.ascii	"\241\335\210dj$7\250\234\323\264\232\202\"\367\0105"
 487      6A2437A8 
 487      9CD3B49A 
 487      8222F708 
 487      35
 488 1044 72E4426B 		.ascii	"r\344Bk\373\252\263\275W\023\363/\337\354\370\373\204"
 488      FBAAB3BD 
 488      5713F32F 
 488      DFECF8FB 
 488      84
 489 1055 89A2EE09 		.ascii	"\211\242\356\011>{\234\007\307\355\232'\370\014\035"
 489      3E7B9C07 
 489      C7ED9A27 
 489      F80C1D
 490 1064 CA440BE4 		.ascii	"\312D\013\344[\327\\\354C=\260o\321\003{\276\247\305"
 490      5BD75CEC 
 490      433DB06F 
 490      D1037BBE 
 490      A7C5
 491 1076 05727CD6 		.ascii	"\005r|\326Z\357\201\325\321\307\200\317qy\220\233w\276"
 491      5AEF81D5 
 491      D1C780CF 
 491      7179909B 
 491      77BE
 492 1088 65EA41EA 		.ascii	"e\352A\352\034b\375\232\337|\2406\341\012\230O\274`"
 492      1C62FD9A 
 492      DF7CA036 
 492      E10A984F 
 492      BC60
 493 109a C7555A3D 		.ascii	"\307UZ=\2253\253\220\3126.*g\357\304\205<\363\207-\371"
 493      9533AB90 
 493      CA362E2A 
 493      67EFC485 
 493      3CF3872D 
ARM GAS  /tmp/cc5qhUpO.s 			page 39


 494 10af 55F7D0FA 		.ascii	"U\367\320\372\223\177|\007U\3672\252\356\251\236z\325"
 494      937F7C07 
 494      55F732AA 
 494      EEA99E7A 
 494      D5
 495 10c0 75E834D7 		.ascii	"u\3504\327\241\325\\Gj,\241h\256Y\323\\\262\353\236"
 495      A1D55C47 
 495      6A2CA168 
 495      AE59D35C 
 495      B2EB9E
 496 10d3 F27C34CD 		.ascii	"\362|4\315P_\270\316Ol\303\225\300\004\333\272f\224"
 496      505FB8CE 
 496      4F6CC395 
 496      C004DBBA 
 496      6694
 497 10e5 5CB7B32B 		.ascii	"\\\267\263+=\261\247N\361!d!\341\203\247xL\206\035\030"
 497      3DB1A74E 
 497      F1216421 
 497      E183A778 
 497      4C861D18 
 498 10f9 BF43A9B5 		.ascii	"\277C\251\265%\355vm]s\240w\347\211\230\256\367]\216"
 498      25ED766D 
 498      5D73A077 
 498      E78998AE 
 498      F75D8E
 499 110c D3FD2638 		.ascii	"\323\375&8\370DK}\0273\224\311\216_,\026\331\301\210"
 499      F8444B7D 
 499      173394C9 
 499      8E5F2C16 
 499      D9C188
 500 111f E5A265B1 		.ascii	"\345\242e\261\270Y\261\310`\211R\235\361D\322\034\207"
 500      B859B1C8 
 500      6089529D 
 500      F144D21C 
 500      87
 501 1130 9997CC45 		.ascii	"\231\227\314E\022=\037\300\305\322\213,KWxX2wG\177\031"
 501      123D1FC0 
 501      C5D28B2C 
 501      4B577858 
 501      3277477F 
 502 1145 4BAF1AB0 		.ascii	"K\257\032\260\304\305\3024\207n!\363\272e6\334\202\366"
 502      C4C5C234 
 502      876E21F3 
 502      BA6536DC 
 502      82F6
 503 1157 13F32FDB 		.ascii	"\023\363/\333qt\355\300\370\005\007z4\016\216\221\366"
 503      7174EDC0 
 503      F805077A 
 503      340E8E91 
 503      F6
 504 1168 7BB60375 		.ascii	"{\266\003u =\347\254w \243\017;\010\370\304\357\320"
 504      203DE7AC 
 504      7720A30F 
 504      3B08F8C4 
 504      EFD0
 505 117a B93ECF33 		.ascii	"\271>\3173\370\177\023#)*b\346\234\025%u\322\255Z\013"
 505      F87F1323 
ARM GAS  /tmp/cc5qhUpO.s 			page 40


 505      292A62E6 
 505      9C152575 
 505      D2AD5A0B 
 506 118e F95B61A9 		.ascii	"\371[a\251,W\343\320y\226\264.\205\221\204\251x\337"
 506      2C57E3D0 
 506      7996B42E 
 506      859184A9 
 506      78DF
 507 11a0 D7F67B0C 		.ascii	"\327\366{\014\253S*\243\205\345\271\340\024\211\264"
 507      AB532AA3 
 507      85E5B9E0 
 507      1489B4
 508 11af 2E985B27 		.ascii	".\230['(\250P\364;\341M\2427\207\277\316\033\252\274"
 508      28A850F4 
 508      3BE14DA2 
 508      3787BFCE 
 508      1BAABC
 509 11c2 3DC1BC90 		.ascii	"=\301\274\220\302\337,\207\346\235\235d\320o\275\320"
 509      C2DF2C87 
 509      E69D9D64 
 509      D06FBDD0 
 510 11d2 7A74CBD9 		.ascii	"zt\313\331b\362\004\261\334\321\361w\375\210O\334\003"
 510      62F204B1 
 510      DCD1F177 
 510      FD884FDC 
 510      03
 511 11e3 3369BDEE 		.ascii	"3i\275\356H8\344k\026\216\243\257\274\030(0\357\375"
 511      4838E46B 
 511      168EA3AF 
 511      BC182830 
 511      EFFD
 512 11f5 F86800BE 		.ascii	"\370h\000\276\201\242\306AF\374\245\267\032\216\370"
 512      81A2C641 
 512      46FCA5B7 
 512      1A8EF8
 513 1204 E630F8FC 		.ascii	"\3460\370\374\232C7\226\036j\240\017\262;x\306\322\343"
 513      9A433796 
 513      1E6AA00F 
 513      B23B78C6 
 513      D2E3
 514 1216 2F98AF9F 		.ascii	"/\230\257\237\353G|\315\373\014%\341\355[\215G|\315"
 514      EB477CCD 
 514      FB0C25E1 
 514      ED5B8D47 
 514      7CCD
 515 1228 6D50BF83 		.ascii	"mP\277\203\214\370\313\365T\256\177\001\251\\\316Ee"
 515      8CF8CBF5 
 515      54AE7F01 
 515      A95CCE45 
 515      65
 516 1239 5D438211 		.ascii	"]C\202\021?~S\255N\326p\254bm\337\026l\035BpR\243\034"
 516      3F7E53AD 
 516      4ED670AC 
 516      626DDF16 
 516      6C1D4270 
 517 1250 B57D1413 		.ascii	"\265}\024\023\246\261\226\301\334\346`\007y\300\022"
 517      A6B196C1 
ARM GAS  /tmp/cc5qhUpO.s 			page 41


 517      DCE66007 
 517      79C012
 518 125f 596515EC 		.ascii	"Ye\025\354\230e0\003\312\222m\251\215\361F-e\026\021"
 518      98653003 
 518      CA926DA9 
 518      8DF1462D 
 518      651611
 519 1272 FDAE8CD7 		.ascii	"\375\256\214\327\372\337\271Z\266.\326\262>\261*\252"
 519      FADFB95A 
 519      B62ED6B2 
 519      3EB12AAA 
 520 1282 A2715836 		.ascii	"\242qX6?P\373\313X\256\267\302\262\342\271%\305\362"
 520      3F50FBCB 
 520      58AEB7C2 
 520      B2E2B925 
 520      C5F2
 521 1294 3696E59B 		.ascii	"6\226\345\233v\253,\307\321\277\323<*c~\376\366\227"
 521      76AB2CC7 
 521      D1BFD33C 
 521      2A637EFE 
 521      F697
 522 12a6 C96F27A7 		.ascii	"\311o'\247\357\227\360\230\213b\2237\276\177\321\205"
 522      EF97F098 
 522      8B629337 
 522      BE7FD185 
 523 12b6 367937DA 		.ascii	"6y7\332\344e\275,\236\226\301\343\215zkw\305\357\246"
 523      E465BD2C 
 523      9E96C1E3 
 523      8D7A6B77 
 523      C5EFA6
 524 12c9 B9896DDD 		.ascii	"\271\211m\335\3257\225c\012t\025f#\326\277'Y\253\023"
 524      D5379563 
 524      0A741566 
 524      23D6BF27 
 524      59AB13
 525 12dc B9E6278B 		.ascii	"\271\346'\213\027\024\353}\313Xn#BU\035\212q\351\023"
 525      1714EB7D 
 525      CB586E23 
 525      42551D8A 
 525      71E913
 526 12ef F73A889B 		.ascii	"\367:\210\233\261\017\375\237\375<\376\317.\215\263"
 526      B10FFD9F 
 526      FD3CFECF 
 526      2E8DB3
 527 12fe CDA5C01F 		.ascii	"\315\245\300\037\263\326\270\241\227U\235\323\363\022"
 527      B3D6B8A1 
 527      97559DD3 
 527      F312
 528 130c 73E15622 		.ascii	"s\341V\"\331k0^\213\361:\2147`\274\025\343\0170\376"
 528      D96B305E 
 528      8BF13A8C 
 528      3760BC15 
 528      E30F30FE 
 529 1320 8887B537 		.ascii	"\210\207\2657\330\216V\215\266eq\262\355\327\332v\340"
 529      D88E568D 
 529      B66571B2 
 529      EDD7DA76 
ARM GAS  /tmp/cc5qhUpO.s 			page 42


 529      E0
 530 1331 4A7F7C87 		.ascii	"J\177|\207,\377{\255@\203\351\373\270\0169\310{\255"
 530      2CFF7BAD 
 530      4083E9FB 
 530      B80E39C8 
 530      7BAD
 531 1343 9A751ACC 		.ascii	"\232u\032\314\371^\253#\016\335{\2556?\347\246\271q"
 531      F95EAB23 
 531      0EDD7BAD 
 531      363FE7A6 
 531      B971
 532 1355 745879F9 		.ascii	"tXy\371\324\261^\235\337ju\272\227\341[\255~\350e\370"
 532      D4B15E9D 
 532      DF6A75BA 
 532      97E15BAD 
 532      7EE865F8 
 533 1369 56AB6BBD 		.ascii	"V\253k\275\014\337j\365\322m\332\267Z)\331\257\307\262"
 533      0CDF6AF5 
 533      D26DDAB7 
 533      5A29D9AF 
 533      C7B2
 534 137b 1D4CF69B 		.ascii	"\035L\366\233\261l'\223\375n,\333\305d\327\307\262S"
 534      B16C2793 
 534      FD6E2CDB 
 534      C564D7C7 
 534      B253
 535 138d 9816897B 		.ascii	"\230\026\211{\316=&$\237x\024\273\300\347\016\3437f"
 535      CE3D2624 
 535      9F7814BB 
 535      C0E70EE3 
 535      3766
 536 139f F9C4A992 		.ascii	"\371\304\251\222N\023,\275\025WFM\230@^u\243\276\377"
 536      4E132CBD 
 536      1557464D 
 536      98405E75 
 536      A3BEFF
 537 13b2 8ECC6797 		.ascii	"\216\314g\227\3056&\264K-\244\306\363\016\313\357\277"
 537      C53626B4 
 537      4B2DA4C6 
 537      F30ECBEF 
 537      BF
 538 13c3 53963BA2 		.ascii	"S\226;\242\324(\211\330;(w\335&j\271H|b\203Uh\242y8"
 538      D42889D8 
 538      3B2877DD 
 538      266AB948 
 538      7C628355 
 539 13db 7210DA24 		.ascii	"r\020\332$a\017\027Z\242\241C\265o\373\365hF}-\316\362"
 539      610F175A 
 539      A2A143B5 
 539      6FFBF568 
 539      467D2DCE 
 540 13f0 F79517CC 		.ascii	"\367\225\027\3147P\343\355\007\303T\022\227[c\013\260"
 540      3750E3ED 
 540      07C35412 
 540      975B630B 
 540      B0
 541 1401 B8DE6375 		.ascii	"\270\336cu\361\365\022k7\276\320kKB^\334\032^:\032\324"
ARM GAS  /tmp/cc5qhUpO.s 			page 43


 541      F1F5126B 
 541      37BED06B 
 541      4B425EDC 
 541      1A5E3A1A 
 542 1416 8D24BA34 		.ascii	"\215$\2724\372\271^6F\332\307\377\346\320\305\214\355"
 542      FAB95E36 
 542      46DAC7FF 
 542      E6D0C58C 
 542      ED
 543 1427 5F828ABF 		.ascii	"_\202\212\277\024\015\344\247\030\177\207\361\005\214"
 543      140DE4A7 
 543      187F87F1 
 543      058C
 544 1435 2F62FC23 		.ascii	"/b\374#\306Wx\314\347BV\014\314\260 \011go3\234{\302"
 544      C65778CC 
 544      E742560C 
 544      CCB02009 
 544      676F339C 
 545 144b 0CEE3371 		.ascii	"\014\3563q\326$y(-+\0117\361\276\371\016\263)\244R\003"
 545      D6247928 
 545      2D2B0937 
 545      F1BEF90E 
 545      B329A452 
 546 1460 4E2127CA 		.ascii	"N!'\312\347\237\177\276\273\250.\012k\212\351l\"\376"
 546      E79F7FBE 
 546      BBA82E0A 
 546      6B8AE96C 
 546      22FE
 547 1472 7CB5F324 		.ascii	"|\265\363$rmk\244\032f\260\023Z;:\356\241\363B\230&"
 547      726D6BA4 
 547      1A66B013 
 547      5A3B3AEE 
 547      A1F34298 
 548 1487 DF6E44AA 		.ascii	"\337nD\252\274\310\257\020\011\256\034\016\0147\222"
 548      BCC8AF10 
 548      09AE1C0E 
 548      0C3792
 549 1496 23F2467C 		.ascii	"#\362F|\"ov&\262\2665\262\031_\373\014\252\321\361\250"
 549      226F7626 
 549      B2B635B2 
 549      195FFB0C 
 549      AAD1F1A8 
 550 14aa D079BD54 		.ascii	"\320y\275T\346{Z\251\361M\345i%\362\304\212$\274\246"
 550      E67B5AA9 
 550      F14DE569 
 550      25F2C48A 
 550      24BCA6
 551 14bd E3931FAA 		.ascii	"\343\223\037\252\355\334\221v\005\252\012\241juP>Q\320"
 551      EDDC9176 
 551      05AA0AA1 
 551      6A75503E 
 551      51D0
 552 14cf ADBD0ADA 		.ascii	"\255\275\012\332\345N\370*w(\037\372<\002\344\374]H"
 552      E54EF82A 
 552      77281FFA 
 552      3C02E4FC 
 552      5D48
ARM GAS  /tmp/cc5qhUpO.s 			page 44


 553 14e1 AA8C9932 		.ascii	"\252\214\2312NtZ\232\345\033\035\370\254]\337~Q\302"
 553      4E745A9A 
 553      E51B1DF8 
 553      AC5DDF7E 
 553      51C2
 554 14f3 F1F86527 		.ascii	"\361\370e'\361(7\335n\350Q\306;P\033\301\"\323\234\372"
 554      F12837DD 
 554      6EE851C6 
 554      3B501BC1 
 554      22D39CFA 
 555 1507 99FE536E 		.ascii	"\231\376Sn\232\233\330\253<Z\253x\225\254\362\221\242"
 555      9A9BD8AB 
 555      3C5AAB78 
 555      95ACF291 
 555      A2
 556 1518 C979959F 		.ascii	"\311y\225\237\027\021\257\222\354\265\301T6J\234E\257"
 556      1711AF92 
 556      ECB5C154 
 556      364A9C45 
 556      AF
 557 1529 525D82B8 		.ascii	"R]\202\270\320HI[\203pM<pqv\274[\276\335D\3767@\265"
 557      D048495B 
 557      83704D3C 
 557      707176BC 
 557      5BBEDD44 
 558 1541 7B07F570 		.ascii	"{\007\365p\011\267\251\265\324]\370\257y\375T\254/,"
 558      09B7A9B5 
 558      D45DF8AF 
 558      79FD54AC 
 558      2F2C
 559 1553 63DD67D4 		.ascii	"c\335g\324$\252j\306\332\323'Nw\022\033:\303\211\273"
 559      24AA6AC6 
 559      DAD3274E 
 559      77121B3A 
 559      C389BB
 560 1566 A018CFC2 		.ascii	"\240\030\317\302x\016\306\363\234\034vs\212\263\363"
 560      780EC6F3 
 560      9C1C7673 
 560      8AB3F3
 561 1575 F2DD42CD 		.ascii	"\362\335B\315\0249\341\301\240l\025\363\0103!z\355\312"
 561      1439E1C1 
 561      A06C15F3 
 561      0833217A 
 561      EDCA
 562 1587 81BEF429 		.ascii	"\201\276\364)\226\205\250\277\363\357H|2H\013\344\023"
 562      9685A8BF 
 562      F3EF487C 
 562      32480BE4 
 562      13
 563 1598 173989BE 		.ascii	"\0279\211\276\325\352\025\370*]\004\252\345R\341\033"
 563      D5EA15F8 
 563      2A5D04AA 
 563      E552E11B 
 564 15a8 0D6F24BB 		.ascii	"\015o$\273T\265\374\016\256\245\2527\221\312ez*\017"
 564      54B5FC0E 
 564      AEA5AA37 
 564      91CA657A 
ARM GAS  /tmp/cc5qhUpO.s 			page 45


 564      2A0F
 565 15ba 522A9771 		.ascii	"R*\227qQy\250A\351hd\207D\235g/K\266\243\251\376\215"
 565      5179A841 
 565      E9686487 
 565      449D672F 
 565      4BB6A3A9 
 566 15d0 8CBD96AE 		.ascii	"\214\275\226\256SX\001s\033\201\275\210`Sy\300\022/"
 566      53580173 
 566      1B81BD88 
 566      605379C0 
 566      122F
 567 15e2 1AD1B5F5 		.ascii	"\032\321\265\365\031\226\301\014(Kv_`\2153\361V\207"
 567      1996C10C 
 567      284B765F 
 567      608D33F1 
 567      5687
 568 15f4 F29D7F67 		.ascii	"\362\235\177gp\366\265\326e\312\360\264\016\207\247"
 568      70F6B5D6 
 568      65CAF0B4 
 568      0E87A7
 569 1603 F7EED00F 		.ascii	"\367\356\320\017OI\354j\013\234S\335\267\235\314Tw\007"
 569      4F49EC6A 
 569      0B9C53DD 
 569      B79DCC54 
 569      7707
 570 1615 AD39BE70 		.ascii	"\2559\276p\315\227\247H\007\276;\341\366Z<\001o\212"
 570      CD97A748 
 570      07BE3BE1 
 570      F65A3C01 
 570      6F8A
 571 1627 27E0754E 		.ascii	"'\340uN\376%\250\367X\266vZf\313\242\316\304\3331\334"
 571      FE25A8F7 
 571      58B6765A 
 571      66CBA2CE 
 571      C4DB31DC 
 572 163b 1E8F25FD 		.ascii	"\036\217%\375*\233\262\003\230\024\313\365,\313M<,\377"
 572      2A9BB203 
 572      9814CBF5 
 572      2CCB4D3C 
 572      2CFF
 573 164d 9285B278 		.ascii	"\222\205\262x,\357\214\307\262~-\365\227\260\3741\313"
 573      2CEF8CC7 
 573      B27E2DF5 
 573      97B0FC31 
 573      CB
 574 165e F201CB2C 		.ascii	"\362\001\313,\273\005\355'6\243Z\201\203\341J\214Wa"
 574      BB05ED27 
 574      36A35A81 
 574      83E14A8C 
 574      5761
 575 1670 BC1AE3B7 		.ascii	"\274\032\343\2670\336\210\3616\214?\342\0310\227:;\255"
 575      30DE88F1 
 575      368C3FE2 
 575      1930973A 
 575      3BAD
 576 1682 D3D42669 		.ascii	"\323\324&i\250\345\310M\362\036\004\336\243\036\027"
 576      A8E5C84D 
ARM GAS  /tmp/cc5qhUpO.s 			page 46


 576      F21E04DE 
 576      A31E17
 577 1691 6E5EEB83 		.ascii	"n^\353\203\036\341\036\034Q_\355m\361\244\207$\324`"
 577      1EE11E1C 
 577      515FED6D 
 577      F1A48724 
 577      D460
 578 16a3 9166FD50 		.ascii	"\221f\375P\365^\025\276\014\272\231k\250\332\314\371"
 578      F55E15BE 
 578      0CBA996B 
 578      A8DACCF9 
 579 16b3 D2F7DAA8 		.ascii	"\322\367\332\2507\332K\210=\305tC\004\347\363\020\322"
 579      37DA4B88 
 579      3DC57443 
 579      04E7F310 
 579      D2
 580 16c4 BFDA987E 		.ascii	"\277\332\230~s\014I\330\206E\216\350\351\277\344s\323"
 580      730C49D8 
 580      86458EE8 
 580      E9BFE473 
 580      D3
 581 16d5 DCC4D45F 		.ascii	"\334\304\324_Q\037\347\372\324\211nc\02409\217\366g"
 581      511FE7FA 
 581      D4896E63 
 581      1430398F 
 581      F667
 582 16e7 5C27A58F 		.ascii	"\\'\245\217\206\035\264\214\345\326`\315\330\251>\324"
 582      861DB48C 
 582      E5D660CD 
 582      D8A93ED4 
 583 16f7 A73C87C7 		.ascii	"\247<\207\307\203\027\307\245\235E\016\215Yy\354x\227"
 583      8317C7A5 
 583      9D450E8D 
 583      5979EC78 
 583      97
 584 1708 F2D8F149 		.ascii	"\362\330\361I\034\271\316\364\376\007\214\\\222p\331"
 584      1CB9CEF4 
 584      FE078C5C 
 584      9270D9
 585 1717 32171AA9 		.ascii	"2\027\032\251\264\266\335<\331[}\242\213\022\326\301"
 585      B4B6DD3C 
 585      D95B7DA2 
 585      8B12D6C1 
 586 1727 836834B0 		.ascii	"\203h4\260\031}Xm\362\211\237\243?}\014\215\301q\214"
 586      197D586D 
 586      F2899FA3 
 586      3F7D0C8D 
 586      C1718C
 587 173a 5B30FE12 		.ascii	"[0\376\022\343\323<\346\341S\326\214\275\324G\355o\026"
 587      E3D33CE6 
 587      E153D68C 
 587      BDD447ED 
 587      6F16
 588 174c D5CB98D4 		.ascii	"\325\313\230\324f\206\324\003H\352A\226$I\230\201\365"
 588      6686D403 
 588      48EA4196 
 588      24499881 
ARM GAS  /tmp/cc5qhUpO.s 			page 47


 588      F5
 589 175d 5931475A 		.ascii	"Y1GZa\277v\345\332=\355\023\345y\375\270\227\215#\327"
 589      61BF76E5 
 589      DA3DED13 
 589      E579FDB8 
 589      978D23D7 
 590 1771 9C924F3C 		.ascii	"\234\222O<\347$K\306s\373$\265d\374\275S\267d\334N\377"
 590      E7244BC6 
 590      73FB24B5 
 590      64FCBD53 
 590      B764DC4E 
 591 1786 0A81E427 		.ascii	"\012\201\344'^4^\334\247\363\242\361\352>\206\213\306"
 591      5E345EDC 
 591      A7F3A2F1 
 591      EA3E868B 
 591      C6
 592 1797 EBFB6817 		.ascii	"\353\373h\027\215\025)\304]\252\215\021\347\023\177"
 592      8D1529C4 
 592      5DAA8D11 
 592      E7137F
 593 17a6 40915F70 		.ascii	"@\221_p\306_\252\255\2650\321\023\030\351\313\221\216"
 593      C65FAAAD 
 593      B530D113 
 593      18E9CB91 
 593      8E
 594 17b7 06F2E02A 		.ascii	"\006\362\340*\357chWW\237S\036\315\273\202\346\264\275"
 594      EF636857 
 594      579F531E 
 594      CDBB82E6 
 594      B4BD
 595 17c9 4F62736A 		.ascii	"Obsj\200\003f"
 595      800366
 596 17d0 07DF297B 		.ascii	"\007\337){\015A&\334i\021D\022\246b\221\033z\233\\O"
 596      0D4126DC 
 596      69114412 
 596      A662911B 
 596      7A9B5C4F 
 597 17e4 CFE6DDE0 		.ascii	"\317\346\335\340\260\312\344_G\350\263\351\352C\273"
 597      B0CAE45F 
 597      47E8B3E9 
 597      EA43BB
 598 17f3 B3A3984A 		.ascii	"\263\243\230J\245\217\261\342Kl\226\233\351yYz:o\221"
 598      A58FB1E2 
 598      4B6C969B 
 598      E979597A 
 598      3A6F91
 599 1806 1ECCA21D 		.ascii	"\036\314\242\035=\030}\376|2\256\023\256\264\214\247"
 599      3D187DFE 
 599      7C32AE13 
 599      AEB48CA7 
 600 1816 E964914F 		.ascii	"\351d\221O)q\024l\035\017X\234\2672\035a\3016Y\006\323"
 600      2971146C 
 600      1D0F589C 
 600      B7321D61 
 600      C1365906 
 601 182b 52F6390B 		.ascii	"R\3669\013\026\341\001\213\363z\244\343\312p\226\344"
 601      16E1018B 
ARM GAS  /tmp/cc5qhUpO.s 			page 48


 601      F37AA4E3 
 601      CA7096E4 
 602 183b BF5B4C73 		.ascii	"\277[Ls\231/\241Qm5+9\335e\274\022l>\366E\346R\007\350"
 602      992FA151 
 602      6D352B39 
 602      DD65BC12 
 602      6C3EF645 
 603 1853 151761BC 		.ascii	"\025\027a\274Q\327\007tU\023\302\314\252\236\3512\177"
 603      51D70774 
 603      5513C2CC 
 603      AA9EE932 
 603      7F
 604 1864 AFB2EE37 		.ascii	"\257\262\3567\360q-\013X\333Z-U\232'\223\217\361\300"
 604      F0712D0B 
 604      58DB5A2D 
 604      559A2793 
 604      8FF1C0
 605 1877 B90DDACB 		.ascii	"\271\015\332\313\350\303vh\237\330\201\206Ov\221Ap\""
 605      E8C37668 
 605      9FD88186 
 605      4F769141 
 605      7022
 606 1889 C69331AE 		.ascii	"\306\2231\256\302\370E\214\247`<\025\343\331\256{\377"
 606      C2F8458C 
 606      A7603C15 
 606      E3D9AE7B 
 606      FF
 607 189a D9A89270 		.ascii	"\331\250\222p\362N\335X\2475L\211\372\241\214\203\035"
 607      F24EDD58 
 607      A7354C89 
 607      FAA18C83 
 607      1D
 608 18ab 3E56CC6F 		.ascii	">V\314oq\017\336M-\356k.b\245\316\350\024\205\252\345"
 608      710FDE4D 
 608      2DEE6B2E 
 608      62A5CEE8 
 608      1485AAE5 
 609 18bf 3F8BDF9F 		.ascii	"?\213\337\237\270\3705}\311C\224\337y\375\330\177\302"
 609      B8F8357D 
 609      C94394DF 
 609      79FDD87F 
 609      C2
 610 18d0 624EB6CA 		.ascii	"bN\266\312Q\205\221U}\256q\365PR\352\377\314\021\377"
 610      51859155 
 610      7DAE71F5 
 610      5052EAFF 
 610      CC11FF
 611 18e3 4B4F88AE 		.ascii	"KO\210\256\240\2226}] n\346\331\234\024]\022&\376\212"
 611      A092367D 
 611      5D206EE6 
 611      D99C145D 
 611      1226FE8A 
 612 18f7 0BAED96E 		.ascii	"\013\256\331n\206g4\3015\3723\027\315\177\000+M\372"
 612      866734C1 
 612      35FA3317 
 612      CD7F002B 
 612      4DFA
ARM GAS  /tmp/cc5qhUpO.s 			page 49


 613 1909 69FBD597 		.ascii	"i\373\325\227\224\227K\274\201m\372\374\257\022\016"
 613      94974BBC 
 613      816DFAFC 
 613      AF120E
 614 1918 809DFF4C 		.ascii	"\200\235\377Lx\271K7\370-<\331(\342L\215\374\222`\370"
 614      78B94B37 
 614      F82D3CD9 
 614      28E24C8D 
 614      FC9260F8 
 615 192c 9B3C29F2 		.ascii	"\233<)\362\356\311F\211\371;\022\237\270\210\236\263"
 615      EEC94689 
 615      F93B129F 
 615      B8889EB3 
 616 193c 7125FB0C 		.ascii	"q%\373\014\343\272\223\312\3428\205[l\031\316\255\201"
 616      E3BA93CA 
 616      E238855B 
 616      6C19CEAD 
 616      81
 617 194d DBA0853B 		.ascii	"\333\240\205; q\300\305y\216q\243\026\356u\036\352\342"
 617      2071C0C5 
 617      798E71A3 
 617      16EE751E 
 617      EAE2
 618 195f 3CC9B849 		.ascii	"<\311\270I\013\267\220\007.\316\263\214[X8I\230\211"
 618      0BB79007 
 618      2ECEB38C 
 618      5B583849 
 618      9889
 619 1971 0A61054E 		.ascii	"\012a\005NK\3356-\334\\\0368\243Q\325\350\303j\236O"
 619      4BDD362D 
 619      DC5C1E38 
 619      A351D5E8 
 619      C36A9E4F 
 620 1985 5CE122F6 		.ascii	"\\\341\"\366e%\332\216U\030\257\306\370-\214\337\306"
 620      6525DA8E 
 620      5518AFC6 
 620      F82D8CDF 
 620      C6
 621 1996 780DC66B 		.ascii	"x\015\306kY\313b6\226-u1\023\231\005\372NjDvs\334\263"
 621      59CB6236 
 621      962D7531 
 621      139905FA 
 621      4E6A4476 
 622 19ad CF1ABA6B 		.ascii	"\317\032\272k\031\273\270\030\355\342\022\234b}\202"
 622      19BBB818 
 622      EDE2129C 
 622      627D82
 623 19bc F1598C2F 		.ascii	"\361Y\214/\323M\014\244x!\306\265\030/\341\241~\201"
 623      D34D0CA4 
 623      7821C6B5 
 623      182FE1A1 
 623      7E81
 624 19ce D3F4A090 		.ascii	"\323\364\240\220$,\321u\362\350\216\360\311>\273\350"
 624      242CD175 
 624      F2E88EF0 
 624      C93EBBE8 
 625 19de 69E429B8 		.ascii	"i\344)\270:\260\016\357\233\3404\333l\305\275\023e\217"
ARM GAS  /tmp/cc5qhUpO.s 			page 50


 625      3AB00EEF 
 625      9BE034DB 
 625      6CC5BD13 
 625      658F
 626 19f0 76BF3FBA 		.ascii	"v\277?\272\221\\\227\240\030n\257h\0171/\300\3726'("
 626      915C97A0 
 626      186EAF68 
 626      0F312FC0 
 626      FA362728 
 627 1a04 A830A51C 		.ascii	"\2500\245\034b~\367\213\274\336tCU\320\2262\332\333"
 627      627EF78B 
 627      BCDE7443 
 627      55D09632 
 627      DADB
 628 1a16 5DEF32DA 		.ascii	"]\3572\332\333=\264{\232\272\267\233\242s\315\010\221"
 628      DB3DB47B 
 628      9ABAB79B 
 628      A273CD08 
 628      91
 629 1a27 66C2DDE6 		.ascii	"f\302\335\346\322\255\011\022A\350d\274\315P\306t+\233"
 629      D2AD0912 
 629      41E864BC 
 629      CD50C674 
 629      2B9B
 630 1a39 DE5EE722 		.ascii	"\336^\347\"\035u\253+\256t\243[\331[\361\3106\335\231"
 630      1D75AB2B 
 630      AE74A35B 
 630      D95BF1C8 
 630      36DD99
 631 1a4c 322FA510 		.ascii	"2/\245\020\270\335\220\333\033\273\247\232qK6\021\315"
 631      B8DD90DB 
 631      1BBBA79A 
 631      714B3611 
 631      CD
 632 1a5d B8FD8083 		.ascii	"\270\375\200\203\333=\306\334^/\322q\273\203\223\333"
 632      DB3DC6DC 
 632      5E2FD271 
 632      BB8393DB 
 633 1a6d F5C82DFD 		.ascii	"\365\310-\375/S\363R\012\201\037\031r[\367r\023\030"
 633      2F53F352 
 633      0A811F19 
 633      725BF772 
 633      1318
 634 1a7f 1EF9E78E 		.ascii	"\036\371\347\216\016\362x\230`\341ld#\007\303G\214\031"
 634      0EF27898 
 634      60E16C64 
 634      2307C347 
 634      8C19
 635 1a91 BEA167B8 		.ascii	"\276\241g\270\201\223a\335I\005\246\230\2216\357\326"
 635      819361DD 
 635      4905A698 
 635      9136EFD6 
 636 1aa1 72FC8468 		.ascii	"r\374\204h\233k\247'\363\247\267\266\257\372\240\362"
 636      9B6BA727 
 636      F3A7B7B6 
 636      AFFAA0F2 
 637 1ab1 35F9033C 		.ascii	"5\371\003<\231\257\347:\316:\367>=\323\344Q\003\375"
ARM GAS  /tmp/cc5qhUpO.s 			page 51


 637      99AFE73A 
 637      CE3AF73E 
 637      3DD3E451 
 637      03FD
 638 1ac3 030DCA77 		.ascii	"\003\015\312w\336\005\333E\357\037\354\273\211\276\366"
 638      DE05DB45 
 638      EF1FECBB 
 638      89BEF6
 639 1ad2 119D8BF9 		.ascii	"\021\235\213\371}-\256\330*\323\223w\317\223U\323\317"
 639      7D2DAED8 
 639      2AD39377 
 639      CF9355D3 
 639      CF
 640 1ae3 1063890E 		.ascii	"\020c\211\016\303'\346\350|\316\034\375\037+|e\223\247"
 640      C327E6E8 
 640      7CCE1CFD 
 640      1F2B7C65 
 640      93A7
 641 1af5 A760BE24 		.ascii	"\247`\276$\324\367\325\256p0\345\206\2309\35591[}\024"
 641      D4F7D5AE 
 641      7030E586 
 641      9839ED39 
 641      315B7D14 
 642 1b09 C718DD9D 		.ascii	"\307\030\335\235:\325h\320Q\250\336t\254S\243\315\213"
 642      3AD568D0 
 642      51A8DE74 
 642      AC53A3CD 
 642      8B
 643 1b1a 365ADB81 		.ascii	"6Z\333\201K\023\305\031\223j\033\345\013d\335P=\017"
 643      4B13C519 
 643      936A1BE5 
 643      0B64DD50 
 643      3D0F
 644 1b2c B3DF04EA 		.ascii	"\263\337\004\352Dg\215\007\220\372m5}\214[\236\1779"
 644      44678D07 
 644      90FA6D35 
 644      7D8C5B9E 
 644      7F39
 645 1b3e 6BFD5E22 		.ascii	"k\375^\"\352/]d=\253EW;\347z\326\327.\335z\326\321\227"
 645      EA2F5D64 
 645      3DAB4557 
 645      3BE77AD6 
 645      D72EDD7A 
 646 1b55 713D8BE4 		.ascii	"q=\213\344'^\317\372\246o\347\365\254\363}\015\327\263"
 646      275ECFFA 
 646      A66FE7F5 
 646      ACF37D0D 
 646      D7B3
 647 1b67 AEF6353C 		.ascii	"\256\3665<\0049\371.\303C\2203\3562<\004\271\340.\303"
 647      0439F92E 
 647      C3439033 
 647      EE323C04 
 647      B9E02EC3 
 648 1b7b 4390CBEF 		.ascii	"C\220\313\3572<\004\371\336]\206\207 w\334\245=\004"
 648      323C04F9 
 648      DE5D8687 
 648      2077DCA5 
ARM GAS  /tmp/cc5qhUpO.s 			page 52


 648      3D04
 649 1b8d A964EF8E 		.ascii	"\251d\357\216e\2472\331_\304\262\2730\331?\304\262\323"
 649      65A732D9 
 649      5FC4B2BB 
 649      30D93FC4 
 649      B2D3
 650 1b9f 986CF9EE 		.ascii	"\230l\371\356hv:\223\375j,\373\026&\2736\226\335\225"
 650      68763A93 
 650      FD6A2CFB 
 650      1626BB36 
 650      96DD95
 651 1bb2 C95E1BCB 		.ascii	"\311^\033\313\356\306do\215ewg\262?\216e\367`\262\217"
 651      EEC6646F 
 651      8D657767 
 651      B23F8E65 
 651      F760B28F 
 652 1bc6 C4B27BB2 		.ascii	"\304\262{\262t\307\262oU\332\222|\215\273\254\030\323"
 652      74C7B26F 
 652      55DA927C 
 652      8DBBAC18 
 652      D3
 653 1bd7 119F780A 		.ascii	"\021\237x\012\373\324i\227\361\262\242\231\275j\325"
 653      FBD46997 
 653      F1B2A299 
 653      BD6AD5
 654 1be6 DB2B3258 		.ascii	"\333+2X$\371`\250\242\373\263\234\022\307\353\204}b"
 654      24F960A8 
 654      A2FBB39C 
 654      12C7EB84 
 654      7D62
 655 1bf8 750ADF5B 		.ascii	"u\012\337[\270A\025\357\321\033\253\245\372wI'\3772"
 655      B84115EF 
 655      D11BABA5 
 655      FA774927 
 655      FF32
 656 1c0a EFE92986 		.ascii	"\357\351)\206\017^\326\211\235\367\034%a\312=\306\226"
 656      0F5ED689 
 656      9DF71C25 
 656      61CA3DC6 
 656      96
 657 1c1b 644E8A91 		.ascii	"dN\212\221%i\25364G\325& \363\014A\246\377p\346Q\263"
 657      2569AB36 
 657      3447D526 
 657      20F30C41 
 657      A6FF70E6 
 658 1c31 8128CEC2 		.ascii	"\201(\316\302\327\374\024]\303\256\303\027\352j\270"
 658      D7FC145D 
 658      C3AEC317 
 658      EA6AB8
 659 1c40 596842C8 		.ascii	"YhB\310\002CB.T\377(%AH\215\236\020\342|E\277(\307N"
 659      0243422E 
 659      54FF2825 
 659      41488D9E 
 659      10E27C45 
 660 1c58 7584AD30 		.ascii	"u\204\2550!l\261\021a\221\355MSe\221\236\200\344'k\251"
 660      216CB111 
 660      6191ED4D 
ARM GAS  /tmp/cc5qhUpO.s 			page 53


 660      5365919E 
 660      80E4276B 
 661 1c6d 11593A32 		.ascii	"\021Y:2\3365!\343MC\371\234\370*\362?I\310gy'B\244\250"
 661      DE3521E3 
 661      4D43F99C 
 661      F82AF23F 
 661      49C86779 
 662 1c85 7CB8B7DD 		.ascii	"|\270\267\335\"\365\325\267\221\301aU\012>j\321\251"
 662      22F5D5B7 
 662      91C16155 
 662      0A3E6AD1 
 662      A9
 663 1c96 BF24775A 		.ascii	"\277$wZ$J\322\011\203\247\220%\341\023\023\361\254\321"
 663      244AD209 
 663      83A79025 
 663      E11313F1 
 663      ACD1
 664 1ca8 8AE7D7C2 		.ascii	"\212\347\327\302b9\322\014\323\242\213'EpT\032\311\026"
 664      6239D20C 
 664      D3A28B27 
 664      4570541A 
 664      C916
 665 1cba 4587788F 		.ascii	"E\207x\217O|\007\377\261\373d\024E]\270\371\215\312"
 665      4F7C07FF 
 665      B1FB6414 
 665      455DB8F9 
 665      8DCA
 666 1ccc DF5A5546 		.ascii	"\337ZUFkc\210\024-R\2672\025\374D\354W\352\037\227\237"
 666      6B638814 
 666      2D52B732 
 666      15FC44EC 
 666      57EA1F97 
 667 1ce1 D2033DA5 		.ascii	"\322\003=\245\342D\337p\245\300\014\024\326\313/F\372"
 667      E244DF70 
 667      A5C00C14 
 667      D6CB2F46 
 667      FA
 668 1cf2 D182F4AC 		.ascii	"\321\202\364\254\364\377\025\256\311/\312\221\315\267"
 668      F4FF15AE 
 668      C92FCA91 
 668      CDB7
 669 1d00 D18385A4 		.ascii	"\321\203\205\244\026\342\004\316\271\261\\\254\226k"
 669      16E204CE 
 669      B9B15CAC 
 669      966B
 670 1d0e 6334D37F 		.ascii	"c4\323\177\031\377\256\023\315\232\377\024'um\324\010"
 670      19FFAE13 
 670      CD9AFF14 
 670      27756DD4 
 670      08
 671 1d1f 811EC5A6 		.ascii	"\201\036\305\246\225\220#\303\243t\253\3013\342\374"
 671      959023C3 
 671      A374ABC1 
 671      33E2FC
 672 1d2e F9D8A698 		.ascii	"\371\330\246\230\201R\230o_\3010?\003\377N\355bB\346"
 672      8152986F 
 672      5FC1303F 
ARM GAS  /tmp/cc5qhUpO.s 			page 54


 672      03FF4EED 
 672      6242E6
 673 1d41 B768987F 		.ascii	"\267h\230\177\214\026\244\377*G\356\234/\321I\302\002"
 673      8C16A4FF 
 673      2A47EE9C 
 673      2FD149C2 
 673      02
 674 1d52 E53BF9FF 		.ascii	"\345;\371\377>y\372\213\262]\240\3776G\362ld\244\245"
 674      3E79FA8B 
 674      B25DA0FF 
 674      3647F26C 
 674      64A4A5
 675 1d65 7F3BA77C 		.ascii	"\177;\247|\355\247\262\367E\224\275H\375m\224f\205\330"
 675      EDA7B2F7 
 675      4594BD48 
 675      FD6D9466 
 675      85D8
 676 1d77 D92B3B11 		.ascii	"\331+;\021\373SBb\267\3773\210\355\316\212Q>\0209\272"
 676      FB534262 
 676      B7FF3388 
 676      EDCE8A51 
 676      3E1039BA 
 677 1d8b 896CE2AB 		.ascii	"\211l\342\253\244\321\271\363M=i\235\232c\207V\027Q"
 677      A4D1B9F3 
 677      4D3D699D 
 677      9A638756 
 677      1751
 678 1d9d 4BAE186A 		.ascii	"K\256\030j\311K\356\204Z\362\241\026L>\000\312q\240"
 678      C94BEE84 
 678      5AF2A116 
 678      4C3E00CA 
 678      71A0
 679 1daf 5AAC9EC4 		.ascii	"Z\254\236\304t\023\272\210\360\252\036\254\023a\037"
 679      7413BA88 
 679      F0AA1EAC 
 679      13611F
 680 1dbe C7B092DC 		.ascii	"\307\260\222\334,i\320\232\242t\341eVGs\314UtWJ\272"
 680      2C69D09A 
 680      A274E165 
 680      564773CC 
 680      5574574A 
 681 1dd3 A0FB98DD 		.ascii	"\240\373\230\335\2723\246\315\272>p\320d5\013gj\246"
 681      BA33A6CD 
 681      BA3E70D0 
 681      64350B67 
 681      6AA6
 682 1de5 A5F6C5D9 		.ascii	"\245\366\305\331Gi2)\305/\221=z\343L8\345:\207\364\211"
 682      47693229 
 682      C52F913D 
 682      7AE34C38 
 682      E53A87F4 
 683 1dfa 29C544D1 		.ascii	")\305D\321L\247\217\246\245\246\304)\325lZ\212\014."
 683      4CA78FA6 
 683      A5A6C429 
 683      D56C5A8A 
 683      0C2E
 684 1e0c 66A5F69B 		.ascii	"f\245\366\233\226Z\032\247\324\001\323R5qJ\0354-E^^"
ARM GAS  /tmp/cc5qhUpO.s 			page 55


 684      965A1AA7 
 684      D401D352 
 684      35714A1D 
 684      342D455E 
 685 1e21 6356EAD3 		.ascii	"cV\352\323X)\345\277\316\343\375\2330tM|\365m\242\277"
 685      5829E5BF 
 685      CEE3FD9B 
 685      30744D7C 
 685      F56DA2BF 
 686 1e35 FBC5E9F2 		.ascii	"\373\305\351\362\004\356\177S&\337\336\307\027D5\260"
 686      04EE7F53 
 686      26DFDEC7 
 686      174435B0 
 687 1e45 7FB7A963 		.ascii	"\177\267\251cc~\034\346\017\2332O\374A\263RGLK\265\306"
 687      637E1CE6 
 687      0F9B324F 
 687      FC41B352 
 687      474C4BB5 
 688 1e5a 51F9A38C 		.ascii	"Q\371\243\2147k/\034\353\013:\207\214\034\345\316\024"
 688      376B2F1C 
 688      EB0B3A87 
 688      8C1CE5CE 
 688      14
 689 1e6b 1ECC185B 		.ascii	"\036\314\030[^\352\317(,/z.\243\310?.\243pl`t\240<\224"
 689      5EEACF28 
 689      2C2F7A2E 
 689      A3C83F2E 
 689      A3706C60 
 690 1e83 110E5696 		.ascii	"\021\016V\226=\235\001\011\377\370pF\261/\\\034\312"
 690      3D9D0109 
 690      FFF87046 
 690      B12F5C1C 
 690      CA
 691 1e94 08050B33 		.ascii	"\010\005\0133\212\213\037\030+8r\006\025\344\344?b\255"
 691      8A8B1F18 
 691      2B387206 
 691      15E4E43F 
 691      62AD
 692 1ea6 64A02CEC 		.ascii	"d\240,\354\037\343\017Bq\373\340'\013\262]\305!o\370"
 692      1FE30F42 
 692      71FBE027 
 692      0BB25DC5 
 692      216FF8
 693 1eb9 B90ABFAD 		.ascii	"\271\012\277\255(8\316Q\030\012\374\037\277\263\314"
 693      2838CE51 
 693      180AFC1F 
 693      BFB3CC
 694 1ec8 0B77871C 		.ascii	"\013w\207\034\317\026\227\370\306\244\024\207\002^\222"
 694      CF1697F8 
 694      C6A41487 
 694      025E92
 695 1ed7 B03F91EB 		.ascii	"\260?\221\353\311\222\002E\251e\336`yy\270(\020td\221"
 695      C9920245 
 695      A965DE60 
 695      7979B828 
 695      10746491 
 696 1eeb AC2E25BE 		.ascii	"\254.%\276P\330[XR\031\012w)\016\372\3754\231\202\030"
ARM GAS  /tmp/cc5qhUpO.s 			page 56


 696      50D85B58 
 696      52190A77 
 696      290EFAFD 
 696      34998218 
 697 1eff FEB2B0A3 		.ascii	"\376\262\260\243\230@\272\306\225\227\214\366\205\374"
 697      9840BAC6 
 697      95978CF6 
 697      85FC
 698 1f0d 2EC8C42B 		.ascii	".\310\304+\024'\327\224\"_\330\207\031\317\006\312B"
 698      1427D794 
 698      225FD887 
 698      19CF06CA 
 698      42
 699 1f1e FEC2B00D 		.ascii	"\376\302\260\015\256\017%\342g\254\257\004\270\200z"
 699      AE0F25E2 
 699      67ACAF04 
 699      B8807A
 700 1f2d 8AFC19A5 		.ascii	"\212\374\031\245\245\205\336PE\000\270I\0351\"3\263"
 700      A585DE50 
 700      4500B849 
 700      1D312233 
 700      B3
 701 1f3e BCAC3830 		.ascii	"\274\25480&\213\007\240\242<\030\016e\344\027\214xp"
 701      268B07A0 
 701      A23C180E 
 701      65E4178C 
 701      7870
 702 1f50 40C6F0E1 		.ascii	"@\306\360\341Y\031\371y\303\306\365\317\000(oII\021"
 702      5919F979 
 702      C3C6F5CF 
 702      00286F49 
 702      4911
 703 1f62 81838CAC 		.ascii	"\201\203\214\254``\234?8\300\012=\224\226.p\011\205"
 703      60609C3F 
 703      38C00A3D 
 703      94962E70 
 703      0985
 704 1f74 4100DE70 		.ascii	"A\000\336p\027\300\361\216\0329l\344\260\202\024\222"
 704      17C0F18E 
 704      1A396CE4 
 704      B0821492 
 705 1f84 CC2FC8CD 		.ascii	"\314/\310\315#\330^O\366\240\254'\361\327A\231\005\303"
 705      23D85E4F 
 705      F6A0AC27 
 705      F1D74199 
 705      05C3
 706 1f96 FE9A9D4E 		.ascii	"\376\232\235N\222\231\271#\362\206"
 706      9299B923 
 706      F286
 707 1fa0 6717643B 		.ascii	"g\027d;\260\364-\000S\350+\001\321\025>\355\015;\375"
 707      B0F42D00 
 707      53E82B01 
 707      D1153EED 
 707      0D3BFD
 708 1fb3 6545DEC2 		.ascii	"eE\336\302\321\331\311p7$oX\356\270\001\031\025\276"
 708      D1D9C970 
 708      37246F58 
ARM GAS  /tmp/cc5qhUpO.s 			page 57


 708      EEB80119 
 708      15BE
 709 1fc5 1285BDF4 		.ascii	"\022\205\275\364P\270\364\301\001\3361\025\201ro\370"
 709      50B8F4C1 
 709      01DE3115 
 709      81726FF8 
 710 1fd5 B71995A1 		.ascii	"\267\031\225\241`\206/Xz\177Yy\231\377~\277ot \306\020"
 710      60862F58 
 710      7A7F5979 
 710      99FF7EBF 
 710      6F7420C6 
 711 1fea 34755918 		.ascii	"4uY\030J\244T\302\025\212\204\007\306\271\273\324\007"
 711      4AA454C2 
 711      158A8407 
 711      C6B9BBD4 
 711      07
 712 1ffb E494F933 		.ascii	"\344\224\3713\274"
 712      BC
 713 2000 45FE625F 		.ascii	"E\376b_eI\030U+D$\342\365\252\345\035#r\263\262=\316"
 713      65491855 
 713      2B4424E2 
 713      F5AAE51D 
 713      2372B3B2 
 714 2016 DC8227F3 		.ascii	"\334\202'\363\262=\256\334\374\274\354\354,\217#oT^"
 714      B23DAEDC 
 714      FCBCECEC 
 714      2C8F236F 
 714      545E
 715 2028 96C7360C 		.ascii	"\226\3076\014Bn\226G|\002k\353\377\020\310\217\026$"
 715      426E9647 
 715      7C026BEB 
 715      FF10C88F 
 715      1624
 716 203a 495BC81F 		.ascii	"I[\310\037v\024\226\370}Aq\250}p\276\307c\037\236\371"
 716      761496F8 
 716      7D4171A8 
 716      7D70BEC7 
 716      631F9EF9 
 717 204e B8C73E28 		.ascii	"\270\307>(\3073\234DCm\203=\236.\201r\302{\240\010\344"
 717      C7339C44 
 717      436D833D 
 717      9E2E8172 
 717      C27BA008 
 718 2063 150A91A4 		.ascii	"\025\012\221\244\003.\276\"[a\260?\021;\325\020g!^\022"
 718      032EBE22 
 718      5B61B03F 
 718      113BD510 
 718      67215E12 
 719 2077 F69C6038 		.ascii	"\366\234`8\312Y\341\330\320s!\225\233\224\360\330\240"
 719      CA59E1D8 
 719      D0732195 
 719      9B94F0D8 
 719      A0
 720 2088 DF0775A4 		.ascii	"\337\007u\244\026\216\365\322\364@kX\205cI+8+\274e\320"
 720      168EF5D2 
 720      F4406B58 
 720      8563492B 
ARM GAS  /tmp/cc5qhUpO.s 			page 58


 720      382BBC65 
 721 209d 3BE15211 		.ascii	";\341R\021\364\217\033\312\001A\033v\220gD\346\210\361"
 721      F48F1BCA 
 721      01411B76 
 721      906744E6 
 721      88F1
 722 20af 70676945 		.ascii	"pgiE\240\304\037\014e\014\311\314\204\333U\362\\\341"
 722      A0C41F0C 
 722      650CC9CC 
 722      84DB55F2 
 722      5CE1
 723 20c1 8A206957 		.ascii	"\212 iW\304\015\224\273\200\3330T\363\007\313\370c\013"
 723      C40D94BB 
 723      80DB3054 
 723      F307CBF8 
 723      630B
 724 20d3 CB837E00 		.ascii	"\313\203~\000L#\331^h\206\302\360\370\377L\016\305;"
 724      4C23D95E 
 724      6886C2F0 
 724      F8FF4C0E 
 724      C53B
 725 20e5 EEE15222 		.ascii	"\356\341R\"\271\240\177\014\250\016i\314\376\017Ax\030"
 725      B9A07F0C 
 725      A80E69CC 
 725      FE0F4178 
 725      18
 726 20f6 C22310FE 		.ascii	"\302#\020\376`\013\015\350\007\241?\204\001\020\036"
 726      600B0DE8 
 726      07A13F84 
 726      01101E
 727 2105 843010C2 		.ascii	"\2040\020\302\357!\300}\003\340\276\001p\337\000\270"
 727      EF21C07D 
 727      03E0BE01 
 727      70DF00B8 
 728 2115 EF41B8EF 		.ascii	"\357A\270\357\301\376Rp\240\024\374\275\024|H\012>,"
 728      C1FE5270 
 728      A014FCBD 
 728      147C480A 
 728      3E2C
 729 2127 051F9182 		.ascii	"\005\037\221\202\177\260\005\373\367\203\320_*\011\302"
 729      7FB005FB 
 729      F783D05F 
 729      2A09C2
 730 2136 E5414785 		.ascii	"\345AG\205\027\250u\021\011?\353\017\302\265\274\244"
 730      17A87511 
 730      093FEB0F 
 730      C2B5BCA4 
 731 2146 C81F2412 		.ascii	"\310\037$\022\367\225\372S\302J\367t\021\345z\004\032"
 731      F795FA53 
 731      C24AF774 
 731      11E57A04 
 731      1A
 732 2157 92AA19A4 		.ascii	"\222\252\031\244\340N\374\315\025.-/\362\343wb\377B"
 732      E04EFCCD 
 732      152E2D2F 
 732      F2E37762 
 732      FF42
ARM GAS  /tmp/cc5qhUpO.s 			page 59


 733 2169 AE70D04F 		.ascii	"\256p\320Ol% \220\204\24344\006~Tt\032\212+)g\260\350"
 733      6C252090 
 733      84A33434 
 733      067E5474 
 733      1A8A2B29 
 734 2180 39F829C5 		.ascii	"9\370)\305?>\020\006\031\371\235\317\206\313G\377wE"
 734      3F3E1006 
 734      19F99DCF 
 734      86CB47FF 
 734      7745
 735 2192 9A7F1C58 		.ascii	"\232\177\034X\303R_\010;\362\263$a\253\360Vv\245\312"
 735      C3525F08 
 735      3BF2B324 
 735      61ABF056 
 735      76A5CA
 736 21a5 13F29680 		.ascii	"\023\362\226\200\275\360\206\273E\325\211\346\244Vx"
 736      BDF086BB 
 736      45D589E6 
 736      A45678
 737 21b4 9FF505C2 		.ascii	"\237\365\005\302\201\2621\335\324\354g*\375\225@Uw\346"
 737      81B231DD 
 737      D4EC672A 
 737      FD954055 
 737      77E6
 738 21c6 4ECCEA52 		.ascii	"N\314\352R\341\205j1\351\300$d\370+\300d@aGi%\264\177"
 738      E1856A31 
 738      E9C02464 
 738      F82BC064 
 738      40614769 
 739 21dd C21146A3 		.ascii	"\302\021F\243\241\245\341\361D\223J):\\\313\237-\003"
 739      A1A5E1F1 
 739      44934A29 
 739      3A5CCB9F 
 739      2D03
 740 21ef 312212B0 		.ascii	"1\"\022\260P\212\212\013\364\301}\204\322.D*\276\022"
 740      508A8A0B 
 740      F4C17D84 
 740      D22E442A 
 740      BE12
 741 2201 5437C8AC 		.ascii	"T7\310\254(//y\330R}\0123PgO\245s\201\224\375A\177Y"
 741      282F2F79 
 741      D8527D0A 
 741      3350674F 
 741      A5738194 
 742 2219 2170EBA4 		.ascii	"!p\353\244Y\377\3013\322e\216\310\037\226\017\246/\003"
 742      59FFC133 
 742      D2658EC8 
 742      1F960FA6 
 742      2F03
 743 222b 2D5CF1C0 		.ascii	"-\\\361\300~\375\307\243\012\023\363Z\000\035$\313_"
 743      7EFDC7A3 
 743      0A13F35A 
 743      001D24CB 
 743      5F
 744 223c 6CCBF4F4 		.ascii	"l\313\364\364\2070@\312\367H`z2=\231y\036\247\347op"
 744      873040CA 
 744      F748607A 
ARM GAS  /tmp/cc5qhUpO.s 			page 60


 744      323D9979 
 744      1EA7E76F 
 745 2251 F5380BF0 		.ascii	"\3658\013\360\342\0326 ?3g\210\307\001\327<\217\015"
 745      E21A3620 
 745      3F336788 
 745      C701D73C 
 745      8F0D
 746 2263 EC708E55 		.ascii	"\354p\216U\263\213q\316\300\361\343)!\336\242R\037a"
 746      B38B71CE 
 746      C0F1E329 
 746      21DEA252 
 746      1F61
 747 2275 2E6BC420 		.ascii	".k\304 o>\250\222\257T\245F\312\364\330Gf\025xly\203"
 747      6F3EA892 
 747      AF54A546 
 747      CAF4D847 
 747      6615786C 
 748 228b 3CF611FD 		.ascii	"<\366\021\375H\324\177\220\307\226\003\304\204\360F"
 748      48D47F90 
 748      C79603C4 
 748      84F046
 749 229a 7BA0B830 		.ascii	"{\240\2700\350\014\204\306\006\212\303\251!\177Iq\240"
 749      E80C84C6 
 749      068AC3A9 
 749      217F4971 
 749      A0
 750 22ab ACC83FDE 		.ascii	"\254\310?\3369\016\306\313\362`\317(\272\227\336\015"
 750      390EC6CB 
 750      F260CF28 
 750      BA97DE0D 
 751 22bb 0616BE04 		.ascii	"\006\026\276\004\307\2238<>58\036\256D\223S\303j\312"
 751      C793383C 
 751      3E35381E 
 751      AE449353 
 751      C36ACA
 752 22ce 0EEC5438 		.ascii	"\016\354T8JB\205\305c\034cI\234\022(\247\272\356\360"
 752      4A4285C5 
 752      631C6349 
 752      9C1228A7 
 752      BAEEF0
 753 22e1 0E86864B 		.ascii	"\016\206\206K\250(\343|\320\314\225!\370\001\332\273"
 753      A828E37C 
 753      D0CC9521 
 753      F801DABB 
 754 22f1 2C4C5C11 		.ascii	",L\\\021k\215M)%\215\335k0\214\376\371~P\262\262p\300"
 754      6B8D4D29 
 754      258DDD6B 
 754      308CFEF9 
 754      7E50B2B2 
 755 2307 57422573 		.ascii	"WB%s\207Q\346_G\024\014\300\221\247$0:cLa\241n\004\032"
 755      8751E65F 
 755      47140CC0 
 755      91A72430 
 755      3A634C61 
 756 231f F8C0230F 		.ascii	"\370\300#\017\014dG-\030\201\210\205%\356\0070\366l"
 756      0C64472D 
 756      18818885 
ARM GAS  /tmp/cc5qhUpO.s 			page 61


 756      25EE0730 
 756      F66C
 757 2331 3010F6DB 		.ascii	"0\020\366\333\211\022\331**\303\2661\376\260m\\i8E\345"
 757      8912D92A 
 757      2AC3B631 
 757      FEB06D5C 
 757      693845E5 
 758 2345 C006095B 		.ascii	"\300\006\011[qi\270k\250\010<\212P\240\264\242\304\377"
 758      7169B86B 
 758      A8083C8A 
 758      50A0B4A2 
 758      C4FF
 759 2357 4021FA14 		.ascii	"@!\372\024\324\011H\217\246\200\216\264@\310K\374\225"
 759      D409488F 
 759      A6808EB4 
 759      40C84BFC 
 759      95
 760 2368 60D85F94 		.ascii	"`\330_\224\016\351\212`y\030\032\303_D,m\031\244\272"
 760      0EE98A60 
 760      79181AC3 
 760      5F442C6D 
 760      19A4BA
 761 237b 1405424A 		.ascii	"\024\005BJ\322\036z\256\254\360\217V\\\010H{\003\345"
 761      D21E7AAE 
 761      ACF08F56 
 761      5C08487B 
 761      03E5
 762 238d A34BCA0B 		.ascii	"\243K\312\013\237\006\006\272\015&\211,\377\270@\241"
 762      9F0606BA 
 762      0D26892C 
 762      FFB840A1 
 763 239d 7F585971 		.ascii	"\177XYqy\312\350\222\247\275\350S\221DYei\012\360\002"
 763      79CAE892 
 763      A7BDE853 
 763      91445965 
 763      690AF002 
 764 23b1 D4149777 		.ascii	"\324\024\227w\201\014\325\351\030<\374q\325\351 I\342"
 764      810CD5E9 
 764      183CFC71 
 764      D5E92049 
 764      E2
 765 23c2 74601E75 		.ascii	"t`\036u5\272\222df\356\310\221\331\360u\344\220\036"
 765      35BA9264 
 765      66EEC891 
 765      D9F075E4 
 765      901E
 766 23d4 E46BD6B0 		.ascii	"\344k\326\260\374XN*\311A\007%MMA.\246\237\360\014+"
 766      FC584E2A 
 766      C9410725 
 766      4D4D412E 
 766      A69FF00C 
 767 23e9 50D3F94F 		.ascii	"P\323\371O\216\314\204\264\2550\000\343k\250(\245\320"
 767      8ECC84B4 
 767      AD3000E3 
 767      6BA828A5 
 767      D0
 768 23fa 57E12B0C 		.ascii	"W\341+\014\204\237\353\206\304{}EEA\177(\344\017\335"
ARM GAS  /tmp/cc5qhUpO.s 			page 62


 768      849FEB86 
 768      C47B7D45 
 768      45417F28 
 768      E40FDD
 769 240d 1A2AF282 		.ascii	"\032*\362\202\230\012}\301\242\250\334\354 \347\242"
 769      980A7DC1 
 769      A2A8DCEC 
 769      20E7A2
 770 241c DBE80FD8 		.ascii	"\333\350\017\33081):\251!NA\233\012\011M\243\200M\302"
 770      3831293A 
 770      A9214E41 
 770      9B0A094D 
 770      A3804DC2 
 771 2430 AFD0A678 		.ascii	"\257\320\246x%\312\\\344*\206a\020\306\347\024\310\360"
 771      25CA5CE4 
 771      2A866110 
 771      C6E714C8 
 771      F0
 772 2441 401B3F07 		.ascii	"@\033?\007^-^\177o\311w\363\007A\333\210s\224\217)\332"
 772      5E2D5E7F 
 772      6FC977F3 
 772      0741DB88 
 772      73948F29 
 773 2456 DEDDD82F 		.ascii	"\336\335\330/\320\370\251\304\017\010\224\202\224\355"
 773      D0F8A9C4 
 773      0F089482 
 773      94ED
 774 2464 A049613B 		.ascii	"\240Ia;\210?\354D\016\302\016\242_\341\204\376\253\246"
 774      883FEC44 
 774      0EC20EA2 
 774      5FE184FE 
 774      ABA6
 775 2476 2BE0B840 		.ascii	"+\340\270@zBWLyC\345\225Ab\362\322\331\257\335\351\027"
 775      7A42574C 
 775      7943E595 
 775      4162F2D2 
 775      D9AFDDE9 
 776 248b 6268FD60 		.ascii	"bh\375`\205A$\332\014\227\277\004\355q\032\\\325\274"
 776      854124DA 
 776      0C97BF04 
 776      ED711A5C 
 776      D5BC
 777 249d 54485370 		.ascii	"THSp\012\205\203\030H\025\2621I~\177\226\216l\376\020"
 777      0A858318 
 777      4815B231 
 777      497E7F96 
 777      8E6CFE10 
 778 24b1 9676E07D 		.ascii	"\226v\340}\251\241\"E\213R\363\263\024%rA\212\350P\012"
 778      A9A12245 
 778      8B52F3B3 
 778      14257241 
 778      8AE8500A 
 779 24c5 5C512DAC 		.ascii	"\\Q-\254\361\210C\010\341\361\226@\031\310L\035\303"
 779      F1884308 
 779      E1F19640 
 779      19C84C1D 
 779      C3
ARM GAS  /tmp/cc5qhUpO.s 			page 63


 780 24d6 C0575393 		.ascii	"\300WS\223)j2\365\031u\304\203Tay%8.\301\224g\274\243"
 780      296A32F5 
 780      1975C483 
 780      54617925 
 780      382EC194 
 781 24ed 2B8B6130 		.ascii	"+\213a0p<\343\015\227W\270\340\226`E8\010\327`\021\\"
 781      703CE30D 
 781      9757B8E0 
 781      96604538 
 781      08D76011 
 782 2502 539F292B 		.ascii	"S\237)+\017\007\212\237\003\224g\2744\351|\006\304P"
 782      0F078A9F 
 782      039467BC 
 782      34E97C06 
 782      C450
 783 2514 F6B43380 		.ascii	"\366\2643\200\230]\313+\303L\265\316rLH\201\321R\371"
 783      985DCB2B 
 783      C34CB5CE 
 783      724C4881 
 783      D152F9
 784 2527 E85B46E5 		.ascii	"\350[F\345\017\362\0240\003\303\203\366!\005y\036Ge"
 784      0FF21430 
 784      03C383F6 
 784      2105791E 
 784      4765
 785 2539 C8170C77 		.ascii	"\310\027\014wC\015\033V\026 V\010\272\234\024*\262\225"
 785      430D1B56 
 785      16205608 
 785      BA9C142A 
 785      B295
 786 254b 961449A1 		.ascii	"\226\024I\241\212\356\344\227!\376p\324*t\301[!''\237"
 786      8AEEE497 
 786      21FE70D4 
 786      2A74C15B 
 786      2127279F 
 787 255f AA6B4EFE 		.ascii	"\252kN\376\010\244\276\310\222\321\362\005\307\020\015"
 787      08A4BEC8 
 787      92D1F205 
 787      C7100D
 788 256e 1FE7C366 		.ascii	"\037\347\303f\354\352\365\216)\253,\364*_\323\3764\272"
 788      ECEAF58E 
 788      29AB2CF4 
 788      2A5FD3FE 
 788      34BA
 789 2580 325012BE 		.ascii	"2P\022\276?P\366g\001\034\016%\027\\\320q\324\210\335"
 789      3F50F667 
 789      011C0E25 
 789      175CD071 
 789      D488DD
 790 2593 02D56645 		.ascii	"\002\325fE\015\217+\307\223\235?jx\201#\307\343\315"
 790      0D8F2BC7 
 790      939D3F6A 
 790      788123C7 
 790      E3CD
 791 25a5 7D3C0D62 		.ascii	"}<\015b\350\342\217{\263\301G\206\364\260\221\005$\231"
 791      E8E28F7B 
 791      B3C14786 
ARM GAS  /tmp/cc5qhUpO.s 			page 64


 791      F4B09105 
 791      2499
 792 25b7 0EC991B9 		.ascii	"\016\311\221\271\005\312d\004\277xs\206\015\317V\222"
 792      05CA6404 
 792      BF787386 
 792      0DCF5692 
 793 25c7 79830A86 		.ascii	"y\203\012\206v\303\273\377:h\370\260,\357\310A#\262"
 793      76C3BBFF 
 793      3A68F8B0 
 793      2CEFC841 
 793      23B2
 794 25d9 530952F6 		.ascii	"S\011R\366\310a\331Y)\220\312\376\333\260\374\202\036"
 794      C861D959 
 794      2990CAFE 
 794      DBB0FC82 
 794      1E
 795 25ea CC2DB983 		.ascii	"\314-\271\203\377\0026\244'\344\020K\221\355\315\363"
 795      FF0236A4 
 795      27E4104B 
 795      91EDCDF3 
 796 25fa E4164046 		.ascii	"\344\026@FvVw\346\246,\017\261BJ\335\331#\007\015\036"
 796      765677E6 
 796      A62C0FB1 
 796      424ADDD9 
 796      23070D1E 
 797 260e 4E7F576A 		.ascii	"N\177Wj\317\1772\277 {\004\251x\304\3439\371\336A\203"
 797      CF7F32BF 
 797      207B04A9 
 797      78C4E339 
 797      F9DE4183 
 798 2622 733D0040 		.ascii	"s=\000@h*\0306\";wT\001\241axn\346\343\331Y=\243 \271"
 798      682A1836 
 798      223B7754 
 798      01A16178 
 798      6EE6E3D9 
 799 263b A3860C05 		.ascii	"\243\206\014\005\243\346\311\276\235\334\227\233\353"
 799      A3E6C9BE 
 799      9DDC979B 
 799      EB
 800 2648 1D3168E4 		.ascii	"\0351h\344\223\336\334\274\354\221\024\263\027S?\214"
 800      93DEDCBC 
 800      EC9114B3 
 800      17533F8C 
 801 2658 B4C04941 		.ascii	"\264\300IA\266\307Q\2209t\220\307U\354-%\215\325\005"
 801      B6C75190 
 801      397490C7 
 801      55EC2D25 
 801      8DD505
 802 266b 0498A958 		.ascii	"\004\230\251X\360\302\261\005c\213\362K\374\376\012"
 802      F0C2B105 
 802      638BF24B 
 802      FCFE0A
 803 267a 6254F2C3 		.ascii	"bT\362\303\240\016D\276\271\243\377\033~%*\221Ng\032"
 803      A00E44BE 
 803      B9A3FF1B 
 803      7E252A91 
 803      4E671A
ARM GAS  /tmp/cc5qhUpO.s 			page 65


 804 268d D4A5BBCD 		.ascii	"\324\245\273\315\253L\255\2740G\031\023,\257\254 \003"
 804      AB4CADBC 
 804      30471913 
 804      2CAFAC20 
 804      03
 805 269e AA9493EF 		.ascii	"\252\224\223\357$\2200\316\222\331\344\2030\346f\342"
 805      249030CE 
 805      92D9E483 
 805      30E666E2 
 806 26ae 980B7117 		.ascii	"\230\013q\027jm\362\310\014\205\374\010\316H\326\377"
 806      6A6DF2C8 
 806      0C85FC08 
 806      CE48D6FF 
 807 26be 03BD4A16 		.ascii	"\003\275J\026\020"
 807      10
 808              		.text
 809              		.section	.gnu.lto_.symtab.9f85ff176bd8baed,"",%progbits
 810 0000 73645F69 		.ascii	"sd_is_card_inserted\000\000\000\000\000\000\000\000"
 810      735F6361 
 810      72645F69 
 810      6E736572 
 810      74656400 
 811 001b 00000000 		.ascii	"\000\000\000\000\232\002\000\000sd_is_write_protect"
 811      9A020000 
 811      73645F69 
 811      735F7772 
 811      6974655F 
 812 0036 65640000 		.ascii	"ed\000\000\000\000\000\000\000\000\000\000\000\000\375"
 812      00000000 
 812      00000000 
 812      0000FD
 813 0045 02000073 		.ascii	"\002\000\000sdmmcInitialize\000\000\000\000\000\000"
 813      646D6D63 
 813      496E6974 
 813      69616C69 
 813      7A650000 
 814 005d 00000000 		.ascii	"\000\000\000\000\000\000\001\003\000\000sdmmGetMMCD"
 814      00000103 
 814      00007364 
 814      6D6D4765 
 814      744D4D43 
 815 0072 72697665 		.ascii	"river\000\000\000\000\000\000\000\000\000\000\000\000"
 815      72000000 
 815      00000000 
 815      00000000 
 815      00
 816 0083 BB030000 		.ascii	"\273\003\000\000sdmmcGetFS\000\000\000\000\000\000\000"
 816      73646D6D 
 816      63476574 
 816      46530000 
 816      00000000 
 817 0098 00000000 		.ascii	"\000\000\000\000\000\301\003\000\000sdmmcFSMounted\000"
 817      00C10300 
 817      0073646D 
 817      6D634653 
 817      4D6F756E 
 818 00b0 00000000 		.ascii	"\000\000\000\000\000\000\000\000\000\000\000\307\003"
ARM GAS  /tmp/cc5qhUpO.s 			page 66


 818      00000000 
 818      000000C7 
 818      03
 819 00bd 00005350 		.ascii	"\000\000SPID2\000\000\002\000\000\000\000\000\000\000"
 819      49443200 
 819      00020000 
 819      00000000 
 819      00
 820 00ce 00004204 		.ascii	"\000\000B\004\000\000SPID3\000\000\002\000\000\000\000"
 820      00005350 
 820      49443300 
 820      00020000 
 820      0000
 821 00e0 00000000 		.ascii	"\000\000\000\000\0005\004\000\000chvprintf\000\000\002"
 821      00350400 
 821      00636876 
 821      7072696E 
 821      74660000 
 822 00f5 00000000 		.ascii	"\000\000\000\000\000\000\000\000\000\316\003\000\000"
 822      00000000 
 822      00CE0300 
 822      00
 823 0102 6D6D6344 		.ascii	"mmcDisconnect\000\000\002\000\000\000\000\000\000\000"
 823      6973636F 
 823      6E6E6563 
 823      74000002 
 823      00000000 
 824 0119 0000DD03 		.ascii	"\000\000\335\003\000\000f_mount\000\000\002\000\000"
 824      0000665F 
 824      6D6F756E 
 824      74000002 
 824      0000
 825 012b 00000000 		.ascii	"\000\000\000\000\000\000\000\337\003\000\000mmcConn"
 825      000000DF 
 825      0300006D 
 825      6D63436F 
 825      6E6E
 826 013d 65637400 		.ascii	"ect\000\000\002\000\000\000\000\000\000\000\000\000"
 826      00020000 
 826      00000000 
 826      000000
 827 014c 17040000 		.ascii	"\027\004\000\000chThdSleep\000\000\002\000\000\000\000"
 827      63685468 
 827      64536C65 
 827      65700000 
 827      02000000 
 828 0161 00000000 		.ascii	"\000\000\000\000\000\031\004\000\000mmcStart\000\000"
 828      00190400 
 828      006D6D63 
 828      53746172 
 828      740000
 829 0174 02000000 		.ascii	"\002\000\000\000\000\000\000\000\000\000\035\004\000"
 829      00000000 
 829      00001D04 
 829      00
 830 0181 006D6D63 		.ascii	"\000mmcObjectInit\000\000\002\000\000\000\000\000\000"
 830      4F626A65 
ARM GAS  /tmp/cc5qhUpO.s 			page 67


 830      6374496E 
 830      69740000 
 830      02000000 
 831 0198 00000022 		.ascii	"\000\000\000\"\004\000\000_pal_lld_setgroupmode\000"
 831      0400005F 
 831      70616C5F 
 831      6C6C645F 
 831      73657467 
 832 01b5 00020000 		.ascii	"\000\002\000\000\000\000\000\000\000\000\000&\004\000"
 832      00000000 
 832      00000026 
 832      0400
 833 01c3 00       		.ascii	"\000"
 834              		.text
 835              		.section	.gnu.lto_.opts,"",%progbits
 836 0000 272D6D63 		.ascii	"'-mcpu=cortex-m4' '-mfloat-abi=hard' '-mfpu=fpv4-sp"
 836      70753D63 
 836      6F727465 
 836      782D6D34 
 836      2720272D 
 837 0033 2D643136 		.ascii	"-d16' '-mno-thumb-interwork' '-mthumb' '-O2' '-fomi"
 837      2720272D 
 837      6D6E6F2D 
 837      7468756D 
 837      622D696E 
 838 0066 742D6672 		.ascii	"t-frame-pointer' '-falign-functions=16' '-ffunction"
 838      616D652D 
 838      706F696E 
 838      74657227 
 838      20272D66 
 839 0099 2D736563 		.ascii	"-sections' '-fdata-sections' '-fno-common' '-flto' "
 839      74696F6E 
 839      73272027 
 839      2D666461 
 839      74612D73 
 840 00cc 272D6673 		.ascii	"'-fsingle-precision-constant'\000"
 840      696E676C 
 840      652D7072 
 840      65636973 
 840      696F6E2D 
 841              		.text
 842              		.section	.text.chprintf,"ax",%progbits
 843              		.align	2
 844              		.p2align 4,,15
 845              		.thumb
 846              		.thumb_func
 847              		.type	chprintf, %function
 848              	chprintf:
 849              		@ args = 4, pretend = 12, frame = 8
 850              		@ frame_needed = 0, uses_anonymous_args = 1
 851 0000 0EB4     		push	{r1, r2, r3}
 852 0002 00B5     		push	{lr}
 853 0004 82B0     		sub	sp, sp, #8
 854 0006 03AA     		add	r2, sp, #12
 855 0008 52F8041B 		ldr	r1, [r2], #4
 856 000c 0192     		str	r2, [sp, #4]
 857 000e FFF7FEFF 		bl	chvprintf
ARM GAS  /tmp/cc5qhUpO.s 			page 68


 858 0012 02B0     		add	sp, sp, #8
 859              		@ sp needed
 860 0014 5DF804EB 		ldr	lr, [sp], #4
 861 0018 03B0     		add	sp, sp, #12
 862 001a 7047     		bx	lr
 863              		.size	chprintf, .-chprintf
 864 001c AFF30080 		.section	.text.sd_is_card_inserted,"ax",%progbits
 865              		.align	2
 866              		.p2align 4,,15
 867              		.global	sd_is_card_inserted
 868              		.thumb
 869              		.thumb_func
 870              		.type	sd_is_card_inserted, %function
 871              	sd_is_card_inserted:
 872              		@ args = 0, pretend = 0, frame = 0
 873              		@ frame_needed = 0, uses_anonymous_args = 0
 874              		@ link register save eliminated.
 875 0000 024B     		ldr	r3, .L3
 876 0002 1869     		ldr	r0, [r3, #16]
 877 0004 C0F38000 		ubfx	r0, r0, #2, #1
 878 0008 7047     		bx	lr
 879              	.L4:
 880 000a 00BF     		.align	2
 881              	.L3:
 882 000c 000C0240 		.word	1073875968
 883              		.size	sd_is_card_inserted, .-sd_is_card_inserted
 884              		.section	.text.sd_is_write_protected,"ax",%progbits
 885              		.align	2
 886              		.p2align 4,,15
 887              		.global	sd_is_write_protected
 888              		.thumb
 889              		.thumb_func
 890              		.type	sd_is_write_protected, %function
 891              	sd_is_write_protected:
 892              		@ args = 0, pretend = 0, frame = 0
 893              		@ frame_needed = 0, uses_anonymous_args = 0
 894              		@ link register save eliminated.
 895 0000 0020     		movs	r0, #0
 896 0002 7047     		bx	lr
 897              		.size	sd_is_write_protected, .-sd_is_write_protected
 898 0004 AFF30080 		.section	.text.sdmmcInitialize,"ax",%progbits
 898      AFF30080 
 898      AFF30080 
 899              		.align	2
 900              		.p2align 4,,15
 901              		.global	sdmmcInitialize
 902              		.thumb
 903              		.thumb_func
 904              		.type	sdmmcInitialize, %function
 905              	sdmmcInitialize:
 906              		@ args = 0, pretend = 0, frame = 0
 907              		@ frame_needed = 0, uses_anonymous_args = 0
 908 0000 F8B5     		push	{r3, r4, r5, r6, r7, lr}
 909 0002 0446     		mov	r4, r0
 910 0004 3C4D     		ldr	r5, .L20
 911 0006 3D4F     		ldr	r7, .L20+4
 912 0008 DFF82CE1 		ldr	lr, .L20+64
ARM GAS  /tmp/cc5qhUpO.s 			page 69


 913 000c 3C48     		ldr	r0, .L20+8
 914 000e 3D4E     		ldr	r6, .L20+12
 915 0010 2160     		str	r1, [r4]
 916 0012 0023     		movs	r3, #0
 917 0014 A360     		str	r3, [r4, #8]
 918 0016 6373     		strb	r3, [r4, #13]
 919 0018 6060     		str	r0, [r4, #4]
 920 001a 2A60     		str	r2, [r5]
 921 001c 3846     		mov	r0, r7
 922 001e 4FF48061 		mov	r1, #1024
 923 0022 1922     		movs	r2, #25
 924 0024 CEF80040 		str	r4, [lr]
 925 0028 FFF7FEFF 		bl	_pal_lld_setgroupmode
 926 002c 3046     		mov	r0, r6
 927 002e 0421     		movs	r1, #4
 928 0030 2022     		movs	r2, #32
 929 0032 FFF7FEFF 		bl	_pal_lld_setgroupmode
 930 0036 3448     		ldr	r0, .L20+16
 931 0038 2021     		movs	r1, #32
 932 003a 40F29A22 		movw	r2, #666
 933 003e FFF7FEFF 		bl	_pal_lld_setgroupmode
 934 0042 3148     		ldr	r0, .L20+16
 935 0044 8021     		movs	r1, #128
 936 0046 40F29A22 		movw	r2, #666
 937 004a FFF7FEFF 		bl	_pal_lld_setgroupmode
 938 004e 4021     		movs	r1, #64
 939 0050 40F28222 		movw	r2, #642
 940 0054 2C48     		ldr	r0, .L20+16
 941 0056 FFF7FEFF 		bl	_pal_lld_setgroupmode
 942 005a 2068     		ldr	r0, [r4]
 943 005c FFF7FEFF 		bl	mmcObjectInit
 944 0060 2068     		ldr	r0, [r4]
 945 0062 2A49     		ldr	r1, .L20+20
 946 0064 FFF7FEFF 		bl	mmcStart
 947 0068 3369     		ldr	r3, [r6, #16]
 948 006a 5B07     		lsls	r3, r3, #29
 949 006c 2CD5     		bpl	.L17
 950 006e 2849     		ldr	r1, .L20+24
 951 0070 2868     		ldr	r0, [r5]
 952 0072 FFF7FEFF 		bl	chprintf
 953 0076 4FF48063 		mov	r3, #1024
 954 007a 7B83     		strh	r3, [r7, #26]	@ movhi
 955 007c 4FF4FA60 		mov	r0, #2000
 956 0080 FFF7FEFF 		bl	chThdSleep
 957 0084 2349     		ldr	r1, .L20+28
 958 0086 2868     		ldr	r0, [r5]
 959 0088 FFF7FEFF 		bl	chprintf
 960 008c 2068     		ldr	r0, [r4]
 961 008e FFF7FEFF 		bl	mmcConnect
 962 0092 2149     		ldr	r1, .L20+32
 963 0094 0746     		mov	r7, r0
 964 0096 2868     		ldr	r0, [r5]
 965 0098 FFF7FEFF 		bl	chprintf
 966 009c DFB9     		cbnz	r7, .L18
 967 009e 1F49     		ldr	r1, .L20+36
 968 00a0 2868     		ldr	r0, [r5]
 969 00a2 FFF7FEFF 		bl	chprintf
ARM GAS  /tmp/cc5qhUpO.s 			page 70


 970 00a6 1E48     		ldr	r0, .L20+40
 971 00a8 A060     		str	r0, [r4, #8]
 972 00aa 1E49     		ldr	r1, .L20+44
 973 00ac 3A46     		mov	r2, r7
 974 00ae FFF7FEFF 		bl	f_mount
 975 00b2 0646     		mov	r6, r0
 976 00b4 2868     		ldr	r0, [r5]
 977 00b6 B6B9     		cbnz	r6, .L19
 978 00b8 1B49     		ldr	r1, .L20+48
 979 00ba FFF7FEFF 		bl	chprintf
 980 00be 0123     		movs	r3, #1
 981 00c0 3046     		mov	r0, r6
 982 00c2 6373     		strb	r3, [r4, #13]
 983              	.L9:
 984 00c4 40B2     		sxtb	r0, r0
 985 00c6 F8BD     		pop	{r3, r4, r5, r6, r7, pc}
 986              	.L17:
 987 00c8 2868     		ldr	r0, [r5]
 988 00ca 1849     		ldr	r1, .L20+52
 989 00cc FFF7FEFF 		bl	chprintf
 990 00d0 FD20     		movs	r0, #253
 991 00d2 40B2     		sxtb	r0, r0
 992 00d4 F8BD     		pop	{r3, r4, r5, r6, r7, pc}
 993              	.L18:
 994 00d6 2868     		ldr	r0, [r5]
 995 00d8 1549     		ldr	r1, .L20+56
 996 00da 0122     		movs	r2, #1
 997 00dc FFF7FEFF 		bl	chprintf
 998 00e0 0120     		movs	r0, #1
 999 00e2 40B2     		sxtb	r0, r0
 1000 00e4 F8BD     		pop	{r3, r4, r5, r6, r7, pc}
 1001              	.L19:
 1002 00e6 1349     		ldr	r1, .L20+60
 1003 00e8 FFF7FEFF 		bl	chprintf
 1004 00ec 2068     		ldr	r0, [r4]
 1005 00ee FFF7FEFF 		bl	mmcDisconnect
 1006 00f2 A760     		str	r7, [r4, #8]
 1007 00f4 FE20     		movs	r0, #254
 1008 00f6 E5E7     		b	.L9
 1009              	.L21:
 1010              		.align	2
 1011              	.L20:
 1012 00f8 00000000 		.word	.LANCHOR0
 1013 00fc 00080240 		.word	1073874944
 1014 0100 00000000 		.word	SPID2
 1015 0104 000C0240 		.word	1073875968
 1016 0108 00000240 		.word	1073872896
 1017 010c 00000000 		.word	.LANCHOR2
 1018 0110 98000000 		.word	.LC6
 1019 0114 AC000000 		.word	.LC7
 1020 0118 C0000000 		.word	.LC8
 1021 011c 20000000 		.word	.LC1
 1022 0120 00000000 		.word	.LANCHOR3
 1023 0124 3C000000 		.word	.LC2
 1024 0128 60000000 		.word	.LC4
 1025 012c 7C000000 		.word	.LC5
 1026 0130 00000000 		.word	.LC0
ARM GAS  /tmp/cc5qhUpO.s 			page 71


 1027 0134 40000000 		.word	.LC3
 1028 0138 00000000 		.word	.LANCHOR1
 1029              		.size	sdmmcInitialize, .-sdmmcInitialize
 1030 013c AFF30080 		.section	.text.sdmmGetMMCDriver,"ax",%progbits
 1031              		.align	2
 1032              		.p2align 4,,15
 1033              		.global	sdmmGetMMCDriver
 1034              		.thumb
 1035              		.thumb_func
 1036              		.type	sdmmGetMMCDriver, %function
 1037              	sdmmGetMMCDriver:
 1038              		@ args = 0, pretend = 0, frame = 0
 1039              		@ frame_needed = 0, uses_anonymous_args = 0
 1040              		@ link register save eliminated.
 1041 0000 037B     		ldrb	r3, [r0, #12]	@ zero_extendqisi2
 1042 0002 0BB1     		cbz	r3, .L24
 1043 0004 0068     		ldr	r0, [r0]
 1044 0006 7047     		bx	lr
 1045              	.L24:
 1046 0008 1846     		mov	r0, r3
 1047 000a 7047     		bx	lr
 1048              		.size	sdmmGetMMCDriver, .-sdmmGetMMCDriver
 1049 000c AFF30080 		.section	.text.sdmmcGetFS,"ax",%progbits
 1050              		.align	2
 1051              		.p2align 4,,15
 1052              		.global	sdmmcGetFS
 1053              		.thumb
 1054              		.thumb_func
 1055              		.type	sdmmcGetFS, %function
 1056              	sdmmcGetFS:
 1057              		@ args = 0, pretend = 0, frame = 0
 1058              		@ frame_needed = 0, uses_anonymous_args = 0
 1059              		@ link register save eliminated.
 1060 0000 437B     		ldrb	r3, [r0, #13]	@ zero_extendqisi2
 1061 0002 0BB1     		cbz	r3, .L27
 1062 0004 8068     		ldr	r0, [r0, #8]
 1063 0006 7047     		bx	lr
 1064              	.L27:
 1065 0008 1846     		mov	r0, r3
 1066 000a 7047     		bx	lr
 1067              		.size	sdmmcGetFS, .-sdmmcGetFS
 1068 000c AFF30080 		.section	.text.sdmmcFSMounted,"ax",%progbits
 1069              		.align	2
 1070              		.p2align 4,,15
 1071              		.global	sdmmcFSMounted
 1072              		.thumb
 1073              		.thumb_func
 1074              		.type	sdmmcFSMounted, %function
 1075              	sdmmcFSMounted:
 1076              		@ args = 0, pretend = 0, frame = 0
 1077              		@ frame_needed = 0, uses_anonymous_args = 0
 1078              		@ link register save eliminated.
 1079 0000 407B     		ldrb	r0, [r0, #13]	@ zero_extendqisi2
 1080 0002 7047     		bx	lr
 1081              		.size	sdmmcFSMounted, .-sdmmcFSMounted
 1082 0004 AFF30080 		.section	.data.hsCfg,"aw",%progbits
 1082      AFF30080 
ARM GAS  /tmp/cc5qhUpO.s 			page 72


 1082      AFF30080 
 1083              		.align	2
 1084              		.type	hsCfg, %object
 1085              		.size	hsCfg, 12
 1086              	hsCfg:
 1087 0000 00000000 		.word	0
 1088 0004 00080240 		.word	1073874944
 1089 0008 0A00     		.short	10
 1090 000a 1000     		.short	16
 1091              		.section	.data.mmcCfg,"aw",%progbits
 1092              		.align	2
 1093              		.set	.LANCHOR2,. + 0
 1094              		.type	mmcCfg, %object
 1095              		.size	mmcCfg, 12
 1096              	mmcCfg:
 1097 0000 00000000 		.word	SPID3
 1098 0004 00000000 		.word	lsCfg
 1099 0008 00000000 		.word	hsCfg
 1100              		.section	.bss.serialPort,"aw",%nobits
 1101              		.align	2
 1102              		.set	.LANCHOR0,. + 0
 1103              		.type	serialPort, %object
 1104              		.size	serialPort, 4
 1105              	serialPort:
 1106 0000 00000000 		.space	4
 1107              		.section	.bss.SD,"aw",%nobits
 1108              		.align	2
 1109              		.set	.LANCHOR1,. + 0
 1110              		.type	SD, %object
 1111              		.size	SD, 4
 1112              	SD:
 1113 0000 00000000 		.space	4
 1114              		.section	.rodata.str1.4,"aMS",%progbits,1
 1115              		.align	2
 1116              	.LC0:
 1117 0000 53442F4D 		.ascii	"SD/MMC:ERROR Connect,ERR%02d\012\000"
 1117      4D433A45 
 1117      52524F52 
 1117      20436F6E 
 1117      6E656374 
 1118 001e 0000     		.space	2
 1119              	.LC1:
 1120 0020 53442F4D 		.ascii	"SD/MMC: Connection Done\012\000"
 1120      4D433A20 
 1120      436F6E6E 
 1120      65637469 
 1120      6F6E2044 
 1121 0039 000000   		.space	3
 1122              	.LC2:
 1123 003c 2F00     		.ascii	"/\000"
 1124 003e 0000     		.space	2
 1125              	.LC3:
 1126 0040 53442F4D 		.ascii	"SD/MMC:File System Mount Error\012\000"
 1126      4D433A46 
 1126      696C6520 
 1126      53797374 
 1126      656D204D 
ARM GAS  /tmp/cc5qhUpO.s 			page 73


 1127              	.LC4:
 1128 0060 53442F4D 		.ascii	"SD/MMC:File System Mounted\012\000"
 1128      4D433A46 
 1128      696C6520 
 1128      53797374 
 1128      656D204D 
 1129              	.LC5:
 1130 007c 53442F4D 		.ascii	"SD/MMC:No SD Card Found\012\000"
 1130      4D433A4E 
 1130      6F205344 
 1130      20436172 
 1130      6420466F 
 1131 0095 000000   		.space	3
 1132              	.LC6:
 1133 0098 53442F4D 		.ascii	"SD/MMC:Card Found\012\000"
 1133      4D433A43 
 1133      61726420 
 1133      466F756E 
 1133      640A00
 1134 00ab 00       		.space	1
 1135              	.LC7:
 1136 00ac 53442F4D 		.ascii	"SD/MMC:Connecting\012\000"
 1136      4D433A43 
 1136      6F6E6E65 
 1136      6374696E 
 1136      670A00
 1137 00bf 00       		.space	1
 1138              	.LC8:
 1139 00c0 53442F4D 		.ascii	"SD/MMC:End of Connection attempt\012\000"
 1139      4D433A45 
 1139      6E64206F 
 1139      6620436F 
 1139      6E6E6563 
 1140 00e2 0000     		.section	.data.lsCfg,"aw",%progbits
 1141              		.align	2
 1142              		.type	lsCfg, %object
 1143              		.size	lsCfg, 12
 1144              	lsCfg:
 1145 0000 00000000 		.word	0
 1146 0004 00080240 		.word	1073874944
 1147 0008 0A00     		.short	10
 1148 000a 3000     		.short	48
 1149              		.section	.bss.FS,"aw",%nobits
 1150              		.align	2
 1151              		.set	.LANCHOR3,. + 0
 1152              		.type	FS, %object
 1153              		.size	FS, 560
 1154              	FS:
 1155 0000 00000000 		.space	560
 1155      00000000 
 1155      00000000 
 1155      00000000 
 1155      00000000 
 1156              		.comm	__gnu_lto_v1,1,1
 1157              		.ident	"GCC: (GNU Tools for ARM Embedded Processors) 4.8.4 20140526 (release) [ARM/embedded-4_8-br
ARM GAS  /tmp/cc5qhUpO.s 			page 74


DEFINED SYMBOLS
                            *ABS*:0000000000000000 sdmmcsimple.c
     /tmp/cc5qhUpO.s:843    .text.chprintf:0000000000000000 $t
     /tmp/cc5qhUpO.s:848    .text.chprintf:0000000000000000 chprintf
     /tmp/cc5qhUpO.s:865    .text.sd_is_card_inserted:0000000000000000 $t
     /tmp/cc5qhUpO.s:871    .text.sd_is_card_inserted:0000000000000000 sd_is_card_inserted
     /tmp/cc5qhUpO.s:882    .text.sd_is_card_inserted:000000000000000c $d
     /tmp/cc5qhUpO.s:885    .text.sd_is_write_protected:0000000000000000 $t
     /tmp/cc5qhUpO.s:891    .text.sd_is_write_protected:0000000000000000 sd_is_write_protected
     /tmp/cc5qhUpO.s:899    .text.sdmmcInitialize:0000000000000000 $t
     /tmp/cc5qhUpO.s:905    .text.sdmmcInitialize:0000000000000000 sdmmcInitialize
     /tmp/cc5qhUpO.s:1012   .text.sdmmcInitialize:00000000000000f8 $d
     /tmp/cc5qhUpO.s:1031   .text.sdmmGetMMCDriver:0000000000000000 $t
     /tmp/cc5qhUpO.s:1037   .text.sdmmGetMMCDriver:0000000000000000 sdmmGetMMCDriver
     /tmp/cc5qhUpO.s:1050   .text.sdmmcGetFS:0000000000000000 $t
     /tmp/cc5qhUpO.s:1056   .text.sdmmcGetFS:0000000000000000 sdmmcGetFS
     /tmp/cc5qhUpO.s:1069   .text.sdmmcFSMounted:0000000000000000 $t
     /tmp/cc5qhUpO.s:1075   .text.sdmmcFSMounted:0000000000000000 sdmmcFSMounted
     /tmp/cc5qhUpO.s:1083   .data.hsCfg:0000000000000000 $d
     /tmp/cc5qhUpO.s:1086   .data.hsCfg:0000000000000000 hsCfg
     /tmp/cc5qhUpO.s:1092   .data.mmcCfg:0000000000000000 $d
     /tmp/cc5qhUpO.s:1096   .data.mmcCfg:0000000000000000 mmcCfg
     /tmp/cc5qhUpO.s:1144   .data.lsCfg:0000000000000000 lsCfg
     /tmp/cc5qhUpO.s:1101   .bss.serialPort:0000000000000000 $d
     /tmp/cc5qhUpO.s:1105   .bss.serialPort:0000000000000000 serialPort
     /tmp/cc5qhUpO.s:1108   .bss.SD:0000000000000000 $d
     /tmp/cc5qhUpO.s:1112   .bss.SD:0000000000000000 SD
     /tmp/cc5qhUpO.s:1115   .rodata.str1.4:0000000000000000 $d
     /tmp/cc5qhUpO.s:1141   .data.lsCfg:0000000000000000 $d
     /tmp/cc5qhUpO.s:1150   .bss.FS:0000000000000000 $d
     /tmp/cc5qhUpO.s:1154   .bss.FS:0000000000000000 FS
                            *COM*:0000000000000001 __gnu_lto_v1
     /tmp/cc5qhUpO.s:1030   .text.sdmmcInitialize:000000000000013c $t

UNDEFINED SYMBOLS
chvprintf
_pal_lld_setgroupmode
mmcObjectInit
mmcStart
chThdSleep
mmcConnect
f_mount
mmcDisconnect
SPID2
SPID3
