ARM GAS  /tmp/ccEZ1ckG.s 			page 1


   1              		.syntax unified
   2              		.cpu cortex-m4
   3              		.eabi_attribute 27, 3
   4              		.eabi_attribute 28, 1
   5              		.fpu fpv4-sp-d16
   6              		.eabi_attribute 20, 1
   7              		.eabi_attribute 21, 1
   8              		.eabi_attribute 23, 3
   9              		.eabi_attribute 24, 1
  10              		.eabi_attribute 25, 1
  11              		.eabi_attribute 26, 1
  12              		.eabi_attribute 30, 2
  13              		.eabi_attribute 34, 1
  14              		.eabi_attribute 18, 4
  15              		.thumb
  16              		.file	"serial_lld.c"
  17              		.section	.gnu.lto_.jmpfuncs.bd59b9e03b2c3fcc,"",%progbits
  18 0000 789C6D8E 		.ascii	"x\234m\216\261\016\2030\020C\355\273\200P\241\022k7"
  18      B10E8330 
  18      1043EDBB 
  18      8050A112 
  18      6B37
  19 0012 A6FC0ABF 		.ascii	"\246\374\012\277\300\336)C\277\240KF\276\231\251pW\""
  19      C0DE2943 
  19      BFA04B46 
  19      BE99A970 
  19      5722
  20 0024 0464489C 		.ascii	"\004dH\234g\3079\201\340n\275\350g\013\020\242\022\206"
  20      67C73981 
  20      E06EBDE8 
  20      670B10A2 
  20      1286
  21 0036 C44D02CA 		.ascii	"\304M\002\312\365\205LLd\017\024\335\230ke\373\346F"
  21      F5854C4C 
  21      640F14DD 
  21      986B65FB 
  21      E646
  22 0048 0E40D00A 		.ascii	"\016@\320\012\264\253D\240^\243\362\305\222\347\334"
  22      B4AB44A0 
  22      5EA3F2C5 
  22      92E7DC
  23 0057 27EAC7BF 		.ascii	"'\352\307\277j\316\324\360\003z\205\326\0246Q\254\352"
  23      6ACED4F0 
  23      037A85D6 
  23      143651AC 
  23      EA
  24 0068 ED2D7A2D 		.ascii	"\355-z-\276O\233\327\252\317\352\243\215\377\254t\005"
  24      BE4F9BD7 
  24      AACFEAA3 
  24      8DFFAC74 
  24      05
  25 0079 C5037A92 		.ascii	"\305\003z\222%\007\374\000\250s\"\253"
  25      2507FC00 
  25      A87322AB 
  26              		.text
  27              		.section	.gnu.lto_.inline.bd59b9e03b2c3fcc,"",%progbits
  28 0000 789C7D52 		.ascii	"x\234}R\277\213\023A\024~ov\262\331d7\260\312iPB\262"
ARM GAS  /tmp/ccEZ1ckG.s 			page 2


  28      BF8B1341 
  28      147E6F76 
  28      B2D96437 
  28      B0CA6950 
  29 0016 DD6173E3 		.ascii	"\335as\343\217\177`\005-\2243\205w\202\335\221K\302"
  29      8F7F6005 
  29      2D943385 
  29      7782DD91 
  29      4BC2
  30 0028 6D306724 		.ascii	"m0g$9\017\344\232)NH\031,\256\224\350\035h\255\215\330"
  30      390FE49A 
  30      294E4819 
  30      2CAE94E8 
  30      1D68AD8D 
  31 003d 984EC446 		.ascii	"\230N\304F\344\012\013\005\013\213+\255\017\004\337"
  31      E40A0B05 
  31      0B8B2BAD 
  31      0F04DF
  32 004c 9BD90DB7 		.ascii	"\233\331\015\267*n\361~|\337\233\3317\337{\002\004\374"
  32      2A6EF17E 
  32      7CDF9BD9 
  32      37DF7B02 
  32      04FC
  33 005e EB7BEC00 		.ascii	"\353{\354\000\334$\357\003\270\005\004\341\376\\\002"
  33      DC24EF03 
  33      B80504E1 
  33      FE5C02
  34 006d 77DA30C5 		.ascii	"w\3320\305\3707$\340L\015\005\242\245\001\350\264\345"
  34      F83724E0 
  34      4C0D05A2 
  34      A501E8B4 
  34      E5
  35 007e EA878728 		.ascii	"\352\207\207(\031u\002\252\2324'M\007\336\303\023\201"
  35      197502AA 
  35      9A34274D 
  35      07DEC313 
  35      81
  36 008f 82EB9CE9 		.ascii	"\202\353\234\351uS.\327>\374\012\240\364\356\002\241"
  36      75532ED7 
  36      3EFC0AA0 
  36      F4EE02A1 
  37 009f 474569ED 		.ascii	"GEi\355\211S9\217tG@\377\377VL\203\317\3479\260\005"
  37      8953398F 
  37      744740FF 
  37      FF564C83 
  37      CFE739B0 
  38 00b4 12CED5B1 		.ascii	"\022\316\325\261\004\033w\261\207\256\236\356j\276&"
  38      041B77B1 
  38      87AE9EEE 
  38      6ABE26
  39 00c3 C96529F7 		.ascii	"\311e)\3672\307\245\0317\303\257p\254\275hlllt\232\037"
  39      32C7A519 
  39      37C3AF70 
  39      ACBD686C 
  39      6C6C749A 
  40 00d8 1C4C9A02 		.ascii	"\034L\232\002\344\264\021\203\034\327b\017\360\205\253"
  40      E4B41183 
ARM GAS  /tmp/ccEZ1ckG.s 			page 3


  40      1CD7620F 
  40      F085AB
  41 00e7 31F20438 		.ascii	"1\362\0048\257w\221#F87\016pF\340\002\261\263\006yN"
  41      AF779123 
  41      4638370E 
  41      7046E002 
  41      B1B30679 
  42 00fc 2961CB2F 		.ascii	")a\313/\324\202\2107Um\236\253\245M\244I<\233x\254A"
  42      D4828837 
  42      556D9EAB 
  42      A54DA449 
  42      3C9B78AC 
  43 0111 01BCF04F 		.ascii	"\001\274\360O\271}3\005p\253h\3467\237LyNz\377#\313"
  43      B97D3305 
  43      70AB68E6 
  43      379F4C79 
  43      4E7AFF23 
  44 0126 50A91349 		.ascii	"P\251\023I\357\230\263\262b\247\226y\037jg\321G#V\221"
  44      EF98B3B2 
  44      62A79679 
  44      1F6A67D1 
  44      47235691 
  45 013a 4F275964 		.ascii	"O'Yd\005\364\220\204\261\352\331pc\007\216\365X\177"
  45      05F49084 
  45      B1EAD970 
  45      63078EF5 
  45      587F
  46 014c DF7FFB91 		.ascii	"\337\177\373\2210g\023\355\"%-|\206;|\312\362\263Wu"
  46      306713ED 
  46      22252D7C 
  46      863B7CCA 
  46      F2B35775 
  47 0160 C362C63E 		.ascii	"\303b\306>gv\2769t\021\207\036\211\000\305\361\242\321"
  47      6776BE39 
  47      7411871E 
  47      8900C5F1 
  47      A2D1
  48 0172 9A64604D 		.ascii	"\232d`MB\001\205\361\242\016\301\373T\325Q\010\356\036"
  48      420185F1 
  48      A20EC1FB 
  48      54D55108 
  48      EE1E
  49 0184 C6647FA0 		.ascii	"\306d\177\240\026a~\303\002`H\030(6A\005\026J\331Z\260"
  49      16617EC3 
  49      02604818 
  49      28364105 
  49      164AD95A 
  50 0199 B659E7E2 		.ascii	"\266Y\347\342D\347\263\247\215|\337\373\271\276\367"
  50      44E7B3A7 
  50      8D7CDFFB 
  50      B9BEF7
  51 01a8 D6F37D1F 		.ascii	"\326\363}\037\030v\336r\266\312\345L\361t\300\3342%"
  51      1876DE72 
  51      B6CAE54C 
  51      F174C0DC 
  51      3225
  52 01ba C7424B99 		.ascii	"\307BK\231yp\277\236\222 \217|\355\221; \027\021\366"
ARM GAS  /tmp/ccEZ1ckG.s 			page 4


  52      7970BF9E 
  52      92208F7C 
  52      ED913B20 
  52      1711F6
  53 01cd 05E348A6 		.ascii	"\005\343H\246\323\345\010yb!#7T2\330\354\252\366\240"
  53      D3E50879 
  53      62212337 
  53      5432D8EC 
  53      AAF6A0
  54 01e0 F34875BA 		.ascii	"\363Hu\272\333\252\235\364\326{\203\221\332\032>\274"
  54      DBAA9DF4 
  54      D67B8391 
  54      DA1A3EBC 
  55 01f0 7F4F5190 		.ascii	"\177OQ\220\264\372\352\301`\2705R+\253\267\256\\V\313"
  55      B4FAEAC1 
  55      60B83552 
  55      2BABB7AE 
  55      5C56CB
  56 0203 CBD7D49D 		.ascii	"\313\327\324\235\225\253\267W\267/\251Qw\330k\365\327"
  56      95ABB757 
  56      B72FA951 
  56      77D86BF5 
  56      D7
  57 0214 FAFDCE52 		.ascii	"\372\375\316R\033~\003e\361\237\212"
  57      1B7E0365 
  57      F19F8A
  58              		.text
  59              		.section	.gnu.lto_.pureconst.bd59b9e03b2c3fcc,"",%progbits
  60 0000 789C6362 		.ascii	"x\234cb`b\020g\200\000n\006)F)&\011f+\026)V)6\011\016"
  60      60621067 
  60      80006E06 
  60      29462926 
  60      09662B16 
  61 001a 092E096E 		.ascii	"\011.\011n)^)\000\024)\001\234"
  61      295E2900 
  61      1429019C 
  62              		.text
  63              		.section	.gnu.lto_notify2.bd59b9e03b2c3fcc,"",%progbits
  64 0000 789C6362 		.ascii	"x\234cb`b@\007\222@\374\023\210\275\201\230\221\231"
  64      60624007 
  64      9240FC13 
  64      88BD8198 
  64      9199
  65 0012 819169C2 		.ascii	"\201\221i\3029\006\206F\016&FF\020\203\201\221\241\236"
  65      39068646 
  65      0E264646 
  65      10838191 
  65      A19E
  66 0024 89B13E92 		.ascii	"\211\261>\222\021\254v=\323\201\007\377\377\257\273"
  66      11AC763D 
  66      D38107FF 
  66      FFAFBB
  67 0033 766ED91F 		.ascii	"vn\331\037\306]L\254L\014\231\214\014\314 \002\010X"
  67      C65D4CAC 
  67      4C0C998C 
  67      0CCC2002 
  67      0858
ARM GAS  /tmp/ccEZ1ckG.s 			page 5


  68 0045 195A1A1A 		.ascii	"\031Z\032\032&(00$\203\271!@\022d@(#\023\210f>\313p"
  68      26283030 
  68      2483B921 
  68      40126440 
  68      28231388 
  69 005d E8D68DD7 		.ascii	"\350\326\215\327?\031\023\031\0272\2622\24432i3\254"
  69      3F191319 
  69      1732B232 
  69      A4333269 
  69      33AC
  70 006f 6A686914 		.ascii	"jhi\024\310dd\234\3150\2131\223\221)\002H07t46\2600"
  70      C864649C 
  70      CD308B31 
  70      93912902 
  70      48303774 
  71 0087 8099601B 		.ascii	"\200\231`\033\223\030a\356<\313\320\274\223\031\246"
  71      931861EE 
  71      3CCBD0BC 
  71      9319A6
  72 0096 9B391DA2 		.ascii	"\2339\035\242\236\241\201\021,u\310\023\"C\232\241\351"
  72      9EA18111 
  72      2C75C813 
  72      22439AA1 
  72      E9
  73 00a7 20FE4586 		.ascii	" \376E\206\306\007\353\325!\332a \204\221\021\344hP"
  73      C607EBD5 
  73      21DA6120 
  73      849111E4 
  73      6850
  74 00b9 6079EA67 		.ascii	"`y\352g\344\347\246\352'\347\247T\352\247\244\226\351"
  74      E4E7A6EA 
  74      27E7A754 
  74      EAA7A496 
  74      E9
  75 00ca 27676426 		.ascii	"'gd&e\346\027\353\227\024\225\346e\353\003\031\031\211"
  75      65E617EB 
  75      971495E6 
  75      65EB0319 
  75      1989
  76 00dc 39FA05F9 		.ascii	"9\372\005\371E%\305\372\301!\276\306F\372>>.\372\241"
  76      4525C5FA 
  76      C121BEC6 
  76      46FA3E3E 
  76      2EFAA1
  77 00ef C18E4121 		.ascii	"\301\216A!e\206\372\305\251E\231\2119\36199)z\311\014"
  77      6586FAC5 
  77      A9459989 
  77      39F13939 
  77      297AC90C 
  78 0103 00D3E555 		.ascii	"\000\323\345UD"
  78      44
  79              		.text
  80              		.section	.gnu.lto_notify6.bd59b9e03b2c3fcc,"",%progbits
  81 0000 789C6362 		.ascii	"x\234cb`b@\007\222@\374\023\210\275\201\230\221\231"
  81      60624007 
  81      9240FC13 
  81      88BD8198 
ARM GAS  /tmp/ccEZ1ckG.s 			page 6


  81      9199
  82 0012 819169C2 		.ascii	"\201\221i\3029\006\206F\016&FF\020\203\201\221\241\236"
  82      39068646 
  82      0E264646 
  82      10838191 
  82      A19E
  83 0024 89B13E92 		.ascii	"\211\261>\222\021\254v=\323\201\007\377\377\257\273"
  83      11AC763D 
  83      D38107FF 
  83      FFAFBB
  84 0033 767ED91F 		.ascii	"v~\331\037\306}L\254L\014\231\214\014\314 \002\010X"
  84      C67D4CAC 
  84      4C0C998C 
  84      0CCC2002 
  84      0858
  85 0045 195A1A1A 		.ascii	"\031Z\032\032&(00$\203\271!@\022d@(#\023\210f>\313p"
  85      26283030 
  85      2483B921 
  85      40126440 
  85      28231388 
  86 005d E8D68DDF 		.ascii	"\350\326\215\337?\031\023\031\0272\2622\24432i3\254"
  86      3F191319 
  86      1732B232 
  86      A4333269 
  86      33AC
  87 006f 6A686914 		.ascii	"jhi\024\310dd\234\3150\2131\223\221)\002H07\254hi`a"
  87      C864649C 
  87      CD308B31 
  87      93912902 
  87      483037AC 
  88 0087 0033C136 		.ascii	"\0003\3016&1\302\334y\226\241y'3L7s:D=C\003#X\352\220"
  88      2631C2DC 
  88      7996A179 
  88      27334C37 
  88      733A443D 
  89 00a1 27448634 		.ascii	"'D\2064C\323A\374\213\014\215\017\336\253C\264\303@"
  89      43D341FC 
  89      8B0C8D0F 
  89      DEAB43B4 
  89      C340
  90 00b3 082323C8 		.ascii	"\010##\310\321\240\300\362\324\317\310\317M\325O\316"
  90      D1A0C0F2 
  90      D4CFC8CF 
  90      4DD54FCE 
  91 00c3 4FA9D44F 		.ascii	"O\251\324OI-\323O\316\310L\312\314/\326/)*\315\313\326"
  91      492DD34F 
  91      CEC84CCA 
  91      CC2FD62F 
  91      292ACDCB 
  92 00d8 07323212 		.ascii	"\00722\022s\364\013\362\213J\212\365\203C|\215\215\364"
  92      73F40BF2 
  92      8B4A8AF5 
  92      83437C8D 
  92      8DF4
  93 00ea 7D7C5CF4 		.ascii	"}|\\\364C\203\035\203B\312\014\365\213S\2132\023s\342"
  93      43831D83 
  93      42CA0CF5 
ARM GAS  /tmp/ccEZ1ckG.s 			page 7


  93      8B538B32 
  93      1373E2
  94 00fd 737252F4 		.ascii	"srR\364\222\031\0002\364U\337"
  94      92190032 
  94      F455DF
  95              		.text
  96              		.section	.gnu.lto_set_error.bd59b9e03b2c3fcc,"",%progbits
  97 0000 789C8D52 		.ascii	"x\234\215RMkSA\024\275w\346}'\005[t\343B\202 \005\205"
  97      4D6B5341 
  97      14BD77E6 
  97      7D27055B 
  97      74E34282 
  98 0017 0EB67F40 		.ascii	"\016\266\177@\301\215\02076A]I\372\022\222\207\251\221"
  98      C18D1037 
  98      36415D49 
  98      FA129287 
  98      A991
  99 0029 BC58D022 		.ascii	"\274X\320\"}1\021\262\020)\242\013u\323\020\320R\004"
  99      7D3111B2 
  99      1029A20B 
  99      75D310D0 
  99      5204
 100 003b D7621771 		.ascii	"\327b\027q'\370E0.\334\005D\334\004\324\225X\012\361"
 100      27F84530 
 100      2EDC0544 
 100      DC04D495 
 100      580AF1
 101 004e CEFBC8AB 		.ascii	"\316\373\310\253\315\306\201\314\2359w\3569\347\346"
 101      CDC681CC 
 101      9D3977EE 
 101      39E7E6
 102 005d 5D060CF6 		.ascii	"]\006\014\366\257[\364\273\300\001\032\0241\001\310"
 102      AF5BF4BB 
 102      C0011A14 
 102      3101C8
 103 006c D63F00D4 		.ascii	"\326?\000\324\015\306xk\026<K\221{\222\243\022\300\012"
 103      0DC6786B 
 103      163C4B91 
 103      7B92A312 
 103      C00A
 104 007e 537D58F3 		.ascii	"S}X\363a\025\265\000\326\230\356\303\206\017\353h\004"
 104      6115B500 
 104      D698EEC3 
 104      860FEB68 
 104      04
 105 008f B0C1CCBE 		.ascii	"\260\301\314\276 \330\332>B\260\211V\000[\210\362\000"
 105      20D8DA3E 
 105      42B08956 
 105      005B88F2 
 105      00
 106 00a0 086B8C2B 		.ascii	"\010k\214+\252\246\033\246\205k\227P\332\301\243\320"
 106      AAA61BA6 
 106      856B9750 
 106      DAC1A3D0 
 107 00b0 F6BCFB83 		.ascii	"\366\274\373\203o\235\327\354\221\327mnx\273\243\021"
 107      6F9DD7EC 
 107      91D76D6E 
ARM GAS  /tmp/ccEZ1ckG.s 			page 8


 107      78BBA311 
 108 00c0 A283643D 		.ascii	"\242\203d=\215`#\\\244\013\246\374\300\224\177{y\301"
 108      8D60235C 
 108      A40BA6FC 
 108      C0947F7B 
 108      79C1
 109 00d2 BA83D168 		.ascii	"\272\203\321h\330\333\376\272\20533\0109l\023\037\013"
 109      D8DBFEBA 
 109      85333308 
 109      396C131F 
 109      0B
 110 00e3 230FA312 		.ascii	"#\017\243\022F\025\227\0214p\220\353r3B\330\224\027"
 110      46159711 
 110      347090EB 
 110      723342D8 
 110      9417
 111 00f5 2BBC24C2 		.ascii	"+\274$\302\230\244\2678E\031eZ\246IK\205\246\347\255"
 111      98A4B738 
 111      4519655A 
 111      A6494B85 
 111      A6E7AD
 112 0108 A7823448 		.ascii	"\247\2024Hc\2642\264\313\326\262\310d\344\357\241\361"
 112      63B432B4 
 112      CBD6B2C8 
 112      64E4EFA1 
 112      F1
 113 0119 AAF1FDC1 		.ascii	"\252\361\375\301\341\034vP\205\"N\027Q\225\306I\014"
 113      E11C7650 
 113      85224E17 
 113      5195C649 
 113      0C
 114 012a E00D3487 		.ascii	"\340\0154\207\365\251q\312\307\367v\223\241kk\226gQ"
 114      F5A971CA 
 114      C7F77693 
 114      A16B6B96 
 114      6751
 115 013c 89B97EC4 		.ascii	"\211\271~\304\\Z\304\205\023\\\332>\256/\200\022\241"
 115      5C5AC485 
 115      135CDA3E 
 115      AE2F8012 
 115      A1
 116 014d 13DBED6D 		.ascii	"\023\333\355m\004g\017\201?\377\224\227^U)C\364/\033"
 116      04670F81 
 116      3FFF9497 
 116      5E552943 
 116      F42F1B
 117 0160 BF0E4614 		.ascii	"\277\016F\024F\021\375wj*\344\310\242\026\333\370\035"
 117      4611FD77 
 117      6A2AE4C8 
 117      A216DBF8 
 117      1D
 118 0171 DBD0231B 		.ascii	"\333\320#\033l\302\206>a\203\021\253\202\304\256\276"
 118      6CC2863E 
 118      618311AB 
 118      82C4AEBE 
 119 0181 0BA4F5B1 		.ascii	"\013\244\365\261\364\237\261\264UD\346K\237\032K\033"
 119      F49FB1B4 
ARM GAS  /tmp/ccEZ1ckG.s 			page 9


 119      5544E64B 
 119      9F1A4B1B 
 120 0191 B1F42896 		.ascii	"\261\364(\2266#ieB\332\234\220\346\304\252\221\264\245"
 120      36236965 
 120      42DA9C90 
 120      E6C4AA91 
 120      B4A5
 121 01a3 0F036913 		.ascii	"\017\003i\023\372\"\220n\037\212\312\022E\344\276\264"
 121      FA22906E 
 121      1F8ACA12 
 121      45E4BEB4 
 122 01b3 C7C6DA56 		.ascii	"\307\306\332V\250}{\247\361\354!\217^N\255\302M\232"
 122      A87D7BA7 
 122      F1EC218F 
 122      5E4EADC2 
 122      4D9A
 123 01c5 861370DC 		.ascii	"\206\023p\334A\355\011<\246\"\372'\222\262\330\360\013"
 123      41ED093C 
 123      A622FA27 
 123      92B2D8F0 
 123      0B
 124 01d6 9770CFA7 		.ascii	"\227p\317\247\374\010w~nv\236\336\023\341\324D\343\323"
 124      FC08777E 
 124      6E769EDE 
 124      13E1D444 
 124      E3D3
 125 01e8 7DDB9F07 		.ascii	"}\333\237\007\0108m\014+Va\307ky\007\0344md9\334\244"
 125      08386D0C 
 125      2B5661C7 
 125      6B79071C 
 125      346D6439 
 126 01fe 1C2D922C 		.ascii	"\034-\222,\242\342\220\035\350A}\260u,\250\212\332S"
 126      A2E2901D 
 126      E8417DB0 
 126      752CA88A 
 126      DA53
 127 0210 C8B941ED 		.ascii	"\310\271A\355%\314\273\237\363rvP\332\226]\234\025\245"
 127      25CCBB9F 
 127      F3727650 
 127      DA965D9C 
 127      15A5
 128 0222 CA7241D8 		.ascii	"\312rA\330\225\374\015\221/\254\010\273\344,9\025W\324"
 128      95FC0D91 
 128      2FAC08BB 
 128      E42C3915 
 128      57D4
 129 0234 AAD7AF5E 		.ascii	"\252\327\257^\021t(\345\312\342Z\245Zs\305b\346\334"
 129      117428E5 
 129      CAE25AA5 
 129      5A73C562 
 129      E6DC
 130 0246 C2BC48A7 		.ascii	"\302\274H\247\317\210\354\342\351\363\231\225\223\302"
 130      CF88ECE2 
 130      E9F39995 
 130      93C2
 131 0254 2D549D5C 		.ascii	"-T\235\\\371r\271\234\237\263\201\2735w\341\177\330"
 131      F972B99C 
ARM GAS  /tmp/ccEZ1ckG.s 			page 10


 131      9FB381BB 
 131      3577E17F 
 131      D8
 132 0265 2A2E6DD5 		.ascii	"*.m\325\232\037\347J\360\027$\306\365\203"
 132      9A1FE74A 
 132      F01724C6 
 132      F583
 133              		.text
 134              		.section	.gnu.lto_serve_interrupt.bd59b9e03b2c3fcc,"",%progbits
 135 0000 789CB556 		.ascii	"x\234\265VklTE\024>\347\336\335\356v\337}mii\351\246"
 135      6B6C5445 
 135      143EE7DE 
 135      DDEE76DF 
 135      7D6D6969 
 136 0016 A1428AE9 		.ascii	"\241B\212\351\266\002-\376\253\021MH 1}$\342\037l\267"
 136      B6022DFE 
 136      AB114D48 
 136      20317D24 
 136      E21F6CB7 
 137 002a 6BBBB1A5 		.ascii	"k\273\261\245u\267%\"?\270}@\010 iP\036\276b\011\001"
 137      75B72522 
 137      3FB87D40 
 137      08206950 
 137      1EBE6209 
 138 003f A2462088 		.ascii	"\242F \210\001\225Hi)b\020\012\206\010-\030\253H\300"
 138      01954869 
 138      2962100A 
 138      86082D18 
 138      AB48C0
 139 0052 D44791E0 		.ascii	"\324G\221\340\203 \353\231\231\235\273\333\262\260\255"
 139      8320EB99 
 139      999DBBDB 
 139      B2B0AD
 140 0061 C1FD313B 		.ascii	"\301\3751;\217\363}s\346\233s\316\035\005\024\230\370"
 140      8FF37D73 
 140      E69B73CE 
 140      1D051498 
 140      F8
 141 0072 7323C087 		.ascii	"s#\300\207v\200G\350\0373\001\225\3563\000\355fEQ\317"
 141      768047E8 
 141      1F330195 
 141      EE3300ED 
 141      664551CF 
 142 0086 BB41B318 		.ascii	"\273A\263\030\216\224\201fS\321 \246\015h\026\035\243"
 142      8E948166 
 142      53D120A6 
 142      0D68161D 
 142      A3
 143 0097 92C4D74D 		.ascii	"\222\304\327M|=\011Mb\332$\326\217\231\315\212q\343"
 143      7C3D094D 
 143      62DA24D6 
 143      8F99CD8A 
 143      71E3
 144 00a9 174006C9 		.ascii	"\027@\006\311]&2HV,\353f\321\310\311Z\233E\261r\260"
 144      5D263248 
 144      562CEB66 
 144      D1C8C95A 
ARM GAS  /tmp/ccEZ1ckG.s 			page 11


 144      9B45B172 
 145 00be 9383AD8A 		.ascii	"\223\203\255\212\255\307B#\373X?\001l6t\010.\273\354"
 145      ADC74223 
 145      FB583F01 
 145      6C367408 
 145      2EBBEC
 146 00d1 38D0293A 		.ascii	"8\320):N\305u\336K\226\356#3\310\320\245\244\\\266\322"
 146      4EC575DE 
 146      4B96EE23 
 146      33C8D0A5 
 146      A45CB6D2 
 147 00e5 28F5601F 		.ascii	"(\365`\037\303\245(i|\213T\276E*\246\011L\232\222\316"
 147      C3A52869 
 147      7C8B54BE 
 147      452AA609 
 147      4C9A92CE 
 148 00f9 F7CAE07B 		.ascii	"\367\312\340{\245c\206\230\316@\267\350\270\021Y\007"
 148      A5638698 
 148      CE40B7E8 
 148      B8115907 
 149 0109 10562BAA 		.ascii	"\020V+\252\301\230d2'[\2546\273\303\351JIMK\317p\343"
 149      C1986432 
 149      275BAC36 
 149      BBC3E94A 
 149      494D4BCF 
 150 011f EAA5C874 		.ascii	"\352\245\310t2\346\303\016M\333<r\365\363\237\360\215"
 150      32E6C30E 
 150      4DDB3C72 
 150      F5F39FF0 
 150      8D
 151 0130 D77BBB7A 		.ascii	"\327{\273z\264;\3410b\000I\323\305\010>\204gi\200\036"
 151      B43BE130 
 151      620049D3 
 151      C5083E84 
 151      6769801E 
 152 0144 FEA718C6 		.ascii	"\376\247\030\306\213,\260\275\267\326o\311\322z:\272"
 152      8B2CB0BD 
 152      B7D66FC9 
 152      D27A3ABA 
 153 0154 B5BB040D 		.ascii	"\265\273\004\015\240\252\3003\223D\376\275~\3234\255"
 153      A0AAC033 
 153      9344FEBD 
 153      7ED334AD 
 154 0164 A75D220D 		.ascii	"\247]\"\015\012TD\221.\201T\342 \273{/\234z5vO\243\002"
 154      0A544491 
 154      2E8154E2 
 154      20BB7B2F 
 154      9C7A3576 
 155 017b D593DAB3 		.ascii	"\325\223\332\263{\344\273\265'\326\342\326\376\216\223"
 155      7BE4BBB5 
 155      27D6E2D6 
 155      FE8E93
 156 018a 5A572F61 		.ascii	"ZW/a\363\002\230\244\300&L\204\336\247\364\216\204\303"
 156      F30298A4 
 156      C0264C84 
 156      DEA7F48E 
 156      84C3
ARM GAS  /tmp/ccEZ1ckG.s 			page 12


 157 019c BB7F5F7F 		.ascii	"\273\177_\177\342q|\012\241\006wa>X\260\011\301J\203"
 157      E2717C0A 
 157      A1067761 
 157      3E58B009 
 157      C14A83
 158 01af 9D34B001 		.ascii	"\2354\260\001\251fg\215#\262\354d\203\024jLnj\014\231"
 158      A966678D 
 158      23B2EC64 
 158      83146A4C 
 158      6E6A0C99 
 159 01c3 ACC96273 		.ascii	"\254\311bs\331\324\230sX/7b\232\307\006\036f\220OM\362"
 159      D9D49873 
 159      582F3762 
 159      9AC7061E 
 159      66904F4D 
 160 01d8 4C9ADE43 		.ascii	"L\232\336C\323\005\014<\213\255\315fM!M\357\240\351"
 160      D3050C3C 
 160      8BADCD66 
 160      4D214DEF 
 160      A0E9
 161 01ea 22365DCC 		.ascii	"\"6]\314f\346Qc\231\317\232Rj\254ed\360\036\031,\240"
 161      66E65163 
 161      99CF9A52 
 161      6AAC6564 
 161      F01E192C 
 162 01ff 816D21A3 		.ascii	"\201m!\243cw\014]tp\217\360Rl\007\354\264\364\253\242"
 162      63770C5D 
 162      74708FF0 
 162      526C07EC 
 162      B4F4ABA2 
 163 0213 9622B91A 		.ascii	"\226\"\271\032\025\372SOC\307\360\305\275\347\224\032"
 163      15FA534F 
 163      43C7F0C5 
 163      BDE7941A 
 164 0223 FC008D50 		.ascii	"\374\000\215P\217\3269\360\276F\277\020]\352[\360&\251"
 164      8FD639F0 
 164      BE46BF10 
 164      5DEA5BF0 
 164      26A9
 165 0235 62AF470B 		.ascii	"b\257G\013S\307\3015\251E\251\316i\350\033\376k\357"
 165      53C7C135 
 165      A945A9CE 
 165      69E81BFE 
 165      6BEF
 166 0247 908EB431 		.ascii	"\220\216\2641d\027\031:\005\316Ed\014\247Fp\030\203"
 166      6417193A 
 166      05CE4564 
 166      0CA74670 
 166      1883
 167 0259 DBBE2FBA 		.ascii	"\333\276/\272\243=\001N\321q\035\243\235A\211r\020\220"
 167      A33D014E 
 167      D1711DA3 
 167      9D418972 
 167      1090
 168 026b CD757ED6 		.ascii	"\315u~\326\031\336\222-g\2354\313\260\2401\324I\350"
 168      19DE922D 
 168      679D34CB 
ARM GAS  /tmp/ccEZ1ckG.s 			page 13


 168      B0A031D4 
 168      49E8
 169 027d FAB9DDAE 		.ascii	"\372\271\335\256\257\361\205\330_5\355\261FQ\317@\307"
 169      AFF185D8 
 169      5F35EDB1 
 169      4651CF40 
 169      C7
 170 028e 8DBD0307 		.ascii	"\215\275\003\0076\252\021\321\000\004\204\247\022\302"
 170      36AA11D1 
 170      000484A7 
 170      12C2
 171 029c 05B22236 		.ascii	"\005\262\"6UT\234\031p\035\337\321\266\227\0070\205"
 171      55549C19 
 171      701DDFD1 
 171      B6970730 
 171      85
 172 02ad 0D1967AA 		.ascii	"\015\031g\252\207\365\364\365\321\310z\232\356\366\355"
 172      87F5F4F5 
 172      D1C87A9A 
 172      EEF6ED
 173 02bc FE533F56 		.ascii	"\376S?VH7RV\301+t\223s\2400\200\351\361\025V\243.\016"
 173      48375256 
 173      C12B7493 
 173      73A03080 
 173      E9F11556 
 174 02d3 C29AB1D1 		.ascii	"\302\232\261\321=\2737yu\337D\247\227\030\245\237>)"
 174      3DBB3779 
 174      75DF44A7 
 174      9718A59F 
 174      3E29
 175 02e5 ED2AB8AD 		.ascii	"\355*\270\255\255\323\\\001\314\360!\311{D\234\201\266"
 175      ADD35C01 
 175      CCF021C9 
 175      7B449C81 
 175      B6
 176 02f6 64E46ECD 		.ascii	"d\344n\315@\261\221\311\365?|\361\300\020\0120\027\277"
 176      40B191C9 
 176      F53F7CF1 
 176      C0100A30 
 176      17BF
 177 0308 5DB32790 		.ascii	"]\263'\220\237k\027\376'\034v\322`r\202\325\340A\352"
 177      9F6B17FE 
 177      271C76D2 
 177      607282D5 
 177      E041EA
 178 031b 70812046 		.ascii	"p\201 F\240\032<\2043b\357\300\300\302\220(q\262l\236"
 178      A01A3C84 
 178      3362EFC0 
 178      C0C29028 
 178      71B26C9E 
 179 032f 07B11981 		.ascii	"\007\261\031\201\212\265\312\342\242\177\303/}\252T"
 179      8AB5CAE2 
 179      A27FC32F 
 179      7DAA54
 180 033e 7D613D22 		.ascii	"}a=\"\003\033\2342.J\364%>?>.\222`0]%\355G.\255\261"
 180      031B9C32 
 180      2E4AF425 
ARM GAS  /tmp/ccEZ1ckG.s 			page 14


 180      3E3F3E2E 
 180      9260305D 
 181 0358 486F7475 		.ascii	"Hotu\247\371\"\342\320\265\325\263\272\231%a\246\310"
 181      A7F922E2 
 181      D0B5D5B3 
 181      BA992561 
 181      A6C8
 182 036a E614E087 		.ascii	"\346\024\340\207\206\364\275\263\022\004\270\334\233"
 182      86F4BDB3 
 182      1204B8DC 
 182      9B
 183 0377 07F80194 		.ascii	"\007\370\001\224\260\354zF<\010\306{\034\310\366E0\334"
 183      B0EC7A46 
 183      3C08C67B 
 183      1CC8F645 
 183      30DC
 184 0389 81EC004E 		.ascii	"\201\354\000N\027Yu\370\320\220\216\316\231JV\325JT"
 184      175975F8 
 184      D0908ECE 
 184      994A56D5 
 184      4A54
 185 039b 2E01E561 		.ascii	".\001\345a\314@_\023\256d\347\225\255\271\322\"S\012"
 185      CC405F13 
 185      AE64E795 
 185      ADB9D222 
 185      530A
 186 03ad E99142CE 		.ascii	"\351\221B\316\325\227&\0109\004Hyj\370\352B\013\021"
 186      D5972608 
 186      39044879 
 186      6AF8EA42 
 186      0B11
 187 03bf 9B2E5F7A 		.ascii	"\233._z\236\261&Gn\373\241\004\220\270\346[\321k\316"
 187      9EB12647 
 187      6EFBA104 
 187      90B8E65B 
 187      D16BCE
 188 03d2 A33224F2 		.ascii	"\2432$\362\037ab\376\347\305\311\177\013\364\251\342"
 188      1F6162FE 
 188      E7C5C97F 
 188      0BF4A9E2 
 189 03e2 889FEAF5 		.ascii	"\210\237\352\365\310-O\030\345X\255\257\305\211\025"
 189      C82D4F18 
 189      E558ADAF 
 189      C58915
 190 03f1 2B856E9C 		.ascii	"+\205n\234\023\351\025x\017\257\275\372\001\247\032"
 190      13E91578 
 190      0FAFBDFA 
 190      01A71A
 191 0400 D6A27EFC 		.ascii	"\326\242~\374\261\231\316x\226\373\220\317\013H2/ 9"
 191      B199CE78 
 191      96FB90CF 
 191      0B48322F 
 191      2039
 192 0412 F10B8831 		.ascii	"\361\013\2101\352\337 t\365\232$t\246\036B\271\276\210"
 192      EADF2074 
 192      F59A2474 
 192      A61E42B9 
ARM GAS  /tmp/ccEZ1ckG.s 			page 15


 192      BE88
 193 0424 11F105D8 		.ascii	"\021\361\005\330V'\341\370\325c\337n\260\351\246\214"
 193      5627E1F8 
 193      D563DF6E 
 193      B0E9A68C 
 194 0434 2F6FFC49 		.ascii	"/o\374Im\220\302\276\027\267;\217n\323)\013\036R9\373"
 194      6D90C2BE 
 194      17B73B8F 
 194      6ED3290B 
 194      1E5239FB 
 195 0448 33C84E7D 		.ascii	"3\310N}\366\001\345\354\222,g\005\274\234\231e5c\361"
 195      F601E5EC 
 195      922C6705 
 195      BC9C9965 
 195      3563F1
 196 045b B96DA9F4 		.ascii	"\271m\251\364g\226\214\200\243wU\021!\237\350\312\315"
 196      67968C80 
 196      A3775511 
 196      219FE8CA 
 196      CD
 197 046c A665BE56 		.ascii	"\246e\276V\316W\372\276<\0339F\244\010\226$\370v\021"
 197      CE57FABE 
 197      3C1B3946 
 197      A4089624 
 197      F87611
 198 047f 8394C20E 		.ascii	"\203\224\302\0167Xnt\374\332\371\333\266\\\311_H\262"
 198      37586E74 
 198      FCDAF9DB 
 198      B65CC95F 
 198      48B2
 199 0491 71E24593 		.ascii	"q\342E\223\244\225Y\\(i\035\361cI\320M5;\004\245S|\345"
 199      A495595C 
 199      28691DF1 
 199      6349D04D 
 199      353B04A5 
 200 04a8 59A21CDF 		.ascii	"Y\242\034\337\251'\212G\006y\371=y\342\211\023\343."
 200      A9278A47 
 200      0679F93D 
 200      79E28913 
 200      E32E
 201 04ba D865987A 		.ascii	"\330e\230z\326\336?\242\207\357\214\216\\\177nb\020"
 201      D6DE3FA2 
 201      87EF8C8E 
 201      5C7F6E62 
 201      10
 202 04cb 6C18784D 		.ascii	"l\030xM\215~\324\222\2046\363\304\203\204\275\341\276"
 202      8D7ED492 
 202      8436F3C4 
 202      8384BDE1 
 202      BE
 203 04dc 41851E3D 		.ascii	"A\205\036=$e\273\306\302\"'\022g\311\305B\315$\206\275"
 203      2465BBC6 
 203      C2222712 
 203      67C9C542 
 203      CD2486BD 
 204 04f0 2E1C627B 		.ascii	".\034b{\354O\253\301k\374H\363yx\336\037i\212AR\"\\"
 204      EC4FABC1 
ARM GAS  /tmp/ccEZ1ckG.s 			page 16


 204      6BFC48F3 
 204      7978DE1F 
 204      698A4152 
 205 0506 6B3F8712 		.ascii	"k?\207\022:\217\320\261J\244\300\327\374\342\207\307"
 205      3A8FD0B1 
 205      4AA4C0D7 
 205      FCE287C7 
 206 0516 A64B9352 		.ascii	"\246K\223R\316\356\271/\273y\034;I\035e/ev\236X\255"
 206      CEEEB92F 
 206      BB791C3B 
 206      491D652F 
 206      65769E58 
 207 052b ABE83AEF 		.ascii	"\253\350:\357\250j5=\037Hr\036a\016i\275\240\036\313"
 207      A86A353D 
 207      1F48721E 
 207      610E69BD 
 207      A01ECB
 208 053e 04C5F703 		.ascii	"\004\305\367\003?\034\323K\375\002Fb\213R\014A\031\233"
 208      3F1CD34B 
 208      FD024662 
 208      8B520C41 
 208      199B
 209 0550 49A277E8 		.ascii	"I\242w\350\335\217\367\037l\340\003\200T\356\177:\274"
 209      DD8FF71F 
 209      6CE00380 
 209      54EE7F3A 
 209      BC
 210 0561 8BAAA829 		.ascii	"\213\252\250)\003!\311P\364\220\222x \224\350MrS&q\021"
 210      0321C950 
 210      F4909278 
 210      2094E84D 
 210      72532671 
 211 0576 4F629748 		.ascii	"Ob\227Hb!m\20681\345\363Go\027J\327\212\365|\016\253"
 211      62216D86 
 211      3831E5F3 
 211      476F174A 
 211      D78AF57C 
 212 058c 91ACED36 		.ascii	"\221\254\3556M\362\351\"\263\266X<z\016_\371/\217\236"
 212      4DF2E922 
 212      B3B6583C 
 212      7A0E5FF9 
 212      2F8F9E
 213 059f A3E1FFE3 		.ascii	"\243\341\377\343\321\343fYy\016\332\307:n\032b?\015"
 213      D1E36659 
 213      790EDAC7 
 213      3A6E1A62 
 213      3F0D
 214 05b1 2C0090D6 		.ascii	",\000\220\326\030j\221\267\241\271\311\357\3655\327"
 214      186A91B7 
 214      A1B9C9EF 
 214      F535D7
 215 05c0 ADF4D6F9 		.ascii	"\255\364\326\371Wx}\015\201\332@s\310\333\032l[\376"
 215      57787D0D 
 215      81DA4073 
 215      C8DB1A6C 
 215      5BFE
 216 05d2 A2973A0D 		.ascii	"\242\227:\0155\215\336\226\346`k\310[Y\265d\356c\336"
ARM GAS  /tmp/ccEZ1ckG.s 			page 17


 216      358DDE96 
 216      E6606BC8 
 216      5B59B564 
 216      EE63DE
 217 05e5 C58B177A 		.ascii	"\305\213\027z\253+\237\250\250ZQ\342\015\371\203\201"
 217      AB2B9FA8 
 217      A85A51E2 
 217      0DF98381 
 218 05f5 9AC6658D 		.ascii	"\232\306e\215\215uE>Pk\213\212\261M\011\005\261\266"
 218      8D75453E 
 218      506B8B8A 
 218      B14D0905 
 218      B1B6
 219 0607 341169B0 		.ascii	"4\021i\260\325\033X\356kl\253#\243\206\227\332\374m"
 219      D51B58EE 
 219      6B6CAB23 
 219      A38697DA 
 219      FC6D
 220 0619 FE505103 		.ascii	"\376PQ\003\230\002/\2646\265\024\225\224'\202\373_n"
 220      98022FB4 
 220      36B51495 
 220      942782FB 
 220      5F6E
 221 062b F53EB9A4 		.ascii	"\365>\271\244rQe\224\2459\350_\346kz\272m\271\217\210"
 221      72516594 
 221      A539E85F 
 221      E66B7ABA 
 221      6DB98F88 
 222 063f 5C4B2A2B 		.ascii	"\\K*+<\2655!\177K0\360\250\247\240\030\224 \230\232"
 222      3CB53521 
 222      7F4B30F0 
 222      A8A7A018 
 222      9420989A 
 223 0653 FC4DCDC1 		.ascii	"\374M\315\301\2250w2\007n\016QCN\262\177\342\373\027"
 223      95307732 
 223      076E0E51 
 223      434EB27F 
 223      E2FB17
 224 0666 C7C676F3 		.ascii	"\307\306v\363"
 225              		.text
 226              		.section	.gnu.lto_usart_init.isra.0.bd59b9e03b2c3fcc,"",%progbits
 227 0000 789C9D92 		.ascii	"x\234\235\222MH\024a\030\307\237g\276wu\335U:\004v\020"
 227      4D481461 
 227      18C79F67 
 227      BE7775DD 
 227      553A0476 
 228 0015 BB048143 		.ascii	"\273\004\201CJ\347>\350\022X\207\\#O\261\256\242Ck\033"
 228      4AE73EE8 
 228      1258875C 
 228      234FB1AE 
 228      A2436B1B 
 229 0029 7E4141F8 		.ascii	"~AA\370\256\273V\320\007\233'\263\213\022QD\320U\017"
 229      AEBB56D0 
 229      079B27B3 
 229      8B125144 
 229      D0550F
 230 003c 8549A442 		.ascii	"\205I\244B\206\336\304\223t\211:T \250H0=\317\2743\353"
ARM GAS  /tmp/ccEZ1ckG.s 			page 18


 230      86DEC493 
 230      74893A54 
 230      20A84830 
 230      3DCFBC33 
 231 0051 BA54AB0E 		.ascii	"\272T\253\016\314\3631\357\363\377\277\277\231w\024"
 231      CCF331EF 
 231      F3FFBFBF 
 231      997714
 232 0060 50A0F4BA 		.ascii	"P\240\364\272L\367'\035\240\2152Z\200f\3763@\3062Q\341"
 232      4CF7271D 
 232      A08D325A 
 232      8066FE33 
 232      40C63251 
 233 0075 021545DB 		.ascii	"\002\025E\3330A\204\325\361\217\000\242R\365[]\266\032"
 233      304184D5 
 233      F18F00A2 
 233      52F55B5D 
 233      B61A
 234 0087 1A725C0F 		.ascii	"\032r\\\017\012\003\221\013@\0302\025U\323\015\034j"
 234      0A03910B 
 234      40183215 
 234      55D30D1C 
 234      6A
 235 0098 43DE47AD 		.ascii	"C\336G\255\207I!F\327F~.)O\304LnB\374v]D\007\211\251"
 235      87492146 
 235      D7467E2E 
 235      294FC44C 
 235      6E42FC76 
 236 00b1 19218970 		.ascii	"\031!\211p\205\032\254\363\222\242\355\206\224\332\231"
 236      851AACF3 
 236      92A2ED86 
 236      94DA99
 237 00c0 E5B98549 		.ascii	"\345\271\205I\024\243\"\363\313u\243\016\252\012\\\334"
 237      14A322F3 
 237      CB75A30E 
 237      AA0A5CDC 
 238 00d0 A3F2DDDC 		.ascii	"\243\362\335\334\203p>sO\270\356\220\247\213\227\323"
 238      83703E73 
 238      4FB8EE90 
 238      A78B97D3 
 239 00e0 BD51C49A 		.ascii	"\275Q\304\232\353No[G\020{\2301\201\223X\017*5\250\001"
 239      EB4E6F5B 
 239      47107B98 
 239      31819358 
 239      0F2A35A8 
 240 00f5 79E81C0C 		.ascii	"y\350\034\014\016&\007\213\202\026\342\020\346\266\202"
 240      0E26078B 
 240      8216E210 
 240      E6B682
 241 0104 AB4A0E11 		.ascii	"\253J\016\021n\253\270\212r\210q[Mn\317\311\255\206"
 241      6EABB88A 
 241      7288715B 
 241      4D6ECFC9 
 241      AD86
 242 0116 F233CAB5 		.ascii	"\3623\312\265\344\312'\243CN\210|\235\334\012\230\220"
 242      E4CA27A3 
 242      434E887C 
ARM GAS  /tmp/ccEZ1ckG.s 			page 19


 242      9DDC0A98 
 242      90
 243 0127 2E4205FE 		.ascii	".B\005\376\244q49\253\2554\312y\021\206W\307\350c&\360"
 243      A4713439 
 243      ABAD34CA 
 243      79118657 
 243      C7E86326 
 244 013c 05EAD085 		.ascii	"\005\352\320\205J\027\326\002\314\303\207\257\357\037"
 244      4A17D602 
 244      CCC387AF 
 244      EF1F
 245 014a DF550B4F 		.ascii	"\337U\013O\371\345@L\344D\361\013\266\242\012t\202*"
 245      F9E5404C 
 245      E444F10B 
 245      B6A20A74 
 245      822A
 246 015c 4F676E97 		.ascii	"Ogn\227\314\276,\235\325`$*\267[_\322\202a\3558\274"
 246      CCBE2C9D 
 246      D560242A 
 246      B75B5FD2 
 246      8261ED38 
 247 0171 123107F5 		.ascii	"\0221\007\365\2470\236\021\\\031]\250\262\203\351\311"
 247      A7309E11 
 247      5C195DA8 
 247      B283E9C9 
 248 0181 DA313058 		.ascii	"\33210X\204\354\303\354w\014\204:\317\250b\373\3161"
 248      84ECC3EC 
 248      770C843A 
 248      CFA862FB 
 248      CE31
 249 0193 76E1E5D9 		.ascii	"v\341\345\331\205\274)W\3313\227\021\021\007\255\202"
 249      85BC2957 
 249      D9339711 
 249      1107AD82 
 250 01a3 6D2800F3 		.ascii	"m(\000\363meA>\001\236\016\367Oyx+Ex\306A\361L\211\367"
 250      6D65413E 
 250      019E0EF7 
 250      4F79782B 
 250      4578C641 
 251 01bb 367B885D 		.ascii	"6{\210]\016\216g\006xF\341\264\2466vN\313\362\371\302"
 251      0E8E6706 
 251      7846E1B4 
 251      A636764E 
 251      CBF2F9C2 
 252 01cf FFE45376 		.ascii	"\377\344Sv\370\246\263_\012|\264\237\305c\332iom\370"
 252      F8A6B35F 
 252      0A7CB49F 
 252      C563DA69 
 252      6F6DF8
 253 01e2 47E1A8C3 		.ascii	"G\341\250\303\264(y\227\214]\274\241\377\361\252>o\330"
 253      B4287997 
 253      8C5DBCA1 
 253      FFF1AA3E 
 253      6FD8
 254 01f4 735B5D29 		.ascii	"s[])b\254(\313\250\375\235\261\222\264\036#\2262Fhq"
 254      62AC28CB 
 254      A8FD9DB1 
ARM GAS  /tmp/ccEZ1ckG.s 			page 20


 254      92B41E23 
 254      96324668 
 255 0209 FF8CBACF 		.ascii	"\377\214\272\317\030\221\214[E\214Ue\031\215b\306\365"
 255      18918C5B 
 255      458C5565 
 255      198D62C6 
 255      F5
 256 021a 47B70265 		.ascii	"G\267\002e\224\304\036\344\353\263\245\2241Z\225\224"
 256      94C41EE4 
 256      EBB3A594 
 256      315A9594 
 257 022a B415EE9D 		.ascii	"\264\025\356\235\323\3649c\236xjes~\037b\313\313\374"
 257      D3F43963 
 257      9E786A65 
 257      737E1F62 
 257      CBCBFC
 258 023d C492B8B3 		.ascii	"\304\222\270\263\253[\233\207\003\244j\337\342dy\013"
 258      AB5B9B87 
 258      03A46ADF 
 258      E264790B 
 259 024d A91DDB2E 		.ascii	"\251\035\333.hk\366\242\015\371\332e\310\254};*\245"
 259      686BF6A2 
 259      0DF9DA65 
 259      C8AC7D3B 
 259      2AA5
 260 025f C115A7BF 		.ascii	"\301\025\247\277\232~b\376#\317\333\335\351\236N;\231"
 260      9A7E62FE 
 260      23CFDBDD 
 260      E99E4E3B 
 260      99
 261 0270 EEB86977 		.ascii	"\356\270iwt\016\332\311n\247\335I\367\331\375\275\003"
 261      740EDAC9 
 261      6EA7DD49 
 261      F7D9FDBD 
 261      03
 262 0281 D7AFD954 		.ascii	"\327\257\331Tt'R\366\215to\177\237\335\022\277\320\324"
 262      742752F6 
 262      8D746F7F 
 262      9FDD12BF 
 262      D0D4
 263 0293 6837379F 		.ascii	"h77\237\263[[\316\\\212\017\236\260\373:{\235D\352j"
 263      B35B5BCE 
 263      5C8A0F9E 
 263      B0FB3A7B 
 263      9D44EA6A 
 264 02a7 2AD5D190 		.ascii	"*\325\321\220\004\034\320\007\323\251\206&/6\376\001"
 264      041CD007 
 264      D3A98626 
 264      2F36FE01 
 265 02b7 7A3D747C 		.ascii	"z=t|"
 266              		.text
 267              		.section	.gnu.lto_sd_lld_stop.part.1.bd59b9e03b2c3fcc,"",%progbits
 268 0000 789C9551 		.ascii	"x\234\225Q1H\003A\020\334\275\273\304\330\250\255]\260"
 268      31480341 
 268      10DCBDBB 
 268      C4D8A8AD 
 268      5DB0
ARM GAS  /tmp/ccEZ1ckG.s 			page 21


 269 0012 B00978A8 		.ascii	"\260\011x\250\245\225`\023\210\010\346\003Z\311\347"
 269      A5956013 
 269      8808E603 
 269      5AC9E7
 270 0021 3F98C7D7 		.ascii	"?\230\307\327\017\371\030\024\213\\4E\012\301\307J\264"
 270      0FF91814 
 270      8B5C3445 
 270      0AC1C74A 
 270      B4
 271 0032 31081636 		.ascii	"1\010\0266\026\226v\351\243X\306*\215\255X)X\370\356"
 271      169676E9 
 271      A358C62A 
 271      8DAD5829 
 271      58F8EE
 272 0045 FD13443B 		.ascii	"\375\023D;\017ng\357vwfo\217\001\203\277+C{\017\001"
 272      0F6E67EF 
 272      7677666F 
 272      8F0183BF 
 272      2B437B0F 
 273 005a 56083101 		.ascii	"V\0101\001(\202\007r\004\262\010\031r\215\315\024G\324"
 273      28820772 
 273      04B20819 
 273      728DCD14 
 273      47D4
 274 006c 0E203404 		.ascii	"\016 4\004\343\330XG]\214S\320Q\352t\360\362z7\251."
 274      E3D85847 
 274      5D8C53D0 
 274      51EA74F0 
 274      F27A37A9 
 275 0081 0F03F515 		.ascii	"\017\003\365\025\206\350 \311\344\020,\2045:`:\002&"
 275      86E820C9 
 275      E4102C84 
 275      353A603A 
 275      0226
 276 0093 7EEBDE32 		.ascii	"~\353\33625\010\303\376\3651&\021\034\344L\033\272O"
 276      3508C3FE 
 276      F5312611 
 276      1CE44C1B 
 276      BA4F
 277 00a5 404BA920 		.ascii	"@K\251 mb\207\310A\223\3202\310jy\003\205F^@\026a\017"
 277      6D6287C8 
 277      4193D032 
 277      C86A7903 
 277      85465E40 
 278 00bc BACF67EF 		.ascii	"\272\317g\357\013&^Q\353\233\210\031\270Q\255\346\204"
 278      0B265E51 
 278      EB9B8819 
 278      B851ADE6 
 278      84
 279 00cd 83E202CE 		.ascii	"\203\342\002\316\233\201\"/\241\305\223\352\255\255"
 279      9B81222F 
 279      A1C593EA 
 279      ADAD
 280 00db 44D44732 		.ascii	"D\324G2R/\342\260\217\036\034\335\363!\001#\016\235"
 280      522FE2B0 
 280      8F1E1CDD 
 280      F3210123 
ARM GAS  /tmp/ccEZ1ckG.s 			page 22


 280      0E9D
 281 00ed C4C3F023 		.ascii	"\304\303\360#\034\217\242\335l\034\37475\261\001<Bk"
 281      1C8FA2DD 
 281      6C1CFC37 
 281      35B1013C 
 281      426B
 282 00ff D03F198B 		.ascii	"\320?\031\213)\000\016\340S\265u\351\210\205q\232\256"
 282      29000EE0 
 282      53B575E9 
 282      8885719A 
 282      AE
 283 0110 4B4DD3DB 		.ascii	"KM\323\333G\343\252\002\015A\277\354\211f\3763,\203"
 283      47E3AA02 
 283      0D41BFEC 
 283      8966FE33 
 283      2C83
 284 0122 B2E956FF 		.ascii	"\262\351V\377^V\226\275\355\222\264<{_\332\245\272\264"
 284      5E5696BD 
 284      ED92B43C 
 284      7B5FDAA5 
 284      BAB4
 285 0134 CA4ED1F1 		.ascii	"\312N\321\361|Y\253\356\356lIr\312\246++^\265\346\313"
 285      7C59ABEE 
 285      EE6C4972 
 285      CAA62B2B 
 285      5EB5E6CB 
 286 0148 BCB13C3F 		.ascii	"\274\261<?'s\271%Y\310/\256\032\365Y\351\227\252\216"
 286      2773B925 
 286      59C82FAE 
 286      1AF559E9 
 286      97AA8E
 287 015b E96EB8AE 		.ascii	"\351n\270\256=c\001\367\355\3127C\214w\022"
 287      3D6301F7 
 287      EDCA3743 
 287      8C7712
 288              		.text
 289              		.section	.gnu.lto_VectorD8.bd59b9e03b2c3fcc,"",%progbits
 290 0000 789C6362 		.ascii	"x\234cb`b@\007\222@\274\031\210\275\201\230\221\231"
 290      60624007 
 290      9240BC19 
 290      88BD8198 
 290      9199
 291 0012 819169C2 		.ascii	"\201\221i\3029\006\206F\016&FF\020\203\201\221\241\236"
 291      39068646 
 291      0E264646 
 291      10838191 
 291      A19E
 292 0024 89B13E92 		.ascii	"\211\261>\222\021\254v=\323\201\007\377\377\257\373"
 292      11AC763D 
 292      D38107FF 
 292      FFAFFB
 293 0033 3269CD1C 		.ascii	"2i\315\034\3063L,@\021V\206\226\206\206\011\012\014"
 293      C6334C2C 
 293      40115686 
 293      96868609 
 293      0A0C
 294 0045 0CC96015 		.ascii	"\014\311`\025!@\022\244-\224\221\011D3\237ghy\260\357"
ARM GAS  /tmp/ccEZ1ckG.s 			page 23


 294      214012A4 
 294      2D949109 
 294      44339F67 
 294      6879B0EF 
 295 0059 245722E3 		.ascii	"$W\"\343BFV\240t5\303\257\206\216\006\201LF\240r\210"
 295      424656A0 
 295      7435C3AF 
 295      868E0681 
 295      4C46A072 
 296 006e 8920118E 		.ascii	"\211 \021\216LF\306\\F\006\250\242L\240V\206\363\014"
 296      4C46C65C 
 296      4606A8A2 
 296      4CA05686 
 296      F30C
 297 0080 CD0F4E64 		.ascii	"\315\017NdbhcNf\204x \223\021h\371E\206\306\007'5a\212"
 297      6268634E 
 297      66847820 
 297      931168F9 
 297      4586C607 
 298 0098 20200468 		.ascii	"  \004h.\320b\220*O\375\214\374\334T\375\344\374\224"
 298      2ED06290 
 298      2A4FFD8C 
 298      FCDC54FD 
 298      E4FC94
 299 00ab 4AFD94D4 		.ascii	"J\375\224\3242\375\344\214\314\244\314\374b\375\222"
 299      32FDE48C 
 299      CCA4CCFC 
 299      62FD92
 300 00ba A2D2BC6C 		.ascii	"\242\322\274l} ##1G\277 \277\250\244X?8\304\327\330"
 300      7D202323 
 300      3147BF20 
 300      BFA8A458 
 300      3F38C4D7 
 301 00cf 48DFC7C7 		.ascii	"H\337\307\307E?4\3301(\244\314P\2778\265(31'>''E/\231"
 301      453F34D8 
 301      3128A4CC 
 301      50BF38B5 
 301      28333127 
 302 00e9 0100BFC1 		.ascii	"\001\000\277\301I\217"
 302      498F
 303              		.text
 304              		.section	.gnu.lto_Vector15C.bd59b9e03b2c3fcc,"",%progbits
 305 0000 789C6362 		.ascii	"x\234cb`b@\007\222@\274\031\210\275\201\230\221\231"
 305      60624007 
 305      9240BC19 
 305      88BD8198 
 305      9199
 306 0012 819169C2 		.ascii	"\201\221i\3029\006\206F\016&FF\020\203\201\221\241\236"
 306      39068646 
 306      0E264646 
 306      10838191 
 306      A19E
 307 0024 89B13E92 		.ascii	"\211\261>\222\021\254v=\323\201\007\377\377\257\233"
 307      11AC763D 
 307      D38107FF 
 307      FFAF9B
 308 0033 337DCD1D 		.ascii	"3}\315\035\306\273L,@\021V\206\226\206\206\011\012\014"
ARM GAS  /tmp/ccEZ1ckG.s 			page 24


 308      C6BB4C2C 
 308      40115686 
 308      96868609 
 308      0A0C
 309 0045 0CC96015 		.ascii	"\014\311`\025!@\022\244-\224\221\011D3\237ghyp\3534"
 309      214012A4 
 309      2D949109 
 309      44339F67 
 309      687970EB 
 310 005a 5722E342 		.ascii	"W\"\343BFV\240t5\303\257\206\216\006\201LF\240r\210"
 310      4656A074 
 310      35C3AF86 
 310      8E06814C 
 310      46A07288 
 311 006e 8920118E 		.ascii	"\211 \021\216LF\306\\F\006\250\242L\240V\206\363\014"
 311      4C46C65C 
 311      4606A8A2 
 311      4CA05686 
 311      F30C
 312 0080 CD0FEE64 		.ascii	"\315\017\356dchcNf\204x \223\021h\371E\206\306\007w"
 312      6368634E 
 312      66847820 
 312      931168F9 
 312      4586C607 
 313 0095 B5618A20 		.ascii	"\265a\212  \004h.\320b\220*O\375\214\374\334T\375\344"
 313      2004682E 
 313      D062902A 
 313      4FFD8CFC 
 313      DC54FDE4 
 314 00a9 FC944AFD 		.ascii	"\374\224J\375\224\3242\375\344\214\314\244\314\374b"
 314      94D432FD 
 314      E48CCCA4 
 314      CCFC62
 315 00b8 FD92A2D2 		.ascii	"\375\222\242\322\274l} ##1G\277 \277\250\244X?8\304"
 315      BC6C7D20 
 315      23233147 
 315      BF20BFA8 
 315      A4583F38 
 316 00cd D7D848DF 		.ascii	"\327\330H\337\307\307E?4\3301(\244\314P\2778\265(31"
 316      C7C7453F 
 316      34D83128 
 316      A4CC50BF 
 316      38B52833 
 317 00e2 273E2727 		.ascii	"'>''E/\231\001\000\350\007I\327"
 317      452F9901 
 317      00E80749 
 317      D7
 318              		.text
 319              		.section	.gnu.lto_sd_lld_init.bd59b9e03b2c3fcc,"",%progbits
 320 0000 789C6362 		.ascii	"x\234cb`b@\007\222@<\207\221\201\301\033H32302M8\307"
 320      60624007 
 320      92403C87 
 320      9181C11B 
 320      48333233 
 321 0019 C0D0C8C1 		.ascii	"\300\320\310\301\304\310\010b002\32431\326G2\202\325"
 321      C4C80862 
 321      303032D4 
ARM GAS  /tmp/ccEZ1ckG.s 			page 25


 321      3331D647 
 321      3282D5
 322 002c AE673AF0 		.ascii	"\256g:\360\340\377\377u\237\246\317\351a|\315\304\006"
 322      E0FFFF75 
 322      9FA6CFE9 
 322      617CCDC4 
 322      06
 323 003d 14616568 		.ascii	"\024aehih\230\240\300\300\220\014V\021\002$A\332B\031"
 323      696898A0 
 323      C0C0900C 
 323      56110224 
 323      41DA4219 
 324 0051 994034F3 		.ascii	"\231@4\363y\206\266\007\235o\331\023\031\0272\262\002"
 324      7986B607 
 324      9D6FD913 
 324      191732B2 
 324      02
 325 0062 A5AB197E 		.ascii	"\245\253\031~5t4\010d2\002\225CL\004\211pd22\34622@"
 325      35743408 
 325      64320295 
 325      434C0489 
 325      70643232 
 326 007a 15453066 		.ascii	"\025E0f\0025\303$\230\223\031\231\240\022\231\214,\014"
 326      0235C324 
 326      98931999 
 326      A012998C 
 326      2C0C
 327 008c 0C67199A 		.ascii	"\014g\031\232v\334X\364\232\021\"\246\315\260\252\001"
 327      76DC58F4 
 327      9A1122A6 
 327      CDB0AA01 
 328 009c 08783319 		.ascii	"\010x3\031Yg3\314jl\000\031\315\006\267\004d(\003\304"
 328      596733CC 
 328      6A6C0019 
 328      CD06B704 
 328      642803C4 
 329 00b0 40886549 		.ascii	"@\210eI\020\012,\302\332\320\321\330\0004\220\001\344"
 329      100A2CC2 
 329      DAD0D1D8 
 329      00349001 
 329      E4
 330 00c1 C4B5C439 		.ascii	"\304\265\3049\221\021\227\023\2311\234\270\232h'2\342"
 330      91119713 
 330      99319CB8 
 330      9A682732 
 330      E2
 331 00d2 71E28A16 		.ascii	"q\342\212\026\260\023/24>\330\241\013s!\004\204\000"
 331      B0132F32 
 331      343ED8A1 
 331      0B732104 
 331      8400
 332 00e4 35004318 		.ascii	"5\000C\030\024\237\236\372\031\371\271\251\372\311\371"
 332      149F9EFA 
 332      19F9B9A9 
 332      FAC9F9
 333 00f3 2995FA29 		.ascii	")\225\372)\251e\372\311\031\231I\231\371\305\372%E\245"
 333      A965FAC9 
ARM GAS  /tmp/ccEZ1ckG.s 			page 26


 333      19994999 
 333      F9C5FA25 
 333      45A5
 334 0105 79D9FA40 		.ascii	"y\331\372@FFb\216~A~QI\261~p\210\257\261\221\276\217"
 334      4646628E 
 334      7E417E51 
 334      49B17E70 
 334      88AFB191 
 335 011b 8F8B7E68 		.ascii	"\217\213~h\260cPH\231\241~qjQfbN|NN\212^2\003\000i\232"
 335      B0635048 
 335      99A17E71 
 335      6A516662 
 335      4E7C4E4E 
 336 0136 7ED7     		.ascii	"~\327"
 337              		.text
 338              		.section	.gnu.lto_sd_lld_start.bd59b9e03b2c3fcc,"",%progbits
 339 0000 789C9D53 		.ascii	"x\234\235SMh\023A\024~ov\366/?\032\274\027z\362`\301"
 339      4D681341 
 339      147E6F76 
 339      F62F3F1A 
 339      BC177AF2 
 340 0016 517BF424 		.ascii	"Q{\364$\010\022\254\027\233\200\236$\335\204d11\222"
 340      0812AC17 
 340      9B809E24 
 340      DD846431 
 340      3192
 341 0028 D48278E8 		.ascii	"\324\202x\350D[\350\261\340\245\270h\365V<\330C\245"
 341      445BE8B1 
 341      E0A5B868 
 341      F5563CD8 
 341      43A5
 342 003a 684F6DD0 		.ascii	"hOm\320\020\204*R\017Zz\310I\017\"\366\342\305\203\361"
 342      10842A52 
 342      0F5A7AC8 
 342      490F22F6 
 342      E2C583F1 
 343 004e CD4E76B1 		.ascii	"\315Nv\261U\361ga\337\314\274\371\276\367\276\371v\226"
 343      55F16761 
 343      DFCCBCF9 
 343      BEF7BEF9 
 343      7696
 344 0060 0183FDCF 		.ascii	"\001\203\375\317\024\275\267\015\200\2634b\002\220\315"
 344      14BDB70D 
 344      80B33462 
 344      0290CD
 345 006f BF046839 		.ascii	"\277\004h9\214\031;I\220\011\376\270\015 S\006r\235"
 345      8C193B49 
 345      9009FEB8 
 345      0D205306 
 345      729D
 346 0081 E7CCEC0C 		.ascii	"\347\314\354\014Q\336}q\214\322&\263\356\233\264\262"
 346      51DE7D71 
 346      8CD226B3 
 346      EE9BB4B2 
 347 0091 77BB0A65 		.ascii	"w\273\012e\241\255Q6s\276\330\012\025tT\336AW\347]D"
 347      A1AD5136 
 347      73BED80A 
ARM GAS  /tmp/ccEZ1ckG.s 			page 27


 347      157454DE 
 347      4157E75D 
 348 00a6 35018469 		.ascii	"5\001\204ifp\323\262)3}\021C!\313l\275\327\357?Z\010"
 348      6670D3B2 
 348      29337D11 
 348      4321CB6C 
 348      BDD7EF3F 
 349 00bc 9E6FE092 		.ascii	"\236o\340\2228\204PC\340H\301\242\2006\370\010\016\005"
 349      38845043 
 349      E048C1A2 
 349      8036F808 
 349      0E05
 350 00ce 745548A9 		.ascii	"tUH\251\220V!CA\235\312\204\031)\347\207\001\274\260"
 350      90562143 
 350      419DCA84 
 350      1929E787 
 350      01BCB0
 351 00e1 5C8EA26A 		.ascii	"\\\216\242j\225\247M\032\215.<\373\260q70\012\370\000"
 351      95A74D1A 
 351      8D2E3CFB 
 351      B0713730 
 351      0AF800
 352 00f4 4D2823BF 		.ascii	"M(#\277\200>\032?\032\221\243\345N\322\310#\017\011"
 352      803E1A3F 
 352      1A91A3E5 
 352      4ED2C823 
 352      0F09
 353 0106 9B7073FB 		.ascii	"\233ps\373\311\352\026F\004{\004\216\370\310\003\270"
 353      C9EA1646 
 353      047B048E 
 353      F8C803B8 
 354 0116 4344B38C 		.ascii	"CD\263\214\226*`\205\314\011\214j\250.\255tLQ\020\036"
 354      962A6085 
 354      CC098C6A 
 354      A82EAD74 
 354      4C51101E 
 355 012a 6FC23B40 		.ascii	"o\302;@j\314\360\006|\225\013r}18H\022j\241z\243k(\255"
 355      6ACCF006 
 355      7C950B72 
 355      7D313848 
 355      126AA17A 
 356 0142 267486B4 		.ascii	"&t\206\264\324\255 \025\225\261\024~N\312Q\352W\333"
 356      D4AD2015 
 356      95B1147E 
 356      4ECA51EA 
 356      57DB
 357 0154 AB992816 		.ascii	"\253\231(\026|C\022\333\336~\273v2b8#\360P\316\2642"
 357      7C4312DB 
 357      DE7EBB76 
 357      32623823 
 357      F050CEB4 
 358 0169 3EDA5AAF 		.ascii	">\332Z\257\243\224\270rwNr\010\247\003\335\221\266M"
 358      A394B872 
 358      774E7208 
 358      A703DD91 
 358      B64D
 359 017b B8F534B6 		.ascii	"\270\3654\266\306-k<J\351\204{\355\254\336\372\267\252"
ARM GAS  /tmp/ccEZ1ckG.s 			page 28


 359      C62D6B3C 
 359      4AE9847B 
 359      EDACDEFA 
 359      B7AA
 360 018d 65B57E05 		.ascii	"e\265~\005\263\275\217\237\222\232\017\240OB\025\022"
 360      B3BD8F9F 
 360      929A0FA0 
 360      4F421512 
 361 019d DE00A578 		.ascii	"\336\000\245x\311\303zP\0375\025\235\313\216\255X\271"
 361      C9C37A50 
 361      1F35159D 
 361      CB8EAD58 
 361      B9
 362 01ae F71B2BF8 		.ascii	"\367\033+\370>+\034\3503m\305\373\330\212\324\337\212"
 362      3E2B1CE8 
 362      336DC5FB 
 362      D88AD4DF 
 362      8A
 363 01bf 8EFE8C3D 		.ascii	"\216\376\214=V\244\251@h\305\360\177\031\301\006F\244"
 363      56A4A940 
 363      68C5F07F 
 363      19C10646 
 363      A4
 364 01d0 B511C1E7 		.ascii	"\265\021\301\347?\031q\346\027F\270\321u\\\233]Y\315"
 364      3F1971E6 
 364      1746B8D1 
 364      755C9B5D 
 364      59CD
 365 01e2 AA7219DD 		.ascii	"\252r\031\335\225E\227\360\215\243\261\252\307\342\262"
 365      954597F0 
 365      8DA3B1AA 
 365      C7E2B2
 366 01f1 FD538FB4 		.ascii	"\375S\217\264\027+\311\224\221\030\007\000^C\253\267"
 366      172BC994 
 366      91180700 
 366      5E43ABB7 
 367 0201 242268F4 		.ascii	"$\"h\364\007\240\352\245\260YQ\251\327J\302\253\027"
 367      07A0EAA5 
 367      B05951A9 
 367      D74AC2AB 
 367      17
 368 0212 AF8B6269 		.ascii	"\257\213biJx\025\177\302\2577\305d\343\332\225\313\202"
 368      4A78157F 
 368      C2AF37C5 
 368      64E3DA95 
 368      CB82
 369 0224 26954255 		.ascii	"&\225BU\\\2557&\233b<wn\364\204\030\033;-\362\343\247"
 369      5CAD3726 
 369      9B623C77 
 369      6EF48418 
 369      1B3B2DF2 
 370 023a CEE7A68E 		.ascii	"\316\347\246\216\213f\251\341\027\252\227\252\325\342"
 370      8B66A9E1 
 370      17AA97AA 
 370      D5E2
 371 0248 510FBE03 		.ascii	"Q\017\276\003\"\302\362m"
 371      22C2F26D 
ARM GAS  /tmp/ccEZ1ckG.s 			page 29


 372              		.text
 373              		.section	.gnu.lto_sd_lld_stop.bd59b9e03b2c3fcc,"",%progbits
 374 0000 789C9553 		.ascii	"x\234\225S\317k\023A\030\375\276\231\375\2256\265\375"
 374      CF6B1341 
 374      18FDBE99 
 374      FD9536B5 
 374      FD
 375 0011 032C089E 		.ascii	"\003,\010\236\264\340\250\375\013\004A\212\365b\023"
 375      B4E0A8FD 
 375      0B04418A 
 375      F56213
 376 0020 517A9074 		.ascii	"Qz\220t\023\222\301\304H\322\026\304C'm\300\012\012"
 376      1392C1C4 
 376      48D216C4 
 376      43276DC0 
 376      0A0A
 377 0032 BD59EC21 		.ascii	"\275Y\354!\210\320\202\210\342-\"B,\022\244R[\361\240"
 377      88D08288 
 377      E22D2242 
 377      2C12A452 
 377      5BF1A0
 378 0045 F4A0C18B 		.ascii	"\364\240\301\2137\353\305\037(\270~\263\323\215\245"
 378      37EBC51F 
 378      28B87EB3 
 378      D38DA5
 379 0054 29421776 		.ascii	")B\027vf\366\333\367\2757\357\315.\003\006;\257Q\272"
 379      66F6DBF7 
 379      BD37EFCD 
 379      2E03063B 
 379      AF51BA
 380 0067 CF7180D3 		.ascii	"\317q\200\3234\243\007\310\346^\003T<\306x\263\037T"
 380      34A307C8 
 380      E65E0354 
 380      3CC678B3 
 380      1F54
 381 0079 97BB7214 		.ascii	"\227\273r\024T\2343\353\011\247'\373\335\012\320\243"
 381      549C33EB 
 381      09A727FB 
 381      DD0AD0A3 
 382 0089 85AE46A1 		.ascii	"\205\256F\241\315\234o\256\006-4u\3311\345\212\347\""
 382      CD9C6FAE 
 382      062D3475 
 382      D931E58A 
 382      E722
 383 009b EA05204C 		.ascii	"\352\005 L1n\331\216\213S\0270T{\304\032\255 x\370\375"
 383      316ED98E 
 383      8B531730 
 383      547BC41A 
 383      AD2078F8 
 384 00b0 C3E203BC 		.ascii	"\303\342\003\274q\260\227a\001\201\203D\260h y\211,"
 384      71B09761 
 384      01818344 
 384      B0682079 
 384      892C
 385 00c2 A60782DA 		.ascii	"\246\007\202\332PUj\356\000\200\037\266&h\324\244Iz"
 385      50556AEE 
 385      00801FB6 
ARM GAS  /tmp/ccEZ1ckG.s 			page 30


 385      2668D4A4 
 385      497A
 386 00d4 49335F85 		.ascii	"I3_\205\351\215\372\346[L\341]\264!\213|\000\016K\344"
 386      E98DFAE6 
 386      5B4CE15D 
 386      B4218B7C 
 386      000E4BE4 
 387 00e8 0B700725 		.ascii	"\013p\007%ZYd\347i\266C\3211\214\314\276\204\027\237"
 387      5A5964E7 
 387      69B643D1 
 387      318CCCBE 
 387      84179F
 388 00fb 2B3DED16 		.ascii	"+=\355\026\015\341\333#I\"\207f\177\310\375~\363\025"
 388      0DE1DB23 
 388      49228766 
 388      7FC8FD7E 
 388      F315
 389 010d 8B8056C8 		.ascii	"\213\200V\310\215\304]QJ\215v\362G\002\253\260\\\377"
 389      8DC45D51 
 389      4A8D76F2 
 389      4702ABB0 
 389      5CFF
 390 011f F9671DDB 		.ascii	"\371g\035\333{7\013\365\373\331!\000\303\346\033\360"
 390      7B370BF5 
 390      FBD92100 
 390      C3E61BF0 
 391 012f 00DC57D5 		.ascii	"\000\334W\325J\343\307u&\3211\304}\022]\322\322\274"
 391      4AE3C775 
 391      26D131C4 
 391      7D125DD2 
 391      D2BC
 392 0141 B8C5CB74 		.ascii	"\270\305\313t\327\222\226\321U'\222\230\017\326\311"
 392      D79296D1 
 392      55279298 
 392      0FD6C9
 393 0150 F722D50D 		.ascii	"\367\"\325\015\215\212\375\217\204\357NR\337\023\211"
 393      8D8AFD8F 
 393      84EF4E52 
 393      DF1389
 394 015f D549A2C3 		.ascii	"\325I\242\303|^\253\305\243\224\3305\370\245f\225\032"
 394      7C5EABC5 
 394      A394D835 
 394      F8A56695 
 394      1A
 395 0170 A45C0AED 		.ascii	"\244\\\012\355H\242`-XB\276\0063\236\201\003\0304Iy"
 395      48A2602D 
 395      5842BE06 
 395      339E8103 
 395      18344979 
 396 0184 3E9A3390 		.ascii	">\2323\220\030\213\3206\324\366\363P\340\366\247\006"
 396      188BD036 
 396      D4F6F350 
 396      E0F6A706 
 397 0194 EEAEC076 		.ascii	"\356\256\300v(8\360\205\321\321-o\314\337\273\351F-"
 397      2838F085 
 397      D1D12D6F 
 397      CCDFBBE9 
ARM GAS  /tmp/ccEZ1ckG.s 			page 31


 397      462D
 398 01a6 9E31D767 		.ascii	"\2361\327g\274\321\326\273\364\376\273\325\327Ye\205"
 398      BCD1D6BB 
 398      F4FEBBD5 
 398      D7596585 
 399 01b6 56BAB70C 		.ascii	"V\272\267\014\332\355#\234y\312\243\356\030\021h\020"
 399      DAED239C 
 399      79CAA3EE 
 399      18116810 
 400 01c6 FB180441 		.ascii	"\373\030\004A\257\011n\310\274\334\033oV[[\203j\353"
 400      AF096EC8 
 400      BCDC1B6F 
 400      565B5B83 
 400      6AEB
 401 01d8 D6E31676 		.ascii	"\326\343\026v$\020\367\365!\201\311\266\347\024\005"
 401      2410F7F5 
 401      2181C9B6 
 401      E71405
 402 01e7 B12F32E5 		.ascii	"\261/2\345\206\037\373\033\372\251\376YMP\270T\325\376"
 402      861FFB1B 
 402      FAA9FE59 
 402      4D50B854 
 402      D5FE
 403 01f9 8744AE58 		.ascii	"\207D\256X\310\010\277\230\276*\322\231I\341\347\344"
 403      C808BF98 
 403      BE2AD299 
 403      49E1E7E4 
 404 0209 982C96C5 		.ascii	"\230,\226\305xi\342\362%A\213\\*/\256\024K\343e1\222"
 404      7869E2F2 
 404      25418B5C 
 404      2A2FAE14 
 404      4BE36531 
 405 021e 3833785C 		.ascii	"83x\\\014\017\237\024\311\221\023g\023\223\307D9S\222"
 405      0C0F9F14 
 405      C9911367 
 405      1393C744 
 405      395392
 406 0231 A9FCC57C 		.ascii	"\251\374\305|>}\304\207\277\340\362\346\322"
 406      3E7DC487 
 406      BFE0F2E6 
 406      D2
 407              		.text
 408              		.section	.gnu.lto_.symbol_nodes.bd59b9e03b2c3fcc,"",%progbits
 409 0000 789C4DCD 		.ascii	"x\234M\315;N\303@\024\205\341;\347z\202\211q\022\363"
 409      3B4EC340 
 409      1485E13B 
 409      E77A8289 
 409      7112F3
 410 0013 A8E96055 		.ascii	"\250\351`U\024Y\3111\030b\207WB\020\015\342!\344\035"
 410      1459C931 
 410      18628757 
 410      42100DE2 
 410      21E41D
 411 0026 D0D3908E 		.ascii	"\320\323\220\216\202\212\005 \242t\224\210\222`;V\306"
 411      828A0520 
 411      A2749488 
 411      92603B56 
ARM GAS  /tmp/ccEZ1ckG.s 			page 32


 411      C6
 412 0037 D3FCFA8E 		.ascii	"\323\374\372\216\2564\020\310\263\221\345\303\00042"
 412      AE3410C8 
 412      B391E5C3 
 412      003432
 413 0046 7E1721EF 		.ascii	"~\027!\357\206}\244\2404x\014\242\346}\326\307\011\250"
 413      867DA4A0 
 413      34780CA2 
 413      E67DD6C7 
 413      09A8
 414 0058 0DDE80DE 		.ascii	"\015\336\200\336\212\006\217\240m0\003[5\0372c\027F"
 414      8A068FA0 
 414      6D30035B 
 414      351F3263 
 414      1746
 415 006a 2C054370 		.ascii	",\005Cp\255\261\3060\345z\012\372n\305\031\270\3368"
 415      ADB1C630 
 415      E57A0AFA 
 415      6EC519B8 
 415      DE38
 416 007c 3A043C2A 		.ascii	":\004<*\316\301\266[\315\030\014\226\214ccF\340\206"
 416      CEC1B65B 
 416      CD180C96 
 416      8C636346 
 416      E086
 417 008e D325183A 		.ascii	"\323%\030:]\203\035\247\013\260\353t\005\366\234&`\264"
 417      5D831DA7 
 417      0BB0EB74 
 417      05F69C26 
 417      60B4
 418 00a0 92A22349 		.ascii	"\222\242#I\372\275\253Zt0\367T!\257\351\357\201jO\362"
 418      FABDAB5A 
 418      7430F754 
 418      21AFE9EF 
 418      816A4FF2 
 419 00b4 B7C58B55 		.ascii	"\267\305\213U\355J>\372@u0\331)3\275\375\201\332Hf\237"
 419      ED4A3EFA 
 419      407530D9 
 419      2933BDFD 
 419      81DA4866 
 420 00c9 7F465B2A 		.ascii	"\177F[*GU7%/\353\327\366k\267\267$\251;-\033l\313l^"
 420      47553725 
 420      2FEBD7F6 
 420      6BB7B724 
 420      A93B2D1B 
 421 00e1 2549F735 		.ascii	"%I\3675\360\212\337\212\337C+_OF\303\250X\367\344\037"
 421      F08ADF8A 
 421      DF432B5F 
 421      4F46C3A8 
 421      58F7E41F 
 422 00f5 11C77EDB 		.ascii	"\021\307~\333"
 423              		.text
 424              		.section	.gnu.lto_.refs.bd59b9e03b2c3fcc,"",%progbits
 425 0000 789C25C6 		.ascii	"x\234%\306\311\015\000 \014\304\300]#%\204\243\014\372"
 425      C90D0020 
 425      0CC4C05D 
 425      232584A3 
ARM GAS  /tmp/ccEZ1ckG.s 			page 33


 425      0CFA
 426 0012 6F1121FC 		.ascii	"o\021!\374\030\031\241\243\237\203t\247b\220\310IaW"
 426      1819A1A3 
 426      9F8374A7 
 426      6290C849 
 426      6157
 427 0024 9B2CDEEF 		.ascii	"\233,\336\357\247.\024\035\000\334"
 427      A72E141D 
 427      00DC
 428              		.text
 429              		.section	.gnu.lto_.decls.bd59b9e03b2c3fcc,"",%progbits
 430 0000 789CBD5C 		.ascii	"x\234\275\\\013p\024\307\231\236\231\335\225\264 \363"
 430      0B7014C7 
 430      999E99DD 
 430      95B420F3 
 431 0010 8A2F2175 		.ascii	"\212/!u\256\240\\%)W|AH\002\202/\027\214-\021[u\006"
 431      AEA05C25 
 431      29577C41 
 431      4802822F 
 431      178C2D11 
 432 0027 73127692 		.ascii	"s\022v\222\253\\\255\007iA\033K\332ew\304\343\352\352"
 432      AB5CAD07 
 432      69411B4B 
 432      DA6577C4 
 432      E3EAEA
 433 003a 3CBCE407 		.ascii	"<\274\344\0076\026\002\033\361\224 \340\000\001\233"
 433      3616021B 
 433      F19420E0 
 433      00019B
 434 0049 578CC160 		.ascii	"W\214\301`/o\001\216\020\342e0\30626\234\361\013\020"
 434      2F6F018E 
 434      10E26530 
 434      C632369C 
 434      F10B10
 435 005c 080CD8E8 		.ascii	"\010\014\330\350\376\376{f\266{4\263;#\223\333\252\356"
 435      FEFE7B66 
 435      B67B34B3 
 435      3B2393DB 
 435      AAEE
 436 006e E999E9FE 		.ascii	"\351\231\351\376\372\373\377\376\373\357\327H\222 \011"
 436      FAFBFFFE 
 436      FBEFD748 
 436      922009
 437 007d F7FA04A1 		.ascii	"\367\372\004\241\003~\275\377S\020\302\335\004!S\020"
 437      037EBDFF 
 437      5310C2DD 
 437      04215310 
 438 008d 84A110FC 		.ascii	"\204\241\020\374\020\226B\210\210\202\260\023\256\023"
 438      10964288 
 438      8882B013 
 438      AE13
 439 009b E17A01C2 		.ascii	"\341z\001\302E\010PL\370>\204\275$\015\277>\020\356"
 439      4508504C 
 439      F83E84BD 
 439      240DBF3E 
 439      10EE
 440 00ad 83FB0110 		.ascii	"\203\373\001\020\006B\030\012\241\000\302H\010E\020"
ARM GAS  /tmp/ccEZ1ckG.s 			page 34


 440      0642180A 
 440      A100C248 
 440      084510
 441 00bc 9E80F07B 		.ascii	"\236\200\360{\010\177\200P\012\241\014B%\204\030\204"
 441      087F8050 
 441      0AA10C42 
 441      25841884 
 442 00cc 4910FE1B 		.ascii	"I\020\376\033\302\377@\230\016\301\003X\317\301u&\204"
 442      C2FF4098 
 442      0EC10358 
 442      CFC17526 
 442      84
 443 00dd 172581FB 		.ascii	"\027%\201\373\021|/\\\323I\200\264(Q.\204\306]\332u"
 443      117C2F5C 
 443      D34980B4 
 443      28512E84 
 443      C65DDA75 
 444 00f1 80A98CA0 		.ascii	"\200\251\214\240qKU\356>\213rD\226\356\232\016z\010"
 444      714B55EE 
 444      3E8B7244 
 444      96EE9A0E 
 444      7A08
 445 0103 5437FDE0 		.ascii	"T7\375\340\331S\022\305\"\372\231$R\335\324\300\263"
 445      D95312C5 
 445      22FA9924 
 445      52DDD4C0 
 445      B3
 446 0114 9086B54B 		.ascii	"\220\206\265K\244r\220\362\2635y\011\374\257 \272\337"
 446      A47290F2 
 446      B3357909 
 446      FCAF20BA 
 446      DF
 447 0125 540FD1D5 		.ascii	"T\017\321\325\2175nz\035$3\251\347\027\"\345\375\224"
 447      8F356E7A 
 447      1D2433A9 
 447      E71722E5 
 447      FD94
 448 0137 863B1EAE 		.ascii	"\206;\036\256s!\001M&\324I\211\272u\231\026J\264\255"
 448      7321014D 
 448      26D44989 
 448      BA759916 
 448      4AB4AD
 449 014a 164B941B 		.ascii	"\026K\224\033\341D\270\023^\365\020\006Ah\200\240@h"
 449      E144B813 
 449      5EF51006 
 449      416880A0 
 449      4068
 450 015c 87E74BE1 		.ascii	"\207\347K\341\032\206\220\006y\253E\332\346\035\"\325"
 450      1A869006 
 450      79AB45DA 
 450      E61D22D5 
 451 016c 499A44E5 		.ascii	"I\232D\345\360\303\365*\\?\201p\036\302\031\221r\035"
 451      F0C3F52A 
 451      5C3F8170 
 451      1EC21991 
 451      721D
 452 017e CAC83650 		.ascii	"\312\3106PkK\322\246\3134\256\017\231\344,\320tId\323"
ARM GAS  /tmp/ccEZ1ckG.s 			page 35


 452      6B4BD2A6 
 452      CB34AE0F 
 452      99E42CD0 
 452      744964D3 
 453 0192 E5243844 		.ascii	"\345$8DO\253\340\331\0174\233\322eY\015\001\314Q\270"
 453      4FABE0D9 
 453      0F349BD2 
 453      65590D01 
 453      CC51B8
 454 01a5 879483F0 		.ascii	"\207\224\203\3603\010=!\334\013\2417\204\037I\011\236"
 454      33083D21 
 454      DC0BA137 
 454      841F4909 
 454      9E
 455 01b6 7EADCE02 		.ascii	"~\255\316\002\315~\376\002\327\177\203Ph\3420R\303\234"
 455      CD7EFE02 
 455      D77F8350 
 455      68E23052 
 455      C39C
 456 01c8 28F21C48 		.ascii	"(\362\034H\235k |\005\341\242\246\303\311\032f\263\326"
 456      9D6B207C 
 456      05E1A2A6 
 456      C3C91A66 
 456      B3D6
 457 01da 7623355B 		.ascii	"v#5[5\377\210}\223\366\270$Q\334\007\340z\031B\261\226"
 457      35FF887D 
 457      93F6B824 
 457      51DC07E0 
 457      7A1942B1 
 458 01ef D7A3E519 		.ascii	"\327\243\345\031\252\3319\301|\316\204\363\204\003\214"
 458      AAD939C1 
 458      7CCE84F3 
 458      84038C
 459 01fe 274C1833 		.ascii	"'L\0303M\030\277\327l\262M\342\373\352\323\232\255\023"
 459      4D18BFD7 
 459      6CB24DE2 
 459      FBEAD39A 
 459      AD13
 460 0210 5B11B5F6 		.ascii	"[\021\265\366\365j\371I\237#\375\345>MF\275\337\261"
 460      F56AF949 
 460      9F23FDE5 
 460      3E4D46BD 
 460      DFB1
 461 0222 3FD2677B 		.ascii	"?\322g{\302u\277\326\356l\337g\355O\327\337\025M\177"
 461      C275BFD6 
 461      EE6CDF67 
 461      ED4FD7DF 
 461      154D7F
 462 0235 3388DD40 		.ascii	"3\210\335@\030\256\265\311\036\221\352\262E\273'\270"
 462      18AEB5C9 
 462      1E91EAB2 
 462      45BB27B8 
 463 0245 A4BF1768 		.ascii	"\244\277\027h\262\217\201\253,\321>o\305\243\224\341"
 463      B28F81AB 
 463      2CD13E6F 
 463      C5A394E1 
 464 0255 2168B29A 		.ascii	"!h\262\2329\020\273i\207\360\230M{\246i<t\033\357\251"
ARM GAS  /tmp/ccEZ1ckG.s 			page 36


 464      3910BB69 
 464      87F0984D 
 464      7BA6693C 
 464      741BEFA9 
 465 0269 D912E1E4 		.ascii	"\331\022\341\344\325\352\270&%\332\232\360\034k\303"
 465      D5EAB826 
 465      25DA9AF0 
 465      1C6BC3
 466 0278 A78F305B 		.ascii	"\247\2170[\205_CZ#X\322\357DY\354\341\027\2620\221\351"
 466      855F435A 
 466      2358D2EF 
 466      4459ECE1 
 466      17B23091 
 467 028d 47B09F0A 		.ascii	"G\260\237\012\313U\265\246\365\334\377\366U\275\262"
 467      CB55B5A6 
 467      F5DCFFF6 
 467      55BDB2
 468 029c B854EC03 		.ascii	"\270T\354\003\254\357\027\205\237\013\253\240X\215\252"
 468      ACEF1785 
 468      9F0BABA0 
 468      588DAA
 469 02ab 4EFD99D8 		.ascii	"N\375\231\330\331\232R\303J\302c\242 \213+\000O\026"
 469      D99A52C3 
 469      4AC263A2 
 469      208B2B00 
 469      4F16
 470 02bd 978B3FA7 		.ascii	"\227\213?\247\365\250\361\315\325w\223z\310sA{c\361"
 470      F5A8F1CD 
 470      D577937A 
 470      C873417B 
 470      63F1
 471 02cf FBB1D000 		.ascii	"\373\261\320\0005\307\267T/\376\241\332\260S\354.<\017"
 471      35C7B754 
 471      2FFEA1DA 
 471      B053EC2E 
 471      3C0F
 472 02e1 B76A43B5 		.ascii	"\267jC\265\372Hc\017\255\352,\246\346\006Q\257\372n"
 472      FA48630F 
 472      ADEA2CA6 
 472      E60651AF 
 472      FA6E
 473 02f3 43A2F8FB 		.ascii	"C\242\370\373\337\212Y\262\270\032\005\372\203\310\325"
 473      DF8A59B2 
 473      B81A05FA 
 473      83C8D5
 474 0302 95124212 		.ascii	"\225\022B\022*H\211\265f\366\355r\026}\232\232\373\365"
 474      2A4889B5 
 474      66F6ED72 
 474      167D9A9A 
 474      FBF5
 475 0314 0BFB45B5 		.ascii	"\013\373E\2656S\026W\001}I\370o\035\317JYZ\222\376\264"
 475      36531657 
 475      017D49F8 
 475      6F1DCF4A 
 475      595A92FE 
 476 0329 0C3CDA37 		.ascii	"\014<\3327\301\306\001)\265\340\325\201\012\022\355"
 476      C1C60129 
ARM GAS  /tmp/ccEZ1ckG.s 			page 37


 476      B5E0D581 
 476      0A12ED
 477 0338 5AF7FC6E 		.ascii	"Z\367\374nQU3dq\023*b\273\230Z\023\034\214\004\326K"
 477      51553364 
 477      71132A62 
 477      BB985A13 
 477      1C8C04D6 
 478 034d 8A6C36A9 		.ascii	"\212l6\251\242\365\360\2543S\304)\252*\322w\251\025"
 478      A2F5F0AC 
 478      3353C429 
 478      AA2AD277 
 478      A915
 479 035f 724B6B4C 		.ascii	"rKkLY\334\210\032\231!\351\270]S\311\355\275\2315\262"
 479      59DC881A 
 479      9921E9B8 
 479      5D53C9ED 
 479      BD9935B2 
 480 0373 0EF6826B 		.ascii	"\016\366\202k\260,\016l\316\276EH\316/<\233\320q\322"
 480      B02C0E6C 
 480      CEBE4548 
 480      CE2F3C9B 
 480      D071D2
 481 0386 0E73A2A5 		.ascii	"\016s\242\245\351\2608\015\345\177\007\212I\302i\211"
 481      E9B0380D 
 481      E57F078A 
 481      49C26989 
 482 0396 57AD73A8 		.ascii	"W\255s\250\371\363\366\354\020\247\"\324N\204z\316\323"
 482      F9F3F6EC 
 482      10A722D4 
 482      4E847ACE 
 482      D3
 483 03a7 55A8630B 		.ascii	"U\250c\013\266\335\217\315\275\007\201\366\231\200d"
 483      B6DD8FCD 
 483      BD0781F6 
 483      998064
 484 03b6 31DD50A3 		.ascii	"1\335P\243q\257g h\370ZK\220\351VO\341\357\234]\022"
 484      71AF6720 
 484      68F85A4B 
 484      90E9564F 
 484      E1EF9C5D 
 485 03cb 5A3C0E9A 		.ascii	"Z<\016\232.\303\316\016\324\326\346Y\347\304\371j|\272"
 485      2EC3CE0E 
 485      D4D6E659 
 485      E7C4F96A 
 485      7CBA
 486 03dd C7814F3A 		.ascii	"\307\201O:\211u\0350\333\362\234\372/\247j\266|\300"
 486      89751D30 
 486      DBF29CFA 
 486      2FA76AB6 
 486      7CC0
 487 03ef 912D6F3E 		.ascii	"\221-o>8\317\231cJ\323\353/\305\372\027zI\375\207\314"
 487      38CF9963 
 487      4AD3EB2F 
 487      C5FA177A 
 487      49FD87CC 
 488 0403 F5D77FFC 		.ascii	"\365\327\177\374\351\320:U\355E_\245\256\376\303Cs;"
 488      E9D03A55 
ARM GAS  /tmp/ccEZ1ckG.s 			page 38


 488      ED455FA5 
 488      AEFEC343 
 488      733B
 489 0415 572F8B43 		.ascii	"W/\213C\377!\231i\314\251\337\327\246\011y\004\373\314"
 489      FF219969 
 489      CCA9DFD7 
 489      A6097904 
 489      FBCC
 490 0427 39AFD938 		.ascii	"9\257\3318\036\350\3167\037\3343\031$\341+\203~\227"
 490      1EE8CE37 
 490      1FDC3319 
 490      24E12B83 
 490      7E97
 491 0439 BA2CC819 		.ascii	"\272,\310\031\177`\325\006U}.M\347\320\346\0321\213"
 491      7F60D506 
 491      557D2E4D 
 491      E7D0E61A 
 491      318B
 492 044b D344DB21 		.ascii	"\323D\333!t\002\024\354\232\0230[K\232\032\277\312\202"
 492      740214EC 
 492      9A13305B 
 492      4B9A1ABF 
 492      CA82
 493 045d DD740DC6 		.ascii	"\335t\015\3063\273\306\202\335v\002\326\313\236\331"
 493      33BBC682 
 493      DD7602D6 
 493      CB9ED9
 494 046c D72CD854 		.ascii	"\327,\330T\237[0\236\331M\026\254\332\011X_{f\337\260"
 494      9F5B309E 
 494      D94D16AC 
 494      DA09585F 
 494      7B66DFB0 
 495 0480 60CFBB06 		.ascii	"`\317\273\006\343\231\335f\301f9\001\313\262gV\323\302"
 495      E399DD66 
 495      C1663901 
 495      CBB26756 
 495      D3C2
 496 0492 80D5BA06 		.ascii	"\200\325\272\006\343\231\325\262`\2578\001\273\327\236"
 496      E399D5B2 
 496      60AF3801 
 496      BBD79E
 497 04a1 D95C166C 		.ascii	"\331\\\026l\201k0\236\331+,\330\022'`\003\354\231\325"
 497      816B309E 
 497      D92B2CD8 
 497      12276003 
 497      EC99D5
 498 04b4 B160CB5C 		.ascii	"\261`\313\\\203\361\314\026\260`\257:\001\033b\317l"
 498      83F1CC16 
 498      B060AF3A 
 498      011B62CF 
 498      6C
 499 04c5 110BB6DA 		.ascii	"\021\013\266\3325\030\317l\035\013\366\232\023\260a"
 499      3518CF6C 
 499      1D0BF69A 
 499      13B061
 500 04d4 F6CC36B0 		.ascii	"\366\3146\260`\353]\203\361\3146\261`\233\234\200=b"
 500      60EB5D83 
ARM GAS  /tmp/ccEZ1ckG.s 			page 39


 500      F1CC36B1 
 500      609B9C80 
 500      3D62
 501 04e6 CFEC0D16 		.ascii	"\317\354\015\026l\263k0\236\331\233,\330V'`\243\354"
 501      6CB36B30 
 501      9ED99B2C 
 501      D8562760 
 501      A3EC
 502 04f8 996D65C1 		.ascii	"\231me\301\266\273\006\343\231mc\301\342N\300~g\317"
 502      B6BB06E3 
 502      996D63C1 
 502      E24EC07E 
 502      67CF
 503 050a EC6D166C 		.ascii	"\354m\026l\267k0\236Y3\013\326\350\004\354I\013f\306"
 503      B76B309E 
 503      59330BD6 
 503      E804EC49 
 503      0B66C6
 504 051d CFAA1C19 		.ascii	"\317\252\034\031\246\233Dc\334\226\204\203>}\212\343"
 504      A69B4463 
 504      DC968483 
 504      3E7D8AE3 
 505 052d 728C1612 		.ascii	"r\214\026\022\030\207|n\247d\234\334\26068\277T\234"
 505      18877C6E 
 505      A7649CDC 
 505      B03638BF 
 505      549C
 506 053f 334D6D1C 		.ascii	"3Mm\034\240\317\317\2179AL2\000.\330\307L\366?p\015"
 506      A0CFCF8F 
 506      39414C32 
 506      002ED8C7 
 506      4CF63F70 
 507 0554 66326502 		.ascii	"f2e\002\306\315\235\264\011v\353\212x\337\272\304\354"
 507      C6CD9DB4 
 507      0976EB8A 
 507      78DFBAC4 
 507      EC
 508 0565 2D43C722 		.ascii	"-C\307\"+`:U\203\005\261ddV\373\366\265\316+\2135\322"
 508      2B603A55 
 508      8305B164 
 508      6456FBF6 
 508      B5CE2B8B 
 509 057b 4F219E2D 		.ascii	"O!\236-\371\015\0264\255\247\310\322\036f`>\253\265"
 509      F90D1634 
 509      ADA7C8D2 
 509      1E66603E 
 509      ABB5
 510 058d 3502242F 		.ascii	"5\002$/jg\011\263$\306\022>s\242\246$C\373\207\373\026"
 510      6A6709B3 
 510      24C6123E 
 510      73A2A624 
 510      43FB87FB 
 511 05a2 FD406D8D 		.ascii	"\375@m\215\213\214\274I\225\003k\242\332\277\351k\242"
 511      8B8CBC49 
 511      95036BA2 
 511      DABFE96B 
 511      A2
ARM GAS  /tmp/ccEZ1ckG.s 			page 40


 512 05b3 9725B2FE 		.ascii	"\227%\262\376\270\354\263\\\3108\200\232?o\355}\270"
 512      B8ECB35C 
 512      C838809A 
 512      3F6FED7D 
 512      B8
 513 05c4 90A943A0 		.ascii	"\220\251C\240\233]\006:\266`\311\020\004Z\210@S\323"
 513      9B5D063A 
 513      B660C910 
 513      045A8840 
 513      53D3
 514 05d6 CC935ED1 		.ascii	"\314\223^\321\264\"\022\3715\213\350O$:\370\346\272"
 514      B42212F9 
 514      358BE84F 
 514      243AF8E6 
 514      BA
 515 05e7 A379610D 		.ascii	"\243ya\015\233fj/N\234\224\263\247\326\303M\337\316"
 515      9B666A2F 
 515      4E9C94B3 
 515      A7D6C34D 
 515      DFCE
 516 05f9 16AF4C55 		.ascii	"\026\257LU\353\006\270h\261\226w\365\026k@\375\314\355"
 516      EB06B868 
 516      B19677F5 
 516      166B40FD 
 516      CCED
 517 060b A49F3AC9 		.ascii	"\244\237:\311\235\202$a\221kA\356\345\005\231\265\273"
 517      9D822461 
 517      916B41EE 
 517      E50599B5 
 517      BB
 518 061c D6BD2086 		.ascii	"\326\275 \206\351\255@A\226\337\001A\326\270\026d\000"
 518      E9AD4041 
 518      96DF0141 
 518      D6B81664 
 518      00
 519 062d 2308D923 		.ascii	"#\010\331#i\257\245~\360{Bm\362\265)\341\263Z\372\036"
 519      69AFA57E 
 519      F07B426D 
 519      F2B529E1 
 519      B35AFA1E 
 520 0641 BFDD74F2 		.ascii	"\277\335t\362\000na\301\343TkB5~\375\000\263\203\241"
 520      006E61C1 
 520      E3546B42 
 520      357EFD00 
 520      B383A1
 521 0654 3ADAC1A8 		.ascii	":\332\301\250=\244\253l-\252lc\232E's\0045\377\304\356"
 521      3DA4AB6C 
 521      2DAA6C63 
 521      9A452773 
 521      0435FFC4 
 522 0669 F5DA0EC6 		.ascii	"\365\332\016\306:\204\332\322e\250c\2476\323\376\272"
 522      3A84DAD2 
 522      65A863A7 
 522      36D3FEBA 
 523 0679 11817674 		.ascii	"\021\201vtj\3064S+\246\361\255\010\267\244\246\257\311"
 523      6AC63453 
 523      2BA6F1AD 
ARM GAS  /tmp/ccEZ1ckG.s 			page 41


 523      08B7A4A6 
 523      AFC9
 524 068b FE82F8B4 		.ascii	"\376\202\370\264\366\204\334\244\013\377\357\345`4F"
 524      F684DCA4 
 524      0BFFEFE5 
 524      603446
 525 069a FAA4055D 		.ascii	"\372\244\005]\216\306\206\005\235\253\325GR\332H-\337"
 525      8EC68605 
 525      9DABD547 
 525      52DA482D 
 525      DF
 526 06ab 09716A7C 		.ascii	"\011qj|\343L}\033\356\0012\226\276\377\035\341\016\037"
 526      E34C7D1B 
 526      EE013296 
 526      BEFF1DE1 
 526      0E1F
 527 06bd 74BD7156 		.ascii	"t\275qV{T7\273m(\321\331NM\274\323\354\223\235\354#"
 527      7B5437BB 
 527      6D28D1D9 
 527      4E4DBCD3 
 527      EC939DEC 
 528 06d2 7DD55549 		.ascii	"}\325UI\214\237$\264\233;\274\2535'4W\323u\255\271\234"
 528      8C9F24B4 
 528      9B3BBCAB 
 528      35273457 
 528      D375ADB9 
 529 06e7 EEBBCF3F 		.ascii	"\356\273\317?\260w\2128\235\356\375Id\207\366\206I\033"
 529      B0778A38 
 529      9DEEFD49 
 529      6487F686 
 529      491B
 530 06f9 0E76B59E 		.ascii	"\016v\265\236M'E\366H\235vh\377\246\357\320\222w\016"
 530      4D2745F6 
 530      489D7668 
 530      FFA6EFD0 
 530      92770E
 531 070c 76B5B81D 		.ascii	"v\265\270\035ZY|K\2244\334\256j\224k\304\004AY\334\207"
 531      5A597C4B 
 531      9434DCAE 
 531      6A946BC4 
 531      044159DC 
 532 0721 F3A346E9 		.ascii	"\363\243F\351\307\254\366\353\322\335j?\213\325~\374"
 532      C7ACF6EB 
 532      D2DD6A3F 
 532      8BD57EFC 
 533 0731 D6C14522 		.ascii	"\326\301E\"\341o\261\0217\214\235\265\352\252\177\276"
 533      E16FB111 
 533      378C9DB5 
 533      EAAA7FBE 
 534 0741 69B6A6FA 		.ascii	"i\266\246\372\203\250\372e\351\326\252\037f\007$\011"
 534      83A8FA65 
 534      E9D6AA1F 
 534      66072409 
 535 0751 1BB04853 		.ascii	"\033\260HS'\3257\035\325U\337\344H\365\307,U\337\344"
 535      27D5371D 
 535      D555DFE4 
 535      48F5C72C 
ARM GAS  /tmp/ccEZ1ckG.s 			page 42


 535      55DFE4
 536 0764 5EF51ADE 		.ascii	"^\365\032\336\361\304\346\270,nw\015\226\225\254\035"
 536      F1C4E6B8 
 536      2C6E770D 
 536      9695AC1D 
 537 0774 9B98766C 		.ascii	"\233\230vl\306v<\014\355(\213-|k\3562\267&\247:-i\273"
 537      C6763C0C 
 537      ED288B2D 
 537      7C6BEE32 
 537      B726A73A 
 538 078b 4BA2C6E7 		.ascii	"K\242\306\3474-\322TB\035_\223\023\353H\262\267\261"
 538      342DD254 
 538      421D5F93 
 538      13EB48B2 
 538      B7B1
 539 079d A4095542 		.ascii	"\244\011UB}\316Q\327`Y\034\330\366Y\316N\246T\343X\251"
 539      7DCE51D7 
 539      60591CD8 
 539      F659CE4E 
 539      A654E358 
 540 07b2 172AE543 		.ascii	"\027*\345C\254\367\224\331^\026v4?\243\331\313)\007"
 540      ACF794D9 
 540      5E167634 
 540      3FA3D9CB 
 540      2907
 541 07c4 F602A3FD 		.ascii	"\366\002\243\3759?\036.Q\303\235\237"
 541      393F1E2E 
 541      51C39D9F 
 542 07d0 A1A32651 		.ascii	"\241\243&Qu\022k\271\245\237U\321\365\325R3\\\312\345"
 542      75126BB9 
 542      A59F55D1 
 542      F5D55233 
 542      5CCAE5
 543 07e3 1F0F77DB 		.ascii	"\037\017w\333\301a\025\257\030\375\310n\013\231\357"
 543      C16115AF 
 543      18FDC86E 
 543      0B99EF
 544 07f2 7C8C32AD 		.ascii	"|\2142\255\3120\217\012T3\214!\236b\014\3614\032\342"
 544      CA308F0A 
 544      54338C21 
 544      9E620CF1 
 544      341AE2
 545 0805 0768881F 		.ascii	"\007h\210\037b\374\021k\216vS\256\263\354\202i\275k"
 545      62FC116B 
 545      8E7653AE 
 545      B3EC8269 
 545      BD6B
 546 0817 B9B34CAD 		.ascii	"\271\263L\255cW\315I\266\23273\034\330\236\375V\030"
 546      6357CD49 
 546      B69A3733 
 546      1CD89EFD 
 546      5618
 547 0829 F8F56373 		.ascii	"\370\365cs\3649\001=z\332\351\032\221\267\346\313\263"
 547      F439013D 
 547      7ADAE91A 
 547      91B7E6CB 
 547      B3
ARM GAS  /tmp/ccEZ1ckG.s 			page 43


 548 083a B839C1DF 		.ascii	"\2709\301\337\234\300\015\263 h\365c\217\016eq\213H"
 548      9CC00DB3 
 548      2068F563 
 548      8F0E6571 
 548      8B48
 549 084c 9A69AB48 		.ascii	"\232i\253H\032h\033\306oc\274\037\343\347\260\341fb"
 549      1A681BC6 
 549      6F63BC1F 
 549      E3E7B0E1 
 549      6662
 550 085e FC22C673 		.ascii	"\374\"\306s1\256\307x9\306\2530\336\201\361\001\214"
 550      31AEC778 
 550      39C6AB30 
 550      DE81F101 
 550      8C
 551 086f 8F627C1C 		.ascii	"\217b|\034\343\3670\376\024\343\317\234\030\000\365"
 551      E3F730FE 
 551      14E3CF9C 
 551      1800F5
 552 087e 90CC19C7 		.ascii	"\220\314\031\307\261\014\267'\265\234.[g\234m\364\340"
 552      B10CB727 
 552      B59C2E5B 
 552      679C6DF4 
 552      E0
 553 088f 7194EE6A 		.ascii	"q\224\356j>r\002\230\2447\315%\256\334\315\271\2441"
 553      3E720298 
 553      A437CD25 
 553      AEDCCDB9 
 553      A431
 554 08a1 BDBA84F5 		.ascii	"\275\272\204\365\177\336\251#uiz\365\265k1Lz\371\330"
 554      7FDEA923 
 554      75697AF5 
 554      B56B314C 
 554      7AF9D8
 555 08b4 D00BE535 		.ascii	"\320\013\3455\305\357\000\320jK\310\332\312\3262V\366"
 555      C5EF00D0 
 555      6A4BC8DA 
 555      CAD63256 
 555      F6
 556 08c5 3A5AD93A 		.ascii	":Z\331:\264\251\015\030\177\211\026q\021\343\253N\354"
 556      B4A90D18 
 556      7F891671 
 556      11E3AB4E 
 556      EC
 557 08d6 6215BBA7 		.ascii	"b\025\273\2476\323\257\177\313pG&B+\030\252\177F\252"
 557      36D3AF7F 
 557      CB704726 
 557      422B18AA 
 557      7F46AA
 558 08e9 2B458652 		.ascii	"+E\206R*\327\031\037\256W\371\0363\2339\261\372\360"
 558      2AD7191F 
 558      AE57F91E 
 558      339B39B1 
 558      FAF0
 559 08fb 3DDBF10C 		.ascii	"=\333\361\014\361k\364\237\373\375)O\372M@\262xS\"\023"
 559      F16BF49F 
 559      FBFD294F 
ARM GAS  /tmp/ccEZ1ckG.s 			page 44


 559      FA4D40B2 
 559      78532213 
 560 090f 855BA6D1 		.ascii	"\205[\246\321)~\343\231L\362\315\306-G3\231o\367-\267"
 560      297EE399 
 560      4CF2CDC6 
 560      2D473399 
 560      6FF72DB7 
 561 0923 1D192183 		.ascii	"\035\031!\203\310\216\001\022;\251\223\204\343@\331"
 561      C88E0112 
 561      3BA99384 
 561      E340D9
 562 0932 6AA8E0B2 		.ascii	"j\250\340\262\311\242\352!,\247xL,\217P\226\344\271"
 562      C9A2EA21 
 562      2CA7784C 
 562      2C8F5096 
 562      E4B9
 563 0944 83F9D63E 		.ascii	"\203\371\326>\034\3618\222\337\027^\326\326\250\252"
 563      1CF13892 
 563      DF175ED6 
 563      D6A8AA
 564 0953 A838EF70 		.ascii	"\2508\357p\213_\377\350_^G\305W{\210]\317\357f\356o"
 564      8B5FFFE8 
 564      5F5E47C5 
 564      577B885D 
 564      CFEF66EE 
 565 0968 3E5377F3 		.ascii	">Sw\363\361\335\315\347O$\264\356fg\2253<\337\307\224"
 565      F1DDCDE7 
 565      4F24B4EE 
 565      66679533 
 565      3CDFC794 
 566 097c 07BF8312 		.ascii	"\007\277\203\022\320_ki\267\373\231\2628\037\207\314"
 566      D05F6B69 
 566      B7FB99B2 
 566      381F87CC 
 567 098c 149B2076 		.ascii	"\024\233 vLfz\330\263b\203\017Q\001&\036\367\030/\355"
 567      4C667AD8 
 567      B362830F 
 567      5101261E 
 567      F7182FED 
 568 09a0 20A67B98 		.ascii	" \246{\230.\326\200Z#\215\327\245\011/1\377\037\341"
 568      2ED6805A 
 568      238DD7A5 
 568      092F31FF 
 568      1FE1
 569 09b2 9868DFA4 		.ascii	"\230h\337\244\224\235\035\233\331\016UK\367\221\354"
 569      949D1D9B 
 569      D90E554B 
 569      F791EC
 570 09c1 50E67E77 		.ascii	"P\346~w\265\324\260jy\325\265Z\262X\265\250\033T\325"
 570      B5D4B06A 
 570      79D5B55A 
 570      B258B5A8 
 570      1B54D5
 571 09d4 9F964C25 		.ascii	"\237\226L%k\223\0103\337^%\306n\232#\221\352X\221\376"
 571      6B930833 
 571      DF5E25C6 
 571      6E9A2391 
ARM GAS  /tmp/ccEZ1ckG.s 			page 45


 571      EA5891FE 
 572 09e8 E24424FB 		.ascii	"\342D$\373\361\360\273\211To!\222#\021\226xL\363\204"
 572      F1F0BB89 
 572      546F2192 
 572      23119678 
 572      4CF384
 573 09fb D75D8B71 		.ascii	"\327]\213q\007[f\271\203\226\321\356]|\206\364\374\033"
 573      075B66B9 
 573      8396D1EE 
 573      5D7C86F4 
 573      FC1B
 574 0a0d 3FC79DB7 		.ascii	"?\307\235\267\225\350\3076v\362c]\23078\265\220?\261"
 574      95E8C736 
 574      76F2635D 
 574      983738B5 
 574      903FB1
 575 0a20 16B2DD89 		.ascii	"\026\262\335\211j\355\017\213\234\371\202d\352}-\231"
 575      6AED0F8B 
 575      9CF98264 
 575      EA7D2D99 
 576 0a30 7A57BAE8 		.ascii	"zW\272\350\313kY\261v\272\026\313\245\305$so\233\222"
 576      CB6B59B1 
 576      76BA16CB 
 576      A5C52473 
 576      6F9B92
 577 0a43 89A43973 		.ascii	"\211\2449s\263\273\352\222\310\033Y\221\3679\021\331"
 577      B3BBEA92 
 577      C81B5991 
 577      F73911D9 
 578 0a53 FE08EABB 		.ascii	"\376\010\352\273\211\274-\231\310s\357\240\310o\261"
 578      89BC2D99 
 578      C873EFA0 
 578      C86FB1
 579 0a62 2237B916 		.ascii	"\"7\271\0269K\340\177z\227\222\305i\0362_}\011\343y"
 579      394BE07F 
 579      7A9792C5 
 579      691E325F 
 579      7D09E379 
 580 0a76 182FC678 		.ascii	"\030/\306x\031\306k0\336\200\361V\217\2039\355mv\025"
 580      19C66B30 
 580      DE80F156 
 580      8F8339ED 
 580      6D7615
 581 0a89 7A1479DE 		.ascii	"z\024y\336\352\342\016\223\032\277MOd\351\007\303\357"
 581      EAE20E93 
 581      1ABF4D4F 
 581      64E907C3 
 581      EF
 582 0a9a B906CBE2 		.ascii	"\271\006\313\342\332\3715U\365\244\245\013\3258i\231"
 582      DAF93555 
 582      F5A4A50B 
 582      D5386999 
 583 0aaa 3135C561 		.ascii	"15\305aO\374f\232$\213{=\351P\363\031\223\227r\000B"
 583      4FFC669A 
 583      248B7B3D 
 583      E950F319 
 583      93977200 
ARM GAS  /tmp/ccEZ1ckG.s 			page 46


 584 0abf 54B11F0A 		.ascii	"T\261\037\012s\263\307+\325=\311\354\221<O2{D\363\220"
 584      73B3C72B 
 584      D53DC9EC 
 584      913C4F32 
 584      7B44F390 
 585 0ad3 844FBBD1 		.ascii	"\204O\273\321\335\013\257?\361\254-\361Ld\262\336L<"
 585      DD0BAF3F 
 585      F1AC2DF1 
 585      4C64B2DE 
 585      4C3C
 586 0ae5 D6BFCCB6 		.ascii	"\326\277\314\266\232fq\315\237 \007K\\\017\231\244\035"
 586      9A6671CD 
 586      9F20074B 
 586      5C0F99A4 
 586      1D
 587 0af6 F4782C8B 		.ascii	"\364x,\213I\302\264\356&\315[\035Q\331\177=\031\357"
 587      49C2B4EE 
 587      26CD5B1D 
 587      51D97F3D 
 587      19EF
 588 0b08 D8473692 		.ascii	"\330G6\222\254>]4f\335?1\024\337\272q\353\205{\326\340"
 588      AC3E5D34 
 588      66DD3F31 
 588      14DFBA71 
 588      EB857BD6 
 589 0b1d 5CF78887 		.ascii	"\\\367\210\207\264{\274{\352\317\211-p\342\263\367\336"
 589      B47BBC7B 
 589      EACF892D 
 589      70E2B3F7 
 589      DE
 590 0b2e 43B47D1C 		.ascii	"C\264}\034A\232\334\202H\302I,r\322\274\004\330^\215"
 590      419ADC82 
 590      48C2492C 
 590      72D2BC04 
 590      D85E8D
 591 0b41 4B80930E 		.ascii	"K\200\223\016\226\000j\374\235\275t\267X\337D;k`j\225"
 591      96006AFC 
 591      9DBD74B7 
 591      58DF443B 
 591      6B606A95 
 592 0b55 0E63D597 		.ascii	"\016c\325\227r\006\032o\246[\256t\021\360\205\031\314"
 592      72061A6F 
 592      A65BAE74 
 592      11F08519 
 592      CC
 593 0b66 E5A2FF88 		.ascii	"\345\242\377\210\261\037L\034\225$\\s\215\307u\260\370"
 593      B11F4C1C 
 593      95245C73 
 593      8DC775B0 
 593      F8
 594 0b77 514A8E82 		.ascii	"QJ\216\202u8\001K\3621\306{,\330\214L\267`<\263S,\330"
 594      7538014B 
 594      F231C67B 
 594      2CD88C4C 
 594      B7603CB3 
 595 0b8e 8B4EC092 		.ascii	"\213N\300\222|\262\360\301\336E\235\027\237\246!\303"
 595      7CB2F0C1 
ARM GAS  /tmp/ccEZ1ckG.s 			page 47


 595      DE459D17 
 595      9FA621C3 
 596 0b9e E62B5962 		.ascii	"\346+Yb0\237\361#\206i\336\177\334\206\026)\371Eb\010"
 596      309FF123 
 596      8669DE7F 
 596      DC861629 
 596      F9456208 
 597 0bb2 48396468 		.ascii	"H9dh}`\036\375K\210\013(\370\313\231|\0370UM\210\331"
 597      7D601EFD 
 597      4B880B28 
 597      F8CB997C 
 597      1F30554D 
 598 0bc8 557D919F 		.ascii	"U}\221\237\2312\277N\357$\241\336\265\202\371\326\372"
 598      9932BF4E 
 598      EF24A1DE 
 598      B582F9D6 
 598      FA
 599 0bd9 B09ADB29 		.ascii	"\260\232\333)\\\351\004.\313\242\275\254~l\207\226\305"
 599      5CE9042E 
 599      CBA2BDAC 
 599      7E6C8796 
 599      C5
 600 0bea F7D1F19D 		.ascii	"\367\321\361\235\306\321\355\014\306\255\030\237\305"
 600      C6D1ED0C 
 600      C6AD189F 
 600      C5
 601 0bf7 F8138CCF 		.ascii	"\370\023\214\317c\374)\306\227\331\021\360\357\203\012"
 601      63FC29C6 
 601      97D911F0 
 601      EF830A
 602 0c06 93FE4C93 		.ascii	"\223\376L\223\267\345\035S\252~\250\302\324\364F\277"
 602      B7E51D53 
 602      AA7EA8C2 
 602      D4F446BF 
 603 0c16 396AE27C 		.ascii	"9j\342|\320\201\307=\374#\352q\333\321Y\276a2\024j\226"
 603      D081C73D 
 603      FC23EA71 
 603      DBD159BE 
 603      6132146A 
 604 0c2b 7F2F79F7 		.ascii	"\177/y\3678\222\327\366\320\305\220\267n@o\241\006\345"
 604      3892D7F6 
 604      D0C590B7 
 604      6E406FA1 
 604      06E5
 605 0c3d ADE317D0 		.ascii	"\255\343\027\320\252a0\252n\3177=\2751\305}2\200Y\354"
 605      AA6130AA 
 605      6ECF373D 
 605      BD31C57D 
 605      328059EC 
 606 0c51 7AC02D4F 		.ascii	"z\300-O\342[\251L\177\"\321\3411\004y\327,\210\251b"
 606      E25BA94C 
 606      7F22D1E1 
 606      310479D7 
 606      2C88A962 
 607 0c65 2D6DFB95 		.ascii	"-m\373\225!\351\2140E\241\354$\341\2203\270f\257\035"
 607      21E98C30 
 607      45A1EC24 
ARM GAS  /tmp/ccEZ1ckG.s 			page 48


 607      E19033B8 
 607      66AF1D
 608 0c78 9ED5D4D6 		.ascii	"\236\325\324\326\302$Z\215S\222{\022&q\364\374\215\347"
 608      C2245A8D 
 608      53927B12 
 608      2671F4FC 
 608      8DE7
 609 0c8a B4C3A229 		.ascii	"\264\303\242)^b\023\263\356J9\200\362@\270\373\3425"
 609      5E6213B3 
 609      EE4A3980 
 609      F240B8FB 
 609      E235
 610 0c9c 0D9E8BCF 		.ascii	"\015\236\213\3176\322\277\024\"oR\014\237\323\247\305"
 610      36D2BF14 
 610      226F520C 
 610      9FD3A7C5 
 611 0cac D79F6D94 		.ascii	"\327\237m\224p?\027\333iZ\322\005\246,\356\302mN'\373"
 611      703F17DB 
 611      695AD205 
 611      A62CEEC2 
 611      6D4E27FB 
 612 0cc0 CC8B5018 		.ascii	"\314\213P\030\302\241\013\363R\340\265\201\210A\316"
 612      C2A10BF3 
 612      52E0B581 
 612      8841CE
 613 0ccf B29EC129 		.ascii	"\262\236\301)W\275k\270,\016n\023\017\267\314\011\234"
 613      57BD6BB8 
 613      2C0E6E13 
 613      0FB7CC09 
 613      9C
 614 0ce0 DDB80E70 		.ascii	"\335\270\016po\360p\257\272\206\343\331\275\311\303"
 614      6FF070AF 
 614      BA86E3D9 
 614      BDC9C3
 615 0cef AD760267 		.ascii	"\255v\002g7\260\003\334V\036\3565\327p<\273m<\334\006"
 615      37B003DC 
 615      561EEE35 
 615      D7703CBB 
 615      6D3CDC06 
 616 0d03 27705683 		.ascii	"'pV\203\273\325\2175`Y\234\341%\346U\355\305C$\214g"
 616      BBD58F35 
 616      60599CE1 
 616      25E655ED 
 616      C543248C 
 617 0d18 62FC22C6 		.ascii	"b\374\"\306/a<\033\3439^\007\013%\325\313,\2246\337"
 617      2F613C1B 
 617      E3395E07 
 617      0B25D5CB 
 617      2C9436DF 
 618 0d2c E5606DD3 		.ascii	"\345`m\323\234\364X\220\343}\2139\265\374\006\267`\277"
 618      9CF45890 
 618      E37D8B39 
 618      B5FC06B7 
 618      60BF
 619 0d3e C563895D 		.ascii	"\305c\211]\350\200\367`\334\202\361U\214o`\374-\306"
 619      E880F760 
 619      DC82F155 
ARM GAS  /tmp/ccEZ1ckG.s 			page 49


 619      8C6F60FC 
 619      2DC6
 620 0d50 1D4E9679 		.ascii	"\035N\226y\327\023\313<\007\233\360O\352\305\311_\031"
 620      D713CB3C 
 620      079BF04F 
 620      EAC5C95F 
 620      19
 621 0d61 6B1EE6D6 		.ascii	"k\036\346\326\347\373\177M\216\220,\034\011\227\035"
 621      E7FB7F4D 
 621      8E902C1C 
 621      09971D
 622 0d70 5C39283E 		.ascii	"\\9(>U.\222o\201\331\333|\330\204S\365\005\251}\015"
 622      552E926F 
 622      81D9DB7C 
 622      D88453F5 
 622      05A97D0D 
 623 0d84 CC3AAE37 		.ascii	"\314:\2567-\321f\035\364\357\343\236\351!j\230]\360"
 623      2DD1661D 
 623      F4EFE39E 
 623      E9216A98 
 623      5DF0
 624 0d96 118057F3 		.ascii	"\021\200W\363Rf\363\223\332\306\230Z\255\336\2732\301"
 624      5266F393 
 624      DAC6985A 
 624      ADDEBB32 
 624      C1
 625 0da7 BC975E5C 		.ascii	"\274\227^\\\022\230oQ7\3773z\306z\264\343\027{\360\356"
 625      12986F51 
 625      37FF337A 
 625      C67AB4E3 
 625      177BF0EE 
 626 0dbb D639D0B1 		.ascii	"\3269\320\261\005\177\246\177\235\267\014\201^1\001"
 626      057FA67F 
 626      9DB70C81 
 626      5E3101
 627 0dca C9A2C7B4 		.ascii	"\311\242\307\264\301\346\341\035\246\307\237Httx\004"
 627      C1E6E11D 
 627      A6C79F48 
 627      74747804 
 628 0dda 77992561 		.ascii	"w\231%a\251Yo\034\311\024\316P\235\012v\361\321\277"
 628      A9596F1C 
 628      C914CE50 
 628      9D0A76F1 
 628      D1BF
 629 0dec 6E5FA7AA 		.ascii	"n_\247\2523\322t]\254p\215\310~!95\276\216\264\204\016"
 629      33D2745D 
 629      AC708DC8 
 629      7E213935 
 629      BE8EB484 
 630 0e01 B6CA0998 		.ascii	"\266\312\011\230\225se\224@\373\325B\364\007\213\260"
 630      95736594 
 630      40FBD542 
 630      F4078BB0 
 631 0e11 C72FC1F8 		.ascii	"\307/\301\370U\214Wz\271\351\315\332N\015@\355\221\301"
 631      558C577A 
 631      B9E9CDDA 
 631      4E0D40ED 
ARM GAS  /tmp/ccEZ1ckG.s 			page 50


 631      91C1
 632 0e23 4B18AE90 		.ascii	"K\030\256\220\032\321\256G\276\222\360'\375\204%j\374"
 632      1AD1AE47 
 632      BE92F027 
 632      FD84256A 
 632      FC
 633 0e34 526BFB95 		.ascii	"Rk\373\225\223C\027\223\277\204Sow<-\322\011\276$L\357"
 633      93431793 
 633      BF84536F 
 633      773C2DD2 
 633      09BE244C 
 634 0e49 C9F3F989 		.ascii	"\311\363\371\211\360'U\255U\347\004\037\241+\014Ix\001"
 634      F02755AD 
 634      55E7041F 
 634      A12B0C49 
 634      7801
 635 0e5b 73FCC5DB 		.ascii	"s\374\305\333\317f\234\325\326!?\023V\220.\371\226:"
 635      CF669CD5 
 635      D6213F13 
 635      56902EF9 
 635      963A
 636 0e6d AA2F2E78 		.ascii	"\252/.x\004\255\020'\332\032/\367\267\342\224Y\374x"
 636      04AD1027 
 636      DA1A2FF7 
 636      B7E29459 
 636      FC78
 637 0e7f 5366CD94 		.ascii	"Sf\315\224\326\216\216~:\251\227R\220\222\305\327\274"
 637      D68E8E7E 
 637      3AA99752 
 637      9092C5D7 
 637      BC
 638 0e90 E4406E5D 		.ascii	"\344@n]WH\2553\223ZoIj\321\001\215\224\363\265\334_"
 638      5748AD33 
 638      935A6F49 
 638      6AD1018D 
 638      94F3B5DC 
 639 0ea5 BDA6DD3F 		.ascii	"\275\246\335?\342\026\215\233zo\347\355=I\230g-\352"
 639      E2168D9B 
 639      7A6FE7ED 
 639      3D499867 
 639      2DEA
 640 0eb7 42222A29 		.ascii	"B\"*)\016=\010sl\262\025\025}\257V\354\204|\257\321"
 640      0E3D0873 
 640      6CB21515 
 640      7DAF56EC 
 640      847CAFD1 
 641 0ecb 4DCCC538 		.ascii	"M\314\3058\3136\350Xih\223YCoZj\250\315\275\206\336"
 641      CB36E858 
 641      69689359 
 641      436F5A6A 
 641      A8CDBD86 
 642 0ee0 B1D29049 		.ascii	"\261\322\220I#+\2555\262Y\327\210,n\305\306\177;\271"
 642      232BAD35 
 642      B259D788 
 642      2C6EC5C6 
 642      7F3BB9
 643 0ef3 46AC457B 		.ascii	"F\254E{\333,\332\016K\321\256\355}!\303\255l{\314\262"
ARM GAS  /tmp/ccEZ1ckG.s 			page 51


 643      DB2CDA0E 
 643      4BD1AEED 
 643      7D21C3AD 
 643      6C7BCCB2 
 644 0f07 9121DDB8 		.ascii	"\221!\335\270\321\372\243I\3267-e]W=\243F\244\345%\341"
 644      D1FAA349 
 644      D6372D65 
 644      5D573DA3 
 644      46A4E525 
 645 0f1c 0066D96D 		.ascii	"\000f\331m+,N\0344\035u\020\035\275\202\305ZR\024\323"
 645      2B2C4E1C 
 645      341D7510 
 645      1DBD82C5 
 645      5A5214D3 
 646 0f30 F8A08E6A 		.ascii	"\370\240\216jx\035\3556\353\250\321BG\255\361\353K\016"
 646      781DED36 
 646      EBA8D142 
 646      47ADF1EB 
 646      4B0E
 647 0f42 4E81B996 		.ascii	"N\201\271\226\372\015\361\364\316\325tHSSB\023\222p"
 647      FA0DF1F4 
 647      CED57448 
 647      53534213 
 647      9270
 648 0f54 D2A40683 		.ascii	"\322\244\006\203\227\272R\365\030\274\232\314\274\232"
 648      97BA52F5 
 648      18BC9ACC 
 648      BC9A
 649 0f62 3BF36A68 		.ascii	";\363jh\215\267\2674v\201\326\021\013Z_X\323RyZ-fZG"
 649      8DB7B734 
 649      7681D611 
 649      0B5A5F58 
 649      D352795A 
 650 0f7a 2D692D3A 		.ascii	"-i-:a89R\227$\264;B?nF?a\211~e\336ACh\275\202\016G\025"
 650      61383952 
 650      9724B43B 
 650      423F6E46 
 650      3F61897E 
 651 0f98 9C345770 		.ascii	"\2344Wp\312\262\202\272"
 651      CAB282BA 
 652 0fa0 F75D77F6 		.ascii	"\367]w\366\017\222\272C\353\0161\263\227\275\347g;\377"
 652      0F92BA43 
 652      EB0E31B3 
 652      97BDE767 
 652      3BFF
 653 0fb2 6947EEB0 		.ascii	"iG\356\260]\357\017\262\370n\212bl\177P\325\027\325"
 653      5DEF0FB2 
 653      F86E8A62 
 653      6C7F50D5 
 653      17D5
 654 0fc4 19BD4443 		.ascii	"\031\275DCE\247\315*j\265T\321\2653TE\365\303\250\243"
 654      45A7CD2A 
 654      6AB554D1 
 654      B5335445 
 654      F5C3A8A3 
 655 0fd8 93843A6B 		.ascii	"\223\204:kif\233\245\371\304\241+\343i}b\246u\2563\255"
 655      69669BA5 
ARM GAS  /tmp/ccEZ1ckG.s 			page 52


 655      F9C4A12B 
 655      E3697D62 
 655      A675AE33 
 656 0fed D69AD619 		.ascii	"\326\232\326\031\257\356\020\347\253;\247\253\035\035"
 656      AFEE10E7 
 656      AB3BA7AB 
 656      1D1D
 657 0ffb 4FBBE810 		.ascii	"O\273\350\020\027"
 657      17
 658 1000 BCC93626 		.ascii	"\274\3116&\227\332|\230DJ~\236\230z\030\255}\311\342"
 658      97DA7C98 
 658      444A7E9E 
 658      987A18AD 
 658      7DC9E2
 659 1013 E85E1296 		.ascii	"\350^\022\226\3672[(\315\364\245\245 \033\267\356x`"
 659      F7325B28 
 659      CDF4A5A5 
 659      201BB7EE 
 659      7860
 660 1025 FE06753A 		.ascii	"\376\006u:\235\300\2708[\275\230T\224\366${\254\227"
 660      9DC0B838 
 660      5BBD9854 
 660      94F6247B 
 660      AC97
 661 1037 BDD67BAC 		.ascii	"\275\326{\254\222\260\305\206z\233%\365\023\253/\217"
 661      92B0C586 
 661      7A9B25F5 
 661      13AB2F8F 
 662 1047 A8B3A39E 		.ascii	"\250\263\243\236\244\021\256&\355BV\337CH\302N\033f"
 662      A411AE26 
 662      ED4256DF 
 662      4348C24E 
 662      1B66
 663 1059 D72D991D 		.ascii	"\327-\231\035}\365\346\017\273`\0357\314\304v\342G="
 663      7DF5E60F 
 663      BB601D37 
 663      CCC476E2 
 663      473D
 664 106b 1C91DADE 		.ascii	"\034\221\332\336\326DnY\022Y\362\361\245?\030Dt\027"
 664      D6446E59 
 664      1259F2F1 
 664      A53F1844 
 664      7417
 665 107d B6DC06E2 		.ascii	"\266\334\006\342[K\210\343\253O\216\350\202,\035I\225"
 665      5B4B88E3 
 665      AB4F8EE8 
 665      822C1D49 
 665      95
 666 108e 7CC1746A 		.ascii	"|\301tj\253\335\233d\335lCt\232\317Z\351m]Q\372\014"
 666      ABDD9B64 
 666      DD6C4374 
 666      9ACF5AE9 
 666      6D5D51FA 
 667 10a3 9F85D2B9 		.ascii	"\237\205\322\271\233\316\304v\333\020{\226'\366O\302"
 667      9BCEC476 
 667      DB107B96 
 667      27F64FC2 
ARM GAS  /tmp/ccEZ1ckG.s 			page 53


 668 10b3 52B5B519 		.ascii	"R\265\265\031\326\010\037\235\023ai\335H\216\351:\304"
 668      D6081F9D 
 668      136169DD 
 668      488EE93A 
 668      C4
 669 10c4 7EFA977D 		.ascii	"~\372\227}\307\014\024\215\233\351;>\202\370|\002\221"
 669      C70C148D 
 669      9BE93B3E 
 669      82F87C02 
 669      91
 670 10d5 A2C56B7E 		.ascii	"\242\305k~S3E%2\3520'\035\300\274\300\30347\307\327"
 670      53334525 
 670      32EA3027 
 670      1DC0BCC0 
 670      C33437C7 
 671 10ea EF5D2CAA 		.ascii	"\357],\252\015\260\332\275\015\224dq\036n@~`\206\352"
 671      0DB0DABD 
 671      0D946471 
 671      1E6E407E 
 671      6086EA
 672 10fd B4FE9FA5 		.ascii	"\264\376\237\245\001\015\0246\252\317\306\207\321\202"
 672      010D1436 
 672      AACFC687 
 672      D182
 673 110b 743DA56D 		.ascii	"t=\245m\000\252\323\311\241\347\022\355\001.^\351\032"
 673      00AAD3C9 
 673      A1E712ED 
 673      012E5EE9 
 673      1A
 674 111c 4BBB8506 		.ascii	"K\273\205\006\021\350r\313x\337\311{\0207i\327^5>\363"
 674      11E872CB 
 674      78DFC97B 
 674      103769D7 
 674      5E353EF3 
 675 1130 1A6CCBEB 		.ascii	"\032l\313\353m\215\342\216\025\325*\031(\236\256\217"
 675      6D8DE28E 
 675      15D52A19 
 675      289EAE8F 
 676 1140 F7A20092 		.ascii	"\367\242\000\222\320\320\307r\244\270EF\212\317qB\267"
 676      D0D0C772 
 676      A4B84546 
 676      8ACF7142 
 676      B7
 677 1151 0573CCF6 		.ascii	"\005s\314\366\331\215\024\237'\346\201\361\372\266\346"
 677      D98D149F 
 677      27E681F1 
 677      FAB6E6
 678 1160 F4F96ADC 		.ascii	"\364\371j\334\253\177\367\272=EY\315;\323Q&\276\270"
 678      AB7FF7BA 
 678      3D4559CD 
 678      3BD35126 
 678      BEB8
 679 1172 AD5552E7 		.ascii	"\255UR\347\306\023\003\015)\310\031O-o<\031\3023\364"
 679      C613030D 
 679      29C8194F 
 679      2D6F3C19 
 679      C233F4
ARM GAS  /tmp/ccEZ1ckG.s 			page 54


 680 1185 005C9D22 		.ascii	"\000\\\235\"\2167\226\2446\177\312\014n\313\227\001"
 680      8E3796A4 
 680      367FCA0C 
 680      6ECB9701 
 681 1195 9C76F5E1 		.ascii	"\234v\365\341\317\240\031x\222\201\374Hy\232\326SPD"
 681      CFA01978 
 681      9281FC48 
 681      799AD653 
 681      5044
 682 11a7 DBD56F18 		.ascii	"\333\325o\030F\266\365g'\274>\267\274!(\013}n7\365\027"
 682      46B6F567 
 682      27BC3EB7 
 682      BC21280B 
 682      7D6E37F5 
 683 11bc F9AC37F5 		.ascii	"\371\2547\365u\242\354\201\002S\363\020=_\272\206\263"
 683      75A2EC81 
 683      0253F310 
 683      3D5FBA86 
 683      B3
 684 11cd D875CD4B 		.ascii	"\330u\315KljN\323j6\031\335_\223\030]\275\317z+\216"
 684      6C6A4ED3 
 684      6A3619DD 
 684      5F93185D 
 684      BDCF7A2B 
 685 11e2 0E2676A5 		.ascii	"\016&v\245\032lK]LRji'\003\337\260uG\031\331\242'\275"
 685      1A6C4B5D 
 685      4C526A69 
 685      2703DFB0 
 685      754719D9 
 686 11f9 7E692F93 		.ascii	"~i/\223k#-h\007\365'\263o\273\354\355\2642\334o\335"
 686      6B232D68 
 686      07F527B3 
 686      6FBBECED 
 686      B432DC6F 
 687 120e 498E904E 		.ascii	"I\216\220Nr\031;\311q\314\261\314\326\320/3\263\274"
 687      72193BC9 
 687      71CCB1CC 
 687      D6D02F33 
 687      B3BC
 688 1220 A9EAC9D3 		.ascii	"\251\352\311\323d\325C-\214+\225anyx\275\202\267y\343"
 688      64D5432D 
 688      8C2B9561 
 688      6E7978BD 
 688      82B779E3 
 689 1234 1BB7F81D 		.ascii	"\033\267\370\0358\2020\266\363\342\266\333y\320D\270"
 689      388230B6 
 689      F3E2B6DB 
 689      79D044B8 
 690 1244 C1946AC7 		.ascii	"\301\224j\307\215\352\204l\366\374c\0239\357\341'\232"
 690      8DEA846C 
 690      F6FC6313 
 690      39EFE127 
 690      9A
 691 1255 F6EB419C 		.ascii	"\366\353A\234hZ}\260m\350\342\331\304\3270\255\307\316"
 691      685A7DB0 
 691      6DE8E2D9 
 691      C4D730AD 
ARM GAS  /tmp/ccEZ1ckG.s 			page 55


 691      C7CE
 692 1267 5F28A31F 		.ascii	"_(\243\037\374\257\361\021o|\312\3242\251\201H\235\257"
 692      FCAFF111 
 692      6F7CCAD4 
 692      32A98148 
 692      9DAF
 693 1279 FB4C3BB4 		.ascii	"\373L;\264\363O\340\016-y\236\3724h\361\211\271\332"
 693      F34FE00E 
 693      2D799EFA 
 693      3468F189 
 693      B9DA
 694 128b 0E2DDDEB 		.ascii	"\016-\335\353?\217\034HY+\011\255\366\005y\274%'\360"
 694      3F8F1C48 
 694      592B09AD 
 694      F60579BC 
 694      2527F0
 695 129e AB000A76 		.ascii	"\253\000\012v\3015X\026\007\266\216\005\273\354\004"
 695      C1355816 
 695      07B68E05 
 695      BBEC04
 696 12ad 2CC909CE 		.ascii	",\311\011\316\006\026\354\232k0\236\331&\026\354\246"
 696      0616EC9A 
 696      6B309ED9 
 696      2616ECA6 
 697 12bd 13B024A7 		.ascii	"\023\260$\2477o\260`\323\276\347\026\214g\366&\013\366"
 697      376FB060 
 697      D3BEE716 
 697      8C67F626 
 697      0BF6
 698 12cf 8213B024 		.ascii	"\202\023\260$\237el\245`t\363\376e\327`<\263m,\263z"
 698      9F656CA5 
 698      6074F3FE 
 698      65D7603C 
 698      B36D2CB3 
 699 12e4 276059F6 		.ascii	"'`Y\366:{\233\005[\351\032\214a\006=\246\371\2675\262"
 699      3A7B9B05 
 699      5BE91A8C 
 699      61063DA6 
 699      F9B735B2 
 700 12f8 31221277 		.ascii	"1\"\022wM\004\326r\016\343\255A\026\367j\343Rb\244\003"
 700      4D04D672 
 700      0EE3AD41 
 700      16F76AE3 
 700      5262A403 
 701 130c 06EBCD0C 		.ascii	"\006\353\315\014\270bZ\322\356o&A\234\026V\234\267\234"
 701      B8625AD2 
 701      EE6F2641 
 701      9C16569C 
 701      B79C
 702 131e 88637776 		.ascii	"\210cwv\017`GY\260]\256\301\370V;\316\202\035t\002\226"
 702      0F604759 
 702      B05DAEC1 
 702      F8563BCE 
 702      821D7402 
 703 1333 E49F41BD 		.ascii	"\344\237A\275\307\332\323\021\327`<\263S,\263\017\234"
 703      C7DAD311 
 703      D7603CB3 
ARM GAS  /tmp/ccEZ1ckG.s 			page 56


 703      532CB30F 
 703      9C
 704 1344 800DB3D7 		.ascii	"\200\015\263\327\331i\026\354\234k0\336\236\316\374"
 704      D96916EC 
 704      9C6B30DE 
 704      9ECEFC
 705 1353 96601143 		.ascii	"\226`\021C\221\204/\235X\206\335\377\202\002b\227Xb"
 705      91842F9D 
 705      5886DDFF 
 705      82026297 
 705      5862
 706 1365 D79D10B3 		.ascii	"\327\235\020\263\373\367M\000\326\306\202M\271\333-"
 706      FBF74D00 
 706      D6C6824D 
 706      B9DB2D
 707 1374 18AFFFAB 		.ascii	"\030\257\377\253,\330L'`I\376}\3235\316\323\270\006"
 707      2CD84C27 
 707      6049FE7D 
 707      D335CED3 
 707      B806
 708 1386 E3997DCD 		.ascii	"\343\231}\315y\032'`O\332\353\354&\013\266\3125\030"
 708      791A2760 
 708      4FDAEBEC 
 708      260BB6CA 
 708      3518
 709 1398 6F19DF30 		.ascii	"o\031\3370\226\261\321\214ee\031e\366\304n\263\304\266"
 709      96B1D18C 
 709      65651965 
 709      F6C46EB3 
 709      C4B6
 710 13aa 3B2116B1 		.ascii	";!\026\261\007\2539\305\200\355t\015\306KY\373\037\011"
 710      07AB39C5 
 710      80ED740D 
 710      C64B59FB 
 710      1F09
 711 13bc 29F73A91 		.ascii	")\367:\221r\222=\261\271,\261f'\304T\321\036\355\025"
 711      72923DB1 
 711      B92CB166 
 711      27C454D1 
 711      1EED15
 712 13cf 16EDB87B 		.ascii	"\026\355\270{\264,\301\366\307\316\304dq\235\217\314"
 712      B42CC1F6 
 712      C7CEC464 
 712      719D8FCC 
 713 13df 33D7FBC8 		.ascii	"3\327\373\310Q\343F\214\377\212\361f\214\267`\374\026"
 713      51E3468C 
 713      FF8AF166 
 713      8CB760FC 
 713      16
 714 13f0 C6DB317E 		.ascii	"\306\3331~\007\343\035\030\357\302x\017\306\215\030"
 714      07E31D18 
 714      EFC2780F 
 714      C68D18
 715 13ff 1FC0F85D 		.ascii	"\037\300\370]\214\2330n\306\270\005\343\243\030\037"
 715      8C9B306E 
 715      C6B805E3 
 715      A3181F
ARM GAS  /tmp/ccEZ1ckG.s 			page 57


 716 140e C7F83D8C 		.ascii	"\307\370=\214Oa|\032\3433\030\267b|\026\343O0>\217\361"
 716      4F617C1A 
 716      E33318B7 
 716      627C16E3 
 716      4F303E8F 
 717 1423 A7187F86 		.ascii	"\247\030\177\206\361\027>\346H\324\264\200Yc\243%\""
 717      F1173EE6 
 717      48D4B480 
 717      5963A325 
 717      22
 718 1434 F757B6CB 		.ascii	"\367W\266\313\236\033I\226=\027mK\275\223\244\324%\333"
 718      9E1B4996 
 718      3D176D4B 
 718      BD93A4D4 
 718      25DB
 719 1446 52479294 		.ascii	"RG\222\224\272l[\252#I\2516\333Rd\017\311\256\324\025"
 719      BA6C5BAA 
 719      2349A936 
 719      DB52640F 
 719      C9AED415 
 720 145a DB527B92 		.ascii	"\333R{\222\324u\325\266\324\241$\245\332;-\035\333\257"
 720      D475D5B6 
 720      D4A124A5 
 720      DA3B2D1D 
 720      DBAF
 721 146c ECEF679C 		.ascii	"\354\357g\234OO\361:\337\026\273n^:\252\235\227\216"
 721      4F4FF13A 
 721      DF16BB6E 
 721      5E3AAA9D 
 721      978E
 722 147e 1FDD6DB9 		.ascii	"\037\335m\271t\334H\226\216\364\234\355+\314q\315v\351"
 722      74DC4896 
 722      8EF49CED 
 722      2BCC71CD 
 722      76E9
 723 1490 A87A6D0F 		.ascii	"\250zm\017\025\257\231\367Gn\360kEapvY\270\"\230]\022"
 723      15AF99F7 
 723      476EF06B 
 723      45617076 
 723      59B82298 
 724 14a6 2E9D9C5D 		.ascii	".\235\234]\032\234\220]R\026\032\023\012\307\262\225"
 724      1A9C905D 
 724      52161A13 
 724      0AC7B295 
 725 14b6 6855E553 		.ascii	"hU\345S\331\220\210*\331\241\312\222\362\252R\310T\026"
 725      D990882A 
 725      D9A1CA92 
 725      F2AA52C8 
 725      5416
 726 14c8 9C10AC54 		.ascii	"\234\020\254Tb\375\313\204\036\230\012\304\302U\321"
 726      62FDCB84 
 726      1E980AC4 
 726      C255D1
 727 14d7 92604049 		.ascii	"\222`@I{x\344\343Y\371B&\373\264\027\275)\017\305\224"
 727      7B78E4E3 
 727      59F94226 
 727      FBB417BD 
ARM GAS  /tmp/ccEZ1ckG.s 			page 58


 727      290FC594 
 728 14eb 6065301A 		.ascii	"`e0\032Pz\360\017\322\203\345\201\312\340$e\210+\006"
 728      507AF00F 
 728      D283E581 
 728      CAE02465 
 728      882B06
 729 14fe B1C93165 		.ascii	"\261\3111er$H8d(e\321\240\\\032P\374%e\001\232\036\350"
 729      72244838 
 729      642865D1 
 729      A05C1A50 
 729      FC256501 
 730 1515 0EABA4AC 		.ascii	"\016\253\244\254\024p\322\"\310\003.\221hp\302#\016"
 730      1470D222 
 730      C8032E91 
 730      6870C223 
 730      0E
 731 1526 2022E1A8 		.ascii	" \"\341\250\022\313~\260hD\376\210I\220\263\"\022*\017"
 731      12CB7EB0 
 731      6844FE88 
 731      4990B322 
 731      122A0F
 732 1539 4663D90F 		.ascii	"Fc\331\017\347\347Cv\235^\272\022\211\206\302\001\345"
 732      E7E74376 
 732      9D5EBA12 
 732      8986C201 
 732      E5
 733 154a 27D955B1 		.ascii	"'\331U\261h\266\034\255\370Ee\2702\370\213\240<&dp\210"
 733      68B61CAD 
 733      F84565B8 
 733      32F88BA0 
 733      3C266470 
 734 155f 29A5A14A 		.ascii	")\245\241J\205\310R\005\327\274\334\20020I\356\012\031"
 734      85C85205 
 734      D7BCDC80 
 734      323049EE 
 734      0A19
 735 1571 C85406B3 		.ascii	"\310T\006\263\003\245\301\261rU\271\022\320\253\352"
 735      03A5C1B1 
 735      7255B912 
 735      D0ABEA
 736 1580 1608E8E5 		.ascii	"\026\010\350\345Q\212P8\275$\\\251\200P\367\273\226"
 736      518A5038 
 736      BD245CA9 
 736      8050F7BB 
 736      96
 737 1591 A6AC241C 		.ascii	"\246\254$\034\015\002fw\3628\000\250%\312\244_w\015"
 737      0D026677 
 737      F23800A8 
 737      25CAA45F 
 737      770D
 738 15a3 2530E197 		.ascii	"%0\341\227\025D\266hp\034\010\024P<\261\234\301\020"
 738      1544B668 
 738      701C0814 
 738      503CB19C 
 738      C110
 739 15b5 7E096108 		.ascii	"~\011a\010\204\373=\261\334\001\020r \344B\310\2030"
 739      84FB3DB1 
ARM GAS  /tmp/ccEZ1ckG.s 			page 59


 739      DC011072 
 739      20E442C8 
 739      8330
 740 15c7 10C22008 		.ascii	"\020\302 \010\220/\027\362\345B\276\\\310\227\007\371"
 740      902F17F2 
 740      E542BE5C 
 740      C89707F9 
 741 15d7 F272A4E8 		.ascii	"\362r\244\350@):H\212\016\226\242\277\224\242C\244\350"
 741      40293A48 
 741      8A0E96A2 
 741      BF94A243 
 741      A4E8
 742 15e9 FD9E68CE 		.ascii	"\375\236h\316\000\0109Ry\024.y\276H\000\330\246\223"
 742      00083952 
 742      79142E79 
 742      BE4800D8 
 742      A693
 743 15fb F69C0806 		.ascii	"\366\234\010\006\026\011\204\313K\203QoI\231\034%\215"
 743      160984CB 
 743      4B83516F 
 743      49991C25 
 743      8D
 744 160c 2C570433 		.ascii	",W\0043\224\230\"+`\261\351DaC\300v\250\352 \005\331"
 744      9498222B 
 744      60B1E944 
 744      6143C076 
 744      A8EA2005 
 745 1621 F15DBA52 		.ascii	"\361]\272R\021.\015\342\375\330ry\\,]\211\006\307\306"
 745      112E0DE2 
 745      FDD87279 
 745      5C2C5D89 
 745      06C7C6
 746 1634 50B324E1 		.ascii	"P\263$\341\253\210\215\203\227\232\272\241\270\256\370"
 746      AB888D83 
 746      979ABAA1 
 746      B8AEF8
 747 1643 68E96478 		.ascii	"h\351dx\225\021\234\024R@Q\301\264\211Jx\314\037#\335"
 747      95119C14 
 747      524051C1 
 747      B4894A78 
 747      CC1F23DD 
 748 1657 D1E82BE4 		.ascii	"\321\350+\344\330S\220%8\221$<\221@U\017j\2571\354\015"
 748      D8539025 
 748      3891243C 
 748      9140550F 
 748      6AAF31EC 
 749 166c 01A5A761 		.ascii	"\001\245\247a\301\364\211?\022\230(\207\224P\345\270"
 749      C1F4893F 
 749      12982887 
 749      9450E5B8 
 750 167c 9EFAE3F1 		.ascii	"\236\372\343\361U\301*`\325\213\311\211\217\272E\002"
 750      55C12A60 
 750      D58BC989 
 750      8FBA4502 
 751 168c 502D267D 		.ascii	"P-&}\230\204\007\301H\260\022\014k\234\257\242\012\214"
 751      988407C1 
 751      48B0120C 
ARM GAS  /tmp/ccEZ1ckG.s 			page 60


 751      6B9CAFA2 
 751      0A8C
 752 169e 20CF55A7 		.ascii	" \317U\247\250P&\021\343\255\240\350p\015O$\235\025"
 752      A8502611 
 752      E3ADA0E8 
 752      700D4F24 
 752      9D15
 753 16b0 9140840A 		.ascii	"\221@\204\012\354+\300\017\362\021\246\335\210V\344"
 753      EC2BC00F 
 753      F211A6DD 
 753      8856E4
 754 16bf 72B43978 		.ascii	"r\2649x\030\011\207\313\273C\307\326;\271\037\322\324"
 754      180987CB 
 754      BB43C7D6 
 754      3BB91FD2 
 754      D4
 755 16d0 6950DF80 		.ascii	"iP\337\200\032\015(\031\360\030\223\344\375D\252\346"
 755      1A0D2819 
 755      F01893E4 
 755      FD44AAE6 
 756 16e0 600CA107 		.ascii	"`\014\241\007\245b[&\227'\372O0\032\222\313\201of1\246"
 756      A5625B26 
 756      9727FA4F 
 756      301A92CB 
 756      816F6631 
 757 16f5 0AA2A109 		.ascii	"\012\242\241\011\301hO\366\346\211\021\243s\261O\225"
 757      C1684FF6 
 757      E68911A3 
 757      73B14F95 
 758 1705 87C6648F 		.ascii	"\207\306d\217+)1\365\255\201\375\207\364\037\310\366"
 758      2B2931F5 
 758      AD81FD87 
 758      F41FC8F6 
 759 1715 47E85BC4 		.ascii	"G\350[\304'\304B\377\005\332\366M\214\206\224\240\227"
 759      27C442FF 
 759      05DAF64D 
 759      8C8694A0 
 759      97
 760 1726 A8DB13A9 		.ascii	"\250\333\023\251R<\343\202\212\237x\240P\005\274\364"
 760      523CE382 
 760      8A9F78A0 
 760      5005BCF4 
 761 1736 C213C50B 		.ascii	"\302\023\305\013\217\2244\314\246\370H>\3053\241B\361"
 761      8F9434CC 
 761      A6F8483E 
 761      C533A142 
 761      F1
 762 1747 A1B0FE58 		.ascii	"\241\260\376X\251fm\376\342\202\300\343#\013G\026\216"
 762      A9666DFE 
 762      E282C0E3 
 762      230B4716 
 762      8E
 763 1758 4E8754F1 		.ascii	"N\207T\361\350\307Fe\300\265h\370\203\005\277\367a\026"
 763      E8C74665 
 763      C0B568F8 
 763      8305BFF7 
 763      6116
ARM GAS  /tmp/ccEZ1ckG.s 			page 61


 764 176a 776E189B 		.ascii	"wn\030\233\206t\374\273B\225@B\267\215n\340n\264d\206"
 764      8674FCBB 
 764      42954042 
 764      B78D6EE0 
 764      6EB46486 
 765 177e 9EF48FD7 		.ascii	"\236\364\217\327-\011R%\341*\360\012\321\214\361\201"
 765      2D095225 
 765      E12AF00A 
 765      D18CF181 
 766 178e 315563C7 		.ascii	"1Uc\307\006\243\276\361\001%\034I\207,\321\210\022\205"
 766      06A3BEF1 
 766      01251C49 
 766      872CD188 
 766      1285
 767 17a0 6BB414AE 		.ascii	"k\264\024\256\376\361\225a%4v2\240\214\017\320d\332"
 767      FEF19561 
 767      25347632 
 767      A08C0FD0 
 767      64DA
 768 17b2 7868D1CA 		.ascii	"xh\321\312\247\322B\210\331#\\\2450\325\246\2051!\205"
 768      A7D24288 
 768      D9235CA5 
 768      30D5A685 
 768      312185
 769 17c5 C648E131 		.ascii	"\306H\3411\277J%\0104qv"
 769      BF4A2508 
 769      347176
 770 17d0 FE88E2C2 		.ascii	"\376\210\342\302\342\354\342\321\240\357\212\274\334"
 770      E2ECE2D1 
 770      A0EF8ABC 
 770      DC
 771 17dd B10307E4 		.ascii	"\261\003\007\344L\".\347\256\307\213\037,\032\035\030"
 771      4C222EE7 
 771      AEC78B1F 
 771      2C1A1D18 
 772 17ed 0D5EAD20 		.ascii	"\015^\255 8V*.\222\012\212<\017\025\025y\362\213r \344"
 772      38562A2E 
 772      920A8A3C 
 772      0F151579 
 772      F28B7220 
 773 1802 42C8F33E 		.ascii	"B\310\363><zT\221\257*&G\225B'\226B\335R\361\350\021"
 773      3C7A5491 
 773      AF2A2647 
 773      95422796 
 773      42DD52F1 
 774 1818 79B9D98F 		.ascii	"y\271\331\217>Z\220\215UL\310\321,'P^NF\000_,\022\014"
 774      3E5A908D 
 774      554CC8D1 
 774      2C27505E 
 774      4E46005F 
 775 182f 96A20FCE 		.ascii	"\226\242\017\316\031\014z\244>\201$=%\321\034\010\271"
 775      190C7AA4 
 775      3E81243D 
 775      25D11C08 
 775      B9
 776 1840 10F2341B 		.ascii	"\020\3624\033\313\017W\216\015\215\273S\225\227\010"
 776      CB0F578E 
ARM GAS  /tmp/ccEZ1ckG.s 			page 62


 776      0D8DBB53 
 776      959708
 777 184f E954C583 		.ascii	"\351T\305\203\245\361\021-\231\353\217\005\225@0\032"
 777      A5F1112D 
 777      99EB8F05 
 777      9540301A 
 778 185f 0D473DB1 		.ascii	"\015G=\261\322\210\024\213\366\204\022\023\202\304\325"
 778      D288148B 
 778      F6841213 
 778      82C4D5
 779 186e C0D3AA88 		.ascii	"\300\323\252\210\322\033\025\000\367!\245\177(\026\225"
 779      D21B1500 
 779      F721A57F 
 779      281695
 780 187d FB0F482F 		.ascii	"\373\017H/,.z\260\177\316\240\264\022\244\327'VJ\340"
 780      2C2E7AB0 
 780      7FCEA0B4 
 780      12A4D727 
 780      564AE0
 781 1890 C1A38523 		.ascii	"\301\243\205#\375#\220\267\177N\306\023\301\022%\034"
 781      FD2390B7 
 781      7F4EC613 
 781      C112251C 
 782 18a0 2D18E2A7 		.ascii	"-\030\342\247\211\234A\371\335\265\\\004'\323(\001\271"
 782      899C41F9 
 782      DDB55C04 
 782      27D32801 
 782      B9
 783 18b1 BB33C5EF 		.ascii	"\2733\305\357.)\033>Ay(\032\226KK\344\230\362\033\322"
 783      2E291B3E 
 783      4179281A 
 783      964B4BE4 
 783      98F21BD2 
 784 18c5 590B334A 		.ascii	"Y\0133J\312\036\373\367\207\203Ja\317Xia%\014\201``"
 784      CA1EFBF7 
 784      87834A61 
 784      CF586961 
 784      250C8160 
 785 18da 05B22217 		.ascii	"\005\262\"\027>\340\\/P\252\"\\\251\017\031\225\023"
 785      3EE05C2F 
 785      50AA225C 
 785      A90F1995 
 785      13
 786 18eb 4225D014 		.ascii	"B%\320\024\275\311\265 \024\223\307\224\007)\317>\001"
 786      BDC9B520 
 786      1493C794 
 786      0729CF3E 
 786      01
 787 18fc 3A1245C7 		.ascii	":\022E\307\203_\013\225\207\307U\005\201\353cc\376\010"
 787      835F0B95 
 787      87C75505 
 787      81EB6363 
 787      FE08
 788 190e 6F0B8178 		.ascii	"o\013\201x/Rbxe\242\200\247\270 \027\302\340\036\372"
 788      2F526278 
 788      65A280A7 
 788      B82017C2 
ARM GAS  /tmp/ccEZ1ckG.s 			page 63


 788      E01EFA
 789 1921 30495592 		.ascii	"0IU\222\322\015\022f\341\030D\320\327\310\025\330\364"
 789      D20D1266 
 789      E11844D0 
 789      D7C815D8 
 789      F4
 790 1932 25D7E1A4 		.ascii	"%\327\341\244/\233\344\367\004c\021\037\372-_\340!\360"
 790      2F9BE4F7 
 790      0463111F 
 790      FA2D5FE0 
 790      21F0
 791 1944 7999441F 		.ascii	"y\231D\037\205\261\341\025\021er\241'<>\322\275(?\337"
 791      85B1E115 
 791      116572A1 
 791      273C3ED2 
 791      BD283FDF 
 792 1958 B0E4FCA2 		.ascii	"\260\344\374\242\364Q\217>\232\377\233\207\213\274$"
 792      F4518F3E 
 792      9AFF9B87 
 792      8BBC24
 793 1967 F2E41716 		.ascii	"\362\344\027\026e<\370\310C9E\305\2431\221\253'\362"
 793      653CF8C8 
 793      433945C5 
 793      A33191AB 
 793      27F2
 794 1979 48C25F34 		.ascii	"H\302_4\274xx\321\023\303\013\006d<8J\3174\212f2\336"
 794      BC7878D1 
 794      13C30B06 
 794      643C384A 
 794      CF348A66 
 795 198f E5A41380 		.ascii	"\345\244\023\200\341#\213\3105W\273\346\301\325\310"
 795      E1238BC8 
 795      3557BBE6 
 795      C1D5C8
 796 199e 919B4E4A 		.ascii	"\221\233NJ\343\233Q\230\303x\223\347'e\037\035E\236"
 796      E39B5198 
 796      C37893E7 
 796      27651F1D 
 796      459E
 797 19b0 91D2462A 		.ascii	"\221\322F*\217\246\364|\003\375\004A{;J\317\247\277"
 797      8FA6F47C 
 797      03FD0441 
 797      7B3B4ACF 
 797      A7BF
 798 19c2 1DE47DA8 		.ascii	"\035\344}\250 \037d)N<\032\354+.\316\177\270\250\033"
 798      201F6429 
 798      4E3C1AEC 
 798      2B2ECE7F 
 798      B8A81B
 799 19d5 085B985B 		.ascii	"\010[\230[LD\315\244\206Z\032$&&V\375\037\246\262X\372"
 799      4C44CDA4 
 799      865A1A24 
 799      262656FD 
 799      1FA6B258 
 800              		.text
 801              		.section	.gnu.lto_.symtab.bd59b9e03b2c3fcc,"",%progbits
 802 0000 56656374 		.ascii	"VectorD8\000\000\000\000\000\000\000\000\000\000\000"
ARM GAS  /tmp/ccEZ1ckG.s 			page 64


 802      6F724438 
 802      00000000 
 802      00000000 
 802      000000
 803 0013 00520200 		.ascii	"\000R\002\000\000SD2\000\000\000\000\000\000\000\000"
 803      00534432 
 803      00000000 
 803      00000000 
 804 0023 00000000 		.ascii	"\000\000\000\000\211\002\000\000Vector15C\000\000\000"
 804      89020000 
 804      56656374 
 804      6F723135 
 804      43000000 
 805 0037 00000000 		.ascii	"\000\000\000\000\000\000\000\000\000V\002\000\000SD"
 805      00000000 
 805      00560200 
 805      005344
 806 0046 36000000 		.ascii	"6\000\000\000\000\000\000\000\000\000\000\000\000\213"
 806      00000000 
 806      00000000 
 806      008B
 807 0054 02000073 		.ascii	"\002\000\000sd_lld_init\000\000\000\000\000\000\000"
 807      645F6C6C 
 807      645F696E 
 807      69740000 
 807      00000000 
 808 0069 00000000 		.ascii	"\000\000\000\000\000Y\002\000\000sd_lld_start\000\000"
 808      00590200 
 808      0073645F 
 808      6C6C645F 
 808      73746172 
 809 0080 00000000 		.ascii	"\000\000\000\000\000\000\000\000\000\000\\\002\000\000"
 809      00000000 
 809      00005C02 
 809      0000
 810 008e 73645F6C 		.ascii	"sd_lld_stop\000\000\000\000\000\000\000\000\000\000"
 810      6C645F73 
 810      746F7000 
 810      00000000 
 810      00000000 
 811 00a3 00006402 		.ascii	"\000\000d\002\000\000chEvtBroadcastFlagsI\000\000\002"
 811      00006368 
 811      45767442 
 811      726F6164 
 811      63617374 
 812 00c0 00000000 		.ascii	"\000\000\000\000\000\000\000\000\000h\002\000\000ch"
 812      00000000 
 812      00680200 
 812      006368
 813 00cf 4F514765 		.ascii	"OQGetI\000\000\002\000\000\000\000\000\000\000\000\000"
 813      74490000 
 813      02000000 
 813      00000000 
 813      0000
 814 00e1 6E020000 		.ascii	"n\002\000\000sdIncomingDataI\000\000\002\000\000\000"
 814      7364496E 
 814      636F6D69 
ARM GAS  /tmp/ccEZ1ckG.s 			page 65


 814      6E674461 
 814      74614900 
 815 00fa 00000000 		.ascii	"\000\000\000\000\000\000s\002\000\000nvicDisableVec"
 815      00007302 
 815      00006E76 
 815      69634469 
 815      7361626C 
 816 0112 746F7200 		.ascii	"tor\000\000\002\000\000\000\000\000\000\000\000\000"
 816      00020000 
 816      00000000 
 816      000000
 817 0121 78020000 		.ascii	"x\002\000\000_port_irq_epilogue\000\000\002\000\000"
 817      5F706F72 
 817      745F6972 
 817      715F6570 
 817      696C6F67 
 818 013c 00000000 		.ascii	"\000\000\000\000\000\000\000|\002\000\000sdObjectIn"
 818      0000007C 
 818      02000073 
 818      644F626A 
 818      65637449 
 819 0151 69740000 		.ascii	"it\000\000\002\000\000\000\000\000\000\000\000\000~"
 819      02000000 
 819      00000000 
 819      00007E
 820 0160 0200006E 		.ascii	"\002\000\000nvicEnableVector\000\000\002\000\000\000"
 820      76696345 
 820      6E61626C 
 820      65566563 
 820      746F7200 
 821 0179 00000000 		.ascii	"\000\000\000\000\000\000\204\002\000\000"
 821      00008402 
 821      0000
 822              		.text
 823              		.section	.gnu.lto_.opts,"",%progbits
 824 0000 272D6D63 		.ascii	"'-mcpu=cortex-m4' '-mfloat-abi=hard' '-mfpu=fpv4-sp"
 824      70753D63 
 824      6F727465 
 824      782D6D34 
 824      2720272D 
 825 0033 2D643136 		.ascii	"-d16' '-mno-thumb-interwork' '-mthumb' '-O2' '-fomi"
 825      2720272D 
 825      6D6E6F2D 
 825      7468756D 
 825      622D696E 
 826 0066 742D6672 		.ascii	"t-frame-pointer' '-falign-functions=16' '-ffunction"
 826      616D652D 
 826      706F696E 
 826      74657227 
 826      20272D66 
 827 0099 2D736563 		.ascii	"-sections' '-fdata-sections' '-fno-common' '-flto' "
 827      74696F6E 
 827      73272027 
 827      2D666461 
 827      74612D73 
 828 00cc 272D6673 		.ascii	"'-fsingle-precision-constant'\000"
 828      696E676C 
ARM GAS  /tmp/ccEZ1ckG.s 			page 66


 828      652D7072 
 828      65636973 
 828      696F6E2D 
 829              		.text
 830              		.section	.text.notify2,"ax",%progbits
 831              		.align	2
 832              		.p2align 4,,15
 833              		.thumb
 834              		.thumb_func
 835              		.type	notify2, %function
 836              	notify2:
 837              		@ args = 0, pretend = 0, frame = 0
 838              		@ frame_needed = 0, uses_anonymous_args = 0
 839              		@ link register save eliminated.
 840 0000 024B     		ldr	r3, .L2
 841 0002 DA68     		ldr	r2, [r3, #12]
 842 0004 42F08002 		orr	r2, r2, #128
 843 0008 DA60     		str	r2, [r3, #12]
 844 000a 7047     		bx	lr
 845              	.L3:
 846              		.align	2
 847              	.L2:
 848 000c 00440040 		.word	1073759232
 849              		.size	notify2, .-notify2
 850              		.section	.text.notify6,"ax",%progbits
 851              		.align	2
 852              		.p2align 4,,15
 853              		.thumb
 854              		.thumb_func
 855              		.type	notify6, %function
 856              	notify6:
 857              		@ args = 0, pretend = 0, frame = 0
 858              		@ frame_needed = 0, uses_anonymous_args = 0
 859              		@ link register save eliminated.
 860 0000 024B     		ldr	r3, .L5
 861 0002 DA68     		ldr	r2, [r3, #12]
 862 0004 42F08002 		orr	r2, r2, #128
 863 0008 DA60     		str	r2, [r3, #12]
 864 000a 7047     		bx	lr
 865              	.L6:
 866              		.align	2
 867              	.L5:
 868 000c 00140140 		.word	1073812480
 869              		.size	notify6, .-notify6
 870              		.section	.text.serve_interrupt,"ax",%progbits
 871              		.align	2
 872              		.p2align 4,,15
 873              		.thumb
 874              		.thumb_func
 875              		.type	serve_interrupt, %function
 876              	serve_interrupt:
 877              		@ args = 0, pretend = 0, frame = 0
 878              		@ frame_needed = 0, uses_anonymous_args = 0
 879 0000 2DE9F041 		push	{r4, r5, r6, r7, r8, lr}
 880 0004 D0F85454 		ldr	r5, [r0, #1108]
 881 0008 D5F80C80 		ldr	r8, [r5, #12]
 882 000c 2B68     		ldr	r3, [r5]
ARM GAS  /tmp/ccEZ1ckG.s 			page 67


 883 000e 0646     		mov	r6, r0
 884 0010 D805     		lsls	r0, r3, #23
 885 0012 9CB2     		uxth	r4, r3
 886 0014 47D4     		bmi	.L54
 887              	.L8:
 888 0016 2023     		movs	r3, #32
 889              	@ 546 "/home/cody/dev/chibios/trunk/os/ext/CMSIS/include/core_cmFunc.h" 1
 890 0018 83F31188 		MSR basepri, r3
 891              	@ 0 "" 2
 892              		.thumb
 893 001c A106     		lsls	r1, r4, #26
 894 001e 22D5     		bpl	.L9
 895 0020 371D     		adds	r7, r6, #4
 896 0022 08E0     		b	.L15
 897              	.L10:
 898 0024 6968     		ldr	r1, [r5, #4]
 899 0026 3046     		mov	r0, r6
 900 0028 C9B2     		uxtb	r1, r1
 901 002a FFF7FEFF 		bl	sdIncomingDataI
 902 002e 2C68     		ldr	r4, [r5]
 903 0030 A4B2     		uxth	r4, r4
 904 0032 A106     		lsls	r1, r4, #26
 905 0034 17D5     		bpl	.L9
 906              	.L15:
 907 0036 2207     		lsls	r2, r4, #28
 908 0038 F4D0     		beq	.L10
 909 003a 14F0080F 		tst	r4, #8
 910 003e 14BF     		ite	ne
 911 0040 8021     		movne	r1, #128
 912 0042 0021     		moveq	r1, #0
 913 0044 14F0010F 		tst	r4, #1
 914 0048 18BF     		it	ne
 915 004a 41F02001 		orrne	r1, r1, #32
 916 004e A307     		lsls	r3, r4, #30
 917 0050 48BF     		it	mi
 918 0052 41F04001 		orrmi	r1, r1, #64
 919 0056 6407     		lsls	r4, r4, #29
 920 0058 3846     		mov	r0, r7
 921 005a 48BF     		it	mi
 922 005c 41F48071 		orrmi	r1, r1, #256
 923 0060 FFF7FEFF 		bl	chEvtBroadcastFlagsI
 924 0064 DEE7     		b	.L10
 925              	.L9:
 926 0066 0023     		movs	r3, #0
 927              	@ 546 "/home/cody/dev/chibios/trunk/os/ext/CMSIS/include/core_cmFunc.h" 1
 928 0068 83F31188 		MSR basepri, r3
 929              	@ 0 "" 2
 930              		.thumb
 931 006c 18F0800F 		tst	r8, #128
 932 0070 01D0     		beq	.L16
 933 0072 2206     		lsls	r2, r4, #24
 934 0074 26D4     		bmi	.L55
 935              	.L16:
 936 0076 6306     		lsls	r3, r4, #25
 937 0078 13D5     		bpl	.L7
 938 007a 2023     		movs	r3, #32
 939              	@ 546 "/home/cody/dev/chibios/trunk/os/ext/CMSIS/include/core_cmFunc.h" 1
ARM GAS  /tmp/ccEZ1ckG.s 			page 68


 940 007c 83F31188 		MSR basepri, r3
 941              	@ 0 "" 2
 942              		.thumb
 943 0080 726C     		ldr	r2, [r6, #68]
 944 0082 B36C     		ldr	r3, [r6, #72]
 945 0084 9A42     		cmp	r2, r3
 946 0086 2BD0     		beq	.L56
 947              	.L20:
 948 0088 4FF6BF73 		movw	r3, #65471
 949 008c 08EA0303 		and	r3, r8, r3
 950 0090 6FF04002 		mvn	r2, #64
 951 0094 EB60     		str	r3, [r5, #12]
 952 0096 0023     		movs	r3, #0
 953 0098 2A60     		str	r2, [r5]
 954              	@ 546 "/home/cody/dev/chibios/trunk/os/ext/CMSIS/include/core_cmFunc.h" 1
 955 009a 83F31188 		MSR basepri, r3
 956              	@ 0 "" 2
 957              		.thumb
 958 009e BDE8F081 		pop	{r4, r5, r6, r7, r8, pc}
 959              	.L7:
 960 00a2 BDE8F081 		pop	{r4, r5, r6, r7, r8, pc}
 961              	.L54:
 962 00a6 2023     		movs	r3, #32
 963              	@ 546 "/home/cody/dev/chibios/trunk/os/ext/CMSIS/include/core_cmFunc.h" 1
 964 00a8 83F31188 		MSR basepri, r3
 965              	@ 0 "" 2
 966              		.thumb
 967 00ac 4FF40071 		mov	r1, #512
 968 00b0 301D     		adds	r0, r6, #4
 969 00b2 FFF7FEFF 		bl	chEvtBroadcastFlagsI
 970 00b6 6FF48073 		mvn	r3, #256
 971 00ba 2B60     		str	r3, [r5]
 972 00bc 0023     		movs	r3, #0
 973              	@ 546 "/home/cody/dev/chibios/trunk/os/ext/CMSIS/include/core_cmFunc.h" 1
 974 00be 83F31188 		MSR basepri, r3
 975              	@ 0 "" 2
 976              		.thumb
 977 00c2 A8E7     		b	.L8
 978              	.L55:
 979 00c4 2023     		movs	r3, #32
 980              	@ 546 "/home/cody/dev/chibios/trunk/os/ext/CMSIS/include/core_cmFunc.h" 1
 981 00c6 83F31188 		MSR basepri, r3
 982              	@ 0 "" 2
 983              		.thumb
 984 00ca 06F13000 		add	r0, r6, #48
 985 00ce FFF7FEFF 		bl	chOQGetI
 986 00d2 0028     		cmp	r0, #0
 987 00d4 0CDB     		blt	.L57
 988 00d6 6860     		str	r0, [r5, #4]
 989              	.L18:
 990 00d8 0023     		movs	r3, #0
 991              	@ 546 "/home/cody/dev/chibios/trunk/os/ext/CMSIS/include/core_cmFunc.h" 1
 992 00da 83F31188 		MSR basepri, r3
 993              	@ 0 "" 2
 994              		.thumb
 995 00de CAE7     		b	.L16
 996              	.L56:
ARM GAS  /tmp/ccEZ1ckG.s 			page 69


 997 00e0 B36B     		ldr	r3, [r6, #56]
 998 00e2 002B     		cmp	r3, #0
 999 00e4 D0D0     		beq	.L20
 1000 00e6 301D     		adds	r0, r6, #4
 1001 00e8 1021     		movs	r1, #16
 1002 00ea FFF7FEFF 		bl	chEvtBroadcastFlagsI
 1003 00ee CBE7     		b	.L20
 1004              	.L57:
 1005 00f0 301D     		adds	r0, r6, #4
 1006 00f2 0821     		movs	r1, #8
 1007 00f4 FFF7FEFF 		bl	chEvtBroadcastFlagsI
 1008 00f8 4FF63F73 		movw	r3, #65343
 1009 00fc 08EA0303 		and	r3, r8, r3
 1010 0100 43F04003 		orr	r3, r3, #64
 1011 0104 EB60     		str	r3, [r5, #12]
 1012 0106 E7E7     		b	.L18
 1013              		.size	serve_interrupt, .-serve_interrupt
 1014 0108 AFF30080 		.section	.text.VectorD8,"ax",%progbits
 1014      AFF30080 
 1015              		.align	2
 1016              		.p2align 4,,15
 1017              		.global	VectorD8
 1018              		.thumb
 1019              		.thumb_func
 1020              		.type	VectorD8, %function
 1021              	VectorD8:
 1022              		@ args = 0, pretend = 0, frame = 0
 1023              		@ frame_needed = 0, uses_anonymous_args = 0
 1024 0000 08B5     		push	{r3, lr}
 1025 0002 0348     		ldr	r0, .L59
 1026 0004 FFF7FEFF 		bl	serve_interrupt
 1027 0008 BDE80840 		pop	{r3, lr}
 1028 000c FFF7FEBF 		b	_port_irq_epilogue
 1029              	.L60:
 1030              		.align	2
 1031              	.L59:
 1032 0010 00000000 		.word	.LANCHOR0
 1033              		.size	VectorD8, .-VectorD8
 1034 0014 AFF30080 		.section	.text.Vector15C,"ax",%progbits
 1034      AFF30080 
 1034      AFF30080 
 1035              		.align	2
 1036              		.p2align 4,,15
 1037              		.global	Vector15C
 1038              		.thumb
 1039              		.thumb_func
 1040              		.type	Vector15C, %function
 1041              	Vector15C:
 1042              		@ args = 0, pretend = 0, frame = 0
 1043              		@ frame_needed = 0, uses_anonymous_args = 0
 1044 0000 08B5     		push	{r3, lr}
 1045 0002 0348     		ldr	r0, .L62
 1046 0004 FFF7FEFF 		bl	serve_interrupt
 1047 0008 BDE80840 		pop	{r3, lr}
 1048 000c FFF7FEBF 		b	_port_irq_epilogue
 1049              	.L63:
 1050              		.align	2
ARM GAS  /tmp/ccEZ1ckG.s 			page 70


 1051              	.L62:
 1052 0010 00000000 		.word	.LANCHOR1
 1053              		.size	Vector15C, .-Vector15C
 1054 0014 AFF30080 		.section	.text.sd_lld_init,"ax",%progbits
 1054      AFF30080 
 1054      AFF30080 
 1055              		.align	2
 1056              		.p2align 4,,15
 1057              		.global	sd_lld_init
 1058              		.thumb
 1059              		.thumb_func
 1060              		.type	sd_lld_init, %function
 1061              	sd_lld_init:
 1062              		@ args = 0, pretend = 0, frame = 0
 1063              		@ frame_needed = 0, uses_anonymous_args = 0
 1064 0000 38B5     		push	{r3, r4, r5, lr}
 1065 0002 094D     		ldr	r5, .L65
 1066 0004 094C     		ldr	r4, .L65+4
 1067 0006 0A4A     		ldr	r2, .L65+8
 1068 0008 2846     		mov	r0, r5
 1069 000a 0021     		movs	r1, #0
 1070 000c FFF7FEFF 		bl	sdObjectInit
 1071 0010 084B     		ldr	r3, .L65+12
 1072 0012 094A     		ldr	r2, .L65+16
 1073 0014 C5F85434 		str	r3, [r5, #1108]
 1074 0018 2046     		mov	r0, r4
 1075 001a 0021     		movs	r1, #0
 1076 001c FFF7FEFF 		bl	sdObjectInit
 1077 0020 064B     		ldr	r3, .L65+20
 1078 0022 C4F85434 		str	r3, [r4, #1108]
 1079 0026 38BD     		pop	{r3, r4, r5, pc}
 1080              	.L66:
 1081              		.align	2
 1082              	.L65:
 1083 0028 00000000 		.word	.LANCHOR0
 1084 002c 00000000 		.word	.LANCHOR1
 1085 0030 00000000 		.word	notify2
 1086 0034 00440040 		.word	1073759232
 1087 0038 00000000 		.word	notify6
 1088 003c 00140140 		.word	1073812480
 1089              		.size	sd_lld_init, .-sd_lld_init
 1090              		.section	.text.sd_lld_start,"ax",%progbits
 1091              		.align	2
 1092              		.p2align 4,,15
 1093              		.global	sd_lld_start
 1094              		.thumb
 1095              		.thumb_func
 1096              		.type	sd_lld_start, %function
 1097              	sd_lld_start:
 1098              		@ args = 0, pretend = 0, frame = 0
 1099              		@ frame_needed = 0, uses_anonymous_args = 0
 1100 0000 38B5     		push	{r3, r4, r5, lr}
 1101 0002 264C     		ldr	r4, .L77
 1102 0004 037A     		ldrb	r3, [r0, #8]	@ zero_extendqisi2
 1103 0006 0029     		cmp	r1, #0
 1104 0008 18BF     		it	ne
 1105 000a 0C46     		movne	r4, r1
ARM GAS  /tmp/ccEZ1ckG.s 			page 71


 1106 000c 012B     		cmp	r3, #1
 1107 000e 0546     		mov	r5, r0
 1108 0010 23D0     		beq	.L75
 1109              	.L69:
 1110 0012 D5F85434 		ldr	r3, [r5, #1108]
 1111 0016 224A     		ldr	r2, .L77+4
 1112 0018 9342     		cmp	r3, r2
 1113 001a 2ED0     		beq	.L71
 1114 001c 02F58062 		add	r2, r2, #1024
 1115 0020 9342     		cmp	r3, r2
 1116 0022 2AD0     		beq	.L71
 1117 0024 2268     		ldr	r2, [r4]
 1118 0026 1F49     		ldr	r1, .L77+8
 1119 0028 B1FBF2F2 		udiv	r2, r1, r2
 1120 002c 9A60     		str	r2, [r3, #8]
 1121              	.L73:
 1122 002e A288     		ldrh	r2, [r4, #4]
 1123 0030 E188     		ldrh	r1, [r4, #6]
 1124 0032 2089     		ldrh	r0, [r4, #8]
 1125 0034 42F40452 		orr	r2, r2, #8448
 1126 0038 41F04004 		orr	r4, r1, #64
 1127 003c 42F02C02 		orr	r2, r2, #44
 1128 0040 40F00100 		orr	r0, r0, #1
 1129 0044 92B2     		uxth	r2, r2
 1130 0046 A4B2     		uxth	r4, r4
 1131 0048 80B2     		uxth	r0, r0
 1132 004a 0021     		movs	r1, #0
 1133 004c 1C61     		str	r4, [r3, #16]
 1134 004e 5861     		str	r0, [r3, #20]
 1135 0050 DA60     		str	r2, [r3, #12]
 1136 0052 1960     		str	r1, [r3]
 1137 0054 1A68     		ldr	r2, [r3]
 1138 0056 5B68     		ldr	r3, [r3, #4]
 1139 0058 38BD     		pop	{r3, r4, r5, pc}
 1140              	.L75:
 1141 005a 134B     		ldr	r3, .L77+12
 1142 005c 9842     		cmp	r0, r3
 1143 005e 12D0     		beq	.L76
 1144 0060 124B     		ldr	r3, .L77+16
 1145 0062 9842     		cmp	r0, r3
 1146 0064 D5D1     		bne	.L69
 1147 0066 124B     		ldr	r3, .L77+20
 1148 0068 5A6C     		ldr	r2, [r3, #68]
 1149 006a 42F02002 		orr	r2, r2, #32
 1150 006e 5A64     		str	r2, [r3, #68]
 1151 0070 4720     		movs	r0, #71
 1152 0072 0C21     		movs	r1, #12
 1153 0074 FFF7FEFF 		bl	nvicEnableVector
 1154 0078 CBE7     		b	.L69
 1155              	.L71:
 1156 007a 2268     		ldr	r2, [r4]
 1157 007c 0D49     		ldr	r1, .L77+24
 1158 007e B1FBF2F2 		udiv	r2, r1, r2
 1159 0082 9A60     		str	r2, [r3, #8]
 1160 0084 D3E7     		b	.L73
 1161              	.L76:
 1162 0086 0A4B     		ldr	r3, .L77+20
ARM GAS  /tmp/ccEZ1ckG.s 			page 72


 1163 0088 1A6C     		ldr	r2, [r3, #64]
 1164 008a 42F40032 		orr	r2, r2, #131072
 1165 008e 1A64     		str	r2, [r3, #64]
 1166 0090 2620     		movs	r0, #38
 1167 0092 0C21     		movs	r1, #12
 1168 0094 FFF7FEFF 		bl	nvicEnableVector
 1169 0098 BBE7     		b	.L69
 1170              	.L78:
 1171 009a 00BF     		.align	2
 1172              	.L77:
 1173 009c 00000000 		.word	.LANCHOR2
 1174 00a0 00100140 		.word	1073811456
 1175 00a4 80DE8002 		.word	42000000
 1176 00a8 00000000 		.word	.LANCHOR0
 1177 00ac 00000000 		.word	.LANCHOR1
 1178 00b0 00380240 		.word	1073887232
 1179 00b4 00BD0105 		.word	84000000
 1180              		.size	sd_lld_start, .-sd_lld_start
 1181 00b8 AFF30080 		.section	.text.sd_lld_stop,"ax",%progbits
 1181      AFF30080 
 1182              		.align	2
 1183              		.p2align 4,,15
 1184              		.global	sd_lld_stop
 1185              		.thumb
 1186              		.thumb_func
 1187              		.type	sd_lld_stop, %function
 1188              	sd_lld_stop:
 1189              		@ args = 0, pretend = 0, frame = 0
 1190              		@ frame_needed = 0, uses_anonymous_args = 0
 1191              		@ link register save eliminated.
 1192 0000 037A     		ldrb	r3, [r0, #8]	@ zero_extendqisi2
 1193 0002 022B     		cmp	r3, #2
 1194 0004 00D0     		beq	.L84
 1195              	.L79:
 1196 0006 7047     		bx	lr
 1197              	.L84:
 1198 0008 0D49     		ldr	r1, .L86
 1199 000a D0F85434 		ldr	r3, [r0, #1108]
 1200 000e 0022     		movs	r2, #0
 1201 0010 8842     		cmp	r0, r1
 1202 0012 DA60     		str	r2, [r3, #12]
 1203 0014 1A61     		str	r2, [r3, #16]
 1204 0016 5A61     		str	r2, [r3, #20]
 1205 0018 0AD0     		beq	.L85
 1206 001a 0A4B     		ldr	r3, .L86+4
 1207 001c 9842     		cmp	r0, r3
 1208 001e F2D1     		bne	.L79
 1209 0020 094B     		ldr	r3, .L86+8
 1210 0022 5A6C     		ldr	r2, [r3, #68]
 1211 0024 22F02002 		bic	r2, r2, #32
 1212 0028 5A64     		str	r2, [r3, #68]
 1213 002a 4720     		movs	r0, #71
 1214 002c FFF7FEBF 		b	nvicDisableVector
 1215              	.L85:
 1216 0030 054B     		ldr	r3, .L86+8
 1217 0032 1A6C     		ldr	r2, [r3, #64]
 1218 0034 22F40032 		bic	r2, r2, #131072
ARM GAS  /tmp/ccEZ1ckG.s 			page 73


 1219 0038 1A64     		str	r2, [r3, #64]
 1220 003a 2620     		movs	r0, #38
 1221 003c FFF7FEBF 		b	nvicDisableVector
 1222              	.L87:
 1223              		.align	2
 1224              	.L86:
 1225 0040 00000000 		.word	.LANCHOR0
 1226 0044 00000000 		.word	.LANCHOR1
 1227 0048 00380240 		.word	1073887232
 1228              		.size	sd_lld_stop, .-sd_lld_stop
 1229              		.global	SD6
 1230              		.global	SD2
 1231 004c AFF30080 		.section	.rodata.default_config,"a",%progbits
 1232              		.align	2
 1233              		.set	.LANCHOR2,. + 0
 1234              		.type	default_config, %object
 1235              		.size	default_config, 12
 1236              	default_config:
 1237 0000 00C20100 		.word	115200
 1238 0004 0000     		.short	0
 1239 0006 0040     		.short	16384
 1240 0008 0000     		.short	0
 1241 000a 0000     		.space	2
 1242              		.section	.bss.SD2,"aw",%nobits
 1243              		.align	2
 1244              		.set	.LANCHOR0,. + 0
 1245              		.type	SD2, %object
 1246              		.size	SD2, 1112
 1247              	SD2:
 1248 0000 00000000 		.space	1112
 1248      00000000 
 1248      00000000 
 1248      00000000 
 1248      00000000 
 1249              		.section	.bss.SD6,"aw",%nobits
 1250              		.align	2
 1251              		.set	.LANCHOR1,. + 0
 1252              		.type	SD6, %object
 1253              		.size	SD6, 1112
 1254              	SD6:
 1255 0000 00000000 		.space	1112
 1255      00000000 
 1255      00000000 
 1255      00000000 
 1255      00000000 
 1256              		.comm	__gnu_lto_v1,1,1
 1257              		.ident	"GCC: (GNU Tools for ARM Embedded Processors) 4.8.4 20140526 (release) [ARM/embedded-4_8-br
ARM GAS  /tmp/ccEZ1ckG.s 			page 74


DEFINED SYMBOLS
                            *ABS*:0000000000000000 serial_lld.c
     /tmp/ccEZ1ckG.s:831    .text.notify2:0000000000000000 $t
     /tmp/ccEZ1ckG.s:836    .text.notify2:0000000000000000 notify2
     /tmp/ccEZ1ckG.s:848    .text.notify2:000000000000000c $d
     /tmp/ccEZ1ckG.s:851    .text.notify6:0000000000000000 $t
     /tmp/ccEZ1ckG.s:856    .text.notify6:0000000000000000 notify6
     /tmp/ccEZ1ckG.s:868    .text.notify6:000000000000000c $d
     /tmp/ccEZ1ckG.s:871    .text.serve_interrupt:0000000000000000 $t
     /tmp/ccEZ1ckG.s:876    .text.serve_interrupt:0000000000000000 serve_interrupt
     /tmp/ccEZ1ckG.s:1015   .text.VectorD8:0000000000000000 $t
     /tmp/ccEZ1ckG.s:1021   .text.VectorD8:0000000000000000 VectorD8
     /tmp/ccEZ1ckG.s:1032   .text.VectorD8:0000000000000010 $d
     /tmp/ccEZ1ckG.s:1035   .text.Vector15C:0000000000000000 $t
     /tmp/ccEZ1ckG.s:1041   .text.Vector15C:0000000000000000 Vector15C
     /tmp/ccEZ1ckG.s:1052   .text.Vector15C:0000000000000010 $d
     /tmp/ccEZ1ckG.s:1055   .text.sd_lld_init:0000000000000000 $t
     /tmp/ccEZ1ckG.s:1061   .text.sd_lld_init:0000000000000000 sd_lld_init
     /tmp/ccEZ1ckG.s:1083   .text.sd_lld_init:0000000000000028 $d
     /tmp/ccEZ1ckG.s:1091   .text.sd_lld_start:0000000000000000 $t
     /tmp/ccEZ1ckG.s:1097   .text.sd_lld_start:0000000000000000 sd_lld_start
     /tmp/ccEZ1ckG.s:1173   .text.sd_lld_start:000000000000009c $d
     /tmp/ccEZ1ckG.s:1182   .text.sd_lld_stop:0000000000000000 $t
     /tmp/ccEZ1ckG.s:1188   .text.sd_lld_stop:0000000000000000 sd_lld_stop
     /tmp/ccEZ1ckG.s:1225   .text.sd_lld_stop:0000000000000040 $d
     /tmp/ccEZ1ckG.s:1254   .bss.SD6:0000000000000000 SD6
     /tmp/ccEZ1ckG.s:1247   .bss.SD2:0000000000000000 SD2
     /tmp/ccEZ1ckG.s:1232   .rodata.default_config:0000000000000000 $d
     /tmp/ccEZ1ckG.s:1236   .rodata.default_config:0000000000000000 default_config
     /tmp/ccEZ1ckG.s:1243   .bss.SD2:0000000000000000 $d
     /tmp/ccEZ1ckG.s:1250   .bss.SD6:0000000000000000 $d
                            *COM*:0000000000000001 __gnu_lto_v1
     /tmp/ccEZ1ckG.s:1034   .text.VectorD8:0000000000000014 $t
     /tmp/ccEZ1ckG.s:1054   .text.Vector15C:0000000000000014 $t
     /tmp/ccEZ1ckG.s:1181   .text.sd_lld_start:00000000000000b8 $t
     /tmp/ccEZ1ckG.s:1231   .text.sd_lld_stop:000000000000004c $t

UNDEFINED SYMBOLS
sdIncomingDataI
chEvtBroadcastFlagsI
chOQGetI
_port_irq_epilogue
sdObjectInit
nvicEnableVector
nvicDisableVector
