ARM GAS  /tmp/ccVezpUf.s 			page 1


   1              		.syntax unified
   2              		.cpu cortex-m4
   3              		.eabi_attribute 27, 3
   4              		.eabi_attribute 28, 1
   5              		.fpu fpv4-sp-d16
   6              		.eabi_attribute 20, 1
   7              		.eabi_attribute 21, 1
   8              		.eabi_attribute 23, 3
   9              		.eabi_attribute 24, 1
  10              		.eabi_attribute 25, 1
  11              		.eabi_attribute 26, 1
  12              		.eabi_attribute 30, 2
  13              		.eabi_attribute 34, 1
  14              		.eabi_attribute 18, 4
  15              		.thumb
  16              		.file	"si70x0.c"
  17              		.section	.gnu.lto_.jmpfuncs.1d7f414c06f99df0,"",%progbits
  18 0000 789C6D4E 		.ascii	"x\234mN\311\015\2000\014\263\023J\351\024\254\305\012"
  18      C90D8030 
  18      0CB3134A 
  18      E914ACC5 
  18      0A
  19 0011 2CD0C158 		.ascii	",\320\301X\255\342\213p\241HHm>v|D1\030Fs4LX\011\304"
  19      ADE28B70 
  19      A148486D 
  19      3E767C44 
  19      31184673 
  20 002a 4A1D606E 		.ascii	"J\035`n\304\363k\313\263\350\230\030$\"k%\261q'.\302"
  20      C4F36BCB 
  20      B3E89818 
  20      24226B25 
  20      B171272E 
  21 003f 1E522395 		.ascii	"\036R#\225\010\233\242\011\230ut\361\256V~\265/\257"
  21      089BA209 
  21      987574F1 
  21      AE567EB5 
  21      2FAF
  22 0051 0F539F3C 		.ascii	"\017S\237<\307I\334\254\033\0168"
  22      C749DCAC 
  22      1B0E38
  23              		.text
  24              		.section	.gnu.lto_.inline.1d7f414c06f99df0,"",%progbits
  25 0000 789C6362 		.ascii	"x\234cb`b\300\006\330\031!4'\003\203\250>#3\003\220"
  25      6062C006 
  25      D8192134 
  25      270383A8 
  25      3E233303 
  26 0015 CBACC004 		.ascii	"\313\254\300\004\022d\001\023\254\035\352\014\2347\314"
  26      12640113 
  26      AC1DEA0C 
  26      9C37CC
  27 0024 9818185F 		.ascii	"\230\030\030_\260\263@H\220r&n\006\006\306\011~\234"
  27      B0B34048 
  27      9072266E 
  27      0606C609 
  27      7E9C
  28 0036 42401326 		.ascii	"B@\023&\370!C\250\014\023\003;\033#\003\023\\;\0200"
ARM GAS  /tmp/ccVezpUf.s 			page 2


  28      F82143A8 
  28      0C13033B 
  28      1B230313 
  28      5C3B1030 
  29 004a 3330030D 		.ascii	"30\003\015\0061\331\026\310\203EX\030\271\205\201\""
  29      0631D916 
  29      C8834558 
  29      18B98581 
  29      22
  30 005b 4C17F8E1 		.ascii	"L\027\370\341B\354\002\014\014\254\023\374@LV\014\365"
  30      42EC020C 
  30      0CAC13FC 
  30      404C560C 
  30      F5
  31 006c 6C1822EC 		.ascii	"l\030\"\354\030\"\034\314bR@\021\361O\365\014\354M*"
  31      18221CCC 
  31      62524011 
  31      F14FF50C 
  31      EC4D2A
  32 007f E8667232 		.ascii	"\350fr2K\312\000eeWMg\304&\315\000\000\015\224\033\004"
  32      4BCA0065 
  32      65574D67 
  32      C426CD00 
  32      000D941B 
  33              		.text
  34              		.section	.gnu.lto_.pureconst.1d7f414c06f99df0,"",%progbits
  35 0000 789C6362 		.ascii	"x\234cb`b\020f\200\000N\006I&)f\006\026\011V\0066\006"
  35      60621066 
  35      80004E06 
  35      49262966 
  35      06160956 
  36 0017 76060E29 		.ascii	"v\006\016)N)\000\011\032\000\314"
  36      4E290009 
  36      1A00CC
  37              		.text
  38              		.section	.gnu.lto_si70x0_transmit.1d7f414c06f99df0,"",%progbits
  39 0000 789CA551 		.ascii	"x\234\245Q;H\003A\020\235\267\227\313?1A-D\020\021+"
  39      3B480341 
  39      109DB797 
  39      CB3F3141 
  39      2D441011 
  40 0015 8598CED2 		.ascii	"\205\230\316\322\306\306^\301\2241J\330\"\010&\212`"
  40      C6C65EC1 
  40      94314AD8 
  40      2208268A 
  40      60
  41 0026 E1465388 		.ascii	"\341FS\210E\010V\022\033E\322ji@\204\2246\376:\261J"
  41      45085612 
  41      1B45D26A 
  41      69408494 
  41      36FE3AB1 
  42 003b 69656129 		.ascii	"iea)\3429\273\347\235(\212\205\01373\367n\337\2337s"
  42      E239BBE7 
  42      9D288A85 
  42      0B3733F7 
  42      6EDF9B37 
  43 0050 82047D3F 		.ascii	"\202\004}?\003\374<2<\312\031\026A4\256\211\252a\001"
ARM GAS  /tmp/ccVezpUf.s 			page 3


  43      03FC3C32 
  43      3CCA1916 
  43      4134AE89 
  43      AA6101
  44 0063 E882409B 		.ascii	"\350\202@\233\002\2339\350\253b\204\216\224\332\353"
  44      029B39E8 
  44      AB62848E 
  44      94DAEB
  45 0072 B6EA2703 		.ascii	"\266\352'\003\273\207[\015\365\3468\220`\321>P\0014"
  45      BB875B0D 
  45      F5E63890 
  45      60D13E50 
  45      0134
  46 0084 CF2F1836 		.ascii	"\317/\0306I\004\276v1\314\206:[\274T\265\216\343LIX"
  46      4904BE76 
  46      31CC863A 
  46      5BBC54B5 
  46      8EE34C49 
  47 0099 8286FE62 		.ascii	"\202\206\376b\235\212N\327q^[\215\241^\201\022\310\""
  47      9D8A4ED7 
  47      715E5B8D 
  47      A15E8112 
  47      C822
  48 00ab 8980AD43 		.ascii	"\211\200\255C\220\203\035\342\020\014\363\007D\270\012"
  48      90831DE2 
  48      100CF307 
  48      44B80A
  49 00ba 45B91231 		.ascii	"E\271\0221]\305)\217#\214P\202\021+\311!\220b\344\230"
  49      5DC5298F 
  49      238C5082 
  49      112BC921 
  49      9062E498 
  50 00ce 91B426B3 		.ascii	"\221\264&\263\262M5\3663\354\202\244m\360\231\345\250"
  50      B24D35F6 
  50      33EC82A4 
  50      6DF099E5 
  50      A8
  51 00df 879E83D0 		.ascii	"\207\236\203\320\331\272\242\255\207\375z\177\036-\330"
  51      D9BAA2AD 
  51      87FD7A7F 
  51      1E2DD8
  52 00ee 5484354E 		.ascii	"T\2045Nc\314>\240fU)\225\223\010\027!\264\355\2101\273"
  52      63CC3EA0 
  52      66552995 
  52      93081721 
  52      B4ED8831 
  53 0103 00CFF60D 		.ascii	"\000\317\366\015\325:c.\213h\203^\324\216JID\013po\260"
  53      D53A632E 
  53      8B68835E 
  53      D48E4A49 
  53      440B706F 
  54 0118 92448C48 		.ascii	"\222D\214H\313\267\353\031O\336\376\"\177\201\337\365"
  54      CBB7EB19 
  54      4FDEFE22 
  54      7F81DFF5 
  55 0128 35F176D0 		.ascii	"5\361v\320\343\005\015/\316\274\037(\370\244<m?\013"
  55      E3050D2F 
ARM GAS  /tmp/ccVezpUf.s 			page 4


  55      CEBC1F28 
  55      F8A43C6D 
  55      3F0B
  56 013a 8F13629A 		.ascii	"\217\023b\232\013Z\036\024)\"\374\015\212\025\0215\320"
  56      0B5A1E14 
  56      2922FC0D 
  56      8A151135 
  56      D0
  57 014b 8C87C45D 		.ascii	"\214\207\304]w<M\302\237+Y2s\352\256I\177\001M\325\366"
  57      773C4DC2 
  57      9F2B5932 
  57      73EAAE49 
  57      7F014DD5 
  58 0160 6552FED5 		.ascii	"eR\376\325\236\002\304\307\012lc\"a\372&M\253\270D\312"
  58      9E02C4C7 
  58      0A6C6322 
  58      61FA264D 
  58      ABB844CA 
  59 0174 9DEDFE73 		.ascii	"\235\355\376s\347\351\177\357\334\372h\2306;\277\243"
  59      E7E97FEF 
  59      DCFA6898 
  59      363BBFA3 
  60 0184 6AF73CEA 		.ascii	"j\367<\352;s\271\263\274&\376\337\332ZzzE\256-\255\224"
  60      3B73B9B3 
  60      BC26FEDF 
  60      DA5A7A7A 
  60      45AE2DAD 
  61 0199 27CA7232 		.ascii	"'\312r2\273\236\315\024(R\221\245\245\345\325J&\033"
  61      BB9ECD14 
  61      285291A5 
  61      A5E5D54A 
  61      261B
  62 01ab 2C57F295 		.ascii	",W\362\225\325\362;\321\360\246\264"
  62      D5F23BD1 
  62      F0A6B4
  63              		.text
  64              		.section	.gnu.lto_si70x0_init.1d7f414c06f99df0,"",%progbits
  65 0000 789C6362 		.ascii	"x\234cb`b@\007\222@\034\300\310\300 \014\244\031\231"
  65      60624007 
  65      92401CC0 
  65      C8C0200C 
  65      A41999
  66 0013 19189926 		.ascii	"\031\030\231&\234c`h\344`bd\0041\030\030\031\352\231"
  66      9C636068 
  66      E4606264 
  66      04311818 
  66      19EA99
  67 0026 18EB2319 		.ascii	"\030\353#\031\301j\3273\035x\360\377\377\272Y\255\217"
  67      C16AD733 
  67      1D78F0FF 
  67      FFBA59AD 
  67      8F
  68 0037 58399918 		.ascii	"X9\231\030s\031\031\230\201\004#+\220\000\231\313\312"
  68      73191998 
  68      8104232B 
  68      900099CB 
  68      CA
ARM GAS  /tmp/ccVezpUf.s 			page 5


  69 0048 D0D2D030 		.ascii	"\320\322\3200A\201\201!\031\254:\004H\202\214\010\005"
  69      41818121 
  69      19AC3A04 
  69      48828C08 
  69      05
  70 0059 4A0269E6 		.ascii	"J\002i\346\263\014M\247oL\346Kd\\\310\310\312\240\315"
  70      B30C4DA7 
  70      6F4CE64B 
  70      645CC8C8 
  70      CAA0CD
  71 006c B0AA0108 		.ascii	"\260\252\001\010x3\031\031f3\314b\314ddLgd\212\000\322"
  71      78331919 
  71      6633CC62 
  71      CC64644C 
  71      67648A00 
  72 0081 10072641 		.ascii	"\020\007&A\354cH\007\272\210\001\244\361\307e\014\215"
  72      EC634807 
  72      BA8801A4 
  72      F1C7650C 
  72      8D
  73 0092 CCD83532 		.ascii	"\314\33052B5\262\2025\356\2301\215\037]#\013v\215\020"
  73      4235B282 
  73      35EE9831 
  73      8D1F5D23 
  73      0B768D10 
  74 00a6 1A24C202 		.ascii	"\032$\302\002b\2004\337\270\006\265\025\250\243\261"
  74      628034DF 
  74      B806B515 
  74      A8A3B1
  75 00b5 A1412093 		.ascii	"\241A \223\221\265\232\341WC\007\210\305\226\013r\033"
  75      91B59AE1 
  75      57430788 
  75      C5960B72 
  75      1B
  76 00c6 583D1B5C 		.ascii	"X=\033\\'\273\006\220q\221\241\361\301m.\210F\220 \007"
  76      27BB0690 
  76      7191A1F1 
  76      C16D2E88 
  76      46902007 
  77 00da 2CA84380 		.ascii	",\250C\200\216\003\206\004\310\"A\227\242\314\262\324"
  77      8E038604 
  77      C8224197 
  77      A2CCB2D4 
  78 00ea A262FDE2 		.ascii	"\242b\375\342Ls\203\012\003\275d\006\000/\240P\216"
  78      4C73830A 
  78      03BD6406 
  78      002FA050 
  78      8E
  79              		.text
  80              		.section	.gnu.lto_si70x0_stop.1d7f414c06f99df0,"",%progbits
  81 0000 789C6362 		.ascii	"x\234cb`b@\007\222@\034\001\304\302@\314\310\314\300"
  81      60624007 
  81      92401C01 
  81      C4C240CC 
  81      C8CCC0
  82 0013 C834E11C 		.ascii	"\3104\341\034\003C#\007\023##\210\301\300\310P\317\304"
  82      03432307 
ARM GAS  /tmp/ccVezpUf.s 			page 6


  82      13232388 
  82      C1C0C850 
  82      CFC4
  83 0025 581FC908 		.ascii	"X\037\311\010V\273\236\351\300\203\377\377\327]i}\304"
  83      56BB9EE9 
  83      C083FFFF 
  83      D75D697D 
  83      C4
  84 0036 06328895 		.ascii	"\0062\210\225\241\245\241a\202\002\003C2X:\004H\202"
  84      A1A5A161 
  84      82020343 
  84      32583A04 
  84      4882
  85 0048 F4843232 		.ascii	"\364\20422\201h\346\213\014\215\017^s%2.dde\210`\314"
  85      8168E68B 
  85      0C8D0F5E 
  85      7325322E 
  85      64646588 
  86 005e 64845B19 		.ascii	"d\204[\031\302\310\010R\0002B\320\245(\263,\265\250"
  86      C2C80852 
  86      003242D0 
  86      A528B32C 
  86      B5A8
  87 0070 58BF38D3 		.ascii	"X\2778\323\334\240\302@/\231\001\000$D\036\302"
  87      DCA0C240 
  87      2F990100 
  87      24441EC2 
  88              		.text
  89              		.section	.gnu.lto_si70x0_reset.1d7f414c06f99df0,"",%progbits
  90 0000 789C5D50 		.ascii	"x\234]P=K\003A\024\234\331\363\364*Q\020D\260\020{5"
  90      3D4B0341 
  90      149CD9F3 
  90      F42A5110 
  90      44B0107B 
  91 0015 856067A3 		.ascii	"\205`g\243?!\202\226\341<\302\026i\356D\005\213\274"
  91      3F218296 
  91      E13CC216 
  91      69EE4405 
  91      8BBC
  92 0027 88452A39 		.ascii	"\210E*9\254l\203\255p\205\215\345a\235\370\361\007\302"
  92      AC6C83AD 
  92      70858DE5 
  92      619DF8F1 
  92      07C2
  93 0039 3556FE01 		.ascii	"5V\376\001\261\310\371\326EQ\037\354\316\276\335\331"
  93      B1C8F9D6 
  93      45511FEC 
  93      CEBEDDD9 
  94 0049 99D93530 		.ascii	"\231\33150\370_K:\326\010,+2\000M\376\010\364\"C\272"
  94      F85F4B3A 
  94      D6082C2B 
  94      32004DFE 
  94      08F42243 
  95 005e 0588AE61 		.ascii	"\005\210\256a\367\200\216\312U\014\244\274\252^\307"
  95      F7808ECA 
  95      550CA4BC 
  95      AA5EC7
ARM GAS  /tmp/ccVezpUf.s 			page 7


  96 006d 978B5249 		.ascii	"\227\213RI.\223\272\246\245\212.\0201\261\257\015\243"
  96      2E93BAA6 
  96      A58A2E10 
  96      31B1AF0D 
  96      A3
  97 007e 2F30FCEB 		.ascii	"/0\374\353R\230\262\252\353\333\342y{&`\207\010a\325"
  97      5298B2AA 
  97      EBDBE279 
  97      7B266087 
  97      0861D5
  98 0091 0C8A1722 		.ascii	"\014\212\027\"\371J\213\003\025\207\023\321j\352\354"
  98      F94A8B03 
  98      158713D1 
  98      6AEAEC
  99 00a0 CCF7681C 		.ascii	"\314\367h\034\006#\234\337\277\217g[\274a\010Ou\036"
  99      06239CDF 
  99      BF8F675B 
  99      BC61084F 
  99      751E
 100 00b2 9838F613 		.ascii	"\2308\366\023\256eX\320\037\266\031\236\341C\3722g9"
 100      AE6558D0 
 100      1FB6199E 
 100      E143FA32 
 100      6739
 101 00c4 15D38768 		.ascii	"\025\323\207h3p\233Z'\226\241\277\357\351^\306\007\377"
 101      33709B5A 
 101      2796A1BF 
 101      EFE95EC6 
 101      07FF
 102 00d6 EEA0C9A6 		.ascii	"\356\240\311\246\201\021\036\336\314o\307M\334I\337"
 102      81111EDE 
 102      CC6FC74D 
 102      DC49DF
 103 00e5 13F0825E 		.ascii	"\023\360\202^\031\3768\372\0276\325M\303\272\017\236"
 103      19FE38FA 
 103      1736D54D 
 103      C3BA0F9E 
 104 00f5 DF4DED71 		.ascii	"\337M\355q\222f\033\231\335j\2346\326cDi\222%G;\235"
 104      92661B99 
 104      DD6A9C36 
 104      D6634469 
 104      9225473B 
 105 010a C34F96C2 		.ascii	"\303O\226\302Q\235"
 105      519D
 106              		.text
 107              		.section	.gnu.lto_si70x0_setResolution.1d7f414c06f99df0,"",%progbits
 108 0000 789C6362 		.ascii	"x\234cb`b@\007\222@\034\015\304\302@\314\310\314\300"
 108      60624007 
 108      92401C0D 
 108      C4C240CC 
 108      C8CCC0
 109 0013 C834E11C 		.ascii	"\3104\341\034\003C#\007\023##\210\301\300\310P\317\304"
 109      03432307 
 109      13232388 
 109      C1C0C850 
 109      CFC4
 110 0025 581FC908 		.ascii	"X\037\311\010V\273\236\351\300\203\377\377\327M;\266"
ARM GAS  /tmp/ccVezpUf.s 			page 8


 110      56BB9EE9 
 110      C083FFFF 
 110      D74D3BB6 
 111 0035 A0979111 		.ascii	"\240\227\221\021d\024+CKC\303\004\005\006\206d\260\202"
 111      64142B43 
 111      4B43C304 
 111      05068664 
 111      B082
 112 0047 102009D2 		.ascii	"\020 \011\322\025\012\224\004\322\314\027\031\032\037"
 112      150A9404 
 112      D2CC1719 
 112      1A1F
 113 0055 F42C664C 		.ascii	"\364,fLd\\\310\310\312\020\301\230\311\010\2675\204"
 113      645CC8C8 
 113      CA10C198 
 113      C908B735 
 113      84
 114 0066 9111A402 		.ascii	"\221\021\244\002d\206\240KQfYjQ\261~q\246\271A\205\201"
 114      6486A04B 
 114      5166596A 
 114      51B17E71 
 114      A6B94185 
 115 007b 5E320300 		.ascii	"^2\003\000z\007\037J"
 115      7A071F4A 
 116              		.text
 117              		.section	.gnu.lto_si70x0_heaterEnable.1d7f414c06f99df0,"",%progbits
 118 0000 789C6362 		.ascii	"x\234cb`b@\007\222@\034\015\304\302@\314\310\314\300"
 118      60624007 
 118      92401C0D 
 118      C4C240CC 
 118      C8CCC0
 119 0013 C834E11C 		.ascii	"\3104\341\034\003C#\007\023##\210\301\300\310P\317\304"
 119      03432307 
 119      13232388 
 119      C1C0C850 
 119      CFC4
 120 0025 581FC908 		.ascii	"X\037\311\010V\273\236\351\300\203\377\377\327m;\266"
 120      56BB9EE9 
 120      C083FFFF 
 120      D76D3BB6 
 121 0035 602E2323 		.ascii	"`.##\310(V\206\226\206\206\011\012\014\014\311`\005"
 121      C8285686 
 121      96868609 
 121      0A0C0CC9 
 121      6005
 122 0047 214012A4 		.ascii	"!@\022\244+\024(\011\244\231/24>\230\263\2301\221q!"
 122      2B142809 
 122      A4992F32 
 122      343E98B3 
 122      98319171 
 123 005c 232B4304 		.ascii	"#+C\004c&#\334\326\020FF\220\012\220\031\202.E\231e"
 123      632623DC 
 123      D6104646 
 123      900A9019 
 123      822E4599 
 124 0071 A945C5FA 		.ascii	"\251E\305\372\305\231\346\006\025\006z\311\014\000\217"
 124      C599E606 
ARM GAS  /tmp/ccVezpUf.s 			page 9


 124      15067AC9 
 124      0C008F
 125 0080 071F8A   		.ascii	"\007\037\212"
 126              		.text
 127              		.section	.gnu.lto_si70x0_setHeaterCurrent.1d7f414c06f99df0,"",%progbits
 128 0000 789C6362 		.ascii	"x\234cb`b@\007\222@\034\015\304\302@\314\310\314\300"
 128      60624007 
 128      92401C0D 
 128      C4C240CC 
 128      C8CCC0
 129 0013 C834E11C 		.ascii	"\3104\341\034\003C#\007\023##\210\301\300\310P\317\304"
 129      03432307 
 129      13232388 
 129      C1C0C850 
 129      CFC4
 130 0025 581FC908 		.ascii	"X\037\311\010V\273\236\351\300\203\377\377\327];\266"
 130      56BB9EE9 
 130      C083FFFF 
 130      D75D3BB6 
 131 0035 602D2323 		.ascii	"`-##\310(V\206\226\206\206\011\012\014\014\311`\005"
 131      C8285686 
 131      96868609 
 131      0A0C0CC9 
 131      6005
 132 0047 214012A4 		.ascii	"!@\022\244+\024(\011\244\231/24>X\263\2301\221q!#+C"
 132      2B142809 
 132      A4992F32 
 132      343E58B3 
 132      98319171 
 133 005f 04632623 		.ascii	"\004c&#\334\326\020FF\220\012\220\031\202.E\231e\251"
 133      DCD61046 
 133      46900A90 
 133      19822E45 
 133      9965A9
 134 0072 45C5FAC5 		.ascii	"E\305\372\305\231\346\006\025\006z\311\014\000\244\007"
 134      99E60615 
 134      067AC90C 
 134      00A407
 135 0081 1FCA     		.ascii	"\037\312"
 136              		.text
 137              		.section	.gnu.lto_si70x0_readTemperature.1d7f414c06f99df0,"",%progbits
 138 0000 789C8D54 		.ascii	"x\234\215TMk\023a\020\236yw\223l>\232&E\374(\250\245"
 138      4D6B1361 
 138      109E7977 
 138      936C3E9A 
 138      2645FC28 
 139 0016 074FDA04 		.ascii	"\007O\332\004+\2107A\177B\012z\\k\011+\026$\211\265"
 139      2B883741 
 139      7F420A7A 
 139      5C6B092B 
 139      162489B5 
 140 002a E0A16F3E 		.ascii	"\340\241o>\244Q\254\004\025j\365\222\022\244-\242\021"
 140      A451AC04 
 140      156AF592 
 140      12A42DA2 
 140      11
 141 003b 7A68C122 		.ascii	"zh\301\"\261H\320\203\026\241\027\241\207\334\024\024"
ARM GAS  /tmp/ccVezpUf.s 			page 10


 141      B148D083 
 141      16A117A1 
 141      87DC1414 
 142 004b 857A2BEA 		.ascii	"\205z+\352:\263_\011\251\240/d6\357\314\363<3;3\211"
 142      3AB35F09 
 142      A9A02F64 
 142      36EFCCF3 
 142      3C333B33 
 143 0060 0001DDE7 		.ascii	"\000\001\335\3478}\262*\3000=\321\007(*\357\001\362"
 143      387DB22A 
 143      C0303DD1 
 143      07282AEF 
 143      01F2
 144 0072 9A10CA66 		.ascii	"\232\020\312f\002dH];\0042\242\240j\273UD\376\002\010"
 144      0264485D 
 144      3B0432A2 
 144      A06ABB55 
 144      44FE0208 
 145 0086 53425171 		.ascii	"SBQq\352<\262\206o\020\346e\243\322\272\361\3753\346"
 145      EA3CB286 
 145      6F10E665 
 145      A3D2BAF1 
 145      FD33E6
 146 0099 65A35495 		.ascii	"e\243T\225?M\023\321@\312\267\007a\024\341\034]0f=D"
 146      3F4D13D1 
 146      40CAB707 
 146      6114E11C 
 146      5D30663D 
 147 00ae 570D16F7 		.ascii	"W\015\026\367nc\247\031~.\313\3224\247\014T\004\354"
 147      6E63A719 
 147      7E2ECBD2 
 147      34A70C54 
 147      04EC
 148 00c0 6BD3349B 		.ascii	"k\3234\233\206\273i\262\322\370\325\2349 \253\205\212"
 148      86BB69B2 
 148      D2F8D59C 
 148      3920AB85 
 148      8A
 149 00d1 FC4D190D 		.ascii	"\374M\031\015T\005\034n3\007l\246\372W\346\275\351\231"
 149      54051C6E 
 149      33076CA6 
 149      FA57E6BD 
 149      E999
 150 00e3 FDB29A77 		.ascii	"\375\262\232w\231>\001G\376\247Tb\316N\337\036\356\310"
 150      993E0147 
 150      FEA75462 
 150      CE4EDF1E 
 150      EEC8
 151 00f5 E91730F4 		.ascii	"\351\0270\364\257\234u\321h\231\346\332Ji\375\340^\025"
 151      AF9C75D1 
 151      6899E6DA 
 151      4A69FDE0 
 151      5E15
 152 0107 C711FCA0 		.ascii	"\307\021\374\240\343c\034\204\000\030\030\320\310hA"
 152      E3631C84 
 152      001818D0 
 152      C86841
ARM GAS  /tmp/ccVezpUf.s 			page 11


 153 0116 3621BE86 		.ascii	"6!\276\206\371[\204M\017\241\026\010\025\245\213\277"
 153      F95B844D 
 153      0FA11608 
 153      15A58BBF 
 154 0126 974D8C4D 		.ascii	"\227M\214M\234\334K\344\356#%n\213\017JT\327\200\216"
 154      9CDC4BE4 
 154      EE23256E 
 154      8B0F4A54 
 154      D7808E
 155 0139 F3E4D4B1 		.ascii	"\363\344\324\261fYV\007.\213N\212,\317m\004\005?\225"
 155      66595607 
 155      2E8B4E8A 
 155      2CCF6D04 
 155      053F95
 156 014c 7750585D 		.ascii	"wPX]\245a\351\370\204fn3\270l\345\007\3037\340\201\374"
 156      A561E9F8 
 156      84666E33 
 156      B86CE507 
 156      C337E081 
 157 0161 BA72D90E 		.ascii	"\272r\331\016\246\321\177\035vh21\003\203\243hO!\215"
 157      A6D17F1D 
 157      76683231 
 157      0383A368 
 157      4F218D
 158 0174 2A3BE9CC 		.ascii	"*;\351\314\022+\344\246d\274\255\203\340\304?\322-\354"
 158      122BE4A6 
 158      64BCAD83 
 158      E0C43FD2 
 158      2DEC
 159 0186 16D68E0B 		.ascii	"\026\326\216\013z\215\010\300\033x\375\351\225\331T"
 159      7A8D08C0 
 159      1B78FDE9 
 159      95D954
 160 0195 BC541CEC 		.ascii	"\274T\034\354\351l\334\010*\260\231\340\202\267V\267"
 160      E96CDC08 
 160      2AB099E0 
 160      82B756B7 
 161 01a5 5BAAF7A6 		.ascii	"[\252\367\246\013\226\340\222\365\216\2160\227\0258"
 161      0B96E092 
 161      F58E8E30 
 161      971538
 162 01b4 064749DE 		.ascii	"\006GI\336N\310bZ\207\026\211|+\276\024:\326\255d\032"
 162      4EC8625A 
 162      8716897C 
 162      2BBE143A 
 162      D6AD641A 
 163 01c8 C1D9597C 		.ascii	"\301\331Y|\252\270\256 y-\226f\303\267*\375n(\264K\031"
 163      AAB8AE20 
 163      792D9666 
 163      C3B72AFD 
 163      6E28B44B 
 164 01dd BB94B73D 		.ascii	"\273\224\267=\3450\301-\345\262\247\034\261\304\303"
 164      E530C12D 
 164      E5B2A71C 
 164      B1C4C3
 165 01ec 0EF492EB 		.ascii	"\016\364\222\353\356Is\033\310\267X\254\3379\345z\243"
 165      EE49731B 
ARM GAS  /tmp/ccVezpUf.s 			page 12


 165      C8B758AC 
 165      DF39E57A 
 165      A3
 166 01fd 696E02F1 		.ascii	"in\002\361oy\374^\362\366\303\034\315\241r\032\200;"
 166      6F79FC5E 
 166      F2F6C31C 
 166      CDA1721A 
 166      803B
 167 020f 2B1BF7B7 		.ascii	"+\033\367\267\352\274~`C\213\317\274\3741\302;\340\262"
 167      EABC7E60 
 167      438BCFBC 
 167      FC31C23B 
 167      E0B2
 168 0221 493BEA10 		.ascii	"I;\352\020\370\264\0117\213\027\\|\234(\016>\351\212"
 168      F8B40937 
 168      8B175C7C 
 168      9C280E3E 
 168      E98A
 169 0233 CF2DBFF0 		.ascii	"\317-\277\360\260\205\267\213Y\033\373\010\036\346)"
 169      B085B78B 
 169      591BFB08 
 169      1EE629
 170 0242 EAA3481A 		.ascii	"\352\243H\032\373\270\015Qg!\342\356\274Tg\303\326\277"
 170      FBB80D51 
 170      6721E2EE 
 170      BC5467C3 
 170      D6BF
 171 0254 0877BDB8 		.ascii	"\010w\275\270e'`Y\226\371/\301R\354\010\326:\202\012"
 171      65276059 
 171      96F92FC1 
 171      52EC08D6 
 171      3A820A
 172 0267 053F40BE 		.ascii	"\005?@\276\265QCo%l\335\024m\036\351\362\0172~6cL\214"
 172      B551436F 
 172      256CDD14 
 172      6D1EE9F2 
 172      0F327E36 
 173 027e 65B289AC 		.ascii	"e\262\211\254q29\231\034\032\005\221\231\014\344\306"
 173      71323999 
 173      1C1A0591 
 173      990CE4C6 
 174 028e C6AF9C19 		.ascii	"\306\257\234\031\277\350\317\346\364\334\325l \243_"
 174      BFE8CFE6 
 174      F4DCD56C 
 174      20A35F
 175 029d 4B91C767 		.ascii	"K\221\307g\271\377\000\014\341\"\035"
 175      B9FF000C 
 175      E1221D
 176              		.text
 177              		.section	.gnu.lto_si70x0_readHumidity.1d7f414c06f99df0,"",%progbits
 178 0000 789C8D54 		.ascii	"x\234\215T[HTa\020\236\371\317m\335=\352\356Zt\241\213"
 178      5B485461 
 178      109EF9CF 
 178      6DDD3DEA 
 178      EE5A74A1 
 179 0015 481048B5 		.ascii	"H\020H\265>\004\321s=\330\253(To\213\306v Cv\255\204"
 179      3E04D173 
ARM GAS  /tmp/ccVezpUf.s 			page 13


 179      3DD8AB28 
 179      546F8BC6 
 179      76204376 
 180 002b 883DEB2E 		.ascii	"\210=\353.\270\204\342\342KR=(\022\"\025F\275\004&\256"
 180      B884E2E2 
 180      4B523D28 
 180      12221546 
 180      BD0426AE 
 181 003f 126C1095 		.ascii	"\022l\020\225\221B\201\221/\232\240\224\024\021\330"
 181      91428191 
 181      2F9AA094 
 181      1411D8
 182 004e E534732E 		.ascii	"\3454s.\353\246E\375\260\363\237\231\357\233o\346\237"
 182      EBA645FD 
 182      B0F39F99 
 182      EF9B6FE6 
 182      9F
 183 005f F39F1520 		.ascii	"\363\237\025 `\343:M\277)\031 B;\372\000E\3569@\312"
 183      60E33A4D 
 183      BF291920 
 183      423BFA00 
 183      45EE3940 
 184 0074 27843413 		.ascii	"'\2044\023\001\323\257=\332\003\246.\011\265{+yr\346"
 184      01D3AF3D 
 184      DA03A62E 
 184      09B57B2B 
 184      7972E6
 185 0087 2879B250 		.ascii	"(y\262P\262\373\311S\331\352\012\252N\212\212\232\363"
 185      B2FBC953 
 185      D9EA0AAA 
 185      4E8A8A9A 
 185      F3
 186 0098 A021F203 		.ascii	"\240!\362\003 $\205$+\252\206\311S\310\265\224\032\030"
 186      20248524 
 186      2BAA86C9 
 186      53C8B594 
 186      1A18
 187 00aa 34F3B9F9 		.ascii	"4\363\271\371\205\257K\2302\363\231\001\363\273e!\032"
 187      85AF4B98 
 187      32F39901 
 187      F3BB6521 
 187      1A
 188 00bb 487D6D41 		.ascii	"H}mAhF8I\016\006\355Ml\350\325\316\355\313O\027\002"
 188      68463849 
 188      0E06ED4D 
 188      6CE8D5CE 
 188      EDCB4F17 
 189 00d0 F7CCAC69 		.ascii	"\367\314\254iYI\003%\001\333\326\323|N\032nN3s\371W"
 189      59490325 
 189      01DBD6D3 
 189      7C4E1A6E 
 189      4E3373F9 
 190 00e5 859E1DE6 		.ascii	"\205\236\035\346@g\316\374I\025\015\224\005\354^\317"
 190      4067CEFC 
 190      49150D94 
 190      05EC5ECF 
 191 00f5 AC7632E5 		.ascii	"\254v2\345?d\366\345_w\351\323^AE\300\276\377\351\223"
ARM GAS  /tmp/ccVezpUf.s 			page 14


 191      3F64F6E5 
 191      5F77E9D3 
 191      5E4145C0 
 191      BEFFE993 
 192 0109 0ABEED7A 		.ascii	"\012\276\355z\212f\237\231Z\265\254J\003U\001\265\377"
 192      8A669F99 
 192      5AB5AC4A 
 192      035501B5 
 192      FF
 193 011a AA372AF2 		.ascii	"\2527*\362\363\226\2652\226\371\264\227N\025\305\021"
 193      F396B532 
 193      96F9B497 
 193      4E15C511 
 194 012a AC01055B 		.ascii	"\254\001\005[\0214rn\221\343\003\003\26522>?\233\000"
 194      1134726E 
 194      91E30303 
 194      B532323E 
 194      3F9B00
 195 013d BB3A3F95 		.ascii	"\273:?\225\023a\230\010\025\344\250\225l\202lB\256H"
 195      13619808 
 195      15E4A895 
 195      6C826C42 
 195      AE48
 196 014f 983955A4 		.ascii	"\2309U\244\304\243Q C\355UGq\220\220(\016\331\226\325"
 196      C4A35120 
 196      43ED5547 
 196      71909028 
 196      0ED996D5 
 197 0163 81DBA3D5 		.ascii	"\201\333\243\325H\226__\023\012\336\245g\320\371\260"
 197      48965F5F 
 197      130ADEA5 
 197      67D0F9B0 
 198 0173 7F6D09A3 		.ascii	"\177m\011\243x\033\0257\203\333\227\2760\375\005\364"
 198      781B1537 
 198      83DB97BE 
 198      30FD05F4 
 199 0183 9B37C7CF 		.ascii	"\2337\307\3179`\014\265\313\260F\303\012\032X\326\214"
 199      39600CB5 
 199      CBB046C3 
 199      0A1A58D6 
 199      8C
 200 0194 CE9B88A1 		.ascii	"\316\233\210\241\302AZ\327(\313\357\225d\276\243\203"
 200      C2415AD7 
 200      28CBEF95 
 200      64BEA383 
 201 01a4 E0E2B3E4 		.ascii	"\340\342\263\344\005\274\306\326qA\355\353\000O\340"
 201      05BCC6D6 
 201      7141EDEB 
 201      004FE0
 202 01b3 F1FBC9D9 		.ascii	"\361\373\311\331\202T,\305`y\351\000\233P\202\231\010"
 202      82542CC5 
 202      6079E900 
 202      9B508299 
 202      08
 203 01c4 373CD7FF 		.ascii	"7<\327\377mU\024O:l\013\216\330gt\205\271-\337A8@\362"
 203      6D55144F 
 203      3A6C0B8E 
ARM GAS  /tmp/ccVezpUf.s 			page 15


 203      D8677485 
 203      B92DDF41 
 204 01db 4E411653 		.ascii	"NA\026SK\264H\344C\372|\024G\355Ze\304\346X\372\256"
 204      4BB448E4 
 204      43FA7C14 
 204      47ED5A65 
 204      C4E658FA 
 205 01f0 E485FC14 		.ascii	"\344\205\374\024\345$\305\347\260\347\246\303\036\024"
 205      E524C5E7 
 205      B0E7A6C3 
 205      1E14
 206 01fe D8248C7F 		.ascii	"\330$\214\177\023\326\211m\013g\213\302\345\266\266"
 206      13D6896D 
 206      0B678BC2 
 206      E5B6B6
 207 020d EE32C77A 		.ascii	"\3562\307zk=\240\"\306\307%\356\325\"\267\222\242v\201"
 207      6B3DA022 
 207      C6C725EE 
 207      D522B792 
 207      A27681
 208 0220 2BB672BA 		.ascii	"+\266r\272'\275\210\036\026$\330\306LSv\320lz\247\007"
 208      27BD881E 
 208      1624D8C6 
 208      4C5376D0 
 208      6C7AA707 
 209 0234 8608B7C1 		.ascii	"\206\010\267\3015\313]\230\264G\2740\371\256K\024Y\033"
 209      35CB5D98 
 209      B447BC30 
 209      F9AE4B14 
 209      591B
 210 0246 A7422396 		.ascii	"\247B#\226a\241F\"\342\342\344\347\202\376;\261\245"
 210      61A14622 
 210      E2E2E4E7 
 210      82FE3BB1 
 210      A5
 211 0257 84D848F1 		.ascii	"\204\330H\361\373!\251\211\322\235W\262\234\376\330"
 211      FB21A989 
 211      D29D57B2 
 211      9CFED8
 212 0266 BBCBE387 		.ascii	"\273\313\343\207c|9(z\302\211\334\200\353)\272\000\012"
 212      637C3928 
 212      7AC289DC 
 212      80EB29BA 
 212      000A
 213 0278 8D338655 		.ascii	"\2153\206U,V\341\336\2350oo\000\335N\244\356\2116*'"
 213      2C56E1DE 
 213      9D306F6F 
 213      00DD4EA4 
 213      EE89362A 
 214 028d AF8C6F77 		.ascii	"\257\214owK*w&\332\270/\315\275\254S\313\302\273\251"
 214      4B2A7726 
 214      DAB82FCD 
 214      BDAC53CB 
 214      C2BBA9
 215 02a0 3CFEC3F0 		.ascii	"<\376\303\360\300\314\362?\214=\202\022p\250\004\224"
 215      C0CCF23F 
 215      8C3D8212 
ARM GAS  /tmp/ccVezpUf.s 			page 16


 215      70A80494 
 216 02b0 087C09A9 		.ascii	"\010|\011\251\371\037CX\274]\3361\220u\371\023\017\035"
 216      F91F4358 
 216      BC5DDE31 
 216      9075F913 
 216      0F1D
 217 02c2 8F1B17CF 		.ascii	"\217\033\027\317\304\023\221\204q\244\256\243\356P3"
 217      C4139184 
 217      71A4AEA3 
 217      EE5033
 218 02d1 88788712 		.ascii	"\210x\207\022?{\254\265EM\264G\333/$\224x\364RC\275"
 218      3F7BACB5 
 218      454DB447 
 218      DB2F2494 
 218      78F45243 
 219 02e6 D2D6DCDE 		.ascii	"\322\326\334\336P\377\013~s2t"
 219      50FF0B7E 
 219      733274
 220              		.text
 221              		.section	.gnu.lto_.symbol_nodes.1d7f414c06f99df0,"",%progbits
 222 0000 789C4DC8 		.ascii	"x\234M\310\315\021\001A\030\204\341\236\236Y\366G\016"
 222      CD110141 
 222      1884E19E 
 222      9E59F647 
 222      0E
 223 0011 6213490F 		.ascii	"b\023I\017\313\032?\007\011p \024w18+1(\266v\312~}y"
 223      CB1A3F07 
 223      09702014 
 223      7731382B 
 223      3128B676 
 224 0029 EB698278 		.ascii	"\353i\202x!\217K\0128=\000\351\234\026E$\202<W\224\313"
 224      218F4B0A 
 224      383D00E9 
 224      9C164524 
 224      823C5794 
 225 003e EF2539B6 		.ascii	"\357%9\266\024\015\327\2247\334P\301\260\243\012\303"
 225      140DD794 
 225      37DC50C1 
 225      B0A30AC3 
 226 004e 2D35314C 		.ascii	"-51L\324\324pG\225#\335\221\252\006\306\350\334\201"
 226      D4D47047 
 226      9523DD91 
 226      AA06C6E8 
 226      DC81
 227 0060 AA47EDA9 		.ascii	"\252G\355\251\346/\217\031n\317\317\257\015\332\356"
 227      E62F8F19 
 227      6ECFCFAF 
 227      0DDAEE
 228 006f 3DF7A871 		.ascii	"=\367\250q\357\033\200k\377\227\271\325P|\001 \204E"
 228      EF1B806B 
 228      FF97B9D5 
 228      507C0120 
 228      8445
 229 0081 F6       		.ascii	"\366"
 230              		.text
 231              		.section	.gnu.lto_.refs.1d7f414c06f99df0,"",%progbits
 232 0000 789C6362 		.ascii	"x\234cb`b\340d\200\000F bdbdd\000\000\001\037\000\025"
ARM GAS  /tmp/ccVezpUf.s 			page 17


 232      6062E064 
 232      80004620 
 232      62646264 
 232      64000001 
 233              		.text
 234              		.section	.gnu.lto_.decls.1d7f414c06f99df0,"",%progbits
 235 0000 789CBD5C 		.ascii	"x\234\275\\{t\024U\232\257\252\356N\247\223\030\036"
 235      7B741455 
 235      9AAFAAEE 
 235      4EA79318 
 235      1E
 236 0011 8E8A3BEE 		.ascii	"\216\212;\356\232\361\314\354z<+y\300\000\256\273J&"
 236      9AF1CCEC 
 236      7A3C2B79 
 236      C000AEBB 
 236      4A26
 237 0023 41C1E575 		.ascii	"A\301\345u\222\350\301\263\273\247-\272\013\322c:\235"
 237      92E8C1B3 
 237      BBA72DBA 
 237      0BD2633A 
 237      9D
 238 0034 A9AE60D8 		.ascii	"\251\256`\330\375\3032\341!\216\012\362~\031\210\012"
 238      FDC332E1 
 238      218E0AF2 
 238      7E19880A 
 239 0044 C3C31744 		.ascii	"\303\303\027D\220(\217\306\021y\204\201\360\012\022"
 239      90288FC6 
 239      11798481 
 239      F00A12
 240 0053 445A6414 		.ascii	"DZd\024\031\007QD\211\010\331\357~U\325}\253R\325]\325"
 240      19075144 
 240      8908D9EF 
 240      7E55D57D 
 240      AB52D55D 
 241 0068 E36E9F73 		.ascii	"\343n\237so\337\272\271\367\367=\356\357\276\253\303"
 241      6FDFBAB9 
 241      F7F73DEE 
 241      EFBEABC3 
 242 0078 311C33C0 		.ascii	"1\0343\300\3050=\360\231\371\020\303\014\3621L\016\303"
 242      C5303DF0 
 242      99F910C3 
 242      0CF2314C 
 242      0EC3
 243 008a 30F741E0 		.ascii	"0\367A\340 \264@X\303(\237<\010k!\024\300\037J \334"
 243      20B44058 
 243      C3289F3C 
 243      086B2114 
 243      C01F4A20 
 244 009f 0BA114C2 		.ascii	"\013\241\024\302C\020\306Cx\004\202\037B\010B\030\302"
 244      4310C643 
 244      7804821F 
 244      42084218 
 244      C2
 245 00b0 93105828 		.ascii	"\223\020X(\377\024\307\350>\004\243\037\004/\204|\025"
 245      FF14C7E8 
 245      3E04A31F 
 245      042F847C 
ARM GAS  /tmp/ccVezpUf.s 			page 18


 245      15
 246 00c1 773D8476 		.ascii	"w=\204vF)\017\3520\036\010\233!l\202\320\004\365\177"
 246      46290FEA 
 246      301E089B 
 246      216C82D0 
 246      04F57F
 247 00d4 CB29BAFC 		.ascii	"\313)\272\374\017|O\2030\035B-\247\350\270\017\302\036"
 247      0F7C4F83 
 247      301D422D 
 247      A7E8B80F 
 247      C21E
 248 00e6 086E15FB 		.ascii	"\010n\025\373IU>\321#\013\236o\202\357[!\374=\204[ "
 248      49553ED1 
 248      230B9E6F 
 248      82EF5B21 
 248      FC3D845B 
 249 00fb FC9CEBAD 		.ascii	"\374\234\353\255\023\261\311\247\352\240\311%\362\266"
 249      13B1C9A7 
 249      EAA0C925 
 249      F2B6
 250 0109 523289BE 		.ascii	"R2\211\276wp\212~\232\314wU\235I}\"\377\237\341\373"
 250      77708A7E 
 250      9ACC7755 
 250      9D497D22 
 250      FF9FE1FB 
 251 011d 6E088526 		.ascii	"n\010\205&2JT\177\334\241\346\263j\236\361s\257*\253"
 251      324A547F 
 251      DCA1E6B3 
 251      6A9EF173 
 251      AF2AAB
 252 0130 C5E09F19 		.ascii	"\305\340\237\031\234\322\026\353\324r\234Zv\255\212"
 252      9CD216EB 
 252      D4729C5A 
 252      76AD8A
 253 013f 75BF01AB 		.ascii	"u\277\001\253T\225\267\236I\312+5\221\367\220I\271\207"
 253      5495B79E 
 253      49CA2B35 
 253      91F79049 
 253      B987
 254 0151 4CCA8D37 		.ascii	"L\312\2157)7\336\244\034\341A\037\370\236\311%\365o"
 254      2937DEA4 
 254      1CE1411F 
 254      F89EC925 
 254      F56F
 255 0163 51EBCD82 		.ascii	"Q\353\315\202\274\201j]7e\323lN\261\213\264\327\020"
 255      BC816A5D 
 255      3765D36C 
 255      4EB18BB4 
 255      D710
 256 0175 CABE4754 		.ascii	"\312\276GT\373H\372? \372O\203<\177\012Y;YE\206\306"
 256      FB48FA3F 
 256      20FA4F83 
 256      3C7F0A59 
 256      3B594586 
 257 018a 29335901 		.ascii	")3Y\001.)\313O\311\022 \232d\220\345c\236\226\345F9"
 257      2E29CB4F 
 257      C912209A 
ARM GAS  /tmp/ccVezpUf.s 			page 19


 257      6490E563 
 257      9E96E546 
 258 019f BE4A1EB0 		.ascii	"\276J\036\260\030dM`y6\337\307dc\"\317\207b~\305\274"
 258      18644D60 
 258      7936DFC7 
 258      646322CF 
 258      87627EC5 
 259 01b4 22CB73E2 		.ascii	"\"\313s\342\273:o\222\335<\333\302\372\000\354\237X"
 259      BB3A6F92 
 259      DD3CDBC2 
 259      FA00EC9F 
 259      58
 260 01c5 E62E66AD 		.ascii	"\346.f\255\014\371\262|\346\226\336\356r\200{\352\353"
 260      0CF9B27C 
 260      E696DEEE 
 260      72807BEA 
 260      EB
 261 01d6 9D2E59CE 		.ascii	"\235.Y\316\346\331U\210\3748\313\360\354+\354]*\016"
 261      E6D95588 
 261      FC38CBF0 
 261      EC2BEC5D 
 261      2A0E
 262 01e8 CFB23E1A 		.ascii	"\317\262>\032\027\237\265\002\004\014\377\254&zX\306"
 262      179FB502 
 262      040CFFAC 
 262      267A58C6 
 263 01f8 51D95CE6 		.ascii	"Q\331\\\346\031\242\344\312\031\362\310=\371\212i\252"
 263      19A2E4CA 
 263      19F2C83D 
 263      F98A69AA 
 264 0208 A2059AA2 		.ascii	"\242\005\232\242n\025i\015\233\253\301\336\3164\313"
 264      6E15690D 
 264      9BABC1DE 
 264      CE34CB
 265 0217 B18BF193 		.ascii	"\261\213\361\2233\027\375\303\02296M\356\351y\222\271"
 265      3317FDC3 
 265      1239364D 
 265      EEE97992 
 265      B9
 266 0228 995900CE 		.ascii	"\231Y\000\316 H2+\241\355\262\012\313\230B\252\266\257"
 266      2048322B 
 266      A1EDB20A 
 266      CB9842AA 
 266      B6AF
 267 023a 78E6E021 		.ascii	"x\346\340!\266\011\352\360\354z\264\276\203\325\233"
 267      B609EAF0 
 267      EC7AB4BE 
 267      83D59B
 268 0249 6F1F6AD5 		.ascii	"o\037j\325\231\0179t\343\353\010\324\2311\320\251m\177"
 268      990F3974 
 268      E3EB08D4 
 268      9931D0A9 
 268      6D7F
 269 025b 54DA6303 		.ascii	"T\332c\003\002}\314\032\033$\313\320 Yz'\303#\221t\205"
 269      027DCC1A 
 269      1B24CBD0 
 269      20597A27 
ARM GAS  /tmp/ccVezpUf.s 			page 20


 269      C3239174 
 270 0270 8CBEEC93 		.ascii	"\214\276\354\223j\016y\3602\377\357\365\254Zs\035{3"
 270      6A0E79F0 
 270      32FFEFF5 
 270      AC5A731D 
 270      7B33
 271 0282 A65CD82F 		.ascii	"\246\\\330/\364<\350\317\274\200\236\032N\371i\270\006"
 271      F43CE8CF 
 271      BC809E1A 
 271      4EF969B8 
 271      06
 272 0293 909DF4D3 		.ascii	"\220\235\364\323\206\331\253\025\207of\373\003\314\017"
 272      86D9AB15 
 272      876F66FB 
 272      03CC0F
 273 02a2 063FA585 		.ascii	"\006?\245\205!z\264AU\245\022\202\312\261\236`\201\222"
 273      217AB441 
 273      55A51282 
 273      CAB19E60 
 273      8192
 274 02b4 CBE8C074 		.ascii	"\313\350\300t\237_0+A\333\330\274\265m\254<#\317\313"
 274      9F5F302B 
 274      41DBD8BC 
 274      B56DAC3C 
 274      23CFCB
 275 02c7 CCC08E36 		.ascii	"\314\300\2166\2751MG\213]\315\346xv+\353\005e\2338\275"
 275      BD314D47 
 275      8B5DCDE6 
 275      78762BEB 
 275      05659B38 
 276 02dc B2364088 		.ascii	"\2626@\210B;\240\262N\335KnN\311M\241.\372\230c\346"
 276      423BA0B2 
 276      4EDD4B6E 
 276      4EC94DA1 
 276      2EFA9863 
 277 02f1 804802E7 		.ascii	"\200H\002\347\366%\363Z\222y,U\364\365d\2666Z\245\355"
 277      F625F35A 
 277      92792C55 
 277      F4F564B6 
 277      365AA5ED 
 278 0305 E949D578 		.ascii	"\351I\325x6\306\376\012\342\235\254\313\264\032\307"
 278      36C6FE0A 
 278      E29DACCB 
 278      B41AC7
 279 0314 6C47EB89 		.ascii	"lG\353\211\227\315\014U\223I\271\371\011\276\253\236"
 279      97CD0C55 
 279      9349B9F9 
 279      09BEAB9E 
 280 0324 5F70790B 		.ascii	"_py\013\361\2746\026\276\357\030.[\007\267\250e/+\317"
 280      F1BC3616 
 280      BEEF182E 
 280      5B07B7A8 
 280      652F2BCF 
 281 0338 CD332361 		.ascii	"\3153#a\001E\236\230K\303\032\226$ak\347\261\325\352"
 281      01459E98 
 281      4BC31A96 
 281      24616BE7 
ARM GAS  /tmp/ccVezpUf.s 			page 21


 281      B1D5EA
 282 034b 00B21F69 		.ascii	"\000\262\037i\370\274\313\224\206\326@<{\200\345 >h"
 282      F8BCCB94 
 282      86D6403C 
 282      7B80E520 
 282      3E68
 283 035d A4E2D74B 		.ascii	"\244\342\327K\363\310x\177\320\026\031\273\273\232o"
 283      F3C8787F 
 283      D01619BB 
 283      BB9A6F
 284 036c 91E331D6 		.ascii	"\221\3431\3266\033\343_w\035/\306\356s\030\031\331\356"
 284      361BE35F 
 284      771D2FC6 
 284      EE731819 
 284      D9EE
 285 037e CA8891C7 		.ascii	"\312\210\221\307\214\214<4\243\017\321\372\230-Nv\272"
 285      8C8C3C34 
 285      A30FD1FA 
 285      982D4E76 
 285      BA
 286 038f 7A73F213 		.ascii	"zs\362\023\227)'\317\273\364\234T\263\277Mf\273\250"
 286      972927CF 
 286      BBF49C54 
 286      B3BF4D66 
 286      BBA8
 287 03a1 EC467722 		.ascii	"\354Fw\"\333M\367\201d\266\307.\261\217Q\304\356Db\037"
 287      DB4DF781 
 287      64B6C72E 
 287      B18F51C4 
 287      EE44621F 
 288 03b5 B72036CF 		.ascii	"\267 6\317\356N\264dF\304\216\267.<\373\031;\257I\336"
 288      EE4EB464 
 288      46C48EB7 
 288      2E3CFB19 
 288      3BAF49DE 
 289 03c9 53643A22 		.ascii	"Sd:\"\002\315(\032=\246\001\346%\0325\266\255\213-0"
 289      02CD281A 
 289      3DA601E6 
 289      251A35B6 
 289      AD8B2D30 
 290 03dd 619CAE28 		.ascii	"a\234\256(\317~\006f\244+E\312\2353R\362\305.\244\344"
 290      CF7E0666 
 290      A42B45CA 
 290      9D3352F2 
 290      C52EA4E4 
 291 03f1 395B94DC 		.ascii	"9[\224\334\320\265\300\031%c_\037ga\364\375\013\362"
 291      D0B5C019 
 291      25635F1F 
 291      6761F4FD 
 291      0BF2
 292 0403 71993B23 		.ascii	"q\231;#>^0\362\361\304\"\344\343\005[|\374\203\233\342"
 292      3E5E30F2 
 292      F1C422E4 
 292      E3055B7C 
 292      FC839BE2 
 293 0417 9E9AB7D1 		.ascii	"\236\232\267\321mJ\274\017\334z\342\331\241\322\005"
 293      6D4ABC0F 
ARM GAS  /tmp/ccVezpUf.s 			page 22


 293      DC7AE2D9 
 293      A1D205
 294 0426 8A4A5F21 		.ascii	"\212J_!\225.Z\216\221\037\242\375\3472\036#[\273\026"
 294      952E5A8E 
 294      911FA2FD 
 294      E7321E23 
 294      5BBB16
 295 0439 DC2AAF7C 		.ascii	"\334*\257|\217U\327\2016\326\035\273\316\304\225\371"
 295      8F55D781 
 295      36D61DBB 
 295      CEC495F9 
 296 0449 F40A8EAA 		.ascii	"\364\012\216\252q\267\311\002\306\026\320\251O\332\225"
 296      71B7C902 
 296      C616D0A9 
 296      4FDA95
 297 0458 05CC5504 		.ascii	"\005\314U\004\372\302m\\\300x\015\013\030\257~A\341"
 297      FAC26D5C 
 297      C0780D0B 
 297      18AF7E41 
 297      E1
 298 0469 F5251364 		.ascii	"\365%\023d\035\321\207qZ\034\306\005\243\373t\212\232"
 298      1DD18771 
 298      5A1CC605 
 298      A3FB748A 
 298      9A
 299 047a B9AF8076 		.ascii	"\271\257\200v\037\364\304\003\233\331o\032\345\305E"
 299      1FF4C403 
 299      9BD96F1A 
 299      E5C545
 300 0489 F6E93BAF 		.ascii	"\366\351;\257\213\320W\346\010}eOF\364m\342\014\364"
 300      8BD057E6 
 300      087D654F 
 300      46F46DE2 
 300      0CF4
 301 049b BDAAD097 		.ascii	"\275\252\320\227\344\247\247\357lOo\3726{L\351\373\246"
 301      E4A7A7EF 
 301      6C4F6FFA 
 301      367B4CE9 
 301      FBA6
 302 04ad C7397D93 		.ascii	"\3079}\223\312\361\3544\216\320w:gE\337]\036\033\364"
 302      CAF1EC34 
 302      8ED0773A 
 302      6745DF5D 
 302      1E1BF4
 303 04c0 CD36A12F 		.ascii	"\3156\241/%O\221\364\005v\224\363\354/ \376\036\343"
 303      254F91F4 
 303      057694F3 
 303      EC2F20FE 
 303      1EE3
 304 04d2 1E88131F 		.ascii	"\036\210\023\037X\262{\214\374R\306'\012)9\2201\251"
 304      58B27B8C 
 304      FC52C627 
 304      0A293990 
 304      31A9
 305 04e4 B0AC56AB 		.ascii	"\260\254V\253g\223{\017\216\351Bq\0073eVl\311\311fg"
 305      67937B0F 
 305      8EE94271 
ARM GAS  /tmp/ccVezpUf.s 			page 23


 305      07336556 
 305      6CC9C966 
 306 04f9 1D33B663 		.ascii	"\0353\266c\021n\374fs\244\011?\351e\355\025\343\006"
 306      116EFC66 
 306      73A4093F 
 306      E965ED15 
 306      E306
 307 050b CD4EFFF8 		.ascii	"\315N\377\370\322\216\025f\355\203V\310\261\326\223"
 307      D28E1566 
 307      ED8356C8 
 307      B1D693
 308 051a CD2CB1C2 		.ascii	"\315,\261\302d\032\221Y\255~\337\204\015\361\343_\235"
 308      641A9159 
 308      AD7EDF84 
 308      0DF1E35F 
 308      9D
 309 052b FB8C6DC4 		.ascii	"\373\214m\304u\322|\216\254\223\376\220\225v\235\244"
 309      75D27C8E 
 309      AC93FE90 
 309      95769DA4 
 310 053b 07E29837 		.ascii	"\007\342\2307\260\312\"\3160)]\346\013\224\334tS\222"
 310      B0CA22CE 
 310      30295DE6 
 310      0B94DC74 
 310      5392
 311 054d 1CFBFECF 		.ascii	"\034\373\376\317>X\350\231\2102\333_\234\274\024\277"
 311      3E58E899 
 311      8832DB5F 
 311      9CBC14BF 
 312 055d 75AF2CF7 		.ascii	"u\257,\367\345\331e\250\361\005s\215\2557\030\034s\035"
 312      E5D965A8 
 312      F105738D 
 312      AD37181C 
 312      731D
 313 056f AB341B34 		.ascii	"\2534\0334\216\357\370a\317\337-F\344f\033j7\306\216"
 313      8EEFF861 
 313      CFDF2D46 
 313      E4661B6A 
 313      37C68E
 314 0582 CD781129 		.ascii	"\315x\021)\223n\205\272\322\255\211/O\232\321u)6\000"
 314      936E85BA 
 314      D2AD892F 
 314      4F9AD175 
 314      293600
 315 0595 47E397D1 		.ascii	"G\343\227\321\212\367\275i\375\256\207\341\230?a\225"
 315      8AF7BD69 
 315      FDAE87E1 
 315      983F6195 
 316 05a5 D5BDAD88 		.ascii	"\325\275\255\210\377\\\261b\265-+\256\252V\360\354K"
 316      FF5CB162 
 316      B52D2BAE 
 316      AA56F0EC 
 316      4B
 317 05b6 5C2EC01E 		.ascii	"\\.\300\036O\300\332\355Hz\274\353\037\344\315\3415"
 317      4FC0DAED 
 317      487ABCEB 
 317      1FE4CDE1 
ARM GAS  /tmp/ccVezpUf.s 			page 24


 317      35
 318 05c7 B08F1D83 		.ascii	"\260\217\035\203\025\350\300\346\355^\356p\272\\\261"
 318      15E8C0E6 
 318      ED5EEE70 
 318      BA5CB1
 319 05d6 EF807674 		.ascii	"\357\200vt\360:\366\314?{\177\222\236\371W;\226X\367"
 319      F03AF6CC 
 319      3F7B7F92 
 319      9EF9573B 
 319      9658F7
 320 05e9 4C68968E 		.ascii	"Lh\226\216\333\3326\312\362\254,\215\240YV\226\3004"
 320      DBDA36CA 
 320      F2AC2C8D 
 320      A0595696 
 320      C034
 321 05fb 89C25A8D 		.ascii	"\211\302Z\215M\333\335\323q\267\322\264\255\266\232"
 321      4DDBDDD3 
 321      71B7D2B4 
 321      ADB69A
 322 060a F6EDF645 		.ascii	"\366\355\366E\366\010\232\245\211\017\242\370\315\331"
 322      F6089AA5 
 322      890FA2F8 
 322      CDD9
 323 0618 44FC16A3 		.ascii	"D\374\026\243\370\005\253\277\270O\021\277\305\226\370"
 323      F805ABBF 
 323      B84F11BF 
 323      C596F8
 324 0627 D307E7F7 		.ascii	"\323\007\347\367\026\317\263\367\335\224\252\375\272"
 324      16CFB3F7 
 324      DD94AAFD 
 324      BA
 325 0634 7B2EDEB9 		.ascii	"{.\336\271\002\205lE\006\311>c\363\335\237K\313\302"
 325      02856C45 
 325      06C93E63 
 325      F3DD9F4B 
 325      CBC2
 326 0646 67AA00C7 		.ascii	"g\252\000\307\314\362i\332gD`0s\347\375k\261\2454\035"
 326      CCF269DA 
 326      67446030 
 326      73E7FD6B 
 326      B1A5341D 
 327 065a 9E738CA8 		.ascii	"\236s\214\250g\3617\007\261K(`/\330\001\263$Rc\354["
 327      67F13707 
 327      B14B2860 
 327      2FD801B3 
 327      245263EC 
 328 066f 1A6C8163 		.ascii	"\032l\201c0\275f\337\321`K\354\200\365\265\326\354\012"
 328      30BD66DF 
 328      D1604BEC 
 328      80F5B5D6 
 328      EC0A
 329 0681 0DF6A263 		.ascii	"\015\366\242c0\275f?\320`-v\300\006Xk\366#\015\266\312"
 329      30BD663F 
 329      D0602D76 
 329      C006586B 
 329      F6230DB6 
 330 0696 31985EB3 		.ascii	"1\230^\263\3534\330Z;`\005\326\232\3159L\201\275\346"
ARM GAS  /tmp/ccVezpUf.s 			page 25


 330      EB34D85A 
 330      3B6005D6 
 330      9ACD394C 
 330      81BDE6
 331 06a9 184CAFD9 		.ascii	"\030L\257\331\\\032l\203\035\260;\2555\233O\203mr\014"
 331      5C1A6C83 
 331      1DB03BAD 
 331      359B4F83 
 331      6D720C
 332 06bc A6D76C21 		.ascii	"\246\327l!\015\326f\007\254\310Z\263\3054\3306\307`"
 332      0DD66607 
 332      ACC85AB3 
 332      C534D836 
 332      C760
 333 06ce 7ACD96D2 		.ascii	"z\315\226\322`;\355\200\015\263\326l9\015\266\3131\230"
 333      603BED80 
 333      0DB3D66C 
 333      390DB6CB 
 333      3198
 334 06e0 5EB33769 		.ascii	"^\2637i\260\275v\300\206[k\266\221\006\333\357\030L"
 334      B0BD76C0 
 334      865B6BB6 
 334      9106DBEF 
 334      184C
 335 06f2 AFD95B34 		.ascii	"\257\331[4\330A;`#\2555\333L\203\035v\014\246\327l\013"
 335      D8413B60 
 335      23AD35DB 
 335      4C831D76 
 335      0CA6D76C 
 336 0707 0D76CC0E 		.ascii	"\015v\314\016\330xk\315\336\241\301>t\014\246\327l+"
 336      D8786BCD 
 336      DEA1C13E 
 336      740CA6D7 
 336      6C2B
 337 0719 0D76D20E 		.ascii	"\015v\322\016\330\004k\315\266\323`\247\035\203\351"
 337      D8046BCD 
 337      B6D360A7 
 337      1D83E9
 338 0728 35EBA0C1 		.ascii	"5\353\240\301>\265\003\366\230\211f\211\217Y=2M\277"
 338      3EB503F6 
 338      98896689 
 338      8F593D32 
 338      4DBF
 339 073a CD51BBB5 		.ascii	"\315Q\273\265\317|\332\002\307\341\034\315$1\316\373"
 339      CF7CDA02 
 339      C7E11CCD 
 339      2431CEFB 
 340 074a 9CAEC874 		.ascii	"\234\256\310tv\223\205\362m\357\250\363\274\262Z\275"
 340      769385F2 
 340      6DEFA8F3 
 340      BCB25ABD 
 341 075a 680731C5 		.ascii	"h\0071\305\004\270t7\265\364\275\342\030\314@e\002\246"
 341      04B87437 
 341      B5F4BDE2 
 341      18CC4065 
 341      02A6
 342 076c 5B3A25EE 		.ascii	"[:%\356\016c\251\217<\310\345#G]4\0160/\313\263\335"
ARM GAS  /tmp/ccVezpUf.s 			page 26


 342      0E63A98F 
 342      3CC8E523 
 342      475D340E 
 342      302FCBB3 
 343 0781 785AF003 		.ascii	"xZ\360\003\347Kh\241\244\265\224rf \347\350O\034\022"
 343      E74B68A1 
 343      A4B59472 
 343      6620E7E8 
 343      4F1C12
 344 0794 9F7455AD 		.ascii	"\237tU\255\230\360=\315\204\35196\334\224bj?\275{9\036"
 344      98F03DCD 
 344      84E93936 
 344      DC94626A 
 344      3FBD7B39 
 345 07a9 67DABF58 		.ascii	"g\332\277X]\361\314\237\264\035\302u\334!<\233c\\b\266"
 345      5DF1CC9F 
 345      B41DC275 
 345      DC213C9B 
 345      635C62B6 
 346 07bd 38BC5C85 		.ascii	"8\274\\\205\205\230\321\014\263\203\025\353E\005\220"
 346      8598D10C 
 346      B38315EB 
 346      450590
 347 07cc F1C3DBDB 		.ascii	"\361\303\333\333"
 348 07d0 5E97E5A6 		.ascii	"^\227\345\246,\007\206\354\333\257\031\322\344\"\206"
 348      2C0786EC 
 348      DBAF19D2 
 348      E42286
 349 07df BCF81318 		.ascii	"\274\370\023\030\262\312\261!w\032\014\211\335\351\334"
 349      B2CAB121 
 349      771A0C89 
 349      DDE9DC
 350 07ee 90448B3C 		.ascii	"\220D\213<\215\206\274\366\023\030\262\311\261!E\224"
 350      8D86BCF6 
 350      1318B2C9 
 350      B1214594 
 351 07fe 21B8611B 		.ascii	"!\270a\033\250l\330nd\346\246\336\260\021}\236s\335"
 351      A86CD86E 
 351      64E6A6DE 
 351      B0117D9E 
 351      73DD
 352 0810 6838E1DE 		.ascii	"h8\341\336G\216\035I\266\215\003\220}\313\325=\270r"
 352      478E1D49 
 352      B68D0390 
 352      7DCBD53D 
 352      B872
 353 0822 DDBD1575 		.ascii	"\335\275\025u'u\035\016\217*\336\374v\034\210\024\260"
 353      27751D0E 
 353      8F2ADEFC 
 353      761C8814 
 353      B0
 354 0833 3FFE4D60 		.ascii	"?\376M`\215\261\326\337k\007\004\367\343\342\341o\204"
 354      8DB1D6DF 
 354      6B0704F7 
 354      E3E2E16F 
 354      84
 355 0844 3BD4EE78 		.ascii	";\324\356xK\377\314Q\215\036\013\221\036Gz\321#\243"
ARM GAS  /tmp/ccVezpUf.s 			page 27


 355      4BFFCC51 
 355      8D1E0B91 
 355      1E477AD1 
 355      23A3
 356 0856 2DFDE94C 		.ascii	"-\375\351L-I|`\"\2633|\025X\266\024\260\354\312@\233"
 356      2D497C60 
 356      22B3337C 
 356      1558B614 
 356      B0ECCA40 
 357 086b C70289F3 		.ascii	"\307\002\211\363\257s\003\366\340\006y\271\213\234\034"
 357      AF7303F6 
 357      E00679B9 
 357      8B9C1C
 358 087a 9D3738C3 		.ascii	"\23578\303\306\361B7VY\341\352ur\324q\253\262\277'\177"
 358      C6F14237 
 358      5659E1EA 
 358      7572D471 
 358      ABB2BF27 
 359 088f B271BCA0 		.ascii	"\262q\274\240;9\342\331u\034\247\302f\352O]\023&\365"
 359      3B39E2D9 
 359      751CA7C2 
 359      66EA4F5D 
 359      1326F5
 360 08a2 83EEEF22 		.ascii	"\203\356\357\"3\325K.\335\011\363\254\\\247\276/\240"
 360      33D54B2E 
 360      DD09F3AC 
 360      5CA7BE2F 
 360      A0
 361 08b3 7D1FBBDA 		.ascii	"}\037\273\332\276\234U\364WN\022\347\031\361\206\323"
 361      BE9C55F4 
 361      574E12E7 
 361      19F186D3 
 362 08c3 AB083569 		.ascii	"\253\0105i\271c\222cs\017P\275\256\331\216r)69\315\012"
 362      B9639263 
 362      730F50BD 
 362      AED98E72 
 362      293639CD 
 363 08d8 9842F857 		.ascii	"\230B\370W\034\203\025\350\300\266=orR\251\234\316Z"
 363      1C8315E8 
 363      C0B63D6F 
 363      7252A99C 
 363      CE5A
 364 08ea 8D67EB5D 		.ascii	"\215g\353]\324$\375\206\035\371)\366E\307\016h\343\233"
 364      D424FD86 
 364      1DF929F6 
 364      45C70E68 
 364      E39B
 365 08fc 7226D7E6 		.ascii	"r&\327\346\030Oo\317\327\317\353\206\244\367\355\300"
 365      184F6FCF 
 365      D7CFEB86 
 365      A4F7EDC0 
 366 090c 0DB74DBC 		.ascii	"\015\267M\274\344\221*\317\256\301%\322Z\216\\J\254"
 366      E4912ACF 
 366      AEC125D2 
 366      5A8E5C4A 
 366      AC
 367 091d C7F8358C 		.ascii	"\307\3705\2147b\374\015\306\337b\374\035\306\3270nt"
ARM GAS  /tmp/ccVezpUf.s 			page 28


 367      3762FC0D 
 367      C6DF62FC 
 367      1DC6D730 
 367      6E74
 368 092f 917826C6 		.ascii	"\221x&\306\317b\274\014\343W0^\215\361\032\214\327a"
 368      CF62BC0C 
 368      E357305E 
 368      8DF11A8C 
 368      D761
 369 0941 FC1AC66F 		.ascii	"\374\032\306o\320\364\266j\027\245\253%:\246\326\353"
 369      D0F4B66A 
 369      17A5AB25 
 369      3AA6D6EB 
 370 0951 9A333EAF 		.ascii	"\2323>\257\355L\236\327\362\354\253\216\301\012Ry\262"
 370      ED4C9ED7 
 370      F2ECAB8E 
 370      C10A5279 
 370      B2
 371 0962 99F2E44A 		.ascii	"\231\362\344J\364d\013\372g\203\276#\357\317\325n\020"
 371      F4640BFA 
 371      6783BE23 
 371      EFCFD56E 
 371      10
 372 0973 52743C6B 		.ascii	"Rt<k\023\342\235_\235\363\222W\316\\\332\332\373\250"
 372      13E29D5F 
 372      9DF39257 
 372      CE5CDADA 
 372      FBA8
 373 0985 1130EDD6 		.ascii	"\0210\355\326@\357\223\353\202\341\252_\271\036\261"
 373      40EF93EB 
 373      82E1AA5F 
 373      B91EB1
 374 0994 6A93CD74 		.ascii	"j\223\315t_\371\310\261\354\224.\\D\271p\011\272p)\272"
 374      5FF9C8B1 
 374      EC942E5C 
 374      44B97009 
 374      BA7029BA 
 375 09a8 B01529B3 		.ascii	"\260\025)\263\211v$\317.\346\014/:\350\357jR\010O\334"
 375      897624CF 
 375      2EE60C2F 
 375      3AE8EF6A 
 375      52084FDC 
 376 09bc AF5EEE34 		.ascii	"\257^\3564y\323A\271\245H1)-\332q\342\266Wq\352hs\221"
 376      79D341B9 
 376      A5483129 
 376      2DDA71E2 
 376      B65771EA 
 377 09d3 06589667 		.ascii	"\006X\226g\234\241_\342\014\307\266\006\"s\314\353y"
 377      9CA15FE2 
 377      0CC7B606 
 377      2273CCEB 
 377      79
 378 09e4 36EEBE52 		.ascii	"6\356\276R,\241[\027~\337\31165\311k\212\324\245\205"
 378      2CA15B17 
 378      7EDFC936 
 378      35C96B8A 
 378      D4A585
ARM GAS  /tmp/ccVezpUf.s 			page 29


 379 09f7 3C43BE73 		.ascii	"<C\276sMr\022\354\253ap\011\275c\233\224;\274\3558\312"
 379      4D7212EC 
 379      AB617009 
 379      BD639B94 
 379      3BBCED38 
 380 0a0c 6E32286D 		.ascii	"n2(m\033&\276k\331\315\004f'\302\354\310\030\346T\333"
 380      1B26BE6B 
 380      D9CD0466 
 380      27C2ECC8 
 380      18E654DB 
 381 0a20 3EE586FE 		.ascii	">\345\206\376}\004\332\323\313\211.\303*\307\245_\345"
 381      7D04DAD3 
 381      CB892EC3 
 381      2AC7A55F 
 381      E5
 382 0a31 B87CC944 		.ascii	"\270|\311DO\217\213\371?,\314\263{\215/\325\350,J\267"
 382      4F8F8BF9 
 382      3F2CCCB3 
 382      7B8D2FD5 
 382      E82C4AB7 
 383 0a45 F221CD75 		.ascii	"\362!\315uM\245\232\366j\303\021;\004\320!\352\010\020"
 383      4DA59AF6 
 383      6AC3113B 
 383      04D021EA 
 383      0810
 384 0a57 FBF1248E 		.ascii	"\373\361$\216d\012\330);`)\216?\0274\257\260\274;Y\231"
 384      640AD829 
 384      3B60298E 
 384      3F1734AF 
 384      B0BC3B59 
 385 0a6c F68D9FF8 		.ascii	"\366\215\237\370\212\317\367\376+Y\262\246\177\353\347"
 385      8ACFF7FE 
 385      2B59B2A6 
 385      7FEBE7
 386 0a7b 80CBDE5B 		.ascii	"\200\313\336[?\035.\343\005\353\001|\353\247\303\326"
 386      3F1D2EE3 
 386      05EB017C 
 386      EBA7C3D6 
 387 0a8b 5AED7BB3 		.ascii	"Z\355{\263\025\200\331Kp\211\001c@\322\230m\177\331"
 387      1580D94B 
 387      70890163 
 387      40D2986D 
 387      7FD9
 388 0a9d 7B9FB2FE 		.ascii	"{\237\262\376>\252,9oH\3772\235\016\207\350w\334\250"
 388      3EAA2C39 
 388      6F48FF32 
 388      9D0E87E8 
 388      77DCA8
 389 0ab0 7FEB41D4 		.ascii	"\177\353A\324\377xz\375\2475\305\336V\357\222\26035"
 389      FF787AFD 
 389      A735C5DE 
 389      56EF92B0 
 389      3335
 390 0ac2 A5DC35F0 		.ascii	"\245\3345\360l7\276\233`g\013p\015-9\356|\311\252\252"
 390      6C37BE9B 
 390      60670B70 
 390      0D2D39EE 
ARM GAS  /tmp/ccVezpUf.s 			page 30


 390      7CC9AAAA 
 391 0ad6 B545B90B 		.ascii	"\265E\271\013\350\302\376*\347;\005+\320\201\275C\203"
 391      E8C2FE2A 
 391      E73B052B 
 391      D081BD43 
 391      83
 392 0ae7 4DB70366 		.ascii	"M\267\003f5\205\001\330V\032l\226c0\275f\333i\260\347"
 392      358501D8 
 392      561A6C96 
 392      6330BD66 
 392      DB69B0E7 
 393 0afb ED80599D 		.ascii	"\355\200Y\235\222\001X\007\0156\3171X\201\031K\230^"
 393      92015807 
 393      0D36CF31 
 393      5881194B 
 393      985E
 394 0b0d 24E3D90F 		.ascii	"$\343\331\017q\317p\002\347\311\2170\376\030\3438\306"
 394      71CF7002 
 394      E7C98F30 
 394      FE18E338 
 394      C6
 395 0b1e 67303E6B 		.ascii	"g0>kg\311u\204\236\336\027\241\302\035\2311\006\206"
 395      67C97584 
 395      9EDE17A1 
 395      C21D9931 
 395      0686
 396 0b30 BD159F7F 		.ascii	"\275\025\237\177r\257r\352h\230a\211?\25448Gk\320\354"
 396      72AF72EA 
 396      68986189 
 396      3FAC3438 
 396      476BD0EC 
 397 0b44 5883025A 		.ascii	"X\203\002Z\203\330\325\003\312\211\231\366\236\356\313"
 397      83D8D503 
 397      CA8999F6 
 397      9EEECB
 398 0b53 463CBBEF 		.ascii	"F<\273\357\004i\213\245\003\271o>\246\201\255s\014\246"
 398      04698BA5 
 398      03B96F3E 
 398      A681AD73 
 398      0CA6
 399 0b65 7FE977CE 		.ascii	"\177\351w\316A\012\354-\307`}{1B\341\302!\344\302al"
 399      410AEC2D 
 399      C7607D7B 
 399      3142E1C2 
 399      21E4C261 
 400 0b7a F3CF313E 		.ascii	"\363\3171>\217\361\227\030_\320/G\337\3157\316\273\312"
 400      8FF19718 
 400      5FD02F47 
 400      DFCD37CE 
 400      BBCA
 401 0b8c 184BA126 		.ascii	"\030K\241&\007c\306.\256U\333\356\247\333\366@\276\323"
 401      0763C62E 
 401      AE55DBEE 
 401      A7DBF640 
 401      BED3
 402 0b9e 594BD7B6 		.ascii	"YK\327\2660\251\356\376\\\233T\367\343J\354\250\035"
 402      30A9EEFE 
ARM GAS  /tmp/ccVezpUf.s 			page 31


 402      5C9B54F7 
 402      E34AECA8 
 402      1D
 403 0baf C414FBD0 		.ascii	"\304\024\373\320\267>6\036C\233\215\366\034\255[b\326"
 403      B73E361E 
 403      439B8DF6 
 403      1CAD5B62 
 403      D6
 404 0bc0 D8F9A832 		.ascii	"\330\371\2502k|\207\263FW~\372Y\203\323\333\010C\271"
 404      6B7C87B3 
 404      46577EFA 
 404      5983D3DB 
 404      0843B9
 405 0bd3 71D6E83E 		.ascii	"q\326\350>\202\263F\267\255Y\343\332\221\371\352>Q\031"
 405      82B346B7 
 405      AD59E3DA 
 405      91F9EA3E 
 405      5119
 406 0be5 6D3E4315 		.ascii	"m>C\025\2723\036\356\257\037\241\206\256\363\216\301"
 406      BA331EEE 
 406      AF1FA186 
 406      AEF38EC1 
 407 0bf5 0A746073 		.ascii	"\012t`s:)\260\013v\300R\014\367si\260K\216\301\364\232"
 407      3A29B00B 
 407      76C0520C 
 407      F77369B0 
 407      4B8EC1F4 
 408 0c0a CDA7C1AE 		.ascii	"\315\247\301\256\330\001K1\334/\244\301\256:\006\323"
 408      D8014B31 
 408      DC2FA4C1 
 408      AE3A06D3 
 409 0c1a 6BB69806 		.ascii	"k\266\230\006\353\261\003fuu\000`Ki\260\246>N\301\364"
 409      EBB10366 
 409      75750060 
 409      4B69B0A6 
 409      3E4EC1F4 
 410 0c2e 9A2DA7C1 		.ascii	"\232-\247\301f\332\001+\260\326\254\231\006{\3161X\201"
 410      66DA012B 
 410      B0D6AC99 
 410      067BCE31 
 410      5881
 411 0c40 5997503E 		.ascii	"Y\227P>t\217\342\331\037pX\274\212\203\3255\214{0~\312"
 411      748FE2D9 
 411      1F7058BC 
 411      8A83D535 
 411      8C7B307E 
 412 0c55 4DE2268C 		.ascii	"M\342&\214\247c<\023\343Y\030\377\036\343\347\3346\006"
 412      A7633C13 
 412      E35918FF 
 412      1EE3E7DC 
 412      3606
 413 0c67 B7CBF4E0 		.ascii	"\267\313\364\3406\267\217\323\241(\245!\311_f\300x\214"
 413      36B78FD3 
 413      A128A521 
 413      C95F66C0 
 413      788C
 414 0c79 2BBE43F8 		.ascii	"+\276C\370\356\350\247\030?\217\273\344y\030oA\243\266"
ARM GAS  /tmp/ccVezpUf.s 			page 32


 414      EEE8A718 
 414      3F8FBBE4 
 414      79186F41 
 414      A3B6
 415 0c8b 61BC1BE3 		.ascii	"a\274\033\343\275\030\267c\374\015\306\337\332\031\253"
 415      BD18B763 
 415      FC0DC6DF 
 415      DA19AB
 416 0c9a DB936F9C 		.ascii	"\333\223o\234\362\354l7\331\000\2659\177\343\324\334"
 416      F2EC6C37 
 416      D900B539 
 416      7FE3D4DC 
 417 0caa 9C36CA9C 		.ascii	"\2346\312\234w\320\234w\321\220=\030\357\263\363B\354"
 417      77D09C77 
 417      D1903D18 
 417      EFB3F342 
 417      EC
 418 0cbb A6A47AEA 		.ascii	"\246\244z\352/\270\022?\320K<\253\027)\351\376\316\263"
 418      2FB8123F 
 418      D04B3CAB 
 418      1729E9FE 
 418      CEB3
 419 0ccd 0F27B784 		.ascii	"\017'\267\204\034\263\260\217~\354\376%\363\262,\317"
 419      1CB3B08F 
 419      7EECFE25 
 419      F3B22CCF 
 420 0cdd 25BFF59B 		.ascii	"%\277\365\233\260D\216\271\025\321\034\263\032\213\255"
 420      B0448EB9 
 420      15D11CB3 
 420      1A8BAD
 421 0cec 656FB758 		.ascii	"eo\267X\230\243\202J]\371\2040R\221\3161k\322T[CU\233"
 421      98A3824A 
 421      5DF98430 
 421      5291CE31 
 421      6BD2545B 
 422 0d03 F7416E91 		.ascii	"\367An\221\266>x\325X\317p\277\211\266\250\365v|\220"
 422      B63E78D5 
 422      58CF70BF 
 422      89B6A8F5 
 422      767C90
 423 0d16 3787D504 		.ascii	"7\207\325\004\276\351@`7%\360-;\002\031\346\037\231"
 423      BEE94060 
 423      3725F02D 
 423      3B0219E6 
 423      1F99
 424 0d28 556466DB 		.ascii	"Udf\333vv\374H\3458\230I!Mm\273\371n\335/P\311\217)"
 424      7676FC48 
 424      E5389849 
 424      214D6DBB 
 424      F96EDD2F 
 425 0d40 57C6634B 		.ascii	"W\306cK>\331\303\202\016?\222=\267\331o)m\\\256\255"
 425      3ED9C382 
 425      0E3F923D 
 425      B7D96F29 
 425      6D5CAEAD 
 426 0d54 5A88471C 		.ascii	"Z\210G\034/\341\233\346[\014\355h\037\346\324_\273\225"
 426      2FE19BE6 
ARM GAS  /tmp/ccVezpUf.s 			page 33


 426      5B0CED68 
 426      1FE6D45F 
 426      BB95
 427 0d66 9F21AC42 		.ascii	"\237!\254B\240\035\006 \236e\014g\023\214~\373\005\217"
 427      A01D0620 
 427      9E650C67 
 427      138C7EFB 
 427      058F
 428 0d78 728FFA51 		.ascii	"r\217\372Q~\216\0109O2\031\325\261\342\177\213[\367"
 428      7E8E0839 
 428      4F3219D5 
 428      B1E27F8B 
 428      5BF7
 429 0d8a F345856F 		.ascii	"\363E\205o\211\207v[L\337c\305\364\325\367%\231\316"
 429      8987765B 
 429      4CDF63C5 
 429      F4D5F725 
 429      99CE
 430 0d9c B30BB1F3 		.ascii	"\263\013\261\363\257t\333az\033az;\022\357(\242[Wk\247"
 430      AF74DB61 
 430      7A1B617A 
 430      3B12EF28 
 430      A25B576B 
 431 0db1 89F75F03 		.ascii	"\211\367_\0034\336\2354VK\311\273\015\037\215\037\240"
 431      34DE9D34 
 431      564BC9BB 
 431      0D1F8D1F 
 431      A0
 432 0dc2 343893A2 		.ascii	"48\223\242\226\352\263\365\275y\367f<vX\330#_\204=\262"
 432      96EAB3F5 
 432      BD79F766 
 432      3C7658D8 
 432      235F843D 
 433 0dd7 8E730AA6 		.ascii	"\216s\012\246\225\363[S:\337\334\331g\315\234\335(_"
 433      95F35B53 
 433      3ADFDCD9 
 433      67CD9CDD 
 433      285F
 434 0de9 0B8ED4FB 		.ascii	"\013\216\324\373y\243\015?7\312\255I\207]D\340\215\031"
 434      79A30D3F 
 434      37CAAD49 
 434      875D44E0 
 434      8D19
 435 0dfb 39CCAA96 		.ascii	"9\314\252\226j\347f\323\216z\351T\336\234\247\342=="
 435      6AE766D3 
 435      8E7AE954 
 435      DE9CA7E2 
 435      3D3D
 436 0e0d B71B3CB6 		.ascii	"\267\033<\266>\305o\247\267\232y\314\340\241+\246t\354"
 436      3EC56FA7 
 436      B79A79CC 
 436      E0A12BA6 
 436      74EC
 437 0e1f EDA17753 		.ascii	"\355\241wS{(a\352\0333\246\367u'\007%\253j\252\206\333"
 437      7B2861EA 
 437      1B33A6F7 
 437      75270725 
ARM GAS  /tmp/ccVezpUf.s 			page 34


 437      AB6AAA86 
 438 0e34 4DC931FF 		.ascii	"M\3111\377\003\347\266\276\227\001;\246\3675e\307\213"
 438      03E7B6BE 
 438      97013BA6 
 438      F73565C7 
 438      8B
 439 0e45 82C1F69D 		.ascii	"\202\301\366\235\266\330q$\311\216\245\010\274\323&"
 439      B6D87124 
 439      C98EA508 
 439      BCD326
 440 0e54 3B0C2EB3 		.ascii	";\014.\263\222\246\032\272\313\324eoi.S<\3011\253\314"
 440      92A61ABA 
 440      CBD4656F 
 440      692E533C 
 440      C131ABCC 
 441 0e68 6D5B66B4 		.ascii	"m[f\264m\237-\333\016%mkC\340}\231\331f%M\265\255\335"
 441      6D9F2DDB 
 441      0E256D6B 
 441      43E07D99 
 441      D966254D 
 442 0e7f D4B6A346 		.ascii	"\324\266\243F\333\3363\267\255\325h[\207-\333N$m\353"
 442      DBDE33B7 
 442      ADD5685B 
 442      872DDB4E 
 442      246DEB
 443 0e92 42E08ECC 		.ascii	"B\340\216\314l\263\222\246\332v\310\264[\177\233\001"
 443      6CB392A6 
 443      DA76C8B4 
 443      5B7F9B01 
 444 0ea2 D58FA7A4 		.ascii	"\325\217\247\244\372\220\\\023\246\2373\363\330\\y\203"
 444      FA905C13 
 444      A69F33F3 
 444      D85C7983 
 445 0eb2 D1639DB6 		.ascii	"\321c\235\266\346\233c\244\332\0202\335\364 \256u\255"
 445      E69B63A4 
 445      DA1032DD 
 445      F420AE75 
 445      AD
 446 0ec3 21298606 		.ascii	"!)\206\006\253Z\252\225]\246\376zg\267s\177\305S\370"
 446      AB5AAA95 
 446      5DA6FE7A 
 446      67B7737F 
 446      C553F8
 447 0ed6 CB7046B6 		.ascii	"\313pF\2663\305\031\331\247n\372\202\311\340\340i\375"
 447      33C519D9 
 447      A76EFA82 
 447      C9E0E069 
 447      FD
 448 0ee7 4C1DDCAB 		.ascii	"L\035\334\253\273\235\266\357`\"\217c\026#\260u5U+s"
 448      BB9DB6EF 
 448      60228F63 
 448      1623B075 
 448      35552B73 
 449 0efb 175B5553 		.ascii	"\027[US-8\333\333\305q\362\003\361\323\215\354\013M"
 449      2D38DBDB 
 449      C571F203 
 449      F1D38DEC 
ARM GAS  /tmp/ccVezpUf.s 			page 35


 449      0B4D
 450 0f0d 2B95099A 		.ascii	"+\225\011\23218\332\342\307\025\004\356\274\321\317"
 450      3138DAE2 
 450      C71504EE 
 450      BCD1CF
 451 0f1c EDBDA79B 		.ascii	"\355\275\247\233\026\203\2374U\2764S%vb\337\263\267"
 451      16839F34 
 451      55BE3453 
 451      257662DF 
 451      B3B7
 452 0f2e CA2D8DB1 		.ascii	"\312-\215\261\236\236\373\215z\244j\360\013f\212$\036"
 452      9E9EFB8D 
 452      7AA46AF0 
 452      0B668A24 
 452      1E
 453 0f3f B6BBE80D 		.ascii	"\266\273\350\015\212\323\027 a\032\307\275S\232\327"
 453      8AD31720 
 453      611AC7BD 
 453      539AD7
 454 0f4e C3AC54FB 		.ascii	"\303\254T\373FG\"U\007\373o*\355X\177\346_\336\300k"
 454      46472255 
 454      07FB6F2A 
 454      ED587FE6 
 454      5FDEC06B 
 455 0f62 D0CBB84A 		.ascii	"\320\313\270J>\323\317\270J\366\030V\311\036\275\236"
 455      3ED3CFB8 
 455      4AF61856 
 455      C91EBD9E 
 456 0f72 1E5F3291 		.ascii	"\036_2\221\374\215\255\345f\355\262\333\227\221\236"
 456      FC8DADE5 
 456      66EDB2DB 
 456      97919E
 457 0f81 272FC557 		.ascii	"'/\305W\253?\373\273\212\212~\321K\321\014\336\250b"
 457      AB3FFBBB 
 457      8A8A7ED1 
 457      4BD10CDE 
 457      A862
 458 0f93 7A75BB4B 		.ascii	"zu\273K\026t\272n\316\354\245:f"
 458      1674BA6E 
 458      CEECA53A 
 458      66
 459 0fa0 2B8CE598 		.ascii	"+\214\345\230g\373\233\203\310\036\035\310\035L\213"
 459      67FB9B83 
 459      C81E1DC8 
 459      1D4C8B
 460 0faf 2C1F8E9F 		.ascii	",\037\216\237\334\375\334]\370\357g\310\246\211M\030"
 460      DCFDDC5D 
 460      F8EF67C8 
 460      A6894D18 
 461 0fbf B8340162 		.ascii	"\2704\001b\325\364\215I8\303\250C\324\260\252\325\344"
 461      D5F48D49 
 461      38C3A843 
 461      D4B0AAD5 
 461      E4
 462 0fd0 C9B5A875 		.ascii	"\311\265\250u5\305Zy\232e\255\013)dM\267\254E\376o\213"
 462      35C55A79 
 462      9A65AD0B 
ARM GAS  /tmp/ccVezpUf.s 			page 36


 462      29644DB7 
 462      AC45FE6F 
 463 0fe5 55AD19C9 		.ascii	"U\255\031\311Z\375\2309\330G\207/\326\377W\037\335\315"
 463      5AFD9839 
 463      D847872F 
 463      D6FF571F 
 463      DDCD
 464 0ff7 2DA933D3 		.ascii	"-\2513\323\323\217I0J"
 464      D38F4930 
 464      4A
 465 1000 4E88C9B3 		.ascii	"N\210\311\263\266\350iO\362M\340<_2\241-\234U$\033\227"
 465      B6E8694F 
 465      F24DE03C 
 465      5F32A12D 
 465      9C55241B 
 466 1015 E0AB4EE2 		.ascii	"\340\253N\342~u\226\207\344\276\324\337t\277j\347.}"
 466      7E759687 
 466      E4BED4DF 
 466      74BF6AE7 
 466      2E7D
 467 1027 D37BCA5D 		.ascii	"\323{\312]\372\263\010\264\256\277\221\340\234\201\337"
 467      FAB308B4 
 467      AEBF91E0 
 467      9C81DF
 468 1036 9C9EDF1C 		.ascii	"\234\236\337\034\371\3679\327\351\275'y\253\271\327"
 468      F9F739D7 
 468      E9BD2779 
 468      ABB9D7
 469 1045 8FAF6DD7 		.ascii	"\217\257m\3272\264\030\361\260\225/g'[\214\371ea}T,"
 469      32B418F1 
 469      B0952F67 
 469      275B8CF9 
 469      65617D54 
 470 105a E4C5F0DD 		.ascii	"\344\305\360\335\265\221Z\341n\201\237\030*\014\325"
 470      B5915AE1 
 470      6E819F18 
 470      2A0CD5
 471 1069 066AEA83 		.ascii	"\006j\352\203BaT\012\206j\245\201\325\214\267\036\276"
 471      4261540A 
 471      866AA581 
 471      D58CB71E 
 471      BE
 472 107a 87F9A5AC 		.ascii	"\207\371\245\254\007\307>\\P\306\014NQ'\314\007\252"
 472      07C73E5C 
 472      50C60C4E 
 472      5127CC07 
 472      AA
 473 108b 43B542A1 		.ascii	"C\265B\241?(L\342\353k$\2774\265N\210\002\206\317\357"
 473      3F284CE2 
 473      EB6B24BF 
 473      34B54E88 
 473      0286CFEF 
 474 109f 5751FA95 		.ascii	"WQ\372\225\213\241)\202\030-\214\206\206\0265\024\015"
 474      8BA12982 
 474      182D8C86 
 474      86163514 
 474      0D
ARM GAS  /tmp/ccVezpUf.s 			page 37


 475 10b0 0C30230B 		.ascii	"\0140#\013\253#a\2410\020\011N-\014\012S\012\001bb("
 475      AB2361A1 
 475      3010094E 
 475      2D0C0A53 
 475      0A016262 
 476 10c5 122D94C4 		.ascii	"\022-\224\304\372\332\307\013!!J\205u\021Q\212\026\226"
 476      FADAC70B 
 476      21214A85 
 476      7511518A 
 476      1696
 477 10d7 568C291B 		.ascii	"V\214)\033\323\000%\303u\241\032\202\361`Y\031\024\327"
 477      D30025C3 
 477      75A11A82 
 477      F1605919 
 477      14D7
 478 10e9 8478C2D1 		.ascii	"\204x\302\321\311~\311\013r\006\225\370%\020\251\246"
 478      C97EC90B 
 478      720695F8 
 478      2510A9A6 
 479 10f9 8C22AB99 		.ascii	"\214\"\253\231\354JL\371\245<5\021\225xI\350[9\312?"
 479      EC4A4CF9 
 479      A53C3511 
 479      957849E8 
 479      5B39CA3F 
 480 110d B4684291 		.ascii	"\264hB\221\177\324\330\322\262\252Q\217\214\310Kd\224"
 480      7FD4D8D2 
 480      B2AA518F 
 480      8CC84B64 
 480      94
 481 111e 8F1ED147 		.ascii	"\217\036\321G{\250\030QZ>j\354\203\036\254\343\346\203"
 481      7BA81851 
 481      5A3E6AEC 
 481      831EACE3 
 481      E683
 482 1130 41B13C9D 		.ascii	"A\261<\235\005\325|\215jBe\325\230A%\205\243G\227\027"
 482      05D57C8D 
 482      6A4265D5 
 482      98412585 
 482      A3479717 
 483 1144 8E2A299B 		.ascii	"\216*)\233R\\\030*\011\370kj\202\304E\220\241(Zb\007"
 483      525C182A 
 483      09F86B6A 
 483      82C44590 
 483      A1285A62 
 484 1159 4E733900 		.ascii	"Ns9\000@\345\034\370B}\374R\016\340\370\037\036;j\354"
 484      40E51CF8 
 484      427DFC52 
 484      0EE0F81F 
 484      1E3B6AEC 
 485 116d A8AA6C92 		.ascii	"\250\252l\222\254\254\0327\236`\243\336\217\336@R\212"
 485      ACAC1A37 
 485      9E60A3DE 
 485      8FDE4052 
 485      8A
 486 117e 75FEAA09 		.ascii	"u\376\252\011\364S\305\004\2549z\\\331\277\217(\317"
 486      F453C504 
 486      AC397A5C 
ARM GAS  /tmp/ccVezpUf.s 			page 38


 486      D9BF8F28 
 486      CF
 487 118f 05BC485D 		.ascii	"\005\274H]8\022$\200\343\306\217\031W>\302\017\177\275"
 487      38122480 
 487      E3C68F19 
 487      573EC20F 
 487      7FBD
 488 11a1 514D568E 		.ascii	"QMV\216\371\315\303\225\376\362\021\217\214*\033\321"
 488      F9CDC395 
 488      FEF2118F 
 488      8C2A1BD1 
 489 11b1 4F973772 		.ascii	"O\2277r\\e\2257R\347'U\263\353\325\006\310QZ\237$s\003"
 489      5C659537 
 489      52E72755 
 489      B3EBD506 
 489      C8515A9F 
 490 11c8 3591C0E3 		.ascii	"5\221\300\343\376h\235 \004\363AH\260^\232\032\230\032"
 490      FE689D20 
 490      04F34148 
 490      B05E9A1A 
 490      981A
 491 11da A80139F9 		.ascii	"\250\0019\371\225U\345\376\362\207\253\036\365\227="
 491      9555E5FE 
 491      F287AB1E 
 491      F5973D
 492 11e9 5A367A44 		.ascii	"Z6zD\277\007J+\253\250g\177\311\317\2149\305C\374\367"
 492      BF074A2B 
 492      ABA8677F 
 492      C9CF8C39 
 492      C543FCF7 
 493 11fd E410043F 		.ascii	"\344\020\004?B\020+\313\"\265\223B\223\263\002\370E"
 493      42102BCB 
 493      22B59342 
 493      93B302F8 
 493      45
 494 120e BC32A986 		.ascii	"\2742\251\206\237\034\005\362\012\242\030\021\243\203"
 494      9F1C05F2 
 494      0AA21811 
 494      A383
 495 121c 6C704DF3 		.ascii	"lpM\363l\240:,5\020\376\207\353%\241\301/y\360{\230"
 495      6CA03A2C 
 495      3510FE87 
 495      EB25A1C1 
 495      2F79F07B 
 496 1231 2384E8D4 		.ascii	"#\204\350\324\250\306\316>R\265(\360\301\250\377w\365"
 496      A8C6CE3E 
 496      52B528F0 
 496      C1A8FF77 
 496      F5
 497 1242 423D98DB 		.ascii	"B=\230\3337P\355\327e\015v\206\034\250&\254\311V \200"
 497      3750EDD7 
 497      650D7686 
 497      1CA826AC 
 497      C9562080 
 498 1256 EE09B8AC 		.ascii	"\356\011\270\254:\177\255\320 \301W\235(L\361Jub(\342"
 498      3A7FADD0 
 498      20C1579D 
ARM GAS  /tmp/ccVezpUf.s 			page 39


 498      284CF14A 
 498      756228E2 
 499 126a 571E4311 		.ascii	"W\036C\021/x\006\254\220\356q\334\351\252\003\021Q\000"
 499      2F7806AC 
 499      90EE71DC 
 499      E9AA0311 
 499      5100
 500 127c 89B9249B 		.ascii	"\211\271$\233t\255\200\324\360o\231\241\370\247\014"
 500      74AD80D4 
 500      F06F99A1 
 500      F8A70C
 501 128b 0D13DD45 		.ascii	"\015\023\335Ea2\214#~\311\025-\036\002a(\204a\020\356"
 501      61328C23 
 501      7EC9152D 
 501      1E026128 
 501      846110EE 
 502 129f 71454B8A 		.ascii	"qEK\212 \024C(\2010\010\302`\010\277\206\000\345J\240"
 502      20144328 
 502      813008C2 
 502      6008BF86 
 502      00E54AA0 
 503 12b3 5C09942B 		.ascii	"\\\011\224+\201r\203\240\334\240bN\034\314\211\277\346"
 503      817283A0 
 503      DCA0624E 
 503      1CCC89BF 
 503      E6
 504 12c4 C4219C38 		.ascii	"\304!\2348\224\023\207q\342=.\261\270\010B1W#\302\327"
 504      94138771 
 504      E23D2EB1 
 504      B8084231 
 504      5723C2D7 
 505 12d8 204F9D1F 		.ascii	" O\235\037\264\365\022\307<!\210\360\035\251\011\012"
 505      B4F512C7 
 505      3C2188F0 
 505      1DA9090A 
 506 12e8 A23B50CD 		.ascii	"\242;P\315\213\304[|X\310\226\324\356\003\177\304\224"
 506      8BC45B7C 
 506      58C896D4 
 506      EE037FC4 
 506      94
 507 12f9 5752D80F 		.ascii	"WR\330\017\317H!\257$\012\223\242\350G\222\310\022\203"
 507      CF4821AF 
 507      240A93A2 
 507      E84792C8 
 507      1283
 508 130b 5361B8C9 		.ascii	"Sa\270\311\026\032B\022\230/d=!E&\376\266.W\230\"\324"
 508      161A4212 
 508      982F643D 
 508      214526FE 
 508      B62E5798 
 509 1321 4A613EFA 		.ascii	"Ja>\3728\241\334\023$\341\252\363\327\347k\015]\023"
 509      38A1DC13 
 509      24E1AAF3 
 509      D7E76B0D 
 509      5D13
 510 1333 8AC2A0D8 		.ascii	"\212\302\240\330\207jz\222\343\253\363?\301\207\244"
 510      876A7A92 
ARM GAS  /tmp/ccVezpUf.s 			page 40


 510      E3ABF33F 
 510      C187A4
 511 1342 50EDE41C 		.ascii	"P\355\344\034\3509\321\311H\007\017&!C\250\023ja(\236"
 511      E839D1C9 
 511      48070F26 
 511      2143A813 
 511      6A61289E 
 512 1356 0CA58090 		.ascii	"\014\245\200\220\244|\016\321\201\257\301\366\204\314"
 512      A47C0ED1 
 512      81AFC1F6 
 512      84CC
 513 1364 BA48A4C6 		.ascii	"\272H\244\306\033VH\004\337\221'j\0051+\214$\030\352"
 513      1B564804 
 513      DF91276A 
 513      05312B8C 
 513      2418EA
 514 1377 8853AA4E 		.ascii	"\210S\252N\3204\375UZ\201\251\202(\324\006\300\021Y"
 514      D034FD55 
 514      5A81A982 
 514      28D406C0 
 514      1159
 515 1389 4A960FFA 		.ascii	"J\226\017\372\024\031\363\374\022vo\350\202Z\367&I\237"
 515      1419F3FC 
 515      12766FE8 
 515      825AF726 
 515      499F
 516 139b D8100CF3 		.ascii	"\330\020\014\363\304s>IK=\340tt\304\370\201\301\015"
 516      C4733E49 
 516      4B3DE074 
 516      74C4F881 
 516      C10D
 517 13ad 0D300785 		.ascii	"\0150\007\205a\320\000\034P\351\336t0`na\331\230\312"
 517      61D0001C 
 517      50E9DE74 
 517      30606E61 
 517      D998CA
 518 13c0 519500A0 		.ascii	"Q\225\000\240\324\2344\270\250\270\201p\266\177\371"
 518      D49C34B8 
 518      A8B88170 
 518      B67FF9
 519 13cf 98527F25 		.ascii	"\230R\177%\264 \037\366WA\177,\027&qe\025\356\261\345"
 519      B4201FF6 
 519      57417F2C 
 519      17267165 
 519      15EEB1E5 
 520 13e3 5515AEF1 		.ascii	"U\025\256\361\245\025\3561E$*.\255p=PV\221\025\305\202"
 520      A515EE31 
 520      45242A2E 
 520      AD703D50 
 520      569115C5 
 521 13f8 EED0A480 		.ascii	"\356\320\244\200\230\025\212V\207&I\276\250P3)T\033"
 521      98158A56 
 521      872649BE 
 521      A8503329 
 521      541B
 522 140a 141AB2A6 		.ascii	"\024\032\262\246\010\001)\"\366Oh\346WJ\303\360\000"
 522      08012922 
ARM GAS  /tmp/ccVezpUf.s 			page 41


 522      F64F68E6 
 522      574AC3F0 
 522      00
 523 141b 0F620389 		.ascii	"\017b\003\211\245\206\\2\222\252\202\\e\025\305\020"
 523      A5865C32 
 523      92AA825C 
 523      6515C510 
 524 142b 4ADCE34A 		.ascii	"J\334\343J+\212IT\302\225W\270*!\263\262\242\304UVV"
 524      2B8A4954 
 524      C29557B8 
 524      2A21B3B2 
 524      A2C45556 
 525 1440 E1A9AA18 		.ascii	"\341\251\252\030U9\302\375\300hP\006\234\333'\252\316"
 525      5539C2FD 
 525      C0685006 
 525      9CDB27AA 
 525      CE
 526 1451 4D225F1B 		.ascii	"M\"_\033\015\207$6\352\222\032&B\010\270D\370\026\033"
 526      0D872436 
 526      EA921A26 
 526      4208B844 
 526      F8161B
 527 1464 0259CA4C 		.ascii	"\002Y\312L\232\215\023\034$r\325\032\241\332\220\224"
 527      9A8D131C 
 527      2472D51A 
 527      A1DA9094 
 528 1474 15C42924 		.ascii	"\025\304)${\"\037\025J\241\231\264\277E\245H\235\227"
 528      7B221F15 
 528      4AA199B4 
 528      BF45A548 
 528      9D97
 529 1486 44A0599E 		.ascii	"D\240Y\236\232'\012QA\372\231V@\220*\204h\244\246^\012"
 529      9A270A51 
 529      41FA9956 
 529      40902A84 
 529      68A4A65E 
 530 149b 456A73C4 		.ascii	"Ejs\304D\362F\365\357\325\002t\012qD-?\261F\310V\036"
 530      44F246F5 
 530      EFD50274 
 530      0A71442D 
 530      3FB146C8 
 531 14b1 C6D5DE92 		.ascii	"\306\325\336\222\254<\022\263\312\352E\240\213tC5\375"
 531      AC3C12B3 
 531      CAEA45A0 
 531      8B744335 
 531      FD
 532 14c2 7473421E 		.ascii	"tsB\036\037\254\022\302u\202\310K\365\242\340\226 }"
 532      1FAC12C2 
 532      7582C84B 
 532      F5A2E096 
 532      207D
 533 14d4 23F5B791 		.ascii	"#\365\267\221\365\341P0$M\315\256V\0237\200;*\204\032"
 533      F5E15030 
 533      244DCDAE 
 533      56133780 
 533      3B2A841A 
 534 14e8 016CF94D 		.ascii	"\001l\371M}\264\004\027\0365\241\211\205\223\003\001"
ARM GAS  /tmp/ccVezpUf.s 			page 42


 534      7DB40417 
 534      1E35A189 
 534      85930301 
 535 14f8 C30264F0 		.ascii	"\303\002d\360\300a\003\007\323K\027X\200@\273gEC\377"
 535      C0610307 
 535      D34B1758 
 535      8040BB67 
 535      4543FF
 536 150b 0DD4F591 		.ascii	"\015\324\365\221a8\024\206\324\000@\034\303GA\267*\325"
 536      61381486 
 536      D400401C 
 536      C34741B7 
 536      2AD5
 537 151d BD55901F 		.ascii	"\275U\220\037\251\227\210\250\322\300\357\352C\"\021"
 537      A99788A8 
 537      D2C0EFEA 
 537      432211
 538 152c E595945C 		.ascii	"\345\225\224\\\257Fkt5I\375/J\014\204\215"
 538      AF466B74 
 538      3549FD2F 
 538      4A0C848D 
 539              		.text
 540              		.section	.gnu.lto_.symtab.1d7f414c06f99df0,"",%progbits
 541 0000 73693730 		.ascii	"si70x0_init\000\000\000\000\000\000\000\000\000\000"
 541      78305F69 
 541      6E697400 
 541      00000000 
 541      00000000 
 542 0015 00002002 		.ascii	"\000\000 \002\000\000si70x0_stop\000\000\000\000\000"
 542      00007369 
 542      37307830 
 542      5F73746F 
 542      70000000 
 543 002b 00000000 		.ascii	"\000\000\000\000\000\000\0002\002\000\000si70x0_res"
 543      00000032 
 543      02000073 
 543      69373078 
 543      305F7265 
 544 0040 65740000 		.ascii	"et\000\000\000\000\000\000\000\000\000\000\000\000;"
 544      00000000 
 544      00000000 
 544      00003B
 545 004f 02000073 		.ascii	"\002\000\000si70x0_setResolution\000\000\000\000\000"
 545      69373078 
 545      305F7365 
 545      74526573 
 545      6F6C7574 
 546 006b 00000000 		.ascii	"\000\000\000\000\000\000\000A\002\000\000si70x0_hea"
 546      00000041 
 546      02000073 
 546      69373078 
 546      305F6865 
 547 0080 74657245 		.ascii	"terEnable\000\000\000\000\000\000\000\000\000\000\000"
 547      6E61626C 
 547      65000000 
 547      00000000 
 547      00000000 
ARM GAS  /tmp/ccVezpUf.s 			page 43


 548 0094 004A0200 		.ascii	"\000J\002\000\000si70x0_setHeaterCurrent\000\000\000"
 548      00736937 
 548      3078305F 
 548      73657448 
 548      65617465 
 549 00b3 00000000 		.ascii	"\000\000\000\000\000\000\000\000\000P\002\000\000si"
 549      00000000 
 549      00500200 
 549      007369
 550 00c2 37307830 		.ascii	"70x0_readTemperature\000\000\000\000\000\000\000\000"
 550      5F726561 
 550      6454656D 
 550      70657261 
 550      74757265 
 551 00de 00000000 		.ascii	"\000\000\000\000V\002\000\000si70x0_readHumidity\000"
 551      56020000 
 551      73693730 
 551      78305F72 
 551      65616448 
 552 00fa 00000000 		.ascii	"\000\000\000\000\000\000\000\000\000\000\000_\002\000"
 552      00000000 
 552      0000005F 
 552      0200
 553 0108 00693263 		.ascii	"\000i2cReleaseBus\000\000\002\000\000\000\000\000\000"
 553      52656C65 
 553      61736542 
 553      75730000 
 553      02000000 
 554 011f 00000069 		.ascii	"\000\000\000i\002\000\000i2cMasterTransmitTimeout\000"
 554      02000069 
 554      32634D61 
 554      73746572 
 554      5472616E 
 555 013f 00020000 		.ascii	"\000\002\000\000\000\000\000\000\000\000\000m\002\000"
 555      00000000 
 555      0000006D 
 555      0200
 556 014d 00693263 		.ascii	"\000i2cAcquireBus\000\000\002\000\000\000\000\000\000"
 556      41637175 
 556      69726542 
 556      75730000 
 556      02000000 
 557 0164 0000007F 		.ascii	"\000\000\000\177\002\000\000"
 557      020000
 558              		.text
 559              		.section	.gnu.lto_.opts,"",%progbits
 560 0000 272D6D63 		.ascii	"'-mcpu=cortex-m4' '-mfloat-abi=hard' '-mfpu=fpv4-sp"
 560      70753D63 
 560      6F727465 
 560      782D6D34 
 560      2720272D 
 561 0033 2D643136 		.ascii	"-d16' '-mno-thumb-interwork' '-mthumb' '-O2' '-fomi"
 561      2720272D 
 561      6D6E6F2D 
 561      7468756D 
 561      622D696E 
 562 0066 742D6672 		.ascii	"t-frame-pointer' '-falign-functions=16' '-ffunction"
ARM GAS  /tmp/ccVezpUf.s 			page 44


 562      616D652D 
 562      706F696E 
 562      74657227 
 562      20272D66 
 563 0099 2D736563 		.ascii	"-sections' '-fdata-sections' '-fno-common' '-flto' "
 563      74696F6E 
 563      73272027 
 563      2D666461 
 563      74612D73 
 564 00cc 272D6673 		.ascii	"'-fsingle-precision-constant'\000"
 564      696E676C 
 564      652D7072 
 564      65636973 
 564      696F6E2D 
 565              		.text
 566              		.section	.text.si70x0_transmit.constprop.0,"ax",%progbits
 567              		.align	2
 568              		.p2align 4,,15
 569              		.thumb
 570              		.thumb_func
 571              		.type	si70x0_transmit.constprop.0, %function
 572              	si70x0_transmit.constprop.0:
 573              		@ args = 0, pretend = 0, frame = 0
 574              		@ frame_needed = 0, uses_anonymous_args = 0
 575 0000 F0B5     		push	{r4, r5, r6, r7, lr}
 576 0002 0446     		mov	r4, r0
 577 0004 85B0     		sub	sp, sp, #20
 578 0006 4068     		ldr	r0, [r0, #4]
 579 0008 0E46     		mov	r6, r1
 580 000a 1746     		mov	r7, r2
 581 000c 1D46     		mov	r5, r3
 582 000e FFF7FEFF 		bl	i2cAcquireBus
 583 0012 094B     		ldr	r3, .L2
 584 0014 6178     		ldrb	r1, [r4, #1]	@ zero_extendqisi2
 585 0016 1B68     		ldr	r3, [r3]
 586 0018 6068     		ldr	r0, [r4, #4]
 587 001a 0195     		str	r5, [sp, #4]
 588 001c 3246     		mov	r2, r6
 589 001e 0293     		str	r3, [sp, #8]
 590 0020 0097     		str	r7, [sp]
 591 0022 0123     		movs	r3, #1
 592 0024 FFF7FEFF 		bl	i2cMasterTransmitTimeout
 593 0028 0546     		mov	r5, r0
 594 002a 6068     		ldr	r0, [r4, #4]
 595 002c FFF7FEFF 		bl	i2cReleaseBus
 596 0030 2846     		mov	r0, r5
 597 0032 05B0     		add	sp, sp, #20
 598              		@ sp needed
 599 0034 F0BD     		pop	{r4, r5, r6, r7, pc}
 600              	.L3:
 601 0036 00BF     		.align	2
 602              	.L2:
 603 0038 00000000 		.word	.LANCHOR0
 604              		.size	si70x0_transmit.constprop.0, .-si70x0_transmit.constprop.0
 605 003c AFF30080 		.section	.text.si70x0_init,"ax",%progbits
 606              		.align	2
 607              		.p2align 4,,15
ARM GAS  /tmp/ccVezpUf.s 			page 45


 608              		.global	si70x0_init
 609              		.thumb
 610              		.thumb_func
 611              		.type	si70x0_init, %function
 612              	si70x0_init:
 613              		@ args = 0, pretend = 0, frame = 0
 614              		@ frame_needed = 0, uses_anonymous_args = 0
 615              		@ link register save eliminated.
 616 0000 0346     		mov	r3, r0
 617 0002 10B4     		push	{r4}
 618 0004 044C     		ldr	r4, .L5
 619 0006 4160     		str	r1, [r0, #4]
 620 0008 0020     		movs	r0, #0
 621 000a 2821     		movs	r1, #40
 622 000c 5A70     		strb	r2, [r3, #1]
 623 000e 2160     		str	r1, [r4]
 624 0010 1870     		strb	r0, [r3]
 625 0012 5DF8044B 		ldr	r4, [sp], #4
 626 0016 7047     		bx	lr
 627              	.L6:
 628              		.align	2
 629              	.L5:
 630 0018 00000000 		.word	.LANCHOR0
 631              		.size	si70x0_init, .-si70x0_init
 632 001c AFF30080 		.section	.text.si70x0_stop,"ax",%progbits
 633              		.align	2
 634              		.p2align 4,,15
 635              		.global	si70x0_stop
 636              		.thumb
 637              		.thumb_func
 638              		.type	si70x0_stop, %function
 639              	si70x0_stop:
 640              		@ args = 0, pretend = 0, frame = 0
 641              		@ frame_needed = 0, uses_anonymous_args = 0
 642              		@ link register save eliminated.
 643 0000 0020     		movs	r0, #0
 644 0002 7047     		bx	lr
 645              		.size	si70x0_stop, .-si70x0_stop
 646 0004 AFF30080 		.section	.text.si70x0_reset,"ax",%progbits
 646      AFF30080 
 646      AFF30080 
 647              		.align	2
 648              		.p2align 4,,15
 649              		.global	si70x0_reset
 650              		.thumb
 651              		.thumb_func
 652              		.type	si70x0_reset, %function
 653              	si70x0_reset:
 654              		@ args = 0, pretend = 0, frame = 8
 655              		@ frame_needed = 0, uses_anonymous_args = 0
 656 0000 00B5     		push	{lr}
 657 0002 83B0     		sub	sp, sp, #12
 658 0004 02A9     		add	r1, sp, #8
 659 0006 0022     		movs	r2, #0
 660 0008 FE23     		movs	r3, #254
 661 000a 01F8013D 		strb	r3, [r1, #-1]!
 662 000e 1346     		mov	r3, r2
ARM GAS  /tmp/ccVezpUf.s 			page 46


 663 0010 FFF7FEFF 		bl	si70x0_transmit.constprop.0
 664 0014 03B0     		add	sp, sp, #12
 665              		@ sp needed
 666 0016 5DF804FB 		ldr	pc, [sp], #4
 667              		.size	si70x0_reset, .-si70x0_reset
 668 001a 00BFAFF3 		.section	.text.si70x0_setResolution,"ax",%progbits
 668      0080
 669              		.align	2
 670              		.p2align 4,,15
 671              		.global	si70x0_setResolution
 672              		.thumb
 673              		.thumb_func
 674              		.type	si70x0_setResolution, %function
 675              	si70x0_setResolution:
 676              		@ args = 0, pretend = 0, frame = 0
 677              		@ frame_needed = 0, uses_anonymous_args = 0
 678              		@ link register save eliminated.
 679 0000 0020     		movs	r0, #0
 680 0002 7047     		bx	lr
 681              		.size	si70x0_setResolution, .-si70x0_setResolution
 682 0004 AFF30080 		.section	.text.si70x0_heaterEnable,"ax",%progbits
 682      AFF30080 
 682      AFF30080 
 683              		.align	2
 684              		.p2align 4,,15
 685              		.global	si70x0_heaterEnable
 686              		.thumb
 687              		.thumb_func
 688              		.type	si70x0_heaterEnable, %function
 689              	si70x0_heaterEnable:
 690              		@ args = 0, pretend = 0, frame = 0
 691              		@ frame_needed = 0, uses_anonymous_args = 0
 692              		@ link register save eliminated.
 693 0000 0020     		movs	r0, #0
 694 0002 7047     		bx	lr
 695              		.size	si70x0_heaterEnable, .-si70x0_heaterEnable
 696 0004 AFF30080 		.section	.text.si70x0_setHeaterCurrent,"ax",%progbits
 696      AFF30080 
 696      AFF30080 
 697              		.align	2
 698              		.p2align 4,,15
 699              		.global	si70x0_setHeaterCurrent
 700              		.thumb
 701              		.thumb_func
 702              		.type	si70x0_setHeaterCurrent, %function
 703              	si70x0_setHeaterCurrent:
 704              		@ args = 0, pretend = 0, frame = 0
 705              		@ frame_needed = 0, uses_anonymous_args = 0
 706              		@ link register save eliminated.
 707 0000 0020     		movs	r0, #0
 708 0002 7047     		bx	lr
 709              		.size	si70x0_setHeaterCurrent, .-si70x0_setHeaterCurrent
 710 0004 AFF30080 		.section	.text.si70x0_readTemperature,"ax",%progbits
 710      AFF30080 
 710      AFF30080 
 711              		.align	2
 712              		.p2align 4,,15
ARM GAS  /tmp/ccVezpUf.s 			page 47


 713              		.global	si70x0_readTemperature
 714              		.thumb
 715              		.thumb_func
 716              		.type	si70x0_readTemperature, %function
 717              	si70x0_readTemperature:
 718              		@ args = 0, pretend = 0, frame = 8
 719              		@ frame_needed = 0, uses_anonymous_args = 0
 720 0000 10B5     		push	{r4, lr}
 721 0002 82B0     		sub	sp, sp, #8
 722 0004 02AB     		add	r3, sp, #8
 723 0006 F322     		movs	r2, #243
 724 0008 03F8052D 		strb	r2, [r3, #-5]!
 725 000c 0C46     		mov	r4, r1
 726 000e 01AA     		add	r2, sp, #4
 727 0010 1946     		mov	r1, r3
 728 0012 0223     		movs	r3, #2
 729 0014 FFF7FEFF 		bl	si70x0_transmit.constprop.0
 730 0018 B0B9     		cbnz	r0, .L13
 731 001a 9DF80420 		ldrb	r2, [sp, #4]	@ zero_extendqisi2
 732 001e 9DF80530 		ldrb	r3, [sp, #5]	@ zero_extendqisi2
 733 0022 9FED0A6A 		flds	s12, .L15
 734 0026 9FED0A7A 		flds	s14, .L15+4
 735 002a DFED0A7A 		flds	s15, .L15+8
 736 002e 03EB0223 		add	r3, r3, r2, lsl #8
 737 0032 1BB2     		sxth	r3, r3
 738 0034 06EE903A 		fmsr	s13, r3	@ int
 739 0038 F8EEE66A 		fsitos	s13, s13
 740 003c 66EE866A 		fmuls	s13, s13, s12
 741 0040 E6EE877A 		vfma.f32	s15, s13, s14
 742 0044 C4ED007A 		fsts	s15, [r4]
 743              	.L13:
 744 0048 02B0     		add	sp, sp, #8
 745              		@ sp needed
 746 004a 10BD     		pop	{r4, pc}
 747              	.L16:
 748              		.align	2
 749              	.L15:
 750 004c 52B82F43 		.word	1127200850
 751 0050 00008037 		.word	931135488
 752 0054 66663BC2 		.word	3258672742
 753              		.size	si70x0_readTemperature, .-si70x0_readTemperature
 754 0058 AFF30080 		.section	.text.si70x0_readHumidity,"ax",%progbits
 754      AFF30080 
 755              		.align	2
 756              		.p2align 4,,15
 757              		.global	si70x0_readHumidity
 758              		.thumb
 759              		.thumb_func
 760              		.type	si70x0_readHumidity, %function
 761              	si70x0_readHumidity:
 762              		@ args = 0, pretend = 0, frame = 8
 763              		@ frame_needed = 0, uses_anonymous_args = 0
 764 0000 10B5     		push	{r4, lr}
 765 0002 82B0     		sub	sp, sp, #8
 766 0004 02AB     		add	r3, sp, #8
 767 0006 F522     		movs	r2, #245
 768 0008 03F8052D 		strb	r2, [r3, #-5]!
ARM GAS  /tmp/ccVezpUf.s 			page 48


 769 000c 0C46     		mov	r4, r1
 770 000e 01AA     		add	r2, sp, #4
 771 0010 1946     		mov	r1, r3
 772 0012 0223     		movs	r3, #2
 773 0014 FFF7FEFF 		bl	si70x0_transmit.constprop.0
 774 0018 90B9     		cbnz	r0, .L18
 775 001a 9DF80420 		ldrb	r2, [sp, #4]	@ zero_extendqisi2
 776 001e 9DF80530 		ldrb	r3, [sp, #5]	@ zero_extendqisi2
 777 0022 03EB0223 		add	r3, r3, r2, lsl #8
 778 0026 9BB2     		uxth	r3, r3
 779 0028 C3EB4312 		rsb	r2, r3, r3, lsl #5
 780 002c 03EB8203 		add	r3, r3, r2, lsl #2
 781 0030 1B14     		asrs	r3, r3, #16
 782 0032 063B     		subs	r3, r3, #6
 783 0034 642B     		cmp	r3, #100
 784 0036 A8BF     		it	ge
 785 0038 6423     		movge	r3, #100
 786 003a 23EAE373 		bic	r3, r3, r3, asr #31
 787 003e 2380     		strh	r3, [r4]	@ movhi
 788              	.L18:
 789 0040 02B0     		add	sp, sp, #8
 790              		@ sp needed
 791 0042 10BD     		pop	{r4, pc}
 792              		.size	si70x0_readHumidity, .-si70x0_readHumidity
 793              		.section	.bss.timeout,"aw",%nobits
 794              		.align	2
 795              		.set	.LANCHOR0,. + 0
 796              		.type	timeout, %object
 797              		.size	timeout, 4
 798              	timeout:
 799 0000 00000000 		.space	4
 800              		.comm	__gnu_lto_v1,1,1
 801              		.ident	"GCC: (GNU Tools for ARM Embedded Processors) 4.8.4 20140526 (release) [ARM/embedded-4_8-br
ARM GAS  /tmp/ccVezpUf.s 			page 49


DEFINED SYMBOLS
                            *ABS*:0000000000000000 si70x0.c
     /tmp/ccVezpUf.s:567    .text.si70x0_transmit.constprop.0:0000000000000000 $t
     /tmp/ccVezpUf.s:572    .text.si70x0_transmit.constprop.0:0000000000000000 si70x0_transmit.constprop.0
     /tmp/ccVezpUf.s:603    .text.si70x0_transmit.constprop.0:0000000000000038 $d
     /tmp/ccVezpUf.s:606    .text.si70x0_init:0000000000000000 $t
     /tmp/ccVezpUf.s:612    .text.si70x0_init:0000000000000000 si70x0_init
     /tmp/ccVezpUf.s:630    .text.si70x0_init:0000000000000018 $d
     /tmp/ccVezpUf.s:633    .text.si70x0_stop:0000000000000000 $t
     /tmp/ccVezpUf.s:639    .text.si70x0_stop:0000000000000000 si70x0_stop
     /tmp/ccVezpUf.s:647    .text.si70x0_reset:0000000000000000 $t
     /tmp/ccVezpUf.s:653    .text.si70x0_reset:0000000000000000 si70x0_reset
     /tmp/ccVezpUf.s:669    .text.si70x0_setResolution:0000000000000000 $t
     /tmp/ccVezpUf.s:675    .text.si70x0_setResolution:0000000000000000 si70x0_setResolution
     /tmp/ccVezpUf.s:683    .text.si70x0_heaterEnable:0000000000000000 $t
     /tmp/ccVezpUf.s:689    .text.si70x0_heaterEnable:0000000000000000 si70x0_heaterEnable
     /tmp/ccVezpUf.s:697    .text.si70x0_setHeaterCurrent:0000000000000000 $t
     /tmp/ccVezpUf.s:703    .text.si70x0_setHeaterCurrent:0000000000000000 si70x0_setHeaterCurrent
     /tmp/ccVezpUf.s:711    .text.si70x0_readTemperature:0000000000000000 $t
     /tmp/ccVezpUf.s:717    .text.si70x0_readTemperature:0000000000000000 si70x0_readTemperature
     /tmp/ccVezpUf.s:750    .text.si70x0_readTemperature:000000000000004c $d
     /tmp/ccVezpUf.s:755    .text.si70x0_readHumidity:0000000000000000 $t
     /tmp/ccVezpUf.s:761    .text.si70x0_readHumidity:0000000000000000 si70x0_readHumidity
     /tmp/ccVezpUf.s:794    .bss.timeout:0000000000000000 $d
     /tmp/ccVezpUf.s:798    .bss.timeout:0000000000000000 timeout
                            *COM*:0000000000000001 __gnu_lto_v1
     /tmp/ccVezpUf.s:605    .text.si70x0_transmit.constprop.0:000000000000003c $t
     /tmp/ccVezpUf.s:632    .text.si70x0_init:000000000000001c $t
     /tmp/ccVezpUf.s:754    .text.si70x0_readTemperature:0000000000000058 $t

UNDEFINED SYMBOLS
i2cAcquireBus
i2cMasterTransmitTimeout
i2cReleaseBus
