ARM GAS  /tmp/ccl5dmDP.s 			page 1


   1              		.syntax unified
   2              		.cpu cortex-m4
   3              		.eabi_attribute 27, 3
   4              		.eabi_attribute 28, 1
   5              		.fpu fpv4-sp-d16
   6              		.eabi_attribute 20, 1
   7              		.eabi_attribute 21, 1
   8              		.eabi_attribute 23, 3
   9              		.eabi_attribute 24, 1
  10              		.eabi_attribute 25, 1
  11              		.eabi_attribute 26, 1
  12              		.eabi_attribute 30, 2
  13              		.eabi_attribute 34, 1
  14              		.eabi_attribute 18, 4
  15              		.thumb
  16              		.file	"si70x0.c"
  17              		.section	.gnu.lto_.jmpfuncs.be981cd2be8b9576,"",%progbits
  18 0000 789C6D8B 		.ascii	"x\234m\213\355\015\200 \014D\357Z\020Gq$W`\001&t#\303"
  18      ED0D8020 
  18      0C44EF5A 
  18      10477124 
  18      57600126 
  19 0017 5FE3A990 		.ascii	"_\343\251\220h\244I?r}\317`\030\325\326\366\214\024"
  19      68A4493F 
  19      727DCF60 
  19      18D5D6F6 
  19      8C14
  20 0029 023201C2 		.ascii	"\0022\001\3025\312\275\254\250WfrQ\346\366!\364b\354"
  20      35CABDAC 
  20      A8576672 
  20      51E6F621 
  20      F462EC
  21 003c 09485CA0 		.ascii	"\011H\\\240\035|\014cS\305\266D\207# b\362\277\267\277"
  21      1D7C0C63 
  21      53C5B644 
  21      87232062 
  21      F2BFB7BF 
  22 0050 BC2EC848 		.ascii	"\274.\310H\003\264\216Q\234A-\020S"
  22      03B48E51 
  22      9C412D10 
  22      53
  23              		.text
  24              		.section	.gnu.lto_.inline.be981cd2be8b9576,"",%progbits
  25 0000 789C6362 		.ascii	"x\234cb`b\300\006\236Bi\016 \022`dd`\004\262A*\331\026"
  25      6062C006 
  25      9E42690E 
  25      20126064 
  25      646004B2 
  26 0018 C88335B0 		.ascii	"\310\2035\260\36210\260L\360\003A\240\034;?\026%,\274"
  26      F23130B0 
  26      4CF00341 
  26      A01C3B3F 
  26      16252CBC 
  27 002c 403E4801 		.ascii	"@>H\001\023#\2670L\236\351\002?\\\001\273\000\320\034"
  27      1323B730 
  27      4C9EE902 
  27      3F5C01BB 
ARM GAS  /tmp/ccl5dmDP.s 			page 2


  27      00D01C
  28 003f A07E2060 		.ascii	"\240~ `f`fbD\325\215!\302\212!\302\306,&\0053X\374S"
  28      66606662 
  28      44D58D21 
  28      C28A21C2 
  28      C62C2605 
  29 0057 3D037B93 		.ascii	"=\003{\223\012\272\301\354\3142r0%\312\33763bS\303\000"
  29      0ABAC1EC 
  29      CC327230 
  29      25CADF36 
  29      336253C3 
  30 006c 00F75713 		.ascii	"\000\367W\023\250"
  30      A8
  31              		.text
  32              		.section	.gnu.lto_.pureconst.be981cd2be8b9576,"",%progbits
  33 0000 789C6362 		.ascii	"x\234cb`b\020d\200\000\016\006\011F\011&\011f\006\026"
  33      60621064 
  33      80000E06 
  33      09460926 
  33      09660616 
  34 0014 06560636 		.ascii	"\006V\0066)v)\000\007v\000\266"
  34      29762900 
  34      077600B6 
  35              		.text
  36              		.section	.gnu.lto_si70x0_init.be981cd2be8b9576,"",%progbits
  37 0000 789C5D8E 		.ascii	"x\234]\216\275j\002Q\020\205\317\231\335k,#\251\322"
  37      BD6A0251 
  37      1085CF99 
  37      DD6B2C23 
  37      A9D2
  38 0012 A5148464 		.ascii	"\245\024\204d;_ \217` \026\026q\011\313-\322(\204\340"
  38      3B5F208F 
  38      60201616 
  38      7109CB2D 
  38      D22884E0 
  39 0026 165E7FC0 		.ascii	"\026^\177\300\224\326\246\262M\241\017\220\306\027\210"
  39      94D6A6B2 
  39      4DA10F90 
  39      C61788
  40 0035 C1CE34E2 		.ascii	"\301\3164\342sl\243sw\021\304\20133p\347;\367\010\004"
  40      736CA373 
  40      7711C481 
  40      333370E7 
  40      3BF70804 
  41 0049 9775ABDA 		.ascii	"\227u\253\332\251nT\014@\231\256\201AYH\277\200\350"
  41      A96E540C 
  41      4099AE81 
  41      415948BF 
  41      80E8
  42 005b 0BFB4DE6 		.ascii	"\013\373M\346\267KY\355\017\207\305v\234\311\025\371"
  42      B74B59ED 
  42      0F87C576 
  42      9CC915F9 
  43 006b 46B5B344 		.ascii	"F\265\263D\250\033\2156on0vnz\007\3049\322\320\356}"
  43      A81B8D36 
  43      6F6E3076 
  43      6E7A07C4 
ARM GAS  /tmp/ccl5dmDP.s 			page 3


  43      39D2D0EE 
  44 0080 9EF45167 		.ascii	"\236\364Qg\360\213a6\372\371\227\027\316i\220PR\364"
  44      F08B6136 
  44      FAF99717 
  44      CE699050 
  44      52F4
  45 0092 D4A2866F 		.ascii	"\324\242\206o\247\325\262\344\027f\264\224\204|\326"
  45      A7D5B2E4 
  45      1766B494 
  45      847CD6
  46 00a1 19E4FFB6 		.ascii	"\031\344\377\266y\026\370\017\223U\255\340\201\024\231"
  46      7916F80F 
  46      9355ADE0 
  46      811499
  47 00b0 FB74D796 		.ascii	"\373t\327\226a\314\342(\361l\230\320x\334T5`\011\330"
  47      61CCE228 
  47      F16C98D0 
  47      78DC5435 
  47      6009D8
  48 00c3 60B05FCA 		.ascii	"`\260_\312\011*\252\241\200F\362\241+\217\035\373\376"
  48      092AAAA1 
  48      8046F2A1 
  48      2B8F1DFB 
  48      FE
  49 00d4 DAE93E74 		.ascii	"\332\351>tm=\372\210\356c\034\001{W7\365"
  49      6D3DFA88 
  49      EE631C01 
  49      7B5737F5 
  50              		.text
  51              		.section	.gnu.lto_si70x0_stop.be981cd2be8b9576,"",%progbits
  52 0000 789C5D50 		.ascii	"x\234]P;\212\002A\024\254z=\343\032*F\233\231/\250\231"
  52      3B8A0241 
  52      14AC7A3D 
  52      E31A2A46 
  52      9B992FA8 
  53 0015 17F0080A 		.ascii	"\027\360\010\012n\250\203\014\035\230(\210\354\004\266"
  53      6EA8830C 
  53      1D982888 
  53      EC04B6
  54 0024 3F3034D6 		.ascii	"?04\326hS\003\275\202\027\330]\304\013x\216\331@_\217"
  54      685303BD 
  54      8217D85D 
  54      C40B788E 
  54      D9405F8F 
  55 0038 ACC83EA8 		.ascii	"\254\310>\250~\025T\325+Z \370?\257\212\263\242\244"
  55      7E1554D5 
  55      2B5A20F8 
  55      3FAF8AB3 
  55      A2A4
  56 004a A00165FD 		.ascii	"\240\001e\375\015L\363Bz\002b\"\234\2743\323\036\344"
  56      0D4CF342 
  56      7A026222 
  56      9CBC33D3 
  56      1EE4
  57 005c 78B95EF7 		.ascii	"x\271^\367\351\"5/d\237\032g\211@\031s\312\274(\304"
  57      E922352F 
  57      649F1A67 
ARM GAS  /tmp/ccl5dmDP.s 			page 4


  57      89401973 
  57      CABC28C4 
  58 0070 C2B97519 		.ascii	"\302\271u\031\2102KS_\237\323\242\370m\2760K\347\277"
  58      88324B53 
  58      5F9FD3A2 
  58      F86DBE30 
  58      4BE7BF
  59 0083 27D3E127 		.ascii	"'\323\341'C\304\224\004\037\032\361\206\235\323I,e\213"
  59      43C49404 
  59      1F1AF186 
  59      9DD3492C 
  59      658B
  60 0095 0D2D4D4C 		.ascii	"\015-ML\266u\007\331\335.\237\012\377`y\014\377\374"
  60      B67507D9 
  60      DD2E9F0A 
  60      FF60790C 
  60      FFFC
  61 00a7 B904A95B 		.ascii	"\271\004\251[\271\202e\030\361\256\322\320\230\201\325"
  61      B9826518 
  61      F1AED2D0 
  61      9881D5
  62 00b6 4638810F 		.ascii	"F8\201\017\341\335\334T\221\366\360\337Pl\014\354\250"
  62      E1DDDC54 
  62      91F6F0DF 
  62      506C0CEC 
  62      A8
  63 00c7 37185687 		.ascii	"7\030V\207\266^\033\327*\021nP\3535\251"
  63      B65E1BD7 
  63      2A116E50 
  63      EB35A9
  64              		.text
  65              		.section	.gnu.lto_si70x0_reset.be981cd2be8b9576,"",%progbits
  66 0000 789C5D51 		.ascii	"x\234]Q=K\003A\020}o\357\303\213\205(\010\"X\210\255"
  66      3D4B0341 
  66      107D6FEF 
  66      C38B8528 
  66      08225888 
  67 0015 A829047F 		.ascii	"\250)\004\177\200\376\204\010\261\2141\204+\322\344"
  67      80FE8408 
  67      B18C3184 
  67      2BD2E4
  68 0024 828841B2 		.ascii	"\202\210A\262\361\003R\311\241M0U\260\322\306\302\306"
  68      F10352C9 
  68      A14D3055 
  68      B0D2C6C2 
  68      C6
  69 0035 32D8ABD8 		.ascii	"2\330\253\330\244Ngag\031$\347\354\255Jt`gv\230\267"
  69      A44E6761 
  69      671924E7 
  69      ECAD4A74 
  69      60677698 
  70 004a EFBD6115 		.ascii	"\357\275a\025\024\376\307\274\234\032\201\005\251t@"
  70      14FEC7BC 
  70      9C1A8105 
  70      A97440
  71 0059 153F03CD 		.ascii	"\025?\003\315@\221\346\002\242\241\330\330\241\201r"
  71      4091E602 
ARM GAS  /tmp/ccl5dmDP.s 			page 5


  71      A2A1D8D8 
  71      A18172
  72 0068 095DDDBB 		.ascii	"\011]\335\273\030\234\365\317\347\364@\307z\224$\014"
  72      189CF5CF 
  72      E7F440C7 
  72      7A94240C 
  73 0078 29A4B344 		.ascii	")\244\263D\221\310K\303 -\212\177U\356To\220$\2377\361"
  73      91C84BC3 
  73      202D8A7F 
  73      55EE546F 
  73      90249F37 
  74 008d 4AE0B042 		.ascii	"J\340\260B\270\010\351\370\222\\\031z8\325:^,\260+\012"
  74      B808E9F8 
  74      925C197A 
  74      38D53A5E 
  74      2CB02B0A 
  75 00a1 304C1239 		.ascii	"0L\0229\311\306\3016\225\251\316\023\216\037\332\375"
  75      C9C6C136 
  75      95A9CE13 
  75      8E1FDAFD 
  76 00b1 A902AFE9 		.ascii	"\251\002\257\351\301B\215\020F\006-\303\341\311\333"
  76      C1428D10 
  76      46062DC3 
  76      E1C9DB
  77 00c0 8763A765 		.ascii	"\207c\247e\272u\034\212\3002n\265\304\245\340\274\016"
  77      BA751C8A 
  77      C0326EB5 
  77      C4A5E0BC 
  77      0E
  78 00d1 AEA4F865 		.ascii	"\256\244\370e:\346\331D\352jw\334\345\013\332:\377C"
  78      3AE6D944 
  78      EA6A77DC 
  78      E50BDA3A 
  78      FF43
  79 00e3 E0D731D4 		.ascii	"\340\3271\324-=\0352(\322\242R\326\241\341;\012\231"
  79      2D3D1D32 
  79      28D2A252 
  79      D6A1E13B 
  79      0A99
  80 00f5 B10E2CDC 		.ascii	"\261\016,\334\032\261\373g\276;\310n\223\306\330\343"
  80      1AB1FB67 
  80      BE3BC86E 
  80      93C6D8E3 
  81 0105 BB1AF7BC 		.ascii	"\273\032\367\274\216{\335\262\000\274\242\331\363~\025"
  81      8E7BDDB2 
  81      00BCA2D9 
  81      F37E15
  82 0114 AD8B9CA8 		.ascii	"\255\213\234\250\311\272\346\237f\266\252\341~\251\032"
  82      C9BAE69F 
  82      66B6AAE1 
  82      7EA91A
  83 0123 AD45E146 		.ascii	"\255E\341F\366 \273ZDP-E\245\332fe\357\013\260v_\015"
  83      F620BB5A 
  83      44502D45 
  83      A5DA6665 
  83      EF0BB076 
  84              		.text
ARM GAS  /tmp/ccl5dmDP.s 			page 6


  85              		.section	.gnu.lto_si70x0_setResolution.be981cd2be8b9576,"",%progbits
  86 0000 789C6362 		.ascii	"x\234cb`b@\007\222@\034\001\304\302@\314\310\314\300"
  86      60624007 
  86      92401C01 
  86      C4C240CC 
  86      C8CCC0
  87 0013 C834E11C 		.ascii	"\3104\341\034\003C#\007\023##\210\301\300\310P\317\304"
  87      03432307 
  87      13232388 
  87      C1C0C850 
  87      CFC4
  88 0025 581FC908 		.ascii	"X\037\311\010V\273\236\351\300\203\377\377\327]h\275"
  88      56BB9EE9 
  88      C083FFFF 
  88      D75D68BD 
  89 0035 C5063288 		.ascii	"\305\0062\210\225\241\245\241a\202\002\003C2X:\004H"
  89      95A1A5A1 
  89      61820203 
  89      4332583A 
  89      0448
  90 0047 82F48432 		.ascii	"\202\364\20422\201h\346\213\014\215\017^q%2.dde\210"
  90      328168E6 
  90      8B0C8D0F 
  90      5E712532 
  90      2E646465 
  91 005c 60CC6484 		.ascii	"`\314d\204[\031\302\310\010R\0002B\320\245(\263,\265"
  91      5B19C2C8 
  91      08520032 
  91      42D0A528 
  91      B32CB5
  92 006f A858BF38 		.ascii	"\250X\2778\323\334\240\302@/\231\001\000\037\306\036"
  92      D3DCA0C2 
  92      402F9901 
  92      001FC61E 
  93 007f B5       		.ascii	"\265"
  94              		.text
  95              		.section	.gnu.lto_si70x0_heaterEnable.be981cd2be8b9576,"",%progbits
  96 0000 789C6362 		.ascii	"x\234cb`b@\007\222@\034\001\304\302@\314\310\314\300"
  96      60624007 
  96      92401C01 
  96      C4C240CC 
  96      C8CCC0
  97 0013 C834E11C 		.ascii	"\3104\341\034\003C#\007\023##\210\301\300\310P\317\304"
  97      03432307 
  97      13232388 
  97      C1C0C850 
  97      CFC4
  98 0025 581FC908 		.ascii	"X\037\311\010V\273\236\351\300\203\377\377\327}j}\304"
  98      56BB9EE9 
  98      C083FFFF 
  98      D77D6A7D 
  98      C4
  99 0036 0E328895 		.ascii	"\0162\210\225\241\245\241a\202\002\003C2X:\004H\202"
  99      A1A5A161 
  99      82020343 
  99      32583A04 
  99      4882
ARM GAS  /tmp/ccl5dmDP.s 			page 7


 100 0048 F4843232 		.ascii	"\364\20422\201h\346\213\014\215\017~s%2.dde\210`\314"
 100      8168E68B 
 100      0C8D0F7E 
 100      7325322E 
 100      64646588 
 101 005e 64845B19 		.ascii	"d\204[\031\302\310\010R\0002B\320\245(\263,\265\250"
 101      C2C80852 
 101      003242D0 
 101      A528B32C 
 101      B5A8
 102 0070 58BF38D3 		.ascii	"X\2778\323\334\240\302@/\231\001\0002\244\036\361"
 102      DCA0C240 
 102      2F990100 
 102      32A41EF1 
 103              		.text
 104              		.section	.gnu.lto_si70x0_setHeaterCurrent.be981cd2be8b9576,"",%progbits
 105 0000 789C6362 		.ascii	"x\234cb`b@\007\222@\034\015\304\302@\314\310\314\300"
 105      60624007 
 105      92401C0D 
 105      C4C240CC 
 105      C8CCC0
 106 0013 C834E11C 		.ascii	"\3104\341\034\003C#\007\023##\210\301\300\310P\317\304"
 106      03432307 
 106      13232388 
 106      C1C0C850 
 106      CFC4
 107 0025 581FC908 		.ascii	"X\037\311\010V\273\236\351\300\203\377\377\327M9\266"
 107      56BB9EE9 
 107      C083FFFF 
 107      D74D39B6 
 108 0035 A0979111 		.ascii	"\240\227\221\021d\024+CKC\303\004\005\006\206d\260\202"
 108      64142B43 
 108      4B43C304 
 108      05068664 
 108      B082
 109 0047 102009D2 		.ascii	"\020 \011\322\025\012\224\004\322\314\027\031\032\037"
 109      150A9404 
 109      D2CC1719 
 109      1A1F
 110 0055 F42C664C 		.ascii	"\364,fLd\\\310\310\312\020\301\230\311\010\2675\204"
 110      645CC8C8 
 110      CA10C198 
 110      C908B735 
 110      84
 111 0066 9111A402 		.ascii	"\221\021\244\002d\206\240KQfYjQ\261~q\246\271A\205\201"
 111      6486A04B 
 111      5166596A 
 111      51B17E71 
 111      A6B94185 
 112 007b 5E320300 		.ascii	"^2\003\000yG\037H"
 112      79471F48 
 113              		.text
 114              		.section	.gnu.lto_si70x0_readTemperature.be981cd2be8b9576,"",%progbits
 115 0000 789C8D54 		.ascii	"x\234\215TMHTQ\024>\347\276\367\346_\235\031\003\313"
 115      4D485451 
 115      143EE7BE 
 115      F7E65F9D 
ARM GAS  /tmp/ccl5dmDP.s 			page 8


 115      1903CB
 116 0013 A0C4459B 		.ascii	"\240\304E\233J%\203h\027\324\272\225B-\237&\362\012"
 116      4A258368 
 116      17D4BA95 
 116      422D9F26 
 116      F20A
 117 0025 2166A692 		.ascii	"!f\246\222\\x\3071\231Ba\212\026Y\004\212\204Z\324D"
 117      5C78C731 
 117      9942618A 
 117      1659048A 
 117      845AD444 
 118 0039 B319D26A 		.ascii	"\263\031\322j\222\220ZTDB\033\027\2633\012Z\324\316"
 118      92905A54 
 118      44421B17 
 118      B3330A5A 
 118      D4CE
 119 004b A2D739F7 		.ascii	"\242\3279\367\375\314\240A]\230{\337=\347\373\276s\336"
 119      FDCCA041 
 119      5D987BDF 
 119      3DE7FBBE 
 119      73DE
 120 005d 39E78D00 		.ascii	"9\347\215\000\001[\327!\372-\351\000\335t\242\001(\012"
 120      015BD721 
 120      FA2DE900 
 120      DD74A201 
 120      280A
 121 006f EF00B221 		.ascii	"\357\000\262!!\264\265N\220\021}y\017\310\230\206\272"
 121      21B4B54E 
 121      90117D79 
 121      0FC89886 
 121      BA
 122 0080 63D611F9 		.ascii	"c\326\021\371\001\020F\205\246\343\350id\015\243\035"
 122      01104685 
 122      A6E3E869 
 122      640DA31D 
 123 0090 6665A550 		.ascii	"fe\245P\275\262\361\031\263\2622>#\177\3316\242\205"
 123      BDB2F119 
 123      B3B2323E 
 123      237FD936 
 123      A285
 124 00a2 146F0742 		.ascii	"\024o\007B?\302)\272`\\\035bK\016\212{\243\362t5\372"
 124      3FC229BA 
 124      605C1D62 
 124      4B0E8A7B 
 124      A3F27435 
 125 00b7 58E6A56D 		.ascii	"X\346\245m\217Z\250\011h\251\321B\016\015\267\323d\241"
 125      8F5AA809 
 125      68A9D142 
 125      0E0DB7D3 
 125      64A1
 126 00c9 F26C756A 		.ascii	"\362luj\227\234\031+\310\337\024\321B]\300\336\032\263"
 126      979C192B 
 126      C8DF14D1 
 126      425DC0DE 
 126      1AB3
 127 00db CD61EA7F 		.ascii	"\315a\352\177e~\234\230\332)g\262\036\323\020\260\357"
 127      657E9C98 
ARM GAS  /tmp/ccl5dmDP.s 			page 9


 127      DA2967B2 
 127      1ED310B0 
 127      EF
 128 00ec 7F5225E6 		.ascii	"\177R%\346\247\211\311\356\272\230\001\001\035\377\212"
 128      A789C9EE 
 128      BA980101 
 128      1DFF8A
 129 00fb 591495AA 		.ascii	"Y\024\225\252m/\227\306Wv\267\3508\204`\200\205\301"
 129      6D2F97C6 
 129      5776B7E8 
 129      38846080 
 129      85C1
 130 010d 2098780F 		.ascii	" \230x\017\333!D\227P\230\266p\204\267(_c\374\324\300"
 130      DB214497 
 130      5098B670 
 130      84B7285F 
 130      63FCD4C0 
 131 0121 5B23A1E6 		.ascii	"[#\241\346\011\325D\227@\234\267\004oI2/\222\271\231"
 131      09D54497 
 131      409CB704 
 131      6F49322F 
 131      92B999
 132 0134 E4B83606 		.ascii	"\344\2706\006\214Srm&\316\222\321\3049\265\263:pn\264"
 132      8C53726D 
 132      26CE92D1 
 132      C439B5B3 
 132      3A706EB4 
 133 0148 7A68E7E6 		.ascii	"zh\347\346\365\242\340S{\013c\3452u\314\304\007\324"
 133      F5A2E053 
 133      7B0B63E5 
 133      3275CCC4 
 133      07D4
 134 015a 7887C1B9 		.ascii	"x\207\301\271k?\030N\336\315\334\317\311\223\216w\020"
 134      6B3F184E 
 134      DECDDCCF 
 134      C9938E77 
 134      10
 135 016b 8D11B84C 		.ascii	"\215\021\270L)\357\207\373\222V\211p\221;p\233\216\350"
 135      29EF87FB 
 135      92568970 
 135      913B709B 
 135      8EE8
 136 017d 20EA4C8B 		.ascii	" \352L\213\251\027\355\253o\323{\270%\313\232\247\020"
 136      A917EDAB 
 136      6FD37BB8 
 136      25CB9AA7 
 136      10
 137 018e 1C814DEA 		.ascii	"\034\201M\352p\334\302\206~t`Jv\223\005\357\222B\243"
 137      70DCC286 
 137      7E74604A 
 137      769305EF 
 137      9242A3
 138 01a1 9735E39D 		.ascii	"\2275\343\235T\020\\\377\365\200\205M\336\273\325\374"
 138      54105CFF 
 138      F580854D 
 138      DEBBD5FC 
 139 01b1 822A1107 		.ascii	"\202*\021\007x\015\2576^\276X\255\205bg\242\276\001"
ARM GAS  /tmp/ccl5dmDP.s 			page 10


 139      780DAF36 
 139      5EBE58AD 
 139      856267A2 
 139      BE01
 140 01c3 BDA8C15A 		.ascii	"\275\250\301Z'\277\363z\371KU\367\2135\257\004\027U"
 140      27BFF37A 
 140      F94B55F7 
 140      8B35AF04 
 140      1755
 141 01d5 995C614E 		.ascii	"\231\\aN+t\020\016\220\274\023\220\305\302uZ$\362-\367"
 141      2B74100E 
 141      90BC1390 
 141      C5C2755A 
 141      24F22DF7 
 142 01e9 5C98F844 		.ascii	"\\\230\370D\005\013\023\234\215\271\207\232g\212\220"
 142      050B139C 
 142      8DB9879A 
 142      678A90
 143 01f8 55B1420E 		.ascii	"U\261B\016|\275\320\352\271\242\333\224q\213\362w_9"
 143      7CBDD0EA 
 143      B9A2DB94 
 143      718BF277 
 143      5F39
 144 020a 4670A59C 		.ascii	"Fp\245\234\367\225\033\224x\314\205\236\365\314\215"
 144      F7951B94 
 144      78CC859E 
 144      F5CC8D
 145 0219 E451B685 		.ascii	"\344Q\266\205\\q\352\250gm\"\207\342_\363\371q\262\266"
 145      5C71EAA8 
 145      676D2287 
 145      E25FF3F9 
 145      71B2B6
 146 022c C234F5A1 		.ascii	"\3024\365\241p\014\200+++7\327\213<\306\340@s\217\374"
 146      700C802B 
 146      2B2B37D7 
 146      8B3CC6E0 
 146      40738FFC 
 147 0240 F809C2BB 		.ascii	"\370\011\302\273\340\274M\263\356\022x\325\010Ws}\036"
 147      E0BC4DB3 
 147      EE1278D5 
 147      0857737D 
 147      1E
 148 0251 3E491417 		.ascii	">I\024\027\337\345\211O\227\226|\354\330\233\205s\016"
 148      DFE5894F 
 148      97967CEC 
 148      D89B8573 
 148      0E
 149 0262 9646274B 		.ascii	"\226F'K^\203<\203\330\314eH\272\003\221\364\372\245"
 149      5E833C83 
 149      D8CC6548 
 149      BA0391F4 
 149      FAA5
 150 0274 BB43BAF2 		.ascii	"\273C\272\362Ux\023\312%;\014%\231\347\277\026\245X"
 150      557813CA 
 150      253B0C25 
 150      99E7BF16 
 150      A558
ARM GAS  /tmp/ccl5dmDP.s 			page 11


 151 0286 E79CAB73 		.ascii	"\347\234\253sj\344\374\000\331jq\016\375\221pt{h\362"
 151      6AE4FC00 
 151      D96A710E 
 151      FD917074 
 151      7B68F2
 152 0299 48973FEC 		.ascii	"H\227?\354\304\211\224uq \225\356L[G\272\206\273:\372"
 152      C4899475 
 152      712095EE 
 152      4C5B47BA 
 152      86BB3AFA 
 153 02ad 41A48683 		.ascii	"A\244\206\203\231\201\241\363\307\207\316\004\322\031"
 153      9981A1F3 
 153      C787CE04 
 153      D219
 154 02bb 3373211D 		.ascii	"3s!\035L\231\227z\310b(\363\037\303\017/\371"
 154      4C99977A 
 154      C86228F3 
 154      1FC30F2F 
 154      F9
 155              		.text
 156              		.section	.gnu.lto_si70x0_readHumidity.be981cd2be8b9576,"",%progbits
 157 0000 789C8D54 		.ascii	"x\234\215TMHTQ\024>\347\276yo\306q\324\031\3772\311"
 157      4D485451 
 157      143EE7BE 
 157      796FC671 
 157      D419FF32 
 158 0015 1009827E 		.ascii	"\020\011\202~\034\027A\265\256\205mZ\210B\265\2334\364"
 158      1C1741B5 
 158      AE856D5A 
 158      8842B59B 
 158      34F4
 159 0027 2D0C99B1 		.ascii	"-\014\231\261\222\\x\307\021\234\302d0\002+DEB\355\207"
 159      925C78C7 
 159      119CC264 
 159      30022B44 
 159      4542ED87 
 160 003b 421719B6 		.ascii	"B\027\031\266\030#\230 *\0037\201\201\033KHR\214ZH\365"
 160      18239820 
 160      2A033781 
 160      811B4B48 
 160      528C5A48 
 161 0050 3AE7FDCC 		.ascii	":\347\375\314LZ\324\2039\367\235s\276\357;\347\336s"
 161      4C5AD483 
 161      39F79D73 
 161      BEEF3BE7 
 161      DE73
 162 0062 DF0810B0 		.ascii	"\337\010\020\260\3659C\277\026\025 H+z\000E\3425@\324"
 162      F53943BF 
 162      16152048 
 162      2B7A0045 
 162      E23540D4 
 163 0076 2384B210 		.ascii	"#\204\262\020\004\351u?\335\015\322\247\010\255\257"
 163      04E9753F 
 163      DD0DD2A7 
 163      08ADAF
 164 0085 843C57CF 		.ascii	"\204<W\317Q\362\\B\215\357%Oc\353SQ\263(\032\272\255"
 164      51F25C42 
ARM GAS  /tmp/ccl5dmDP.s 			page 12


 164      8DEF254F 
 164      63EB5351 
 164      B3281ABA 
 165 009a 173722BF 		.ascii	"\0277\"\277\000B\227P\\\252\346\306\256\323\310\265"
 165      00429750 
 165      5CAAE6C6 
 165      AED3C8B5 
 166 00aa D42A1895 		.ascii	"\324*\030\225\311\304\322\362\332\012Fe\262gD~7\014"
 166      C9C4D2F2 
 166      DA0A4665 
 166      B267447E 
 166      370C
 167 00bc 441DA9AF 		.ascii	"D\035\251\257b\204F\204S\344\240\337\\\304\226^M\356"
 167      62844684 
 167      53E4A0DF 
 167      5CC4965E 
 167      4DEE
 168 00ce 403291CA 		.ascii	"@2\221\312}$\343\3220\272tT\004\354\310\320<\026\015"
 168      7D24E3D2 
 168      30BA7454 
 168      04ECC8D0 
 168      3C160D
 169 00e1 B7D36422 		.ascii	"\267\323d\"y=um\247\034\351N\310\237TQG\227\200\212"
 169      793D756D 
 169      A71CE94E 
 169      C89F5451 
 169      4797808A 
 170 00f5 0CB3D262 		.ascii	"\014\263\322b\272\376\300\034H\016\366\372\346\235\202"
 170      BAFEC01C 
 170      480EF6FA 
 170      E69D82
 171 0104 AA803DFF 		.ascii	"\252\200=\377\323'\025\034\352}\211r@F\327\015\243@"
 171      D327151C 
 171      EA7D8972 
 171      4046D70D 
 171      A340
 172 0116 474DC0BE 		.ascii	"GM\300\276\177\325{(\222K\206\261\372\270g\243\242\034"
 172      7FD57B28 
 172      924B86B1 
 172      FAB867A3 
 172      A21C
 173 0128 21849358 		.ascii	"!\204\223X\005*\266\"h\240\243\333C\221;\024\311!\307"
 173      052AB622 
 173      68A0A3DB 
 173      43913B14 
 173      C921C7
 174 013b E3259393 		.ascii	"\343%\223\223\313\306\307n\036\277\345\023`\234\000"
 174      CBC6C76E 
 174      1EBFE513 
 174      609C00
 175 014a 05E4687E 		.ascii	"\005\344h~2\336\000\233B6El\212m\315\022vJI\230OJ\205"
 175      32DE009B 
 175      4236456C 
 175      8A6DCD12 
 175      764A4998 
 176 0161 1EEAB632 		.ascii	"\036\352\2662\204\243\224\011\341\230i\271\016p\267"
 176      84A39409 
ARM GAS  /tmp/ccl5dmDP.s 			page 13


 176      E19869B9 
 176      0E70B7
 177 0170 F4D493E5 		.ascii	"\364\324\223\345i6\240\340Uy\005\3353\203\033+\030\302"
 177      6936A0E0 
 177      557905DD 
 177      33831B2B 
 177      18C2
 178 0182 7BA8DA0C 		.ascii	"{\250\332\014\336\215\362\225\341\224\335\214\215\367"
 178      DE8DF295 
 178      E194DD8C 
 178      8DF7
 179 0190 9FB4B2CD 		.ascii	"\237\264\262\315\250u\302ej~?\334\225\364L\023.\367"
 179      A875C265 
 179      6A7E3FDC 
 179      95F44C13 
 179      2EF7
 180 01a2 36DCA2C5 		.ascii	"6\334\242\305\327\214*\323\362\314\255\237\315\036\332"
 180      D78C2AD3 
 180      F2CCAD9F 
 180      CD1EDA
 181 01b1 1B189433 		.ascii	"\033\030\2243\212\243\340\351\204M:~\277\216\371\215"
 181      8AA3E0E9 
 181      844D3A7E 
 181      BF8EF98D 
 182 01c1 68C14CD9 		.ascii	"h\301L\331M\026\034\"\205\002\247k\306[\255 \330\371"
 182      4D161C22 
 182      8502A76B 
 182      C65BAD20 
 182      D8F9
 183 01d3 1FE4F99D 		.ascii	"\037\344\371\235\275e\362\202N \000\360\002\236\177"
 183      BD65F282 
 183      4E2000F0 
 183      029E7F
 184 01e2 9CBB91CA 		.ascii	"\234\273\221\312\224\342da\366H\032P\201\205 \357yq"
 184      94E26461 
 184      F6481A50 
 184      818520EF 
 184      7971
 185 01f4 F0CBBA48 		.ascii	"\360\313\272H\037\326\270)8i\036\223-\314m\345\034\204"
 185      1FD6B829 
 185      38691E93 
 185      2DCC6DE5 
 185      1C84
 186 0206 03246F15 		.ascii	"\003$o\025d1-K\213D>\307\316\207p\312\254\345%4\307"
 186      64312D4B 
 186      8B443EC7 
 186      CE8770CA 
 186      ACE52534 
 187 021b 620F1427 		.ascii	"b\017\024'\224KQ&\251\036\013\2758_\350\244|\333\204"
 187      944B5126 
 187      A91E0BBD 
 187      385FE8A4 
 187      7CDB84
 188 022e F16FC279 		.ascii	"\361o\302y\2046\205\343i\341|S;\317F\316\366W;\211\002"
 188      843685E3 
 188      69E17C53 
 188      3BCF46CE 
ARM GAS  /tmp/ccl5dmDP.s 			page 14


 188      F6573B89 
 189 0243 CA99D189 		.ascii	"\312\231\321\2114\326OQ\223~5\035\012P\264\034n\322"
 189      34D64F51 
 189      937E351D 
 189      0A50B41C 
 189      6ED2
 190 0255 10124700 		.ascii	"\020\022G\000\244\375lR\027^\260\240\261o\350\200\013"
 190      A4FD6C52 
 190      175EB0A0 
 190      B16FE880 
 190      0B
 191 0266 096F83E3 		.ascii	"\011o\203\343\006}j\031\202\314\020\256\304\246\204"
 191      067D6A19 
 191      82CC10AE 
 191      C4A684
 192 0275 4328228E 		.ascii	"C(\"\216M(\313\200\223ip\367p\254\334\301\026\023\334"
 192      4D28CB80 
 192      936970F7 
 192      70ACDCC1 
 192      1613DC
 193 0288 1CDBF2DC 		.ascii	"\034\333\362\334poZ\241x\353I\323\330\\\260\\\245\020"
 193      706F5AA1 
 193      78EB49D3 
 193      D85CB05C 
 193      A510
 194 029a F0C3DC74 		.ascii	"\360\303\334t\312\367;\260)\013XO\361\251\200\322@t"
 194      CAF73BB0 
 194      290B584F 
 194      F1A980D2 
 194      4074
 195 02ac 6BCC13B1 		.ascii	"k\314\023\261\265\376]\016\276\244\231/\034EOX\021\272"
 195      B5FE5D0E 
 195      BEA4992F 
 195      1C454F58 
 195      11BA
 196 02be B951EA4D 		.ascii	"\271Q\352M\325yz\245,Vd\337\307\022^\336\001\332\235"
 196      D5797AA5 
 196      2C5664DF 
 196      C7125EDE 
 196      01DA9D
 197 02d1 287DB36D 		.ascii	"(}\263mT\316\265\372\244\314.\251\336\237m\343\276\334"
 197      54CEB5FA 
 197      A4CC2EA9 
 197      DE9F6DE3 
 197      BEDC
 198 02e3 F637F4EC 		.ascii	"\3667\364\354\223p> \036\351!\230\226q\376\0374\267"
 198      93703E20 
 198      1EE92198 
 198      9671FE1F 
 198      34B7
 199 02f5 9C951CCB 		.ascii	"\234\225\034\313J*\224|\013\321\245\367c\230\276\261"
 199      4A2A947C 
 199      0BD1A5F7 
 199      6398BEB1 
 200 0305 CE369075 		.ascii	"\3166\220u\371\217(p<\254_<\027\216\004#\372\341\232"
 200      F98F2870 
 200      3CAC5F3C 
ARM GAS  /tmp/ccl5dmDP.s 			page 15


 200      178E0423 
 200      FAE19A
 201 0318 8E9AEA46 		.ascii	"\216\232\352F\020\341\0165\334r\254\265I\213\264\207"
 201      10E10E35 
 201      DC72ACB5 
 201      498BB487 
 202 0328 DA2F44D4 		.ascii	"\332/D\324p\350R]\255\332\326\330^W\373\013`\216W_"
 202      70E8525D 
 202      ADDAD6D8 
 202      5E57FB0B 
 202      608E575F 
 203              		.text
 204              		.section	.gnu.lto_.symbol_nodes.be981cd2be8b9576,"",%progbits
 205 0000 789C4DC7 		.ascii	"x\234M\307\311\015\203@\020D\321\352\032\314\226t\261"
 205      C90D8340 
 205      1044D1EA 
 205      1ACC9674 
 205      B1
 206 0011 D880E142 		.ascii	"\330\200\341B\004\\\034\012WD\014Db!k\220\351\177\371"
 206      045C1C0A 
 206      57440C44 
 206      62216B90 
 206      E97FF9
 207 0024 7A04B1E1 		.ascii	"z\004\261\341\2125\005\314; -\203\261\241\314\261\245"
 207      8A3505CC 
 207      3B202D83 
 207      B1A1CCB1 
 207      A5
 208 0035 E8F8A482 		.ascii	"\350\370\244\202\343\213J\034;\352\341\330S\251\343"
 208      E38B4A1C 
 208      3BEAE1D8 
 208      53A9E3
 209 0044 406537ED 		.ascii	"@e7\355M\345\221Ue6R\305\255\211*\377\012\310\3619\276"
 209      4DE59155 
 209      653652C5 
 209      AD892AFF 
 209      0AC8F139 
 210 0059 16AC8867 		.ascii	"\026\254\210g\211\365\367\364z\026\217\023\330\364>"
 210      89F5F7F4 
 210      7A168F13 
 210      D8F43E
 211 0068 52       		.ascii	"R"
 212              		.text
 213              		.section	.gnu.lto_.refs.be981cd2be8b9576,"",%progbits
 214 0000 789C6362 		.ascii	"x\234cb`b`d\200\002\000\000F\000\006"
 214      60626064 
 214      80020000 
 214      460006
 215              		.text
 216              		.section	.gnu.lto_.decls.be981cd2be8b9576,"",%progbits
 217 0000 789CBD5C 		.ascii	"x\234\275\\yt\024\307\231\357\356\031$\015\222\305e"
 217      797414C7 
 217      99EFEE19 
 217      240D92C5 
 217      65
 218 0011 3B38F17B 		.ascii	";8\361{\236\354:k^\022\243\003\302\361\274k\003\222"
 218      9EEC3A6B 
ARM GAS  /tmp/ccl5dmDP.s 			page 16


 218      5E12A303 
 218      C2F1BC6B 
 218      0392
 219 0023 B0F496EB 		.ascii	"\260\364\226\353I\"1\373^v\334hZhbI\243\364\264@\374"
 219      492231FB 
 219      5E76DC68 
 219      5A686249 
 219      A3F4B440 
 220 0038 B12F8D30 		.ascii	"\261/\2150\212\301\006\313\022\230\303\\\216\271lcb"
 220      8AC106CB 
 220      1298C35C 
 220      8EB96C63 
 220      62
 221 0049 99C388E5 		.ascii	"\231\303\210\345\030\300\200\000\033\201e\016\011c\306"
 221      18C08000 
 221      1B81650E 
 221      0963C6
 222 0058 59C01C71 		.ascii	"Y\300\034q\026\260e.#m\325\327\335\323\325\255\356\231"
 222      16B0652E 
 222      236DD5D7 
 222      DDD3D5AD 
 222      EE99
 223 006a EA89B3F3 		.ascii	"\352\211\263\363^\325T\327T\375\352;\353\253\252.\211"
 223      5ED554D7 
 223      54FDEA3B 
 223      EBABAA2E 
 223      89
 224 007b 6338E673 		.ascii	"c8\346s\216a\272\321\347\302\263\014s!\205a<\014\303"
 224      8E61BAD1 
 224      E7C2B30C 
 224      73218561 
 224      3C0CC3
 225 008e 3C8D921B 		.ascii	"<\215\222\033\2457QJFi+J\375P;\374IE\251?*?\201\322"
 225      A537514A 
 225      46692B4A 
 225      FD503BFC 
 225      4945A93F 
 226 00a6 109446A2 		.ascii	"\020\224F\2424\006\245|\224&\240\364\033\224~\213\222"
 226      3406A57C 
 226      9426A0F4 
 226      1B947E8B 
 226      92
 227 00b7 80D2EFD4 		.ascii	"\200\322\357\324>\344\007\367\305\230\317s\012\376\303"
 227      3EE407F7 
 227      C598CF73 
 227      0AFEC3
 228 00c6 E8FB2194 		.ascii	"\350\373!\224D\265\376?\3217\213\276\177\202\2769\265"
 228      44B5FE3F 
 228      D1378BBE 
 228      7F82BE39 
 228      B5
 229 00d7 3DC673A1 		.ascii	"=\306s\241\262\027}\377\023J\217\233p\237 0kY#n\010"
 229      B2177DFF 
 229      134A8F9B 
 229      709F2030 
 229      6B59236E 
 230 00ec A55213E6 		.ascii	"\245R\023\346\023*}\270\234\201\262L\023\036\346+U\345"
ARM GAS  /tmp/ccl5dmDP.s 			page 17


 230      132A7DB8 
 230      9C81B24C 
 230      131EE62B 
 230      55E5
 231 00fe 3B1DA534 		.ascii	";\035\2454\033l\211S\344\362\202\011\177\210\312;\256"
 231      1B6C8953 
 231      E4F28209 
 231      7F88CA3B 
 231      AE
 232 010f 1B6EC21E 		.ascii	"\033n\302\036\251\326c,\374a\325:\363g\214E\2731\026"
 232      A9D6632C 
 232      FC61D53A 
 232      F3678C45 
 232      BB3116
 233 0122 EDF22DDA 		.ascii	"\355\362-\332\345[\264\303\272\031\200\276\2539\235"
 233      E55BB4C3 
 233      BA1980BE 
 233      AB399D
 234 0131 A7AD6ABF 		.ascii	"\247\255j\277\031\250n\260\312#\356\257\351\336\314"
 234      19A86EB0 
 234      CA23EEAF 
 234      E9DECC
 235 0140 E77FA9BC 		.ascii	"\347\177\251\274&\241\337\2061F\236'\250<\343r\021\312"
 235      26A1DF86 
 235      31469E27 
 235      A83CE372 
 235      11CA
 236 0152 8A4D3460 		.ascii	"\212M4`\273x\320f\374\235\2542\2466>\326\365\340\004"
 236      BB78D066 
 236      FC9DAC32 
 236      A6363ED6 
 236      F5E004
 237 0165 68F80D41 		.ascii	"h\370\015A\303\024\224\375\207\211\206\376\314k2\372"
 237      C31494FD 
 237      878986FE 
 237      CC6B32FA 
 238 0175 785B1001 		.ascii	"x[\020\001\317\261<\233\356a\236\207B\232\007\350\371"
 238      CFB13C9B 
 238      EE619E87 
 238      429A07E8 
 238      F9
 239 0186 19B34696 		.ascii	"\031\263F\226\353#s^f\275<\373&\333\037\001\015d\231"
 239      EB23735E 
 239      66BD3CFB 
 239      26DB1F01 
 239      0D6499
 240 0199 9F336FA3 		.ascii	"\2373o\243N\365\262\\;\240\247X\343b2\014\317\256EP"
 240      4EF5B25C 
 240      3BA0A758 
 240      E362320C 
 240      CFAE4550 
 241 01ad 3CBB86FD 		.ascii	"<\273\206\375\2712\202\034\336\345\367*\265\214Zo\361"
 241      B932821C 
 241      DEE5F72A 
 241      B58C5A6F 
 241      F1
 242 01be F929B31A 		.ascii	"\371)\263\032\015\031>\261\245\231\225\353\322\222\231"
ARM GAS  /tmp/ccl5dmDP.s 			page 18


 242      0D193EB1 
 242      A59995EB 
 242      D29299
 243 01cd 3AF42447 		.ascii	":\364$G\346\324\016\\\242\217\224\242\215\304F\251\017"
 243      E6D40E5C 
 243      A28F94A2 
 243      8DC446A9 
 243      0F
 244 01de 37A7703C 		.ascii	"7\247p<\273\201MF\304\377\2025\300S``z\336E}\015\324"
 244      BB814D46 
 244      C4FF8235 
 244      C0536060 
 244      7ADE457D 
 245 01f4 36B939A5 		.ascii	"6\2719\2456\006\265.\006\344\376\024\013hn\217^\225"
 245      3606B52E 
 245      06E4FE14 
 245      0B686E8F 
 245      5E95
 246 0206 1BAD6289 		.ascii	"\033\255b\211\206\005\321ZMG\370\221\365\350\205n\326"
 246      8605D15A 
 246      4D47F891 
 246      F5E8856E 
 246      D6
 247 0217 30004917 		.ascii	"0\000I\027\317nd\177\206\362\367X\227e7\216\231\300"
 247      CF6E647F 
 247      86F2F758 
 247      9765378E 
 247      99C0
 248 0229 AA62B762 		.ascii	"\252b\267bR-\352\303\246k\017\232\320\333\276\335\216"
 248      522DEAC3 
 248      A66B0F9A 
 248      D0DBBEDD 
 248      8E
 249 023a 85EE615E 		.ascii	"\205\356a^\002\201\255\225\343\010=\322^\367\336/d9"
 249      0281AD95 
 249      E3083DD2 
 249      5EF7DE2F 
 249      6439
 250 024c 8567B7B2 		.ascii	"\205g\267\262\230\243\231F\301\323\3434\316[9\002p\266"
 250      98A39946 
 250      C1D3E334 
 250      CE5B3902 
 250      70B6
 251 025e 03CE36D6 		.ascii	"\003\3166\326\010\244\262J\010\005=k\015\342\0120N["
 251      08A4B24A 
 251      08053D6B 
 251      0DE20A30 
 251      4E5B
 252 0270 8E09B34E 		.ascii	"\216\011\263N\305\226B\212-r`\336\302G\344\325\373\330"
 252      C596428A 
 252      2D7260DE 
 252      C247E4D5 
 252      FBD8
 253 0282 54661EE6 		.ascii	"Tf\036\346wu\235\234\337\222n\341 a\227\0066Bg\275\351"
 253      77759D9C 
 253      DF926EE1 
 253      20619706 
ARM GAS  /tmp/ccl5dmDP.s 			page 19


 253      364267BD 
 254 0297 D8C975EC 		.ascii	"\330\311u\354lYF?\354\006\327\233\317\031\231\217\013"
 254      6C59463F 
 254      EC06D79B 
 254      CF19998F 
 254      0B
 255 02a8 C4B36196 		.ascii	"\304\263a\226C\371^\263\273\335X\226&\273\225\372\370"
 255      43F95EB3 
 255      BBDD5896 
 255      26BB95FA 
 255      F8
 256 02b9 0E77A763 		.ascii	"\016w\247c\345\217\344H\230\245\366\270\310\371OOg\201"
 256      E58FE448 
 256      98A5F6B8 
 256      C8F94F4F 
 256      6781
 257 02cb D23E02AF 		.ascii	"\322>\002\257;\302%\344v\207\314nw\242\256\017\246\372"
 257      3BC225E4 
 257      7687CC6E 
 257      77A2AE0F 
 257      A6FA
 258 02dd 1095E39D 		.ascii	"\020\225\343\235\344zz^\204\263t\275+\234\321\367\324"
 258      E47A7A5E 
 258      84B374BD 
 258      2B9CD1F7 
 258      D4
 259 02ee EA6FF46A 		.ascii	"\352o\364j\027Q=\313\025\255v\023\325\257\352\325\275"
 259      17513DCB 
 259      15AD7613 
 259      D5AFEAD5 
 259      BD
 260 02ff 08938869 		.ascii	"\010\223\210i\177\207\010\007n\001\007>l\343\300<\273"
 260      7F870807 
 260      6E01073E 
 260      6CE3C03C 
 260      BB
 261 0310 39AAC984 		.ascii	"9\252\311\204<8\322\264\340\302%\266q\266\334\222ie"
 261      3C38D2B4 
 261      E0C225B6 
 261      71B6DC92 
 261      6965
 262 0322 8CA8091B 		.ascii	"\214\250\011\033;\010\204wu\260\336xs;\317\236Al\320"
 262      3B088477 
 262      75B0DE78 
 262      733BCF9E 
 262      416CD0
 263 0335 44800EB3 		.ascii	"D\200\016\263I\256\350\000\223\354\2402\311\246\216"
 263      49AEE800 
 263      93ECA032 
 263      C9A68E
 264 0344 45CE4C32 		.ascii	"E\316L2|\3434\016a\347\300\036\227\271\022\262\307\210"
 264      7CE3340E 
 264      61E7C01E 
 264      97B912B2 
 264      C788
 265 0356 D91EDB17 		.ascii	"\331\036\333\027\203=F\250\354q\235\213\260=\265\256"
 265      833D46A8 
ARM GAS  /tmp/ccl5dmDP.s 			page 20


 265      EC719D8B 
 265      B03DB5AE 
 266 0366 C9656978 		.ascii	"\311eix\007\\F\303\2431\245\010aJ_\202)\375\3056\026"
 266      075C46C3 
 266      A331A508 
 266      614A5F82 
 266      29FDC536 
 267 037b 9C06FE3B 		.ascii	"\234\006\376;\022\016\006\233;\026\301\254\246\316\342"
 267      120E069B 
 267      3B16C1AC 
 267      A6CEE2
 268 038a 8A2145DB 		.ascii	"\212!E\333z5\0047CD\203\003{\331Z\230\312\256\302<~"
 268      7A350437 
 268      43448303 
 268      7BD95A98 
 268      CAAEC23C 
 269 039f DE651910 		.ascii	"\336e\031\020(\240\032\347\355\034\011s\313\327\000"
 269      28A01AE7 
 269      ED1C0973 
 269      CBD700
 270 03ae 74D9650E 		.ascii	"t\331e\016\010\311\246\200\220l\234\344\223=z\001/\363"
 270      08C9A680 
 270      906C9CE4 
 270      933D7A01 
 270      2FF3
 271 03c0 FB304E9B 		.ascii	"\3730N\233\243\231\301,@\003\241V\002\364\222\002D\276"
 271      A399C12C 
 271      4003A156 
 271      02F49202 
 271      44BE
 272 03d2 786C1B7B 		.ascii	"xl\033{\263V^\222Io\300\215\035\330\200o\202\001w'f"
 272      B3565E92 
 272      496FC08D 
 272      1DD8806F 
 272      82017727 
 273 03e7 C09D6603 		.ascii	"\300\235f\003\276\247\030p'\225\001/p\3674\340\025n"
 273      BEA71870 
 273      2795012F 
 273      70F734E0 
 273      156E
 274 03f9 4B03FEB3 		.ascii	"K\003\376\263\333\271\001w\022\006\374\035\030\360-"
 274      DBB90177 
 274      1206FC1D 
 274      18F02D
 275 0408 5B03FEC8 		.ascii	"[\003\376\310Ma\300)\026\006L\214\247\214t\026F\372"
 275      4D61C029 
 275      16064C8C 
 275      A78C7416 
 275      46FA
 276 041a 9CFD29CA 		.ascii	"\234\375)\312\257@~\003\345\321\017\307\264\272\315"
 276      AF407E03 
 276      E5D10FC7 
 276      B4BACD
 277 0429 F6A5CC50 		.ascii	"\366\245\314P\004\222>\2251\261\260\254L\005w8\305\246"
 277      04923E95 
 277      31B1B0AC 
 277      4C057738 
ARM GAS  /tmp/ccl5dmDP.s 			page 21


 277      C5A6
 278 043b EAC3B5C3 		.ascii	"\352\303\265\303p{\023\265\254\360\322\263+\235\271"
 278      707B13B5 
 278      ACF0D2B3 
 278      2B9DB9
 279 044a 6678CFE2 		.ascii	"fx\317\342\207\260\015\314\342\260\012#=\270\275j^_"
 279      87B00DCC 
 279      E2B00A23 
 279      3DB8BD6A 
 279      5E5F
 280 045c D1F8C735 		.ascii	"\321\370\3075\032.\254\364\003\\\310\341\315gW\262\230"
 280      1A2EACF4 
 280      035CC8E1 
 280      CD6757B2 
 280      98
 281 046d 0B8B4022 		.ascii	"\013\213@\"\263Z\377\276Q\036\"'\277\272|I\235^\352"
 281      B35AFFBE 
 281      511E2227 
 281      BFBA7C49 
 281      9D5EEA
 282 0480 38BC525A 		.ascii	"8\274RZ\327+\356J\311\010\3041\233\240\313\\\316\024"
 282      D72BEE4A 
 282      C908C431 
 282      9BA0CB5C 
 282      CE14
 283 0492 963A79AF 		.ascii	"\226:y\257R\033/(\311\341[\027=rC\232\305P\243H\226"
 283      521B2F28 
 283      C9E15B17 
 283      3D72439A 
 283      C550A348 
 284 04a7 B519F15A 		.ascii	"\265\031\361Z\344\221\303\262\334\227g\347\003\305_"
 284      E491C3B2 
 284      DC9767E7 
 284      03C55F
 285 04b6 5B53BC7A 		.ascii	"[S\274z\224\035\016\307\334\207.\365&\212#\273n\266"
 285      941D0EC7 
 285      DC872EF5 
 285      268A23BB 
 285      6EB6
 286 04c8 FC780920 		.ascii	"\374x\011 \327S\220]\033>Y\267\202j\215\272\332\255"
 286      D753905D 
 286      1B3E59B7 
 286      826A8DBA 
 286      DAAD
 287 04da 0D9FABB3 		.ascii	"\015\237\253\263q\346Zx \314\306\213\200\213\375Iq\345"
 287      71E65A78 
 287      20CCC68B 
 287      808BFD49 
 287      71E5
 288 04ec 6E84E198 		.ascii	"n\204\341\230\217\241\313\222\236\\D~\242p\261\204\212"
 288      8FA1CB92 
 288      9E5C447E 
 288      A270B184 
 288      8A
 289 04fd 8B7B2A17 		.ascii	"\213{*\027<\273\220KE\260\247\242\260\264\216d\304\353"
 289      3CBB904B 
 289      45B0A7A2 
ARM GAS  /tmp/ccl5dmDP.s 			page 22


 289      B0B48E64 
 289      C4EB
 290 050f 3A9856CF 		.ascii	":\230V\317k`\347\034\203y\015`\215\207\226;\014\230"
 290      6B60E71C 
 290      83790D60 
 290      8D87963B 
 290      0C98
 291 0521 4B6F5D7E 		.ascii	"Ko]~d\027\260\277\032\034\363\275\344\037\3041\267&"
 291      6417B0BF 
 291      1A1CF3BD 
 291      E41FC431 
 291      B726
 292 0533 533062EF 		.ascii	"S0b\357\230H+\307\037m\376@\226\347&i\366\231d\307\010"
 292      98482BC7 
 292      1F6DFE40 
 292      96E72669 
 292      F69964C7 
 293 0548 C7EC84C1 		.ascii	"\307\354\204\301\326\2325\273\264\353\370\223\212f\327"
 293      D69A35BB 
 293      B4EBF893 
 293      8A66D7
 294 0557 5269F6C3 		.ascii	"Ri\366\303\243\213\351\3543I\033\336\017\303w\301\360"
 294      A38BE9EC 
 294      33491BDE 
 294      0FC377C1 
 294      F0
 295 0568 EF9887DF 		.ascii	"\357\230\207\337\372\247+O+\303\277C5\374\371V\213-"
 295      FAA72B4F 
 295      2BC3BF43 
 295      35FCF956 
 295      8B2D
 296 057a 1CCF3EFD 		.ascii	"\034\317>\375PL\365u]\037\264\012\006\331\004\006\324"
 296      504CF575 
 296      5D1FB40A 
 296      06D90406 
 296      D4
 297 058b 926256DF 		.ascii	"\222bV\3373\251\344X\360L4\340\230\023)\032\365\011"
 297      33A9E458 
 297      F04C34E0 
 297      9813291A 
 297      F509
 298 059d D92F6273 		.ascii	"\331/bs\3573o\203\2464\032N:F4\032\361\315V\360\010"
 298      EF336F83 
 298      A6341A4E 
 298      3A46341A 
 298      F1CD56F0 
 299 05b2 05AC9D06 		.ascii	"\005\254\235\006\314\326\220j\303\337\222`\347\034\203"
 299      CCD6906A 
 299      C3DF9260 
 299      E71C83
 300 05c1 1929FB8E 		.ascii	"\031)\373\216\004\373\222\006\254\257=e\267I\260\213"
 300      04FB9206 
 300      ACAF3D65 
 300      B749B08B 
 301 05d1 8EC18C94 		.ascii	"\216\301\214\224\335%\301\256\320\200\015\264\247\354"
 301      DD25C1AE 
 301      D0800DB4 
ARM GAS  /tmp/ccl5dmDP.s 			page 23


 301      A7EC
 302 05df 7B12EC6B 		.ascii	"{\022\354k\307`F\312\272H\260\0334`^{\312\352?%\300"
 302      C76046CA 
 302      BA48B01B 
 302      34605E7B 
 302      CAEA3F25 
 303 05f4 3A1D8319 		.ascii	":\035\203\031)k \301\356\320\200\015\262\247l!\011v"
 303      296B20C1 
 303      EED0800D 
 303      B2A76C21 
 303      0976
 304 0606 DF319891 		.ascii	"\3371\230\221\262\327I\260Y\036\012\260L{\312\226\220"
 304      B2D749B0 
 304      591E0AB0 
 304      4C7BCA96 
 304      90
 305 0617 60731C83 		.ascii	"`s\034\203\031)[F\202\315\245\001\033aO\331r\022l\276"
 305      19295B46 
 305      82CDA501 
 305      1B614FD9 
 305      72126CBE 
 306 062b 63302365 		.ascii	"c0#e\357\223`\257\321\200\215\262\247\354\003\022l\241"
 306      EF9360AF 
 306      D1808DB2 
 306      A7EC0312 
 306      6CA1
 307 063d 63302365 		.ascii	"c0#e[H\260\3054`\371\366\224m#\301\2269\0063R\266\235"
 307      5B48B0C5 
 307      3460F9F6 
 307      946D23C1 
 307      96390633 
 308 0654 045B4103 		.ascii	"\004[A\0036\311\236\262\035$\330j\307`F\312v\222`o\321"
 308      36C99EB2 
 308      1D24D86A 
 308      C76046CA 
 308      7692606F 
 309 0669 803D674F 		.ascii	"\200=gO\331n\022l\275c0#e\307I\260wi\300\236\267\240"
 309      D96E126C 
 309      BD633023 
 309      65C749B0 
 309      7769C09E 
 310 067f 2CFAB1EA 		.ascii	",\372\261\352\207\303\364\333\034\261Y\333\344\321\026"
 310      87C3F4DB 
 310      1CB159DB 
 310      E4D116
 311 068e 380E6334 		.ascii	"8\016c4\243c|\340q\272\"3\360\215\327\311\217\356P\343"
 311      A3637CE0 
 311      71BA2233 
 311      F08DD7C9 
 311      8FEE50E3 
 312 06a2 BCB258DD 		.ascii	"\274\262X\335N\203\030#\000.;D\254|\303\216\301L\246"
 312      4E831823 
 312      002E3B44 
 312      AC7CC38E 
 312      C14CA6
 313 06b5 8CC10C4B 		.ascii	"\214\301\014K\247\350\321\1778\366\211\007~\277\304"
 313      A7E8D17F 
ARM GAS  /tmp/ccl5dmDP.s 			page 24


 313      38F68907 
 313      7EBFC4
 314 06c4 11EF0906 		.ascii	"\021\357\011\006Z\267\345\331k\034\336\302\377\225\363"
 314      5AB7E5D9 
 314      6B1CDEC2 
 314      FF95F3
 315 06d3 44A950CA 		.ascii	"D\251P\312ZI92h\361\030\017\034\242\237x]\355,\341\012"
 315      5A493932 
 315      68F1180F 
 315      1CA29F78 
 315      5DED2CE1 
 316 06e8 69099FD0 		.ascii	"i\011\237\320\210)Fh?\177h9\234g\322\277\027Yz\353\270"
 316      88294668 
 316      3F7F6839 
 316      9C67D2BF 
 316      17597AEB 
 317 06fd BA41B80E 		.ascii	"\272A\270\016\033\204\317<\346\025\346V\207oF\320:\314"
 317      1B84CF3C 
 317      E615E656 
 317      876F46D0 
 317      3ACC
 318 070f CC85D5B1 		.ascii	"\314\205\325\261\212\375\232\002\331\342\231\307\232"
 318      8AFD9A02 
 318      D9E299C7 
 318      9A
 319 071c 37C9F2EC 		.ascii	"7\311\362\354$'|\264\250|t\002\037\027\177\000>\276"
 319      24277CB4 
 319      A87C7402 
 319      1F177F00 
 319      3EBE
 320 072e 76CCC720 		.ascii	"v\314\307 \023\037\341A\316\3718\243\362q\027\370\350"
 320      131FE141 
 320      CEF938A3 
 320      F27117F8 
 320      E8
 321 073f FC01F8B8 		.ascii	"\374\001\370\270\357\230\217L\202\017\330\255\015Vv"
 321      EF988F4C 
 321      820FD8AD 
 321      0D5676
 322 074e 6B039886 		.ascii	"k\003\230\206\330\2735LO77\300t\276}\004\0379\342j\212"
 322      D8BB354C 
 322      4F3737C0 
 322      74BE7D04 
 322      1F39E26A 
 323 0763 C38F23C4 		.ascii	"\303\217#\304\026W\246\333\342^W%V\353\302\022{\261"
 323      1657A6DB 
 323      E25E5725 
 323      56EBC212 
 323      7BB1
 324 0775 B7C59130 		.ascii	"\267\305\2210\025R\373\301\217\232\324\343\2379\000"
 324      1552FBC1 
 324      8F9AD4E3 
 324      9F3900
 325 0784 352F61A8 		.ascii	"5/a\250\306#\037*\257\033_\002\240\206\336f-&\231\224"
 325      C6231F2A 
 325      AF1B5F02 
 325      A086DE66 
ARM GAS  /tmp/ccl5dmDP.s 			page 25


 325      2D269994 
 326 0798 98645422 		.ascii	"\230dT\"z\304#\335\306;n\366\017j\015~Hf\376\337\373"
 326      7AC423DD 
 326      C63B6EF6 
 326      0F6A0D7E 
 326      4866FEDF 
 327 07ad 71CC7220 		.ascii	"q\314r \037+\320a\200\322\015\350\227\315jpQ\224\364"
 327      1F2BD061 
 327      80D20DE8 
 327      97CD6A70 
 327      5194F4
 328 07c0 D6DF8558 		.ascii	"\326\337\205X\033\336\374\262vL\363\014\016/\033\377"
 328      1BDEFCB2 
 328      764CF30C 
 328      0E2F1BFF 
 329 07d0 4EB81347 		.ascii	"N\270\023G\235\037\254\204\177\254X\335k\300\320\346"
 329      9D1FAC84 
 329      7FAC58DD 
 329      6BC0D0E6 
 330 07e0 1E1A4EE8 		.ascii	"\036\032N\350`eO\242\214D?\034s\2607E\020\361\306\322"
 330      60654FA2 
 330      8C443F1C 
 330      73B03745 
 330      10F1C6D2 
 331 07f4 D6EDC194 		.ascii	"\326\355\301\224\2073\321C\310\313\003[@\030\213]\370"
 331      8733D143 
 331      C8CB035B 
 331      40188B5D 
 331      F8
 332 0805 F8EE8849 		.ascii	"\370\356\210I\030\024\207<\355\320e\231\253\307\361"
 332      1814873C 
 332      EDD06599 
 332      ABC7F1
 333 0814 DDF14794 		.ascii	"\335\361G\224S\026\374\023\305!\217\341\370\216g\227"
 333      5316FC13 
 333      C5218FE1 
 333      F88E6797 
 334 0824 739C0A9B 		.ascii	"s\234\012\233\250<\015*\324\351C\320.\274^X\3412\034"
 334      A83C0D2A 
 334      D4E943D0 
 334      2EBC5E58 
 334      E1321C
 335 0837 F35F712C 		.ascii	"\363_q,{/)\373\360\275\243\313Y\205~\3458\367\0333\336"
 335      7B2F29FB 
 335      F0BDA3CB 
 335      59857EE5 
 335      38F71B33 
 336 084c 28722DA7 		.ascii	"(r-\247\026m\367\255r\270\341\030,\302\024\247\353\242"
 336      166DF7AD 
 336      72B8E118 
 336      2CC214A7 
 336      EBA2
 337 085e 212EC656 		.ascii	"!.\306Vs\245\002\246\030\374\213\251N\301\274\006\260"
 337      73A502A6 
 337      18FC8BA9 
 337      4EC1BC06 
 337      B0
ARM GAS  /tmp/ccl5dmDP.s 			page 26


 338 086f 5D0B2C8E 		.ascii	"]\013,\216\213\225#r\273\300\262\316E,\225^\245\031"
 338      8B952372 
 338      BBC0B2CE 
 338      452C955E 
 338      A519
 339 0881 3FC6EEF4 		.ascii	"?\306\356\364\344\261\345\252\245('\243K\035\343\031"
 339      E4B1E5AA 
 339      A52827A3 
 339      4B1DE319 
 340 0891 F9B9B1C0 		.ascii	"\371\271\261\3000#\255\241\201\033Emx\372\27162BX\250"
 340      3023ADA1 
 340      811B456D 
 340      78FAB936 
 340      324258A8 
 341 08a5 BEC1E137 		.ascii	"\276\301\3417C+ _\005\371\032\310/@~\011\362\313\220"
 341      432B205F 
 341      05F91AC8 
 341      2F407E09 
 341      F2CB90
 342 08b8 FF2FE4DF 		.ascii	"\377/\344\337B~\007\362.\310_wA_\310\337\204\374-\310"
 342      427E07F2 
 342      2EC85F77 
 342      415FC8DF 
 342      84FC2DC8 
 343 08cc D742BE01 		.ascii	"\327B\276\001\362wH\363\266\323\213\342jQ\307\324\274"
 343      F27748F3 
 343      B6D38BE2 
 343      6A51C7D4 
 343      BC
 344 08dd AE3EE143 		.ascii	"\256>\341C\363S\372\2419\317\256t\014\346\215%\311z"
 344      F353FAA1 
 344      39CFAE74 
 344      0CE68D25 
 344      C97A
 345 08ef 42920D20 		.ascii	"B\222\015 \311F\220\306F\243#oL\325^\343\304p<{\026"
 345      C94690C6 
 345      46A3236F 
 345      4CD55EE3 
 345      C4703C7B 
 346 0904 229F7D75 		.ascii	"\"\237}u9y\251\034~\321\245\355\200\266\230\001\343"
 346      3979A91C 
 346      7ED1A5ED 
 346      80B69801 
 346      E3
 347 0915 6ED08C32 		.ascii	"n\320\2142\351\022L7.\224wTv:i\"}e\247\343\261c\212"
 347      E9124C37 
 347      2E947754 
 347      763A6922 
 347      7D65A7E3 
 348 092c 702E21C2 		.ascii	"p.!\302\227A\204\257\200\0107\201\311\274O\012\222g"
 348      974184AF 
 348      80083781 
 348      C9BC4F0A 
 348      9267
 349 093e E771A6FB 		.ascii	"\347q\246\373&\306\027f1\006\217\276\344\356<eq\341"
 349      26C61766 
 349      31068FBE 
ARM GAS  /tmp/ccl5dmDP.s 			page 27


 349      E4EE3C65 
 349      71E1
 350 0950 44795514 		.ascii	"DyU\024#(-\336\335\376\350F\010\035[\\X\001\367R\315"
 350      23282DDE 
 350      DDFEE846 
 350      081D5B5C 
 350      5801F752 
 351 0965 117A2167 		.ascii	"\021z!g:<7\0312\307,H\243x\001\031c'\323\264\340\326"
 351      3A3C3719 
 351      32C72C48 
 351      A3780119 
 351      6327D3B4 
 352 097b 2976F66C 		.ascii	")v\366lyC\246\272\262\220\353\344A\033\364 \330W\303"
 352      7943A6BA 
 352      B290EBE4 
 352      411BF420 
 352      D857C3
 353 098e E0A27487 		.ascii	"\340\242t\207\267*/R\233a\226]\224fy\277!>L\244\275"
 353      B72A2F52 
 353      9B61965D 
 353      946679BF 
 353      213E4CA4 
 354 09a3 EEC35FC2 		.ascii	"\356\303_\302\012t'\000\255J\030\250q\336z\345\242\304"
 354      0A742700 
 354      AD4A18A8 
 354      71DE7AE5 
 354      A2C4
 355 09b5 1E00DA90 		.ascii	"\036\000\332\220f\026\243\313\264\316q\031\3279.\217"
 355      6616A3CB 
 355      B4CE7119 
 355      D7392E8F 
 356 09c5 5EE8EE76 		.ascii	"^\350\356v1\377\300\306h\031fV\230\201\243xk\037\254"
 356      31FFC0C6 
 356      68196656 
 356      9881A378 
 356      6B1FAC
 357 09d8 B0FBAAB1 		.ascii	"\260\373\252\261i7L\266\323\230\200\001\321`\002\341"
 357      69374CB6 
 357      D3988001 
 357      D16002E1 
 358 09e8 EFCFC25C 		.ascii	"\357\317\302\\\246\200\355\243\001\213q\014\275h\345"
 358      A680EDA3 
 358      018B710C 
 358      BD68E5
 359 09f7 2ADB7758 		.ascii	"*\333wX\253\343^\275\2124_:\374\257\370\"`\374\353W"
 359      ABE35EBD 
 359      8A345F3A 
 359      FCAFF822 
 359      60FCEB57 
 360 0a0b 475C74D7 		.ascii	"G\\t\327\257>v\231\337s\037\203\353W\037S\255\326nY"
 360      AF3E7699 
 360      DF731F83 
 360      EB571F53 
 360      ADD66E59 
 361 0a1f AD01AC6E 		.ascii	"\255\001\254n#F\247\214\201:3\247\257\036~Z\271\325"
 361      2346A78C 
 361      813A33A7 
ARM GAS  /tmp/ccl5dmDP.s 			page 28


 361      AF1E7E5A 
 361      B9D5
 362 0a31 781C169D 		.ascii	"x\034\026\235\255\017\304\277\325h\300\301\364\265\231"
 362      AD0FC4BF 
 362      D568C0C1 
 362      F4B599
 363 0a40 E9DFDC0A 		.ascii	"\351\337\334\012\364\267\305\247\377\305\331\341\017"
 363      F4B7C5A7 
 363      FFC5D9E1 
 363      0F
 364 0a4d D5777AE0 		.ascii	"\325wz\340L\263cn\033x\366\032\\\021\241\331\004\374"
 364      4CB3636E 
 364      1B78F61A 
 364      5C11A1D9 
 364      04FC
 365 0a5f 05386973 		.ascii	"\0058is\276hU\311\332\256\274\2239\005\376z\3211\230"
 365      BE6855C9 
 365      DAAEBC93 
 365      3905FE7A 
 365      D13198
 366 0a72 D700B683 		.ascii	"\327\000\266\203\004\273J\003f\027\304\020\330N\022"
 366      04BB4A03 
 366      6617C410 
 366      D84E12
 367 0a81 EC6F8EC1 		.ascii	"\354o\216\301\214\224\355&\301\276\241\001\263;\255"
 367      8C94ED26 
 367      C1BEA101 
 367      B33BAD
 368 0a90 4460C749 		.ascii	"D`\307I\260\333\216\301\274VV\302\36402\236\375\014"
 368      B0DB8EC1 
 368      BC5656C2 
 368      F430329E 
 368      FD0C
 369 0aa2 760D2721 		.ascii	"v\015'!R\236\201\274\003\362\317!\377\002\362\010\315"
 369      529E81BC 
 369      03F2CF21 
 369      FF02F208 
 369      CD
 370 0ab3 A2AB950C 		.ascii	"\242\253\225\014\360\337\003\301\037'f1h\332k\276\364"
 370      F0DF03C1 
 370      1F276631 
 370      68DA6BBE 
 370      F4
 371 0ac4 E553CAE9 		.ascii	"\345S\312\351\257)\306by\330Qp\201\244`v\272S\012\274"
 371      AF29C662 
 371      79D85170 
 371      81A46076 
 371      BA530ABC 
 372 0ad8 2405E17B 		.ascii	"$\005\341{\307\224\223K\355\242\367Kf<\332\253Y\332"
 372      C794934B 
 372      EDA2F74B 
 372      663CDAAB 
 372      59DA
 373 0aea 72E958EA 		.ascii	"r\351X\352\373\317k`\257:\0063\\\277\016\327\267\022"
 373      FBCF6B60 
 373      AF3A0633 
 373      5CBF0ED7 
ARM GAS  /tmp/ccl5dmDP.s 			page 29


 373      B712
 374 0afc 604B1D83 		.ascii	"`K\035\203\365\355a\021\212-|\002\266p\014t\376?\220"
 374      F5ED6111 
 374      8A2D7C02 
 374      B6700C74 
 374      FE3F90
 375 0b0f 5F82FC32 		.ascii	"_\202\3742\344W\215\013\322\325\351\346\270\253\314"
 375      E4578D0B 
 375      D2D5E9E6 
 375      B8ABCC
 376 0b1e B104AA3E 		.ascii	"\261\004\252>\0313\264\270v\272m!u\2739\335i\3242\350"
 376      1933B4B8 
 376      76BA6D21 
 376      75BB39DD 
 376      69D432E8 
 377 0b32 1605D543 		.ascii	"\026\005\325C_iA\265\005\326b\3154\2101v\242[\2760\277"
 377      5F6941B5 
 377      05D662CD 
 377      34883176 
 377      A25BBE30 
 378 0b47 0EB09AED 		.ascii	"\016\260\232\3559\222\266h\324\330;E\211\0327!j\354"
 378      3992B668 
 378      D4D83B45 
 378      891A3721 
 378      6AEC
 379 0b59 498F1F35 		.ascii	"I\217\03758#\217<\333i\216\032w\332 jtRE\215\373m\013"
 379      38238F3C 
 379      DB698E1A 
 379      77DA206A 
 379      7452458D 
 380 0b70 D59DA232 		.ascii	"\325\235\2422\333\034\005\022:\023\236\356\273\332\210"
 380      DB1C0512 
 380      3A139EEE 
 380      BBDA88
 381 0b7f A9ABD531 		.ascii	"\251\253\3251\230\327\000V\177\212\000k\243\001\213"
 381      98D70056 
 381      7F8A006B 
 381      A3018B
 382 0b8e 31DD3790 		.ascii	"1\3357\220`g\034\203\031)[H\202\235\243\001\2131\335"
 382      60671C83 
 382      19295B48 
 382      829DA301 
 382      8B31DD
 383 0ba1 BF4E8245 		.ascii	"\277N\202E\034\203\031)[B\202]\240\001\263{\205\203"
 383      1C831929 
 383      5B42825D 
 383      A001B37B 
 383      8583
 384 0bb3 C0969160 		.ascii	"\300\226\221`\227\035\203\031)[N\202\375\225\006\314"
 384      971D8319 
 384      295B4E82 
 384      FD9506CC 
 385 0bc3 6B4FD94A 		.ascii	"kO\331J\022\354\246c0\257\225K(\037\322\243x\366;\230"
 385      12ECA663 
 385      30AF954B 
 385      281FD2A3 
 385      78F63B98 
ARM GAS  /tmp/ccl5dmDP.s 			page 30


 386 0bd7 166FC164 		.ascii	"\026o\301du\007\362{\220\337\207\274\033\362Yn\234\317"
 386      7507F27B 
 386      90DF87BC 
 386      1BF2596E 
 386      9CCF
 387 0be9 867C0EE4 		.ascii	"\206|\016\344\177\204|\256\233br\273ANn\267\034OE1\031"
 387      7F847CAE 
 387      9B6272BB 
 387      414E6EB7 
 387      1C4F4531 
 388 0bfe D1FF4486 		.ascii	"\321\377D\206g\367\301\212o?\\\341=\011\271\014\373"
 388      67F7C18A 
 388      6F3F5CE1 
 388      3D09B90C 
 388      FB
 389 0c0f E439906F 		.ascii	"\3449\220o\006F\266C\276\037\362\003\220\037\202\374"
 389      0646B643 
 389      BE1FF203 
 389      901F82FC 
 390 0c1f 6F905FA7 		.ascii	"o\220_\247\231\253w\351\027\177\321~\334\215\267\333"
 390      99AB77E9 
 390      177FD17E 
 390      DC8DB7DB 
 391 0c2f 6B13BE52 		.ascii	"k\023\276R~\361\310\253N\357\344_\213\254S\337\232\314"
 391      7EF1C8AB 
 391      4EEFE45F 
 391      8BAC53DF 
 391      9ACC
 392 0c41 87FBDBF7 		.ascii	"\207\373\333\367zD\252\204\216\302\347\364a\343s\022"
 392      7A44AA84 
 392      8EC2E7F4 
 392      61E37312 
 393 0c51 F372B661 		.ascii	"\363r\266a\310\265\204b\326\201b\326\203J\266@\276\023"
 393      C8B58462 
 393      D68162D6 
 393      834AB640 
 393      BE13
 394 0c63 F25748EB 		.ascii	"\362WH\3531\255\204p\360\267\323\300k\356\250\006\036"
 394      31AD8470 
 394      F0B7D3C0 
 394      6BEEA806 
 394      1E
 395 0c74 6356CAAB 		.ascii	"cV\312\253#\221\377\276\333>\025\037\377\310\335\335"
 395      2391FFBE 
 395      DB3E151F 
 395      FFC8DDDD 
 396 0c84 7F601E66 		.ascii	"\177`\036f\026\251\257\215dV\262\275\362\207\201\032"
 396      16A9AF8D 
 396      6456B2BD 
 396      F287811A 
 397 0c94 DD0F43C9 		.ascii	"\335\017C\311\245\\\203\217\027\341\254\366x\335w\333"
 397      A55C838F 
 397      17E1ACF6 
 397      78DD77DB 
 398 0ca4 FF19B6EB 		.ascii	"\377\031\266\353\257\273q|k\352\0237\276\365\330\324"
 398      AFBB717C 
 398      6BEA1337 
ARM GAS  /tmp/ccl5dmDP.s 			page 31


 398      BEF5D8D4 
 399 0cb4 2D759BFF 		.ascii	"-u\233\377\314\013\377U%\256\215\377\376\256s\015\276"
 399      CC0BFF55 
 399      25AE8DFF 
 399      FEAE730D 
 399      BE
 400 0cc5 BCACFD91 		.ascii	"\274\254\375\221\347\016\030\035\367\264\032+Fh\263"
 400      E70E181D 
 400      F7B41A2B 
 400      4668B3
 401 0cd4 D6A14E18 		.ascii	"\326\241N\030\317.s\303)(\215\277/\322\325\243\0126"
 401      CF2E73C3 
 401      29288DBF 
 401      2FD2D5A3 
 401      0A36
 402 0ce6 EA34D167 		.ascii	"\3524\321g\365\255*\317N\326\017\0358f\257Iz\2173o\311"
 402      F5AD2ACF 
 402      4ED60F1D 
 402      3866AF49 
 402      7A8F336F 
 403 0cfb 7203D6EE 		.ascii	"r\003\326\356>\274\240\311W\2609\346\023h\327\340~\314"
 403      3EBCA0C9 
 403      57B039E6 
 403      1368D7E0 
 403      7ECC
 404 0d0d 92069502 		.ascii	"\222\006\225\002\245\263\274U\310W\206G\301:N7 R\355"
 404      A5B3BC55 
 404      C8578647 
 404      C13A4E37 
 404      2052ED
 405 0d20 D6F9DB81 		.ascii	"\326\371\333\201\332\012\364\224\271\233\351&\203\312"
 405      DA0AF494 
 405      B99BE926 
 405      83CA
 406 0d2e CBBF306B 		.ascii	"\313\2770k\261\252\347\313s\372\262`u\214\332\313 \323"
 406      B1AAE7CB 
 406      73FAB260 
 406      758CDACB 
 406      20D3
 407 0d40 556EC3DF 		.ascii	"Un\303\337\362*\366\033\276s\273\205E\203~\337\335="
 407      F22AF61B 
 407      BE73BB85 
 407      45837EDF 
 407      DD3D
 408 0d52 5BE6CC06 		.ascii	"[\346\314\006\\\033cS\260\301h\301\012\353\352C\012"
 408      5C1B6353 
 408      B0C168C1 
 408      0AEBEA43 
 408      0A
 409 0d63 F347E5CF 		.ascii	"\363G\345\317K\344Y\354\357\031K\342\365+\033<\373\256"
 409      4BE459EC 
 409      EF194BE2 
 409      F52B1B3C 
 409      FBAE
 410 0d75 3B05F53B 		.ascii	";\005\365;\337\307\366\302\005n\240\351])k%\226\261"
 410      DFC7F6C2 
 410      056EA0E9 
ARM GAS  /tmp/ccl5dmDP.s 			page 32


 410      5D296B25 
 410      96B1
 411 0d87 50E6454B 		.ascii	"P\346EKe\312K\005U\215\310ha\362\\O\245\306f\254\017"
 411      65CA4B05 
 411      558DC868 
 411      61F25C4F 
 411      A5C666AC 
 412 0d9c 85C41B00 		.ascii	"\205\304\033\000\274\336V\037*\235\252>v]\230\224\257"
 412      BCDE561F 
 412      2A9DAA3E 
 412      765D9894 
 412      AF
 413 0dad C8908931 		.ascii	"\310\220\2111\230\312\300&K\355\2548\227V?+\322\335"
 413      98CAC026 
 413      4BEDAC38 
 413      97563F2B 
 413      D2DD
 414 0dbf FD9803C5 		.ascii	"\375\230\003\305l\261R\214IBw\254%t\337o\222\320\346"
 414      6CB1528C 
 414      494277AC 
 414      2574DF6F 
 414      92D0E6
 415 0dd2 D8128AB2 		.ascii	"\330\022\212\262\372\347\2729}\335:\257v\335T\012\267"
 415      FAE7BA39 
 415      7DDD3AAF 
 415      76DD540A 
 415      B7
 416 0de3 F5E4F5FD 		.ascii	"\365\344\365\375Hx\267\320\"_G!\301\001\253;b\330\240"
 416      4878B7D0 
 416      225F4721 
 416      C101AB3B 
 416      62D8A0
 417 0df6 9DA7D7F5 		.ascii	"\235\247\327\365\265`\275V^a6\216f\012\343\250\225\333"
 417      B560BD56 
 417      5E61368E 
 417      660AE3A8 
 417      95DB
 418 0e08 74677D03 		.ascii	"tg}\003\200\233)\235\325$1\273\321TFwYJ\354\272*1E\020"
 418      809B299D 
 418      D52431BB 
 418      D1544677 
 418      594AECBA 
 419 0e20 1CB3CE9A 		.ascii	"\034\263\316\232\2657\314\254\355\243b\355\204\316\332"
 419      B537CCAC 
 419      EDA362ED 
 419      84CEDA
 420 0e2f 0E00DE97 		.ascii	"\016\000\336\227\030kv\243\251\254\355\267d\255\341"
 420      186B76A3 
 420      A9ACEDB7 
 420      64ADE1
 421 0e3e A06AF81A 		.ascii	"\240j\370\032o\373\255y\333l\346\255\205\212\267v\235"
 421      6FFBAD79 
 421      DB6CE6AD 
 421      858AB776 
 421      9D
 422 0e4f B7B300DC 		.ascii	"\267\263\000\334\222\030ov\243\251\274\035\266t\352"
 422      92186F76 
ARM GAS  /tmp/ccl5dmDP.s 			page 33


 422      A3A9BC1D 
 422      B674EA
 423 0e5e 2D079D3B 		.ascii	"-\007\235;ukLK\037\226ja\350W\254$\326 7\231%v\214j"
 423      756B4C4B 
 423      1F966A61 
 423      E857AC24 
 423      D6203799 
 424 0e76 163C89BB 		.ascii	"\026<\211\273\015\303\261L\356\307\306\3545,\306\304"
 424      0DC3B14C 
 424      EEC7C6EC 
 424      352CC6C4 
 425 0e86 60D74BE5 		.ascii	"`\327K\345\362SKy\335\325m\241\025laN?K\316z\330\371"
 425      F2534B79 
 425      DDD56DA1 
 425      156C614E 
 425      3F4BCE7A 
 426 0e9c 692ACEF6 		.ascii	"i*\316\366D9[\012\270\366\275bqf\327K\345\354LO\316"
 426      44395B0A 
 426      B8F6BD62 
 426      7166D74B 
 426      E5EC4C4F 
 427 0eb1 22F59103 		.ascii	"\"\365\221\003/\037e_\202\340\353r\260v\374\"\306\332"
 427      2F1F655F 
 427      82E0EB72 
 427      B076FC22 
 427      C6DA
 428 0ec3 51598FD9 		.ascii	"QY\217\331\365\214\320\257\217\242\317\363\335V\263"
 428      F58CD0AF 
 428      8FA2CFF3 
 428      DD56B3
 429 0ed2 E89F4C2A 		.ascii	"\350\237L*\320\370\274`\305g\370\374\347\257\310\254"
 429      D0F8BC60 
 429      C567F8FC 
 429      E7AFC8AC 
 430 0ee2 639BBF64 		.ascii	"c\233\277d\266\371\010i\363j\2545\321\325dC\327\025"
 430      B6F90869 
 430      F36AAC35 
 430      D1D56443 
 430      D715
 431 0ef4 4BBAAE5F 		.ascii	"K\272\256_\220S\034\007\235k1\311Rw\010\266\342\264"
 431      90531C07 
 431      9D6B31C9 
 431      527708B6 
 431      E2B4
 432 0f06 F9DDC446 		.ascii	"\371\335\304F\330\206\215\033F6L\252\307\206aG\365M"
 432      D8868D1B 
 432      46364CAA 
 432      C7866147 
 432      F54D
 433 0f18 5DF5A65E 		.ascii	"]\365\246^\227b\364\372\306\266\327\265\030\275\276"
 433      9762F4FA 
 433      C6B6D7B5 
 433      18BDBE
 434 0f27 D57BF563 		.ascii	"\325{\365c\352A\256\243\226\030wV\206\267up.\340\356"
 434      EA41AEA3 
 434      96187756 
 434      86B77570 
ARM GAS  /tmp/ccl5dmDP.s 			page 34


 434      2EE0EE
 435 0f3a 0725C3CD 		.ascii	"\007%\303\315;ha7\312wn\375\026n\232G/h\253H\025\211"
 435      3B686137 
 435      CA776EFD 
 435      166E9A47 
 435      2F68AB48 
 436 0f50 E60DEAC1 		.ascii	"\346\015\352\301m\312\277\036\271\005\333\3326\223\360"
 436      6DCABF1E 
 436      B905DBDA 
 436      3693F0
 437 0f5f E9811A8F 		.ascii	"\351\201\032\217\254S.\003\336\005\240\263\375\314\373"
 437      AC532E03 
 437      DE05A0B3 
 437      FDCCFB
 438 0f6e 63CEB43D 		.ascii	"c\316\264=\346\214\333c\016_\316\353\352\356\326/\347"
 438      E68CDB63 
 438      0E5FCEEB 
 438      EAEED62F 
 438      E7
 439 0f7f E13BC53D 		.ascii	"\341;\305=\376\362\231\272\227IgX\306v\322\274\257\353"
 439      FEF299BA 
 439      97496758 
 439      C676D2BC 
 439      AFEB
 440 0f91 8C792857 		.ascii	"\214y(W\014L\027\304PF \273\304\027\022"
 440      0C4C17C4 
 440      504620BB 
 440      C41712
 441 0fa0 2A434171 		.ascii	"*CAqp\031\223Z\220\235S\004\017>)\351\331\011\223\275"
 441      7019935A 
 441      909D5304 
 441      0F3E29E9 
 441      D90993BD 
 442 0fb4 394C1FBD 		.ascii	"9L\037\275*$\361\222\220R0atNq\301\257\363\334\005\271"
 442      2A24F192 
 442      90523061 
 442      744E71C1 
 442      AFF3DC05 
 443 0fc9 E3F2DC63 		.ascii	"\343\362\334c&\027M\351\005?<\236Q\035\0223x\261\342"
 443      26174DE9 
 443      053F3C9E 
 443      511D1233 
 443      78B1E2
 444 0fdc C9CA60A5 		.ascii	"\311\312`\245\360\244\300O\015d\004*K\312\253\375BF"
 444      F0A4C04F 
 444      0D64042A 
 444      4BCAABFD 
 444      4246
 445 0fee 48F2072A 		.ascii	"H\362\007*%4@r5\372\036\341\223\206\306h\\\301"
 445      25344072 
 445      35FA1EE1 
 445      9386C668 
 445      5CC1
 446 1000 9794052A 		.ascii	"\227\224\005*\205\014\237_(\345\253\313%\2374\263J\010"
 446      850C9F5F 
 446      28E5ABCB 
 446      259F34B3 
ARM GAS  /tmp/ccl5dmDP.s 			page 35


 446      4A08
 447 1012 A1CE1E9F 		.ascii	"\241\316\036\237O\355\236\314\373\375\242\020\012\345"
 447      4FED9ECC 
 447      FBFDA210 
 447      0AE5
 448 1020 6694052B 		.ascii	"f\224\005+\204\214\222\240\177f\206_\230\236\201:N\015"
 448      848C92A0 
 448      7F66865F 
 448      989E813A 
 448      4E0D
 449 1032 04431992 		.ascii	"\004C\031\222X]\371B\006*\224\361\345\031UAQ\012e\024"
 449      585DF942 
 449      062A94F1 
 449      E5195541 
 449      510A6514 
 450 1046 158F1F92 		.ascii	"\025\217\037\222\2351n\\n\006bhz\026\360]^\356\307\260"
 450      9D316E5C 
 450      6E066268 
 450      7A16F05D 
 450      5EEEC7B0 
 451 105a A8429146 		.ascii	"\250B\221F6\015\234F&\002@\235{\243/`\337'\365F8\276"
 451      360D9C46 
 451      2602409D 
 451      7BA32F60 
 451      DF27F546 
 452 1070 C9130A26 		.ascii	"\311\023\012&\024\024\247\340bQ\361\304I\030\333W\230"
 452      1414A7E0 
 452      6251F1C4 
 452      4918DB57 
 452      98
 453 1081 373A77CA 		.ascii	"7:w\312\003\270\244H\316W\374\034\371T\370\034\364\034"
 453      03B8A448 
 453      CE57FC1C 
 453      F954F81C 
 453      F41C
 454 1093 3731E7DF 		.ascii	"71\347\337\363rS\021^\260\252\"\350\307\200\023'\215"
 454      F3725311 
 454      5EB0AA22 
 454      E8C78013 
 454      278D
 455 10a5 9F989BE7 		.ascii	"\237\230\233\347C\277\016P\213E\343\221\300}\271y\277"
 455      43BF0E50 
 455      8B45E391 
 455      C07DB979 
 455      BF
 456 10b6 2EC8C9EB 		.ascii	".\310\311\353g\250\313\237XT\234\034\254\362\341\256"
 456      67A8CB9F 
 456      58549C1C 
 456      ACF2E1AE 
 457 10c6 29584C43 		.ascii	")XLC\262\021\202\"1\\L-)\017\226\274\340\013U\011\202"
 457      B2118222 
 457      315C4C2D 
 457      290F96BC 
 457      E00B5509 
 458 10db 3F1D0DE2 		.ascii	"?\035\015\342\257\226f\226\314,)G\343\244\027\025\347"
 458      AF966696 
 458      CC2C2947 
ARM GAS  /tmp/ccl5dmDP.s 			page 36


 458      E3A41715 
 458      E7
 459 10ec FA722717 		.ascii	"\372r'\027O\361\345L\311\031\227\327o\354\350\242b\342"
 459      4FF1E54C 
 459      C91997D7 
 459      6FECE8A2 
 459      62E2
 460 10fe D997FDA0 		.ascii	"\331\227\375\240\271&k\230odo\214\340\003\010\314eN"
 460      B9266B98 
 460      6F646F8C 
 460      E00308CC 
 460      654E
 461 1110 B0B23430 		.ascii	"\260\26240-\251\004\276\260TJ\313\371i!dF\202(\006\305"
 461      2DA904BE 
 461      B0544ACB 
 461      F9692164 
 461      46822806 
 462 1125 D09078A2 		.ascii	"\320\220x\242\025\245\250dK\312*\244\032l,\025\325\222"
 462      15A5A864 
 462      4BCA2AA4 
 462      1A6C2C15 
 462      D592
 463 1137 50E3937A 		.ascii	"P\343\223z\301\367\010G\010\241\231!\315l\372He\242"
 463      C1F70847 
 463      08A19921 
 463      CD6CFA48 
 463      65A2
 464 1149 C0FB43BE 		.ascii	"\300\373C\276\337W\013\325\210\335\276%e>C\325Pg\310"
 464      DF570BD5 
 464      88DDBE25 
 464      653E43D5 
 464      5067C8
 465 115c 2565D86A 		.ascii	"%e\330jR\024\010\237\344\211\302%U\371*\205\032\011"
 465      5214089F 
 465      E489C225 
 465      55F92A85 
 465      1A09
 466 116e 7D5589C2 		.ascii	"}U\211\302\364|\012T\3054G\027\216\317\031_\203ZVT\005"
 466      F47C0A54 
 466      C5344717 
 466      8ECF195F 
 466      835A5654 
 467 1183 CAB14F3E 		.ascii	"\312\261O>\233\223\203\232k\364'KUb \350Sp\003\301d"
 467      9B93839A 
 467      6BF4274B 
 467      556220E8 
 467      537003C1 
 468 1198 2462240E 		.ascii	"$b$\016i\244c\374\262\222\240(`/\307\325>d\027%R\315"
 468      69A463FC 
 468      B292A028 
 468      602FC7D5 
 468      3E641725 
 469 11ae BF2586E2 		.ascii	"\277%\206\342\233>\274\002\013A\024\246!'\366I\256P"
 469      9B3EBC02 
 469      0B4114A6 
 469      2127F649 
 469      AE50
ARM GAS  /tmp/ccl5dmDP.s 			page 37


 470 11c0 D6309486 		.ascii	"\3260\224\206\2434\002\245\221\256Pv&JY(e\2434\004\245"
 470      A33402A5 
 470      91AE5076 
 470      264A5928 
 470      65A33404 
 471 11d5 A128FD0A 		.ascii	"\241(\375\012%\324.\033\265\313F\355\262Q\273!\250\335"
 471      25D42E1B 
 471      B5CB46ED 
 471      B251BB21 
 471      A8DD
 472 11e7 902C4E1C 		.ascii	"\220,N\034\312\211\277\342\304a\2348\234\023Gp\342H"
 472      CA89BFE2 
 472      C4619C38 
 472      9C134770 
 472      E248
 473 11f9 97989589 		.ascii	"\227\230\225\211R\026W.\242\257!\275\252|\210\332d,"
 473      5216572E 
 473      A2AF21BD 
 473      AA7C88DA 
 473      642C
 474 120b E1198288 		.ascii	"\341\031\202\210\276\203\345~At\227\224\361\"\026;_"
 474      BE83E57E 
 474      41749794 
 474      F122163B 
 474      5F
 475 121c 21A448AA 		.ascii	"!\244H\252\037\242\037\241\224,)n\204\236\301\026\223"
 475      1FA21FA1 
 475      942C296E 
 475      849EC116 
 475      93
 476 122d 2551280D 		.ascii	"%Q(\015\201\034q\241WEh\032\372Qu\0174\267\250\245$"
 476      811C71A1 
 476      5745681A 
 476      FA51750F 
 476      34B7A8A5 
 477 1242 D13F13FD 		.ascii	"\321?\023\375\224\"\324\004$$\026!i\206\024\234\372"
 477      9422D404 
 477      24241621 
 477      6986149C 
 477      FA
 478 1253 BBAA5461 		.ascii	"\273\252Ta\272P)U\360\241\027\260M\317\300\005W\225"
 478      BA502955 
 478      F0A117B0 
 478      4DCFC005 
 478      5795
 479 1265 AF3A5DB3 		.ascii	"\257:]\263\244\362@\010\315T}\010\333\3025\236*\337"
 479      A4F24008 
 479      CD547D08 
 479      DBC2359E 
 479      2ADF
 480 1277 0C3E2005 		.ascii	"\014> \005*\247\365F\256\031\232\006\366\326\013\212"
 480      2AA7F546 
 480      AE199A06 
 480      F6D60B8A 
 481 1287 A842A812 		.ascii	"\250B\250\022*\321\3048\015\265B\026\217\333\367\306"
 481      2AD1C438 
 481      0DB54216 
ARM GAS  /tmp/ccl5dmDP.s 			page 38


 481      8FDBF7C6 
 482 1297 B4F1E5A0 		.ascii	"\264\361\345\240gTY\025\014\226'W(V\212\276\2033*\005"
 482      67545915 
 482      0C962757 
 482      28568ABE 
 482      83332A05 
 483 12ab 31A902AC 		.ascii	"1\251\002\254l\270#\243UiB*\353\257\332-\022\201 \012"
 483      6CB823A3 
 483      5569422A 
 483      EBAFDA2D 
 483      1281200A 
 484 12bf 95254840 		.ascii	"\225%H@IJ\225\0079-\236W}\022\314\037\310\307\265\371"
 484      494A9507 
 484      392D9E57 
 484      7D12CC1F 
 484      C8C7B5F9 
 485 12d3 0317DDF8 		.ascii	"\003\027\335\370'\217X\343\257\340\261X=\222V\032\353"
 485      278F58E3 
 485      AFE0B158 
 485      3D92561A 
 485      EB
 486 12e4 740E867C 		.ascii	"t\016\206|\354\320\232\032\024\026*\220\304\021\016"
 486      ECD09A1A 
 486      14162A90 
 486      C4110E
 487 12f3 A2EBA978 		.ascii	"\242\353\251x0\210\347\214\234\361E\005E\010@\351Y:"
 487      3088E78C 
 487      9CF14505 
 487      450840E9 
 487      593A
 488 1305 3433AB06 		.ascii	"43\253\006\033t\377\334\361\243}EH\275|\205\257\030"
 488      1B74FFDC 
 488      F1A37D45 
 488      48BD7C85 
 488      AF18
 489 1317 794DAE50 		.ascii	"yM\256P\312\345\024\272'\344\026\027\272&\215.t\217"
 489      CAE514BA 
 489      27E41617 
 489      BA268D2E 
 489      748F
 490 1329 CFC459D6 		.ascii	"\317\304Y\326\350B\327\330\234\302\244\0204t\007JK\304"
 490      E842D7D8 
 490      9CC2A410 
 490      3474074A 
 490      4BC4
 491 133b A440A82C 		.ascii	"\244@\250,P*yBByi\240\322/\324$M\027J\244\240\330?J"
 491      502A7942 
 491      427969A0 
 491      D22FD424 
 491      4D174AA4 
 492 1353 994F698D 		.ascii	"\231Oi\215&!\364 \326\340\\\252\301aR\033\310\225S\230"
 492      2621F420 
 492      D6E05CAA 
 492      C161521B 
 492      C8955398 
 493 1367 8552B67B 		.ascii	"\205R\266{\342\350\302,\234es\271\205\256\"TYT\230\355"
 493      E2E8C22C 
ARM GAS  /tmp/ccl5dmDP.s 			page 39


 493      9C6573B9 
 493      85AE2254 
 493      595498ED 
 494 137b CAC929EC 		.ascii	"\312\311)\354U\\XP\224\347\036;\016\021\203$\354\301"
 494      555C5850 
 494      94E71E3B 
 494      0E118324 
 494      ECC1
 495 138d 3353A002 		.ascii	"3S\240\002\333%\376\012VK\375\264P\034\012\014\317\254"
 495      DB25FE0A 
 495      564BFDB4 
 495      501C0A0C 
 495      CFAC
 496 139f C91C5CC2 		.ascii	"\311\034\\\302\230k\220\243)%\244+%V\247\252\317\201"
 496      986B90A3 
 496      2925A42B 
 496      2556A7AA 
 496      CF81
 497 13b1 CA80C486 		.ascii	"\312\200\304\206\222\374\320>e*\037\022F#5\365\362\215"
 497      92FCD03E 
 497      652A1F12 
 497      462335F5 
 497      F28D
 498 13c3 4186A3B5 		.ascii	"A\206\243\265\011I\301\252d\234!\252\323\324:\024<\005"
 498      0949C1AA 
 498      649C21AA 
 498      D3D43A14 
 498      3C05
 499 13d5 E941AD81 		.ascii	"\351A\255\201 \025\012\241`y\265\024\010V\366\026\243"
 499      20150AA1 
 499      6079B514 
 499      0856F616 
 499      A3
 500 13e6 C501EAEF 		.ascii	"\305\001\352\357e\002\362&1\257\222\237Z.\244(\017\023"
 500      6502F226 
 500      31AF929F 
 500      5A2EA428 
 500      0F13
 501 13f8 2B7FA477 		.ascii	"+\177\244w\316\207\252\234j\021\331\223\364@\031\371"
 501      CE87AA9C 
 501      6A11D993 
 501      F44019F9 
 502 1408 F470743C 		.ascii	"\364pt<\336_,TT\011\"/U\213\202[B\345\001\304o\371\325"
 502      DE5F2C54 
 502      5409222F 
 502      558B825B 
 502      42E501C4 
 503 141f 15017F40 		.ascii	"\025\001\177@\232\231R\246\026\322\365e\007\3461\235"
 503      9A9952A6 
 503      16D2F565 
 503      07E6319D 
 504 142f 5C8504AB 		.ascii	"\\\205\004\253\372\023\353\024\221\257\014\361%\340"
 504      FA13EB14 
 504      91AF0CF1 
 504      25E0
 505 143d C8D84E15 		.ascii	"\310\330N\025G\306\245\377\003\370\006\303u"
 505      47C6A5FF 
ARM GAS  /tmp/ccl5dmDP.s 			page 40


 505      03F806C3 
 505      75
 506              		.text
 507              		.section	.gnu.lto_.symtab.be981cd2be8b9576,"",%progbits
 508 0000 73693730 		.ascii	"si70x0_init\000\000\000\000\000\000\000\000\000\000"
 508      78305F69 
 508      6E697400 
 508      00000000 
 508      00000000 
 509 0015 00001202 		.ascii	"\000\000\022\002\000\000si70x0_stop\000\000\000\000"
 509      00007369 
 509      37307830 
 509      5F73746F 
 509      70000000 
 510 002a 00000000 		.ascii	"\000\000\000\000\000\000\000\000'\002\000\000si70x0"
 510      00000000 
 510      27020000 
 510      73693730 
 510      7830
 511 003c 5F726573 		.ascii	"_reset\000\000\000\000\000\000\000\000\000\000\000\000"
 511      65740000 
 511      00000000 
 511      00000000 
 511      0000
 512 004e 33020000 		.ascii	"3\002\000\000si70x0_setResolution\000\000\000\000\000"
 512      73693730 
 512      78305F73 
 512      65745265 
 512      736F6C75 
 513 006b 00000000 		.ascii	"\000\000\000\000\000\000\0009\002\000\000si70x0_hea"
 513      00000039 
 513      02000073 
 513      69373078 
 513      305F6865 
 514 0080 74657245 		.ascii	"terEnable\000\000\000\000\000\000\000\000\000\000\000"
 514      6E61626C 
 514      65000000 
 514      00000000 
 514      00000000 
 515 0094 00420200 		.ascii	"\000B\002\000\000si70x0_setHeaterCurrent\000\000\000"
 515      00736937 
 515      3078305F 
 515      73657448 
 515      65617465 
 516 00b3 00000000 		.ascii	"\000\000\000\000\000\000\000\000\000H\002\000\000si"
 516      00000000 
 516      00480200 
 516      007369
 517 00c2 37307830 		.ascii	"70x0_readTemperature\000\000\000\000\000\000\000\000"
 517      5F726561 
 517      6454656D 
 517      70657261 
 517      74757265 
 518 00de 00000000 		.ascii	"\000\000\000\000N\002\000\000si70x0_readHumidity\000"
 518      4E020000 
 518      73693730 
 518      78305F72 
ARM GAS  /tmp/ccl5dmDP.s 			page 41


 518      65616448 
 519 00fa 00000000 		.ascii	"\000\000\000\000\000\000\000\000\000\000\000W\002\000"
 519      00000000 
 519      00000057 
 519      0200
 520 0108 00493243 		.ascii	"\000I2CSensor_init\000\000\002\000\000\000\000\000\000"
 520      53656E73 
 520      6F725F69 
 520      6E697400 
 520      00020000 
 521 0120 0000005D 		.ascii	"\000\000\000]\002\000\000I2CSensor_stop\000\000\002"
 521      02000049 
 521      32435365 
 521      6E736F72 
 521      5F73746F 
 522 0138 00000000 		.ascii	"\000\000\000\000\000\000\000\000\000e\002\000\000I2"
 522      00000000 
 522      00650200 
 522      004932
 523 0147 4353656E 		.ascii	"CSensor_transact\000\000\002\000\000\000\000\000\000"
 523      736F725F 
 523      7472616E 
 523      73616374 
 523      00000200 
 524 0160 0000006A 		.ascii	"\000\000\000j\002\000\000"
 524      020000
 525              		.text
 526              		.section	.gnu.lto_.opts,"",%progbits
 527 0000 272D6D63 		.ascii	"'-mcpu=cortex-m4' '-mfloat-abi=hard' '-mfpu=fpv4-sp"
 527      70753D63 
 527      6F727465 
 527      782D6D34 
 527      2720272D 
 528 0033 2D643136 		.ascii	"-d16' '-mno-thumb-interwork' '-mthumb' '-O2' '-fomi"
 528      2720272D 
 528      6D6E6F2D 
 528      7468756D 
 528      622D696E 
 529 0066 742D6672 		.ascii	"t-frame-pointer' '-falign-functions=16' '-ffunction"
 529      616D652D 
 529      706F696E 
 529      74657227 
 529      20272D66 
 530 0099 2D736563 		.ascii	"-sections' '-fdata-sections' '-fno-common' '-flto' "
 530      74696F6E 
 530      73272027 
 530      2D666461 
 530      74612D73 
 531 00cc 272D6673 		.ascii	"'-fsingle-precision-constant'\000"
 531      696E676C 
 531      652D7072 
 531      65636973 
 531      696F6E2D 
 532              		.text
 533              		.section	.text.si70x0_init,"ax",%progbits
 534              		.align	2
 535              		.p2align 4,,15
ARM GAS  /tmp/ccl5dmDP.s 			page 42


 536              		.global	si70x0_init
 537              		.thumb
 538              		.thumb_func
 539              		.type	si70x0_init, %function
 540              	si70x0_init:
 541              		@ args = 0, pretend = 0, frame = 0
 542              		@ frame_needed = 0, uses_anonymous_args = 0
 543              		@ link register save eliminated.
 544 0000 2823     		movs	r3, #40
 545 0002 FFF7FEBF 		b	I2CSensor_init
 546              		.size	si70x0_init, .-si70x0_init
 547 0006 00BFAFF3 		.section	.text.si70x0_stop,"ax",%progbits
 547      0080AFF3 
 547      0080
 548              		.align	2
 549              		.p2align 4,,15
 550              		.global	si70x0_stop
 551              		.thumb
 552              		.thumb_func
 553              		.type	si70x0_stop, %function
 554              	si70x0_stop:
 555              		@ args = 0, pretend = 0, frame = 0
 556              		@ frame_needed = 0, uses_anonymous_args = 0
 557              		@ link register save eliminated.
 558 0000 FFF7FEBF 		b	I2CSensor_stop
 559              		.size	si70x0_stop, .-si70x0_stop
 560 0004 AFF30080 		.section	.text.si70x0_reset,"ax",%progbits
 560      AFF30080 
 560      AFF30080 
 561              		.align	2
 562              		.p2align 4,,15
 563              		.global	si70x0_reset
 564              		.thumb
 565              		.thumb_func
 566              		.type	si70x0_reset, %function
 567              	si70x0_reset:
 568              		@ args = 0, pretend = 0, frame = 8
 569              		@ frame_needed = 0, uses_anonymous_args = 0
 570 0000 00B5     		push	{lr}
 571 0002 85B0     		sub	sp, sp, #20
 572 0004 04A9     		add	r1, sp, #16
 573 0006 FE23     		movs	r3, #254
 574 0008 01F8013D 		strb	r3, [r1, #-1]!
 575 000c 0023     		movs	r3, #0
 576 000e 0093     		str	r3, [sp]
 577 0010 0122     		movs	r2, #1
 578 0012 FFF7FEFF 		bl	I2CSensor_transact
 579 0016 05B0     		add	sp, sp, #20
 580              		@ sp needed
 581 0018 5DF804FB 		ldr	pc, [sp], #4
 582              		.size	si70x0_reset, .-si70x0_reset
 583 001c AFF30080 		.section	.text.si70x0_setResolution,"ax",%progbits
 584              		.align	2
 585              		.p2align 4,,15
 586              		.global	si70x0_setResolution
 587              		.thumb
 588              		.thumb_func
ARM GAS  /tmp/ccl5dmDP.s 			page 43


 589              		.type	si70x0_setResolution, %function
 590              	si70x0_setResolution:
 591              		@ args = 0, pretend = 0, frame = 0
 592              		@ frame_needed = 0, uses_anonymous_args = 0
 593              		@ link register save eliminated.
 594 0000 0020     		movs	r0, #0
 595 0002 7047     		bx	lr
 596              		.size	si70x0_setResolution, .-si70x0_setResolution
 597 0004 AFF30080 		.section	.text.si70x0_heaterEnable,"ax",%progbits
 597      AFF30080 
 597      AFF30080 
 598              		.align	2
 599              		.p2align 4,,15
 600              		.global	si70x0_heaterEnable
 601              		.thumb
 602              		.thumb_func
 603              		.type	si70x0_heaterEnable, %function
 604              	si70x0_heaterEnable:
 605              		@ args = 0, pretend = 0, frame = 0
 606              		@ frame_needed = 0, uses_anonymous_args = 0
 607              		@ link register save eliminated.
 608 0000 0020     		movs	r0, #0
 609 0002 7047     		bx	lr
 610              		.size	si70x0_heaterEnable, .-si70x0_heaterEnable
 611 0004 AFF30080 		.section	.text.si70x0_setHeaterCurrent,"ax",%progbits
 611      AFF30080 
 611      AFF30080 
 612              		.align	2
 613              		.p2align 4,,15
 614              		.global	si70x0_setHeaterCurrent
 615              		.thumb
 616              		.thumb_func
 617              		.type	si70x0_setHeaterCurrent, %function
 618              	si70x0_setHeaterCurrent:
 619              		@ args = 0, pretend = 0, frame = 0
 620              		@ frame_needed = 0, uses_anonymous_args = 0
 621              		@ link register save eliminated.
 622 0000 0020     		movs	r0, #0
 623 0002 7047     		bx	lr
 624              		.size	si70x0_setHeaterCurrent, .-si70x0_setHeaterCurrent
 625 0004 AFF30080 		.section	.text.si70x0_readTemperature,"ax",%progbits
 625      AFF30080 
 625      AFF30080 
 626              		.align	2
 627              		.p2align 4,,15
 628              		.global	si70x0_readTemperature
 629              		.thumb
 630              		.thumb_func
 631              		.type	si70x0_readTemperature, %function
 632              	si70x0_readTemperature:
 633              		@ args = 0, pretend = 0, frame = 8
 634              		@ frame_needed = 0, uses_anonymous_args = 0
 635 0000 10B5     		push	{r4, lr}
 636 0002 84B0     		sub	sp, sp, #16
 637 0004 04AB     		add	r3, sp, #16
 638 0006 F322     		movs	r2, #243
 639 0008 03F8052D 		strb	r2, [r3, #-5]!
ARM GAS  /tmp/ccl5dmDP.s 			page 44


 640 000c 0222     		movs	r2, #2
 641 000e 0C46     		mov	r4, r1
 642 0010 0092     		str	r2, [sp]
 643 0012 1946     		mov	r1, r3
 644 0014 0122     		movs	r2, #1
 645 0016 03AB     		add	r3, sp, #12
 646 0018 FFF7FEFF 		bl	I2CSensor_transact
 647 001c B0B9     		cbnz	r0, .L8
 648 001e 9DF80C20 		ldrb	r2, [sp, #12]	@ zero_extendqisi2
 649 0022 9DF80D30 		ldrb	r3, [sp, #13]	@ zero_extendqisi2
 650 0026 9FED0A6A 		flds	s12, .L10
 651 002a 9FED0A7A 		flds	s14, .L10+4
 652 002e DFED0A7A 		flds	s15, .L10+8
 653 0032 03EB0223 		add	r3, r3, r2, lsl #8
 654 0036 1BB2     		sxth	r3, r3
 655 0038 06EE903A 		fmsr	s13, r3	@ int
 656 003c F8EEE66A 		fsitos	s13, s13
 657 0040 66EE866A 		fmuls	s13, s13, s12
 658 0044 E6EE877A 		vfma.f32	s15, s13, s14
 659 0048 C4ED007A 		fsts	s15, [r4]
 660              	.L8:
 661 004c 04B0     		add	sp, sp, #16
 662              		@ sp needed
 663 004e 10BD     		pop	{r4, pc}
 664              	.L11:
 665              		.align	2
 666              	.L10:
 667 0050 52B82F43 		.word	1127200850
 668 0054 00008037 		.word	931135488
 669 0058 66663BC2 		.word	3258672742
 670              		.size	si70x0_readTemperature, .-si70x0_readTemperature
 671 005c AFF30080 		.section	.text.si70x0_readHumidity,"ax",%progbits
 672              		.align	2
 673              		.p2align 4,,15
 674              		.global	si70x0_readHumidity
 675              		.thumb
 676              		.thumb_func
 677              		.type	si70x0_readHumidity, %function
 678              	si70x0_readHumidity:
 679              		@ args = 0, pretend = 0, frame = 8
 680              		@ frame_needed = 0, uses_anonymous_args = 0
 681 0000 10B5     		push	{r4, lr}
 682 0002 84B0     		sub	sp, sp, #16
 683 0004 04AB     		add	r3, sp, #16
 684 0006 F522     		movs	r2, #245
 685 0008 03F8052D 		strb	r2, [r3, #-5]!
 686 000c 0222     		movs	r2, #2
 687 000e 0C46     		mov	r4, r1
 688 0010 0092     		str	r2, [sp]
 689 0012 1946     		mov	r1, r3
 690 0014 0122     		movs	r2, #1
 691 0016 03AB     		add	r3, sp, #12
 692 0018 FFF7FEFF 		bl	I2CSensor_transact
 693 001c 18BB     		cbnz	r0, .L13
 694 001e 9DF80C20 		ldrb	r2, [sp, #12]	@ zero_extendqisi2
 695 0022 9DF80D30 		ldrb	r3, [sp, #13]	@ zero_extendqisi2
 696 0026 9FED116A 		flds	s12, .L14
ARM GAS  /tmp/ccl5dmDP.s 			page 45


 697 002a 9FED117A 		flds	s14, .L14+4
 698 002e 03EB0223 		add	r3, r3, r2, lsl #8
 699 0032 9BB2     		uxth	r3, r3
 700 0034 06EE903A 		fmsr	s13, r3	@ int
 701 0038 F8EEE66A 		fsitos	s13, s13
 702 003c F9EE087A 		fconsts	s15, #152
 703 0040 66EE866A 		fmuls	s13, s13, s12
 704 0044 E6EE877A 		vfma.f32	s15, s13, s14
 705 0048 FDEEE77A 		ftosizs	s15, s15
 706 004c 17EE903A 		fmrs	r3, s15	@ int
 707 0050 642B     		cmp	r3, #100
 708 0052 A8BF     		it	ge
 709 0054 6423     		movge	r3, #100
 710 0056 23EAE373 		bic	r3, r3, r3, asr #31
 711 005a 07EE103A 		fmsr	s14, r3	@ int
 712 005e F8EEC77A 		fsitos	s15, s14
 713 0062 C4ED007A 		fsts	s15, [r4]
 714              	.L13:
 715 0066 04B0     		add	sp, sp, #16
 716              		@ sp needed
 717 0068 10BD     		pop	{r4, pc}
 718              	.L15:
 719 006a 00BF     		.align	2
 720              	.L14:
 721 006c 0000FA42 		.word	1123680256
 722 0070 00008037 		.word	931135488
 723              		.size	si70x0_readHumidity, .-si70x0_readHumidity
 724              		.comm	__gnu_lto_v1,1,1
 725 0074 AFF30080 		.ident	"GCC: (GNU Tools for ARM Embedded Processors) 4.8.4 20140526 (release) [ARM/embedded-4_8-br
 725      AFF30080 
 725      AFF30080 
ARM GAS  /tmp/ccl5dmDP.s 			page 46


DEFINED SYMBOLS
                            *ABS*:0000000000000000 si70x0.c
     /tmp/ccl5dmDP.s:534    .text.si70x0_init:0000000000000000 $t
     /tmp/ccl5dmDP.s:540    .text.si70x0_init:0000000000000000 si70x0_init
     /tmp/ccl5dmDP.s:548    .text.si70x0_stop:0000000000000000 $t
     /tmp/ccl5dmDP.s:554    .text.si70x0_stop:0000000000000000 si70x0_stop
     /tmp/ccl5dmDP.s:561    .text.si70x0_reset:0000000000000000 $t
     /tmp/ccl5dmDP.s:567    .text.si70x0_reset:0000000000000000 si70x0_reset
     /tmp/ccl5dmDP.s:584    .text.si70x0_setResolution:0000000000000000 $t
     /tmp/ccl5dmDP.s:590    .text.si70x0_setResolution:0000000000000000 si70x0_setResolution
     /tmp/ccl5dmDP.s:598    .text.si70x0_heaterEnable:0000000000000000 $t
     /tmp/ccl5dmDP.s:604    .text.si70x0_heaterEnable:0000000000000000 si70x0_heaterEnable
     /tmp/ccl5dmDP.s:612    .text.si70x0_setHeaterCurrent:0000000000000000 $t
     /tmp/ccl5dmDP.s:618    .text.si70x0_setHeaterCurrent:0000000000000000 si70x0_setHeaterCurrent
     /tmp/ccl5dmDP.s:626    .text.si70x0_readTemperature:0000000000000000 $t
     /tmp/ccl5dmDP.s:632    .text.si70x0_readTemperature:0000000000000000 si70x0_readTemperature
     /tmp/ccl5dmDP.s:667    .text.si70x0_readTemperature:0000000000000050 $d
     /tmp/ccl5dmDP.s:672    .text.si70x0_readHumidity:0000000000000000 $t
     /tmp/ccl5dmDP.s:678    .text.si70x0_readHumidity:0000000000000000 si70x0_readHumidity
     /tmp/ccl5dmDP.s:721    .text.si70x0_readHumidity:000000000000006c $d
                            *COM*:0000000000000001 __gnu_lto_v1
     /tmp/ccl5dmDP.s:671    .text.si70x0_readTemperature:000000000000005c $t
     /tmp/ccl5dmDP.s:725    .text.si70x0_readHumidity:0000000000000074 $t

UNDEFINED SYMBOLS
I2CSensor_init
I2CSensor_stop
I2CSensor_transact
