ARM GAS  /tmp/ccQpspY6.s 			page 1


   1              		.syntax unified
   2              		.cpu cortex-m4
   3              		.eabi_attribute 27, 3
   4              		.eabi_attribute 28, 1
   5              		.fpu fpv4-sp-d16
   6              		.eabi_attribute 20, 1
   7              		.eabi_attribute 21, 1
   8              		.eabi_attribute 23, 3
   9              		.eabi_attribute 24, 1
  10              		.eabi_attribute 25, 1
  11              		.eabi_attribute 26, 1
  12              		.eabi_attribute 30, 2
  13              		.eabi_attribute 34, 1
  14              		.eabi_attribute 18, 4
  15              		.thumb
  16              		.file	"si70x0.c"
  17              		.section	.gnu.lto_.jmpfuncs.37bb12d552c4c6f4,"",%progbits
  18 0000 789C6D8B 		.ascii	"x\234m\213\321\011\2000\014\005\357\245\255u\024Gr\205"
  18      D1098030 
  18      0C05EFA5 
  18      AD751447 
  18      7285
  19 0012 2EE0646E 		.ascii	".\340dn&\376\212\251\266 \330@\362Brg\030\243\332[\316"
  19      26FE8AA9 
  19      B620D840 
  19      F2427267 
  19      18A3DA5B 
  20 0027 E4182902 		.ascii	"\344\030)\002\021|lO\330\346\275\252HK}\230Rg\220\250"
  20      117C6C4F 
  20      D8E6BDAA 
  20      484B7D98 
  20      526790A8 
  21 003b 0FBBF412 		.ascii	"\017\273\364\022\246\206\272\326.\276\004\"\211)\374"
  21      A686BAD6 
  21      2EBE0422 
  21      8929FC
  22 004a BDE3E375 		.ascii	"\275\343\343u\301\215<@\3171\312\015u\370\017U"
  22      C18D3C40 
  22      CF31CA0D 
  22      75F80F55 
  23              		.text
  24              		.section	.gnu.lto_.inline.37bb12d552c4c6f4,"",%progbits
  25 0000 789C6362 		.ascii	"x\234cb`b\300\006\256Ci\016 \022`dd`\004\262A*\331\026"
  25      6062C006 
  25      AE43690E 
  25      20126064 
  25      646004B2 
  26 0018 C88335B0 		.ascii	"\310\2035\260\36210\260L\360\003A\240\0343\023#\212"
  26      F23130B0 
  26      4CF00341 
  26      A01C3313 
  26      238A
  27 002a 2C1323B7 		.ascii	",\023#\2670L\023\323\005~\2708\273\000P'P\007\0200c"
  27      304C13D3 
  27      057EB838 
  27      BB005027 
  27      50071030 
ARM GAS  /tmp/ccQpspY6.s 			page 2


  28 003f 6862C110 		.ascii	"hb\301\020a\305\020ac\026\223\202\031,\376\251\236\201"
  28      61C51061 
  28      63169382 
  28      192CFEA9 
  28      9E81
  29 0051 BD4905DD 		.ascii	"\275I\005\335`vfI\031\230\022\331U\323\031\261\251a"
  29      60766649 
  29      199812D9 
  29      55D319B1 
  29      A961
  30 0063 000062E5 		.ascii	"\000\000b\345\021E"
  30      1145
  31              		.text
  32              		.section	.gnu.lto_.pureconst.37bb12d552c4c6f4,"",%progbits
  33 0000 789C6362 		.ascii	"x\234cb`b\020d\200\000\016\006\011F\006&\011f\006\026"
  33      60621064 
  33      80000E06 
  33      09460626 
  33      09660616 
  34 0014 06560636 		.ascii	"\006V\0066)v)\000\006>\000\236"
  34      29762900 
  34      063E009E 
  35              		.text
  36              		.section	.gnu.lto_si70x0_init.37bb12d552c4c6f4,"",%progbits
  37 0000 789C5D8E 		.ascii	"x\234]\216\275jBA\020\205\317\231{W%\225b\225.\245 "
  37      BD6A4241 
  37      1085CF99 
  37      7B572595 
  37      62952EA5 
  38 0015 A89D2F90 		.ascii	"\250\235/\220G0\240\205Er\221\313\0266\012\"Z\270&\202"
  38      4730A085 
  38      457291CB 
  38      16360A22 
  38      5AB82682 
  39 0029 29ADB5B2 		.ascii	")\255\265\262\265\320\007H#\351\223\220.\351\204\274"
  39      B5D00748 
  39      23E99390 
  39      2EE984BC 
  40 0039 858DCEDE 		.ascii	"\205\215\316\336\213\020\034\230\037v\347;s\004\202"
  40      8B101C98 
  40      1F76E73B 
  40      730482
  41 0048 EBB8D5FC 		.ascii	"\353\270\325\374\323,j2\000e\361\011LsB\372\001\304"
  41      D32C6A32 
  41      0065F109 
  41      4C7342FA 
  41      01C4
  42 005a 44386931 		.ascii	"D8i1\331\335\311\376p:m\177f\357A\226\354R\345,\021"
  42      D9DDC9FE 
  42      703A6D7F 
  42      66EF4196 
  42      EC52E52C 
  43 006f EA44A3C5 		.ascii	"\352D\243\305\213\033\314\234[\334\001Q\2024\264z\235"
  43      8B1BCC9C 
  43      5BDC0151 
  43      8234B47A 
  43      9D
ARM GAS  /tmp/ccQpspY6.s 			page 3


  44 0080 07FDD41E 		.ascii	"\007\375\324\036|\340\371\370\362\366+\217\\\323 \246"
  44      7CE0F9F8 
  44      F2F62B8F 
  44      5CD320A6 
  45 0090 8C315289 		.ascii	"\2141R\21126N\243m\311\025\226\264\224\230lj\017\222"
  45      32364EA3 
  45      6DC91596 
  45      B494986C 
  45      6A0F92
  46 00a3 BB4FFC67 		.ascii	"\273O\374g\370\013\363}9\345\2011\216\356\325\345-\303"
  46      F80BF37D 
  46      39E58131 
  46      8EEED5E5 
  46      2DC3
  47 00b5 88E952EC 		.ascii	"\210\351R\354\3310\246\361\270)\251\301\014\360\215"
  47      D930A6F1 
  47      B829A9C1 
  47      0CF08D
  48 00c4 E9617793 		.ascii	"\351aw\223B\376={\021k(\245\276\274\363\302}\317\016"
  48      42FE3D7B 
  48      116B28A5 
  48      BEBCF3C2 
  48      7DCF0E
  49 00d7 3ABD7EB5 		.ascii	":\275~\265o\353\265a\255\022\341\014d\\8\225"
  49      6FEBB561 
  49      AD12E10C 
  49      645C3895 
  50              		.text
  51              		.section	.gnu.lto_si70x0_stop.37bb12d552c4c6f4,"",%progbits
  52 0000 789C6362 		.ascii	"x\234cb`b@\007\222@\034\001\304\302@\314\310\314\300"
  52      60624007 
  52      92401C01 
  52      C4C240CC 
  52      C8CCC0
  53 0013 C834E11C 		.ascii	"\3104\341\034\003C#\007\023##\210\301\300\310P\317\304"
  53      03432307 
  53      13232388 
  53      C1C0C850 
  53      CFC4
  54 0025 581FC908 		.ascii	"X\037\311\010V\273\236\351\300\203\377\377\327\375i"
  54      56BB9EE9 
  54      C083FFFF 
  54      D7FD69
  55 0034 39C50232 		.ascii	"9\305\0022\210\225\241\245\241a\202\002\003C2X:\004"
  55      8895A1A5 
  55      A1618202 
  55      03433258 
  55      3A04
  56 0046 4882F484 		.ascii	"H\202\364\20422\201h\346\213\014\215\017Np%2.dde\210"
  56      32328168 
  56      E68B0C8D 
  56      0F4E7025 
  56      322E6464 
  57 005c 60CC6484 		.ascii	"`\314d\204[\031\302\310\010R\0002B\320\245(\263,\265"
  57      5B19C2C8 
  57      08520032 
  57      42D0A528 
ARM GAS  /tmp/ccQpspY6.s 			page 4


  57      B32CB5
  58 006f A858BF38 		.ascii	"\250X\2778\323\334\240\302@/\231\001\000\"^\036\254"
  58      D3DCA0C2 
  58      402F9901 
  58      00225E1E 
  58      AC
  59              		.text
  60              		.section	.gnu.lto_si70x0_reset.37bb12d552c4c6f4,"",%progbits
  61 0000 789C5D51 		.ascii	"x\234]Q\261J\003A\020}o/\027/\026\242 \210`!\266BL!"
  61      B14A0341 
  61      107D6F2F 
  61      172F16A2 
  61      20886021 
  62 0018 F801FA09 		.ascii	"\370\001\372\011\021b\031\343\021\266H\223\004\021\203"
  62      116219E3 
  62      11B64893 
  62      041183
  63 0027 64A316A9 		.ascii	"d\243\026\251\344\320F\324&\244\323\302\302\3062\010"
  63      E4D046D4 
  63      26A4D3C2 
  63      C2C63208 
  64 0037 962A36C1 		.ascii	"\226*6\3012\275\205`\231\"\347\354\255Jt`gv\230\267"
  64      32BD8560 
  64      9922E7EC 
  64      AD4A7460 
  64      677698B7 
  65 004b EFBD6115 		.ascii	"\357\275a\025\024\376\307\274\234:\201\005\251\364@"
  65      14FEC7BC 
  65      9C3A8105 
  65      A9F440
  66 005a 153D03AD 		.ascii	"\025=\003\255@\221\366\002\242\251\330\334\242\205r"
  66      4091F602 
  66      A2A9D8DC 
  66      A28572
  67 0069 091DD33B 		.ascii	"\011\035\323;\035<\366O\346\314\300Df\024\307\324\024"
  67      1D3CF64F 
  67      E6CCC044 
  67      6614C7D4 
  67      14
  68 007a D259A244 		.ascii	"\322Y\242D\024\244a\220\024\305\277*\267\2527\210\343"
  68      14A46190 
  68      14C5BF2A 
  68      B7AA3788 
  68      E3
  69 008b AB9B281B 		.ascii	"\253\233(\033x\254\020)hziI)\031\37286&Z,\262#\012\260"
  69      78AC1029 
  69      687A6949 
  69      2919FA38 
  69      36265A2C 
  70 00a3 4C1279C9 		.ascii	"L\022y\311\326\301&\225\255\336\023\016\357\337\372"
  70      D6C12695 
  70      ADDE130E 
  70      EFDFFA
  71 00b2 534576E9 		.ascii	"SEv\351\303A\255\020F\026-\303\341\321\307\247\347\246"
  71      C341AD10 
  71      46162DC3 
  71      E1D1C7A7 
ARM GAS  /tmp/ccQpspY6.s 			page 5


  71      E7A6
  72 00c4 65A61AD8 		.ascii	"e\246\032\330\027\201e\\\033\2113\301\371\227\270\220"
  72      1781655C 
  72      1B8933C1 
  72      F997B890 
  73 00d4 922ED3B3 		.ascii	"\222.\323\263\317&\022W\333\343._pn\012?\004\351\006"
  73      CF261257 
  73      DBE32E5F 
  73      706E0A3F 
  73      04E906
  74 00e7 86A66DA6 		.ascii	"\206\246m\2465\203\022\035*a\035Z\276\003\315\214s\340"
  74      3583121D 
  74      2A611D5A 
  74      BE03CD8C 
  74      73E0
  75 00f9 E0CE88DB 		.ascii	"\340\316\210\333?\363\335Av\233\264\306\036\336\325"
  75      3FF3DD41 
  75      769BB4C6 
  75      1EDED5
  76 0108 B8E755DC 		.ascii	"\270\347U\334\231\266\003\340\025\255\236\377\253\350"
  76      99B603E0 
  76      15AD9EFF 
  76      ABE8
  77 0116 5CE4454D 		.ascii	"\\\344EM\326\265\3774\263Q\325\273a\265\266R\323k\271"
  77      D6B5FF34 
  77      B351D5BB 
  77      61B5B652 
  77      D36BB9
  78 0129 BD5CB684 		.ascii	"\275\\\266\204\240\032\326\302\372ze\347\013\343\004"
  78      A01AD6C2 
  78      FA7A65E7 
  78      0BE304
  79 0138 5F38     		.ascii	"_8"
  80              		.text
  81              		.section	.gnu.lto_si70x0_setResolution.37bb12d552c4c6f4,"",%progbits
  82 0000 789C6362 		.ascii	"x\234cb`b@\007\222@\034\001\304\302@\314\310\314\300"
  82      60624007 
  82      92401C01 
  82      C4C240CC 
  82      C8CCC0
  83 0013 C834E11C 		.ascii	"\3104\341\034\003C#\007\023##\210\301\300\310P\317\304"
  83      03432307 
  83      13232388 
  83      C1C0C850 
  83      CFC4
  84 0025 581FC908 		.ascii	"X\037\311\010V\273\236\351\300\203\377\377\327]i}\305"
  84      56BB9EE9 
  84      C083FFFF 
  84      D75D697D 
  84      C5
  85 0036 06328895 		.ascii	"\0062\210\225\241\245\241a\202\002\003C2X:\004H\202"
  85      A1A5A161 
  85      82020343 
  85      32583A04 
  85      4882
  86 0048 F4843232 		.ascii	"\364\20422\201h\346\213\014\215\017\336p%2.dde\210`"
  86      8168E68B 
ARM GAS  /tmp/ccQpspY6.s 			page 6


  86      0C8D0FDE 
  86      7025322E 
  86      64646588 
  87 005d CC64845B 		.ascii	"\314d\204[\031\302\310\010R\0002B\320\245(\263,\265"
  87      19C2C808 
  87      52003242 
  87      D0A528B3 
  87      2CB5
  88 006f A858BF38 		.ascii	"\250X\2778\323\334\240\302@/\231\001\000'N\036\313"
  88      D3DCA0C2 
  88      402F9901 
  88      00274E1E 
  88      CB
  89              		.text
  90              		.section	.gnu.lto_si70x0_heaterEnable.37bb12d552c4c6f4,"",%progbits
  91 0000 789C6362 		.ascii	"x\234cb`b@\007\222@\034\001\304\302@\314\310\314\300"
  91      60624007 
  91      92401C01 
  91      C4C240CC 
  91      C8CCC0
  92 0013 C834E11C 		.ascii	"\3104\341\034\003C#\007\023##\210\301\300\310P\317\304"
  92      03432307 
  92      13232388 
  92      C1C0C850 
  92      CFC4
  93 0025 581FC908 		.ascii	"X\037\311\010V\273\236\351\300\203\377\377\327}k\375"
  93      56BB9EE9 
  93      C083FFFF 
  93      D77D6BFD 
  94 0035 C40E3288 		.ascii	"\304\0162\210\225\241\245\241a\202\002\003C2X:\004H"
  94      95A1A5A1 
  94      61820203 
  94      4332583A 
  94      0448
  95 0047 82F48432 		.ascii	"\202\364\20422\201h\346\213\014\215\017\376r%2.dde\210"
  95      328168E6 
  95      8B0C8D0F 
  95      FE722532 
  95      2E646465 
  96 005c 60CC6484 		.ascii	"`\314d\204[\031\302\310\010R\0002B\320\245(\263,\265"
  96      5B19C2C8 
  96      08520032 
  96      42D0A528 
  96      B32CB5
  97 006f A858BF38 		.ascii	"\250X\2778\323\334\240\302@/\231\001\000:,\037\007"
  97      D3DCA0C2 
  97      402F9901 
  97      003A2C1F 
  97      07
  98              		.text
  99              		.section	.gnu.lto_si70x0_setHeaterCurrent.37bb12d552c4c6f4,"",%progbits
 100 0000 789C6362 		.ascii	"x\234cb`b@\007\222@\034\015\304\302@\314\310\314\300"
 100      60624007 
 100      92401C0D 
 100      C4C240CC 
 100      C8CCC0
 101 0013 C834E11C 		.ascii	"\3104\341\034\003C#\007\023##\210\301\300\310P\317\304"
ARM GAS  /tmp/ccQpspY6.s 			page 7


 101      03432307 
 101      13232388 
 101      C1C0C850 
 101      CFC4
 102 0025 581FC908 		.ascii	"X\037\311\010V\273\236\351\300\203\377\377\327\3158"
 102      56BB9EE9 
 102      C083FFFF 
 102      D7CD38
 103 0034 B6A09F91 		.ascii	"\266\240\237\221\021d\024+CKC\303\004\005\006\206d\260"
 103      1164142B 
 103      434B43C3 
 103      04050686 
 103      64B0
 104 0046 82102009 		.ascii	"\202\020 \011\322\025\012\224\004\322\314\027\031\032"
 104      D2150A94 
 104      04D2CC17 
 104      191A
 105 0054 1FF42D66 		.ascii	"\037\364-fLd\\\310\310\312\020\301\230\311\010\2675"
 105      4C645CC8 
 105      C8CA10C1 
 105      98C908B7 
 105      35
 106 0065 849111A4 		.ascii	"\204\221\021\244\002d\206\240KQfYjQ\261~q\246\271A\205"
 106      026486A0 
 106      4B516659 
 106      6A51B17E 
 106      71A6B941 
 107 007a 815E3203 		.ascii	"\201^2\003\000{\347\037P"
 107      007BE71F 
 107      50
 108              		.text
 109              		.section	.gnu.lto_si70x0_readTemperature.37bb12d552c4c6f4,"",%progbits
 110 0000 789C8D54 		.ascii	"x\234\215TMHTQ\024>\347\276\367\346_\235\031\003\313"
 110      4D485451 
 110      143EE7BE 
 110      F7E65F9D 
 110      1903CB
 111 0013 A0C4459B 		.ascii	"\240\304E\233J%\203h\027\324\272\225B-\237&\362\012"
 111      4A258368 
 111      17D4BA95 
 111      422D9F26 
 111      F20A
 112 0025 2166AC24 		.ascii	"!f\254$\027\336qD\246h`\212\026Y\004\312\020fQF\263"
 112      17DE7144 
 112      A668608A 
 112      165904CA 
 112      10665146 
 113 003a C830648A 		.ascii	"\3100d\212\222ZTXA\213f1;\245\240EmD\242\3279\367\375"
 113      925A5458 
 113      418B6631 
 113      3BA5A045 
 113      6D44A2D7 
 114 0051 CCA0415D 		.ascii	"\314\240A]\230{\337=\347\373\276s\3369\347\215\000\001"
 114      987BDF3D 
 114      E7FBBE73 
 114      DE39E78D 
 114      0001
ARM GAS  /tmp/ccQpspY6.s 			page 8


 115 0063 9BD701FA 		.ascii	"\233\327\001\372-\352\000\335t\242\001(\012\357\000"
 115      2DEA00DD 
 115      74A20128 
 115      0AEF00
 116 0072 322121B4 		.ascii	"2!!\264O\235 #\372\263] c\032\352\216YG\344\007@\030"
 116      4F9D2023 
 116      FAB35D20 
 116      631AEA8E 
 116      5947E407 
 117 0088 139A8E63 		.ascii	"\023\232\216c'\2215\214v\230\221\345B\365\325\352\032"
 117      2791358C 
 117      769891E5 
 117      42F5D5EA 
 117      1A
 118 0099 66647962 		.ascii	"fdybZ\376\262mD\013)\3366\204~\204\023t\301\270:\304"
 118      5AFEB26D 
 118      440B29DE 
 118      36847E84 
 118      1374C1B8 
 119 00af A61C14F7 		.ascii	"\246\034\024\367Zyi9\372H\346\244m\217Y\250\011h\251"
 119      5A796939 
 119      FA48E6A4 
 119      6D8F59A8 
 119      0968A9
 120 00c2 D1420E0D 		.ascii	"\321B\016\015\267\322d\241\274\262\234\337!\247\307"
 120      B7D264A1 
 120      BCB29CDF 
 120      21A7C7
 121 00d1 0BF23745 		.ascii	"\013\3627E\264P\027\260\273\306ls\230\372_\231\237'"
 121      B45017B0 
 121      BBC66C73 
 121      98FA5F99 
 121      9F27
 122 00e3 F3DBE574 		.ascii	"\363\333\345t\306c\032\002\366\374O\252\304\3742y\245"
 122      C6631A02 
 122      F6FC4FAA 
 122      C4FC3279 
 122      A5
 123 00f4 BB2E6640 		.ascii	"\273.f@@\307\277b\316\213r\325\266+\245\211\017;[t\034"
 123      40C7BF62 
 123      CE8B72D5 
 123      B62BA589 
 123      0F3B5B74 
 124 0109 4230C0C2 		.ascii	"B0\300\302`\020L\274\203\355\020\242K(L[8\302[\224\257"
 124      60104CBC 
 124      83ED10A2 
 124      4B284C5B 
 124      38C25B94 
 125 011e 317E6AE0 		.ascii	"1~j\340\255\221P\263\204j\242K \316[\202\267$\231\347"
 125      AD9150B3 
 125      846AA24B 
 125      20CE5B82 
 125      B72499E7 
 126 0132 C8DC4C72 		.ascii	"\310\334Lr\\\033\003&(\2716\023g\310hbQ\355\254\016"
 126      5C1B0326 
 126      28B93613 
 126      67C86862 
ARM GAS  /tmp/ccQpspY6.s 			page 9


 126      51EDAC0E 
 127 0146 9C1BAD1E 		.ascii	"\234\033\255\036\332\271y\275(\370\324\336\302\370\302"
 127      DAB979BD 
 127      28F8D4DE 
 127      C2F8C2
 128 0155 3A75CCC4 		.ascii	":u\314\304\373\324x\207\301\271k?\031N\336\215l1\177"
 128      FBD47887 
 128      C1B96B3F 
 128      194EDE8D 
 128      6C317F
 129 0168 DCF10EA2 		.ascii	"\334\361\016\2421\012\027)\345\275pO\322*\021.r\013"
 129      310A1729 
 129      E5BD704F 
 129      D22A112E 
 129      720B
 130 017a 6ED2111D 		.ascii	"n\322\021\035D\235i1\365\242}\365mz\0177\344\202\346"
 130      449D6931 
 130      F5A27DF5 
 130      6D7A0F37 
 130      E482E6
 131 018d 29044761 		.ascii	")\004Ga\203:\034\267\260\241\037\035\230\222\335`\301"
 131      833A1CB7 
 131      B0A11F1D 
 131      9892DD60 
 131      C1
 132 019e DBA4D0E8 		.ascii	"\333\244\320\350e\315x'\025\004\327\1775`a\223\367n"
 132      65CD7827 
 132      1504D77F 
 132      35606193 
 132      F76E
 133 01b0 35BFA04A 		.ascii	"5\277\240J\304\001^\303\313\325\347\037\227k\241\330"
 133      C4015EC3 
 133      CBD5E71F 
 133      976BA1D8 
 134 01c0 99A86F40 		.ascii	"\231\250o@/j\360\251\223\337\271\262\376\265\252\373"
 134      2F6AF0A9 
 134      93DFB9B2 
 134      FEB5AAFB 
 135 01d0 C59A5582 		.ascii	"\305\232U\202s\252L\2560\247\025\332\017\373H\336\011"
 135      73AA4CAE 
 135      30A715DA 
 135      0FFB48DE 
 135      09
 136 01e1 C862E13A 		.ascii	"\310b\341:-\022\371\236]\022&>V\301\302\004gc\366\201"
 136      2D12F99E 
 136      5D12263E 
 136      56C1C204 
 136      6763F681 
 137 01f5 E6992264 		.ascii	"\346\231\"dU\254\220\003\257\024Z=Wt\2132nR\376\341"
 137      55AC9003 
 137      AF145A3D 
 137      57748B32 
 137      6E52FEE1 
 138 0209 2BC708AE 		.ascii	"+\307\010\256\224s\276r\203\022\217\271\320\323\236"
 138      9473BE72 
 138      83128FB9 
 138      D0D39E
ARM GAS  /tmp/ccQpspY6.s 			page 10


 139 0218 B9913CCA 		.ascii	"\271\221<\312v7\373$\177\330\2636\221C\361/\373\374"
 139      7637FB24 
 139      7FD8B336 
 139      9143F12F 
 139      FBFC
 140 022a 38595B61 		.ascii	"8Y[a\212\372P8\002\300\225\225\345\353\225y\036cp\240"
 140      8AFA5038 
 140      02C09595 
 140      E5EB9579 
 140      1E6370A0 
 141 023e D9877EFC 		.ascii	"\331\207~\374\004\341]p\316\246Yw\011\274j\204K\331"
 141      04E15D70 
 141      CEA65977 
 141      09BC6A84 
 141      4BD9
 142 0250 3E0F9F24 		.ascii	">\017\237$\212\213\357\362\304\247J\213>v\374\315\332"
 142      8A8BEFF2 
 142      C4A74A8B 
 142      3E76FCCD 
 142      DA
 143 0261 19074BA3 		.ascii	"\031\007K\243\223!\257A\236Al\3462$\335\201Hz\375\322"
 143      9321AF41 
 143      9E416CE6 
 143      3224DD81 
 143      487AFDD2 
 144 0275 DD217DF1 		.ascii	"\335!}\361Mx\023\312%;\010%\231\343\277\026\245X\347"
 144      4D7813CA 
 144      253B0825 
 144      99E3BF16 
 144      A558E7
 145 0288 2CD63935 		.ascii	",\32695r\256@\246\372\264\210\376H8\272=4y\244\313\037"
 145      72AE40A6 
 145      FAB488FE 
 145      4838BA3D 
 145      3479A4CB 
 146 029d 76E258CA 		.ascii	"v\342X\312:?\220Jw\246\255C]#]\035\375 R#\301\341\201"
 146      3A3F904A 
 146      77A6AD43 
 146      5D235D1D 
 146      FD205223 
 147 02b4 A1B34787 		.ascii	"\241\263G\207N\005\322\303\346\360\271t0e^\350!\213"
 147      4E05D2C3 
 147      E6F0B974 
 147      30655EE8 
 147      218B
 148 02c6 A1CC7F00 		.ascii	"\241\314\177\000\367\3141\030"
 148      F7CC3118 
 149              		.text
 150              		.section	.gnu.lto_si70x0_readHumidity.37bb12d552c4c6f4,"",%progbits
 151 0000 789C8D54 		.ascii	"x\234\215T[H\224Q\020\2369\377\236\177\327u\327\275"
 151      5B489451 
 151      109E39FF 
 151      9E7FD775 
 151      D7BD
 152 0012 68645122 		.ascii	"hdQ\"\022\004v\321\207 z\256\007{\351A\024\252\267M"
 152      120476D1 
 152      87207AAE 
ARM GAS  /tmp/ccQpspY6.s 			page 11


 152      077BE941 
 152      14AAB74D 
 153 0026 63DB0743 		.ascii	"c\333\007CV+Ib\317\272\202K\250,\022t\007ED\354\202"
 153      562B4962 
 153      CFBA824B 
 153      A82C1274 
 153      074544EC 
 154 003b A50F19F6 		.ascii	"\245\017\031\366\260J`\320\315\300\007\003!!\264@\010"
 154      B04A60D0 
 154      CDC00703 
 154      2121B440 
 154      08
 155 004c 292290EA 		.ascii	")\"\220\352o\346\277\254\233\026u`\317\371g\276o\276"
 155      6FE6BFAC 
 155      9B167560 
 155      CFF967BE 
 155      6FBE
 156 005e 99336758 		.ascii	"\2313gX\001\0026\256\223\364\363J\200*:\321\003(2\257"
 156      010236AE 
 156      93F4F34A 
 156      802A3AD1 
 156      032832AF 
 157 0072 00921E21 		.ascii	"\000\222\036!\264\271*P^\367\2232P>M\350\335[\310ru"
 157      B4B92A50 
 157      5EF79332 
 157      503E4DE8 
 157      DD5BC872 
 158 0087 1E22CB25 		.ascii	"\036\"\313%dz7Y:\357>\211\272\025\242\243\333\372p#"
 158      647A3759 
 158      3AEF3E89 
 158      BA15A2A3 
 158      DBFA7023 
 159 009b F2072024 		.ascii	"\362\007 $\204\346\222\272\033\023'\220s\311\012\030"
 159      84E692BA 
 159      1B132790 
 159      73C90A18 
 160 00ab 50D9CCE2 		.ascii	"P\331\314\342\320\347\217\230T\331\316~\365\3350\020"
 160      D0E78F98 
 160      54D9CE7E 
 160      F5DD3010 
 161 00bb 63487595 		.ascii	"cHu\225 4 \034'\003\203\346!6\324j\306\366e\257\314"
 161      2034201C 
 161      270383E6 
 161      2136D46A 
 161      C6F665AF 
 162 00d0 143E5069 		.ascii	"\024>Pie\030\211\030j\002\266\256\207y\2540\334\034"
 162      65188918 
 162      6A02B6AE 
 162      8779AC30 
 162      DC1C
 163 00e2 A632D9AB 		.ascii	"\2462\331\2533=\333T\177GF\375\244\2141t\011\330\271"
 163      333DDB54 
 163      7F4746FD 
 163      A48C3174 
 163      09D8B9
 164 00f5 1E596E45 		.ascii	"\036YnE\272\376\020\331\227\275\325\345\233u\022J\001"
 164      BAFE10D9 
ARM GAS  /tmp/ccQpspY6.s 			page 12


 164      97BDD5E5 
 164      9B75124A 
 164      01
 165 0106 BBFEA74E 		.ascii	"\273\376\247NJ\370\260\3539\252>\225\\5\214@\014u\001"
 165      4AF8B0EB 
 165      39AA3E95 
 165      5C358C40 
 165      0C7501
 166 0119 95FFCA37 		.ascii	"\225\377\3127*\262\213\206\321\375\270s\272\254\024"
 166      2AB28B86 
 166      D1FDB873 
 166      BAAC14
 167 0128 21822358 		.ascii	"!\202#X\001\022\233\020t\210\241\333C\236!\362\024\220"
 167      01129B10 
 167      7488A1DB 
 167      439E21F2 
 167      1490
 168 013a E1F1D256 		.ascii	"\341\361\322VP\310\233\217M?\177\025\021a\230\010\001"
 168      50C89B8F 
 168      4D3F7F15 
 168      11619808 
 168      01
 169 014b 32F4206F 		.ascii	"2\364 o!\336\302\266R1sJH\216\373#\241\223j,\217\340"
 169      21DEC2B6 
 169      5231734A 
 169      488EFB23 
 169      A1936A2C 
 170 0161 0021111C 		.ascii	"\000!\021\0344wV\007\256\221V\035\355\374\206\365(\370"
 170      34775607 
 170      AE91561D 
 170      EDFC86F5 
 170      28F8
 171 0173 D45E42C7 		.ascii	"\324^B\307\304<\275Z\004\357\242\264#\370\016\332W\246"
 171      C43CBD5A 
 171      04EFA2B4 
 171      23F80EDA 
 171      57A6
 172 0185 13BA961A 		.ascii	"\023\272\226\032\355=f\241Q\324\333\341\"\225\274\007"
 172      ED3D66A1 
 172      51D4DBE1 
 172      2295BC07 
 173 0195 EE285AE3 		.ascii	"\356(Z\343\304\363\336\204\033t\024FQr\230\317\274\360"
 173      C4F3DE84 
 173      1B741446 
 173      517298CF 
 173      BCF0
 174 01a7 A9FCA77A 		.ascii	"\251\374\247z\015\327\324\204\346(x\332a\215\232\036"
 174      0DD7D484 
 174      E62878DA 
 174      618D9A1E 
 175 01b7 8CA1BF01 		.ascii	"\214\241\277\001-\232)\273\306\202\267I\241\310\251"
 175      2D9A29BB 
 175      C682B749 
 175      A1C8A9
 176 01c6 9AF95629 		.ascii	"\232\371V)\0106\376\203\254\200s\267u\\P\007\202\000"
 176      0836FE83 
 176      AC8073B7 
ARM GAS  /tmp/ccQpspY6.s 			page 13


 176      755C5007 
 176      8200
 177 01d8 CFE0E987 		.ascii	"\317\340\351\207\251\3533\353\251\030\014\345?D=j0W"
 177      A9EB33EB 
 177      A9180CE5 
 177      3F443D6A 
 177      3057
 178 01ea C5775E98 		.ascii	"\305w^\230\377\262*r\315\0326\005G\3146\331\302\\V\301"
 178      FFB22A72 
 178      CD1A3605 
 178      47CC36D9 
 178      C25C56C1 
 179 01fe 3ED84BF2 		.ascii	">\330K\362VB\026\323\363\264H\344S\352l\004\307\314"
 179      564216D3 
 179      F3B448E4 
 179      53EA6C04 
 179      C7CC
 180 0210 5C5E62B3 		.ascii	"\\^b\263/u_s\\\324\022/\007I\217\305^\230\015;\220o"
 180      2F755F73 
 180      5CD4122F 
 180      07498FC5 
 180      5E980D3B 
 181 0226 9330FE4D 		.ascii	"\2230\376M\330\037\345\236\222p:'\\dj\373m\346\373\336"
 181      D81FE59E 
 181      92703A27 
 181      5C646AFB 
 181      6DE6FBDE 
 182 023a 4A070810 		.ascii	"J\007\010\020fr/\347\270A\362\232\011.\231\312\251\236"
 182      66722FE7 
 182      B841F29A 
 182      092E99CA 
 182      A99E
 183 024c D4323A58 		.ascii	"\3242:X\210`\023S\312e\241\351\324v\007\014\023n\202"
 183      88601353 
 183      CA65A1E9 
 183      D476070C 
 183      136E82
 184 025f 6B86BD30 		.ascii	"k\206\2750a\266xij\274K\344X\033\273B-v\301R\205F\304"
 184      61B67869 
 184      6ABC4BE4 
 184      581BBB42 
 184      2D76C152 
 185 0276 E5A94733 		.ascii	"\345\251G3\276\337\211\215y\304:\362\217\205\264z\012"
 185      BEDF898D 
 185      79C43AF2 
 185      8F85B47A 
 185      0A
 186 0287 B79E6425 		.ascii	"\267\236d%\365\255w\207\303/\216\362p\220\367\250\345"
 186      F5AD7787 
 186      C32F8EF2 
 186      7090F7A8 
 186      E5
 187 0298 A1294BD2 		.ascii	"\241)K\322\000Hjg\024KX,l\317N1\037o\001\355J\264{\223"
 187      00486A67 
 187      144B582C 
 187      6CCF4E31 
 187      1F6F01ED 
ARM GAS  /tmp/ccQpspY6.s 			page 14


 188 02b0 CD94CED5 		.ascii	"\315\224\316\325=Yj\247\224/&\233\271.\267=\357\323"
 188      3D596AA7 
 188      942F269B 
 188      B92EB73D 
 188      EFD3
 189 02c2 2BC21976 		.ascii	"+\302\031vn\377\001\030Wi\376\2472[\220\007\016\346"
 189      6EFF0118 
 189      5769FEA7 
 189      325B9007 
 189      0EE6
 190 02d4 811A816F 		.ascii	"\201\032\201o \271\370n\020s\323\345\\\003Y\227\377"
 190      20B9F86E 
 190      1073D3E5 
 190      5C035997 
 190      FF
 191 02e5 2A4247E2 		.ascii	"*BG\342\261\363\247\343-U-\261\203\325m\325\373\033"
 191      B1F3A7E3 
 191      2D552DB1 
 191      83D56DD5 
 191      FB1B
 192 02f7 40C4DB64 		.ascii	"@\304\333d\374\314\341\246F\275\2455\322z\256E\306#"
 192      FCCCE1A6 
 192      46BDA535 
 192      D27AAE45 
 192      C623
 193 0309 176A6B64 		.ascii	"\027jkdsCkm\315/\336\374>G"
 193      73436B6D 
 193      CD2FDEFC 
 193      3E47
 194              		.text
 195              		.section	.gnu.lto_.symbol_nodes.37bb12d552c4c6f4,"",%progbits
 196 0000 789C4DC7 		.ascii	"x\234M\307\301\015\3020\020D\321\3311\304v\325c \200"
 196      C10DC230 
 196      1044D1D9 
 196      31C476D5 
 196      632080
 197 0013 C9291570 		.ascii	"\311)\025pI\017i wj\240\022\204\"[\260\377\362\365\010"
 197      490F6920 
 197      776AA012 
 197      84225BB0 
 197      FFF2F508 
 198 0027 62458F27 		.ascii	"bE\217'\012\230_\200\364\254\3063e\216\027\212\216#"
 198      0A985F80 
 198      F4ACC633 
 198      658E178A 
 198      8E23
 199 0039 151CAFD4 		.ascii	"\025\034\257\324\301\361F\035\035\357\324\340X\251\370"
 199      C1F1461D 
 199      1DEFD4E0 
 199      58A9F8
 200 0048 A73DA8D4 		.ascii	"\247=\250\324X\212\331D\345\237\002\022\226\367\307"
 200      588AD944 
 200      E59F0212 
 200      96F7C7
 201 0057 0233B6FD 		.ascii	"\0023\266\375C\177l\307\027\31537\265"
 201      437F6CC7 
 201      17CD3337 
ARM GAS  /tmp/ccQpspY6.s 			page 15


 201      B5
 202              		.text
 203              		.section	.gnu.lto_.refs.37bb12d552c4c6f4,"",%progbits
 204 0000 789C6362 		.ascii	"x\234cb`b`d\200\002\000\000F\000\006"
 204      60626064 
 204      80020000 
 204      460006
 205              		.text
 206              		.section	.gnu.lto_.decls.37bb12d552c4c6f4,"",%progbits
 207 0000 789CBD5C 		.ascii	"x\234\275\\{t\024E\272\357\356\031\222\014\211\201\200"
 207      7B741445 
 207      BAEFEE19 
 207      920C8981 
 207      80
 208 0011 BAB8EB39 		.ascii	"\272\270\3539\306sv\367p\334\205<`y\\\275\0127\011K"
 208      C67376F7 
 208      70DC853C 
 208      60795CBD 
 208      0A37094B 
 209 0025 8EBC3609 		.ascii	"\216\2746\011\256x\316\336\261\3114d\256I&\267\247\003"
 209      AE78CEDE 
 209      B1C93464 
 209      AE4926B7 
 209      A703
 210 0037 E19FBB4D 		.ascii	"\341\237\273M\"\\A\201\020@\036\362\210\227\207\350"
 210      225C4181 
 210      10401EF2 
 210      889787E8 
 211 0047 024B0CAF 		.ascii	"\002K\014\257\270A\006\025\210\001y\210A\010\002\243"
 211      B8410615 
 211      88017988 
 211      410802A3 
 212 0057 57DECB2E 		.ascii	"W\336\313.\257\010\210$\267\352\353\356\231\352NwO\365"
 212      AF088824 
 212      B7EAEBEE 
 212      99EA4E77 
 212      4FF5
 213 0069 AC7BE79C 		.ascii	"\254{\347\234\252\256\256\256\372\325\367}\365}\365"
 213      AAAEAEAE 
 213      FAD5F77D 
 213      F57DF5
 214 0078 D52BE118 		.ascii	"\325+\341\030\216\331\3121L\027\372==\232a\316%1\214"
 214      8ED9CA31 
 214      4C17FA3D 
 214      3D9A61CE 
 214      25318C
 215 008b 87619867 		.ascii	"\207a\230gQp\243\3606\012\211(lG!\015\225\303\277\236"
 215      5170A3F0 
 215      360A8928 
 215      6C47210D 
 215      95C3BF9E 
 216 009f 28F441E9 		.ascii	"(\364A\351\001(\014A\341\031\024\362Px\036\205\337\241"
 216      01280C41 
 216      E11914F2 
 216      50781E85 
 216      DFA1
 217 00b1 F0120A3E 		.ascii	"\360\022\012>\024J\325\362\344\017\327CM0S9\005\373"
ARM GAS  /tmp/ccQpspY6.s 			page 16


 217      144AD5F2 
 217      E40FD743 
 217      4D305339 
 217      05FB
 218 00c3 71F4FC19 		.ascii	"q\364\374\031\012\022\247\264#\240\347\303(\260(\375"
 218      0A12A7B4 
 218      23A0E7C3 
 218      28B028FD 
 219 00d3 247A726A 		.ascii	"$zrj\035\214\347B\351_\242g\177\024\2362`\017P\353<"
 219      1D8CE742 
 219      E95FA267 
 219      7F149E32 
 219      600F50EB 
 220 00e8 ACE6B36A 		.ascii	"\254\346\263j\236\361\207\351MV\371IE!E\245\245\232"
 220      9EF187E9 
 220      4D56F949 
 220      452145A5 
 220      A59A
 221 00fa D5D353C9 		.ascii	"\325\323S\311)\374\226\031h\031\242\362\205\363\376"
 221      29FC9619 
 221      6819A2F2 
 221      85F3FE
 222 0109 C580FF8C 		.ascii	"\305\200\377\214\232\217\2614\032\2361\241!\317\244"
 222      9A8FB134 
 222      1A9E31A1 
 222      21CFA4
 223 0118 5C9E49B9 		.ascii	"\\\236I\271\347M\312=oR\016\313\274/zN\343\242<mW\353"
 223      E74DCA3D 
 223      6F520ECB 
 223      BC2F7A4E 
 223      E3A23C6D 
 224 012e 55A1BC81 		.ascii	"U\241\274\201*\217\270\276\326\247F>\377K\3455\001\363"
 224      2A8FB8BE 
 224      D6A7463E 
 224      FF4BE535 
 224      01F3
 225 0140 C8E879FE 		.ascii	"\310\350y\376\235\3123N\277\200\242\337\033hx\311\246"
 225      9DCA334E 
 225      BF80A2DF 
 225      1B6878C9 
 225      A6
 226 0151 FD665669 		.ascii	"\375fViSk\337E\321\376\277\033d\376\022\321\376\313"
 226      536BDF45 
 226      D1FEBF1B 
 226      64FE12D1 
 226      FECB
 227 0163 28E20DED 		.ascii	"(\342\015\355\367a\026\312\350\227\336\202\032\177\221"
 227      F76116CA 
 227      E897DE82 
 227      1A7F91
 228 0172 E5D9540F 		.ascii	"\345\331T\017\3632$R<@\313/\230u\262\\\033\236\365:"
 228      F3322452 
 228      3C40CB2F 
 228      9875B25C 
 228      1B9EF53A 
 229 0186 9BCEB36F 		.ascii	"\233\316\263o\263}\020P?\226y\212y\027U\252\225\345"
 229      B37D1050 
ARM GAS  /tmp/ccQpspY6.s 			page 17


 229      3F96798A 
 229      791755AA 
 229      95E5
 230 0198 EABEDD45 		.ascii	"\352\276\335E\032\023\023Q\301\256GP<\273\216}JiA\016"
 230      1A131351 
 230      C1AE4750 
 230      3CBB8E7D 
 230      4A69410E 
 231 01ac EDF6A52B 		.ascii	"\355\366\245+\271\214\232o\362{\222\251GM\206\216mk"
 231      B98C9A6F 
 231      F27B92A9 
 231      474D868E 
 231      6D6B
 232 01be 62E5D929 		.ascii	"b\345\331)\211\314l\364&\207gU\367[\026m)Ik\211\215"
 232      89CC6CF4 
 232      26876755 
 232      F75B166D 
 232      29496B89 
 233 01d3 501F6A4A 		.ascii	"P\037jJ\342xv#\233\210\210\377\025\253\203\247\300\300"
 233      E2787623 
 233      9B8888FF 
 233      15AB83A7 
 233      C0C0
 234 01e5 F4FC09D5 		.ascii	"\364\374\011\325\325Q\333\340\346\224\\\033j]\014\310"
 234      D551DBE0 
 234      E6945C1B 
 234      6A5D0CC8 
 235 01f5 FD6916D0 		.ascii	"\375i\026\320\334\236hVn$\213%\012\346Gr\265>\302\257"
 235      DC9E6856 
 235      6E248B25 
 235      0AE64772 
 235      B53EC2AF 
 236 0209 AC279AE8 		.ascii	"\254'\232\350bu\015\220t\361\354&\366\027(\336\314\272"
 236      62750D90 
 236      74F1EC26 
 236      F61728DE 
 236      CCBA
 237 021b 4CAB71CC 		.ascii	"L\253q\3148V\025\273\031\223j2\332l\252\366\242\011"
 237      385615BB 
 237      19936A32 
 237      DA6CAAF6 
 237      A209
 238 022d FDF8ED5D 		.ascii	"\375\370\355]X\350\036\3465\020\330z9\206\320\303\247"
 238      58E81EE6 
 238      3510D87A 
 238      3986D0C3 
 238      A7
 239 023e 666FFE95 		.ascii	"fo\376\225,'\361\354v\026s4C/xz\234EsW\017\003\234]"
 239      2C27F1EC 
 239      76167334 
 239      432F787A 
 239      9C457357 
 240 0256 80B383D5 		.ascii	"\200\263\203\325\003\251\254\022BA\357Z\201\230\002"
 240      03A9AC12 
 240      4241EF5A 
 240      819802
 241 0265 8C519663 		.ascii	"\214Q\226cB\254S\261%\221b\013\357\233\273\3701\271"
ARM GAS  /tmp/ccQpspY6.s 			page 18


 241      42AC53B1 
 241      2591620B 
 241      EF9BBBF8 
 241      31B9
 242 0277 FE233699 		.ascii	"\376#6\231\231\213\371\255\237-\217nI51\220\220K\003"
 242      998BF9AD 
 242      9F2D8F6E 
 242      49353190 
 242      904B03
 243 028a 1B1665BD 		.ascii	"\033\026e\275\341p\333\006\266F\226\321\207\017\301"
 243      E170DB06 
 243      B64696D1 
 243      870FC1
 244 0299 F4E6717A 		.ascii	"\364\346qz\346c\002\361l\210\345P\274\327hn7V\244\310"
 244      E66302F1 
 244      6C88E550 
 244      BCD7686E 
 244      3756A4C8 
 245 02ad 6E253FB6 		.ascii	"n%?\266\301\335k_\375\0239\034b\251-.|\356\363/\263"
 245      C1DD6B5F 
 245      FD13391C 
 245      62A92D2E 
 245      7CEEF32F 
 246 02c2 A0D33E01 		.ascii	"\240\323>\001\253k\345\3422\273\003F\263;6\273\027\246"
 246      AB6BE5E2 
 246      32BB0346 
 246      B33B36BB 
 246      17A6
 247 02d4 FA0095E1 		.ascii	"\372\000\225\341\265q\335-/\314\231\232\336eNo{j\366"
 247      B571DD2D 
 247      2FCC999A 
 247      DE654E6F 
 247      7B6AF6
 248 02e7 AD68B68B 		.ascii	"\255h\266\213\310\236\351\212d\273\211\354\005\321\354"
 248      C89EE98A 
 248      64BB89EC 
 248      05D1EC
 249 02f6 1E844AD8 		.ascii	"\036\204J\330\352\337\001\302\200[\300\200?\2650`\236"
 249      EADF01C2 
 249      805BC080 
 249      3FB53060 
 249      9E
 250 0307 6D8CF464 		.ascii	"m\214\364d\\\026\034n\230\377\355\005vQ\215\334\222"
 250      5C161C6E 
 250      98FFED05 
 250      76518DDC 
 250      92
 251 0318 69A68CA8 		.ascii	"i\246\214\250\010k\357\004B\273\333\331\364Xc;\317\236"
 251      086BEF04 
 251      42BBDBD9 
 251      F458633B 
 251      CF9E
 252 032a 446CD078 		.ascii	"Dl\320x\200v\243J\256j\007\225l\247R\311\206\366%\316"
 252      8076A34A 
 252      AE6A0795 
 252      6CA752C9 
 252      86F625CE 
ARM GAS  /tmp/ccQpspY6.s 			page 19


 253 033e 543274E3 		.ascii	"T2t\343K\354\302\316\200>\256p\305\245\217a\243>\236"
 253      4BECC2CE 
 253      803EAE70 
 253      C5A58F61 
 253      A33E9E
 254 0351 5A0AFA18 		.ascii	"Z\012\372\030\246\322\307\015.B\367\324\274\006\227"
 254      A6D2C70D 
 254      2E42F7D4 
 254      BC0697
 255 0360 A9E2ED73 		.ascii	"\251\342\355s\351\025\217F\225\302\204*}\015\252\364"
 255      E9158F46 
 255      95C2842A 
 255      7D0DAAF4 
 256 0370 8DA52FF8 		.ascii	"\215\245/\370\022\370o\217\333\0314\266/\201QM\035\305"
 256      12F86F8F 
 256      DB1934B6 
 256      2F81514D 
 256      1DC5
 257 0382 15458A94 		.ascii	"\025E\212\224M\327\020\334\014\341\015\366\355e\253"
 257      4DD710DC 
 257      0CE10DF6 
 257      ED65AB
 258 0391 6128BB02 		.ascii	"a(\273\002\343\3709\227\251C\240\200Z4\267y8\214-\327"
 258      E3F83997 
 258      A943A080 
 258      5A34B779 
 258      388C2DD7 
 259 03a5 00E892CB 		.ascii	"\000\350\222\313\350\020\022\015\016!Q?\310'z\242\011"
 259      E810120D 
 259      0E21513F 
 259      C8277AA2 
 259      09
 260 03b6 3C75EFC5 		.ascii	"<u\357\3058-\216F\006\243\000u\204\232\0110\235\024"
 260      382D8E46 
 260      06A30075 
 260      849A0930 
 260      9D14
 261 03c8 20B2C5C3 		.ascii	" \262\305\303;\330\233\325\362\262Lz\005^\324\216\025"
 261      3BD89BD5 
 261      F2B24C7A 
 261      055ED48E 
 261      15
 262 03d9 F8262870 		.ascii	"\370&(pW|\012\334aT\340\373\212\002wP)\360|ww\005^\345"
 262      577C0ADC 
 262      6154E0FB 
 262      8A027750 
 262      29F07C77 
 263 03f1 3655E03F 		.ascii	"6U\340?\273\235+p\007\241\300\337\201\002\337\261T\340"
 263      BB9D2B70 
 263      07A1C0DF 
 263      8102DFB1 
 263      54E0
 264 0403 4FDC140A 		.ascii	"O\334\024\012\234d\242\300D{JK\247\241\245\257\330'"
 264      9C64A2C0 
 264      447B4A4B 
 264      A7A1A5AF 
 264      D827
ARM GAS  /tmp/ccQpspY6.s 			page 20


 265 0415 517C19E2 		.ascii	"Q|\031\342\033(\216\3748\346\210\333\250_\312\010E "
 265      1B288EFC 
 265      38E688DB 
 265      A85FCA08 
 265      4520
 266 0427 458732C6 		.ascii	"E\2072\306\016\313LUp\205\023lr\264\271S\320\334\336"
 266      0ECB4C55 
 266      7085136C 
 266      72B4B953 
 266      D0DCDE
 267 043a 78352BB4 		.ascii	"x5+\264\374\364jg\246\031\332\263\364\021\254\00339"
 267      FCF46A67 
 267      A619DAB3 
 267      F411AC03 
 267      3339
 268 044c DC85E16E 		.ascii	"\334\205\341n\334^1\316\257h\354\343*\015\027f\375\003"
 268      DC5E31CE 
 268      AF68ECE3 
 268      2A0D1766 
 268      FD03
 269 045e 5CC8A1C6 		.ascii	"\\\310\241\306\323\253Y\314\205\211#\221Y\255~\357\010"
 269      D3AB59CC 
 269      85892391 
 269      59AD7EEF 
 269      08
 270 046f 0FE1B68B 		.ascii	"\017\341\266\213\227.\250\303\313l\016\317\2246\364"
 270      972EA8C3 
 270      CB6C0ECF 
 270      9436F4
 271 047e 883953D2 		.ascii	"\2109S\322\003q\314\026\2502\2073\270\245\016>]\311"
 271      0371CC16 
 271      A8328733 
 271      B8A50E3E 
 271      5DC9
 272 0490 8DE594E4 		.ascii	"\215\345\224\344\320\235\363\036\271.\305\244\251\021"
 272      D09DF31E 
 272      B92EC5A4 
 272      A911
 273 049e 24CBDA88 		.ascii	"$\313\332\210x5\374\330\247\262\334\233g\347\001\305"
 273      7835FCD8 
 273      A7B2DC9B 
 273      67E701C5 
 274 04ae D7CC29AE 		.ascii	"\327\314)\256\037a\205\3031\017\240J\255\201\342\360"
 274      1F6185C3 
 274      310FA04A 
 274      AD81E2F0 
 275 04be EE9B2D3F 		.ascii	"\356\233-?]\006\310\265\024dW\207\332f\257\242\232\243"
 275      5D06C8B5 
 275      14645787 
 275      DA66AFA2 
 275      9AA3
 276 04d0 D6BBB5E6 		.ascii	"\326\273\265\346s\243l\234\274\032\352\007\243\361\022"
 276      73A36C9C 
 276      BC1AEA07 
 276      A3F112
 277 04df E0E2E384 		.ascii	"\340\342\343\204\230r\327\303p\314!\250\262\254;\027"
 277      9872D7C3 
ARM GAS  /tmp/ccQpspY6.s 			page 21


 277      70CC21A8 
 277      B2AC3B17 
 278 04ef E19F295C 		.ascii	"\341\237)\\,\243\342\342\276\312\005\317.\346\222\021"
 278      2CA3E2E2 
 278      BECA05CF 
 278      2EE69211 
 279 04ff EC89082C 		.ascii	"\354\211\010,\255!\351\361:\367\247\324\362\032\330"
 279      AD21E9F1 
 279      3AF7A7D4 
 279      F21AD8
 280 050e 19C760E9 		.ascii	"\031\307`\351:\260E\007V:t\230\313\357\\zl7\260_\017"
 280      3AB04507 
 280      563A7498 
 280      CBEF5C7A 
 280      6C37B05F 
 281 0523 86B939F1 		.ascii	"\206\2719\361G1\314\355\211\024\214X\033&\352\225\243"
 281      4731CCED 
 281      89148C58 
 281      1B26EA95 
 281      A3
 282 0534 8F37BD2F 		.ascii	"\2177\275/\313s\0224\375L\260b\204c\232\241\261\365"
 282      CB731234 
 282      FD4CB062 
 282      84639AA1 
 282      B1F5
 283 0546 C69E5DDE 		.ascii	"\306\236]\336yt\200\322\263\353\251zv\347\301\245t\372"
 283      797480D2 
 283      B3EBA97A 
 283      76E7C1A5 
 283      74FA
 284 0558 99A035EF 		.ascii	"\231\2405\357\203\346;\241\371\367\214\315o\377\237"
 284      83E63BA1 
 284      F9F78CCD 
 284      6FFF9F
 285 0567 CBCF2ACD 		.ascii	"\313\317*\315\277G\325\374\271#&K8\236}\366\021\333"
 285      BF47D5FC 
 285      B923264B 
 285      389E7DF6 
 285      11DB
 286 0579 EEEBBCDE 		.ascii	"\356\353\274\336\177\0154\262\005\024\250%\311\330}"
 286      7F0D34B2 
 286      0514A825 
 286      C9D87D
 287 0588 CF25936D 		.ascii	"\317%\223m\301;Q\200c\216%i\324\307\245\277\210\315"
 287      C13B5180 
 287      638E2569 
 287      D4C7A5BF 
 287      88CD
 288 059a BDCFBD0B 		.ascii	"\275\317\275\013=\245\321\320\346\030Q\257\3047\217"
 288      3DA5D1D0 
 288      E61851AF 
 288      C4378F
 289 05a9 80452860 		.ascii	"\200E(`\247h\300,\025\251:t\233\004;\343\030LO\331w"
 289      A768C02C 
 289      15A93A74 
 289      9B043BE3 
 289      184C4FD9 
ARM GAS  /tmp/ccQpspY6.s 			page 22


 290 05be 24D8D734 		.ascii	"$\330\3274`\275\255)\273K\202\235w\014\246\247\354{"
 290      60BDAD29 
 290      BB4B829D 
 290      770CA6A7 
 290      EC7B
 291 05d0 12EC320D 		.ascii	"\022\3542\015X?k\312~ \301\2569\006\323S\326I\202\335"
 291      583F6BCA 
 291      7E20C1AE 
 291      3906D353 
 291      D64982DD 
 292 05e4 A0014BB7 		.ascii	"\240\001K\267\246\254\366s\002\254\3031\230\236\262"
 292      A6ACF673 
 292      02ACC331 
 292      989EB2
 293 05f3 3A12EC1E 		.ascii	":\022\354\036\015X\177k\312\026\223`\017\034\203\351"
 293      0D587F6B 
 293      CA169360 
 293      0F1C83E9 
 294 0603 297B9304 		.ascii	"){\223\004\233\351\241\000\313\264\246l\031\0116\313"
 294      9BE9A100 
 294      CBB4A66C 
 294      190936CB 
 295 0613 31989EB2 		.ascii	"1\230\236\262\025$\330\034\032\260a\326\224\255$\301"
 295      1524D81C 
 295      1AB061D6 
 295      94AD24C1 
 296 0623 E63906D3 		.ascii	"\3469\006\323S\266\225\004[H\0036\302\232\262\367I\260"
 296      53B69504 
 296      5B480336 
 296      C29AB2F7 
 296      49B0
 297 0635 C58EC1F4 		.ascii	"\305\216\301\364\224m#\301\226\322\200\215\266\246l"
 297      946D23C1 
 297      96D2808D 
 297      B6A66C
 298 0644 0709B6C2 		.ascii	"\007\011\266\3021\230\236\262]$\330*\032\260\011\326"
 298      31989EB2 
 298      5D24D82A 
 298      1AB009D6 
 299 0654 947D4082 		.ascii	"\224}@\202\325;\006\323S\326L\202\255\245\001{\321\232"
 299      D53B06D3 
 299      53D64C82 
 299      ADA5017B 
 299      D19A
 300 0666 B20F49B0 		.ascii	"\262\017I\260w\034\203\351);J\202\375\211\006\354e\023"
 300      771C83E9 
 300      293B4A82 
 300      FD8906EC 
 300      6513
 301 0678 CA223FB3 		.ascii	"\312\"?\263z\330M\277\313\021\213\265-\036m\202\343"
 301      7AD84DBF 
 301      CB118BB5 
 301      2D1E6D82 
 301      E3
 302 0689 D0473351 		.ascii	"\320G3Q\214\367=Ngd:\276\361<\371\361\017T?\257LVw\321"
 302      8CF73D4E 
 302      67643ABE 
ARM GAS  /tmp/ccQpspY6.s 			page 23


 302      F13CF9F1 
 302      0F543FAF 
 303 06a1 20DA38C0 		.ascii	" \3328\300\025\007\210\231o\3101\230A\2251\230n\352"
 303      15078899 
 303      6FC83198 
 303      41953198 
 303      6EEA
 304 06b3 14D9FA0F 		.ascii	"\024\331\372\017\331\357x\340\363%\2168'\350g^\226g"
 304      D9EF78E0 
 304      F3258E38 
 304      27E8675E 
 304      9667
 305 06c5 AF727809 		.ascii	"\257rx\011\377W\316\023\241BIk)e\313\240\305\243\337"
 305      FF57CE13 
 305      A142496B 
 305      2965CBA0 
 305      C5A3DF
 306 06d8 7088FC62 		.ascii	"p\210\374bU\265\322\204\313\244&|F#&\033\327~\356\300"
 306      55B5D284 
 306      CBA4267C 
 306      4623261B 
 306      D77EEEC0 
 307 06ec 4AD8CFA4 		.ascii	"J\330\317\244?\027Y~\347\250\272@\270\016\013\204/<"
 307      3F17597E 
 307      E7A8BA40 
 307      B80E0B84 
 307      2F3C
 308 06fe C619E676 		.ascii	"\306\031\346v\207'#h\036f\344\302l[\305zN\201t\361\344"
 308      87272368 
 308      1E66E4C2 
 308      6C5BC57A 
 308      4E8174F1 
 309 0713 134D5B64 		.ascii	"\023M[d\271&\301\011\037-*\037\035\300\307\371\037\201"
 309      B926C109 
 309      1F2D2A1F 
 309      1DC0C7F9 
 309      1F81
 310 0725 8F6B8EF9 		.ascii	"\217k\216\371\350o\340#\324\3379\037'U>\276\007>:~\004"
 310      E86FE023 
 310      D4DF391F 
 310      27553EBE 
 310      073E3A7E 
 311 073a 3E1E38E6 		.ascii	">\0368\346#\223\340\003Vk\003\225\325Z_\246\316~\265"
 311      2393E003 
 311      566B0395 
 311      D55A5FA6 
 311      CE7EB5
 312 074d 86E9E9E2 		.ascii	"\206\351\351\342\372\032\366\267[\361\226#\316\246\330"
 312      FA1AF6B7 
 312      5BF19623 
 312      CEA6D8
 313 075c FC682596 		.ascii	"\374h%\226\2702\335\022\367\272*\261j\027\226\330\253"
 313      B832DD12 
 313      F7BA2AB1 
 313      6A1796D8 
 313      AB
 314 076d 3D4DB684 		.ascii	"=M\266\204\251\220N\355\377\244A\335\376\231\005Ps\343"
ARM GAS  /tmp/ccQpspY6.s 			page 24


 314      A9904EED 
 314      FFA441DD 
 314      FE990550 
 314      73E3
 315 077f 865AD4BA 		.ascii	"\206Z\324\272S9n|\015\200\352z\032{1\301\320\211\011"
 315      53396E7C 
 315      0D80EA7A 
 315      1A7B31C1 
 315      D08909
 316 0792 FA4E44AF 		.ascii	"\372ND\257\270\245\273x\305\315\376Q\315\301/\211\314"
 316      B8A5BB78 
 316      C5CDFE51 
 316      CDC12F89 
 316      CC
 317 07a3 FF7B3D8E 		.ascii	"\377{=\216Y\011\344\343\016t\350\240\242\012\364\353"
 317      5909E4E3 
 317      0E74E8A0 
 317      A20AF4EB 
 318 07b3 26D5B928 		.ascii	"&\325\271(\235\264\366\037B\254\0165\276\256m\323<\207"
 318      9DB4F61F 
 318      42AC0E35 
 318      BEAE6DD3 
 318      3C87
 319 07c5 DDCBA67F 		.ascii	"\335\313\246\177\020\356\330A\347\033+"
 319      10EED841 
 319      E71B2B
 320 07d0 A19F2A5A 		.ascii	"\241\237*Z\267\020\030j\354\326\303qm\254\354\211\227"
 320      B710186A 
 320      ECD6C371 
 320      6DACEC89 
 320      97
 321 07e1 91C88F63 		.ascii	"\221\310\217c\366\367\244p\"\351v\275uw \345\346Ld\023"
 321      F6F7A470 
 321      22E976BD 
 321      757720E5 
 321      E64C6413 
 322 07f5 F252BF16 		.ascii	"\362R\277\026\020\306R\027\336\276k5\010\203b\223\347"
 322      10C65217 
 322      DEBE6B35 
 322      08836293 
 322      E7
 323 0806 145459E1 		.ascii	"\024TY\341\352\266}w\3641e\227\005\177\242\330\344\321"
 323      EAB67D77 
 323      F4316597 
 323      057FA2D8 
 323      E4D1
 324 0818 6DDFF1EC 		.ascii	"m\337\361\354J\216Sa\343\225\247\256\013\243\364!h\027"
 324      4A8E5361 
 324      E395A7AE 
 324      0BA3F421 
 324      6817
 325 082a 9E2FAC72 		.ascii	"\236/\254r\351\266\371/;\226}:)\373\320\375\203+Y\205"
 325      E9B6F92F 
 325      3B967D3A 
 325      29FBD0FD 
 325      832B5985 
 326 083e 7E653BF7 		.ascii	"~e;\367\226\021o\0049\227S\223\226\353V9Tw\030&a\212"
ARM GAS  /tmp/ccQpspY6.s 			page 25


 326      96116F04 
 326      39975393 
 326      96EB5639 
 326      54771826 
 327 0854 D175D210 		.ascii	"\321u\322\020g\263\324\\\255\200)\012\377j\262S\260"
 327      67B3D45C 
 327      AD80290A 
 327      FF6AB253 
 327      B0
 328 0865 741DD8EE 		.ascii	"t\035\330\356\371&\333\305\312\026\271\225c\331\340"
 328      F926DBC5 
 328      CA16B995 
 328      63D9E0
 329 0874 22A64A0B 		.ascii	"\"\246J\013h\332\267Y\235\266\035^\251j\212\2623\272"
 329      68DAB759 
 329      9DB61D5E 
 329      A96A8AB2 
 329      33BA
 330 0886 DC319E9E 		.ascii	"\3341\236\236\237\033\363u#\322:\032\270\021\324\212"
 330      9F1BF375 
 330      23D23A1A 
 330      B811D48A 
 331 0896 17DDD746 		.ascii	"\027\335\327FJ\010\023\325\2678|2\264\012\3425\020\257"
 331      4A0813D5 
 331      B7387C32 
 331      B40AE235 
 331      10AF
 332 08a8 83F85B88 		.ascii	"\203\370[\210/@|\011\342\277C|\033\342{\020wB\374\246"
 332      2F407C09 
 332      E2BF437C 
 332      1BE27B10 
 332      7742FCA6 
 333 08bc 0BEA42FC 		.ascii	"\013\352B\3746\304k!^\017\361F\210\337#\325\333\252"
 333      36C46B21 
 333      5E0FF146 
 333      88DF23D5 
 333      DBAA
 334 08ce 5F14538B 		.ascii	"_\024S\213\030\246fu\265qo\232\237\210n\232\363\354"
 334      18A66675 
 334      B5716F9A 
 334      9F886E9A 
 334      F3EC
 335 08e0 6AC760E9 		.ascii	"j\307`\351v\222\254%$Y\007\222\\\004\322\330\2447\344"
 335      7692AC25 
 335      24590792 
 335      5C04D2D8 
 335      A437E4
 336 08f3 4DC9DA31 		.ascii	"M\311\3321\216\215\341Y\263\020\376\342\342\245\304"
 336      8E8DE159 
 336      B310FEE2 
 336      E2A5C4
 337 0902 E572E855 		.ascii	"\345r\350U\227\266\002\332f\004\214\271@\323\313\244"
 337      97B602DA 
 337      66048CB9 
 337      40D3CBA4 
 338 0912 5330DCB8 		.ascii	"S0\334\270P\316\250\254\372\244\201\264\225f\307m\333"
 338      50CEA8AC 
ARM GAS  /tmp/ccQpspY6.s 			page 26


 338      FAA481B4 
 338      9566C76D 
 338      DB
 339 0923 8A700E21 		.ascii	"\212p\016!\302\327A\204o\200\010\267\200\312l%\005\311"
 339      C2D74184 
 339      6F8008B7 
 339      80CA6C25 
 339      05C9
 340 0935 B37339C3 		.ascii	"\263s9\303}\023\375\201\231M\343\221C\356\216\023&\027"
 340      7D13FD81 
 340      994DE391 
 340      43EE8E13 
 340      2617
 341 0947 4E94A322 		.ascii	"N\224\243\"\033\247\264\364\303S\217o\002\327\261\315"
 341      1BA7B4F4 
 341      C3538F6F 
 341      02D7B1CD 
 342 0957 853BE07E 		.ascii	"\205;\340~\262\321C/\346\014\233\347\006E\346\230\371"
 342      B2D1432F 
 342      E60C9BE7 
 342      0645E698 
 342      F9
 343 0968 29140790 		.ascii	")\024\007\2206+\231\206\371wN\26055\362\306Luf!\317"
 343      362B9986 
 343      F9774EB0 
 343      3535F2C6 
 343      4C756621 
 344 097d 96FB6F8C 		.ascii	"\226\373o\214:\301\336\032\006\027\241;\264]9Hm\202"
 344      3AC1DE1A 
 344      0617A13B 
 344      B45D3948 
 344      6D82
 345 098f 5176498A 		.ascii	"QvI\212\351\375\206\3300\341S\263w\376\032f\240\315"
 345      E9FD86D8 
 345      30E153B3 
 345      77FE1A66 
 345      A0CD
 346 09a1 00B4266E 		.ascii	"\000\264&n\240Es\337Q.J\354\001\240\215)F1\272\014\363"
 346      A04573DF 
 346      512E4AEC 
 346      01A08D29 
 346      4631BA0C 
 347 09b6 1C977E9E 		.ascii	"\034\227~\236\343\362D\023]].\346\237X\030M\303\214"
 347      E3F24413 
 347      5D5D2EE6 
 347      9F58184D 
 347      C38C
 348 09c8 1DA6E328 		.ascii	"\035\246\343(\326\334\007w\330\003U\331\264\033&\273"
 348      D6DC0777 
 348      D80355D9 
 348      B41B26BB 
 349 09d8 68544087 		.ascii	"hT@\207\250S\201\320\017\247a,S\300>\242\001\263\331"
 349      A85381D0 
 349      0FA7612C 
 349      53C03EA2 
 349      01B3D9
 350 09eb 865EB27A 		.ascii	"\206^\262z\215\345\031V}\314\253W\341\246\013\237>\203"
ARM GAS  /tmp/ccQpspY6.s 			page 27


 350      8DE51956 
 350      7DCCAB57 
 350      E1A60B9F 
 350      3E83
 351 09fd 2F02C6BE 		.ascii	"/\002\306\276~\325\352\242\273~u\310e<\347>\014\327"
 351      7ED5EAA2 
 351      BB7E75C8 
 351      653CE73E 
 351      0CD7
 352 0a0f AF0E51CD 		.ascii	"\257\016Q\315\326\356\230\315\001\314n#F\206\214~Qf"
 352      D6EE98CD 
 352      01CC6E23 
 352      46868C7E 
 352      5166
 353 0a21 BEBCF2E9 		.ascii	"\276\274\362\351\263\312\255\306\2430\351<\362P\354"
 353      B3CAADC6 
 353      A330E93C 
 353      F250EC
 354 0a30 5B8D3A1C 		.ascii	"[\215:\034L\337q#\375\215G\200\376\343\261\351\177\265"
 354      4CDF7123 
 354      FD8D4780 
 354      FEE3B1E9 
 354      7FB5
 355 0a42 26B4533D 		.ascii	"&\264S=\323\003c\252\261]6\360\354U\270\"B\263\010\370"
 355      D30363AA 
 355      B15D36F0 
 355      EC55B822 
 355      42B308F8 
 356 0a56 063839EE 		.ascii	"\00689\356|\322\252\222\265K9\2239\001\366z\3361X\272"
 356      7CD2AA92 
 356      B54B3993 
 356      3901F67A 
 356      DE3158BA 
 357 0a6a 0EEC0312 		.ascii	"\016\354\003\022\354\012\015\230\225\023C`\315$\330"
 357      EC0A0D98 
 357      95134360 
 357      CD24D8
 358 0a79 DF1C83E9 		.ascii	"\337\034\203\351)\373\220\004\273E\003f\265[\211\300"
 358      29FB9004 
 358      BB450366 
 358      B55B89C0 
 359 0a89 8E926077 		.ascii	"\216\222`w\035\203\245\233i\011\323M\311x\366\013X5"
 359      1D83A59B 
 359      6909D34D 
 359      C978F60B 
 359      5835
 360 0a9b B481A73C 		.ascii	"\264\201\247<\011q;\304_A|\026\3420\315\244\353\010"
 360      09713BC4 
 360      5F417C16 
 360      E230CDA4 
 360      EB08
 361 0aad E9E07F00 		.ascii	"\351\340\177\000\202\017\305\2471h\330k\272\360\365"
 361      820FC5A7 
 361      3168D86B 
 361      BAF0F5
 362 0abc D3CAEEAF 		.ascii	"\323\312\356\257\301\307byXQ\360-IAM\252S\012\322I\012"
 362      C1C76279 
ARM GAS  /tmp/ccQpspY6.s 			page 28


 362      5851F02D 
 362      49414DAA 
 362      530AD249 
 363 0ad1 42F70F2B 		.ascii	"B\367\017+;\227\332E\357\327\214x\264W\263\264\351\322"
 363      3B97DA45 
 363      EFD78C78 
 363      B457B3B4 
 363      E9D2
 364 0ae3 E1E4AD2F 		.ascii	"\341\344\255/k`\013\034\203\351\256_\207j\217\020`\313"
 364      6B600B1C 
 364      83E9AE5F 
 364      876A8F10 
 364      60CB
 365 0af5 1D83F5EE 		.ascii	"\035\203\365\356\246\021\212.|\006\272p\030\372\374"
 365      A6118A2E 
 365      7C06BA70 
 365      18FAFC
 366 0b04 7F21BE00 		.ascii	"\177!\276\000\361%\210\257\350'\244\365\251F\277\253"
 366      F12588AF 
 366      E827A4F5 
 366      A946BFAB 
 367 0b14 8CB1046A 		.ascii	"\214\261\004jt0fhq\255\372\266\205\354\333\306T\247"
 367      74306668 
 367      71ADFAB6 
 367      85ECDBC6 
 367      54A7
 368 0b26 5E4BD7B7 		.ascii	"^K\327\267\310\251\036\270\2509\325\026\230\2135\321"
 368      C8A91EB8 
 368      A839D516 
 368      988B35D1 
 369 0b36 20DAAC44 		.ascii	" \332\254D\267\2355\036\007\230\215\366\034I[\304k\354"
 369      B79D351E 
 369      07988DF6 
 369      1C495BC4 
 369      6BEC
 370 0b48 9DA4788D 		.ascii	"\235\244x\215\233\3405\366\244\306\366\032\234\236G"
 370      9BE035F6 
 370      A4C6F61A 
 370      9C9E47
 371 0b57 9EED307A 		.ascii	"\236\3550z\215{\307\301ktPy\215\007\307\027\253+Ee\264"
 371      8D7BC7C1 
 371      6B745079 
 371      8D07C717 
 371      AB2B4565 
 372 0b6c 39082474 		.ascii	"9\010$t\304=\334w\036'\206\256#\216\301\322u`\265'\010"
 372      C43DDC77 
 372      1E2786AE 
 372      238EC1D2 
 372      7560B527 
 373 0b81 B0E33460 		.ascii	"\260\3434`6\303}\035\011v\3221\230\236\262\305$\330"
 373      36C37D1D 
 373      0976D231 
 373      989EB2C5 
 373      24D8
 374 0b93 191A309B 		.ascii	"\031\0320\233\341\376M\022,\354\030LO\3312\022\354["
 374      E1FE4D12 
 374      2CEC184C 
ARM GAS  /tmp/ccQpspY6.s 			page 29


 374      4FD93212 
 374      EC5B
 375 0ba5 1A30AB23 		.ascii	"\0320\253#\034\004\266\202\004\273\344\030LO\331J\022"
 375      1C04B682 
 375      04BBE418 
 375      4C4FD94A 
 375      12
 376 0bb6 ECAF3460 		.ascii	"\354\2574`\351\326\224\255&\301n:\006K73\011\345GZ\024"
 376      E9D694AD 
 376      26C16E3A 
 376      064B3733 
 376      09E5475A 
 377 0bcb CF7E07C3 		.ascii	"\317~\007\303\342\035\030\254\356A|\037\342\007\020"
 377      E21D18AC 
 377      EE417C1F 
 377      E20710
 378 0bda 77413CD3 		.ascii	"wA<\323\215\343\032\210gA\374\337\020\317qS\014n7\310"
 378      8DE31A88 
 378      6741FCDF 
 378      10CF7153 
 378      0C6E37C8 
 379 0bee C1ED8EE3 		.ascii	"\301\355\216\343\241\310\226\221\350\237\310\360\354"
 379      A1C89691 
 379      E89FC8F0 
 379      EC
 380 0bfb 4730E3FB 		.ascii	"G0\343\373\030\256\360\266A,\303:y\026\304\215\300\310"
 380      18AEF0B6 
 380      412CC33A 
 380      7916C48D 
 380      C0C8
 381 0c0d 2E883F86 		.ascii	".\210?\206x\037\304\007 \376\033\304\327i\306\352\335"
 381      781FC407 
 381      20FE1BC4 
 381      D769C6EA 
 381      DD
 382 0c1e D18BBF68 		.ascii	"\321\213\277h=\356\306\313\355\365q_)?\337\272\300\351"
 382      3DEEC6CB 
 382      EDF5715F 
 382      293FDFBA 
 382      C0E9
 383 0c30 9DFCABE1 		.ascii	"\235\374\253\341\015\352\251\311<\270\277}\277\233\247"
 383      0DEAA9C9 
 383      3CB8BF7D 
 383      BF9BA7
 384 0c3f 8A6B2B7C 		.ascii	"\212k+|V/66'\266\227\263uM\256':f\003t\314;\320%\333"
 384      562F3636 
 384      27B697B3 
 384      754DAE27 
 384      3A660374 
 385 0c58 206E86F8 		.ascii	" n\206\370\015R{\0143!\354\374\255z`\241;\322\003O0"
 385      0D527B0C 
 385      3321ECFC 
 385      AD7A60A1 
 385      3BD2034F 
 386 0c6d ABE5FA70 		.ascii	"\253\345\372p\370/\337\237\252f\027\"\227'_\307\354"
 386      F82FDF9F 
 386      AA661722 
ARM GAS  /tmp/ccQpspY6.s 			page 30


 386      97275FC7 
 386      EC
 387 0c7e 3CCA2C51 		.ascii	"<\312,Q\017\216dVRO\221h\376\370m\377\246\247`\351\275"
 387      0F8E6456 
 387      524F9168 
 387      FEF86DFF 
 387      A6A760E9 
 388 0c93 1804BBA6 		.ascii	"\030\004\273\246\227\351q\024\315_\277\265\256\312\000"
 388      97E97114 
 388      CD5FBFB5 
 388      AECA00
 389 0ca2 A0A500B4 		.ascii	"\240\245\000\264\241\227\261\207\030C\0071\372\016B"
 389      A197B187 
 389      18430731 
 389      FA0E42
 390 0cb1 AF7297FA 		.ascii	"\257r\227\372S\216\207P\316\037\231\270\352X\011q\221"
 390      538E8750 
 390      CE1F99B8 
 390      EA580971 
 390      91
 391 0cc2 FB5148B9 		.ascii	"\373QH\271\224?\001\210\345\335M\326\267\365{\356\247"
 391      943F0188 
 391      E5DD4DD6 
 391      B7F57BEE 
 391      A7
 392 0cd3 6137BCD2 		.ascii	"a7\274\322\215=\373^\003\2234\313\3315n\343\037\270"
 392      8D3DFB5E 
 392      039334CB 
 392      D9356EE3 
 392      1FB8
 393 0ce5 E1BF27C5 		.ascii	"\341\277'\305\271\261O.;\326\341k\333\332\237\267\266"
 393      B9B14F2E 
 393      3BD6E16B 
 393      DBDA9FB7 
 393      B6
 394 0cf6 42EBB8A6 		.ascii	"B\353\270\246Y[6N\335\\{\243\204\361l\275\033k\357\333"
 394      595B364E 
 394      DD5C7BA3 
 394      84F16CBD 
 394      1B6BEFDB 
 395 0d0a 3423DD5B 		.ascii	"4#\335[Q\305T\305\032\031.\"\357\352y2\317N\214n\267"
 395      51C554C5 
 395      1A192E22 
 395      EFEA7932 
 395      CF4E8C6E 
 396 0d1f 70CC3183 		.ascii	"p\3141\203\364~\316\254\225\345:\254\327\337\340\251"
 396      F47ECEAC 
 396      95E53AAC 
 396      D7DFE0A9 
 397 0d2f DC68051B 		.ascii	"\334h\005\0339b(W\347~\302\224\006\225\002\245\262\334"
 397      39622857 
 397      E77EC294 
 397      069502A5 
 397      B2DC
 398 0d41 248C569A 		.ascii	"$\214V\232\347\230s1\252\001\221j\265{\177\350\247\315"
 398      E7987331 
 398      AA01916A 
ARM GAS  /tmp/ccQpspY6.s 			page 31


 398      B57B7FE8 
 398      A7CD
 399 0d53 BD2F18AB 		.ascii	"\275/\030\253\031\356p\250\274\374\222Y\217\273\272"
 399      19EE70A8 
 399      BCFC9259 
 399      8FBBBA
 400 0d62 E1AB09FD 		.ascii	"\341\253\011\375\024\333alj\251\242Z\357\326\375M3\266"
 400      14DB616C 
 400      6AA9A25A 
 400      EFD6FD4D 
 400      33B6
 401 0d74 E3ADE1D0 		.ascii	"\343\255\341\320\367>\305\202u\006\254`Z\311|\213^\217"
 401      F73EC582 
 401      7506AC60 
 401      5AC97C8B 
 401      5E8F
 402 0d86 1511C490 		.ascii	"\025\021\304\220\366\337\315\244]-?\360\251rF\203\025"
 402      F6DFCDA4 
 402      5D2D3FF0 
 402      A9724683 
 402      15
 403 0d97 8CEB9B29 		.ascii	"\214\353\233)\344\\-7F\005v\037\2007\307%0\253Z*\237"
 403      E45C2D37 
 403      4605761F 
 403      8037C725 
 403      30AB5A2A 
 404 0dac 0DDD0556 		.ascii	"\015\335\005V\037\0165\234I\251\235\031\356\352z\302"
 404      1F0E359C 
 404      49A99D19 
 404      EEEA7AC2 
 405 0dbc 20B16A9B 		.ascii	" \261j\233\205\344N3\211\031$T\323\333L\037\273Kh\207"
 405      85E44E33 
 405      89192454 
 405      D3DB4C1F 
 405      BB4B6887 
 406 0dd0 BD8422AC 		.ascii	"\275\204\"\254\376y\366\254\336n\205,\306\246\232Ja"
 406      FE79F6AC 
 406      DE6E852C 
 406      C6A69A4A 
 406      61
 407 0de1 93A9727C 		.ascii	"\223\251r|.\230*\207\035\253\273\343P\216Z3\326\253"
 407      2E982A87 
 407      1DABBBE3 
 407      508E5A33 
 407      D6AB
 408 0df3 E5558281 		.ascii	"\345U\202\201\365f*\3458\036U\216\365\000\334L\251\034"
 408      F5662AE5 
 408      381E558E 
 408      F500DC4C 
 408      A91C
 409 0e05 068959B5 		.ascii	"\006\211Y\265\2462\0322\225\330mUb\212 8f\2539ko\031"
 409      A6321A32 
 409      95D86D55 
 409      628A2038 
 409      66AB396B 
 410 0e1b 59DB47C5 		.ascii	"Y\333G\305\332\261(k\237\000\360\276\370X\263jMem\277"
 410      DAB1286B 
ARM GAS  /tmp/ccQpspY6.s 			page 32


 410      9F00F0BE 
 410      F858B36A 
 410      4D656DBF 
 411 0e2f 296B6FEE 		.ascii	")ko\356W\025_\343\3553s\336\032\215\274\035\244\342"
 411      57155FE3 
 411      ED3373DE 
 411      1A8DBC1D 
 411      A4E2
 412 0e41 ED5494B7 		.ascii	"\355T\224\267\363\000|0>\336\254ZSy;dj\324\273\366;"
 412      F3007C30 
 412      3EDEAC5A 
 412      53793B64 
 412      6AD4BBF6 
 413 0e56 37EACF6D 		.ascii	"7\352\317m5}H\262\211\242\3372\267\361\006\243\304\216"
 413      357D48B2 
 413      89A2DF32 
 413      B7F106A3 
 413      C48E
 414 0e68 51799B36 		.ascii	"Qy\2336\\m\010v6s\323X\333ZCl\006\006\253Z*\227m\246"
 414      5C6D0876 
 414      3673D358 
 414      DB5A436C 
 414      0606AB5A 
 415 0e80 F2EA8C43 		.ascii	"\362\352\214C^\247m\344e\230\2126\333\300\234u\223g"
 415      5EA76DE4 
 415      65988A36 
 415      DBC09C75 
 415      9367
 416 0e92 5A06012F 		.ascii	"Z\006\001/H3\025p7sk\247\027\360Y\230\005\254\005`\353"
 416      48331570 
 416      37736BA7 
 416      17F05998 
 416      05AC0560 
 417 0ea7 6A67EDC6 		.ascii	"jg\355\306^\253j*\007\347\272\2138\\\033\336\367\372"
 417      5EAB6A2A 
 417      07E7BA8B 
 417      385C1BDE 
 417      F7FA
 418 0eb9 41F6B53A 		.ascii	"A\366\265:\371\007|\356c\220\262\305\237\324`\254\363"
 418      F9077CEE 
 418      6390B2C5 
 418      9FD460AC 
 418      F3
 419 0eca 36734C65 		.ascii	"6sLe\346fU\363\"\375L*\362>\317m6\234o2t\202\306\347"
 419      E66655F3 
 419      22FD4C2A 
 419      F23ECF6D 
 419      369C6F32 
 420 0ee2 55333E43 		.ascii	"U3>C7\276zCf\035+\3235\2432]$\215O]\256X\322m\361\335"
 420      37BE7A43 
 420      661D2BD3 
 420      35A3325D 
 420      248D4F5D 
 421 0efc C0C75F2C 		.ascii	"\300\307_,\370\270\245\347\303 c\334\003VT\337\216\312"
 421      F8B8A5E7 
 421      C32063DC 
 421      035654DF 
ARM GAS  /tmp/ccQpspY6.s 			page 33


 421      8ECA
 422 0f0e D850EB9A 		.ascii	"\330P\353\232M\255\216h\2554\246\026$4b\231~\301\246"
 422      4DAD8E68 
 422      AD34A616 
 422      24346299 
 422      7EC1A6
 423 0f21 3B04C475 		.ascii	";\004\304u\276s\247AJw\241\017JX\265r\307\035\275\334"
 423      BE73A741 
 423      4A77A10F 
 423      4A58B572 
 423      C71DBDDC 
 424 0f35 9BE28926 		.ascii	"\233\342\211&\264\011\221\212Ds0\273\177\207\362\037"
 424      B409918A 
 424      447330BB 
 424      7F87F21F 
 425 0f45 4DEEC25A 		.ascii	"M\356\302Z\354p\232\351\242\216\346`\266u\203r\307\360"
 425      EC709AE9 
 425      A28EE660 
 425      B6758372 
 425      C7F0
 426 0f57 3E009D48 		.ascii	">\000\235H3.\3528\303\242\216\323/\3208|\347\257\223"
 426      332EEA38 
 426      C3A28ED3 
 426      2FD0387C 
 426      E7AF93
 427 0f6a 5CA0E1AB 		.ascii	"\\\240\341\253\312\335\376\240\232\272\226\241\317\260"
 427      CADDFEA0 
 427      9ABA96A1 
 427      CFB0
 428 0f78 8CADA4D9 		.ascii	"\214\255\244\331I\214R\217\344\212\376i\202\030\314"
 428      498C528F 
 428      E48AFE69 
 428      8218CC
 429 0f87 F067177B 		.ascii	"\360g\027{\203By0 \016,a\222\363\263s\012\341\305+%"
 429      83427930 
 429      200E2C61 
 429      92F3B373 
 429      0AE1C52B 
 430 0f9c FC76DCC4 		.ascii	"\374v\334\304"
 431 0fa0 F41CA657 		.ascii	"\364\034\246W4+(\361\222\220\224?ndNQ\376\013y\356\374"
 431      342B28F1 
 431      9290943F 
 431      6E644E51 
 431      FE0B79EE 
 432 0fb5 DC3179EE 		.ascii	"\3341y\356\177\233X8\251\007|\370yFeP\314\340\305\262"
 432      7F9B5838 
 432      A9077CF8 
 432      79466550 
 432      CCE0C5B2 
 433 0fc9 01E58172 		.ascii	"\001\345\201ra\200\300O\366g\370\313\213K+}BFP\362\371"
 433      6180C04F 
 433      F667F8CB 
 433      8B4B2B7D 
 433      424650F2 
 434 0fde CB25D440 		.ascii	"\313%\324@b%z\016\363J\203m\012\227\361\305%\376r!\303"
 434      62257A0E 
 434      F34A836D 
ARM GAS  /tmp/ccQpspY6.s 			page 34


 434      0A97F1C5 
 434      25FE7221 
 435 0ff3 EB13A6F0 		.ascii	"\353\023\246\360\225\245\222W\232Q!\004Q"
 435      95A59257 
 435      9A512104 
 435      51
 436 1000 658FD7AB 		.ascii	"e\217\327\253VO\344}>Q\010\006s3J\002eBFq\3007#\303"
 436      564FE47D 
 436      3E510806 
 436      73334A02 
 436      65424671 
 437 1018 274CCB40 		.ascii	"'L\313@\025'\373\003\301\014I\254,\177%\003%J\370\322"
 437      1527FB03 
 437      C10C49AC 
 437      2C7F2503 
 437      254AF8D2 
 438 102c 8C8A8028 		.ascii	"\214\212\200(\0053\012\213\306\016\312\316\0303&7\003"
 438      05330A8B 
 438      C60ECACE 
 438      18332637 
 438      03
 439 103d 31342D0B 		.ascii	"14-\013\370.-\365aX\224\241H#\233\006N#\023\001\240"
 439      F82E2DF5 
 439      615894A1 
 439      48239B06 
 439      4E231301 
 440 1052 CA3DD103 		.ascii	"\312=\321\003\330\367J=\021\216w\342\270\374q\371EI"
 440      D8F74A3D 
 440      118E77E2 
 440      B8FC71F9 
 440      4549
 441 1064 38595834 		.ascii	"8YX4~\002\306\366\026\344\215\314\235\364\020N)\222"
 441      7E02C6F6 
 441      16E48DCC 
 441      9DF4104E 
 441      2992
 442 1076 F316BD48 		.ascii	"\363\026\275H\276\025\274\0105\307\214\317y>/7\031\341"
 442      BE15BC08 
 442      35C78CCF 
 442      793E2F37 
 442      19E1
 443 1088 052ACA02 		.ascii	"\005*\312\002>\0148~\302\330\361\271y^\364\265\257\232"
 443      3E0C387E 
 443      C2D8F1B9 
 443      795EF4B5 
 443      AF9A
 444 109a 2C1C8B04 		.ascii	",\034\213\004\356\315\315{!?'/M\2277z|aQb\240\302\213"
 444      EECDCD7B 
 444      213F272F 
 444      4D97377A 
 444      7C615162 
 445 10b1 AB266131 		.ascii	"\253&a1\015\312F\010\212\304p2\271\2704P\374\2127X!"
 445      0DCA4608 
 445      8AC47032 
 445      B9B83450 
 445      FC8A3758 
 446 10c6 08BE54D4 		.ascii	"\010\276T\324\210\257R\232Q<\243\270\024\265\223ZX\224"
ARM GAS  /tmp/ccQpspY6.s 			page 35


 446      88AF529A 
 446      513CA3B8 
 446      14B5935A 
 446      5894
 447 10d8 EBCD9D58 		.ascii	"\353\315\235X4\311\2333)gL^\332\250\221\205E\304\273"
 447      34C99B33 
 447      29674C5E 
 447      DAA89185 
 447      45C4BB
 448 10eb 37FB6163 		.ascii	"7\373acN\326\020\357\360\236\030\301\013\020\230\313"
 448      4ED610EF 
 448      F09E18C1 
 448      0B1098CB 
 449 10fb 9C40F914 		.ascii	"\234@\371\024\377\324\204bx`\251L)\345\247\006\221\032"
 449      FFD48462 
 449      7860A94C 
 449      29E5A706 
 449      911A
 450 110d 09A21810 		.ascii	"\011\242\030\020\203\203b\211V\224\"\222-.)\223\252"
 450      83836289 
 450      56942292 
 450      2D2E2993 
 450      AA
 451 111e B0B29455 		.ascii	"\260\262\224UJB\225W\352\001\317a\216\020\2023\202\232"
 451      4A429557 
 451      EA01CF61 
 451      8E108233 
 451      829A
 452 1130 DAF4924A 		.ascii	"\332\364\222JD\201\367\005\275\377Y)T\"v{\027\227xu"
 452      4481F705 
 452      BDFF5929 
 452      5422767B 
 452      17977875 
 453 1144 59839D21 		.ascii	"Y\203\235!\027\227`\255IR \274\222'\002\227P\341-\027"
 453      179760AD 
 453      495220BC 
 453      92270297 
 453      50E12D17 
 454 1158 AA24F4A8 		.ascii	"\252$\364\250\020\205i\243)P\025\325\034Y06gl\025*Y"
 454      108569A3 
 454      295015D5 
 454      1C593036 
 454      676C152A 
 455 116d 56E12FC5 		.ascii	"V\341/\3056\371\333\234\034T\\\243?Q\252\020\375\001"
 455      36F9DB9C 
 455      1C545CA3 
 455      3F51AA10 
 455      FD01
 456 117f AF82EB0F 		.ascii	"\257\202\353\017$\"\021#qH\303\035\343\227\024\007D"
 456      24221123 
 456      7148C31D 
 456      E3971407 
 456      44
 457 1190 015B39CE 		.ascii	"\001[9\316\366\"\275(\226\252\3765>\024\357\264\241"
 457      F622BD28 
 457      96AAFE35 
 457      3E14EFB4 
ARM GAS  /tmp/ccQpspY6.s 			page 36


 457      A1
 458 11a1 655808A2 		.ascii	"eX\010\2420\025\031\261Wr\005\263\206\2400\024\205a"
 458      301519B1 
 458      577205B3 
 458      86A03014 
 458      8561
 459 11b3 280C7705 		.ascii	"(\014w\005\2633Q\310B!\033\205A(\014F\3417(\240r\331"
 459      B33351C8 
 459      42211B85 
 459      41280C46 
 459      E13728A0 
 460 11c9 A85C362A 		.ascii	"\250\\6*\227\215\312\015B\345\006eq\342`N\374\015'\016"
 460      978DCA0D 
 460      42E50665 
 460      71E2604E 
 460      FC0D270E 
 461 11dd E1C4A19C 		.ascii	"\341\304\241\2348\214\023\207\273\304\254L\024\262\270"
 461      388C1387 
 461      BBC4AC4C 
 461      14B2B8
 462 11ec 52113D06 		.ascii	"R\021=\006\365\250\360\"j\023\261\204\247\013\"z\006"
 462      F5A8F022 
 462      6A13B184 
 462      A70B227A 
 462      06
 463 11fd 4A7D82E8 		.ascii	"J}\202\350..\341E,v\276LH\222T;D\037!\225()f\204\336"
 463      2E2EE145 
 463      2C76BE4C 
 463      4892543B 
 463      441F2195 
 464 1216 41171325 		.ascii	"A\027\023%Q\230\022\0049\342D\217\262\340T\364Q5\017"
 464      51981204 
 464      39E2448F 
 464      B2E054F4 
 464      51350F
 465 1229 34B6A8A9 		.ascii	"4\266\250\251\004\3217\003}J\022\252\374\022\022\213"
 465      04D13703 
 465      7D4A12AA 
 465      FC12128B 
 466 1239 90305D0A 		.ascii	"\2200]\012L\376\217\212da\232P.\225\361\301W\260NO\307"
 466      4CFE8F8A 
 466      64619A50 
 466      2E95F1C1 
 466      57B04E4F 
 467 124e 095785B7 		.ascii	"\011W\205\2672U\323\244R\177\020\215T\275\010\335\302"
 467      3255D3A4 
 467      527F108D 
 467      54BD08DD 
 467      C2
 468 125f 399E0AEF 		.ascii	"9\236\012\357t\336/\371\313\247\366D\246\031\234\012"
 468      74DE2FF9 
 468      CBA7F644 
 468      A6199C0A 
 469 126f FAD60392 		.ascii	"\372\326\003\222(C\250\020\312\321\3008\025\225B\032"
 469      2843A810 
 469      CAD1C038 
 469      1595421A 
ARM GAS  /tmp/ccQpspY6.s 			page 37


 470 127f 8FCBF7C4 		.ascii	"\217\313\367\304\264\361\245\320\317(\263\"\020(M,S"
 470      B4F1A5D0 
 470      CF28B322 
 470      10284D2C 
 470      53
 471 1290 B4143D03 		.ascii	"\264\024=\003\323\313\0051\241\014\264l\250#\245UiB"
 471      D3CB0531 
 471      A10CB46C 
 471      A823A555 
 471      6942
 472 12a2 5DD647D5 		.ascii	"]\326G\325[$\002A\024\312\213\221\200\022\224,\0172"
 472      5B240241 
 472      14CA8B91 
 472      8012942C 
 472      0F32
 473 12b4 5A3CAE7A 		.ascii	"Z<\256z%\030?\220\215k\343\007N\272\361'\217X\345+\343"
 473      25183F90 
 473      8D6BE307 
 473      4EBAF127 
 473      8F58E52B 
 474 12c9 B1583D92 		.ascii	"\261X=\222\226\032\345t\014\206x\324\340\252*\344\026"
 474      961AE574 
 474      0C8678D4 
 474      E0AA2AE4 
 474      16
 475 12da CA90C411 		.ascii	"\312\220\304\021\016\242\353\351X0\210\347\214\234\261"
 475      0EA2EBE9 
 475      583088E7 
 475      8C9CB1
 476 12e9 85F98508 		.ascii	"\205\371\205\010@\2519epfV\025V\350>\271cGz\013Q\367"
 476      40A93965 
 476      70665615 
 476      56E83EB9 
 476      63477A0B 
 477 12ff F265DE22 		.ascii	"\362e\336\"d5\271\302\024.\247\300=.\267\250\3005ad"
 477      6435B9C2 
 477      142EA7C0 
 477      3D2EB7A8 
 477      C0356164 
 478 1313 817B6C26 		.ascii	"\201{l&\216\262F\026\270F\345\024$\004\241\240\333?"
 478      8EB24616 
 478      B846E514 
 478      2404A1A0 
 478      DB3F
 479 1325 A5584CF0 		.ascii	"\245XL\360\007K\374S$OP(\235\342/\367\011U\011\323\204"
 479      074BFC53 
 479      244F5028 
 479      9DE22FF7 
 479      095509D3 
 480 133a 622920F6 		.ascii	"b) \366\211P\346UJ\243A\010\275\210U8\226\252\260\233"
 480      8950E655 
 480      4AA34108 
 480      BD885538 
 480      96AAB09B 
 481 134e D41A72E5 		.ascii	"\324\032r\345\024d\241\220\355\036?\262 \013G\331\\"
 481      1464A190 
 481      ED1E3FB2 
ARM GAS  /tmp/ccQpspY6.s 			page 38


 481      200B47D9 
 481      5C
 482 135f 6E81AB10 		.ascii	"n\201\253\020e\026\026d\273rr\012z\024\025\344\027\346"
 482      65161664 
 482      BB72720A 
 482      7A1415E4 
 482      17E6
 483 1371 B9478D41 		.ascii	"\271G\215A\304 \011{\360\310\344/\303z\211\037\201J"
 483      C420097B 
 483      F0C8E42F 
 483      C37A891F 
 483      814A
 484 1383 294D73C5 		.ascii	")Ms\305A\377\320\314\252\314\201\305L\202\342\345\222"
 484      41FFD0CC 
 484      AACC81C5 
 484      4C82E2E5 
 484      92
 485 1394 402751C2 		.ascii	"@'Q\302X\002\031^!\244P\337)\276;Y\371\202\312\373%"
 485      5802195E 
 485      21A450DF 
 485      29BE3B59 
 485      F982CAFB 
 486 13a9 3698E083 		.ascii	"6\230\340\203\362I\223\371\2400\022u\233\3665(\005*"
 486      F24993F9 
 486      A0301275 
 486      9BF63528 
 486      052A
 487 13bb 127184E8 		.ascii	"\022q\204\350OQ\363\220\033\025\244\207\265\002\202"
 487      4F51F390 
 487      1B15A487 
 487      B50282
 488 13ca 54200403 		.ascii	"T \004\003\245\225\222?P\336S\214$\373\252\337K\004"
 488      A595923F 
 488      50DE538C 
 488      24FBAADF 
 488      4B04
 489 13dc 6457625E 		.ascii	"dWb^9?\271THR^\306\227\377$Zy4d\345T\212H\263\244\207"
 489      393FB954 
 489      48525EC6 
 489      97FF245A 
 489      793464E5 
 490 13f6 4AC8B747 		.ascii	"J\310\267G#\355\361\276\"\241\254B\020y\251R\024\334"
 490      23EDF1BE 
 490      22A1AC42 
 490      1079A952 
 490      14DC
 491 1408 124AF725 		.ascii	"\022J\367%\276\215\256,\363\373\374\322\214\244\022"
 491      BE8DAE2C 
 491      F3FBFCD2 
 491      8CA412
 492 1417 35911A9D 		.ascii	"5\221\032\235\200`\356\372\020S\024\221/\017\362\305"
 492      8060EEFA 
 492      10531491 
 492      2F0FF2C5 
 493 1427 60C35845 		.ascii	"`\303XE\025\033\306\251\377\0033s\331\276"
 493      151BC6A9 
 493      FF033373 
ARM GAS  /tmp/ccQpspY6.s 			page 39


 493      D9BE
 494              		.text
 495              		.section	.gnu.lto_.symtab.37bb12d552c4c6f4,"",%progbits
 496 0000 73693730 		.ascii	"si70x0_init\000\000\000\000\000\000\000\000\000\000"
 496      78305F69 
 496      6E697400 
 496      00000000 
 496      00000000 
 497 0015 00001202 		.ascii	"\000\000\022\002\000\000si70x0_stop\000\000\000\000"
 497      00007369 
 497      37307830 
 497      5F73746F 
 497      70000000 
 498 002a 00000000 		.ascii	"\000\000\000\000\000\000\000\000-\002\000\000si70x0"
 498      00000000 
 498      2D020000 
 498      73693730 
 498      7830
 499 003c 5F726573 		.ascii	"_reset\000\000\000\000\000\000\000\000\000\000\000\000"
 499      65740000 
 499      00000000 
 499      00000000 
 499      0000
 500 004e 36020000 		.ascii	"6\002\000\000si70x0_setResolution\000\000\000\000\000"
 500      73693730 
 500      78305F73 
 500      65745265 
 500      736F6C75 
 501 006b 00000000 		.ascii	"\000\000\000\000\000\000\000<\002\000\000si70x0_hea"
 501      0000003C 
 501      02000073 
 501      69373078 
 501      305F6865 
 502 0080 74657245 		.ascii	"terEnable\000\000\000\000\000\000\000\000\000\000\000"
 502      6E61626C 
 502      65000000 
 502      00000000 
 502      00000000 
 503 0094 00450200 		.ascii	"\000E\002\000\000si70x0_setHeaterCurrent\000\000\000"
 503      00736937 
 503      3078305F 
 503      73657448 
 503      65617465 
 504 00b3 00000000 		.ascii	"\000\000\000\000\000\000\000\000\000K\002\000\000si"
 504      00000000 
 504      004B0200 
 504      007369
 505 00c2 37307830 		.ascii	"70x0_readTemperature\000\000\000\000\000\000\000\000"
 505      5F726561 
 505      6454656D 
 505      70657261 
 505      74757265 
 506 00de 00000000 		.ascii	"\000\000\000\000Q\002\000\000si70x0_readHumidity\000"
 506      51020000 
 506      73693730 
 506      78305F72 
 506      65616448 
ARM GAS  /tmp/ccQpspY6.s 			page 40


 507 00fa 00000000 		.ascii	"\000\000\000\000\000\000\000\000\000\000\000Z\002\000"
 507      00000000 
 507      0000005A 
 507      0200
 508 0108 00493243 		.ascii	"\000I2CSensor_init\000\000\002\000\000\000\000\000\000"
 508      53656E73 
 508      6F725F69 
 508      6E697400 
 508      00020000 
 509 0120 00000064 		.ascii	"\000\000\000d\002\000\000I2CSensor_transact\000\000"
 509      02000049 
 509      32435365 
 509      6E736F72 
 509      5F747261 
 510 013b 02000000 		.ascii	"\002\000\000\000\000\000\000\000\000\000l\002\000\000"
 510      00000000 
 510      00006C02 
 510      0000
 511              		.text
 512              		.section	.gnu.lto_.opts,"",%progbits
 513 0000 272D6D63 		.ascii	"'-mcpu=cortex-m4' '-mfloat-abi=hard' '-mfpu=fpv4-sp"
 513      70753D63 
 513      6F727465 
 513      782D6D34 
 513      2720272D 
 514 0033 2D643136 		.ascii	"-d16' '-mno-thumb-interwork' '-mthumb' '-O2' '-fomi"
 514      2720272D 
 514      6D6E6F2D 
 514      7468756D 
 514      622D696E 
 515 0066 742D6672 		.ascii	"t-frame-pointer' '-falign-functions=16' '-ffunction"
 515      616D652D 
 515      706F696E 
 515      74657227 
 515      20272D66 
 516 0099 2D736563 		.ascii	"-sections' '-fdata-sections' '-fno-common' '-flto' "
 516      74696F6E 
 516      73272027 
 516      2D666461 
 516      74612D73 
 517 00cc 272D6673 		.ascii	"'-fsingle-precision-constant'\000"
 517      696E676C 
 517      652D7072 
 517      65636973 
 517      696F6E2D 
 518              		.text
 519              		.section	.text.si70x0_init,"ax",%progbits
 520              		.align	2
 521              		.p2align 4,,15
 522              		.global	si70x0_init
 523              		.thumb
 524              		.thumb_func
 525              		.type	si70x0_init, %function
 526              	si70x0_init:
 527              		@ args = 0, pretend = 0, frame = 0
 528              		@ frame_needed = 0, uses_anonymous_args = 0
 529 0000 08B5     		push	{r3, lr}
ARM GAS  /tmp/ccQpspY6.s 			page 41


 530 0002 2823     		movs	r3, #40
 531 0004 FFF7FEFF 		bl	I2CSensor_init
 532 0008 0020     		movs	r0, #0
 533 000a 08BD     		pop	{r3, pc}
 534              		.size	si70x0_init, .-si70x0_init
 535 000c AFF30080 		.section	.text.si70x0_stop,"ax",%progbits
 536              		.align	2
 537              		.p2align 4,,15
 538              		.global	si70x0_stop
 539              		.thumb
 540              		.thumb_func
 541              		.type	si70x0_stop, %function
 542              	si70x0_stop:
 543              		@ args = 0, pretend = 0, frame = 0
 544              		@ frame_needed = 0, uses_anonymous_args = 0
 545              		@ link register save eliminated.
 546 0000 0020     		movs	r0, #0
 547 0002 7047     		bx	lr
 548              		.size	si70x0_stop, .-si70x0_stop
 549 0004 AFF30080 		.section	.text.si70x0_reset,"ax",%progbits
 549      AFF30080 
 549      AFF30080 
 550              		.align	2
 551              		.p2align 4,,15
 552              		.global	si70x0_reset
 553              		.thumb
 554              		.thumb_func
 555              		.type	si70x0_reset, %function
 556              	si70x0_reset:
 557              		@ args = 0, pretend = 0, frame = 8
 558              		@ frame_needed = 0, uses_anonymous_args = 0
 559 0000 00B5     		push	{lr}
 560 0002 85B0     		sub	sp, sp, #20
 561 0004 04A9     		add	r1, sp, #16
 562 0006 FE23     		movs	r3, #254
 563 0008 01F8013D 		strb	r3, [r1, #-1]!
 564 000c 0023     		movs	r3, #0
 565 000e 0093     		str	r3, [sp]
 566 0010 0122     		movs	r2, #1
 567 0012 FFF7FEFF 		bl	I2CSensor_transact
 568 0016 05B0     		add	sp, sp, #20
 569              		@ sp needed
 570 0018 5DF804FB 		ldr	pc, [sp], #4
 571              		.size	si70x0_reset, .-si70x0_reset
 572 001c AFF30080 		.section	.text.si70x0_setResolution,"ax",%progbits
 573              		.align	2
 574              		.p2align 4,,15
 575              		.global	si70x0_setResolution
 576              		.thumb
 577              		.thumb_func
 578              		.type	si70x0_setResolution, %function
 579              	si70x0_setResolution:
 580              		@ args = 0, pretend = 0, frame = 0
 581              		@ frame_needed = 0, uses_anonymous_args = 0
 582              		@ link register save eliminated.
 583 0000 0020     		movs	r0, #0
 584 0002 7047     		bx	lr
ARM GAS  /tmp/ccQpspY6.s 			page 42


 585              		.size	si70x0_setResolution, .-si70x0_setResolution
 586 0004 AFF30080 		.section	.text.si70x0_heaterEnable,"ax",%progbits
 586      AFF30080 
 586      AFF30080 
 587              		.align	2
 588              		.p2align 4,,15
 589              		.global	si70x0_heaterEnable
 590              		.thumb
 591              		.thumb_func
 592              		.type	si70x0_heaterEnable, %function
 593              	si70x0_heaterEnable:
 594              		@ args = 0, pretend = 0, frame = 0
 595              		@ frame_needed = 0, uses_anonymous_args = 0
 596              		@ link register save eliminated.
 597 0000 0020     		movs	r0, #0
 598 0002 7047     		bx	lr
 599              		.size	si70x0_heaterEnable, .-si70x0_heaterEnable
 600 0004 AFF30080 		.section	.text.si70x0_setHeaterCurrent,"ax",%progbits
 600      AFF30080 
 600      AFF30080 
 601              		.align	2
 602              		.p2align 4,,15
 603              		.global	si70x0_setHeaterCurrent
 604              		.thumb
 605              		.thumb_func
 606              		.type	si70x0_setHeaterCurrent, %function
 607              	si70x0_setHeaterCurrent:
 608              		@ args = 0, pretend = 0, frame = 0
 609              		@ frame_needed = 0, uses_anonymous_args = 0
 610              		@ link register save eliminated.
 611 0000 0020     		movs	r0, #0
 612 0002 7047     		bx	lr
 613              		.size	si70x0_setHeaterCurrent, .-si70x0_setHeaterCurrent
 614 0004 AFF30080 		.section	.text.si70x0_readTemperature,"ax",%progbits
 614      AFF30080 
 614      AFF30080 
 615              		.align	2
 616              		.p2align 4,,15
 617              		.global	si70x0_readTemperature
 618              		.thumb
 619              		.thumb_func
 620              		.type	si70x0_readTemperature, %function
 621              	si70x0_readTemperature:
 622              		@ args = 0, pretend = 0, frame = 8
 623              		@ frame_needed = 0, uses_anonymous_args = 0
 624 0000 10B5     		push	{r4, lr}
 625 0002 84B0     		sub	sp, sp, #16
 626 0004 04AB     		add	r3, sp, #16
 627 0006 F322     		movs	r2, #243
 628 0008 03F8052D 		strb	r2, [r3, #-5]!
 629 000c 0222     		movs	r2, #2
 630 000e 0C46     		mov	r4, r1
 631 0010 0092     		str	r2, [sp]
 632 0012 1946     		mov	r1, r3
 633 0014 0122     		movs	r2, #1
 634 0016 03AB     		add	r3, sp, #12
 635 0018 FFF7FEFF 		bl	I2CSensor_transact
ARM GAS  /tmp/ccQpspY6.s 			page 43


 636 001c B0B9     		cbnz	r0, .L8
 637 001e 9DF80C20 		ldrb	r2, [sp, #12]	@ zero_extendqisi2
 638 0022 9DF80D30 		ldrb	r3, [sp, #13]	@ zero_extendqisi2
 639 0026 9FED0A6A 		flds	s12, .L10
 640 002a 9FED0A7A 		flds	s14, .L10+4
 641 002e DFED0A7A 		flds	s15, .L10+8
 642 0032 03EB0223 		add	r3, r3, r2, lsl #8
 643 0036 1BB2     		sxth	r3, r3
 644 0038 06EE903A 		fmsr	s13, r3	@ int
 645 003c F8EEE66A 		fsitos	s13, s13
 646 0040 66EE866A 		fmuls	s13, s13, s12
 647 0044 E6EE877A 		vfma.f32	s15, s13, s14
 648 0048 C4ED007A 		fsts	s15, [r4]
 649              	.L8:
 650 004c 04B0     		add	sp, sp, #16
 651              		@ sp needed
 652 004e 10BD     		pop	{r4, pc}
 653              	.L11:
 654              		.align	2
 655              	.L10:
 656 0050 52B82F43 		.word	1127200850
 657 0054 00008037 		.word	931135488
 658 0058 66663BC2 		.word	3258672742
 659              		.size	si70x0_readTemperature, .-si70x0_readTemperature
 660 005c AFF30080 		.section	.text.si70x0_readHumidity,"ax",%progbits
 661              		.align	2
 662              		.p2align 4,,15
 663              		.global	si70x0_readHumidity
 664              		.thumb
 665              		.thumb_func
 666              		.type	si70x0_readHumidity, %function
 667              	si70x0_readHumidity:
 668              		@ args = 0, pretend = 0, frame = 8
 669              		@ frame_needed = 0, uses_anonymous_args = 0
 670 0000 10B5     		push	{r4, lr}
 671 0002 84B0     		sub	sp, sp, #16
 672 0004 04AB     		add	r3, sp, #16
 673 0006 F522     		movs	r2, #245
 674 0008 03F8052D 		strb	r2, [r3, #-5]!
 675 000c 0222     		movs	r2, #2
 676 000e 0C46     		mov	r4, r1
 677 0010 0092     		str	r2, [sp]
 678 0012 1946     		mov	r1, r3
 679 0014 0122     		movs	r2, #1
 680 0016 03AB     		add	r3, sp, #12
 681 0018 FFF7FEFF 		bl	I2CSensor_transact
 682 001c 90B9     		cbnz	r0, .L13
 683 001e 9DF80C20 		ldrb	r2, [sp, #12]	@ zero_extendqisi2
 684 0022 9DF80D30 		ldrb	r3, [sp, #13]	@ zero_extendqisi2
 685 0026 03EB0223 		add	r3, r3, r2, lsl #8
 686 002a 9BB2     		uxth	r3, r3
 687 002c C3EB4312 		rsb	r2, r3, r3, lsl #5
 688 0030 03EB8203 		add	r3, r3, r2, lsl #2
 689 0034 1B14     		asrs	r3, r3, #16
 690 0036 063B     		subs	r3, r3, #6
 691 0038 642B     		cmp	r3, #100
 692 003a A8BF     		it	ge
ARM GAS  /tmp/ccQpspY6.s 			page 44


 693 003c 6423     		movge	r3, #100
 694 003e 23EAE373 		bic	r3, r3, r3, asr #31
 695 0042 2380     		strh	r3, [r4]	@ movhi
 696              	.L13:
 697 0044 04B0     		add	sp, sp, #16
 698              		@ sp needed
 699 0046 10BD     		pop	{r4, pc}
 700              		.size	si70x0_readHumidity, .-si70x0_readHumidity
 701              		.comm	__gnu_lto_v1,1,1
 702 0048 AFF30080 		.ident	"GCC: (GNU Tools for ARM Embedded Processors) 4.8.4 20140526 (release) [ARM/embedded-4_8-br
 702      AFF30080 
ARM GAS  /tmp/ccQpspY6.s 			page 45


DEFINED SYMBOLS
                            *ABS*:0000000000000000 si70x0.c
     /tmp/ccQpspY6.s:520    .text.si70x0_init:0000000000000000 $t
     /tmp/ccQpspY6.s:526    .text.si70x0_init:0000000000000000 si70x0_init
     /tmp/ccQpspY6.s:536    .text.si70x0_stop:0000000000000000 $t
     /tmp/ccQpspY6.s:542    .text.si70x0_stop:0000000000000000 si70x0_stop
     /tmp/ccQpspY6.s:550    .text.si70x0_reset:0000000000000000 $t
     /tmp/ccQpspY6.s:556    .text.si70x0_reset:0000000000000000 si70x0_reset
     /tmp/ccQpspY6.s:573    .text.si70x0_setResolution:0000000000000000 $t
     /tmp/ccQpspY6.s:579    .text.si70x0_setResolution:0000000000000000 si70x0_setResolution
     /tmp/ccQpspY6.s:587    .text.si70x0_heaterEnable:0000000000000000 $t
     /tmp/ccQpspY6.s:593    .text.si70x0_heaterEnable:0000000000000000 si70x0_heaterEnable
     /tmp/ccQpspY6.s:601    .text.si70x0_setHeaterCurrent:0000000000000000 $t
     /tmp/ccQpspY6.s:607    .text.si70x0_setHeaterCurrent:0000000000000000 si70x0_setHeaterCurrent
     /tmp/ccQpspY6.s:615    .text.si70x0_readTemperature:0000000000000000 $t
     /tmp/ccQpspY6.s:621    .text.si70x0_readTemperature:0000000000000000 si70x0_readTemperature
     /tmp/ccQpspY6.s:656    .text.si70x0_readTemperature:0000000000000050 $d
     /tmp/ccQpspY6.s:661    .text.si70x0_readHumidity:0000000000000000 $t
     /tmp/ccQpspY6.s:667    .text.si70x0_readHumidity:0000000000000000 si70x0_readHumidity
                            *COM*:0000000000000001 __gnu_lto_v1
     /tmp/ccQpspY6.s:660    .text.si70x0_readTemperature:000000000000005c $t

UNDEFINED SYMBOLS
I2CSensor_init
I2CSensor_transact
