ARM GAS  /tmp/ccwm99iu.s 			page 1


   1              		.syntax unified
   2              		.cpu cortex-m4
   3              		.eabi_attribute 27, 3
   4              		.eabi_attribute 28, 1
   5              		.fpu fpv4-sp-d16
   6              		.eabi_attribute 20, 1
   7              		.eabi_attribute 21, 1
   8              		.eabi_attribute 23, 3
   9              		.eabi_attribute 24, 1
  10              		.eabi_attribute 25, 1
  11              		.eabi_attribute 26, 1
  12              		.eabi_attribute 30, 2
  13              		.eabi_attribute 34, 1
  14              		.eabi_attribute 18, 4
  15              		.thumb
  16              		.file	"si70x0.c"
  17              		.section	.gnu.lto_.jmpfuncs.4172f5b1176412ee,"",%progbits
  18 0000 789C6362 		.ascii	"x\234cb`b\300\006\004\2404;\003;#P\0113\003\013\003"
  18      6062C006 
  18      04A0343B 
  18      033B2350 
  18      0933030B 
  19 0015 2B031B03 		.ascii	"+\003\033\003\003\000\003\303\0008"
  19      030003C3 
  19      0038
  20              		.text
  21              		.section	.gnu.lto_.inline.4172f5b1176412ee,"",%progbits
  22 0000 789C6362 		.ascii	"x\234cb`b\300\006\032\2414;\003\003\033+#\003\023\363"
  22      6062C006 
  22      1AA1343B 
  22      03031B2B 
  22      230313F3 
  23 0014 0E7106CE 		.ascii	"\016q\006\316\033f`\305\214\014\314L\214`}l\013\344"
  23      1B6660C5 
  23      8C0CCC4C 
  23      8C607D6C 
  23      0BE4
  24 0026 C1224C18 		.ascii	"\301\"L\030\"\314\030\",\030\"\254\030\"l\030\"\014"
  24      22CC1822 
  24      2C1822AC 
  24      18226C18 
  24      220C
  25 0038 003A0407 		.ascii	"\000:\004\007u"
  25      75
  26              		.text
  27              		.section	.gnu.lto_.pureconst.4172f5b1176412ee,"",%progbits
  28 0000 789C6362 		.ascii	"x\234cb`b\340g\200\000v\006)F \227\231\201\205\201\225"
  28      6062E067 
  28      80007606 
  28      29462097 
  28      99818581 
  29 0015 818D0100 		.ascii	"\201\215\001\000\004\007\000J"
  29      0407004A 
  30              		.text
  31              		.section	.gnu.lto_si70x0_init.4172f5b1176412ee,"",%progbits
  32 0000 789C6362 		.ascii	"x\234cb`b@\007\222@,\306\310\300 \014\244\031\231\031"
  32      60624007 
ARM GAS  /tmp/ccwm99iu.s 			page 2


  32      92402CC6 
  32      C8C0200C 
  32      A4199919 
  33 0014 1899269C 		.ascii	"\030\231&\234c`h\344`bd\0041\030\030\031\352\231\030"
  33      636068E4 
  33      60626404 
  33      31181819 
  33      EA9918
  34 0027 EB2319C1 		.ascii	"\353#\031\301j\3273\035x\360\377\377\272--\207\230\200"
  34      6AD7331D 
  34      78F0FFFF 
  34      BA2D2D87 
  34      9880
  35 0039 0A721919 		.ascii	"\012r\031\031\230\201\004#+\220\000\231\313\312\320"
  35      98810423 
  35      2B900099 
  35      CBCAD0
  36 0048 D2D03041 		.ascii	"\322\3200A\201\201!\031\254:\004H\202\214\010\005J\002"
  36      81812119 
  36      AC3A0448 
  36      828C0805 
  36      4A02
  37 005a 69E6B30C 		.ascii	"i\346\263\014M\247\177\264\361%2.dde\320fX\325\000\004"
  37      4DA77FB4 
  37      F125322E 
  37      646465D0 
  37      6658D500 
  38 006f BC998C0C 		.ascii	"\274\231\214\014\263\031f1f22\24632E\000i\210\003\223"
  38      B3196631 
  38      663232A6 
  38      33324500 
  38      69880393 
  39 0083 20F631A4 		.ascii	" \3661\244\003]\304\000\3228\343\270\010\272Ff\354\032"
  39      035DC400 
  39      D238E3B8 
  39      08BA4666 
  39      EC1A
  40 0095 19A11A59 		.ascii	"\031\241\032Y\301\032w\354h\347G\327\310\202]#\204\006"
  40      C11A77EC 
  40      68E747D7 
  40      C8825D23 
  40      8406
  41 00a7 89B08018 		.ascii	"\211\260\200\030\027\031\032\037\314\347\202\350\005"
  41      17191A1F 
  41      CCE782E8 
  41      05
  42 00b4 09B2C202 		.ascii	"\011\262\302\002,\004h\005\320? \345\202.E\231e\251"
  42      2C046805 
  42      D03F20E5 
  42      822E4599 
  42      65A9
  43 00c6 45C5FAC5 		.ascii	"E\305\372\305\231\346\006\025\006z\311\014\000F\227"
  43      99E60615 
  43      067AC90C 
  43      004697
  44 00d5 421E     		.ascii	"B\036"
  45              		.text
ARM GAS  /tmp/ccwm99iu.s 			page 3


  46              		.section	.gnu.lto_si70x0_stop.4172f5b1176412ee,"",%progbits
  47 0000 789C6362 		.ascii	"x\234cb`b@\007\222@\034\001\304\302@\314\310\314\300"
  47      60624007 
  47      92401C01 
  47      C4C240CC 
  47      C8CCC0
  48 0013 C834E11C 		.ascii	"\3104\341\034\003C#\007\023##\210\301\300\310P\317\304"
  48      03432307 
  48      13232388 
  48      C1C0C850 
  48      CFC4
  49 0025 581FC908 		.ascii	"X\037\311\010V\273\236\351\300\203\377\377\327\335i"
  49      56BB9EE9 
  49      C083FFFF 
  49      D7DD69
  50 0034 39C40C32 		.ascii	"9\304\0142\210\225\241\245\241a\202\002\003C2X:\004"
  50      8895A1A5 
  50      A1618202 
  50      03433258 
  50      3A04
  51 0046 4882F484 		.ascii	"H\202\364\20422\201h\346\213\014\215\017\326s%2.dde"
  51      32328168 
  51      E68B0C8D 
  51      0FD67325 
  51      322E6464 
  52 005b 8860CC64 		.ascii	"\210`\314d\204[\031\302\310\010R\0002B\320\245(\263"
  52      845B19C2 
  52      C8085200 
  52      3242D0A5 
  52      28B3
  53 006d 2CB5A858 		.ascii	",\265\250X\2778\323\334\240\302@/\231\001\000\016\252"
  53      BF38D3DC 
  53      A0C2402F 
  53      9901000E 
  53      AA
  54 007e 1E6A     		.ascii	"\036j"
  55              		.text
  56              		.section	.gnu.lto_si70x0_setResolution.4172f5b1176412ee,"",%progbits
  57 0000 789C6362 		.ascii	"x\234cb`b@\007\222@\034\001\304\302@\314\310\314\300"
  57      60624007 
  57      92401C01 
  57      C4C240CC 
  57      C8CCC0
  58 0013 C834E11C 		.ascii	"\3104\341\034\003C#\007\023##\210\301\300\310P\317\304"
  58      03432307 
  58      13232388 
  58      C1C0C850 
  58      CFC4
  59 0025 581FC908 		.ascii	"X\037\311\010V\273\236\351\300\203\377\377\327\375i"
  59      56BB9EE9 
  59      C083FFFF 
  59      D7FD69
  60 0034 39C40232 		.ascii	"9\304\0022\210\225\241\245\241a\202\002\003C2X:\004"
  60      8895A1A5 
  60      A1618202 
  60      03433258 
  60      3A04
ARM GAS  /tmp/ccwm99iu.s 			page 4


  61 0046 4882F484 		.ascii	"H\202\364\20422\201h\346\213\014\215\017\366s%2.dde"
  61      32328168 
  61      E68B0C8D 
  61      0FF67325 
  61      322E6464 
  62 005b 8860CC64 		.ascii	"\210`\314d\204[\031\302\310\010R\0002B\320\245(\263"
  62      845B19C2 
  62      C8085200 
  62      3242D0A5 
  62      28B3
  63 006d 2CB5A858 		.ascii	",\265\250X\2778\323\334\240\302@/\231\001\000\035\304"
  63      BF38D3DC 
  63      A0C2402F 
  63      9901001D 
  63      C4
  64 007e 1E9B     		.ascii	"\036\233"
  65              		.text
  66              		.section	.gnu.lto_si70x0_heaterEnable.4172f5b1176412ee,"",%progbits
  67 0000 789C6362 		.ascii	"x\234cb`b@\007\222@\034\001\304\302@\314\310\314\300"
  67      60624007 
  67      92401C01 
  67      C4C240CC 
  67      C8CCC0
  68 0013 C834E11C 		.ascii	"\3104\341\034\003C#\007\023##\210\301\300\310P\317\304"
  68      03432307 
  68      13232388 
  68      C1C0C850 
  68      CFC4
  69 0025 581FC908 		.ascii	"X\037\311\010V\273\236\351\300\203\377\377\327\315i"
  69      56BB9EE9 
  69      C083FFFF 
  69      D7CD69
  70 0034 3DC40A32 		.ascii	"=\304\0122\210\225\241\245\241a\202\002\003C2X:\004"
  70      8895A1A5 
  70      A1618202 
  70      03433258 
  70      3A04
  71 0046 4882F484 		.ascii	"H\202\364\20422\201h\346\213\014\215\017\316s%2.dde"
  71      32328168 
  71      E68B0C8D 
  71      0FCE7325 
  71      322E6464 
  72 005b 8860CC64 		.ascii	"\210`\314d\204[\031\302\310\010R\0002B\320\245(\263"
  72      845B19C2 
  72      C8085200 
  72      3242D0A5 
  72      28B3
  73 006d 2CB5A858 		.ascii	",\265\250X\2778\323\334\240\302@/\231\001\000\376\253"
  73      BF38D3DC 
  73      A0C2402F 
  73      990100FE 
  73      AB
  74 007e 1E4D     		.ascii	"\036M"
  75              		.text
  76              		.section	.gnu.lto_si70x0_setHeaterCurrent.4172f5b1176412ee,"",%progbits
  77 0000 789C6362 		.ascii	"x\234cb`b@\007\222@\034\001\304\302@\314\310\314\300"
  77      60624007 
ARM GAS  /tmp/ccwm99iu.s 			page 5


  77      92401C01 
  77      C4C240CC 
  77      C8CCC0
  78 0013 C834E11C 		.ascii	"\3104\341\034\003C#\007\023##\210\301\300\310P\317\304"
  78      03432307 
  78      13232388 
  78      C1C0C850 
  78      CFC4
  79 0025 581FC908 		.ascii	"X\037\311\010V\273\236\351\300\203\377\377\327\355i"
  79      56BB9EE9 
  79      C083FFFF 
  79      D7ED69
  80 0034 3DC40632 		.ascii	"=\304\0062\210\225\241\245\241a\202\002\003C2X:\004"
  80      8895A1A5 
  80      A1618202 
  80      03433258 
  80      3A04
  81 0046 4882F484 		.ascii	"H\202\364\20422\201h\346\213\014\215\017\356s%2.dde"
  81      32328168 
  81      E68B0C8D 
  81      0FEE7325 
  81      322E6464 
  82 005b 8860CC64 		.ascii	"\210`\314d\204[\031\302\310\010R\0002B\320\245(\263"
  82      845B19C2 
  82      C8085200 
  82      3242D0A5 
  82      28B3
  83 006d 2CB5A858 		.ascii	",\265\250X\2778\323\334\240\302@/\231\001\000\015\324"
  83      BF38D3DC 
  83      A0C2402F 
  83      9901000D 
  83      D4
  84 007e 1E7E     		.ascii	"\036~"
  85              		.text
  86              		.section	.gnu.lto_si70x0_readTemperature.4172f5b1176412ee,"",%progbits
  87 0000 789C6362 		.ascii	"x\234cb`b@\007\222@\034\001\304\302@\314\310\314\300"
  87      60624007 
  87      92401C01 
  87      C4C240CC 
  87      C8CCC0
  88 0013 C834E11C 		.ascii	"\3104\341\034\003C#\007\023##\210\301\300\310P\317\304"
  88      03432307 
  88      13232388 
  88      C1C0C850 
  88      CFC4
  89 0025 581FC908 		.ascii	"X\037\311\010V\273\236\351\300\203\377\377\327\335i"
  89      56BB9EE9 
  89      C083FFFF 
  89      D7DD69
  90 0034 3DC40E32 		.ascii	"=\304\0162\210\225\241\245\241a\202\002\003C2X:\004"
  90      8895A1A5 
  90      A1618202 
  90      03433258 
  90      3A04
  91 0046 4882F484 		.ascii	"H\202\364\20422\201h\346\213\014\215\017\336s%2.dde"
  91      32328168 
  91      E68B0C8D 
ARM GAS  /tmp/ccwm99iu.s 			page 6


  91      0FDE7325 
  91      322E6464 
  92 005b 8860CC64 		.ascii	"\210`\314d\204[\031\302\310\010R\0002B\320\245(\263"
  92      845B19C2 
  92      C8085200 
  92      3242D0A5 
  92      28B3
  93 006d 2CB5A858 		.ascii	",\265\250X\2778\323\334\240\302@/\231\001\000\034\356"
  93      BF38D3DC 
  93      A0C2402F 
  93      9901001C 
  93      EE
  94 007e 1EAF     		.ascii	"\036\257"
  95              		.text
  96              		.section	.gnu.lto_si70x0_readHumidity.4172f5b1176412ee,"",%progbits
  97 0000 789C6362 		.ascii	"x\234cb`b@\007\222@\034\001\304\302@\314\310\314\300"
  97      60624007 
  97      92401C01 
  97      C4C240CC 
  97      C8CCC0
  98 0013 C834E11C 		.ascii	"\3104\341\034\003C#\007\023##\210\301\300\310P\317\304"
  98      03432307 
  98      13232388 
  98      C1C0C850 
  98      CFC4
  99 0025 581FC908 		.ascii	"X\037\311\010V\273\236\351\300\203\377\377\327\375i"
  99      56BB9EE9 
  99      C083FFFF 
  99      D7FD69
 100 0034 3D240132 		.ascii	"=$\0012\210\225\241\245\241a\202\002\003C2X:\004H\202"
 100      8895A1A5 
 100      A1618202 
 100      03433258 
 100      3A044882 
 101 0048 F4843232 		.ascii	"\364\20422\201h\346\213\014\215\017\376s%2.dde\210`"
 101      8168E68B 
 101      0C8D0FFE 
 101      7325322E 
 101      64646588 
 102 005d CC64845B 		.ascii	"\314d\204[\031\302\310\010R\0002B\320\245(\263,\265"
 102      19C2C808 
 102      52003242 
 102      D0A528B3 
 102      2CB5
 103 006f A858BF38 		.ascii	"\250X\2778\323\334\240\302@/\231\001\0001\250\036\360"
 103      D3DCA0C2 
 103      402F9901 
 103      0031A81E 
 103      F0
 104              		.text
 105              		.section	.gnu.lto_.symbol_nodes.4172f5b1176412ee,"",%progbits
 106 0000 789C4DC7 		.ascii	"x\234M\307\271\015\200P\020CA\357\343h\226\"\314)\375"
 106      B90D8050 
 106      104341EF 
 106      E3689622 
 106      CC29FD
 107 0013 900A2889 		.ascii	"\220\012(\211\226 A\302\223\015B\223><e\351\274%\373"
ARM GAS  /tmp/ccwm99iu.s 			page 7


 107      962041C2 
 107      930D4293 
 107      3E3C65E9 
 107      BC25FB
 108 0026 6AC58C2B 		.ascii	"j\305\214+\272`\242+\356\242\033\356\243;\036\242\007"
 108      BA60A22B 
 108      EEA21BEE 
 108      A33B1EA2 
 108      07
 109 0037 1EFFEA05 		.ascii	"\036\377\352\005\374m \274"
 109      FC6D20BC 
 110              		.text
 111              		.section	.gnu.lto_.refs.4172f5b1176412ee,"",%progbits
 112 0000 789C6362 		.ascii	"x\234cb`b`d\200\002\000\000F\000\006"
 112      60626064 
 112      80020000 
 112      460006
 113              		.text
 114              		.section	.gnu.lto_.decls.4172f5b1176412ee,"",%progbits
 115 0000 789CBD5B 		.ascii	"x\234\275[{p\024\307\231\237\231]\355j\221\"dH\034H"
 115      7B7014C7 
 115      999F995D 
 115      ED6A9122 
 115      64481C48 
 116 0014 7CC5E62A 		.ascii	"|\305\346*\271\242r1+\011b\300\271\263Q$a\224\343U\222"
 116      B9A27231 
 116      2B0962C0 
 116      B9B35124 
 116      6194E355 
 117 0029 48E13FAE 		.ascii	"H\341?\256\326\303\356\200\366\254\325\352fG \252\256"
 117      D6C3EE80 
 117      F6ACD5EA 
 117      664720AA 
 117      AE
 118 003a 2A13092B 		.ascii	"*\023\011+\306\306\341)\003\262^\030c\340\214\315\333"
 118      C6C6E129 
 118      03B25E18 
 118      63E08CCD 
 118      DB
 119 004b 3C6C606D 		.ascii	"<l`m\316<\017\361\262y\2108\254\035\2141~\004\0146o"
 119      CE3C0FF1 
 119      B2798838 
 119      AC1D8C31 
 119      7E040C36 
 120 0060 74DDDFCC 		.ascii	"t\335\337\314\354\366\214fv{6\316m\251[=\275\335\277"
 120      ECF68C66 
 120      767B36CE 
 120      6DA95B3D 
 120      BDDDBF
 121 0073 FEBEAF7F 		.ascii	"\376\276\257\177_\277\246\227c8f\016\3130\275\3503\354"
 121      5FBFA697 
 121      6338660E 
 121      CB30BDE8 
 121      33EC
 122 0085 D70C3327 		.ascii	"\327\0143'\233a\320\037\363\030\223\374\270QX\201\302"
 122      9B61D01F 
 122      F31893FC 
ARM GAS  /tmp/ccwm99iu.s 			page 8


 122      B8515881 
 122      C2
 123 0096 108E6186 		.ascii	"\020\216a\206\2420\014\205\021(<\212\302o8\246\317\007"
 123      A2300C85 
 123      11283C8A 
 123      C26F38A6 
 123      CF07
 124 00a8 9775A1B0 		.ascii	"\227u\241\260\037\205u(\274\206\302\036\0246\241\260"
 124      1F857528 
 124      BC86C21E 
 124      1436A1B0 
 125 00b8 1205070A 		.ascii	"\022\005\007\012\373P\330\215\302F\024X\265\016\316"
 125      FB50D88D 
 125      C2461458 
 125      B50ECE
 126 00c7 1F8CF07E 		.ascii	"\037\214\360~\214\302?\030pq\333\254Z\237Q\353\0141"
 126      8CC23F18 
 126      7071DBAC 
 126      5A9F51EB 
 126      0C31
 127 00d9 697BA849 		.ascii	"i{\250I\271\241&\345\206\231\224\033fRn\204I\271\021"
 127      B9A126E5 
 127      8699941B 
 127      66526E84 
 127      49B911
 128 00ec 26E51E35 		.ascii	"&\345\0365)\367\250I\271\337\230\2243\263\341\020\246"
 128      29F7A849 
 128      B9DF9894 
 128      33B3E110 
 128      A6
 129 00fd 43EE8AC7 		.ascii	"C\356\212\307W5\317\033,w5\306z{\037g\036dZd\364\351"
 129      5735CF1B 
 129      2C7735C6 
 129      7A7B1F67 
 129      1E645A64 
 130 0113 6A966556 		.ascii	"j\226eV\3620\317\342\207\370*y\320\262<\206\231\312"
 130      F230CFE2 
 130      87F82A79 
 130      D0B23C86 
 130      99CA
 131 0125 F26C9E07 		.ascii	"\362l\236\007\365\034N\344z\000\366g\314+\262\274 ~"
 131      F51C4EE4 
 131      7A00F667 
 131      CC2BB2BC 
 131      207E
 132 0137 F6C2094E 		.ascii	"\366\302\011N\226\263yv%\353A\235=\232e~\316\254EU\027"
 132      96B37976 
 132      25EB419D 
 132      3D9A657E 
 132      CEAC4555 
 133 014c C872E33F 		.ascii	"\310r\343?\262}[f\350\241;\367\265\373\000z5@\377\027"
 133      B27D5B66 
 133      E8A13BF7 
 133      B5FB007A 
 133      3540FF17 
 134 0160 CBF0ECAB 		.ascii	"\313\360\354\253\354\317U\034\236EP\304\007\236\265"
 134      ECCF551C 
ARM GAS  /tmp/ccwm99iu.s 			page 9


 134      9E4550C4 
 134      079EB5
 135 016f 02180C3D 		.ascii	"\002\030\014=\312\275\352\207\375\235\232\363;&\243"
 135      CABDEA87 
 135      FD9D9AF3 
 135      3B26A3
 136 017e 3AAA945E 		.ascii	":\252\224^MJ\247Z\375e\366AH9\0300r\016\363\034R\033"
 136      4D4AA75A 
 136      FD65F641 
 136      48391830 
 136      720EF31C 
 137 0194 DB70DC81 		.ascii	"\333p\334\201\274\001\314B0\350\230\003I5\307h\000\331"
 137      BC01CC42 
 137      30E89803 
 137      4935C768 
 137      00D9
 138 01a6 49355F3A 		.ascii	"I5_:\324\242Xp\035;\000\301,e\365z\246\205\301r\254"
 138      D4A25870 
 138      1D3B00C1 
 138      2C65F57A 
 138      A685C172 
 139 01bb 4755954A 		.ascii	"GU\225J\000*\307v\005\275J.\243\003\323}~\302t!ic\307"
 139      002AC776 
 139      05BD4A2E 
 139      A303D37D 
 139      7EC27421 
 140 01d2 D7EC60E5 		.ascii	"\327\354`\345\346\\7\323\214e\217?\323\230\246_b;\262"
 140      E65C37D3 
 140      8C658F3F 
 140      D398A65F 
 140      623BB2
 141 01e5 399EDDC4 		.ascii	"9\236\335\304\272\221\260]\006a)@\260@[Qe\235\270\033"
 141      BA91B05D 
 141      06612940 
 141      B0405B51 
 141      659DB81B 
 142 01f9 9D9C929B 		.ascii	"\235\234\222\233B\\\2601\307\274\216\232\304pNO2ow2"
 142      425CB031 
 142      C7BC8E9A 
 142      C4704E4F 
 142      326F7732 
 143 020d 8F258A1E 		.ascii	"\217%\212\036Nfk>\200\037YO2\321\253\247()\032\317\276"
 143      4E666B3E 
 143      801F594F 
 143      32D1ABA7 
 143      28291ACF 
 144 0222 C9FE0CC5 		.ascii	"\311\376\014\305\333X\207i5\2169\007\332c+\233)\252"
 144      DB588769 
 144      358E3907 
 144      DA632B9B 
 144      29AA
 145 0234 2693EDE6 		.ascii	"&\223\355\346%\370\252Z\376\344\365\355\330\362\340"
 145      25F8AA5A 
 145      FEE4F5ED 
 145      D8F2E0
 146 0243 118D54CE 		.ascii	"\021\215T\316v\251G\241\312\036\360\210\217\014\326"
 146      76A947A1 
ARM GAS  /tmp/ccwm99iu.s 			page 10


 146      CA1EF088 
 146      8F0CD6
 147 0252 A707EA6C 		.ascii	"\247\007\352l\356\030\005@\357\002\320g\254\321\267"
 147      EE180540 
 147      EF02D067 
 147      ACD1B7
 148 0261 58836FB1 		.ascii	"X\203o\261z?Ii\3024e9\346\232m\273e\223v\213\277\364"
 148      7A3F4969 
 148      C2346539 
 148      E69A6DBB 
 148      6593768B 
 149 0277 5CCBD0E5 		.ascii	"\\\313\320\345rl\216\303\314\337\274\204\237\304\034"
 149      726C8EC3 
 149      CCDFBC84 
 149      9FC41C
 150 0286 1ADAA8A4 		.ascii	"\032\332\250\244\356\267\216~\360*\333\204F9\236=\000"
 150      EEB78E7E 
 150      F02ADB84 
 150      46399E3D 
 150      00
 151 0297 1EF70E67 		.ascii	"\036\367\016g\352q\326@<{\210\345P|\330\350uW[se\247"
 151      EA71D640 
 151      3C7B88E5 
 151      507CD8E8 
 151      75575B73 
 152 02ad 929FDEEF 		.ascii	"\222\237\336\357n\365t\374P\216\307Xj\307\213o;u\272"
 152      6EF574FC 
 152      508EC758 
 152      6AC78B6F 
 152      3B75BA
 153 02c0 107AAD1B 		.ascii	"\020z\255\033\234\357>\227\221\363\0357:\337\361\346"
 153      9CEF3E97 
 153      91F31D37 
 153      3ADFF1E6 
 154 02d0 FE58EAE3 		.ascii	"\376X\352\343T\3567\327\321\327\375\2268L\335\257\335"
 154      54EE37D7 
 154      D1D7FD96 
 154      384CDDAF 
 154      DD
 155 02e1 A1773F35 		.ascii	"\241w?5{u2\333AdoMf;\211\354\275\311\354,\202\023)\011"
 155      7B7532DB 
 155      41646F4D 
 155      663B89EC 
 155      BDC9EC2C 
 156 02f9 789CF0E1 		.ascii	"x\234\360\341\023\340\303'-|\230gw%z2#\037\216\337\232"
 156      13E0C327 
 156      2D7C9867 
 156      77257A32 
 156      231F8EDF 
 157 030e 7FE122BB 		.ascii	"\177\341\"\273\270I>P`:\370#\232\0214zJ\003\314Mtjl"
 157      B8493E50 
 157      603AF823 
 157      9A11347A 
 157      4A03CC4D 
 158 0325 570FEB35 		.ascii	"W\017\3535a\234\256(\317~\214\324HW\012\227\273`\244"
 158      619CAE28 
 158      CF7E8CD4 
ARM GAS  /tmp/ccwm99iu.s 			page 11


 158      48570A97 
 158      BB60A4
 159 0338 647B0F50 		.ascii	"d{\017P\362\002\025%7\366\264\330\243d\354\352i\026"
 159      F2021525 
 159      37F6B4D8 
 159      A364ECEA 
 159      6916
 160 034a 4D349F02 		.ascii	"M4\237\002\037\273\035\031\361\361\262\221\217g\227"
 160      1FBB1D19 
 160      F1F1B291 
 160      8F6797
 161 0359 021F2F53 		.ascii	"\002\037/S\361\261\207\344\236\232\367\2119\361n\031"
 161      F1B187E4 
 161      9E9AF789 
 161      39F16E19 
 162 0369 884743A5 		.ascii	"\210GC\245\313\004\225>\007*}a9\035<\357d\325\036\310"
 162      CB04953E 
 162      072A7D61 
 162      391D3CEF 
 162      64D51EC8 
 163 037d 6C3AD8DC 		.ascii	"l:\330\334\323\202VcxD~6I$\363\265\2076\037\254\231"
 163      D3825663 
 163      78447E36 
 163      4924F3B5 
 163      87361FAC 
 164 0392 F70B1810 		.ascii	"\367\013\030\020\256\3030\276\330i:\037P\000u6\277="
 164      AEC330BE 
 164      D8693A1F 
 164      50007536 
 164      BF3D
 165 03a4 1A806E00 		.ascii	"\032\200n\000P\233\3238\037\270\015\363\201[?\306\273"
 165      509BD338 
 165      1FB80DF3 
 165      815B3FC6 
 165      BB
 166 03b5 3DC9045E 		.ascii	"=\311\004^;\365g\354\026G\343\202\321|:A\315\314\347"
 166      3BF567EC 
 166      1647E382 
 166      D17C3A41 
 166      CDCCE7
 167 03c8 25CD873C 		.ascii	"%\315\207<\261\373M\366\353FyY\001=}\027\367`\372\336"
 167      B1FB4DF6 
 167      EB467959 
 167      013D7D17 
 167      F760FADE 
 168 03dc 05FA6E76 		.ascii	"\005\372nvfD\337^#}\357(\364\355\245\242\357\273\316"
 168      6644DF5E 
 168      237DEF28 
 168      F4EDA5A2 
 168      EFBBCE
 169 03ef BEF43DEE 		.ascii	"\276\364=\3564\245\357_\234\366\351\333K\320W\3460}"
 169      34A5EF5F 
 169      9CF6E9DB 
 169      4BD057E6 
 169      307D
 170 0401 7FCF59D1 		.ascii	"\177\317Y\321\367&\015}\263M\350K\264\247\264\364\011"
 170      F7260D7D 
ARM GAS  /tmp/ccwm99iu.s 			page 12


 170      B34DE84B 
 170      B4A7B4F4 
 170      09
 171 0412 38CA45F6 		.ascii	"8\312E\366'(\276\006\361\035\024'>\034\323\224e\344"
 171      2728BE06 
 171      F11D1427 
 171      3E1CD394 
 171      65E4
 172 0424 97323E11 		.ascii	"\2272>\021H\311\201\214I\205e\2650\217\2639\311\346"
 172      48C9818C 
 172      498565B5 
 172      308FB339 
 172      C9E6
 173 0436 5E80E60E 		.ascii	"^\200\346\016g\312\254\330\362s\035\366\0343\266g\351"
 173      67CAACD8 
 173      F2731DF6 
 173      1C33B667 
 173      E9
 174 0447 0F30079E 		.ascii	"\0170\007\236\347p\027.\351\243\355u\343\362\212\306"
 174      E770172E 
 174      E9A3ED75 
 174      E3F28AC6 
 175 0457 3F3A69B4 		.ascii	"?:i\2640\353\037\320B\216m>\327\301b-L\246\021\231\325"
 175      30EB1FD0 
 175      428E6D3E 
 175      D7C1622D 
 175      4CA61199 
 176 046c EAE72774 		.ascii	"\352\347't\210\267\177~\351\"\333\010\353\244\005\034"
 176      88B77F7E 
 176      E922DB08 
 176      EBA4051C 
 177 047c 5E27F564 		.ascii	"^'\365d\245]'\351\2018\346c\250\262\2303LJ\337\360^"
 177      A55D27E9 
 177      8138E663 
 177      A8B29833 
 177      4C4ADFF0 
 178 0491 2537DD94 		.ascii	"%7\335\224$\307n|\342\221\027\345\2324e\266\225\332"
 178      24C76E7C 
 178      E29117E5 
 178      9A3465B6 
 178      95DA
 179 04a3 F8D7F8E0 		.ascii	"\370\327\370\340\203\262\234\317\263KA\342\025.\233"
 179      83B29CCF 
 179      B34B41E2 
 179      152E9B
 180 04b2 7B298ED9 		.ascii	"{)\216\331\010UZ\015\022\307[\276=\360\243e\200\334"
 180      08555A0D 
 180      12C75BBE 
 180      3DF0A365 
 180      80DC
 181 04c4 4A217663 		.ascii	"J!vc\354\203\346v\240L\272\025j\227Sk\2764\251\306\206"
 181      EC83E676 
 181      A04CBA15 
 181      6A97536B 
 181      BE34A9C6 
 182 04d9 BFC606C1 		.ascii	"\277\306\006\301h\334\011Z\3340\327\302\032\206cd7\256"
 182      68DC095A 
ARM GAS  /tmp/ccwm99iu.s 			page 13


 182      DC30D7C2 
 182      1A866364 
 182      37AE
 183 04eb F2725F2D 		.ascii	"\362r_-\342?V\264x\231J\213;\252\026<\333\301\345 \330"
 183      E23F56B4 
 183      78994A8B 
 183      3BAA163C 
 183      DBC1E520 
 184 0500 E712B0B4 		.ascii	"\347\022\260\264\216\244\307\273\277/w\001\257\201-"
 184      8EA4C7BB 
 184      BF2F7701 
 184      AF812D
 185 050f B40DE6D5 		.ascii	"\264\015\346\325\201-\336\337fs\272\274z\373\322\340"
 185      812DDEDF 
 185      6673BABC 
 185      7AFBD2E0 
 186 051f 5DA0FE7F 		.ascii	"]\240\376\177\203c~\344\376N\034\3633\032E\254\035\023"
 186      83637EE4 
 186      FE4E1CF3 
 186      331A45AC 
 186      1D13
 187 0531 F5CAB187 		.ascii	"\365\312\261\207vl\222\345\271.\215\237.+E8\346\012"
 187      766C92E5 
 187      B92E8D9F 
 187      2E2B4538 
 187      E60A
 188 0543 34B6DED8 		.ascii	"4\266\336\330\263W{\217=\254\364\354z\252\236\335vx"
 188      B3577B8F 
 188      3DACF4EC 
 188      7AAA9EDD 
 188      7678
 189 0555 291D3F5D 		.ascii	")\035?]Z\363Ah~S6n~\213\261\371{+?{Li~\013U\363\347"
 189      5AF34168 
 189      7E53366E 
 189      7E8BB1F9 
 189      7B2B3F7B 
 190 0570 8F2EE9DB 		.ascii	"\217.\351\333<\317>\366\203\224\335\327{eh'4\262\035"
 190      3CCF3EF6 
 190      8394DDD7 
 190      7B656827 
 190      34B21D
 191 0583 087437DB 		.ascii	"\010t7\333\330}\217\347\220m\3013Q\200c\236\361h\322"
 191      D87D8FE7 
 191      906DC133 
 191      5180639E 
 191      F168D2
 192 0596 67C45FA4 		.ascii	"g\304_\244\346;\217\257\205\236\322d\230k\033QO\342"
 192      E63B8FAF 
 192      859ED264 
 192      986B1B51 
 192      4FE2
 193 05a8 AF8F8247 		.ascii	"\257\217\202G(`/\320\200Y\022\2511v\235\004[h\033L/"
 193      28602FD0 
 193      805912A9 
 193      31769D04 
 193      5B681B4C 
 194 05bd D9B72458 		.ascii	"\331\267$X\013\015X\276\265d7I\260\345\266\301\364\222"
ARM GAS  /tmp/ccwm99iu.s 			page 14


 194      0B0D58BE 
 194      B5643749 
 194      B0E5B6C1 
 194      F492
 195 05cf DD26C1DA 		.ascii	"\335&\301\332i\300\006YKv\227\004[a\033L/\331}\022l"
 195      69C00659 
 195      4B769704 
 195      5B611B4C 
 195      2FD97D12 
 196 05e4 150D98D7 		.ascii	"\025\015\230\327Z\262\005'\010\260\265\266\301\364\222"
 196      5AB20527 
 196      08B0B5B6 
 196      C1F492
 197 05f3 2D22C15E 		.ascii	"-\"\301^\247\001\033j-\331\022\022l\243m0\275d/\222"
 197      A7011B6A 
 197      2DD91212 
 197      6CA36D30 
 197      BD642F92 
 198 0607 605B69C0 		.ascii	"`[i\300\012\254%[F\202\355\260\015\246\227\254\225\004"
 198      0AAC255B 
 198      4682EDB0 
 198      0DA697AC 
 198      9504
 199 0619 DB450336 		.ascii	"\333E\0036\312Z\2626\022\354\035\333`z\3116\220`\357"
 199      CA5AB236 
 199      12EC1DDB 
 199      607AC936 
 199      9060EF
 200 062c D1808DB1 		.ascii	"\321\200\215\261\226l\023\011v\3006\230^\262-$\330a"
 200      966C1309 
 200      76C03698 
 200      5EB22D24 
 200      D861
 201 063e 1AB071D6 		.ascii	"\032\260q\326\222\275I\202u\333\006\323K\266\235\004"
 201      92BD4982 
 201      75DB06D3 
 201      4BB69D04 
 202 064e 3B4E0336 		.ascii	";N\0036\331Z\262\235$\330\373\266\301\364\222\275M\202"
 202      D95AB29D 
 202      24D8FBB6 
 202      C1F492BD 
 202      4D82
 203 0660 9DA6019B 		.ascii	"\235\246\001\233j-\331n\022\354\234m0\275d\307H\260"
 203      6A2DD96E 
 203      12EC9C6D 
 203      30BD64C7 
 203      48B0
 204 0672 F334604F 		.ascii	"\3634`O\231H\226\370\230\325\303\323\364f\216\330\254"
 204      994896F8 
 204      98D5C3D3 
 204      F4668ED8 
 204      AC
 205 0683 7DECD116 		.ascii	"}\354\321\02686\347h&\211q\321cwE\246\323\033\257\223"
 205      3836E768 
 205      268971D1 
 205      637745A6 
 205      D31BAF93 
ARM GAS  /tmp/ccwm99iu.s 			page 15


 206 0697 1FDAA9CE 		.ascii	"\037\332\251\316\363\312b\365\013\032\304\024\023`\353"
 206      F3CA62F5 
 206      0B1AC414 
 206      1360EB
 207 06a6 7E62E57B 		.ascii	"~b\345{\3356\230\201\312\030L\267tJ\234\374\307R\237"
 207      DD369881 
 207      CA184CB7 
 207      744A9CFC 
 207      C7529F
 208 06b9 78E0D772 		.ascii	"x\340\327r\034\361\232`\220yY\236\375\006\016\013\276"
 208      1CF19A60 
 208      9079599E 
 208      FD060E0B 
 208      BE
 209 06ca E53C0929 		.ascii	"\345<\011)\224\264\226R\216\014\356z\314\336\360\001"
 209      94B49652 
 209      8E0CEE7A 
 209      CCDEF001 
 210 06da 40EAAA56 		.ascii	"@\352\252VL\270F2\341\367\375(\314\224bj?\277\277\015"
 210      4CB84632 
 210      E1F7FD28 
 210      CC94626A 
 210      3FBFBF0D 
 211 06ee 4E33E95F 		.ascii	"N3\351_\213\\\275}L\335 \334\206\015\302\263\375\214"
 211      8B5CBD7D 
 211      4CDD20DC 
 211      860DC2B3 
 211      FD8C
 212 0700 2BCC3D36 		.ascii	"+\314=6_\214\240u\230Q\013\263c\025\3535\005\342\342"
 212      5F8CA075 
 212      98510BB3 
 212      6315EB35 
 212      05E2E2
 213 0713 99213BDE 		.ascii	"\231!;\336\220\345&\227\035=\016\250z\364\202\036\313"
 213      90E52697 
 213      1D3D0EA8 
 213      7AF4821E 
 213      CB
 214 0724 BF033D56 		.ascii	"\277\003=V\330\326c\250A\217\330P\373z\234Q\365\230"
 214      D8D663A8 
 214      418FD850 
 214      FB7A9C51 
 214      F598
 215 0736 E3C07AAC 		.ascii	"\343\300z\254\375\016\364\330h[\217\002B\017\330\255"
 215      FD0EF4D8 
 215      685B8F02 
 215      420FD8AD 
 216 0746 0D53766B 		.ascii	"\015Svk\003\231E\251wkX\236\271\216\201\206\323\355"
 216      039945A9 
 216      776B589E 
 216      B98E8186 
 216      D3ED
 217 0758 43F8C811 		.ascii	"C\370\310\021gS\034~\034\"\266\2702\335\026\367\212"
 217      67531C7E 
 217      1C22B6B8 
 217      32DD16F7 
 217      8A
ARM GAS  /tmp/ccwm99iu.s 			page 16


 218 0769 6AB17960 		.ascii	"j\261y`\261\355\006\213\321#\235}e\336?\303!\304|\000"
 218      B1ED068B 
 218      D1239D7D 
 218      65DE3FC3 
 218      21C47C00 
 219 077d DA9D3150 		.ascii	"\332\2351P\347\276m\312\273\306E\000\264\257O\037\272"
 219      E7BE6DCA 
 219      BBC64500 
 219      B4AF4F1F 
 219      BA
 220 078e 0C5DE8D2 		.ascii	"\014]\350\322w!z\304-\335L\276\223w)\233o7\363\377^"
 220      77217AC4 
 220      2DDD4CBE 
 220      9377299B 
 220      6F37F3FF 
 221 07a3 8F638E81 		.ascii	"\217c\216\201\370\270\373lNOI\372\374b\207:\265(]t\372"
 221      F8B8FB6C 
 221      4E4F49FA 
 221      FC62873A 
 221      B5285D74 
 222 07b8 6F426C8C 		.ascii	"oBl\214m~^;\244y\034O.\361\277\021\356\370a\373\307"
 222      6D7E5E3B 
 222      A4791C4F 
 222      2EF1BF11 
 222      EEF861FB 
 223 07cd 2AB11F   		.ascii	"*\261\037"
 224 07d0 299C7B09 		.ascii	")\234{\011\024\372\264O\017gt\254r-SE\022\037\216\271"
 224      14FAB44F 
 224      0F6774AC 
 224      722D5345 
 224      121F8EB9 
 225 07e4 4D338578 		.ascii	"M3\205xS\365\326\315a\224G3\211#\310K\203\016\2001V"
 225      53F5D6CD 
 225      61944733 
 225      8923C84B 
 225      830E8031 
 226 07f9 38F0E1DD 		.ascii	"8\360\341\335}\2031(\216x^\310\301U^q\3649\274;6X9c"
 226      7D833128 
 226      8E785EC8 
 226      C1555E71 
 226      F439BC3B 
 227 0811 C15F511C 		.ascii	"\301_Q\034\361\350\016\357Pi\216Sa3\265\247\256\013"
 227      F1E80EEF 
 227      50698E53 
 227      6133B5A7 
 227      AE0B
 228 0823 93F2A1D8 		.ascii	"\223\362\241\330\201W\013\253\035\272C\376\366\034\273"
 228      81570BAB 
 228      1DBA43FE 
 228      F61CBB
 229 0832 B6F792B6 		.ascii	"\266\367\222\266\217\3359\334\306*\362+\207\271\253"
 229      8FDD39DC 
 229      C62AF22B 
 229      87B9AB
 230 0841 8D7863C8 		.ascii	"\215xc\310\225\234\232\264\334\265\312\261E\335\260"
 230      959C9AB4 
 230      DCB5CAB1 
ARM GAS  /tmp/ccwm99iu.s 			page 17


 230      45DDB0
 231 0850 04539C6E 		.ascii	"\004S\234n\023\215p)6\232\035\012\230B\370\355\266\301"
 231      138D7029 
 231      369A1D0A 
 231      9842F8ED 
 231      B6C1
 232 0862 BC3AB05D 		.ascii	"\274:\260]\17749,V\016\310\255\246\225\015\016b\241"
 232      7F34392C 
 232      560EC8AD 
 232      A6950D0E 
 232      62A1
 233 0874 B497A6FD 		.ascii	"\264\227\246\375\024{\323\017\272\333T\246(\347\242"
 233      147BD30F 
 233      BADB54A6 
 233      28E7A2
 234 0883 476CE3E9 		.ascii	"Gl\343\351\365\271\372G\335\210t\206\006n\0145\361\222"
 234      F5B9FA47 
 234      DD887486 
 234      066E0C35 
 234      F192
 235 0895 A7DA8884 		.ascii	"\247\332\210\204\260L]\305\341\367B\253!^\013\361\033"
 235      B04C5DC5 
 235      E1F742AB 
 235      215E0BF1 
 235      1B
 236 08a6 107F05F1 		.ascii	"\020\177\005\361\025\210\277\206\370\026\304\367!nr"
 236      1588BF86 
 236      F816C4F7 
 236      216E72
 237 08b5 E0F85988 		.ascii	"\340\370Y\210\273 ^\013\361k\020\277\016\361z\2107A"
 237      BB205E0B 
 237      F16B10BF 
 237      0EF17A88 
 237      3741
 238 08c7 BC85A4B7 		.ascii	"\274\205\244\267U\277\250\256\2469\246\346u\255\031"
 238      55BFA8AE 
 238      A639A6E6 
 238      75AD19
 239 08d6 1F999F4A 		.ascii	"\037\231\237J\036\231\363\354\032\333`\336T\226l%,\331"
 239      1E99F3EC 
 239      1ADB60DE 
 239      54966C25 
 239      2CD9
 240 08e8 06966C07 		.ascii	"\006\226l\007\313\274\251w\344x\216\366\022'\205\343"
 240      CBBCA977 
 240      E4788EF6 
 240      122785E3 
 241 08f8 59AB106F 		.ascii	"Y\253\020o\373\374\222\033\256\353h\373\237KF\300\264"
 241      FBFC921B 
 241      AEEB68FB 
 241      9F4B46C0 
 241      B4
 242 0909 DB33BD4D 		.ascii	"\3333\275M\356\013\206\333\026\312\033*\253>y\213\364"
 242      EE0B86DB 
 242      16CA1B2A 
 242      AB3E798B 
 242      F4
ARM GAS  /tmp/ccwm99iu.s 			page 18


 243 091a 952BB6DB 		.ascii	"\225+\266\333Ni\302\305\204\011[\300\204/\202\011\267"
 243      4E69C2C5 
 243      84095BC0 
 243      842F8209 
 243      B7
 244 092b 03657692 		.ascii	"\003ev\222\206\344\331%\234\341\256\211\376uY\212\306"
 244      86E4D925 
 244      9CE1AE89 
 244      FE75598A 
 244      C6
 245 093c 13AFB8BF 		.ascii	"\023\257\270\2779er\331DyQ\224bR:\277\347\354C\353`"
 245      396572D9 
 245      44795194 
 245      62523ABF 
 245      E7EC43EB 
 246 0951 EAD8EDC0 		.ascii	"\352\330\355\300\035\260>\3278Cwp\206\243s\003\2219"
 246      1DB03ED7 
 246      38437770 
 246      86A37303 
 246      9139
 247 0963 E6DD5C8A 		.ascii	"\346\335\\\212\327\217)\3661\267\346\3378\30565\311"
 247      D78F29F6 
 247      31B7E6DF 
 247      38C53635 
 247      C9
 248 0974 6B0AD495 		.ascii	"k\012\324\225\205\334,\017]\223\234\004\3635\014.!w"
 248      85DC2C0F 
 248      5D939C04 
 248      F3350C2E 
 248      2177
 249 0986 6CABF21A 		.ascii	"l\253\362\032u/\214\262\007\015BS\303\304\317n\377\213"
 249      752F8CB2 
 249      070D4253 
 249      C3C4CF6E 
 249      FF8B
 250 0998 726D6E1F 		.ascii	"rmn\037\000\235\314\030\250\263y\265rM\342 \000\375"
 250      009DCC18 
 250      A8B379B5 
 250      724DE220 
 250      00FD
 251 09aa A98F191D 		.ascii	"\251\217\031\035\206u\216C\277\316qx\222\211\336^\007"
 251      86758E43 
 251      BFCE7178 
 251      9289DE5E 
 251      07
 252 09bb F3772C8C 		.ascii	"\363w,\214\226a\306\016\323i\224n\355\203;\354\236J"
 252      9661C60E 
 252      D369946E 
 252      ED833BEC 
 252      9E4A
 253 09cd 36ED7EC9 		.ascii	"6\355~\311\0274\024\320!\352(\020\273{\016\3062\005"
 253      173414D0 
 253      21EA2810 
 253      BB7B0EC6 
 253      3205
 254 09df EC5B1AB0 		.ascii	"\354[\032\260\024\207\320-\035\235\226o\260\272\322"
 254      1487D02D 
ARM GAS  /tmp/ccwm99iu.s 			page 19


 254      1D9D966F 
 254      B0BAD2
 255 09ee 5EBB8A2F 		.ascii	"^\273\212/\274|\360_\360%\300\364W\257\336w\320]\275"
 255      BC7CF05F 
 255      F025C0F4 
 255      57AFDE77 
 255      D05DBD
 256 0a01 3AE530BE 		.ascii	":\3450\276\345\356\206\253W\247\250Vk7\314\326\000f"
 256      E5EE86AB 
 256      57A7A856 
 256      6B37CCD6 
 256      0066
 257 0a13 37111343 		.ascii	"7\021\023C\306 \202\227_\035|L\271\321\330\003\213\316"
 257      C6208297 
 257      5F1D7C4C 
 257      B9D1D803 
 257      8BCE
 258 0a25 A6BCF437 		.ascii	"\246\274\3647\032u8X\276\017\215\362o>\012\362\177\230"
 258      1A753858 
 258      BE0F8DF2 
 258      6F3E0AF2 
 258      7F98
 259 0a37 5EFE394D 		.ascii	"^\3769M\261m\352\033=p\246\246\224\333\006\236\375\006"
 259      B16DEA1B 
 259      3D70A6A6 
 259      94DB069E 
 259      FD06
 260 0a49 2E88D06C 		.ascii	".\210\320l\002^\004M>\264\277hU\305\332\256\274\221"
 260      025E044D 
 260      3EB4BF68 
 260      55C5DAAE 
 260      BC91
 261 0a5b 8983BF2E 		.ascii	"\211\203\277.\267\015\346\325\201\355$\301:h\300\254"
 261      B70DE6D5 
 261      81ED24C1 
 261      3A68C0AC 
 262 0a6b 263104F6 		.ascii	"&1\004\3666\011\366\262m0\275d\273I\260\3254`Vg\225"
 262      3609F6B2 
 262      6D30BD64 
 262      BB49B0D5 
 262      34605667 
 263 0a80 08EC1809 		.ascii	"\010\354\030\011\266\3166\230\327\214%L\037\222\361"
 263      B6CE3698 
 263      D78C254C 
 263      1F92F1
 264 0a8f EC9F61D7 		.ascii	"\354\237a\327p\036f\312\217!\276\000\361E\210/A|\231"
 264      701E66CA 
 264      8F21BE00 
 264      F145882F 
 264      417C99
 265 0aa2 66D17596 		.ascii	"f\321u\226\234\3407\200\300\2472c\014\032\366\026^\376"
 265      9CE03780 
 265      C0A73263 
 265      0C1AF616 
 265      5EFE
 266 0ab4 E857CAD9 		.ascii	"\350W\312\331\257a\216\305\366\260\222\340+R\202m\266"
 266      AF618EC5 
ARM GAS  /tmp/ccwm99iu.s 			page 20


 266      F6B092E0 
 266      2B52826D 
 266      B6
 267 0ac5 25F09212 		.ascii	"%\360\222\022\304\356t+\347\226\3325\357\267\215x\264"
 267      C4EE742B 
 267      E796DA35 
 267      EFB78D78 
 267      B4
 268 0ad6 17B3B4E5 		.ascii	"\027\263\264\345Rw\316\206\2474\260\275\266\301tw\257"
 268      5277CE86 
 268      A734B0BD 
 268      B6C17477 
 268      AF
 269 0ae7 630B8E12 		.ascii	"c\013\216\022`Gl\203\345\367a\204\302\205\323\300\205"
 269      60476C83 
 269      E5F76184 
 269      C285D3C0 
 269      85
 270 0af8 33D0E75F 		.ascii	"3\320\347_B|\005\342\257!\276\256_\220\276\237g\234"
 270      427C05E2 
 270      AF21BEAE 
 270      5F90BE9F 
 270      679C
 271 0b0a 77953196 		.ascii	"w\2251\226@M\016\306\014-\256U\337\236 \373\366\323"
 271      404D0EC6 
 271      0C2DAE55 
 271      DF9E20FB 
 271      F6D3
 272 0b1c 3CBBB396 		.ascii	"<\273\263\226\256o\321\244\272\377SmR=\001k\261/i\020"
 272      AE6FD1A4 
 272      BAFF536D 
 272      523D016B 
 272      B12F6910 
 273 0b30 53EC44B7 		.ascii	"S\354D\267\374\331\3702\300l\264\347H\331\022\263\306"
 273      FCD9F832 
 273      C06CB4E7 
 273      48D912B3 
 273      C6
 274 0b41 3B4F2AB3 		.ascii	";O*\263\306]\2305\256Q\314\032\234^G\236\3555\316\032"
 274      C65D9835 
 274      AE51CC1A 
 274      9C5E479E 
 274      ED35CE1A 
 275 0b55 B74EC2AC 		.ascii	"\267N\302\254\321K5k\334;\271D\335)*\243M/\210\320\233"
 275      D14B356B 
 275      DC3BB944 
 275      DD292AA3 
 275      4D2F88D0 
 276 0b6a F1707FFF 		.ascii	"\361p\177\377$1t5\365\267\013\346\325\201-8E\200\375"
 276      24317435 
 276      F5B70BE6 
 276      D5812D38 
 276      4580FD
 277 0b7d 81062CC5 		.ascii	"\201\006,\305p\277\210\004\233g\033L/\331\022\022l!"
 277      70BF8804 
 277      9B671B4C 
 277      2FD91212 
ARM GAS  /tmp/ccwm99iu.s 			page 21


 277      6C21
 278 0b8f 0D588AE1 		.ascii	"\015X\212\341\376E\022l\211m0\275d\313H\260e4`V/p\020"
 278      FE45126C 
 278      896D30BD 
 278      64CB48B0 
 278      65346056 
 279 0ba6 582B09D6 		.ascii	"X+\011\326f\033L/Y\033\011\326E\003\346\265\226\254"
 279      661B4C2F 
 279      591B09D6 
 279      4503E6B5 
 279      96AC
 280 0bb8 83047BD5 		.ascii	"\203\004{\3256\230\327\314%\224\017\351Q<+;\341\316"
 280      3698D7CC 
 280      25940FE9 
 280      513C2B3B 
 280      E1CE
 281 0bca AE13CE2B 		.ascii	"\256\023\316+ ~\006\342?@<\027\342\347!~\001\342\371"
 281      207E06E2 
 281      3F403C17 
 281      E2E7217E 
 281      01E2F9
 282 0bdd 102F8478 		.ascii	"\020/\204x\261\223bp\273C\016n\257\365\267;\024\245"
 282      B1936270 
 282      BB430E6E 
 282      AFF5B73B 
 282      14A5
 283 0bef 5424F9F3 		.ascii	"T$\371\363\030\236\375_X\361\035\201\013\274\347!~\016"
 283      189EFD5F 
 283      58F11D81 
 283      0BBCE721 
 283      7E0E
 284 0c01 F6C9F321 		.ascii	"\366\311\363!\336\005\243\361\273\020\037\201\370(\304"
 284      DE05A3F1 
 284      BB101F81 
 284      F828C4
 285 0c10 C721BE09 		.ascii	"\307!\276\011\361m\232\261z\177\362\332/\332\217;\361"
 285      F16D9AB1 
 285      7A7FF2DA 
 285      2FDA8F3B 
 285      F1
 286 0c21 767BBDFD 		.ascii	"v{\275\375k\277\346\352\254'\324\331\000\352l\004Ev"
 286      6BBFE6EA 
 286      AC27D4D9 
 286      00EA6C04 
 286      4576
 287 0c33 43BC8FE6 		.ascii	"C\274\217\346V\362kI\361\324_\014&DN<\253o\264xvJr\313"
 287      56F26B49 
 287      F1D45F0C 
 287      26444E3C 
 287      AB6FB478 
 288 0c4b 8776ECFD 		.ascii	"\207v\354\375\365c\363O\231\225\262\274(\276\252\031"
 288      F563F34F 
 288      9995B2BC 
 288      28BEAA19 
 289 0c5b 6F823805 		.ascii	"o\2028\005\231c\336\202R+\330!\026\353nh_\251*\357\020"
 289      9963DE82 
 289      522BD821 
ARM GAS  /tmp/ccwm99iu.s 			page 22


 289      16EB6E68 
 289      5FA92AEF 
 290 0c70 C6298D73 		.ascii	"\306)\215s\314\2564\325\366\023\325n\375\373 EF\236"
 290      CCAE34D5 
 290      F613D56E 
 290      FDFB2045 
 290      469E
 291 0c82 7D0F7E3A 		.ascii	"}\017~:CT3\274CV5\371'f\025\236F6\376i\362 \345W\242"
 291      435433BC 
 291      435635F9 
 291      2766159E 
 291      4636FE69 
 292 0c9b 4C8A5AAA 		.ascii	"L\212Z\252\241\2269u?Z\305?W\335\020\217\365\004\017"
 292      A1963975 
 292      3F5AC53F 
 292      57DD108F 
 292      F5040F
 293 0cae C857D0C6 		.ascii	"\310W\320\306@\367SU\005\323\312\342]N\335\0174\025"
 293      40F75355 
 293      05D3CAE2 
 293      5D4EDD0F 
 293      3415
 294 0cc0 13A4B1F5 		.ascii	"\023\244\261\365\377\230\331\272Q\276\027\034\247T\347"
 294      FF98D9BA 
 294      51BE171C 
 294      A754E7
 295 0ccf D9566056 		.ascii	"\331V`V\2473\275\235\033\345\315\232\3018\346\030\000"
 295      A733BD9D 
 295      1BE5CD9A 
 295      C138E618 
 295      00
 296 0ce0 13D56C18 		.ascii	"\023\325l\030\314\252\226\252\347JS\203\335V\015\246"
 296      CCAA96AA 
 296      E74A5383 
 296      DD560DA6 
 297 0cf0 D88163CE 		.ascii	"\330\201c\316\230k\326)\0304[C\245\331\007I\315\276"
 297      986BD629 
 297      18345B43 
 297      A5D90749 
 297      CDBE
 298 0d02 04E03519 		.ascii	"\004\3405\031ifUK\325l\255\251f\255\202^\263\233\346"
 298      6966554B 
 298      D56CADA9 
 298      66AD825E 
 298      B39BE6
 299 0d15 9AB51B35 		.ascii	"\232\265\0335{\203J\263\223I\315\346\345\263\372j64"
 299      7B834AB3 
 299      9349CDE6 
 299      E5B3FA6A 
 299      3634
 300 0d27 B3AAA56A 		.ascii	"\263\252\245j\266\336T\263\235\006\315Z\362M5\333j\324"
 300      B6DE54B3 
 300      9D06CD5A 
 300      F24D35DB 
 300      6AD4
 301 0d39 6C0B9566 		.ascii	"l\013\225f\347\222\232\275\016\300[2\322\314\252\226"
 301      E7929ABD 
ARM GAS  /tmp/ccwm99iu.s 			page 23


 301      0EC05B32 
 301      D2CCAA96 
 302 0d49 AAD95673 		.ascii	"\252\331Vs\367\025l\273\357[)\334\267\357\005\030\231"
 302      F7156CBB 
 302      EF5B29DC 
 302      B7EF0518 
 302      99
 303 0d5a E20CAFEB 		.ascii	"\342\014\257\353\354:\374\376}\017\374\270\346-\203"
 303      EC3AFCFE 
 303      7D0FFCB8 
 303      E62D83
 304 0d69 6DA951E2 		.ascii	"m\251Q\342\235\373^U\177@\013@{\015@<\313\031N\0029"
 304      9DFB5E55 
 304      7F400B40 
 304      7B0D403C 
 304      CB194E02 
 305 0d7e FD610787 		.ascii	"\375a\007\207_2\337'\177h\216o\306\364\371\375\016u"
 305      5F32DF27 
 305      7F688E6F 
 305      C6F4F9FD 
 305      0E75
 306 0d90 2D2B03EE 		.ascii	"-+\003\356v\346\350\000u\003\335\021Sj\305W\235[\227"
 306      76E6E800 
 306      7503DD11 
 306      536AC557 
 306      9D5B97
 307 0da3 9C54347A 		.ascii	"\234T4z\355\244\243\027f%n\223c.\000\270u5U2Sz\355L"
 307      EDA4A317 
 307      66256E93 
 307      632E00B8 
 307      75355532 
 308 0dbb 4DAFF7CC 		.ascii	"M\257\367\314\007;\373\364:LK/\345\350\330\012\246;"
 308      073BFBF4 
 308      3A4C4B2F 
 308      E5E8D80A 
 308      A63B
 309 0dcd 95913F33 		.ascii	"\225\221?3\367\337>#\323!*\003\237\306\325\272\301\300"
 309      F7DF3E23 
 309      D3212A03 
 309      9FC6D5BA 
 309      C1C0
 310 0ddf F700D8BA 		.ascii	"\367\000\330\272Zw\012\003\037Jm\340\243z\0033\017\224"
 310      5A770A03 
 310      1F4A6DE0 
 310      A37A0333 
 310      0F94
 311 0df1 8AA19982 		.ascii	"\212\241\231\202\030\365EC#\013\032\012\206\005\230"
 311      18F54543 
 311      230B1A0A 
 311      860598
 312 0e00 9FFAEAA3 		.ascii	"\237\372\352\243\242\217\027\303\017\327Fj\205\207\005"
 312      A28F17C3 
 312      0FD7466A 
 312      858705
 313 0e0f 7E5AC817 		.ascii	"~Z\310\027\252\015\324\324\007\005_T\012\206j\245a\325"
 313      AA0DD4D4 
 313      07055F54 
ARM GAS  /tmp/ccwm99iu.s 			page 24


 313      0A866AA5 
 313      61D5
 314 0e21 8C0BFD1B 		.ascii	"\214\013\375\033\345\227\\OL\234\342-aF\244\250\022"
 314      E5975C4F 
 314      4C9CE22D 
 314      6146A4A8 
 314      12
 315 0e32 E603D5A1 		.ascii	"\346\003\325\241Z\301\347\017\012\323\371\372\032\311"
 315      5AC1E70F 
 315      0AD3F9FA 
 315      1AC9
 316 0e40 2FCDAE13 		.ascii	"/\315\256\023\242\010\"\333\357W@\214\"\240\257*!\345"
 316      A20822DB 
 316      EF57408C 
 316      22A0AF2A 
 316      21E5
 317 0e52 9772D544 		.ascii	"\227r\325DT\342%!\277\262\334?\262`j\201\277|bqIU\371"
 317      54E22521 
 317      BFB2DC3F 
 317      B2606A81 
 317      BF7C6271 
 318 0e69 6FCB7213 		.ascii	"o\313r\023\031\245\343\313\372k\017\025e\305\245\345"
 318      19A5E3CB 
 318      FA6B0F15 
 318      65C5A5E5 
 319 0e79 139FC882 		.ascii	"\023\237\310\202:\356z\245\015\217\337\257\246\262\247"
 319      3AEE7AA5 
 319      0D8FDFAF 
 319      A6B2A7
 320 0e88 F151A138 		.ascii	"\361Q\2418\030\024K}\325\221\260\340\013D\202\263}A"
 320      18144B7D 
 320      D591B0E0 
 320      0B4482B3 
 320      7D41
 321 0e9a 61A60F89 		.ascii	"a\246\017\2119-\024\211\372$\261\276\366i\037JT\363"
 321      392D1489 
 321      FA24B1BE 
 321      F6691F4A 
 321      54F3
 322 0eac 35BEBA88 		.ascii	"5\276\272\210(E}\225U\023\206\027\371\306\217/\365\225"
 322      28457D95 
 322      55138617 
 322      F9C68F2F 
 322      F595
 323 0ebe 1795CC2C 		.ascii	"\027\225\314,\364\205\212\002\376\232\232 \222\324\203"
 323      F4858A02 
 323      FE9A9A20 
 323      92D483
 324 0ecd 3214F18B 		.ascii	"2\024\361\213h\3404\243 \000T\271\037\372\007R\372\245"
 324      68E034A3 
 324      200054B9 
 324      1FFA0752 
 324      FAA5
 325 0edf 7E08C73F 		.ascii	"~\010\307?eb\371\304\362\252l\234\254\254\2324\031c"
 325      6562F9C4 
 325      F2AA6C9C 
 325      ACAC9A34 
ARM GAS  /tmp/ccwm99iu.s 			page 25


 325      1963
 326 0ef1 83364F7E 		.ascii	"\2036O~\017\247\024\235\375US\311\247\212\251Ps\374"
 326      0FA7149D 
 326      FD5553C9 
 326      A78AA950 
 326      73FC
 327 0f03 A4927F2B 		.ascii	"\244\222\177++\315Ax\221\272p$\210\001'M\2360\251\264"
 327      2BCD4178 
 327      91BA7024 
 327      8801274D 
 327      9E30A9B4 
 328 0f17 CC8FBE1D 		.ascii	"\314\217\276\035\250&+'\374zJ\245\277\264\354\267\345"
 328      A8262B27 
 328      FC7A4AA5 
 328      BFB4ECB7 
 328      E5
 329 0f28 25650FE8 		.ascii	"%e\017\350\362\306M\252\254rG\352\374\270j6\266\323"
 329      F2C64DAA 
 329      AC7247EA 
 329      FCB86A36 
 329      B6D3
 330 0f3a F02284A0 		.ascii	"\360\"\204\240\230\014's\0025\221\300\323\376h\235 "
 330      980C2773 
 330      023591C0 
 330      D3FE689D 
 330      20
 331 0f4b 04F35023 		.ascii	"\004\363P#\301ziv`v\240\006\265\223WYU\352/\235R\365"
 331      C17A6976 
 331      6076A006 
 331      B5935759 
 331      55EA2F9D 
 332 0f61 A4BFE4C9 		.ascii	"\244\277\344\311\222\361e\017\214-\256\254\"\236\375"
 332      92F1650F 
 332      8C2DAEAC 
 332      229EFD
 333 0f70 45DF37E6 		.ascii	"E\3377\346\024>\342\037\335\017#\370\001\002kY\022\251"
 333      143EE21F 
 333      DD0F23F8 
 333      01026B59 
 333      12A9
 334 0f82 9D1E9AE1 		.ascii	"\235\036\232\341\012\300?l\225\3515\374\214(\242\227"
 334      0AC03F6C 
 334      95E935FC 
 334      8C28A297 
 335 0f92 208A1131 		.ascii	" \212\0211:<\235iE)a\331@u"
 335      3A3C9D69 
 335      452961D9 
 335      4075
 336 0fa0 586A40B6 		.ascii	"Xj@\266u\207\353%\241\301/e\301\377Q\266\020\242\263"
 336      7587EB25 
 336      A1C12F65 
 336      C1FF51B6 
 336      10A2B3
 337 0fb3 A31A49FB 		.ascii	"\243\032I\373K\325\242\300\007\243\376\377\254\027\352"
 337      4BD5A2C0 
 337      07A3FEFF 
 337      AC17EA
ARM GAS  /tmp/ccwm99iu.s 			page 26


 338 0fc2 91BAF981 		.ascii	"\221\272\371\201j\277.k\204=\344@5fM\266\002\201h\231"
 338      6ABF2E6B 
 338      843DE440 
 338      35664DB6 
 338      02816899 
 339 0fd6 8073D5F9 		.ascii	"\200s\325\371k\205\006\011\375\253\023\205\231\343("
 339      6B850609 
 339      FDAB1385 
 339      99E328
 340 0fe5 50156A16 		.ascii	"P\025j\026WL(\231\320\200J\206\353B5\330\211\236()A"
 340      574C2899 
 340      D0804A86 
 340      EB4235D8 
 340      899E2829 
 341 0ffa C535F9DD 		.ascii	"\3055\371\335R\235"
 341      529D
 342 1000 188AF815 		.ascii	"\030\212\370\025\334P\304\215L\214\314!\215\266\215"
 342      DC50C48D 
 342      4C8CCC21 
 342      8DB68D
 343 100f 5F1D8888 		.ascii	"_\035\210\210\002\002\314\301\331\330q\003R\303\277"
 343      0202CCC1 
 343      D9D87103 
 343      52C3BF
 344 101e 6686E29F 		.ascii	"f\206\342\23792\214\215 \0123\320\220\341\227\034\321"
 344      39328C8D 
 344      200A33D0 
 344      90E1971C 
 344      D1
 345 102f C2475018 		.ascii	"\302GP\030\211\302(\024F;\242E\005(\024\242P\204\302"
 345      89C22814 
 345      463BA245 
 345      052814A2 
 345      5084C2
 346 1042 701446A0 		.ascii	"p\024F\240\360K\024P\271\"T\256\010\225+B\345\206\243"
 346      F04B1450 
 346      B92254AE 
 346      08952B42 
 346      E586A3
 347 1055 72C30B39 		.ascii	"r\303\0139q\004'\376\222\023\037\341\304\221\2348\212"
 347      710427FE 
 347      92131FE1 
 347      C4919C38 
 347      8A
 348 1066 13473BC4 		.ascii	"\023G;\304\302\002\024\012\271\032\021\375\033\236U"
 348      C202140A 
 348      B91A11FD 
 348      1B9E55
 349 1075 E747D2BA 		.ascii	"\347G\322\272\261\205g\011\"\372\037\251\011\012\242"
 349      B1856709 
 349      22FA1FA9 
 349      090AA2
 350 1084 3350CD8B 		.ascii	"3P\315\213\330\354|X\310\226T?D_*\343\206\244\270\021"
 350      D8EC7C58 
 350      C896543F 
 350      445F2AE3 
 350      86A4B811 
ARM GAS  /tmp/ccwm99iu.s 			page 27


 351 1098 7A062EBA 		.ascii	"z\006.\272%Q\230\036\005;\342DV8:\003}\251\272\207\007"
 351      2551981E 
 351      053BE244 
 351      56383A03 
 351      7DA9BA87 
 352 10ad 46329C72 		.ascii	"F2\234r\211\301\331\350\253l\241!$!\263\010\256YRd\332"
 352      89C1D9E8 
 352      AB6CA121 
 352      2421B308 
 352      AE595264 
 353 10c2 7FD4E508 		.ascii	"\177\324\345\0103\205Z)\314G\237\306\234\236\205\023"
 353      33855A29 
 353      CC479FC6 
 353      9C9E8513 
 354 10d2 8E3A7F7D 		.ascii	"\216:\177}\236\306\244\232P\024\215\213\375\011n\341"
 354      9EC6A49A 
 354      50148D8B 
 354      FD096EE1 
 355 10e2 1C4F9D7F 		.ascii	"\034O\235\177\026\037\222B\2653\372!\327\214\316\000"
 355      161F9242 
 355      B533FA21 
 355      D78CCE00 
 356 10f2 BE654112 		.ascii	"\276eA\022e\010uB-\032\214g\240R\210\361\270|?,\033"
 356      65087542 
 356      2D1A8C67 
 356      A05288F1 
 356      B87C3F2C 
 357 1107 5F03FD8C 		.ascii	"_\003\375\2142\353\"\221\032wXa)\372\037\231U+\210\256"
 357      32EB2291 
 357      1A775861 
 357      29FA1F99 
 357      552B88AE 
 358 111b 30B06CA4 		.ascii	"0\260l\244-\322\2522\241.\033\240\362\026\231@\020\205"
 358      2DD2AA32 
 358      A12E1BA0 
 358      F2169940 
 358      1085
 359 112d DA003290 		.ascii	"\332\0002\220K\311\362 \247\345\321\240\212\306W<h "
 359      4BC9F220 
 359      A7E5D1A0 
 359      8AC6573C 
 359      6820
 360 113f 1FD7C60F 		.ascii	"\037\327\306\017\234t\342\257<bC0\314c\263z$-5\326\356"
 360      9C74E2AF 
 360      3C624330 
 360      CC63B37A 
 360      242D35D6 
 361 1154 180CF1D8 		.ascii	"\030\014\361\330\021\015\015h*\012#\213#\034$\327\257"
 361      110D0D68 
 361      2A0A238B 
 361      231C24D7 
 361      AF
 362 1165 D2C1209D 		.ascii	"\322\301 \235}%\023*\313+\021\200Rs\372\210\202\302"
 362      7D25132A 
 362      CB2B1180 
 362      5273FA88 
 362      82C2
ARM GAS  /tmp/ccwm99iu.s 			page 28


 363 1177 064CE801 		.ascii	"\006L\350\001\245\023\212\375\225\250{\371\260\277\012"
 363      A5138AFD 
 363      95A87BF9 
 363      B0BF0A
 364 1186 794DA930 		.ascii	"yM\2510\235+\251pN,\255\252pL.\256pN(\300Qaq\205clI"
 364      9D2BA970 
 364      4E2CADAA 
 364      704C2EAE 
 364      704E28C0 
 365 11a1 852B0A05 		.ascii	"\205+\012\005\235\241\351\001\321\025\212V\207\246K"
 365      9DA1E901 
 365      D1158A56 
 365      87A64B
 366 11b0 9EA85033 		.ascii	"\236\250P3=T\033\024\032\\3\205\200\024\021\007$$\363"
 366      3D541B14 
 366      1A5C3385 
 366      80141107 
 366      2424F3
 367 11c3 2BA5D120 		.ascii	"+\245\321 \204\036\304\006\034K\0159x\274V\033r\224"
 367      841EC406 
 367      1C4B0D39 
 367      78BC561B 
 367      7294
 368 11d5 5414A250 		.ascii	"T\024\242P\344\234T\\Q\210\243\"\256\264\302Q\2112+"
 368      E49C545C 
 368      5188A322 
 368      AEB4C251 
 368      89322B
 369 11e8 2B8A1C25 		.ascii	"+\212\034%%\025YU\025\345\225e\316\261\343\2210\310"
 369      25155955 
 369      15E59565 
 369      CEB1E391 
 369      30C8
 370 11fa C239CA0C 		.ascii	"\3029\312\014\211\330\026\222\330\250+\010\023\217\226"
 370      89D81692 
 370      D8A82B08 
 370      138F96
 371 1209 19952275 		.ascii	"\031\225\"un\034\241\006\276\257\345\011R\205\020\215"
 371      6E1CA106 
 371      BEAFE509 
 371      5285108D 
 372 1219 D4D44BA1 		.ascii	"\324\324K\241Hm?1\221\034\250~_- \256\213e\265\374\264"
 372      486D3F31 
 372      911CA87E 
 372      5F2D20AE 
 372      8B65B5FC 
 373 122e 1A215B79 		.ascii	"\032![y\230T\373\303d\345q\220UR/\242\336\226\276WM"
 373      9854FBC3 
 373      64E57190 
 373      55522FA2 
 373      DE96BE57 
 374 1243 3EB9D5BE 		.ascii	">\271\325\276U\310\217S\017\252\3650\037\252\204p\235"
 374      55C88F53 
 374      0FAAF530 
 374      1FAA8470 
 374      9D
 375 1254 20F252BD 		.ascii	" \362R\275(8%\224\036H|7\256>\034\012\206\244\331\356"
ARM GAS  /tmp/ccwm99iu.s 			page 29


 375      28382594 
 375      1E487C37 
 375      AE3E1C0A 
 375      86A4D9EE 
 376 1268 EAFA30FE 		.ascii	"\352\3720\376\377\177PS\254\347"
 376      FF7F5053 
 376      ACE7
 377              		.text
 378              		.section	.gnu.lto_.symtab.4172f5b1176412ee,"",%progbits
 379 0000 73693730 		.ascii	"si70x0_init\000\000\000\000\000\000\000\000\000\000"
 379      78305F69 
 379      6E697400 
 379      00000000 
 379      00000000 
 380 0015 0000A100 		.ascii	"\000\000\241\000\000\000si70x0_stop\000\000\000\000"
 380      00007369 
 380      37307830 
 380      5F73746F 
 380      70000000 
 381 002a 00000000 		.ascii	"\000\000\000\000\000\000\000\000\037\002\000\000si7"
 381      00000000 
 381      1F020000 
 381      736937
 382 0039 3078305F 		.ascii	"0x0_setResolution\000\000\000\000\000\000\000\000\000"
 382      73657452 
 382      65736F6C 
 382      7574696F 
 382      6E000000 
 383 0053 00000028 		.ascii	"\000\000\000(\002\000\000si70x0_heaterEnable\000\000"
 383      02000073 
 383      69373078 
 383      305F6865 
 383      61746572 
 384 006f 00000000 		.ascii	"\000\000\000\000\000\000\000\000\000\000.\002\000\000"
 384      00000000 
 384      00002E02 
 384      0000
 385 007d 73693730 		.ascii	"si70x0_setHeaterCurrent\000\000\000\000\000\000\000"
 385      78305F73 
 385      65744865 
 385      61746572 
 385      43757272 
 386 009b 00000000 		.ascii	"\000\000\000\000\0004\002\000\000si70x0_readTempera"
 386      00340200 
 386      00736937 
 386      3078305F 
 386      72656164 
 387 00b6 74757265 		.ascii	"ture\000\000\000\000\000\000\000\000\000\000\000\000"
 387      00000000 
 387      00000000 
 387      00000000 
 388 00c6 3A020000 		.ascii	":\002\000\000si70x0_readHumidity\000\000\000\000\000"
 388      73693730 
 388      78305F72 
 388      65616448 
 388      756D6964 
 389 00e2 00000000 		.ascii	"\000\000\000\000\000\000\000J\002\000\000"
ARM GAS  /tmp/ccwm99iu.s 			page 30


 389      0000004A 
 389      020000
 390              		.text
 391              		.section	.gnu.lto_.opts,"",%progbits
 392 0000 272D6D63 		.ascii	"'-mcpu=cortex-m4' '-mfloat-abi=hard' '-mfpu=fpv4-sp"
 392      70753D63 
 392      6F727465 
 392      782D6D34 
 392      2720272D 
 393 0033 2D643136 		.ascii	"-d16' '-mno-thumb-interwork' '-mthumb' '-O2' '-fomi"
 393      2720272D 
 393      6D6E6F2D 
 393      7468756D 
 393      622D696E 
 394 0066 742D6672 		.ascii	"t-frame-pointer' '-falign-functions=16' '-ffunction"
 394      616D652D 
 394      706F696E 
 394      74657227 
 394      20272D66 
 395 0099 2D736563 		.ascii	"-sections' '-fdata-sections' '-fno-common' '-flto' "
 395      74696F6E 
 395      73272027 
 395      2D666461 
 395      74612D73 
 396 00cc 272D6673 		.ascii	"'-fsingle-precision-constant'\000"
 396      696E676C 
 396      652D7072 
 396      65636973 
 396      696F6E2D 
 397              		.text
 398              		.section	.text.si70x0_init,"ax",%progbits
 399              		.align	2
 400              		.p2align 4,,15
 401              		.global	si70x0_init
 402              		.thumb
 403              		.thumb_func
 404              		.type	si70x0_init, %function
 405              	si70x0_init:
 406              		@ args = 0, pretend = 0, frame = 0
 407              		@ frame_needed = 0, uses_anonymous_args = 0
 408              		@ link register save eliminated.
 409 0000 0346     		mov	r3, r0
 410 0002 0020     		movs	r0, #0
 411 0004 5960     		str	r1, [r3, #4]
 412 0006 5A70     		strb	r2, [r3, #1]
 413 0008 1870     		strb	r0, [r3]
 414 000a 7047     		bx	lr
 415              		.size	si70x0_init, .-si70x0_init
 416 000c AFF30080 		.section	.text.si70x0_stop,"ax",%progbits
 417              		.align	2
 418              		.p2align 4,,15
 419              		.global	si70x0_stop
 420              		.thumb
 421              		.thumb_func
 422              		.type	si70x0_stop, %function
 423              	si70x0_stop:
 424              		@ args = 0, pretend = 0, frame = 0
ARM GAS  /tmp/ccwm99iu.s 			page 31


 425              		@ frame_needed = 0, uses_anonymous_args = 0
 426              		@ link register save eliminated.
 427 0000 0020     		movs	r0, #0
 428 0002 7047     		bx	lr
 429              		.size	si70x0_stop, .-si70x0_stop
 430 0004 AFF30080 		.section	.text.si70x0_setResolution,"ax",%progbits
 430      AFF30080 
 430      AFF30080 
 431              		.align	2
 432              		.p2align 4,,15
 433              		.global	si70x0_setResolution
 434              		.thumb
 435              		.thumb_func
 436              		.type	si70x0_setResolution, %function
 437              	si70x0_setResolution:
 438              		@ args = 0, pretend = 0, frame = 0
 439              		@ frame_needed = 0, uses_anonymous_args = 0
 440              		@ link register save eliminated.
 441 0000 0020     		movs	r0, #0
 442 0002 7047     		bx	lr
 443              		.size	si70x0_setResolution, .-si70x0_setResolution
 444 0004 AFF30080 		.section	.text.si70x0_heaterEnable,"ax",%progbits
 444      AFF30080 
 444      AFF30080 
 445              		.align	2
 446              		.p2align 4,,15
 447              		.global	si70x0_heaterEnable
 448              		.thumb
 449              		.thumb_func
 450              		.type	si70x0_heaterEnable, %function
 451              	si70x0_heaterEnable:
 452              		@ args = 0, pretend = 0, frame = 0
 453              		@ frame_needed = 0, uses_anonymous_args = 0
 454              		@ link register save eliminated.
 455 0000 0020     		movs	r0, #0
 456 0002 7047     		bx	lr
 457              		.size	si70x0_heaterEnable, .-si70x0_heaterEnable
 458 0004 AFF30080 		.section	.text.si70x0_setHeaterCurrent,"ax",%progbits
 458      AFF30080 
 458      AFF30080 
 459              		.align	2
 460              		.p2align 4,,15
 461              		.global	si70x0_setHeaterCurrent
 462              		.thumb
 463              		.thumb_func
 464              		.type	si70x0_setHeaterCurrent, %function
 465              	si70x0_setHeaterCurrent:
 466              		@ args = 0, pretend = 0, frame = 0
 467              		@ frame_needed = 0, uses_anonymous_args = 0
 468              		@ link register save eliminated.
 469 0000 0020     		movs	r0, #0
 470 0002 7047     		bx	lr
 471              		.size	si70x0_setHeaterCurrent, .-si70x0_setHeaterCurrent
 472 0004 AFF30080 		.section	.text.si70x0_readTemperature,"ax",%progbits
 472      AFF30080 
 472      AFF30080 
 473              		.align	2
ARM GAS  /tmp/ccwm99iu.s 			page 32


 474              		.p2align 4,,15
 475              		.global	si70x0_readTemperature
 476              		.thumb
 477              		.thumb_func
 478              		.type	si70x0_readTemperature, %function
 479              	si70x0_readTemperature:
 480              		@ args = 0, pretend = 0, frame = 0
 481              		@ frame_needed = 0, uses_anonymous_args = 0
 482              		@ link register save eliminated.
 483 0000 0020     		movs	r0, #0
 484 0002 7047     		bx	lr
 485              		.size	si70x0_readTemperature, .-si70x0_readTemperature
 486 0004 AFF30080 		.section	.text.si70x0_readHumidity,"ax",%progbits
 486      AFF30080 
 486      AFF30080 
 487              		.align	2
 488              		.p2align 4,,15
 489              		.global	si70x0_readHumidity
 490              		.thumb
 491              		.thumb_func
 492              		.type	si70x0_readHumidity, %function
 493              	si70x0_readHumidity:
 494              		@ args = 0, pretend = 0, frame = 0
 495              		@ frame_needed = 0, uses_anonymous_args = 0
 496              		@ link register save eliminated.
 497 0000 0020     		movs	r0, #0
 498 0002 7047     		bx	lr
 499              		.size	si70x0_readHumidity, .-si70x0_readHumidity
 500              		.comm	__gnu_lto_v1,1,1
 501 0004 AFF30080 		.ident	"GCC: (GNU Tools for ARM Embedded Processors) 4.8.4 20140526 (release) [ARM/embedded-4_8-br
 501      AFF30080 
 501      AFF30080 
ARM GAS  /tmp/ccwm99iu.s 			page 33

