ARM GAS  /tmp/ccgiPYAc.s 			page 1


   1              		.syntax unified
   2              		.cpu cortex-m4
   3              		.eabi_attribute 27, 3
   4              		.eabi_attribute 28, 1
   5              		.fpu fpv4-sp-d16
   6              		.eabi_attribute 20, 1
   7              		.eabi_attribute 21, 1
   8              		.eabi_attribute 23, 3
   9              		.eabi_attribute 24, 1
  10              		.eabi_attribute 25, 1
  11              		.eabi_attribute 26, 1
  12              		.eabi_attribute 30, 2
  13              		.eabi_attribute 34, 1
  14              		.eabi_attribute 18, 4
  15              		.thumb
  16              		.file	"si70x0.c"
  17              		.section	.gnu.lto_.jmpfuncs.2514403ec046a787,"",%progbits
  18 0000 789C6D8B 		.ascii	"x\234m\213\355\015\200 \014D\357Z\020Gq$W`\001&t#\303"
  18      ED0D8020 
  18      0C44EF5A 
  18      10477124 
  18      57600126 
  19 0017 5FE3A990 		.ascii	"_\343\251\220h\244I?r}\317`\030\325\326\366\214\024"
  19      68A4493F 
  19      727DCF60 
  19      18D5D6F6 
  19      8C14
  20 0029 023201C2 		.ascii	"\0022\001\3025\312\275\254\250WfrQ\346\366!\364b\354"
  20      35CABDAC 
  20      A8576672 
  20      51E6F621 
  20      F462EC
  21 003c 09485CA0 		.ascii	"\011H\\\240\035|\014cS\305\266D\207# b\362\277\267\277"
  21      1D7C0C63 
  21      53C5B644 
  21      87232062 
  21      F2BFB7BF 
  22 0050 BC2EC848 		.ascii	"\274.\310H\003\264\216Q\234A-\020S"
  22      03B48E51 
  22      9C412D10 
  22      53
  23              		.text
  24              		.section	.gnu.lto_.inline.2514403ec046a787,"",%progbits
  25 0000 789C6362 		.ascii	"x\234cb`b\300\006\236Bi\016 \022`dd`\004\262A*\331\026"
  25      6062C006 
  25      9E42690E 
  25      20126064 
  25      646004B2 
  26 0018 C88335B0 		.ascii	"\310\2035\260\36210\260L\360\003A\240\034;?\026%,\274"
  26      F23130B0 
  26      4CF00341 
  26      A01C3B3F 
  26      16252CBC 
  27 002c 403E4801 		.ascii	"@>H\001\023#\2670L\236\351\002?\\\001\273\000\320\034"
  27      1323B730 
  27      4C9EE902 
  27      3F5C01BB 
ARM GAS  /tmp/ccgiPYAc.s 			page 2


  27      00D01C
  28 003f A07E2060 		.ascii	"\240~ `f`fbD\325\215!\302\212!\302\306,&\0053X\374S"
  28      66606662 
  28      44D58D21 
  28      C28A21C2 
  28      C62C2605 
  29 0057 3D037B93 		.ascii	"=\003{\223\012\272\301\354\314\22220%\262\253\2463b"
  29      0ABAC1EC 
  29      CC923230 
  29      25B2ABA6 
  29      3362
  30 0069 53C30000 		.ascii	"S\303\000\000\354p\0235"
  30      EC701335 
  31              		.text
  32              		.section	.gnu.lto_.pureconst.2514403ec046a787,"",%progbits
  33 0000 789C6362 		.ascii	"x\234cb`b\020d\200\000\016\006\011F\011&\011f\006\026"
  33      60621064 
  33      80000E06 
  33      09460926 
  33      09660616 
  34 0014 06560636 		.ascii	"\006V\0066)v)\000\007v\000\266"
  34      29762900 
  34      077600B6 
  35              		.text
  36              		.section	.gnu.lto_si70x0_init.2514403ec046a787,"",%progbits
  37 0000 789C5D8E 		.ascii	"x\234]\216\275j\002Q\020\205\317\231\335k,#\251\322"
  37      BD6A0251 
  37      1085CF99 
  37      DD6B2C23 
  37      A9D2
  38 0012 A5148464 		.ascii	"\245\024\204d;_ \217` \026\026q\011\313-\322(\204\340"
  38      3B5F208F 
  38      60201616 
  38      7109CB2D 
  38      D22884E0 
  39 0026 165E7FC0 		.ascii	"\026^\177\300\224\326\246\262M\241\017\220\306\027\210"
  39      94D6A6B2 
  39      4DA10F90 
  39      C61788
  40 0035 C1CE34E2 		.ascii	"\301\3164\342sl\243sw\021\304\20133p\347;\367\010\004"
  40      736CA373 
  40      7711C481 
  40      333370E7 
  40      3BF70804 
  41 0049 9775ABDA 		.ascii	"\227u\253\332\251nT\014@\231\256\201AYH\277\200\350"
  41      A96E540C 
  41      4099AE81 
  41      415948BF 
  41      80E8
  42 005b 0BFB4DE6 		.ascii	"\013\373M\346\267KY\355\017\207\305v\234\311\025\371"
  42      B74B59ED 
  42      0F87C576 
  42      9CC915F9 
  43 006b 46B5B344 		.ascii	"F\265\263D\250\033\2156on0vnz\007\3049\322\320\356}"
  43      A81B8D36 
  43      6F6E3076 
  43      6E7A07C4 
ARM GAS  /tmp/ccgiPYAc.s 			page 3


  43      39D2D0EE 
  44 0080 9EF45167 		.ascii	"\236\364Qg\360\213a6\372\371\227\027\316i\220PR\364"
  44      F08B6136 
  44      FAF99717 
  44      CE699050 
  44      52F4
  45 0092 D4A2866F 		.ascii	"\324\242\206o\247\325\262\344\027f\264\224\204|\326"
  45      A7D5B2E4 
  45      1766B494 
  45      847CD6
  46 00a1 19E4FFB6 		.ascii	"\031\344\377\266y\026\370\017\223U\255\340\201\024\231"
  46      7916F80F 
  46      9355ADE0 
  46      811499
  47 00b0 FB74D796 		.ascii	"\373t\327\226a\314\342(\361l\230\320x\334T5`\011\330"
  47      61CCE228 
  47      F16C98D0 
  47      78DC5435 
  47      6009D8
  48 00c3 60B05FCA 		.ascii	"`\260_\312\011*\252\241\200F\362\241+\217\035\373\376"
  48      092AAAA1 
  48      8046F2A1 
  48      2B8F1DFB 
  48      FE
  49 00d4 DAE93E74 		.ascii	"\332\351>tm=\372\210\356c\034\001{W7\365"
  49      6D3DFA88 
  49      EE631C01 
  49      7B5737F5 
  50              		.text
  51              		.section	.gnu.lto_si70x0_stop.2514403ec046a787,"",%progbits
  52 0000 789C5D50 		.ascii	"x\234]P;\212\002A\024\254z=\343\032*F\233\231/\250\231"
  52      3B8A0241 
  52      14AC7A3D 
  52      E31A2A46 
  52      9B992FA8 
  53 0015 17F0080A 		.ascii	"\027\360\010\012n\250\203\014\035\230(\210\354\004\266"
  53      6EA8830C 
  53      1D982888 
  53      EC04B6
  54 0024 3F3034D6 		.ascii	"?04\326hS\003\275\202\027\330]\304\013x\216\331@_\217"
  54      685303BD 
  54      8217D85D 
  54      C40B788E 
  54      D9405F8F 
  55 0038 ACC83EA8 		.ascii	"\254\310>\250~\025T\325+Z \370?\257\212\263\242\244"
  55      7E1554D5 
  55      2B5A20F8 
  55      3FAF8AB3 
  55      A2A4
  56 004a A00165FD 		.ascii	"\240\001e\375\015L\363Bz\002b\"\234\2743\323\036\344"
  56      0D4CF342 
  56      7A026222 
  56      9CBC33D3 
  56      1EE4
  57 005c 78B95EF7 		.ascii	"x\271^\367\351\"5/d\237\032g\211@\031s\312\274(\304"
  57      E922352F 
  57      649F1A67 
ARM GAS  /tmp/ccgiPYAc.s 			page 4


  57      89401973 
  57      CABC28C4 
  58 0070 C2B97519 		.ascii	"\302\271u\031\2102KS_\237\323\242\370m\2760K\347\277"
  58      88324B53 
  58      5F9FD3A2 
  58      F86DBE30 
  58      4BE7BF
  59 0083 27D3E127 		.ascii	"'\323\341'C\304\224\004\037\032\361\206\235\323I,e\213"
  59      43C49404 
  59      1F1AF186 
  59      9DD3492C 
  59      658B
  60 0095 0D2D4D4C 		.ascii	"\015-ML\266u\007\331\335.\237\012\377`y\014\377\374"
  60      B67507D9 
  60      DD2E9F0A 
  60      FF60790C 
  60      FFFC
  61 00a7 B904A95B 		.ascii	"\271\004\251[\271\202e\030\361\256\322\320\230\201\325"
  61      B9826518 
  61      F1AED2D0 
  61      9881D5
  62 00b6 4638810F 		.ascii	"F8\201\017\341\335\334T\221\366\360\337Pl\014\354\250"
  62      E1DDDC54 
  62      91F6F0DF 
  62      506C0CEC 
  62      A8
  63 00c7 37185687 		.ascii	"7\030V\207\266^\033\327*\021nP\3535\251"
  63      B65E1BD7 
  63      2A116E50 
  63      EB35A9
  64              		.text
  65              		.section	.gnu.lto_si70x0_reset.2514403ec046a787,"",%progbits
  66 0000 789C5D51 		.ascii	"x\234]Q=K\003A\020}o\357\303\213\205(\010\"X\210\255"
  66      3D4B0341 
  66      107D6FEF 
  66      C38B8528 
  66      08225888 
  67 0015 A829047F 		.ascii	"\250)\004\177\200\376\204\010\261\2141\204+\322\344"
  67      80FE8408 
  67      B18C3184 
  67      2BD2E4
  68 0024 828841B2 		.ascii	"\202\210A\262\361\003R\311\241M0U\260\322\306\302\306"
  68      F10352C9 
  68      A14D3055 
  68      B0D2C6C2 
  68      C6
  69 0035 32D8ABD8 		.ascii	"2\330\253\330\244Ngag\031$\347\354\255Jt`gv\230\267"
  69      A44E6761 
  69      671924E7 
  69      ECAD4A74 
  69      60677698 
  70 004a EFBD6115 		.ascii	"\357\275a\025\024\376\307\274\234\032\201\005\251t@"
  70      14FEC7BC 
  70      9C1A8105 
  70      A97440
  71 0059 153F03CD 		.ascii	"\025?\003\315@\221\346\002\242\241\330\330\241\201r"
  71      4091E602 
ARM GAS  /tmp/ccgiPYAc.s 			page 5


  71      A2A1D8D8 
  71      A18172
  72 0068 095DDDBB 		.ascii	"\011]\335\273\030\234\365\317\347\364@\307z\224$\014"
  72      189CF5CF 
  72      E7F440C7 
  72      7A94240C 
  73 0078 29A4B344 		.ascii	")\244\263D\221\310K\303 -\212\177U\356To\220$\2377\361"
  73      91C84BC3 
  73      202D8A7F 
  73      55EE546F 
  73      90249F37 
  74 008d 4AE0B042 		.ascii	"J\340\260B\270\010\351\370\222\\\031z8\325:^,\260+\012"
  74      B808E9F8 
  74      925C197A 
  74      38D53A5E 
  74      2CB02B0A 
  75 00a1 304C1239 		.ascii	"0L\0229\311\306\3016\225\251\316\023\216\037\332\375"
  75      C9C6C136 
  75      95A9CE13 
  75      8E1FDAFD 
  76 00b1 A902AFE9 		.ascii	"\251\002\257\351\301B\215\020F\006-\303\341\311\333"
  76      C1428D10 
  76      46062DC3 
  76      E1C9DB
  77 00c0 8763A765 		.ascii	"\207c\247e\272u\034\212\3002n\265\304\245\340\274\016"
  77      BA751C8A 
  77      C0326EB5 
  77      C4A5E0BC 
  77      0E
  78 00d1 AEA4F865 		.ascii	"\256\244\370e:\346\331D\352jw\334\345\013\332:\377C"
  78      3AE6D944 
  78      EA6A77DC 
  78      E50BDA3A 
  78      FF43
  79 00e3 E0D731D4 		.ascii	"\340\3271\324-=\0352(\322\242R\326\241\341;\012\231"
  79      2D3D1D32 
  79      28D2A252 
  79      D6A1E13B 
  79      0A99
  80 00f5 B10E2CDC 		.ascii	"\261\016,\334\032\261\373g\276;\310n\223\306\330\343"
  80      1AB1FB67 
  80      BE3BC86E 
  80      93C6D8E3 
  81 0105 BB1AF7BC 		.ascii	"\273\032\367\274\216{\335\262\000\274\242\331\363~\025"
  81      8E7BDDB2 
  81      00BCA2D9 
  81      F37E15
  82 0114 AD8B9CA8 		.ascii	"\255\213\234\250\311\272\346\237f\266\252\341~\251\032"
  82      C9BAE69F 
  82      66B6AAE1 
  82      7EA91A
  83 0123 AD45E146 		.ascii	"\255E\341F\366 \273ZDP-E\245\332fe\357\013\260v_\015"
  83      F620BB5A 
  83      44502D45 
  83      A5DA6665 
  83      EF0BB076 
  84              		.text
ARM GAS  /tmp/ccgiPYAc.s 			page 6


  85              		.section	.gnu.lto_si70x0_setResolution.2514403ec046a787,"",%progbits
  86 0000 789C6362 		.ascii	"x\234cb`b@\007\222@\034\001\304\302@\314\310\314\300"
  86      60624007 
  86      92401C01 
  86      C4C240CC 
  86      C8CCC0
  87 0013 C834E11C 		.ascii	"\3104\341\034\003C#\007\023##\210\301\300\310P\317\304"
  87      03432307 
  87      13232388 
  87      C1C0C850 
  87      CFC4
  88 0025 581FC908 		.ascii	"X\037\311\010V\273\236\351\300\203\377\377\327]h\275"
  88      56BB9EE9 
  88      C083FFFF 
  88      D75D68BD 
  89 0035 C5063288 		.ascii	"\305\0062\210\225\241\245\241a\202\002\003C2X:\004H"
  89      95A1A5A1 
  89      61820203 
  89      4332583A 
  89      0448
  90 0047 82F48432 		.ascii	"\202\364\20422\201h\346\213\014\215\017^q%2.dde\210"
  90      328168E6 
  90      8B0C8D0F 
  90      5E712532 
  90      2E646465 
  91 005c 60CC6484 		.ascii	"`\314d\204[\031\302\310\010R\0002B\320\245(\263,\265"
  91      5B19C2C8 
  91      08520032 
  91      42D0A528 
  91      B32CB5
  92 006f A858BF38 		.ascii	"\250X\2778\323\334\240\302@/\231\001\000\037\306\036"
  92      D3DCA0C2 
  92      402F9901 
  92      001FC61E 
  93 007f B5       		.ascii	"\265"
  94              		.text
  95              		.section	.gnu.lto_si70x0_heaterEnable.2514403ec046a787,"",%progbits
  96 0000 789C6362 		.ascii	"x\234cb`b@\007\222@\034\001\304\302@\314\310\314\300"
  96      60624007 
  96      92401C01 
  96      C4C240CC 
  96      C8CCC0
  97 0013 C834E11C 		.ascii	"\3104\341\034\003C#\007\023##\210\301\300\310P\317\304"
  97      03432307 
  97      13232388 
  97      C1C0C850 
  97      CFC4
  98 0025 581FC908 		.ascii	"X\037\311\010V\273\236\351\300\203\377\377\327}j}\304"
  98      56BB9EE9 
  98      C083FFFF 
  98      D77D6A7D 
  98      C4
  99 0036 0E328895 		.ascii	"\0162\210\225\241\245\241a\202\002\003C2X:\004H\202"
  99      A1A5A161 
  99      82020343 
  99      32583A04 
  99      4882
ARM GAS  /tmp/ccgiPYAc.s 			page 7


 100 0048 F4843232 		.ascii	"\364\20422\201h\346\213\014\215\017~s%2.dde\210`\314"
 100      8168E68B 
 100      0C8D0F7E 
 100      7325322E 
 100      64646588 
 101 005e 64845B19 		.ascii	"d\204[\031\302\310\010R\0002B\320\245(\263,\265\250"
 101      C2C80852 
 101      003242D0 
 101      A528B32C 
 101      B5A8
 102 0070 58BF38D3 		.ascii	"X\2778\323\334\240\302@/\231\001\0002\244\036\361"
 102      DCA0C240 
 102      2F990100 
 102      32A41EF1 
 103              		.text
 104              		.section	.gnu.lto_si70x0_setHeaterCurrent.2514403ec046a787,"",%progbits
 105 0000 789C6362 		.ascii	"x\234cb`b@\007\222@\034\015\304\302@\314\310\314\300"
 105      60624007 
 105      92401C0D 
 105      C4C240CC 
 105      C8CCC0
 106 0013 C834E11C 		.ascii	"\3104\341\034\003C#\007\023##\210\301\300\310P\317\304"
 106      03432307 
 106      13232388 
 106      C1C0C850 
 106      CFC4
 107 0025 581FC908 		.ascii	"X\037\311\010V\273\236\351\300\203\377\377\327M9\266"
 107      56BB9EE9 
 107      C083FFFF 
 107      D74D39B6 
 108 0035 A0979111 		.ascii	"\240\227\221\021d\024+CKC\303\004\005\006\206d\260\202"
 108      64142B43 
 108      4B43C304 
 108      05068664 
 108      B082
 109 0047 102009D2 		.ascii	"\020 \011\322\025\012\224\004\322\314\027\031\032\037"
 109      150A9404 
 109      D2CC1719 
 109      1A1F
 110 0055 F42C664C 		.ascii	"\364,fLd\\\310\310\312\020\301\230\311\010\2675\204"
 110      645CC8C8 
 110      CA10C198 
 110      C908B735 
 110      84
 111 0066 9111A402 		.ascii	"\221\021\244\002d\206\240KQfYjQ\261~q\246\271A\205\201"
 111      6486A04B 
 111      5166596A 
 111      51B17E71 
 111      A6B94185 
 112 007b 5E320300 		.ascii	"^2\003\000yG\037H"
 112      79471F48 
 113              		.text
 114              		.section	.gnu.lto_si70x0_readTemperature.2514403ec046a787,"",%progbits
 115 0000 789C8D54 		.ascii	"x\234\215TMHTQ\024>\347\276\367\346_\235\031\003\313"
 115      4D485451 
 115      143EE7BE 
 115      F7E65F9D 
ARM GAS  /tmp/ccgiPYAc.s 			page 8


 115      1903CB
 116 0013 A0C4459B 		.ascii	"\240\304E\233J%\203h\027\324\272\225B-\237&\362\012"
 116      4A258368 
 116      17D4BA95 
 116      422D9F26 
 116      F20A
 117 0025 2166A692 		.ascii	"!f\246\222\\x\3071\231Ba\212\026Y\004\212\204Z\324D"
 117      5C78C731 
 117      9942618A 
 117      1659048A 
 117      845AD444 
 118 0039 B319D26A 		.ascii	"\263\031\322j\222\220ZTDB\033\027\2633\012Z\324\316"
 118      92905A54 
 118      44421B17 
 118      B3330A5A 
 118      D4CE
 119 004b A2D739F7 		.ascii	"\242\3279\367\375\314\240A]\230{\337=\347\373\276s\336"
 119      FDCCA041 
 119      5D987BDF 
 119      3DE7FBBE 
 119      73DE
 120 005d 39E78D00 		.ascii	"9\347\215\000\001[\327!\372-\351\000\335t\242\001(\012"
 120      015BD721 
 120      FA2DE900 
 120      DD74A201 
 120      280A
 121 006f EF00B221 		.ascii	"\357\000\262!!\264\265N\220\021}y\017\310\230\206\272"
 121      21B4B54E 
 121      90117D79 
 121      0FC89886 
 121      BA
 122 0080 63D611F9 		.ascii	"c\326\021\371\001\020F\205\246\343\350id\015\243\035"
 122      01104685 
 122      A6E3E869 
 122      640DA31D 
 123 0090 6665A550 		.ascii	"fe\245P\275\262\361\031\263\2622>#\177\3316\242\205"
 123      BDB2F119 
 123      B3B2323E 
 123      237FD936 
 123      A285
 124 00a2 146F0742 		.ascii	"\024o\007B?\302)\272`\\\035bK\016\212{\243\362t5\372"
 124      3FC229BA 
 124      605C1D62 
 124      4B0E8A7B 
 124      A3F27435 
 125 00b7 58E6A56D 		.ascii	"X\346\245m\217Z\250\011h\251\321B\016\015\267\323d\241"
 125      8F5AA809 
 125      68A9D142 
 125      0E0DB7D3 
 125      64A1
 126 00c9 F26C756A 		.ascii	"\362luj\227\234\031+\310\337\024\321B]\300\336\032\263"
 126      979C192B 
 126      C8DF14D1 
 126      425DC0DE 
 126      1AB3
 127 00db CD61EA7F 		.ascii	"\315a\352\177e~\234\230\332)g\262\036\323\020\260\357"
 127      657E9C98 
ARM GAS  /tmp/ccgiPYAc.s 			page 9


 127      DA2967B2 
 127      1ED310B0 
 127      EF
 128 00ec 7F5225E6 		.ascii	"\177R%\346\247\211\311\356\272\230\001\001\035\377\212"
 128      A789C9EE 
 128      BA980101 
 128      1DFF8A
 129 00fb 591495AA 		.ascii	"Y\024\225\252m/\227\306Wv\267\3508\204`\200\205\301"
 129      6D2F97C6 
 129      5776B7E8 
 129      38846080 
 129      85C1
 130 010d 2098780F 		.ascii	" \230x\017\333!D\227P\230\266p\204\267(_c\374\324\300"
 130      DB214497 
 130      5098B670 
 130      84B7285F 
 130      63FCD4C0 
 131 0121 5B23A1E6 		.ascii	"[#\241\346\011\325D\227@\234\267\004oI2/\222\271\231"
 131      09D54497 
 131      409CB704 
 131      6F49322F 
 131      92B999
 132 0134 E4B83606 		.ascii	"\344\2706\006\214Srm&\316\222\321\3049\265\263:pn\264"
 132      8C53726D 
 132      26CE92D1 
 132      C439B5B3 
 132      3A706EB4 
 133 0148 7A68E7E6 		.ascii	"zh\347\346\365\242\340S{\013c\3452u\314\304\007\324"
 133      F5A2E053 
 133      7B0B63E5 
 133      3275CCC4 
 133      07D4
 134 015a 7887C1B9 		.ascii	"x\207\301\271k?\030N\336\315\334\317\311\223\216w\020"
 134      6B3F184E 
 134      DECDDCCF 
 134      C9938E77 
 134      10
 135 016b 8D11B84C 		.ascii	"\215\021\270L)\357\207\373\222V\211p\221;p\233\216\350"
 135      29EF87FB 
 135      92568970 
 135      913B709B 
 135      8EE8
 136 017d 20EA4C8B 		.ascii	" \352L\213\251\027\355\253o\323{\270%\313\232\247\020"
 136      A917EDAB 
 136      6FD37BB8 
 136      25CB9AA7 
 136      10
 137 018e 1C814DEA 		.ascii	"\034\201M\352p\334\302\206~t`Jv\223\005\357\222B\243"
 137      70DCC286 
 137      7E74604A 
 137      769305EF 
 137      9242A3
 138 01a1 9735E39D 		.ascii	"\2275\343\235T\020\\\377\365\200\205M\336\273\325\374"
 138      54105CFF 
 138      F580854D 
 138      DEBBD5FC 
 139 01b1 822A1107 		.ascii	"\202*\021\007x\015\2576^\276X\255\205bg\242\276\001"
ARM GAS  /tmp/ccgiPYAc.s 			page 10


 139      780DAF36 
 139      5EBE58AD 
 139      856267A2 
 139      BE01
 140 01c3 BDA8C15A 		.ascii	"\275\250\301Z'\277\363z\371KU\367\2135\257\004\027U"
 140      27BFF37A 
 140      F94B55F7 
 140      8B35AF04 
 140      1755
 141 01d5 995C614E 		.ascii	"\231\\aN+t\020\016\220\274\023\220\305\302uZ$\362-\367"
 141      2B74100E 
 141      90BC1390 
 141      C5C2755A 
 141      24F22DF7 
 142 01e9 5C98F844 		.ascii	"\\\230\370D\005\013\023\234\215\271\207\232g\212\220"
 142      050B139C 
 142      8DB9879A 
 142      678A90
 143 01f8 55B1420E 		.ascii	"U\261B\016|\275\320\352\271\242\333\224q\213\362w_9"
 143      7CBDD0EA 
 143      B9A2DB94 
 143      718BF277 
 143      5F39
 144 020a 4670A59C 		.ascii	"Fp\245\234\367\225\033\224x\314\205\236\365\314\215"
 144      F7951B94 
 144      78CC859E 
 144      F5CC8D
 145 0219 E451B685 		.ascii	"\344Q\266\205\\q\352\250gm\"\207\342_\363\371q\262\266"
 145      5C71EAA8 
 145      676D2287 
 145      E25FF3F9 
 145      71B2B6
 146 022c C234F5A1 		.ascii	"\3024\365\241p\014\200+++7\327\213<\306\340@s\217\374"
 146      700C802B 
 146      2B2B37D7 
 146      8B3CC6E0 
 146      40738FFC 
 147 0240 F809C2BB 		.ascii	"\370\011\302\273\340\274M\263\356\022x\325\010Ws}\036"
 147      E0BC4DB3 
 147      EE1278D5 
 147      0857737D 
 147      1E
 148 0251 3E491417 		.ascii	">I\024\027\337\345\211O\227\226|\354\330\233\205s\016"
 148      DFE5894F 
 148      97967CEC 
 148      D89B8573 
 148      0E
 149 0262 9646274B 		.ascii	"\226F'K^\203<\203\330\314eH\272\003\221\364\372\245"
 149      5E833C83 
 149      D8CC6548 
 149      BA0391F4 
 149      FAA5
 150 0274 BB43BAF2 		.ascii	"\273C\272\362Ux\023\312%;\014%\231\347\277\026\245X"
 150      557813CA 
 150      253B0C25 
 150      99E7BF16 
 150      A558
ARM GAS  /tmp/ccgiPYAc.s 			page 11


 151 0286 E79CAB73 		.ascii	"\347\234\253sj\344\374\000\331jq\016\375\221pt{h\362"
 151      6AE4FC00 
 151      D96A710E 
 151      FD917074 
 151      7B68F2
 152 0299 48973FEC 		.ascii	"H\227?\354\304\211\224uq \225\356L[G\272\206\273:\372"
 152      C4899475 
 152      712095EE 
 152      4C5B47BA 
 152      86BB3AFA 
 153 02ad 41A48683 		.ascii	"A\244\206\203\231\201\241\363\307\207\316\004\322\031"
 153      9981A1F3 
 153      C787CE04 
 153      D219
 154 02bb 3373211D 		.ascii	"3s!\035L\231\227z\310b(\363\037\303\017/\371"
 154      4C99977A 
 154      C86228F3 
 154      1FC30F2F 
 154      F9
 155              		.text
 156              		.section	.gnu.lto_si70x0_readHumidity.2514403ec046a787,"",%progbits
 157 0000 789C8D54 		.ascii	"x\234\215TMHTQ\024>\347\276yo\306q\324\0315\262\310"
 157      4D485451 
 157      143EE7BE 
 157      796FC671 
 157      D41935B2 
 158 0015 100902FB 		.ascii	"\020\011\002\373\031\027A\264\256\205mZ\210B\265\233"
 158      191741B4 
 158      AE856D5A 
 158      8842B59B 
 159 0025 34A65918 		.ascii	"4\246Y\0302ZI\022\336q\006\034Be0\202\241\220\024\011"
 159      325A4912 
 159      DE71061C 
 159      42653082 
 159      A1901409 
 160 0039 B11F0A5D 		.ascii	"\261\037\012]d\330b\214\300 *\0037\201\201\033MPR\214"
 160      64D8628C 
 160      C0202A03 
 160      3781811B 
 160      4D50528C 
 161 004d 3643F53A 		.ascii	"6C\365:\347\276\367f&-\352\302\334\373\316\371\276\363"
 161      E7BEF766 
 161      262DEAC2 
 161      DCFBCEF9 
 161      BEF3
 162 005f 9D73CF3D 		.ascii	"\235s\317=\214\000\001\333\327y\372yu\200 \235\350\001"
 162      8C0001DB 
 162      D779FA79 
 162      7580209D 
 162      E801
 163 0071 14A97700 		.ascii	"\024\251w\0001\217\020\332B\020\244\327\375b?H\237&"
 163      318F10DA 
 163      4210A4D7 
 163      FD623F48 
 163      9F26
 164 0083 8CFE5D64 		.ascii	"\214\376]d\271\022'\310r\011=y\220,\203w\237\216\206"
 164      B91227C8 
ARM GAS  /tmp/ccgiPYAc.s 			page 12


 164      72093D79 
 164      902C8377 
 164      9F8E86
 165 0096 1562A0DB 		.ascii	"\025b\240\333\372p#\362\007 \364\010\315\245\033n\354"
 165      FA7023F2 
 165      0720F408 
 165      CDA51B6E 
 165      EC
 166 00a7 39879C4B 		.ascii	"9\207\234K\257\205Q\231I--o\254bLf\022#\362\273i\"F"
 166      AF855199 
 166      492D2D6F 
 166      AC624C66 
 166      1223F2BB 
 167 00be 90EAAA44 		.ascii	"\220\352\252DhA8K\006\372\325!\266\325\252b\2072\251"
 167      6841384B 
 167      06FAD521 
 167      B6D5AA62 
 167      8732A9
 168 00d1 B9E2A732 		.ascii	"\271\342\2472)M\263'\202\232\200\335\3710\217\025\206"
 168      294DB327 
 168      829A80DD 
 168      F9308F15 
 168      86
 169 00e2 3BC3642A 		.ascii	";\303d*skn`\217\034\351M\311\237\2241\202.\001\325\371"
 169      736B6E60 
 169      8F1CE94D 
 169      C99F9431 
 169      822E01D5 
 170 00f7 C81A2BD2 		.ascii	"\310\032+\322\365\207\310\241L\272\3177\357$\324\005"
 170      F587C8A1 
 170      4CBACF37 
 170      EF24D405 
 171 0107 1CF89F3A 		.ascii	"\034\370\237:)\341p\337\033\224C2\266i\232e\0214\004"
 171      29E170DF 
 171      1B944332 
 171      B6699A65 
 171      113404
 172 011a D4FD2BDF 		.ascii	"\324\375+\337\023\221Y2\315\365g\211\255\352*\204\020"
 172      13915932 
 172      CDF56789 
 172      ADEA2A84 
 172      10
 173 012b 4E602DE8 		.ascii	"N`-\350\330\206`@\004\335\036\362\334'O\021\031\036"
 173      D8866040 
 173      04DD1EF2 
 173      DC274F11 
 173      191E
 174 013d 2F6D45C5 		.ascii	"/mE\305\274\371\330,\341\257R\"\214\023\241\214\014"
 174      BCF9D82C 
 174      E1AF5222 
 174      8C13A18C 
 174      0C
 175 014e C3CF5B80 		.ascii	"\303\317[\200\267r[\251\2029\225$\307\375\321!A5\326"
 175      B7725BA9 
 175      82399524 
 175      C7FDD121 
 175      4135D6
ARM GAS  /tmp/ccgiPYAc.s 			page 13


 176 0161 84709490 		.ascii	"\204p\224\220\020\216\251\235\325\201k\244\325D;\277"
 176      108EA99D 
 176      D5816BA4 
 176      D5443BBF 
 177 0171 61330A3E 		.ascii	"a3\012>\265\267\320;\235\336Z\305\020>D\335\216\340"
 177      B5B7D03B 
 177      9DDE5AC5 
 177      103E44DD 
 177      8EE0
 178 0183 3B68DF98 		.ascii	";h\337\230Nh6>>x\306B\303ht\303u*\371\020<\220\264\246"
 178      4E68363E 
 178      3E78C642 
 178      C36874C3 
 178      752AF910 
 179 019b 88E7BD0B 		.ascii	"\210\347\275\013w\350(\016\243\316a>u\341\013\205O\365"
 179      77E8280E 
 179      A3CE613E 
 179      75E10B85 
 179      4FF5
 180 01ad 1ED2725A 		.ascii	"\036\322rZs\024<\335\220\245\246\373#X\322\202\026M"
 180      73143CDD 
 180      90A5A6FB 
 180      2358D282 
 180      164D
 181 01bf C9665970 		.ascii	"\311fYp\230\024J\235\252\231o\225\202`\343?\310*s\356"
 181      98144A9D 
 181      AA996F95 
 181      8260E33F 
 181      C82A73EE 
 182 01d3 96C70575 		.ascii	"\226\307\005u\300\017\360\032^}\236\275=\227O\305`\240"
 182      C00FF01A 
 182      5E7D9EBD 
 182      3D974FC5 
 182      60A0
 183 01e5 F0219A51 		.ascii	"\360!\232Q\203\205 \337y1\375uS\344\2325\256\004'T\233"
 183      838520DF 
 183      7931FD75 
 183      53E49A35 
 183      AE042754 
 184 01fa 6C612EAB 		.ascii	"la.\253\350\010\034&y+!\213\031\005Z$\362%~9\204\223"
 184      E8081C26 
 184      792B218B 
 184      19055A24 
 184      F2257E39 
 185 0210 2A9797D8 		.ascii	"*\227\227\330\354\213?\326\034\027\265\304\313A\272"
 185      EC8B3FD6 
 185      1C17B5C4 
 185      CB41BA
 186 021f C7622FCE 		.ascii	"\307b/\316\227;\220o\2070\376M\270$\314=%\341dN\270"
 186      973B906F 
 186      8730FE4D 
 186      B824CC3D 
 186      25E1644E 
 187 0234 546997D8 		.ascii	"Ti\227\330\314\231\301:\007(#Lqo\346\270~\362\252\004"
 187      CC99C13A 
 187      0728234C 
 187      716FE6B8 
ARM GAS  /tmp/ccgiPYAc.s 			page 14


 187      7EF2AA04 
 188 0248 3794727C 		.ascii	"7\224r| \276\202\016\026 XaR\272,4\031\337\353\200\345"
 188      20BE820E 
 188      16205861 
 188      52BA2C34 
 188      19DFEB80 
 189 025d 842B306B 		.ascii	"\204+0k\332\013{T\213\227g\357\365\211\034k{W\250\305"
 189      DA0B7B54 
 189      8B9767EF 
 189      F5891C6B 
 189      7B57A8C5 
 190 0271 2E58AED5 		.ascii	".X\256\325\210\2702;5\347\373\235\330Z@l\"\377d@k\246"
 190      88B8323B 
 190      35E7FB9D 
 190      D85A406C 
 190      22FF6440 
 191 0287 70EB49D6 		.ascii	"p\353I\326\342\033\203\373\034~E\230\207\203\274\247"
 191      E21B83FB 
 191      1C7E4598 
 191      8783BCA7 
 192 0297 2D0F4D59 		.ascii	"-\017MY\214\006@\247v\206\261\222\305\312\355\331\251"
 192      8C0640A7 
 192      7686B192 
 192      C5CAEDD9 
 192      A9
 193 02a8 E0E323A0 		.ascii	"\340\343#\240]\211\326?\323N\351\\\353\317\253\354\224"
 193      5D89D63F 
 193      D34EE95C 
 193      EBCFABEC 
 193      94
 194 02b9 FAA39976 		.ascii	"\372\243\231v\256\313m\317\373\3135\341\014;\267\377"
 194      AECB6DCF 
 194      FBCB35E1 
 194      0C3BB7FF 
 195 02c9 184CC924 		.ascii	"\030L\311$\377S\251\026\024\200c\005\240F\340\007\210"
 195      FF53A916 
 195      14806305 
 195      A046E007 
 195      88
 196 02da 2D7D1AC3 		.ascii	"-}\032\303\334t9\327@\326\345\277\212\300\251h\344\352"
 196      DC7439D7 
 196      40D6E5BF 
 196      8AC0A968 
 196      E4EA
 197 02ec C56847B0 		.ascii	"\305hG\260#r\274\276\253\376h\013\210h\227\036\275t"
 197      2372BCBE 
 197      ABFE680B 
 197      8868971E 
 197      BD74
 198 02fe B2ADD5E8 		.ascii	"\262\255\325\350\350\014u^\351\320\243\241k\215\015"
 198      E80C755E 
 198      E9D0A3A1 
 198      6B8D0D
 199 030d 7A7B4B67 		.ascii	"z{Kgc\303/\315\310>9"
 199      63C32FCD 
 199      C83E39
 200              		.text
ARM GAS  /tmp/ccgiPYAc.s 			page 15


 201              		.section	.gnu.lto_.symbol_nodes.2514403ec046a787,"",%progbits
 202 0000 789C4DC7 		.ascii	"x\234M\307\311\015\203@\020D\321\352\032\314\226t\261"
 202      C90D8340 
 202      1044D1EA 
 202      1ACC9674 
 202      B1
 203 0011 D880E142 		.ascii	"\330\200\341B\004\\\034\012WD\014Db!k\220\351\177\371"
 203      045C1C0A 
 203      57440C44 
 203      62216B90 
 203      E97FF9
 204 0024 7A04B1E1 		.ascii	"z\004\261\341\2125\005\314; -\203\261\241\314\261\245"
 204      8A3505CC 
 204      3B202D83 
 204      B1A1CCB1 
 204      A5
 205 0035 E8F8A482 		.ascii	"\350\370\244\202\343\213J\034;\352\341\330S\251\343"
 205      E38B4A1C 
 205      3BEAE1D8 
 205      53A9E3
 206 0044 406537ED 		.ascii	"@e7\355M\345\221Ue6R\305\255\211*\377\012\310\3619\276"
 206      4DE59155 
 206      653652C5 
 206      AD892AFF 
 206      0AC8F139 
 207 0059 16AC8867 		.ascii	"\026\254\210g\211\365\367\364z\026\217\023\330\364>"
 207      89F5F7F4 
 207      7A168F13 
 207      D8F43E
 208 0068 52       		.ascii	"R"
 209              		.text
 210              		.section	.gnu.lto_.refs.2514403ec046a787,"",%progbits
 211 0000 789C6362 		.ascii	"x\234cb`b`d\200\002\000\000F\000\006"
 211      60626064 
 211      80020000 
 211      460006
 212              		.text
 213              		.section	.gnu.lto_.decls.2514403ec046a787,"",%progbits
 214 0000 789CBD5C 		.ascii	"x\234\275\\yt\024\307\231\357\356\031\035\203dq\305"
 214      797414C7 
 214      99EFEE19 
 214      1D836471 
 214      C5
 215 0011 0E4EFC9E 		.ascii	"\016N\374\236'\273\316\232\227\304\350\200p<\357\332"
 215      27BBCE9A 
 215      97C4E880 
 215      703CEFDA 
 216 0021 802422DE 		.ascii	"\200$\"\336r=I\304\346\355\313\216\033M\203&\226f\224"
 216      723D49C4 
 216      E6EDCB8E 
 216      1B4D8326 
 216      966694
 217 0034 9E1688B7 		.ascii	"\236\026\210\267\177\244\021\226b\260\301\262\004\346"
 217      7FA41196 
 217      62B0C1B2 
 217      04E6
 218 0042 3097632E 		.ascii	"0\227c.\333\230X\3460b\001\017`@\200\315a\314!a\302"
ARM GAS  /tmp/ccgiPYAc.s 			page 16


 218      DB9858E6 
 218      3062010F 
 218      604080CD 
 218      61CC2161 
 219 0057 D80B9823 		.ascii	"\330\013\230#\304\200-s\031i\253\276\356\236\251nu\367"
 219      C4802D73 
 219      1969ABBE 
 219      EE9EA96E 
 219      75F7
 220 0069 544FBC3B 		.ascii	"TO\274;\357UMuM\325\257\276\263\276\252\352\2228\206"
 220      EF554D75 
 220      4DD5AFBE 
 220      B3BEAAEA 
 220      923886
 221 007c 634E730C 		.ascii	"cNs\014\323\205>\225E\014s>\235a<\014\303<\205\222\033"
 221      D3853E95 
 221      450C733E 
 221      9D613C0C 
 221      C33C8592 
 222 0091 A537504A 		.ascii	"\2457PJCi3J\275Q;\374\311@\251\017*?\216\322@\224\206"
 222      4369334A 
 222      BD513BFC 
 222      C940A90F 
 222      2A3F8ED2 
 223 00a8 A13412A5 		.ascii	"\2414\022\245\"\224\306\241\364\014J<J\001\224\202j"
 223      2294C6A1 
 223      F40C4A3C 
 223      4A019482 
 223      6A
 224 00b9 1FF283FB 		.ascii	"\037\362\203\373bL?\247\340?\204\276\037Di\232Z?\031"
 224      624C3FA7 
 224      E03F84BE 
 224      1F44699A 
 224      5A3F19
 225 00cc 7DB3E8FB 		.ascii	"}\263\350\373\247\350\233S\333c<\027*{\321\367?\241"
 225      A7E89B53 
 225      DB633C17 
 225      2A7BD1F7 
 225      3FA1
 226 00de F49801F7 		.ascii	"\364\230\001\367q\002\263\226\325\343NG\351\367\006"
 226      7102B396 
 226      D5E34E47 
 226      E9F706
 227 00ed CCC755FA 		.ascii	"\314\307U\372p9\033e9\006<\314W\206\312w\026J\231\026"
 227      70391B65 
 227      39063CCC 
 227      5786CA77 
 227      164A9916 
 228 0101 D8359C22 		.ascii	"\3305\234\"\227\220\001\177\240\312;\256\033b\300\036"
 228      9790017F 
 228      A0CA3BAE 
 228      1B62C01E 
 229 0111 A6D6632C 		.ascii	"\246\326c,\374a\325:\343g\244I\273\221&\355\212L\332"
 229      FC61D53A 
 229      E367A449 
 229      BB9126ED 
 229      8A4CDA
ARM GAS  /tmp/ccgiPYAc.s 			page 17


 230 0124 1599B4C3 		.ascii	"\025\231\264\303\272\351\213\276gpq\2366\253\375\376"
 230      BAE98BBE 
 230      6770719E 
 230      36ABFDFE 
 231 0134 0BD50D50 		.ascii	"\013\325\015Py\304\3755\335\033\371\234\251\362\232"
 231      79C4FD35 
 231      DD1BF99C 
 231      A9F29A
 232 0143 8A7E1BCC 		.ascii	"\212~\033\314\350y\036\247\362\214\313%(+5\320\360\214"
 232      E8791EA7 
 232      F28CCB25 
 232      282B35D0 
 232      F08C
 233 0155 CDF8DB59 		.ascii	"\315\370\333YeLm|\027\305\370\377a\220\3713\304\370"
 233      654C6D7C 
 233      17C5F8FF 
 233      6190F933 
 233      C4F8
 234 0167 BF43D97F 		.ascii	"\277C\331\177\032\306\357\303\274*\243\217\267\025\015"
 234      1AC6EFC3 
 234      BC2AA38F 
 234      B7150D
 235 0176 FE2CCBB3 		.ascii	"\376,\313\263Y\036\3469(dz\200\226\2373\253d\271!Z\367"
 235      591EE639 
 235      28647A80 
 235      969F33AB 
 235      64B9215A 
 236 018b 12EBE5D9 		.ascii	"\022\353\345\3317\330>\010\250\037\313\374\202y\013"
 236      37D83E08 
 236      A81FCBFC 
 236      82790B
 237 019a 756A90E5 		.ascii	"uj\220\345\332\276\335E\232\020\023Y.\273\032A\361\354"
 237      DABEDD45 
 237      9A101359 
 237      2EBB1A41 
 237      F1EC
 238 01ac 2AF617CA 		.ascii	"*\366\027\312\010rd\207\337\253\3242j\275\311\347g\314"
 238      08726487 
 238      DFABD432 
 238      6ABDC9E7 
 238      67CC
 239 01be 4A3464E4 		.ascii	"J4d\344\330\246\026V\256\317Lc\352\321\223\034\255\253"
 239      D8A61656 
 239      AECF4C63 
 239      EAD1931C 
 239      ADAB
 240 01d0 EDB7283E 		.ascii	"\355\267(>R\2726\022\033\243>\322\222\316\361\354:6"
 240      52BA3612 
 240      1BA33ED2 
 240      92CEF1EC 
 240      3A36
 241 01e2 0D11FF4B 		.ascii	"\015\021\377KV\007O\201\201\351y\007\365\325Q\333\354"
 241      56074F81 
 241      81E97907 
 241      F5D551DB 
 241      EC
 242 01f3 E6945A1B 		.ascii	"\346\224Z\033j]\014\310\375I\026\320\334\236xUA\254"
ARM GAS  /tmp/ccgiPYAc.s 			page 18


 242      6A5D0CC8 
 242      FD4916D0 
 242      DC9E7855 
 242      41AC
 243 0205 8A251A8E 		.ascii	"\212%\032\216\216\325j:\302\217\254'^\350bu\003\220"
 243      8ED56A3A 
 243      C28FAC27 
 243      5EE86275 
 243      0390
 244 0217 74F1EC7A 		.ascii	"t\361\354z\366\347(\177\227u\231v\343\230q\254*v3&\325"
 244      F6E7287F 
 244      97759976 
 244      E39871AC 
 244      2A763326 
 245 022c 627CD82C 		.ascii	"b|\330,\355A\023\372\361o\267b\241{\230\027A`\253\345"
 245      ED4113FA 
 245      F16FB762 
 245      A17B9817 
 245      4160ABE5 
 246 0240 04428FB6 		.ascii	"\004B\217\266\325\277\373KYN\347\331\315,\346h\206^"
 246      D5BFFB4B 
 246      594EE7D9 
 246      CD2CE668 
 246      865E
 247 0252 F0F4384D 		.ascii	"\360\3648Ms\226\017\005\234\255\200\263\205\325\003"
 247      73960F05 
 247      9CAD80B3 
 247      85D503
 248 0261 A9AC1242 		.ascii	"\251\254\022BA\317Z\203\204\002L\320\226c\"\254S\261"
 248      41CF5A83 
 248      84024CD0 
 248      966322AC 
 248      53B1
 249 0273 A593628B 		.ascii	"\245\223b\213\356\2353\377ay\345n6\203\231\203\371]"
 249      EE9D33FF 
 249      6179E56E 
 249      36839983 
 249      F95D
 250 0285 592F17B5 		.ascii	"Y/\027\265f\2318H\304\245\201\015\215\263\336|\370\304"
 250      66993848 
 250      C4A5810D 
 250      8DB3DE7C 
 250      F8C4
 251 0297 1A76962C 		.ascii	"\032v\226,\243\037v\202\353\315\345\364\314'\004\342"
 251      A31F7682 
 251      EBCDE5F4 
 251      CC2704E2 
 252 02a7 D908CBA1 		.ascii	"\331\010\313\241|\227\321\335n,\311\224\335J}b\207\273"
 252      7C97D1DD 
 252      6E2CC994 
 252      DD4A7D62 
 252      87BB
 253 02b9 D3BEFCC7 		.ascii	"\323\276\374\307r4\302R{\\\364\334\247\247rAi\037\201"
 253      7234C252 
 253      7B5CF4DC 
 253      A7A77241 
 253      691F81
ARM GAS  /tmp/ccgiPYAc.s 			page 19


 254 02cc D71DE492 		.ascii	"\327\035\344\222r\273\375F\267;V\337\023S\275\237\312"
 254      72BBFD46 
 254      B73B56DF 
 254      1353BD9F 
 254      CA
 255 02dd F14E70DD 		.ascii	"\361Np\335=/\312\231\272\336eN\357{j\3657\361j\027Q"
 255      3D2FCA99 
 255      BADE654E 
 255      EF7B6AF5 
 255      37F16A17 
 256 02f2 3DD315AB 		.ascii	"=\323\025\253v\023\325\257\304\253S\010\223\260\265"
 256      7613D5AF 
 256      C4AB5308 
 256      93B0B5
 257 0301 BFFD8403 		.ascii	"\277\375\204\003\267\202\003\037\260p`\236\335\030\323"
 257      B782031F 
 257      B070609E 
 257      DD18D3
 258 0310 64521E1C 		.ascii	"dR\036\034m\236w\376\"\3334Kn\31513F\324\204\265\017"
 258      6D9E77FE 
 258      22DB344B 
 258      6ECD3133 
 258      46D484B5 
 259 0325 02911DED 		.ascii	"\002\221\035\355\2547\321\334\316\263\247\021\0334\021"
 259      AC37D1DC 
 259      CEB3A711 
 259      1B3411
 260 0334 A0DD6892 		.ascii	"\240\335h\222\313\332\301$\333\251L\262\271}\2013\223"
 260      CBDAC124 
 260      DBA94CB2 
 260      B97D8133 
 260      93
 261 0345 8CDC3885 		.ascii	"\214\3348\205C\330Y\260\307%\256\244\3541j\264\307\266"
 261      43D859B0 
 261      C725AEA4 
 261      EC316AB4 
 261      C7B6
 262 0357 85608F51 		.ascii	"\205`\217Q*{\\\343\"lO\255kv\231\032\336^\227\336\360"
 262      2A7B5CE3 
 262      226C4FAD 
 262      6B76991A 
 262      DE5E97DE 
 263 036c 684C294A 		.ascii	"hL)J\230\322\027`J_Z\306\202S\300\177{\322\301`c\373"
 263      98D21760 
 263      4A5F5AC6 
 263      8253C07F 
 263      7BD2C160 
 264 0382 0298D5D4 		.ascii	"\002\230\325\324Y\\1\244X[\257\206\340f\210h\260w\027"
 264      595C31A4 
 264      585BAF86 
 264      E0668868 
 264      B07717
 265 0395 5B0B53D9 		.ascii	"[\013S\331\025\230\307\317\271L\003\002\005T\323\234"
 265      1598C7CF 
 265      B94C0302 
 265      0554D39C 
 266 03a5 EDC3606E 		.ascii	"\355\303`n\271\006@\227\\\306\200\220f\010\010i\372"
ARM GAS  /tmp/ccgiPYAc.s 			page 20


 266      B9064097 
 266      5CC68090 
 266      66080869 
 266      FA
 267 03b6 493ECD13 		.ascii	"I>\315\023/\340%~O\306is43\030\005\250#\324L\200^R\200"
 267      2FE0257E 
 267      4FC66973 
 267      34331805 
 267      A823D44C 
 268 03ce C8170F6F 		.ascii	"\310\027\017oao\326\312\213r\350\015\270\251\035\033"
 268      616FD6CA 
 268      8B72E80D 
 268      B8A91D1B 
 269 03de F04D30E0 		.ascii	"\360M0\340\256\344\014\270\303h\300\367\024\003\356"
 269      AEE40CB8 
 269      C368C0F7 
 269      1403EE
 270 03ed A032E079 		.ascii	"\2402\340y\356\356\006\274\314mj\300\177q;7\340\016"
 270      EEEE06BC 
 270      CC6D6AC0 
 270      7F713B37 
 270      E00E
 271 03ff C280BF03 		.ascii	"\302\200\277\003\003\276ei\300\037\271)\0148\335\304"
 271      03BE6569 
 271      C01FB929 
 271      0C38DDC4 
 272 040f 8089F194 		.ascii	"\200\211\361\224\221\316\300H\237\263?C\371e\310o\240"
 272      91CEC048 
 272      9FB33F43 
 272      F965C86F 
 272      A0
 273 0420 3CF6E198 		.ascii	"<\366\341\230#n\243})3\024\201\024\237\312\030;,3S\301"
 273      236EA37D 
 273      29331481 
 273      149FCA18 
 273      3B2C3353 
 274 0435 1D4EB219 		.ascii	"\035N\262\031\361\341\332`\270]\311ZVd\361\231\345\316"
 274      F1E1DA60 
 274      B85DC95A 
 274      5664F199 
 274      E5CE
 275 0447 5C33F2E1 		.ascii	"\\3\362\341\302\007\261\015\314\344\260\012\243\335"
 275      C207B10D 
 275      CCE4B00A 
 275      A3DD
 276 0455 B8BD625C 		.ascii	"\270\275b\\_\321\370\307U\032.\314\364\003\\\310\221"
 276      5FD1F8C7 
 276      551A2ECC 
 276      F4035CC8 
 276      91
 277 0466 8D6796B3 		.ascii	"\215g\226\263\230\013\223@\"\263Z\377^1\036\242'\276"
 277      980B9340 
 277      22B35AFF 
 277      5E311EA2 
 277      27BE
 278 0478 BA74519D 		.ascii	"\272tQ\235^\3529\274RZ\223\222p\245\244\007\342\230"
 278      5EEA39BC 
ARM GAS  /tmp/ccgiPYAc.s 			page 21


 278      525A9392 
 278      70A5A407 
 278      E298
 279 048a 0DD06536 		.ascii	"\015\320e6g\010K\035\274W\251M\024\224\344\310\255\013"
 279      67084B1D 
 279      BC57A94D 
 279      1494E4C8 
 279      AD0B
 280 049c 1EB931D3 		.ascii	"\036\2711\323d\250\341$\313\332\214x5\372\360\001Y\356"
 280      64A8E124 
 280      CBDA8C78 
 280      35FAF001 
 280      59EE
 281 04ae C5B37381 		.ascii	"\305\263s\201\342k\346\024\257\034n\205\3031\367\241"
 281      E26BE614 
 281      AF1C6E85 
 281      C331F7A1 
 282 04be 4B8381E2 		.ascii	"K\203\201\342\350\216\233\255?Y\004\310\015\024d\327"
 282      E88E9BAD 
 282      3F5904C8 
 282      0D1464D7 
 283 04ce 464ED42F 		.ascii	"FN\324/\243Z\243\256tk\303\027\304\3318}5\322\017f\343"
 283      A35AA3AE 
 283      746BC317 
 283      C4D9387D 
 283      35D20F66 
 284 04e3 05C0C59E 		.ascii	"\005\300\305\236\324\204r\327\303p\314\307\320eQw.\242"
 284      D48472D7 
 284      C370CCC7 
 284      D0655177 
 284      2EA2
 285 04f5 3F55B858 		.ascii	"?U\270XD\305\305=\225\013\236\235\317e \330\2231XZG"
 285      44C5C53D 
 285      950B9E9D 
 285      CF6520D8 
 285      9331585A 
 286 050a D2E375EE 		.ascii	"\322\343u\356\313l\3405\260\263\216\301\274:\260\246"
 286      CB6CE035 
 286      B0B38EC1 
 286      BC3AB0A6 
 287 051a FD4B1D06 		.ascii	"\375K\035\006\314\305\267.=\274\003\330_\011\216\371"
 287      CCC5B72E 
 287      3DBC03D8 
 287      5F098EF9 
 288 052a 6EDA0FE2 		.ascii	"n\332\017\342\230\233\323(\030\261vL\244\225\243\217"
 288      989BD328 
 288      18B1764C 
 288      A495A38F 
 289 053a B4BC2FCB 		.ascii	"\264\274/\313\263S5\373L\265b\204c\266\303`\253\215"
 289      B35335FB 
 289      4CB56284 
 289      63B6C360 
 289      AB8D
 290 054c 9A5DDC79 		.ascii	"\232]\334y\364\011E\263\253\2514\373\301\241\205t\366"
 290      F40945B3 
 290      ABA934FB 
 290      C1A18574 
ARM GAS  /tmp/ccgiPYAc.s 			page 22


 290      F6
 291 055d 99AA0DEF 		.ascii	"\231\252\015\357\207\341;a\370\267\215\303o\376\363"
 291      87E13B61 
 291      F8B78DC3 
 291      6FFEF3
 292 056c E5A794E1 		.ascii	"\345\247\224\341\337\246\032\376\334\021\223-\034\317"
 292      DFA61AFE 
 292      DC11932D 
 292      1CCF
 293 057a 3EF5A0AD 		.ascii	">\365\240\255\372:\257\367_\001\203l\000\003jM7\252"
 293      FA3AAFF7 
 293      5F01836C 
 293      00036A4D 
 293      37AA
 294 058c EFE90C72 		.ascii	"\357\351\014r,x&\032p\314\261t\215\372\244\354\027\261"
 294      2C78261A 
 294      70CCB174 
 294      8DFAA4EC 
 294      17B1
 295 059e B9EBE9B7 		.ascii	"\271\353\351\267@S\032\015'\034#\352\215\370\346\021"
 295      40531A0D 
 295      271C23EA 
 295      8DF8E611 
 296 05ae F00805AC 		.ascii	"\360\010\005\254\215\006\314\322\220j#\337\222`g\035"
 296      8D06CCD2 
 296      906A23DF 
 296      9260671D 
 297 05be 83E929FB 		.ascii	"\203\351)\373\216\004\373\202\006\254\2275e\267I\260"
 297      8E04FB82 
 297      06AC9735 
 297      65B749B0 
 298 05ce 0B8EC1F4 		.ascii	"\013\216\301\364\224\335%\301.\323\200\365\263\246\354"
 298      94DD25C1 
 298      2ED380F5 
 298      B3A6EC
 299 05dd 7B12EC9A 		.ascii	"{\022\354\232c0=e\235$\330\015\0320\2575e\015\237\022"
 299      63303D65 
 299      9D24D80D 
 299      1A30AF35 
 299      650D9F12 
 300 05f1 601D8EC1 		.ascii	"`\035\216\301\364\2245\222`wh\300\372[S6\237\004\273"
 300      F4943592 
 300      607768C0 
 300      FA5B5336 
 300      9F04BB
 301 0604 EF184C4F 		.ascii	"\357\030LO\331k$\330L\017\005X\2165e\213H\260:\307`"
 301      D96B24D8 
 301      4C0F0558 
 301      8E35658B 
 301      48B03AC7 
 302 0619 7ACA9690 		.ascii	"z\312\226\220`\263i\300\206ZS\266\224\004\233\353\030"
 302      60B369C0 
 302      865A53B6 
 302      94049BEB 
 302      18
 303 062a 4C4FD97B 		.ascii	"LO\331{$\330\2534`\303\255){\237\004\233\357\030LO\331"
 303      24D8AB34 
ARM GAS  /tmp/ccgiPYAc.s 			page 23


 303      60C3AD29 
 303      7B9F049B 
 303      EF184C4F 
 304 063f 26126C21 		.ascii	"&\022l!\015X\2215e[H\260%\216\301\364\224m%\301\226"
 304      0D589135 
 304      655B48B0 
 304      258EC1F4 
 304      946D25C1 
 305 0654 D1804DB0 		.ascii	"\321\200M\260\246l\033\011\266\3221\230\236\262\355"
 305      A66C1B09 
 305      B6D23198 
 305      9EB2ED
 306 0663 24D89B34 		.ascii	"$\330\2334`\317ZS\266\223\004[\353\030LO\331Q\022\354"
 306      60CF5A53 
 306      B693045B 
 306      EB184C4F 
 306      D95112EC 
 307 0677 1D1AB0E7 		.ascii	"\035\032\260\347L(\213}\314\372\3410\375\026Gl\3266"
 307      4C288B7D 
 307      CCFAE130 
 307      FD16476C 
 307      D636
 308 0689 78B4058E 		.ascii	"x\264\005\216\303\030\315\3041\336\3678]\221\351\370"
 308      C318CDC4 
 308      31DEF738 
 308      5D91E9F8 
 309 0699 C6EBE447 		.ascii	"\306\353\344G\266\251q^Y\254n\245A\264\011\200K\366"
 309      B6A9715E 
 309      59AC6EA5 
 309      41B40980 
 309      4BF6
 310 06ab 132BDF88 		.ascii	"\023+\337\210c0\203)c0\335\322)v\364\037\261?\361\300"
 310      63308329 
 310      6330DDD2 
 310      2976F41F 
 310      B13FF1C0 
 311 06bf EF9738E2 		.ascii	"\357\2278\342=A?\363\266<{\225\303[\370\277q\236\030"
 311      3D413FF3 
 311      B63C7B95 
 311      C35BF8BF 
 311      719E18
 312 06d2 154A592B 		.ascii	"\025JY+)G\006\255\036\375\201C\354\223\250\253\225%"
 312      294706AD 
 312      1EFD8143 
 312      EC93A8AB 
 312      9525
 313 06e4 5C262DE1 		.ascii	"\\&-\341\023\0321\331\204\366s\373\227\302y&\375{\221"
 313      131A31D9 
 313      84F673FB 
 313      97C27926 
 313      FD7B91
 314 06f7 C5B78EAA 		.ascii	"\305\267\216\252\033\204\353\260A\370\314c\\anv\370"
 314      1B84EBB0 
 314      41F8CC63 
 314      5C616E76 
 314      F8
 315 0708 6604ADC3 		.ascii	"f\004\255\303\214\\\230\035\253X\257)\220-\236~\264"
ARM GAS  /tmp/ccgiPYAc.s 			page 24


 315      8C5C981D 
 315      AB58AF29 
 315      902D9E7E 
 315      B4
 316 0719 65832CCF 		.ascii	"e\203,\317Ju\302G\253\312G\007\360q\341\007\340\343"
 316      4A75C247 
 316      ABCA4707 
 316      F071E107 
 316      E0E3
 317 072b 9A633EFA 		.ascii	"\232c>\372\033\370\210\364w\316\307i\225\217\273\300"
 317      1BF888F4 
 317      77CEC769 
 317      958FBBC0 
 318 073b 47C70FC0 		.ascii	"G\307\017\300\307}\307|\344\020|\300nm\200\262[\353"
 318      C77DC77C 
 318      E4107CC0 
 318      6E6D80B2 
 318      5BEB
 319 074d CB34DAEF 		.ascii	"\3134\332\357\3260=]\\_\303\371\366A|\344\210\253)\016"
 319      D6303D5D 
 319      5C5FC3F9 
 319      F6417CE4 
 319      88AB290E 
 320 0761 3F0E125B 		.ascii	"?\016\022[\\\231n\213{]\225X\255\013K\354\205\036&G"
 320      5C996E8B 
 320      7B5D9558 
 320      AD0B4BEC 
 320      851E2647 
 321 0775 C254486D 		.ascii	"\302THm\373>jV\217\177\352\000jN\322PM\007?P^7\276\010"
 321      FB3E6A56 
 321      8F7FEA00 
 321      6A4ED250 
 321      4D073F50 
 322 078d 408D3D8C 		.ascii	"@\215=\214ZL5(1U\257D\364\210G\272\215w\334\354\037"
 322      5A4C3528 
 322      3155AF44 
 322      F48847BA 
 322      8D77DCEC 
 323 07a2 D51AFC90 		.ascii	"\325\032\374\220\306\374\277\367\343\230\245@>V\240"
 323      C6FCBFF7 
 323      E398A540 
 323      3E56A0
 324 07b1 C3001537 		.ascii	"\303\000\0257\240_\265\250\301EQ\322\233\377\020bmd"
 324      A05FB5A8 
 324      C14551D2 
 324      9BFF1062 
 324      6D64
 325 07c3 E34BDA31 		.ascii	"\343K\3321\315\3238\274\254\377\007\341\216"
 325      CDD338BC 
 325      ACFF07E1 
 325      8E
 326 07d0 1D727EB0 		.ascii	"\035r~\260\022\371\211bu\257\002C\033\273i8\251\203"
 326      12F98962 
 326      75AF0243 
 326      1BBB6938 
 326      A983
 327 07e2 950F9365 		.ascii	"\225\017\223e$\366\341\230}=(\202\210\327N[\267\007"
ARM GAS  /tmp/ccgiPYAc.s 			page 25


 327      24F6E198 
 327      7D3D2882 
 327      88D74E5B 
 327      B707
 328 07f4 501ECEC4 		.ascii	"P\036\316\304\016!/\365k\005a,t\341\343\273\203\006"
 328      0E212FF5 
 328      6B05612C 
 328      74E1E3BB 
 328      8306
 329 0806 61501CF2 		.ascii	"aP\034\362\264A\227%\256n\307wG\037VNY\360O\024\207"
 329      B4419725 
 329      AE6EC777 
 329      471F564E 
 329      59F04F14 
 330 081b 3CBAE33B 		.ascii	"<\272\343;\236]\312q*l\262\362\324\2510N\037\202v\341"
 330      9E5DCA71 
 330      2A6CB2F2 
 330      D4A9304E 
 330      1F8276E1 
 331 082f F5C23297 		.ascii	"\365\3022\227\356\230\377\262c\331{I\331G\356\035Z\312"
 331      EE98FFB2 
 331      63D97B49 
 331      D947EE1D 
 331      5ACA
 332 0841 2AF42BC7 		.ascii	"*\364+\307\271\337\030\361\206\223k9\265h\271o\225#"
 332      B9DF18F1 
 332      86936B39 
 332      B568B96F 
 332      9523
 333 0853 8D876111 		.ascii	"\215\207a\021\2468]'\015q6[\315\345\012\230b\360/d8"
 333      A6385D27 
 333      0D71365B 
 333      CDE50A98 
 333      62F02F64 
 334 0868 05F3EAC0 		.ascii	"\005\363\352\300v\31439.V\216\310\255\002\313\032\027"
 334      76CC3339 
 334      2E568EC8 
 334      AD02CB1A 
 334      17
 335 0879 B1547A85 		.ascii	"\261Tz\205f|\233\335\351\211\303KUKQNF\027;\306\323"
 335      667C9BDD 
 335      E989C34B 
 335      554B514E 
 335      46173BC6 
 336 088e F373639E 		.ascii	"\363sc\236nFZE\0037\234\332\360\342\347\332\310\010"
 336      6E465A45 
 336      03379CDA 
 336      F0E2E7DA 
 336      C808
 337 08a0 61A1FA3A 		.ascii	"a\241\372:\207\337\014-\203|\005\344\253 ?\017\371E"
 337      87DF0C2D 
 337      837C05E4 
 337      AB203F0F 
 337      F945
 338 08b2 C82F41FE 		.ascii	"\310/A\3765\344\337B~\007\362N\310_sA_\310\337\200\374"
 338      35E4DF42 
 338      7E07F24E 
ARM GAS  /tmp/ccgiPYAc.s 			page 26


 338      C85F7341 
 338      5FC8DF80 
 339 08c7 4DC85743 		.ascii	"M\310WC\276\016\362\267I\363\266\322\213\342j1\307\324"
 339      BE0EF2B7 
 339      49F3B6D2 
 339      8BE26A31 
 339      C7D4
 340 08d9 BCAE21E9 		.ascii	"\274\256!\351C\363\223\361Cs\236]\356\030\314k'\311"
 340      43F393F1 
 340      43739E5D 
 340      EE18CC6B 
 340      27C9
 341 08eb 0642928D 		.ascii	"\006B\222\215 \311&\220\306z\275#\257\317\320^\343\330"
 341      20C92690 
 341      C67ABD23 
 341      AFCFD05E 
 341      E3D8
 342 08fd 389E350B 		.ascii	"8\2365\013\321\317\276\272\224\266X\216\274\340\322"
 342      D1CFBEBA 
 342      94B6588E 
 342      BCE0D2
 343 090c 76409B8C 		.ascii	"v@\233\214\200\0117hz\231t\012\206\033\027\312;*+\235"
 343      80093768 
 343      7A99740A 
 343      861B17CA 
 343      3B2A2B9D 
 344 0920 3493BEB2 		.ascii	"4\223\276\262\335\361\330\266\"\234M\210\360%\020\341"
 344      DDF1D8B6 
 344      229C4D88 
 344      F02510E1 
 345 0930 CB20C20D 		.ascii	"\313 \302\015`2\357\221\202\344\3319\234\341\276\211"
 345      6032EF91 
 345      82E4D939 
 345      9CE1BE89 
 346 0940 FE8599CD 		.ascii	"\376\205\231\315\340\261\227\334\035'M.\234(\257\212"
 346      E0B197DC 
 346      1D274D2E 
 346      9C28AF8A 
 347 0950 6C82D2C2 		.ascii	"l\202\322\302\235m\217\254\207\320\261\311\205\025p"
 347      9D6D8FAC 
 347      87D0B1C9 
 347      851570
 348 095f 2FC318A1 		.ascii	"/\303\030\241\347s\206\303s\203!s\314\274L\212\027\220"
 348      E77386C3 
 348      73832173 
 348      CCBC4C8A 
 348      1790
 349 0971 363B99E6 		.ascii	"6;\231\346y\267N\262\263f\311\353r\324\225\205\\/\367"
 349      79B74EB2 
 349      B366C9EB 
 349      72D49585 
 349      5C2FF7
 350 0984 5F170F82 		.ascii	"_\027\017\202\2754\014.Fwd\263\362\"\265\005f\331\005"
 350      BD340C2E 
 350      467764B3 
 350      F222B505 
 350      66D905
ARM GAS  /tmp/ccgiPYAc.s 			page 27


 351 0997 99A6F71B 		.ascii	"\231\246\367\033\022\303D\333\352?\370\025\254@\267"
 351      12C344DB 
 351      EA3FF815 
 351      AC40B7
 352 09a6 03D08AA4 		.ascii	"\003\320\212\244\201\232\346\254U.J|\010@\3532\215b"
 352      819AE6AC 
 352      552E4A7C 
 352      0840EB32 
 352      8D62
 353 09b8 7419D639 		.ascii	"t\031\3269.\375:\307\345\211\027\272\272\\\314\377a"
 353      2EFD3AC7 
 353      E58917BA 
 353      BA5CCCFF 
 353      61
 354 09c9 63B40C33 		.ascii	"c\264\0143*L\307Q\242\265\017V\330}\325\330\264\033"
 354      2A4CC751 
 354      A2B50F56 
 354      D87DD5D8 
 354      B41B
 355 09db 265B694C 		.ascii	"&[iL@\207\2503\201\310\367g`.S\300v\323\200\331\034"
 355      4087A833 
 355      81C8F767 
 355      602E53C0 
 355      76D380D9 
 356 09f0 432F58BE 		.ascii	"C/X\276\302\362\035\326\312\204W\257\242-\027\017\374"
 356      C2F21DD6 
 356      CA8457AF 
 356      A22D170F 
 356      FC
 357 0a01 2BBE0898 		.ascii	"+\276\010\230\370\372\325A\027\335\365\253\217]\306"
 357      F8FAD541 
 357      17DDF5AB 
 357      8F5DC6
 358 0a10 F7DC87E1 		.ascii	"\367\334\207\341\372\325\307T\253\265[fk\000\263\333"
 358      FAD5C754 
 358      ABB55B66 
 358      6B00B3DB 
 359 0a20 88B129A3 		.ascii	"\210\261)\243_\234\231SW\016<\245\334j<\012\213\316"
 359      5F9C9953 
 359      570E3CA5 
 359      DC6A3C0A 
 359      8BCE
 360 0a32 230F24BE 		.ascii	"#\017$\276\325\250\303\301\364\0357\322\277\361\010"
 360      D5A8C3C1 
 360      F41D37D2 
 360      BFF108
 361 0a41 D07F3C31 		.ascii	"\320\177<1\375/\314\212|\240\276\323\003g\232e\273m"
 361      FD2FCC8A 
 361      7CA0BED3 
 361      03679A65 
 361      BB6D
 362 0a53 E0D9AB70 		.ascii	"\340\331\253pE\204f\023\360%pr\334\371\242U%k\253\362"
 362      45846613 
 362      F0257072 
 362      DCF9A255 
 362      256BABF2 
 363 0a67 4EE624F8 		.ascii	"N\346$\370\353\005\307`^\035\3306\022\354\012\015\230"
ARM GAS  /tmp/ccgiPYAc.s 			page 28


 363      EB05C760 
 363      5E1DD836 
 363      12EC0A0D 
 363      98
 364 0a78 55104360 		.ascii	"U\020C`\333I\260\277;\006\323S\266\223\004\373\206\006"
 364      DB49B0BF 
 364      3B06D353 
 364      B69304FB 
 364      8606
 365 0a8a CCEAB412 		.ascii	"\314\352\264\022\201\035%\301n;\006\363\232Y\011\323"
 365      811D25C1 
 365      6E3B06F3 
 365      9A5909D3 
 366 0a9a CDC878F6 		.ascii	"\315\310x\3663\3305\234\200Hy\032\362v\310?\207\374"
 366      33D8359C 
 366      8048791A 
 366      F276C83F 
 366      87FC
 367 0aac AF904769 		.ascii	"\257\220Gi\026]G\310\000\377=\020\374qr\026\203\246"
 367      165D47C8 
 367      00FF3D10 
 367      FC717216 
 367      83A6
 368 0abe BD968B5F 		.ascii	"\275\226\213_<\251\234\376\032b,\226\207\025\005\347"
 368      3CA99CFE 
 368      1A622C96 
 368      871505E7 
 369 0ace 490A6665 		.ascii	"I\012fe9\245\300KR\020\271wX9\271\324.z\277h\304\243"
 369      39A5C04B 
 369      5210B977 
 369      5839B9D4 
 369      2E7ABF68 
 370 0ae4 BD9AA52D 		.ascii	"\275\232\245-\227\016g\274\367\234\006\366\212c0\335"
 370      970E67BC 
 370      F79C06F6 
 370      8A6330DD 
 371 0af4 F5EB48C3 		.ascii	"\365\353H\303\021\002l\261c\260^\335,B\261\205O\300"
 371      11026CB1 
 371      63B05EDD 
 371      2C42B185 
 371      4FC0
 372 0b06 160E83CE 		.ascii	"\026\016\203\316\377\007\362\213\220_\202\374\212~A"
 372      FF07F28B 
 372      905F82FC 
 372      8A7E41
 373 0b15 BA32CB18 		.ascii	"\2722\313\030w\2259\226@\215O\306\014-\256\225n[I\335"
 373      77953996 
 373      408D4FC6 
 373      0C2DAE95 
 373      6E5B49DD 
 374 0b29 6ECC721A 		.ascii	"n\314r\032\265t\272EAu\377WZPm\205\265X\013\015\242"
 374      B574BA45 
 374      4175FF57 
 374      5A506D85 
 374      B5580B0D 
 375 0b3e CD4E74D3 		.ascii	"\315Nt\323_\215\257\003\314f{\216\244-\0265vMR\242\306"
 375      5F8DAF03 
ARM GAS  /tmp/ccgiPYAc.s 			page 29


 375      CC667B8E 
 375      A42D1635 
 375      764D52A2 
 376 0b53 4D881A1F 		.ascii	"M\210\032\037f%\216\032\234\236G\236\3550F\215;\307"
 376      66258E1A 
 376      9C9E479E 
 376      ED30468D 
 376      3BC7
 377 0b65 216A7450 		.ascii	"!jtPE\215\373\307\347\253;Ee\2669\004$t$=\335w\036'"
 377      458DFBC7 
 377      E7AB3B45 
 377      65B63904 
 377      2474243D 
 378 0b7d A6AE238E 		.ascii	"\246\256#\216\301\274:\260\206\223\004\330q\0320\233"
 378      C1BC3AB0 
 378      869304D8 
 378      711A309B 
 379 0b8d E9BE9104 		.ascii	"\351\276\221\004;\355\030LO\331|\022\354,\015\230\315"
 379      3BED184C 
 379      4FD97C12 
 379      EC2C0D98 
 379      CD
 380 0b9e 74FF1A09 		.ascii	"t\377\032\011\026u\014\246\247l\021\011v\236\006\314"
 380      16750CA6 
 380      A76C1109 
 380      769E06CC 
 381 0bae EA150E02 		.ascii	"\352\025\016\002[B\202]r\014\246\247l)\011\3667\032"
 381      5B42825D 
 381      720CA6A7 
 381      6C2909F6 
 381      371A
 382 0bc0 30AF3565 		.ascii	"0\2575e\313I\260\233\216\301\274f.\241|H\217\342\331"
 382      CB49B09B 
 382      8EC1BC66 
 382      2EA17C48 
 382      8FE2D9
 383 0bd3 EF605ABC 		.ascii	"\357`Z\274\005\223\325\035\310\357A~\037\362.\310g\272"
 383      0593D51D 
 383      C8EF417E 
 383      1FF22EC8 
 383      67BA
 384 0be5 713E0BF2 		.ascii	"q>\013\362:\310\377\004\371l7\305\344v\203\234\334n"
 384      3AC8FF04 
 384      F96C37C5 
 384      E476839C 
 384      DC6E
 385 0bf7 399E8A6C 		.ascii	"9\236\212l\031\211\377\211\014\317\356\206\025\337\036"
 385      1989FF89 
 385      0CCFEE86 
 385      15DF1E
 386 0c06 B8C27B02 		.ascii	"\270\302{\002r\031\366\311u\220o\004F\266B\276\007\362"
 386      7219F6C9 
 386      75906F04 
 386      46B642BE 
 386      07F2
 387 0c18 BD90EF87 		.ascii	"\275\220\357\207\374\357\220_\247\231\253w\304/\376"
 387      FCEF905F 
ARM GAS  /tmp/ccgiPYAc.s 			page 30


 387      A799AB77 
 387      C42FFE
 388 0c27 A2FDB81B 		.ascii	"\242\375\270\033o\267W'}\245\374\302\301W\234\336\311"
 388      6FB75727 
 388      7DA5FCC2 
 388      C1579CDE 
 388      C9
 389 0c38 BF1A5DA3 		.ascii	"\277\032]\243\2765\231\013\367\267\357u\213TI\035\205"
 389      BE35990B 
 389      F7B7EF75 
 389      8B54491D 
 389      85
 390 0c49 D7F56413 		.ascii	"\327\365d\023sb{9[7\344jB1k@1kA%\233 \337\016\371\313"
 390      73627B39 
 390      5B37E46A 
 390      42316B40 
 390      316B4125 
 391 0c63 A4F51856 		.ascii	"\244\365\030VB8\370[i\340UwL\003\2172\313\345\225\321"
 391      4238F85B 
 391      69E05577 
 391      4C038F32 
 391      CBE595D1 
 392 0c77 E87FDF6D 		.ascii	"\350\177\337m\233\214\217\177\344\256\256?2\0171\013"
 392      9B8C8F7F 
 392      E4AEAE3F 
 392      320F310B 
 393 0c87 D4D74632 		.ascii	"\324\327F2+Y^\371\303@M\356\207\240\344R\256\301'\212"
 393      2B595EF9 
 393      C3404DEE 
 393      87A0E452 
 393      AEC1278A 
 394 0c9b 70667BBC 		.ascii	"pf{\274\256\273m\377\014\333\365\327\3348\2765\367L"
 394      AEBB6DFF 
 394      0CDBF5D7 
 394      DC38BE35 
 394      F74C
 395 0cad 18DFBA6D 		.ascii	"\030\337\272m\352\026\273\215\177\346\205\377\252\022"
 395      EA16BB8D 
 395      7FE685FF 
 395      AA12
 396 0cbb D7267E7F 		.ascii	"\327&~\177\327\261\012_^\326\376\310s\033\214\216{\232"
 396      D7B10A5F 
 396      5ED6FEC8 
 396      731B8C8E 
 396      7B9A
 397 0ccd 8D6513DA 		.ascii	"\215e\023\332\314u\030'\214g\227\270\341\024\224\306"
 397      CC751827 
 397      8C6797B8 
 397      E11494C6 
 398 0cdd DF17C4D5 		.ascii	"\337\027\304\325\243\0126\3464\261g\365\255*\317N\214"
 398      A30A36E6 
 398      34B167F5 
 398      AD2ACF4E 
 398      8C
 399 0cee 1F3A70CC 		.ascii	"\037:p\314.\203\364\036c\336\224\345F\254\335\335xA"
 399      2E83F41E 
 399      63DE94E5 
ARM GAS  /tmp/ccgiPYAc.s 			page 31


 399      46ACDDDD 
 399      7841
 400 0d00 53A46073 		.ascii	"S\244`s\314'\320\256\321\375\250)\015*\005Jgy\263P\244"
 400      CC27D0AE 
 400      D1FDA829 
 400      0D2A054A 
 400      6779B350 
 401 0d15 0C8F8275 		.ascii	"\014\217\202u\202n@\244\332\255\343w\375\264\025\350"
 401      826E40A4 
 401      DAADE377 
 401      FDB415E8 
 402 0d25 496337C3 		.ascii	"Ic7\303M\006\225\227\177aVcU\317\225\353z\261`u\214"
 402      4D069597 
 402      7F615663 
 402      55CF95EB 
 402      7AB16075 
 403 0d3a DA4B27D3 		.ascii	"\332K'\323\025n\335\337\362*\366\033\271s\273\225E\203"
 403      156EDDDF 
 403      F22AF61B 
 403      B973BB95 
 403      4583
 404 0d4c 7EDFD535 		.ascii	"~\337\3255K\346\214\006\\k\263)X\247\267`\205u\365!"
 404      4BE68C06 
 404      5C6BB329 
 404      58A7B760 
 404      8575F521 
 405 0d60 9DF993F2 		.ascii	"\235\371\223\362\347%\362L\366\017\214)\361\361+\033"
 405      E725F24C 
 405      F60F8C29 
 405      F1F12B1B 
 406 0d70 3CFB8E3B 		.ascii	"<\373\216;\035\365;\327\323\362\302\005n\240\351])k"
 406      1DF53BD7 
 406      D3F2C205 
 406      6EA0E95D 
 406      296B
 407 0d82 25963151 		.ascii	"%\2261Q\346\005Se\312\213\005U\215\310ha\362\\K\245"
 407      E6055365 
 407      CA8B0555 
 407      8DC86861 
 407      F25C4BA5 
 408 0d96 C616AC0F 		.ascii	"\306\026\254\017\205\304\033\000\274\326R\037*\235\252"
 408      85C41B00 
 408      BCD6521F 
 408      2A9DAA
 409 0da5 3E769C9F 		.ascii	">v\234\237P\244\310\220\261\031Le`\203\251v\226\235"
 409      50A4C890 
 409      B1194C65 
 409      6083A976 
 409      969D
 410 0db7 CD6C9819 		.ascii	"\315l\230\031\355\352z\324\201b6\231)\306 \241;\346"
 410      EDEA7AD4 
 410      81623699 
 410      29C620A1 
 410      3BE6
 411 0dc9 12BAEF37 		.ascii	"\022\272\3577Hh\243\275\204b\254\376\245\276\256\227"
 411      4868A3BD 
 411      8462ACFE 
ARM GAS  /tmp/ccgiPYAc.s 			page 32


 411      A5BEAE97 
 412 0dd9 3BCEAB55 		.ascii	";\316\253U7\225\302-\335y}/\032\331)\264\312\327QHp"
 412      3795C22D 
 412      DD797D2F 
 412      1AD929B4 
 412      CAD75148 
 413 0dee C0EA361B 		.ascii	"\300\3526\033\033\264\362\364\372^&\254\327\312\313"
 413      1BB4F2F4 
 413      FA5E26AC 
 413      D7CACB
 414 0dfd 8CC6D142 		.ascii	"\214\306\321Ba\034\265\362\361\270\263\276\016\300-"
 414      611CB5F2 
 414      F1B8B3BE 
 414      0EC02D
 415 0e0c 94CE6A90 		.ascii	"\224\316j\220\230\325h*\243;L%v]\225\230\"\010\216Y"
 415      98D5682A 
 415      A33B4C25 
 415      765D9598 
 415      22088E59 
 416 0e20 63CEDAEB 		.ascii	"c\316\332\353F\326vS\261v,\316\3326\000\336\235\034"
 416      46D67653 
 416      B1762CCE 
 416      DA3600DE 
 416      9D1C
 417 0e32 6B56A3A9 		.ascii	"kV\243\251\254\3551e\255q\237j\370\032o{\314y\333h\344"
 417      ACED3165 
 417      AD719F6A 
 417      F81A6F7B 
 417      CC79DB68 
 418 0e47 AD958AB7 		.ascii	"\255\225\212\267\2668og\000\27059\336\254FSy;`\352\324"
 418      B6386F67 
 418      00B83539 
 418      DEAC4653 
 418      793B60EA 
 419 0e5c 9BF63977 		.ascii	"\233\3669w\352#\266\226>8\303\304\320/\233I\254Qn6J"
 419      EA23B696 
 419      3E38C3C4 
 419      D02F9B49 
 419      AC516E36 
 420 0e71 EC30D52C 		.ascii	"\3540\325,x\002w\033\214c\231\334\233\265\3555\330f"
 420      7802771B 
 420      8C6399DC 
 420      9BB5ED35 
 420      D866
 421 0e83 62B0EAA5 		.ascii	"b\260\352\245r\371\251\251\274\356&!\257\3236\3622\254"
 421      72F9A9A9 
 421      BCEE2621 
 421      AFD336F2 
 421      32AC
 422 0e95 F7B6DBC0 		.ascii	"\367\266\333\300\234q\223/\216\014\002\256\353m*\340"
 422      9C71932F 
 422      8E0C02AE 
 422      EB6D2AE0 
 423 0ea5 6EEE768A 		.ascii	"n\356v\212^\300g`\221\261\030\200\255\273\235\261\233"
 423      5EC06760 
 423      91B11880 
 423      ADBB9DB1 
ARM GAS  /tmp/ccgiPYAc.s 			page 33


 423      9B
 424 0eb6 7BADBAA9 		.ascii	"{\255\272\251\034|\336]\304\321\206\350\336\227\016"
 424      1C7CDE5D 
 424      C4D186E8 
 424      DE970E
 425 0ec5 B12FC22A 		.ascii	"\261/\302*\300\345`\021\373\245\315\"VY\030Z\365<O\277"
 425      C0E56011 
 425      FBA5CD22 
 425      5659185A 
 425      F53C4FBF 
 426 0ed9 508B3DCF 		.ascii	"P\213=\317u\233M\347\1776(A\343\363\222\031\237\221"
 426      759B4DE7 
 426      7F362841 
 426      E3F39219 
 426      9F91
 427 0eeb 739FBF2C 		.ascii	"s\237\277,\263\216\215\351\212\321\230\316\223\316\247"
 427      B38E8DE9 
 427      8AD198CE 
 427      93CEA7
 428 0efa 067D035D 		.ascii	"\006}\003]\315\026t]3\245\353\372y9\335q\364\373\332"
 428      CD16745D 
 428      33A5EBFA 
 428      7939DD71 
 428      F4FBDA
 429 0f0d 962C75AB 		.ascii	"\226,u\253b)N\213\337\015lD,\330\350\320\263aP=6\014"
 429      62294E8B 
 429      DF0D6C44 
 429      2CD8E8D0 
 429      B361503D 
 430 0f23 2BAABF8B 		.ascii	"+\252\277\213\253\336\320\353\212M\257[\226\275\276"
 430      ABDED0EB 
 430      8A4DAF5B 
 430      96BDBE
 431 0f32 B6E9753B 		.ascii	"\266\351u;\336\2537\323\000r\035\276H\277\305\323\275"
 431      DEAB37D3 
 431      00721DBE 
 431      48BFC5D3 
 431      BD
 432 0f43 36C47DEE 		.ascii	"6\304}\356\270{CIw\005\020ZX\215r\327\035\277\016\234"
 432      B87B4349 
 432      7705105A 
 432      588D72D7 
 432      1DBF0E9C 
 433 0f57 E98917B4 		.ascii	"\351\211\027\264\345\254\212D\363*w\337\026\345\177"
 433      E5AC8A44 
 433      F32A77DF 
 433      16E57F
 434 0f66 A0DC83FD 		.ascii	"\240\334\203\375\365q\203\360\351\201\232\016\256Qn"
 434      F57183F0 
 434      E9819A0E 
 434      AE516E
 435 0f75 257602D0 		.ascii	"%v\002\320\231\336\306\215:g\330\247s\372}:\207o\011"
 435      99DEC68D 
 435      3A67D8A7 
 435      73FA7D3A 
 435      876F09
 436 0f88 767675C5 		.ascii	"vvu\305o\011\342\313\315\335\376\004\233\272\227AgX"
ARM GAS  /tmp/ccgiPYAc.s 			page 34


 436      6F09E2CB 
 436      CDDDFE04 
 436      9BBA9741 
 436      6758
 437 0f9a C656D29C 		.ascii	"\306V\322\234\231\022"
 437      9912
 438 0fa0 9F721F2C 		.ascii	"\237r\037,\020\003\323\0041\234\035\310+\363\205\205"
 438      1003D304 
 438      319C1DC8 
 438      2BF38585 
 439 0fb0 6038240E 		.ascii	"`8$\016(g2F\347\345\227\300\203OJ\375\315\270\211\336"
 439      28673246 
 439      E7E597C0 
 439      834F4AFD 
 439      CDB889DE 
 440 0fc4 7CA667BC 		.ascii	"|\246g\274*,\361\222\220>z\334\210\374\322\321\277-"
 440      2A2CF192 
 440      903E7ADC 
 440      88FCD2D1 
 440      BF2D
 441 0fd6 748F2E18 		.ascii	"t\217.\030S\350\0369\261dR\012\374\360XvuX\314\346\305"
 441      53E81E39 
 441      B164520A 
 441      FCF05876 
 441      7558CCE6 
 442 0feb CA2782A1 		.ascii	"\312'\202\241\240\360\204\300O\016d\007\202e\025\325"
 442      A0F084C0 
 442      4F0E6407 
 442      826515D5 
 443 0ffb 7E213B2C 		.ascii	"~!;,\371"
 443      F9
 444 1000 0341090D 		.ascii	"\003A\011\015\220V\215\276\207\372\244A6\215+\371\262"
 444      90568DBE 
 444      87FAA441 
 444      368D2BF9 
 444      B2
 445 1011 F24050C8 		.ascii	"\362@P\310\366\371\205)|u\205\344\223fT\011a\324\331"
 445      F6F98529 
 445      7C7585E4 
 445      93665409 
 445      61D4D9
 446 1024 E3F3A9DD 		.ascii	"\343\363\251\335\323x\277_\024\302\341\202\354\362P"
 446      D378BF5F 
 446      14C2E182 
 446      ECF250
 447 1033 A5905D16 		.ascii	"\245\220]\026\362\317\310\366\013\323\262Q\307\311\201"
 447      F2CFC8F6 
 447      0BD3B251 
 447      C7C981
 448 1042 50385B12 		.ascii	"P8[\022\253\203\317g\243B9_\221]\025\022\245pvI\351"
 448      AB83CF67 
 448      A342395F 
 448      915D1512 
 448      A5707649 
 449 1057 D88179D9 		.ascii	"\330\201y\331c\306\024d#\206\246\345\002\337\025\025"
 449      63C61464 
 449      2386A6E5 
ARM GAS  /tmp/ccgiPYAc.s 			page 35


 449      02DF1515 
 450 1067 7E0C8B2A 		.ascii	"~\014\213*\024i\344\321\300id\"\000\324\271\007\372"
 450      1469E4D1 
 450      C0696422 
 450      00D4B907 
 450      FA
 451 1078 02F67D52 		.ascii	"\002\366}R\017\204\343\2338n\364\270\321\245\351\270"
 451      0F84E39B 
 451      386EF4B8 
 451      D1A5E9B8 
 452 1088 58523A7E 		.ascii	"XR:~\002\306\366\025\027\216(\230\364\000.)\222\363"
 452      02C6F615 
 452      178E2898 
 452      F4002E29 
 452      92F3
 453 109a 953E4B3E 		.ascii	"\225>K>\025?\013=\307\214\317\377\367\302\202\014\204"
 453      153F0B3D 
 453      C78CCFFF 
 453      F7C2820C 
 453      84
 454 10ab 17AAAA0C 		.ascii	"\027\252\252\014\3711\340\370\011c\307\027\024\372\320"
 454      F931E0F8 
 454      0963C717 
 454      14FAD0
 455 10ba AF7DD562 		.ascii	"\257}\325b\311X$p_A\341oG\347\027\366\326\325\025\215"
 455      C9582470 
 455      5F41E16F 
 455      47E717F6 
 455      D6D5158D 
 456 10ce 2F294D0B 		.ascii	"/)M\013U\371p\327t,\246\201y\010A\221\030.f\224U\204"
 456      55F970D7 
 456      742CA681 
 456      79084191 
 456      182E6694 
 457 10e4 CA9EF785 		.ascii	"\312\236\367\205\253\004\301\237\205\006\361WK3\312"
 457      AB04C19F 
 457      8506F157 
 457      4B33CA
 458 10f3 669455A0 		.ascii	"f\224U\240q\262JJ\013|\005\023K'\371\362'\345\217)\354"
 458      71B24A4A 
 458      0B7C0513 
 458      4B27F9F2 
 458      27E58F29 
 459 1108 3D6A4449 		.ascii	"=jDI)\361\354\313\373\221\261&w\260oX\017\214\340\003"
 459      29F1ECCB 
 459      FB91B126 
 459      77B06F58 
 459      0F8CE003 
 460 111c 08CC657E 		.ascii	"\010\314e~(8%05\265\014\276\260T\246T\360S\303\310\214"
 460      28382530 
 460      35B50CBE 
 460      B054A654 
 460      F053C3C8 
 461 1131 04510C89 		.ascii	"\004Q\014\211\341\201\211D+J1\311\226\225WJ5\330X*\253"
 461      E1818944 
 461      2B4A31C9 
 461      9695574A 
ARM GAS  /tmp/ccgiPYAc.s 			page 36


 461      35D8582A 
 462 1146 25A1C627 		.ascii	"%\241\306'\245\300\367PG\010\341\031a\315lzJ\345\242"
 462      A5C0F750 
 462      4708E119 
 462      61CD6C7A 
 462      4AE5A2
 463 1159 C0FBC3BE 		.ascii	"\300\373\303\276?T\013\325\210\335^e\345>]\325 g\310"
 463      3F540BD5 
 463      88DD5E65 
 463      E53E5DD5 
 463      2067C8
 464 116c 65E5D86A 		.ascii	"e\345\330j\322\025\010\237\344\211\301\245V\371\202"
 464      D215089F 
 464      E489C1A5 
 464      56F982
 465 117b 428D84BE 		.ascii	"B\215\204\276\252DaZ\021\005\252b\232#\212\307\346\217"
 465      AA44615A 
 465      1105AA62 
 465      9A238AC7 
 465      E68F
 466 118d AD412D2B 		.ascii	"\255A-+\253\002\025\330'\177\223\237\217\232k\364\247"
 466      AB0215D8 
 466      277F939F 
 466      8F9A6BF4 
 466      A7
 467 119e 49556220 		.ascii	"IUb \344Sp\003\2414$b$\016i\230c\374\362\262\220(`/"
 467      E4537003 
 467      A1342462 
 467      240E6998 
 467      63FCF2B2 
 468 11b6 C7D53E64 		.ascii	"\307\325>d\027eR\315\277%\207\342\2336\244\022\013A"
 468      176552CD 
 468      BF2587E2 
 468      9B36A412 
 468      0B41
 469 11c8 14A62227 		.ascii	"\024\246\"'\366I\256p\356`\224\206\2404\024\245a\256"
 469      F649AE70 
 469      EE609486 
 469      A03414A5 
 469      61AE
 470 11da 705E0E4A 		.ascii	"p^\016J\271(\345\2414\020\245A(\375\032%\324.\017\265"
 470      B928E5A1 
 470      3410A541 
 470      28FD1A25 
 470      D42E0FB5 
 471 11ee CB43EDF2 		.ascii	"\313C\355\362P\273\201\250\335\300\\N\034\304\211\277"
 471      50BB81A8 
 471      DDC05C4E 
 471      1CC489BF 
 472 11fe E6C4C19C 		.ascii	"\346\304\301\2348\204\023\207r\3420\227\230\233\203"
 472      38841387 
 472      72E23097 
 472      989B83
 473 120d 522E5721 		.ascii	"R.W!\242\257\201)U>Dm\032\226\360tAD\337\241\012\277"
 473      A2AF8129 
 473      553E446D 
 473      1A96F074 
ARM GAS  /tmp/ccgiPYAc.s 			page 37


 473      4144DFA1 
 474 1223 20BACBCA 		.ascii	" \272\313\312y\021\213\235\257\024\322%\325\017\321"
 474      79118B9D 
 474      AF14D225 
 474      D50FD1
 475 1232 8F504A93 		.ascii	"\217PJ\223\0247B\317`\213i\222(L\011\203\034q!\2452"
 475      143742CF 
 475      608B6992 
 475      284C0983 
 475      1C7121A5 
 476 1247 3C15FDA8 		.ascii	"<\025\375\250\272\007\232[\324R\252\350\237\201~J\027"
 476      BA079A5B 
 476      D452AAE8 
 476      9F817E4A 
 476      17
 477 1258 6A021212 		.ascii	"j\002\022\022\213\220:]\012M\376}U\2060M\010J\225|\370"
 477      8B903A5D 
 477      0A4DFE7D 
 477      5586304D 
 477      084A957C 
 478 126d 796CD3D3 		.ascii	"yl\323\323q\301U\345\253\316\322,\251\"\020F3UO\302"
 478      71C155E5 
 478      ABCED22C 
 478      A9221046 
 478      33554FC2 
 479 1281 B6708DA7 		.ascii	"\266p\215\247\3127\235\017H\201\340\324\036\3105\303"
 479      CA379D0F 
 479      4881E0D4 
 479      1EC835C3 
 480 1291 53C1DE52 		.ascii	"S\301\336R\240\210*\204*!\210&\306\251\250\025\262x"
 480      A0882A84 
 480      2A218826 
 480      C6A9A815 
 480      B278
 481 12a3 DCBE07A6 		.ascii	"\334\276\007\246\215\257\000=\243\312\252P\250\"\255"
 481      8DAF003D 
 481      A3CAAA50 
 481      A822AD
 482 12b2 52B152F4 		.ascii	"R\261R\364\035\232\036\024\304\324J\260\262!\216\214"
 482      1D9A1E14 
 482      C4D44AB0 
 482      B2218E8C 
 483 12c2 56A509A9 		.ascii	"V\245\011\251\254\217j\267H\004\202(\004\313\220\200"
 483      AC8F6AB7 
 483      48048228 
 483      04CB9080 
 484 12d2 52952A0F 		.ascii	"R\225*\017rZ<\257\372$\230?\220\217k\363\007.\272\361"
 484      725A3CAF 
 484      FA24983F 
 484      908F6BF3 
 484      072EBAF1 
 485 12e6 4F1EB1C6 		.ascii	"O\036\261\306_\311c\261z$\2554\312\351\034\014\371\250"
 485      5FC963B1 
 485      7A24AD34 
 485      CAE91C0C 
 485      F9A8
 486 12f8 41353528 		.ascii	"A55(,T\"\211#\034D\327\223\211`\020\317\331\371cKF\227"
ARM GAS  /tmp/ccgiPYAc.s 			page 38


 486      2C542289 
 486      231C44D7 
 486      93896010 
 486      CFD9F963 
 487 130f 2000A5E7 		.ascii	" \000\245\347\224A9\2715\330\240\373\024\214\035\341"
 487      944139B9 
 487      35D8A0FB 
 487      148C1DE1 
 488 131f 2B41EAE5 		.ascii	"+A\352\345+}\245\310k\012\204)\\~\261{\\Ai\261k\302"
 488      2B7DA5C8 
 488      6B0A8429 
 488      5C7EB17B 
 488      5C4169B1 
 489 1335 8862F7D8 		.ascii	"\210b\367\330\034\234\345\216(v\215\312/N\015CCw`J\231"
 489      1C9CE58E 
 489      28768DCA 
 489      2F4E0D43 
 489      4377604A 
 490 134a 981A0897 		.ascii	"\230\032\010\227\007\246H\236\260P1%\020\364\0135\251"
 490      07A6489E 
 490      B0503125 
 490      10F40B35 
 490      A9
 491 135b D3843229 		.ascii	"\323\2042)$\366\211Q\346SZ\243I\010=\21058\227jp\230"
 491      24F68951 
 491      E6535AA3 
 491      49083D88 
 491      3538976A 
 492 1371 D40672E5 		.ascii	"\324\006r\345\027\347\242\224\347\036?\2428\027gy\\"
 492      17E7A294 
 492      E71E3FA2 
 492      38176779 
 492      5C
 493 1382 41B1AB04 		.ascii	"A\261\253\004U\226\024\347\271\362\363\213SJ\213G\227"
 493      559614E7 
 493      B9F2F38B 
 493      534A8B47 
 493      97
 494 1393 14BA478D 		.ascii	"\024\272G\215A\304 \011{\360\314\024\250\304v\211\277"
 494      41C42009 
 494      7BF0CC14 
 494      A8C47689 
 494      BF
 495 13a4 42D5526F 		.ascii	"B\325Ro-\024\207\003Crjr\006\2241\306\032\344hJ\011"
 495      2D148703 
 495      43726A72 
 495      069431C6 
 495      1AE4684A 
 496 13b9 E94A89D5 		.ascii	"\351J\211\325\031\352s \030\220\330p\252\037\332\247"
 496      19EA7320 
 496      1890D870 
 496      AA1FDAA7 
 497 13c9 4FE6C3C2 		.ascii	"O\346\303\302\010\244\246\024\337Hd8Z\233\260\024\252"
 497      08A4A614 
 497      DF486438 
 497      5A9BB014 
 497      AA
ARM GAS  /tmp/ccgiPYAc.s 			page 39


 498 13da 4AC319A2 		.ascii	"J\303\031\242:S\255C\301S\220~\2445\020\244b!\034\252"
 498      3A53AD43 
 498      C153907E 
 498      A43510A4 
 498      62211CAA 
 499 13ee A89602A1 		.ascii	"\250\226\002\241`\0171V\354\253\376^. o\022\013\203"
 499      600F3156 
 499      ECABFE5E 
 499      2E206F12 
 499      0B83
 500 1400 FCE40A21 		.ascii	"\374\344\012!]y\030\037\374q\274s\021T\345W\213\310"
 500      5D79181F 
 500      FC71BC73 
 500      1154E557 
 500      8BC8
 501 1412 9EA407CA 		.ascii	"\236\244\007\312\311\247\207b\343\361\376R\241\262J"
 501      C9A78762 
 501      E3F1FE52 
 501      A1B24A
 502 1421 1079A95A 		.ascii	"\020y\251Z\024\334\022*\367%~+\252\256\014\370\003\322"
 502      14DC122A 
 502      F7257E2B 
 502      AAAE0CF8 
 502      03D2
 503 1433 8CF472B5 		.ascii	"\214\364r\265\220\025_v`\036\263\310UH\250\252\017\261"
 503      90155F76 
 503      601EB3C8 
 503      5548A8AA 
 503      0FB1
 504 1445 4E11F960 		.ascii	"N\021\371`\230/\003G\306v\25282.\375/?t\330\022"
 504      982F0347 
 504      C676AA38 
 504      322EFD2F 
 504      3F74D812 
 505              		.text
 506              		.section	.gnu.lto_.symtab.2514403ec046a787,"",%progbits
 507 0000 73693730 		.ascii	"si70x0_init\000\000\000\000\000\000\000\000\000\000"
 507      78305F69 
 507      6E697400 
 507      00000000 
 507      00000000 
 508 0015 00001202 		.ascii	"\000\000\022\002\000\000si70x0_stop\000\000\000\000"
 508      00007369 
 508      37307830 
 508      5F73746F 
 508      70000000 
 509 002a 00000000 		.ascii	"\000\000\000\000\000\000\000\000'\002\000\000si70x0"
 509      00000000 
 509      27020000 
 509      73693730 
 509      7830
 510 003c 5F726573 		.ascii	"_reset\000\000\000\000\000\000\000\000\000\000\000\000"
 510      65740000 
 510      00000000 
 510      00000000 
 510      0000
 511 004e 33020000 		.ascii	"3\002\000\000si70x0_setResolution\000\000\000\000\000"
ARM GAS  /tmp/ccgiPYAc.s 			page 40


 511      73693730 
 511      78305F73 
 511      65745265 
 511      736F6C75 
 512 006b 00000000 		.ascii	"\000\000\000\000\000\000\0009\002\000\000si70x0_hea"
 512      00000039 
 512      02000073 
 512      69373078 
 512      305F6865 
 513 0080 74657245 		.ascii	"terEnable\000\000\000\000\000\000\000\000\000\000\000"
 513      6E61626C 
 513      65000000 
 513      00000000 
 513      00000000 
 514 0094 00420200 		.ascii	"\000B\002\000\000si70x0_setHeaterCurrent\000\000\000"
 514      00736937 
 514      3078305F 
 514      73657448 
 514      65617465 
 515 00b3 00000000 		.ascii	"\000\000\000\000\000\000\000\000\000H\002\000\000si"
 515      00000000 
 515      00480200 
 515      007369
 516 00c2 37307830 		.ascii	"70x0_readTemperature\000\000\000\000\000\000\000\000"
 516      5F726561 
 516      6454656D 
 516      70657261 
 516      74757265 
 517 00de 00000000 		.ascii	"\000\000\000\000N\002\000\000si70x0_readHumidity\000"
 517      4E020000 
 517      73693730 
 517      78305F72 
 517      65616448 
 518 00fa 00000000 		.ascii	"\000\000\000\000\000\000\000\000\000\000\000W\002\000"
 518      00000000 
 518      00000057 
 518      0200
 519 0108 00493243 		.ascii	"\000I2CSensor_init\000\000\002\000\000\000\000\000\000"
 519      53656E73 
 519      6F725F69 
 519      6E697400 
 519      00020000 
 520 0120 00000061 		.ascii	"\000\000\000a\002\000\000I2CSensor_stop\000\000\002"
 520      02000049 
 520      32435365 
 520      6E736F72 
 520      5F73746F 
 521 0138 00000000 		.ascii	"\000\000\000\000\000\000\000\000\000i\002\000\000I2"
 521      00000000 
 521      00690200 
 521      004932
 522 0147 4353656E 		.ascii	"CSensor_transact\000\000\002\000\000\000\000\000\000"
 522      736F725F 
 522      7472616E 
 522      73616374 
 522      00000200 
 523 0160 0000006E 		.ascii	"\000\000\000n\002\000\000"
ARM GAS  /tmp/ccgiPYAc.s 			page 41


 523      020000
 524              		.text
 525              		.section	.gnu.lto_.opts,"",%progbits
 526 0000 272D6D63 		.ascii	"'-mcpu=cortex-m4' '-mfloat-abi=hard' '-mfpu=fpv4-sp"
 526      70753D63 
 526      6F727465 
 526      782D6D34 
 526      2720272D 
 527 0033 2D643136 		.ascii	"-d16' '-mno-thumb-interwork' '-mthumb' '-O2' '-fomi"
 527      2720272D 
 527      6D6E6F2D 
 527      7468756D 
 527      622D696E 
 528 0066 742D6672 		.ascii	"t-frame-pointer' '-falign-functions=16' '-ffunction"
 528      616D652D 
 528      706F696E 
 528      74657227 
 528      20272D66 
 529 0099 2D736563 		.ascii	"-sections' '-fdata-sections' '-fno-common' '-flto' "
 529      74696F6E 
 529      73272027 
 529      2D666461 
 529      74612D73 
 530 00cc 272D6673 		.ascii	"'-fsingle-precision-constant'\000"
 530      696E676C 
 530      652D7072 
 530      65636973 
 530      696F6E2D 
 531              		.text
 532              		.section	.text.si70x0_init,"ax",%progbits
 533              		.align	2
 534              		.p2align 4,,15
 535              		.global	si70x0_init
 536              		.thumb
 537              		.thumb_func
 538              		.type	si70x0_init, %function
 539              	si70x0_init:
 540              		@ args = 0, pretend = 0, frame = 0
 541              		@ frame_needed = 0, uses_anonymous_args = 0
 542              		@ link register save eliminated.
 543 0000 2823     		movs	r3, #40
 544 0002 FFF7FEBF 		b	I2CSensor_init
 545              		.size	si70x0_init, .-si70x0_init
 546 0006 00BFAFF3 		.section	.text.si70x0_stop,"ax",%progbits
 546      0080AFF3 
 546      0080
 547              		.align	2
 548              		.p2align 4,,15
 549              		.global	si70x0_stop
 550              		.thumb
 551              		.thumb_func
 552              		.type	si70x0_stop, %function
 553              	si70x0_stop:
 554              		@ args = 0, pretend = 0, frame = 0
 555              		@ frame_needed = 0, uses_anonymous_args = 0
 556              		@ link register save eliminated.
 557 0000 FFF7FEBF 		b	I2CSensor_stop
ARM GAS  /tmp/ccgiPYAc.s 			page 42


 558              		.size	si70x0_stop, .-si70x0_stop
 559 0004 AFF30080 		.section	.text.si70x0_reset,"ax",%progbits
 559      AFF30080 
 559      AFF30080 
 560              		.align	2
 561              		.p2align 4,,15
 562              		.global	si70x0_reset
 563              		.thumb
 564              		.thumb_func
 565              		.type	si70x0_reset, %function
 566              	si70x0_reset:
 567              		@ args = 0, pretend = 0, frame = 8
 568              		@ frame_needed = 0, uses_anonymous_args = 0
 569 0000 00B5     		push	{lr}
 570 0002 85B0     		sub	sp, sp, #20
 571 0004 04A9     		add	r1, sp, #16
 572 0006 FE23     		movs	r3, #254
 573 0008 01F8013D 		strb	r3, [r1, #-1]!
 574 000c 0023     		movs	r3, #0
 575 000e 0093     		str	r3, [sp]
 576 0010 0122     		movs	r2, #1
 577 0012 FFF7FEFF 		bl	I2CSensor_transact
 578 0016 05B0     		add	sp, sp, #20
 579              		@ sp needed
 580 0018 5DF804FB 		ldr	pc, [sp], #4
 581              		.size	si70x0_reset, .-si70x0_reset
 582 001c AFF30080 		.section	.text.si70x0_setResolution,"ax",%progbits
 583              		.align	2
 584              		.p2align 4,,15
 585              		.global	si70x0_setResolution
 586              		.thumb
 587              		.thumb_func
 588              		.type	si70x0_setResolution, %function
 589              	si70x0_setResolution:
 590              		@ args = 0, pretend = 0, frame = 0
 591              		@ frame_needed = 0, uses_anonymous_args = 0
 592              		@ link register save eliminated.
 593 0000 0020     		movs	r0, #0
 594 0002 7047     		bx	lr
 595              		.size	si70x0_setResolution, .-si70x0_setResolution
 596 0004 AFF30080 		.section	.text.si70x0_heaterEnable,"ax",%progbits
 596      AFF30080 
 596      AFF30080 
 597              		.align	2
 598              		.p2align 4,,15
 599              		.global	si70x0_heaterEnable
 600              		.thumb
 601              		.thumb_func
 602              		.type	si70x0_heaterEnable, %function
 603              	si70x0_heaterEnable:
 604              		@ args = 0, pretend = 0, frame = 0
 605              		@ frame_needed = 0, uses_anonymous_args = 0
 606              		@ link register save eliminated.
 607 0000 0020     		movs	r0, #0
 608 0002 7047     		bx	lr
 609              		.size	si70x0_heaterEnable, .-si70x0_heaterEnable
 610 0004 AFF30080 		.section	.text.si70x0_setHeaterCurrent,"ax",%progbits
ARM GAS  /tmp/ccgiPYAc.s 			page 43


 610      AFF30080 
 610      AFF30080 
 611              		.align	2
 612              		.p2align 4,,15
 613              		.global	si70x0_setHeaterCurrent
 614              		.thumb
 615              		.thumb_func
 616              		.type	si70x0_setHeaterCurrent, %function
 617              	si70x0_setHeaterCurrent:
 618              		@ args = 0, pretend = 0, frame = 0
 619              		@ frame_needed = 0, uses_anonymous_args = 0
 620              		@ link register save eliminated.
 621 0000 0020     		movs	r0, #0
 622 0002 7047     		bx	lr
 623              		.size	si70x0_setHeaterCurrent, .-si70x0_setHeaterCurrent
 624 0004 AFF30080 		.section	.text.si70x0_readTemperature,"ax",%progbits
 624      AFF30080 
 624      AFF30080 
 625              		.align	2
 626              		.p2align 4,,15
 627              		.global	si70x0_readTemperature
 628              		.thumb
 629              		.thumb_func
 630              		.type	si70x0_readTemperature, %function
 631              	si70x0_readTemperature:
 632              		@ args = 0, pretend = 0, frame = 8
 633              		@ frame_needed = 0, uses_anonymous_args = 0
 634 0000 10B5     		push	{r4, lr}
 635 0002 84B0     		sub	sp, sp, #16
 636 0004 04AB     		add	r3, sp, #16
 637 0006 F322     		movs	r2, #243
 638 0008 03F8052D 		strb	r2, [r3, #-5]!
 639 000c 0222     		movs	r2, #2
 640 000e 0C46     		mov	r4, r1
 641 0010 0092     		str	r2, [sp]
 642 0012 1946     		mov	r1, r3
 643 0014 0122     		movs	r2, #1
 644 0016 03AB     		add	r3, sp, #12
 645 0018 FFF7FEFF 		bl	I2CSensor_transact
 646 001c B0B9     		cbnz	r0, .L8
 647 001e 9DF80C20 		ldrb	r2, [sp, #12]	@ zero_extendqisi2
 648 0022 9DF80D30 		ldrb	r3, [sp, #13]	@ zero_extendqisi2
 649 0026 9FED0A6A 		flds	s12, .L10
 650 002a 9FED0A7A 		flds	s14, .L10+4
 651 002e DFED0A7A 		flds	s15, .L10+8
 652 0032 03EB0223 		add	r3, r3, r2, lsl #8
 653 0036 1BB2     		sxth	r3, r3
 654 0038 06EE903A 		fmsr	s13, r3	@ int
 655 003c F8EEE66A 		fsitos	s13, s13
 656 0040 66EE866A 		fmuls	s13, s13, s12
 657 0044 E6EE877A 		vfma.f32	s15, s13, s14
 658 0048 C4ED007A 		fsts	s15, [r4]
 659              	.L8:
 660 004c 04B0     		add	sp, sp, #16
 661              		@ sp needed
 662 004e 10BD     		pop	{r4, pc}
 663              	.L11:
ARM GAS  /tmp/ccgiPYAc.s 			page 44


 664              		.align	2
 665              	.L10:
 666 0050 52B82F43 		.word	1127200850
 667 0054 00008037 		.word	931135488
 668 0058 66663BC2 		.word	3258672742
 669              		.size	si70x0_readTemperature, .-si70x0_readTemperature
 670 005c AFF30080 		.section	.text.si70x0_readHumidity,"ax",%progbits
 671              		.align	2
 672              		.p2align 4,,15
 673              		.global	si70x0_readHumidity
 674              		.thumb
 675              		.thumb_func
 676              		.type	si70x0_readHumidity, %function
 677              	si70x0_readHumidity:
 678              		@ args = 0, pretend = 0, frame = 8
 679              		@ frame_needed = 0, uses_anonymous_args = 0
 680 0000 10B5     		push	{r4, lr}
 681 0002 84B0     		sub	sp, sp, #16
 682 0004 04AB     		add	r3, sp, #16
 683 0006 F522     		movs	r2, #245
 684 0008 03F8052D 		strb	r2, [r3, #-5]!
 685 000c 0222     		movs	r2, #2
 686 000e 0C46     		mov	r4, r1
 687 0010 0092     		str	r2, [sp]
 688 0012 1946     		mov	r1, r3
 689 0014 0122     		movs	r2, #1
 690 0016 03AB     		add	r3, sp, #12
 691 0018 FFF7FEFF 		bl	I2CSensor_transact
 692 001c 90B9     		cbnz	r0, .L13
 693 001e 9DF80C20 		ldrb	r2, [sp, #12]	@ zero_extendqisi2
 694 0022 9DF80D30 		ldrb	r3, [sp, #13]	@ zero_extendqisi2
 695 0026 03EB0223 		add	r3, r3, r2, lsl #8
 696 002a 9BB2     		uxth	r3, r3
 697 002c C3EB4312 		rsb	r2, r3, r3, lsl #5
 698 0030 03EB8203 		add	r3, r3, r2, lsl #2
 699 0034 1B14     		asrs	r3, r3, #16
 700 0036 063B     		subs	r3, r3, #6
 701 0038 642B     		cmp	r3, #100
 702 003a A8BF     		it	ge
 703 003c 6423     		movge	r3, #100
 704 003e 23EAE373 		bic	r3, r3, r3, asr #31
 705 0042 2380     		strh	r3, [r4]	@ movhi
 706              	.L13:
 707 0044 04B0     		add	sp, sp, #16
 708              		@ sp needed
 709 0046 10BD     		pop	{r4, pc}
 710              		.size	si70x0_readHumidity, .-si70x0_readHumidity
 711              		.comm	__gnu_lto_v1,1,1
 712 0048 AFF30080 		.ident	"GCC: (GNU Tools for ARM Embedded Processors) 4.8.4 20140526 (release) [ARM/embedded-4_8-br
 712      AFF30080 
ARM GAS  /tmp/ccgiPYAc.s 			page 45


DEFINED SYMBOLS
                            *ABS*:0000000000000000 si70x0.c
     /tmp/ccgiPYAc.s:533    .text.si70x0_init:0000000000000000 $t
     /tmp/ccgiPYAc.s:539    .text.si70x0_init:0000000000000000 si70x0_init
     /tmp/ccgiPYAc.s:547    .text.si70x0_stop:0000000000000000 $t
     /tmp/ccgiPYAc.s:553    .text.si70x0_stop:0000000000000000 si70x0_stop
     /tmp/ccgiPYAc.s:560    .text.si70x0_reset:0000000000000000 $t
     /tmp/ccgiPYAc.s:566    .text.si70x0_reset:0000000000000000 si70x0_reset
     /tmp/ccgiPYAc.s:583    .text.si70x0_setResolution:0000000000000000 $t
     /tmp/ccgiPYAc.s:589    .text.si70x0_setResolution:0000000000000000 si70x0_setResolution
     /tmp/ccgiPYAc.s:597    .text.si70x0_heaterEnable:0000000000000000 $t
     /tmp/ccgiPYAc.s:603    .text.si70x0_heaterEnable:0000000000000000 si70x0_heaterEnable
     /tmp/ccgiPYAc.s:611    .text.si70x0_setHeaterCurrent:0000000000000000 $t
     /tmp/ccgiPYAc.s:617    .text.si70x0_setHeaterCurrent:0000000000000000 si70x0_setHeaterCurrent
     /tmp/ccgiPYAc.s:625    .text.si70x0_readTemperature:0000000000000000 $t
     /tmp/ccgiPYAc.s:631    .text.si70x0_readTemperature:0000000000000000 si70x0_readTemperature
     /tmp/ccgiPYAc.s:666    .text.si70x0_readTemperature:0000000000000050 $d
     /tmp/ccgiPYAc.s:671    .text.si70x0_readHumidity:0000000000000000 $t
     /tmp/ccgiPYAc.s:677    .text.si70x0_readHumidity:0000000000000000 si70x0_readHumidity
                            *COM*:0000000000000001 __gnu_lto_v1
     /tmp/ccgiPYAc.s:670    .text.si70x0_readTemperature:000000000000005c $t

UNDEFINED SYMBOLS
I2CSensor_init
I2CSensor_stop
I2CSensor_transact
