ARM GAS  /tmp/ccw3xD8V.s 			page 1


   1              		.syntax unified
   2              		.cpu cortex-m4
   3              		.eabi_attribute 27, 3
   4              		.eabi_attribute 28, 1
   5              		.fpu fpv4-sp-d16
   6              		.eabi_attribute 20, 1
   7              		.eabi_attribute 21, 1
   8              		.eabi_attribute 23, 3
   9              		.eabi_attribute 24, 1
  10              		.eabi_attribute 25, 1
  11              		.eabi_attribute 26, 1
  12              		.eabi_attribute 30, 2
  13              		.eabi_attribute 34, 1
  14              		.eabi_attribute 18, 4
  15              		.thumb
  16              		.file	"si70x0.c"
  17              		.section	.gnu.lto_.jmpfuncs.158793450d65de5,"",%progbits
  18 0000 789C6D4E 		.ascii	"x\234mN\311\015\2000\014\263\023J\351\024\254\305\012"
  18      C90D8030 
  18      0CB3134A 
  18      E914ACC5 
  18      0A
  19 0011 2CD0C158 		.ascii	",\320\301X\255\342\213p\241HHm>v|D1\030Fs4LX\011\304"
  19      ADE28B70 
  19      A148486D 
  19      3E767C44 
  19      31184673 
  20 002a 4A1D606E 		.ascii	"J\035`n\304\363k\313\263\350\230\030$\"k%\261q'.\302"
  20      C4F36BCB 
  20      B3E89818 
  20      24226B25 
  20      B171272E 
  21 003f 1E522395 		.ascii	"\036R#\225\010\233\242\011\230ut\361\256V~\265/\257"
  21      089BA209 
  21      987574F1 
  21      AE567EB5 
  21      2FAF
  22 0051 0F539F3C 		.ascii	"\017S\237<\307I\334\254\033\0168"
  22      C749DCAC 
  22      1B0E38
  23              		.text
  24              		.section	.gnu.lto_.inline.158793450d65de5,"",%progbits
  25 0000 789C6362 		.ascii	"x\234cb`b\300\006\330\031!4'\003\203\250>#3\003\220"
  25      6062C006 
  25      D8192134 
  25      270383A8 
  25      3E233303 
  26 0015 CBACC004 		.ascii	"\313\254\300\004\022d\001\023\254\035\352\014\2347\314"
  26      12640113 
  26      AC1DEA0C 
  26      9C37CC
  27 0024 9818185F 		.ascii	"\230\030\030_\260\263@H\220r&n\006\006\306\011~\234"
  27      B0B34048 
  27      9072266E 
  27      0606C609 
  27      7E9C
  28 0036 42401326 		.ascii	"B@\023&\370!C\250\014\023\003;\033#\003\023\\;\0200"
ARM GAS  /tmp/ccw3xD8V.s 			page 2


  28      F82143A8 
  28      0C13033B 
  28      1B230313 
  28      5C3B1030 
  29 004a 3330030D 		.ascii	"30\003\015\0061\331\026\310\203EX\030\271\205\201\""
  29      0631D916 
  29      C8834558 
  29      18B98581 
  29      22
  30 005b 4C17F8E1 		.ascii	"L\027\370\341B\354\002\014\014\254\023\374@LV\014\365"
  30      42EC020C 
  30      0CAC13FC 
  30      404C560C 
  30      F5
  31 006c 6C1822EC 		.ascii	"l\030\"\354\030\"\034\314bR@\021\361O\365\014\354M*"
  31      18221CCC 
  31      62524011 
  31      F14FF50C 
  31      EC4D2A
  32 007f E8667232 		.ascii	"\350fr2K\312\000eeWMg\304&\315\000\000\015\224\033\004"
  32      4BCA0065 
  32      65574D67 
  32      C426CD00 
  32      000D941B 
  33              		.text
  34              		.section	.gnu.lto_.pureconst.158793450d65de5,"",%progbits
  35 0000 789C6362 		.ascii	"x\234cb`b\020f\200\000N\006I&)f\006\026\011V\0066\006"
  35      60621066 
  35      80004E06 
  35      49262966 
  35      06160956 
  36 0017 76060E29 		.ascii	"v\006\016)N)\000\011\032\000\314"
  36      4E290009 
  36      1A00CC
  37              		.text
  38              		.section	.gnu.lto_si70x0_transmit.158793450d65de5,"",%progbits
  39 0000 789CA551 		.ascii	"x\234\245Q;H\003A\020\235\267\227\313?1A-D\020\021+"
  39      3B480341 
  39      109DB797 
  39      CB3F3141 
  39      2D441011 
  40 0015 8598CED2 		.ascii	"\205\230\316\322\306\306^\301\2241J\330\"\010&\212`"
  40      C6C65EC1 
  40      94314AD8 
  40      2208268A 
  40      60
  41 0026 E1465388 		.ascii	"\341FS\210E\010V\022\033E\322ji@\204\2246\376:\261J"
  41      45085612 
  41      1B45D26A 
  41      69408494 
  41      36FE3AB1 
  42 003b 69656129 		.ascii	"iea)\3429\273\347\235(\212\205\01373\367n\337\2337s"
  42      E239BBE7 
  42      9D288A85 
  42      0B3733F7 
  42      6EDF9B37 
  43 0050 82047D3F 		.ascii	"\202\004}?\003\374<2<\312\031\026A4\256\211\252a\001"
ARM GAS  /tmp/ccw3xD8V.s 			page 3


  43      03FC3C32 
  43      3CCA1916 
  43      4134AE89 
  43      AA6101
  44 0063 E882409B 		.ascii	"\350\202@\233\002\2339\350\253b\204\216\224\332\353"
  44      029B39E8 
  44      AB62848E 
  44      94DAEB
  45 0072 B6EA2703 		.ascii	"\266\352'\003\273\207[\015\365\3468\220`\321>P\0014"
  45      BB875B0D 
  45      F5E63890 
  45      60D13E50 
  45      0134
  46 0084 CF2F1836 		.ascii	"\317/\0306I\004\276v1\314\206:[\274T\265\216\343LIX"
  46      4904BE76 
  46      31CC863A 
  46      5BBC54B5 
  46      8EE34C49 
  47 0099 8286FE62 		.ascii	"\202\206\376b\235\212N\327q^[\215\241^\201\022\310\""
  47      9D8A4ED7 
  47      715E5B8D 
  47      A15E8112 
  47      C822
  48 00ab 8980AD43 		.ascii	"\211\200\255C\220\203\035\342\020\014\363\007D\270\012"
  48      90831DE2 
  48      100CF307 
  48      44B80A
  49 00ba 45B91231 		.ascii	"E\271\0221]\305)\217#\214P\202\021+\311!\220b\344\230"
  49      5DC5298F 
  49      238C5082 
  49      112BC921 
  49      9062E498 
  50 00ce 91B426B3 		.ascii	"\221\264&\263\262M5\3663\354\202\244m\360\231\345\250"
  50      B24D35F6 
  50      33EC82A4 
  50      6DF099E5 
  50      A8
  51 00df 879E83D0 		.ascii	"\207\236\203\320\331\272\242\255\207\375z\177\036-\330"
  51      D9BAA2AD 
  51      87FD7A7F 
  51      1E2DD8
  52 00ee 5484354E 		.ascii	"T\2045Nc\314>\240fU)\225\223\010\027!\264\355\2101\273"
  52      63CC3EA0 
  52      66552995 
  52      93081721 
  52      B4ED8831 
  53 0103 00CFF60D 		.ascii	"\000\317\366\015\325:c.\213h\203^\324\216JID\013po\260"
  53      D53A632E 
  53      8B68835E 
  53      D48E4A49 
  53      440B706F 
  54 0118 92448C48 		.ascii	"\222D\214H\313\267\353\031O\336\376\"\177\201\337\365"
  54      CBB7EB19 
  54      4FDEFE22 
  54      7F81DFF5 
  55 0128 35F176D0 		.ascii	"5\361v\320\343\005\015/\316\274\037(\370\244<m?\013"
  55      E3050D2F 
ARM GAS  /tmp/ccw3xD8V.s 			page 4


  55      CEBC1F28 
  55      F8A43C6D 
  55      3F0B
  56 013a 8F13629A 		.ascii	"\217\023b\232\013Z\036\024)\"\374\015\212\025\0215\320"
  56      0B5A1E14 
  56      2922FC0D 
  56      8A151135 
  56      D0
  57 014b 8C87C45D 		.ascii	"\214\207\304]w<M\302\237+Y2s\352\256I\177\001M\325\366"
  57      773C4DC2 
  57      9F2B5932 
  57      73EAAE49 
  57      7F014DD5 
  58 0160 6552FED5 		.ascii	"eR\376\325\236\002\304\307\012lc\"a\372&M\253\270D\312"
  58      9E02C4C7 
  58      0A6C6322 
  58      61FA264D 
  58      ABB844CA 
  59 0174 9DEDFE73 		.ascii	"\235\355\376s\347\351\177\357\334\372h\2306;\277\243"
  59      E7E97FEF 
  59      DCFA6898 
  59      363BBFA3 
  60 0184 6AF73CEA 		.ascii	"j\367<\352;s\271\263\274&\376\337\332ZzzE\256-\255\224"
  60      3B73B9B3 
  60      BC26FEDF 
  60      DA5A7A7A 
  60      45AE2DAD 
  61 0199 27CA7232 		.ascii	"'\312r2\273\236\315\024(R\221\245\245\345\325J&\033"
  61      BB9ECD14 
  61      285291A5 
  61      A5E5D54A 
  61      261B
  62 01ab 2C57F295 		.ascii	",W\362\225\325\362;\321\360\246\264"
  62      D5F23BD1 
  62      F0A6B4
  63              		.text
  64              		.section	.gnu.lto_si70x0_init.158793450d65de5,"",%progbits
  65 0000 789C6362 		.ascii	"x\234cb`b@\007\222@\034\300\310\300 \014\244\031\231"
  65      60624007 
  65      92401CC0 
  65      C8C0200C 
  65      A41999
  66 0013 19189926 		.ascii	"\031\030\231&\234c`h\344`bd\0041\030\030\031\352\231"
  66      9C636068 
  66      E4606264 
  66      04311818 
  66      19EA99
  67 0026 18EB2319 		.ascii	"\030\353#\031\301j\3273\035x\360\377\377\272Y\255\217"
  67      C16AD733 
  67      1D78F0FF 
  67      FFBA59AD 
  67      8F
  68 0037 58399918 		.ascii	"X9\231\030s\031\031\230\201\004#+\220\000\231\313\312"
  68      73191998 
  68      8104232B 
  68      900099CB 
  68      CA
ARM GAS  /tmp/ccw3xD8V.s 			page 5


  69 0048 D0D2D030 		.ascii	"\320\322\3200A\201\201!\031\254:\004H\202\214\010\005"
  69      41818121 
  69      19AC3A04 
  69      48828C08 
  69      05
  70 0059 4A0269E6 		.ascii	"J\002i\346\263\014M\247oL\346Kd\\\310\310\312\240\315"
  70      B30C4DA7 
  70      6F4CE64B 
  70      645CC8C8 
  70      CAA0CD
  71 006c B0AA0108 		.ascii	"\260\252\001\010x3\031\031f3\314b\314ddLgd\212\000\322"
  71      78331919 
  71      6633CC62 
  71      CC64644C 
  71      67648A00 
  72 0081 10072641 		.ascii	"\020\007&A\354cH\007\272\210\001\244\361\307e\014\215"
  72      EC634807 
  72      BA8801A4 
  72      F1C7650C 
  72      8D
  73 0092 CCD83532 		.ascii	"\314\33052B5\262\2025\356\2301\215\037]#\013v\215\020"
  73      4235B282 
  73      35EE9831 
  73      8D1F5D23 
  73      0B768D10 
  74 00a6 1A24C202 		.ascii	"\032$\302\002b\2004\337\270\006\265\025\250\243\261"
  74      628034DF 
  74      B806B515 
  74      A8A3B1
  75 00b5 A1412093 		.ascii	"\241A \223\221\265\232\341WC\007\210\305\226\013r\033"
  75      91B59AE1 
  75      57430788 
  75      C5960B72 
  75      1B
  76 00c6 583D1B5C 		.ascii	"X=\033\\'\273\006\220q\221\241\361\301m.\210F\220 \007"
  76      27BB0690 
  76      7191A1F1 
  76      C16D2E88 
  76      46902007 
  77 00da 2CA84380 		.ascii	",\250C\200\216\003\206\004\310\"A\227\242\314\262\324"
  77      8E038604 
  77      C8224197 
  77      A2CCB2D4 
  78 00ea A262FDE2 		.ascii	"\242b\375\342Ls\203\012\003\275d\006\000/\240P\216"
  78      4C73830A 
  78      03BD6406 
  78      002FA050 
  78      8E
  79              		.text
  80              		.section	.gnu.lto_si70x0_stop.158793450d65de5,"",%progbits
  81 0000 789C6362 		.ascii	"x\234cb`b@\007\222@\034\001\304\302@\314\310\314\300"
  81      60624007 
  81      92401C01 
  81      C4C240CC 
  81      C8CCC0
  82 0013 C834E11C 		.ascii	"\3104\341\034\003C#\007\023##\210\301\300\310P\317\304"
  82      03432307 
ARM GAS  /tmp/ccw3xD8V.s 			page 6


  82      13232388 
  82      C1C0C850 
  82      CFC4
  83 0025 581FC908 		.ascii	"X\037\311\010V\273\236\351\300\203\377\377\327]i}\305"
  83      56BB9EE9 
  83      C083FFFF 
  83      D75D697D 
  83      C5
  84 0036 06328895 		.ascii	"\0062\210\225\241\245\241a\202\002\003C2X:\004H\202"
  84      A1A5A161 
  84      82020343 
  84      32583A04 
  84      4882
  85 0048 F4843232 		.ascii	"\364\20422\201h\346\213\014\215\017\336p%2.dde\210`"
  85      8168E68B 
  85      0C8D0FDE 
  85      7025322E 
  85      64646588 
  86 005d CC64845B 		.ascii	"\314d\204[\031\302\310\010R\0002B\320\245(\263,\265"
  86      19C2C808 
  86      52003242 
  86      D0A528B3 
  86      2CB5
  87 006f A858BF38 		.ascii	"\250X\2778\323\334\240\302@/\231\001\000'N\036\313"
  87      D3DCA0C2 
  87      402F9901 
  87      00274E1E 
  87      CB
  88              		.text
  89              		.section	.gnu.lto_si70x0_reset.158793450d65de5,"",%progbits
  90 0000 789C5D50 		.ascii	"x\234]P\261J\003A\024\234\331\363\314U\242 \210`!~@"
  90      B14A0341 
  90      149CD9F3 
  90      CC55A220 
  90      8860217E 
  91 0015 4C21F801 		.ascii	"L!\370\001\372\011\021\264\014\347\021\266Hs'*X\344"
  91      FA0911B4 
  91      0CE711B6 
  91      4873272A 
  91      58E4
  92 0027 452C52C9 		.ascii	"E,R\311ae\033\374\200+l,\017\3212\212\235\205\220\353"
  92      61651BFC 
  92      802B6C2C 
  92      0FD1328A 
  92      9D8590EB 
  93 003b FD030939 		.ascii	"\375\003\0119\337\272(\352\203\335\331\267;;3\273\006"
  93      DFBA28EA 
  93      83DDD9B7 
  93      3B3B33BB 
  93      06
  94 004c 06FF6B55 		.ascii	"\006\377kUG\223\300\232\"\003\320\344O\300 2\244[\200"
  94      4793C09A 
  94      2203D0E4 
  94      4FC02032 
  94      A45B80
  95 005f E81BF60F 		.ascii	"\350\033\366\017\350\250\334\300H\312\253\352qr\271"
  95      E8A8DCC0 
ARM GAS  /tmp/ccw3xD8V.s 			page 7


  95      48CAABEA 
  95      7172B9
  96 006e 2295E432 		.ascii	"\"\225\3442\253kZ\252\3502\021\023\373\3320\372\002"
  96      AB6B5AAA 
  96      E8321113 
  96      FBDA30FA 
  96      02
  97 007f C3BF2E85 		.ascii	"\303\277.\205)\253\272~+\362\0076\002\366\210\020V\335"
  97      29ABBA7E 
  97      2BF20736 
  97      02F68810 
  97      56DD
  98 0091 A0782192 		.ascii	"\240x!\222\257w8Ru8\025\255\266\316\316}\217\306a0\306"
  98      AF773852 
  98      753815AD 
  98      B6CECE7D 
  98      8FC66130 
  99 00a6 F9DDEB64 		.ascii	"\371\335\353d\241\303\033\206\360Tg\202\231c?\343Z\246"
  99      A1C31B86 
  99      F0546782 
  99      99633FE3 
  99      5AA6
 100 00b8 05FD6197 		.ascii	"\005\375a\227\341\031>d(\213\226s1}\212.\003\267\251"
 100      E1193E64 
 100      288B9673 
 100      317D8A2E 
 100      03B7A9
 101 00cb 756219FA 		.ascii	"ub\031\372\373\236\356e|\362\357\016\232l\036\030\343"
 101      FB9EEE65 
 101      7CF2EF0E 
 101      9A6C1E18 
 101      E3
 102 00dc FEDDFC76 		.ascii	"\376\335\374v\334\302\255\014=\001/\030\224\341\217"
 102      DCC2AD0C 
 102      3D012F18 
 102      94E18F
 103 00eb A37F625B 		.ascii	"\243\177b[\3354\254\373\341\245\335\324\036'i\266\231"
 103      DD34ACFB 
 103      E1A5DDD4 
 103      1E2769B6 
 103      99
 104 00fc D9EDD669 		.ascii	"\331\355\326i\253\031#J\223,9\332\351\035~\002\013\032"
 104      AB19234A 
 104      932C39DA 
 104      E91D7E02 
 104      0B1A
 105 010e 5207     		.ascii	"R\007"
 106              		.text
 107              		.section	.gnu.lto_si70x0_setResolution.158793450d65de5,"",%progbits
 108 0000 789C6362 		.ascii	"x\234cb`b@\007\222@\034\015\304\302@\314\310\314\300"
 108      60624007 
 108      92401C0D 
 108      C4C240CC 
 108      C8CCC0
 109 0013 C834E11C 		.ascii	"\3104\341\034\003C#\007\023##\210\301\300\310P\317\304"
 109      03432307 
 109      13232388 
ARM GAS  /tmp/ccw3xD8V.s 			page 8


 109      C1C0C850 
 109      CFC4
 110 0025 581FC908 		.ascii	"X\037\311\010V\273\236\351\300\203\377\377\327\3159"
 110      56BB9EE9 
 110      C083FFFF 
 110      D7CD39
 111 0034 B6602623 		.ascii	"\266`&##\310(V\206\226\206\206\011\012\014\014\311`"
 111      23C82856 
 111      86968686 
 111      090A0C0C 
 111      C960
 112 0046 05214012 		.ascii	"\005!@\022\244+\024(\011\244\231/24>\230\261\2301\221"
 112      A42B1428 
 112      09A4992F 
 112      32343E98 
 112      B1983191 
 113 005a 7121232B 		.ascii	"q!#+C\004c&#\334\326\020FF\220\012\220\031\202.E\231"
 113      43046326 
 113      23DCD610 
 113      4646900A 
 113      9019822E 
 114 0070 65A945C5 		.ascii	"e\251E\305\372\305\231\346\006\025\006z\311\014\000"
 114      FAC599E6 
 114      0615067A 
 114      C90C00
 115 007f 83071F68 		.ascii	"\203\007\037h"
 116              		.text
 117              		.section	.gnu.lto_si70x0_heaterEnable.158793450d65de5,"",%progbits
 118 0000 789C6362 		.ascii	"x\234cb`b@\007\222@\034\015\304\302@\314\310\314\300"
 118      60624007 
 118      92401C0D 
 118      C4C240CC 
 118      C8CCC0
 119 0013 C834E11C 		.ascii	"\3104\341\034\003C#\007\023##\210\301\300\310P\317\304"
 119      03432307 
 119      13232388 
 119      C1C0C850 
 119      CFC4
 120 0025 581FC908 		.ascii	"X\037\311\010V\273\236\351\300\203\377\377\327\355;"
 120      56BB9EE9 
 120      C083FFFF 
 120      D7ED3B
 121 0034 B6601523 		.ascii	"\266`\025##\310(V\206\226\206\206\011\012\014\014\311"
 121      23C82856 
 121      86968686 
 121      090A0C0C 
 121      C9
 122 0045 60052140 		.ascii	"`\005!@\022\244+\024(\011\244\231/24>X\271\2301\221"
 122      12A42B14 
 122      2809A499 
 122      2F32343E 
 122      58B99831 
 123 005a 7121232B 		.ascii	"q!#+C\004c&#\334\326\020FF\220\012\220\031\202.E\231"
 123      43046326 
 123      23DCD610 
 123      4646900A 
 123      9019822E 
ARM GAS  /tmp/ccw3xD8V.s 			page 9


 124 0070 65A945C5 		.ascii	"e\251E\305\372\305\231\346\006\025\006z\311\014\000"
 124      FAC599E6 
 124      0615067A 
 124      C90C00
 125 007f 99571FAC 		.ascii	"\231W\037\254"
 126              		.text
 127              		.section	.gnu.lto_si70x0_setHeaterCurrent.158793450d65de5,"",%progbits
 128 0000 789C6362 		.ascii	"x\234cb`b@\007\222@\034\015\304\302@\314\310\314\300"
 128      60624007 
 128      92401C0D 
 128      C4C240CC 
 128      C8CCC0
 129 0013 C834E11C 		.ascii	"\3104\341\034\003C#\007\023##\210\301\300\310P\317\304"
 129      03432307 
 129      13232388 
 129      C1C0C850 
 129      CFC4
 130 0025 581FC908 		.ascii	"X\037\311\010V\273\236\351\300\203\377\377\327}8\266"
 130      56BB9EE9 
 130      C083FFFF 
 130      D77D38B6 
 131 0035 60372323 		.ascii	"`7##\310(V\206\226\206\206\011\012\014\014\311`\005"
 131      C8285686 
 131      96868609 
 131      0A0C0CC9 
 131      6005
 132 0047 214012A4 		.ascii	"!@\022\244+\024(\011\244\231/24>\330\265\2301\221q!"
 132      2B142809 
 132      A4992F32 
 132      343ED8B5 
 132      98319171 
 133 005c 232B4304 		.ascii	"#+C\004c&#\334\326\020FF\220\012\220\031\202.E\231e"
 133      632623DC 
 133      D6104646 
 133      900A9019 
 133      822E4599 
 134 0071 A945C5FA 		.ascii	"\251E\305\372\305\231\346\006\025\006z\311\014\000\265"
 134      C599E606 
 134      15067AC9 
 134      0C00B5
 135 0080 A72000   		.ascii	"\247 \000"
 136              		.text
 137              		.section	.gnu.lto_si70x0_readTemperature.158793450d65de5,"",%progbits
 138 0000 789C8D54 		.ascii	"x\234\215T\313k\023a\020\237\371v\223l^mR\304GA-=x\322"
 138      CB6B1361 
 138      109FF976 
 138      936C5E6D 
 138      52C44741 
 139 0018 A65841BC 		.ascii	"\246XA\274\011\372'\244\240\3075\226\260bA\222Z\013"
 139      09FA27A4 
 139      A0C73596 
 139      B0624192 
 139      5A0B
 140 002a 1EF2E501 		.ascii	"\036\362\345\001\215b%\210\250\261\202)Aj\021\255\320"
 140      8D622588 
 140      A8B18229 
 140      416A11AD 
ARM GAS  /tmp/ccw3xD8V.s 			page 10


 140      D0
 141 003b 8B459128 		.ascii	"\213E\221(J\025| \364\"T\310\255\005\301Cz)\"\2563\373"
 141      4A157C20 
 141      F42254C8 
 141      AD05C143 
 141      7A2922AE 
 142 0051 4A4805FD 		.ascii	"JH\005\375 \263\371f~\277\337\314\316L\"@@\3679L\237"
 142      20B3F966 
 142      7EBFDFCC 
 142      CE4C2240 
 142      40F7394C 
 143 0066 AC0A3042 		.ascii	"\254\0120BO\364\001\212\312'\200\274&\204\262\232\000"
 143      4FF4018A 
 143      CA2780BC 
 143      2684B29A 
 143      00
 144 0077 19525FEC 		.ascii	"\031R_\354\003\031QP\265\335*\"\177\001\204\234PT\314"
 144      03195150 
 144      B5DD2A22 
 144      7F01849C 
 144      5054CC
 145 008a 9D46D6F0 		.ascii	"\235F\326\360\015\302\234lT\232o[\033\230\227\215RM"
 145      0DC29C6C 
 145      549A6F5B 
 145      1B98978D 
 145      524D
 146 009c FE324D44 		.ascii	"\3762MD\003)\337\016\204\024\302)\272`\314z\210\256"
 146      0329DF0E 
 146      8414C229 
 146      BA60CC7A 
 146      88AE
 147 00ae 1A2CEE8D 		.ascii	"\032,\356\215\306\255\225\360SY\226\246\2313P\021\260"
 147      C6AD95F0 
 147      535996A6 
 147      99335011 
 147      B0
 148 00bf AB4DD36C 		.ascii	"\253M\323l\032n\247\311J\243\2722\263G\326\012\025\371"
 148      1A6EA7C9 
 148      4AA3BA32 
 148      B347D60A 
 148      15F9
 149 00d1 9B321AA8 		.ascii	"\2332\032\250\012\330\337f\016\330L\365\257\314\373"
 149      0AD8DF66 
 149      0ED84CF5 
 149      AFCCFB
 150 00e0 D333BB65 		.ascii	"\3233\273e-\3572}\002\016\374O\251\304\\\232\2766\322"
 150      2DEF327D 
 150      020EFC4F 
 150      A9C45C9A 
 150      BE36D2
 151 00f3 91D32F60 		.ascii	"\221\323/`\350_9\027E\243i\232\367\226K\255\275;U\034"
 151      E85F3917 
 151      45A3699A 
 151      F7964BAD 
 151      BD3B551C 
 152 0107 47F0838E 		.ascii	"G\360\203\216\017p\020\002``@#\243\005\331\204\370\032"
 152      0F701002 
ARM GAS  /tmp/ccw3xD8V.s 			page 11


 152      60604023 
 152      A305D984 
 152      F81A
 153 0119 E66F1136 		.ascii	"\346o\0216QB\315\023\252\207.\376^616qr/\220\273\217"
 153      5142CD13 
 153      AA872EFE 
 153      5E363136 
 153      71722F90 
 154 012f 94B82D3E 		.ascii	"\224\270->(Q]\003:\316\221S\307\272eY\035\270,:I\262"
 154      28515D03 
 154      3ACE9153 
 154      C7BA6559 
 154      1DB82C3A 
 155 0145 3CB75114 		.ascii	"<\267Q\024\374T>B\341\331\026\015K\307G4s\233\301e+"
 155      FC543E42 
 155      E1D9160D 
 155      4BC74734 
 155      739BC165 
 156 015a 9B0CFF0C 		.ascii	"\233\014\377\014w\344\207\345\363v0\215\376\313\360"
 156      77E487E5 
 156      F376308D 
 156      FECBF0
 157 0169 93261333 		.ascii	"\223&\02330\230B{\012iT\331I\3476\261BnJ\306\333:\010"
 157      3098427B 
 157      0A6954D9 
 157      49E736B1 
 157      426E4AC6 
 158 0180 4EFC2BDD 		.ascii	"N\374+\335\302na\355\270\240\327\210\000\274\2037\353"
 158      C26E61ED 
 158      B8A0D788 
 158      00BC8337 
 158      EB
 159 0191 AF665714 		.ascii	"\257fW\024/\025\007\243\235\215\033E\005V\023\\\360"
 159      2F1507A3 
 159      9D8D1B45 
 159      0556135C 
 159      F0
 160 01a2 DAD66653 		.ascii	"\332\326fS\365\336t\336\022\\\260\336\321\021\346\262"
 160      F5DE74DE 
 160      125CB0DE 
 160      D111E6B2 
 161 01b2 0287E020 		.ascii	"\002\207\340 \311\333\011YL\353\320\"\221\037\305\227"
 161      C9DB0959 
 161      4CEBD022 
 161      911FC597 
 162 01c2 42C7452B 		.ascii	"B\307E+\231Fpv\026\037+\256+H^\213\245\331\360\265J"
 162      99467076 
 162      161F2BAE 
 162      2B485E8B 
 162      A5D9F0B5 
 163 01d7 BF1B0A6D 		.ascii	"\277\033\012mS\306.\345\226\247\034&\270\245\\\366\224"
 163      53C62EE5 
 163      96A71C26 
 163      B8A55CF6 
 163      94
 164 01e8 239678D8 		.ascii	"#\226x\330\201\236s\335\3214\267\201|\017\213\353\327"
 164      819E73DD 
ARM GAS  /tmp/ccw3xD8V.s 			page 12


 164      D134B781 
 164      7C0F8BEB 
 164      D7
 165 01f9 8FB9DE9E 		.ascii	"\217\271\336\23647\201\370W=~/y\373\241Js\250\034\007"
 165      343781F8 
 165      573D7E2F 
 165      79FBA14A 
 165      73A81C07 
 166 020d E0CECAC6 		.ascii	"\340\316\312\306\315\265E^?\260\241\305'^\376\030\341"
 166      CDB5455E 
 166      3FB0A1C5 
 166      275EFE18 
 166      E1
 167 021e 1D70D9A4 		.ascii	"\035p\331\244\035u\010|\332\204+\3053.>N\024\007?\354"
 167      1D75087C 
 167      DA842BC5 
 167      332E3E4E 
 167      14073FEC 
 168 0232 8A57979E 		.ascii	"\212W\227\236{\330\302\373\215I\033;\013w\363\024\365"
 168      7BD8C2FB 
 168      8D491B3B 
 168      0B77F314 
 168      F5
 169 0243 51248D7D 		.ascii	"Q$\215}\334\206\036g!\342\356\274Tg\303^\177\027\356"
 169      DC861E67 
 169      21E2EEBC 
 169      5467C35E 
 169      7F17EE
 170 0256 7A71CB8E 		.ascii	"zq\313\216\300\222,\363_\202\245\330\021\254w\004\025"
 170      C0922CF3 
 170      5F82A5D8 
 170      11AC7704 
 170      15
 171 0267 0A7E817C 		.ascii	"\012~\201|\363[\035\275\225\260u\223\264y\244\313?\310"
 171      F35B1DBD 
 171      95B07593 
 171      B479A4CB 
 171      3FC8
 172 0279 F8C98C31 		.ascii	"\370\311\21419\226\311&\262\306\321\341\251\341\241"
 172      3996C926 
 172      B2C6D1E1 
 172      A9E1A1
 173 0288 1488CC54 		.ascii	"\024\210\314T`bl\374\302\211\361\263\376\354\204>q1"
 173      60626CFC 
 173      C289F1B3 
 173      FEEC843E 
 173      7131
 174 029a 1BC8E897 		.ascii	"\033\310\350\227\222\344\361Y\356?a)\"`"
 174      92E4F159 
 174      EE3F6129 
 174      2260
 175              		.text
 176              		.section	.gnu.lto_si70x0_readHumidity.158793450d65de5,"",%progbits
 177 0000 789C8D54 		.ascii	"x\234\215T]HTQ\020\2369\367o\335\275\352\356Z\364C\205"
 177      5D485451 
 177      109E39F7 
 177      6FDDBDEA 
ARM GAS  /tmp/ccw3xD8V.s 			page 13


 177      EE5AF443 
 178 0015 485048B5 		.ascii	"HPH\265>\004\321s=\330\253(To\313\032\333\205\014\331"
 178      3E04D173 
 178      3DD8AB28 
 178      546FCB1A 
 178      DB850CD9 
 179 0029 B51222F6 		.ascii	"\265\022\"\366\256\273\340RJ\213\004E\275(\"\"\021F"
 179      AEBBE052 
 179      4A8B0445 
 179      BD282222 
 179      1146
 180 003b BDF490B8 		.ascii	"\275\364\220\270J\260AV\012\006\005B\022h\201\021F\365"
 180      4AB04156 
 180      0A060542 
 180      12688111 
 180      46F5
 181 004d 908AB799 		.ascii	"\220\212\267\231\373\263nZ\324\001\347\334\231\357\233"
 181      FBB36E5A 
 181      D401E7DC 
 181      99EF9B
 182 005c 6FE6CC39 		.ascii	"o\346\3149\253\000\001\233\327Y\372\233\224\001\"\264"
 182      AB00019B 
 182      D759FA9B 
 182      940122B4 
 183 006c A30F50E4 		.ascii	"\243\017P\344_\001\244}BH\263\0210\375\332\323}`\352"
 183      5F01A47D 
 183      4248B311 
 183      30FDDAD3 
 183      7D60EA
 184 007f 92507BB6 		.ascii	"\222P{\266\223'g\217\223'\013%w\200<\225\255\256\240"
 184      9327678F 
 184      93270B25 
 184      77803C95 
 184      ADAEA0
 185 0092 EAA4A8A8 		.ascii	"\352\244\250\2509\037\032\"\177\000BJH\262\242j\230"
 185      391F1A22 
 185      7F00424A 
 185      48B2A26A 
 185      98
 186 00a3 3A835C4B 		.ascii	":\203\\K\251\203\001\263\220\237\037Z\375\204i\263\220"
 186      A98301B3 
 186      909F1F5A 
 186      FD8469B3 
 186      90
 187 00b4 ED37D72C 		.ascii	"\3557\327,\013\321@\352k\033B\014\34149\030\2647\261"
 187      0BD140EA 
 187      6B1B420C 
 187      E1343918 
 187      B437B1
 188 00c7 A9573BB7 		.ascii	"\251W;\267\2570W\014<4s\246e\245\014\224\004\354\330"
 188      AF30570C 
 188      3C3473A6 
 188      65A50C94 
 188      04ECD8
 189 00da 48F33969 		.ascii	"H\3639i\2705\315\314\027\336\027{w\231\375]ys\235*\032"
 189      B835CDCC 
 189      17DE177B 
ARM GAS  /tmp/ccw3xD8V.s 			page 14


 189      7799FD5D 
 189      79739D2A 
 190 00ef 280BD8BB 		.ascii	"(\013\330\273\221Y\353d\312\177\310\354+|\357\326\247"
 190      9159EB64 
 190      CA7FC8EC 
 190      2B7CEFD6 
 190      A7
 191 0100 BD828A80 		.ascii	"\275\202\212\200\375\377\323'\025\374\331\375\002\315"
 191      FDFFD327 
 191      15FCD9FD 
 191      02CD
 192 010e 3E33BD6C 		.ascii	">3\275lY\325\006\252\002\352\377UoT\024\346-kj,\373"
 192      59D506AA 
 192      02EAFF55 
 192      6F5414E6 
 192      2D6B6A2C 
 193 0123 E1209D2A 		.ascii	"\341 \235*\212#X\007\012\266!h\344\014\221\343\003\003"
 193      8A235807 
 193      0AB62168 
 193      E40C91E3 
 193      0303
 194 0135 B50A323E 		.ascii	"\265\0122>?\233\000\273:\177U\022a\230\010U\344\250"
 194      3F9B00BB 
 194      3A7F5512 
 194      61980855 
 194      E4A8
 195 0147 D56C826C 		.ascii	"\325l\202lB\256H\23095\244\304\243Q K\355\325Fq\200"
 195      42AE4898 
 195      3935A4C4 
 195      A351204B 
 195      EDD54671 
 196 015c 90280EDA 		.ascii	"\220(\016\332\226\325\201\333\243\325L\226\257\257\005"
 196      96D581DB 
 196      A3D54C96 
 196      AFAF05
 197 016b 05EFD24B 		.ascii	"\005\357\322K\350z\362\226.,\212\367Qq3\270}\351\007"
 197      E87AF296 
 197      2E2C8AF7 
 197      517133B8 
 197      7DE907
 198 017e D35FC31D 		.ascii	"\323_\303\035sm\354\202\003\306Q\273\012+4\254\240\201"
 198      736DEC82 
 198      03C651BB 
 198      0A2B34AC 
 198      A081
 199 0190 1531746E 		.ascii	"\0251tn\"\216\012\007i\335\246,\277W\222\371\216\016"
 199      228E0A07 
 199      69DDA62C 
 199      BF5792F9 
 199      8E0E
 200 01a2 828BBF21 		.ascii	"\202\213\277!/\3405\266\201\013j_\007x\016\317>N|-J"
 200      2FE035B6 
 200      810B6A5F 
 200      07780ECF 
 200      3E4E7C2D 
 201 01b7 A5520C56 		.ascii	"\245R\014V\226\017\260\005%\230\215p\303so\327\227E"
 201      960FB005 
ARM GAS  /tmp/ccw3xD8V.s 			page 15


 201      25988D70 
 201      C3736FD7 
 201      9745
 202 01c9 E9A4C3B6 		.ascii	"\351\244\303\266\340\210}FW\230\333\362\035\206C$\357"
 202      E0887D46 
 202      5798DBF2 
 202      1D864324 
 202      EF
 203 01da 146431B5 		.ascii	"\024d1\265L\213D\276d.Fq\324\256UAl\216e\036H^\310O"
 203      4C8B44BE 
 203      642E4671 
 203      D4AE5541 
 203      6C8E651E 
 204 01f2 514E527C 		.ascii	"QNR|\016{n:\354A\201-\302\3707a\235\330\266p\256$\\"
 204      0E7B6E3A 
 204      EC41812D 
 204      C2F83761 
 204      9DD8B670 
 205 0209 696BEB2E 		.ascii	"ik\353.\363\333\315z\017\250\212\363q\211{\275\304\255"
 205      F3DBCD7A 
 205      0FA88AF3 
 205      71897BBD 
 205      C4AD
 206 021b A6A85DE0 		.ascii	"\246\250]\340\232\255\234\351\315,\242\207\005\011\266"
 206      9AAD9CE9 
 206      CD2CA287 
 206      0509B6
 207 022a 31D3941D 		.ascii	"1\323\224\0354\227\331\355\201!\302mp\305r\027\246\354"
 207      3497D9ED 
 207      8121C26D 
 207      70C57217 
 207      A6EC
 208 023c 112F4CAC 		.ascii	"\021/L\254v\213\022k\363Th\3042,\324ID\\\234\260\212"
 208      768B126B 
 208      F35468C4 
 208      322CD449 
 208      445C9CB0 
 209 0251 FAEFC4D6 		.ascii	"\372\357\304\3262b3\305\037\205\244\026Jw\256d)3|k\217"
 209      326233C5 
 209      1F85A416 
 209      4A77AE64 
 209      29337C6B 
 210 0266 C70FC7F9 		.ascii	"\307\017\307\371qP\364\224\023\271\007w\323\364\000"
 210      7150F494 
 210      13B90777 
 210      D3F400
 211 0275 141A671C 		.ascii	"\024\032g\034kX\254\312};a\336\336\001\272\235H\237"
 211      6B58ACCA 
 211      7D3B61DE 
 211      DE01BA9D 
 211      489F
 212 0287 C7DBA99C 		.ascii	"\307\333\251\234<5\276\323-\251\364\314\264s_\232\373"
 212      3C35BED3 
 212      2DA9F4CC 
 212      B4735F9A 
 212      FB
 213 0298 58279784 		.ascii	"X'\227\204\367Ry\374G\341\261\231\343\3770\366\010\312"
ARM GAS  /tmp/ccw3xD8V.s 			page 16


 213      F75279FC 
 213      47E1B199 
 213      E3FF30F6 
 213      08CA
 214 02aa C0C13250 		.ascii	"\300\3012P\"p\006\322\3637\206\260\364\272\274c \353"
 214      227006D2 
 214      F33786B0 
 214      F4BABC63 
 214      20EB
 215 02bc F24F3C74 		.ascii	"\362O<t2a\\>\227HF\222\306\261\206\316\206#1\020\211"
 215      32615C3E 
 215      97484692 
 215      C6B186CE 
 215      86233110 
 216 02d1 4E2571FE 		.ascii	"N%q\376D[\253\232\354\210v\\J*\211\350\225\246F\245"
 216      445BAB9A 
 216      EC88765C 
 216      4A2A89E8 
 216      95A646A5 
 217 02e5 3DD6D1D4 		.ascii	"=\326\321\324\370\013`<3D"
 217      F80B603C 
 217      3344
 218              		.text
 219              		.section	.gnu.lto_.symbol_nodes.158793450d65de5,"",%progbits
 220 0000 789C4DC8 		.ascii	"x\234M\310\315\021\001A\030\204\341\236\236Y\366G\016"
 220      CD110141 
 220      1884E19E 
 220      9E59F647 
 220      0E
 221 0011 6213490F 		.ascii	"b\023I\017\313\032?\007\011p \024w18+1(\266v\312~}y"
 221      CB1A3F07 
 221      09702014 
 221      7731382B 
 221      3128B676 
 222 0029 EB698278 		.ascii	"\353i\202x!\217K\0128=\000\351\234\026E$\202<W\224\313"
 222      218F4B0A 
 222      383D00E9 
 222      9C164524 
 222      823C5794 
 223 003e EF2539B6 		.ascii	"\357%9\266\024\015\327\2247\334P\301\260\243\012\303"
 223      140DD794 
 223      37DC50C1 
 223      B0A30AC3 
 224 004e 2D35314C 		.ascii	"-51L\324\324pG\225#\335\221\252\006\306\350\334\201"
 224      D4D47047 
 224      9523DD91 
 224      AA06C6E8 
 224      DC81
 225 0060 AA47EDA9 		.ascii	"\252G\355\251\346/\217\031n\317\317\257\015\332\356"
 225      E62F8F19 
 225      6ECFCFAF 
 225      0DDAEE
 226 006f 3DF7A871 		.ascii	"=\367\250q\357\033\200k\377\227\271\325P|\001 \204E"
 226      EF1B806B 
 226      FF97B9D5 
 226      507C0120 
 226      8445
ARM GAS  /tmp/ccw3xD8V.s 			page 17


 227 0081 F6       		.ascii	"\366"
 228              		.text
 229              		.section	.gnu.lto_.refs.158793450d65de5,"",%progbits
 230 0000 789C6362 		.ascii	"x\234cb`b\340d\200\000F bdbdd\000\000\001\037\000\025"
 230      6062E064 
 230      80004620 
 230      62646264 
 230      64000001 
 231              		.text
 232              		.section	.gnu.lto_.decls.158793450d65de5,"",%progbits
 233 0000 789CBD5C 		.ascii	"x\234\275\\{t\024U\232\257\252~\245\223\030\036\216"
 233      7B741455 
 233      9AAFAA7E 
 233      A593181E 
 233      8E
 234 0011 8A3BEE9A 		.ascii	"\212;\356\232\361\314\354z<+y\300\000\256\273J&A\301"
 234      F1CCEC7A 
 234      3C2B79C0 
 234      00AEBB4A 
 234      2641C1
 235 0024 E57592E8 		.ascii	"\345u\222\350\301\263\273\247-\272\013\322c\222\316"
 235      C1B3BBA7 
 235      2DBA0BD2 
 235      6392CE
 236 0033 545730EC 		.ascii	"TW0\354\376a\231\360\020\007\005y\277\014D\205\341\341"
 236      FE6199F0 
 236      10070579 
 236      BF0C4485 
 236      E1E1
 237 0045 0B224894 		.ascii	"\013\"H\224G\343\210<\302@\000\011\022DZd\024\031\007"
 237      47E3883C 
 237      C2400009 
 237      12445A64 
 237      141907
 238 0058 51448908 		.ascii	"QD\211\010\331\357~U\325}\253R\325]\325\343n\237so\337"
 238      D9EF7E55 
 238      D57DAB52 
 238      D55DD5E3 
 238      6E9F736F 
 239 006d BAB9F7F7 		.ascii	"\272\271\367\367=\356\357\276\253\3031\0343\300\305"
 239      3DEEEFBE 
 239      ABC3311C 
 239      33C0C5
 240 007c 303DF099 		.ascii	"0=\360\231\371\020\303\014\3623L6\3030\367A\340 \264"
 240      F910C30C 
 240      F2334C36 
 240      C330F741 
 240      E020B4
 241 008f 4058CB28 		.ascii	"@X\313(\237\\\010\353 \344\303\037\212!\334\013\241"
 241      9F5C08EB 
 241      20E4C31F 
 241      8A21DC0B 
 241      A1
 242 00a0 04C24310 		.ascii	"\004\302C\020\306Cx\004B\000B\030B\015\204'!\260P\376"
 242      C6437804 
 242      42004218 
 242      420D8427 
ARM GAS  /tmp/ccw3xD8V.s 			page 18


 242      21B050FE 
 243 00b4 298ED17D 		.ascii	")\216\321}\010F?\010>\010y*\356\006\010\355\214R\036"
 243      08463F08 
 243      3E08792A 
 243      EE0608ED 
 243      8C521E
 244 00c7 D4613C10 		.ascii	"\324a<\020\266@\330\014\241\011\352\377\226St\371\037"
 244      B640D80C 
 244      A109EAFF 
 244      965374F9 
 244      1F
 245 00d8 F89E0661 		.ascii	"\370\236\006a:\204ZN\321q?\204\275\020\334*\366\223"
 245      3A845A4E 
 245      D1713F84 
 245      BD10DC2A 
 245      F693
 246 00ea AA7CA287 		.ascii	"\252|\242\207\027\236o\202\357[!\374=\204[ \374\234"
 246      179E6F82 
 246      EF5B21FC 
 246      3D845B20 
 246      FC9C
 247 00fc EBAD13B1 		.ascii	"\353\255\023\261\311\257\352\240\311%\362\266Q2\211"
 247      C9AFEAA0 
 247      C925F2B6 
 247      513289
 248 010b BE77708A 		.ascii	"\276wp\212~\232\314wT\235I}\"\377\237\341\373n\010\005"
 248      7E9ACC77 
 248      549D497D 
 248      22FF9FE1 
 248      FB6E0805 
 249 011f 26328A55 		.ascii	"&2\212U\177\334\241\346\263j\236\361s\257*\253\305\340"
 249      7FDCA1E6 
 249      B36A9EF1 
 249      73AF2AAB 
 249      C5E0
 250 0131 9F199CD2 		.ascii	"\237\031\234\322\026\353\325r\234Zv\235\212u\277\001"
 250      16EBD572 
 250      9C5A769D 
 250      8A75BF01 
 251 0141 AB4495B7 		.ascii	"\253D\225\267\201I\312+1\221\367\220I\271\207L\312\215"
 251      8149CA2B 
 251      3191F790 
 251      49B9874C 
 251      CA8D
 252 0153 372937DE 		.ascii	"7)7\336\244\034\341A\037\370\236\311%\365oQ\353\315"
 252      A41CE141 
 252      1FF89EC9 
 252      25F56F51 
 252      EBCD
 253 0165 82BC816A 		.ascii	"\202\274\201j]7e\323\034N\261\213\264\327\020\312\276"
 253      5D3765D3 
 253      1C4EB18B 
 253      B4D710CA 
 253      BE
 254 0176 4754FB48 		.ascii	"GT\373H\372? \372O\203\274@\012Y\273XE\206\306)3YA."
 254      FA3F20FA 
 254      4F83BC40 
ARM GAS  /tmp/ccw3xD8V.s 			page 19


 254      0A59BB58 
 254      4586C629 
 255 018e 292B40C9 		.ascii	")+@\311\022 \232d\220\345g\236\226\345F9\276Z\036\260"
 255      12209A64 
 255      90E5679E 
 255      96E54639 
 255      BE5A1EB0 
 256 01a2 04644D60 		.ascii	"\004dM`y6\317\317da\"\327\217b~\305\274,\313s\343\273"
 256      7936CFCF 
 256      646122D7 
 256      8F627EC5 
 256      BC2CCB73 
 257 01b8 3B6F92DD 		.ascii	";o\222\335<\333\302\372\001\354\237X\346.f\235\014\371"
 257      3CDBC2FA 
 257      01EC9F58 
 257      E62E669D 
 257      0CF9
 258 01ca B27CE696 		.ascii	"\262|\346\226\336\356r\200{\352\353].Y\316\342\331\325"
 258      DEEE7280 
 258      7BEAEB5D 
 258      2E59CEE2 
 258      D9D5
 259 01dc 88FC38CB 		.ascii	"\210\3748\313\360\354\313\354]*\016\317\262~\032\027"
 259      F0ECCBEC 
 259      5D2A0ECF 
 259      B27E1A17 
 260 01ec 9FB50204 		.ascii	"\237\265\002\004\014\377\254&zX\306Q\331\034\346\031"
 260      0CFFAC26 
 260      7A58C651 
 260      D91CE619 
 261 01fc A2E4AA19 		.ascii	"\242\344\252\031\362\310\275y\212i\252\242\371\232\242"
 261      F2C8BD79 
 261      8A69AAA2 
 261      F99AA2
 262 020b 6E15692D 		.ascii	"n\025i-\233\243\301\336\3164\313\261\213\361\2233\027"
 262      9BA3C1DE 
 262      CE34CBB1 
 262      8BF19333 
 262      17
 263 021c FFC35239 		.ascii	"\377\303R96M\356\351y\222\271\231Y\010\316 H2+\241\355"
 263      364DEEE9 
 263      7992B999 
 263      5908CE20 
 263      48322BA1 
 264 0231 B20ACB98 		.ascii	"\262\012\313\230B\252\266\257|\346\320a\266\011\352"
 264      42AAB6AF 
 264      7CE6D061 
 264      B609EA
 265 0240 F0EC06B4 		.ascii	"\360\354\006\264\276\203\325\233o\037j\365\231\0179"
 265      BE83D59B 
 265      6F1F6AF5 
 265      990F39
 266 024f 74E36B08 		.ascii	"t\343k\010\324\2311\320\251\355\177T\332c#\002}\314"
 266      D49931D0 
 266      A9ED7F54 
 266      DA632302 
 266      7DCC
ARM GAS  /tmp/ccw3xD8V.s 			page 20


 267 0261 1A1BC46B 		.ascii	"\032\033\304kh\020\257\336\311\360H$]!\243/\373\244"
 267      6810AFDE 
 267      C9F04824 
 267      5D21A32F 
 267      FBA4
 268 0273 9A431E7C 		.ascii	"\232C\036|\314\377{=\253\326\\\317\336\214)\027\366"
 268      CCFF7B3D 
 268      ABD65CCF 
 268      DE8C2917 
 268      F6
 269 0284 0B3D0FFA 		.ascii	"\013=\017\3723\317\243\247\206S~\032\256\001d%\375\264"
 269      33CFA3A7 
 269      86537E1A 
 269      AE016425 
 269      FDB4
 270 0296 71CE1AC5 		.ascii	"q\316\032\305\341[\330\376\000\363\203\301Oia\210\036"
 270      E15BD8FE 
 270      00F383C1 
 270      4F696188 
 270      1E
 271 02a7 6D5055A9 		.ascii	"mPU\251\204\240r\254'\224\257\3442:0\335\347\027\314"
 271      84A072AC 
 271      2794AFE4 
 271      323A30DD 
 271      E717CC
 272 02ba 2AD03636 		.ascii	"*\32066\177]\033+\317\310\36513\260\243MoL\323\321b"
 272      7F5D1B2B 
 272      CFC8F531 
 272      33B0A34D 
 272      6F4CD3D1 
 273 02cf 57B3389E 		.ascii	"W\2638\236\335\306\372@\331&N\257\254\015\020\242\320"
 273      DDC6FA40 
 273      D9264EAF 
 273      AC0D10A2 
 273      D0
 274 02e0 4EA8AC53 		.ascii	"N\250\254S\367\222\233SrS\250\213>\346\230\271 \222"
 274      F7929B53 
 274      7253A88B 
 274      3EE698B9 
 274      2092
 275 02f2 C0B9FDC9 		.ascii	"\300\271\375\311\274\226d\036K\025}-\231\255\215Vi{"
 275      BC96641E 
 275      4B157D2D 
 275      99AD8D56 
 275      697B
 276 0304 7A52359E 		.ascii	"zR5\236\215\261\277\202x\027\3532\255\3061;\320z\342"
 276      8DB1BF82 
 276      7817EB32 
 276      ADC6313B 
 276      D07AE2
 277 0317 653343D5 		.ascii	"e3C\325dRn^\202\357\252\347\027^\336J<\257\215\205\357"
 277      64526E5E 
 277      82EFAAE7 
 277      175EDE4A 
 277      3CAF8D85 
 278 032c 3986CBD2 		.ascii	"9\206\313\322\301-n\331\307\312\363r\315H\230O\221'"
 278      C12D6ED9 
ARM GAS  /tmp/ccw3xD8V.s 			page 21


 278      C7CAF372 
 278      CD48984F 
 278      9127
 279 033e E6D2B086 		.ascii	"\346\322\260\206%I\330\332yl\215:\200\034@\032>\347"
 279      2549D8DA 
 279      796C8D3A 
 279      801C401A 
 279      3EE7
 280 0350 32A5A135 		.ascii	"2\245\2415\020\317\036d9\210\017\031\251\370\365\262"
 280      10CF1E64 
 280      39880F19 
 280      A9F8F5B2 
 281 0360 5C32DE1F 		.ascii	"\\2\336\037\262E\306\356\256\346[\344x\214\265\315\306"
 281      B245C6EE 
 281      AEE65BE4 
 281      788CB5CD 
 281      C6
 282 0371 F8D75DC7 		.ascii	"\370\327]\307\213\260\373\034AF\266\2732b\3441##\017"
 282      8BB0FB1C 
 282      4146B6BB 
 282      3262E431 
 282      23230F
 283 0384 CFE843B4 		.ascii	"\317\350C\264>f\213\223\235\256\336\234\374\304e\312"
 283      3E668B93 
 283      9DAEDE9C 
 283      FCC465CA 
 284 0394 C9F32E3D 		.ascii	"\311\363.='\325\354o\223\331.*\273\321\235\310v\323"
 284      27D5EC6F 
 284      93D92E2A 
 284      BBD19DC8 
 284      76D3
 285 03a6 7D2099ED 		.ascii	"} \231\355\261K\354c\024\261;\221\330\307-\210\315\263"
 285      B14BEC63 
 285      14B13B91 
 285      D8C72D88 
 285      CDB3
 286 03b8 7B122D99 		.ascii	"{\022-\231\021\261\343\255\213\316~\306\316o\222\367"
 286      11B1E3AD 
 286      8BCE7EC6 
 286      CE6F92F7 
 287 03c8 169A8E88 		.ascii	"\026\232\216\210@3\212F\217i\200\271\211F\215m\357b"
 287      40338A46 
 287      8F6980B9 
 287      89468D6D 
 287      EF62
 288 03da F34D18A7 		.ascii	"\363M\030\247+\312\263\237\201\031\351J\221r\347\214"
 288      2BCAB39F 
 288      8119E94A 
 288      9172E78C 
 289 03ea 947CA10B 		.ascii	"\224|\241\013)y\316\026%7v-tF\311\330\327\307Y\030}"
 289      2979CE16 
 289      2537762D 
 289      7446C9D8 
 289      D7C75918 
 290 03ff FF827C5C 		.ascii	"\377\202|\\\356\316\210\217\027\214|<\261\030\371x\301"
 290      EECE888F 
 290      178C7C3C 
ARM GAS  /tmp/ccw3xD8V.s 			page 22


 290      B118F978 
 290      C1
 291 0410 161FFFE0 		.ascii	"\026\037\377\340\246\270\247\346mr\233\022\357}\267"
 291      A6B8A7E6 
 291      6D729B12 
 291      EF7DB7
 292 041f 9E7876A8 		.ascii	"\236xv\250t\201\242\322WH\245\213\226c\344\207h\377"
 292      7481A2D2 
 292      5748A58B 
 292      9663E487 
 292      68FF
 293 0431 B98CC7C8 		.ascii	"\271\214\307\310\326\256\205\267\312\253\336e\325u\240"
 293      D6AE85B7 
 293      CAABDE65 
 293      D575A0
 294 0440 8D75C7EE 		.ascii	"\215u\307\3563qe>\275\202\243j\334m\262\200\261\005"
 294      3371653E 
 294      BD82A36A 
 294      DC6DB280 
 294      B105
 295 0452 74EA9376 		.ascii	"t\352\223ve\001s\025\201\276p\033\0270>\303\002\306"
 295      65017315 
 295      81BE701B 
 295      17303EC3 
 295      02C6
 296 0464 A75F50F8 		.ascii	"\247_P\370\374\311\004YG\364a\234\026\207q\301\350>"
 296      FCC90459 
 296      47F4619C 
 296      168771C1 
 296      E83E
 297 0476 9DA266EE 		.ascii	"\235\242f\356\313\247\335\007=\361\340\026\366\233F"
 297      CBA7DD07 
 297      3DF1E016 
 297      F69B46
 298 0485 7949A17D 		.ascii	"yI\241}\372\316\357\"\364\2259B_\331\223\021}\2338\003"
 298      FACEEF22 
 298      F4953942 
 298      5FD99311 
 298      7D9B3803 
 299 0499 7DAF2AF4 		.ascii	"}\257*\364%\371\351\351;\307\323\233\276\315\036S\372"
 299      25F9E9E9 
 299      3BC7D39B 
 299      BECD1E53 
 299      FA
 300 04aa BEE1714E 		.ascii	"\276\341qN\337\244r<;\215#\364\235\316Y\321w\267\307"
 300      DFA4723C 
 300      3B8D23F4 
 300      9DCE59D1 
 300      77B7C7
 301 04bd 067DB34C 		.ascii	"\006}\263L\350K\311S$}\201\035\345<\373\013\210\277"
 301      E84BC953 
 301      247D811D 
 301      E53CFB0B 
 301      88BF
 302 04cf C7B807E2 		.ascii	"\307\270\007\342\304\007\226\354\036#\277\224\361\211"
 302      C40796EC 
 302      1E23BF94 
ARM GAS  /tmp/ccw3xD8V.s 			page 23


 302      F189
 303 04dd 424A0E64 		.ascii	"BJ\016dL*,\253\325\352\331\344\336\203c\272P\334\241"
 303      4C2A2CAB 
 303      D5EAD9E4 
 303      DE8363BA 
 303      50DCA1
 304 04f0 4C99155B 		.ascii	"L\231\025[z\262\331Y\307\214\355\\\214\033\2779\034"
 304      7AB2D959 
 304      C78CED5C 
 304      8C1BBF39 
 304      1C
 305 0501 69C24F7A 		.ascii	"i\302OzY{\305\270A\263\323?\276\264c\205Y\373\240\025"
 305      597BC5B8 
 305      41B3D33F 
 305      BEB46385 
 305      59FBA015 
 306 0515 72ACF564 		.ascii	"r\254\365d3K\2540\231FdV\253\3377aC\374\370W\347>c\033"
 306      334BAC30 
 306      99466456 
 306      ABDF3761 
 306      43FCF857 
 307 052d 719DB480 		.ascii	"q\235\264\200#\353\244?x\323\256\223\364@\034\363:V"
 307      23EBA43F 
 307      78D3AE93 
 307      F4401CF3 
 307      3A56
 308 053f 59CC1926 		.ascii	"Y\314\031&\245\313|\276\222\233nJ\222c\337\377\331\017"
 308      A5CB7CBE 
 308      929B6E4A 
 308      9263DFFF 
 308      D90F
 309 0551 0B3D1351 		.ascii	"\013=\023Qf\373\213\223\227\342\267\356\223\345\276"
 309      66FB8B93 
 309      97E2B7EE 
 309      93E5BE
 310 0560 3CBB1C35 		.ascii	"<\273\0345\276`\256\261\365\006\203c\256c\225f\203\306"
 310      BE60AEB1 
 310      F5068363 
 310      AE639566 
 310      83C6
 311 0572 F19D3FEC 		.ascii	"\361\235?\354\375\273%\210\334lC\355\306\330\261\031"
 311      FDBB2588 
 311      DC6C43ED 
 311      C6D8B119 
 312 0582 2F2065D2 		.ascii	"/ e\322\255PW\2715\361eI3\272.\305\006\340h\374\022"
 312      AD5057B9 
 312      35F16549 
 312      33BA2EC5 
 312      06E068FC 
 313 0597 5AF19E2F 		.ascii	"Z\361\236/\255\337\3650\034\363'\254\262\246\267\025"
 313      ADDFF530 
 313      1CF327AC 
 313      B2A6B715 
 314 05a7 F19F2B56 		.ascii	"\361\237+V\254\261e\305U\325\012\236}\221\313\001\330"
 314      ACB165C5 
 314      55D50A9E 
 314      7D91CB01 
ARM GAS  /tmp/ccw3xD8V.s 			page 24


 314      D8
 315 05b8 E30958BB 		.ascii	"\343\011X\273\035I\217w\375\375\334\271\274\006\366"
 315      1D498F77 
 315      FDFDDCB9 
 315      BC06F6
 316 05c7 B163B07C 		.ascii	"\261c\260|\035\330\374=+\034N\227+\367\037\324\216\016"
 316      1DD8FC3D 
 316      2B1C4E97 
 316      2BF71FD4 
 316      8E0E
 317 05d9 5EC39EF9 		.ascii	"^\303\236\371g\337O\3223\377j\307\022\353\236\011\315"
 317      67DF4FD2 
 317      33FF6AC7 
 317      12EB9E09 
 317      CD
 318 05ea D2715BDB 		.ascii	"\322q[\333&Y\236\345\325\010\352\265\262\004\246I\024"
 318      26599EE5 
 318      D508EAB5 
 318      B204A649 
 318      14
 319 05fb D66A6CDA 		.ascii	"\326jl\332\356\236\216\273\225\246m\265\325\264o\265"
 319      EE9E8EBB 
 319      95A66DB5 
 319      D5B46FB5 
 320 060b 2FB64750 		.ascii	"/\266GP\257&>\204\342\267d\021\361[\215\342\027\256"
 320      AF263E84 
 320      E2B76411 
 320      F15B8DE2 
 320      17AE
 321 061d F9E23E45 		.ascii	"\371\342>E\374V[\342O\037Z\320[<\317\336wS\252\366\353"
 321      FC565BE2 
 321      4F1F5AD0 
 321      5B3CCFDE 
 321      7753AAF6 
 322 0632 EEB978E7 		.ascii	"\356\271x\347J\024\262\015\031$\373\215\315w\177\016"
 322      4A14B20D 
 322      1924FB8D 
 322      CD777F0E 
 323 0642 2D0B9FA9 		.ascii	"-\013\237\251\002\0343\313\257i\237\021\201\301\314"
 323      021C33CB 
 323      AF699F11 
 323      81C1CC
 324 0651 5DF7AFC3 		.ascii	"]\367\257\303\226\322tx\3261\242\236\305\337\034\302"
 324      96D27478 
 324      D631A29E 
 324      C5DF1CC2 
 325 0661 2EA1803D 		.ascii	".\241\200=o\007\314\222H\215\261oi\260\205\216\301\364"
 325      6F07CC92 
 325      488DB16F 
 325      69B0858E 
 325      C1F4
 326 0673 9A7D4783 		.ascii	"\232}G\203-\265\003\326\327Z\263+4\330\013\216\301\364"
 326      2DB503D6 
 326      D75AB32B 
 326      34D80B8E 
 326      C1F4
 327 0685 9AFD4083 		.ascii	"\232\375@\203\265\330\001\033`\255\331\2174\330j\307"
ARM GAS  /tmp/ccw3xD8V.s 			page 25


 327      B5D8011B 
 327      60ADD98F 
 327      34D86AC7 
 328 0695 607ACDAE 		.ascii	"`z\315\256\323`\353\354\200\345[k6\367\010\005\366\252"
 328      D360EBEC 
 328      80E55B6B 
 328      36F70805 
 328      F6AA
 329 06a7 6330BD66 		.ascii	"c0\275f\363h\260\215v\300\356\264\326l\001\015\266\331"
 329      F368B08D 
 329      76C0EEB4 
 329      D66C010D 
 329      B6D9
 330 06b9 31985EB3 		.ascii	"1\230^\263E4X\233\035\260Bk\315\226\320`\333\035\203"
 330      4534589B 
 330      1DB0426B 
 330      CD96D060 
 330      DB1D83
 331 06cc E9355B46 		.ascii	"\3515[F\203\355\262\0036\314Z\263\0254\330n\307`z\315"
 331      83EDB203 
 331      36CC5AB3 
 331      1534D86E 
 331      C7607ACD 
 332 06e0 DEA0C1F6 		.ascii	"\336\240\301\366\331\001\033n\255\331&\032\354\200c"
 332      D9011B6E 
 332      ADD9261A 
 332      EC8063
 333 06ef 30BD666F 		.ascii	"0\275fo\322`\207\354\200\215\264\326l\013\015v\3041"
 333      D26087EC 
 333      808DB4D6 
 333      6C0B0D76 
 333      C431
 334 0701 985EB3AD 		.ascii	"\230^\263\2554\3301;`\343\2555{\233\006\373\3201\230"
 334      34D8313B 
 334      60E3AD35 
 334      7B9B06FB 
 334      D03198
 335 0714 5EB36D34 		.ascii	"^\263m4\330I;`\023\2545\333A\203\235v\014\246\327\254"
 335      D8493B60 
 335      13AC35DB 
 335      41839D76 
 335      0CA6D7AC 
 336 0728 8306FBD4 		.ascii	"\203\006\373\324\016\330c&\232%>f\365\3104\375\026G"
 336      0ED86326 
 336      9A253E66 
 336      F5C834FD 
 336      1647
 337 073a EDD63EF3 		.ascii	"\355\326>\363k\013\034\207s4\223\3048\357w\272\"\323"
 337      6B0B1C87 
 337      733493C4 
 337      38EF77BA 
 337      22D3
 338 074c D94D16CA 		.ascii	"\331M\026\312\267\275\255\316\363\312j\365\242\035\304"
 338      B7BDADCE 
 338      F3CA6AF5 
 338      A21DC4
 339 075b 1413E0B2 		.ascii	"\024\023\340\262=\324\322\367\212c0\003\225\011\230"
ARM GAS  /tmp/ccw3xD8V.s 			page 26


 339      3DD4D2F7 
 339      8A633003 
 339      950998
 340 076a 6EE994B8 		.ascii	"n\351\224\270;\214\245>\362 \227\217\034u\3218\300\274"
 340      3B8CA53E 
 340      F220978F 
 340      1C75D138 
 340      C0BC
 341 077c 2CCF76E3 		.ascii	",\317v\343i\301\017\234?\241\205\222\326R\312\231\201"
 341      69C10F9C 
 341      3FA18592 
 341      D652CA99 
 341      81
 342 078d 9CAD3F71 		.ascii	"\234\255?qH|\322U\265b\302\3674\023\246g\333pS\212\251"
 342      487CD255 
 342      B562C2F7 
 342      3413A667 
 342      DB70538A 
 343 07a2 FDF49E15 		.ascii	"\375\364\236\025x\234i\377bu\3453\177\322v\010\327q"
 343      789C69FF 
 343      6275E533 
 343      7FD27608 
 343      D771
 344 07b4 87303BDB 		.ascii	"\2070;\333\270\304lqx\271\012\0131\243\031f\007+\326"
 344      B8C46C71 
 344      78B90A0B 
 344      31A31966 
 344      072BD6
 345 07c7 8B0A20E3 		.ascii	"\213\012 \343\207\267\267\275&"
 345      87B7B7BD 
 345      26
 346 07d0 CB4D5E07 		.ascii	"\313M^\007\206\354?\240\031\322\344\"\206\274\360\023"
 346      86EC3FA0 
 346      19D2E422 
 346      86BCF013 
 347 07e0 18B2DAB1 		.ascii	"\030\262\332\261!w\032\014\211\335\351\334\220D\213"
 347      21771A0C 
 347      89DDE9DC 
 347      90448B
 348 07ef 3C8D86BC 		.ascii	"<\215\206\274\372\023\030\262\331\261!\205\224!\270"
 348      FA1318B2 
 348      D9B12185 
 348      9421B8
 349 07fe 611BA86C 		.ascii	"a\033\250l\330nd\346\245\336\260\021}\236u\335h8\341"
 349      D86E64E6 
 349      A5DEB011 
 349      7D9E75DD 
 349      6838E1
 350 0811 DE4F8E1D 		.ascii	"\336O\216\035I\266\215\003\220\375+\324=\270r\335\275"
 350      49B68D03 
 350      90FD2BD4 
 350      3DB872DD 
 350      BD
 351 0822 0D752775 		.ascii	"\015u'u\035\016\217*\336\202v\034\210\024\260?\376M"
 351      1D0E8F2A 
 351      DE82761C 
 351      8814B03F 
ARM GAS  /tmp/ccw3xD8V.s 			page 27


 351      FE4D
 352 0834 608DB1D6 		.ascii	"`\215\261\326\337k\007\004\367\343\342\341o\204;\334"
 352      DF6B0704 
 352      F7E3E2E1 
 352      6F843BDC 
 353 0844 EE784BFF 		.ascii	"\356xK\377\314\007\032=\026!=\216\366\242GF[\372\323"
 353      CC071A3D 
 353      16213D8E 
 353      F6A24746 
 353      5BFAD3
 354 0857 995A92F8 		.ascii	"\231Z\222\370\300Dfg\370\312\267l)`\331\225\2016\217"
 354      C0446667 
 354      F8CAB76C 
 354      2960D995 
 354      81368F
 355 086a 0512E75F 		.ascii	"\005\022\347_\347\006\354\305\015\362\012\02799:op\206"
 355      E706ECC5 
 355      0DF20A17 
 355      39393A6F 
 355      7086
 356 087c 8DE3856E 		.ascii	"\215\343\205n\254\262\322\325\353\344\250\343Ve\177"
 356      ACB2D2D5 
 356      EBE4A8E3 
 356      56657F
 357 088b 4FFE64E3 		.ascii	"O\376d\343xAwr\304\263\3539N\205\315\324\237\272&L\352"
 357      78417772 
 357      C4B3EB39 
 357      4E85CDD4 
 357      9FBA264C 
 358 08a0 07DDDF45 		.ascii	"\007\335\337Ef\252\027]\272\023\346Y9N}\237O\373>v\265"
 358      66AA175D 
 358      BA13E659 
 358      394E7D9F 
 358      4FFB3E76 
 359 08b5 7D05ABE8 		.ascii	"}\005\253\350\257\234$\3167\342\015\247W\021j\322r\307"
 359      AF9C24CE 
 359      37E20DA7 
 359      57116AD2 
 359      72C7
 360 08c7 24C7E61D 		.ascii	"$\307\346\035\244z]\263\035\345Rlr\232\0250\205\360"
 360      A47A5DB3 
 360      1DE5526C 
 360      729A1530 
 360      85F0
 361 08d9 2F3B06CB 		.ascii	"/;\006\313\327\201m\177\316\344\244R9\235\265\032\317"
 361      D7816D7F 
 361      CEE4A452 
 361      399DB51A 
 361      CF
 362 08ea 36B8A849 		.ascii	"6\270\250I\372u;\362S\354\213\216\035\324\3067\345L"
 362      FA753BF2 
 362      53EC8B8E 
 362      1DD4C637 
 362      E54C
 363 08fc AECD319E 		.ascii	"\256\3151\236\336\236\257\237\323\015I\357\331\201\033"
 363      DE9EAF9F 
 363      D30D49EF 
ARM GAS  /tmp/ccw3xD8V.s 			page 28


 363      D9811B
 364 090b 6E9B78C9 		.ascii	"n\233x\311#U\236]\213K\244u\034\271\224\330\200\361"
 364      23559E5D 
 364      8B4BA475 
 364      1CB994D8 
 364      80F1
 365 091d AB186FC2 		.ascii	"\253\030o\302\370\033\214\277\305\370;\214\257a\334"
 365      F81B8CBF 
 365      C5F83B8C 
 365      AF61DC
 366 092c E822F14C 		.ascii	"\350\"\361L\214gc\274\034\343\2271^\203\361Z\214\327"
 366      8C6763BC 
 366      1CE39731 
 366      5E83F15A 
 366      8CD7
 367 093e 63FC2AC6 		.ascii	"c\374*\306\257\323\364\266j\027\245\253%:\246\326\353"
 367      AFD3F4B6 
 367      6A17A5AB 
 367      253AA6D6 
 367      EB
 368 094f 9A333EAF 		.ascii	"\2323>\257\355L\236\327\362\354+\216\301\362Sy\262\231"
 368      ED4C9ED7 
 368      F2EC2B8E 
 368      C1F25379 
 368      B299
 369 0961 F2E42AF4 		.ascii	"\362\344*\364d\013\372g\243\276#\037\310\321n\020Rt"
 369      640BFA67 
 369      A3BE231F 
 369      C8D16E10 
 369      5274
 370 0973 3C6B13E2 		.ascii	"<k\023\342\235_\235\363\221W\316\\\332\332\373\003#"
 370      9D5F9DF3 
 370      9157CE5C 
 370      DADAFB03 
 370      23
 371 0984 60DAAD81 		.ascii	"`\332\255\201\336'\327\005\303U\277r=b\325&[\350\276"
 371      DE27D705 
 371      C355BF72 
 371      3D62D526 
 371      5BE8BE
 372 0997 F29163D9 		.ascii	"\362\221c\331)]\270\230r\341Rt\3412ta+Rf3\355H\236]"
 372      295DB898 
 372      72E15274 
 372      E1327461 
 372      2B526633 
 373 09af C2195E74 		.ascii	"\302\031^t\320\337\325\244\020\236\270_\275\334i\362"
 373      D0DFD5A4 
 373      109EB85F 
 373      BDDC69F2 
 374 09bf A683724B 		.ascii	"\246\203rK\221bRZ\274\363\304m\257\340\324\321\346\""
 374      9162525A 
 374      BCF3C46D 
 374      AFE0D4D1 
 374      E622
 375 09d1 0DB03CD7 		.ascii	"\015\260<\3278C\277\310\031\216m\015D\346\230\327rm"
 375      3843BFC8 
 375      198E6D0D 
ARM GAS  /tmp/ccw3xD8V.s 			page 29


 375      44E698D7 
 375      726D
 376 09e3 DC7DA558 		.ascii	"\334}\245XB\267.\372\276\223mj\222\327\026\252K\013"
 376      42B72EFA 
 376      BE936D6A 
 376      92D716AA 
 376      4B0B
 377 09f5 79867CE7 		.ascii	"y\206|\347\332\344$\330W\303\340\022z\3076+wx;p\224"
 377      DAE424D8 
 377      57C3E012 
 377      7AC7362B 
 377      77783B70 
 378 0a0a DD6C50DA 		.ascii	"\335lP\3326L|\367\362\233\011\314.\204\331\2311\314"
 378      364C7CF7 
 378      F29B09CC 
 378      2E84D999 
 378      31CC
 379 0a1c A9B6FDCA 		.ascii	"\251\266\375\312\015\375{\010\264\267\227\023]\206U"
 379      0DFD7B08 
 379      B4B79713 
 379      5D8655
 380 0a2b 8E4BBFCA 		.ascii	"\216K\277\312q\371\223\211\236\036\027\363\177X\230"
 380      71F99389 
 380      9E1E17F3 
 380      7F5898
 381 0a3a 67F7195F 		.ascii	"g\367\031_\252\321Y\224n\345C\232\353\232J5\355\325"
 381      AAD15994 
 381      6EE5439A 
 381      EB9A4A35 
 381      EDD5
 382 0a4c 86A37608 		.ascii	"\206\243v\010\240C\324\021 \366\343I\034\311\024\260"
 382      A043D411 
 382      20F6E349 
 382      1CC914B0 
 383 0a5c 5376C052 		.ascii	"Sv\300R\034\177.l^iyw\262*\355\033?\361\225\237\357"
 383      1C7F2E6C 
 383      5E697977 
 383      B22AED1B 
 383      3FF1959F 
 384 0a71 FB57B264 		.ascii	"\373W\262dM\377\326\317A\227\275\267~:\\\306\013\326"
 384      4DFFD6CF 
 384      4197BDB7 
 384      7E3A5CC6 
 384      0BD6
 385 0a83 83F8D64F 		.ascii	"\203\370\326O\207\255\265\332\367f+\000\263\227\340"
 385      87ADB5DA 
 385      F7662B00 
 385      B397E0
 386 0a92 1203C680 		.ascii	"\022\003\306\200\2441\333\377\262\357>e\375\375\201"
 386      A431DBFF 
 386      B2EF3E65 
 386      FDFD81
 387 0aa1 B2E4BC21 		.ascii	"\262\344\274!\375\313t:\034\242\337q\243\376\255\207"
 387      FDCB743A 
 387      1CA2DF71 
 387      A3FEAD87 
 388 0ab1 50FFE3E9 		.ascii	"P\377\343\351\365\237\326\024{K\275K\302\316\324\224"
ARM GAS  /tmp/ccw3xD8V.s 			page 30


 388      F59FD614 
 388      7B4BBD4B 
 388      C2CED494 
 389 0ac1 72D7C0B3 		.ascii	"r\327\300\263\335\370n\202\235-\3005\264\344\270\363"
 389      DDF86E82 
 389      9D2DC035 
 389      B4E4B8F3 
 390 0ad1 25ABAAD6 		.ascii	"%\253\252\326V\345.\240\013\373\253\234\347\024,_\007"
 390      56E52EA0 
 390      0BFBAB9C 
 390      E7142C5F 
 390      07
 391 0ae2 F6360D36 		.ascii	"\3666\0156\335\016\230\325\024\006`\333h\260Y\216\301"
 391      DD0E98D5 
 391      140660DB 
 391      68B0598E 
 391      C1
 392 0af3 F49AEDA0 		.ascii	"\364\232\355\240\301\236\263\003fuJ\006`\0354\330|\307"
 392      C19EB303 
 392      66754A06 
 392      601D34D8 
 392      7CC7
 393 0b05 60F9662C 		.ascii	"`\371f,az\221\214g?\304=\303\011\234'?\302\370c\214"
 393      617A918C 
 393      673FC43D 
 393      C3099C27 
 393      3FC2F863 
 394 0b1a E3189FC1 		.ascii	"\343\030\237\301\370\254\235%\327Qzz_\214\012wd\306"
 394      F8AC9D25 
 394      D7517A7A 
 394      5F8C0A77 
 394      64C6
 395 0b2c 1818F656 		.ascii	"\030\030\366V~\376\311\275\312\251\243a\206%\376\260"
 395      7EFEC9BD 
 395      CAA9A361 
 395      8625FEB0 
 396 0b3c D2E01CAD 		.ascii	"\322\340\034\255A\263c\015\362i\015bW\017*'f\332{\272"
 396      41B3630D 
 396      F2690D62 
 396      570F2A27 
 396      66DA7BBA 
 397 0b50 2F19F1EC 		.ascii	"/\031\361\354\276\023\244-\226\016\346\274\361\230\006"
 397      BE13A42D 
 397      960EE6BC 
 397      F19806
 398 0b5f B6DE3198 		.ascii	"\266\3361\230\376\245\337\271\207(\2607\035\203\365"
 398      FEA5DFB9 
 398      8728B037 
 398      1D83F5
 399 0b6e EDC50885 		.ascii	"\355\305\010\205\013\207\221\013G\260\315?\307\370<"
 399      0B87910B 
 399      47B0CD3F 
 399      C7F83C
 400 0b7d C65F627C 		.ascii	"\306_b|A\277\034}'\3178\357*c,\205\232\034\214\031\273"
 400      41BF1C7D 
 400      27CF38EF 
 400      2A632C85 
ARM GAS  /tmp/ccw3xD8V.s 			page 31


 400      9A1C8C19 
 401 0b92 B8566D7B 		.ascii	"\270Vm{\200n\333\203yNg-]\333\302\244\272\347smR=\200"
 401      806EDB83 
 401      794E672D 
 401      5DDBC2A4 
 401      BAE7736D 
 402 0ba9 2BB10FEC 		.ascii	"+\261\017\354 \246\330\207\276\371\261\361\030\332l"
 402      20A6D887 
 402      BEF9B1F1 
 402      18DA6C
 403 0bb8 B4E768DD 		.ascii	"\264\347h\335\022\263\306\256G\225Y\343;\2345\272\362"
 403      12B3C6AE 
 403      479559E3 
 403      3B9C35BA 
 403      F2
 404 0bc9 D2CF1A9C 		.ascii	"\322\317\032\234\336F\030\312\215\263F\367Q\2345\272"
 404      DE4618CA 
 404      8DB346F7 
 404      519C35BA 
 405 0bd9 6DCD1AD7 		.ascii	"m\315\032\327\216.P\367\211\312h\363\031\252\320\235"
 405      8E2E50F7 
 405      89CA68F3 
 405      19AAD09D 
 406 0be9 F1707FFD 		.ascii	"\361p\177\375(5t\235w\014\226\257\003\233\333I\201]"
 406      2835749D 
 406      770C96AF 
 406      039BDB49 
 406      815D
 407 0bfb B0039662 		.ascii	"\260\003\226b\270\237G\203]r\014\246\327l\001\015v\305"
 407      B89F4783 
 407      5D720CA6 
 407      D76C010D 
 407      76C5
 408 0c0d 0E588AE1 		.ascii	"\016X\212\341~\021\015v\3251\230^\263%4X\217\0350\253"
 408      7E110D76 
 408      D531985E 
 408      B3253458 
 408      8F1D30AB 
 409 0c21 AB03005B 		.ascii	"\253\003\000[F\2035\365q\012\246\327l\005\0156\323\016"
 409      468335F5 
 409      710AA6D7 
 409      6C050D36 
 409      D30E
 410 0c33 58BEB566 		.ascii	"X\276\265f\3154\330\263\216\301\362\315\272\204\362"
 410      CD34D8B3 
 410      8EC1F2CD 
 410      BA84F2
 411 0c42 A17B14CF 		.ascii	"\241{\024\317\376\200\303\342U\034\254\256a\334\203"
 411      FE80C3E2 
 411      551CACAE 
 411      61DC83
 412 0c51 F1536E12 		.ascii	"\361Sn\0227a<\035\343\231\030\317\302\370\367\030?\353"
 412      37613C1D 
 412      E39918CF 
 412      C2F8F718 
 412      3FEB
 413 0c63 B631B85D 		.ascii	"\2661\270]\246\007\267y}\234\016E)\015I\3762\003\306"
ARM GAS  /tmp/ccw3xD8V.s 			page 32


 413      A607B779 
 413      7D9C0E45 
 413      290D49FE 
 413      3203C6
 414 0c76 635CF11D 		.ascii	"c\\\361\035\306wG?\305\3709\334%\317\307x+\032\265\035"
 414      C677473F 
 414      C5F839DC 
 414      25CFC778 
 414      2B1AB51D 
 415 0c8a E33D18EF 		.ascii	"\343=\030\357\303\270\035\343o0\376\326\316X\335\236"
 415      C3B81DE3 
 415      6F30FED6 
 415      CE58DD9E 
 416 0c9a 7CE39467 		.ascii	"|\343\224g\347\270\311\006\250\315\371\033\247\346\346"
 416      E7B8C906 
 416      A8CDF91B 
 416      A7E6E6
 417 0ca9 B451E6BC 		.ascii	"\264Q\346\274\215\346\274\203\206\354\305x\277\235\027"
 417      8DE6BC83 
 417      86ECC578 
 417      BF9D17
 418 0cb8 623727D5 		.ascii	"b7'\325S\177\301\225\370\201^\342Y\275HI\367w\236}8"
 418      537FC195 
 418      F8815EE2 
 418      59BD4849 
 418      F7779E7D 
 419 0ccd B925E498 		.ascii	"\271%\344\230E}\364c\367/\231\227dy\036\371\255\337"
 419      457DF463 
 419      F72F9997 
 419      64791EF9 
 419      ADDF
 420 0cdf 84A572CC 		.ascii	"\204\245r\314\255\210\346\2305Xl\035{\273\305\302\034"
 420      AD88E698 
 420      35586C1D 
 420      7BBBC5C2 
 420      1C
 421 0cf0 1554EACA 		.ascii	"\025T\352\312'\204\221\212t\216Y\233\246\332Z\252\332"
 421      2784918A 
 421      748E599B 
 421      A6DA5AAA 
 421      DA
 422 0d01 FCF7730A 		.ascii	"\374\367s\012\265\365\301+\306z\206\373M\264E\255\267"
 422      B5F5C12B 
 422      C67A86FB 
 422      4DB445AD 
 422      B7
 423 0d12 F3FDDCB9 		.ascii	"\363\375\334\271\254&\360\015\007\002\273)\201o\332"
 423      AC26F00D 
 423      0702BB29 
 423      816FDA
 424 0d21 11C830FF 		.ascii	"\021\3100\377\310\254&3\333\366\263\343G*\307\301L\012"
 424      C8AC2633 
 424      DBF6B3E3 
 424      472AC7C1 
 424      4C0A
 425 0d33 696ADB2D 		.ascii	"ij\333-p\353~\201J~L\271*\036[\372\311^\026t\370\221"
 425      70EB7E81 
ARM GAS  /tmp/ccw3xD8V.s 			page 33


 425      4A7E4CB9 
 425      2A1E5BFA 
 425      C95E1674 
 426 0d49 ECB9CD7E 		.ascii	"\354\271\315~Ki\343rm\365\"<\342x\021\3374\337jhG\373"
 426      4B69E372 
 426      6DF5223C 
 426      E27811DF 
 426      34DF6A68 
 427 0d5f 30A7FEDA 		.ascii	"0\247\376\332\255\374\014a5\002\3554\000\361,c8\233"
 427      ADFC0C61 
 427      3502ED34 
 427      00F12C63 
 427      389B
 428 0d71 60F4DB2F 		.ascii	"`\364\333/x\224{\324\217\362sD\310y\222\311\250\216"
 428      78947BD4 
 428      8FF27344 
 428      C87992C9 
 428      A88E
 429 0d83 15FF5BDC 		.ascii	"\025\377[\334\272\237/*|K<\264\333b\372^+\246\257\271"
 429      BA9F2F2A 
 429      7C4B3CB4 
 429      DB62FA5E 
 429      2BA6AFB9 
 430 0d97 2FC9749E 		.ascii	"/\311t\236]\204\235\177\225\333\016\323\333\010\323"
 430      5D849D7F 
 430      95DB0ED3 
 430      DB08D3
 431 0da6 DB91781F 		.ascii	"\333\221x\037 \272u\265v\232x\3775@\343\335Ic\265\224"
 431      20BA75B5 
 431      769A78FF 
 431      3540E3DD 
 431      4963B594 
 432 0dba BCDBF8D1 		.ascii	"\274\333\370\321\370\001J\2033)j\251>\333\320\233wo"
 432      F8014A83 
 432      33296AA9 
 432      3EDBD09B 
 432      776F
 433 0dcc C4634784 		.ascii	"\304cG\204\275\362E\330#\3538\247`Z9\2775\245\363\315"
 433      BDF245D8 
 433      23EB38A7 
 433      605A39BF 
 433      35A5F3CD 
 434 0de0 9D7DD6CC 		.ascii	"\235}\326\314\331\215\362\265\320H\275\2377\331\360"
 434      D98DF2B5 
 434      D048BD9F 
 434      37D9F0
 435 0def 73A3DC9A 		.ascii	"s\243\334\232t\330E\004\336\224\221\303\254j\251vn1"
 435      74D84504 
 435      DE9491C3 
 435      AC6AA976 
 435      6E31
 436 0e01 EDA8DDA7 		.ascii	"\355\250\335\247r\347>\025\357\351\271\335\340\261\015"
 436      72E73E15 
 436      EFE9B9DD 
 436      E0B10D
 437 0e10 297E3BBD 		.ascii	")~;\275\315\314c\006\017]1\245co\017\275\223\332C\011"
 437      CDCC6306 
ARM GAS  /tmp/ccw3xD8V.s 			page 34


 437      0F5D31A5 
 437      636F0FBD 
 437      93DA4309 
 438 0e24 535F9F31 		.ascii	"S_\2371\275\257;9(YUS5\334aJ\216e\357;\267\365\335\014"
 438      BDAF3B39 
 438      28595553 
 438      35DC614A 
 438      8E65EF3B 
 439 0e3c D831BDAF 		.ascii	"\3301\275\257);^\020\014\266\357\262\305\216\243Iv,"
 439      293B5E10 
 439      0CB6EFB2 
 439      C58EA349 
 439      762C
 440 0e4e 43E05D36 		.ascii	"C\340]6\331ap\231\2254\325\320\335\246.\333\246\271"
 440      D9617099 
 440      9534D5D0 
 440      DDA62EDB 
 440      A6B9
 441 0e60 4CF104C7 		.ascii	"L\361\004\307\2546\267m\271\321\266\375\266l;\234\264"
 441      AC36B76D 
 441      B9D1B6FD 
 441      B66C3B9C 
 441      B4
 442 0e71 AD0D81F7 		.ascii	"\255\015\201\367gf\233\2254\325\266vS\333>6\332\366"
 442      67669B95 
 442      34D5B676 
 442      53DB3E36 
 442      DAF6
 443 0e83 AEB96DAD 		.ascii	"\256\271m\255F\333:l\331v\"i[\027\002wdf\233\2254\325"
 443      46DB3A6C 
 443      D9762269 
 443      5B170277 
 443      64669B95 
 444 0e99 B6C3A6DD 		.ascii	"\266\303\246\335z\356\036\347T?\236\222\352CrL\230~"
 444      7AEE1EE7 
 444      543F9E92 
 444      EA43724C 
 444      987E
 445 0eab CECC63F3 		.ascii	"\316\314c\363\344\215F\217u\332\232o\216\221jC\310t"
 445      E48D468F 
 445      75DA9A6F 
 445      8E916A43 
 445      C874
 446 0ebd D383B8D6 		.ascii	"\323\203\270\326\265\206\244\030\032\254j\251Vv\231"
 446      B586A418 
 446      1AAC6AA9 
 446      567699
 447 0ecc FAAB3303 		.ascii	"\372\2533\003\177\305S\370\313pF\266+\305\031\331\247"
 447      7FC553F8 
 447      CB7046B6 
 447      2BC519D9 
 447      A7
 448 0edd 6EFA82C9 		.ascii	"n\372\202\311\340\340i\375L\035\334\253\273\235\266"
 448      E0E069FD 
 448      4C1DDCAB 
 448      BB9DB6
 449 0eec EF60228F 		.ascii	"\357`\"\217c\226 \260u5U+s\027[US-8\333\333\305q\362"
ARM GAS  /tmp/ccw3xD8V.s 			page 35


 449      639620B0 
 449      7535552B 
 449      73175B55 
 449      532D38DB 
 450 0f04 03F1D38D 		.ascii	"\003\361\323\215\354\363M\253\224\011\23218\332\342"
 450      ECF34DAB 
 450      94099A31 
 450      38DAE2
 451 0f13 C71504EE 		.ascii	"\307\025\004\356\274\321\317\355\275\247\233\026\203"
 451      BCD1CFED 
 451      BDA79B16 
 451      83
 452 0f20 9F3455BE 		.ascii	"\2374U\2764S%vb\377\354[\345\226\306XO\317\375F=R5\370"
 452      34532576 
 452      62FFEC5B 
 452      E596C658 
 452      4FCFFD46 
 453 0f38 05334512 		.ascii	"\0053E\022\017;\\\364\006\305\351\013\2200\215\343\336"
 453      0F3B5CF4 
 453      06C5E90B 
 453      90308DE3 
 453      DE
 454 0f49 29CDEB61 		.ascii	")\315\353aV\252}\243#\221\252\203\3757\225vn8\363/\257"
 454      56AA7DA3 
 454      2391AA83 
 454      FD379576 
 454      6E38F32F 
 455 0f5e E335E865 		.ascii	"\3435\350e\\%\237\351g\\%{\014\253d\217^O\217?\231H"
 455      5C259FE9 
 455      675C257B 
 455      0CAB648F 
 455      5E4F8F3F 
 456 0f74 FEC6D672 		.ascii	"\376\306\326r\263v\331\355\317H\317\223\227\342k\324"
 456      B376D9ED 
 456      CF48CF93 
 456      97E26BD4 
 457 0f84 9FFD5D45 		.ascii	"\237\375]EE\277\350\245h\006oT1\275\272\335%\013:]7"
 457      45BFE8A5 
 457      68066F54 
 457      31BDBADD 
 457      250B3A5D 
 458 0f99 67F6321D 		.ascii	"g\3662\035\263\025\306"
 458      B315C6
 459 0fa0 72CCECFE 		.ascii	"r\314\354\376\346 \262G\007r\007\323\"\313G\342'\367"
 459      E620B247 
 459      077207D3 
 459      22CB47E2 
 459      27F7
 460 0fb2 3C7B17FE 		.ascii	"<{\027\376\373\031\262ib\023\006.K\200X5}c\022\3160"
 460      FB19B269 
 460      6213062E 
 460      4B805835 
 460      7D6312CE 
 461 0fc7 EA1035AC 		.ascii	"\352\0205\254j5yr,j]M\261V\236fY\353B\012Y\323-k\221"
 461      6A357972 
 461      2C6A5D4D 
 461      B1569E66 
ARM GAS  /tmp/ccw3xD8V.s 			page 36


 461      59EB420A 
 462 0fe0 FFDB6255 		.ascii	"\377\333bUkF\262V?f.\366\321\341K\364\377\325GwsK\352"
 462      6B46B256 
 462      3F662EF6 
 462      D1E14BF4 
 462      FFD54777 
 463 0ff7 CCF4F463 		.ascii	"\314\364\364c\022\214\222\023b"
 463      128C9213 
 463      62
 464 1000 72AD2D7A 		.ascii	"r\255-z\332\223|\0238\327\237Lh\013g\025\311\306%\370"
 464      DA937C13 
 464      38D79F4C 
 464      680B6715 
 464      C9C625F8 
 465 1014 EA93B85F 		.ascii	"\352\223\270_\235\345!\271/\3667\335\257\332\271K\337"
 465      9DE521B9 
 465      2FF637DD 
 465      AFDAB94B 
 465      DF
 466 1025 FCAE7297 		.ascii	"\374\256r\227>\033\201\326\3677\022\2343\360\233\323"
 466      3E1B81D6 
 466      F737129C 
 466      33F09BD3 
 467 1035 F39B23FF 		.ascii	"\363\233#\377>\347:\275\367$o5\367\372\361\265\355Z"
 467      3EE73ABD 
 467      F7246F35 
 467      F7FAF1B5 
 467      ED5A
 468 1047 8616231E 		.ascii	"\206\026#\036\266\362\345\234d\2131\277,\250\217\212"
 468      B6F2E59C 
 468      648B31BF 
 468      2CA88F8A 
 469 1057 05BC5873 		.ascii	"\005\274Xswm\244V\270[\340'\206\013\302\265\301\352"
 469      776DA456 
 469      B85BE027 
 469      860BC2B5 
 469      C1EA
 470 1069 FA905010 		.ascii	"\372\220P\020\225B\341Zi`\025\343\253\207\357a\001\311"
 470      9542E15A 
 470      696015E3 
 470      AB87EF61 
 470      01C9
 471 107b FBE0D887 		.ascii	"\373\340\330\207\363K\231\301)\352\324\360\301\252p"
 471      F34B99C1 
 471      29EAD4F0 
 471      C1AA70
 472 108a AD501008 		.ascii	"\255P\020\010\011\223\370\372j) M\255\023\242\200\341"
 472      0993F8FA 
 472      6A29204D 
 472      AD13A280 
 472      E1
 473 109b 0F045494 		.ascii	"\017\004T\224~ebx\212 F\013\242\341\241\205\015\205"
 473      7E656278 
 473      8A20460B 
 473      A2E1A185 
 473      0D85
 474 10ad 0383CCC8 		.ascii	"\003\203\314\310\202\252H\215P\020\214\204\246\026\204"
ARM GAS  /tmp/ccw3xD8V.s 			page 37


 474      82AA488D 
 474      50108C84 
 474      A61684
 475 10bc 84290500 		.ascii	"\204)\005\00011\034\211\026Hb}\355\343\005\220\020\245"
 475      31311C89 
 475      1648627D 
 475      EDE30590 
 475      10A5
 476 10ce 82BA8828 		.ascii	"\202\272\210(E\013J\312\307\224\216i\200\2225u\341j"
 476      450B4ACA 
 476      C7948E69 
 476      80923575 
 476      E16A
 477 10e0 82F16069 		.ascii	"\202\361`i)\024\327\204xj\242\223\003\222\017\344\014"
 477      2914D784 
 477      786AA293 
 477      03920FE4 
 477      0C
 478 10f1 2A0E4820 		.ascii	"*\016H RM\031EV1Y\025\230\012H\271j\"*\361\222\320\267"
 478      524D1945 
 478      56315915 
 478      980A48B9 
 478      6A222AF1 
 479 1108 62546068 		.ascii	"bT`h\341\204\302\300\250\261%\245\225\243\036\031\221"
 479      E184C2C0 
 479      A8B125A5 
 479      95A31E19 
 479      91
 480 1119 9BC8281B 		.ascii	"\233\310(\033=\242\217\366P>\242\244l\324\330\007=X"
 480      3DA28FF6 
 480      503EA2A4 
 480      6CD4D807 
 480      3D58
 481 112b C7CD8742 		.ascii	"\307\315\207BbY:\013\252\370j\325\204\212\3121\203\212"
 481      62593A0B 
 481      AAF86AD5 
 481      848ACA31 
 481      838A
 482 113d 0B468F2E 		.ascii	"\013F\217.+\030U\\:\245\250 \\\034\014TW\207\210\213"
 482      2B18555C 
 482      3AA5A820 
 482      5C1C0C54 
 482      5787888B 
 483 1151 204351B4 		.ascii	" CQ\264\330\016\234\346r\000\200\312\331\360\205\372"
 483      D80E9CE6 
 483      720080CA 
 483      D9F085FA 
 484 1161 04A46CC0 		.ascii	"\004\244l\300\011<<v\324\330Q\225Y$YQ9n<\301F\275\037"
 484      093C3C76 
 484      D4D85195 
 484      59245951 
 484      396E3CC1 
 485 1178 BD81A414 		.ascii	"\275\201\244\024\353\002\225\023\350\247\362\011Xs\364"
 485      EB029513 
 485      E8A7F209 
 485      5873F4
 486 1187 B8D27F1F 		.ascii	"\270\322\177\037Q\226\003x\221\272\232H\210\000\216"
ARM GAS  /tmp/ccw3xD8V.s 			page 38


 486      51960378 
 486      91BA9A48 
 486      88008E
 487 1196 1B3F665C 		.ascii	"\033?f\\\331\210\000\374\365F5Y1\3467\017W\004\312F"
 487      D98800FC 
 487      F5463559 
 487      31E6370F 
 487      5704CA46 
 488 11aa 3C32AA74 		.ascii	"<2\252tD?]\336\310q\025\225\276H]\200T\315\252W\033"
 488      443F5DDE 
 488      C8711595 
 488      BE485D80 
 488      54CDAA57 
 489 11bf 205B697D 		.ascii	" [i}\222\314\011VG\202\217\007\242u\202\020\312\003"
 489      92CC0956 
 489      47828F07 
 489      A2758210 
 489      CA03
 490 11d1 21A17A69 		.ascii	"!\241zijpj\260\032\344\344UT\226\005\312\036\256|4P"
 490      6A706AB0 
 490      1AE4E455 
 490      549605CA 
 490      1EAE7C34 
 491 11e6 FA68E9E8 		.ascii	"\372h\351\350\021\375\036(\251\250\244\236\003\305?"
 491      11FD1E28 
 491      A9A8A49E 
 491      03C53F
 492 11f5 33E6140D 		.ascii	"3\346\024\015\011\334\223M\020\002\010A\254,\215\324"
 492      09DC934D 
 492      10020841 
 492      AC2C8DD4 
 493 1205 4E0A4FF6 		.ascii	"N\012O\366\006\361\213xeR5?9\012\344\025D1\"F\007\331"
 493      06F18B78 
 493      6552353F 
 493      390AE415 
 493      44312246 
 494 121b E09AE6D9 		.ascii	"\340\232\346\331`U\215\324@\370_S/\011\015\001\311\203"
 494      60558DD4 
 494      40F85F53 
 494      2F090D01 
 494      C983
 495 122d DFC31C21 		.ascii	"\337\303\034!D\247F5v\366\221\252D\201\017E\003\277"
 495      44A74635 
 495      76F691AA 
 495      44810F45 
 495      03BF
 496 123f AB17EAC1 		.ascii	"\253\027\352\301\334\276\301\252\200.k\2603\344`\025"
 496      DCBEC1AA 
 496      802E6BB0 
 496      33E46015 
 497 124f 614D9602 		.ascii	"aM\226\002\001tO\300y\353\002\265B\203\004_u\2420\305"
 497      01744FC0 
 497      79EB02B5 
 497      4283045F 
 497      75A230C5 
 498 1263 27D589E1 		.ascii	"'\325\211\341H@y\014G|\340\031\260B\272\307q\247\253"
 498      4840790C 
ARM GAS  /tmp/ccw3xD8V.s 			page 39


 498      477CE019 
 498      B042BAC7 
 498      71A7AB
 499 1276 0A464401 		.ascii	"\012FD\001$\346\220l\322\265\202R\303\277e\206\022\230"
 499      24E6906C 
 499      D2B58252 
 499      C3BF6586 
 499      1298
 500 1288 32B486E8 		.ascii	"2\264\206\350.\012\223a\034\011H\256h\321\020\010C!"
 500      2E0A9361 
 500      1C0948AE 
 500      68D11008 
 500      4321
 501 129a 0C83708F 		.ascii	"\014\203p\217+Z\\\010\241\010B1\204A\020\006C\3705\004"
 501      2B5A5C08 
 501      A1084231 
 501      84411006 
 501      43F83504 
 502 12ae 28570CE5 		.ascii	"(W\014\345\212\241\\1\224\033\004\345\006\025q\342`"
 502      8AA15C31 
 502      941B04E5 
 502      061571E2 
 502      60
 503 12bf 4EFC3527 		.ascii	"N\3745'\016\341\304\241\2348\214\023\357q\211E\205\020"
 503      0EE1C4A1 
 503      9C388C13 
 503      EF718945 
 503      8510
 504 12d1 8AB86A11 		.ascii	"\212\270j\021\276\006y\352\002\240\255\2178\346\011"
 504      BE0679EA 
 504      02A0AD8F 
 504      38E609
 505 12e0 4184EF48 		.ascii	"A\204\357HuH\020\335\301*^$\336\342k\204,I\355>\360"
 505      754810DD 
 505      C12A5E24 
 505      DEE26B84 
 505      2C49ED3E 
 506 12f5 474CF924 		.ascii	"GL\371$\205\375\360\214\024\362I\2420)\212~$\011\257"
 506      85FDF08C 
 506      14F249A2 
 506      30298A7E 
 506      2409AF
 507 1308 189A0AC3 		.ascii	"\030\232\012\303M\226\320\020\226\300|\301\373\204\024"
 507      4D96D010 
 507      96C07CC1 
 507      FB8414
 508 1317 99F8DBBA 		.ascii	"\231\370\333\272\034a\212P+\325\360\321\307\011\345"
 508      1C618A50 
 508      2BD5F0D1 
 508      C709E5
 509 1326 9E200957 		.ascii	"\236 \011W]\240>Ok\350\352p\024\006\305>T\323\223\034"
 509      5DA03E4F 
 509      6BE8EA70 
 509      1406C53E 
 509      54D3931C 
 510 133a 7F5DE009 		.ascii	"\177]\340\011>,\205k'gC\317\211NF:x0\011\031B\235P\013"
 510      3E2C856B 
ARM GAS  /tmp/ccw3xD8V.s 			page 40


 510      276743CF 
 510      894E463A 
 510      78300919 
 511 1352 43F16428 		.ascii	"C\361d(\005\204$\345\263\211\016|5\266'd\326E\"\325"
 511      058424E5 
 511      B3890E7C 
 511      35B62764 
 511      D64522D5 
 512 1366 BE1A8544 		.ascii	"\276\032\205D\360\035y\242V\020\2755H\202\241\2168\245"
 512      F01D79A2 
 512      5610BD35 
 512      4882A18E 
 512      38A5
 513 1378 EA044DD3 		.ascii	"\352\004M\323_\245\025\230*\210Bm\020\034\341U\262\374"
 513      5FA51598 
 513      2A88426D 
 513      101CE155 
 513      B2FC
 514 138a D0A7C898 		.ascii	"\320\247\310\230\027\220\260{C\027\324\2727I\372\305"
 514      1790B07B 
 514      4317D4BA 
 514      3749FAC5 
 515 139a 86500D4F 		.ascii	"\206P\015O<\347\227\264\324\003NGG\214\037\030\334\320"
 515      3CE797B4 
 515      D4034E47 
 515      478C1F18 
 515      DCD0
 516 13ac 0073500D 		.ascii	"\000sP\015\014\032\200\003*\335\233\016\006\314-(\035"
 516      0C1A8003 
 516      2ADD9B0E 
 516      06CC2D28 
 516      1D
 517 13bd 5331AA02 		.ascii	"S1\252\002\000\224\232\223\006\027\0265\020\316\366"
 517      00949A93 
 517      06171635 
 517      10CEF6
 518 13cc 2F1B5312 		.ascii	"/\033S\022\250\200\026\344k\002\225\320\037\313\204"
 518      A88016E4 
 518      6B0295D0 
 518      1FCB84
 519 13db 495C69B9 		.ascii	"I\\i\271{lYe\271k|I\271{L!\211\212J\312]\017\224\226"
 519      7B6C5965 
 519      B96B7C49 
 519      B97B4C21 
 519      898A4ACA 
 520 13f3 7BA358D0 		.ascii	"{\243X\320\035\236\024\024\275\341hUx\222\344\217\012"
 520      1D9E1414 
 520      BDE16855 
 520      7892E48F 
 520      0A
 521 1404 D593C2B5 		.ascii	"\325\223\302\265!\241\301;E\010J\021\261\177B\263\200"
 521      21A1C13B 
 521      45084A11 
 521      B17F42B3 
 521      80
 522 1415 521A8607 		.ascii	"R\032\206\007x\020\033H,5\344\220\221T\025\344*-/\202"
 522      78101B48 
ARM GAS  /tmp/ccw3xD8V.s 			page 41


 522      2C35E490 
 522      915415E4 
 522      2A2D2F82 
 523 1429 50EC1E57 		.ascii	"P\354\036WR^D\242b\256\254\334U\001\231\025\345\305"
 523      525E44A2 
 523      62AEACDC 
 523      55019915 
 523      E5C5
 524 143b AED2D272 		.ascii	"\256\322\322rOe\371\250\212\021\356\007F\2032\340\334"
 524      4F65F9A8 
 524      8A11EE07 
 524      468332E0 
 524      DC
 525 144c 3E51756E 		.ascii	">Qun\022\371\332hMXb\243.\251a\"\204\240K\204o\261!"
 525      12F9DA68 
 525      4D5862A3 
 525      2EA96122 
 525      84A04B84 
 526 1463 E85566D2 		.ascii	"\350Uf\322,\234\340 \221\243\326\010\327\206%o\010\247"
 526      2C9CE020 
 526      91A3D608 
 526      D786256F 
 526      08A7
 527 1475 90AC897C 		.ascii	"\220\254\211|T(\201f\322\376\026\225\"u>\022\201f\271"
 527      54288166 
 527      D2FE1695 
 527      22753E12 
 527      8166B9
 528 1488 6A9E2844 		.ascii	"j\236(D\005\351gZ\001A*\027\242\221\352z)\034\251\315"
 528      05E9675A 
 528      01412A17 
 528      A291EA7A 
 528      291CA9CD 
 529 149c 1613C91B 		.ascii	"\026\023\311\033\325\277W\011\320)\304\021\265\374\304"
 529      D5BF5709 
 529      D029C411 
 529      B5FCC4
 530 14ab 6A214B79 		.ascii	"j!Ky\030W{K\262\362H\314*\255\027\201.\322\015U\364"
 530      18577B4B 
 530      B2F248CC 
 530      2AAD1781 
 530      2ED20D55 
 531 14c0 D3CD0979 		.ascii	"\323\315\011y|\250R\250\251\023D^\252\027\005\267\004"
 531      7CA852A8 
 531      A913445E 
 531      AA1705B7 
 531      04
 532 14d1 E91BA9BF 		.ascii	"\351\033\251\277\215\254\257\011\207\302\322\324\254"
 532      8DACAF09 
 532      87C2D2D4 
 532      AC
 533 14de 2A357103 		.ascii	"*5q\003\270\243\\\250\026\300\226\337\324G\213q\341"
 533      B8A35CA8 
 533      16C096DF 
 533      D4478B71 
 533      E1
 534 14ef 511D9E58 		.ascii	"Q\035\236X09\0304,@\006\017\0346p0\275t\201\005\010"
ARM GAS  /tmp/ccw3xD8V.s 			page 42


 534      30391834 
 534      2C40060F 
 534      1C367030 
 534      BD748105 
 535 1504 B4BB371A 		.ascii	"\264\2737\032\376o\240\256\237\014\303\341\032H\015"
 535      FE6FA0AE 
 535      9F0CC3E1 
 535      1A480D
 536 1513 00C4317C 		.ascii	"\000\3041|\024t\253T\335[\011\371\221z\211\210*\011"
 536      1474AB54 
 536      DD5B09F9 
 536      917A8988 
 536      2A09
 537 1525 FEAE3E2C 		.ascii	"\376\256>,\022Q>I\311\365i\264FW\223\324\377\002\221"
 537      12513E49 
 537      C9F569B4 
 537      465793D4 
 537      FF0291
 538 1538 D78464   		.ascii	"\327\204d"
 539              		.text
 540              		.section	.gnu.lto_.symtab.158793450d65de5,"",%progbits
 541 0000 73693730 		.ascii	"si70x0_init\000\000\000\000\000\000\000\000\000\000"
 541      78305F69 
 541      6E697400 
 541      00000000 
 541      00000000 
 542 0015 00002002 		.ascii	"\000\000 \002\000\000si70x0_stop\000\000\000\000\000"
 542      00007369 
 542      37307830 
 542      5F73746F 
 542      70000000 
 543 002b 00000000 		.ascii	"\000\000\000\000\000\000\0002\002\000\000si70x0_res"
 543      00000032 
 543      02000073 
 543      69373078 
 543      305F7265 
 544 0040 65740000 		.ascii	"et\000\000\000\000\000\000\000\000\000\000\000\000;"
 544      00000000 
 544      00000000 
 544      00003B
 545 004f 02000073 		.ascii	"\002\000\000si70x0_setResolution\000\000\000\000\000"
 545      69373078 
 545      305F7365 
 545      74526573 
 545      6F6C7574 
 546 006b 00000000 		.ascii	"\000\000\000\000\000\000\000A\002\000\000si70x0_hea"
 546      00000041 
 546      02000073 
 546      69373078 
 546      305F6865 
 547 0080 74657245 		.ascii	"terEnable\000\000\000\000\000\000\000\000\000\000\000"
 547      6E61626C 
 547      65000000 
 547      00000000 
 547      00000000 
 548 0094 004A0200 		.ascii	"\000J\002\000\000si70x0_setHeaterCurrent\000\000\000"
 548      00736937 
ARM GAS  /tmp/ccw3xD8V.s 			page 43


 548      3078305F 
 548      73657448 
 548      65617465 
 549 00b3 00000000 		.ascii	"\000\000\000\000\000\000\000\000\000P\002\000\000si"
 549      00000000 
 549      00500200 
 549      007369
 550 00c2 37307830 		.ascii	"70x0_readTemperature\000\000\000\000\000\000\000\000"
 550      5F726561 
 550      6454656D 
 550      70657261 
 550      74757265 
 551 00de 00000000 		.ascii	"\000\000\000\000V\002\000\000si70x0_readHumidity\000"
 551      56020000 
 551      73693730 
 551      78305F72 
 551      65616448 
 552 00fa 00000000 		.ascii	"\000\000\000\000\000\000\000\000\000\000\000_\002\000"
 552      00000000 
 552      0000005F 
 552      0200
 553 0108 00693263 		.ascii	"\000i2cReleaseBus\000\000\002\000\000\000\000\000\000"
 553      52656C65 
 553      61736542 
 553      75730000 
 553      02000000 
 554 011f 00000069 		.ascii	"\000\000\000i\002\000\000i2cMasterTransmitTimeout\000"
 554      02000069 
 554      32634D61 
 554      73746572 
 554      5472616E 
 555 013f 00020000 		.ascii	"\000\002\000\000\000\000\000\000\000\000\000m\002\000"
 555      00000000 
 555      0000006D 
 555      0200
 556 014d 00693263 		.ascii	"\000i2cAcquireBus\000\000\002\000\000\000\000\000\000"
 556      41637175 
 556      69726542 
 556      75730000 
 556      02000000 
 557 0164 0000007F 		.ascii	"\000\000\000\177\002\000\000"
 557      020000
 558              		.text
 559              		.section	.gnu.lto_.opts,"",%progbits
 560 0000 272D6D63 		.ascii	"'-mcpu=cortex-m4' '-mfloat-abi=hard' '-mfpu=fpv4-sp"
 560      70753D63 
 560      6F727465 
 560      782D6D34 
 560      2720272D 
 561 0033 2D643136 		.ascii	"-d16' '-mno-thumb-interwork' '-mthumb' '-O2' '-fomi"
 561      2720272D 
 561      6D6E6F2D 
 561      7468756D 
 561      622D696E 
 562 0066 742D6672 		.ascii	"t-frame-pointer' '-falign-functions=16' '-ffunction"
 562      616D652D 
 562      706F696E 
ARM GAS  /tmp/ccw3xD8V.s 			page 44


 562      74657227 
 562      20272D66 
 563 0099 2D736563 		.ascii	"-sections' '-fdata-sections' '-fno-common' '-flto' "
 563      74696F6E 
 563      73272027 
 563      2D666461 
 563      74612D73 
 564 00cc 272D6673 		.ascii	"'-fsingle-precision-constant'\000"
 564      696E676C 
 564      652D7072 
 564      65636973 
 564      696F6E2D 
 565              		.text
 566              		.section	.text.si70x0_transmit.constprop.0,"ax",%progbits
 567              		.align	2
 568              		.p2align 4,,15
 569              		.thumb
 570              		.thumb_func
 571              		.type	si70x0_transmit.constprop.0, %function
 572              	si70x0_transmit.constprop.0:
 573              		@ args = 0, pretend = 0, frame = 0
 574              		@ frame_needed = 0, uses_anonymous_args = 0
 575 0000 F0B5     		push	{r4, r5, r6, r7, lr}
 576 0002 0446     		mov	r4, r0
 577 0004 85B0     		sub	sp, sp, #20
 578 0006 4068     		ldr	r0, [r0, #4]
 579 0008 0E46     		mov	r6, r1
 580 000a 1746     		mov	r7, r2
 581 000c 1D46     		mov	r5, r3
 582 000e FFF7FEFF 		bl	i2cAcquireBus
 583 0012 094B     		ldr	r3, .L2
 584 0014 6178     		ldrb	r1, [r4, #1]	@ zero_extendqisi2
 585 0016 1B68     		ldr	r3, [r3]
 586 0018 6068     		ldr	r0, [r4, #4]
 587 001a 0195     		str	r5, [sp, #4]
 588 001c 3246     		mov	r2, r6
 589 001e 0293     		str	r3, [sp, #8]
 590 0020 0097     		str	r7, [sp]
 591 0022 0123     		movs	r3, #1
 592 0024 FFF7FEFF 		bl	i2cMasterTransmitTimeout
 593 0028 0546     		mov	r5, r0
 594 002a 6068     		ldr	r0, [r4, #4]
 595 002c FFF7FEFF 		bl	i2cReleaseBus
 596 0030 2846     		mov	r0, r5
 597 0032 05B0     		add	sp, sp, #20
 598              		@ sp needed
 599 0034 F0BD     		pop	{r4, r5, r6, r7, pc}
 600              	.L3:
 601 0036 00BF     		.align	2
 602              	.L2:
 603 0038 00000000 		.word	.LANCHOR0
 604              		.size	si70x0_transmit.constprop.0, .-si70x0_transmit.constprop.0
 605 003c AFF30080 		.section	.text.si70x0_init,"ax",%progbits
 606              		.align	2
 607              		.p2align 4,,15
 608              		.global	si70x0_init
 609              		.thumb
ARM GAS  /tmp/ccw3xD8V.s 			page 45


 610              		.thumb_func
 611              		.type	si70x0_init, %function
 612              	si70x0_init:
 613              		@ args = 0, pretend = 0, frame = 0
 614              		@ frame_needed = 0, uses_anonymous_args = 0
 615              		@ link register save eliminated.
 616 0000 0346     		mov	r3, r0
 617 0002 10B4     		push	{r4}
 618 0004 044C     		ldr	r4, .L5
 619 0006 4160     		str	r1, [r0, #4]
 620 0008 0020     		movs	r0, #0
 621 000a 2821     		movs	r1, #40
 622 000c 5A70     		strb	r2, [r3, #1]
 623 000e 2160     		str	r1, [r4]
 624 0010 1870     		strb	r0, [r3]
 625 0012 5DF8044B 		ldr	r4, [sp], #4
 626 0016 7047     		bx	lr
 627              	.L6:
 628              		.align	2
 629              	.L5:
 630 0018 00000000 		.word	.LANCHOR0
 631              		.size	si70x0_init, .-si70x0_init
 632 001c AFF30080 		.section	.text.si70x0_stop,"ax",%progbits
 633              		.align	2
 634              		.p2align 4,,15
 635              		.global	si70x0_stop
 636              		.thumb
 637              		.thumb_func
 638              		.type	si70x0_stop, %function
 639              	si70x0_stop:
 640              		@ args = 0, pretend = 0, frame = 0
 641              		@ frame_needed = 0, uses_anonymous_args = 0
 642              		@ link register save eliminated.
 643 0000 0020     		movs	r0, #0
 644 0002 7047     		bx	lr
 645              		.size	si70x0_stop, .-si70x0_stop
 646 0004 AFF30080 		.section	.text.si70x0_reset,"ax",%progbits
 646      AFF30080 
 646      AFF30080 
 647              		.align	2
 648              		.p2align 4,,15
 649              		.global	si70x0_reset
 650              		.thumb
 651              		.thumb_func
 652              		.type	si70x0_reset, %function
 653              	si70x0_reset:
 654              		@ args = 0, pretend = 0, frame = 8
 655              		@ frame_needed = 0, uses_anonymous_args = 0
 656 0000 00B5     		push	{lr}
 657 0002 83B0     		sub	sp, sp, #12
 658 0004 02A9     		add	r1, sp, #8
 659 0006 0022     		movs	r2, #0
 660 0008 FE23     		movs	r3, #254
 661 000a 01F8013D 		strb	r3, [r1, #-1]!
 662 000e 1346     		mov	r3, r2
 663 0010 FFF7FEFF 		bl	si70x0_transmit.constprop.0
 664 0014 03B0     		add	sp, sp, #12
ARM GAS  /tmp/ccw3xD8V.s 			page 46


 665              		@ sp needed
 666 0016 5DF804FB 		ldr	pc, [sp], #4
 667              		.size	si70x0_reset, .-si70x0_reset
 668 001a 00BFAFF3 		.section	.text.si70x0_setResolution,"ax",%progbits
 668      0080
 669              		.align	2
 670              		.p2align 4,,15
 671              		.global	si70x0_setResolution
 672              		.thumb
 673              		.thumb_func
 674              		.type	si70x0_setResolution, %function
 675              	si70x0_setResolution:
 676              		@ args = 0, pretend = 0, frame = 0
 677              		@ frame_needed = 0, uses_anonymous_args = 0
 678              		@ link register save eliminated.
 679 0000 0020     		movs	r0, #0
 680 0002 7047     		bx	lr
 681              		.size	si70x0_setResolution, .-si70x0_setResolution
 682 0004 AFF30080 		.section	.text.si70x0_heaterEnable,"ax",%progbits
 682      AFF30080 
 682      AFF30080 
 683              		.align	2
 684              		.p2align 4,,15
 685              		.global	si70x0_heaterEnable
 686              		.thumb
 687              		.thumb_func
 688              		.type	si70x0_heaterEnable, %function
 689              	si70x0_heaterEnable:
 690              		@ args = 0, pretend = 0, frame = 0
 691              		@ frame_needed = 0, uses_anonymous_args = 0
 692              		@ link register save eliminated.
 693 0000 0020     		movs	r0, #0
 694 0002 7047     		bx	lr
 695              		.size	si70x0_heaterEnable, .-si70x0_heaterEnable
 696 0004 AFF30080 		.section	.text.si70x0_setHeaterCurrent,"ax",%progbits
 696      AFF30080 
 696      AFF30080 
 697              		.align	2
 698              		.p2align 4,,15
 699              		.global	si70x0_setHeaterCurrent
 700              		.thumb
 701              		.thumb_func
 702              		.type	si70x0_setHeaterCurrent, %function
 703              	si70x0_setHeaterCurrent:
 704              		@ args = 0, pretend = 0, frame = 0
 705              		@ frame_needed = 0, uses_anonymous_args = 0
 706              		@ link register save eliminated.
 707 0000 0020     		movs	r0, #0
 708 0002 7047     		bx	lr
 709              		.size	si70x0_setHeaterCurrent, .-si70x0_setHeaterCurrent
 710 0004 AFF30080 		.section	.text.si70x0_readTemperature,"ax",%progbits
 710      AFF30080 
 710      AFF30080 
 711              		.align	2
 712              		.p2align 4,,15
 713              		.global	si70x0_readTemperature
 714              		.thumb
ARM GAS  /tmp/ccw3xD8V.s 			page 47


 715              		.thumb_func
 716              		.type	si70x0_readTemperature, %function
 717              	si70x0_readTemperature:
 718              		@ args = 0, pretend = 0, frame = 8
 719              		@ frame_needed = 0, uses_anonymous_args = 0
 720 0000 10B5     		push	{r4, lr}
 721 0002 82B0     		sub	sp, sp, #8
 722 0004 02AB     		add	r3, sp, #8
 723 0006 F322     		movs	r2, #243
 724 0008 03F8052D 		strb	r2, [r3, #-5]!
 725 000c 0C46     		mov	r4, r1
 726 000e 01AA     		add	r2, sp, #4
 727 0010 1946     		mov	r1, r3
 728 0012 0223     		movs	r3, #2
 729 0014 FFF7FEFF 		bl	si70x0_transmit.constprop.0
 730 0018 B0B9     		cbnz	r0, .L13
 731 001a 9DF80420 		ldrb	r2, [sp, #4]	@ zero_extendqisi2
 732 001e 9DF80530 		ldrb	r3, [sp, #5]	@ zero_extendqisi2
 733 0022 9FED0A6A 		flds	s12, .L15
 734 0026 9FED0A7A 		flds	s14, .L15+4
 735 002a DFED0A7A 		flds	s15, .L15+8
 736 002e 03EB0223 		add	r3, r3, r2, lsl #8
 737 0032 1BB2     		sxth	r3, r3
 738 0034 06EE903A 		fmsr	s13, r3	@ int
 739 0038 F8EEE66A 		fsitos	s13, s13
 740 003c 66EE866A 		fmuls	s13, s13, s12
 741 0040 E6EE877A 		vfma.f32	s15, s13, s14
 742 0044 C4ED007A 		fsts	s15, [r4]
 743              	.L13:
 744 0048 02B0     		add	sp, sp, #8
 745              		@ sp needed
 746 004a 10BD     		pop	{r4, pc}
 747              	.L16:
 748              		.align	2
 749              	.L15:
 750 004c 52B82F43 		.word	1127200850
 751 0050 00008037 		.word	931135488
 752 0054 66663BC2 		.word	3258672742
 753              		.size	si70x0_readTemperature, .-si70x0_readTemperature
 754 0058 AFF30080 		.section	.text.si70x0_readHumidity,"ax",%progbits
 754      AFF30080 
 755              		.align	2
 756              		.p2align 4,,15
 757              		.global	si70x0_readHumidity
 758              		.thumb
 759              		.thumb_func
 760              		.type	si70x0_readHumidity, %function
 761              	si70x0_readHumidity:
 762              		@ args = 0, pretend = 0, frame = 8
 763              		@ frame_needed = 0, uses_anonymous_args = 0
 764 0000 10B5     		push	{r4, lr}
 765 0002 82B0     		sub	sp, sp, #8
 766 0004 02AB     		add	r3, sp, #8
 767 0006 F522     		movs	r2, #245
 768 0008 03F8052D 		strb	r2, [r3, #-5]!
 769 000c 0C46     		mov	r4, r1
 770 000e 01AA     		add	r2, sp, #4
ARM GAS  /tmp/ccw3xD8V.s 			page 48


 771 0010 1946     		mov	r1, r3
 772 0012 0223     		movs	r3, #2
 773 0014 FFF7FEFF 		bl	si70x0_transmit.constprop.0
 774 0018 90B9     		cbnz	r0, .L18
 775 001a 9DF80420 		ldrb	r2, [sp, #4]	@ zero_extendqisi2
 776 001e 9DF80530 		ldrb	r3, [sp, #5]	@ zero_extendqisi2
 777 0022 03EB0223 		add	r3, r3, r2, lsl #8
 778 0026 9BB2     		uxth	r3, r3
 779 0028 C3EB4312 		rsb	r2, r3, r3, lsl #5
 780 002c 03EB8203 		add	r3, r3, r2, lsl #2
 781 0030 1B14     		asrs	r3, r3, #16
 782 0032 063B     		subs	r3, r3, #6
 783 0034 642B     		cmp	r3, #100
 784 0036 A8BF     		it	ge
 785 0038 6423     		movge	r3, #100
 786 003a 23EAE373 		bic	r3, r3, r3, asr #31
 787 003e 2380     		strh	r3, [r4]	@ movhi
 788              	.L18:
 789 0040 02B0     		add	sp, sp, #8
 790              		@ sp needed
 791 0042 10BD     		pop	{r4, pc}
 792              		.size	si70x0_readHumidity, .-si70x0_readHumidity
 793              		.section	.bss.timeout,"aw",%nobits
 794              		.align	2
 795              		.set	.LANCHOR0,. + 0
 796              		.type	timeout, %object
 797              		.size	timeout, 4
 798              	timeout:
 799 0000 00000000 		.space	4
 800              		.comm	__gnu_lto_v1,1,1
 801              		.ident	"GCC: (GNU Tools for ARM Embedded Processors) 4.8.4 20140526 (release) [ARM/embedded-4_8-br
ARM GAS  /tmp/ccw3xD8V.s 			page 49


DEFINED SYMBOLS
                            *ABS*:0000000000000000 si70x0.c
     /tmp/ccw3xD8V.s:567    .text.si70x0_transmit.constprop.0:0000000000000000 $t
     /tmp/ccw3xD8V.s:572    .text.si70x0_transmit.constprop.0:0000000000000000 si70x0_transmit.constprop.0
     /tmp/ccw3xD8V.s:603    .text.si70x0_transmit.constprop.0:0000000000000038 $d
     /tmp/ccw3xD8V.s:606    .text.si70x0_init:0000000000000000 $t
     /tmp/ccw3xD8V.s:612    .text.si70x0_init:0000000000000000 si70x0_init
     /tmp/ccw3xD8V.s:630    .text.si70x0_init:0000000000000018 $d
     /tmp/ccw3xD8V.s:633    .text.si70x0_stop:0000000000000000 $t
     /tmp/ccw3xD8V.s:639    .text.si70x0_stop:0000000000000000 si70x0_stop
     /tmp/ccw3xD8V.s:647    .text.si70x0_reset:0000000000000000 $t
     /tmp/ccw3xD8V.s:653    .text.si70x0_reset:0000000000000000 si70x0_reset
     /tmp/ccw3xD8V.s:669    .text.si70x0_setResolution:0000000000000000 $t
     /tmp/ccw3xD8V.s:675    .text.si70x0_setResolution:0000000000000000 si70x0_setResolution
     /tmp/ccw3xD8V.s:683    .text.si70x0_heaterEnable:0000000000000000 $t
     /tmp/ccw3xD8V.s:689    .text.si70x0_heaterEnable:0000000000000000 si70x0_heaterEnable
     /tmp/ccw3xD8V.s:697    .text.si70x0_setHeaterCurrent:0000000000000000 $t
     /tmp/ccw3xD8V.s:703    .text.si70x0_setHeaterCurrent:0000000000000000 si70x0_setHeaterCurrent
     /tmp/ccw3xD8V.s:711    .text.si70x0_readTemperature:0000000000000000 $t
     /tmp/ccw3xD8V.s:717    .text.si70x0_readTemperature:0000000000000000 si70x0_readTemperature
     /tmp/ccw3xD8V.s:750    .text.si70x0_readTemperature:000000000000004c $d
     /tmp/ccw3xD8V.s:755    .text.si70x0_readHumidity:0000000000000000 $t
     /tmp/ccw3xD8V.s:761    .text.si70x0_readHumidity:0000000000000000 si70x0_readHumidity
     /tmp/ccw3xD8V.s:794    .bss.timeout:0000000000000000 $d
     /tmp/ccw3xD8V.s:798    .bss.timeout:0000000000000000 timeout
                            *COM*:0000000000000001 __gnu_lto_v1
     /tmp/ccw3xD8V.s:605    .text.si70x0_transmit.constprop.0:000000000000003c $t
     /tmp/ccw3xD8V.s:632    .text.si70x0_init:000000000000001c $t
     /tmp/ccw3xD8V.s:754    .text.si70x0_readTemperature:0000000000000058 $t

UNDEFINED SYMBOLS
i2cAcquireBus
i2cMasterTransmitTimeout
i2cReleaseBus
