ARM GAS  /tmp/ccP1FTzj.s 			page 1


   1              		.syntax unified
   2              		.cpu cortex-m4
   3              		.eabi_attribute 27, 3
   4              		.eabi_attribute 28, 1
   5              		.fpu fpv4-sp-d16
   6              		.eabi_attribute 20, 1
   7              		.eabi_attribute 21, 1
   8              		.eabi_attribute 23, 3
   9              		.eabi_attribute 24, 1
  10              		.eabi_attribute 25, 1
  11              		.eabi_attribute 26, 1
  12              		.eabi_attribute 30, 2
  13              		.eabi_attribute 34, 1
  14              		.eabi_attribute 18, 4
  15              		.thumb
  16              		.file	"testqueues.c"
  17              		.section	.gnu.lto_.jmpfuncs.2a0a206d1169854,"",%progbits
  18 0000 789C9D53 		.ascii	"x\234\235S\313\025\2020\020\234]\010\004\320\247\025"
  18      CB158230 
  18      109C5D08 
  18      04D0A715 
  19 0010 588BBF22 		.ascii	"X\213\277\"\274{\342`\005^8Z\202\027k\261\005\352\361"
  19      BC7BE260 
  19      055E385A 
  19      82176BB1 
  19      05EAF1
  20 0023 A2100809 		.ascii	"\242\020\010\011\220\010\312\205\317\354\354,3\033\006"
  20      9008CA85 
  20      CFECEC2C 
  20      331B06
  21 0032 C3753D43 		.ascii	"\303u=C \252\356\011@`\276\342U\334\212uN\270\220\302"
  21      20AAEE09 
  21      4060BEE2 
  21      55DC8A75 
  21      4EB890C2 
  22 0046 F9443951 		.ascii	"\371D9Q\271\002\002\2101\334\026p\325\305\200\301\331"
  22      B9020288 
  22      31DC1670 
  22      D5C580C1 
  22      D9
  23 0057 E2560804 		.ascii	"\342V\010\004\002\203\212\013Q\207F=\211\330\226\320"
  23      02838A0B 
  23      5187463D 
  23      89D896D0 
  24 0067 75F324A4 		.ascii	"u\363$\244wx%\241\236\342@}\364\375\344\273\272V\265"
  24      777825A1 
  24      9EE2407D 
  24      F4FDE4BB 
  24      BA56B5
  25 007a 0DBA3C84 		.ascii	"\015\272<\204\241\212V\375^\363\344\006\364(\356\333"
  25      A18A56FD 
  25      5EF3E406 
  25      F428EEDB 
  26 008a 9C12785A 		.ascii	"\234\022xZ\002\241\337-\251%M\377\310\322\212\377\351"
  26      02A1DF2D 
  26      A9254DFF 
  26      C8D28AFF 
ARM GAS  /tmp/ccP1FTzj.s 			page 2


  26      E9
  27 009b C9E39EF2 		.ascii	"\311\343\236\362wJb\215\221~s\253\236\227\034XC\315"
  27      774A628D 
  27      917E73AB 
  27      9E971C58 
  27      43CD
  28 00ad A0526F4A 		.ascii	"\240RoJ\343\262\361\275+N\317\326\006\204\206\265\360"
  28      E3B2F1BD 
  28      2B4ECFD6 
  28      068486B5 
  28      F0
  29 00be 99A9E02C 		.ascii	"\231\251\340,\355\012\227\365\307\254{e\257_m\201z]"
  29      ED0A97F5 
  29      C7AC7B65 
  29      AF5F6D81 
  29      7A5D
  30 00d0 D8F3EAE5 		.ascii	"\330\363\352\345\242\341n\350\340\375a;\272\230\035"
  30      A2E16EE8 
  30      E0FD613B 
  30      BA981D
  31 00df E9F93DDC 		.ascii	"\351\371=\334\3409\261\1773\215]\246\311\211\241\222"
  31      E039B17F 
  31      338D5DA6 
  31      C989A192 
  32 00ef 89A11C4B 		.ascii	"\211\241\034K\220\376N\311,E\025\343\344\201\037\306"
  32      90FE4EC9 
  32      2C4515E3 
  32      E4811FC6 
  33 00ff B9ECC7E9 		.ascii	"\271\354\307\351\340\017\316\251\235-\304n\1778\342"
  33      E00FCEA9 
  33      9D2DC46E 
  33      7F38E2
  34 010e 03650DB0 		.ascii	"\003e\015\260\367"
  34      F7
  35              		.text
  36              		.section	.gnu.lto_.inline.2a0a206d1169854,"",%progbits
  37 0000 789C9551 		.ascii	"x\234\225Q9\016\3020\020\234\265\235\004r\">@\007\015"
  37      390EC230 
  37      109CB59D 
  37      0472223E 
  37      40070D
  38 0013 052FC98B 		.ascii	"\005/\311\213x\000\022MJ\012\012:J$\036\202\340\013"
  38      7800124D 
  38      4A0A0A3A 
  38      4A241E82 
  38      E00B
  39 0025 1488860F 		.ascii	"\024\210\206\017 \012\2746&\261\204#\341\306\332\331"
  39      200ABC36 
  39      26B18423 
  39      E1C6DAD9 
  40 0035 9DF1CC5A 		.ascii	"\235\361\314Z@\340\327Y~\340! \005\231\241x71 !.}D\346"
  40      40E0D759 
  40      7EE02120 
  40      0599A178 
  40      37312021 
  41 004d E05A221D 		.ascii	"\340Z\"\035\353\2068W\337N\\\001\021\232\032|%\225O"
  41      EB863857 
ARM GAS  /tmp/ccP1FTzj.s 			page 3


  41      DF4E5C01 
  41      119A1A7C 
  41      25954F
  42 0060 53057380 		.ascii	"S\005s\200\244\2277\300\201V\244\373[:>\204G\026\356"
  42      A49737C0 
  42      8156A4FB 
  42      5B3A3E84 
  42      4716EE
  43 0073 6A6A5518 		.ascii	"jjU\030m\221\021\210+\207Zc9\231\222U\225Q\365\007\232"
  43      6D911188 
  43      2B875A63 
  43      39999255 
  43      9551F507 
  44 0088 3A3CD1C7 		.ascii	":<\321\307\201}\222W\342\300d\244\215\353\351.\201\322"
  44      817D9257 
  44      E2C064A4 
  44      8DEBE92E 
  44      81D2
  45 009a D6AF2535 		.ascii	"\326\257%5u\206\331I\323\304\342yo3u\006[K\256\316\261"
  45      7586D949 
  45      D3C4E279 
  45      6F337506 
  45      5B4BAECE 
  46 00af A70DEF61 		.ascii	"\247\015\357aG\257\265\352\354\236X'\220\273k-\234$"
  46      47AFB5EA 
  46      EC9E5827 
  46      90BB6B2D 
  46      9C24
  47 00c1 68DACFF6 		.ascii	"h\332\317\366\317r\242\322\376\255\313[`za\237\363\333"
  47      CF72A2D2 
  47      FEADCB5B 
  47      607A619F 
  47      F3DB
  48 00d3 3590977F 		.ascii	"5\220\227\177P\262\226\003\360\006\262\230?\225"
  48      50B29603 
  48      F006B298 
  48      3F95
  49              		.text
  50              		.section	.gnu.lto_.pureconst.2a0a206d1169854,"",%progbits
  51 0000 789C6362 		.ascii	"x\234cb`b\020f\200\000N\006\006F\011f\011V\011v\011"
  51      60621066 
  51      80004E06 
  51      06460966 
  51      09560976 
  52 0015 0E2B6E2B 		.ascii	"\016+n+\036+^+\000\014\353\001\245"
  52      1E2B5E2B 
  52      000CEB01 
  52      A5
  53              		.text
  54              		.section	.gnu.lto_notify.2a0a206d1169854,"",%progbits
  55 0000 789C6362 		.ascii	"x\234cb`b@\007\222@\034\010\304&@\314\310\314\300\310"
  55      60624007 
  55      92401C08 
  55      C42640CC 
  55      C8CCC0C8 
  56 0014 34E11C03 		.ascii	"4\341\034\003C#\007\023##\210\301\300\310P\317\304X"
  56      43230713 
ARM GAS  /tmp/ccP1FTzj.s 			page 4


  56      232388C1 
  56      C0C850CF 
  56      C458
  57 0026 1FC90856 		.ascii	"\037\311\010V\273\236\351\300\203\377\377\327}\332\370"
  57      BB9EE9C0 
  57      83FFFFD7 
  57      7DDAF8
  58 0035 A89A1164 		.ascii	"\250\232\021d\022+CKC\303\004\005\006\206d\260|\010"
  58      122B434B 
  58      43C30405 
  58      068664B0 
  58      7C08
  59 0047 9004690A 		.ascii	"\220\004i\012\005J\002i\346\213\014\214\211\214\013"
  59      054A0269 
  59      E68B0C8C 
  59      898C0B
  60 0056 1959E176 		.ascii	"\031Y\341v\20502\202$@Z\215\3643\362sS\365\223\363S"
  60      85303282 
  60      24405A8D 
  60      F433F273 
  60      53F593F3 
  61 006b 2AF55352 		.ascii	"*\365SR\313\364\22332\2232\363\213\365K\212J\363\262"
  61      CBF49333 
  61      329332F3 
  61      8BF54B8A 
  61      4AF3B2
  62 007e F54B528B 		.ascii	"\365KR\213K\364\213J\300taijij\261^2\003\000\351\300"
  62      4BF48B4A 
  62      C0746169 
  62      6A696AB1 
  62      5E320300 
  63 0094 29CE     		.ascii	")\316"
  64              		.text
  65              		.section	.gnu.lto_thread1.2a0a206d1169854,"",%progbits
  66 0000 789C6362 		.ascii	"x\234cb`b@\007\222@<\033\210M\200\230\221\231\201\221"
  66      60624007 
  66      92403C1B 
  66      884D8098 
  66      91998191 
  67 0014 69C23906 		.ascii	"i\3029\006\206F\016&FF\020\203\201\221\241\236\211\261"
  67      86460E26 
  67      46461083 
  67      8191A19E 
  67      89B1
  68 0026 3E9211AC 		.ascii	">\222\021\254v=\323\201\007\377\377\257\273vl~\017\343"
  68      763DD381 
  68      07FFFFAF 
  68      BB766C7E 
  68      0FE3
  69 0038 6C2666A0 		.ascii	"l&f\240\010+CKC\303\004\005\006\206d\260\212\020 \011"
  69      082B434B 
  69      43C30405 
  69      068664B0 
  69      8A102009 
  70 004c D216CAC8 		.ascii	"\322\026\312\310\004\242\231\3173\264>X\267\230+\221"
  70      04A299CF 
  70      33B43E58 
ARM GAS  /tmp/ccP1FTzj.s 			page 5


  70      B7982B91 
  71 005c 7121232B 		.ascii	"q!#+P\272\232\341WCG\203@&#P9\304D\220\010G&#c.#\003"
  71      50BA9AE1 
  71      57434783 
  71      40262350 
  71      39C44490 
  72 0078 54510463 		.ascii	"TQ\004c&#\323\005~\206L\240c\030.24>X\237\014\221\001"
  72      2623D305 
  72      7E864CA0 
  72      63182E32 
  72      343E589F 
  73 008f 49B0C05C 		.ascii	"I\260\300\\\035\002\324\017\264\000\344\035#\375\214"
  73      1D02D40F 
  73      B400E41D 
  73      23FD8C
  74 009e FCDC54FD 		.ascii	"\374\334T\375\344\374\224J\375\224\3242\375\344\214"
  74      E4FC944A 
  74      FD94D432 
  74      FDE48C
  75 00ad CCA4CCFC 		.ascii	"\314\244\314\374b\375\222\242\322\274l\375\222\324\342"
  75      62FD92A2 
  75      D2BC6CFD 
  75      92D4E2
  76 00bc 12FDA212 		.ascii	"\022\375\242\0220]X\232Z\232Z\254\227\314\000\000/\350"
  76      305D589A 
  76      5A9A5AAC 
  76      97CC0000 
  76      2FE8
  77 00ce 3C1A     		.ascii	"<\032"
  78              		.text
  79              		.section	.gnu.lto_queues1_setup.2a0a206d1169854,"",%progbits
  80 0000 789C5D50 		.ascii	"x\234]P\261J\304@\024\234yI\316\330\331\332\011\326"
  80      B14AC440 
  80      149C7949 
  80      CED8D9DA 
  80      09D6
  81 0012 E782F829 		.ascii	"\347\202\370)'h\251{\301[$\006/\211 \026\227\210\205"
  81      2768A97B 
  81      C15B2406 
  81      2F892016 
  81      978885
  82 0025 65CA70DA 		.ascii	"e\312p\332\0106\202\350\017XX\211\215\212\275\305\325"
  82      083682E8 
  82      0F585889 
  82      8D8ABDC5 
  82      D5
  83 0036 7E82CDB9 		.ascii	"~\202\315\271\233\\@|\260\373f\337\274\231}\273\002"
  83      9B5C407C 
  83      B0FB66DF 
  83      BC997DBB 
  83      02
  84 0047 C1FF58B5 		.ascii	"\301\377X\265K\010l\331L\017\224\352\035(C!\035\000"
  84      4B086CD9 
  84      4C0F94EA 
  84      1D284321 
  84      1D00
  85 0059 31114E76 		.ascii	"1\021Nv\331\364>\312\363l>\177xz\271\275\346T|\201i"
ARM GAS  /tmp/ccP1FTzj.s 			page 6


  85      D9F43ECA 
  85      F36C3E7F 
  85      787AB9BD 
  85      E6547C81 
  86 006e EA012E8A 		.ascii	"\352\001.\212\242Z\003ts\034\330\335i\267).{o8\377\252"
  86      A25A0374 
  86      731CD8DD 
  86      69B7292E 
  86      7B6F38FF 
  87 0083 BF5FBD3D 		.ascii	"\277_\275=\3360\300\001\245\217\373b\305\220W\230\226"
  87      DE30C001 
  87      A58FFB62 
  87      C5905798 
  87      96
  88 0094 95437286 		.ascii	"\225Cr\206\237\242v\310\213\033\213\035Z\210\016\371"
  88      9FA276C8 
  88      8B1B8B1D 
  88      5A880EF9 
  89 00a4 7FC6FD40 		.ascii	"\177\306\375@]\324Ak\0058\335\245\323\005\232\355\210"
  89      5DD4416B 
  89      0538DDA5 
  89      D3059AED 
  89      88
  90 00b5 AE121AF6 		.ascii	"\256\022\032\366br\321d/t&K~\307\205\232\262\340\034"
  90      6272D164 
  90      2F74264B 
  90      7EC7859A 
  90      B2E01C
  91 00c8 614586CB 		.ascii	"aE\206\313\300'\312\331\335z\347\334\306\300\272\332"
  91      C027CAD9 
  91      DD7AE7DC 
  91      C6C0BADA 
  92 00d8 27B85FDB 		.ascii	"'\270_\333T\243$\216\224N\206\247j\030\235(=2\373&I"
  92      54A3248E 
  92      944E86A7 
  92      6A189D28 
  92      3D32FB26 
  93 00ed 5536CE8F 		.ascii	"U6\316\217\016U\026\245\231\032gM>\316\243<J74~\001"
  93      0E5516A5 
  93      991A674D 
  93      3ECEA33C 
  93      4A37347E 
  94 0102 1BAC4E9D 		.ascii	"\033\254N\235"
  95              		.text
  96              		.section	.gnu.lto_thread2.2a0a206d1169854,"",%progbits
  97 0000 789C6362 		.ascii	"x\234cb`b@\007\222@\274\010\210M\200\230\221\231\201"
  97      60624007 
  97      9240BC08 
  97      884D8098 
  97      919981
  98 0013 9169C239 		.ascii	"\221i\3029\006\206F\016&FF\020\203\201\221\241\236\211"
  98      0686460E 
  98      26464610 
  98      838191A1 
  98      9E89
  99 0025 B13E9211 		.ascii	"\261>\222\021\254v=\323\201\007\377\377\257\333rz\376"
  99      AC763DD3 
ARM GAS  /tmp/ccP1FTzj.s 			page 7


  99      8107FFFF 
  99      AFDB727A 
  99      FE
 100 0036 1FC6B54C 		.ascii	"\037\306\265L\314@\021V\206\226\206\206\011\012\014"
 100      CC401156 
 100      86968686 
 100      090A0C
 101 0045 0CC96015 		.ascii	"\014\311`\025!@\022\244-\224\221\011D3\237gh{pw)W\""
 101      214012A4 
 101      2D949109 
 101      44339F67 
 101      687B7077 
 102 005c E3424656 		.ascii	"\343BFV\240t5\303\257\206\216\006\201LF\240r\210\211"
 102      A07435C3 
 102      AF868E06 
 102      814C46A0 
 102      728889
 103 006f 20118E4C 		.ascii	" \021\216LF\306\\F\006\250\242\010\306L\240f0\305|\201"
 103      46C65C46 
 103      06A8A208 
 103      C64CA066 
 103      30C57C81 
 104 0083 9F219391 		.ascii	"\237!\223\221\205\201\341\"C\343\203{\251\020\005 \011"
 104      8581E122 
 104      43E3837B 
 104      A9100520 
 104      09
 105 0094 5698E343 		.ascii	"V\230\343C\200\306\000\355\001\371\312H?#?7U?9?\245"
 105      80C600ED 
 105      01F9CA48 
 105      3F233F37 
 105      553F393F 
 106 00a9 523F25B5 		.ascii	"R?%\265L?9#3)3\277X\277\244\2504/[\277$\265\270D\277"
 106      4C3F3923 
 106      332933BF 
 106      58BFA4A8 
 106      342F5BBF 
 107 00c2 A8044C17 		.ascii	"\250\004L\027\226\246\226\246\026\353%3\000\000\346"
 107      96A696A6 
 107      16EB2533 
 107      0000E6
 108 00d1 D63DB1   		.ascii	"\326=\261"
 109              		.text
 110              		.section	.gnu.lto_queues2_setup.2a0a206d1169854,"",%progbits
 111 0000 789C5D50 		.ascii	"x\234]P=K\304@\024\234yI4v\266v6\226\272 \376\224\023"
 111      3D4BC440 
 111      149C7949 
 111      3476B676 
 111      3696BA20 
 112 0017 B4D4BDE0 		.ascii	"\264\324\275\340-G\014^\022A,.\021\013\013\213\224\341"
 112      2D470C5E 
 112      12412C2E 
 112      110B0B8B 
 112      94E1
 113 0029 AC044B3F 		.ascii	"\254\004K?\012\377\200\255\210\212\235\205\305\375\014"
 113      0AFF80AD 
 113      888A9D85 
ARM GAS  /tmp/ccP1FTzj.s 			page 8


 113      C5FD0C
 114 0038 B1397793 		.ascii	"\2619w\223\013\210\017v\337\354\2337\263oW \370\037"
 114      0B880F76 
 114      DFEC9B37 
 114      B36F5720 
 114      F81F
 115 004a 2B760981 		.ascii	"+v\011\201-\233\351\201R\275\001e(\244\003 \306\302"
 115      2D9BE981 
 115      52BD0165 
 115      28A40320 
 115      C6C2
 116 005c F12E9BDE 		.ascii	"\361.\233\336\007y\232\316f\367\223\227\233K\336\211"
 116      07799ACE 
 116      66F79397 
 116      9B4BDE89 
 117 006c 2F304D3D 		.ascii	"/0M=\300yQT\253\200n\216=\273;\3556\305e\357\025g_\337"
 117      C0795154 
 117      AB806E8E 
 117      3DBB3BED 
 117      36C565EF 
 118 0084 8FCFDE1E 		.ascii	"\217\317\336\036\257\031\340\200\262\216\333b\331\220"
 118      AF19E080 
 118      B28EDB62 
 118      D990
 119 0092 57989495 		.ascii	"W\230\224\225Cr\212\237\242v\310\213\033\213\035Z\210"
 119      43728A9F 
 119      A276C88B 
 119      1B8B1D5A 
 119      88
 120 00a3 0EF97FC6 		.ascii	"\016\371\177\306}G]\324Ak\0058\335\205\323\005\232\355"
 120      7D475DD4 
 120      416B0538 
 120      DD85D305 
 120      9AED
 121 00b5 88AE121A 		.ascii	"\210\256\022\032.\304\344\274\311^\350L\026\375\216"
 121      2EC4E4BC 
 121      C95EE84C 
 121      16FD8E
 122 00c4 0B3565CE 		.ascii	"\0135e\3169\302\212\014\227\200\017\224\323\317\265"
 122      39C28A0C 
 122      97800F94 
 122      D3CFB5
 123 00d3 CEB98D9E 		.ascii	"\316\271\215\236u\265Op\277\266\251\006I\034)\235\364"
 123      75B54F70 
 123      BFB6A906 
 123      491C299D 
 123      F4
 124 00e4 4F543F3A 		.ascii	"OT?:Vz`\366M\222\252l\224\037\016U\026\245\231\032e"
 124      567A60F6 
 124      4D92AA6C 
 124      941F0E55 
 124      16A5991A 
 125 00f9 4D3ECAA3 		.ascii	"M>\312\243<J74~\0014\273N\336"
 125      3C4A3734 
 125      7E0134BB 
 125      4EDE
 126              		.text
ARM GAS  /tmp/ccP1FTzj.s 			page 9


 127              		.section	.gnu.lto_queues1_execute.part.3.2a0a206d1169854,"",%progbits
 128 0000 789CCD58 		.ascii	"x\234\315Xkl\034\325\025>wf\037\263\273\263\336\207"
 128      6B6C1CD5 
 128      153E7766 
 128      1FB3BBB3 
 128      DE87
 129 0012 ED7D79ED 		.ascii	"\355}y\355\330\316\313\211\035\257\203\004\010!\245"
 129      D8CECB89 
 129      1DAF8304 
 129      0821A5
 130 0021 845448FC 		.ascii	"\204TH\374\000\011\002R\372\243\252\234\311\306\036"
 130      00090252 
 130      FAA3AA9C 
 130      C9C61E
 131 0030 351B533F 		.ascii	"5\033S?\020\210\037\031\307\001\202x$\212,5\244\252"
 131      10881F19 
 131      C7018278 
 131      248A2C35 
 131      A4AA
 132 0042 4405B421 		.ascii	"D\005\264!\004\010FT-B\302i\222\212$\2127\020\032\251"
 132      04084654 
 132      2D42C269 
 132      928A248A 
 132      37101AA9 
 133 0056 6D7EF857 		.ascii	"m~\370W\225\212&\012\264U\232*\302\234s\357\314\335"
 133      958A260A 
 133      B4559A2A 
 133      C29C73EF 
 133      CCDD
 134 0068 5DEF6E62 		.ascii	"]\357nb'\203`~\334\271\367\356\375\276{\316\271\347"
 134      2783607E 
 134      DCB9F7EE 
 134      FDBE7BCE 
 134      B9E7
 135 007a 3B3B330A 		.ascii	";;3\012(0\377\332\312\000\036H\001\304\361\316\332\200"
 135      2830FFDA 
 135      CA001E48 
 135      01C4F1CE 
 135      DA80
 136 008c B5EE9DC1 		.ascii	"\265\356\235\301N+S\370]Q\324\217\333\300\012z\276\310"
 136      4E2B53F8 
 136      5D51D48F 
 136      DBC00A7A 
 136      BEC8
 137 009e 81A5AB2C 		.ascii	"\201\245\253,K\263\343\232\207\371D\307+:G5\237\342"
 137      4BB3E39A 
 137      87F944C7 
 137      2B3A4735 
 137      9FE2
 138 00b0 9D5E870B 		.ascii	"\235^\207\013\375g#\270\320\257h\347\021\020\014|\204"
 138      FD6723B8 
 138      D0AF68E7 
 138      11100C7C 
 138      84
 139 00c1 605D7360 		.ascii	"`]s`\001%\313\331\202\234-\310t1\035\022\235\243\232"
 139      0125CBD9 
 139      829C2DC8 
ARM GAS  /tmp/ccP1FTzj.s 			page 10


 139      74311D12 
 139      9DA39A
 140 00d4 AE843849 		.ascii	"\256\2048I\230\223\204\225,'i\340$\015J\204c\243\034"
 140      98938495 
 140      2C2769E0 
 140      240D4A84 
 140      63A31C
 141 00e7 1B7128A3 		.ascii	"\033q(\243,.:1\3219\252\305\225\030'i\344$\2156I\023"
 141      2C2E3A31 
 141      D139AAC5 
 141      95182769 
 141      E4248D36 
 142 00fd 2769B247 		.ascii	"'i\262G\315|\324\254$\370(\311G\011\2072\251\244\370"
 142      CD7CD4AC 
 142      24F828C9 
 142      47098732 
 142      A9A4F8
 143 0110 749A4FA7 		.ascii	"t\232O\247\234\351\264\222\341\323-|:\343L\2678\235"
 143      9CE9B492 
 143      E1D32D7C 
 143      3AE34CB7 
 143      389D
 144 0122 2C63D401 		.ascii	",c\324\001\006;Z\025\325\343\365\371\265@0\244\207\033"
 144      063B5A15 
 144      D5E3F5F9 
 144      B54030A4 
 144      871B
 145 0134 22D158BC 		.ascii	"\"\321X\274\261\2519\221L\2453-Y\266\343'\214\342\256"
 145      B1A93991 
 145      4CA5332D 
 145      59B6E327 
 145      8CE2AE
 146 0147 77C26F2C 		.ascii	"w\302o,\353\300\354\211\313\027\331\253\223\323\273"
 146      EBC0EC89 
 146      CB17D9AB 
 146      93D3BB
 147 0156 5EB3AECF 		.ascii	"^\263\256\317\3151f\322\217\006\203M\330c\355\374\246"
 147      CD3166D2 
 147      8F06834D 
 147      D863EDFC 
 147      A6
 148 0167 782A4F4C 		.ascii	"x*OL\000\255\251\203V\200\203T\223\251\267\200Y\350"
 148      00ADA983 
 148      56808354 
 148      93A9B780 
 148      59E8
 149 0179 3EEF1EB4 		.ascii	">\357\036\264T\007\343)a4\201a\337#f\177\205?\336\005"
 149      5407E329 
 149      61348161 
 149      DF23667F 
 149      853FDE05 
 150 018d F9B377F6 		.ascii	"\371\263w\366\357o\035\036\254\010\270O\201mlA\261\340"
 150      EF6F1D1E 
 150      AC08B84F 
 150      816D6C41 
 150      B1E0
 151 019f 87F5CBC9 		.ascii	"\207\365\313\311\351q\211\375\356\234\3337}\355\271"
ARM GAS  /tmp/ccP1FTzj.s 			page 11


 151      E97189FD 
 151      EE9CDB37 
 151      7DEDB9
 152 01ae 97D3D66B 		.ascii	"\227\323\326k;\367Z\337\340^x^\012\214.\310\314}\323"
 152      3BF75ADF 
 152      E05E785E 
 152      0A8C2EC8 
 152      CC7DD3
 153 01c1 579F7BA5 		.ascii	"W\237{\245\034\351W\340\311\233!\337S\254\331\271\271"
 153      1CE957E0 
 153      C99B21DF 
 153      53ACD9B9 
 153      B9
 154 01d2 6B8702B8 		.ascii	"k\207\002\270\221\3114\005\033\217J\215\007\033\257"
 154      91C93405 
 154      1B8F4A8D 
 154      071BAF
 155 01e1 179B800F 		.ascii	"\027\233\200\017\372\331\273\254\023\374\366]\303I\177"
 155      FAD9BBAC 
 155      13FCF65D 
 155      C3497F
 156 01f0 80D604A9 		.ascii	"\200\326\004\251\011Q\243\333\277\205q\020l\240&b\317"
 156      0951A3DB 
 156      BF857110 
 156      6CA02662 
 156      CF
 157 0201 4471108A 		.ascii	"Dq\020\212\341\3400\016\342\264\266\221\232&\"i\246"
 157      E1E0300E 
 157      E2B4B691 
 157      9A262269 
 157      A6
 158 0212 5E829AA4 		.ascii	"^\202\232\244\275:E\32045\031{\246\205\360Y\033\337"
 158      BD3A45D0 
 158      3435197B 
 158      A685F059 
 158      1BDF
 159 0224 4A6BDBA8 		.ascii	"Jk\333\250Yb\317\264\323\240\203\232Nb\\J\275e\324,"
 159      5962CFB4 
 159      D3A0839A 
 159      4E625C4A 
 159      BD65D42C 
 160 0238 A7E10AEA 		.ascii	"\247\341\012\352\255\244\246\213hVa\243\257\306F\355"
 160      ADA4A68B 
 160      685661A3 
 160      AFC646ED 
 161 0248 C626DC43 		.ascii	"\306&\334C\3035\264\256\227\226\344\250\351\243(\254"
 161      C335B4AE 
 161      9796E4A8 
 161      E9A328AC 
 162 0258 057E5AE0 		.ascii	"\005~Z\340\205]\2309\355\302\020\261\037?C\274\036\303"
 162      855D9839 
 162      EDC210B1 
 162      1F3F43BC 
 162      1EC3
 163 026a B698C65B 		.ascii	"\266\230\306[+\336\324\307\231B\267\031\330\371\325"
 163      2BDED4C7 
 163      9942B719 
ARM GAS  /tmp/ccP1FTzj.s 			page 12


 163      D8F9D5
 164 0279 FF8E4DBD 		.ascii	"\377\216M\275\244\332@@\320\021JP\252\016\014\376\210"
 164      A4DA4040 
 164      D0114A50 
 164      AA0E0CFE 
 164      88
 165 028a 7AC542AC 		.ascii	"z\305B\254\212j\334\006\247\330\257\255\375\367\231"
 165      8A6ADC06 
 165      A7D8AFAD 
 165      FDF799
 166 0299 AC818674 		.ascii	"\254\201\206t8\021~$\362\3673\366\357QqT\310\316nH\334"
 166      38117E24 
 166      F2F733F6 
 166      EF517154 
 166      C8CE6E48 
 167 02ae CF3EC00E 		.ascii	"\317>\300\016'j/#\352g\277\307\002\317\257\"<{\344\353"
 167      276A2F23 
 167      EA67BFC7 
 167      02CFAF22 
 167      3C7BE4EB 
 168 02c2 7B047680 		.ascii	"{\004v\200\261g\340\377\326n+j\262\230\301D.\322\214"
 168      B167E0FF 
 168      D66E2B6A 
 168      B298C144 
 168      2ED28C
 169 02d5 66B27881 		.ascii	"f\262x\2019;\020]#`@\232\000\316\300DQu\320\012\022"
 169      393B105D 
 169      2360409A 
 169      00CEC044 
 169      5175D00A 
 170 02ea D08F1A66 		.ascii	"\320\217\032f\267\270\330\016\332\301\353,P%}\263\301"
 170      B7B8D80E 
 170      DAC1EB2C 
 170      50257DB3 
 170      C1
 171 02fb C41F10AD 		.ascii	"\304\037\020\255\367\253\0046Y\002\340S\330\365/&\227"
 171      F7AB0436 
 171      5902E053 
 171      D8F52F26 
 171      97
 172 030c 6F12BA2A 		.ascii	"o\022\272*]\217\2437s\001\212\352\373\030U}\241\276"
 172      5D8FA337 
 172      73018AEA 
 172      FB18557D 
 172      A1BE
 173 031e 436DDF05 		.ascii	"Cm\337\005\243\007\316F\324\305D\362\206l^\230^\247"
 173      A307CE46 
 173      D4C544F2 
 173      866C5E98 
 173      5EA7
 174 0330 52502F9D 		.ascii	"RP/\235OHB\321\231>}\351\250\337a7\250R\003:\351\221"
 174      4F4842D1 
 174      993E7DE9 
 174      A8DF6137 
 174      A852033A 
 175 0346 31491ACC 		.ascii	"1I\032\314\323\317\216\213\255k\207=LA\215`\350S\024"
 175      D3CF8E8B 
ARM GAS  /tmp/ccP1FTzj.s 			page 13


 175      AD6B873D 
 175      4C418D60 
 175      E85314
 176 0359 FA9D5F4E 		.ascii	"\372\235_NL\311`y\007(TE\3608\326K\336\264!(i\221\311"
 176      4CC96079 
 176      07285445 
 176      F038D64B 
 176      DEB42128 
 177 0370 32FCD076 		.ascii	"2\374\320vO|\371\312\303\016\324?\300|\374\034\230t"
 177      4F7CF9CA 
 177      C30ED43F 
 177      C07CFC1C 
 177      9874
 178 0382 C307F80F 		.ascii	"\303\007\370\017\246\342i\374c\334\357,\363\331g\345"
 178      A6E269FC 
 178      63DCEF2C 
 178      F3D967E5 
 179 0392 5C7F0531 		.ascii	"\\\177\0051\003\3409\250\"\213\367b\200\240~;\236\013"
 179      03E039A8 
 179      228BF762 
 179      80A07E3B 
 179      9E0B
 180 03a4 C8FB9BA7 		.ascii	"\310\373\233\247':\371\321\211\027.K/\265_\301\201q"
 180      273AF9D1 
 180      89172E4B 
 180      2FB55FC1 
 180      8171
 181 03b6 8BBC2AF9 		.ascii	"\213\274*\371G1\2623)\2569\260\211\342\261\017O?\\\275"
 181      4731B233 
 181      29AE39B0 
 181      89E2B10F 
 181      4F3F5CBD 
 182 03ca FB000B20 		.ascii	"\373\000\013 \313&\361\357*\322\377O\367:\354\301:\371"
 182      CB26F1EF 
 182      2AD2FF4F 
 182      F73AECC1 
 182      3AF9
 183 03dc E9215875 		.ascii	"\351!Xu~\006k\344\247\006\307]\316\317\000\274\344s"
 183      7E066BE4 
 183      A706C75D 
 183      CECF00BC 
 183      E473
 184 03ee 233FC9D5 		.ascii	"#?\311\325\317\245\253!\351j\213\201\247-]\365\362\270"
 184      CFA5AB21 
 184      E96A8B81 
 184      A72D5DF5 
 184      F2B8
 185 0400 A64C966D 		.ascii	"\246L\226m\203\277\330\325\246\325\331\321$\256\212"
 185      83BFD8D5 
 185      A6D5D9D1 
 185      24AE8A
 186 040f 10846A84 		.ascii	"\020\204j\204 \010\027\324E\207\240\316\371\013\306"
 186      200817D4 
 186      4587A0CE 
 186      F90BC6
 187 041e 105C6E50 		.ascii	"\020\\nP)\337\217\275\370\337\317d\271\011\0170]$\263"
 187      29DF8FBD 
ARM GAS  /tmp/ccP1FTzj.s 			page 14


 187      F8DFCF64 
 187      B9090F30 
 187      5D24B3
 188 0431 9C6AC059 		.ascii	"\234j\300Y^\236\326CY\341)\323\302\015\312\032\242\235"
 188      5E9ED643 
 188      59E129D3 
 188      C20DCA1A 
 188      A29D
 189 0443 92B67BE2 		.ascii	"\222\266{\342w{\244:\"\270\315<u\350p*>O\034z\2258t"
 189      777BA43A 
 189      22B8CD3C 
 189      75E8702A 
 189      3E4F1C7A 
 190 045a 5B1C4112 		.ascii	"[\034A\022G$$\304\021\266c\2638q\3249Q\214\310\205\013"
 190      472424C4 
 190      11B663B3 
 190      3871D439 
 190      518CC885 
 191 046f 7FD8B3CE 		.ascii	"\177\330\263\316\261!\272\006\016\223\223KH${\251\327"
 191      B121BA06 
 191      0E93934B 
 191      48247BA9 
 191      D7
 192 0480 4E6EEEA7 		.ascii	"Nn\356\247^G\201;Nt\035\362\264}e\217\033Ex~Z\026\352"
 192      5E47813B 
 192      4E741DF2 
 192      B47D658F 
 192      1B45787E 
 193 0497 980C58A7 		.ascii	"\230\014X\247A>\310\020Z?\235\027\263(\227\222xz\011"
 193      413EC810 
 193      5A3F9D17 
 193      B3289792 
 193      787A09
 194 04aa 53862C15 		.ascii	"S\206,\025\352\233\370d\217<\2258\022\362e\036\250\370"
 194      EA9BF864 
 194      8F3C9538 
 194      12F2651E 
 194      A8F8
 195 04bc 3B68AC23 		.ascii	";h\254#7\037a\252\345\326X#\327\032(Z.\345\232\2505"
 195      371F61AA 
 195      E5D65823 
 195      D71A285A 
 195      2EE59AA8 
 196 04d1 D7E57E4D 		.ascii	"\327\345~M\267_k\232\221\245\242\326\354\374\221\303"
 196      B75F6B9A 
 196      91A5A2D6 
 196      ECFC91C3 
 197 04e1 9EA8E3BC 		.ascii	"\236\250\343\274\237`\325\316'j8\037\301%\356\326\232"
 197      9F60D5CE 
 197      276A381F 
 197      C125EED6 
 197      9A
 198 04f2 287C056E 		.ascii	"(|\005n\324\032\027\036L\204A18\256\012\345\237\376"
 198      D41A171E 
 198      4C844131 
 198      38AE0AE5 
 198      9FFE
ARM GAS  /tmp/ccP1FTzj.s 			page 15


 199 0504 A6A4FCD4 		.ascii	"\246\244\374\324\000K\316S~\032go]\371\351\222\362\377"
 199      004BCE53 
 199      7E1A676F 
 199      5DF9E992 
 199      F2FF
 200 0516 5D527E06 		.ascii	"]R~\006\267\231\247\3748|\350\231\247\374d\225\362\223"
 200      B799A7FC 
 200      387CE899 
 200      A7FC6495 
 200      F293
 201 0528 B6F2A3A4 		.ascii	"\266\362\243\244\374LL(\277\321\016\255{\312\177cR*"
 201      FC4C4C28 
 201      BFD10EAD 
 201      7BCA7F63 
 201      522A
 202 053a BFC535E5 		.ascii	"\277\3055\345g\027\254\374\226M\342U\244J\371oO\312"
 202      6717ACFC 
 202      964DE255 
 202      A44AF96F 
 202      4FCA
 203 054c 53694542 		.ascii	"SiEB{Y\205\362\333\352$\277F\230\352\344o\253\221\374"
 203      7B5985F2 
 203      DBEA24BF 
 203      4698EAE4 
 203      6FAB91FC 
 204 0560 4DD083CF 		.ascii	"M\320\203\317Y\317\317\276\370\246\\\266\344\366m\377"
 204      59CFCFBE 
 204      F8A65CB6 
 204      E4F66DFF 
 205 0570 A0647B3B 		.ascii	"\240d{;\022\326\262\275\243\216\355\001\302T\333\336"
 205      12D6B2BD 
 205      A38EED01 
 205      C254DBDE 
 206 0580 51C3F666 		.ascii	"Q\303\366f\210\271Z\264N\376Yq\266\353\274\375\242\265"
 206      88B95AB4 
 206      4EFE5971 
 206      B6EBBCFD 
 206      A2B5
 207 0592 14592A8A 		.ascii	"\024Y*\212\326\347\2178\354\313\352\370\036$X\265\357"
 207      D6E78F38 
 207      ECCBEAF8 
 207      1E2458B5 
 207      EF
 208 05a3 CB6AF89E 		.ascii	"\313j\370\236\200\240\2735+\011\376\037H\311\302X]\331"
 208      80A0BB35 
 208      2B09FE1F 
 208      48C9C258 
 208      5DD9
 209 05b5 776EDB62 		.ascii	"wn\333bJO\371\273T\021v\315\036x\323_\005_f0\255\016"
 209      4A4FF9BB 
 209      541176CD 
 209      1E78D35F 
 209      055F6630 
 210 05cb DC64CBB9 		.ascii	"\334d\313\271\345\256\024\025\027\" \376Bgd6._x6J\335"
 210      E5AE1415 
 210      172220FE 
 210      42676436 
ARM GAS  /tmp/ccP1FTzj.s 			page 16


 210      2E5F7836 
 211 05e1 AD405859 		.ascii	"\255@XY\372I\335\255\254\223{!\302T\347\336\312\032"
 211      FA49DDAD 
 211      AC937B21 
 211      C254E7DE 
 211      CA1A
 212 05f3 B997028F 		.ascii	"\271\227\002\217\273\271\227\006\325\215\334\343\345"
 212      BBB99706 
 212      D58DDCE3 
 212      E5
 213 0600 FC3F930F 		.ascii	"\374?\223\017:\266w-\272\234\227\271\211d\177\273~\371"
 213      3AB6772D 
 213      BA9C97B9 
 213      89647FBB 
 213      7EF9
 214 0612 9FA77CF3 		.ascii	"\237\247|\363^?\255\327\177\233\223\0370J\357\2443S"
 214      5E3FADD7 
 214      7F9B931F 
 214      304AEFA4 
 214      3353
 215 0624 31567A29 		.ascii	"1Vz)\015\020\203\201\217\360@\225`U7\034\262,k\366\352"
 215      0D108381 
 215      8FF04095 
 215      6055371C 
 215      B22C6BF6 
 216 0639 CCF937E8 		.ascii	"\314\3717\350\005]\027c\353\036\223\255\220'[:\227\256"
 216      055D1763 
 216      EB1E93AD 
 216      90275B3A 
 216      97AE
 217 064b 023F1732 		.ascii	"\002?\0272\250\213\233\262\231q?\337V\274\324g\262/"
 217      A88B9BB2 
 217      99713FDF 
 217      56BCD467 
 217      B22F
 218 065d 8CDC3F95 		.ascii	"\214\334?\225\351g\207\025rx\265M<b2U\022\257B\003\210"
 218      E9678715 
 218      7278B54D 
 218      3C623255 
 218      12AF4203 
 219 0672 4BB7B978 		.ascii	"K\267\271x(\337q\360\023\273\217\235\236\331\027pB\326"
 219      28DF71F0 
 219      13BB8F9D 
 219      9ED91770 
 219      42D6
 220 0684 8D24BC9A 		.ascii	"\215$\274\2323\2365)g\276GZ\267\332\300\367\010\341"
 220      339E3529 
 220      67BE475A 
 220      B7DAC0F7 
 220      08E1
 221 0696 57174F9C 		.ascii	"W\027O\234\263\364\331\241\333\026U\267\301\3642M\206"
 221      B3F4D9A1 
 221      DB1655B7 
 221      C1F4324D 
 221      86
 222 06a7 485B3DDC 		.ascii	"H[=\334\316\223gmI\322\241\340u'Z$m\\#\351{\013\374"
 222      CE93676D 
ARM GAS  /tmp/ccP1FTzj.s 			page 17


 222      49D2A1E0 
 222      75275A24 
 222      6D5C23E9 
 223 06be 8D9EC0BD 		.ascii	"\215\236\300\2755\316e\200\330\334}+.J\231\255\271\005"
 223      35CE6580 
 223      D8DC7D2B 
 223      2E4A99AD 
 223      B905
 224 06d0 99F522AC 		.ascii	"\231\365\"\254\226\314rud\246\023\246Zf\271\0322\313"
 224      96CC7275 
 224      64A613A6 
 224      5A66B91A 
 224      32CB
 225 06e2 80E2AECC 		.ascii	"\200\342\256\314Z\200\271\363\006<q\345\353sGXU\205"
 225      5A80B9F3 
 225      063C71E5 
 225      EB734758 
 225      5585
 226 06f4 CD19F414 		.ascii	"\315\031\364\024\000t\346}\274\214\317\036\312;\016"
 226      0074E67D 
 226      BC8CCF1E 
 226      CA3B0E
 227 0703 F6557C9F 		.ascii	"\366U|\237\341\253j\227\361\265A\347\273LY\224\327\""
 227      E1AB6A97 
 227      F1B541E7 
 227      BB4C5994 
 227      D722
 228 0715 01FF2436 		.ascii	"\001\377$6W\363\223X\231\015\225\321\016\023\226G[D"
 228      57F39358 
 228      990D95D1 
 228      0E139647 
 228      5B44
 229 0727 204B1F13 		.ascii	" K\037\023?\203q\255\024\226\307PP\3054a\356\310\015"
 229      3F8371AD 
 229      1496C750 
 229      50C53461 
 229      EEC80D
 230 073a 0E15F239 		.ascii	"\016\025\3629ch\313\323\271-\371's\306\240\271\331\034"
 230      6368CBD3 
 230      B92DF927 
 230      73C6A0B9 
 230      D91C
 231 074c 1AC98D0E 		.ascii	"\032\311\215\016\217m\377yn4?2\232\033\036\345\367_"
 231      8F6DFF79 
 231      6E343F32 
 231      9A1B1EE5 
 231      F75F
 232 075e 8CE5C7F2 		.ascii	"\214\345\307\362#\275\006\334uC\010v\020`n7\266\215"
 232      23BD06DC 
 232      75430876 
 232      10606E37 
 232      B68D
 233 0770 6DC14583 		.ascii	"m\301E\2036l\020\374\346\326\321\302\023\275}l;3\357"
 233      366C10FC 
 233      E6D6D1C2 
 233      13BD7D6C 
 233      3B33EF
ARM GAS  /tmp/ccP1FTzj.s 			page 18


 234 0783 BB1945FE 		.ascii	"\273\031E\376\251\321\334\206\2076>\270\261\30444\234"
 234      A9D1DC86 
 234      87363EB8 
 234      B1C43434 
 234      9C
 235 0794 FF995178 		.ascii	"\377\231Qx`l\273\201d\321\2076>\332\276\271\177$\377"
 235      606CBB81 
 235      64D18736 
 235      3EDABEB9 
 235      7F24FF
 236 07a7 C4B0D9D3 		.ascii	"\304\260\331\323\276\274\017\224a\360\027\362\205\241"
 236      BEBC0F94 
 236      61F017F2 
 236      85A1
 237 07b5 E1A7C1BB 		.ascii	"\341\247\301\273\376\376\015?\206\273\027e\345\350\340"
 237      FEFE0D3F 
 237      86BB1765 
 237      E5E8E0
 238 07c4 70BE7F0B 		.ascii	"p\276\177\013\231\371-+'g\030"
 238      99F92D2B 
 238      276718
 239              		.text
 240              		.section	.gnu.lto_queues1_execute.2a0a206d1169854,"",%progbits
 241 0000 789CBD55 		.ascii	"x\234\275U]h\023K\024>g&\233\335\354n\322\336\372$B"
 241      5D68134B 
 241      143E6726 
 241      9BDDEC6E 
 241      D2DEFA24 
 242 0015 098208FE 		.ascii	"\011\202\010\376t\333\212\212\017\212\"\010>\350\203"
 242      74DB8A8A 
 242      0F8A2208 
 242      3EE883
 243 0024 B5A04F92 		.ascii	"\265\240O\222n\327f\3214\232&r\305\007\267?BA\021\021"
 243      6ED766D1 
 243      349A2672 
 243      C507B73F 
 243      42411111 
 244 0038 1FFC4150 		.ascii	"\037\374APD\360\017\377\020\205\242\020[\225\212\324"
 244      44F00FFF 
 244      1085A210 
 244      5B958AD4 
 245 0048 DACB55B0 		.ascii	"\332\313U\260\010\026\301VP\312\275\027\237Dn<\263\223"
 245      0816C156 
 245      50CABD17 
 245      9F446E3C 
 245      B393
 246 005a 8DA9D55A 		.ascii	"\215\251\325ZQ\\\310\231\2313\347|\347\314w\346L\030"
 246      515CC899 
 246      9933E77C 
 246      E7CC77E6 
 246      4C18
 247 006c 30F8F23B 		.ascii	"0\370\362;E\277\233a\200\277h\304\030 ;\364\030\240"
 247      45BF9B61 
 247      80BF68C4 
 247      18203BF4 
 247      18A0
 248 007e 5D638CDF 		.ascii	"]c\214\337\256\006O\017\375m\201gr\214Ju\010\303r\242"
ARM GAS  /tmp/ccP1FTzj.s 			page 19


 248      AE064F0F 
 248      FD6D8167 
 248      728C4A75 
 248      08C372A2 
 249 0092 C8C95D2D 		.ascii	"\310\311]-\314\224\374\0122T\237T\220\241\312\264\027"
 249      CC94FC0A 
 249      32549F54 
 249      90A1CAB4 
 249      17
 250 00a3 06AD2237 		.ascii	"\006\255\"7z\201\226\032\323\273\347\212\245\220f\004"
 250      7A81961A 
 250      D3BBE78A 
 250      A5906604 
 251 00b3 75E9AC33 		.ascii	"u\351\2543\343\031\301\352f\017\2050\215\000\334\224"
 251      E319C1EA 
 251      660F8530 
 251      8D00DC94 
 252 00c3 138C228A 		.ascii	"\023\214\"\212\021\020\3662\036R\302\252\026\321\015"
 252      1110F632 
 252      1E52C2AA 
 252      16D10D
 253 00d2 338A7B37 		.ascii	"3\212{7\243\310\230\315\206\323\236wx\344\365\370\010"
 253      A3C898CD 
 253      86D39E77 
 253      78E4F5F8 
 253      08
 254 00e3 1EF3F25D 		.ascii	"\036\363\362]\247\274\217\205\002\242\213t\272\305\010"
 254      A7BC8F85 
 254      02A28B74 
 254      BAC508
 255 00f2 36C2265A 		.ascii	"6\302&Z`\334\037Xh\342q}\337C#/\317_J\036;R\346\313"
 255      60DC1F58 
 255      68E2717D 
 255      DF43232F 
 255      CF5F4A1E 
 256 010a 19B47ECF 		.ascii	"\031\264~\317\367\012\313\217\024\012\227\337?8{\033"
 256      F70ACB8F 
 256      140A97DF 
 256      3F387B1B 
 257 011a 2FB0E508 		.ascii	"/\260\345\010\011<\215\263A\001\012\255\222\010\031"
 257      093C8DB3 
 257      41010AAD 
 257      920819
 258 0129 24145388 		.ascii	"$\024S\210Xq\257J\250k\204\260H\204k\205\250\023\366"
 258      5871AF4A 
 258      A86B84B0 
 258      48846B85 
 258      A813F6
 259 013c F5647086 		.ascii	"\365dp\206\014\026\211=\302V\240\213\362\212K/\020\211"
 259      0C16893D 
 259      C256A08B 
 259      F28A4B2F 
 259      1089
 260 014e D0B791E4 		.ascii	"\320\267\221\344\340LhDF\003\177\014\035\377\216\367"
 260      E04C6844 
 260      46037F0C 
 260      1DFF8EF7 
ARM GAS  /tmp/ccP1FTzj.s 			page 20


 261 015e 5D3FC08B 		.ascii	"]?\300\213\266@\020gQ\001\237)\204[\310Ey\271\254q5"
 261      B6401067 
 261      51019F29 
 261      845BC845 
 261      79B9AC71 
 262 0173 F4E349EF 		.ascii	"\364\343I\357\350J\027U\261\024\307\321\342bV\332\177"
 262      E84A1755 
 262      B114C7D1 
 262      E26256DA 
 262      7F
 263 0184 54DC8FC8 		.ascii	"T\334\217\310\303\015@G\317\375\207/Qb\266\240r\002"
 263      C30D4047 
 263      CFFD872F 
 263      5162B6A0 
 263      7202
 264 0196 8E9393BE 		.ascii	"\216\223\223\276\007>x\335^\245\213F\012\003$C\373\034"
 264      073E78DD 
 264      5EA58B46 
 264      0A032443 
 264      FB1C
 265 01a8 7A003A07 		.ascii	"z\000:\007\373\356<Z?9\251\026\254!\030a\257\213\345"
 265      FBEE3C5A 
 265      3F39A916 
 265      AC211861 
 265      AF8BE5
 266 01bb 20ECBBFA 		.ascii	" \354\273\372\337\322\000^-\341\2326\372\300>2\235\203"
 266      DFD2005E 
 266      2DE19A36 
 266      FAC03E32 
 266      9D83
 267 01cd DC5C8C02 		.ascii	"\334\\\214\002\364C\327\273R6\252\330\234P\216F:n!\""
 267      F443D7BB 
 267      5236AAD8 
 267      9C508E46 
 267      3A6E2122 
 268 01e1 48B946A4 		.ascii	"H\271F\244\230Sr\222\300s4\3619\2002\016\022x\021\253"
 268      98537292 
 268      C07334F1 
 268      3980320E 
 268      127811AB 
 269 01f5 CB1143F0 		.ascii	"\313\021C\360\244B \342O\242\375\010D|\252\204\024\310"
 269      A44220E2 
 269      4FA2FD08 
 269      447CAA84 
 269      14C8
 270 0207 AFE05499 		.ascii	"\257\340T\231\267}\373G\207x@\206\321\"\030#\342\273"
 270      B77DFB47 
 270      87784086 
 270      D1221823 
 270      E2BB
 271 0219 4B2A93B4 		.ascii	"K*\223\264\002.\266\312gZ\011\202\226X\256\260Q\366"
 271      022EB6CA 
 271      675A0982 
 271      9658AEB0 
 271      51F6
 272 022b BED068B2 		.ascii	"\276\320h\262\232E#\362v\261R\002v^9\270>\300\214Q\230"
 272      9A4523F2 
ARM GAS  /tmp/ccP1FTzj.s 			page 21


 272      76B15202 
 272      765E39B8 
 272      3EC08C51 
 273 0240 624D827C 		.ascii	"bM\202|\302@\215\311\2512\243\355j`&mx)\353\347 5\000"
 273      C2408DC9 
 273      A932A3ED 
 273      6A60266D 
 273      7829EBE7 
 274 0257 A1739C50 		.ascii	"\241s\234P\2247\021\341\252\026\271\235\306\025\376"
 274      943711E1 
 274      AA16B99D 
 274      C615FE
 275 0266 2D0413AB 		.ascii	"-\004\023\253\303\037O\334\177\252\224p\344$\277\177"
 275      C31F4FDC 
 275      7FAA9470 
 275      E424BF7F 
 276 0276 AC2EC0B4 		.ascii	"\254.\300\264\221\313\213l\315\207\013\236\347\211g"
 276      91CB8B6C 
 276      CD870B9E 
 276      E78967
 277 0285 63217530 		.ascii	"c!u0\265F\273'X\375\343\253\335\341\3437\241\037\257"
 277      B546BB27 
 277      58FDE3AB 
 277      DDE1E337 
 277      A11FAF
 278 0298 37E8928E 		.ascii	"7\350\222\216\341\2533\022x\327\247\254v>\314\2336\014"
 278      E1AB3312 
 278      78D7A7AC 
 278      763ECC9B 
 278      360C
 279 02aa 96C1F4C3 		.ascii	"\226\301\364\303\275\261\366!\014p,\202*\277.\032\\"
 279      BDB1F621 
 279      0C702C82 
 279      2ABF2E1A 
 279      5C
 280 02bb 62E2BA0C 		.ascii	"b\342\272\014\3773+0\251\363C\351\323\013\305&\204\352"
 280      FF332B30 
 280      A9F343E9 
 280      D30BC526 
 280      84EA
 281 02cd 7A5716AA 		.ascii	"zW\026\252\256\324\307\301\267\221^\216\236\030o$-U"
 281      AED4C7C1 
 281      B7915E8E 
 281      9E186F24 
 281      2D55
 282 02df 96A28E77 		.ascii	"\226\242\216w\306\002\353E-X/;\376\325\262\340\236T"
 282      C602EB45 
 282      2D582F3B 
 282      FED5B2E0 
 282      9E54
 283 02f1 7DA3E399 		.ascii	"}\243\343\231\260\237\334\361U_t\374s\250\027\032\216"
 283      B09FDCF1 
 283      555F74FC 
 283      73A8171A 
 283      8E
 284 0302 A0FD3FF0 		.ascii	"\240\375?\360\2527\354/\000\"\376\301\015\270\027\371"
 284      AA37EC2F 
ARM GAS  /tmp/ccP1FTzj.s 			page 22


 284      0022FEC1 
 284      0DB817F9 
 285 0312 65974B72 		.ascii	"e\227Kri\302\2010\037\204NmR+U\331\305\274\\\234\021"
 285      69C28130 
 285      1F844E6D 
 285      522B55D9 
 285      C5BC5C9C 
 286 0327 5847C503 		.ascii	"XG\305\003=D\377a\345\374 )\005x\275\225L\247\034\313"
 286      3D44FF61 
 286      E5FC2029 
 286      0578BD95 
 286      4CA71CCB 
 287 033b 4E37EFB6 		.ascii	"N7\357\266\232\235]\226\235t\233\334t\233\225\315\344"
 287      9A9D5D96 
 287      9D749BDC 
 287      749B95CD 
 287      E4
 288 034c 5AB75959 		.ascii	"Z\267YY\247-ke\262\376\2703\347\344\234\266\032\033"
 288      A72D6B65 
 288      B2FEB833 
 288      E7E49CB6 
 288      1A1B
 289 035e D05D32A5 		.ascii	"\320]2\245\023M\310\305m\265\267\347\232\311(YtL\202"
 289      134DC8C5 
 289      6DB5B7E7 
 289      9AC92859 
 289      744C82
 290 0371 EA6ECDA6 		.ascii	"\352n\315\246v\324\324\256\374\236\273\363g\326Z\275"
 290      76D4D4AE 
 290      FC9EBBF3 
 290      67D65ABD 
 291 0381 AE616DC3 		.ascii	"\256am\303g\224t\306\331b\247\326\344Zm\002\252\\\327"
 291      679474C6 
 291      D962A7D6 
 291      E45A6D02 
 291      AA5CD7
 292 0394 B021DE94 		.ascii	"\260!\336\224hsvd\334\005\3619\265\3002\240\246\234"
 292      68737664 
 292      DC05F139 
 292      B5C032A0 
 292      A69C
 293 03a6 543AB31B 		.ascii	"T:\263\033>\001\225(\266\006"
 293      3E019528 
 293      B606
 294              		.text
 295              		.section	.gnu.lto_queues2_execute.part.4.2a0a206d1169854,"",%progbits
 296 0000 789CB518 		.ascii	"x\234\265\030[l\034\325\365\234\231}\357z\275^?\327"
 296      5B6C1CD5 
 296      F59C997D 
 296      EF7ABD5E 
 296      3FD7
 297 0012 4E1CC771 		.ascii	"N\034\307q^v\354\215\363$?\224\026T)\037\364\243I$\332"
 297      5E76EC8D 
 297      F3243F94 
 297      1654291F 
 297      F4A34924 
 298 0027 1FB49E6C 		.ascii	"\037\264\236l\355\2418\006{M\211\372\221\261\327m\215"
ARM GAS  /tmp/ccP1FTzj.s 			page 23


 298      EDA13806 
 298      7B4D89FA 
 298      91B1D76D 
 298      8D
 299 0038 0C954B91 		.ascii	"\014\225K\221H!\221h\241\020U$q\036TJ\322\017\027\323"
 299      48219168 
 299      A1105524 
 299      711E544A 
 299      D20F17D3 
 300 004c 9294361B 		.ascii	"\222\2246\033*5\250%BV\325\027\012\242\011\210\252\202"
 300      2A35A825 
 300      4256D517 
 300      0AA20988 
 300      AA82
 301 005e B6DB73EE 		.ascii	"\266\333s\356\314\334\335\365\316&\273\316\262\226\316"
 301      CCDCDDF5 
 301      CE26BBCE 
 301      B296CE
 302 006d DC7BE6BC 		.ascii	"\334{\346\274\037\367\236\261\002\012,\375\355F\200"
 302      1FF79EB1 
 302      020A2CFD 
 302      ED4680
 303 007c B3318006 		.ascii	"\2631\200\006zb\033`\353\354eZ\264\242\"\236\012\272"
 303      7A621B60 
 303      EBEC655A 
 303      B4A2229E 
 303      0ABA
 304 008e F839E153 		.ascii	"\3709\341S\315\305/}.E\235\277\033\214\200\373J-\030"
 304      CDC52F7D 
 304      2E459DBF 
 304      1B8C80FB 
 304      4A2D18
 305 00a1 21B7E2B9 		.ascii	"!\267\342\271\026\244\235\367\354\353@[\217\342\233"
 305      16A49DF7 
 305      ECEB405B 
 305      8FE29B
 306 00b0 5ECF5B86 		.ascii	"^\317[\206!/\372Lf\237\342\277\032't\340|;\241\375\030"
 306      212FFA4C 
 306      669FE2BF 
 306      1A2774E0 
 306      7C3BA1FD 
 307 00c5 33D10125 		.ascii	"3\321\001%&\320A\201\016*!\261\253\021\273\220MTc\021"
 307      26D04181 
 307      0E2A21B1 
 307      AB11BB90 
 307      4D546311 
 308 00d9 85053AAC 		.ascii	"\205\005:\254\324\212]D\354jm\242\210R'\320Q\201\256"
 308      D48A5D44 
 308      EC6A6DA2 
 308      885227D0 
 308      5181AE
 309 00ec B3D151A5 		.ascii	"\263\321Q\245^\240\033\004\272\336F7X\"\033\005\272"
 309      5EA01B04 
 309      BADE4637 
 309      58221B05 
 309      BA
 310 00fd D1DA3589 		.ascii	"\321\3325\211]\223\322,v-b\327l\263\264\330\213\030"
ARM GAS  /tmp/ccP1FTzj.s 			page 24


 310      5D93D22C 
 310      762D62D7 
 310      6CB3B4D8 
 310      8B18
 311 010f 222F00E1 		.ascii	"\"/\000\341P\253\242\272\334\036\257\317\037\010\206"
 311      50ABA2BA 
 311      DC1EAFCF 
 311      1F0886
 312 011e 6AC2B591 		.ascii	"j\302\265\221\272h}CcSsK\014\017}\0159\264\341N\370"
 312      BA687D43 
 312      6353734B 
 312      0C0F7D0D 
 312      39B4E14E 
 313 0133 B1613CB7 		.ascii	"\261a<\267\370\323\363\357\343\263\317\314O\274`\374"
 313      F8D3F3EF 
 313      E3B3CFCC 
 313      4FBC60FC 
 314 0143 279B45D4 		.ascii	"'\233E\324\371\245\206\360\000\255\320'\036\012\026"
 314      F9A586F0 
 314      00ADD027 
 314      1E0A16
 315 0152 26C56434 		.ascii	"&\305d4N\0373\374\202I\325Q\315\361t\230<\256\317\205"
 315      4E1F33FC 
 315      8249D551 
 315      CDF17498 
 315      3CAECF85 
 316 0166 C75526CF 		.ascii	"\307U&\317\211c\206j\363\224\347\317\354\342\273\247"
 316      8963866A 
 316      F394E7CF 
 316      ECE2BBA7 
 317 0176 CE0EFDE8 		.ascii	"\316\016\375\350\231\371)\031\010\267\002\017cY\372"
 317      99F92919 
 317      08B7020F 
 317      6359FA
 318 0185 961FC4CA 		.ascii	"\226\037\304\312\015=\\\020\020OY\001qr.\201\257\240"
 318      0D3D5C10 
 318      104F5901 
 318      71722E81 
 318      AFA0
 319 0197 F2B97AF7 		.ascii	"\362\271z\367\364|v\346\251fc\321\2305\376G|:z\025H"
 319      F47C76E6 
 319      A96663D1 
 319      9835FE47 
 319      7C3A7A15 
 320 01ac 61799C57 		.ascii	"ay\234W\337\012\315NL\033\331\354!*\024\005\036++\017"
 320      DF0ACD4E 
 320      4C1BD9EC 
 320      212A1405 
 320      1E2B2B0F 
 321 01c0 4FCFFF61 		.ascii	"O\317\377a\346\3731\343\205I[\241O\201\307o\307yR1\026"
 321      E6FB31E3 
 321      85495BA1 
 321      4F81C76F 
 321      C7795231 
 322 01d5 B3D9731F 		.ascii	"\263\331s\037\371\037B\320\321\257@\002\217c'\250\364"
 322      F91F42D0 
 322      D1AF4002 
ARM GAS  /tmp/ccP1FTzj.s 			page 25


 322      8F6327A8 
 322      F4
 323 01e6 3C454F97 		.ascii	"<EO\227\365t\323\313\200\207\201\227\200\317G\350\227"
 323      F574D3CB 
 323      80878197 
 323      80CF47E8 
 323      97
 324 01f7 09EDA70D 		.ascii	"\011\355\247\015\004\030\004\031\204XD\015\257\302\014"
 324      04180419 
 324      8458440D 
 324      AFC20C
 325 0206 6A090423 		.ascii	"j\011\004#Dz\222H\353\030\023eP\317\022\032x\325\310"
 325      447A9248 
 325      EB181365 
 325      50CF121A 
 325      78D5C8
 326 0219 A089A99A 		.ascii	"\240\211\251\232\011\204Z\010\270b\004jZy\333\306\352"
 326      09845A08 
 326      B862046A 
 326      5A79DBC6 
 326      EA
 327 022a 561070AF 		.ascii	"V\020p\257\344U;\257V1\350`\001\253\031t\022P\327\260"
 327      E4553BAF 
 327      5631E860 
 327      01AB1974 
 327      1250D7B0 
 328 023e 942E066B 		.ascii	"\224.\006k\231n\035\223\254\347\325\006^md\320\315\304"
 328      996E1D93 
 328      ACE7D506 
 328      5E6D64D0 
 328      CDC4
 329 0250 3D0C3631 		.ascii	"=\01461]/\203>\326\033\267\254\333\314\230~\006[,\314"
 329      5D2F833E 
 329      D61BB7AC 
 329      DBCC987E 
 329      065B2CCC 
 330 0264 56DE6C63 		.ascii	"V\336lc\260\235\371v\360j'\203\273\330\311] \312\200"
 330      B09DF976 
 330      F06A2783 
 330      BBD8C95D 
 330      20CA80
 331 0277 E23245F5 		.ascii	"\3422E\365\325a\006\311d\024\305A\277\275\004\351\034"
 331      D56106C9 
 331      6414C541 
 331      BFBD04E9 
 331      1C
 332 0288 DE8BADF4 		.ascii	"\336\213\255\364P\367Q\265\321\3432L\336\374t\341\364"
 332      50F751B5 
 332      D1E3324C 
 332      DEFC74E1 
 332      F4
 333 0299 93AAC508 		.ascii	"\223\252\305\010\304t\006\335L\217\364w\201\216\005"
 333      C47406DD 
 333      4C8FF477 
 333      818E05
 334 02a8 BA0654F3 		.ascii	"\272\006T\363.h\207\337\342Q\343\360=:\206y\313\351"
 334      2E6887DF 
ARM GAS  /tmp/ccP1FTzj.s 			page 26


 334      E251E3F0 
 334      3D3A8679 
 334      CBE9
 335 02ba AB154993 		.ascii	"\253\025I\223\3573\326\373H.\241\373H\304\374\335\254"
 335      EF33D6FB 
 335      482EA1FB 
 335      48C4FCDD 
 335      AC
 336 02cb 08A50E69 		.ascii	"\010\245\016i\345qa\237TY\2505\201?\247\205\320\322"
 336      E571619F 
 336      5459A835 
 336      813FA785 
 336      D0D2
 337 02dd 91A72581 		.ascii	"\221\247%\201\347\260\335$\316\300\324\215\237\334|"
 337      E7B0DD24 
 337      CEC0D48D 
 337      9FDC7C
 338 02ec 09137881 		.ascii	"\011\023x\201\004\014\"~\033>5\246\215\210\216u\032"
 338      040C227E 
 338      1B3E35A6 
 338      8D888E75 
 338      1A
 339 02fd 9A95CC18 		.ascii	"\232\225\314\030\237\216\321a\004\223\212\002U\017\360"
 339      9F8ED161 
 339      04938A02 
 339      550FF0
 340 030c 3B98BC9E 		.ascii	";\230\274\236n\267\371\224A\246v\212\305\205\242X\344"
 340      6EB7F994 
 340      41A6768A 
 340      C585A258 
 340      E4
 341 031d 5905A5AD 		.ascii	"Y\005\245\255z\375\346\034\332\334\322\250\006\015\315"
 341      7AFDE61C 
 341      DADCD2A8 
 341      060DCD
 342 032c 3B9534EA 		.ascii	";\2254\352\330\310V\244\247\323\237=\373\0253\000\203"
 342      D8C856A4 
 342      A7D39F3D 
 342      FB153300 
 342      83
 343 033d E81A4495 		.ascii	"\350\032D\225%\373\354.\334GG,]!\352E\230\372\333\204"
 343      25FBEC2E 
 343      DC47472C 
 343      5D21EA45 
 343      98FADB84 
 344 0351 D7263369 		.ascii	"\327&3iT\031\342?\202\211\001P\216\251$E\375\207\237"
 344      5419E23F 
 344      82890150 
 344      8EA92445 
 344      FD879F
 345 0364 59DDE527 		.ascii	"Y\335\345'\370\366\241\246\200\375\351\027\317\377\372"
 345      F8F6A1A6 
 345      80FDE917 
 345      CFFFFA
 346 0373 AA7B4912 		.ascii	"\252{I\022\347g\336\334j\313\324P5\275s\367\300\317"
 346      E767DEDC 
 346      6ACBD450 
ARM GAS  /tmp/ccP1FTzj.s 			page 27


 346      35BD73F7 
 346      C0CF
 347 0385 0CC3E063 		.ascii	"\014\303\340c\256\227\352\376yxn\302\340\0004\311Pp"
 347      AE97EAFE 
 347      79786EC2 
 347      E00034C9 
 347      5070
 348 0397 3EAC128A 		.ascii	">\254\022\212\012\371\003(\364]4Mcms\365\011|S\370\353"
 348      0AF90328 
 348      F45D344D 
 348      636D73F5 
 348      097C53F8 
 349 03ac E981EEB2 		.ascii	"\351\201\356\262\305`\236\230\213\360\306\337'\336F"
 349      C5609E98 
 349      8BF0C6DF 
 349      27DE46
 350 03bb 5B8E7B90 		.ascii	"[\216{\220\017\350\\az\340UEeU7\332l\022\257P\245\226"
 350      0FE85C61 
 350      7AE05545 
 350      655537DA 
 350      6C12AF50 
 351 03d1 A74A2950 		.ascii	"\247J)P5\365A\236*/\323\3452$\332\317\013\347\303\324"
 351      35F5419E 
 351      2A2FD3E5 
 351      3224DACF 
 351      0BE7C3D4 
 352 03e5 773E4E0B 		.ascii	"w>N\013i\3750\035\266\251\375\203\234\274\014|g\356"
 352      69FD301D 
 352      B6A9FD83 
 352      9CBC0C7C 
 352      67EE
 353 03f7 CF8FDA49 		.ascii	"\317\217\332I\016H\315\315\032\232\207\244\225v\242"
 353      0E48CDCD 
 353      1A9A87A4 
 353      9576A2
 354 0406 D7B1C554 		.ascii	"\327\261\305T\211\222\374\001\363\"\310\325\204\217"
 354      8992FC01 
 354      F322C8D5 
 354      848F
 355 0414 316E04CF 		.ascii	"1n\004\317{O\275\270\340\021\033\000\257p\334\017o\370"
 355      7B4FBDB8 
 355      E0111B00 
 355      AF70DC0F 
 355      6FF8
 356 0426 2BAF8C12 		.ascii	"+\257\214\022\345n\3062\000Oz\012\233|y\3228\010\037"
 356      E56EC632 
 356      004F7A0A 
 356      9B7C79D2 
 356      38081F
 357 0439 C9200465 		.ascii	"\311 \004e\020b\232uD\210 \270DS\265\350\330\332\016"
 357      10629A75 
 357      448820B8 
 357      4453B5E8 
 357      D8DA0E
 358 044c EF58674E 		.ascii	"\357XgN\233\255Q\307\025K\202\023\\\022\03468\010s\012"
 358      9BAD51C7 
 358      154B8213 
ARM GAS  /tmp/ccP1FTzj.s 			page 28


 358      5C121C36 
 358      3808730A 
 359 0460 1B7C8A62 		.ascii	"\033|\212b\020\272\303\346\240\216\237\233\034\263\265"
 359      10BAC3E6 
 359      A08E9F9B 
 359      1CB3B5
 360 046f 856E730A 		.ascii	"\205ns\012\235\311;\205\322\031\325f\253!NV\342\377"
 360      9DC93B85 
 360      D219D566 
 360      AB214E56 
 360      E2FF
 361 0481 6FD6FAE1 		.ascii	"o\326\372\341!\026\355\266\011\302%*B0\027WD\330\301"
 361      2116EDB6 
 361      09C2252A 
 361      42301757 
 361      44D8C1
 362 0494 E9109CC3 		.ascii	"\351\020\234\303\212\235\276e\336k\340_P\215\274SC\\"
 362      8A9DBE65 
 362      DE6BE05F 
 362      508DBC53 
 362      435C
 363 04a6 BBF6C191 		.ascii	"\273\366\301\221/\330\326\327\366\302\253\354\352Jn"
 363      2FD8D6D7 
 363      F6C2ABEC 
 363      EA4A6E
 364 04b5 C5595EB5 		.ascii	"\305Y^\265\263\373\207y\265jX\204\225\305\255\222ap"
 364      B3FB8779 
 364      B56A5884 
 364      95C5AD92 
 364      6170
 365 04c7 E7F99A81 		.ascii	"\347\371\232\201\357\315\313\260Ed\330:4\253\377M\214"
 365      EFCDCBB0 
 365      4564D83A 
 365      34ABFF4D 
 365      8C
 366 04d8 F1604146 		.ascii	"\361`AFH\247hZs\020\252\341\024\2556S\224\376\370\210"
 366      48A7685A 
 366      7310AAE1 
 366      14AD3653 
 366      94FEF888 
 367 04ec CC521D09 		.ascii	"\314R\035\011\024d.(HN\264Dr<\314S\234\234\250Cr\302"
 367      14642E28 
 367      484EB444 
 367      723CCC53 
 367      9C9CA843 
 368 0502 D057AD82 		.ascii	"\320W\255\202\244h\236\377\325\245\313\322\352zy\240"
 368      A4689EFF 
 368      D5A5CBD2 
 368      EA7A79A0 
 369 0512 A98E079A 		.ascii	"\251\216\007\232\317fKg\026^\273\376P\261\366Al )\362"
 369      CF664B67 
 369      165EBBFE 
 369      50B1F641 
 369      6C2029F2 
 370 0526 50E32EFD 		.ascii	"P\343.\375\275,\370\306\022\276{\231\255\330\367F\007"
 370      BD2CF8C6 
 370      12BE7B99 
ARM GAS  /tmp/ccP1FTzj.s 			page 29


 370      ADD8F746 
 370      07
 371 0537 DF6B6145 		.ascii	"\337kaEu\3532\002\321\252\225\345\277\217\354\266mo"
 371      75EB3202 
 371      D1AA95E5 
 371      BF8FECB6 
 371      6D6F
 372 0549 AAB82CF3 		.ascii	"\252\270,\363\334\024w\350?\337\377\215g\311\035j\274"
 372      DC1477E8 
 372      3FDFFF8D 
 372      67C91D6A 
 372      BC
 373 055a F8725C0E 		.ascii	"\370r\\\016E\271\2135s\246\016sW+\237\334\364\360\231"
 373      45B98B35 
 373      73A60E73 
 373      572B9FDC 
 373      F4F099
 374 056d D968B66E 		.ascii	"\331h\266n\330\317._}\211\207\211\220\2717v\351\330"
 374      D8CF2E5F 
 374      7D898789 
 374      90B93776 
 374      E9D8
 375 057f 2973BD46 		.ascii	")s\275F\346\245kXL\036lP\2270e\200\363\230\300,\333"
 375      E6A56B58 
 375      4C1E6C50 
 375      97306580 
 375      F398C02C 
 376 0594 37C039B3 		.ascii	"7\3009\263\326\246\221\207O\267&\320P\330\341\026K\360"
 376      D6A69187 
 376      4FB726D0 
 376      50D8E116 
 376      4BF0
 377 05a6 188DC252 		.ascii	"\030\215\302R\360Z2\200e\205,Yn\346\237P,\376\364\364"
 377      F05A3280 
 377      65852C59 
 377      6EE69F50 
 377      2CFEF4F4 
 378 05ba C24CE687 		.ascii	"\302L\346\207~;d1\022\":\012E\341\264\330\370Vi\335"
 378      7E3B6431 
 378      12223A0A 
 378      45E1B4D8 
 378      F85669DD 
 379 05ce 3A8D6E24 		.ascii	":\215n$\323\257&Q8W\370\222\213Y\207\346z\015\003V\362"
 379      D3AF2651 
 379      3857F892 
 379      8B5987E6 
 379      7A0D0356 
 380 05e3 F865901B 		.ascii	"\370e\220\033s\203\260\363\322\025k$\342\244\320o;Y"
 380      7383B0F3 
 380      D2156B24 
 380      E2A4D06F 
 380      3B59
 381 05f5 246DDC28 		.ascii	"$m\334(\305w\017\213\242e\346n\207\274\220%\316\263"
 381      C5770F8B 
 381      A265E66E 
 381      87BC9025 
 381      CEB3
ARM GAS  /tmp/ccP1FTzj.s 			page 30


 382 0607 DFB2C7A4 		.ascii	"\337\262\307\244w\377\372Z\321\230\364V&oL\012\232z"
 382      77FFFA5A 
 382      D198F456 
 382      266F4C0A 
 382      9A7A
 383 0619 DBEC31E9 		.ascii	"\333\3541\351\370\211\236\262\347\033\017\213\371\201"
 383      F8899EB2 
 383      E71B0F8B 
 383      F981
 384 0627 1DEBC9EB 		.ascii	"\035\353\311\353\324\343\263\"S+H\240@}\335\306\254"
 384      D4E3B322 
 384      532B48A0 
 384      407DDDC6 
 384      AC
 385 0638 AC646EF2 		.ascii	"\254dn\362\226\222\333N\202DZ\237\220\250UB[\273 \374"
 385      9692DB4E 
 385      82445A9F 
 385      90A85542 
 385      5BBB20FC 
 386 064c 50623B06 		.ascii	"Pb;\006\271\356\305<\025\265q\253+\236\247\244\011\351"
 386      B9EEC53C 
 386      15B571AB 
 386      2B9EA7A4 
 386      09E9
 387 065e 27784032 		.ascii	"'x@2\305t\012\351\326q\274p)wi\256\241wN\307qW\211#"
 387      C5740AE9 
 387      D671BC70 
 387      297769AE 
 387      A1774EC7 
 388 0676 C9C73CC5 		.ascii	"\311\307<\305GR\227\303\221T\007\301\352\036IQ\360V"
 388      475297C3 
 388      915407C1 
 388      EA1E4951 
 388      F056
 389 0688 67424ADF 		.ascii	"gBJ\337\230\374d\016mn\351i\217f5\244\216\233\252W\321"
 389      98FC640E 
 389      6D6EE969 
 389      8F6635A4 
 389      8E9BAA57 
 390 069d E26BE693 		.ascii	"\342k\346\223T\221\266^\215\357Hp\236m\372\226\241\277"
 390      5491B65E 
 390      8DEF4870 
 390      9E6DFA96 
 390      A1BF
 391 06af 84BB9544 		.ascii	"\204\273\225D\254\322\246\234y\247\270)\327.\273)O\026"
 391      ACD2A69C 
 391      79A7B829 
 391      D72EBB29 
 391      4F16
 392 06c1 34CF0951 		.ascii	"4\317\011Q\270\353H\240\335\224&f}\305M\351$w\003\011"
 392      B8EB48A0 
 392      DD942666 
 392      7DC54DE9 
 392      24770309 
 393 06d5 924D69A2 		.ascii	"\222Mi\2426\012m\033dS\232\330nz\221kJ\023\327SqSJ\023"
 393      360A6D1B 
 393      64539AD8 
ARM GAS  /tmp/ccP1FTzj.s 			page 31


 393      6E7A916B 
 393      4A13D753 
 394 06ed A8FB2868 		.ascii	"\250\373(hv\333l\022\362{\012:\257\267D\347\371\231"
 394      76DB6C12 
 394      F27B0A3A 
 394      AFB744E7 
 394      F999
 395 06ff BEB8F37A 		.ascii	"\276\270\363z\035:\257\036\\\325\355\274\006P\2536\014"
 395      1D3AAF1E 
 395      5CD5EDBC 
 395      0650AB36 
 395      0C
 396 0710 FCE5A89C 		.ascii	"\374\345\250\234Q\373\2526\243\306\313\236Q\373\304"
 396      51FBAA36 
 396      A3C6CB9E 
 396      51FBC4
 397 071f 69A714CF 		.ascii	"i\247\024\317\250\327\217\312Cq3\011\264\310\012R\323"
 397      A8D78FCA 
 397      43713309 
 397      B4C80A52 
 397      D3
 398 0730 5F223501 		.ascii	"_\"5\001\346)NM\277Cj\032\001U\262|\361\302+\222l\313"
 398      E6294E4D 
 398      BF436A1A 
 398      0155B27C 
 398      F1C22B92 
 399 0746 9DDBFE71 		.ascii	"\235\333\376q\316\366\255$\320\311\366m%l\0172O\261"
 399      CEF6AD24 
 399      D0C9F66D 
 399      256C0F32 
 399      4FB1
 400 0758 EDDB1C6C 		.ascii	"\355\333\034lo\002\250\356|\375\236\264z\373\235\317"
 400      6F02A8EE 
 400      7CFD9EB4 
 400      7AFB9DCF 
 401 0768 D73B484A 		.ascii	"\327;HJ\341|\375-[\372\316\022\276\207\230\255\330\367"
 401      E17CFD2D 
 401      5BFACE12 
 401      BE8798AD 
 401      D8F7
 402 077a 9D0EBE37 		.ascii	"\235\016\2767/\303\367[\266T\013T\345\263/\003\337\235"
 402      2FC3F75B 
 402      B6540B54 
 402      E5B32F03 
 402      DF9D
 403 078c 9B3C685B 		.ascii	"\233<h[~\227t4\256\231\377ct\270]X\334f\363\321\317"
 403      7E977434 
 403      AE99FF63 
 403      74B85D58 
 403      DC66F3D1 
 404 07a1 FFEADDB2 		.ascii	"\377\352\335\262\344;z\027\311\021\337\321Y\307\357"
 404      E43B7A17 
 404      C911DFD1 
 404      59C7EF
 405 07b0 E8BC2BAC 		.ascii	"\350\274+\2540\2325\314+\242iz\030\343\377\323\274\015"
 405      309A35CC 
 405      2BA2697A 
ARM GAS  /tmp/ccP1FTzj.s 			page 32


 405      18E3FFD3 
 405      BC0D
 406 07c2 13BE9CDB 		.ascii	"\023\276\234\333{\251\247\257\324\262\017[\342C"
 406      7BA9A7AF 
 406      D4B20F5B 
 406      E243
 407 07d0 23C3C9B8 		.ascii	"#\303\311\2706\262\377`|\177\362\261\2706\244\017\350"
 407      36B2FF60 
 407      7C7FF2B1 
 407      B836A40F 
 407      E8
 408 07e1 2363F1D4 		.ascii	"#c\361\324\350\370\201o\306S\311\261T|4%\236\217\216"
 408      E8F8816F 
 408      C653C9B1 
 408      547C3425 
 408      9E8F8E
 409 07f4 27C79363 		.ascii	"'\307\223c}\032\354\270%\013-\210A?\240=<\276\237\210"
 409      7D1AECB8 
 409      250B2D88 
 409      413FA03D 
 409      3CBE9F88 
 410 0808 862CB621 		.ascii	"\206,\266!\360\352\337H\015?\322\327\217\032\036@\375"
 410      F0EADF48 
 410      0D3FD2D7 
 410      8F1A1E40 
 410      FD
 411 0819 9EDB0949 		.ascii	"\236\333\011I>\236\212\337{\377\236\335{r\262FF\223"
 411      3E9E8ADF 
 411      7BFF9EDD 
 411      7B72B246 
 411      4693
 412 082b 0F6AC35F 		.ascii	"\017j\303_\036?\240\221\270\310\375{\276\3321\220\030"
 412      1E3FA091 
 412      B8C8FD7B 
 412      BEDA3190 
 412      18
 413 083c 4B3E32AA 		.ascii	"K>2\252o\352X\273\031\224Q\360\016'\207GF\017\202\373"
 413      6FEA58BB 
 413      199451F0 
 413      0E278747 
 413      460F82FB 
 414 0850 8B5FBAF7 		.ascii	"\213_\272\367>\330Y\221\235\251\241\321db?\033\372\177"
 414      3ED85991 
 414      9DA9A1D1 
 414      64623F1B 
 414      FA7F
 415 0862 2639CE18 		.ascii	"&9\316\030"
 416              		.text
 417              		.section	.gnu.lto_queues2_execute.2a0a206d1169854,"",%progbits
 418 0000 789CAD55 		.ascii	"x\234\255U]h\024W\024>\347\336\335\371\331\235MV-\024"
 418      5D681457 
 418      143EE7DE 
 418      DDF9D99D 
 418      4D562D14 
 419 0014 29844528 		.ascii	")\204E(%\331$c\205\266ob)\024\372`\037\232\004\332\207"
 419      25D92463 
 419      85B66F62 
ARM GAS  /tmp/ccP1FTzj.s 			page 33


 419      2914FA60 
 419      1F9A04DA 
 420 0029 229BC9B8 		.ascii	"\"\233\311\270;\352fu\263[*>81i\011hAJ\241\265\266\240"
 420      3BEA6675 
 420      B35B2A3E 
 420      38316909 
 420      68414AA1 
 421 0040 88206DB5 		.ascii	"\210 m\265Q\004A\024W\243\305\"\232D\244`[h\352\203"
 421      51044114 
 421      57A3C522 
 421      9A44A460 
 421      5B68EA83 
 422 0054 0A8AD5A7 		.ascii	"\012\212\325\247B\321\256\347\314\335\331\035M\325\024"
 422      42D1AEE7 
 422      CCDDD91D 
 422      4DD514
 423 0063 1CC8BDE7 		.ascii	"\034\310\275\347\236{\316w\376\276\273\021 \340\361"
 423      9E7BCE77 
 423      FEBEBB11 
 423      20E0F1
 424 0072 6F0FFDE5 		.ascii	"o\017\375\3454\200\313\264c\033\240\330y\011`\324\020"
 424      3480CBB4 
 424      631BA0D8 
 424      790960D4 
 424      10
 425 0083 42FE9E04 		.ascii	"B\376\236\004?\021;z\006\300\267\244\210O\274\302G^"
 425      3F113B7A 
 425      06C0B7A4 
 425      884FBCC2 
 425      475E
 426 0095 AD18C695 		.ascii	"\255\030\306\225U\\h':H\255_\261I\255aJ\251u4\225`("
 426      555C6827 
 426      3A48AD5F 
 426      B149AD61 
 426      4AA97534 
 427 00ac E1B4610A 		.ascii	"\341\264a\012\243\266\222\014\0233\355d\230\020\311"
 427      A3B6920C 
 427      1333ED64 
 427      9810C9
 428 00bb C0CD0ADC 		.ascii	"\300\315\012\334\222\241\233\245\004L!\362\016\010["
 428      92A19BA5 
 428      044C21F2 
 428      0E085B
 429 00ca 858CC535 		.ascii	"\205\214\3055\3350\023I+\205[?@\316X,\203\275\276\377"
 429      DD301349 
 429      2B855B3F 
 429      40CE582C 
 429      83BDBEFF 
 430 00de F9DCB9E3 		.ascii	"\371\334\271\343\177\342.\2776\276\307\277_\257#zH\325"
 430      7FE22EBF 
 430      36BEC7BF 
 430      5FAF237A 
 430      48D5
 431 00f0 BD86E020 		.ascii	"\275\206\340 \274O\007\314\004\233\210=Zn\340\273s\356"
 431      BC4F07CC 
 431      049B883D 
 431      5A6EE0BB 
ARM GAS  /tmp/ccP1FTzj.s 			page 34


 431      73EE
 432 0102 8FC3470B 		.ascii	"\217\303G\013\273\276\210\370J\001\303\317\362\375Q"
 432      BBBE88F8 
 432      4A01C3CF 
 432      F2FD51
 433 0111 D4E6EAF5 		.ascii	"\324\346\352\365C\227/\354\377\006O\2107\020r\270\027"
 433      43972FEC 
 433      FF064F88 
 433      371072B8 
 433      17
 434 0122 9781061E 		.ascii	"\227\201\006\036\306LZ\342\011^\254\206\272\215\016"
 434      C64C5AE2 
 434      095EAC86 
 434      BA8D0E
 435 0131 90E6BB4E 		.ascii	"\220\346\273NZ\264.^\262\254\353&\203}d\320\303w\275"
 435      5AB42E5E 
 435      B2ACEB26 
 435      837D64D0 
 435      C377BD
 436 0144 BC10761C 		.ascii	"\274\020v\034\306)\257\214r\005N\204\276~Z\247\227\302"
 436      C629AF8C 
 436      72054E84 
 436      BE7E5AA7 
 436      97C2
 437 0156 000ADAE4 		.ascii	"\000\012\332\344%\330v\357\316\324\221\035\262aKs\303"
 437      25D876EF 
 437      CED4911D 
 437      B2614B73 
 437      C3
 438 0167 FD1887A0 		.ascii	"\375\030\207\240S\010\307P\362x\245\232q\007\234\307"
 438      5308C750 
 438      F278A59A 
 438      71079CC7 
 439 0177 6FFDAF56 		.ascii	"o\375\257Vy\250\363\221\31312,5\357/4\356MU\334E\330"
 439      79A8F391 
 439      CB31322C 
 439      35EF2F34 
 439      EE4D55DC 
 440 018d F6EBFDDD 		.ascii	"\366\353\375\335?\375\022o\242+\241\266\375\357\025"
 440      3FFD126F 
 440      A22BA1B6 
 440      FDEF15
 441 019c 61240783 		.ascii	"a$\007\203\264\362\330\231\205\357|\337\3476\366PY\273"
 441      B4F2D899 
 441      85EF7CDF 
 441      E736F650 
 441      59BB
 442 01ae E1EB51DF 		.ascii	"\341\353Q\337O{\230\330\002\377\370\023,%\213\030\306"
 442      4F7B98D8 
 442      02FFF813 
 442      2C258B18 
 442      C6
 443 01bf 4D06F883 		.ascii	"M\006\370\203|\316\341A\2250G\233\\\222\303\037\350"
 443      7CCEE141 
 443      9530479B 
 443      5C92C31F 
 443      E8
ARM GAS  /tmp/ccP1FTzj.s 			page 35


 444 01d0 98C7AE2C 		.ascii	"\230\307\256,t-\030\006#0\347\341\354\215\321Y\014q"
 444      742D1806 
 444      2330E7E1 
 444      EC8DD159 
 444      0C71
 445 01e2 3A09AA35 		.ascii	":\011\2525\256\001j\310m)9\324\335\227B\223l\020\312"
 445      AE016AC8 
 445      6D2939D4 
 445      DD974293 
 445      6C10CA
 446 01f5 5A5828F1 		.ascii	"ZX(\361H\250\361\333\221PY\266\263\242\354\350\2479"
 446      48A8F1DB 
 446      915059B6 
 446      B3A2ECE8 
 446      A739
 447 0207 5E7D510E 		.ascii	"^}Q\016\3205\015\213\242\336\031k\013\255{\362\330M"
 447      D0350D8B 
 447      A2DE196B 
 447      0BAD7BF2 
 447      D84D
 448 0219 A3844F26 		.ascii	"\243\204O&\257}\250Z\231G\255\0319\345\240z\227\214"
 448      AF7DA85A 
 448      9947AD19 
 448      39E5A07A 
 448      978C
 449 022b 4993247B 		.ascii	"I\223${\217\236b\020\022\233\346|\031!\344U\350f\215"
 449      8F9E6210 
 449      129BE67C 
 449      1921E455 
 449      E8668D
 450 023e 4490FF7E 		.ascii	"D\220\377~\266o*\270\226\000\261\240p\015\352\346\002"
 450      B66F2AB8 
 450      9600B1A0 
 450      700DEAE6 
 450      02
 451 024f F992C303 		.ascii	"\371\222\303\003$\004\374\200\010?r\370=vD{\251\303"
 451      2404FC80 
 451      083F72F8 
 451      3D76447B 
 451      A9C3
 452 0261 4C3B43E2 		.ascii	"L;C\342sA3\240\266\222{tkj\373\20332\254\321\314\363"
 452      734133A0 
 452      B6927B74 
 452      6B6AFB83 
 452      3332ACD1 
 453 0277 742FC2D8 		.ascii	"t/\302\330DS\225 -\303\265\277\011\334\300O\357\376"
 453      44539520 
 453      2DC3B5BF 
 453      09DCC04F 
 453      EFFE
 454 0289 35F91BCE 		.ascii	"5\371\033\316\243(a\2648*U\220f{\323\016\306rxJ\345"
 454      A32861B4 
 454      382A5590 
 454      667BD30E 
 454      C672784A 
 455 029e CA5A430D 		.ascii	"\312ZC\015\273\221?\305\340\000\213\352\364\265\323"
 455      BB913FC5 
ARM GAS  /tmp/ccP1FTzj.s 			page 36


 455      E0008BEA 
 455      F4B5D3
 456 02ad 6B5CAC32 		.ascii	"k\\\2542\030\273\361\345\273a\022\026\345\325\230MX"
 456      18BBF1E5 
 456      BB611216 
 456      E5D5984D 
 456      58
 457 02be 8009F413 		.ascii	"\200\011\364\023%iB\327G\365\320L\331\310\310\210\224"
 457      256942D7 
 457      47F5D04C 
 457      D9C8C888 
 457      94
 458 02cf 06403F20 		.ascii	"\006@? \011\305\270i\262k\242\321\311\3777\234\350\343"
 458      09C5B869 
 458      B26BA2D1 
 458      C9FF379C 
 458      E8E3
 459 02e1 8DB4937A 		.ascii	"\215\264\223zx\374\334\317\017D\230C\0331\233\231\371"
 459      78FCDCCF 
 459      0F449843 
 459      1B319B99 
 459      F9
 460 02f2 9FB4365A 		.ascii	"\237\2646ZA\250\304\351\251\223\267\326\315\017\237"
 460      41A8C4E9 
 460      A993B7D6 
 460      CD0F9F
 461 0301 C75E8269 		.ascii	"\307^\202i\322\233I{dM\010\237~\002i\005\273\315'm\372"
 461      D29B497B 
 461      644D089F 
 461      7E026905 
 461      BBCD276D 
 462 0316 31D272F9 		.ascii	"1\322r\371I\330\241q\371\207\251|\353\271\220\311\202"
 462      49D8A171 
 462      F987A97C 
 462      EBB990C9 
 462      82
 463 0327 B3A69C86 		.ascii	"\263\246\234\2061#\004i&\271\304Q\2404\326\027B\353"
 463      31230469 
 463      26B9C451 
 463      A034D617 
 463      42EB
 464 0339 143FCF59 		.ascii	"\024?\317Y\372w\323\202\350'\332M/e\360\025v\241Ttm"
 464      FA77D382 
 464      E827DA4D 
 464      2F65F015 
 464      76A15474 
 465 034e A734B4D9 		.ascii	"\2474\264\331\036r?\262\235\2027\350\225F\354J\271:"
 465      1E723FB2 
 465      9D8237E8 
 465      9546EC4A 
 465      B93A
 466 0360 BCDEAEB8 		.ascii	"\274\336\256\270#\025\273\\\011\366MU\267\352\216\364"
 466      2315BB5C 
 466      09F64D55 
 466      B7EA8EF4 
 467 0370 3A80DEEB 		.ascii	":\200\336\353Ou\"\201\\\274agCu\210\214\012\015\307"
 467      4F752281 
ARM GAS  /tmp/ccP1FTzj.s 			page 37


 467      5CBC6167 
 467      4375888C 
 467      0A0DC7
 468 0383 02E8DEDA 		.ascii	"\002\350\336\332Jqc\357\253\253\236\345\356~\\\261\337"
 468      4A7163EF 
 468      ABAB9EE5 
 468      EE7E5CB1 
 468      DF
 469 0394 5ADDF74E 		.ascii	"Z\335\367N_\013\245Tv\3278\305\267\253\303\016\001\245"
 469      5F0BA554 
 469      76D738C5 
 469      B7ABC30E 
 469      01A5
 470 03a6 57F7BD97 		.ascii	"W\367\275\227\031\314\215\270\033\313^w\346\345\345"
 470      19CC8DB8 
 470      1BCB5E77 
 470      E6E5E5
 471 03b5 20CAA017 		.ascii	" \312\240\027\335b\251\274\031\036\0025\354\265\320"
 471      DD62A9BC 
 471      191E0235 
 471      ECB5D0
 472              		.text
 473              		.section	.gnu.lto_.symbol_nodes.2a0a206d1169854,"",%progbits
 474 0000 789C4D8F 		.ascii	"x\234M\217\313N\024Q\020\206\253NM\317\034\2353\210"
 474      CB4E1451 
 474      1086AB4E 
 474      4DCF1C9D 
 474      3388
 475 0012 C3D033A3 		.ascii	"\303\3203\243(n|\012\364\025|\007W&\232\300#\324h/\274"
 475      286E7C0A 
 475      F4157C07 
 475      57269AC0 
 475      23D4682F 
 476 0027 90101377 		.ascii	"\220\020\023wF\023\315Y\362\026v\302$@ Q\023\027\032"
 476      4613CD59 
 476      F21676C2 
 476      24402051 
 476      13171A
 477 003a 511A4111 		.ascii	"Q\032A\021\361>^\242h\325i\343\351^\364\337_\325_\177"
 477      F13E5EA2 
 477      68D569E3 
 477      E95EF4DF 
 477      5FD55F7F 
 478 004e 57193030 		.ascii	"W\03100CP>f\023\031\340\346\032\000\363\235\353\347"
 478      43503E66 
 478      1319E0E6 
 478      1A00F39D 
 478      EBE7
 479 0060 CD363246 		.ascii	"\31562FL\012\204\032\223y\205L\225\352'4\300`v\221M"
 479      4C0A841A 
 479      9379854C 
 479      95EA2734 
 479      C0607691 
 480 0075 A5BA85A8 		.ascii	"\245\272\205\250\3367\310\265J\340\242\341\344\037\336"
 480      DE37C8B5 
 480      4AE0A2E1 
 480      E41FDE
ARM GAS  /tmp/ccP1FTzj.s 			page 38


 481 0084 BD86C94F 		.ascii	"\275\206\311O$\031MFX\323\204\035\344z\305\273l\270"
 481      24194D46 
 481      58D3841D 
 481      E47AC5BB 
 481      6CB8
 482 0096 11BDE62D 		.ascii	"\021\275\346-\262\255\344\277\303$\221\321\327XW\331"
 482      B2ADE4BF 
 482      C32491D1 
 482      D75857D9 
 483 00a6 C386CA0F 		.ascii	"\303\206\312\017\264\022\204\337\221\017\225\326\301"
 483      B41284DF 
 483      910F95D6 
 483      C1
 484 00b3 00F117F2 		.ascii	"\000\361\027\362\341H\003\303\315H\227\015\273H\357"
 484      E14803C3 
 484      CD48970D 
 484      BB48EF
 485 00c2 915B91F6 		.ascii	"\221[\221\366\221\307\"}@>\022\351#\362x\244\317\310"
 485      91C7227D 
 485      403E12E9 
 485      23F278A4 
 485      CFC8
 486 00d4 47237D41 		.ascii	"G#}AnG\372\212<\021\351\033r'\322o\344\311H\007\310"
 486      6E47FA8A 
 486      3C11E91B 
 486      7227D26F 
 486      E4C94807 
 487 00e9 69A43FC8 		.ascii	"i\244?\310\335\377D\330\206\354\305\001\022M\200WM:"
 487      DDFF44D8 
 487      86ECC501 
 487      124D8057 
 487      4D3A
 488 00fb 2537264B 		.ascii	"%7&K\266](f\311\266\301\313\373\004d\263Z\311.\221\235"
 488      B65D2866 
 488      C9B6C1CB 
 488      FB0464B3 
 488      5AC92E91 
 489 0110 82E242E8 		.ascii	"\202\342B\350\026\343d\217C\276)\222\202W\021\303\206"
 489      16E3648F 
 489      43BE2992 
 489      825711C3 
 489      86
 490 0121 09BDA763 		.ascii	"\011\275\247cd\217\201W\021\272}:\220J\012\331\223\325"
 490      648F8157 
 490      11BA7D3A 
 490      904A0AD9 
 490      93D5
 491 0133 E0F1B7CE 		.ascii	"\340\361\267\316\204\211\207\217\215v\363uU\011ZX\352"
 491      8489878F 
 491      8D76F375 
 491      55095A58 
 491      EA
 492 0144 93ED43B6 		.ascii	"\223\355C\266\262O\241\277\274%\334\203|ixN\327\311"
 492      B24FA1BF 
 492      BC25DC83 
 492      7C69784E 
 492      D7C9
ARM GAS  /tmp/ccP1FTzj.s 			page 39


 493 0156 824AFDA5 		.ascii	"\202J\375\245.\231B\256\3136\345'A\323\322'\354Wd\256"
 493      2E9942AE 
 493      CB36E527 
 493      41D3D227 
 493      EC5764AE 
 494 016a 69E1CA9A 		.ascii	"i\341\312\232\3448\351\317\221\353\200\237\323o9\311"
 494      E438E9CF 
 494      91EB809F 
 494      D36F39C9 
 495 017a 8563DC34 		.ascii	"\205c\3344\344\027\303\367\256\015\260cC\177\273G\356"
 495      E417C3F7 
 495      AE0DB063 
 495      437FBB47 
 495      EE
 496 018b 14E41B48 		.ascii	"\024\344\033HNNW\021\313sGnJ\326w\201\036uC\352\372"
 496      4E4E5711 
 496      CB73476E 
 496      4AD67781 
 496      1E7543EA 
 497 01a0 599DF32A 		.ascii	"Y\235\363*R\\xf\310\235\204|^\265\017\305\215a=\270"
 497      525C7866 
 497      C89D847C 
 497      5EB50FC5 
 497      8D613DB8 
 498 01b4 AEEE4D93 		.ascii	"\256\356M\223\353\201\277?j\204\376=\321\226\324\365"
 498      EB81BF3F 
 498      6A84FE3D 
 498      D196D4F5 
 499 01c4 86966C35 		.ascii	"\206\226l5\224\235\225\365\326\226\203\007\363\243\004"
 499      949D95F5 
 499      D6968307 
 499      F3A304
 500 01d3 FE029E50 		.ascii	"\376\002\236P\361:"
 500      F13A
 501              		.text
 502              		.section	.gnu.lto_.refs.2a0a206d1169854,"",%progbits
 503 0000 789C454D 		.ascii	"x\234EM[\016\2000\010+\335\003u\316\307\207\211\367"
 503      5B0E8030 
 503      082BDD03 
 503      75CEC787 
 503      89F7
 504 0012 BF893713 		.ascii	"\277\2117\0236\315h\240\224B \210\007=DHe\213\363\003"
 504      36CD68A0 
 504      94422088 
 504      073D4448 
 504      658BF303 
 505 0026 4240340D 		.ascii	"B@4\015I\314\232\351\030\236\232\227\211k\362\023x\306"
 505      49CC9AE9 
 505      189E9A97 
 505      896BF213 
 505      78C6
 506 0038 C1BDF38A 		.ascii	"\301\275\363\212\210\231\"\213\353T\320g\206{eF\203"
 506      8899228B 
 506      EB54D067 
 506      867B6546 
 506      83
 507 0049 716CBD6F 		.ascii	"ql\275o&\333\374\247\035\376\245\351T\207\303\215;\017"
ARM GAS  /tmp/ccP1FTzj.s 			page 40


 507      26DBFCA7 
 507      1DFEA5E9 
 507      5487C38D 
 507      3B0F
 508 005b CBC062AC 		.ascii	"\313\300b\254\254x\001\272\356\003\321"
 508      AC7801BA 
 508      EE03D1
 509              		.text
 510              		.section	.gnu.lto_.decls.2a0a206d1169854,"",%progbits
 511 0000 789CBD5C 		.ascii	"x\234\275\\\011p\024\327\231\356\35694\203\204\004\330"
 511      097014D7 
 511      99EEEE39 
 511      34838404 
 511      D8
 512 0011 B0B8361B 		.ascii	"\260\2706\033\313\331d+\3458\010\004\261\361V\305&q"
 512      CBD9642B 
 512      E5380804 
 512      B1F156C5 
 512      2671
 513 0023 D631B595 		.ascii	"\3261\265\225\370\010\331xwkk\322\214\0064\261\244\221"
 513      F808D978 
 513      776B6BD2 
 513      8C0634B1 
 513      A491
 514 0035 665AB6D9 		.ascii	"fZ\266\331\335\252\264\204\020\267\221\204A $#q\205"
 514      DDAAB484 
 514      10B79184 
 514      41202423 
 514      7185
 515 0047 2338421C 		.ascii	"#8B\0346\266%\306\034\002#\333\342\306 \300\002\214"
 515      36B625C6 
 515      1C0223DB 
 515      E2C620C0 
 515      028C
 516 0059 0DC4100E 		.ascii	"\015\304\020\016c\020\227\366\177G\367t\277\351\356"
 516      631097F6 
 516      7F47F774 
 516      BFE9EE
 517 0068 E916F676 		.ascii	"\351\026\366v\325\353k\336\373\336\367\037\357\177\257"
 517      D5EB6BDE 
 517      FBDEF71F 
 517      EF7FAF
 518 0077 5FBF1E81 		.ascii	"_\277\036\201\023\270\333\036\216\353\205\355\205\337"
 518      13B8DB1E 
 518      8EEB85ED 
 518      85DF
 519 0085 735CBD9F 		.ascii	"s\\\275\237\343\372q\034\367\004\244\014HM\220\322 "
 519      E3FA711C 
 519      F704A40C 
 519      484D90D2 
 519      20
 520 0096 E5F31CF7 		.ascii	"\345\363\034\367\277\220\236\204s\031\216\017@\202b"
 520      BF909E84 
 520      73198E0F 
 520      408262
 521 00a5 5C051CA7 		.ascii	"\\\005\034\247@\232\012i\006$\264\015\2054\033\316k"
 521      409A0A69 
ARM GAS  /tmp/ccP1FTzj.s 			page 41


 521      0624B40D 
 521      85341BCE 
 521      6B
 522 00b6 20D5425A 		.ascii	" \325BZ\004i1\244%\220V@Z\005i-\244fH\033!\265B\332"
 522      046931A4 
 522      25905640 
 522      5A05692D 
 522      A466481B 
 523 00ce 06A903D2 		.ascii	"\006\251\003\322\036H\237@:\006\351\024\244s\220.@\272"
 523      1E489F40 
 523      3A06E914 
 523      A473902E 
 523      40BA
 524 00e0 01E926A4 		.ascii	"\001\351&\244\273\220\322\004\216\003\232\\:\034\177"
 524      BB90D204 
 524      8E039A5C 
 524      3A1C7F
 525 00ef 0EE9DF20 		.ascii	"\016\351\337 \375\007\244u\2206@\332\015\351\020\244"
 525      FD07A475 
 525      903640DA 
 525      0DE910A4 
 526 00ff 47044EB7 		.ascii	"G\004N\267\315\346\023\347<s\255l5T\256n!!\373:\270"
 526      CDE613E7 
 526      3C73AD6C 
 526      3554AE6E 
 526      2121FB3A 
 527 0114 378CE615 		.ascii	"7\214\346\025h\036\304\235\247\034\264\033\222\025\351"
 527      681EC49D 
 527      A71CB41B 
 527      9215E9
 528 0123 0FE9E945 		.ascii	"\017\351\351E\370\355w\220NBr\303\365)\212\251\350r"
 528      F8ED7790 
 528      4E4272C3 
 528      F5298AA9 
 528      E872
 529 0135 13C574D1 		.ascii	"\023\305t\321rH\027\210\023\202D2\261\330H\227^8\236"
 529      72481788 
 529      13824432 
 529      B1D84897 
 529      5E389E
 530 0148 16123640 		.ascii	"\026\0226@\374\332\030~\265T\247\350\326\317\031\214"
 530      FCDA187E 
 530      B554A7E8 
 530      D6CF198C 
 531 0158 C516FC3E 		.ascii	"\305\026\374>\243\270\012\277\355\032~\213\251\215\264"
 531      A3B80ABF 
 531      ED1A7E8B 
 531      A98DB4
 532 0167 FC586C64 		.ascii	"\374Xld\337\\*_&G\374'\016i\037\345\207\352@\272E2\014"
 532      DF5C2A5F 
 532      2647FC27 
 532      0E691FE5 
 532      87EA40BA 
 533 017e A2FC108F 		.ascii	"\242\374\020\217\015T\317g\000o\033\034\277\200\343"
 533      0D54CF67 
 533      006F1B1C 
 533      BF80E3
ARM GAS  /tmp/ccP1FTzj.s 			page 42


 534 018d 39AA2B24 		.ascii	"9\252+$\343\207\220\316\303\365^\236\330\005\331\343"
 534      E38790CE 
 534      C3F55E9E 
 534      D805D9E3 
 535 019d AF703C02 		.ascii	"\257p<\002\307/\205\204\017\036\347\3652]\200t\032\356"
 535      C72F8584 
 535      0F1EE7F5 
 535      325D8074 
 535      1AEE
 536 01af 5D84E379 		.ascii	"]\204\343y8\216\207\343\177B\372\033\244\215\200}I "
 536      388E87E3 
 536      7F42FA1B 
 536      A48D807D 
 536      4920
 537 01c1 7E7B1152 		.ascii	"~{\021R\013\234_\206\324\006\251\236\3722\222[\204\353"
 537      0B9C5F86 
 537      D406A99E 
 537      FA32925B 
 537      84EB
 538 01d3 28A42D1C 		.ascii	"(\244-\034\221i\211\306O\257\010\304\017X\177\355\201"
 538      916989C6 
 538      4FAF08C4 
 538      0F587FED 
 538      81
 539 01e4 FB7704E2 		.ascii	"\373w\004\342\2675\324w\335\324W\264\276\252\335P\273"
 539      B735D477 
 539      DDD457B4 
 539      BEAADD50 
 539      BB
 540 01f5 B89FEA47 		.ascii	"\270\237\352G\321\235\233\352\016\351\251\220\327\353"
 540      D19D9BEA 
 540      0EE9A990 
 540      D7EB
 541 0203 07E918E9 		.ascii	"\007\351\030\351G\321\013\322\023\322\031\322\325\022"
 541      47D10BD2 
 541      13D219D2 
 541      D512
 542 0211 B8CF03F9 		.ascii	"\270\317\003\371\245T\206\0228\306 M\244\276\275\202"
 542      A5548612 
 542      38C6204D 
 542      A4BEBD82 
 543 0221 F2477208 		.ascii	"\362Gr\010.\"\223\221/\243v:\222rP8\241z\343\224\033"
 543      2E229391 
 543      2FA3763A 
 543      92725038 
 543      A17AE394 
 544 0236 B2E9203E 		.ascii	"\262\351 >a\323B\336\334\236>\027\361\255[\032\333\225"
 544      61D342DE 
 544      DC9E3E17 
 544      F1AD5B1A 
 544      DB95
 545 0248 69EC6A65 		.ascii	"i\354jeG?\224\355uh\277~P\306'\220\266\362\000\265'"
 545      473F94ED 
 545      7568BF7E 
 545      50C62790 
 545      B6F200B5 
 546 025d 6A273E46 		.ascii	"j'>F\037Z\373F\340\272\000R\026\225\375&\265m\272\213"
ARM GAS  /tmp/ccP1FTzj.s 			page 43


 546      1F5AFB46 
 546      E0BA0052 
 546      1695FD26 
 546      B56DBA8B 
 547 0271 E8EB188D 		.ascii	"\350\353\030\215?Z\373\242\2666\310El\214\342R+\265"
 547      3F5AFBA2 
 547      B636C845 
 547      6C8CE252 
 547      2BB5
 548 0283 351B97B4 		.ascii	"5\033\227\264\033\212}\203\035\330\032\351Ii\227Z{#"
 548      1B8A7D83 
 548      1DD81AE9 
 548      4969975A 
 548      7B23
 549 0295 D994F63F 		.ascii	"\331\224\366?\0248\2546\260\267\227\326\247\310\360"
 549      1438AC36 
 549      B0B797D6 
 549      A7C8F0
 550 02a4 808B705C 		.ascii	"\200\213p\\e\022\037\322\271\031\262\\.7V\312\317\354"
 550      65121FD2 
 550      B919B25C 
 550      2E3756CA 
 550      CFEC
 551 02b6 CA1CC455 		.ascii	"\312\034\304U\313\260e\357\002\226/\362\"\237\351\347"
 551      CBB065EF 
 551      02962FF2 
 551      229FE9E7 
 552 02c6 1A057C96 		.ascii	"\032\005|\226\341\347\276\017\271\177\300-\223\345\252"
 552      E1E7BE0F 
 552      B97FC02D 
 552      93E5AA
 553 02d5 EEE557BB 		.ascii	"\356\345W\273\005Y\366\211\374\022~\020D\207\307y\356"
 553      0559F689 
 553      FC127E10 
 553      4487C779 
 553      EE
 554 02e6 616E1514 		.ascii	"an\025\024\254\222\345S\377\310s\311\233M\340xu\373"
 554      AC92E553 
 554      FFC873C9 
 554      9B4DE078 
 554      75FB
 555 02f8 7764B7C8 		.ascii	"wd\267\310\257\300\260\277\3469\221_\316?l\027C\340"
 555      AFC0B0BF 
 555      E639915F 
 555      CE3F6C17 
 555      43E0
 556 030a FE1D9558 		.ascii	"\376\035\225X\005\205I9\014*\307[+3\020(\272\317\351"
 556      05854939 
 556      0C2AC75B 
 556      2B331028 
 556      BACFE9
 557 031d 1075DB43 		.ascii	"\020u\333C\\#\312\274\245\275\236\227\033\267\362\006"
 557      5C23CABC 
 557      A5BD9E97 
 557      1BB7F206 
 558 032d B58D512A 		.ascii	"\265\215Q*\363%41o\352\307\325|\205,\303\017k1\351E"
 558      F3253431 
ARM GAS  /tmp/ccP1FTzj.s 			page 44


 558      6FEAC7D5 
 558      7C852CC3 
 558      0F6B31E9 
 559 0342 BC21EBC6 		.ascii	"\274!\353\3061f@\002\267\006\027ifhw\367t\034(\343\313"
 559      31664002 
 559      B7061769 
 559      666877F7 
 559      741C28E3 
 560 0357 3074B30D 		.ascii	"0t\263\015\352\345\361\203\225\015\017 \352)M\352V\352"
 560      EAE5F183 
 560      950D0F20 
 560      EA294DEA 
 560      56EA
 561 0369 FF454290 		.ascii	"\377EB\220\327\247n\347\261I7b1.\033\213a\016#@\353"
 561      D7A76EE7 
 561      B1493762 
 561      312E1B8B 
 561      610E2340 
 562 037e 4145DE4E 		.ascii	"AE\336N\022c\346\011E\214\267m\211q\213\212!\362\033"
 562      1263E609 
 562      458CB76D 
 562      89718B8A 
 562      21F21B
 563 0391 401481AB 		.ascii	"@\024\201\253\020\024\\Zq\266R/jC\364\224l4\203\036"
 563      10145C5A 
 563      71B6522F 
 563      6A43F494 
 563      6C34831E 
 564 03a5 EF6E7B46 		.ascii	"\357n{F\225\250\200\315t\014\226\255\003\233\273\263"
 564      95A880CD 
 564      740C96AD 
 564      039BBBB3 
 565 03b5 1E93F373 		.ascii	"\036\223\363s\323\022:\346\014\301\250b\017\356\373"
 565      D3123AE6 
 565      0CC1A862 
 565      0FEEFB
 566 03c4 782F3F19 		.ascii	"x/?\031\313\037\207b\002\327%\350Uk\037\252\266v\307"
 566      CB1F8762 
 566      02D725E8 
 566      556B1FAA 
 566      B676C7
 567 03d7 FB7C3986 		.ascii	"\373|9\206\332\206\241\246\271\372\012\265\277\356\275"
 567      DA86A1A6 
 567      B9FA0AB5 
 567      BFEEBD
 568 03e6 C7B1B9DB 		.ascii	"\307\261\271\3331P;\003$\362i\252\032\325k%\003B\303"
 568      31503B03 
 568      24F269AA 
 568      1AD56B25 
 568      0342C3
 569 03f9 3FD31334 		.ascii	"?\323\0234\224\314\342\276\345\354\002\267\327e\303"
 569      94CCE2BE 
 569      E5EC02B7 
 569      D765C3
 570 0408 743E333F 		.ascii	"t>3?\220\273o\314<\303/\224\343\025.\245Iz\315t$p\237"
 570      90BB6FCC 
 570      3CC32F94 
ARM GAS  /tmp/ccP1FTzj.s 			page 45


 570      E3152EA5 
 570      497ACD74 
 571 041f E0BA3A58 		.ascii	"\340\272:X_\256^|\241\234\372r\207-_~\253\243\326^\223"
 571      5FAE5E7C 
 571      A19CFA72 
 571      872D5F7E 
 571      ABA3D65E 
 572 0434 F42AF5E7 		.ascii	"\364*\365\347\341\372\353\334\250\376=l\375\015\247"
 572      E1FAEBDC 
 572      A8FE3D6C 
 572      FD0DA7
 573 0443 CF3EB140 		.ascii	"\317>\261@\226\007\220\237RW\377i\347\353\311\325\213"
 573      9607909F 
 573      5257FF69 
 573      E7EBC9D5 
 573      8B
 574 0454 FC1383AD 		.ascii	"\374\023\203\255\\\243z\361\316+T\310\003\270\315|\346"
 574      5CA37AF1 
 574      CE2B54C8 
 574      03B8CD7C 
 574      E6
 575 0465 669DE3C9 		.ascii	"f\235\343\311t\275\371\340Z\223A\340.\250\364\373\324"
 575      74BDF9E0 
 575      5A9341E0 
 575      2EA8F4FB 
 575      D4
 576 0476 6441CEF8 		.ascii	"dA\316\370\223\253Zdy\272W\341p\3311b\266N\023W:q\020"
 576      93AB5A64 
 576      79BA57E1 
 576      70D93162 
 576      B64E1357 
 577 048d 2060D7EC 		.ascii	" `\327\354\200\231zRy\374+-X\217c0=\263\257\265`w\354"
 577      80997A52 
 577      79FC2B2D 
 577      588F6330 
 577      3DB3AFB5 
 578 04a4 800D3067 		.ascii	"\200\0150gvC\013V\346q\012\246gvS\0136\305\016\330P"
 578      76430B56 
 578      E6710AA6 
 578      6776530B 
 578      36C50ED8 
 579 04b9 7366B7B5 		.ascii	"sf\267\265`\323\035\203\351\231\335\325\202\315\266"
 579      60D31D83 
 579      E999DDD5 
 579      82CDB6
 580 04c8 03966DCE 		.ascii	"\003\226m\316\254j\237\006\254\3321\230\236Y\215\026"
 580      AC6A9F06 
 580      ACDA3198 
 580      9E598D16 
 581 04d8 6C9E1DB0 		.ascii	"l\236\035\260\037\2323{]\013\266\3201\230\236\331|-"
 581      1F9A337B 
 581      5D0BB6D0 
 581      31989ED9 
 581      7C2D
 582 04ea 58831DB0 		.ascii	"X\203\035\260\341\346\314\026h\301\232\034\203\351\231"
 582      E1E6CC16 
 582      68C19A1C 
ARM GAS  /tmp/ccP1FTzj.s 			page 46


 582      83E999
 583 04f9 D569C196 		.ascii	"\325i\301\226\333\001\033m\316\254^\013\266\3121\230"
 583      DB011B6D 
 583      CEAC5E0B 
 583      B6CA3198 
 584 0509 9E59B316 		.ascii	"\236Y\263\026l\255\035\2601\346\314Z\264`\315\216\301"
 584      6CAD1DB0 
 584      31E6CC5A 
 584      B460CD8E 
 584      C1
 585 051a F4CC3668 		.ascii	"\364\3146h\301\326\333\001{\306\234\331&-\330&\307`"
 585      C1D6DB01 
 585      7BC69CD9 
 585      262DD826 
 585      C760
 586 052c 7A666F6B 		.ascii	"zfok\3016\333\001{\316\234\331;Z\260\367\034\203\351"
 586      C136DB01 
 586      7BCE9CD9 
 586      3B5AB0F7 
 586      1C83E9
 587 053f 99BDA705 		.ascii	"\231\275\247\005\333b\007\354EsfmZ\260m\216\301\364"
 587      DB6207EC 
 587      4573666D 
 587      5AB06D8E 
 587      C1F4
 588 0551 CCF668C1 		.ascii	"\314\366h\301v\332\001\373\275\0013u3*\207\272\351N"
 588      76DA01FB 
 588      BD013375 
 588      332A87BA 
 588      E94E
 589 0563 5EEDB705 		.ascii	"^\355\267\005n\267G\031\3428\354\243\271\004\306\307"
 589      6EB74719 
 589      E238ECA3 
 589      B904C6C7 
 590 0573 1EA74332 		.ascii	"\036\247C2\235\334\360l\360y\023?w\262\274k\2702>?`"
 590      9DDCF06C 
 590      F079133F 
 590      77B2BC6B 
 590      B8323E3F 
 591 0588 07D1A203 		.ascii	"\007\321\242\003\254\333\251\031\354\037s\014\306\270"
 591      ACDBA919 
 591      EC1F730C 
 591      C6B8
 592 0596 3202D38D 		.ascii	"2\002\323\215\235\350\000\273{y|\350\202\304\350\315"
 592      9DE800BB 
 592      7B797CE8 
 592      82C4E8CD 
 593 05a6 A760A147 		.ascii	"\247`\241G_2T\203'aA\315,\017\035j\234W\344\253\205"
 593      5F325483 
 593      276141CD 
 593      2C0F1D6A 
 593      9C57E4AB 
 594 05bb 1FC0BE46 		.ascii	"\037\300\276F\360\253,\310\271r\206\246A`\004\3461z"
 594      F0AB2CC8 
 594      B97286A6 
 594      416004E6 
 594      317A
ARM GAS  /tmp/ccP1FTzj.s 			page 47


 595 05cd A8C600D6 		.ascii	"\250\306\000\326E\315<a\216\240\361\204sv\324d\321\265"
 595      45CD3C61 
 595      8EA0F184 
 595      7376D464 
 595      D1B5
 596 05df 7FBAB3FE 		.ascii	"\177\272\263\376\357\344\3568\257\221\327R9\360LT\363"
 596      EFE4EE38 
 596      AF91D752 
 596      39F04C54 
 596      F3
 597 05f0 91F24C34 		.ascii	"\221\362L4_@\317\037\227<\206\01726\240jk\327\376\010"
 597      5F40CF1F 
 597      973C860F 
 597      3236A06A 
 597      6BD7FE08 
 598 0604 3FC82CC4 		.ascii	"?\310,\304@=}\006\332_\367\306h\014T\217\201\312\274"
 598      403D7D06 
 598      DA5FF7C6 
 598      680C548F 
 598      81CABC
 599 0617 ECA09767 		.ascii	"\354\240\227g\236\210x\3753\013\357O\234\364\352\315"
 599      9E8878FD 
 599      330BEF4F 
 599      9CF4EACD 
 600 0627 F58DE685 		.ascii	"\365\215\346\205gX/c/\2358)GO\335=\035w\252\371\253"
 600      67582F63 
 600      2F9D3829 
 600      474FDD3D 
 600      1D77AAF9 
 601 063c E5F282E1 		.ascii	"\345\362\202\341\016,\266\357C\305bMX?s\223\364\263"
 601      0E2CB6EF 
 601      43C5624D 
 601      583F7393 
 601      F4B3
 602 064e 5070A620 		.ascii	"Pp\246 \201[\344X\220\037\352\005\231\271\275\306\271"
 602      815BE458 
 602      901FEA05 
 602      99B9BDC6 
 602      B9
 603 065f 20AAEBAD 		.ascii	" \252\353\255\300\202,\375\006\004Y\343X\220\341\032"
 603      C0822CFD 
 603      060459E3 
 603      5890E11A 
 604 066f 41D01CC9 		.ascii	"A\320\034\311\265\032\022\007\357\343j\254\237M\021"
 604      B51A1207 
 604      EFE36AAC 
 604      9F4D11
 605 067e 9F35C27D 		.ascii	"\2375\302}\372\031\256#\273\371lr;\365\004\327\365\335"
 605      FA19AE23 
 605      BBF96C72 
 605      3BF504D7 
 605      F5DD
 606 0690 9A190CD9 		.ascii	"\232\031\014\331\326\014FM\247\242\2627\261\312Z\274"
 606      D60C464D 
 606      A7A2B237 
 606      B1CA5ABC 
 607 06a0 068DCC16 		.ascii	"\006\215\314\026T\355\341\355\353\350\014\306:\014\365"
ARM GAS  /tmp/ccP1FTzj.s 			page 48


 607      54EDE1ED 
 607      EBE80CC6 
 607      3A0CF5
 608 06af 769FA1F6 		.ascii	"v\237\241\366\037}\213\264\327\015\030(\236dF/cE\257"
 608      1F7D8BB4 
 608      D70D1828 
 608      9E64462F 
 608      6345AF
 609 06c2 DE8A7089 		.ascii	"\336\212p\211j\272\201\346\027\370?\322;\350\"\215\373"
 609      6ABA81E6 
 609      17F83FD2 
 609      3BE8228D 
 609      FB
 610 06d3 7F2F07BD 		.ascii	"\177/\007\2751\246\217,\350\2607V=\350L\215\322\223"
 610      31A68F2C 
 610      E8B03756 
 610      3DE84C8D 
 610      D293
 611 06e5 1223EDBD 		.ascii	"\022#\355\275'\304\362\370\372\231\3124\334\223\250"
 611      27C4F2F8 
 611      FA99CA34 
 611      DC93A8
 612 06f4 2F3D7A8F 		.ascii	"/=z\217p{;\034O\234\325\034P\334\256\025Kt2\311\304"
 612      707B3B1C 
 612      4F9CD51C 
 612      50DCAE15 
 612      4B7432C9 
 613 0709 DBD8986C 		.ascii	"\333\330\230lg\036\351B_%Q7\201\373\212m\360\216\236"
 613      671EE942 
 613      5F255137 
 613      81FB8A6D 
 613      F08E9E
 614 071c 39D1DCEE 		.ascii	"9\321\334\356uj\256\224\223Q\312D\363\316\3662:\321"
 614      756AAE94 
 614      9351CA44 
 614      F3CEF632 
 614      3AD1
 615 072e BC4D4033 		.ascii	"\274M@3\2647\030m\330\230\325\232\232\206\212\264\013"
 615      B437186D 
 615      D898D59A 
 615      9A868AB4 
 615      0B
 616 073f 4933B41F 		.ascii	"I3\264\037)3\264\3507\033\263Z\272\031Z\221\177\217"
 616      2933B4E8 
 616      371BB35A 
 616      BA195A91 
 616      7F8F
 617 0751 17286E5F 		.ascii	"\027(n_5\2523b\202\240\310\357\302\343\243\017\204\207"
 617      35AA3362 
 617      82A0C8EF 
 617      C2E3A30F 
 617      8487
 618 0763 B4DAAF4D 		.ascii	"\264\332\257Ms\252\375l\255\366\343\267:\310\034\277"
 618      73AAFD6C 
 618      ADF6E3B7 
 618      3AC81CBF 
 619 0773 3267DFC4 		.ascii	"2g\337\304\342\215\321\216]\351\251\351s\272\034\257"
ARM GAS  /tmp/ccP1FTzj.s 			page 49


 619      E28DD18E 
 619      5DE9A9E9 
 619      73BA1CAF 
 620 0783 F9180F3A 		.ascii	"\371\030\017:I\273\373\263\035r\026\217\326o\0200\342"
 620      49BBFBB3 
 620      1D72168F 
 620      D66F1030 
 620      E2
 621 0794 F22D8EC1 		.ascii	"\362-\216\301\262u`\255\257\331{% \363\332\341\260\300"
 621      B27560AD 
 621      AFD97B25 
 621      20F3DAE1 
 621      B0C0
 622 07a6 B5E27AF7 		.ascii	"\265\342z\367\263\236R{w\317T\352)\373mx\012t6g\374"
 622      B39E527B 
 622      77CF54EA 
 622      29FB6D78 
 622      0A743667 
 623 07bb 724D86A2 		.ascii	"rM\206\242\347\353*\252\205\236\215\374Dy3p\356\003"
 623      E7EB2AAA 
 623      859E8DFC 
 623      44793370 
 623      EE03
 624 07cd 1EC391   		.ascii	"\036\303\221"
 625 07d0 E17D2F0B 		.ascii	"\341}/\013\227\362\351C\017w7\264k\2703\305\320\267"
 625      97F2E943 
 625      0F7737B4 
 625      6BB833C5 
 625      D0B7
 626 07e2 545D9B51 		.ascii	"T]\233Qw{\0147\303\251>6(\021\315h\374y\277\306\237"
 626      777B0C37 
 626      C3A93E36 
 626      2811CD68 
 626      FC79BFC6 
 627 07f7 0F627F3E 		.ascii	"\017b\177>\004\376,\362\237\340\375Q\255o\233\365\370"
 627      04FE2CF2 
 627      9FE0FD51 
 627      AD6F9BF5 
 627      F8
 628 0808 5DDAF1FA 		.ascii	"]\332\361\372\034\237S\271\263\031\353\230U\263O[\315"
 628      1C9F53B9 
 628      B319EB98 
 628      55B34F5B 
 628      CD
 629 0819 7C9F0DDF 		.ascii	"|\237\015\3373\237\211\201\260rp\256\322%\2217\037\215"
 629      339F8981 
 629      B07270AE 
 629      D2259137 
 629      1F8D
 630 082b 8E11F5DE 		.ascii	"\216\021\365\336|\3715]\227\264\306\016\334\030\003"
 630      7CF9355D 
 630      97B4C60E 
 630      DC1803
 631 083a 82469BF6 		.ascii	"\202F\233\366\315\225\310\277\303#3\275\313#\003\265"
 631      CD95C8BF 
 631      C32333BD 
 631      CB2303B5 
ARM GAS  /tmp/ccP1FTzj.s 			page 50


 632 084a E2FD16BC 		.ascii	"\342\375\026\274\337\215\3673\260\341f\341\375kx?\017"
 632      DF8DF733 
 632      B0E166E1 
 632      FD6B783F 
 632      0F
 633 085b EF1BF17E 		.ascii	"\357\033\361~9\336\257\306\373\255x\337\201\367\037"
 633      39DEAFC6 
 633      FBAD78DF 
 633      81F71F
 634 086a E17D27DE 		.ascii	"\341}'\336\357\305\373\223x\177\332\216\003\220@\253"
 634      EFC5FB93 
 634      787FDA8E 
 634      039040AB 
 635 087a BA991273 		.ascii	"\272\231\022s\233\373\374V\354P\342\255\230\310\267"
 635      9BFBFC56 
 635      EC50E2AD 
 635      98C8B7
 636 0889 3906633D 		.ascii	"9\006c=J\247\311f\215&[\260&\327c\275\235\321\207\361"
 636      4AA7C966 
 636      8D265BB0 
 636      26D763BD 
 636      9DD187F1 
 637 089d F53EE575 		.ascii	"\365>\345um\237\302A\367\224\363\273\\\370\205\216\375"
 637      6D9FC241 
 637      F794F3BB 
 637      5CF8858E 
 637      FD
 638 08ae 31C5ADA5 		.ascii	"1\305\255\245'\377\371/\370\005\312Y\362\334\231\324"
 638      27FFF92F 
 638      F805CA59 
 638      F2DC99D4 
 639 08be 7A3DCC88 		.ascii	"z=\314\210\302\243\037Qx\374\211\023uDq\235\025\304"
 639      C2A31F51 
 639      78FC8913 
 639      7544719D 
 639      15C4
 640 08d0 5920EA5E 		.ascii	"Y \352^~~\017\021\204yO\203\036D\314\034\342\202\266"
 640      7E7E0F11 
 640      84794F83 
 640      1E44CC1C 
 640      E282B6
 641 08e3 A996F99D 		.ascii	"\251\226\371\235\022\310\3269\303\001\342\014\010S\340"
 641      12C8D639 
 641      C301E20C 
 641      0853E0
 642 08f2 66D801B3 		.ascii	"f\330\001\263\230\202\371D\013V\345\030L\317\354\250"
 642      9882F944 
 642      0B56E518 
 642      4CCFECA8 
 643 0902 166C811D 		.ascii	"\026l\201\0350\213\211\212\343\355\365\311\275\341\020"
 643      308B898A 
 643      E3EDF5C9 
 643      BDE110
 644 0911 6E1E7DE2 		.ascii	"n\036}\342\220y\311\364\335\030R\371ua\010>s\341\005"
 644      9079C9F4 
 644      DD1852F9 
 644      7561083E 
ARM GAS  /tmp/ccP1FTzj.s 			page 51


 644      73E105
 645 0924 511C63AC 		.ascii	"Q\034c\254\025&\264P\311\236\204\261D\376\267.\325\275"
 645      1526B450 
 645      C99E84B1 
 645      44FEB72E 
 645      D5BD
 646 0936 CC3D355E 		.ascii	"\314=5^[y?Z\264\3605\026\274\321\257wS\246jD\314\254"
 646      5B793F5A 
 646      B4F03516 
 646      BCD1AF77 
 646      53A66A44 
 647 094c EADB822E 		.ascii	"\352\333\202.p\350|\233\371M\340V;V\260\336Z\237V\352"
 647      70E87C9B 
 647      F94DE056 
 647      3B56B0DE 
 647      5A9F56EA 
 648 0960 02F47A3B 		.ascii	"\002\364z;p\331\006\3662\332\264\013;`\370\216\303\312"
 648      70D906F6 
 648      32DAB40B 
 648      3B60F88E 
 648      C3CA
 649 0972 9F7158F9 		.ascii	"\237qX\371\002\207\321/\361\376ox\177\031\357\257\342"
 649      0287D12F 
 649      F1FE6F78 
 649      7F19EFAF 
 649      E2
 650 0983 FD35BCBF 		.ascii	"\3755\274\277\253\015=\337\016\252\231\005\232\022\263"
 650      AB0D3DDF 
 650      0EAA9905 
 650      9A12B3
 651 0992 AE7D596C 		.ascii	"\256}Yl\023?8u\010\362\2042\027\032n\274\343g\003\326"
 651      133F3875 
 651      08F28432 
 651      171A6EBC 
 651      E36703D6 
 652 09a6 0A9E196E 		.ascii	"\012\236\031n|\353\002\311.c\201\006rUX\240\005\231"
 652      7CEB02C9 
 652      2E638106 
 652      725558A0 
 652      0599
 653 09b8 64029296 		.ascii	"d\002\222\226\377\241R\336C\313Oq\015\304g\272g}2En"
 653      FFA152DE 
 653      43CB4F71 
 653      0DC467BA 
 653      677D3245 
 654 09cd 5263A52B 		.ascii	"Rc\245+1\311\231\341O\234\270S0\2550a\312\264\3717-"
 654      31C999E1 
 654      4F9CB853 
 654      30AD3061 
 654      CAB4F937 
 655 09e2 E2EC3497 		.ascii	"\342\3544\227\256\321\323w\335)\3320\3127\325\245k\\"
 655      AED1D377 
 655      DD29DA30 
 655      CA37D5A5 
 655      6B5C
 656 09f4 F6FBA879 		.ascii	"\366\373\250yS7=\214'6f\270P\027\365A\222\305\373\360"
 656      53373D8C 
ARM GAS  /tmp/ccP1FTzj.s 			page 52


 656      273666B8 
 656      5017F541 
 656      92C5FBF0 
 657 0a08 D4FB20F7 		.ascii	"\324\373 \367\206\274\347R\367\3417?8\314W\303\220L"
 657      86BCE752 
 657      F7E1373F 
 657      38CC57C3 
 657      904C
 658 0a1a BE846E93 		.ascii	"\276\204n\223\310!p\225\375\364U|\237[*\3135ru\350\031"
 658      C8217095 
 658      FDF4557C 
 658      9F5B2ACB 
 658      357275E8 
 659 0a2f 12BA046E 		.ascii	"\022\272\004n6\3161\333\365\240!q5\300\375\023\267\034"
 659      36CE31DB 
 659      F5A02171 
 659      35C0FD13 
 659      B71C
 660 0a41 E9F55DF9 		.ascii	"\351\365]\371\271\2418\222r\264\220\216\355k.\335\022"
 660      B9A13892 
 660      72B4908E 
 660      ED6B2EDD 
 660      12
 661 0a52 34442D7E 		.ascii	"4D-~)~\270r\016\204\216\362xo\357\223T\353\320y\030"
 661      297EB872 
 661      0E848EF2 
 661      786FEF93 
 661      54EBD079 
 662 0a67 F3EAC97B 		.ascii	"\363\352\311{\206\006\230\0058C\215)\255'\265\254Z?"
 662      86069805 
 662      38438D29 
 662      AD27B5AC 
 662      5A3F
 663 0a79 7BEE1962 		.ascii	"{\356\031bk\316\242\020%9\327\220\344\206\216\214\252"
 663      6BCEA210 
 663      2539D790 
 663      E4868E8C 
 663      AA
 664 0a8a B2EEDEDE 		.ascii	"\262\356\336\336\007\025\206u\326\014a`\350B#\253\332"
 664      07158675 
 664      D60C6160 
 664      E84223AB 
 664      DA
 665 0a9b BE30342B 		.ascii	"\27604+D\031.0d\330\332\376\232\252F\373=[=u\362\204"
 665      44192E30 
 665      64D8DAFE 
 665      9AAA46FB 
 665      3D5B3D75 
 666 0ab1 630BDC12 		.ascii	"c\013\334\022F4\225\245\274Rv\251\326]\304Z\267\301"
 666      463495A5 
 666      BC5276A9 
 666      D65DC45A 
 666      B7C1
 667 0ac3 90565D42 		.ascii	"\220V]Bq\365Xq\315\266\320\027\263\350\215\206\350_"
 667      71F55871 
 667      CDB6D017 
 667      B3E88D86 
ARM GAS  /tmp/ccP1FTzj.s 			page 53


 667      E85F
 668 0ad5 B5CFF211 		.ascii	"\265\317\362\021x\373\"/5\020\271\315\230T\225\236\324"
 668      78FB222F 
 668      3510B9CD 
 668      9854959E 
 668      D4
 669 0ae6 1296D432 		.ascii	"\022\226\3242#Rr\213,\373eh}\262\240\310|\320\226\314"
 669      2352728B 
 669      2CFB6568 
 669      7DB2A0C8 
 669      7CD096CC 
 670 0afa 2B58F83F 		.ascii	"+X\370?\031\312\274\257\303\271\314\253\015d>cK\346"
 670      19CABCAF 
 670      C3B9CCAB 
 670      0D643E63 
 670      4BE6
 671 0b0c 552CA935 		.ascii	"U,\25156e\276mK\346\265,\374\233\311\360\335U\335Sn"
 671      3665BE6D 
 671      4BE6B52C 
 671      FC9BC9F0 
 671      DD55DD53 
 672 0b21 7EC02F94 		.ascii	"~\300/\224\267V@\025\177d\275\333*\206\257cc8\352\222"
 672      B7564015 
 672      7F64BDDB 
 672      2A86AF63 
 672      6338EA92 
 673 0b35 D58B19A4 		.ascii	"\325\213\031\244s\321\005u\201\233\225\316\022'\231"
 673      73D10575 
 673      819B95CE 
 673      122799
 674 0b44 3618318B 		.ascii	"6\0301\213o\2363\353\001\271\311i\263\333d\311\213\216"
 674      6F9E33EB 
 674      01B9C969 
 674      B3DB64C9 
 674      8B8E
 675 0b56 F0D5EBB3 		.ascii	"\360\325\353\263\344\265\204z\3755\363;\011%\214\030"
 675      E4B5847A 
 675      FD35F33B 
 675      09258C18 
 676 0b66 8B4CC478 		.ascii	"\213L\304x\317P\214O;M\305\260\322o\033+\007\032!\250"
 676      CF508C4F 
 676      3B4DC5B0 
 676      D26F1B2B 
 676      071A21A8 
 677 0b7a 170B19DE 		.ascii	"\027\013\031\336\306\372^mBt\253!\321#}\322\367vK\236"
 677      C6FA5E6D 
 677      4274AB21 
 677      D1237DD2 
 677      F7764B9E 
 678 0b8e DF88BE37 		.ascii	"\337\210\2767\233\210\261\333P\214-}\323\367\207\226"
 678      9B88B1DB 
 678      508C2D7D 
 678      D3F78796 
 679 0b9e 7E43F5CD 		.ascii	"~C\365\315\020\333eB\254\323\260\245\355o{\377\357\027"
 679      10DB6542 
 679      ACD3B0A5 
 679      ED6F7BFF 
ARM GAS  /tmp/ccP1FTzj.s 			page 54


 679      EF17
 680 0bb0 B4C815D3 		.ascii	"\264\310\025\323\345\273\275\177\344u\324|\334T\374"
 680      E5BBBD7F 
 680      E475D47C 
 680      DC54FC
 681 0bbf AA6D8A5C 		.ascii	"\252m\212\\\306\227\250\003\031\223W\340\"\277\317\345"
 681      C697A803 
 681      199357E0 
 681      22BFCFE5 
 682 0bcf 83DAEFA6 		.ascii	"\203\332\357\246\233\276\300F\031\320\206\312\223s\345"
 682      9BBEC046 
 682      19D086CA 
 682      9373E5
 683 0bde CCE2FDF5 		.ascii	"\314\342\375\365^V\003\3608\256\236SDF\001\025\031\306"
 683      5E5603F0 
 683      38AE9E53 
 683      44460115 
 683      19C6
 684 0bf0 0A386C68 		.ascii	"\0128lh\231c\355\263d\336i|=\302\262B\243`\206F\265"
 684      9963EDB3 
 684      64DE697C 
 684      3DC2B242 
 684      A3608646 
 685 0c05 098D2E43 		.ascii	"\011\215.C\032WLi !\315x\0347\327\016\363\344Xc\341"
 685      1A574C69 
 685      2021CD78 
 685      1C37D70E 
 685      F3E45863 
 686 0c1a 65DDAE74 		.ascii	"e\335\256t\035C\235\030M&b\2344t\247\3457\367\232\006"
 686      1D439D18 
 686      4D26629C 
 686      3474A7E5 
 686      37F79A06 
 687 0c2e EEB31614 		.ascii	"\356\263\026\024N\337S\2004\0164o\2310?kh\200\326>\005"
 687      4EDF5380 
 687      340E346F 
 687      99303F6B 
 687      6880D63E 
 688 0c43 9AF346BC 		.ascii	"\232\363F\274\031\036;Mx|i\250\301\203\237\277\377D"
 688      191E3B4D 
 688      787C69A8 
 688      C1839FBF 
 688      FF44
 689 0c55 83718324 		.ascii	"\203q\203$\223xfT.\032<\277\230j,\316k\257\031_A#^\213"
 689      93786654 
 689      2E1A3CBF 
 689      986A2CCE 
 689      6BAF195F 
 690 0c6d 098B753B 		.ascii	"\011\213u;\361\204\305U\027\236C\352\317>\264Lu1k\206"
 690      F184C555 
 690      179E43EA 
 690      CF3EB44C 
 690      75316B86 
 691 0c81 99E7232E 		.ascii	"\231\347#.Ud\255\351o\254\257\353&\001\354\244&\200"
 691      5564ADE9 
 691      6FACAFEB 
 691      2601ECA4 
ARM GAS  /tmp/ccP1FTzj.s 			page 55


 691      2680
 692 0c93 29A39165 		.ascii	")\243\221e&\030=\306\303\215\273}\033n\3342\352f\030"
 692      26183DC6 
 692      C38DBB7D 
 692      1B6EDC32 
 692      EA6618
 693 0ca6 69369930 		.ascii	"i6\2310\271c\350\205W\347\3146\363B\253\346\323k\321"
 693      B963E885 
 693      57E7CC36 
 693      F342ABE6 
 693      D36BD1
 694 0cb9 DF395DD6 		.ascii	"\3379]\326$\362u\370\325E\212\265\020fT\312\335Z\363"
 694      24F275F8 
 694      D5458AB5 
 694      106654CA 
 694      DD5AF3
 695 0ccc 3B6CB25B 		.ascii	";l\262[L\224U\3516R\326\361>5\331i\356\324F\333c\302"
 695      4C9455E9 
 695      3652D6F1 
 695      3E35D969 
 695      EED446DB 
 696 0ce2 63869EC7 		.ascii	"c\206\236\307\367\270&9\276\247\373\320\233{\207\226"
 696      F7B82639 
 696      BEA7FBD0 
 696      9B7B8796 
 697 0cf2 C9F10A59 		.ascii	"\311\361\012Y\276\335\333\313\363\312\307R]*\210\341"
 697      BEDDDBCB 
 697      F3CAC752 
 697      5D2A88E1 
 698 0d02 A40FC29B 		.ascii	"\244\017\302\233E\361Fq\353\345iq4N^\202\347t\320<\016"
 698      45F14671 
 698      EBE56971 
 698      344E5E82 
 698      E774D03C 
 699 0d17 B9974D5E 		.ascii	"\271\227M^\251\221\211\365\377\341n\242\351\002\022"
 699      A99189F5 
 699      FFE16EA2 
 699      E90212
 700 0d26 6366BABF 		.ascii	"cf\272\277G@\320d\273\321/\034\231\011R'\263\311\224"
 700      4740D064 
 700      BBD12F1C 
 700      99095227 
 700      B3C994
 701 0d39 10CE6938 		.ascii	"\020\316i8\2333\355\264\362\316>^)O\343\313\326}G\265"
 701      9B33EDB4 
 701      F2CE3E5E 
 701      294FE3CB 
 701      D67D47B5 
 702 0d4d B26EBE5E 		.ascii	"\262n\276^\375z\240s\011]\341\361\272\033\315_\234`"
 702      FD7AA073 
 702      095DE1F1 
 702      BA1BCD5F 
 702      9C60
 703 0d5f 94E604AC 		.ascii	"\224\346\004\254\266\266S\371\340\245\026\203\235\353"
 703      B6B653F9 
 703      E0A51683 
 703      9DEB
ARM GAS  /tmp/ccP1FTzj.s 			page 56


 704 0d6d 3B58E3FE 		.ascii	";X\343\376\243\370\333\262:\014t%)@\371\231I\025\277"
 704      A3F8DBB2 
 704      3A0C7425 
 704      2940F999 
 704      4915BF
 705 0d80 DED1FDFE 		.ascii	"\336\321\375\376\304I\257\262\261K\267\276\3052T0\371"
 705      C449AFB2 
 705      B14BB7BE 
 705      C5325430 
 705      F9
 706 0d91 1F14C9F6 		.ascii	"\037\024\311\366\270(\300\\\267\323\351\264\006\267"
 706      B828C05C 
 706      B7D3E9B4 
 706      06B7
 707 0d9f F174DAE3 		.ascii	"\361t\332\343\224\224Y\271\232D#\376\021\267\032\275"
 707      949459B9 
 707      9A4423FE 
 707      11B71ABD 
 708 0daf 103E0C3E 		.ascii	"\020>\014>>\224P\370\021\367\2602\2439\355\264\206p"
 708      3E9450F8 
 708      11F7B032 
 708      A339EDB4 
 708      8670
 709 0dc1 B5FA06B5 		.ascii	"\265\372\006\265j\020\305it3\357\225!Z\017%+=\320O\234"
 709      6A10C569 
 709      7433EF95 
 709      215A0F25 
 709      2B3DD04F 
 710 0dd6 4123A31B 		.ascii	"A#\243\033}\255\274\250\275\237|*\316\223\212\005\356"
 710      7DADBCA8 
 710      BD9F7C2A 
 710      CE938A05 
 710      EE
 711 0de7 0E36262A 		.ascii	"\0166&*j\254%UN\215pz\300\372\247\253*3\02489\323\026"
 711      6AAC2555 
 711      4E8D707A 
 711      C0FAA7AB 
 711      2A331438 
 712 0dfe 1C358021 		.ascii	"\0345\200!\336\033Z\274\311\366\360\032\323\314\361"
 712      DE1B5ABC 
 712      C9F6F01A 
 712      D3CCF1
 713 0e0d 9AB57895 		.ascii	"\232\265x\225\366\360.\3653\307k\321\342M\267\207\027"
 713      F6F02EF5 
 713      33C76BD1 
 713      E24DB787 
 713      17
 714 0e1e CF34C053 		.ascii	"\3174\300S7\024\364 \3706t4\360r\323,\260)\014Y\351"
 714      3714F420 
 714      F8367434 
 714      F072D32C 
 714      B0290C59 
 715 0e33 62364B7F 		.ascii	"b6K\177\200'm\\\375Z7\263\246\255\266\335\225Mn\247"
 715      80276D5C 
 715      FD5A37B3 
 715      A6ADB6DD 
 715      954D6EA7 
ARM GAS  /tmp/ccP1FTzj.s 			page 57


 716 0e47 F6878D8A 		.ascii	"\366\207\215\212? !\004n\241\212hRij\207x\253}6\217"
 716      3F202104 
 716      6EA18A68 
 716      52696A87 
 716      78AB7D36 
 717 0e5c D6B46AE7 		.ascii	"\326\264j\347\2645\257\343\214\274z\275\343v\270\301"
 717      B435AFE3 
 717      8CBC7ABD 
 717      E376B8C1 
 718 0e6c A41DCE51 		.ascii	"\244\035\316Qf\364\005\256\376\036DQ7\201[\232\311t"
 718      66F405AE 
 718      FE1E4451 
 718      37815B9A 
 718      C974
 719 0e7e 3A46026C 		.ascii	":F\002lJtc\"\337\354~H9]\242\234\342+\364\352\340\027"
 719      4A746322 
 719      DFEC7E48 
 719      395DA29C 
 719      E22BF4EA 
 720 0e94 DC36799A 		.ascii	"\3346y\232\332\372\3218\234\3664(B@ P#\202\322\326\377"
 720      DAFAD138 
 720      9CF63428 
 720      42402050 
 720      2382D2D6 
 721 0ea9 0C7D8F29 		.ascii	"\014}\217)\246V+\344\245\304\275\240\221\027\032\367"
 721      A6562BE4 
 721      A5C4BDA0 
 721      91171AF7 
 722 0eb9 86702D81 		.ascii	"\206p-\201@\336\221\321Il\362\202\004\361\245_\300\221"
 722      40DE91D1 
 722      496CF282 
 722      04F1A55F 
 722      C091
 723 0ecb AE3E3EFF 		.ascii	"\256>>\377\351\2522\031\015\023\225\3274+Y}'w\362\333"
 723      E9AA3219 
 723      0D1395D7 
 723      342B597D 
 723      2777F2DB 
 724 0edf 923A7954 		.ascii	"\222:yT4U'OF%[\015:y\335/\372N\336\255\355\344\035("
 724      3455274F 
 724      46255B0D 
 724      3A79DD2F 
 724      FA4EDEAD 
 725 0ef7 6599A1E1 		.ascii	"e\231\241\341}}\263\370\262o\324\342\313\356\331\342"
 725      7D7DB3F8 
 725      B26FD4E2 
 725      CBEED9E2 
 726 0f07 CBFA6EF1 		.ascii	"\313\372n\361f\364|\321\363\310\333\345\350\371B\276"
 726      66F47CD1 
 726      F3C8DBE5 
 726      E8F942BE 
 727 0f17 D10B036D 		.ascii	"\321\013\003m%N\354\312T\007Qq\253o-\351c\216A`K \351"
 727      254EECCA 
 727      54075171 
 727      AB6F2DE9 
 727      638E4160 
 728 0f2e BEB314F9 		.ascii	"\276\263\024\371#4\276$o\"\277\316-0X\344\036\335Hp"
ARM GAS  /tmp/ccP1FTzj.s 			page 58


 728      2334BE24 
 728      6F22BFCE 
 728      2D3058E4 
 728      1EDD4870 
 729 0f42 EEEEE9E8 		.ascii	"\356\356\351\350\335\301\327\310\215\273 \300\301\240"
 729      DDC1D7C8 
 729      8DBB20C0 
 729      C1A0
 730 0f50 E241A337 		.ascii	"\342A\2437\220.\205\345(N\363F\352b\023]\211\331\205"
 730      902E85E5 
 730      284EF346 
 730      EA62135D 
 730      89D985
 731 0f63 03EC9A4C 		.ascii	"\003\354\232L\375\350)%\020<v\343\"'\330\236\277g\346"
 731      FDE82925 
 731      103C76E3 
 731      2227D89E 
 731      BF67E6
 732 0f76 8E297445 		.ascii	"\216)tE\331\011[]\177\303!\323\357\363\273\325\220\366"
 732      D9095B5D 
 732      7FC321D3 
 732      EFF3BBD5 
 732      90F6
 733 0f88 1D0DF79D 		.ascii	"\035\015\367\235\007OR\356\2470\367\367Ss\327\003\011"
 733      074F52EE 
 733      A730F7F7 
 733      5373D703 
 733      09
 734 0f99 DCC7B8C8 		.ascii	"\334\307\270\310\231d\356"
 734      9964EE
 735 0fa0 072A28F7 		.ascii	"\007*(\3673\266\270\357\337\247_wxL\3055\032\266\246"
 735      33B6B8EF 
 735      DFA75F77 
 735      784CC535 
 735      1AB6A6
 736 0fb3 EAA4CAE3 		.ascii	"\352\244\312\343\007\310gCdq\325g,\230\243E(r\374\023"
 736      07C86743 
 736      6471D567 
 736      2C98A345 
 736      2872FC13 
 737 0fc7 02D68199 		.ascii	"\002\326\201\231\375\3251X\266\216\331\2475\372o\370"
 737      FDD53158 
 737      B68ED9A7 
 737      35FA6FF8 
 738 0fd7 2FDBC1B3 		.ascii	"/\333\301\263XSri\237\346\263\236\036\307`zr_k\301\312"
 738      58537269 
 738      9FE6B39E 
 738      1EC7607A 
 738      725F6BC1 
 739 0fec B26C8019 		.ascii	"\262l\200\031\255)1\332\264N\002\021\330\215\036\230"
 739      AD2931DA 
 739      B44E0211 
 739      D88D1E98 
 740 0ffc CFBAD18B 		.ascii	"\317\272\321\213"
 741 1000 F5F378FF 		.ascii	"\365\363x\377%\336_\304\373Kx\177E\023\205\200\315\314"
 741      25DE5FC4 
 741      FB4B787F 
ARM GAS  /tmp/ccP1FTzj.s 			page 59


 741      45138580 
 741      CDCC
 742 1012 2CA59518 		.ascii	",\245\225\030\272b\352q\313F\363\346a\264\224\021\232"
 742      BA62EA71 
 742      CB46F3E6 
 742      61B49411 
 742      9A
 743 1023 F699327E 		.ascii	"\366\2312~\012\366\341\257q\363\250\316J\331<\330\305"
 743      0AF6E1AF 
 743      71F3A8CE 
 743      4AD93CD8 
 743      C5
 744 1034 A27FC245 		.ascii	"\242\177\302Ez\222\232G\307\235\311\264y\364\330h\036"
 744      7A929A47 
 744      C79DC9B4 
 744      79F4D868 
 744      1E
 745 1045 E5F19E39 		.ascii	"\345\361\23696\377\277B\255\377~\215 ;O(\177\304q\027"
 745      36FFBF42 
 745      ADFF7E8D 
 745      203B4F28 
 745      7FC47117 
 746 1059 0BD2965A 		.ascii	"\013\322\226Z\020=\020\264s\\\244\314\223$\310\005E"
 746      103D10B4 
 746      735CA4CC 
 746      9324C805 
 746      45
 747 106a 10F45B6A 		.ascii	"\020\364[jA6\317Q\274\377\216\033\371\330\247*\256\205"
 747      4136CF51 
 747      BCFF8E1B 
 747      F9D8A72A 
 747      AE85
 748 107c 8F991AB5 		.ascii	"\217\231\032\265<\376\016\371\334\231\200}\341\030L"
 748      3CFE0EF9 
 748      DC99807D 
 748      E1184C
 749 108b EFFDAD9D 		.ascii	"\357\375\255\235\365\224\034Y_\3607;x\026\253h\333:"
 749      F5941C59 
 749      5FF0373B 
 749      7816AB68 
 749      DB3A
 750 109d D98FE4EC 		.ascii	"\331\217\344\354O\272\314\362\364aq\205\352\271\307"
 750      4FBACCF2 
 750      F4617185 
 750      EAB9C7
 751 10ac CAE8DCC0 		.ascii	"\312\350\334\300L\017R\314\015\306\340\314\364%\252"
 751      4C0F52CC 
 751      0DC6E0CC 
 751      F425AA
 752 10bb CB8C4795 		.ascii	"\313\214G\225\307|\221\024\363\033D\214\001N\025\246"
 752      C77C9114 
 752      F31B448C 
 752      014E15A6 
 753 10cb 3300B8D3 		.ascii	"3\000\270\323WK\225u\261x\025\303t;\200F\301\321h\323"
 753      574B9575 
 753      B17815C3 
 753      743B8046 
ARM GAS  /tmp/ccP1FTzj.s 			page 60


 753      C1D168D3 
 754 10df FAAFC84F 		.ascii	"\372\257\310O\366\240\020T\341A\241\246\022\357\247"
 754      F6A01054 
 754      E141A1A6 
 754      12EFA7
 755 10ee E1FD0CBC 		.ascii	"\341\375\014\274\257\361\330X\355s\307\255Y\2736\305"
 755      AFF1D858 
 755      ED73C7AD 
 755      59BB36C5 
 756 10fe 23D0A6DE 		.ascii	"#\320\246\3367O\276\235\360d\221\237\352\030L\247\310"
 756      374FBE9D 
 756      F064919F 
 756      EA184CA7 
 756      C8
 757 110f 78F53EAD 		.ascii	"x\365>\255'\213\374t;x\026\236L\277\366&\315\242j\000"
 757      278BFC74 
 757      3B78169E 
 757      4CBFF626 
 757      CDA26A00 
 758 1123 EF102CDB 		.ascii	"\357\020,\333\312(=\232~\341\026\356\027n\343\370\377"
 758      CA283D9A 
 758      7EE116EE 
 758      176EE3F8 
 758      FF
 759 1134 3A36C43C 		.ascii	":6\304<\274\237\357\321\365\005\365\003\230\276@\037"
 759      BC9FEFD1 
 759      F505F503 
 759      98BE401F 
 760 1144 778DBA26 		.ascii	"w\215\272&\255~\344\370{\207@\036\373\337\227|\241|"
 760      AD7EE4F8 
 760      7B87401E 
 760      FBDF977C 
 760      A17C
 761 1156 5F52E741 		.ascii	"_R\347A\361s\351\000\303\370i\365}I\013.\322\220\024"
 761      F173E900 
 761      C3F869F5 
 761      7D490B2E 
 761      D29014
 762 1169 3F679E51 		.ascii	"?g\236Q\306I\015\251\343g\305\344\370\306\271+\022\035"
 762      C6490DA9 
 762      E367C5E4 
 762      F8C6B92B 
 762      121D
 763 117b C164B505 		.ascii	"\301d\265\005WYLu\353>h\335\252\362p\350\245\306\266"
 763      57594C75 
 763      EB3E68DD 
 763      AAF270E8 
 763      A5C6B6
 764 118e 6BD034A8 		.ascii	"k\3204\250\305\270A5\352-\365!k)\243\372L\377\232A\216"
 764      C5B84135 
 764      EA2DF521 
 764      6B29A3FA 
 764      4CFF9A41 
 765 11a3 1F3E441C 		.ascii	"\037>D\034\331\256\255\366\256\270\362\030^!\266\034"
 765      D9AEADF6 
 765      AEB8F218 
 765      5E21B61C 
ARM GAS  /tmp/ccP1FTzj.s 			page 61


 766 11b3 5B6AF240 		.ascii	"[j\362@\207\226BB\255d\254\024\277\032\312&wS\367o\267"
 766      87964242 
 766      AD64AC14 
 766      BF1ACA26 
 766      7753F76F 
 767 11c8 CEE0EF30 		.ascii	"\316\340\3570\234|\312\265S\371\224k\215\007\265\256"
 767      9C7CCAB5 
 767      53F9946B 
 767      8D07B5AE 
 768 11d8 D719CA7D 		.ascii	"\327\031\312}\374\224\253\036\303\254\374\246\014\275"
 768      FC94AB1E 
 768      C3ACFCA6 
 768      0CBD
 769 11e6 5263E855 		.ascii	"Rc\350U\330\320\253\365\206^:\320\206\241\215\276\355"
 769      D8D0ABF5 
 769      865E3AD0 
 769      86A18DBE 
 769      ED
 770 11f7 31AEEF84 		.ascii	"1\256\357\204&(t\343\240p\022\007\205kx\277\020\007"
 770      262874E3 
 770      A0701207 
 770      856B78BF 
 770      1007
 771 1209 85657A06 		.ascii	"\205ez\006+T\305\031>g\341\231\033\217\356\271\257\021"
 771      2B54C519 
 771      3E67E199 
 771      1B8FEEB9 
 771      AF11
 772 121b 3DAC9E7B 		.ascii	"=\254\236{d\265\341\303\252\356\335\241~8\204\240Z<"
 772      64B5E1C3 
 772      AAEEDDA1 
 772      7E3884A0 
 772      5A3C
 773 122d 03E999B2 		.ascii	"\003\351\231\262\002\023(\254J\242\220Tn\275\236Bs\274"
 773      021328AC 
 773      4AA29054 
 773      6EBD9E42 
 773      73BC
 774 123f FBF09B97 		.ascii	"\373\360\233\227\177\372\021\364\326)\236\227\025\327"
 774      7FFA11F4 
 774      D6299E97 
 774      15D7
 775 124d 0557B118 		.ascii	"\005W\261\030p\256\003\006)\307\245\"\3776\356\0176"
 775      70AE0306 
 775      29C7A522 
 775      FF36EE0F 
 775      36
 776 125e B3E1687F 		.ascii	"\263\341h\177\333\021\345#\246\315\266\334\275\347\316"
 776      DB11E523 
 776      A6CDB6DC 
 776      BDE7CE
 777 126d 2EF2D9D1 		.ascii	".\362\331\321\034\274\026\362\035,\377\346>\217\346"
 777      1CBC16F2 
 777      1D2CFFE6 
 777      3E8FE6
 778 127c 6E9DC370 		.ascii	"n\235\303p\314\360\244\336\344\355*\242\327\346\321"
 778      CCF0A4DE 
ARM GAS  /tmp/ccP1FTzj.s 			page 62


 778      E4ED2AA2 
 778      D7E6D1
 779 128b 04B72D8E 		.ascii	"\004\267-\216\253\317\326U\177;\204\006\036mx\310\264"
 779      ABCFD655 
 779      7F3B8406 
 779      1E6D78C8 
 779      B4
 780 129c C30E568A 		.ascii	"\303\016V\212/\250\024\254\217\035ce'5\010b\007\221"
 780      2FA814AC 
 780      8F1D6365 
 780      27350862 
 780      0791
 781 12ae 7F17BB7E 		.ascii	"\177\027\273~+\336\307\361~k\352\241\012\243\320\267"
 781      2BDEC7F1 
 781      7E6BEAA1 
 781      0AA3D0B7 
 782 12be 4C9820FC 		.ascii	"L\230 \374\355\236t\246n\232\363\367J\316\014|W\333"
 782      ED9E74A6 
 782      6E9AF3F7 
 782      4ACE0C7C 
 782      57DB
 783 12d0 505019E3 		.ascii	"PP\031\343\\\"\277\303\343t\352\267\335c<\365\253}\221"
 783      5C22BFC3 
 783      E374EAB7 
 783      DD633CF5 
 783      AB7D91
 784 12e3 98C805B7 		.ascii	"\230\310\005\267\017\261\255.\211\304N\217vB\021\354"
 784      0FB1AD2E 
 784      89C44E8F 
 784      764211EC 
 785 12f3 B21158A9 		.ascii	"\262\021X\251fC\223[\013\320\224\355\373O\270\2100\250"
 785      6643935B 
 785      0BD094ED 
 785      FB4FB888 
 785      30A8
 786 1305 655EDA13 		.ascii	"e^\332\023\357\232\321\000O\214\3204\357\366\366\362"
 786      EF9AD100 
 786      4F8CD034 
 786      EFF6F6F2 
 787 1315 446D02F7 		.ascii	"Dm\002\367\031[\233\276m\241\352:\240\272\357r\227\006"
 787      195B9BBE 
 787      6DA1EA3A 
 787      A0BAEF72 
 787      9706
 788 1327 36C83E4D 		.ascii	"6\310>M\265c\010\0021!\2513~|7og\235\370J\265\212\301"
 788      B5630802 
 788      3121A933 
 788      7E7C376F 
 788      679DF84A 
 789 133e B48A3D8E 		.ascii	"\264\212=\216\325\272\327D\255\367[z\216\310w&\034\342"
 789      D5BAD744 
 789      ADF75B7A 
 789      8EC87726 
 789      1CE2
 790 1350 BB5CC5A0 		.ascii	"\273\\\305\240\006y\301\230D\365\304\023\2210\323\344"
 790      0679C198 
 790      44F5C413 
ARM GAS  /tmp/ccP1FTzj.s 			page 63


 790      9130D3E4 
 791 1360 F8897EC4 		.ascii	"\370\211~\304\341\325\245\257\304C\021\036i\246\304"
 791      E1D5A5AF 
 791      C443111E 
 791      69A6C4
 792 136f 5769EE2B 		.ascii	"Wi\356+jn\355\262N\312\202W\024\264/Kg\221\3329\006"
 792      6A6EEDB2 
 792      4ECA8257 
 792      14B42F4B 
 792      6791DA39 
 793 1384 16A91B94 		.ascii	"\026\251\033\224\322\"\207u\016`d\211\205\235\266,\321"
 793      D2228775 
 793      0E606489 
 793      859DB62C 
 793      D1
 794 1395 AC422BEB 		.ascii	"\254B+\353E\273\034[\342\230\211%\006\247\260\304Q\255"
 794      45BB1C5B 
 794      E2988925 
 794      06A7B0C4 
 794      51AD
 795 13a7 2556504B 		.ascii	"%VPKt\031Y\242.K\321\355b\033\226xC\315\2756\331\022"
 795      741959A2 
 795      2E4BD1ED 
 795      621B9678 
 795      43CDBD36 
 796 13bd 64725E89 		.ascii	"dr^\211\012L Yg\021\231\273=\306\037\030\2001\334\003"
 796      0A4C2059 
 796      671199BB 
 796      3DC61F18 
 796      8031DC03 
 797 13d1 4D4B9D34 		.ascii	"MK\2354-\265\311\242\256S\246\245\332,J\2356-\265\335"
 797      2DB5C9A2 
 797      AE53A6A5 
 797      DA2C4A9D 
 797      362DB5DD 
 798 13e5 A2D46789 		.ascii	"\242\324g\211R\324G\032\3070N2@\037\262D\376\214c\037"
 798      52D4471A 
 798      C7304E32 
 798      401FB244 
 798      FE8C631F 
 799 13f9 F9DCC447 		.ascii	"\371\334\304Gx}\325\254{\216V\362\245Q\234/\034\327"
 799      787DD5AC 
 799      7B8E56F2 
 799      A5519C2F 
 799      1CD7
 800 140b 7CD6A466 		.ascii	"|\326\244f\257\261\252>\264P\3259S\005\357\265(u\336"
 800      AFB1AA3E 
 800      B450D539 
 800      5305EFB5 
 800      2875DE
 801 141e B4D4118B 		.ascii	"\264\324\021\213R\1775-u\334\242\324\227\246\245N[\224"
 801      527F352D 
 801      75DCA2D4 
 801      97A6A54E 
 801      5B94
 802 1430 BA605AEA 		.ascii	"\272`Z\352\274E\251\213\246\245\272LF\315\370\325\222"
 802      BC45A98B 
ARM GAS  /tmp/ccP1FTzj.s 			page 64


 802      A6A5BA4C 
 802      46CDF8D5 
 802      92
 803 1441 69A98B16 		.ascii	"i\251\213\026u]2-\325\3421o|\227\023\245\310\252\365"
 803      755D322D 
 803      D5E2316F 
 803      7C9713A5 
 803      C8AAF5
 804 1454 EEE5E7CF 		.ascii	"\356\345\347\317\013\350\363K\364\002\357!\007\353\274"
 804      0BE8F34B 
 804      F402EF21 
 804      07EBBC
 805 1463 AEB2B357 		.ascii	"\256\262\263W\006\253\374Z\007\351\037t\350\007\"\233"
 805      06ABFC5A 
 805      07E91F74 
 805      E807229B 
 806 1473 D1A7354D 		.ascii	"\321\2475Mx\002z\007\316q\305c\366\205\010\375|\214"
 806      78027A07 
 806      CE71C563 
 806      F68508FD 
 806      7C8C
 807 1485 2E9BEFD2 		.ascii	".\233\357\322}\"bV\212\022\274\346IZ\037\005\342\036"
 807      7D226256 
 807      8A12BCE6 
 807      495A1F05 
 807      E21E
 808 1497 FCFCF2BF 		.ascii	"\374\374\362\277\376\005\375\271&Z\032WV\3613Fb\364"
 808      FE05FDB9 
 808      265A1A57 
 808      56F13346 
 808      62F4
 809 14a9 36C14CE2 		.ascii	"6\301L\342\233\236\344\017\010>`$\244T\313\345\226\225"
 809      9B9EE40F 
 809      083E6024 
 809      A454CBE5 
 809      9695
 810 14bb B25F5952 		.ascii	"\262_YR(\362=\326To\031Q\215\037\3063<h)\327\026\371"
 810      28F23DD6 
 810      546F1951 
 810      8D1FC633 
 810      3C6829D7 
 811 14d1 219F8355 		.ascii	"!\237\203U\217w\015\210vY\023\335\300\223>\343\2165"
 811      8F770D88 
 811      765913DD 
 811      C0933EE3 
 811      8E35
 812 14e3 D15E3D51 		.ascii	"\321^=Q\306\361\226Z\270k\231\227u\274\035[N\251\216"
 812      C6F1965A 
 812      B86B9997 
 812      75BC1D5B 
 812      4EA98E
 813 14f6 D734C0C1 		.ascii	"\3274\300\301\002\337\311\336\324\236w\316\330\363\266"
 813      02DFC9DE 
 813      D49E77CE 
 813      D8F3B6
 814 1505 289E27F2 		.ascii	"(\236'\362\327\361\363Q\271\327\216\347\225\313G\216"
 814      D7F1F351 
ARM GAS  /tmp/ccP1FTzj.s 			page 65


 814      B9D78EE7 
 814      95CB478E 
 815 1515 A18FBAC8 		.ascii	"\241\217\272\310\332j])\3352AJp\212\327JK\267,\2644"
 815      DA6A5D29 
 815      DD32414A 
 815      708AD74A 
 815      4BB72CB4 
 816 152a CD6BD6A8 		.ascii	"\315k\326\250{-JM7-\205\326\365\231\225\232\301Z$^u"
 816      7B2D4A4D 
 816      372D85D6 
 816      F599959A 
 816      C15A245E 
 817 153f 947CA7B4 		.ascii	"\224|\247\2648^\305\272\233\225=f\261\3660X<x\315\330"
 817      385EC5BA 
 817      9B953D66 
 817      B1F63058 
 817      3C78CDD8 
 818 1553 1EFB913D 		.ascii	"\036\373\221=d\274h\266\374>\224c\246\251=\350w\227"
 818      64BC68B6 
 818      FC3E9463 
 818      A6A93DE8 
 818      7797
 819 1565 86F69869 		.ascii	"\206\366\230im\217\327\274F\315\253w~\255y\363\262Z"
 819      6D8FD7BC 
 819      46CDAB77 
 819      7EAD79F3 
 819      B25A
 820 1577 583AD786 		.ascii	"X:\327\206\274\225\367\031\312{X\221W\344\253\274\310"
 820      BC95F719 
 820      CA7B5891 
 820      57E4ABBC 
 820      C8
 821 1588 FF6A6CCA 		.ascii	"\377jl\312{\034G\276\263\312\347{&\245(\301y\226\376"
 821      7B1C47BE 
 821      B3CAE77B 
 821      26A528C1 
 821      7996FE
 822 159b B7DAC293 		.ascii	"\267\332\302\223\026$\371DC\327\374\204\226\234\254"
 822      1624F944 
 822      43D7FC84 
 822      969CAC
 823 15aa 03AE33D2 		.ascii	"\003\2563\322R\212\3174\346\032k\355]Vk\013\255\265"
 823      528ACF34 
 823      E61A6BED 
 823      5D566B0B 
 823      ADB5
 824 15bc 468B5DFB 		.ascii	"F\213]\373\257\241\312\037\343-\302\300\013M\334D\245"
 824      AFA1CA1F 
 824      E32DC2C0 
 824      0B4DDC44 
 824      A5
 825 15cd 63D8CD98 		.ascii	"c\330\315\230UF\345l\320+\233{4'?R\030\312\011F\362"
 825      5546E56C 
 825      D02B9B7B 
 825      34273F52 
 825      18CA0946 
 826 15e2 26E5E485 		.ascii	"&\345\344\205^\316\011\346\207\307\207#\261\034)ZZ\364"
ARM GAS  /tmp/ccP1FTzj.s 			page 66


 826      5ECE09E6 
 826      87C78723 
 826      B11C295A 
 826      5AF4
 827 15f4 520E9C44 		.ascii	"R\016\234D\245\234pQ\260\2404\0172\345\227\224\206J"
 827      A59C7051 
 827      B0A0340F 
 827      32E59794 
 827      864A
 828 1606 43B161F9 		.ascii	"C\261a\371\\\377pQq\251\024\300\327\001\311\373\313"
 828      5CFF7051 
 828      71A914C0 
 828      D701C9FB 
 828      CB
 829 1617 5FFF36FB 		.ascii	"_\3776\373)\256_8\242\334\361)\247\243\035\341\307&"
 829      29AE5F38 
 829      A2DCF129 
 829      A7A31DE1 
 829      C726
 830 1629 C5A449C5 		.ascii	"\305\244I\305\270\206,)?\032\022\363b\012\342\200`~"
 830      B8862C29 
 830      3F1A12F3 
 830      620AE280 
 830      607E
 831 163b 40776B94 		.ascii	"@wk\2243\344`~\036\240\372\010D@\362\253p\336\342@Q"
 831      33E4607E 
 831      1EA0FA08 
 831      4440F2AB 
 831      70DEE240 
 832 1650 E855090E 		.ascii	"\350U\011\016\305\321\320\313\317\330@-\216D\245X\316"
 832      C5D1D0CB 
 832      CFD8402D 
 832      8E44A558 
 832      CE
 833 1661 CF5EF8D5 		.ascii	"\317^\370\325S\277z\025r\026\026\207\013B\321X\316/"
 833      53BF7A15 
 833      72161687 
 833      0B42D158 
 833      CE2F
 834 1673 9F7A0AB2 		.ascii	"\237z\012\262+\374\323\244\342((A\372~Ni,\232#F\013"
 834      2BFCD3A4 
 834      E2282841 
 834      FA7E4E69 
 834      2C9A2346 
 835 1688 7F5C1429 		.ascii	"\177\\\024)\012\3758$\216\017\253\264bR^\270HB\264J"
 835      0AFD3824 
 835      8E0FABB4 
 835      62525EB8 
 835      4842B44A 
 836 169c E1383237 		.ascii	"\341827 \215\262\310](\002\231\242PN /4A,-\220\002J"
 836      208DB2C8 
 836      5D280299 
 836      A2504E20 
 836      2F34412C 
 837 16b4 55FD0201 		.ascii	"U\375\002\001\245<\226\"\034I\013F\212$\020\352q\307"
 837      A53C9622 
 837      1C490B46 
ARM GAS  /tmp/ccP1FTzj.s 			page 67


 837      8A2410EA 
 837      71C7
 838 16c6 D2E40723 		.ascii	"\322\344\007#\321\020`\246\243\333\001@\015J\257\376"
 838      D11060A6 
 838      A3DB0140 
 838      0D4AAFFE 
 839 16d6 B46F2881 		.ascii	"\264o(\201\227\037+D\262EC\023A\240\200\344\212\215"
 839      971F2B44 
 839      B2454313 
 839      41A080E4 
 839      8A8D
 840 16e8 7814D263 		.ascii	"x\024\322c\220FCz\334\025\313\035\016i\004\244\\H#!"
 840      9046437A 
 840      DC15CB1D 
 840      0E6904A4 
 840      5C482321 
 841 16fc 8D82F413 		.ascii	"\215\202\364\023H\220/\027\362\345B\276\\\3107\022\362"
 841      48902F17 
 841      F2E542BE 
 841      5CC83712 
 841      F2
 842 170d 8D1C2144 		.ascii	"\215\034!DG\011\321\237\010\321G\205\350cBt\264\020"
 842      4709D19F 
 842      08D14785 
 842      E8634274 
 842      B410
 843 171f 7DDC151D 		.ascii	"}\334\025\0351\034\322\010\241 \012\207\221\236\342"
 843      311CD208 
 843      A1200A87 
 843      919EE2
 844 172e 00B04D43 		.ascii	"\000\260MC\366|%\024\205c\244 /\024u\007\363\305(2\262"
 844      F67C2514 
 844      8563A420 
 844      2F147507 
 844      F3C52832 
 845 1743 5818F249 		.ascii	"X\030\362I1I\224\300\233\322\220\302F\203\033\020\325"
 845      314994C0 
 845      9BD290C2 
 845      46831B10 
 845      D5
 846 1754 C11964C7 		.ascii	"\301\031d\307\277\245I\205\221\274\020\276\236P N\214"
 846      BFA54985 
 846      91BC10BE 
 846      9E50204E 
 846      8C
 847 1765 A549D1D0 		.ascii	"\245I\321\320\204\030\326,:\361\024\306&\302\217T\335"
 847      8418D62C 
 847      3AF114C6 
 847      26C28F54 
 847      DD
 848 1776 505C517C 		.ascii	"P\\Q|4o\022\374\344\013\275\032\226@Q!\357+Rd\374\037"
 848      346F12FC 
 848      E40BBD1A 
 848      96405121 
 848      EF2B5264 
 849 178c 8AD3432F 		.ascii	"\212\323C/\207\212\244B1\366\022d\011\275\202N\\\305"
 849      878AA442 
ARM GAS  /tmp/ccP1FTzj.s 			page 68


 849      31F61264 
 849      09BD824E 
 849      5CC5
 850 179e 81D24CC5 		.ascii	"\201\322L\305\223\013\3021\260c\226\306\267\321\035"
 850      930BC231 
 850      B06396C6 
 850      B7D11D
 851 17ad 7F71E015 		.ascii	"\177q\340\0251,\205\213&\366+\016\000*\366w\017>\205"
 851      312C858B 
 851      26F62B0E 
 851      002AF677 
 851      0F3E85
 852 17c0 1BA1E250 		.ascii	"\033\241\342P\021\370\315DOa)\330x\244\243f"
 852      11F8CD44 
 852      4F6129D8 
 852      78A4A366 
 853 17d0 5028BD8A 		.ascii	"P(\275\212|\263\2204!8F^)\002Ua$`X\210\233\002T\017"
 853      7CB39034 
 853      2138465E 
 853      29025561 
 853      24605888 
 854 17e8 F910917E 		.ascii	"\371\020\221~Hh\261\000\273\024\334,\216D\012\374%\012"
 854      4868B100 
 854      BB14DC2C 
 854      8E440AFC 
 854      250A
 855 17fa B75CECAB 		.ascii	"\267\\\354\253\005\341\3619\023\203A\306gG\015\033="
 855      05E1F139 
 855      138341C6 
 855      67470D1B 
 855      3D
 856 180b 6C94D6CF 		.ascii	"l\224\326\317\301g\241bo,\374\337\240[\300\010FJ\301"
 856      C167A162 
 856      6F2CFCDF 
 856      A05BC008 
 856      464AC1
 857 181e 43A3BE92 		.ascii	"C\243\276\222\300\370\322\011\023BQOI@\212\024\247\001"
 857      C0F8D209 
 857      1342514F 
 857      49408A14 
 857      A701
 858 1830 78B4588A 		.ascii	"x\264X\212\3021\232\007G\177IQD\012O\230\004\001\245"
 858      C2319A07 
 858      477F4951 
 858      440A4F98 
 858      0401A5
 859 1843 24404EBD 		.ascii	"$@N\275%\240\242\242\2272#\245\222&\002\371Q\344\010"
 859      25A0A2A2 
 859      973223A5 
 859      922602F9 
 859      51E408
 860 1856 17C259AE 		.ascii	"\027\302Y\256\245>\244PLB\032AG\032\314\202\234\227"
 860      A53EA450 
 860      4C421A41 
 860      471ACC82 
 860      9C97
 861 1868 200B25C5 		.ascii	" \013%\305i\304\012#x\345,\267?\3115\"\020\013I\245"
ARM GAS  /tmp/ccP1FTzj.s 			page 69


 861      69C40A23 
 861      78E52CB7 
 861      3FC93522 
 861      100B49A5 
 862 187c C5F42A97 		.ascii	"\305\364*\227\\\015Q~\013\275\032\012\202\006\207\025"
 862      5C0D517E 
 862      0BBD1A0A 
 862      82068715 
 863 188c 8B5169D8 		.ascii	"\213Qi\330\310,\346\366\020\245\220.\333\250,\346vf"
 863      C82CE6F6 
 863      10A5902E 
 863      DBA82CE6 
 863      7666
 864 189e 307FECF3 		.ascii	"0\177\354\363\277\014I\343@\014\020\016_>;\376\017\241"
 864      BF0C49E3 
 864      400C100E 
 864      5F3E3BFE 
 864      0FA1
 865 18b0 A034B628 		.ascii	"\2404\266(\214.\237}\376\271R\315\257\317j~\365\241"
 865      8C2E9F7D 
 865      FEB952CD 
 865      AFCF6A7E 
 865      F5A1
 866 18c2 CCF0EBD8 		.ascii	"\314\360\353\330GlK\017\326\360\004~\016\006\315\010"
 866      476C4B0F 
 866      D6F0047E 
 866      0E06CD08 
 867 18d2 A0CB8018 		.ascii	"\240\313\200\030\213\205\242R\026>\017\025\206\301+"
 867      8B85A252 
 867      163E0F15 
 867      86C12B
 868 18e1 232F858A 		.ascii	"#/\205\212\006k\177\004\251\201sQ0\224\205\252{\001"
 868      066B7F04 
 868      A9817351 
 868      309485AA 
 868      7B01
 869 18f3 D443D9F4 		.ascii	"\324C\331\364#\327\240\224\261\2179rG\352\3648\\N(-"
 869      23D7A094 
 869      B18F3972 
 869      47EAF438 
 869      5C4E282D 
 870 1907 0A06A481 		.ascii	"\012\006\244\201\301\374q\371yO\301m)\364\033h\217\341"
 870      C1FC71F9 
 870      794FC16D 
 870      29F41B68 
 870      8FE1
 871 1919 E040CC00 		.ascii	"\340@\314\000\371\234\322F|Hx\320\324\330\001\350\344"
 871      F99CD246 
 871      7C4878D0 
 871      D4D801E8 
 871      E4
 872 192a 77D1B014 		.ascii	"w\321\260\024J\020y\226\022\021\302%\375b\322KbAxb\021"
 872      4A107996 
 872      1211C225 
 872      FD62D24B 
 872      62417862 
 873 193f B80F6AE5 		.ascii	"\270\017j\345\217\216\012H4V\242Sa\334pa\334\010a\\"
ARM GAS  /tmp/ccP1FTzj.s 			page 70


 873      8F8E0A48 
 873      3456A253 
 873      61DC7061 
 873      DC08615C 
 874 1953 AE306EA4 		.ascii	"\2560n\2440nT\006\256\207xcLxE\364\222S7\272-DJ\322"
 874      306E5406 
 874      AE877863 
 874      4C7845F4 
 874      925337BA 
 875 196b A18D2227 		.ascii	"\241\215\"'\013\025\222\316\203\234g B\223h3\356\017"
 875      0B1592CE 
 875      839C6720 
 875      42936833 
 875      EE0F
 876 197d B713D769 		.ascii	"\267\023\327iQ\342\234\336(\016\311\236(\016NQ\032\234"
 876      51E29CDE 
 876      280EC99E 
 876      280E4E51 
 876      1A9C
 877 198f A22438F9 		.ascii	"\242$8\371\341ni4\0121\302\023E\205\006\277\034\216"
 877      E16E6934 
 877      0A31C213 
 877      458506BF 
 877      1C8E
 878 19a1 4AA56241 		.ascii	"J\245bA\0009sT\211\017C\000\330\340\207,\335=\322E\352"
 878      00397354 
 878      890F4300 
 878      D8E0872C 
 878      DD3DD245 
 879 19b6 6EA5BD2C 		.ascii	"n\245\275,\341\006\215\216\250s\363\3011/T \211pB\324"
 879      E1068D8E 
 879      A873F3C1 
 879      312F5420 
 879      897042D4 
 880 19ca 8D7E4167 		.ascii	"\215~Ag^\224C\214\246\303\241@\214I\2504\334B\225dR"
 880      5E94438C 
 880      A6C3A140 
 880      8C49A834 
 880      DC429564 
 881 19df A1F342E3 		.ascii	"\241\363B\343K'\222P\245\275\343/\026\213\302A\024\231"
 881      4B279250 
 881      A5BDE32F 
 881      168BC241 
 881      1499
 882 19f1 5C79E327 		.ascii	"\\y\343'Z7\276$\353\243\356a\200T\030\010\202\225\306"
 882      5A37BE24 
 882      EBA3EE61 
 882      80541808 
 882      8295C6
 883 1a04 47C1D811 		.ascii	"G\301\330\0210UZT\012\026\201\320\336\310\204\011`H"
 883      30555A54 
 883      0A1681D0 
 883      DEC88409 
 883      6048
 884 1a16 412A1482 		.ascii	"A*\024\202\371i\212\351\2215\202b,\344F\341\334\203"
 884      F9698AE9 
 884      91358262 
ARM GAS  /tmp/ccP1FTzj.s 			page 71


 884      2CE446E1 
 884      DC83
 885 1a28 9B21DC13 		.ascii	"\233!\334\023\243y\020\310\322hK\352_,J\020[\212H\003"
 885      A37910C8 
 885      D2684BEA 
 885      5F2C4A10 
 885      5B8A4803 
 886 1a3c 4B4FB4F5 		.ascii	"KO\264\365\021\367\015\213F\362DI\034\246\2717\370y"
 886      11F70D8B 
 886      46F24449 
 886      1CA6B937 
 886      F879
 887 1a4e 7C7C241B 		.ascii	"||$\033\017i\262\311]NS*w\210\222\203\304\034%K\032"
 887      0F69B2C9 
 887      5D4E532A 
 887      77889283 
 887      C41C254B 
 888 1a63 6DB0AE70 		.ascii	"m\260\256pI1q[\270x\016L\015\0169\351\305\376\312\235"
 888      4931715B 
 888      B8780E4C 
 888      0D0E39E9 
 888      C5FECA9D 
 889 1a77 DF840A26 		.ascii	"\337\204\012&\274\230\216\362\216\215=]ZP06\0039\351"
 889      BC988EF2 
 889      8E8D3D5D 
 889      5A503036 
 889      0339E9
 890 1a8a D8D8BF14 		.ascii	"\330\330\277\024\026K\223\306\272\"%\305\031\324\237"
 890      164B93C6 
 890      BA2225C5 
 890      19D49F
 891 1a99 F1AF69B4 		.ascii	"\361\257i\264\241\363\343\377\017uJ\232\273"
 891      A1F3E3FF 
 891      0F754A9A 
 891      BB
 892              		.text
 893              		.section	.gnu.lto_.symtab.2a0a206d1169854,"",%progbits
 894 0000 70617474 		.ascii	"patternqueues\000\000\000\000\000\000\000\000\000\000"
 894      65726E71 
 894      75657565 
 894      73000000 
 894      00000000 
 895 0017 0000B402 		.ascii	"\000\000\264\002\000\000testqueues1\000\000\000\000"
 895      00007465 
 895      73747175 
 895      65756573 
 895      31000000 
 896 002c 00000000 		.ascii	"\000\000\000\000\000\000\000\000\312\002\000\000tes"
 896      00000000 
 896      CA020000 
 896      746573
 897 003b 74717565 		.ascii	"tqueues2\000\000\000\000\000\000\000\000\000\000\000"
 897      75657332 
 897      00000000 
 897      00000000 
 897      000000
 898 004e 00D60200 		.ascii	"\000\326\002\000\000wa\000\000\002\000\000\000\000\000"
ARM GAS  /tmp/ccP1FTzj.s 			page 72


 898      00776100 
 898      00020000 
 898      000000
 899 005d 00000000 		.ascii	"\000\000\000\000V\002\000\000ch\000\000\002\000\000"
 899      56020000 
 899      63680000 
 899      020000
 900 006c 00000000 		.ascii	"\000\000\000\000\000\000\000Z\002\000\000threads\000"
 900      0000005A 
 900      02000074 
 900      68726561 
 900      647300
 901 007f 00020000 		.ascii	"\000\002\000\000\000\000\000\000\000\000\000\261\002"
 901      00000000 
 901      000000B1 
 901      02
 902 008c 00007465 		.ascii	"\000\000test\000\000\002\000\000\000\000\000\000\000"
 902      73740000 
 902      02000000 
 902      00000000 
 903 009c 00002C02 		.ascii	"\000\000,\002\000\000chIQGetTimeout\000\000\002\000"
 903      00006368 
 903      49514765 
 903      7454696D 
 903      656F7574 
 904 00b4 00000000 		.ascii	"\000\000\000\000\000\000\000\000\260\001\000\000chI"
 904      00000000 
 904      B0010000 
 904      636849
 905 00c3 514F626A 		.ascii	"QObjectInit\000\000\002\000\000\000\000\000\000\000"
 905      65637449 
 905      6E697400 
 905      00020000 
 905      00000000 
 906 00d8 0000B501 		.ascii	"\000\000\265\001\000\000chOQPutTimeout\000\000\002\000"
 906      00006368 
 906      4F515075 
 906      7454696D 
 906      656F7574 
 907 00f0 00000000 		.ascii	"\000\000\000\000\000\000\000\000\275\001\000\000chO"
 907      00000000 
 907      BD010000 
 907      63684F
 908 00ff 514F626A 		.ascii	"QObjectInit\000\000\002\000\000\000\000\000\000\000"
 908      65637449 
 908      6E697400 
 908      00020000 
 908      00000000 
 909 0114 0000C301 		.ascii	"\000\000\303\001\000\000chIQPutI\000\000\002\000\000"
 909      00006368 
 909      49515075 
 909      74490000 
 909      020000
 910 0127 00000000 		.ascii	"\000\000\000\000\000\000\000\313\001\000\000_test_a"
 910      000000CB 
 910      0100005F 
 910      74657374 
ARM GAS  /tmp/ccP1FTzj.s 			page 73


 910      5F61
 911 0139 73736572 		.ascii	"ssert\000\000\002\000\000\000\000\000\000\000\000\000"
 911      74000002 
 911      00000000 
 911      00000000 
 911      00
 912 014a D0010000 		.ascii	"\320\001\000\000test_emit_token\000\000\002\000\000"
 912      74657374 
 912      5F656D69 
 912      745F746F 
 912      6B656E00 
 913 0162 00000000 		.ascii	"\000\000\000\000\000\000\000\330\001\000\000_test_a"
 913      000000D8 
 913      0100005F 
 913      74657374 
 913      5F61
 914 0174 73736572 		.ascii	"ssert_sequence\000\000\002\000\000\000\000\000\000\000"
 914      745F7365 
 914      7175656E 
 914      63650000 
 914      02000000 
 915 018c 0000DC01 		.ascii	"\000\000\334\001\000\000chIQReadTimeout\000\000\002"
 915      00006368 
 915      49515265 
 915      61645469 
 915      6D656F75 
 916 01a4 00000000 		.ascii	"\000\000\000\000\000\000\000\000\000\342\001\000\000"
 916      00000000 
 916      00E20100 
 916      00
 917 01b1 63684951 		.ascii	"chIQResetI\000\000\002\000\000\000\000\000\000\000\000"
 917      52657365 
 917      74490000 
 917      02000000 
 917      00000000 
 918 01c6 00E90100 		.ascii	"\000\351\001\000\000chThdCreateStatic\000\000\002\000"
 918      00636854 
 918      68644372 
 918      65617465 
 918      53746174 
 919 01e0 00000000 		.ascii	"\000\000\000\000\000\000\000\000\355\001\000\000tes"
 919      00000000 
 919      ED010000 
 919      746573
 920 01ef 745F7761 		.ascii	"t_wait_threads\000\000\002\000\000\000\000\000\000\000"
 920      69745F74 
 920      68726561 
 920      64730000 
 920      02000000 
 921 0207 0000F801 		.ascii	"\000\000\370\001\000\000chOQGetI\000\000\002\000\000"
 921      00006368 
 921      4F514765 
 921      74490000 
 921      020000
 922 021a 00000000 		.ascii	"\000\000\000\000\000\000\000\372\001\000\000chOQWri"
 922      000000FA 
 922      01000063 
ARM GAS  /tmp/ccP1FTzj.s 			page 74


 922      684F5157 
 922      7269
 923 022c 74655469 		.ascii	"teTimeout\000\000\002\000\000\000\000\000\000\000\000"
 923      6D656F75 
 923      74000002 
 923      00000000 
 923      00000000 
 924 0240 00FE0100 		.ascii	"\000\376\001\000\000chOQResetI\000\000\002\000\000\000"
 924      0063684F 
 924      51526573 
 924      65744900 
 924      00020000 
 925 0255 00000000 		.ascii	"\000\000\000\000\000\000\007\002\000\000"
 925      00000702 
 925      0000
 926              		.text
 927              		.section	.gnu.lto_.opts,"",%progbits
 928 0000 272D6D63 		.ascii	"'-mcpu=cortex-m4' '-mfloat-abi=hard' '-mfpu=fpv4-sp"
 928      70753D63 
 928      6F727465 
 928      782D6D34 
 928      2720272D 
 929 0033 2D643136 		.ascii	"-d16' '-mno-thumb-interwork' '-mthumb' '-O2' '-fomi"
 929      2720272D 
 929      6D6E6F2D 
 929      7468756D 
 929      622D696E 
 930 0066 742D6672 		.ascii	"t-frame-pointer' '-falign-functions=16' '-ffunction"
 930      616D652D 
 930      706F696E 
 930      74657227 
 930      20272D66 
 931 0099 2D736563 		.ascii	"-sections' '-fdata-sections' '-fno-common' '-flto' "
 931      74696F6E 
 931      73272027 
 931      2D666461 
 931      74612D73 
 932 00cc 272D6673 		.ascii	"'-fsingle-precision-constant'\000"
 932      696E676C 
 932      652D7072 
 932      65636973 
 932      696F6E2D 
 933              		.text
 934              		.section	.text.notify,"ax",%progbits
 935              		.align	2
 936              		.p2align 4,,15
 937              		.thumb
 938              		.thumb_func
 939              		.type	notify, %function
 940              	notify:
 941              		@ args = 0, pretend = 0, frame = 0
 942              		@ frame_needed = 0, uses_anonymous_args = 0
 943              		@ link register save eliminated.
 944 0000 7047     		bx	lr
 945              		.size	notify, .-notify
 946 0002 00BFAFF3 		.section	.text.thread1,"ax",%progbits
 946      0080AFF3 
ARM GAS  /tmp/ccP1FTzj.s 			page 75


 946      0080AFF3 
 946      0080
 947              		.align	2
 948              		.p2align 4,,15
 949              		.thumb
 950              		.thumb_func
 951              		.type	thread1, %function
 952              	thread1:
 953              		@ args = 0, pretend = 0, frame = 0
 954              		@ frame_needed = 0, uses_anonymous_args = 0
 955 0000 08B5     		push	{r3, lr}
 956 0002 4FF4FA61 		mov	r1, #2000
 957 0006 0248     		ldr	r0, .L3
 958 0008 FFF7FEFF 		bl	chIQGetTimeout
 959 000c 0020     		movs	r0, #0
 960 000e 08BD     		pop	{r3, pc}
 961              	.L4:
 962              		.align	2
 963              	.L3:
 964 0010 00000000 		.word	.LANCHOR0
 965              		.size	thread1, .-thread1
 966 0014 AFF30080 		.section	.text.queues1_setup,"ax",%progbits
 966      AFF30080 
 966      AFF30080 
 967              		.align	2
 968              		.p2align 4,,15
 969              		.thumb
 970              		.thumb_func
 971              		.type	queues1_setup, %function
 972              	queues1_setup:
 973              		@ args = 0, pretend = 0, frame = 0
 974              		@ frame_needed = 0, uses_anonymous_args = 0
 975 0000 00B5     		push	{lr}
 976 0002 064B     		ldr	r3, .L6
 977 0004 0648     		ldr	r0, .L6+4
 978 0006 1968     		ldr	r1, [r3]
 979 0008 064B     		ldr	r3, .L6+8
 980 000a 83B0     		sub	sp, sp, #12
 981 000c 0022     		movs	r2, #0
 982 000e 0092     		str	r2, [sp]
 983 0010 0422     		movs	r2, #4
 984 0012 FFF7FEFF 		bl	chIQObjectInit
 985 0016 03B0     		add	sp, sp, #12
 986              		@ sp needed
 987 0018 5DF804FB 		ldr	pc, [sp], #4
 988              	.L7:
 989              		.align	2
 990              	.L6:
 991 001c 00000000 		.word	wa
 992 0020 00000000 		.word	.LANCHOR0
 993 0024 00000000 		.word	notify
 994              		.size	queues1_setup, .-queues1_setup
 995 0028 AFF30080 		.section	.text.thread2,"ax",%progbits
 995      AFF30080 
 996              		.align	2
 997              		.p2align 4,,15
 998              		.thumb
ARM GAS  /tmp/ccP1FTzj.s 			page 76


 999              		.thumb_func
 1000              		.type	thread2, %function
 1001              	thread2:
 1002              		@ args = 0, pretend = 0, frame = 0
 1003              		@ frame_needed = 0, uses_anonymous_args = 0
 1004 0000 08B5     		push	{r3, lr}
 1005 0002 0021     		movs	r1, #0
 1006 0004 4FF4FA62 		mov	r2, #2000
 1007 0008 0248     		ldr	r0, .L9
 1008 000a FFF7FEFF 		bl	chOQPutTimeout
 1009 000e 0020     		movs	r0, #0
 1010 0010 08BD     		pop	{r3, pc}
 1011              	.L10:
 1012 0012 00BF     		.align	2
 1013              	.L9:
 1014 0014 00000000 		.word	.LANCHOR1
 1015              		.size	thread2, .-thread2
 1016 0018 AFF30080 		.section	.text.queues2_setup,"ax",%progbits
 1016      AFF30080 
 1017              		.align	2
 1018              		.p2align 4,,15
 1019              		.thumb
 1020              		.thumb_func
 1021              		.type	queues2_setup, %function
 1022              	queues2_setup:
 1023              		@ args = 0, pretend = 0, frame = 0
 1024              		@ frame_needed = 0, uses_anonymous_args = 0
 1025 0000 00B5     		push	{lr}
 1026 0002 064B     		ldr	r3, .L12
 1027 0004 0648     		ldr	r0, .L12+4
 1028 0006 1968     		ldr	r1, [r3]
 1029 0008 064B     		ldr	r3, .L12+8
 1030 000a 83B0     		sub	sp, sp, #12
 1031 000c 0022     		movs	r2, #0
 1032 000e 0092     		str	r2, [sp]
 1033 0010 0422     		movs	r2, #4
 1034 0012 FFF7FEFF 		bl	chOQObjectInit
 1035 0016 03B0     		add	sp, sp, #12
 1036              		@ sp needed
 1037 0018 5DF804FB 		ldr	pc, [sp], #4
 1038              	.L13:
 1039              		.align	2
 1040              	.L12:
 1041 001c 00000000 		.word	wa
 1042 0020 00000000 		.word	.LANCHOR1
 1043 0024 00000000 		.word	notify
 1044              		.size	queues2_setup, .-queues2_setup
 1045 0028 AFF30080 		.section	.text.queues1_execute,"ax",%progbits
 1045      AFF30080 
 1046              		.align	2
 1047              		.p2align 4,,15
 1048              		.thumb
 1049              		.thumb_func
 1050              		.type	queues1_execute, %function
 1051              	queues1_execute:
 1052              		@ args = 0, pretend = 0, frame = 0
 1053              		@ frame_needed = 0, uses_anonymous_args = 0
ARM GAS  /tmp/ccP1FTzj.s 			page 77


 1054 0000 2DE9F041 		push	{r4, r5, r6, r7, r8, lr}
 1055 0004 2024     		movs	r4, #32
 1056 0006 82B0     		sub	sp, sp, #8
 1057              	@ 546 "/home/cody/dev/chibios/trunk/os/ext/CMSIS/include/core_cmFunc.h" 1
 1058 0008 84F31188 		MSR basepri, r4
 1059              	@ 0 "" 2
 1060              		.thumb
 1061 000c 924B     		ldr	r3, .L40
 1062 000e 9968     		ldr	r1, [r3, #8]
 1063 0010 D1F10101 		rsbs	r1, r1, #1
 1064 0014 4FF00100 		mov	r0, #1
 1065 0018 38BF     		it	cc
 1066 001a 0021     		movcc	r1, #0
 1067 001c FFF7FEFF 		bl	_test_assert
 1068 0020 0646     		mov	r6, r0
 1069 0022 E8B9     		cbnz	r0, .L36
 1070              	@ 546 "/home/cody/dev/chibios/trunk/os/ext/CMSIS/include/core_cmFunc.h" 1
 1071 0024 80F31188 		MSR basepri, r0
 1072              	@ 0 "" 2
 1073              	@ 546 "/home/cody/dev/chibios/trunk/os/ext/CMSIS/include/core_cmFunc.h" 1
 1074 0028 84F31188 		MSR basepri, r4
 1075              	@ 0 "" 2
 1076              		.thumb
 1077 002c 4124     		movs	r4, #65
 1078              	.L18:
 1079 002e 8A4D     		ldr	r5, .L40
 1080 0030 2146     		mov	r1, r4
 1081 0032 0134     		adds	r4, r4, #1
 1082 0034 2846     		mov	r0, r5
 1083 0036 E4B2     		uxtb	r4, r4
 1084 0038 FFF7FEFF 		bl	chIQPutI
 1085 003c 452C     		cmp	r4, #69
 1086 003e F6D1     		bne	.L18
 1087 0040 0023     		movs	r3, #0
 1088              	@ 546 "/home/cody/dev/chibios/trunk/os/ext/CMSIS/include/core_cmFunc.h" 1
 1089 0042 83F31188 		MSR basepri, r3
 1090              	@ 0 "" 2
 1091              		.thumb
 1092 0046 2023     		movs	r3, #32
 1093              	@ 546 "/home/cody/dev/chibios/trunk/os/ext/CMSIS/include/core_cmFunc.h" 1
 1094 0048 83F31188 		MSR basepri, r3
 1095              	@ 0 "" 2
 1096              		.thumb
 1097 004c 6A69     		ldr	r2, [r5, #20]
 1098 004e AB69     		ldr	r3, [r5, #24]
 1099 0050 9A42     		cmp	r2, r3
 1100 0052 3BD0     		beq	.L39
 1101              	.L19:
 1102 0054 3146     		mov	r1, r6
 1103 0056 0220     		movs	r0, #2
 1104 0058 FFF7FEFF 		bl	_test_assert
 1105 005c 0446     		mov	r4, r0
 1106 005e 28B1     		cbz	r0, .L20
 1107              	.L36:
 1108 0060 0023     		movs	r3, #0
 1109              	@ 546 "/home/cody/dev/chibios/trunk/os/ext/CMSIS/include/core_cmFunc.h" 1
 1110 0062 83F31188 		MSR basepri, r3
ARM GAS  /tmp/ccP1FTzj.s 			page 78


 1111              	@ 0 "" 2
 1112              		.thumb
 1113              	.L14:
 1114 0066 02B0     		add	sp, sp, #8
 1115              		@ sp needed
 1116 0068 BDE8F081 		pop	{r4, r5, r6, r7, r8, pc}
 1117              	.L20:
 1118              	@ 546 "/home/cody/dev/chibios/trunk/os/ext/CMSIS/include/core_cmFunc.h" 1
 1119 006c 80F31188 		MSR basepri, r0
 1120              	@ 0 "" 2
 1121              		.thumb
 1122 0070 2023     		movs	r3, #32
 1123              	@ 546 "/home/cody/dev/chibios/trunk/os/ext/CMSIS/include/core_cmFunc.h" 1
 1124 0072 83F31188 		MSR basepri, r3
 1125              	@ 0 "" 2
 1126              		.thumb
 1127 0076 7848     		ldr	r0, .L40
 1128 0078 2146     		mov	r1, r4
 1129 007a FFF7FEFF 		bl	chIQPutI
 1130 007e 0430     		adds	r0, r0, #4
 1131 0080 14BF     		ite	ne
 1132 0082 0021     		movne	r1, #0
 1133 0084 0121     		moveq	r1, #1
 1134 0086 0320     		movs	r0, #3
 1135 0088 FFF7FEFF 		bl	_test_assert
 1136 008c C8B9     		cbnz	r0, .L37
 1137              	@ 546 "/home/cody/dev/chibios/trunk/os/ext/CMSIS/include/core_cmFunc.h" 1
 1138 008e 80F31188 		MSR basepri, r0
 1139              	@ 0 "" 2
 1140              		.thumb
 1141 0092 0424     		movs	r4, #4
 1142              	.L23:
 1143 0094 704D     		ldr	r5, .L40
 1144 0096 4FF0FF31 		mov	r1, #-1
 1145 009a 2846     		mov	r0, r5
 1146 009c FFF7FEFF 		bl	chIQGetTimeout
 1147 00a0 C0B2     		uxtb	r0, r0
 1148 00a2 FFF7FEFF 		bl	test_emit_token
 1149 00a6 013C     		subs	r4, r4, #1
 1150 00a8 F4D1     		bne	.L23
 1151 00aa 2026     		movs	r6, #32
 1152              	@ 546 "/home/cody/dev/chibios/trunk/os/ext/CMSIS/include/core_cmFunc.h" 1
 1153 00ac 86F31188 		MSR basepri, r6
 1154              	@ 0 "" 2
 1155              		.thumb
 1156 00b0 A968     		ldr	r1, [r5, #8]
 1157 00b2 D1F10101 		rsbs	r1, r1, #1
 1158 00b6 38BF     		it	cc
 1159 00b8 0021     		movcc	r1, #0
 1160 00ba 0420     		movs	r0, #4
 1161 00bc FFF7FEFF 		bl	_test_assert
 1162 00c0 48B1     		cbz	r0, .L24
 1163              	.L37:
 1164              	@ 546 "/home/cody/dev/chibios/trunk/os/ext/CMSIS/include/core_cmFunc.h" 1
 1165 00c2 84F31188 		MSR basepri, r4
 1166              	@ 0 "" 2
 1167              		.thumb
ARM GAS  /tmp/ccP1FTzj.s 			page 79


 1168 00c6 02B0     		add	sp, sp, #8
 1169              		@ sp needed
 1170 00c8 BDE8F081 		pop	{r4, r5, r6, r7, r8, pc}
 1171              	.L39:
 1172 00cc AE68     		ldr	r6, [r5, #8]
 1173 00ce 0036     		adds	r6, r6, #0
 1174 00d0 18BF     		it	ne
 1175 00d2 0126     		movne	r6, #1
 1176 00d4 BEE7     		b	.L19
 1177              	.L24:
 1178              	@ 546 "/home/cody/dev/chibios/trunk/os/ext/CMSIS/include/core_cmFunc.h" 1
 1179 00d6 84F31188 		MSR basepri, r4
 1180              	@ 0 "" 2
 1181              		.thumb
 1182 00da 0520     		movs	r0, #5
 1183 00dc 5F49     		ldr	r1, .L40+4
 1184 00de FFF7FEFF 		bl	_test_assert_sequence
 1185 00e2 0028     		cmp	r0, #0
 1186 00e4 BFD1     		bne	.L14
 1187              	@ 546 "/home/cody/dev/chibios/trunk/os/ext/CMSIS/include/core_cmFunc.h" 1
 1188 00e6 86F31188 		MSR basepri, r6
 1189              	@ 0 "" 2
 1190              		.thumb
 1191 00ea 4124     		movs	r4, #65
 1192              	.L27:
 1193 00ec 5A4D     		ldr	r5, .L40
 1194 00ee 2146     		mov	r1, r4
 1195 00f0 0134     		adds	r4, r4, #1
 1196 00f2 2846     		mov	r0, r5
 1197 00f4 E4B2     		uxtb	r4, r4
 1198 00f6 FFF7FEFF 		bl	chIQPutI
 1199 00fa 452C     		cmp	r4, #69
 1200 00fc F6D1     		bne	.L27
 1201 00fe 0023     		movs	r3, #0
 1202              	@ 546 "/home/cody/dev/chibios/trunk/os/ext/CMSIS/include/core_cmFunc.h" 1
 1203 0100 83F31188 		MSR basepri, r3
 1204              	@ 0 "" 2
 1205              		.thumb
 1206 0104 564E     		ldr	r6, .L40+8
 1207 0106 0822     		movs	r2, #8
 1208 0108 7168     		ldr	r1, [r6, #4]
 1209 010a 2846     		mov	r0, r5
 1210 010c FFF7FEFF 		bl	chIQReadTimeout
 1211 0110 041F     		subs	r4, r0, #4
 1212 0112 6142     		rsbs	r1, r4, #0
 1213 0114 6141     		adcs	r1, r1, r4
 1214 0116 0620     		movs	r0, #6
 1215 0118 FFF7FEFF 		bl	_test_assert
 1216 011c 0446     		mov	r4, r0
 1217 011e 0028     		cmp	r0, #0
 1218 0120 A1D1     		bne	.L14
 1219 0122 2027     		movs	r7, #32
 1220              	@ 546 "/home/cody/dev/chibios/trunk/os/ext/CMSIS/include/core_cmFunc.h" 1
 1221 0124 87F31188 		MSR basepri, r7
 1222              	@ 0 "" 2
 1223              		.thumb
 1224 0128 A968     		ldr	r1, [r5, #8]
ARM GAS  /tmp/ccP1FTzj.s 			page 80


 1225 012a D1F10101 		rsbs	r1, r1, #1
 1226 012e 38BF     		it	cc
 1227 0130 0021     		movcc	r1, #0
 1228 0132 0720     		movs	r0, #7
 1229 0134 FFF7FEFF 		bl	_test_assert
 1230 0138 0028     		cmp	r0, #0
 1231 013a C2D1     		bne	.L37
 1232              	@ 546 "/home/cody/dev/chibios/trunk/os/ext/CMSIS/include/core_cmFunc.h" 1
 1233 013c 80F31188 		MSR basepri, r0
 1234              	@ 0 "" 2
 1235              	@ 546 "/home/cody/dev/chibios/trunk/os/ext/CMSIS/include/core_cmFunc.h" 1
 1236 0140 87F31188 		MSR basepri, r7
 1237              	@ 0 "" 2
 1238              		.thumb
 1239 0144 4124     		movs	r4, #65
 1240              	.L31:
 1241 0146 444D     		ldr	r5, .L40
 1242 0148 2146     		mov	r1, r4
 1243 014a 0134     		adds	r4, r4, #1
 1244 014c 2846     		mov	r0, r5
 1245 014e E4B2     		uxtb	r4, r4
 1246 0150 FFF7FEFF 		bl	chIQPutI
 1247 0154 452C     		cmp	r4, #69
 1248 0156 F6D1     		bne	.L31
 1249 0158 0023     		movs	r3, #0
 1250              	@ 546 "/home/cody/dev/chibios/trunk/os/ext/CMSIS/include/core_cmFunc.h" 1
 1251 015a 83F31188 		MSR basepri, r3
 1252              	@ 0 "" 2
 1253              		.thumb
 1254 015e 7468     		ldr	r4, [r6, #4]
 1255 0160 DFF8FC80 		ldr	r8, .L40+8
 1256 0164 2146     		mov	r1, r4
 1257 0166 2846     		mov	r0, r5
 1258 0168 0222     		movs	r2, #2
 1259 016a FFF7FEFF 		bl	chIQReadTimeout
 1260 016e 0238     		subs	r0, r0, #2
 1261 0170 4142     		rsbs	r1, r0, #0
 1262 0172 4141     		adcs	r1, r1, r0
 1263 0174 0820     		movs	r0, #8
 1264 0176 FFF7FEFF 		bl	_test_assert
 1265 017a 0028     		cmp	r0, #0
 1266 017c 7FF473AF 		bne	.L14
 1267 0180 0346     		mov	r3, r0
 1268 0182 2146     		mov	r1, r4
 1269 0184 0222     		movs	r2, #2
 1270 0186 2846     		mov	r0, r5
 1271 0188 FFF7FEFF 		bl	chIQReadTimeout
 1272 018c 821E     		subs	r2, r0, #2
 1273 018e 5142     		rsbs	r1, r2, #0
 1274 0190 5141     		adcs	r1, r1, r2
 1275 0192 0920     		movs	r0, #9
 1276 0194 FFF7FEFF 		bl	_test_assert
 1277 0198 0746     		mov	r7, r0
 1278 019a 0028     		cmp	r0, #0
 1279 019c 7FF463AF 		bne	.L14
 1280 01a0 2026     		movs	r6, #32
 1281              	@ 546 "/home/cody/dev/chibios/trunk/os/ext/CMSIS/include/core_cmFunc.h" 1
ARM GAS  /tmp/ccP1FTzj.s 			page 81


 1282 01a2 86F31188 		MSR basepri, r6
 1283              	@ 0 "" 2
 1284              		.thumb
 1285 01a6 A968     		ldr	r1, [r5, #8]
 1286 01a8 D1F10101 		rsbs	r1, r1, #1
 1287 01ac 4FF00A00 		mov	r0, #10
 1288 01b0 38BF     		it	cc
 1289 01b2 0021     		movcc	r1, #0
 1290 01b4 FFF7FEFF 		bl	_test_assert
 1291 01b8 0446     		mov	r4, r0
 1292 01ba 10B1     		cbz	r0, .L32
 1293              	.L35:
 1294              	@ 546 "/home/cody/dev/chibios/trunk/os/ext/CMSIS/include/core_cmFunc.h" 1
 1295 01bc 87F31188 		MSR basepri, r7
 1296              	@ 0 "" 2
 1297              		.thumb
 1298 01c0 51E7     		b	.L14
 1299              	.L32:
 1300              	@ 546 "/home/cody/dev/chibios/trunk/os/ext/CMSIS/include/core_cmFunc.h" 1
 1301 01c2 80F31188 		MSR basepri, r0
 1302              	@ 0 "" 2
 1303              	@ 546 "/home/cody/dev/chibios/trunk/os/ext/CMSIS/include/core_cmFunc.h" 1
 1304 01c6 86F31188 		MSR basepri, r6
 1305              	@ 0 "" 2
 1306              		.thumb
 1307 01ca 2146     		mov	r1, r4
 1308 01cc 2846     		mov	r0, r5
 1309 01ce FFF7FEFF 		bl	chIQPutI
 1310 01d2 2846     		mov	r0, r5
 1311 01d4 FFF7FEFF 		bl	chIQResetI
 1312              	@ 546 "/home/cody/dev/chibios/trunk/os/ext/CMSIS/include/core_cmFunc.h" 1
 1313 01d8 84F31188 		MSR basepri, r4
 1314              	@ 0 "" 2
 1315              	@ 546 "/home/cody/dev/chibios/trunk/os/ext/CMSIS/include/core_cmFunc.h" 1
 1316 01dc 86F31188 		MSR basepri, r6
 1317              	@ 0 "" 2
 1318              		.thumb
 1319 01e0 A968     		ldr	r1, [r5, #8]
 1320 01e2 D1F10101 		rsbs	r1, r1, #1
 1321 01e6 4FF00B00 		mov	r0, #11
 1322 01ea 38BF     		it	cc
 1323 01ec 0021     		movcc	r1, #0
 1324 01ee FFF7FEFF 		bl	_test_assert
 1325 01f2 0746     		mov	r7, r0
 1326 01f4 0028     		cmp	r0, #0
 1327 01f6 7FF464AF 		bne	.L37
 1328              	@ 546 "/home/cody/dev/chibios/trunk/os/ext/CMSIS/include/core_cmFunc.h" 1
 1329 01fa 80F31188 		MSR basepri, r0
 1330              	@ 0 "" 2
 1331              		.thumb
 1332 01fe 194B     		ldr	r3, .L40+12
 1333 0200 D8F80000 		ldr	r0, [r8]
 1334 0204 9A69     		ldr	r2, [r3, #24]
 1335 0206 184B     		ldr	r3, .L40+16
 1336 0208 9268     		ldr	r2, [r2, #8]
 1337 020a 0097     		str	r7, [sp]
 1338 020c 0132     		adds	r2, r2, #1
ARM GAS  /tmp/ccP1FTzj.s 			page 82


 1339 020e 4FF4E871 		mov	r1, #464
 1340 0212 FFF7FEFF 		bl	chThdCreateStatic
 1341 0216 154B     		ldr	r3, .L40+20
 1342 0218 1860     		str	r0, [r3]
 1343              	@ 546 "/home/cody/dev/chibios/trunk/os/ext/CMSIS/include/core_cmFunc.h" 1
 1344 021a 86F31188 		MSR basepri, r6
 1345              	@ 0 "" 2
 1346              		.thumb
 1347 021e A968     		ldr	r1, [r5, #8]
 1348 0220 D1F10101 		rsbs	r1, r1, #1
 1349 0224 38BF     		it	cc
 1350 0226 0021     		movcc	r1, #0
 1351 0228 0C20     		movs	r0, #12
 1352 022a FFF7FEFF 		bl	_test_assert
 1353 022e 0028     		cmp	r0, #0
 1354 0230 C4D1     		bne	.L35
 1355              	@ 546 "/home/cody/dev/chibios/trunk/os/ext/CMSIS/include/core_cmFunc.h" 1
 1356 0232 80F31188 		MSR basepri, r0
 1357              	@ 0 "" 2
 1358              		.thumb
 1359 0236 FFF7FEFF 		bl	test_wait_threads
 1360 023a 2846     		mov	r0, r5
 1361 023c 0A21     		movs	r1, #10
 1362 023e FFF7FEFF 		bl	chIQGetTimeout
 1363 0242 B0F1FF33 		subs	r3, r0, #-1
 1364 0246 5942     		rsbs	r1, r3, #0
 1365 0248 5941     		adcs	r1, r1, r3
 1366 024a 0D20     		movs	r0, #13
 1367 024c 02B0     		add	sp, sp, #8
 1368              		@ sp needed
 1369 024e BDE8F041 		pop	{r4, r5, r6, r7, r8, lr}
 1370 0252 FFF7FEBF 		b	_test_assert
 1371              	.L41:
 1372 0256 00BF     		.align	2
 1373              	.L40:
 1374 0258 00000000 		.word	.LANCHOR0
 1375 025c 00000000 		.word	.LC0
 1376 0260 00000000 		.word	wa
 1377 0264 00000000 		.word	ch
 1378 0268 00000000 		.word	thread1
 1379 026c 00000000 		.word	threads
 1380              		.size	queues1_execute, .-queues1_execute
 1381              		.section	.text.queues2_execute,"ax",%progbits
 1382              		.align	2
 1383              		.p2align 4,,15
 1384              		.thumb
 1385              		.thumb_func
 1386              		.type	queues2_execute, %function
 1387              	queues2_execute:
 1388              		@ args = 0, pretend = 0, frame = 0
 1389              		@ frame_needed = 0, uses_anonymous_args = 0
 1390 0000 2DE9F043 		push	{r4, r5, r6, r7, r8, r9, lr}
 1391 0004 2023     		movs	r3, #32
 1392 0006 83B0     		sub	sp, sp, #12
 1393              	@ 546 "/home/cody/dev/chibios/trunk/os/ext/CMSIS/include/core_cmFunc.h" 1
 1394 0008 83F31188 		MSR basepri, r3
 1395              	@ 0 "" 2
ARM GAS  /tmp/ccP1FTzj.s 			page 83


 1396              		.thumb
 1397 000c 8B4B     		ldr	r3, .L65
 1398 000e 5969     		ldr	r1, [r3, #20]
 1399 0010 9A69     		ldr	r2, [r3, #24]
 1400 0012 9142     		cmp	r1, r2
 1401 0014 60D0     		beq	.L63
 1402 0016 0021     		movs	r1, #0
 1403              	.L43:
 1404 0018 0120     		movs	r0, #1
 1405 001a FFF7FEFF 		bl	_test_assert
 1406 001e 0028     		cmp	r0, #0
 1407 0020 39D1     		bne	.L62
 1408              	@ 546 "/home/cody/dev/chibios/trunk/os/ext/CMSIS/include/core_cmFunc.h" 1
 1409 0022 80F31188 		MSR basepri, r0
 1410              	@ 0 "" 2
 1411              		.thumb
 1412 0026 4124     		movs	r4, #65
 1413              	.L47:
 1414 0028 844D     		ldr	r5, .L65
 1415 002a 2146     		mov	r1, r4
 1416 002c 0134     		adds	r4, r4, #1
 1417 002e 2846     		mov	r0, r5
 1418 0030 4FF0FF32 		mov	r2, #-1
 1419 0034 E4B2     		uxtb	r4, r4
 1420 0036 FFF7FEFF 		bl	chOQPutTimeout
 1421 003a 452C     		cmp	r4, #69
 1422 003c F4D1     		bne	.L47
 1423 003e 4FF02009 		mov	r9, #32
 1424              	@ 546 "/home/cody/dev/chibios/trunk/os/ext/CMSIS/include/core_cmFunc.h" 1
 1425 0042 89F31188 		MSR basepri, r9
 1426              	@ 0 "" 2
 1427              		.thumb
 1428 0046 A968     		ldr	r1, [r5, #8]
 1429 0048 D1F10101 		rsbs	r1, r1, #1
 1430 004c 4FF00200 		mov	r0, #2
 1431 0050 38BF     		it	cc
 1432 0052 0021     		movcc	r1, #0
 1433 0054 FFF7FEFF 		bl	_test_assert
 1434 0058 0646     		mov	r6, r0
 1435 005a E0B9     		cbnz	r0, .L62
 1436              	@ 546 "/home/cody/dev/chibios/trunk/os/ext/CMSIS/include/core_cmFunc.h" 1
 1437 005c 80F31188 		MSR basepri, r0
 1438              	@ 0 "" 2
 1439              		.thumb
 1440 0060 0424     		movs	r4, #4
 1441 0062 8046     		mov	r8, r0
 1442              	.L50:
 1443 0064 2027     		movs	r7, #32
 1444              	@ 546 "/home/cody/dev/chibios/trunk/os/ext/CMSIS/include/core_cmFunc.h" 1
 1445 0066 89F31188 		MSR basepri, r9
 1446              	@ 0 "" 2
 1447              		.thumb
 1448 006a 744D     		ldr	r5, .L65
 1449 006c 2846     		mov	r0, r5
 1450 006e FFF7FEFF 		bl	chOQGetI
 1451              	@ 546 "/home/cody/dev/chibios/trunk/os/ext/CMSIS/include/core_cmFunc.h" 1
 1452 0072 88F31188 		MSR basepri, r8
ARM GAS  /tmp/ccP1FTzj.s 			page 84


 1453              	@ 0 "" 2
 1454              		.thumb
 1455 0076 C0B2     		uxtb	r0, r0
 1456 0078 FFF7FEFF 		bl	test_emit_token
 1457 007c 013C     		subs	r4, r4, #1
 1458 007e F1D1     		bne	.L50
 1459              	@ 546 "/home/cody/dev/chibios/trunk/os/ext/CMSIS/include/core_cmFunc.h" 1
 1460 0080 87F31188 		MSR basepri, r7
 1461              	@ 0 "" 2
 1462              		.thumb
 1463 0084 6A69     		ldr	r2, [r5, #20]
 1464 0086 AB69     		ldr	r3, [r5, #24]
 1465 0088 9A42     		cmp	r2, r3
 1466 008a 2AD0     		beq	.L64
 1467              	.L51:
 1468 008c 3146     		mov	r1, r6
 1469 008e 0320     		movs	r0, #3
 1470 0090 FFF7FEFF 		bl	_test_assert
 1471 0094 28B1     		cbz	r0, .L52
 1472              	.L62:
 1473 0096 0023     		movs	r3, #0
 1474              	@ 546 "/home/cody/dev/chibios/trunk/os/ext/CMSIS/include/core_cmFunc.h" 1
 1475 0098 83F31188 		MSR basepri, r3
 1476              	@ 0 "" 2
 1477              		.thumb
 1478              	.L42:
 1479 009c 03B0     		add	sp, sp, #12
 1480              		@ sp needed
 1481 009e BDE8F083 		pop	{r4, r5, r6, r7, r8, r9, pc}
 1482              	.L52:
 1483              	@ 546 "/home/cody/dev/chibios/trunk/os/ext/CMSIS/include/core_cmFunc.h" 1
 1484 00a2 80F31188 		MSR basepri, r0
 1485              	@ 0 "" 2
 1486              		.thumb
 1487 00a6 0420     		movs	r0, #4
 1488 00a8 6549     		ldr	r1, .L65+4
 1489 00aa FFF7FEFF 		bl	_test_assert_sequence
 1490 00ae 0446     		mov	r4, r0
 1491 00b0 0028     		cmp	r0, #0
 1492 00b2 F3D1     		bne	.L42
 1493 00b4 2026     		movs	r6, #32
 1494              	@ 546 "/home/cody/dev/chibios/trunk/os/ext/CMSIS/include/core_cmFunc.h" 1
 1495 00b6 86F31188 		MSR basepri, r6
 1496              	@ 0 "" 2
 1497              		.thumb
 1498 00ba 604D     		ldr	r5, .L65
 1499 00bc 2846     		mov	r0, r5
 1500 00be FFF7FEFF 		bl	chOQGetI
 1501 00c2 0330     		adds	r0, r0, #3
 1502 00c4 14BF     		ite	ne
 1503 00c6 0021     		movne	r1, #0
 1504 00c8 0121     		moveq	r1, #1
 1505 00ca 0520     		movs	r0, #5
 1506 00cc FFF7FEFF 		bl	_test_assert
 1507 00d0 60B1     		cbz	r0, .L54
 1508              	@ 546 "/home/cody/dev/chibios/trunk/os/ext/CMSIS/include/core_cmFunc.h" 1
 1509 00d2 84F31188 		MSR basepri, r4
ARM GAS  /tmp/ccP1FTzj.s 			page 85


 1510              	@ 0 "" 2
 1511              		.thumb
 1512 00d6 E1E7     		b	.L42
 1513              	.L63:
 1514 00d8 9968     		ldr	r1, [r3, #8]
 1515 00da 0031     		adds	r1, r1, #0
 1516 00dc 18BF     		it	ne
 1517 00de 0121     		movne	r1, #1
 1518 00e0 9AE7     		b	.L43
 1519              	.L64:
 1520 00e2 AE68     		ldr	r6, [r5, #8]
 1521 00e4 0036     		adds	r6, r6, #0
 1522 00e6 18BF     		it	ne
 1523 00e8 0126     		movne	r6, #1
 1524 00ea CFE7     		b	.L51
 1525              	.L54:
 1526              	@ 546 "/home/cody/dev/chibios/trunk/os/ext/CMSIS/include/core_cmFunc.h" 1
 1527 00ec 80F31188 		MSR basepri, r0
 1528              	@ 0 "" 2
 1529              		.thumb
 1530 00f0 544F     		ldr	r7, .L65+8
 1531 00f2 7C68     		ldr	r4, [r7, #4]
 1532 00f4 0346     		mov	r3, r0
 1533 00f6 2146     		mov	r1, r4
 1534 00f8 0822     		movs	r2, #8
 1535 00fa 2846     		mov	r0, r5
 1536 00fc FFF7FEFF 		bl	chOQWriteTimeout
 1537 0100 B0F10408 		subs	r8, r0, #4
 1538 0104 D8F10001 		rsbs	r1, r8, #0
 1539 0108 51EB0801 		adcs	r1, r1, r8
 1540 010c 0620     		movs	r0, #6
 1541 010e FFF7FEFF 		bl	_test_assert
 1542 0112 8046     		mov	r8, r0
 1543 0114 0028     		cmp	r0, #0
 1544 0116 C1D1     		bne	.L42
 1545              	@ 546 "/home/cody/dev/chibios/trunk/os/ext/CMSIS/include/core_cmFunc.h" 1
 1546 0118 86F31188 		MSR basepri, r6
 1547              	@ 0 "" 2
 1548              		.thumb
 1549 011c A968     		ldr	r1, [r5, #8]
 1550 011e D1F10101 		rsbs	r1, r1, #1
 1551 0122 4FF00700 		mov	r0, #7
 1552 0126 38BF     		it	cc
 1553 0128 0021     		movcc	r1, #0
 1554 012a FFF7FEFF 		bl	_test_assert
 1555 012e 8146     		mov	r9, r0
 1556 0130 10B1     		cbz	r0, .L56
 1557              	@ 546 "/home/cody/dev/chibios/trunk/os/ext/CMSIS/include/core_cmFunc.h" 1
 1558 0132 88F31188 		MSR basepri, r8
 1559              	@ 0 "" 2
 1560              		.thumb
 1561 0136 B1E7     		b	.L42
 1562              	.L56:
 1563              	@ 546 "/home/cody/dev/chibios/trunk/os/ext/CMSIS/include/core_cmFunc.h" 1
 1564 0138 80F31188 		MSR basepri, r0
 1565              	@ 0 "" 2
 1566              		.thumb
ARM GAS  /tmp/ccP1FTzj.s 			page 86


 1567 013c 424B     		ldr	r3, .L65+12
 1568 013e 3868     		ldr	r0, [r7]
 1569 0140 9A69     		ldr	r2, [r3, #24]
 1570 0142 424B     		ldr	r3, .L65+16
 1571 0144 9268     		ldr	r2, [r2, #8]
 1572 0146 CDF80090 		str	r9, [sp]
 1573 014a 0132     		adds	r2, r2, #1
 1574 014c 4FF4E871 		mov	r1, #464
 1575 0150 FFF7FEFF 		bl	chThdCreateStatic
 1576 0154 3E4B     		ldr	r3, .L65+20
 1577 0156 1860     		str	r0, [r3]
 1578              	@ 546 "/home/cody/dev/chibios/trunk/os/ext/CMSIS/include/core_cmFunc.h" 1
 1579 0158 86F31188 		MSR basepri, r6
 1580              	@ 0 "" 2
 1581              		.thumb
 1582 015c 2969     		ldr	r1, [r5, #16]
 1583 015e EA68     		ldr	r2, [r5, #12]
 1584 0160 AB68     		ldr	r3, [r5, #8]
 1585 0162 8A1A     		subs	r2, r1, r2
 1586 0164 D11A     		subs	r1, r2, r3
 1587 0166 B1F1040C 		subs	ip, r1, #4
 1588 016a DCF10001 		rsbs	r1, ip, #0
 1589 016e 51EB0C01 		adcs	r1, r1, ip
 1590 0172 0820     		movs	r0, #8
 1591 0174 FFF7FEFF 		bl	_test_assert
 1592 0178 0746     		mov	r7, r0
 1593 017a 10B1     		cbz	r0, .L57
 1594              	@ 546 "/home/cody/dev/chibios/trunk/os/ext/CMSIS/include/core_cmFunc.h" 1
 1595 017c 89F31188 		MSR basepri, r9
 1596              	@ 0 "" 2
 1597              		.thumb
 1598 0180 8CE7     		b	.L42
 1599              	.L57:
 1600              	@ 546 "/home/cody/dev/chibios/trunk/os/ext/CMSIS/include/core_cmFunc.h" 1
 1601 0182 80F31188 		MSR basepri, r0
 1602              	@ 0 "" 2
 1603              		.thumb
 1604 0186 FFF7FEFF 		bl	test_wait_threads
 1605              	@ 546 "/home/cody/dev/chibios/trunk/os/ext/CMSIS/include/core_cmFunc.h" 1
 1606 018a 86F31188 		MSR basepri, r6
 1607              	@ 0 "" 2
 1608              		.thumb
 1609 018e 2846     		mov	r0, r5
 1610 0190 FFF7FEFF 		bl	chOQResetI
 1611              	@ 546 "/home/cody/dev/chibios/trunk/os/ext/CMSIS/include/core_cmFunc.h" 1
 1612 0194 87F31188 		MSR basepri, r7
 1613              	@ 0 "" 2
 1614              	@ 546 "/home/cody/dev/chibios/trunk/os/ext/CMSIS/include/core_cmFunc.h" 1
 1615 0198 86F31188 		MSR basepri, r6
 1616              	@ 0 "" 2
 1617              		.thumb
 1618 019c 2969     		ldr	r1, [r5, #16]
 1619 019e EA68     		ldr	r2, [r5, #12]
 1620 01a0 AB68     		ldr	r3, [r5, #8]
 1621 01a2 891A     		subs	r1, r1, r2
 1622 01a4 B1EB030E 		subs	lr, r1, r3
 1623 01a8 DEF10001 		rsbs	r1, lr, #0
ARM GAS  /tmp/ccP1FTzj.s 			page 87


 1624 01ac 51EB0E01 		adcs	r1, r1, lr
 1625 01b0 0920     		movs	r0, #9
 1626 01b2 FFF7FEFF 		bl	_test_assert
 1627 01b6 0346     		mov	r3, r0
 1628 01b8 10B1     		cbz	r0, .L58
 1629              	@ 546 "/home/cody/dev/chibios/trunk/os/ext/CMSIS/include/core_cmFunc.h" 1
 1630 01ba 87F31188 		MSR basepri, r7
 1631              	@ 0 "" 2
 1632              		.thumb
 1633 01be 6DE7     		b	.L42
 1634              	.L58:
 1635              	@ 546 "/home/cody/dev/chibios/trunk/os/ext/CMSIS/include/core_cmFunc.h" 1
 1636 01c0 80F31188 		MSR basepri, r0
 1637              	@ 0 "" 2
 1638              		.thumb
 1639 01c4 0222     		movs	r2, #2
 1640 01c6 2146     		mov	r1, r4
 1641 01c8 2846     		mov	r0, r5
 1642 01ca FFF7FEFF 		bl	chOQWriteTimeout
 1643 01ce 0238     		subs	r0, r0, #2
 1644 01d0 4142     		rsbs	r1, r0, #0
 1645 01d2 4141     		adcs	r1, r1, r0
 1646 01d4 0A20     		movs	r0, #10
 1647 01d6 FFF7FEFF 		bl	_test_assert
 1648 01da 0346     		mov	r3, r0
 1649 01dc 0028     		cmp	r0, #0
 1650 01de 7FF45DAF 		bne	.L42
 1651 01e2 2146     		mov	r1, r4
 1652 01e4 0222     		movs	r2, #2
 1653 01e6 2846     		mov	r0, r5
 1654 01e8 FFF7FEFF 		bl	chOQWriteTimeout
 1655 01ec 821E     		subs	r2, r0, #2
 1656 01ee 5142     		rsbs	r1, r2, #0
 1657 01f0 5141     		adcs	r1, r1, r2
 1658 01f2 0B20     		movs	r0, #11
 1659 01f4 FFF7FEFF 		bl	_test_assert
 1660 01f8 0028     		cmp	r0, #0
 1661 01fa 7FF44FAF 		bne	.L42
 1662              	@ 546 "/home/cody/dev/chibios/trunk/os/ext/CMSIS/include/core_cmFunc.h" 1
 1663 01fe 86F31188 		MSR basepri, r6
 1664              	@ 0 "" 2
 1665              		.thumb
 1666 0202 A968     		ldr	r1, [r5, #8]
 1667 0204 D1F10101 		rsbs	r1, r1, #1
 1668 0208 38BF     		it	cc
 1669 020a 0021     		movcc	r1, #0
 1670 020c 0C20     		movs	r0, #12
 1671 020e FFF7FEFF 		bl	_test_assert
 1672 0212 0028     		cmp	r0, #0
 1673 0214 7FF43FAF 		bne	.L62
 1674 0218 0021     		movs	r1, #0
 1675              	@ 546 "/home/cody/dev/chibios/trunk/os/ext/CMSIS/include/core_cmFunc.h" 1
 1676 021a 81F31188 		MSR basepri, r1
 1677              	@ 0 "" 2
 1678              		.thumb
 1679 021e 0A22     		movs	r2, #10
 1680 0220 0648     		ldr	r0, .L65
ARM GAS  /tmp/ccP1FTzj.s 			page 88


 1681 0222 FFF7FEFF 		bl	chOQPutTimeout
 1682 0226 B0F1FF33 		subs	r3, r0, #-1
 1683 022a 5942     		rsbs	r1, r3, #0
 1684 022c 5941     		adcs	r1, r1, r3
 1685 022e 0D20     		movs	r0, #13
 1686 0230 03B0     		add	sp, sp, #12
 1687              		@ sp needed
 1688 0232 BDE8F043 		pop	{r4, r5, r6, r7, r8, r9, lr}
 1689 0236 FFF7FEBF 		b	_test_assert
 1690              	.L66:
 1691 023a 00BF     		.align	2
 1692              	.L65:
 1693 023c 00000000 		.word	.LANCHOR1
 1694 0240 00000000 		.word	.LC0
 1695 0244 00000000 		.word	wa
 1696 0248 00000000 		.word	ch
 1697 024c 00000000 		.word	thread2
 1698 0250 00000000 		.word	threads
 1699              		.size	queues2_execute, .-queues2_execute
 1700              		.global	patternqueues
 1701              		.global	testqueues2
 1702              		.global	testqueues1
 1703 0254 AFF30080 		.section	.rodata.testqueues1,"a",%progbits
 1703      AFF30080 
 1703      AFF30080 
 1704              		.align	2
 1705              		.type	testqueues1, %object
 1706              		.size	testqueues1, 16
 1707              	testqueues1:
 1708 0000 20000000 		.word	.LC2
 1709 0004 00000000 		.word	queues1_setup
 1710 0008 00000000 		.word	0
 1711 000c 00000000 		.word	queues1_execute
 1712              		.section	.rodata.testqueues2,"a",%progbits
 1713              		.align	2
 1714              		.type	testqueues2, %object
 1715              		.size	testqueues2, 16
 1716              	testqueues2:
 1717 0000 08000000 		.word	.LC1
 1718 0004 00000000 		.word	queues2_setup
 1719 0008 00000000 		.word	0
 1720 000c 00000000 		.word	queues2_execute
 1721              		.section	.rodata.str1.4,"aMS",%progbits,1
 1722              		.align	2
 1723              	.LC0:
 1724 0000 41424344 		.ascii	"ABCD\000"
 1724      00
 1725 0005 000000   		.space	3
 1726              	.LC1:
 1727 0008 51756575 		.ascii	"Queues, output queues\000"
 1727      65732C20 
 1727      6F757470 
 1727      75742071 
 1727      75657565 
 1728 001e 0000     		.space	2
 1729              	.LC2:
 1730 0020 51756575 		.ascii	"Queues, input queues\000"
ARM GAS  /tmp/ccP1FTzj.s 			page 89


 1730      65732C20 
 1730      696E7075 
 1730      74207175 
 1730      65756573 
 1731 0035 000000   		.section	.rodata.patternqueues,"a",%progbits
 1732              		.align	2
 1733              		.type	patternqueues, %object
 1734              		.size	patternqueues, 12
 1735              	patternqueues:
 1736 0000 00000000 		.word	testqueues1
 1737 0004 00000000 		.word	testqueues2
 1738 0008 00000000 		.word	0
 1739              		.section	.data.oq,"aw",%progbits
 1740              		.align	2
 1741              		.set	.LANCHOR1,. + 0
 1742              		.type	oq, %object
 1743              		.size	oq, 36
 1744              	oq:
 1745 0000 00000000 		.word	oq
 1746 0004 00000000 		.word	oq
 1747 0008 04000000 		.word	4
 1748 000c D0010000 		.word	test+464
 1749 0010 D4010000 		.word	test+468
 1750 0014 D0010000 		.word	test+464
 1751 0018 D0010000 		.word	test+464
 1752 001c 00000000 		.word	notify
 1753 0020 00000000 		.word	0
 1754              		.section	.data.iq,"aw",%progbits
 1755              		.align	2
 1756              		.set	.LANCHOR0,. + 0
 1757              		.type	iq, %object
 1758              		.size	iq, 36
 1759              	iq:
 1760 0000 00000000 		.word	iq
 1761 0004 00000000 		.word	iq
 1762 0008 00000000 		.word	0
 1763 000c 00000000 		.word	test
 1764 0010 04000000 		.word	test+4
 1765 0014 00000000 		.word	test
 1766 0018 00000000 		.word	test
 1767 001c 00000000 		.word	notify
 1768 0020 00000000 		.word	0
 1769              		.comm	__gnu_lto_v1,1,1
 1770              		.ident	"GCC: (GNU Tools for ARM Embedded Processors) 4.8.4 20140526 (release) [ARM/embedded-4_8-br
ARM GAS  /tmp/ccP1FTzj.s 			page 90


DEFINED SYMBOLS
                            *ABS*:0000000000000000 testqueues.c
     /tmp/ccP1FTzj.s:935    .text.notify:0000000000000000 $t
     /tmp/ccP1FTzj.s:940    .text.notify:0000000000000000 notify
     /tmp/ccP1FTzj.s:947    .text.thread1:0000000000000000 $t
     /tmp/ccP1FTzj.s:952    .text.thread1:0000000000000000 thread1
     /tmp/ccP1FTzj.s:964    .text.thread1:0000000000000010 $d
     /tmp/ccP1FTzj.s:967    .text.queues1_setup:0000000000000000 $t
     /tmp/ccP1FTzj.s:972    .text.queues1_setup:0000000000000000 queues1_setup
     /tmp/ccP1FTzj.s:991    .text.queues1_setup:000000000000001c $d
     /tmp/ccP1FTzj.s:996    .text.thread2:0000000000000000 $t
     /tmp/ccP1FTzj.s:1001   .text.thread2:0000000000000000 thread2
     /tmp/ccP1FTzj.s:1014   .text.thread2:0000000000000014 $d
     /tmp/ccP1FTzj.s:1017   .text.queues2_setup:0000000000000000 $t
     /tmp/ccP1FTzj.s:1022   .text.queues2_setup:0000000000000000 queues2_setup
     /tmp/ccP1FTzj.s:1041   .text.queues2_setup:000000000000001c $d
     /tmp/ccP1FTzj.s:1046   .text.queues1_execute:0000000000000000 $t
     /tmp/ccP1FTzj.s:1051   .text.queues1_execute:0000000000000000 queues1_execute
     /tmp/ccP1FTzj.s:1374   .text.queues1_execute:0000000000000258 $d
     /tmp/ccP1FTzj.s:1382   .text.queues2_execute:0000000000000000 $t
     /tmp/ccP1FTzj.s:1387   .text.queues2_execute:0000000000000000 queues2_execute
     /tmp/ccP1FTzj.s:1693   .text.queues2_execute:000000000000023c $d
     /tmp/ccP1FTzj.s:1735   .rodata.patternqueues:0000000000000000 patternqueues
     /tmp/ccP1FTzj.s:1716   .rodata.testqueues2:0000000000000000 testqueues2
     /tmp/ccP1FTzj.s:1707   .rodata.testqueues1:0000000000000000 testqueues1
     /tmp/ccP1FTzj.s:1704   .rodata.testqueues1:0000000000000000 $d
     /tmp/ccP1FTzj.s:1713   .rodata.testqueues2:0000000000000000 $d
     /tmp/ccP1FTzj.s:1722   .rodata.str1.4:0000000000000000 $d
     /tmp/ccP1FTzj.s:1732   .rodata.patternqueues:0000000000000000 $d
     /tmp/ccP1FTzj.s:1740   .data.oq:0000000000000000 $d
     /tmp/ccP1FTzj.s:1744   .data.oq:0000000000000000 oq
     /tmp/ccP1FTzj.s:1755   .data.iq:0000000000000000 $d
     /tmp/ccP1FTzj.s:1759   .data.iq:0000000000000000 iq
                            *COM*:0000000000000001 __gnu_lto_v1
     /tmp/ccP1FTzj.s:966    .text.thread1:0000000000000014 $t
     /tmp/ccP1FTzj.s:995    .text.queues1_setup:0000000000000028 $t
     /tmp/ccP1FTzj.s:1016   .text.thread2:0000000000000018 $t
     /tmp/ccP1FTzj.s:1045   .text.queues2_setup:0000000000000028 $t
     /tmp/ccP1FTzj.s:1703   .text.queues2_execute:0000000000000254 $t

UNDEFINED SYMBOLS
chIQGetTimeout
chIQObjectInit
wa
chOQPutTimeout
chOQObjectInit
_test_assert
chIQPutI
test_emit_token
_test_assert_sequence
chIQReadTimeout
chIQResetI
chThdCreateStatic
test_wait_threads
ch
threads
chOQGetI
ARM GAS  /tmp/ccP1FTzj.s 			page 91


chOQWriteTimeout
chOQResetI
test
