ARM GAS  /tmp/ccdhjbqF.s 			page 1


   1              		.syntax unified
   2              		.cpu cortex-m4
   3              		.eabi_attribute 27, 3
   4              		.eabi_attribute 28, 1
   5              		.fpu fpv4-sp-d16
   6              		.eabi_attribute 20, 1
   7              		.eabi_attribute 21, 1
   8              		.eabi_attribute 23, 3
   9              		.eabi_attribute 24, 1
  10              		.eabi_attribute 25, 1
  11              		.eabi_attribute 26, 1
  12              		.eabi_attribute 30, 2
  13              		.eabi_attribute 34, 1
  14              		.eabi_attribute 18, 4
  15              		.thumb
  16              		.file	"tmp275.c"
  17              		.section	.gnu.lto_.jmpfuncs.6acfb782f76cfbf5,"",%progbits
  18 0000 789C8D8C 		.ascii	"x\234\215\214\211\015\2000\014\003\3558\205U\030\211"
  18      890D8030 
  18      0C03ED38 
  18      85551889 
  19 0010 15BA40A7 		.ascii	"\025\272@\247e\030\322\322\002\022\010\021)\377\331"
  19      6518D2D2 
  19      02120811 
  19      29FFD9
  20 001f 06C35B6C 		.ascii	"\006\303[l\275O\230\335\221\011\020\212RZ\263\022\271"
  20      BD4F98DD 
  20      9109108A 
  20      525AB312 
  20      B9
  21 0030 32934BDC 		.ascii	"2\223K\334d\203\210\253\322\271\220\250\214\361`e]\344"
  21      648388AB 
  21      D2B990A8 
  21      8CF16065 
  21      5DE4
  22 0042 E8433841 		.ascii	"\350C8AO\201\306\273\032^Z\277\221_\216\351'\207\035"
  22      4F81C6BB 
  22      1A5E5ABF 
  22      915F8EE9 
  22      27871D
  23 0055 0C8E0FD8 		.ascii	"\014\216\017\330"
  24              		.text
  25              		.section	.gnu.lto_.inline.6acfb782f76cfbf5,"",%progbits
  26 0000 789C6362 		.ascii	"x\234cb`b\300\006^Ai6\006\006\016\001FF\006F \033\244"
  26      6062C006 
  26      5E416936 
  26      06060E01 
  26      46460646 
  27 0017 926D813C 		.ascii	"\222m\201<X\003+\037\003\003\313\004?\020\004\312\261"
  27      58032B1F 
  27      0303CB04 
  27      3F1004CA 
  27      B1
  28 0028 F3333281 		.ascii	"\36332\201\2250\242\253c\341\005\362A\252\230\230\270"
  28      9530A2AB 
  28      63E105F2 
  28      41AA9898 
ARM GAS  /tmp/ccdhjbqF.s 			page 2


  28      B8
  29 0039 8561E6B0 		.ascii	"\205a\346\260,\220\207+`\343\007\032\0064\004\010\230"
  29      2C90872B 
  29      60E3071A 
  29      06340408 
  29      98
  30 004a 99452461 		.ascii	"\231E$aJ\204_\3450\2607\251\200\225\260\013\300\225"
  30      4A845FE5 
  30      30B037A9 
  30      8095B00B 
  30      C095
  31 005c B030F18A 		.ascii	"\2600\361\21222\201m\001\253c\206\033\305t\201\237\005"
  31      3232816D 
  31      01AB6386 
  31      1BC57481 
  31      9F05
  32 006e 4D312B29 		.ascii	"M1+)\212\031\000\243\207\024g"
  32      8A1900A3 
  32      871467
  33              		.text
  34              		.section	.gnu.lto_.pureconst.6acfb782f76cfbf5,"",%progbits
  35 0000 789C6362 		.ascii	"x\234cb`b\340e\200\0006\006\011F\011&\011f)\026\011"
  35      6062E065 
  35      80003606 
  35      09460926 
  35      09662916 
  36 0015 56090005 		.ascii	"V\011\000\005\210\000\271"
  36      8800B9
  37              		.text
  38              		.section	.gnu.lto_tmp275_init.6acfb782f76cfbf5,"",%progbits
  39 0000 789C6362 		.ascii	"x\234cb`b@\007\222@|\017\210\205\201\230\221\231\201"
  39      60624007 
  39      92407C0F 
  39      88858198 
  39      919981
  40 0013 9169C239 		.ascii	"\221i\3029\006\206F\016&FF\020\203\201\221\241\236\211"
  40      0686460E 
  40      26464610 
  40      838191A1 
  40      9E89
  41 0025 B13E9211 		.ascii	"\261>\222\021\254v=\323\201\007\377\377\257\333\322"
  41      AC763DD3 
  41      8107FFFF 
  41      AFDBD2
  42 0034 F28A919D 		.ascii	"\362\212\221\235\2211\227\021h\\&#\003\013\220\305\310"
  42      91319711 
  42      685C2623 
  42      030B90C5 
  42      C8
  43 0045 0A244086 		.ascii	"\012$@\206\2632\26444LP``H\006k\011\001\222 sB\201\222"
  43      B332B434 
  43      344C5060 
  43      6048066B 
  43      09019220 
  44 005d 409AF92C 		.ascii	"@\232\371,C\323\257\346\3677\230\022\031\0272\2622\244"
  44      43D3AFE6 
  44      F7379812 
ARM GAS  /tmp/ccdhjbqF.s 			page 3


  44      191732B2 
  44      32A4
  45 006f 33325533 		.ascii	"32U3T\001\215\320fX\325\000\004\205\231\214\214\263"
  45      54018DD0 
  45      6658D500 
  45      0485998C 
  45      8CB3
  46 0081 19663166 		.ascii	"\031f1f22\24532F\000if\260\275I\214H\016>\317\320~@"
  46      3232A533 
  46      32460069 
  46      66B0BD49 
  46      8C480E3E 
  47 0099 1BA29F81 		.ascii	"\033\242\237\201\241\232\341WCG\203@&#K2#DQ:H/K:#+H"
  47      A19AE157 
  47      43478340 
  47      26234B32 
  47      2344513A 
  48 00b4 3BAB06D0 		.ascii	";\253\006\320\201l\014\014\027\031\032\037\314e\202"
  48      816C0C0C 
  48      17191A1F 
  48      CC6582
  49 00c3 69828010 		.ascii	"i\202\200\020\240\006\240\223@\216\026t)\312,K-*\326"
  49      A006A093 
  49      408E1674 
  49      29CA2C4B 
  49      2D2AD6
  50 00d6 2FC92D30 		.ascii	"/\311-027\325Kf\000\000u&7\371"
  50      3237D54B 
  50      66000075 
  50      2637F9
  51              		.text
  52              		.section	.gnu.lto_tmp275_stop.6acfb782f76cfbf5,"",%progbits
  53 0000 789C5D4F 		.ascii	"x\234]O\261J\003A\020}o\367\316K\247\202\215\225\001"
  53      B14A0341 
  53      107D6FF7 
  53      CE4BA782 
  53      8D9501
  54 0013 1B415008 		.ascii	"\033AP\010\210\037\240\215\265\021\264\012\361\010\307"
  54      881FA08D 
  54      B511B40A 
  54      F108C7
  55 0022 1631E12E 		.ascii	"\0261\341.X\230\"\253FHyZ*\010\301\316B\177\341\260"
  55      589822AB 
  55      4648795A 
  55      2A08C1CE 
  55      427FE1B0 
  56 0036 B251B117 		.ascii	"\262Q\261\027L/\210u\020\316\271\034J\314\300\316\033"
  56      4C2F8875 
  56      10CEB91C 
  56      4ACCC0CE 
  56      1B
  57 0047 76DEBC79 		.ascii	"v\336\274y\243\2400\031\363\362\226\010,\012R\203*~"
  57      A3A03019 
  57      F3F29608 
  57      2C0A5283 
  57      2A7E
  58 0059 068E0B8A 		.ascii	"\006\216\013\212\314\012\020\035\305\316\036G\334{\225"
ARM GAS  /tmp/ccdhjbqF.s 			page 4


  58      CC0A101D 
  58      C5CE1E47 
  58      DC7B95
  59 0068 0CD2F4EE 		.ascii	"\014\322\364\356\255\373\240\013d\235\"g\010-\025\035"
  59      ADFBA00B 
  59      649D2267 
  59      082D151D 
  60 0078 A9E849CA 		.ascii	"\251\350I\3126\270\350Z\033\027\027pm\007q\362\376\365"
  60      36B8E85A 
  60      1B171770 
  60      6D0771F2 
  60      FEF5
  61 008a C8DE85FD 		.ascii	"\310\336\205\375NS-}\2550G\370\374g\242\312\033NX\313"
  61      4E532D7D 
  61      AD3047F8 
  61      FC67A2CA 
  61      1B4E58CB 
  62 009e 1965C999 		.ascii	"\031e\311\231\217\035i\013\352'\234\014O?Ye\237.\002"
  62      8F1D690B 
  62      EA279C0C 
  62      4F3F5965 
  62      9F2E02
  63 00b1 AA368EC4 		.ascii	"\2526\216\304\3012n\255\3049\015\235+\\\012\270\001"
  63      C1326EAD 
  63      C4390D9D 
  63      2B5C0AB8 
  63      01
  64 00c2 B92B3835 		.ascii	"\271+85\322\332\037\337&\022\037c\022N W\343\005g\211"
  64      D2DA1FDF 
  64      26121F63 
  64      124E2057 
  64      E3056789 
  65 00d6 FBFBE5B5 		.ascii	"\373\373\345\2651\264=;c\350\371\314Ge\225PMF}\305\337"
  65      31B43D3B 
  65      63E8F9CC 
  65      47659550 
  65      4D467DC5 
  66 00eb AC972B96 		.ascii	"\254\227+\226\205$\346\262\003f7CsX\013\243\325V\275"
  66      8524E6B2 
  66      03663743 
  66      73580BA3 
  66      D556BD
  67 00fe 595A5F5B 		.ascii	"YZ_[\3611\275U\332\330\256E\007Q#\254D\255F\363\007"
  67      F131BD55 
  67      DAD8AE45 
  67      075123AC 
  67      44AD46F3 
  68 0113 3ECE4C63 		.ascii	">\316Lc"
  69              		.text
  70              		.section	.gnu.lto_tmp275_writeConfig.6acfb782f76cfbf5,"",%progbits
  71 0000 789C7D50 		.ascii	"x\234}P\277KBQ\024\376\276\253\357\251\025a\320\022"
  71      BF4B4251 
  71      14FEBEAB 
  71      EFA91561 
  71      D012
  72 0012 2DD1D012 		.ascii	"-\321\320\022\025D\321\036m\255\0065\232\210\274A\010"
  72      1544D11E 
ARM GAS  /tmp/ccdhjbqF.s 			page 5


  72      6DAD0635 
  72      9A88BC41 
  72      08
  73 0023 95C81CBC 		.ascii	"\225\310\034\274Z\203S\2741\254 i*\002\207\026G\011"
  73      5A8353BC 
  73      31AC2069 
  73      2A028716 
  73      4709
  74 0035 DAFA414E 		.ascii	"\332\372AN\215\356\375\003\341\320\353\334\367\236\021"
  74      8DEEFD03 
  74      E1D0EBDC 
  74      F79E11
  75 0044 0E7DF0EE 		.ascii	"\016}\360\356y\347r\276\037\367((\214bF\276\016\201"
  75      79E772BE 
  75      1FF72828 
  75      8C6246BE 
  75      0E81
  76 0056 59A98C80 		.ascii	"Y\251\214\200\312}\005jqE\232\037\020U\305\352\036\315"
  76      CA7D056A 
  76      71459A1F 
  76      1055C5EA 
  76      1ECD
  77 0068 28E7D1D2 		.ascii	"(\347\321\322]\267\377\324;\243\276\256\273\372\333"
  77      5DB7FFD4 
  77      3BA3BEAE 
  77      BBFADB
  78 0077 F3E85044 		.ascii	"\363\350PD\247\211\014\261+\015\223~Q#Fm\325\355{\336"
  78      A7890CB1 
  78      2B0D937E 
  78      5123466D 
  78      D5ED7BDE 
  79 008b E5ADBB90 		.ascii	"\345\255\273\220\2100OXr\320\206#\216\200\205S\255\335"
  79      88304F58 
  79      72D08623 
  79      8E808553 
  79      ADDD
  80 009d B9345BE2 		.ascii	"\2714[\342\000\243$H\311i\022\354P\231\032yA\275\363"
  80      00A32448 
  80      C96912EC 
  80      50991A79 
  80      41BDF3
  81 00b0 D19B4CF3 		.ascii	"\321\233L\363\206\026\226p\257\265N:\214\006$\337\362"
  81      86169670 
  81      AFB54E3A 
  81      8C0624DF 
  81      F2
  82 00c1 D7CC7451 		.ascii	"\327\314tQ#\"\234\355\177\010\034\022r&\206\014\017"
  82      23229CED 
  82      7F081C12 
  82      7226860C 
  82      0F
  83 00d2 4EDA0315 		.ascii	"N\332\003\025\020r\264+8\226|\213\270\023\246.;\264"
  83      1072B42B 
  83      38967C8B 
  83      B813A62E 
  83      3BB4
  84 00e4 2ED0149A 		.ascii	".\320\024\232\235\243e\3501\237\272\317?\257|\303\271"
ARM GAS  /tmp/ccdhjbqF.s 			page 6


  84      9DA365E8 
  84      319FBACF 
  84      3FAF7CC3 
  84      B9
  85 00f5 FEB20201 		.ascii	"\376\262\002\001\240\202\201n\030\317x\206\014}ls)\270"
  85      A082816E 
  85      18CF7886 
  85      0C7D6C73 
  85      29B8
  86 0107 12814410 		.ascii	"\022\201D\020%\0347\222c\312/\343a\007\331\317\204\011"
  86      251C3792 
  86      63CA2FE3 
  86      6107D9CF 
  86      8409
  87 0119 F6F819A6 		.ascii	"\366\370\031\246\012\030kx\320\015\263x\301;j\375g5"
  87      0A186B78 
  87      D00DB378 
  87      C13B6AFD 
  87      6735
  88 012b B40C9012 		.ascii	"\264\014\220\022;Y\231Y\310\324V\3019\314\026\212+\245"
  88      3B599959 
  88      C8D456C1 
  88      39CC168A 
  88      2BA5
  89 013d FCC1EAC6 		.ascii	"\374\301\352\306\372r\006\261\322\321f\271\224-\376"
  89      FA7206B1 
  89      D2D166B9 
  89      942DFE
  90 014c 0024F169 		.ascii	"\000$\361i\362"
  90      F2
  91              		.text
  92              		.section	.gnu.lto_tmp275_readTemperature.6acfb782f76cfbf5,"",%progbits
  93 0000 789C8553 		.ascii	"x\234\205S\315k\023Q\020\237y\3736\331\244\371\364\003"
  93      CD6B1351 
  93      109F79FB 
  93      36D9A4F9 
  93      F403
  94 0012 A1502939 		.ascii	"\241P)9\010\342G\245(^\004\021\374\023R\320\3436\215"
  94      08E247A5 
  94      285E0411 
  94      FC1352D0 
  94      E3368D
  95 0025 61854049 		.ascii	"a\205@I\322\012\366\320\027\267\207\322\203,\275\250"
  95      D20AF6D0 
  95      17B787D2 
  95      832CBDA8 
  96 0035 150F2548 		.ascii	"\025\017%H\265\"\026{\260\202\224(\012\361P\245X\251"
  96      B522167B 
  96      B0829428 
  96      0AF150A5 
  96      58A9
  97 0047 871C8217 		.ascii	"\207\034\202\027\225b\021\274H\004\327yo\263I\332\012"
  97      956211BC 
  97      4804D779 
  97      6FB349DA 
  97      0A
  98 0058 3ED879BB 		.ascii	">\330y\273\363\233\337o\346\315\274e\300`\367\032\244"
ARM GAS  /tmp/ccdhjbqF.s 			page 7


  98      F39BDF6F 
  98      E6CDBC65 
  98      C060F71A 
  98      A4
  99 0069 27C6014E 		.ascii	"'\306\001N\321\216: s\336\001\224\015\306\264\215\001"
  99      D18E3A20 
  99      73DE0194 
  99      0DC6B48D 
  99      01
 100 007a 1061FEE2 		.ascii	"\020a\376\3420\210\210\206\334ssD\371\002\010\223L\343"
 100      30888886 
 100      DC737344 
 100      F9020893 
 100      4CE3
 101 008c 387919A5 		.ascii	"8y\031\245\006O\301\274\250\3166\336l\336<$\032\302"
 101      064FC1BC 
 101      A8CE36DE 
 101      6CDE3C24 
 101      1AC2
 102 009e 117F5C17 		.ascii	"\021\177\\\027-\244l\007\0202\010\227\350\003\015\265"
 102      2DA46C07 
 102      10320897 
 102      E8030DB5 
 103 00ae 31DC995E 		.ascii	"1\334\231^1\235\352\252^\023SU\327=o\241\306\240\257"
 103      319DEAAA 
 103      5E135355 
 103      D73D6FA1 
 103      C6A0AF
 104 00c1 C34A782C 		.ascii	"\303Jx,\266\227%\234\352\372\367\032\212YQ\376\341\272"
 104      B697259C 
 104      EAFAF71A 
 104      8A5951FE 
 104      E1BA
 105 00d3 710B3983 		.ascii	"q\0139\203T\207\330\357\021\371?\211\233\337\252(f|"
 105      5487D8EF 
 105      11F93F89 
 105      9BDFAA28 
 105      667C
 106 00e5 A2CEE0E8 		.ascii	"\242\316\340\350\3772>a\325\206\353\326\0379\347\016"
 106      FF323E61 
 106      D586EBD6 
 106      1F39E70E 
 107 00f5 72CC23E8 		.ascii	"r\314#\350`a \010&\336\307\024\030\364\021\014\2211"
 107      60612008 
 107      26DEC714 
 107      18F4110C 
 107      9131
 108 0107 C2D2F490 		.ascii	"\302\322\364\220\011E\244/*\337b\024\265@Qq\372\010"
 108      0945A42F 
 108      2ADF6214 
 108      B5405171 
 108      FA08
 109 0119 27A44992 		.ascii	"'\244I\222\202\354\203\016STM\277\211\363\004\233XQ"
 109      82EC830E 
 109      53544DBF 
 109      89F3049B 
 109      5851
ARM GAS  /tmp/ccdhjbqF.s 			page 8


 110 012b 560A82AC 		.ascii	"V\012\202\254\206V\232\254\354\367\0202\271kkpc\345"
 110      86569AAC 
 110      ECF71032 
 110      B96B6B70 
 110      63E5
 111 013d D366CCC4 		.ascii	"\323f\314\304\2074*\217&\213U\025\022\326\264+?\271"
 111      87342A8F 
 111      268B5515 
 111      12D6B42B 
 111      3FB9
 112 014f 07E6509F 		.ascii	"\007\346P\237\200\353T\3431X\024\264\236QX\317]\230"
 112      80EB54E3 
 112      315814B4 
 112      9E5158CF 
 112      5D98
 113 0161 A32D9243 		.ascii	"\243-\222C.YQE\033\356\036\310{\270-V4_!8\001M1-\022"
 113      2E595145 
 113      1BEE1EC8 
 113      7BB82D56 
 113      345F2138 
 114 017a 16C632E8 		.ascii	"\026\3062\350\205)\331\246\024\274G\012q\277r\031\357"
 114      8529D9A6 
 114      14BC470A 
 114      71BF7219 
 114      EF
 115 018b 5582D0C2 		.ascii	"U\202\320\302o\005,L\370g\352\340\214\316\237\004\250"
 115      6F052C4C 
 115      F867EAE0 
 115      8CCE9F04 
 115      A8
 116 019c C1EB2F2F 		.ascii	"\301\353//?\364\2653Il_w\277\207P\203\215\001y\340\372"
 116      3FF4B533 
 116      496C5F77 
 116      BF875083 
 116      8D0179E0 
 117 01b1 AFB923ED 		.ascii	"\257\271#\355F-\250\346\264\004e9\306\0118N\262^\"\251"
 117      462DA8E6 
 117      B4046539 
 117      C609384E 
 117      B25E22A9 
 118 01c5 62748910 		.ascii	"bt\211\020{\333^e&.\251,\241\234D\327\300~\254\371\256"
 118      7BDB5E65 
 118      262EA92C 
 118      A19C44D7 
 118      C07EACF9 
 119 01da 307915CB 		.ascii	"0y\025\313\360\302\267\354\247\350c=\004+g}\251\327"
 119      F0C2B7EC 
 119      A7E8633D 
 119      042B677D 
 119      A9D7
 120 01ec F745F6A4 		.ascii	"\367E\366\244\303]\351:\374(\205\253t\317\355\253\276"
 120      C35DE93A 
 120      FC2885AB 
 120      74CFEDAB 
 120      BE
 121 01fd 2FA664A3 		.ascii	"/\246d\243*\366\201\275\374\273\035\034'L\005\317\330"
 121      2AF681BD 
ARM GAS  /tmp/ccdhjbqF.s 			page 9


 121      FCBB1D1C 
 121      274C05CF 
 121      D8
 122 020e 9FDBCE04 		.ascii	"\237\333\316\004\371{\341\016\315\300\371\352\322/\005"
 122      F97BE10E 
 122      CDC0F9EA 
 122      D22F05
 123 021d 203B2B1A 		.ascii	" ;+\032\213\037\027)u\330K\371\326\011x\3614\3352\241"
 123      8B1F1729 
 123      75D84BF9 
 123      D60978F1 
 123      34DD32A1 
 124 0231 BA254F95 		.ascii	"\272%O\225\224\305\355o\315,\341\367\224\267n\321\253"
 124      94C5ED6F 
 124      CD2CE1F7 
 124      94B76ED1 
 124      AB
 125 0242 2DD67D87 		.ascii	"-\326}\207N\303\262\230n\335\243\035`\245\013\324\010"
 125      4EC3B298 
 125      6EDDA31D 
 125      60A50BD4 
 125      08
 126 0253 5C877263 		.ascii	"\\\207rc;\334\236\232'\233\246\273A\262\362\207I^,X"
 126      3BDC9E9A 
 126      279BA6BB 
 126      41B2F287 
 126      495E2C58 
 127 0267 E3D94271 		.ascii	"\343\331Bq\240\224\037\035<{\346d\006\214R!\233\273"
 127      A0941F1D 
 127      3C7BE664 
 127      068C5221 
 127      9BBB
 128 0279 303252E0 		.ascii	"02R\340\245\341\261+\201b\311,\215\025\203\005\363Z"
 128      A5E1B12B 
 128      8162C92C 
 128      8D158305 
 128      F35A
 129 028b 3A9B1FFD 		.ascii	":\233\037\375\013\253s\000g"
 129      0BAB7300 
 129      67
 130              		.text
 131              		.section	.gnu.lto_tmp275_writeTHigh.6acfb782f76cfbf5,"",%progbits
 132 0000 789C8D51 		.ascii	"x\234\215Q?K\303P\020\277\337\213I\023k\265\212\203"
 132      3F4BC350 
 132      10BFDF8B 
 132      49136BB5 
 132      8A83
 133 0012 E222AEA2 		.ascii	"\342\"\256\242\202(\016\202\203\370\021*\324\261\226"
 133      82280E82 
 133      83F8112A 
 133      D4B196
 134 0021 523A14A4 		.ascii	"R:\024\244-\242v\350\253\351\320\241C7E\035,n*Vqt\011"
 134      2DA276E8 
 134      ABE9D0A1 
 134      4337451D 
 134      2C6E2A56 
 135 0038 82834315 		.ascii	"\202\203C\025\277A\351 B\277A\021\342\275\244\255\322"
ARM GAS  /tmp/ccdhjbqF.s 			page 10


 135      BF41E920 
 135      42BF4111 
 135      E2BDA4AD 
 135      D2
 136 0049 C983DCBD 		.ascii	"\311\203\334\275\334\273\337\237\\\004\011\032\214i"
 136      DCBBDF9F 
 136      5C04091A 
 136      8C69
 137 0057 7E26B83D 		.ascii	"~&\270=\303\025\032AT\337\210\212\246\000\324\201@\005"
 137      C3151A41 
 137      54DF888A 
 137      A600D481 
 137      4005
 138 0069 81C20ED4 		.ascii	"\201\302\016\324(\346\250&\235j\363\245\365\205\242"
 138      28E6A826 
 138      9D6AF3A5 
 138      F585A2
 139 0078 744A97F2 		.ascii	"tJ\227\362\333u\201\024\230v\022\024\007E\371\005a\257"
 139      DB758114 
 139      98761214 
 139      0745F905 
 139      61AF
 140 008a 8801A9BA 		.ascii	"\210\001\251\272p\232\256{\361PjM\205\200\264\302\244"
 140      709AAE7B 
 140      F1506A4D 
 140      8580B4C2 
 140      A4
 141 009b A0699C86 		.ascii	"\240i\234\206\014\225L\356\301\342\223\036\344d0B\247"
 141      0C954CEE 
 141      C1E2931E 
 141      E4643042 
 141      A7
 142 00ac 9294D5D9 		.ascii	"\222\224\325\331\030j,L\212\236#\302Y\031\333\206PU"
 142      186A2C4C 
 142      8A9E23C2 
 142      5919DB86 
 142      5055
 143 00be 6B907D67 		.ascii	"k\220}g\337T\326c\270\202NI\210$\240\344\003&\0177\350"
 143      DF54D663 
 143      B8824E49 
 143      8824A0E4 
 143      03260F37 
 144 00d3 B8ADF56E 		.ascii	"\270\255\365n4\276\364Z\257\367\001\277\267@\267R\312"
 144      34BEF45A 
 144      AFF701BF 
 144      B740B752 
 144      CA
 145 00e4 308BFB1A 		.ascii	"0\213\373\032\236\355\276aF\370\014\366g\237\303`\366"
 145      9EEDBE61 
 145      46F80CF6 
 145      679FC360 
 145      F6
 146 00f5 7F70E097 		.ascii	"\177p\340\227\303\360\306;v\275\262\321#\261\362t\304"
 146      C3F0C63B 
 146      76BDB2D1 
 146      23B1F274 
 146      C4
ARM GAS  /tmp/ccdhjbqF.s 			page 11


 147 0106 9F394FD7 		.ascii	"\2379O\327\214\224'\0140\317\351\214\213\225\204\251"
 147      8C94270C 
 147      30CFE98C 
 147      8B9584A9 
 148 0116 F0C31E76 		.ascii	"\360\303\036v\027\177\266\367N\2472\332#\010\346\251"
 148      177FB6F7 
 148      4EA732DA 
 148      2308E6A9 
 149 0126 23CB4A34 		.ascii	"#\313J4\030\007\272B\226jr<1\301\210\357\305\237\367"
 149      1807BA42 
 149      966A723C 
 149      31C188EF 
 149      C59FF7
 150 0139 2C858457 		.ascii	",\205\204WF\273o\304+\036S\316\236\333\302\237\362\021"
 150      46BB6FC4 
 150      2B1E53CE 
 150      9EDBC29F 
 150      F211
 151 014b 2BF428CB 		.ascii	"+\364(\313\352\207r|P\321\321\373\222\276\215\010\313"
 151      EA87727C 
 151      50D1D1FB 
 151      92BE8D08 
 151      CB
 152 015c F1D6D592 		.ascii	"\361\326\325\222\306\2672\251\375D&\273\224K\357-\257"
 152      C6B732A9 
 152      FD4426BB 
 152      944BEF2D 
 152      AF
 153 016d AD2EC629 		.ascii	"\255.\306)\220;\330<\314%\262? \023|\316"
 153      903BD83C 
 153      CC25B23F 
 153      20137CCE 
 154              		.text
 155              		.section	.gnu.lto_tmp275_writeTLow.6acfb782f76cfbf5,"",%progbits
 156 0000 789C8D51 		.ascii	"x\234\215Q\275KBQ\024?\277\373\362\371^\366a\321R-\321"
 156      BD4B4251 
 156      143FBFFB 
 156      F2F95EF6 
 156      61D1522D 
 157 0015 1A1544D1 		.ascii	"\032\025D\321\0204D\177\202\201\215&\"\016B\250D\345"
 157      1034447F 
 157      82818D26 
 157      220E42A8 
 157      44E5
 158 0027 E0B5E7E0 		.ascii	"\340\265\347\340\340\340V\324\222\264ET\340\330\362"
 158      E0E056D4 
 158      92B44554 
 158      E0D8F2
 159 0036 101A1A2C 		.ascii	"\020\032\032,\332\033\334\212\374\017,x\235\373\256"
 159      DA1BDC8A 
 159      FC0F2C78 
 159      9DFBAE
 160 0045 5A3875E0 		.ascii	"Z8u\340\235s\337\271\347\367\361\316\023$h0\246\371"
 160      9D73DFB9 
 160      E7F7F1CE 
 160      13246830 
 160      A6F9
ARM GAS  /tmp/ccdhjbqF.s 			page 12


 161 0057 99E4F62C 		.ascii	"\231\344\366,W\030\004Q}&*Z\002P\007\002\025\004\012"
 161      57180451 
 161      7D262A5A 
 161      02500702 
 161      15040A
 162 006a BB50A398 		.ascii	"\273P\243\230\247\232t\253\255\307\367\017\024\245["
 162      A79A74AB 
 162      ADC7F70F 
 162      14A55B
 163 0079 BA94DF9E 		.ascii	"\272\224\337\236\007\244\300\264S\2408(\312/\010\373"
 163      07A4C0B4 
 163      53A03828 
 163      CA2F08FB 
 164 0089 450C48DD 		.ascii	"E\014H\335\011\267\345yo\365Rcf\024H+L\012\206\301i"
 164      09B7E579 
 164      6FF55263 
 164      6614482B 
 164      4C0A86C1 
 165 009e C854C9E2 		.ascii	"\310T\311\342\036l>\005B\234LF\004\250$eu.\206\032\013"
 165      1E6C3E05 
 165      429C4C46 
 165      04A82465 
 165      752E861A 
 166 00b3 93A2E788 		.ascii	"\223\242\347\210pV\306v T5\232\344\334:_\225\215\030"
 166      7056C676 
 166      2054359A 
 166      E4DC3A5F 
 166      958D18
 167 00c6 AE10A024 		.ascii	"\256\020\240$D\022P\362A\213\207\233t\3226z7\006_\372"
 167      441250F2 
 167      418B879B 
 167      74D2367A 
 167      37065FFA 
 168 00da ADA7FBA0 		.ascii	"\255\247\373\240\356-\322\215\2242\314\342Z\303\267"
 168      EE2DD28D 
 168      9432CCE2 
 168      5AC3B7
 169 00e9 DD37CC08 		.ascii	"\3357\314\010\315\340|\3669Lf\377\007\007~9L\177\274"
 169      CDE07CF6 
 169      394C66FF 
 169      07077E39 
 169      4C7FBC
 170 00fc E37895CD 		.ascii	"\343x\225\315\036\211\235\247c\376\314\005\272f\244"
 170      1E899DA7 
 170      63FECC05 
 170      BA66A4
 171 010b 3C658075 		.ascii	"<e\200uA\347\\\354$,\205\037\366\261{\370\263\275\027"
 171      41E75CEC 
 171      242C851F 
 171      F6B17BF8 
 171      B3BD17
 172 011e 3A93D11E 		.ascii	":\223\321\036A(O\035YV\242\2418\320\025\262U\223\343"
 172      41284F1D 
 172      5956A2A1 
 172      38D015B2 
 172      5593E3
 173 0131 810946B4 		.ascii	"\201\011F\264\027=\357[\032\025~\031\353\276\021\257"
ARM GAS  /tmp/ccdhjbqF.s 			page 13


 173      173DEF5B 
 173      1A157E19 
 173      EBBE11AF 
 174 0141 785C396B 		.ascii	"x\\9k\264\205\236\322\210U\252\313\262\372\241\034\257"
 174      B4859ED2 
 174      8855AACB 
 174      B2FAA11C 
 174      AF
 175 0152 5474037D 		.ascii	"Tt\003}Im#\302r\274u\265\244\211\355L\352 \221\311."
 175      496D23C2 
 175      72BC75B5 
 175      A489ED4C 
 175      EA2091C9 
 176 0167 E7D2FB2B 		.ascii	"\347\322\373+\353kKq\012\346\016\267\216r\211\354\017"
 176      EB6B4B71 
 176      0AE60EB7 
 176      8E7289EC 
 176      0F
 177 0178 39AA7D9B 		.ascii	"9\252}\233"
 178              		.text
 179              		.section	.gnu.lto_.symbol_nodes.6acfb782f76cfbf5,"",%progbits
 180 0000 789C4DC7 		.ascii	"x\234M\307\313\021\202@\024D\321\356~|&\015#\355Q\021"
 180      CB118240 
 180      1444D1EE 
 180      7E7C260D 
 180      23ED5111 
 181 0014 5C1A811B 		.ascii	"\\\032\201\033s0\001\367\306\200e\036(\024\226\314\335"
 181      733001F7 
 181      C680651E 
 181      281496CC 
 181      DD
 182 0025 DC3A8270 		.ascii	"\334:\202p\307/}h\340\362\004\354\353\231\3122\013\356"
 182      C72F7D68 
 182      E0F204EC 
 182      EB99CA32 
 182      0BEE
 183 0037 65153CC8 		.ascii	"e\025<\310Q\360(W\005;\271\336\310\223\334\254\314\231"
 183      51F02857 
 183      053BB9DE 
 183      C893DCAC 
 183      CC99
 184 0049 ECE576D3 		.ascii	"\354\345v\323 \247\277\002\015n\343\304`\213\3078\355"
 184      20A7BF02 
 184      0D6EE3C4 
 184      608BC738 
 184      ED
 185 005a 4209EFC5 		.ascii	"B\011\357\305\221\0263\252\371\257\371\365z|\001\013"
 185      911633AA 
 185      F9AFF9F5 
 185      7A7C010B 
 186 006a B53879   		.ascii	"\2658y"
 187              		.text
 188              		.section	.gnu.lto_.refs.6acfb782f76cfbf5,"",%progbits
 189 0000 789C6362 		.ascii	"x\234cb`b`d\200\002\000\000F\000\006"
 189      60626064 
 189      80020000 
 189      460006
ARM GAS  /tmp/ccdhjbqF.s 			page 14


 190              		.text
 191              		.section	.gnu.lto_.decls.6acfb782f76cfbf5,"",%progbits
 192 0000 789CBD5B 		.ascii	"x\234\275[{t\024U\232\257\252\356\244\323$\206\200\243"
 192      7B741455 
 192      9AAFAAEE 
 192      A4D32486 
 192      80A3
 193 0012 8B339E63 		.ascii	"\2133\236c\317\2563\303\231\031\311\003\344qt\025L\302"
 193      CFAE33C3 
 193      9919C903 
 193      E4717415 
 193      4CC2
 194 0024 90B3BC36 		.ascii	"\220\263\2746\011\256\354\231=m\321]\220^\323\351\266"
 194      09AEEC99 
 194      3D6DD15D 
 194      905ED3E9 
 194      B6
 195 0035 BA02E1AF 		.ascii	"\272\002\341\257)\022\223Q\0340$ \217\345\021G^*2F@"
 195      29129351 
 195      1C302420 
 195      8FE51147 
 195      5E2A3246 
 196 004a 8803D2A0 		.ascii	"\210\003\322\240@x\310C\036B@m\035A\036\242\200F\004"
 196      4078C843 
 196      1E42406D 
 196      1D411EA2 
 196      804604
 197 005d 24D97BBF 		.ascii	"$\331{\277\252\352\276U\251\352\276\225q\246\317\251"
 197      AAEABE55 
 197      A9EABE95 
 197      71A6CFA9 
 198 006d 5BB76EDD 		.ascii	"[\267n\335\373\373\336\367U\2679\206cNr\014\323\215"
 198      FBFBDEF7 
 198      55B73986 
 198      634E720C 
 198      D38D
 199 007f 7E134633 		.ascii	"~\023F3LK\006\303\270\030\206y\004]i\350z\211Q\236Y"
 199      4C4B06C3 
 199      B8188679 
 199      045D69E8 
 199      7A89519E 
 200 0094 746D4257 		.ascii	"tmBW?T\027\377\334\350\352\217\362\277B\327`t=\214\256"
 200      3F5417FF 
 200      DCE8EA8F 
 200      F2BF42D7 
 200      60743D8C 
 201 00a9 627495A3 		.ascii	"bt\225\243k2\272xt\371\325\272\344\017\267\301x\277"
 201      6B32BA78 
 201      74F9D5BA 
 201      E40FB7C1 
 201      78BF
 202 00bb E714ECBB 		.ascii	"\347\024\354\273\321\375.tU\252\345\377\315)\264~\206"
 202      D1FD2E74 
 202      55AAE5FF 
 202      CD29B47E 
 202      86
 203 00cc EE9C5A1F 		.ascii	"\356\234Z\037\3439P\336\203\356\377\212\256\373\015"
ARM GAS  /tmp/ccdhjbqF.s 			page 15


 203      E33950DE 
 203      83EEFF8A 
 203      AEFB0D
 204 00db B898870C 		.ascii	"\270\230\207\014\025\323\211\356\265\010`\212\001?h"
 204      15D389EE 
 204      B508608A 
 204      013F68
 205 00ea C0FD95CA 		.ascii	"\300\375\225\312#\316\347\242$\317\200\211e\272\003"
 205      23CEE7A2 
 205      24CF8089 
 205      65BA03
 206 00f9 DDABD03D 		.ascii	"\335\253\320=\033\335\263T|\226\321\343\206\321\365"
 206      1BDDB354 
 206      7C96D1E3 
 206      86D1F5
 207 0108 3497D08D 		.ascii	"4\227\320\215`\2403X\325\003\316\217@\311p\003\035\254"
 207      60A03358 
 207      D503CE8F 
 207      40C97003 
 207      1DAC
 208 011a B79FA8BA 		.ascii	"\267\237\250\272\325\350`\232X\206\022.A\023\313\205"
 208      D5E8609A 
 208      5886122E 
 208      4113CB85 
 209 012a 9B0E32A1 		.ascii	"\233\0162\241\337O\345\001\323NG\357\2062z\036\036&"
 209      DF4FE501 
 209      D34E47EF 
 209      86327A1E 
 209      1E26
 210 013c 78188592 		.ascii	"x\030\205\222\307\014<`\273\345\030d\345T\214\337\253"
 210      C70C3C60 
 210      BBE51864 
 210      E5548CDF 
 210      AB
 211 014d BC386DCA 		.ascii	"\2748m\312]L\320\374O\224L4\320,\377\007\320,'h\376"
 211      5D4CD0FC 
 211      4F944C34 
 211      D02CFF07 
 211      D02C2768 
 212 0162 174A1E37 		.ascii	"\027J\0367\320\354\317\314\223\321\317\323\216\010>"
 212      D0ECCFCC 
 212      93D1CFD3 
 212      8E083E
 213 0171 C1F26CB6 		.ascii	"\301\362l\266\233y\0222Yn\240\377\013f\245,7\306\352"
 213      9B791232 
 213      596EA0FF 
 213      0B66A52C 
 213      37C6EA
 214 0184 9F673D3C 		.ascii	"\237g=<\373\022\333\037\001\015`\231_3\257\240F\215"
 214      FB12DB1F 
 214      010D6099 
 214      5F33AFA0 
 214      468D
 215 0196 B25C7B27 		.ascii	"\262\\{'\323\363\227\012\023y\031\273\012A\361\354J"
 215      D3F3970A 
 215      137919BB 
 215      0A41F1EC 
ARM GAS  /tmp/ccdhjbqF.s 			page 16


 215      4A
 216 01a7 F6D70A05 		.ascii	"\366\327\012\0059\272\315\357QJ\031\265\334\344\367"
 216      39BACDEF 
 216      514A19B5 
 216      DCE4F7
 217 01b6 73A60591 		.ascii	"s\246\005\221\214\036\331\330\306\312\015Y.\246\001"
 217      8C1ED9D8 
 217      C6CA0D59 
 217      2EA601
 218 01c5 3DC9B1FA 		.ascii	"=\311\261\372\332\001\213\022\22424Jl\234\373h[\006"
 218      DA018B12 
 218      9432344A 
 218      6C9CFB68 
 218      5B06
 219 01d7 C7B36B59 		.ascii	"\307\263kY\027b\3767\254\016\236\002\003\363\363\032"
 219      1762FE37 
 219      AC0E9E02 
 219      03F3F31A 
 220 01e7 6AABE3B6 		.ascii	"j\253\343\266\325\311)\245I\270u0\240\367\207X@s\272"
 220      D5C929A5 
 220      49B87530 
 220      A0F78758 
 220      4073BA
 221 01fa 134545F1 		.ascii	"\023EE\361\"\226\250X\022/\325l\204\037Yw\"\323\315"
 221      2296A858 
 221      122FD56C 
 221      841F5977 
 221      22D3CD
 222 020d EA08907C 		.ascii	"\352\010\220|\361\354:\366\027(}\235u\2306\343\230\361"
 222      F1EC3AF6 
 222      17287D9D 
 222      759836E3 
 222      98F1
 223 021f ACAA7633 		.ascii	"\254\252v3!\325l\202l\266\366\240)\375\350\267[\260"
 223      21D56C82 
 223      6CB6F6A0 
 223      29FDE8B7 
 223      5BB0
 224 0231 D2DDCCB3 		.ascii	"\322\335\314\263\240\260Ur\012\245\307N5\274\376\033"
 224      A0B05572 
 224      0AA5C74E 
 224      35BCFE1B 
 225 0241 59CEE0D9 		.ascii	"Y\316\340\331M,\226h\246^\361\3648\315\263\227\017\007"
 225      4D2C9668 
 225      A65EF1F4 
 225      38CDB397 
 225      0F07
 226 0253 9C2D80F3 		.ascii	"\234-\200\363\026\253\007RE%\224\202\236\265\012)\025"
 226      16AB0752 
 226      45259482 
 226      9EB50A29 
 226      15
 227 0264 98A22EC7 		.ascii	"\230\242.\307DY\273j\313 \325\026\3335{\376=r\313N6"
 227      4459BB6A 
 227      CB20D516 
 227      DB357BFE 
 227      3D72CB4E 
ARM GAS  /tmp/ccdhjbqF.s 			page 17


 228 0279 93998DE5 		.ascii	"\223\231\215\345mi\220\307\264g\233\004H\324\241\201"
 228      6D6990C7 
 228      B4679B04 
 228      48D4A181 
 229 0289 0D4F88DE 		.ascii	"\015O\210\336z\360\370j\266N\226\321\213w \364\346p"
 229      7AF0F86A 
 229      B64E96D1 
 229      8B7720F4 
 229      E670
 230 029b 7AE15302 		.ascii	"z\341S\002\361l\224\345P\272\303\030nW\227d\311N\245"
 230      F16C94E5 
 230      50BAC318 
 230      6E579764 
 230      C94EA5
 231 02ae 3C75C0DD 		.ascii	"<u\300\335\350X\376/r,\312RG\\\354\223\017>\314\007"
 231      E858FE2F 
 231      722CCA52 
 231      475CEC93 
 231      0F3ECC07 
 232 02c2 A3BD0751 		.ascii	"\243\275\007Q\267\217\353U\330\3551\206\335\221\206"
 232      B78FEB55 
 232      D8ED3186 
 232      DD9186
 233 02d1 BE98EB3D 		.ascii	"\276\230\353=T\201w\234\353\031y1\3164\364.p\372\330"
 233      5481779C 
 233      EB197931 
 233      CE34F42E 
 233      70FAD8
 234 02e4 538BBF49 		.ascii	"S\213\277I\024;\210\342Y\216x\261\223(~!Q\234F\270D"
 234      143B88E2 
 234      598E78B1 
 234      93287E21 
 234      519C46B8 
 235 02f9 52FFDB43 		.ascii	"R\377\333C\004p;\004\360^\213\000\346\331\015qK\366"
 235      04703B04 
 235      F05E8B00 
 235      E6D90D71 
 235      4BF6
 236 030b 2A8263AD 		.ascii	"*\202c\255s??\3076\327\311\355yf\316\210\252\260\311"
 236      733F3FC7 
 236      36D7C9ED 
 236      7966CE88 
 236      AAB0C9
 237 031e 0781E8B6 		.ascii	"\007\201\350\266\016\326\223\252o\347\331\223H\014\232"
 237      0ED693AA 
 237      6FE7D993 
 237      480C9A
 238 032d 11A0C3E8 		.ascii	"\021\240\303\350\222\313:\300%;\250\\\262\265c\201="
 238      92CB3AC0 
 238      253BA85C 
 238      B2B56381 
 238      3D
 239 033e 978C5EFD 		.ascii	"\227\214^\375\020\017a\037\201?.q\364\312\037cF\177"
 239      100F611F 
 239      813F2E71 
 239      F4CA1F63 
 239      467F
ARM GAS  /tmp/ccdhjbqF.s 			page 18


 240 0350 3CB510FC 		.ascii	"<\265\020\3741F\345\217\253\035\204\357\251e\255\016"
 240      3146E58F 
 240      AB1D84EF 
 240      A965AD0E 
 241 0360 53C7DBE5 		.ascii	"S\307\333\345\320;\036\215+\305\010W\372\024\\\3513"
 241      D03B1E8D 
 241      2BC50857 
 241      FA145CE9 
 241      33
 242 0371 CBB1E043 		.ascii	"\313\261\340C\220\277\243\327\203\301\206\216\005\320"
 242      90BFA3D7 
 242      83C1868E 
 242      05D0
 243 037f ABA9BDB8 		.ascii	"\253\251\275\270\342H\361\272\036\015\301\311\020\243"
 243      E248F1BA 
 243      1E0DC1C9 
 243      10A3
 244 038d C1AE1D6C 		.ascii	"\301\256\035l-te\027\241\037\377\304a: P@5\317\336:"
 244      2D746517 
 244      A11FFFC4 
 244      613A2050 
 244      4035CFDE 
 245 03a2 02FA96CB 		.ascii	"\002\372\226\313\000t\336a\034\020\\\206\001\301\245"
 245      0074DE61 
 245      1C105C86 
 245      01C1A5
 246 03b1 EFE45DEE 		.ascii	"\357\344]\356D\006O\361\3732v\253\243\236\301\250@\035"
 246      44064FF1 
 246      FB3276AB 
 246      A39EC1A8 
 246      401D
 247 03c3 A3660AF4 		.ascii	"\243f\012\364\220\012D\261x\360-\366Z\255\274(\217\336"
 247      900A44B1 
 247      78F02DF6 
 247      5AADBC28 
 247      8FDE
 248 03d5 819B3BB0 		.ascii	"\201\233;\260\003_\003\007\356\356\235\003w\032\035"
 248      035F0307 
 248      EEEE9D03 
 248      771A1D
 249 03e4 F896E2C0 		.ascii	"\370\226\342\300\235T\016<\327\331\323\201\2279M\035"
 249      9D540E3C 
 249      D7D9D381 
 249      97394D1D 
 250 03f4 F82F4EFB 		.ascii	"\370/N\373\016\334I8\360w\340\300\327-\035\370='\205"
 250      0EDC4938 
 250      F077E0C0 
 250      D72D1DF8 
 250      3D2785
 251 0407 03679838 		.ascii	"\003g\23080AO\241t\032(\235a\177\216\322\013\220^Ei"
 251      30414FA1 
 251      741A289D 
 251      617F8ED2 
 251      0B905E45 
 252 041c FCC73187 		.ascii	"\374\3071\207\234F\377Rz(\002)\321\2251\311\260\314"
 252      9C46FF52 
 252      7A280229 
ARM GAS  /tmp/ccdhjbqF.s 			page 19


 252      D19531C9 
 252      B0CC
 253 042e 5C053738 		.ascii	"\\\00578\201f\007qr\247\200\334\216\336zVt\361\351\345"
 253      81660771 
 253      72A780DC 
 253      8EDE7A56 
 253      74F1E9E5 
 254 0442 F64233BA 		.ascii	"\366B3\272}\341]\330\007fq\330\204\261\036\322^4\316"
 254      7DE15DD8 
 254      076671D8 
 254      84B11ED2 
 254      5E34CE
 255 0455 AF68E2E3 		.ascii	"\257h\342\343\022\215\024f\366\001)\344\350\206\323"
 255      128D1466 
 255      F60129E4 
 255      E886D3
 256 0464 CB592C85 		.ascii	"\313Y,\205\311@\"\263Z\373\234\270\014\261\343_\234"
 256      C94022B3 
 256      5AFB9CB8 
 256      0CB1E35F 
 256      9C
 257 0475 3FA7762F 		.ascii	"?\247v/\015\034\236)\255NK9S\322\003q\314zh\362\034"
 257      0D1C9E29 
 257      AD4E4B39 
 257      53D20371 
 257      CC7A68F2 
 258 048a 6718963A 		.ascii	"g\030\226:y\217R\232jP\222\243\327\317\272\345\246,"
 258      798F529A 
 258      6A5092A3 
 258      D7CFBAE5 
 258      A62C
 259 049c 13522349 		.ascii	"\023R#I\221\265\036\361R\354\236\275\262\234\303\263"
 259      91B51EF1 
 259      52EC9EBD 
 259      B29CC3B3 
 260 04ac 7380E3CB 		.ascii	"s\200\343\313\346\034\267\214\264\302\341\230\333\320"
 260      E61CB78C 
 260      B4C2E198 
 260      DBD0
 261 04ba A4D1C071 		.ascii	"\244\321\300ql\333\265\366\237.\002\344F\012\266k\243"
 261      6CDBB5F6 
 261      9F2E02E4 
 261      460AB66B 
 261      A3
 262 04cb C71B9651 		.ascii	"\307\033\226Q\315Q[\234\032\371\242\204\030'/E\007@"
 262      CD515B9C 
 262      1AF9A284 
 262      18272F45 
 262      0740
 263 04dd 6FBC00A4 		.ascii	"o\274\000\244x7=\245\336\3650\034s\000\232,\352)E\354"
 263      78373DA5 
 263      DEF5301C 
 263      73009A2C 
 263      EA2945EC 
 264 04f1 678A148B 		.ascii	"g\212\024\213\250\244\270\245J\301\263\363\271L\004"
 264      A8A4B8A5 
 264      4AC1B3F3 
ARM GAS  /tmp/ccdhjbqF.s 			page 20


 264      B94C04
 265 0500 7B220E4B 		.ascii	"{\"\016K\033Hz\274\256\335Y\215\274\006\366\221m0\217"
 265      1B487ABC 
 265      AEDD598D 
 265      BC06F691 
 265      6D308F
 266 0513 0EAC79CF 		.ascii	"\016\254y\317R\233\003\346\342\353\347\357\331\006\342"
 266      529B03E6 
 266      E2EBE7EF 
 266      D906E2
 267 0522 B74060BE 		.ascii	"\267@`\276\356\372Q\002s\223\213B\020\353\300DV9|o\333"
 267      EEFA5102 
 267      73938B42 
 267      10EBC044 
 267      56397C6F 
 268 0537 9BB2FC5C 		.ascii	"\233\262\374\\\272\346\237\351V\202p\314V \266\312h"
 268      BAE69FE9 
 268      568270CC 
 268      5620B6CA 
 268      68
 269 0548 D9C55D87 		.ascii	"\331\305]\207\037P,\273\212\312\262\233\367/\244\363"
 269      1F502CBB 
 269      8ACAB29B 
 269      F72FA4F3 
 270 0558 CF748DBC 		.ascii	"\317t\215\274\037\310w\001\371W\215\3447\375\371\302"
 270      1FC87701 
 270      F9578DE4 
 270      37FDF9C2 
 271 0568 230AF957 		.ascii	"#\012\371W\251\310\177r\310d\011\307\263\217\334\225"
 271      A9C87F72 
 271      C86409C7 
 271      B38FDC95 
 272 0578 D47C5D57 		.ascii	"\324|]W\006\256\000\"\353\301\201\3323\214\346{4\223"
 272      06AE0022 
 272      EBC181DA 
 272      338CE67B 
 272      3493
 273 058a A405CF44 		.ascii	"\244\005\317D\005\2169\222\241q\337+\377Eb\356x\364"
 273      058E3992 
 273      A171DF2B 
 273      FF4562EE 
 273      78F4
 274 059c 15B094C6 		.ascii	"\025\260\224\306\303q\333\210z'\276v\010\"B\001;E\003"
 274      C371DB88 
 274      7A27BE76 
 274      08224201 
 274      3B4503
 275 05af 66E948B5 		.ascii	"f\351H\265\321oI\260\217l\203\3519\373\216\004\373\224"
 275      D16F49B0 
 275      8F6C83E9 
 275      39FB8E04 
 275      FB94
 276 05c1 062CC79A 		.ascii	"\006,\307\232\263\357I\260\263\266\301\364\234\335$"
 276      B3EF49B0 
 276      B3B6C1F4 
 276      9CDD24
 277 05d0 C12ED080 		.ascii	"\301.\320\200\015\260\346\354\007\022\354\262m0=g]$"
ARM GAS  /tmp/ccdhjbqF.s 			page 21


 277      0DB0E6EC 
 277      0712ECB2 
 277      6D303D67 
 277      5D24
 278 05e2 D8551A30 		.ascii	"\330U\0320\2175g\215\037\020`\235\266\301\364\2345\221"
 278      8F35678D 
 278      1F10609D 
 278      B6C1F49C 
 278      3591
 279 05f4 603768C0 		.ascii	"`7h\300\006Zs6\237\004\273m\033L\317\331\213$\330,7"
 279      065A7336 
 279      9F04BB6D 
 279      1B4CCFD9 
 279      8B24D82C 
 280 0609 05589E35 		.ascii	"\005X\2365g\213H\260z\333`z\316\226\220`\317\321\200"
 280      678B48B0 
 280      7ADB607A 
 280      CE969060 
 280      CFD180
 281 061c 0DB7E66C 		.ascii	"\015\267\346l)\0116\3076\230\236\2637H\260y4`#\2559"
 281      290936C7 
 281      36989EB3 
 281      3748B079 
 281      346023AD 
 282 0631 7B93049B 		.ascii	"{\223\004\233o\033L\317\331F\022l!\015\330\030k\316"
 282      6F1B4CCF 
 282      D946126C 
 282      210DD818 
 282      6BCE
 283 0643 DE22C196 		.ascii	"\336\"\301\226\330\006\323s\266\205\004[F\0036\321\232"
 283      D806D373 
 283      B685045B 
 283      460336D1 
 283      9A
 284 0654 B3B749B0 		.ascii	"\263\267I\260\026\333`z\316\266\222`/\323\200=a\315"
 284      16DB607A 
 284      CEB69260 
 284      2FD3803D 
 284      61CD
 285 0666 D93B24D8 		.ascii	"\331;$\330\032\333`z\316\016\223`\257\321\200=i\302"
 285      1ADB607A 
 285      CE0E9360 
 285      AFD1803D 
 285      69C2
 286 0678 59FC67D6 		.ascii	"Y\374g\326\016\017\323\257p\304bm\275[\233\340\330\034"
 286      0E0FD3AF 
 286      70C4626D 
 286      BD5B9BE0 
 286      D81C
 287 068a A39904C6 		.ascii	"\243\231\004\306\233n\27332\235\334x\236|\357\333\352"
 287      9B6EBB33 
 287      329DDC78 
 287      9E7CEFDB 
 287      EA
 288 069b 38AF4C56 		.ascii	"8\257LV\267\320 &\031\000\227\354!f\276Q\333`\006W\306"
 288      B7D02026 
 288      190097EC 
ARM GAS  /tmp/ccdhjbqF.s 			page 22


 288      2166BE51 
 288      DB600657 
 289 06b0 60BAA953 		.ascii	"`\272\251S|\353?\232|\307\003\177_\342\210\357\004\003"
 289      7CEB3F9A 
 289      7CC7037F 
 289      5FE288EF 
 289      0403
 290 06c2 CCEBF2EC 		.ascii	"\314\353\362\354%\016/\341\277\344\334q.\224\274\226"
 290      250E2FE1 
 290      BFE4DC71 
 290      2E94BC96 
 291 06d2 53B60CDA 		.ascii	"S\266\014\332\335\372\015\207\370/US+O\270@z\302\373"
 291      DDFA0D87 
 291      F82F5553 
 291      2B4FB840 
 291      7AC2FB
 292 06e5 346A4A32 		.ascii	"4jJ2\264\177\262g)\354g\322\177\027Y|\375\260\272@\270"
 292      B47FB267 
 292      29EC67D2 
 292      7F17597C 
 292      FDB0BA40 
 293 06fa 020B8463 		.ascii	"\002\013\204cn\343\014s\223\315/#h\036f\224\302l[\305"
 293      6EE30C73 
 293      93CD2F23 
 293      681E6694 
 293      C26C5BC5 
 294 070e 7A4E817C 		.ascii	"zN\201|\361\344}m\353e\271.\335\216\034\355\252\034"
 294      F1E47D6D 
 294      EB65B92E 
 294      DD8E1CED 
 294      AA1C
 295 0720 9D20C7D9 		.ascii	"\235 \307\331\037A\216\313\266\345\030h\220#:\320\276"
 295      1F418ECB 
 295      B6E51868 
 295      90233AD0 
 295      BE
 296 0731 1C275539 		.ascii	"\034'U9n\202\034\235?\202\034\267m\313\221G\310\001"
 296      6E821C9D 
 296      3F821CB7 
 296      6DCB9147 
 296      C801
 297 0743 ABB541CA 		.ascii	"\253\265A\312j\355N\246)\371j\015\363\323\315\335i\330"
 297      6AED4EA6 
 297      29F96A0D 
 297      F3D3CDDD 
 297      69D8
 298 0755 DFDE87B7 		.ascii	"\337\336\207\267\034q1\305\346\307>b\211+\323-q\257"
 298      1C7131C5 
 298      E6C73E62 
 298      892BD32D 
 298      71AF
 299 0767 A81AAB75 		.ascii	"\250\032\253u`\215=\323\307dK\230\012\351\324\356\367"
 299      608D3DD3 
 299      C7644B98 
 299      0AE9D4EE 
 299      F7
 300 0778 5AD5ED9F 		.ascii	"Z\325\355\237z\200\232\335k\250\346}\233\225\317\215"
ARM GAS  /tmp/ccdhjbqF.s 			page 23


 300      7A809ADD 
 300      6BA8E67D 
 300      9B95CF8D 
 301 0788 CF025053 		.ascii	"\317\002PS\037\243\025\323\015FL\327\033\021=bJ\337"
 301      1FA315D3 
 301      0D464CD7 
 301      1B113D62 
 301      4ADF
 302 079a E31537FB 		.ascii	"\343\0257\373\007\265\004?\270\230\177z;\216Y\012\354"
 302      07B5043F 
 302      B8987F7A 
 302      3B8E590A 
 302      EC
 303 07ab 6303DA1C 		.ascii	"c\003\332\034\240\022\016\364\3336upQ\214\364\362\337"
 303      A0120EF4 
 303      DB367570 
 303      518CF4F2 
 303      DF
 304 07bc 85581BDD 		.ascii	"\205X\033\335\360\274\266M\363(\036^\326\375\235pG\366"
 304      F0BCB64D 
 304      F3281E5E 
 304      D6FD9D70 
 304      47F6
 305 07ce DBDF     		.ascii	"\333\337"
 306 07d0 5889FE54 		.ascii	"X\211\376T\361\272y \320\206\036\026\356\325\306\312"
 306      F1BA7920 
 306      D0861E16 
 306      EED5C6CA 
 307 07e0 F6DE0A12 		.ascii	"\366\336\012\022\377q\314\356>\024\203\210'\231\265"
 307      FF71CCEE 
 307      3E148388 
 307      2799B5
 308 07ef BE1F44B9 		.ascii	"\276\037D\2719\023\337\204<?\240\035\224\261\320\201"
 308      3913DF84 
 308      3C3FA01D 
 308      94B1D081 
 309 07ff B7EFF619 		.ascii	"\267\357\366\031\224A\261\311s\012\232,q\364\330\276"
 309      9441B1C9 
 309      730A9A2C 
 309      71F4D8BE 
 310 080f 3B7C8FB2 		.ascii	";|\217\262\313\202_Ql\362\350\266\357xv)\307\251\260"
 310      CB825F51 
 310      6CF2E8B6 
 310      EF787629 
 310      C7A9B0
 311 0822 BDD5A7CE 		.ascii	"\275\325\247\316\204\011\376\020\264\003\317\027\226"
 311      8409FE10 
 311      B403CF17 
 311      96
 312 082f 3974DBFC 		.ascii	"9t\333\374\027l\353\336C\352>zk\377RV\341_\331\316\375"
 312      176CEBDE 
 312      43EA3E7A 
 312      6BFF5256 
 312      E15FD9CE 
 313 0844 C6883792 		.ascii	"\306\2107\222\234\313\251Y\313u\253\034m:\010\2230%"
 313      9CCBA959 
 313      CB75AB1C 
ARM GAS  /tmp/ccdhjbqF.s 			page 24


 313      6D3A0893 
 313      3025
 314 0856 E8BA6898 		.ascii	"\350\272h\230K\262\324\\\256\200)\016\377L\246]0\217"
 314      4BB2D45C 
 314      AE80290E 
 314      FF4CA65D 
 314      308F
 315 0868 0E6CDB5C 		.ascii	"\016l\333\\\223\355be\213\334j`Y\355 \246J/\320\320"
 315      93ED6265 
 315      8BDC6A60 
 315      59ED20A6 
 315      4A2FD0D0 
 316 087c 4FB23A3D 		.ascii	"O\262:=~p\251\352)\312\316\350b\333xzy\256\316\325\365"
 316      7E70A9EA 
 316      29CACEE8 
 316      62DB787A 
 316      79AECED5 
 317 0891 482B69E0 		.ascii	"H+i\340FR;^b_\0339!LT\377\217\303_\206\226A\272\002"
 317      46523B5E 
 317      625F1B39 
 317      214C54FF 
 317      8FC35F86 
 318 08a9 D295907E 		.ascii	"\322\225\220~\016\3519H\317C\3725\244\337Bz\003\322"
 318      0EE93948 
 318      CF43FA35 
 318      A4DF427A 
 318      03D2
 319 08bb 2E485F74 		.ascii	".H_t@[H_\202\364eHWA\272\026\322WI\367\266\262\213\022"
 319      405B485F 
 319      82F46548 
 319      5741BA16 
 319      D25749F7 
 320 08d3 6AF1C0D4 		.ascii	"j\361\300\324\242\256\261\327\233\346'\022\233\346<"
 320      A2AEB1D7 
 320      9BE62712 
 320      9BE63C
 321 08e2 BBDC3698 		.ascii	"\273\3346\230'\231&\033\011M6\201&\233A\033\353\364"
 321      2799261B 
 321      094D3681 
 321      269B411B 
 321      EBF4
 322 08f4 81BC2E53 		.ascii	"\201\274.S\373\214\223$\360\254E\210\035\373\342\274"
 322      FB8C9324 
 322      F0AC4588 
 322      1DFBE2BC 
 323 0904 6BB11C7D 		.ascii	"k\261\034}\306\241\255\2006\032\001S.\320\364:\351\022"
 323      C6A1AD80 
 323      361A0153 
 323      2ED0F43A 
 323      E912
 324 0916 0C272E94 		.ascii	"\014'.\224oTV6i%ce\253m\332IU\370\034\241\302\347A\205"
 324      6F545636 
 324      69256365 
 324      AB6DDA49 
 324      55F81CA1 
 325 092e 7F0215AE 		.ascii	"\177\002\025\256\007\227y\203T$\317\316\346\014\347"
 325      07977983 
ARM GAS  /tmp/ccdhjbqF.s 			page 25


 325      5424CFCE 
 325      E60CE7
 326 093d 4DF41FCC 		.ascii	"M\364\037\314\222\020\217\177\344\356<ar\340D\371T\224"
 326      92108F7F 
 326      E4EE3C61 
 326      72E044F9 
 326      5494
 327 094f 64505AF8 		.ascii	"dPZ\370\316\251{\327\301\320\261\321\201\015p+\3238"
 327      CEA97BD7 
 327      C1D0B1D1 
 327      810D702B 
 327      D338
 328 0961 42CFE70C 		.ascii	"B\317\347\014\233\347\006G\346\230\271Y\024\037 \223"
 328      9BE70647 
 328      E698B959 
 328      141F2093 
 329 0971 AC645AE7 		.ascii	"\254dZ\347^?\301\326\325\311k\363\324\231\205\334 \017"
 329      5E3FC1D6 
 329      D5C96BF3 
 329      D49985DC 
 329      200F
 330 0983 5C9B1804 		.ascii	"\\\233\030\004s4\014.\316wt\223\362!\265\015z\331\005"
 330      73340C2E 
 330      CE777493 
 330      F221B50D 
 330      7AD905
 331 0996 59A6E71B 		.ascii	"Y\246\347\033R\303\304N5l\376-\314@\267\002\320\212"
 331      52C3C44E 
 331      356CFE2D 
 331      CC40B702 
 331      D08A
 332 09a8 5E0335CF 		.ascii	"^\0035\317^\243\034\224\330\016@k\263\214jt\030\346"
 332      5EA31C94 
 332      D80E406B 
 332      B38C6A74 
 332      18E6
 333 09ba 390EFD3C 		.ascii	"9\016\375<\307\341Nd\272\273\035\314?\2602\232\206\031"
 333      C7E14E64 
 333      BABB1DCC 
 333      3FB0329A 
 333      8619
 334 09cc 0DA69328 		.ascii	"\015\246\223(\325\334\007\033\354\266\352l\332\011\223"
 334      D5DC071B 
 334      ECB6EA6C 
 334      DA0993
 335 09db 2D342EA0 		.ascii	"-4.\240C\324\271@\364\207\323\320\227)`;i\300\222lC"
 335      43D4B940 
 335      F487D3D0 
 335      9729603B 
 335      69C0926C 
 336 09f0 2F58BEC2 		.ascii	"/X\276\302\362\033VK\312\243W\261\266s{\037\306\007"
 336      F21B564B 
 336      CAA357B1 
 336      B6737B1F 
 336      C607
 337 0a02 01531FBF 		.ascii	"\001S\037\277\332\347\240;~u\300a\374\316}\020\216_"
 337      DAE7A03B 
ARM GAS  /tmp/ccdhjbqF.s 			page 26


 337      7E75C061 
 337      FCCE7D10 
 337      8E5F
 338 0a14 1DA09AAD 		.ascii	"\035\240\232\255]7\233\003\230\235F\214w\031\003\022"
 338      5D379B03 
 338      989D468C 
 338      77190312 
 339 0a24 C27C7871 		.ascii	"\302|xq\357#\312\251\306\3030\351<tG\352S\215:\034\314"
 339      EF23CAA9 
 339      C6C330E9 
 339      3C7447EA 
 339      538D3A1C 
 340 0a39 DF5123FF 		.ascii	"\337Q#\377\033\016\001\377GS\363\377L]t\263\372M\017"
 340      1B0E01FF 
 340      4753F3FF 
 340      4C5D74B3 
 340      FA4D0F
 341 0a4c 82A92EE9 		.ascii	"\202\251.\351\262\201g/\301\021\021\232E\300g \311Q"
 341      B281672F 
 341      C111119A 
 341      45C06720 
 341      C951
 342 0a5e FB935695 		.ascii	"\373\223V\225\255-\3127\231\023\020\257gm\203yt`o\223"
 342      AD2DCA37 
 342      991310AF 
 342      676D8379 
 342      74606F93 
 343 0a72 601769C0 		.ascii	"`\027i\300\254\0061\004\266\225\004\373\3126\230\236"
 343      AC063104 
 343      B69504FB 
 343      CA36989E 
 344 0a82 B37748B0 		.ascii	"\263wH\260oh\300\254v+\021\330a\022\354{\333`\0363/"
 344      6F68C0AC 
 344      762B11D8 
 344      6112EC7B 
 344      DB601E33 
 345 0a97 617A3819 		.ascii	"az8\031\317\036\203U\303q\030)OB\332\001\351\031H?\206"
 345      CF1E8355 
 345      C3711829 
 345      4F42DA01 
 345      E919483F 
 346 0aac 344633E9 		.ascii	"4F3\351:D\016\360?\000\303\007z\3471\250\333k;\367\351"
 346      3A440EF0 
 346      3F00C307 
 346      7AE731A8 
 346      DB6B3BF7 
 347 0ac1 43CAEEAF 		.ascii	"C\312\356\257a\214\305\372\260\342\340s\222\203\272"
 347      618CC5FA 
 347      B0E2E073 
 347      9283BA
 348 0ad0 6CBB1C78 		.ascii	"l\273\034xH\016\242\267\016*;\227\332A\357g\215x\264"
 348      480EA2B7 
 348      0E2A3B97 
 348      DA41EF67 
 348      8D78B4
 349 0ae3 47B3B4E9 		.ascii	"G\263\264\351\322\301\3147\236\324\300^\260\015\246"
 349      D2C1CC37 
ARM GAS  /tmp/ccdhjbqF.s 			page 27


 349      9ED4C05E 
 349      B00DA6
 350 0af2 3B7E1D6D 		.ascii	";~\035m<D\200-\266\015\226\323\303#\024_x\037|\341 "
 350      3C44802D 
 350      B60D96D3 
 350      C323145F 
 350      781F7CE1 
 351 0b07 D8FC6F90 		.ascii	"\330\374o\220\236\203\364<\244\027\365\023\322\226l"
 351      9E83F43C 
 351      A417F513 
 351      D2966C
 352 0b16 E3B8ABF4 		.ascii	"\343\270\253\364\261\004j\2423fhq\255l\333N\332vC\266"
 352      B1046AA2 
 352      33666871 
 352      AD6CDB4E 
 352      DA7643B6 
 353 0b2a DD514B67 		.ascii	"\335QKg[4\250\356\371B\033T\333a.\326F\203\230d%\272"
 353      5B34A8EE 
 353      F9421B54 
 353      DB612ED6 
 353      46839864 
 354 0b40 F163E3E7 		.ascii	"\361c\343\347\000\263\336\236#y\213\217\032;&+\243\306"
 354      00B3DE9E 
 354      23798B8F 
 354      1A3B262B 
 354      A3C6
 355 0b52 351835B6 		.ascii	"5\0305\266g\247\03658\275\214<\333i\0345n\034\205Q\243"
 355      67A71E35 
 355      38BD8C3C 
 355      DB691C35 
 355      6E1C8551 
 356 0b67 936AD4B8 		.ascii	"\223j\324\270}t\276\272RTz\233\375\300Bg\257\273\373"
 356      7D74BEBA 
 356      52547A9B 
 356      FDC04267 
 356      AFBBFB
 357 0b7a AEA344D7 		.ascii	"\256\243D\327u\3106\230G\007\326x\202\000;J\003\226"
 357      75C83698 
 357      4707D678 
 357      82003B4A 
 357      0396
 358 0b8c A4BB6F22 		.ascii	"\244\273o\"\301N\332\006\323s6\237\004\373\210\006,"
 358      C14EDA06 
 358      D373369F 
 358      04FB8806 
 358      2C
 359 0b9d 4977FF22 		.ascii	"Iw\377\"\011\026\263\015\246\347l\021\011\3669\015\230"
 359      0916B30D 
 359      A6E76C11 
 359      09F6390D 
 359      98
 360 0bae D5271C04 		.ascii	"\325'\034\004\266\204\004;o\033L\317\331R\022\354K\032"
 360      B684043B 
 360      6F1B4CCF 
 360      D95212EC 
 360      4B1A
 361 0bc0 308F3567 		.ascii	"0\2175g\313I\260k\266\301<f!\241\374\310\210\342\331"
ARM GAS  /tmp/ccdhjbqF.s 			page 28


 361      CB49B06B 
 361      B6C13C66 
 361      21A1FCC8 
 361      88E2D9
 362 0bd3 EFA05BBC 		.ascii	"\357\240[\274\016\235\325\015HoAz\033\322nHg9qZ\007"
 362      0E9DD50D 
 362      486F417A 
 362      1BD26E48 
 362      6739715A 
 363 0be8 693DA47F 		.ascii	"i=\244\177\204\3649'E\347v\225\354\334\256\333\356\212"
 363      84F43927 
 363      45E77695 
 363      ECDCAEDB 
 363      EE8A
 364 0bfa 920A92F8 		.ascii	"\222\012\222\370\213\014\317\356\204\031\337\273p\204"
 364      8B0CCFEE 
 364      8419DFBB 
 364      7084
 365 0c08 F738A432 		.ascii	"\3678\2442\254\223\353!\335\000\202l\201\364]HwA\272"
 365      AC93EB21 
 365      DD00826C 
 365      81F45D48 
 365      7741BA
 366 0c1b 07D2AF20 		.ascii	"\007\322\257 \275B\323WoK\034\374E\353q'^n\257\352\365"
 366      BD42D357 
 366      6F4B1CFC 
 366      45EB7127 
 366      5E6EAFEA 
 367 0c30 91F2B3FB 		.ascii	"\221\362\263\373^\260{&\377Rl\265\372\325d\016\234\337"
 367      5EB07B26 
 367      FF526CB5 
 367      FAD5640E 
 367      9CDF
 368 0c42 BED563A4 		.ascii	"\276\325c\244\352\325Vx}_6\265$I\017g\353H\256\"\014"
 368      EAD55678 
 368      7D5F36B5 
 368      24490F67 
 368      EB48AE22 
 369 0c57 B31A0CB3 		.ascii	"\263\032\014\263\006L\262\021\322\255\220\376\211\364"
 369      064CB211 
 369      D2AD90FE 
 369      89F4
 370 0c65 1EC34C08 		.ascii	"\036\303L\010\017\376V\026\230\347\214[\340>f\271\334"
 370      0FFE5616 
 370      98E78C5B 
 370      E03E66B9 
 370      DC
 371 0c76 128BFDF5 		.ascii	"\022\213\375\365\346^\036o\377\310\335\335\177`\356"
 371      E65E1E6F 
 371      FFC8DDDD 
 371      7F60EE
 372 0c85 6616A89F 		.ascii	"f\026\250\237\215dV\262<\362\207\201\232\235wC\316\241"
 372      8D6456B2 
 372      3CF28781 
 372      9A9D7743 
 372      CEA1
 373 0c97 1C834F35 		.ascii	"\034\203O5\302\231\255\361\272o^\3707X\256\277\350\304"
ARM GAS  /tmp/ccdhjbqF.s 			page 29


 373      C299ADF1 
 373      BA6F5EF8 
 373      3758AEBF 
 373      E8C4
 374 0ca9 E35B6BDF 		.ascii	"\343[k\337\224\343[\217E\335b\247qQ\207\377U\211KS\177"
 374      94E35B8F 
 374      45DD62A7 
 374      715187FF 
 374      55894B53 
 375 0cbe BFBBB112 		.ascii	"\277\273\261\022\037^\326\376\344\3716P\307-\315h%\031"
 375      1F5ED6FE 
 375      E4F93650 
 375      C72DCD68 
 375      2519
 376 0cd0 DACC6D98 		.ascii	"\332\314m\230`\214g\2278a\027\224&\336\027$\314\243"
 376      608C6797 
 376      38611794 
 376      26DE1724 
 376      CCA3
 377 0ce2 2A361E34 		.ascii	"*6\0364\361g\365\253*\317NJl:p\314\016\203\366\356g"
 377      F167F5AB 
 377      2ACF4E4A 
 377      6C3A70CC 
 377      0E83F6EE 
 378 0cf7 5E96E526 		.ascii	"^\226\345&l\335\035xB3F\301\346\230\367\241^\223\363"
 378      6CDD1D78 
 378      423346C1 
 378      E698F7A1 
 378      5E93F3
 379 0d0a 3E531E54 		.ascii	">S\036T\016\224\306r\2330F!\3171GR4\003&\325f7\376g"
 379      0E94C672 
 379      9B304621 
 379      CF314752 
 379      340326D5 
 380 0d22 8036033D 		.ascii	"\2006\003=ilf8\311\240\312\362Kf\0256\365\034\271>\207"
 380      696C6638 
 380      C9A0CAF2 
 380      4B661536 
 380      F51CB93E 
 381 0d37 05AF63D4 		.ascii	"\005\257c\324V:\235\256p\352\376\313\253\370o\364\364"
 381      563A9DAE 
 381      70EAFECB 
 381      ABF86FF4 
 381      F4
 382 0d48 99ACC659 		.ascii	"\231\254\306Y\261\356\356\373\014\276[\233d=\260V\357"
 382      B1EEEEFB 
 382      0CBE5B9B 
 382      643DB056 
 382      EF
 383 0d59 BC8AD4EA 		.ascii	"\274\212\324\352C\006\363G\345\237%\362,\366i\306\224"
 383      4306F347 
 383      E59F25F2 
 383      2CF669C6 
 383      94
 384 0d6a EFC4690D 		.ascii	"\357\304i\015\236}\315\231\201\217`\366\265<k\201+h"
 384      9E7DCD99 
 384      818F60F6 
ARM GAS  /tmp/ccdhjbqF.s 			page 30


 384      B53C6B81 
 384      2B68
 385 0d7c 2657F25A 		.ascii	"&W\362Z\216eL\354\370\205\251\035\345[~\325\202\310"
 385      8E654CEC 
 385      F885A91D 
 385      E55B7ED5 
 385      82C8
 386 0d8e 5FA1DF5C 		.ascii	"_\241\337\\Ce\301\025\330\024\012\213\337\000\360\032"
 386      4365C115 
 386      D8140A8B 
 386      DF00F01A 
 387 0d9e 4B53A87C 		.ascii	"KS\250|\252\246\370KC}\216SQ\"\223\204\232*\301z\023"
 387      AAA6F84B 
 387      437D8E53 
 387      51229384 
 387      9A2AC17A 
 388 0db3 CB9C8F36 		.ascii	"\313\234\2176\012\355\362\025\324E\3320\314\306$\206"
 388      0AEDF215 
 388      D445DA30 
 388      CCC62486 
 389 0dc3 B1F2FC5B 		.ascii	"\261\362\374[\346\032[,\0304\266\201JcG\023\316;7\207"
 389      E61A5B2C 
 389      1834B681 
 389      4A634713 
 389      CE3B3787 
 390 0dd7 D5374BEA 		.ascii	"\3257K\352\274\006\215YQS\005\335l\352\313[\354kl[R"
 390      BC068D59 
 390      515305DD 
 390      6CEACB5B 
 390      EC6B6C5B 
 391 0dec 8D0DCD34 		.ascii	"\215\015\3154Q\330\374\034S\205\265\032\025\266\225"
 391      51D8FC1C 
 391      5385B51A 
 391      15B695
 392 0dfb 4A61A770 		.ascii	"Ja\247p\263\241p\006\015p\255[)\314\230\253\313\252"
 392      B3A17006 
 392      0D70AD5B 
 392      29CC98AB 
 392      CBAA
 393 0e0d 952A65D4 		.ascii	"\225*e\324T]\215\273\355\207\376\356$\372R\017M\320"
 393      545D8DBB 
 393      ED87FEEE 
 393      24FA520F 
 393      4DD0
 394 0e1f 6C59EF7E 		.ascii	"lY\357~K\371\257\367^\230G\274a\320(=P\363\276\325\312"
 394      4BF9AFF7 
 394      5E9847BC 
 394      61D0283D 
 394      50F3BED5 
 395 0e34 E98B0300 		.ascii	"\351\213\003\000\264%\3078!\341\014\363\021N?\037\341"
 395      B425C738 
 395      21E10CF3 
 395      114E3F1F 
 395      E1
 396 0e45 F06988AE 		.ascii	"\360i\210\256\356\356\304i\010|\210\253\307_\315\354"
 396      EEEEC469 
 396      087C88AB 
ARM GAS  /tmp/ccdhjbqF.s 			page 31


 396      C75FCDEC 
 397 0e55 B43278CB 		.ascii	"\2642x\313NSoA\003\313\216\001\373\337\224e\267\336"
 397      4E536F41 
 397      03CB8E01 
 397      FBDF9465 
 397      B7DE
 398 0e67 677651F8 		.ascii	"gvQ\370L\243|\204\037\250\251\356\030\300\023\315tZ"
 398      4CA37C84 
 398      1FA8A9EE 
 398      18C013CD 
 398      745A
 399 0e79 526A597A 		.ascii	"RjYz\215\0255U\216C\346A\246y\215\342\014\034\363\261"
 399      8D153555 
 399      8E43E641 
 399      A6798DE2 
 399      0C1CF3B1 
 400 0e8d 793C2C30 		.ascii	"y<,0\306\3031*\331\266k\262\361\354\007\306fvd\263\242"
 400      C6C3312A 
 400      D9B66BB2 
 400      F1EC07C6 
 400      667664B3 
 401 0ea2 A6CA76BC 		.ascii	"\246\312v\274\247l\261\306\330\256\347\367\263\3176"
 401      A76CB1C6 
 401      D8AEE7F7 
 401      B3CF36
 402 0eb1 C93FE06F 		.ascii	"\311?\340o\014\364s\271\216$s9e~d\325\362\014\375|%"
 402      0CF473B9 
 402      8E247339 
 402      657E64D5 
 402      F20CFD7C 
 403 0ec6 FE3CC769 		.ascii	"\376<\307i\326\213\177m0\202&g\314T\316\277\336\274"
 403      D68B7F6D 
 403      30822667 
 403      CC54CEBF 
 403      DEBC
 404 0ed8 B1939D57 		.ascii	"\261\223\235W\327\242t\227FQ\235\326\341\377\231*j\234"
 404      D7A27497 
 404      46519DD6 
 404      E1FF992A 
 404      6A9C
 405 0eea 6E578E71 		.ascii	"nW\216q\344\346\331\277\231\322\254?h\251\333d\035\316"
 405      E4E6D9BF 
 405      99D2AC3F 
 405      68A9DB64 
 405      1DCE
 406 0efc 59638773 		.ascii	"Yc\207s\206\354\240\325\371\270\245\262,\336\033\224"
 406      86ECA0D5 
 406      F9B8A5B2 
 406      2CDE1B94 
 407 0f0c 37B79FB9 		.ascii	"7\267\237\271\362.\351\0051\030\026\233\335\212\353"
 407      F22EE905 
 407      3118169B 
 407      DD8AEB
 408 0f1b 2F138635 		.ascii	"/\023\2065\264\372,I\253\313\211V\375\230F\320\320\310"
 408      B4FA2C49 
 408      ABCB8956 
 408      FD9846D0 
ARM GAS  /tmp/ccdhjbqF.s 			page 32


 408      D0C8
 409 0f2d 45FA1589 		.ascii	"E\372\025\211.\004p\233\257\234\375 \247;\261\0065\254"
 409      2E04709B 
 409      AF9CFD20 
 409      A73BB106 
 409      35AC
 410 0f3f A87CED4C 		.ascii	"\250|\355L\234^\315r'2\2549\303g\2230|\305RL\314\226"
 410      9C5ECD72 
 410      2732AC39 
 410      C3679330 
 410      7CC5524C 
 411 0f55 E5AA3CD1 		.ascii	"\345\252<\321\212\271\253H\014L\027\304Hn\240\300\347"
 411      8AB9AB48 
 411      0C4C17C4 
 411      486EA0C0 
 411      E7
 412 0f66 8D085591 		.ascii	"\215\010U\221\2208\250\202\311,)(,\203\007\257\224\376"
 412      9038A882 
 412      C92C2928 
 412      2C8307AF 
 412      94FE
 413 0f78 BBF1933C 		.ascii	"\273\361\223<\205L\337DQD\342%!\243d\374\250\302\362"
 413      854CDF44 
 413      5144E225 
 413      21A364FC 
 413      A8C2F2
 414 0f8b 92C78B9D 		.ascii	"\222\307\213\235%Ec\213\235\217M*\233\234\006/\356\317"
 414      2545638B 
 414      9D8F4D2A 
 414      9B9C062F 
 414      EECF
 415 0f9d AD8E88   		.ascii	"\255\216\210"
 416 0fa0 B9BC187C 		.ascii	"\271\274\030|\240*T%< \360S\002\271\201*_e\265_\310"
 416      A02A5425 
 416      3C20F053 
 416      02B9812A 
 416      5F65B55F 
 417 0fb5 8D48FE40 		.ascii	"\215H\376@\225\204\010\270\252\321}\270W\032\222\244"
 417      958408B8 
 417      AAD17DB8 
 417      571A92A4 
 418 0fc5 7290F755 		.ascii	"r\220\367U\004\252\204\\\257_\230\312WWJ^ifX\210\240"
 418      04AA845C 
 418      AF5F98CA 
 418      57574A5E 
 418      69665888 
 419 0fda C66EAF57 		.ascii	"\306n\257Wm\356\342\375~Q\210D\212r+BA!\327\027\362"
 419      6DEEE2FD 
 419      7E518844 
 419      8A722B42 
 419      4121D717 
 420 0fef CFCCF50B 		.ascii	"\317\314\365\013\323sQ\303)\201P$W\022\253\253\236"
 420      D37351C3 
 420      29815024 
 420      5712ABAB 
 420      9E
 421 1000 CA45990A 		.ascii	"\312E\231\012\27627\034\022\245HnY\371\270\301\005\271"
ARM GAS  /tmp/ccdhjbqF.s 			page 33


 421      BE32371C 
 421      12A5486E 
 421      59F9B8C1 
 421      05B9
 422 1012 63C716E5 		.ascii	"c\307\026\345\"\201\246\347\203\334\225\225~\014\213"
 422      2281A6E7 
 422      83DC9595 
 422      7E0C8B
 423 1021 0A146D14 		.ascii	"\012\024m\024\320\300il\"\000\324\270\017\272\201\370"
 423      D0C0696C 
 423      2200D4B8 
 423      0FBA81F8 
 424 1031 5EA90FC2 		.ascii	"^\251\017\302\361N\032_2\276\244<\003g\313\312'L\304"
 424      F14E1A5F 
 424      32BEA43C 
 424      0367CBCA 
 424      274CC4
 425 1044 D8DED2E2 		.ascii	"\330\336\322\342QE\223\357\3009Es\336\362'\310\247\322"
 425      514593EF 
 425      C0394573 
 425      DEF227C8 
 425      A7D2
 426 1056 27A0E5D8 		.ascii	"'\240\345\330\011\205\377Q\\\224\211\360B\341`\310\217"
 426      0985FF51 
 426      5C9489F0 
 426      42E160C8 
 426      8F
 427 1067 01274C1C 		.ascii	"\001'L\0347\241\250\330\213\336\336\251f\313\306!\205"
 427      37A1A8D8 
 427      8BDEDEA9 
 427      66CBC621 
 427      85
 428 1078 7B8B8A1F 		.ascii	"{\213\212\037/),\356\247+\0333\241\254\334\025\012{"
 428      2F292CEE 
 428      A72B1B33 
 428      A1ACDC15 
 428      0A7B
 429 108a 71D30CAC 		.ascii	"q\323\014\254\246\301\005\010A\321\030\316f\372*C\276"
 429      A6C10508 
 429      41D118CE 
 429      66FA2A43 
 429      BE
 430 109b A7BC91B0 		.ascii	"\247\274\221\260 \370\263\021\021\177\2654\3237\323"
 430      20F8B311 
 430      117FB534 
 430      D337D3
 431 10aa 5789E864 		.ascii	"W\211\350d\227\225\027y\213&\225O\366\026N.\034[\334"
 431      97951779 
 431      8B26954F 
 431      F6164E2E 
 431      1C5BDC
 432 10bd 6FF4A8B2 		.ascii	"o\364\250\262r\342\331[\360\023cI\376P\357\210>\030"
 432      72E2D95B 
 432      F0136349 
 432      FE50EF88 
 432      3E18
 433 10cf C10B1058 		.ascii	"\301\013\020X\312\302P\325\324\300\264t\037\334\260"
ARM GAS  /tmp/ccdhjbqF.s 			page 34


 433      CAC250D5 
 433      D4C0B474 
 433      1FDCB0
 434 10de 56A656F2 		.ascii	"V\246V\362\323\"\310\215\004Q\014\211\221\301\251T+"
 434      D322C88D 
 434      04510C89 
 434      91C1A954 
 434      2B
 435 10ef 4A71CDFA 		.ascii	"Jq\315\372*\202R\015v\226`\265$\324x\2454\270\017\267"
 435      2A82520D 
 435      769660B5 
 435      24D478A5 
 435      34B80FB7 
 436 1103 85109919 		.ascii	"\205\020\231\031\321\334\246\257T!\012\274?\342}\272"
 436      D1DCA6AF 
 436      54210ABC 
 436      3FE27DBA 
 437 1113 5AA846E2 		.ascii	"Z\250F\342\346\370*\274\272\242!\366\220}\025\330k2"
 437      E6F82ABC 
 437      BAA221F6 
 437      907D15D8 
 437      6B32
 438 1125 1408AFE4 		.ascii	"\024\010\257\344\216\303\245\207\275UB\215\204naQ\230"
 438      8EC3A587 
 438      BD55428D 
 438      846E6151 
 438      98
 439 1136 3E860255 		.ascii	">\206\002Uq\315Q\245\343\012\307\325\240\232\301p\240"
 439      71CD51A5 
 439      E30AC7D5 
 439      A09AC170 
 439      A0
 440 1147 12C7E4EF 		.ascii	"\022\307\344\357\012\013Qu\215\177\227\024\026\003!"
 440      0A0B5175 
 440      8D7F9714 
 440      160321
 441 1156 AF821B08 		.ascii	"\257\202\033\010\271\220\212\221:\244\021\266\361+|"
 441      B9908A91 
 441      3AA411B6 
 441      F12B7C
 442 1165 2151C051 		.ascii	"!Q\300Q\216\213\275\310/|R\315\277\367\016\305;}X\020"
 442      8E8BBDC8 
 442      2F7C52CD 
 442      BFF70EC5 
 442      3B7D5810 
 443 1179 2B4114A6 		.ascii	"+A\024\246\241 \366J\216H\376Pt\015C\327pt\215pD\012"
 443      A120F64A 
 443      8E48FE50 
 443      740D43D7 
 443      70748D70 
 444 118f F2D0958F 		.ascii	"\362\320\225\217\256\002t\015F\327\020t=\210.T\257\000"
 444      AE02740D 
 444      46D71074 
 444      3D882E54 
 444      AF00
 445 11a1 D52B40F5 		.ascii	"\325+@\365\012P\275\301\250\336\340|N\034\302\211\017"
 445      0A50BDC1 
ARM GAS  /tmp/ccdhjbqF.s 			page 35


 445      A8DEE07C 
 445      4E1CC289 
 445      0F
 446 11b2 72E2504E 		.ascii	"r\342PN\034\306\211\3039q\204C\314\317CW>W)\242\333"
 446      1CC689C3 
 446      39718443 
 446      CCCF4357 
 446      3E5729A2 
 447 11c7 E0B4B017 		.ascii	"\340\264\260\027q\353\302\032\236!\210\350\036\252\364"
 447      71EBC21A 
 447      9E2188E8 
 447      1EAAF4
 448 11d6 0BA2D357 		.ascii	"\013\242\323W\301\213X\355|P\310\220\3248D/!\347\222"
 448      C18B58ED 
 448      7C50C890 
 448      D438442F 
 448      21E792
 449 11e9 943042CF 		.ascii	"\2240B\317\340\213.I\024\246F@\2178\223\026\214LC/\325"
 449      E08B2E49 
 449      14A64640 
 449      8F389316 
 449      8C4C432F 
 450 11fe F0407D8B 		.ascii	"\360@}\213\232K\027\3753\321\253\014\241& !\265\010"
 450      9A4B17FD 
 450      33D1AB0C 
 450      A1262021 
 450      B508
 451 1210 E933A4D0 		.ascii	"\3513\244\320\224\377\015g\012\323\205*)\310G\236\302"
 451      94FF0D67 
 451      0AD3852A 
 451      29C8479E 
 451      C2
 452 1221 3E3D0367 		.ascii	">=\003g\034aou\266\346I\225\201\010\352\251\372\022"
 452      1C616F75 
 452      B6E64995 
 452      8108EAA9 
 452      FA12
 453 1233 BE854BDC 		.ascii	"\276\205K\334a\357\014> \005\252\246\365A\241\031\231"
 453      61EF0C3E 
 453      2005AAA6 
 453      F541A119 
 453      99
 454 1244 06FE9606 		.ascii	"\006\376\226\006YT \204\205*\3241NC\265\220\307\343"
 454      59542084 
 454      852AD431 
 454      4E43B590 
 454      C7E3
 455 1256 FA7D306F 		.ascii	"\372}0o|%\330\031\025\206C\241JWP\361Rt\017\315\250"
 455      7C25D819 
 455      158643A1 
 455      4A5750F1 
 455      52740FCD 
 456 126b 12C4F420 		.ascii	"\022\304\364 x\3310[N\253\362\204L\326_\365[\244\002"
 456      78D9305B 
 456      4EABF284 
 456      4CD65FF5 
 456      5BA402
ARM GAS  /tmp/ccdhjbqF.s 			page 36


 457 127e 4114AA7C 		.ascii	"A\024\252|HA\351J\221\033\005-\356W\275\022\364\037"
 457      4841E94A 
 457      911B052D 
 457      EE57BD12 
 457      F41F
 458 1290 28C6B5FE 		.ascii	"(\306\265\376\003g\235\370\225[\254\361\007y\254V\267"
 458      03679DF8 
 458      955BACF1 
 458      0779AC56 
 458      B7
 459 12a1 A4E546DB 		.ascii	"\244\345F\333\355\203!\035=\244\246\006\015\013A\244"
 459      ED83211D 
 459      3DA4A606 
 459      0D0B41A4 
 460 12b1 718483F8 		.ascii	"q\204\203\370z(\025\014\2229\267p\\YI\031\002PZN\035"
 460      7A28150C 
 460      9239B770 
 460      5C594919 
 460      02505A4E 
 461 12c6 92975F83 		.ascii	"\222\227_\203\035\272\177\321\270Q\3362d^>\350-GQS$"
 461      1DBA7FD1 
 461      B851DE32 
 461      645E3EE8 
 461      2D475153 
 462 12db 4CE50A4B 		.ascii	"L\345\012K\235\343\213\312K\035\023G\225:\307\345\341"
 462      9DE38BCA 
 462      4B1D1347 
 462      953AC7E5 
 462      E1
 463 12ec 247F54A9 		.ascii	"$\177T\251ctaiz\004*:\003S}bz R\021\230*\271#B\345\324"
 463      63746169 
 463      7A042A3A 
 463      03537D62 
 463      7A205211 
 464 1307 40955FA8 		.ascii	"@\225_\250I\237.\370\244\220\330?\316\231W\251\215:"
 464      499F2EF8 
 464      A490D83F 
 464      CE9957A9 
 464      8D3A
 465 1319 21F420D6 		.ascii	"!\364 \326\340T\252\301\303\244F\310QX\232\217\256\002"
 465      E054AAC1 
 465      C3A446C8 
 465      51589A8F 
 465      AE02
 466 132b E78451A5 		.ascii	"\347\204Q\245\3718)\340\212J\035e\250\260\254\264\300"
 466      F93829E0 
 466      8A4A1D65 
 466      A8B0ACB4 
 466      C0
 467 133c 5158589A 		.ascii	"QXX\232V^ZRV\354\034=\0261\2034\354\306=S \210\375\022"
 467      565E5A52 
 467      56EC1C3D 
 467      16318334 
 467      ECC63D53 
 468 1354 DF42D552 		.ascii	"\337B\325R?m(\226\202\341\202a\017\016\3621\306\022"
 468      3F6D2896 
 468      82E18261 
ARM GAS  /tmp/ccdhjbqF.s 			page 37


 468      0F0EF231 
 468      C612
 469 1366 DCDB400E 		.ascii	"\334\333@\016\331J\031\2533\325\347@U@r\240|\272\037"
 469      D94A19AB 
 469      33D5E740 
 469      554072A0 
 469      7CBA1F
 470 1379 5A644CE1 		.ascii	"ZdL\341#\302(d\2504\357c\310u\264Z\021)\024v\341\004"
 470      23C22864 
 470      A834EF63 
 470      C875B45A 
 470      11291476 
 471 138f F1DD5F2D 		.ascii	"\361\335_-\233!\006$A\351\264\323\246\363\225\325\302"
 471      9B210624 
 471      41E9B4D3 
 471      A6F395D5 
 471      C2
 472 13a0 DDEA0BEC 		.ascii	"\335\352\013\354\012\345B0,\210\274T-\012N\011\345]"
 472      0AE54230 
 472      2C88BC54 
 472      2D0A4E09 
 472      E55D
 473 13b2 AA132851 		.ascii	"\252\023(Q\202s\375H\230\3621\201i\025n\\ql \030\220"
 473      8273FD48 
 473      98F23181 
 473      69156E5C 
 473      716C2018 
 474 13c7 7274EFC6 		.ascii	"rt\357\306\206fd'\346\020\230aeJ\021Q\347\024\241p\177"
 474      86666427 
 474      E6109861 
 474      654A1151 
 474      E714A170 
 475 13dc 62D621F2 		.ascii	"b\326!\362U\021\336'\375?\200\210_\016"
 475      5511DE27 
 475      FD3F8088 
 475      5F0E
 476              		.text
 477              		.section	.gnu.lto_.symtab.6acfb782f76cfbf5,"",%progbits
 478 0000 746D7032 		.ascii	"tmp275_init\000\000\000\000\000\000\000\000\000\000"
 478      37355F69 
 478      6E697400 
 478      00000000 
 478      00000000 
 479 0015 00001202 		.ascii	"\000\000\022\002\000\000tmp275_stop\000\000\000\000"
 479      0000746D 
 479      70323735 
 479      5F73746F 
 479      70000000 
 480 002a 00000000 		.ascii	"\000\000\000\000\000\000\000\000'\002\000\000tmp275"
 480      00000000 
 480      27020000 
 480      746D7032 
 480      3735
 481 003c 5F777269 		.ascii	"_writeConfig\000\000\000\000\000\000\000\000\000\000"
 481      7465436F 
 481      6E666967 
 481      00000000 
ARM GAS  /tmp/ccdhjbqF.s 			page 38


 481      00000000 
 482 0052 00003302 		.ascii	"\000\0003\002\000\000tmp275_readTemperature\000\000"
 482      0000746D 
 482      70323735 
 482      5F726561 
 482      6454656D 
 483 0070 00000000 		.ascii	"\000\000\000\000\000\000\000\000\000\000<\002\000\000"
 483      00000000 
 483      00003C02 
 483      0000
 484 007e 746D7032 		.ascii	"tmp275_writeTHigh\000\000\000\000\000\000\000\000\000"
 484      37355F77 
 484      72697465 
 484      54486967 
 484      68000000 
 485 0098 00000045 		.ascii	"\000\000\000E\002\000\000tmp275_writeTLow\000\000\000"
 485      02000074 
 485      6D703237 
 485      355F7772 
 485      69746554 
 486 00b2 00000000 		.ascii	"\000\000\000\000\000\000\000\000\000T\002\000\000I2"
 486      00000000 
 486      00540200 
 486      004932
 487 00c1 4353656E 		.ascii	"CSensor_init\000\000\002\000\000\000\000\000\000\000"
 487      736F725F 
 487      696E6974 
 487      00000200 
 487      00000000 
 488 00d7 00005902 		.ascii	"\000\000Y\002\000\000I2CSesnsor_stop\000\000\002\000"
 488      00004932 
 488      43536573 
 488      6E736F72 
 488      5F73746F 
 489 00f0 00000000 		.ascii	"\000\000\000\000\000\000\000\000a\002\000\000I2CSen"
 489      00000000 
 489      61020000 
 489      49324353 
 489      656E
 490 0102 736F725F 		.ascii	"sor_transact\000\000\002\000\000\000\000\000\000\000"
 490      7472616E 
 490      73616374 
 490      00000200 
 490      00000000 
 491 0118 00006402 		.ascii	"\000\000d\002\000\000"
 491      0000
 492              		.text
 493              		.section	.gnu.lto_.opts,"",%progbits
 494 0000 272D6D63 		.ascii	"'-mcpu=cortex-m4' '-mfloat-abi=hard' '-mfpu=fpv4-sp"
 494      70753D63 
 494      6F727465 
 494      782D6D34 
 494      2720272D 
 495 0033 2D643136 		.ascii	"-d16' '-mno-thumb-interwork' '-mthumb' '-O2' '-fomi"
 495      2720272D 
 495      6D6E6F2D 
 495      7468756D 
ARM GAS  /tmp/ccdhjbqF.s 			page 39


 495      622D696E 
 496 0066 742D6672 		.ascii	"t-frame-pointer' '-falign-functions=16' '-ffunction"
 496      616D652D 
 496      706F696E 
 496      74657227 
 496      20272D66 
 497 0099 2D736563 		.ascii	"-sections' '-fdata-sections' '-fno-common' '-flto' "
 497      74696F6E 
 497      73272027 
 497      2D666461 
 497      74612D73 
 498 00cc 272D6673 		.ascii	"'-fsingle-precision-constant'\000"
 498      696E676C 
 498      652D7072 
 498      65636973 
 498      696F6E2D 
 499              		.text
 500              		.section	.text.tmp275_init,"ax",%progbits
 501              		.align	2
 502              		.p2align 4,,15
 503              		.global	tmp275_init
 504              		.thumb
 505              		.thumb_func
 506              		.type	tmp275_init, %function
 507              	tmp275_init:
 508              		@ args = 0, pretend = 0, frame = 0
 509              		@ frame_needed = 0, uses_anonymous_args = 0
 510              		@ link register save eliminated.
 511 0000 2823     		movs	r3, #40
 512 0002 FFF7FEBF 		b	I2CSensor_init
 513              		.size	tmp275_init, .-tmp275_init
 514 0006 00BFAFF3 		.section	.text.tmp275_stop,"ax",%progbits
 514      0080AFF3 
 514      0080
 515              		.align	2
 516              		.p2align 4,,15
 517              		.global	tmp275_stop
 518              		.thumb
 519              		.thumb_func
 520              		.type	tmp275_stop, %function
 521              	tmp275_stop:
 522              		@ args = 0, pretend = 0, frame = 0
 523              		@ frame_needed = 0, uses_anonymous_args = 0
 524              		@ link register save eliminated.
 525 0000 FFF7FEBF 		b	I2CSesnsor_stop
 526              		.size	tmp275_stop, .-tmp275_stop
 527 0004 AFF30080 		.section	.text.tmp275_writeConfig,"ax",%progbits
 527      AFF30080 
 527      AFF30080 
 528              		.align	2
 529              		.p2align 4,,15
 530              		.global	tmp275_writeConfig
 531              		.thumb
 532              		.thumb_func
 533              		.type	tmp275_writeConfig, %function
 534              	tmp275_writeConfig:
 535              		@ args = 0, pretend = 0, frame = 8
ARM GAS  /tmp/ccdhjbqF.s 			page 40


 536              		@ frame_needed = 0, uses_anonymous_args = 0
 537 0000 10B5     		push	{r4, lr}
 538 0002 84B0     		sub	sp, sp, #16
 539 0004 0023     		movs	r3, #0
 540 0006 8DF80D10 		strb	r1, [sp, #13]
 541 000a 0093     		str	r3, [sp]
 542 000c 0124     		movs	r4, #1
 543 000e 03A9     		add	r1, sp, #12
 544 0010 0222     		movs	r2, #2
 545 0012 8DF80C40 		strb	r4, [sp, #12]
 546 0016 FFF7FEFF 		bl	I2CSensor_transact
 547 001a 04B0     		add	sp, sp, #16
 548              		@ sp needed
 549 001c 10BD     		pop	{r4, pc}
 550              		.size	tmp275_writeConfig, .-tmp275_writeConfig
 551 001e 00BF     		.section	.text.tmp275_readTemperature,"ax",%progbits
 552              		.align	2
 553              		.p2align 4,,15
 554              		.global	tmp275_readTemperature
 555              		.thumb
 556              		.thumb_func
 557              		.type	tmp275_readTemperature, %function
 558              	tmp275_readTemperature:
 559              		@ args = 0, pretend = 0, frame = 8
 560              		@ frame_needed = 0, uses_anonymous_args = 0
 561 0000 10B5     		push	{r4, lr}
 562 0002 84B0     		sub	sp, sp, #16
 563 0004 04AB     		add	r3, sp, #16
 564 0006 0022     		movs	r2, #0
 565 0008 03F8052D 		strb	r2, [r3, #-5]!
 566 000c 0222     		movs	r2, #2
 567 000e 0C46     		mov	r4, r1
 568 0010 0092     		str	r2, [sp]
 569 0012 1946     		mov	r1, r3
 570 0014 0122     		movs	r2, #1
 571 0016 03AB     		add	r3, sp, #12
 572 0018 FFF7FEFF 		bl	I2CSensor_transact
 573 001c 80B9     		cbnz	r0, .L5
 574 001e 9DF80C20 		ldrb	r2, [sp, #12]	@ zero_extendqisi2
 575 0022 9DF80D30 		ldrb	r3, [sp, #13]	@ zero_extendqisi2
 576 0026 9FED077A 		flds	s14, .L7
 577 002a 43EA0223 		orr	r3, r3, r2, lsl #8
 578 002e 1BB2     		sxth	r3, r3
 579 0030 07EE903A 		fmsr	s15, r3	@ int
 580 0034 F8EEE77A 		fsitos	s15, s15
 581 0038 67EE877A 		fmuls	s15, s15, s14
 582 003c C4ED007A 		fsts	s15, [r4]
 583              	.L5:
 584 0040 04B0     		add	sp, sp, #16
 585              		@ sp needed
 586 0042 10BD     		pop	{r4, pc}
 587              	.L8:
 588              		.align	2
 589              	.L7:
 590 0044 ABAAAA3D 		.word	1034594987
 591              		.size	tmp275_readTemperature, .-tmp275_readTemperature
 592 0048 AFF30080 		.section	.text.tmp275_writeTHigh,"ax",%progbits
ARM GAS  /tmp/ccdhjbqF.s 			page 41


 592      AFF30080 
 593              		.align	2
 594              		.p2align 4,,15
 595              		.global	tmp275_writeTHigh
 596              		.thumb
 597              		.thumb_func
 598              		.type	tmp275_writeTHigh, %function
 599              	tmp275_writeTHigh:
 600              		@ args = 0, pretend = 0, frame = 8
 601              		@ frame_needed = 0, uses_anonymous_args = 0
 602 0000 30B5     		push	{r4, r5, lr}
 603 0002 85B0     		sub	sp, sp, #20
 604 0004 0023     		movs	r3, #0
 605 0006 0C46     		mov	r4, r1
 606 0008 0D12     		asrs	r5, r1, #8
 607 000a 0093     		str	r3, [sp]
 608 000c 03A9     		add	r1, sp, #12
 609 000e 0222     		movs	r2, #2
 610 0010 8DF80D40 		strb	r4, [sp, #13]
 611 0014 8DF80C50 		strb	r5, [sp, #12]
 612 0018 FFF7FEFF 		bl	I2CSensor_transact
 613 001c 05B0     		add	sp, sp, #20
 614              		@ sp needed
 615 001e 30BD     		pop	{r4, r5, pc}
 616              		.size	tmp275_writeTHigh, .-tmp275_writeTHigh
 617              		.section	.text.tmp275_writeTLow,"ax",%progbits
 618              		.align	2
 619              		.p2align 4,,15
 620              		.global	tmp275_writeTLow
 621              		.thumb
 622              		.thumb_func
 623              		.type	tmp275_writeTLow, %function
 624              	tmp275_writeTLow:
 625              		@ args = 0, pretend = 0, frame = 8
 626              		@ frame_needed = 0, uses_anonymous_args = 0
 627 0000 30B5     		push	{r4, r5, lr}
 628 0002 85B0     		sub	sp, sp, #20
 629 0004 0023     		movs	r3, #0
 630 0006 0C46     		mov	r4, r1
 631 0008 0D12     		asrs	r5, r1, #8
 632 000a 0093     		str	r3, [sp]
 633 000c 03A9     		add	r1, sp, #12
 634 000e 0222     		movs	r2, #2
 635 0010 8DF80D40 		strb	r4, [sp, #13]
 636 0014 8DF80C50 		strb	r5, [sp, #12]
 637 0018 FFF7FEFF 		bl	I2CSensor_transact
 638 001c 05B0     		add	sp, sp, #20
 639              		@ sp needed
 640 001e 30BD     		pop	{r4, r5, pc}
 641              		.size	tmp275_writeTLow, .-tmp275_writeTLow
 642              		.comm	__gnu_lto_v1,1,1
 643              		.ident	"GCC: (GNU Tools for ARM Embedded Processors) 4.8.4 20140526 (release) [ARM/embedded-4_8-br
ARM GAS  /tmp/ccdhjbqF.s 			page 42

