ARM GAS  /tmp/ccPWYpcT.s 			page 1


   1              		.syntax unified
   2              		.cpu cortex-m4
   3              		.eabi_attribute 27, 3
   4              		.eabi_attribute 28, 1
   5              		.fpu fpv4-sp-d16
   6              		.eabi_attribute 20, 1
   7              		.eabi_attribute 21, 1
   8              		.eabi_attribute 23, 3
   9              		.eabi_attribute 24, 1
  10              		.eabi_attribute 25, 1
  11              		.eabi_attribute 26, 1
  12              		.eabi_attribute 30, 2
  13              		.eabi_attribute 34, 1
  14              		.eabi_attribute 18, 4
  15              		.thumb
  16              		.file	"uart_lld.c"
  17              		.section	.gnu.lto_.jmpfuncs.7ba27ab42e98d73b,"",%progbits
  18 0000 789C7D50 		.ascii	"x\234}P1\012\302@\020\234\331\213I\220D\343\007\304"
  18      310AC240 
  18      109CD98B 
  18      499044E3 
  18      07C4
  19 0012 C67F28D8 		.ascii	"\306\177(\330\332[\330\210(\034h#hcaJ\237\220\306\217"
  19      DA5BD888 
  19      281C6823 
  19      6863614A 
  19      9F90C68F 
  20 0026 5AB9E7E5 		.ascii	"Z\271\347\3454\201\3505;\263\314\314\336\256@\320\365"
  20      3481E835 
  20      3BB3CCCC 
  20      DEAE40D0 
  20      F5
  21 0037 D60472AD 		.ascii	"\326\004r\255\005H\012i\024_\010C\355{\002\334\000\251"
  21      05480A69 
  21      145F0843 
  21      ED7B02DC 
  21      00A9
  22 0049 E19B4486 		.ascii	"\341\233D\206r\305\263\254\312\302\022c\360QV3\353\034"
  22      72C5B3AC 
  22      CAC21263 
  22      F0515633 
  22      EB1C
  23 005b 68997A6C 		.ascii	"h\231zl\220\330\004\362\307\334\032\223\250rEK\231\002"
  23      90D804F2 
  23      C7DC1A93 
  23      A872454B 
  23      9902
  24 006d 69B0DD9D 		.ascii	"i\260\335\235\315\034\275\274\337\325\314\302Ta\352"
  24      CD1CBDBC 
  24      DFD5CCC2 
  24      5461EA
  25 007c EC912EE7 		.ascii	"\354\221.\347jO\343?y\036d\272K\003\177\263\342\255"
  25      6A4FE33F 
  25      791E64BA 
  25      4B037FB3 
  25      E2AD
  26 008e CFAABFF3 		.ascii	"\317\252\277\363S\304\206('\334\315\302\005\210A2d\221"
ARM GAS  /tmp/ccPWYpcT.s 			page 2


  26      53C48628 
  26      27DCCDC2 
  26      05884132 
  26      6491
  27 00a0 8C886CB1 		.ascii	"\214\210l\261\234O\366\033{8\237vx\001:\220.z"
  27      9C4FF61B 
  27      7B389F76 
  27      78013A90 
  27      2E7A
  28              		.text
  29              		.section	.gnu.lto_.inline.7ba27ab42e98d73b,"",%progbits
  30 0000 789C7553 		.ascii	"x\234uSMh\023A\024\376\336\354fw\333l\322\015\2021\202"
  30      4D681341 
  30      14FEDEEC 
  30      6677DB6C 
  30      D20D8231 
  31 0015 D8063107 		.ascii	"\330\0061\0071c\025D\004k\002\376\2015\007[\301\233"
  31      31631544 
  31      046B02FE 
  31      8135075B 
  31      C19B
  32 0027 C6A434A1 		.ascii	"\306\2444\241\211\2214-H/\213^\002\212,\2127\017U\241"
  32      8991342D 
  32      482F8B5E 
  32      028A2C8A 
  32      370F55A1 
  33 003b 7AF05044 		.ascii	"z\360PDPo\005\005\257\021<x\021\252\027{\360P\301\223"
  33      506F0505 
  33      AF113C78 
  33      11AA177B 
  33      F050C193 
  34 004f 276766F3 		.ascii	"'gf\363\267i\334\303{ov\3367\3377\357\275a`\030\366"
  34      B769DCC3 
  34      7B6F76DE 
  34      37DF37EF 
  34      BD616018 
  35 0064 FDD2800B 		.ascii	"\375\322\200\013\302;\300\356]D \021\213_0V\3673\034"
  35      C23BC0EE 
  35      5D442011 
  35      8B5F3056 
  35      F7331C
  36 0077 7C758FE9 		.ascii	"|u\217\3512\2130\361\033\244\311]\315UI\332\252\357"
  36      328B30F1 
  36      1BA4C95D 
  36      CD5549DA 
  36      AAEF
  37 0089 32D6F1CD 		.ascii	"2\326\361\315\307\021?\235\266L\335\267\322X*\264\244"
  37      C7113F9D 
  37      B64CDDB7 
  37      D2582AB4 
  37      A4
  38 009a 7154E8C8 		.ascii	"qT\350\310\223\030\216\234\"\346C\025\231\236{\373:"
  38      93188E9C 
  38      22E64315 
  38      999E7BFB 
  38      3A
  39 00ab 04FBC5B9 		.ascii	"\004\373\305\271\000^f\206\005\257\227\323\220L\366"
ARM GAS  /tmp/ccPWYpcT.s 			page 3


  39      005E6686 
  39      05AF97D3 
  39      904CF6
  40 00ba 03B47163 		.ascii	"\003\264qc\342\341'\202y\347@\220\361\217&\031\205\225"
  40      E2E12782 
  40      79E74090 
  40      F18F2619 
  40      8595
  41 00cc 60CD5660 		.ascii	"`\315V`\335Q.\024\023\307y9\261F\3623H|2%\365\375\271"
  41      DD512E14 
  41      13C77939 
  41      B146F233 
  41      487C3225 
  42 00e3 89F0FB2C 		.ascii	"\211\360\373,\203\261\235\356Q\242\003\302\241\326\300"
  42      83B19DEE 
  42      51A203C2 
  42      A1D6C0
  43 00f2 9DC79562 		.ascii	"\235\307\225bc\352\3077\023\366\227\223\377\273\261"
  43      63EAC737 
  43      13F69793 
  43      FFBBB1
  44 0101 BC957F86 		.ascii	"\274\225\177\206\201x\242C\027\361\316b\344\353\341"
  44      8178A243 
  44      17F1CE62 
  44      E4EBE1
  45 0110 01362FE7 		.ascii	"\0016/\347\223v%\232\260\034\002\023I~Q\273\262,\030"
  45      9376259A 
  45      B01C0213 
  45      497E51BB 
  45      B22C18
  46 0123 71525DEC 		.ascii	"qR]\354\374\247\321\356\346(Fbb\323\332\230\032@\331"
  46      FCA7D1EE 
  46      E6284662 
  46      62D3DA98 
  46      1A40D9
  47 0136 984C9089 		.ascii	"\230L\220\211\371\253T&\223dkK\275p~\005\177\335\246"
  47      F9AB5426 
  47      93646B4B 
  47      BD707E05 
  47      7FDDA6
  48 0149 BB7977ED 		.ascii	"\273yw\355~\242LZ\225\374\231(\345\351)\255\250\266"
  48      7EA24C5A 
  48      95FC9928 
  48      E5E929AD 
  48      A8B6
  49 015b CB2C423B 		.ascii	"\313,B;t)\314Zc\260\266\323\352\242\031\206P3\225\201"
  49      7429CC5A 
  49      63B0B6D3 
  49      EAA21986 
  49      50339581 
  50 016f BE157649 		.ascii	"\276\025vI\024 \3412GVCyh\027\345\"\374H\306\346\033"
  50      1420E132 
  50      47564379 
  50      6817E522 
  50      FC48C6E6 
  51 0184 1927D6B2 		.ascii	"\031'\326\262\201\306\332\020[Bj(*\003\335\313\001\242"
  51      81C6DA10 
ARM GAS  /tmp/ccPWYpcT.s 			page 4


  51      5B426A28 
  51      2A03DDCB 
  51      01A2
  52 0196 EAFD8B08 		.ascii	"\352\375\213\010b\0212\332\342YO<\353\023\277\261\276"
  52      621132DA 
  52      E2594F3C 
  52      EB13BFB1 
  52      BE
  53 01a7 1094FE6C 		.ascii	"\020\224\376l@\272\331\251X\237d\366@\023\202\244\205"
  53      40BAD9A9 
  53      589F64F6 
  53      401382A4 
  53      85
  54 01b8 FEC490EA 		.ascii	"\376\304\220\352\375r\012j)Oo\367%\340\243\210\330\355"
  54      FD720A6A 
  54      294F6FF7 
  54      25E0A388 
  54      D8ED
  55 01ca 715825D6 		.ascii	"qX%\326-\312u#\272^\0356\377b\350\265wq5\364c\210\235"
  55      2DCA7523 
  55      BA5E1D36 
  55      FF62E8B5 
  55      777135F4 
  56 01e1 A0CEB3D1 		.ascii	"\240\316\263\321\3676?\030;\000\352\011\3569\335\236"
  56      F7363F18 
  56      3B00EA09 
  56      EE39DD9E 
  57 01f1 74D727D0 		.ascii	"t\327'\320S\255\227&\314fj05\206}\037\207\317&\367~"
  57      53AD9726 
  57      CC666A30 
  57      35867D1F 
  57      87CF26F7 
  58 0206 EE440467 		.ascii	"\356D\004g\023\347y\251V\235\343\205Z\3616/\316-\363"
  58      13E779A9 
  58      569DE385 
  58      5AF1362F 
  58      CE2DF3
  59 0219 42A97CA3 		.ascii	"B\251|\243\\[\344\215\372\322\315\005.\202R\276\302"
  59      5C5BE48D 
  59      FAD2CD05 
  59      2E8252BE 
  59      C2
  60 022a 6FD5EA8D 		.ascii	"o\325\352\215E>3{\351\330Q>=}\206_\231\311^\236]\236"
  60      453E337B 
  60      E9D8513E 
  60      3D7D865F 
  60      99C95E9E 
  61 0240 E44BF97A 		.ascii	"\344K\371z\343Z\245RL\027\360\017N\343\232 "
  61      E35AA552 
  61      4C17F00F 
  61      4EE39A20 
  62              		.text
  63              		.section	.gnu.lto_.pureconst.7ba27ab42e98d73b,"",%progbits
  64 0000 789C6362 		.ascii	"x\234cb`bPd\200\000\001\006\006F)&)f)\026)V)6)v)\016"
  64      60625064 
  64      80000106 
  64      06462926 
ARM GAS  /tmp/ccPWYpcT.s 			page 5


  64      29662916 
  65 001c 092E091E 		.ascii	"\011.\011\036)^I>)~)\001)A)\000$\201\002<"
  65      295E493E 
  65      297E2901 
  65      29412900 
  65      2481023C 
  66              		.text
  67              		.section	.gnu.lto_translate_errors.7ba27ab42e98d73b,"",%progbits
  68 0000 789C6590 		.ascii	"x\234e\220\317k\023A\024\307\337\233\231\375\275)Q\360"
  68      CF6B1341 
  68      14C7DF9B 
  68      99FDBD29 
  68      51F0
  69 0012 E2418297 		.ascii	"\342A\202\227\336\034\324\177@A\020\244\005\261\011"
  69      DE1CD47F 
  69      404110A4 
  69      05B109
  70 0021 E8496212 		.ascii	"\350Ib\0226\301\324H\222\026\012B7$\207\036<\024Q\301"
  70      36C1D448 
  70      92160A42 
  70      3724871E 
  70      3C1451C1 
  71 0035 9B41F007 		.ascii	"\233A\360\007\024\202'-\366\320\243\007\025$\365\340"
  71      1482272D 
  71      F6D0A307 
  71      1524F5E0 
  72 0045 2D20DE72 		.ascii	"- \336r\027A\210of\177iw`\347\315\373\356\354\367\363"
  72      1741886F 
  72      667F6977 
  72      60E7CDFB 
  72      EEECF7F3 
  73 0059 7DCB80C1 		.ascii	"}\313\200\301\361\365\224\236\353\034`\225*\026\000"
  73      F1F5949E 
  73      EB1C6095 
  73      2A1600
  74 0068 D9EE1780 		.ascii	"\331\356\027\200\201\315\030\337Y\206\320\025j\3679"
  74      81CD18DF 
  74      5986D015 
  74      6AF739
  75 0077 8A4816CC 		.ascii	"\212H\026\314\320\262\251e\003\315H6\231\245e[\313\026"
  75      D0B2A965 
  75      03CD4836 
  75      99A5655B 
  75      CB16
  76 0089 DA916C33 		.ascii	"\332\221l3G\313\256\226\035t#\331e\336\221$\331?8C\262"
  76      47CBAE96 
  76      1D7423D9 
  76      65DE9124 
  76      D93F3843 
  77 009e 877E24FB 		.ascii	"\207~$\373\210\352\000\010\333\214\013\303\264l\307"
  77      88EA0008 
  77      DB8C0BC3 
  77      B46CC7
  78 00ad F57CDCBE 		.ascii	"\365|\334\276\205*'\236\205q\030>\232\375|\371\033\237"
  78      852A279E 
  78      8571183E 
  78      9AFD7CF9 
ARM GAS  /tmp/ccPWYpcT.s 			page 6


  78      1B9F
  79 00bf 8587A3E7 		.ascii	"\205\207\243\347\341\237\305\002\261\2054\3235\204\032"
  79      E19FC502 
  79      B18534D3 
  79      35841A
  80 00ce C24D6AB0 		.ascii	"\302Mj\260\244\013\023\377\0179a\207\263\305bo\372\372"
  80      A40B13FF 
  80      0F396187 
  80      B3C5626F 
  80      FAFA
  81 00e0 C77B3C79 		.ascii	"\307{<y\002\241\212c\362cq\345q\025q5\342j\342:\202"
  81      02A18A63 
  81      F26371E5 
  81      71157135 
  81      E26AE23A 
  82 00f5 052DE4B6 		.ascii	"\005-\344\266\332\234XvU\343\305\215\257\232B\334,\305"
  82      DA9C5876 
  82      55E3C58D 
  82      AF9A42DC 
  82      2CC5
  83 0107 B5A844C2 		.ascii	"\265\250D\302\0320\012\303\335R$\202\312H\253L\273\232"
  83      1A300AC3 
  83      DD522482 
  83      CA48AB4C 
  83      BB9A
  84 0119 B3824C55 		.ascii	"\263\202LU\376\031\206\037\206\277\036\237\256\342\013"
  84      FE19861F 
  84      86BF1E9F 
  84      AEE20B
  85 0128 3420C062 		.ascii	"4 \300b\200\246\232\201\240\000\037a4\037\024\322WZ"
  85      80A69A81 
  85      A0001F61 
  85      341F14D2 
  85      575A
  86 013a FF77B032 		.ascii	"\377w\2602\265;\313\274\202\"\363Zd^V\342\2059/\353"
  86      B53BCBBC 
  86      8222F35A 
  86      645E56E2 
  86      85392FEB 
  87 014e 98D77740 		.ascii	"\230\327w@\245\320\211\035L\037\350c\021\370|ZWI\015"
  87      A5D0891D 
  87      4C1FE863 
  87      11F87C5A 
  87      57490D
  88 0161 0521F3FD 		.ascii	"\005!\363\375\341\370Tb\340\004\250\277\020\311\277"
  88      E1F85462 
  88      E004A8BF 
  88      10C9BF
  89 0170 AEA09985 		.ascii	"\256\240\231\205x\365$\015a'!X.\204\235\013\301\310"
  89      78F5240D 
  89      61272158 
  89      2E849D0B 
  89      C1C8
  90 0182 5520B91B 		.ascii	"U \271\033\017\277i\264\225\242\337\244h/@\246\321v"
  90      0FBF69B4 
  90      95A2DFA4 
  90      682F40A6 
ARM GAS  /tmp/ccPWYpcT.s 			page 7


  90      D176
  91 0194 8AB633F4 		.ascii	"\212\2663\364$C\273\011Z\344\320n\016\315\311\325$\264"
  91      2443BB09 
  91      5AE4D06E 
  91      0ECDC9D5 
  91      24B4
  92 01a6 67ED4568 		.ascii	"g\355Eh'E\277M\321\205\000\271F\227R\264\233\241\337"
  92      2745BF4D 
  92      D18500B9 
  92      469752B4 
  92      9BA1DF
  93 01b9 65683F41 		.ascii	"eh?A\207\371\261\375\034[\220\255M\354\202\363)b{p$"
  93      87F9B1FD 
  93      1C5B90AD 
  93      4DEC82F3 
  93      29627B70 
  94 01ce 23F67ECA 		.ascii	"#\366~\312^\012Ph\366\245\224\355k\366W\030\314&\215"
  94      5E0A5068 
  94      F6A594ED 
  94      6BF65718 
  94      CC268D
  95 01e1 E49A1159 		.ascii	"\344\232\021Y\032t\333%\313%o\256,\313\210\352\256\012"
  95      1A74DB25 
  95      CB256FAE 
  95      2CCB88EA 
  95      AE0A
  96 01f3 7355363B 		.ascii	"sU6;\353\015Y\353\324\267d\275\261)k\315\326\235V\247"
  96      EB0D59EB 
  96      D4B764BD 
  96      B1296BCD 
  96      D69D56A7 
  97 0207 27FBDD8D 		.ascii	"'\373\335\215{w%\035\232\325\266\274\337\351\366{r\255"
  97      7B77251D 
  97      9AD5B6BC 
  97      DFE9F67B 
  97      72AD
  98 0219 BC7AF182 		.ascii	"\274z\361\202\\Y\271\"+k\227o\2247\317\313\215j\267"
  98      5C59B922 
  98      2B6B976F 
  98      9437CFCB 
  98      8D6AB7
  99 022c 7FBBDDAE 		.ascii	"\177\273\335\256\237\253\001\357\365{\177\001\265M\341"
  99      9FAB01EF 
  99      F57B7F01 
  99      B54DE1
 100 023b 73       		.ascii	"s"
 101              		.text
 102              		.section	.gnu.lto_usart_stop.7ba27ab42e98d73b,"",%progbits
 103 0000 789C9592 		.ascii	"x\234\225\222Mh\023Q\020\307g\336~&\233\244\233\226"
 103      4D681351 
 103      10C767DE 
 103      7E269BA4 
 103      9B96
 104 0012 264D4341 		.ascii	"&MCA\017^,\270\250WE\002\202\024\352\305&\240^J\232"
 104      0F5E2CB8 
 104      A8574502 
 104      8214EAC5 
ARM GAS  /tmp/ccPWYpcT.s 			page 8


 104      26A05E4A 
 105 0027 9434981A 		.ascii	"\2244\230\032I\323\202\247&\232\203\007\017=\212\236"
 105      49D382A7 
 105      269A8307 
 105      0F3D8A9E 
 106 0037 BC0AB51E 		.ascii	"\274\012\265\036\013\205\372qQ\020\005o\322S\257B\361"
 106      0B85FA71 
 106      5110056F 
 106      D253AF42 
 106      F1
 107 0048 DC9371E6 		.ascii	"\334\223q\346\355f\023\263\253\211\013\371\277\315\233"
 107      ED6613B3 
 107      AB890BF9 
 107      BFCD9B
 108 0057 FDCD9B99 		.ascii	"\375\315\233\231\367\027 `\370Y\246\337\025\035`\201"
 108      F7172060 
 108      F859A6DF 
 108      151D6081 
 109 0067 568C008A 		.ascii	"V\214\000\212\235\257\000mS\240\342\276(\302|\372\021"
 109      9DAF006D 
 109      53A0E2BE 
 109      28C27CFA 
 109      11
 110 0078 A015553B 		.ascii	"\240\025U;\006\264b\246\273\237SQs\343\2320\334\270"
 110      06B462A6 
 110      BB9F5351 
 110      73E39A30 
 110      DCB8
 111 008a 2EE386BB 		.ascii	".\343\206\273\237\323\021y\005\204m\241\230\252f\350"
 111      9FD31179 
 111      05846DA1 
 111      98AA66E8 
 112 009a B87D07E5 		.ascii	"\270}\007\345\211{\342\335q\267\373\372\373\347\335"
 112      897BE2DD 
 112      71B7FBFA 
 112      FBE7DD
 113 00a9 13DC1367 		.ascii	"\023\334\023g\005\256#(PEPIP#\021:\213\311\022a\211"
 113      05AE2328 
 113      50455049 
 113      5023113A 
 113      8BC91261 
 114 00be 92281689 		.ascii	"\222(\026\211\032#\321\342,\011\016\330\214%\031\233"
 114      1A23D1E2 
 114      2C090ED8 
 114      8C25199B 
 115 00ce E4BF532C 		.ascii	"\344\277S,\323,)\2264c3\214e\230\230e\311r`\216\204"
 115      D32C2996 
 115      3463338C 
 115      65989865 
 115      C972608E 
 116 00e3 5A060D3A 		.ascii	"Z\006\015:\255\326\316\031\200\222\254,OJM\024P\320"
 116      ADD6CE19 
 116      8092AC2C 
 116      4F4A4D14 
 116      50D0
 117 00f5 A27C8147 		.ascii	"\242|\201GG\247\007\231\"\276\244\232*\250\314\303y"
 117      47A70799 
ARM GAS  /tmp/ccPWYpcT.s 			page 9


 117      22BEA49A 
 117      2AA8CCC3 
 117      79
 118 0106 3AEC053C 		.ascii	":\354\005<\307*\032\025\024\267i5eC+\330\033&1w{\200"
 118      C72A1A15 
 118      14B76935 
 118      65432BD8 
 118      1B263177 
 119 011c 3A0FAF5A 		.ascii	":\017\257Zv\025#.\022\245\024\214\200\207\240\217|\360"
 119      7615232E 
 119      12A5148C 
 119      8087A08F 
 119      7CF0
 120 012e 118D914E 		.ascii	"\021\215\221N\233 \313\205b\224\206\241\210\007\011"
 120      9B20CB85 
 120      629486A1 
 120      880709
 121 013d 1F7A7CA0 		.ascii	"\037z|\240\364(\235@\376H\320T\273\023n\312\00578^\276"
 121      F4289D40 
 121      FE48D054 
 121      BB136ECA 
 121      0537385E 
 122 0152 8A1C063D 		.ascii	"\212\034\006=\005T\200nM\031\254\311\2249\360\377J\212"
 122      0554806E 
 122      4D19ACC9 
 122      9439F0FF 
 122      4A8A
 123 0164 10274BE2 		.ascii	"\020'K\342.?A\347\004\375\210\334\0364`\236\246H\016"
 123      2E3F41E7 
 123      04FD88DC 
 123      1E34609E 
 123      A6480E
 124 0177 C202AADE 		.ascii	"\302\002\252\336\330\375\263\243\336\010\343\341#TB"
 124      D8FDB3A3 
 124      DE08E3E1 
 124      235442
 125 0186 A66E7948 		.ascii	"\246nyH\"\034Q\373\310O\277Zj\311\222\015\354\372[q"
 125      221C51FB 
 125      C84FBF5A 
 125      6AC9920D 
 125      ECFA5B71 
 126 019a 86B4AB1C 		.ascii	"\206\264\253\034\034\3728A\301\301\021\3239m9\036*\227"
 126      1CFA3841 
 126      C1C111D3 
 126      396D391E 
 126      2A97
 127 01ac A1B837D2 		.ascii	"\241\2707\322\204\344\216\236\034\372\255\333\377r\220"
 127      84E48E9E 
 127      1CFAADDB 
 127      FF7290
 128 01bb 16D24B32 		.ascii	"\026\322K2\340 {\224\203&Cn<9\362\272\246\010\034\337"
 128      E0207B94 
 128      8326436E 
 128      3C39F2BA 
 128      A6081CDF 
 129 01cf 4121F928 		.ascii	"A!\371(E\317AZ\300A\323A\007\215.)E\\\270\203R!\016"
 129      45CF415A 
ARM GAS  /tmp/ccPWYpcT.s 			page 10


 129      C041D341 
 129      078D2E29 
 129      455CB883 
 130 01e6 323C07E9 		.ascii	"2<\007\351\303\016J\007\034d\217r\320L\300A\366H\007"
 130      C30E4A07 
 130      1C648F72 
 130      D04CC041 
 130      F64807
 131 01f9 65081B72 		.ascii	"e\010\033r\320\254\357\240\314\320\307Y\012\376\305"
 131      D0ACEFA0 
 131      CCD0C759 
 131      0AFEC5
 132 0208 41E94107 		.ascii	"A\351A\007e]\007\235\036\276\367{\237\223\026\322\303"
 132      655D079D 
 132      1EBEF77B 
 132      9F9316D2 
 132      C3
 133 0219 2DA4F7FD 		.ascii	"-\244\367\375\260\377\306\032\274\276\3265\177\370\023"
 133      B0FFC61A 
 133      BCBED635 
 133      7FF813
 134 0228 948421DD 		.ascii	"\224\204!\335\203\014\271\362\216\325c\237\275\375!"
 134      830CB9F2 
 134      8ED5639F 
 134      BDFD21
 135 0237 C6A4CD20 		.ascii	"\306\244\315 \275?>\035\371\223\376\006\355\343_\347"
 135      BD3F3E1D 
 135      F993FE06 
 135      EDE35FE7 
 136 0247 5CB67FB5 		.ascii	"\\\266\177\265HW\312\267}\303Y\253\257\257:\245z\371"
 136      4857CAB7 
 136      7DC359AB 
 136      AFAF3AA5 
 136      7AF9
 137 0259 A1535EDD 		.ascii	"\241S^\335rJk\325\225j}\303i66\357\337s\350e\255Xs\036"
 137      724A6BD5 
 137      956A7DC3 
 137      693636EF 
 137      DF73E865 
 138 0271 D41BCD0D 		.ascii	"\324\033\315\015g)\177\363\362%gq\361\272SX\312\335"
 138      67297FF3 
 138      F2256771 
 138      F1BA5358 
 138      CADD
 139 0283 CA6F5D74 		.ascii	"\312o]t6\213\215\346r\255V\276P\202\337\032\233M\230"
 139      368B8DE6 
 139      72AD56BE 
 139      5082DF1A 
 139      9B4D98
 140              		.text
 141              		.section	.gnu.lto_usart_start.7ba27ab42e98d73b,"",%progbits
 142 0000 789C9D56 		.ascii	"x\234\235V[h\\U\024\335\373>\346q33\235d\2221\023\323"
 142      5B685C55 
 142      14DDFB3E 
 142      E6713333 
 142      9D649231 
 143 0016 A6246DF3 		.ascii	"\246$m\363\202\216\251\010~j\021D\251 6\021[\004M'a"
ARM GAS  /tmp/ccPWYpcT.s 			page 11


 143      828EA908 
 143      7E6A1144 
 143      A9203611 
 143      5B044D27 
 144 002b 329A3892 		.ascii	"2\2328\222&\221\332\217\334\351D)\266\206\251 \244-"
 144      2691DA8F 
 144      DCE94429 
 144      B686A920 
 144      A42D
 145 003d 688A681F 		.ascii	"h\212h\037\012*JI>\204\030\2124\240\325R\301t\350G\352"
 145      0A2A4A49 
 145      3E84188A 
 145      34A0D552 
 145      C174E847 
 146 0052 87295552 		.ascii	"\207)UR\255\"5\037\035\367\276\347\236;\017\223f\342"
 146      AD22351F 
 146      1DF7BEE7 
 146      9E3B0F93 
 146      66E2
 147 0064 85EC7BCF 		.ascii	"\205\354{\3179{\255\263\326>\217\211\002\012\224>)\372"
 147      397BADB3 
 147      D63E8F89 
 147      020A943E 
 147      29FA
 148 0076 0B5500BC 		.ascii	"\013U\000\274Ho\254\000T2\227\250\323\243(\332\265\012"
 148      486FAC00 
 148      543297A8 
 148      D3A328DA 
 148      B50A
 149 0088 300DF5CB 		.ascii	"0\015\365\313Y\000\323\247\332M]45t\2114]~\270\024\217"
 149      5900D3A7 
 149      DA4D5D34 
 149      35748934 
 149      5D7EB814 
 150 009d 95E01609 		.ascii	"\225\340\026\011n\364\210~\217b\374\355\246~\357\211"
 150      6EF4887E 
 150      8F62FCED 
 150      A67EEF89 
 151 00ad 6FB8DF8B 		.ascii	"o\270\337\213\206\3507\020\371\003\020F\025U\323]n\217"
 151      86E83710 
 151      F9031046 
 151      1555D35D 
 151      6E8F
 152 00bf D7C0D13D 		.ascii	"\327\300\321=\310\222\364F8e\232\357,\274\261t<\362"
 152      C892F446 
 152      38659AEF 
 152      2CBCB174 
 152      3CF2
 153 00d1 D6E4A18C 		.ascii	"\326\344\241\214y7\227\303\004\222\370'\021b\010\317"
 153      793797C3 
 153      0492F827 
 153      116208CF 
 154 00e1 5103375B 		.ascii	"Q\0037[/E+v#\2203\267/\03552\251\303f.7j\341\236.\023"
 154      2F452B76 
 154      239033B7 
 154      2F1D3532 
 154      A9C3662E 
ARM GAS  /tmp/ccPWYpcT.s 			page 12


 155 00fb F7FEF878 		.ascii	"\367\376\370x\2559\231\2223\252\012<\233G\006\005RY"
 155      AD399992 
 155      33AA0A3C 
 155      9B470605 
 155      5259
 156 010d 11F9F9F8 		.ascii	"\021\371\371\370\273\0213\257US`o\231s\036;2^\210\324"
 156      BB1133AF 
 156      5553606F 
 156      99731E3B 
 156      325E88D4 
 157 0121 15787E2D 		.ascii	"\025x~-\344\247\312\314B.\367\333\037\277\377\234\305"
 157      E4A7CACC 
 157      422EF7DB 
 157      1FBFFF9C 
 157      C5
 158 0132 D00308DD 		.ascii	"\320\003\010\335\370!6\202\206\003\010:5NS\303\015$"
 158      F8213682 
 158      8603083A 
 158      354E53C3 
 158      0D24
 159 0144 C243C1E5 		.ascii	"\302C\301\345\245\000\006\007\0377\375\374\025\340\020"
 159      A5000607 
 159      1F37FDFC 
 159      15E010
 160 0153 A4D45394 		.ascii	"\244\324S\224ZI\357\017\350\035\342\341j\012\356\032"
 160      5A49EF0F 
 160      E81DE2E1 
 160      6A0AEE1A 
 161 0163 0E61CEA9 		.ascii	"\016a\316\251\345\257\010\207:n\326S\360l\344\346&\016"
 161      E5AF0887 
 161      3A6ED653 
 161      F06CE4E6 
 161      260E
 162 0175 0DDCD748 		.ascii	"\015\334\327H\301\333D\301\330B\241b+\005\3376\036h"
 162      C1DB44C1 
 162      D842A162 
 162      2B05DF36 
 162      1E68
 163 0187 E6D042E4 		.ascii	"\346\320B\344g\211\274\225\033m\034\3329\360*\303\230"
 163      6789BC95 
 163      1B6D1CDA 
 163      39F02AC3 
 163      98
 164 0198 6966360B 		.ascii	"if6\013\355B4\260oz:)\362\356\350B\205\337\352wp(;\361"
 164      ED4234B0 
 164      6F7A3A29 
 164      F2EEE842 
 164      85DFEA77 
 165 01b0 CB65A51B 		.ascii	"\313e\245\033?F\035\342\250\267\3039\223\236\327\310"
 165      3F461DE2 
 165      A8B7C339 
 165      939ED7C8 
 166 01c0 E3493841 		.ascii	"\343I8A\025\362\307Q\343J\005\254\372\354CY\251\357"
 166      15F2C751 
 166      E34A05AC 
 166      FAEC4359 
 166      A9EF
ARM GAS  /tmp/ccPWYpcT.s 			page 13


 167 01d2 616CE1E4 		.ascii	"al\341\344i\267\000\002\034\204e\363\260\031$\0231\024"
 167      69B70002 
 167      1C8465F3 
 167      B0192413 
 167      3114
 168 01e4 39844BE0 		.ascii	"9\204K\340\006\000\236\342\306\"\312\031\334\355\320"
 168      06009EE2 
 168      C622CA19 
 168      DCEDD0
 169 01f3 B626F945 		.ascii	"\266&\371E\270\260\230\362;\020N\321\314\3111\263p\265"
 169      B8B098F2 
 169      3B104ED1 
 169      CCC931B3 
 169      70B5
 170 0205 BA50053A 		.ascii	"\272P\005:\022\252\225{\014K\222\317\224&k\360S\215"
 170      12AA957B 
 170      0C4B92CF 
 170      94266BF0 
 170      538D
 171 0217 65F7CECD 		.ascii	"e\367\316\3159M&\373,1\256\225\305H5\014\372,,!~\256"
 171      394D26FB 
 171      2C31AE95 
 171      C548350C 
 171      FA2C2C21 
 172 022d 10F90C0A 		.ascii	"\020\371\014\012P%\2210\310e\203\024\007\224~;}\323"
 172      50259130 
 172      C8658314 
 172      07947E3B 
 172      7DD3
 173 023f 5115E01C 		.ascii	"Q\025\340\0340\227\337la\012\036\236\235\313\330\305"
 173      3097DF6C 
 173      610A1E9E 
 173      9DCBD8C5 
 174 024f 63C2B194 		.ascii	"c\302\261\224\351O`\225\340\014\321:X.lN\325\256g@z"
 174      E94F6095 
 174      E00CD13A 
 174      582E6C4E 
 174      D5AE6740 
 175 0264 D161FA61 		.ascii	"\321a\372a\313\313\324\257y/\236\365{\361\376\307\213"
 175      CBCBD4AF 
 175      792F9EF5 
 175      7BF1FEC7 
 175      8B
 176 0275 A70C2F86 		.ascii	"\247\014/\206\360\362U\272\232)\376\247\027Czq\331\373"
 176      F0F255BA 
 176      9A29FEA7 
 176      17437A71 
 176      D9FB
 177 0287 70363BB1 		.ascii	"p6;\261\024\221S\004m\236\207V\345\321\034m\263\331"
 177      14915304 
 177      6D9E8756 
 177      E5D11C6D 
 177      B3D9
 178 0299 A93CB072 		.ascii	"\251<\260rM\240\236\007N\315/\315a\221n\357\032\363"
 178      4DA09E07 
 178      4ECD2FCD 
 178      61916EEF 
ARM GAS  /tmp/ccPWYpcT.s 			page 14


 178      1AF3
 179 02ab 714F95AC 		.ascii	"qO\225\254\343\374\2559\347\334\204\312.~@B\252\355"
 179      E3FCAD39 
 179      E7DC84CA 
 179      2E7E4042 
 179      AAED
 180 02bd E2573BC5 		.ascii	"\342W;\305\017\025\026\337\225/\376t\372\256S\374\032"
 180      0F1516DF 
 180      952FFE74 
 180      FAAE53FC 
 180      1A
 181 02ce 02729AFB 		.ascii	"\002r\232\373\021A\270\244\312\2210\015\212\305\370"
 181      1141B8A4 
 181      CA91300D 
 181      8AC5F8
 182 02dd C155A629 		.ascii	"\301U\246)\267\275\030a\241\355\316\2559\207\255\366"
 182      B7BD1861 
 182      A1EDCEAD 
 182      3987ADF6 
 183 02ed DEEA3C85 		.ascii	"\336\352<\205\352>\362IT\204\200\226\272\257\261T^\035"
 183      EA3EF249 
 183      54848096 
 183      BAAFB154 
 183      5E1D
 184 02ff 8DAE539E 		.ascii	"\215\256S\236\327\226W'\344M\335\276\356\324\273\336"
 184      D7965727 
 184      E44DDDBE 
 184      EED4BBDE 
 185 030f 9657B3B2 		.ascii	"\226W\263\262<{w\225\334#\365\234\022\206\202\247\223"
 185      3C7B7795 
 185      DC23F59C 
 185      128682A7 
 185      93
 186 0320 4AC07748 		.ascii	"J\300wH\027\031\222\327\341\374\237\371*l\274w\025*"
 186      171992D7 
 186      E1FC9FF9 
 186      2A6CBC77 
 186      152A
 187 0332 0AABF092 		.ascii	"\012\253\360\222\004m\"\\\234\027\275\310\177\003\015"
 187      046D225C 
 187      9C17BDC8 
 187      7F030D
 188 0341 58FE9F28 		.ascii	"X\376\237(\323\275\317v\337 \334O|q]q.\366\263\326\225"
 188      D3BDCF76 
 188      DF20DC4F 
 188      7C715D71 
 188      2EF6B3D6 
 189 0356 2E9AE6E2 		.ascii	".\232\346\342{\355\000\2024&\316l\034\033\231>c\316"
 189      7BED0082 
 189      3426CE6C 
 189      1C1B993E 
 189      63CE
 190 0368 1C3F124E 		.ascii	"\034?\022N\340}4A\312d\037\245\006\374\014\374Q\234"
 190      E07D3441 
 190      CA641FA5 
 190      06FC0CFC 
 190      519C
ARM GAS  /tmp/ccPWYpcT.s 			page 15


 191 037a 0959AB2B 		.ascii	"\011Y\253+\226\334FN\253\315W\352* \367\250Gw\202\353"
 191      96DC464E 
 191      ABCD57EA 
 191      2A20F7A8 
 191      477782EB 
 192 038e 937F7AAC 		.ascii	"\223\177z\254\357ow\202\373\302\001\256\242\027\350"
 192      EF6F7782 
 192      FBC201AE 
 192      A217E8
 193 039d 9F10AAA2 		.ascii	"\237\020\252\242\221\377Q9\037\221TM\326\3310\034\021"
 193      91FF5139 
 193      1F91544D 
 193      D6D9301C 
 193      11
 194 03ae A5C72350 		.ascii	"\245\307#P \202\240{%n\213]\374\210\203\244=\324\304"
 194      2082A07B 
 194      256E8B5D 
 194      FC8883A4 
 194      3DD4C4
 195 03c1 48C3466E 		.ascii	"H\303Fn(F.\253\022\272\365 \274\236\340\333\235jL\371"
 195      28462EAB 
 195      12BAF520 
 195      BC9EE0DB 
 195      9D6A4CF9 
 196 03d5 F7AF3A77 		.ascii	"\367\257:w\320a($Zr\210\266\021\227\\\265+r\325P\254"
 196      D0612824 
 196      5A7288B6 
 196      11975CB5 
 196      2B72D550 
 197 03ea 9960AC27 		.ascii	"\231`\254'\241\314\030\261\031+\035*B\213k\346\314y"
 197      A1CC18B1 
 197      192B1D2A 
 197      428B6BE6 
 197      CC79
 198 03fc 2C175DE5 		.ascii	",\027]\345\240\255K\326>E\331\213\222!\216\315V5\365"
 198      A0AD4BD6 
 198      3E45D98B 
 198      92218ECD 
 198      5635F5
 199 040f 551D858A 		.ascii	"U\035\205\212\254\244\247\035+\255\204\215c\313\372"
 199      ACA4A71D 
 199      2BAD848D 
 199      63CBFA
 200 041e DC5417B8 		.ascii	"\334T\027\270i\025\267\355\215\274\2266\261\211\203"
 200      6915B7ED 
 200      8DBC9636 
 200      B18983
 201 042d E53194E8 		.ascii	"\3451\224\350i'|\201\311\"M\345R\022\013\300eH-d\233"
 201      69277C81 
 201      C9224DE5 
 201      52120BC0 
 201      65482D64 
 202 0442 E53F2262 		.ascii	"\345?\"b\263\266\210\337(\005<\327\256\366Y\337\031"
 202      B3B688DF 
 202      28053CD7 
 202      AEF659DF 
 202      19
ARM GAS  /tmp/ccPWYpcT.s 			page 16


 203 0453 05BC7FED 		.ascii	"\005\274\177\355\341\315\212\274I\371\234<\036\355K"
 203      E1CD8ABC 
 203      49F99C3C 
 203      1EED4B
 204 0462 0EF44663 		.ascii	"\016\364Fc\311\236\003\321\236\336\221h\254/\261/\221"
 204      C99E03D1 
 204      9EDE9168 
 204      AC2FB12F 
 204      91
 205 0473 DC1F1D1A 		.ascii	"\334\037\035\032\034~\345\345(}\364u\367G_M\016\016"
 205      1C7EE5E5 
 205      287DF475 
 205      F7475F4D 
 205      0E0E
 206 0485 ED8FEEEE 		.ascii	"\355\217\356\356|\352\301\035\321]\273\036\213v\355"
 206      7CEAC11D 
 206      D15DBB1E 
 206      8B76ED
 207 0494 7EF499CE 		.ascii	"~\364\231\316\221\216\350p\367\340\320\013\375\375="
 207      918EE870 
 207      F7E0D00B 
 207      FDFD3D
 208 04a3 DB63A08F 		.ascii	"\333c\240\217$\373\267wXq\207\032\033\354\300am \331"
 208      24FBB777 
 208      5871871A 
 208      1BECC061 
 208      6D20D9
 209 04b6 D3FB2F0E 		.ascii	"\323\373/\016\325\214P"
 209      D58C50
 210              		.text
 211              		.section	.gnu.lto_serve_usart_irq.7ba27ab42e98d73b,"",%progbits
 212 0000 789C9D52 		.ascii	"x\234\235R]H\024Q\024>\347\316\334\331Yw\267q7\243,"
 212      5D481451 
 212      143EE7CE 
 212      DCD95977 
 212      B77137A3 
 213 0015 08114248 		.ascii	"\010\021BHp\262\250\267\240 \010\302 r\205z\212u\025"
 213      70B2A8B7 
 213      A02008C2 
 213      2072857A 
 213      8A7515
 214 0028 1D5ADB58 		.ascii	"\035Z\333X\177\"zhV7\260\036J\222`Y\011\024\211\240"
 214      7F227A68 
 214      5637B01E 
 214      4A926059 
 214      091489A0 
 215 003c 025FA5C2 		.ascii	"\002_\245\302\025_\372\303\254\360i\237\226|\264\227"
 215      155FFAC3 
 215      ACF0699F 
 215      967CB497 
 216 004c 0A41A29A 		.ascii	"\012A\242\232\316\235\277\325\332\220\2720\347\3169"
 216      CE9DBFD5 
 216      DA90BA30 
 216      E7CE39
 217 005b F37DDF3D 		.ascii	"\363}\337=\347\233\313\200\301\357\313\240\347\251\014"
 217      E79BCB80 
 217      C1EFCBA0 
ARM GAS  /tmp/ccPWYpcT.s 			page 17


 217      E7A90C
 218 006a 10A71D83 		.ascii	"\020\247\035\203\200l\354-@VeL\032m\002\263\206\213"
 218      806CEC2D 
 218      4056654C 
 218      1A6D02B3 
 218      868B
 219 007c 189698FC 		.ascii	"\030\226\230\374\342\210\310^\355\244LF\356\2008S\226"
 219      E288C85E 
 219      EDA44C46 
 219      EE803853 
 219      96
 220 008d 752AABCF 		.ascii	"u*\253\317\367RYa\201\211\243\"[\253\245,\200\252\003"
 220      F7525961 
 220      8189A322 
 220      5BABA52C 
 220      80AA03
 221 00a0 5211C50B 		.ascii	"R\021\305\013 \\g\222\314\225\200\212\327\317\2438Z"
 221      205C6792 
 221      CC95808A 
 221      D7CFA338 
 221      5A
 222 00b1 6A8429D3 		.ascii	"j\204)\323\274[\276Q,\324\337\232\034\0363\177Z\026"
 222      BC5BBE51 
 222      2CD4DF9A 
 222      1C1E337F 
 222      5A16
 223 00c3 1A484D9E 		.ascii	"\032HM\236BH\"\234\243\004\033\354\215\311\233\273v"
 223      4248229C 
 223      A3041BEC 
 223      8DC99BBB 
 223      76
 224 00d4 98F39FC7 		.ascii	"\230\363\237\307o\3572'\263\036Sbp\246\302\254u\230"
 224      6FEF3227 
 224      B31E5362 
 224      70A6C2AC 
 224      7598
 225 00e6 AC2AF3EB 		.ascii	"\254*\363\353\370\275z\263r\246\314\240}\2533g\330|"
 225      F8BD7AB3 
 225      72A6CCA0 
 225      7DAB3367 
 225      D87C
 226 00f8 D9B2BEDF 		.ascii	"\331\262\276\337\237Z)\340\216:\031\373\0208$\360\001"
 226      9F5A29E0 
 226      8E3A19FB 
 226      103824F0 
 226      01
 227 0109 368202D4 		.ascii	"6\202\002\324v\200\222iJT\332\247h\017\212b\210\002"
 227      76809269 
 227      4A54DAA7 
 227      680F8A62 
 227      8802
 228 011b 0F535022 		.ascii	"\017SP\"\"\325D\210\212Z\214B\200T9\344Ls\254\301\241"
 228      22D54488 
 228      8A5A8C42 
 228      805439E4 
 228      4C73ACC1 
 229 0130 3A6A201A 		.ascii	":j \032\241\025\247(\254\353@&vi\021\206K\263s\037X"
ARM GAS  /tmp/ccPWYpcT.s 			page 18


 229      A115A728 
 229      ACEB4026 
 229      76691186 
 229      4BB3731F 
 230 0145 021F2287 		.ascii	"\002\037\"\207\036\344\315\360\310\244u\205\372\237"
 230      1EE4CDF0 
 230      C8A47585 
 230      FA9F
 231 0153 8002B5AC 		.ascii	"\200\002\265\254\366\240,Z\017\332\015w\242\327\372"
 231      F6A02C5A 
 231      0FDA0D77 
 231      A2D7FA
 232 0162 222C94D6 		.ascii	"\",\224\326\347^\243\307T\0043G\300\032\207\027\"1\301"
 232      E75EA3C7 
 232      54043347 
 232      C01A8717 
 232      2231C1
 233 0175 935D1EFA 		.ascii	"\223]\036\372\274\341\325\221\335\036+@DG+_\364\213"
 233      BCE1D591 
 233      DD1E2B40 
 233      44472B5F 
 233      F48B
 234 0187 AA2D9535 		.ascii	"\252-\2255\017\377U\214\371b#\317F\326\232<b\220\324"
 234      0FFF558C 
 234      F96223CF 
 234      46D69A3C 
 234      6290D4
 235 019a 040CEE08 		.ascii	"\004\014\356\010\300K\310}\312F\374o\366\207\215\253"
 235      C04BC87D 
 235      CA46FC6F 
 235      F6878DAB 
 236 01aa 0325186D 		.ascii	"\003%\030m\"\013\026f\327\213%w\020\367\350\310\026"
 236      220B1666 
 236      D78B2577 
 236      10F7E8C8 
 236      16
 237 01bb 73D862D6 		.ascii	"s\330b\326\017\313\322\234\221J\371\217_|+B\315\260"
 237      0FCBD29C 
 237      914AF98F 
 237      5F7C2B42 
 237      CDB0
 238 01cd 9F7E4775 		.ascii	"\237~Gu\377\244\212\017\245w!\217\022\026\347\326\032"
 238      FFA48A0F 
 238      A577218F 
 238      1216E7D6 
 238      1A
 239 01de 18764811 		.ascii	"\030vH\021\022\021$\356\222\274kc\217\324\352\223\004"
 239      121124EE 
 239      92BC6B63 
 239      8FD4EA93 
 239      04
 240 01ef 64DBE691 		.ascii	"d\333\346\221d\230\336#-A\256|\363\215\346\341\"\327"
 240      6498DE23 
 240      2D41AE7C 
 240      F38DE6E1 
 240      22D7
 241 0201 E09B392A 		.ascii	"\340\2339*\344\265\244\333?9o\320m\206%\340\016J\224"
ARM GAS  /tmp/ccPWYpcT.s 			page 19


 241      E4B5A4DB 
 241      3F396FD0 
 241      6D8625E0 
 241      0E4A94
 242 0214 C222C884 		.ascii	"\302\"\310\20470\352\351q\367\232\220\3173O\374?\244"
 242      3730EAE9 
 242      71F79A90 
 242      CF334FFC 
 242      3FA4
 243 0226 79461FFB 		.ascii	"yF\037\373\303g\255\212\317\012,\353\266\317\371\225"
 243      C367AD8A 
 243      CF0A2CEB 
 243      B6CFF995 
 244 0236 FFF1B968 		.ascii	"\377\361\271hU|^_\251\370\034\375w\237c\256\3171\337"
 244      557C5E5F 
 244      A9F81CFD 
 244      779F63AE 
 244      CF31DF
 245 0249 E7E8469F 		.ascii	"\347\350F\237yU\237c\002\262}\363H\001x\274\317\366"
 245      79559F63 
 245      02B27DF3 
 245      480178BC 
 245      CFF6
 246 025b 39BFAA55 		.ascii	"9\277\252U\034\214\331\016\032X\347\301T\333\276\367"
 246      1C8CD90E 
 246      1A58E7C1 
 246      54DBBEF7 
 247 026b 902D179A 		.ascii	"\220-\027\232=\230\263\3424!}\023\027\365\244\336\233"
 247      3D98B3E2 
 247      34217D13 
 247      17F5A4DE 
 247      9B
 248 027c EEEBD693 		.ascii	"\356\353\326\223\351\256\253zW\367\220\236\3545:\215"
 248      E9AEAB7A 
 248      57F7909E 
 248      EC353A8D 
 249 028c 74BF3E90 		.ascii	"t\277>\220\031\274tQ\247\227\336DJ\277\234\316\014\364"
 249      19BC7451 
 249      A797DE44 
 249      4ABF9CCE 
 249      0CF4
 250 029e EBEDF1D3 		.ascii	"\353\355\361\323\207\016\352mm'\364\216\366\343g\343"
 250      870EEA6D 
 250      6D27F48E 
 250      F6E367E3 
 251 02ae 43ADFA60 		.ascii	"C\255\372`\"3p!\225\352jI\002\037J\247Z\016\260\376"
 251      22337021 
 251      95EA6A49 
 251      021F4AA7 
 251      5A0EB0FE 
 252 02c2 0C0EFE02 		.ascii	"\014\016\376\002&\354+\232"
 252      26EC2B9A 
 253              		.text
 254              		.section	.gnu.lto_uart_lld_serve_tx_end_irq.7ba27ab42e98d73b,"",%progbits
 255 0000 789C9593 		.ascii	"x\234\225\223MHTQ\024\307\317\271\357c\336\274\031\235"
 255      4D485451 
 255      14C7CFB9 
ARM GAS  /tmp/ccPWYpcT.s 			page 20


 255      EF63DEBC 
 255      199D
 256 0012 19677426 		.ascii	"\031gt&Aq[\202/\223l\025$\010\021\350&g\240\332\304"
 256      41715B82 
 256      2F936C15 
 256      240811E8 
 256      2667A0DA 
 257 0027 38DACCA3 		.ascii	"8\332\314\243\261\211q\024\"\310\231\234(\242\205\264"
 257      B1897114 
 257      22C8999C 
 257      28A285B4 
 258 0037 12A34544 		.ascii	"\022\243ED\213\202r\021\350\200-,\"\373\300\242p\021"
 258      8B827211 
 258      E8802D2C 
 258      22FBC0A2 
 258      7011
 259 0049 B3497491 		.ascii	"\263It\221\213\210\026.\242\026v\356\373T\033\302\006"
 259      8B88162E 
 259      A21676EE 
 259      FB541BC2 
 259      06
 260 005a E6BCCB39 		.ascii	"\346\274\3139\367w\316\377\234{/\003\006\273\177\327"
 260      F777CEFF 
 260      9C7B2F03 
 260      06BB7FD7 
 261 006a E9DF2D01 		.ascii	"\351\337-\001\334\244/\372\001\331\324{\200\222\302"
 261      DCA42FFA 
 261      01D9D47B 
 261      8092C2
 262 0079 98B0D204 		.ascii	"\230\260\322\004EU|v\004\212~\001E\323-\242d.$\346\273"
 262      45557C76 
 262      048A7E01 
 262      45D32DA2 
 262      642E24E6 
 263 008e B504B441 		.ascii	"\265\004\264A.{h\203\317\364\367\310\314\263\324M^\345"
 263      2E7B6883 
 263      CFF4F7C8 
 263      CCB3D44D 
 263      5EE5
 264 00a0 4D94BC1E 		.ascii	"M\224\274\036T\314\335\012\363\276j!\267\372\366 \271"
 264      54CCDD0A 
 264      F3BE6A21 
 264      B7FAF620 
 264      B9
 265 00b1 BDA89A6E 		.ascii	"\275\250\232n\025\221/\000a\202\011\242\344\223=\212"
 265      15912F00 
 265      618209A2 
 265      E4933D8A 
 266 00c1 57C589D3 		.ascii	"W\305\211\323h(\233e\213\253[[O6o/?\307\215\375-\"\216"
 266      68289B65 
 266      8BAB5B5B 
 266      4F366F2F 
 266      3FC78DFD 
 267 00d8 2048A023 		.ascii	" H\240#(\264B/\255P%\303|\334\347\347\246\236\233\000"
 267      28B4422F 
 267      AD5025C3 
 267      7CDCE7E7 
ARM GAS  /tmp/ccPWYpcT.s 			page 21


 267      A69E9B00 
 268 00ec 37413242 		.ascii	"7A2B\210\214\330@F\012s\023\341\201(\0319F\306\323L"
 268      888CD840 
 268      460A7313 
 268      E1812819 
 268      3946C6D3 
 269 0101 46A13212 		.ascii	"F\2412\022\224\213\305\2516\200\224Q6N\226ZJ \243\217"
 269      948BC5A9 
 269      36809451 
 269      364E965A 
 269      4A20A38F 
 270 0115 B00C930B 		.ascii	"\260\014\223\013\223\277\037\264&\361\036J\220F)\215"
 270      93BF1FB4 
 270      26F11E4A 
 270      9046298D 
 271 0125 E22934EA 		.ascii	"\342)4\352\001\274\206\362\267R\235\0232\374\333\177"
 271      01BC86F2 
 271      B7529D13 
 271      32FCDB7F 
 272 0135 0914E01A 		.ascii	"\011\024\340\032\023>@\371\307\314\372\354::\225\314"
 272      133E40F9 
 272      C7CCFAEC 
 272      3A3A95CC 
 273 0145 C5E2BB2F 		.ascii	"\305\342\273/q\000\023O\241\205^\206_\305\033\305\240"
 273      7100134F 
 273      A1855E86 
 273      5FC51BC5 
 273      A0
 274 0156 8EDE14B2 		.ascii	"\216\336\024\262$\336\247\230\345\215\351\250\266\302"
 274      24DEA798 
 274      E58DE9A8 
 274      B6C2
 275 0164 95BBC5E9 		.ascii	"\225\273\305\351c:\372,\216z\360\333\305DS\360\325j"
 275      633AFA2C 
 275      8E7AF0DB 
 275      C54453F0 
 275      D56A
 276 0176 E569B32D 		.ascii	"\345i\263-\312\333\016\007hNw`\206\304\325\245Q\341"
 276      CADB0E07 
 276      684E7760 
 276      86C4D5A5 
 276      51E1
 277 0188 22EB0D60 		.ascii	"\"\353\015`\320\021K\314\031\033P\333\341\021/\0370"
 277      D0114BCC 
 277      191B50DB 
 277      E1112F1F 
 277      30
 278 0199 9120A5E0 		.ascii	"\221 \245\340\010Z\010:\310\013\007\361q\244\\\"(dB"
 278      085A083A 
 278      C80B07F1 
 278      71A45C22 
 278      286442
 279 01ac 0D948643 		.ascii	"\015\224\206C\001\013b\0164\271 \330\224\237@cbt\306"
 279      010B620E 
 279      34B920D8 
 279      949F4063 
 279      6274C6
ARM GAS  /tmp/ccPWYpcT.s 			page 22


 280 01bf 5B0133E5 		.ascii	"[\0013\345\0113\270\267|i\267s\011\350\032\011\3335"
 280      0933B8B7 
 280      7C69B773 
 280      09E81A09 
 280      DB35
 281 01d1 D51B39F0 		.ascii	"\325\0339\360\377$\005\2103$\241u\270\350D\376:\333"
 281      FF240588 
 281      3324A175 
 281      B8E844FE 
 281      3ADB
 282 01e3 381D013D 		.ascii	"8\035\001=\000L\240l\215\335\251\035\264F\030\256=B"
 282      004CA06C 
 282      8DDDA91D 
 282      B44618AE 
 282      3D42
 283 01f5 A1C6D443 		.ascii	"\241\306\324C\026\022\251\215\210.\362\335QK-\205\214"
 283      1612A98D 
 283      882EF2DD 
 283      514B2D85 
 283      8C
 284 0206 061E3BAE 		.ascii	"\006\036;\2560\207\244\243<\270ks\204\202\333GLuJ\306"
 284      3087A4A3 
 284      3CB86B73 
 284      8482DB47 
 284      4C754AC6 
 285 021a 78482E87 		.ascii	"xH.\207\302\326H#\006W\231\236\373\304\334\263\240_"
 285      C2D64823 
 285      0657999E 
 285      FBC4DCB3 
 285      A05F
 286 022c A78E8DB5 		.ascii	"\247\216\215\265/\221q?\201{\032\231)\261Z\231[s&\027"
 286      2F91713F 
 286      817B1A99 
 286      29B15A99 
 286      5B732617 
 287 0240 352EA05C 		.ascii	"5.\240\\\233\225\335\276\252S>\033\211Y\303h2\241(%"
 287      9B95DDBE 
 287      AA533E1B 
 287      8959C368 
 287      32A12825 
 288 0254 E1906C41 		.ascii	"\341\220lA\036\013\332\371\372b|Kl\347\353\363\300\246"
 288      1E0BDAF9 
 288      FA627C4B 
 288      6CE7EBF3 
 288      C0A6
 289 0266 C85FDF6A 		.ascii	"\310_\337j\365a\300z.|'7\212\216\373\354m\212\375n>"
 289      F561C07A 
 289      2E7C2737 
 289      8A8EFBEC 
 289      6D8AFD6E 
 290 027b CFBBBA9B 		.ascii	"\317\273\272\233\015\335\377\354\231Kx\371\325\225\320"
 290      0DDDFFEC 
 290      994B78F9 
 290      D595D0
 291 028a EC0CC195 		.ascii	"\354\014\301\225\340\205\025\306sW~\316\257\355\234"
 291      E08515C6 
 291      73577ECE 
ARM GAS  /tmp/ccPWYpcT.s 			page 23


 291      AFED9C
 292 0299 E8E1BD4C 		.ascii	"\350\341\275L\324M\244r\221\037\241\264\272\261\337"
 292      D44DA472 
 292      911FA1B4 
 292      BAB1DF
 293 02a8 6EC5BE88 		.ascii	"n\305\276\210H!^\365\270\226\311\215\014k\251\334\320"
 293      48215EF5 
 293      B896C98D 
 293      0C6BA9DC 
 293      D0
 294 02b9 256D6878 		.ascii	"%mhx\\Ke\364A=7\252\025\362c\027\316k\264\310$\263\332"
 294      5C4B65F4 
 294      413D37AA 
 294      15F26317 
 294      CE6BB4C8 
 295 02d0 C55CBE30 		.ascii	"\305\\\2760\252\015\304\373\273\016i}}\275Zb\240\347"
 295      AA0DC4FB 
 295      BB0E697D 
 295      7DBD5A62 
 295      A0E7
 296 02e2 647CBC53 		.ascii	"d|\274S\033K\346\013g\263\331\241\216\024t\355%On\224"
 296      1B4BE60B 
 296      67B3D9A1 
 296      8E1474ED 
 296      254F6E94 
 297 02f6 4CBE607C 		.ascii	"L\276`|;2\340\357\355\357i;\227\324\263c\371a\370\003"
 297      3B32E0EF 
 297      EDEF693B 
 297      97D4B363 
 297      F961F803 
 298 030a E2394528 		.ascii	"\3429E("
 299              		.text
 300              		.section	.gnu.lto_uart_lld_serve_rx_end_irq.part.0.7ba27ab42e98d73b,"",%progbits
 301 0000 789C9594 		.ascii	"x\234\225\224M\210\034E\024\200\353UwO\377\316\317\376"
 301      4D881C45 
 301      1480EB55 
 301      774FFFCE 
 301      CFFE
 302 0012 CDECAC06 		.ascii	"\315\354\254\006B.b\002i\243$\220C\016\001A\224\010"
 302      422E6202 
 302      69A32490 
 302      430E0141 
 302      9408
 303 0024 6266C1E4 		.ascii	"bf\301\344\"\223\331\265w\310\256#\273\233\200zHO2\207"
 303      2293D9B5 
 303      77C8AE23 
 303      BB9B807A 
 303      484F3287 
 304 0038 40828C9E 		.ascii	"@\202\214\236\262z\311\262jdArP\302\212\207,A\315\017"
 304      B27AC9B2 
 304      6A644172 
 304      50C28A87 
 304      2C41CD0F 
 305 004c 241AC821 		.ascii	"$\032\310!;\344\260xQAr\0109\204 \031\337\253\352\256"
 305      3BE4B078 
 305      51417208 
 305      39842019 
ARM GAS  /tmp/ccPWYpcT.s 			page 24


 305      DFABEAAE 
 306 0060 E91976D8 		.ascii	"\351\031v\330MC\277\352\256z\337\253\367S\3658\343\254"
 306      4D43BFEA 
 306      AE7ADFAB 
 306      F753F538 
 306      E3AC
 307 0072 F769E27B 		.ascii	"\367i\342{\331b\254\204#\244\031x\315;\370\341\001\027"
 307      D962AC84 
 307      23A41978 
 307      CD3BF8E1 
 307      0117
 308 0084 23078DC6 		.ascii	"#\007\215\306\272\245q\375\374u\306B\307h\230,\364t"
 308      BAA571FD 
 308      FC75C642 
 308      C768982C 
 308      F474
 309 0096 397FD0E0 		.ascii	"9\177\320\340\251\353\373p\326\274Y\300\331\024\230"
 309      A9EBFB70 
 309      D6BC59C0 
 309      D91498
 310 00a5 52DBE4D6 		.ascii	"R\333\344\326o\333p\332\275\365\012N[\334y\340\342\237"
 310      6FDB70DA 
 310      BDF50A4E 
 310      5BDC79E0 
 310      E29F
 311 00b7 FDE335B4 		.ascii	"\375\3435\264\340\331\340H-\007\\\371\341\002\320\007"
 311      E0D9E048 
 311      2D075CF9 
 311      E102D007 
 312 00c7 0376CAE3 		.ascii	"\003v\312\343\232n\244L\313v\\8u\004\310C\276\203-\206"
 312      9A6EA44C 
 312      CB765C38 
 312      7504C843 
 312      BE832D86 
 313 00db E117EBBF 		.ascii	"\341\027\353\277>\375\007\026\302\325\306\305\360\277"
 313      3EFD0716 
 313      C2D5C6C5 
 313      F0BF
 314 00e9 761BA00A 		.ascii	"v\033\240\012\030\315[\300*\300\336\303\037\330.\006"
 314      18CD5BC0 
 314      2AC0DEC3 
 314      1FD82E06 
 315 00f9 AE778727 		.ascii	"\256w\207'\331\325\317\317}V\014/\236n\206\317\020\025"
 315      D9D5CFCF 
 315      7D560C2F 
 315      9E6E86CF 
 315      1015
 316 010b E43B9B91 		.ascii	"\344;\233\221\227y\270\336n\257-;/\001\314\020Q\005"
 316      9779B8DE 
 316      6EAF2D3B 
 316      2F01CC10 
 316      5105
 317 011d 4D43A1EB 		.ascii	"MC\241\353(\014\203D\212\204I\302B\221\262Q\230\016"
 317      280C8344 
 317      8A8449C2 
 317      4291B251 
 317      980E
ARM GAS  /tmp/ccPWYpcT.s 			page 25


 318 012f 0ACB25E1 		.ascii	"\012\313%\341\321B\032\205\235A\341dQ\2709\372\035@"
 318      D1421A85 
 318      9D41E164 
 318      51B839FA 
 318      1D40
 319 0141 E10D92BD 		.ascii	"\341\015\222\275!\2627\214\"=B\312y\022\005V\206%\330"
 319      21B2378C 
 319      223D42CA 
 319      79120556 
 319      8625D8
 320 0154 C146E9A7 		.ascii	"\301F\351\247Hb\214\004zd\260F\0306\267\227a\021\227"
 320      48628C04 
 320      7A64B046 
 320      1836B797 
 320      611197
 321 0167 19B98F4F 		.ascii	"\031\271\217O\011%\226\244\004\036\016\3328p\032n\263"
 321      092596A4 
 321      041E0EDA 
 321      38701A6E 
 321      B3
 322 0178 D3ADFB4B 		.ascii	"\323\255\373K;\313\360\015\202\001\360]l'\356\366\025"
 322      3BCBF00D 
 322      8201F05D 
 322      6C27EEF6 
 322      15
 323 0189 FBB21E86 		.ascii	"\373\262\036\206\271*d\002\000\0129+\002=\006q\310\210"
 323      B92A6402 
 323      000A392B 
 323      023D0671 
 323      C888
 324 019b 1D8D196D 		.ascii	"\035\215\031m\027[&\335\234\242\006\320\020QZD\201\242"
 324      175B26DD 
 324      9CA206D0 
 324      10515A44 
 324      81A2
 325 01ad AE294A27 		.ascii	"\256)J'\252QG\355A\305\015\2411\342r\021\307\025w\346"
 325      AA5147ED 
 325      41C50DA1 
 325      31E27211 
 325      C71577E6 
 326 01c1 672D060D 		.ascii	"g-\006\015dI\311\300\234\267\263\322\352\233rq\313&"
 326      6449C9C0 
 326      9CB7B3D2 
 326      EA9B7271 
 326      CB26
 327 01d3 0391257C 		.ascii	"\003\221%|\306\321G<PZ\322\263\2240\003\317\355\230"
 327      C6D1473C 
 327      505AD2B3 
 327      943003CF 
 327      ED98
 328 01e5 89A8708C 		.ascii	"\211\250p\214\302\275\301\032\377\202Z\021\323\311#"
 328      C2BDC11A 
 328      FF825A11 
 328      D3C923
 329 01f4 53029DE1 		.ascii	"S\002\235\341-\301*\030Q\025\324\366V\224\316\341\276"
 329      2DC12A18 
 329      5115D4F6 
ARM GAS  /tmp/ccPWYpcT.s 			page 26


 329      5694CEE1 
 329      BE
 330 0205 E9D43628 		.ascii	"\351\3246(\202\035Q#})\275C=T>;H\2120\276WS.A\326\001"
 330      821D5123 
 330      7D29BD43 
 330      3D543E3B 
 330      488A30BE 
 331 021f 5AEC51F6 		.ascii	"Z\354Q\366p1\231n\332J\246\033\275&j8J\256'\300\225"
 331      7031996E 
 331      DA4AA61B 
 331      BD266A38 
 331      4AAE27C0 
 332 0234 274B7FF2 		.ascii	"'K\177\362Na\360\331[\205|\337\243%\363C3y.\335l]\370"
 332      4E61F0D9 
 332      5B857CDF 
 332      A325F343 
 332      33792EDD 
 333 024b F691CA61 		.ascii	"\366\221\312aZ\234L\273/\236\352\204\327\372\303\215"
 333      5A9C4CBB 
 333      2F9EEA84 
 333      D7FAC38D 
 334 025b A94C9496 		.ascii	"\251L\224\226\202\342F\321\024qv\304\231\021G\005\253"
 334      82E246D1 
 334      147176C4 
 334      99114705 
 334      AB
 335 026c EF511CA9 		.ascii	"\357Q\034\251\024\223\025\033\307\035\036\353\332\357"
 335      1493151B 
 335      C71D1EEB 
 335      DAEF
 336 027a ACB1BE70 		.ascii	"\254\261\276p3+\365(\326\014\011T\036\213\325\314\370"
 336      332BF528 
 336      D60C0954 
 336      1E8BD5CC 
 336      F8
 337 028b 5AAD5CEA 		.ascii	"Z\255\\\352x\237\025\336o\026<y\361\313_\035/\262*\033"
 337      789F15DE 
 337      6F163C79 
 337      F1CB5F1D 
 337      2FB22A1B 
 338 029f 1D2F2C76 		.ascii	"\035/,v\217\223\371\225\373\227\036ugw\377\026\263\033"
 338      8F93F995 
 338      FB971E75 
 338      6777FF16 
 338      B31B
 339 02b1 67E9EC0F 		.ascii	"g\351\354\017\240\372\304\222\350\023\3627l\177\355"
 339      A0FAC492 
 339      E813F237 
 339      6C7FED
 340 02c0 33264D57 		.ascii	"3&MW\344\335\015 '7Y]8\227\331\244\012eX\225\273\321"
 340      E4DD0D20 
 340      2737595D 
 340      3897D9A4 
 340      0A655895 
 341 02d6 1E4DACC4 		.ascii	"\036M\254\304U\021\313@T\211\027\222\225\310%+a%X\221"
 341      5511CB40 
 341      54891792 
ARM GAS  /tmp/ccPWYpcT.s 			page 27


 341      95C8252B 
 341      61255891 
 342 02ea 87B46249 		.ascii	"\207\264bI\355\305\356\373c\263E\216\327\307\211\322"
 342      EDC5EEFB 
 342      63B3458E 
 342      D7C789D2 
 343 02fa D1BA70A5 		.ascii	"\321\272p\245\030\253\017n\336\304\222N\036\215\271"
 343      18AB0F6E 
 343      DEC4924E 
 343      1E8DB9
 344 0309 A18D1AD9 		.ascii	"\241\215\032\331`O#K\222O\265\030\035\376\224}R\245"
 344      604F234B 
 344      924FB518 
 344      1DFE947D 
 344      52A5
 345 031b 332A3BC7 		.ascii	"3*;\307\266\276{\333\312B\322\320Ceh$\240[$\357\330"
 345      B6BE7BDB 
 345      CA42D2D0 
 345      43656824 
 345      A05B24EF 
 346 0330 D5B8A5F5 		.ascii	"\325\270\245\365\366\242\241d/r\224)\244\005\272\362"
 346      F6A2A164 
 346      2F729429 
 346      A405BAF2 
 347 0340 DD15D82A 		.ascii	"\335\025\330*\355*Z\265.\312\346\215\330B\000y\221M"
 347      ED2A5AB5 
 347      2ECAE68D 
 347      D8420079 
 347      914D
 348 0352 D63722AF 		.ascii	"\3267\"\257+\2243?\251P\260\276\371\000\012\317\027"
 348      2B94333F 
 348      A950B0BE 
 348      F9000ACF 
 348      17
 349 0363 0D4F4433 		.ascii	"\015OD3*\320\326\337\035_\212\033w\370>\026z\374\031"
 349      2AD0D6DF 
 349      1D5F8A1B 
 349      77F83E16 
 349      7AFC19
 350 0376 433E1164 		.ascii	"C>\021d\227O[5\031\310{\276\306\012\302R\310\231\365"
 350      974F5B35 
 350      19C87BBE 
 350      C60AC252 
 350      C899F5
 351 0389 606D4A7C 		.ascii	"`mJ|79\263\037\037\241+\352R\007\270\313\352\353\313"
 351      3739B31F 
 351      1FA12BEA 
 351      5207B8CB 
 351      EAEBCB
 352 039c 2FC77D22 		.ascii	"/\307}\">\265\200Kt\237\337\360\247j3\223~\2456\361"
 352      3EB5804B 
 352      749FDFF0 
 352      A76A3393 
 352      7EA536F1 
 353 03b0 B13F3179 		.ascii	"\261?1y\322\257LU\217Uks\376\374\354\211\017\217\373"
 353      D2AF4C55 
 353      8F556B73 
ARM GAS  /tmp/ccPWYpcT.s 			page 28


 353      FEFCEC89 
 353      0F8FFB
 354 03c3 F831559E 		.ascii	"\3701U\236\366?\252\315\316\317\371\207Ko\277\366\252"
 354      F63FAACD 
 354      CECFF987 
 354      4B6FBFF6 
 354      AA
 355 03d4 7FE8D0EB 		.ascii	"\177\350\320\353\376\370\341\203\357\226N\356\361O\224"
 355      FEF8E183 
 355      EF964EEE 
 355      F14F94
 356 03e3 67E7DF9F 		.ascii	"g\347\337\237\236\236\330]a\306\007\323\345`N\237\251"
 356      9E9ED85D 
 356      61C607D3 
 356      E5604E9F 
 356      A9
 357 03f4 4D4CFE0F 		.ascii	"ML\376\0174:\364\210"
 357      343AF488 
 358              		.text
 359              		.section	.gnu.lto_uart_lld_serve_rx_end_irq.7ba27ab42e98d73b,"",%progbits
 360 0000 789C8D51 		.ascii	"x\234\215QMhSA\020\236\331}\277\351k\214\036\324S\351"
 360      4D685341 
 360      109ED97D 
 360      BFE96B8C 
 360      1ED453E9 
 361 0014 4D6AA14B 		.ascii	"Mj\241K-\350Q\013\005/\355\305$\240'y}\211\311\303\324"
 361      2DE8510B 
 361      052FEDC5 
 361      24A02779 
 361      7D89C9C3 
 362 0029 9497A420 		.ascii	"\224\227\244 \202}\261\021B/\366X*\"\326[\016\366Z\251"
 362      827DB111 
 362      422FF658 
 362      2A22D65B 
 362      0EF65AA9 
 363 003d 87288215 		.ascii	"\207(\202\025\251U\350\251\247J\017^<\210\010B/q\366"
 363      A955E8A9 
 363      A74A0F5E 
 363      3C880842 
 363      2F71F6
 364 0050 FD694B0F 		.ascii	"\375iK\017]\330\231\331\331\371\276\371f\227\001\203"
 364      5DD899D9 
 364      D9F9BEF9 
 364      66970183 
 365 0060 A3CBA1DD 		.ascii	"\243\313\241\335\241\364\"y4\001\331\322g\200\246\301"
 365      A1F42279 
 365      3401D9D2 
 365      6780A6C1 
 366 0070 18DF390B 		.ascii	"\030\3379\013~Jys\005|\213\243\022\246\025\246\266/"
 366      7E4A7973 
 366      057C8BA3 
 366      12A615A6 
 366      B62F
 367 0082 505A97D6 		.ascii	"PZ\227\326R\231\366\3412\235\214\217\347\350\244\241"
 367      5299F6E1 
 367      329D8C8F 
 367      E7E8A4A1 
ARM GAS  /tmp/ccPWYpcT.s 			page 29


 368 0092 1116E961 		.ascii	"\021\026\351a\200\006\242\364\2000\317\270\242j\272"
 368      8006A2F4 
 368      8030CFB8 
 368      A26ABA
 369 00a1 81F3B730 		.ascii	"\201\363\2670\350\272\306\272{\275\336\253\235'[o\261"
 369      E8BAC6BA 
 369      7BBDDEAB 
 369      9D275B6F 
 369      B1
 370 00b2 33946138 		.ascii	"3\224a8\203\300\301E\320(B\235\"4\3100\223\014O\221"
 370      83C0C145 
 370      D028429D 
 370      2234C830 
 370      930C4F91 
 371 00c6 5108A442 		.ascii	"Q\010\244B\313\367\227\006Is@\222#\333NC\036\0319\276"
 371      CBF79706 
 371      49734092 
 371      23DB4E43 
 371      1E1939BE 
 372 00da 050B1B0B 		.ascii	"\005\013\033\013\033\317\007l|\201*\224\220\227\220"
 372      1BCF076C 
 372      7C812A94 
 372      909790
 373 00e9 DD4462B4 		.ascii	"\335Db\264\250t\023Z?\232\375\311U\220\377\177\345\221"
 373      A874135A 
 373      3F9AFDC9 
 373      5590FF7F 
 373      E591
 374 00fb C3A2C2B7 		.ascii	"\303\242\302\267\241\365se\177m\037\223Na\320\375\364"
 374      A1F57365 
 374      7F6D1F93 
 374      4E61D0FD 
 374      F4
 375 010c 270B10C2 		.ascii	"'\013\020\302\035\214\240\017\340\300o\373\031\027U"
 375      1D8CA00F 
 375      E0C06FFB 
 375      191755
 376 011b 07998D2F 		.ascii	"\007\231\215/\351.\312\236wQ\033\200\207\317\374\345"
 376      E92ECA9E 
 376      77511B80 
 376      87CFFCE5 
 377 012b 6B2ECD12 		.ascii	"k.\315\022\342h\006#n\246\204\202\037\355\256\367\276"
 377      E2680623 
 377      6EA68482 
 377      1FEDAEF7 
 377      BE
 378 013c 61AC4A1F 		.ascii	"a\254J\037\206\213.\232Oa\205\324\245J\250I\225}\001"
 378      868B2E9A 
 378      4F6185D4 
 378      A54AA849 
 378      957D01
 379 014f 623A51BB 		.ascii	"b:Q\273\011\357\277\377\033D\227%\346\341AH\261\036"
 379      09EFBFFF 
 379      1B449725 
 379      E6E14148 
 379      B11E
 380 0161 702FAFFE 		.ascii	"p/\257\376J\270\215\200\233\035\317\035\223K\320\227"
ARM GAS  /tmp/ccPWYpcT.s 			page 30


 380      4AB88D80 
 380      9B1DCF1D 
 380      934BD097 
 381 0171 BE18620E 		.ascii	"\276\030b\016CGNg\205\240~\"\221 \026\201X\"\210^v4"
 381      43474E67 
 381      85A07E22 
 381      91201681 
 381      5822885E 
 382 0187 01C992F4 		.ascii	"\001\311\222\364aA\032\374VH\320\273\335\365\325\003"
 382      61411AFC 
 382      5648D0BB 
 382      DDF5D503 
 383 0197 1E17A624 		.ascii	"\036\027\246${\213\212O\021}\323\367\375\327\307\010"
 383      7B8B8A4F 
 383      117DD3F7 
 383      FDD7C708 
 384 01a7 E311C736 		.ascii	"\343\021\3076<\356^\215^Q6\221F#\016\0273q\023]NM\337"
 384      3CEE5E8D 
 384      5E513691 
 384      46230E17 
 384      3371135D 
 385 01be 67C465C9 		.ascii	"g\304e\311\357\234v\"\036\302\270x&\006\030\362\013"
 385      EF9C7622 
 385      1EC2B878 
 385      260618F2 
 385      0B
 386 01cf BE4273AF 		.ascii	"\276Bs\2573\024C\302\225\243\367h\247\345x\327E\271"
 386      331443C2 
 386      95A3F768 
 386      A7E578D7 
 386      45B9
 387 01e1 3A53144E 		.ascii	":S\024N\265p_\024\212s\302)\273\323n\265&\352^\343\336"
 387      B5705F14 
 387      8A73C229 
 387      BBD36EB5 
 387      26EA5EE3 
 388 01f6 5D4141D9 		.ascii	"]AA\331\256\210\331\252W\257\211lnj\354\222\230\234"
 388      AE88D9AA 
 388      57AF896C 
 388      6E6AEC92 
 388      989C
 389 0208 9C10F9EC 		.ascii	"\234\020\371\354\370\215\334\334\250h\330^\375v\245"
 389      F88DDCDC 
 389      A868D85E 
 389      FD76A5
 390 0217 52187160 		.ascii	"R\030q`\354$<\325\032\031\257\036\370\2212X\023S\343"
 390      EC243CD5 
 390      1A19AF1E 
 390      F8913258 
 390      1353E3
 391 022a 83776CB7 		.ascii	"\203wl\267\322\360\212\360\027}\013\307\320"
 391      D2F08AF0 
 391      177D0BC7 
 391      D0
 392              		.text
 393              		.section	.gnu.lto_uart_lld_stop.part.1.7ba27ab42e98d73b,"",%progbits
 394 0000 789C9550 		.ascii	"x\234\225P=K\003A\020\235\331\273\313G\245?!\010V\001"
ARM GAS  /tmp/ccPWYpcT.s 			page 31


 394      3D4B0341 
 394      109DD9BB 
 394      CB47A53F 
 394      21085601 
 395 0014 17157F80 		.ascii	"\027\025\177\200 \210\022\021\314\005\264\222\313%\230"
 395      20881211 
 395      CC05B492 
 395      CB2598
 396 0023 C3E8857C 		.ascii	"\303\350\205|\201XdOOH\023\010vj\223`g#\010\332\330"
 396      8158644F 
 396      4F481308 
 396      766A9360 
 396      672308DA 
 397 0038 48FA2876 		.ascii	"H\372(v~4\327[h\253\010\347\354\036)\264s\340\366\275"
 397      7E34D75B 
 397      68AB08E7 
 397      EC1E29B4 
 397      73E0F6BD 
 398 004c DB99F766 		.ascii	"\333\231\367ff\0310\370\033i\372\016\020`\225\020\015"
 398      661930F8 
 398      1B69FA0E 
 398      10609510 
 398      0D
 399 005d 40BD7B4F 		.ascii	"@\275{ODG\246\220\241&\321Kh\210\222\000BKg\032\266"
 399      4447A690 
 399      A126D14B 
 399      68889200 
 399      424B671A 
 400 0072 36508A71 		.ascii	"6P\212q\002\372B\034\007GW\235\330\211\270\363{\342"
 400      02FA421C 
 400      0747579D 
 400      D889B8F3 
 400      7BE2
 401 0084 3B0C111D 		.ascii	";\014\021\035\244F\313\0106\302:\375`J\001\323\177w"
 401      A446CB08 
 401      36C23AFD 
 401      604A01D3 
 401      7F77
 402 0096 BE642208 		.ascii	"\276d\"\010\303\317\267\016\306\020\034\324\230<\350"
 402      C3CFB70E 
 402      C6101CD4 
 402      983CE8
 403 00a5 DE005F88 		.ascii	"\336\000_\210n\312\302>\331\2034\2410\351\224\003\230"
 403      6ECAC23E 
 403      D98334A1 
 403      30E99403 
 403      98
 404 00b6 A84BD472 		.ascii	"\250K\324r\310\024>\200\037<_\007h\3419M\017\260\017"
 404      C8143E80 
 404      1F3C5F07 
 404      68E1394D 
 404      0FB00F
 405 00c9 5FA22DC6 		.ascii	"_\242-\306\035\324mTB\325\332\230$\357\030\300\020\006"
 405      1DD46D54 
 405      42D5DA98 
 405      24EF18C0 
 405      1006
ARM GAS  /tmp/ccPWYpcT.s 			page 32


 406 00db 2F4F379D 		.ascii	"/O7\235xT\275\205\230\206\013\341{T\036?\203S\257+\205"
 406      7854BD85 
 406      98860BE1 
 406      7B541E3F 
 406      8353AF2B 
 407 00f0 0929488A 		.ascii	"\011)H\212\217\266\320\2256\251\\\3628\032{\010\207"
 407      8FB6D095 
 407      36A95CF2 
 407      381A7B08 
 407      87
 408 0101 B7DAC880 		.ascii	"\267\332\310\200\221\207,\322\336\3030\034S\331\301"
 408      91872CD2 
 408      DEC3301C 
 408      53D9C1
 409 0110 5294FCB7 		.ascii	"R\224\374\2675\271E$G\317 w{\004\257\367:7\332,\012"
 409      35B94524 
 409      47CF2077 
 409      7B04AFF7 
 409      3A37DA2C 
 410 0125 93B6A29C 		.ascii	"\223\266\242\234\254\\\344%w\247\310m\267\260\307\013"
 410      AC5CE425 
 410      77A7C86D 
 410      B7B0C70B 
 411 0135 C526B74B 		.ascii	"\305&\267KN\336qk\274^m\354ns\"%\253\314+n\265^\343"
 411      4EDE716B 
 411      BC5E6DEC 
 411      6E732225 
 411      ABCC2B6E 
 412 014c 59736576 		.ascii	"Ysev\206g2\013<\227\235_3\233\323\274aU\353\233\345"
 412      8667320B 
 412      3C979D5F 
 412      339BD3BC 
 412      6155EB9B 
 413 0161 7261CA06 		.ascii	"ra\312\006C\362\312\017\243\270{\241"
 413      43F2CA0F 
 413      A3B87BA1 
 414              		.text
 415              		.section	.gnu.lto_VectorD4.7ba27ab42e98d73b,"",%progbits
 416 0000 789C6362 		.ascii	"x\234cb`b@\007\222@\274\031\210=\201\230\221\231\201"
 416      60624007 
 416      9240BC19 
 416      883D8198 
 416      919981
 417 0013 9169C239 		.ascii	"\221i\3029\006\206F\016&FF\020\203\201\221\241\236\211"
 417      0686460E 
 417      26464610 
 417      838191A1 
 417      9E89
 418 0025 B13E9211 		.ascii	"\261>\222\021\254v=\323\201\007\377\377\257\3734my\017"
 418      AC763DD3 
 418      8107FFFF 
 418      AFFB346D 
 418      790F
 419 0037 E31D2616 		.ascii	"\343\035&\026\240\010+CKC\303\004\005\006\206d\260\212"
 419      A0082B43 
 419      4B43C304 
 419      05068664 
ARM GAS  /tmp/ccPWYpcT.s 			page 33


 419      B08A
 420 0049 102009D2 		.ascii	"\020 \011\322\026\312\310\004\242\231\3173\264<\330"
 420      16CAC804 
 420      A299CF33 
 420      B43CD8
 421 0058 7B9A2B91 		.ascii	"{\232+\221q!#+P\272\232\341WCG\203@&#P9\304D\220\010"
 421      7121232B 
 421      50BA9AE1 
 421      57434783 
 421      40262350 
 422 0071 47262363 		.ascii	"G&#c.#\003TQ&P+\303y\206\346\007\373\2631\2641'3B<\220"
 422      2E230354 
 422      5126502B 
 422      C37986E6 
 422      07FBB331 
 423 008c C908B4FC 		.ascii	"\311\010\264\374\"C\343\203\023\3320E\020\020\0024\027"
 423      2243E383 
 423      13DA3045 
 423      10100234 
 423      17
 424 009d 68314895 		.ascii	"h1H\225\273~F~n\252~r~J\245~Jj\231~rFfRf~\261~IQi^\266"
 424      BB7E467E 
 424      6EAA7E72 
 424      7E4AA57E 
 424      4A6A997E 
 425 00be 3E909191 		.ascii	">\220\221\221\230\243_\220_TR\254\037\034\342kl\244"
 425      98A35F90 
 425      5F5452AC 
 425      1F1CE26B 
 425      6CA4
 426 00d0 EFE3E3A2 		.ascii	"\357\343\343\242\037\032\354\030\024Rf\250_\232XT\022"
 426      1F1AEC18 
 426      145266A8 
 426      5F9A5854 
 426      12
 427 00e1 9F9393A2 		.ascii	"\237\223\223\242\227\314\000\000#\321H\277"
 427      97CC0000 
 427      23D148BF 
 428              		.text
 429              		.section	.gnu.lto_uart_lld_init.7ba27ab42e98d73b,"",%progbits
 430 0000 789C6362 		.ascii	"x\234cb`b@\007\222@\314\005\024\366\004\322\214\314"
 430      60624007 
 430      9240CC05 
 430      14F604D2 
 430      8CCC
 431 0012 0C8C4C13 		.ascii	"\014\214L\023\316104r012\202\030\014\214\014\365L\214"
 431      CE313034 
 431      72303132 
 431      82180C8C 
 431      0CF54C8C 
 432 0026 F5918C60 		.ascii	"\365\221\214`\265\353\231\016<\370\377\177\335\266y"
 432      B5EB990E 
 432      3CF8FF7F 
 432      DDB679
 433 0035 73F730FE 		.ascii	"s\3670\376gb\007\212\2602\26444LP``H\006\253\010\001"
 433      6762078A 
 433      B032B434 
ARM GAS  /tmp/ccPWYpcT.s 			page 34


 433      344C5060 
 433      604806AB 
 434 004b 92206DA1 		.ascii	"\222 m\241\214L \232\371<C\313\203y\353\271\022\031"
 434      8C4C209A 
 434      F93C43CB 
 434      8379EBB9 
 434      1219
 435 005d 1732B202 		.ascii	"\0272\262\002\245\253\031~5t4\010d2\002\225CL\004\211"
 435      A5AB197E 
 435      35743408 
 435      64320295 
 435      434C0489 
 436 0071 70643232 		.ascii	"pd22\34622@\025e\002\2652\234eh\332\361\343\371e&\210"
 436      E6323240 
 436      156502B5 
 436      329C6568 
 436      DAF1E3F9 
 437 0088 9836C3AA 		.ascii	"\2306\303\252\006 0\316dd\236\3150\253\261\001d\002"
 437      062030CE 
 437      64649ECD 
 437      30ABB101 
 437      6402
 438 009a 0BDC2C90 		.ascii	"\013\334,\220^ \210`\314\204\232\231\004\241\300\"\314"
 438      5E208860 
 438      CC849A99 
 438      04A1C022 
 438      CC
 439 00ab 0D0B5A1A 		.ascii	"\015\013Z\032X\030 &\316x\205i\"+q&2\302Mdc\203\230"
 439      58182026 
 439      CE788569 
 439      222B7126 
 439      32C24D64 
 440 00c2 F6AB79F9 		.ascii	"\366\253y\371^-t\323\330\2113\215\011\356\367\031\015"
 440      5E2D74D3 
 440      D889338D 
 440      09EEF719 
 440      0D
 441 00d3 0D91406D 		.ascii	"\015\221@m\272\014k@J9r\031\031A\3528yQ\242\010l\333"
 441      BA0C6B40 
 441      4A397219 
 441      1941EA38 
 441      7951A208 
 442 00e9 6AB26D63 		.ascii	"j\262mc&d\033?\212m\027\031\032\037\374\326\207E\031"
 442      26641B3F 
 442      8A6D1719 
 442      1A1FFCD6 
 442      874519
 443 00fc 0484000D 		.ascii	"\004\204\000\015\003\306'\310\335\356\372\031\371\271"
 443      03C627C8 
 443      DDEEFA19 
 443      F9B9
 444 010a A9FAC9F9 		.ascii	"\251\372\311\371)\225\372)\251e\372\311\031\231I\231"
 444      2995FA29 
 444      A965FAC9 
 444      19994999 
 445 011a F9C5FA25 		.ascii	"\371\305\372%E\245y\331\372@FFb\216~A~QI\261~p\210\257"
 445      45A579D9 
ARM GAS  /tmp/ccPWYpcT.s 			page 35


 445      FA404646 
 445      628E7E41 
 445      7E5149B1 
 446 0132 B191BE8F 		.ascii	"\261\221\276\217\217\213~h\260cPH\231\241~ibQI|NN\212"
 446      8F8B7E68 
 446      B0635048 
 446      99A17E69 
 446      6251497C 
 447 0149 5E320300 		.ascii	"^2\003\000\000\360\227\011"
 447      00F09709 
 448              		.text
 449              		.section	.gnu.lto_uart_lld_start.7ba27ab42e98d73b,"",%progbits
 450 0000 789C9555 		.ascii	"x\234\225UMH\025Q\024>g\376\237\357\275\322\324\227"
 450      4D481551 
 450      143E67FE 
 450      9FEFBDD2 
 450      D497
 451 0012 3F4F6D13 		.ascii	"?Om\023\204\202\223I\320\242EA\020BA\224B\265\011{\312"
 451      84829349 
 451      D0A24541 
 451      10424194 
 451      42B5097B 
 452 0027 734833FC 		.ascii	"sH3\374\211\312\205\363\314\310\305\023\332\004R\033"
 452      89CA85F3 
 452      CCC8C513 
 452      DA04521B 
 453 0037 454AD07E 		.ascii	"EJ\320~h\021\274\250\305+*\"\250\2106\341J\334\324*"
 453      6811BCA8 
 453      C52B2A22 
 453      A88836E1 
 453      4ADCD42A 
 454 004b 5C45B8C8 		.ascii	"\\E\270\310\316\231;w\3363\247\037/\314\231;\367\234"
 454      CE993B77 
 454      DE33A71F 
 454      2FCC993B 
 454      F79C
 455 005d EF3BDF39 		.ascii	"\357;\3379s\357\214\002\012\374>\272\351\272g\002\264"
 455      73EF8C02 
 455      0AFC3EBA 
 455      E9BA6702 
 455      B4
 456 006e D11D2380 		.ascii	"\321\035#\200\312\215\367\000\031KQ\324\327u\340\226"
 456      CA8DF700 
 456      194B51D4 
 456      D775E096 
 457 007e 586F7783 		.ascii	"Xow\203\033S\025mZ\247'}\345\015\320\243\206\272\210"
 457      1B53156D 
 457      5AA7277D 
 457      E50DD0A3 
 457      86BA88
 458 0091 D21563A5 		.ascii	"\322\025c\245\222\326\315\351}\264l\240)\226M\264\304"
 458      92D6CDE9 
 458      7DB46CA0 
 458      29964DB4 
 458      C4
 459 00a2 C442E409 		.ascii	"\304B\344\011 \214*\252\246\033\246\205\243\247\320"
 459      208C2AAA 
ARM GAS  /tmp/ccPWYpcT.s 			page 36


 459      A61BA685 
 459      A3A7D0
 460 00b1 CBFB50C9 		.ascii	"\313\373P\311/\255\255=\230Z\316\277\302\207\217\265"
 460      2FADAD3D 
 460      985ACEBF 
 460      C2878FB5 
 461 00c1 9D3AF621 		.ascii	"\235:\366!\030\340 \230dH\011\231(\031%FF\215\263)e"
 461      18E02098 
 461      64480999 
 461      28192546 
 461      468DB329 
 462 00d6 53C6A69C 		.ascii	"S\306\246\234\214V\301\336J~L\260\251bD5\031\275\206"
 462      8C56C1DE 
 462      4A7E4CB0 
 462      A9624435 
 462      19BD86
 463 00e9 8C514BC6 		.ascii	"\214QK\306L\262\243\236\035\015\354\240\264:\214\273"
 463      4CB2A39E 
 463      1D0DECA0 
 463      B43A8CBB 
 464 00f9 EE8D1D00 		.ascii	"\356\215\035\000)OF;YV\330\201\012\337\325w0\266\370"
 464      294F463B 
 464      5956D881 
 464      0ADFD577 
 464      30B6F8
 465 010c 79369BEC 		.ascii	"y6\233\354\304\031\012O\243\321\004\215\016Z\267\341"
 465      C4190A4F 
 465      A3D1048D 
 465      0E5AB7E1 
 466 011c 163A1849 		.ascii	"\026:\030I\243~\222\356%^\001gQ\266\360\015\274\374"
 466      A37E92EE 
 466      255E0167 
 466      51B6F00D 
 466      BCFC
 467 012e 92890710 		.ascii	"\222\211\007\020\016\261\260\250\305\035\250\302\353"
 467      0EB1B0A8 
 467      C51DA8C2 
 467      EB
 468 013b 3A95C39E 		.ascii	":\225\303\236?Z\316\243\214\324G`\325\235p\335V\242"
 468      3F5ACEA3 
 468      8CD44760 
 468      D59D70DD 
 468      56A2
 469 014d ECC36204 		.ascii	"\354\303b\004c4\370\211B\317\335\354\376@\266\300\322"
 469      6334F889 
 469      42CFDDEC 
 469      FE40B6C0 
 469      D2
 470 015e 48A3E969 		.ascii	"H\243\351iC\322\226q]\367f\210@I\371\001\256\347\253"
 470      43D29671 
 470      5DF76688 
 470      4049F901 
 470      AEE7AB
 471 0171 3BF18E87 		.ascii	";\361\216\207\024IK\035\214\246\374\000\242bT,\346\373"
 471      14494B1D 
 471      8CA6FC00 
 471      A262542C 
ARM GAS  /tmp/ccPWYpcT.s 			page 37


 471      E6FB
 472 0183 F24F96BF 		.ascii	"\362O\226\277\352\016\306S\250\370 \342up\013\000\313"
 472      EA0EC653 
 472      A8F820E2 
 472      75700B00 
 472      CB
 473 0194 F93197DD 		.ascii	"\3711\227\335/\226\323\030\371\247\004\345\177%D\326"
 473      2F96D318 
 473      F9A704E5 
 473      7F2544D6 
 474 01a4 4BF82425 		.ascii	"K\370$%\250\033$\274X\234Z\310\232RB\254\011\346\335"
 474      A81B24BC 
 474      589C5AC8 
 474      9A5242AC 
 474      09E6DD
 475 01b7 F10C916D 		.ascii	"\361\014\221m\025o\251\224\211\312\334\225\011W\003"
 475      156FA994 
 475      89CADC95 
 475      095703
 476 01c6 6FEA2B51 		.ascii	"o\352+Q}%\357\340\352\023U\242\343D\300A\264\267<\352"
 476      7D25EFE0 
 476      EA1355A2 
 476      E344C041 
 476      B4B73CEA 
 477 01da 36E1D81C 		.ascii	"6\341\330\034'\321p\201\327\226\356?z\206\033j\334\226"
 477      27D17081 
 477      D796EE3F 
 477      7A861B6A 
 477      DC96
 478 01ec A257C9C3 		.ascii	"\242W\311\303+p'\370u:X.\372\371y!\333,\345\224rb\227"
 478      2B7027F8 
 478      753A582E 
 478      FAF97921 
 478      DB2CE594 
 479 0203 51B1F02D 		.ascii	"Q\261\360-\247\205\025Q\226\026\002U\202\036\360\234"
 479      A7851551 
 479      96160255 
 479      821EF09C 
 480 0213 634575FC 		.ascii	"cEu\374\233.\355\327C\233N\347\215\312\252rs\223\015"
 480      9B2EEDD7 
 480      439B4EE7 
 480      8DCAAA72 
 480      73930D
 481 0226 729F967B 		.ascii	"r\237\226{oY\013\247\320\003Ec\213+Q\011\251\340\314"
 481      6F590BA7 
 481      D0034563 
 481      8B2B5109 
 481      A9E0CC
 482 0239 94B74280 		.ascii	"\224\267B\200*\211\204A\232\0172\012e<\275\372=8\020"
 482      2A898441 
 482      9A0F320A 
 482      653CBDFA 
 482      3D3810
 483 024c 51027298 		.ascii	"Q\002r\230\342\356\222\307\252%\360\011\307\216ug\304"
 483      E2EE92C7 
 483      AA25F009 
 483      C78E7567 
ARM GAS  /tmp/ccPWYpcT.s 			page 38


 483      C4
 484 025d 80594B9C 		.ascii	"\200YK\234\221\271\311f\031Y\271\311&\012T\202\200\242"
 484      91B9C966 
 484      1959B9C9 
 484      260A5482 
 484      80A2
 485 026f 89C78216 		.ascii	"\211\307\202\026\316l\242\205\011\251\311\224-\3741"
 485      CE6CA285 
 485      09A9C994 
 485      2DFC31
 486 027e 37A94BF6 		.ascii	"7\251K\366\252\340\240\374\345\230\022\350\264\004T"
 486      AAE0A0FC 
 486      E59812E8 
 486      B40454
 487 028d FB0D4C08 		.ascii	"\373\015L\010\310v\242`\010\372\0203\004R\343\3450\302"
 487      C876A260 
 487      08FA1033 
 487      0452E3E5 
 487      30C2
 488 029f 735805C0 		.ascii	"sX\005\300jPs\355\010\\q\370;B\273\035\203\315^ET\014"
 488      6A5073ED 
 488      085C71F8 
 488      3B42BB1D 
 488      83CD5E45 
 489 02b5 357C68A4 		.ascii	"5|h\244\320qB\177\013\320I\"\220\207Fv\252\210\246\232"
 489      D071427F 
 489      0BD04922 
 489      90874676 
 489      AA88A69A 
 490 02c9 8A609A84 		.ascii	"\212`\232\204OS\3427*)\366\312\304|\360\305\254\377"
 490      4F53E237 
 490      2A29F6CA 
 490      C47CF0C5 
 490      ACFF
 491 02db 5B739442 		.ascii	"[s\224B\352\240\322\206\015\315\251\017o\316\237\245"
 491      EAA0D286 
 491      0DCDA90F 
 491      6FCE9FA5 
 492 02eb 35FC51DA 		.ascii	"5\374Q\332\213\\n~\262\261\010\227q\367:X\023\256.\352"
 492      8B5C6E7E 
 492      B2B10897 
 492      71F73A58 
 492      13AE2EEA 
 493 02ff DD79A5A6 		.ascii	"\335y\245\246\260+-\371+\311M-\0243\321hq\2606\234)"
 493      B02B2DF9 
 493      2BC94D2D 
 493      1433D168 
 493      71B0369C 
 494 0314 1630D5FA 		.ascii	"\0260\325\372\345\346r!\350d8:\036\240\223<\371\000"
 494      E5E67221 
 494      E864383A 
 494      1EA0933C 
 494      F900
 495 0326 E34B0F1E 		.ascii	"\343K\017\036_\222?\213\340[T\227\362\317\253\3675\255"
 495      5F923F8B 
 495      E05B5497 
 495      F2CFABF7 
ARM GAS  /tmp/ccPWYpcT.s 			page 39


 495      35AD
 496 0338 07F80899 		.ascii	"\007\370\010\231%\372\373\006\177\025o\264S'\251\002"
 496      25FAFB06 
 496      7F156FB4 
 496      5327A902 
 497 0348 EEFC61BB 		.ascii	"\356\374a\273\247\277\257\333N\365w]\266\273\272/\332"
 497      A7BFAFDB 
 497      4EF5775D 
 497      B6BBBA2F 
 497      DA
 498 0359 A91EE7AC 		.ascii	"\251\036\347\254\323?h\017\015\014\237?g\323\244\247"
 498      D33F680F 
 498      0D0C9F3F 
 498      67D3A4A7 
 499 0369 B3D7BED0 		.ascii	"\263\327\276\320?04h\237h?\332\272\307>r\344\220\335"
 499      3F303468 
 499      9F683FDA 
 499      BAC73E72 
 499      E490DD
 500 037c 71E2E0F1 		.ascii	"q\342\340\361\366\213-\366p\347\300\320\231\336\336"
 500      F68B2DF6 
 500      70E7C0D0 
 500      99DEDE
 501 038b AEE614FC 		.ascii	"\256\346\024\374\002+\327\260\223"
 501      022BD7B0 
 501      93
 502              		.text
 503              		.section	.gnu.lto_uart_lld_stop.7ba27ab42e98d73b,"",%progbits
 504 0000 789C8D91 		.ascii	"x\234\215\221=H\003A\020\205gvo\275\370\207\202m\012"
 504      3D480341 
 504      10856776 
 504      6FBDF887 
 504      826D0A
 505 0013 6B4517B5 		.ascii	"kE\027\265\027\004A\004m4\001\255$\271\210YL\214\304"
 505      17044104 
 505      6D3401AD 
 505      24B98859 
 505      4C8CC4
 506 0026 A8884236 		.ascii	"\250\210B6ja#\244\024S\331Y)*\3016\202\004QT\354D\233"
 506      6A6123A4 
 506      1453D959 
 506      292AC136 
 506      82045154 
 507 003d 7416A905 		.ascii	"t\026\251\005\261\211\263w^\020S\350\300\315\334\336"
 507      B189B377 
 507      5E1053E8 
 507      C0CDDCDE 
 508 004d BDF9F6ED 		.ascii	"\275\371\366\355,\003\006\277c\204\236.\372<N\025\233"
 508      2C0306BF 
 508      63849E2E 
 508      FA3C4E15 
 508      9B
 509 005e 0059FE01 		.ascii	"\000Y\376\001 \027`\214\227;@\267\210\333a\320m\234"
 509      2017608C 
 509      973B40B7 
 509      88DB61D0 
 509      6D9C
ARM GAS  /tmp/ccPWYpcT.s 			page 40


 510 0070 59EFB659 		.ascii	"Y\357\266Y\025\312@K\013\205Q\241@4\025\020\262\214"
 510      15CA404B 
 510      0B8551A1 
 510      40341510 
 510      B28C
 511 0082 5B02B3B3 		.ascii	"[\002\263\263\3502OY\251R\253\235\344\253\037\327xz"
 511      E8324F59 
 511      A952AB9D 
 511      E4AB1FD7 
 511      787A
 512 0094 69B5324C 		.ascii	"i\2652L\"pP\010\202\022\332&\221L\300\256\326\371n\000"
 512      22705008 
 512      8212DA26 
 512      914CC0AE 
 512      D6F96E00 
 513 00a8 C76D0B51 		.ascii	"\307m\013Q6\27002S\371=l\277<\237\357\007#x\204\002"
 513      36B83032 
 513      53F93D6C 
 513      BF3C9FEF 
 513      07237884 
 514 00bd 1690F742 		.ascii	"\026\220\367B\217BV\200CT\310\027\220\315P\265\334\015"
 514      8F425680 
 514      4354C817 
 514      90CD50B5 
 514      DC0D
 515 00cf A3E81FE7 		.ascii	"\243\350\037\347\006\256\337r\355\365\026#a?\017\035"
 515      06AEDF72 
 515      EDF51623 
 515      613F0F1D 
 516 00df 460EE50E 		.ascii	"F\016\345\016\376\010\273\225\273\342\226\247\003\330"
 516      FE08BB95 
 516      BBE296A7 
 516      03D8
 517 00ed 844FBDA7 		.ascii	"\204O\275\247;\025\012\007=\024\341\025\215\003\214"
 517      3B150A07 
 517      3D14E115 
 517      8D038C
 518 00fc 89838BFD 		.ascii	"\211\203\213\375>\237(\\\023H&rZ\353\365F#\276\023\332"
 518      3E9F285C 
 518      13482672 
 518      5AEBF546 
 518      23BE13DA 
 519 0110 A1D4D7C0 		.ascii	"\241\324\327\300\267\035d\337|\2410\340\361\217/\352"
 519      B71D64DF 
 519      7CA130E0 
 519      F18F2FEA 
 520 0120 86EDBFF0 		.ascii	"\206\355\277\360\354\277x\333\305\233q\\\235UK\350o"
 520      ECBF78DB 
 520      C59B715C 
 520      9D554BE8 
 520      6F
 521 0131 C03CAD1E 		.ascii	"\300<\255\036\"d\262n\326\237\215\005\267H\263\331\011"
 521      2264B26E 
 521      D69F8D05 
 521      B748B3D9 
 521      09
 522 0142 34909B1D 		.ascii	"4\220\233\035\032\234\011\205-\276Z\270\327\364\004"
ARM GAS  /tmp/ccPWYpcT.s 			page 41


 522      1A9C0985 
 522      2DBE5AB8 
 522      D7F404
 523 0151 B9CA6B31 		.ascii	"\271\312k1\350wx\021\"4\3754f\306d<\225\234\227N*\266"
 523      E8777811 
 523      2234FD34 
 523      66C6643C 
 523      959C974E 
 524 0167 2163F36B 		.ascii	"!c\363k\322\211\253\250J\255\310LzuiQ\322K<\222\220"
 524      D289ABA8 
 524      4AADC84C 
 524      7A756951 
 524      D24B3C92 
 525 017c CBA97466 		.ascii	"\313\251tfEN\207&\207\006\345\304\304\250\014O\217L"
 525      454E8726 
 525      8706E5C4 
 525      C4A80C4F 
 525      8F4C
 526 018e 85D606E4 		.ascii	"\205\326\006\344j$\235\231K$b\375\016|\001R7\225%"
 526      6A249D99 
 526      4B2462FD 
 526      0E7C0152 
 526      379525
 527              		.text
 528              		.section	.gnu.lto_uart_lld_start_send.7ba27ab42e98d73b,"",%progbits
 529 0000 789C9592 		.ascii	"x\234\225\222\317K\002A\024\307\337\233\335\325MQ\274"
 529      CF4B0241 
 529      14C7DF9B 
 529      DDD54D51 
 529      BC
 530 0011 76938E05 		.ascii	"v\223\216\005\016\325_\020\004Q\330\241T\250.\341\217"
 530      0ED55F10 
 530      0451D8A1 
 530      54A82EE1 
 530      8F
 531 0022 5A972CC3 		.ascii	"Z\227,\303_\324\311\265$\272\004\022]\252K\321%\272"
 531      5FD4C9B5 
 531      24BA0412 
 531      5DAA4BD1 
 531      25BA
 532 0034 740C6FD6 		.ascii	"t\014o\326\265\214\272J\007/A\247.A\024\004\366fW\215"
 532      B58CBA4A 
 532      072F41A7 
 532      2E411404 
 532      F666578D 
 533 0048 2CB006F6 		.ascii	",\260\006\366\275\231\307|\276\357;;\303\200A\347\350"
 533      BD99C77C 
 533      BEEF3B3B 
 533      C38041E7 
 533      E8
 534 0059 A5AF4CE5 		.ascii	"\245\257L\345)\312(\001\262\322-@Ae\210b\002\010y\206"
 534      29CA2801 
 534      B2D22D40 
 534      41658862 
 534      02087986 
 535 006d F959145B 		.ascii	"\371Y\024[\261\017\216\015c\267\376\370\262#\355\357"
 535      B10F8E0D 
ARM GAS  /tmp/ccPWYpcT.s 			page 42


 535      63B7FEF8 
 535      B223EDEF 
 536 007d 558A47C6 		.ascii	"U\212G\306G\243\201\250#\311N D\021fh\201^31\371{\237"
 536      47A381A8 
 536      23C94E20 
 536      44116668 
 536      815E3331 
 537 0094 7356A937 		.ascii	"sV\2517\0327\357[\325K|\270\220=\014\227\021$\320Q\222"
 537      1A37EF5B 
 537      D54B7CB8 
 537      903D0C97 
 537      1124D051 
 538 00a9 29C80A2D 		.ascii	")\310\012-\321\006a<\246.*-\230\203\312\340\024\301"
 538      D106613C 
 538      A62E2A2D 
 538      9883CAE0 
 538      14C1
 539 00bb 25825B04 		.ascii	"%\202[\004\032\012\024\015\243\344\005\321\216F\220"
 539      1A0A140D 
 539      A3E405D1 
 539      8E4690
 540 00ca A2301A42 		.ascii	"\2420\032B&\262T\205\215\332\033\371\013\343\011*\240"
 540      26B25485 
 540      8DDA1BF9 
 540      0BE3092A 
 540      A0
 541 00db A13400FD 		.ascii	"\2414\000\375\324\343\020\016\310\223\242!\023\336l"
 541      D4E3100E 
 541      C893A221 
 541      13DE6C
 542 00ea A6A308B6 		.ascii	"\246\243\010\266\274\0214\327\002\344\00183<:\332-D"
 542      BC1134D7 
 542      02E40138 
 542      333C3ADA 
 542      2D44
 543 00fc 25098148 		.ascii	"%\011\201HM\004\277\220\347v\023\233F\211JW\343VEH\024"
 543      4D04BF90 
 543      E776139B 
 543      46894A57 
 543      E3564548 
 544 0111 09EAB134 		.ascii	"\011\352\2614\034\244*4\354M\015\353\0224a\203\230\353"
 544      1CA42A34 
 544      EC4D0DEB 
 544      12346183 
 544      98EB
 545 0123 ED57D79F 		.ascii	"\355W\327\2370\251\211\251f\367\332i\013\323\320a\036"
 545      30A989A9 
 545      66F7DA69 
 545      0BD3D061 
 545      1E
 546 0134 D2F9FB21 		.ascii	"\322\371\373!\345\266\343\315r\333\261\223 \261\011"
 546      E5B6E3CD 
 546      72DBB193 
 546      20B109
 547 0143 EE54F887 		.ascii	"\356T\370\207s\245i\301i2\265\247/\013.\223,x\272\240"
 547      73A569C1 
 547      6932B5A7 
ARM GAS  /tmp/ccPWYpcT.s 			page 43


 547      2F0B2E93 
 547      2C78BAA0 
 548 0157 1D36DC04 		.ascii	"\0356\334\004\2326\360\247\213\256Z\204\003\334C\241"
 548      9A36F0A7 
 548      8BAE5A84 
 548      03DC43A1 
 549 0167 4ECFC9E2 		.ascii	"N\317\311\342Z#H\327D\217A\374\3471\036O./\360h2\266"
 549      5A2348D7 
 549      448F41FC 
 549      E7311E4F 
 549      2E2FF068 
 550 017d CE630B39 		.ascii	"\316c\0139\036\215\353\021=\231\346\231Tve\211\323$"
 550      1E8DEB11 
 550      3D99E699 
 550      54766589 
 550      D324
 551 018f 1E4EF0D5 		.ascii	"\036N\360\325d*\223\346\201\340\344\360\020\367\373"
 551      642A93E6 
 551      81E0E4F0 
 551      10F7FB
 552 019e 47792830 		.ascii	"Gy(02\035\314\015\362l8\225\231O$b\276(\3303k\221\354"
 552      321DCC0D 
 552      F26C3895 
 552      994F2462 
 552      BE28D833 
 553 01b5 A26FF813 		.ascii	"\242o\370\023\177=\250*"
 553      7F3DA82A 
 554              		.text
 555              		.section	.gnu.lto_uart_lld_stop_send.7ba27ab42e98d73b,"",%progbits
 556 0000 789C9592 		.ascii	"x\234\225\222\275K[Q\030\306\337\367|\304|\335\230\374"
 556      BD4B5B51 
 556      18C6DFF7 
 556      7CC47CDD 
 556      98FC
 557 0012 07CE0D78 		.ascii	"\007\316\015x\250\245\233\016\001A\004]\232\004\324"
 557      A8A59B0E 
 557      0141045D 
 557      9A04D4
 558 0021 456222C9 		.ascii	"Eb\"\311\305\330H>\004'\357\325\014\016\026\234\333"
 558      C5D8483E 
 558      0427EFD5 
 558      0C0E169C 
 558      DB
 559 0032 A96BA175 		.ascii	"\251k\241utp\011\005i\027\013]\235\374\003D\305\311"
 559      74700905 
 559      69170B5D 
 559      9DFC0344 
 559      C5C9
 560 0044 A5C6F79C 		.ascii	"\245\306\367\234{s\032B\012\365B\236s9\357\371\275\357"
 560      7B731A42 
 560      0AF5429E 
 560      7339EFF9 
 560      BDEF
 561 0056 739E5C06 		.ascii	"s\236\\\006\014F\237Y\372e8\300\"\255\030\001d'\277"
 561      0C469F59 
 561      FA6538C0 
 561      22AD1801 
ARM GAS  /tmp/ccPWYpcT.s 			page 44


 561      6427BF
 562 0069 00FC2843 		.ascii	"\000\374(C\036\274p&\217\177\000xq\321\235\000/)\203"
 562      1EBC7026 
 562      8F7F0078 
 562      71D19D00 
 562      2F2983
 563 007c FD9C40D4 		.ascii	"\375\234@\324+ \3543.\005\356\257\242iw\312z\327\375"
 563      2B20EC33 
 563      2E05EEAF 
 563      A26977CA 
 563      7AD7FD
 564 008f FEB787BB 		.ascii	"\376\267\207\273\373\013\374s&2\014\267\0218\270\010"
 564      FB0BFC73 
 564      26320CB7 
 564      1138B808 
 565 009f 82042509 		.ascii	"\202\004%\011\213h\211j\211i\211\223\360\004\211H\222"
 565      8B68896A 
 565      89698993 
 565      F0048948 
 565      92
 566 00b0 48474B4A 		.ascii	"HGKJ\027\322$\021\352)\241\353y'S\000e3\243@J^\212\310"
 566      17D22411 
 566      EA29A1EB 
 566      79275300 
 566      6533A340 
 567 00c8 68E19770 		.ascii	"h\341\227pp\365\370\364\201\227\3603u\257\"\317\302"
 567      70F5F8F4 
 567      8197F033 
 567      75AF22CF 
 567      C2
 568 00d9 2B9AF609 		.ascii	"+\232\366\011>\242\213\023Ud+\264F\215\267\015\034\\"
 568      3EA28B13 
 568      55642BB4 
 568      468DB70D 
 568      1C5C
 569 00eb 9AA0B501 		.ascii	"\232\240\265\001 \262\360\305K\273\030\013\2208\265"
 569      20B2F0C5 
 569      4BBB180B 
 569      9038B5
 570 00fa D0088408 		.ascii	"\320\010\204\010Z\344\273E\244F\272>A\211\000JR\033"
 570      5AE4BB45 
 570      A446BA3E 
 570      4189004A 
 570      521B
 571 010c 0DC54288 		.ascii	"\015\305B\210Y\350\360\334:\213\020\250\0171\012\250"
 571      59E8F0DC 
 571      3A8B10A8 
 571      0F310AA8 
 572 011c 3F19B45C 		.ascii	"?\031\264\\\014\212\377\327\257j\322\240\247\210\034"
 572      0C8AFFD7 
 572      AF6AD2A0 
 572      A7881C
 573 012b 287D3EEC 		.ascii	"(}>\354)jz\340\313,\305\2103\226\364-\177B\367\006m"
 573      296A7AE0 
 573      CB2CC588 
 573      3396F42D 
 573      7F42F706 
ARM GAS  /tmp/ccPWYpcT.s 			page 45


 574 0140 C56C0F7F 		.ascii	"\305l\017\177(\005\332\247/\001\213(\302\334\355\354"
 574      2805DAA7 
 574      2F018B28 
 574      C2DCEDEC 
 575 0150 7818A133 		.ascii	"x\030\2413>B>&\365D\210\244\306#\342/rk\335\322\225"
 575      3E423E26 
 575      F54488A4 
 575      C623E22F 
 575      726BDDD2 
 576 0165 12E6025F 		.ascii	"\022\346\002_\355\226\243!9\247\213#\207ST\034\216\230"
 576      ED96A321 
 576      39A78B23 
 576      8753541C 
 576      8E98
 577 0177 E6F8261E 		.ascii	"\346\370&\036\262\253!'\2144e\016]\035\365\235\001\231"
 577      B2AB2127 
 577      8C34650E 
 577      5D1DF59D 
 577      0199
 578 0189 0EFE0DEF 		.ascii	"\016\376\015\357\355?\263\224\241\273\337\340\367\354"
 578      ED3FB394 
 578      A1BBDFE0 
 578      F7EC
 579 0197 C0F42026 		.ascii	"\300\364 &\244xtr\013\252\326\330\336T\345FeOU6wU\271"
 579      A4787472 
 579      0BAAD6D8 
 579      DE54E546 
 579      654F5536 
 580 01ae E66EB88D 		.ascii	"\346n\270\215\226j7;\357\267\024\275\324Ju\265\323h"
 580      966A373B 
 580      EFB714BD 
 580      D44A75B5 
 580      D368
 581 01c0 B65B2A5F 		.ascii	"\266[*_X~3\243\226\226\346U1\237{W\330}\255:\245f{\275"
 581      587E33A3 
 581      9696E655 
 581      319F7B57 
 581      D87DAD3A 
 582 01d8 5EAF4C97 		.ascii	"^\257L\227\341\031\365\002\263\323"
 582      E119F502 
 582      B3D3
 583              		.text
 584              		.section	.gnu.lto_uart_lld_start_receive.7ba27ab42e98d73b,"",%progbits
 585 0000 789C9594 		.ascii	"x\234\225\224\317k\023A\024\307\337\233\231\315\357"
 585      CF6B1341 
 585      14C7DF9B 
 585      99CDEF
 586 000f 6C134A4B 		.ascii	"l\023JK\203\227\342\321B\007\177\034\365P\020D\251\007"
 586      8397E2D1 
 586      42077F1C 
 586      F5501044 
 586      A907
 587 0021 6D02EA45 		.ascii	"m\002\352E\362\243&\301\326H\232\024=uc#x\220\022\324"
 587      F2A326C1 
 587      D6489A14 
 587      3D756323 
 587      789012D4 
ARM GAS  /tmp/ccPWYpcT.s 			page 46


 588 0035 8B7A3178 		.ascii	"\213z1xP\242\305\253\305K\353%\005Q\360\232S.\336\304"
 588      50A2C5AB 
 588      C54BEB25 
 588      0551F09A 
 588      532EDEC4 
 589 0049 BF40886F 		.ascii	"\277@\210of7\223\330Fl\006\362\235\335\231\371\274\375"
 589      663793D8 
 589      466C06F2 
 589      9DDD99F9 
 589      BCFD
 590 005b BE378F30 		.ascii	"\2767\2170`pp\234\245\337\236\000\270B3\372\000Y\343"
 590      6070709C 
 590      A5DF9E00 
 590      B84233FA 
 590      0059E3
 591 006e 1B402DC0 		.ascii	"\033@-\300\220\273\017\234Y\217\333\000NH\324\375\340"
 591      90BB0F9C 
 591      598FDB00 
 591      4E48D4FD 
 591      E0
 592 007f 442C777D 		.ascii	"D,w}A \252\031\0206\030\267\004n\\G\025\015\217C\323"
 592      4120AA19 
 592      103618B7 
 592      046E5C47 
 592      150D8F43 
 593 0094 719E741F 		.ascii	"q\236t\037\266\266\370\363g\273\365W\316\357^\017\261"
 593      B6B6F8F3 
 593      67BBF557 
 593      CEEF5E0F 
 593      B1
 594 00a5 88F4E54B 		.ascii	"\210\364\345K\010Y\204k\364\202\263zb\342o+\037\330"
 594      0859846B 
 594      F482B37A 
 594      62E26F2B 
 594      1FD8
 595 00b7 6EB7D77B 		.ascii	"n\267\327{\377\264\335\336\303\355\035q\214\341*\002"
 595      FFB4DDDE 
 595      C3ED1D71 
 595      8CE12A02 
 596 00c7 87227241 		.ascii	"\207\"rA\",\022\360)\011(\011*\011\221Xa\022_\204\304"
 596      222C12F0 
 596      29092809 
 596      2A099158 
 596      61125F84 
 597 00dc 1F5562AB 		.ascii	"\037Ub\253\215\030\261\030\20746\311\322$\275\260)\265"
 597      8D18B118 
 597      873436C9 
 597      D224BDB0 
 597      29B5
 598 00ee 3CAD6446 		.ascii	"<\255dFIB\011\015\013\352\216\323\230\005\345\215F\222"
 598      4942090D 
 598      0BEA8ED3 
 598      9805E58D 
 598      4692
 599 0100 94124D21 		.ascii	"\224\022M!\243\211\177\205\007\235\217o\266x\032_\243"
 599      A3897F85 
 599      079D8F6F 
ARM GAS  /tmp/ccPWYpcT.s 			page 47


 599      B6781A5F 
 599      A3
 600 0111 0579E473 		.ascii	"\005y\344sp\202\354\274\204\027d?\220G\246\322\010j"
 600      7082ECBC 
 600      8417643F 
 600      9047A6D2 
 600      086A
 601 0123 F319ECA7 		.ascii	"\363\031\354\247A\320\215> \346\240\345\304\212\030"
 601      41D08D3E 
 601      20E6A0E5 
 601      C48A18
 602 0132 72913085 		.ascii	"r\2210\205P\010\367\0204\310g\203X\012\251\327\010\212"
 602      5008F710 
 602      34C86783 
 602      580AA9D7 
 602      088A
 603 0144 B85094C2 		.ascii	"\270P\224\302((\344A\314@\233\237\2143\037\201\352\020"
 603      2828E441 
 603      CC409B9F 
 603      8C331F81 
 603      EA10
 604 0156 50057B13 		.ascii	"P\005{\023n\310\213\356\346\321\342Q\0107l\212\334\321"
 604      6EC88BEE 
 604      E6D1E251 
 604      08376C8A 
 604      DCD1
 605 0168 D5F2614F 		.ascii	"\325\362aO\001\035\003\307\263\024$N[RY\356C\375'\232"
 605      011D03C7 
 605      B314244E 
 605      5B5259EE 
 605      43FD279A 
 606 017c 1DBD3C3C 		.ascii	"\035\275<<\222\264Nm\206)\024^\335\315\267C^\011\355"
 606      92B44E6D 
 606      8629145E 
 606      DDCDB743 
 606      5E09ED
 607 018f D125E423 		.ascii	"\321%\344#\252\036\366\220\211\321\210\030 \277\214"
 607      AA1EF690 
 607      89D18818 
 607      20BF8C
 608 019e DB08613A 		.ascii	"\333\010a:\201m\263\024U\220\377\234\332<p\330\246\315"
 608      816DB314 
 608      5590FF9C 
 608      DA3C70D8 
 608      A6CD
 609 01b0 E112D377 		.ascii	"\341\022\323wj\272<dWA\266WR\333\3456\233?L\356\361"
 609      6ABA3C64 
 609      5741B657 
 609      52DBE536 
 609      9B3F4CEE 
 610 01c5 3CC60EDD 		.ascii	"<\306\016\335\316\277+ky\221\342\232\371\362\266e\037"
 610      CEBF2B6B 
 610      7991E29A 
 610      F9F2B665 
 610      1F
 611 01d6 09F379D8 		.ascii	"\011\363y\330\2446\320\331\357cy\234\322-\034\033\335"
 611      A436D0D9 
ARM GAS  /tmp/ccPWYpcT.s 			page 48


 611      EF63799C 
 611      D22D1C1B 
 611      DD
 612 01e7 C2FEC13D 		.ascii	"\302\376\301=\356\230d\247\011\322\027\326\010\034\356"
 612      EE9864A7 
 612      09D217D6 
 612      081CEE
 613 01f6 ABFFF504 		.ascii	"\253\377\365\004\341\232\351<zg,\314\214\321\341\003"
 613      E19AE93C 
 613      7A672CCC 
 613      8CD1E103 
 614 0206 1B09024D 		.ascii	"\033\011\002M;\215\337\335\011\200\357P\353\322\377"
 614      3B8DDFDD 
 614      0980EF50 
 614      EBD2FF
 615 0215 8ACB0D3A 		.ascii	"\212\313\015:\017\251\343\324\251\013\262PZ]\226\331"
 615      0FA9E3D4 
 615      A90BB250 
 615      5A5D96D9 
 616 0225 52EEBECC 		.ascii	"R\356\276\314-\257\313l\241\230)\226\326d\245\\\275"
 616      2DAFCB6C 
 616      A1982996 
 616      D664A55C 
 616      BD
 617 0236 735BD243 		.ascii	"s[\322C!\275\"\357\226\312\2255\271\224\274|\372\224"
 617      21BD22EF 
 617      96CA9535 
 617      B994BC7C 
 617      FA94
 618 0248 5C5C3C2F 		.ascii	"\\\\</SK\013W\223\353'e5]\256\334\\Y\311\315g\301_\276"
 618      534B0B57 
 618      93EB2765 
 618      355DAEDC 
 618      5C59C9CD 
 619 0260 97A9DE9A 		.ascii	"\227\251\336\232?\363\007\354\313\010;"
 619      3FF307EC 
 619      CB083B
 620              		.text
 621              		.section	.gnu.lto_uart_lld_stop_receive.7ba27ab42e98d73b,"",%progbits
 622 0000 789C9594 		.ascii	"x\234\225\224MHTQ\024\307\317\271\357c>\034G\363[7\211"
 622      4D485451 
 622      14C7CFB9 
 622      EF633E1C 
 622      47F35B37 
 623 0015 ED127A54 		.ascii	"\355\022zT\253\026-\204 \012\203H'\262M\214\243\214"
 623      AB162D84 
 623      200A8348 
 623      27B24D8C 
 623      A38C
 624 0027 43EA845F 		.ascii	"C\352\204_P-\274\243\2633dj\021i-\024\011,\212(#\215"
 624      502DBCA3 
 624      B333646A 
 624      11692D14 
 624      092C8A28 
 625 003d 164944BA 		.ascii	"\026ID\2721h\227\322\302\210>\026\341*ZD4\235\363\356"
 625      316897D2 
 625      C2883E16 
ARM GAS  /tmp/ccPWYpcT.s 			page 49


 625      E12A5A44 
 625      349DF3EE 
 626 0051 CC756650 		.ascii	"\314ufP\324\007s\336\275\357\236\337\271\377s\356\271"
 626      D40773DE 
 626      BDEF9EDF 
 626      B9FF73EE 
 626      B9
 627 0062 234040E1 		.ascii	"#@@\341s\236~\2636\300Yz\243\027P\244\336\003$\274\002"
 627      739E7EB3 
 627      36C0597A 
 627      A31750A4 
 627      DE0324BC 
 628 0077 0D353084 		.ascii	"\01550\204\347\306\022\200\364\233I\017\310\200G}o2"
 628      E7C61280 
 628      F49B490F 
 628      C880477D 
 628      6F32
 629 0089 85FD9BE6 		.ascii	"\205\375\233\346~k\362\035-\006,\264\225\273\215\310"
 629      7E6BF21D 
 629      2D062CB4 
 629      95BB8DC8 
 630 0099 03401816 		.ascii	"\003@\030\026\206\307\264l\034nC\336G4\300\264\224\267"
 630      86C7B46C 
 630      1C6E43DE 
 630      4734C0B4 
 630      94B7
 631 00ab D6BF3E1B 		.ascii	"\326\277>\033\257\233\220\213\311)\3717\235F\214!i:"
 631      AF9B908B 
 631      C929F937 
 631      9D468C21 
 631      693A
 632 00bd 8D1041B8 		.ascii	"\215\020A\270@\023\254w_\302\314\027\251\330\305\233"
 632      4013AC77 
 632      5FC2CC17 
 632      A9D8C59B 
 633 00cd 63E3B572 		.ascii	"c\343\265rj$%\377\021\032CC@\363N\344\023\261\270\236"
 633      6A2425FF 
 633      111A4343 
 633      40F34EE4 
 633      13B1B89E 
 634 00e1 4E3F9A58 		.ascii	"N?\232Xz~\017W\016\354\027\330\203`@\014M\223\214e\221"
 634      7A7E0F57 
 634      0EEC17D8 
 634      8360400C 
 634      4D938C65 
 635 00f6 B16D365E 		.ascii	"\261m6^6>6~2\236\"2\336\000\031_1\233 /\224B\030\247"
 635      363E367E 
 635      329E2232 
 635      DE00195F 
 635      319B202F 
 636 010e B101CA68 		.ascii	"\261\001\312h\342/'STA&P\311kUl\252\311a\206\034jxR"
 636      E22F2753 
 636      54412650 
 636      C96B556C 
 636      AAC96186 
 637 0126 CBA68E0D 		.ascii	"\313\246\216\015\251\260 )e\252^\361\300\222\351i%K"
 637      A9B02029 
ARM GAS  /tmp/ccPWYpcT.s 			page 50


 637      65AA5EF1 
 637      C092E969 
 637      254B
 638 0138 350DA1A0 		.ascii	"5\015\241\240\227\261\002#k\013s\343F\030\357\243\005"
 638      97B10223 
 638      6B0B73E3 
 638      4618EFA3 
 638      05
 639 0149 51341AE1 		.ascii	"Q4\032\341 \311\274\013\223\224Uq\024\005g\027tsj\307"
 639      20C9BC0B 
 639      93945571 
 639      14056717 
 639      74736AC7 
 640 015d 6C76045D 		.ascii	"lv\004]\314\002f#<\224\2451,QH)\205`\304\314 \250\221"
 640      CC026623 
 640      3C94A531 
 640      2C514829 
 640      8560C4CC 
 641 0174 371AB118 		.ascii	"7\032\261\030I&\010\332\247\2402\012\303PI\006\022\032"
 641      492608DA 
 641      A7A0320A 
 641      C3504906 
 641      121A
 642 0186 1A7DA595 		.ascii	"\032}\245\225\331\004\262\223M\205M\227\250\220\247"
 642      D904B293 
 642      4D854D97 
 642      A890A7
 643 0195 D4E2EEE2 		.ascii	"\324\342\356\342E\335\232\320\023B\003\250[\214\\M^"
 643      45DD9AD0 
 643      134203A8 
 643      5B8C5C4D 
 643      5E
 644 01a6 3706EE4D 		.ascii	"7\006\356M\222\2178W\022g\271\014\311\237\250W\334\317"
 644      928F3857 
 644      1267B90C 
 644      C99FA857 
 644      DCCF
 645 01b8 B91DD18A 		.ascii	"\271\035\321\212\036\240\216\306\020\225F\325]\357\355"
 645      1EA08EC6 
 645      109546D5 
 645      5DEFED
 646 01c7 CF94B07C 		.ascii	"\317\224\260|\353\022\032[T\275(\203Tl\215\230\233\310"
 646      EB121A5B 
 646      54BD2883 
 646      546C8D98 
 646      9BC8
 647 01d9 86561B20 		.ascii	"\206V\033 \314M\340\261\376T\314\220\3578/\0268\007"
 647      CC4DE0B1 
 647      FE54CC90 
 647      EF382F16 
 647      3807
 648 01eb 6931B7C4 		.ascii	"i1\267\304\264O\302-\017\311e\250<S\322\240\353\264"
 648      B44FC22D 
 648      0FC965A8 
 648      3C53D2A0 
 648      EBB4
 649 01fd F6716EDC 		.ascii	"\366qn\334\312\242\245\3528d\311\266\305\2646\345\255"
ARM GAS  /tmp/ccPWYpcT.s 			page 51


 649      CAA2A5EA 
 649      3864C9B6 
 649      C5B436E5 
 649      AD
 650 020e DD99FB8C 		.ascii	"\335\231\373\214\272Og\334>US\371\372\333SrTQ#\252\221"
 650      BA4F67DC 
 650      3E5553F9 
 650      FADB5372 
 650      545123AA 
 651 0223 A258C6C1 		.ascii	"\242X\306\301\245\\\234\030\013\322u`U\222\353P\330"
 651      A55C9C18 
 651      0BD27560 
 651      5592EB50 
 651      D8
 652 0234 A936830B 		.ascii	"\2516\203\013j#\336%U\024\306yW]y\246r\225\232\255\242"
 652      6A23DE25 
 652      5514C679 
 652      575D79A6 
 652      72959AAD 
 653 0249 A8CCFA33 		.ascii	"\250\314\3723\254'\207]\206\267\337\023\305\232e\267"
 653      AC27875D 
 653      86B7DF13 
 653      C59A65B7 
 654 0259 EAFC53B5 		.ascii	"\352\374S\265\340\201m\204hCu\250\177F\277\3346\262"
 654      E0816D84 
 654      684375A8 
 654      7F46BFDC 
 654      36B2
 655 026b FE15D7E1 		.ascii	"\376\025\327\341\032]\325lk\325l+\327\253\267\314U\275"
 655      1A5DD56C 
 655      6BD56C2B 
 655      D7ABB7CC 
 655      55BD
 656 027d A1035552 		.ascii	"\241\003UR\254\354i\314g\033>\323\254*ba\211}:\024\321"
 656      ACEC69CC 
 656      671B3ED3 
 656      AC2A6261 
 656      897D3A14 
 657 0292 2EBA30FB 		.ascii	".\2720\373\002wKo\012\321\355\315U\\\316F\210b\225\373"
 657      02774B6F 
 657      0AD1EDCD 
 657      555CCE46 
 657      886295FB 
 658 02a6 3F616C9B 		.ascii	"?al\233\221?/\225\321\227:\225\232(\027\274zo\331\210"
 658      913F2F95 
 658      D1973A95 
 658      9A2817BC 
 658      7A6FD988 
 659 02ba 9C6C6A54 		.ascii	"\234ljT\307\375\330\324R\233w\377w\212P\240\247\216"
 659      C7FDD8D4 
 659      529B77FF 
 659      778A50A0 
 659      A78E
 660 02cc F89C24F3 		.ascii	"\370\234$\3634\3556$E\001\370\000\211\251\217\307\364"
 660      34ED3624 
 660      4501F800 
 660      89A98FC7 
ARM GAS  /tmp/ccPWYpcT.s 			page 52


 660      F4
 661 02dd 25609F55 		.ascii	"%`\237U\250vCK\001\346\247\325.w\234\022`\375j\343\316"
 661      A876434B 
 661      01E6A7D5 
 661      2E779C12 
 661      60FD6AE3 
 662 02f2 416A19FE 		.ascii	"Aj\031\376[9\351t\305{:\235H\274\343\252\323\3219\344"
 662      5B39E974 
 662      C57B3A9D 
 662      48BCE3AA 
 662      D3D139E4 
 663 0306 44BA62ED 		.ascii	"D\272b\355\261x\2773\3207\330{\331\241AW\270\333\271"
 663      B178BF33 
 663      D037D87B 
 663      D9A14157 
 663      B8DBB9
 664 0319 12EF1BE8 		.ascii	"\022\357\033\350wZZ\317\034=\34247\237pB-M\347Z\207"
 664      775A5ACF 
 664      1C3DE234 
 664      379F7042 
 664      2D4DE75A 
 665 032e 0E3B83E1 		.ascii	"\016;\203\341\276\201K\335\335\035\207\"\200\275fO\274"
 665      BE814BDD 
 665      DD1D8722 
 665      80BD664F 
 665      BC
 666 033f A3F33FFE 		.ascii	"\243\363?\376\333\177U"
 666      DB7F55
 667              		.text
 668              		.section	.gnu.lto_.symbol_nodes.7ba27ab42e98d73b,"",%progbits
 669 0000 789C4DCF 		.ascii	"x\234M\317;O\002A\030\205\3413gfv\021\301\0137\015!"
 669      3B4F0241 
 669      1885E133 
 669      67667611 
 669      C10B370D 
 670 0015 B1F37FF1 		.ascii	"\261\363\177\361K>\302\352\012^\021\243\026\242\005"
 670      4B3EC2EA 
 670      0A5E11A3 
 670      16A205
 671 0024 36F6B4DA 		.ascii	"6\366\264\332\260\011\005&6\366\304\306\316\316\304"
 671      B0090526 
 671      36F6C4C6 
 671      CECEC4
 672 0033 8AA8EC2E 		.ascii	"\212\250\354.ag\2337\317\371\222I\226 \014\221~lQ\210"
 672      61679B37 
 672      CFF99249 
 672      96200C91 
 672      7E6C5188 
 673 0047 DE1B2072 		.ascii	"\336\033 r\337i\262M\321\016\003\212q\030R\254\303C"
 673      DF69B24D 
 673      D10E038A 
 673      711852AC 
 673      C343
 674 0059 0A961C74 		.ascii	"\012\226\034t\233\274\243x\253\253\342\001E9\327\001"
 674      9BBCA378 
 674      ABABE201 
 674      4539D701 
ARM GAS  /tmp/ccPWYpcT.s 			page 53


 675 0069 C577AE47 		.ascii	"\305w\256G\224\334\222\017\035e\377\024\254\200\035"
 675      94DC920F 
 675      1D65FF14 
 675      AC801D
 676 0078 CA9AB35E 		.ascii	"\312\232\263^Ra\261v)\371l\3451e\335\341\011\245\340"
 676      5261B176 
 676      29F96CE5 
 676      3165DDE1 
 676      09A5E0
 677 008b F0945274 		.ascii	"\360\224RtxF\331pxN\331\314\250\256)[)[-\245n)\333\231"
 677      7846D970 
 677      784ED9CC 
 677      A8AE295B 
 677      295B2DA5 
 678 00a3 2E28A54C 		.ascii	".(\245L=J9\323\025\245\222\251O\251f\272\241\324V\322"
 678      3D4A39D3 
 678      15A592A9 
 678      4FA966BA 
 678      A1D456D2 
 679 00b7 8B3F187E 		.ascii	"\213?\030~\374*\255\201\361df\215\306w\232\367\351\314"
 679      FC2AAD81 
 679      F164668D 
 679      C6779AF7 
 679      E9CC
 680 00c9 D7A684E8 		.ascii	"\327\246\204\350i\337\030\214^\347uc\027\343\274\256"
 680      69DF188C 
 680      5EE77563 
 680      17E3BCAE 
 681 00d9 BD64D49E 		.ascii	"\275d\324\236\3058\374\361\215\207Q8\263\332/#\210\037"
 681      C538FCF1 
 681      8D875138 
 681      B3DA2F23 
 681      881F
 682 00eb CA69B493 		.ascii	"\312i\264\223V\360\0307_M\367\302\016\202\317$Q\234"
 682      56F01837 
 682      5F4DF7C2 
 682      0E82CF24 
 682      519C
 683 00fd 1AA24943 		.ascii	"\032\242IC\027\210a\377kO\027\025\306\317\015]\334E"
 683      178861FF 
 683      6B4F1715 
 683      C6CF0D5D 
 683      DC45
 684 010f F092248A 		.ascii	"\360\222$\212\343\243\035\326\360\017\255\353\231\204"
 684      E3A31DD6 
 684      F00FADEB 
 684      9984
 685              		.text
 686              		.section	.gnu.lto_.refs.7ba27ab42e98d73b,"",%progbits
 687 0000 789C6362 		.ascii	"x\234cb`bPd\200\000F\016&Nv.&NF0d\342\006af\036&N&6"
 687      60625064 
 687      8000460E 
 687      264E762E 
 687      264E4630 
 688 001e 2616465E 		.ascii	"&\026F^&N\006\000\022R\000\331"
 688      264E0600 
 688      125200D9 
ARM GAS  /tmp/ccPWYpcT.s 			page 54


 689              		.text
 690              		.section	.gnu.lto_.decls.7ba27ab42e98d73b,"",%progbits
 691 0000 789CAD5B 		.ascii	"x\234\255[\013t\024U\232\256G\347\321$@@q`\334]\342"
 691      0B741455 
 691      9AAE47E7 
 691      D1244040 
 691      7160DC5D 
 692 0015 EEB8C7C3 		.ascii	"\356\270\307\303\216\304$\314\254gd\205\220 0\003\230"
 692      8EC424CC 
 692      AC676485 
 692      90203003 
 692      98
 693 0026 D3098E33 		.ascii	"\323\011\2163\263{\332\242\323\230\326$\215\335\015"
 693      B37BDAA2 
 693      D398D624 
 693      8DDD0D
 694 0035 27CE99B3 		.ascii	"'\316\231\263S\004\344\251\230 o\344-\002\352\204g0"
 694      5304E4A9 
 694      98206FE4 
 694      2D02EA84 
 694      6730
 695 0047 3C84360A 		.ascii	"<\2046\012D\331M\"p\004\224G\023\030\026\301\201`\000"
 695      44D94D22 
 695      70049447 
 695      131816C1 
 695      816000
 696 005a 8910B2FF 		.ascii	"\211\020\262\377\275u\253\373\326\355\252\352\2528}"
 696      BD75ABFB 
 696      D6EDAAEA 
 696      AA387D
 697 0069 CE7FAB52 		.ascii	"\316\177\253Ru\357w\277\377q\377{\353VE\340\004\356"
 697      75EF77BF 
 697      FF71FF7B 
 697      EB5645E0 
 697      04EE
 698 007b B893E3BA 		.ascii	"\270\223\343\272\340\367\322\010\216\343R9\256\017\034"
 698      E0F7D208 
 698      8EE35239 
 698      AE0F1C
 699 008a 9E564EB9 		.ascii	"\236VN\271\265 \353@6\202\324\2024\2004\203\374\027"
 699      B520EB40 
 699      3682D482 
 699      34803483 
 699      FC17
 700 009c CF71759C 		.ascii	"\317qu\234\362\373\011\210\004\177\227\202\224\203\204"
 700      F2FB0988 
 700      047F9782 
 700      948384
 701 00ab 402A41FE 		.ascii	"@*A\376\004\"\203\314\004\231\0132\037\244\006d\021"
 701      042283CC 
 701      04990B32 
 701      1FA40664 
 701      11
 702 00bc C832904D 		.ascii	"\3102\220M \265 \365 \373@\032@\016\2014\202|\016\322"
 702      20B520F5 
 702      20FB401A 
 702      400E8134 
ARM GAS  /tmp/ccPWYpcT.s 			page 55


 702      827C0ED2 
 703 00d0 0C120111 		.ascii	"\014\022\001\021\000\377\"\034/\361\234\346\207\372"
 703      00FF221C 
 703      2FF19CE6 
 703      87FA
 704 00de 4A82A300 		.ascii	"J\202\243\000\307^pL\007i\007I!\367yR\007\035_a\332"
 704      C75E704C 
 704      07690749 
 704      21F77952 
 704      071D5F61 
 705 00f3 228E1970 		.ascii	"\"\216\031p|\034\216Cx\245\315hR\327\001\362 \234l!"
 705      7C1C8E43 
 705      78A5CD68 
 705      52D701F2 
 705      209C6C21 
 706 0107 3A5F85F3 		.ascii	":_\205\363\301 \017\203\374\002\344[\220\277\201\364"
 706      C1200F83 
 706      FC02E45B 
 706      90BF81F4 
 707 0117 03E901F7 		.ascii	"\003\351\001\367\177\016\307\\\220_\201\214\002\371"
 707      7F0EC75C 
 707      905F818C 
 707      02F9
 708 0125 35C8F320 		.ascii	"5\310\363 \017\200<\002\362/ \217\022\354\0209Ne\370"
 708      0F803C02 
 708      F22F208F 
 708      12EC1039 
 708      4E65F8
 709 0138 207BFD23 		.ascii	" {\375#\341N\353\202x \333\237\006\021A.\203\334\245"
 709      E14EEB82 
 709      7820DB9F 
 709      0611412E 
 709      83DCA5
 710 014b 785FA378 		.ascii	"x_\243x^\004\271\016\177\237\341\024\256\210_\033\310"
 710      5E04B90E 
 710      7F9FE114 
 710      AE885F1B 
 710      C8
 711 015c 0D90EF40 		.ascii	"\015\220\357@\332An\3621}\376@\364\351\307)\\\277\206"
 711      DA416EF2 
 711      317DFE40 
 711      F4E9C729 
 711      5CBF86
 712 016f A3138E03 		.ascii	"\243\023\216\003A~\212\370\200\364$\374{\023\035\256"
 712      417E8AF8 
 712      80F424FC 
 712      7B131DAE 
 713 017f 409D34A2 		.ascii	"@\2354\242\3275J\367\337\203\014\007\031\0122\210\330"
 713      D7354AF7 
 713      DF830C07 
 713      190A3288 
 713      D8
 714 0190 42247A21 		.ascii	"B$z!\235o\021\275\377\310\350\375'\322\277\236\336H"
 714      9D6F11BD 
 714      FFC8E8FD 
 714      27D2BF9E 
 714      DE48
ARM GAS  /tmp/ccPWYpcT.s 			page 56


 715 01a2 E7145ED1 		.ascii	"\347\024^\321Y\325Q\325\253\203\350\371\003\034\357"
 715      59D551D5 
 715      AB83E8F9 
 715      031CEF
 716 01b1 82548074 		.ascii	"\202T\200tq1]\221-\222\211^\252.H\277NN\321A }\253\361"
 716      71315D91 
 716      2D92895E 
 716      AA2E48BF 
 716      4E4ED141 
 717 01c9 F1DF0C2F 		.ascii	"\361\337\014/\024\317?%\274T[\323\361q\232\370\342 "
 717      14CF3F25 
 717      BC545BD3 
 717      F1719AF8 
 717      E220
 718 01db C83D3E36 		.ascii	"\310=>6N>\262\0207\015\204'\342\257rEc\355y\2358\372"
 718      4E3EB210 
 718      370D8427 
 718      E2AF7245 
 718      63ED799D 
 719 01f1 985378B7 		.ascii	"\230Sx\267\022\377#^\235d\274 \035\274p\3640\334\321"
 719      12FF235E 
 719      9D64BC20 
 719      1DBC70F4 
 719      30DCD1
 720 0204 98FB274E 		.ascii	"\230\373'N\211\033\325\246Fq\256\352q\224\304\3255\013"
 720      891BD5A6 
 720      4671AEEA 
 720      7194C4D5 
 720      350B
 721 0216 FC9B75F8 		.ascii	"\374\233u\370\253\261\205b\252\247\301\230h\"\272|\313"
 721      ABB18562 
 721      AAA7C198 
 721      6822BA7C 
 721      CB
 722 0227 29B1C3C6 		.ascii	")\261\303\306\214@\270\253\2612\203\321\013\345\227"
 722      8C40B8AB 
 722      B13283D1 
 722      0BE597
 723 0236 07884F8E 		.ascii	"\007\210O\216\022\356w\211]X\0374S1\323N\270\252\374"
 723      12EE7789 
 723      5D581F34 
 723      5331D34E 
 723      B8AAFC
 724 0249 DA90FFA1 		.ascii	"\332\220\377\241\263i\274b\003\225\227\312\311A\372"
 724      B369BC62 
 724      039597CA 
 724      C941FA
 725 0258 52ED2C13 		.ascii	"R\355,\023n/\303\361%\206\023\312m=H?\252\255\021?Q"
 725      6E2FC3F1 
 725      258613CA 
 725      6D3D483F 
 725      AAAD113F 
 726 026d 50ECFF09 		.ascii	"P\354\377\011\261\237\003\376~FP\364\032$(x\250m\003"
 726      B19F03FE 
 726      7E4650F4 
 726      1A242878 
 726      A86D03
ARM GAS  /tmp/ccPWYpcT.s 			page 57


 727 0280 83877E28 		.ascii	"\203\207~(W&\021\277\250\343z\0244\230G\352\212\244"
 727      572611BF 
 727      A8E37A14 
 727      349847EA 
 727      8AA4
 728 0292 0E8ADF43 		.ascii	"\016\212\337C\304V\027\031\234\371\204\027\215\241\346"
 728      C4561719 
 728      9CF98417 
 728      8DA1E6
 729 02a1 B48D5C2C 		.ascii	"\264\215\\,\256\007\023}\221<@\374\200|\367<\321\031"
 729      AE07137D 
 729      913C40FC 
 729      807CF73C 
 729      D119
 730 02b3 E134F2C6 		.ascii	"\3414\362\3069\030\345\363\201p\254'x\"\301F\276A\361"
 730      3918E5F3 
 730      8170AC27 
 730      7822C146 
 730      BE41F1
 731 02c6 F6201937 		.ascii	"\366 \0317u\224?F\023\333\2409\244\205\261\317\030\220"
 731      75943F46 
 731      13DBA039 
 731      A485B1CF 
 731      1890
 732 02d8 23BC92B7 		.ascii	"#\274\222\267\220\317\324\030\354Gb\360\017\304\267"
 732      90CFD418 
 732      EC4762F0 
 732      0FC4B7
 733 02e7 0D44B78B 		.ascii	"\015D\267\213\304\356;\271\030od\337Ad\274\247\2218"
 733      C4EE3BB9 
 733      186F64DF 
 733      4164BCA7 
 733      9138
 734 02f9 7C80E480 		.ascii	"|\200\344\200\247y\305\307\310\347hl%\023\035\320\\"
 734      A779C5C7 
 734      C8E7686C 
 734      25131DD0 
 734      5C
 735 030a 837C8EC6 		.ascii	"\203|\216\306\027\232{*\211\316o\361\361\266E\363W\032"
 735      179A7B2A 
 735      89CE6FF1 
 735      F1B645F3 
 735      571A
 736 031c A533AD9B 		.ascii	"\2453\255\233\312\351\327\320\370<\334\373\015\034g"
 736      CAE9D7D0 
 736      F83CDCFB 
 736      0D1C67
 737 032b 11BBD01C 		.ascii	"\021\273\320\034\035\004\007\345F4\307\315$\375-\321"
 737      1D0407E5 
 737      4634C7CD 
 737      24FD2DD1 
 738 033b E90FCD95 		.ascii	"\351\017\315\225j\\\261\343\331h\254n$\272\2519\205"
 738      6A5CB1E3 
 738      D968AC6E 
 738      24BAA939 
 738      85
 739 034c CDCD3CC1 		.ascii	"\315\315<\301E\274\326\301q\003\310z\246_4?\367\346"
ARM GAS  /tmp/ccPWYpcT.s 			page 58


 739      45BCD6C1 
 739      7103C87A 
 739      A65F343F 
 739      F7E6
 740 035e 8C73C74A 		.ascii	"\214s\307J\223\376\325\\As\240s\301P\202\263\211\034"
 740      93FED55C 
 740      4173A073 
 740      C15082B3 
 740      891C
 741 0370 3F60FA46 		.ascii	"?`\372F\353\202>\006:\323\034\022\365\217\354\220\312"
 741      EB823E06 
 741      3AD31C12 
 741      F58FEC90 
 741      CA
 742 0381 E9E723DA 		.ascii	"\351\347#\332&<\351\023\373\011\216\273\220_\031Nh\235"
 742      263CE913 
 742      FB098EBB 
 742      905F194E 
 742      689D
 743 0393 3280E8AD 		.ascii	"2\200\350\255r\332hb\0375?Y\311\251l\216J3\340<\224"
 743      72DA6862 
 743      1F353F59 
 743      C9A96C8E 
 743      4A33E03C 
 744 03a8 D7E6AAE1 		.ascii	"\327\346\252\341|,w\"~j\356\334\303pO\343\346\312r\225"
 744      7C2C7722 
 744      7E6AEEDC 
 744      C3704FE3 
 744      E6CA7295 
 745 03bc BC66A63C 		.ascii	"\274f\246<\272\261W\037\256Z\206_\346\322^Nn6\272\034"
 745      BAB1571F 
 745      AE5A865F 
 745      E6D25E4E 
 745      6E36BA1C 
 746 03d0 D920F7EF 		.ascii	"\331 \367\357\217\034%\361p)\025\237\244;1\320\243\334"
 746      8F1C25F1 
 746      7029159F 
 746      A43B31D0 
 746      A3DC
 747 03e2 3B5015EA 		.ascii	";P\025\352\013\022\277\236wBG\002\003\255\376\224\373"
 747      0B12BF9E 
 747      77424702 
 747      03ADFE94 
 747      FB
 748 03f3 1CA7E028 		.ascii	"\034\247\340(\347\352Y\027\037E\177AEO'\255\326\361"
 748      E7EA5917 
 748      1F457F41 
 748      454F27AD 
 748      D6F1
 749 0405 7DF019E6 		.ascii	"}\360\031\346\"\023\212\270\006i\221\251\266p\220\026"
 749      22138AB8 
 749      066991A9 
 749      B6709016 
 750 0415 EF52FDA4 		.ascii	"\357R\375\244;c'i\204\211Q\273\265\274Z\203#\212+\235"
 750      3B632769 
 750      848951BB 
 750      B5BC5A83 
ARM GAS  /tmp/ccPWYpcT.s 			page 59


 750      238A2B9D 
 751 0429 E9B7C09A 		.ascii	"\351\267\300\232WG\232[#\202,\247J\374F\254=8e\020\267"
 751      57479A5B 
 751      23822CA7 
 751      4AFC46AC 
 751      3D386510 
 752 043e 5931C9BA 		.ascii	"Y1\311\272\207u\314`\035\271\343\374\021\021#\277\217"
 752      8775CC60 
 752      1DB9E3FC 
 752      111123BF 
 752      8F
 753 044f 9161892A 		.ascii	"\221a\211*\361\357\361\203\242\346Lqj\315\013\177\253"
 753      F1EFF183 
 753      A2E64C71 
 753      6ACD0B7F 
 753      AB
 754 0460 1510588A 		.ascii	"\025\020X\2123v\202\226\357\2759\273\3255A\321\227\253"
 754      33768296 
 754      EFBD39BB 
 754      D53541D1 
 754      97AB
 755 0472 C1414191 		.ascii	"\301AA\221\206\304DX\377\003\305z\326\367\273\370\351"
 755      86C44458 
 755      FF03C57A 
 755      D6F7BBF8 
 755      E9
 756 0483 B20C37B6 		.ascii	"\262\0147\266\360}\201\367\247\274\226xB \211\337\306"
 756      F07D81F7 
 756      A7BC9678 
 756      422089DF 
 756      C6
 757 0494 0B506E87 		.ascii	"\013Pn\207\346JC%\310\302\235\253\323e\207r\235\323"
 757      E64A4325 
 757      C8C29DAB 
 757      D3658772 
 757      9DD3
 758 04a6 406A7E8F 		.ascii	"@j~\217pk\200uxQ\353eq\211\034\236&\246p3q\014\277V"
 758      706B8075 
 758      7851EB65 
 758      71891C9E 
 758      26A67033 
 759 04be D57F692F 		.ascii	"\325\177i/\223 \256\216\034h:\224\215\015^\307\247\000"
 759      9320AE8E 
 759      1C683A94 
 759      8D0D5EC7 
 759      A700
 760 04d0 F1E98296 		.ascii	"\361\351\202\226\270\005 D\253\036\032kh\2775\2637\242"
 760      B8052044 
 760      AB1E1A6B 
 760      68BF35B3 
 760      37A2
 761 04e2 8DAE9BD0 		.ascii	"\215\256\233\320\0269<\355\277)(\266p8c\327V\304\256"
 761      16393CED 
 761      BF2928B6 
 761      703863D7 
 761      56C4AE
 762 04f5 F154D50D 		.ascii	"\361T\325\015\261\313\002\025\331\321\201E\306\225\306"
ARM GAS  /tmp/ccPWYpcT.s 			page 60


 762      B1CB0215 
 762      D9D18145 
 762      C695C6
 763 0504 E9317212 		.ascii	"\3511r\022\277\233\177\024\312=\274\250\333L\340\266"
 763      BF9B7F14 
 763      CA3DBCA8 
 763      DB4CE0B6 
 764 0514 62FD91B5 		.ascii	"b\375\221\265\365T\215\016.\265\337^\321pT<\000\221"
 764      F5548D0E 
 764      2EB5DF5E 
 764      D170543C 
 764      0091
 765 0526 70B8FF47 		.ascii	"p\270\377G\265\262<=\331\206\013\3467+.h\300.\330\325"
 765      B5B23C3D 
 765      D9860BE6 
 765      372B2E68 
 765      C02ED8D5 
 766 053a 3D171C64 		.ascii	"=\027\034d]P\247\270\340\240%\027|\252\343\202/\364"
 766      5D50A7B8 
 766      E0A02517 
 766      7CAAE382 
 766      2FF4
 767 054c 5D10E986 		.ascii	"]\020\351\206\013\016R.8\204]p\330\320\0057l\273 \225"
 767      0B0E522E 
 767      38845D70 
 767      D8D00537 
 767      6CBB2095 
 768 0560 71C1FFDA 		.ascii	"q\301\377\332wA\323\011\305\005\315\330\005\035\335"
 768      7741D309 
 768      C505CDD8 
 768      051DDD
 769 056f 73C151D6 		.ascii	"s\301Q\326\005'\024\027\034\265\344\202Yb\274\013\026"
 769      05271417 
 769      1CB5E482 
 769      5962BC0B 
 769      16
 770 0580 8ABA2E58 		.ascii	"\212\272.X/\332w\301Q\312\005\307\260\013\216\033\272"
 770      2FDA77C1 
 770      51CA05C7 
 770      B00B8E1B 
 770      BA
 771 0591 60A768D7 		.ascii	"`\247h\327\005\031\214\013\232\373\357\337.\313s\222"
 771      05198C0B 
 771      9AFBEFDF 
 771      2ECB7392 
 772 05a1 F5D22954 		.ascii	"\365\322)T\341\251D(\013*bf\324!\341\366s|\246N\322"
 772      E1A94428 
 772      0B2A6266 
 772      D421E1F6 
 772      737CA64E 
 773 05b6 D4D695F8 		.ascii	"\324\326\225\370\263\240H\302j\250b\204\315\253'\316"
 773      B3A048C2 
 773      6AA86284 
 773      CDAB27CE 
 774 05c6 E2BC1AB1 		.ascii	"\342\274\032\261\224W\317\235]5@^\323\300k\264y\210"
 774      9457CF9D 
 774      5D35405E 
ARM GAS  /tmp/ccPWYpcT.s 			page 61


 774      D3C06BB4 
 774      7988
 775 05d8 5B44E666 		.ascii	"[D\346f\231\017I\374\323\375\014\347\330\213\374C1G"
 775      990F49FC 
 775      D3FD0CE7 
 775      D88BFC43 
 775      3147
 776 05ea A30BB580 		.ascii	"\243\013\265\200$\361\023\304h?\3063b\370\356\212\007"
 776      24F113C4 
 776      683FC633 
 776      62F8EE8A 
 776      07
 777 05fb 11D10BD0 		.ascii	"\021\321\013\320D\340\366\211\332\300\324\020R:2\"q"
 777      44E0F689 
 777      DAC0D410 
 777      523A3222 
 777      71
 778 060c 19F7A9A7 		.ascii	"\031\367\251\247g\334=\201;\210\373\211\304\002@\003"
 778      67DC3D81 
 778      3B88FB89 
 778      C4024003 
 779 061c 97300D86 		.ascii	"\2270\015\206\277'\006Sy7\333\306\313\324\340\335?\233"
 779      BF270653 
 779      7937DBC6 
 779      CBD4E0DD 
 779      3F9B
 780 062e 5E2DA960 		.ascii	"^-\251`\247\254\200\245\032\223[|\016\300\272\351\312"
 780      A7AC80A5 
 780      1A935B7C 
 780      0EC0BAE9 
 780      CA
 781 063f 363D5792 		.ascii	"6=W\222?\310*G\236)?\266\251\02752\010\204\300\305\326"
 781      3FC82A47 
 781      9E293FB6 
 781      A9173532 
 781      0884C0C5 
 782 0654 4F2B1E42 		.ascii	"O+\036B>m\307k\234V\306\247\326a:v\177\256,\226nc\240"
 782      3E6DC76B 
 782      9C56C6A7 
 782      D6613A76 
 782      7FAE2C96 
 783 066b AB22BB5A 		.ascii	"\253\"\273Z\022\231\325\222\250]\376\210\316\330IW\227"
 783      1299D592 
 783      A85DFE88 
 783      CED84957 
 783      97
 784 067c C8D9AE6C 		.ascii	"\310\331\256l1\206#\035\207\017\315\342\253\360\372"
 784      3186231D 
 784      870FCDE2 
 784      ABF0FA
 785 068b E83A76E1 		.ascii	"\350:v\341m\3638n3\211\343\273&q|\227\215c\331a7T\264"
 785      6DF3386E 
 785      3389E3BB 
 785      26717C97 
 785      8D63D961 
 786 06a2 71B7FADC 		.ascii	"q\267\372\334\217\032\370]\211\243%\361\2328|lE?\024"
 786      8F1AF85D 
ARM GAS  /tmp/ccPWYpcT.s 			page 62


 786      89A325F1 
 786      9A387C6C 
 786      453F14
 787 06b5 2D550272 		.ascii	"-U\002r\362\\\007\353\344\215|w\326\304V\323\317\336"
 787      F25C07EB 
 787      E48D7C77 
 787      D6C456D3 
 787      CFDE
 788 06c7 5538FDDC 		.ascii	"U8\375\334\307n[\3540u[\227\211\333f\011\306nc\356\011"
 788      C76E5BEC 
 788      30755B97 
 788      89DB6609 
 788      C66E63EE 
 789 06dc DC1A2B6E 		.ascii	"\334\032+n\313\240\251s\032\267\355>\247\246\037\345"
 789      CBA0A973 
 789      1AB7ED3E 
 789      A7A61FE5 
 790 06ec 0165B36D 		.ascii	"\001e\263m<m\030\264\254NoyA\035\257[X0\315\320$\247"
 790      3C6D18B4 
 790      AC4E6F79 
 790      411DAF5B 
 790      5830CDD0 
 791 0702 FD8DC99D 		.ascii	"\375\215\311\235\244\301v\330\006\323\314\264\3416\032"
 791      A4C176D8 
 791      06D3CCB4 
 791      E1361A
 792 0711 EC43DB60 		.ascii	"\354C\333`\231q\276P\026\010\347\361\002\241\225\177"
 792      9971BE50 
 792      1608E7F1 
 792      02A1957F 
 793 0721 04CA2BB8 		.ascii	"\004\312+\270\374\026\227\327p\331\211\3139\002*\347"
 793      FC1697D7 
 793      70D989CB 
 793      39022AE7 
 794 0731 E1F20D5C 		.ascii	"\341\362\015\\\276\011e\364'p{\343BU\231m\251\336b\323"
 794      BE0965F4 
 794      27707BE3 
 794      4255996D 
 794      A9DE62D3 
 795 0745 32F763FB 		.ascii	"2\367c\3733\012\274\323\261\007\\\201;\344`\02666\347"
 795      330ABCD3 
 795      B1075C81 
 795      3BE46016 
 795      3636E7
 796 0758 A133AD6D 		.ascii	"\2413\255m\34229<C\354\326c\342\336Kw\346\360\333d9"
 796      E232393C 
 796      43ECD663 
 796      E2DE4B77 
 796      E6F0DB64 
 797 076d 43E21709 		.ascii	"C\342\027\011\3501qN\222\315\307D\244\320R\201Y\312"
 797      E831714E 
 797      92CDC744 
 797      A4D05281 
 797      59CA
 798 077f AC6C6DE4 		.ascii	"\254lm\344\3614\200\356$X\314\314\230\036\336\326\332"
 798      F13480EE 
 798      2458CCCC 
ARM GAS  /tmp/ccPWYpcT.s 			page 63


 798      981EDED6 
 798      DA
 799 0790 28601D70 		.ascii	"(`\035p\006\232n\232\201$~\023\216\204\304)E\340\226"
 799      069A6E9A 
 799      81247E13 
 799      8E84C429 
 799      45E096
 800 07a3 60651087 		.ascii	"`e\020\207n\254\031\200\327v\244\306\202t\211_\201\023"
 800      6EAC1980 
 800      D776A4C6 
 800      8274895F 
 800      8113
 801 07b5 DD72DB70 		.ascii	"\335r\333p\231\032\270\235Z\270\225V\340\214\026\015"
 801      991AB89D 
 801      5AB89556 
 801      E08C160D 
 802 07c5 00B74B0B 		.ascii	"\000\267K\013\267\3266\234\226]\275"
 802      B7D6369C 
 802      965DBD
 803 07d0 166E8315 		.ascii	"\026n\203\0258\243\204\007p{\264p\233m\303i\331\355"
 803      38A38407 
 803      707BB470 
 803      9B6DC369 
 803      D9ED
 804 07e2 D3C2FDC5 		.ascii	"\323\302\375\305\012\234^\306\323\373\321\001,\361\313"
 804      0A9C5EC6 
 804      D3FBD101 
 804      2CF1CB
 805 07f1 04145ECB 		.ascii	"\004\024^\313\361p^\211\313\325\270\\\213\313\365\270"
 805      F1705E89 
 805      CBD5B85C 
 805      8BCBF5B8 
 806 0801 DC80CB8D 		.ascii	"\334\200\313\215V\006\373B\201\032\354\333\223,\014"
 806      5606FB42 
 806      811AECDB 
 806      932C0C
 807 0810 76E37522 		.ascii	"v\343u\"<\305\234\351\377\021~\212Q\347\221z\333\210"
 807      3CC59CE9 
 807      FF117E8A 
 807      51E7917A 
 807      DB88
 808 0822 993462B8 		.ascii	"\2314b\270\323,}0\217E\232=A\222@j\2565\016E\333L:y"
 808      D32C7D30 
 808      8F459A3D 
 808      4192406A 
 808      AE350E45 
 809 083a 42535DE2 		.ascii	"BS]\342\267\010\272\017F\232Zx\327\211M&\267\232\360"
 809      B708BA0F 
 809      469A5A78 
 809      D7894D26 
 809      B79AF0
 810 084d 73D1B6C4 		.ascii	"s\321\266\304\251\004-\363\347\257\214_\036\351t\033"
 810      A9042DF3 
 810      E7AF8C5F 
 810      1EE9741B 
 811 085d E6E92889 		.ascii	"\346\351(\211f\303\306\247\225=\263:\234\014g%'L\206"
 811      66C3C6A7 
ARM GAS  /tmp/ccPWYpcT.s 			page 64


 811      953DB33A 
 811      9C0C6725 
 811      274C86
 812 0870 5A1CBCB7 		.ascii	"Z\034\274\267\303\362\337\321\214\371\327[J\205\037"
 812      C3F2DFD1 
 812      8CF9D75B 
 812      4A851F
 813 087f 362F24EB 		.ascii	"6/$\353\004\222s0\205\372n\247\260\372f\374\230B2\216"
 813      04927330 
 813      85FA6EA7 
 813      B0FA66FC 
 813      9842328E 
 814 0893 6DB04C0D 		.ascii	"m\260L\015\330\036\032l\235\0250\223\364\265\217\006"
 814      D81E1A6C 
 814      9D153093 
 814      F4B58F06 
 815 08a3 7BD73698 		.ascii	"{\3276\230\226\331~\032\354}+`&\251\253\205\006\333"
 815      96D97E1A 
 815      EC7D2B60 
 815      26A9AB85 
 815      06DB
 816 08b5 6A1B2C53 		.ascii	"j\033,S\317\275\\\\tH\374n\234i\366\340\\\262\017\227"
 816      CFBD5C5C 
 816      7448FC6E 
 816      9C69F6E0 
 816      5CB20F97 
 817 08c9 FB7119C6 		.ascii	"\373q\031\306e\003.?\265\222cv\3229f'&\274\255{\021"
 817      65032E3F 
 817      B5926376 
 817      D2396627 
 817      26BCAD7B 
 818 08de 0339A6E6 		.ascii	"\0039\246\346Z\344\251=\361;%\212=\214\0304\322\014"
 818      5AE4A93D 
 818      F13B258A 
 818      3D8C1834 
 818      D20C
 819 08f0 F6DA6690 		.ascii	"\366\332f\220I3\010\337mz\373'r$\314S\257=\022l\226"
 819      493308DF 
 819      6D7AFB27 
 819      7224CC53 
 819      AF3D126C 
 820 0905 357F899F 		.ascii	"5\177\211\237G\216`\217\205\231Qk\035\246\343\306\307"
 820      478E608F 
 820      8599516B 
 820      1DA6E3C6 
 820      C7
 821 0916 CAD36B13 		.ascii	"\312\323k\023\006jd\200\310\276\024\345M^\273\0101\335"
 821      066A6480 
 821      C8BE14E5 
 821      4D5EBB08 
 821      31DD
 822 0928 ED4A5057 		.ascii	"\355JPW\340\216\262f\323\333\3422\231\034j\256\335y"
 822      E08EB266 
 822      D3DBE232 
 822      991C6AAE 
 822      DD79
 823 093a 6A37DE65 		.ascii	"j7\336eT-q\3126\242f\3372\\\335\234\266\365\005\025"
ARM GAS  /tmp/ccPWYpcT.s 			page 65


 823      542D71CA 
 823      36A266DF 
 823      325CDD9C 
 823      B6F50515 
 824 094e EC826DB0 		.ascii	"\354\202m\260\214\270\350W\342~;\216\373\0358\276\017"
 824      8CB8E857 
 824      E27E3B8E 
 824      FB1D38BE 
 824      0F
 825 095f E3F2735C 		.ascii	"\343\362s\\\036\305\345q\355\222\375J\234\023\224\211"
 825      1EC5E571 
 825      ED92FD4A 
 825      9C139489 
 826 096f 80428DCD 		.ascii	"\200B\215\315\030\234U\\\2438\376\013\035\307\235\311"
 826      189C555C 
 826      A338FE0B 
 826      1DC79DC9 
 827 097f 16E656E3 		.ascii	"\026\346V\343g>\230\255\377J\366\034\025`\201\233\236"
 827      673E98AD 
 827      FF4AF61C 
 827      1560819B 
 827      9E
 828 0990 62173133 		.ascii	"b\02713\206\010\231i\345\205\313\342R9\\\245.\224\315"
 828      86089969 
 828      E585CBE2 
 828      52395CA5 
 828      2E94CD
 829 09a3 766424FE 		.ascii	"vd$\376&^('\3324\2015?\313\312\352\343\243\336\217~"
 829      265E2827 
 829      DA348135 
 829      3FCBCAEA 
 829      E3A3DE8F 
 830 09b8 6104CEC0 		.ascii	"a\004\316\300\024v\342\247\245\217q\331\204\313\257"
 830      1476E2A7 
 830      A58F71D9 
 830      84CBAF
 831 09c7 71F91676 		.ascii	"q\371\026v\314{\270\374\000\227'q\371\225\025W\325\306"
 831      CC7BB8FC 
 831      00972771 
 831      F9951557 
 831      D5C6
 832 09d9 9EA2BAB9 		.ascii	"\236\242\272\271\027rV0\336\013\211nb$\334\225@U\316"
 832      17725630 
 832      DE0B896E 
 832      6224DC95 
 832      4055CE
 833 09ec C4C26620 		.ascii	"\304\302f \267J\016\267E\016\374\320\362\233\225\310"
 833      B74A0EB7 
 833      450EFCD0 
 833      F29B95C8 
 834 09fc F7F2FDAE 		.ascii	"\367\362\375\256?\363J_\002w\"E\033\314?\343\326\313"
 834      3FF34A5F 
 834      02772245 
 834      1BCC3FE3 
 834      D6CB
 835 0a0e F202F984 		.ascii	"\362\002\371\204w\264\322\271\300\335\3005\316\013\003"
 835      77B4D2B9 
ARM GAS  /tmp/ccPWYpcT.s 			page 66


 835      C0DDC035 
 835      CE0B03
 836 0a1d 75FB225A 		.ascii	"u\373\"Z\223fK\016\245W\363\352B\360\373\004\015\211"
 836      93664B0E 
 836      A557F3EA 
 836      42F0FB04 
 836      0D89
 837 0a2f 3AFFCA6D 		.ascii	":\377\312m@\326\331+\027\366\307\266\341H#\215\007["
 837      40D6D92B 
 837      17F6C7B6 
 837      E148238D 
 837      075B
 838 0a41 0581BEA0 		.ascii	"\005\201\276\240\250\024>\016\323\342\264HW\327\352"
 838      A8143E0E 
 838      D3E2B448 
 838      57D7EA
 839 0a50 E1AA3A9D 		.ascii	"\341\252:\235\011\324\221\370\213\002z\205x\331\256"
 839      09D491F8 
 839      8B027A85 
 839      78D9AE
 840 0a5f 3A127F29 		.ascii	":\022\177)AC\023u.\263\352|\023\257NK[\270n\356bXiU"
 840      41431375 
 840      2EB3EA7C 
 840      13AF4E4B 
 840      5BB86EEE 
 841 0a77 85BBBA86 		.ascii	"\205\273\272\206qL\314T\231\314t\327\330\240i\307|\251"
 841      714CCC54 
 841      99CC74D7 
 841      D8A069C7 
 841      7CA9
 842 0a89 2081E7CE 		.ascii	" \201\347\316T]\273|$=\246\356\213l\3025\376\026S\217"
 842      545DBB7C 
 842      243DA6EE 
 842      8B6CC235 
 842      FE16538F 
 843 0a9d 19BAED94 		.ascii	"\031\272\355\224zU\362\251\213\205\243\025V\234\266"
 843      7A55F2A9 
 843      8B85A315 
 843      569CB6
 844 0aac 15C30EDF 		.ascii	"\025\303\016\337n\323u\336\251#\363\243\332*\273\362"
 844      6ED375DE 
 844      A923F3A3 
 844      DA2ABBF2 
 845 0abc B04ED2A7 		.ascii	"\260N\322\247\271\214u\337Ms\367\351{\341&\353\205["
 845      B98C75DF 
 845      4D73F7E9 
 845      7BE126EB 
 845      855B
 846 0ace BABCDE6E 		.ascii	"\272\274\336nR\202j\240Jj\227>\251\025,\251;\335!u\207"
 846      52826AA0 
 846      4A6A973E 
 846      A9152CA9 
 846      3BDD2175 
 847 0ae3 25D5A14B 		.ascii	"%\325\241K\352\3541\206T\203>\251\035,\251{\335!u\217"
 847      EAEC3186 
 847      54833EA9 
 847      1D2CA97B 
ARM GAS  /tmp/ccPWYpcT.s 			page 67


 847      DD21758F 
 848 0af7 25D56930 		.ascii	"%\325i0\374^OUXY\317p\323\304D\257y`\331\241\257[\334"
 848      FC5E4F55 
 848      5859CF70 
 848      D3C444AF 
 848      7960D9A1 
 849 0b0e 2096452B 		.ascii	" \226E+\272UkuC\2154\272M\027\343u\213\204k\256n\035"
 849      BA556B75 
 849      438D34BA 
 849      4D17E375 
 849      8B846BAE 
 850 0b24 305B7F2C 		.ascii	"0[\177,\232h7\213h\027SH\340\332\031m\242\264\344M\262"
 850      9A68378B 
 850      68175348 
 850      E0DA196D 
 850      A2B4E44D 
 851 0b39 18A53593 		.ascii	"\030\2455\223\2455;\236\326\232H\270\375K\264\351 \337"
 851      A5353B9E 
 851      D69A48B8 
 851      FD4BB4E9 
 851      20DF
 852 0b4b 43F3A475 		.ascii	"C\363\244uZ\363th\315v\352\322\222\265\264\346\262\264"
 852      5AF37468 
 852      CD76EAD2 
 852      92B5B4E6 
 852      B2B4
 853 0b5d 5ED7A5F5 		.ascii	"^\327\245\365\341\252#QZJw\002Wc\251\203\371l\007o\352"
 853      E1AA2351 
 853      5A4A7702 
 853      5763A983 
 853      F96C076F 
 854 0b72 76B0B4B5 		.ascii	"v\260\264\265\221\352@\031\002\253\235\272a\362\026"
 854      91EA4019 
 854      02AB9DBA 
 854      61F216
 855 0b81 1B263596 		.ascii	"\033&5\226\302D\226\337\220_\313\340\243\304jXb\013"
 855      C24496DF 
 855      905FCBE0 
 855      A3C46A58 
 855      620B
 856 0b93 7489555F 		.ascii	"t\211U_U\211MO\2152\253\325gV\3032[\324-f\213Xf\213"
 856      55894D4F 
 856      8D32ABD5 
 856      6756C332 
 856      5BD42D66 
 857 0bab F54D76BD 		.ascii	"\365Mv\275;\241\262\\o|\332}\033\023\351x\377\374\257"
 857      3BA1B25C 
 857      6F7CDA7D 
 857      1B13E978 
 857      FFFCAF
 858 0bbe B6E03DDC 		.ascii	"\266\340=\334\225\"\232@\256;\331%s\022\363\334\222"
 858      95229A40 
 858      AE3BD925 
 858      7312F3DC 
 858      92
 859 0bcf A45D1326 		.ascii	"\244]\023&9c'\261\3671QRyi\312Q\2236n\353Z\035\326="
 859      396327B1 
ARM GAS  /tmp/ccPWYpcT.s 			page 68


 859      F7315152 
 859      7969CA51 
 859      93366EEB 
 860 0be7 917DFCF9 		.ascii	"\221}\374\371\3153e4\225\323\326_fn}\342\264S\310i\212"
 860      CD336534 
 860      95D3D65F 
 860      666E7DE2 
 860      B453C869 
 861 0bfc 16737BF0 		.ascii	"\026s{\360\246\315P-f\351\220\207VP\257'h\227g\354\353"
 861      A6CD502D 
 861      66E99087 
 861      5650AF27 
 861      689767EC 
 862 0c11 65ACAFD7 		.ascii	"e\254\257\327\352\247\205\353a\036\355\231\311]]\177"
 862      EAA785EB 
 862      611EED99 
 862      C95D5D7F 
 863 0c21 669D8D58 		.ascii	"f\235\215X\031y{\263\205l\274\240\207n0\257f\203y\223"
 863      19797BB3 
 863      856CBCA0 
 863      876E30AF 
 863      66837993 
 864 0c35 A560AE92 		.ascii	"\245`\256\222\267\341\245\003\266\225I+B\360}]u\353"
 864      B7E1A503 
 864      B695492B 
 864      42F07D5D 
 864      75EB
 865 0c47 BEDB6AB4 		.ascii	"\276\333j\264P2\011\355-&\241\255\022\212\375=L/\304"
 865      503209ED 
 865      2D26A1AD 
 865      128AFD3D 
 865      4C2FC4
 866 0c5a 36E8DB22 		.ascii	"6\350\333\"n\326\255\265\024Z\347\324\320\222\370wD"
 866      6ED6ADB5 
 866      145AE7D4 
 866      D092F877 
 866      44
 867 0c6b F3667468 		.ascii	"\363fth\325(\2415\014uw:Aw\303\214C\253\226\015\255"
 867      D528A135 
 867      0C75773A 
 867      4177C38C 
 867      43AB960D 
 868 0c80 1DBAB65E 		.ascii	"\035\272\266^\324N\205\226\0221\002\267O\337\016u\254"
 868      D44E8596 
 868      123102B7 
 868      4FDF0E75 
 868      AC
 869 0c91 1DEABB15 		.ascii	"\035\352\273\025\023F\255\010\317\335\361<#\325\221"
 869      1346AD08 
 869      CFDDF13C 
 869      23D591
 870 0ca0 E3BB3A86 		.ascii	"\343\273:\206.\223\033t\207\200IP|\244\015\012\315s"
 870      2E931B74 
 870      87804950 
 870      7CA40D0A 
 870      CD73
 871 0cb2 5B749B26 		.ascii	"[t\233&l\270M\003\236\303\317\223\226\276`\215\353\374"
ARM GAS  /tmp/ccPWYpcT.s 			page 69


 871      6CB84D03 
 871      9EC3CF93 
 871      96BE608D 
 871      EBFC
 872 0cc4 80981653 		.ascii	"\200\230\026SK\023h3\323\330\311S\251\364\261\256\356"
 872      4B136833 
 872      D3D8C953 
 872      A9F4B1AE 
 872      EE
 873 0cd5 2D7B3A06 		.ascii	"-{:\006tC\367O\330\001\2611\376\301\241\305\200\310"
 873      7443F74F 
 873      D801B131 
 873      FEC1A1C5 
 873      80C8
 874 0ce7 415D220B 		.ascii	"A]\"\013\017\334\370\317(\021u!\260&]\037\342\260.\304"
 874      0FDCF8CF 
 874      28117521 
 874      B0265D1F 
 874      E2B02EC4 
 875 0cfb FEA6FFE3 		.ascii	"\376\246\377\343)\010eB\335a\000\361\231\2019nt\307"
 875      29086542 
 875      DD6100F1 
 875      9981396E 
 875      74C7
 876 0d0d 1C47F4CC 		.ascii	"\034G\364\314a\372\360\015\313p\003bM\272\304\252\257"
 876      61FAF00D 
 876      CB700362 
 876      4DBAC4AA 
 876      AF
 877 0d1e B554EA13 		.ascii	"\265T\352\023K\345f)\037\317\311\323\370WLv\004\311"
 877      4BE56629 
 877      1FCFC9D3 
 877      F8574C76 
 877      04C9
 878 0d30 07D55F88 		.ascii	"\007\325_\210\251\320\371\261t\355\216\036\325?\252"
 878      A9D0F9B1 
 878      74ED8E1E 
 878      D53FAA
 879 0d3f 807EA8BD 		.ascii	"\200~\250\275r\256\236\231\204c\013k\000\264E\304\032"
 879      72AE9E99 
 879      84630B6B 
 879      00B445C4 
 879      1A
 880 0d50 406FA058 		.ascii	"@o\240X\267\361I\266\213a\335\330\337 _]\324\275\211"
 880      B7F149B6 
 880      8B61DDD8 
 880      DF205F5D 
 880      D4BD89
 881 0d63 BFBA3821 		.ascii	"\277\2728!\342\357\235\030G0;\305\250_\303\255\022\321"
 881      E2EF9D18 
 881      47303BC5 
 881      A85FC3AD 
 881      12D1
 882 0d75 F8AB8BF8 		.ascii	"\370\253\213\370{\346\023\304e\203x8\247\027\017\341"
 882      7BE613C4 
 882      65837838 
 882      A7170FE1 
ARM GAS  /tmp/ccPWYpcT.s 			page 70


 883 0d85 95AB5E1F 		.ascii	"\225\253^\037 \257\265;\217\235\327s\023\303\343\007"
 883      20AFB53B 
 883      8F9DD773 
 883      13C3E307 
 884 0d95 031E17B4 		.ascii	"\003\036\027\264<\376\231[+GZ`\211t\347\341\267\253"
 884      3CFE995B 
 884      2B475A60 
 884      8974E7E1 
 884      B7AB
 885 0da7 D0D6907C 		.ascii	"\320\326\220|\247\213\357\022\325/\264\347\365TQ\010"
 885      A78BEF12 
 885      D52FB4E7 
 885      F5545108 
 886 0db7 97F817ED 		.ascii	"\227\370\027\355\177\215\001\"\2606\364\376\355\244"
 886      7F8D0122 
 886      B036F4FE 
 886      EDA4
 887 0dc5 FFB32A79 		.ascii	"\377\263*y\206\012\246\376\323\000rCml\257VNW\241\302"
 887      860AA6FE 
 887      D3007243 
 887      6D6CAF56 
 887      4E57A1C2 
 888 0dd9 4A14D3F5 		.ascii	"J\024\323\365\266\232\324\223\370\313\242\335\017\377"
 888      B69AD493 
 888      F8CBA2DD 
 888      0FFF
 889 0de7 BF11F53F 		.ascii	"\277\021\365?\374\247?}\217\325B\213\036Vs\035\032W"
 889      FCA73F7D 
 889      8FD5428B 
 889      1E56731D 
 889      1A57
 890 0df9 62AA47A3 		.ascii	"b\252G\243-\214\231\324\031\274h`\336\2140\255,\276"
 890      2D8C99D4 
 890      19BC6860 
 890      DE8C30AD 
 890      2CBE
 891 0e0b CDB0342B 		.ascii	"\315\2604+\375\017\336\320N\260\301\317\214\221\257"
 891      FD0FDED0 
 891      4EB0C1CF 
 891      8C91AF
 892 0e1a CDF698C4 		.ascii	"\315\366\230\304\370\377\200\010\377\035\276\210\210"
 892      F8FF8008 
 892      FF1DBE88 
 892      88
 893 0e27 7EC717FE 		.ascii	"~\307\027\376\321\273\306\2145m|\346i\261\245\304_\302"
 893      D1BBC68C 
 893      356D7CE6 
 893      69B1A5C4 
 893      5FC2
 894 0e39 44CC5BDB 		.ascii	"D\314[\333\370,\317bK\211\357\300\3752\255\243\333\272"
 894      F82CCF62 
 894      4B89EFC0 
 894      FD32ADA3 
 894      DBBA
 895 0e4b 77FE2DBA 		.ascii	"w\376-\272\255;\315\241\316\230\033zZ[\241\335\262\370"
 895      AD3BCDA1 
 895      CE981B7A 
ARM GAS  /tmp/ccPWYpcT.s 			page 71


 895      5A5BA1DD 
 895      B2F8
 896 0e5d 08AAD943 		.ascii	"\010\252\331C\271\305.\035ok\323\012\243\230\215O\336"
 896      B9C52E1D 
 896      6F6BD30A 
 896      A3988D4F 
 896      DE
 897 0e6e 2CB694F8 		.ascii	",\266\224\370\327p\200\033\265V\002\032m\214\032\272"
 897      D770801B 
 897      B556021A 
 897      6D8C1ABA 
 898 0e7e 42D4DFAB 		.ascii	"B\324\337\253WV\204F\255\356\211\354\256\372\231\253"
 898      57568446 
 898      ADEE89EC 
 898      AEFA99AB 
 899 0e8e DFBCFC41 		.ascii	"\337\274\374A\324\3743x\245\275\300]\321\267\377nd\377"
 899      D4FC3378 
 899      A5BDC05D 
 899      D1B7FF6E 
 899      64FF
 900 0ea0 0378C6BA 		.ascii	"\003x\306\272\215kt\032\332\237,\016\211\375O\321\366"
 900      8D6B741A 
 900      DA9F2C0E 
 900      89FD4FD1 
 900      F6
 901 0eb1 EF64ED7F 		.ascii	"\357d\355\177\337\300\376\212F\323L4\252r\030\331\341"
 901      DFC0FE8A 
 901      46D34C34 
 901      AA7218D9 
 901      E1
 902 0ec2 139356D3 		.ascii	"\023\223V\323c\255\364\276@\210&\243\331\324\253\314"
 902      63ADF4BE 
 902      408826A3 
 902      D9D4ABCC 
 903 0ed2 BD972E97 		.ascii	"\275\227.\227*\2372\314p\240\311\245\223\261Pb \034"
 903      2A9F32CC 
 903      70A0C9A5 
 903      93B15062 
 903      201C
 904 0ee4 2F0EE65B 		.ascii	"/\016\346[\206e'\360\267\014\350:g0\215s\261\267U'\350"
 904      866527F0 
 904      B70CE83A 
 904      67308D73 
 904      B1B75527 
 905 0ef9 6F19247E 		.ascii	"o\031$~/\036\003\250\255\236\246\321\331\202\343\014"
 905      2F1E03A8 
 905      AD9EA6D1 
 905      D982E30C 
 906 0f09 DECBAF3A 		.ascii	"\336\313\257:A\275\227\237\323\213\267\011\226\251\001"
 906      41BD979F 
 906      D38BB709 
 906      96A901
 907 0f18 DB4A83D5 		.ascii	"\333J\203\325X\0013\371\226a;\015\266\3306\230\226\331"
 907      580133F9 
 907      96613B0D 
 907      B6D83698 
 907      96D9
ARM GAS  /tmp/ccPWYpcT.s 			page 72


 908 0f2a 4E1A6CB9 		.ascii	"N\032l\271\0250\223o\031v\321`\353m\203i\231\325\323"
 908      1530936F 
 908      1976D160 
 908      EB6D8369 
 908      99D5D3
 909 0f3d 601F5801 		.ascii	"`\037X\0013\371\350t\217\002\246\274\275\252\263\015"
 909      33F9E874 
 909      8F02A6BC 
 909      BDAAB30D 
 910 0f4d A665B68F 		.ascii	"\246e\266\217fv\300\012X\246\261\315\366\323`\215\266"
 910      6676C00A 
 910      58A6B1CD 
 910      F6D3608D 
 910      B6
 911 0f5e C1286630 		.ascii	"\301(f0bZ~[-\221\305\326\232\341h\244#\205I\315\341"
 911      625A7E5B 
 911      2D91C5D6 
 911      9AE168A4 
 911      238549CD 
 912 0f73 DA688067 		.ascii	"\332h\200gr\207\335\265\326*\207\376ZK}V\021\270/X\005"
 912      7287DDB5 
 912      D62A87FE 
 912      5A4B7D56 
 912      11B82F58 
 913 0f88 34BD92D3 		.ascii	"4\275\222\323\307\214\255q\224\266\306\327V\254\361"
 913      C78CAD71 
 913      94B6C6D7 
 913      56ACF1
 914 0f97 8431D871 		.ascii	"\2041\330q\032\354\202m0"
 914      1AEC826D 
 914      30
 915 0fa0 ADD3BFA4 		.ascii	"\255\323\277\244\301\256Z\001{\3228\034O\322\341\330"
 915      C1AE5A01 
 915      7BD2381C 
 915      4FD2E1D8 
 916 0fb0 6E1B4CCB 		.ascii	"n\033L\313\354+\232Y\247\025\260\341\3066;M\203\275"
 916      EC2B9A59 
 916      A715B0E1 
 916      C6363B4D 
 916      83BD
 917 0fc2 D6DB2E98 		.ascii	"\326\333.\2306\034\317\376\026a\2418\023\2707X,\275"
 917      361CCFFE 
 917      1661A138 
 917      13B83758 
 917      2CBD
 918 0fd4 C8186D4C 		.ascii	"\310\030mL\254\215&\266\304\012\261Bc\260\357h\260\265"
 918      AC8D26B6 
 918      C40AB142 
 918      63B0EF68 
 918      B0B5
 919 0fe6 B6C1B4F6 		.ascii	"\266\301\264\366\277I\203\275o\005\354y\343\310\270"
 919      BF4983BD 
 919      6F05EC79 
 919      E3C8B8
 920 0ff5 AD4954B6 		.ascii	"\255IT\266\301\264\314\356h\022\225"
 920      C1B4CCEE 
 920      681295
ARM GAS  /tmp/ccPWYpcT.s 			page 73


 921 1000 15B0178C 		.ascii	"\025\260\027\214m\366\003\015\366\231m0md\334\243\""
 921      6DF6030D 
 921      F6996D30 
 921      6D64DCA3 
 921      22
 922 1011 E39895C8 		.ascii	"\343\230\225\310(5&v\237&v\306\012\261\311\306`\325"
 922      28352676 
 922      9F2676C6 
 922      0AB1C9C6 
 922      60D5
 923 1023 5F5160AD 		.ascii	"_Q`\255\266\301\264Z.\370}L\313KV\264\2544&\266\220"
 923      B6C1B45A 
 923      2EF87D4C 
 923      CB4B56B4 
 923      AC3426B6 
 924 1038 26D66685 		.ascii	"&\326f\205\230\314\033\243-\246\321n\333G\313\344\014"
 924      98CC1BA3 
 924      2DA6D16E 
 924      DB47CBE4 
 924      0C
 925 1049 7FF4424E 		.ascii	"\177\364BN\342g;\320b~\216\003}i3\027\227\257\343r>"
 925      E2673BD0 
 925      627E8E03 
 925      7D693317 
 925      97AFE372 
 926 105e 2EAB71B9 		.ascii	".\253q\271\000\227\013q\271\030\227Kq\271\034\227o\343"
 926      00970B71 
 926      B918974B 
 926      71B91C97 
 926      6FE3
 927 1070 720D2ED7 		.ascii	"r\015.\327\341\362\035\\\276\213\313M\270|\017\227\037"
 927      E1F21D5C 
 927      BE8BCB4D 
 927      B87C0F97 
 927      1F
 928 1081 E0B21697 		.ascii	"\340\262\026\227[q\271\035\227;q\271\013\227\365\270"
 928      5B71B91D 
 928      973B71B9 
 928      0B97F5B8 
 929 1091 DC83CB7D 		.ascii	"\334\203\313}\270\334\217\3130.\033p\371\251\203\372"
 929      B8DC8FCB 
 929      302E1B70 
 929      F9A983FA 
 930 10a1 2288593A 		.ascii	"\"\210Y:\3170\260\022\322\373\220\341\202{\236\311\202"
 930      CF30B012 
 930      D2FB90E1 
 930      827B9EC9 
 930      82
 931 10b2 FBB061AB 		.ascii	"\373\260a\253\026\223V\215\206\255\216\230\264\372\314"
 931      1693568D 
 931      86AD8E98 
 931      B4FACC
 932 10c1 B0D57993 		.ascii	"\260\325y\223V\237\033\266\232e\322\352H\254\025\347"
 932      569F1BB6 
 932      9A65D2EA 
 932      48AC15E7 
 933 10d1 F0944A81 		.ascii	"\360\224J\201\237eM\011\006\262\244@\371\343\025\376"
ARM GAS  /tmp/ccPWYpcT.s 			page 74


 933      9F654D09 
 933      06B2A440 
 933      F9E315FE 
 934 10e1 0AEFE35E 		.ascii	"\012\357\343^i\242/\313W\341)\233R\342\315\012\206J"
 934      69A22FCB 
 934      57E1299B 
 934      52E2CD0A 
 934      864A
 935 10f3 7C15A1C1 		.ascii	"|\025\241\301\245\\\352\0248\346\346\270C\311\243\306"
 935      A55CEA14 
 935      38E6E6B8 
 935      43C9A3C6 
 936 1103 4FC8CCE7 		.ascii	"O\310\314\347\206\2304*\227<\245\276\012o\226\273\304"
 936      8698342A 
 936      973CA5BE 
 936      0A6F96BB 
 936      C4
 937 1114 3B499A52 		.ascii	";I\232R\026r\207^\235\354\015\002H\017\267[\205\031"
 937      1672875E 
 937      9DEC0D02 
 937      480FB75B 
 937      8519
 938 1126 9555EA2F 		.ascii	"\225U\352/\367fy\374%\257f\225x\247fA\213\211>\1770"
 938      F76679FC 
 938      25AF6695 
 938      78A76641 
 938      8B893E7F 
 939 113b 2B149852 		.ascii	"+\024\230R\361r\026\234\224JeY\223\375\201P0\253\250"
 939      F172169C 
 939      944A6559 
 939      93FD8150 
 939      30ABA8
 940 114e 785C6E4E 		.ascii	"x\\nN\326\330\261\005Y\023\212\362\\\305S\263\263\246"
 940      D6D8B105 
 940      59138AF2 
 940      5CC553B3 
 940      B3A6
 941 1160 488190BB 		.ascii	"H\201\220\273\254\254\004AN\200K\005\001\337To \327"
 941      ACAC0441 
 941      4E804B05 
 941      01DF546F 
 941      20D7
 942 1172 0AA4CA11 		.ascii	"\012\244\312\021A@\3634t\014\206\244\220\327\035JCP"
 942      4140F334 
 942      740C86A4 
 942      90D71D4A 
 942      4350
 943 1184 EE09E3C7 		.ascii	"\356\011\343\307\214\037S\354\304\347E\305\317\026\342"
 943      8C1F53EC 
 943      C4E745C5 
 943      CF16E2
 944 1193 0EDCAE91 		.ascii	"\016\334\256\221y\005\277K\302\025{\242&\241J\322(\035"
 944      7905BF4B 
 944      C2157BA2 
 944      26A14AD2 
 944      281D
 945 11a5 DF2E7EDE 		.ascii	"\337.~\336=\246`\354\310^\352\037y\371\305c\236\033"
ARM GAS  /tmp/ccPWYpcT.s 			page 75


 945      3DA660EC 
 945      C85EEA1F 
 945      79F9C563 
 945      9E1B
 946 11b7 99A1FE99 		.ascii	"\231\241\376\231\377\354\270\302\261#\213G\246\220f"
 946      FFECB8C2 
 946      B1238B47 
 946      A69066
 947 11c6 1822A085 		.ascii	"\030\"\240\205p\321\020.-\204\213\202 \315R\021\204"
 947      70D1102E 
 947      2D848B82 
 947      20CD5211 
 947      84
 948 11d7 67A23BE4 		.ascii	"g\242;\344\014Uz+J\262\335\236\211\312Y\016\234\245"
 948      0C557A2B 
 948      4AB2DD9E 
 948      89CA590E 
 948      9CA5
 949 11e9 06D0193A 		.ascii	"\006\320\031:A\346\316\376\245;D,\217N\235\270%n\032"
 949      41E6CEFE 
 949      A53B442C 
 949      8F4E9DB8 
 949      256E1A
 950 11fc A844FE87 		.ascii	"\250D\376\207z\330\014\223\312\244\027\203\344\276\027"
 950      7AD80C93 
 950      CAA41783 
 950      E4BE17
 951 120b DD473001 		.ascii	"\335G0\001t;)8\331\353-\021=\201l\220\034\220\\l\225"
 951      743B2938 
 951      D9EB2D11 
 951      3D816C90 
 951      1C905C6C 
 952 1220 7C7FC524 		.ascii	"|\177\305$\337\213\311\036|x*\221\365\275\225\241\254"
 952      DF8BC91E 
 952      7C782A91 
 952      F5BD95A1 
 952      AC
 953 1231 FC714563 		.ascii	"\374qEc\212\300\241\020W\345\2719\223\206<\221]\351"
 953      8AC0A110 
 953      57E5B939 
 953      93863C91 
 953      5DE9
 954 1243 052FF4C4 		.ascii	"\005/\364\304\216u\027C\230\024x'\011E.\241\300%\216"
 954      8E751743 
 954      98147827 
 954      09452EA1 
 954      C0258E
 955 1256 70B9C47C 		.ascii	"p\271\304|W6H\016H\256cTq\241+iJ\020\310\245\224\224"
 955      5736480E 
 955      48AE6354 
 955      71A12B69 
 955      4A10C8A5 
 956 126c 4BE5FE12 		.ascii	"K\345\376\022\3573vc\010\227\317\014\251\254T\372w\003"
 956      EF337663 
 956      0897CF0C 
 956      A9AC54FA 
 956      7703
ARM GAS  /tmp/ccPWYpcT.s 			page 76


 957 127e 0EF4DEB7 		.ascii	"\016\364\336\267`\\\236\273(\024\360J\345Q\012\371."
 957      605C9EBB 
 957      2814F04A 
 957      E5510AF9 
 957      2E
 958 128f C7F88262 		.ascii	"\307\370\202b\227X\230\347r\214{\002\025\331y.\361\231"
 958      975898E7 
 958      728C7B02 
 958      15D9792E 
 958      F199
 959 12a1 7C577210 		.ascii	"|Wr\020Wt\370&y\002)\310\244O\202\305\024\343\302Y\262"
 959      5774F826 
 959      790229C8 
 959      A44F82C5 
 959      14E3C259 
 960 12b6 2F58EA9B 		.ascii	"/X\352\233\024r\006\275e\223|\025%\336\312\344\251^"
 960      147206BD 
 960      65937C15 
 960      25DECAE4 
 960      A95E
 961 12c8 4FC81FE8 		.ascii	"O\310\037\350\033\355\317\255\264w\207\222\340\217@"
 961      1BEDCFAD 
 961      B4778792 
 961      E08F40
 962 12d7 252A4395 		.ascii	"%*C\225I\201\312\211S&\375}\206\204\207\033\240\236"
 962      4981CA89 
 962      5326FD7D 
 962      8684871B 
 962      A09E
 963 12e9 BB83DEC0 		.ascii	"\273\203\336\300T\010\260J7\212\006_\340\225$tgr\022"
 963      5408B04A 
 963      378A065F 
 963      E0952474 
 963      677212
 964 12fc 76345B2B 		.ascii	"v4[+\020\255\225\021\012H\025\3012\024\233\340~\177"
 964      10AD9511 
 964      0A4815C1 
 964      32149BE0 
 964      7E7F
 965 130e 20280403 		.ascii	" (\004\003=\260\341\201\274\177r\232z\012eo\245\255"
 965      3DB0E181 
 965      BC7F729A 
 965      7A0A656F 
 965      A5AD
 966 1320 72059A66 		.ascii	"r\005\232f\032\202\016\236\214\006\334\023\017\306*"
 966      1A820E9E 
 966      8C06DC13 
 966      0FC62A
 967 132f 00947231 		.ascii	"\000\224r1;\3659l\244\202!=\243w}\025\276P/\252.\234"
 967      3BF5396C 
 967      A482213D 
 967      A3777D15 
 967      BE502FAA 
 968 1345 F5D434CD 		.ascii	"\365\3244\315\301\371\247\31471\353E\217\207\311CC\006"
 968      C1F9A7CC 
 968      3731EB45 
 968      8F87C943 
ARM GAS  /tmp/ccPWYpcT.s 			page 77


 968      4306
 969 1357 3F397808 		.ascii	"?9x\010\235\302 \017\201\237\223\203\276?\2025\036\320"
 969      9DC2200F 
 969      819F9383 
 969      BE3F8235 
 969      1ED0
 970 1369 C202D38A 		.ascii	"\302\002\323\212\022\276\")\204\\\320W\323\007\276\365"
 970      12BE2229 
 970      845CD057 
 970      D307BEF5 
 971 1379 10533DE0 		.ascii	"\020S=\340\365x!\333\364\323\326$W\023\246\240@(\312"
 971      F57821DB 
 971      F4D3D624 
 971      5713A6A0 
 971      4028CA
 972 138c CB531A7C 		.ascii	"\313S\032|\025%E\247\247\264\350\325\340h\251,4\314"
 972      152545A7 
 972      A7B4E8D5 
 972      E068A92C 
 972      34CC
 973 139e 7A0078FC 		.ascii	"z\000x\374\345\345\376\212\254<\327\270\374q\225Y\025"
 973      E5E5FE8A 
 973      AC3CD7B8 
 973      FC719559 
 973      15
 974 13af 537D1E40 		.ascii	"S}\036@\352\203\216\005\276\2404\261\314\253\230\364"
 974      EA838E05 
 974      BEA034B1 
 974      CCAB98F4 
 975 13bf 3F2CF051 		.ascii	"?,\360Q\000\011\222\247\324\343\017x\335S\377\275\034"
 975      000992A7 
 975      D4E30F78 
 975      DD53FFBD 
 975      1C
 976 13d0 0D0C37BA 		.ascii	"\015\0147\272\207\274\347\366N\366\225\371_\234\342"
 976      87BCE7F6 
 976      4EF695F9 
 976      5F9CE2
 977 13df C53E7976 		.ascii	"\305>yv\342K\200>\006\\\224\201z\034Y\021\3530\311="
 977      E24B803E 
 977      065C9481 
 977      7A1C5911 
 977      EB30C93D 
 978 13f3 C2EF2FEB 		.ascii	"\302\357/\353\025\015w_0\340\016\365\201\023e|\345\225"
 978      150D775F 
 978      30E00EF5 
 978      8113657C 
 978      E595
 979 1405 95F93D10 		.ascii	"\225\371=\020X\031\321+.o\231W\012z\223q\032\317\356"
 979      5819D12B 
 979      2E6F9957 
 979      0A7A9371 
 979      1ACFEE
 980 1418 EB66074A 		.ascii	"\353f\007J0#\350\015\2418\362\225\224y\335e~\377dKi"
 980      3023E80D 
 980      A138F295 
 980      9479DD65 
ARM GAS  /tmp/ccPWYpcT.s 			page 78


 980      7EFF644B 
 981 142d DE1F8402 		.ascii	"\336\037\204\002\224CG\224\346\321\221X9\031`\203\376"
 981      94434794 
 981      E6D19158 
 981      39196083 
 981      FE
 982 143e 8A34577E 		.ascii	"\2124W~\276:\334S\012\307\216\315\177f\224\313\201\012"
 982      BE3ADC53 
 982      0AC78ECD 
 982      7F6694CB 
 982      810A
 983 1450 317F8C2B 		.ascii	"1\177\214+5o\364\210lWQ1>\311QOr\321\211\3235\262h\244"
 983      356FF488 
 983      6C575131 
 983      3EC9514F 
 983      72D189D3 
 984 1468 EBB99105 		.ascii	"\353\271\221\005O\244\346\025\252\225\012\225J\321{"
 984      4FA4E615 
 984      AA950A95 
 984      4AD17B
 985 1477 D9290860 		.ascii	"\331)\010`\344x\027:\346\220c.\034\2435rRPk|\247\020"
 985      E478173A 
 985      E690632E 
 985      1CA33572 
 985      52506B7C 
 986 148d D788DEC9 		.ascii	"\327\210\336\311u\242\266c\013\3215\324:z\226\253\234"
 986      75A2B663 
 986      0BD135D4 
 986      3A7A96AB 
 986      9C
 987 149e A9F58638 		.ascii	"\251\365\2068\021\002\271[\250\326S\357\376\3021\242"
 987      1102B95B 
 987      A8D653EF 
 987      FEC231A2 
 988 14ae 201F7429 		.ascii	" \037t)\212]\372eRQQ\376(W\017PvLN\021R\365\377\001"
 988      8A5DFA65 
 988      525151FE 
 988      28570F50 
 988      764C4E11 
 989 14c6 0BE38E32 		.ascii	"\013\343\2162"
 990              		.text
 991              		.section	.gnu.lto_.symtab.7ba27ab42e98d73b,"",%progbits
 992 0000 56656374 		.ascii	"VectorD4\000\000\000\000\000\000\000\000\000\000\000"
 992      6F724434 
 992      00000000 
 992      00000000 
 992      000000
 993 0013 008A0100 		.ascii	"\000\212\001\000\000UARTD1\000\000\000\000\000\000\000"
 993      00554152 
 993      54443100 
 993      00000000 
 993      0000
 994 0025 00000000 		.ascii	"\000\000\000\000\000\344\001\000\000uart_lld_init\000"
 994      00E40100 
 994      00756172 
 994      745F6C6C 
 994      645F696E 
ARM GAS  /tmp/ccPWYpcT.s 			page 79


 995 003c 00000000 		.ascii	"\000\000\000\000\000\000\000\000\000\000\000\216\001"
 995      00000000 
 995      0000008E 
 995      01
 996 0049 00007561 		.ascii	"\000\000uart_lld_start\000\000\000\000\000\000\000\000"
 996      72745F6C 
 996      6C645F73 
 996      74617274 
 996      00000000 
 997 0061 00000000 		.ascii	"\000\000\000\000\221\001\000\000uart_lld_stop\000\000"
 997      91010000 
 997      75617274 
 997      5F6C6C64 
 997      5F73746F 
 998 0078 00000000 		.ascii	"\000\000\000\000\000\000\000\000\000\000\225\001\000"
 998      00000000 
 998      00009501 
 998      00
 999 0085 00756172 		.ascii	"\000uart_lld_start_send\000\000\000\000\000\000\000"
 999      745F6C6C 
 999      645F7374 
 999      6172745F 
 999      73656E64 
 1000 00a0 00000000 		.ascii	"\000\000\000\000\000\231\001\000\000uart_lld_stop_s"
 1000      00990100 
 1000      00756172 
 1000      745F6C6C 
 1000      645F7374 
 1001 00b8 656E6400 		.ascii	"end\000\000\000\000\000\000\000\000\000\000\000\000"
 1001      00000000 
 1001      00000000 
 1001      000000
 1002 00c7 A8010000 		.ascii	"\250\001\000\000uart_lld_start_receive\000\000\000\000"
 1002      75617274 
 1002      5F6C6C64 
 1002      5F737461 
 1002      72745F72 
 1003 00e5 00000000 		.ascii	"\000\000\000\000\000\000\000\000\256\001\000\000uar"
 1003      00000000 
 1003      AE010000 
 1003      756172
 1004 00f4 745F6C6C 		.ascii	"t_lld_stop_receive\000\000\000\000\000\000\000\000\000"
 1004      645F7374 
 1004      6F705F72 
 1004      65636569 
 1004      76650000 
 1005 010f 000000B8 		.ascii	"\000\000\000\270\001\000\000_stm32_dma_streams\000\000"
 1005      0100005F 
 1005      73746D33 
 1005      325F646D 
 1005      615F7374 
 1006 012a 02000000 		.ascii	"\002\000\000\000\000\000\000\000\000\000\346\001\000"
 1006      00000000 
 1006      0000E601 
 1006      00
 1007 0137 00636853 		.ascii	"\000chSysHalt\000\000\002\000\000\000\000\000\000\000"
 1007      79734861 
ARM GAS  /tmp/ccPWYpcT.s 			page 80


 1007      6C740000 
 1007      02000000 
 1007      00000000 
 1008 014b 0000BC01 		.ascii	"\000\000\274\001\000\000nvicDisableVector\000\000\002"
 1008      00006E76 
 1008      69634469 
 1008      7361626C 
 1008      65566563 
 1009 0165 00000000 		.ascii	"\000\000\000\000\000\000\000\000\000\302\001\000\000"
 1009      00000000 
 1009      00C20100 
 1009      00
 1010 0172 5F706F72 		.ascii	"_port_irq_epilogue\000\000\002\000\000\000\000\000\000"
 1010      745F6972 
 1010      715F6570 
 1010      696C6F67 
 1010      75650000 
 1011 018d 000000C6 		.ascii	"\000\000\000\306\001\000\000uartObjectInit\000\000\002"
 1011      01000075 
 1011      6172744F 
 1011      626A6563 
 1011      74496E69 
 1012 01a5 00000000 		.ascii	"\000\000\000\000\000\000\000\000\000\310\001\000\000"
 1012      00000000 
 1012      00C80100 
 1012      00
 1013 01b2 6E766963 		.ascii	"nvicEnableVector\000\000\002\000\000\000\000\000\000"
 1013      456E6162 
 1013      6C655665 
 1013      63746F72 
 1013      00000200 
 1014 01cb 000000CA 		.ascii	"\000\000\000\312\001\000\000dmaStreamAllocate\000\000"
 1014      01000064 
 1014      6D615374 
 1014      7265616D 
 1014      416C6C6F 
 1015 01e5 02000000 		.ascii	"\002\000\000\000\000\000\000\000\000\000\317\001\000"
 1015      00000000 
 1015      0000CF01 
 1015      00
 1016 01f2 00646D61 		.ascii	"\000dmaStreamRelease\000\000\002\000\000\000\000\000"
 1016      53747265 
 1016      616D5265 
 1016      6C656173 
 1016      65000002 
 1017 020b 00000000 		.ascii	"\000\000\000\000\340\001\000\000"
 1017      E0010000 
 1018              		.text
 1019              		.section	.gnu.lto_.opts,"",%progbits
 1020 0000 272D6D63 		.ascii	"'-mcpu=cortex-m4' '-mfloat-abi=hard' '-mfpu=fpv4-sp"
 1020      70753D63 
 1020      6F727465 
 1020      782D6D34 
 1020      2720272D 
 1021 0033 2D643136 		.ascii	"-d16' '-mno-thumb-interwork' '-mthumb' '-O2' '-fomi"
 1021      2720272D 
 1021      6D6E6F2D 
ARM GAS  /tmp/ccPWYpcT.s 			page 81


 1021      7468756D 
 1021      622D696E 
 1022 0066 742D6672 		.ascii	"t-frame-pointer' '-falign-functions=16' '-ffunction"
 1022      616D652D 
 1022      706F696E 
 1022      74657227 
 1022      20272D66 
 1023 0099 2D736563 		.ascii	"-sections' '-fdata-sections' '-fno-common' '-flto' "
 1023      74696F6E 
 1023      73272027 
 1023      2D666461 
 1023      74612D73 
 1024 00cc 272D6673 		.ascii	"'-fsingle-precision-constant'\000"
 1024      696E676C 
 1024      652D7072 
 1024      65636973 
 1024      696F6E2D 
 1025              		.text
 1026              		.section	.text.usart_stop,"ax",%progbits
 1027              		.align	2
 1028              		.p2align 4,,15
 1029              		.thumb
 1030              		.thumb_func
 1031              		.type	usart_stop, %function
 1032              	usart_stop:
 1033              		@ args = 0, pretend = 0, frame = 0
 1034              		@ frame_needed = 0, uses_anonymous_args = 0
 1035              		@ link register save eliminated.
 1036 0000 30B4     		push	{r4, r5}
 1037 0002 0469     		ldr	r4, [r0, #16]
 1038 0004 2268     		ldr	r2, [r4]
 1039 0006 1368     		ldr	r3, [r2]
 1040 0008 23F01F03 		bic	r3, r3, #31
 1041 000c 1360     		str	r3, [r2]
 1042              	.L3:
 1043 000e 1368     		ldr	r3, [r2]
 1044 0010 DB07     		lsls	r3, r3, #31
 1045 0012 FCD4     		bmi	.L3
 1046 0014 257A     		ldrb	r5, [r4, #8]	@ zero_extendqisi2
 1047 0016 4169     		ldr	r1, [r0, #20]
 1048 0018 6368     		ldr	r3, [r4, #4]
 1049 001a 0A68     		ldr	r2, [r1]
 1050 001c 3D24     		movs	r4, #61
 1051 001e AC40     		lsls	r4, r4, r5
 1052 0020 1C60     		str	r4, [r3]
 1053 0022 1368     		ldr	r3, [r2]
 1054 0024 23F01F03 		bic	r3, r3, #31
 1055 0028 1360     		str	r3, [r2]
 1056              	.L5:
 1057 002a 1368     		ldr	r3, [r2]
 1058 002c 13F00103 		ands	r3, r3, #1
 1059 0030 FBD1     		bne	.L5
 1060 0032 0C7A     		ldrb	r4, [r1, #8]	@ zero_extendqisi2
 1061 0034 8268     		ldr	r2, [r0, #8]
 1062 0036 4968     		ldr	r1, [r1, #4]
 1063 0038 3D20     		movs	r0, #61
 1064 003a A040     		lsls	r0, r0, r4
ARM GAS  /tmp/ccPWYpcT.s 			page 82


 1065 003c 0860     		str	r0, [r1]
 1066 003e 30BC     		pop	{r4, r5}
 1067 0040 D360     		str	r3, [r2, #12]
 1068 0042 1361     		str	r3, [r2, #16]
 1069 0044 5361     		str	r3, [r2, #20]
 1070 0046 7047     		bx	lr
 1071              		.size	usart_stop, .-usart_stop
 1072 0048 AFF30080 		.section	.text.uart_lld_serve_tx_end_irq,"ax",%progbits
 1072      AFF30080 
 1073              		.align	2
 1074              		.p2align 4,,15
 1075              		.thumb
 1076              		.thumb_func
 1077              		.type	uart_lld_serve_tx_end_irq, %function
 1078              	uart_lld_serve_tx_end_irq:
 1079              		@ args = 0, pretend = 0, frame = 0
 1080              		@ frame_needed = 0, uses_anonymous_args = 0
 1081 0000 11F00C0F 		tst	r1, #12
 1082 0004 10B5     		push	{r4, lr}
 1083 0006 0446     		mov	r4, r0
 1084 0008 1BD1     		bne	.L20
 1085              	.L8:
 1086 000a 6169     		ldr	r1, [r4, #20]
 1087 000c 0A68     		ldr	r2, [r1]
 1088 000e 1368     		ldr	r3, [r2]
 1089 0010 23F01F03 		bic	r3, r3, #31
 1090 0014 1360     		str	r3, [r2]
 1091              	.L10:
 1092 0016 1368     		ldr	r3, [r2]
 1093 0018 DB07     		lsls	r3, r3, #31
 1094 001a FCD4     		bmi	.L10
 1095 001c 6368     		ldr	r3, [r4, #4]
 1096 001e 0A7A     		ldrb	r2, [r1, #8]	@ zero_extendqisi2
 1097 0020 1B68     		ldr	r3, [r3]
 1098 0022 4968     		ldr	r1, [r1, #4]
 1099 0024 3D20     		movs	r0, #61
 1100 0026 9040     		lsls	r0, r0, r2
 1101 0028 0222     		movs	r2, #2
 1102 002a 0860     		str	r0, [r1]
 1103 002c 6270     		strb	r2, [r4, #1]
 1104 002e 2BB1     		cbz	r3, .L13
 1105 0030 2046     		mov	r0, r4
 1106 0032 9847     		blx	r3
 1107 0034 6378     		ldrb	r3, [r4, #1]	@ zero_extendqisi2
 1108 0036 022B     		cmp	r3, #2
 1109 0038 00D0     		beq	.L13
 1110 003a 10BD     		pop	{r4, pc}
 1111              	.L13:
 1112 003c 0023     		movs	r3, #0
 1113 003e 6370     		strb	r3, [r4, #1]
 1114 0040 10BD     		pop	{r4, pc}
 1115              	.L20:
 1116 0042 0248     		ldr	r0, .L21
 1117 0044 FFF7FEFF 		bl	chSysHalt
 1118 0048 DFE7     		b	.L8
 1119              	.L22:
 1120 004a 00BF     		.align	2
ARM GAS  /tmp/ccPWYpcT.s 			page 83


 1121              	.L21:
 1122 004c 00000000 		.word	.LC0
 1123              		.size	uart_lld_serve_tx_end_irq, .-uart_lld_serve_tx_end_irq
 1124              		.section	.text.uart_lld_serve_rx_end_irq,"ax",%progbits
 1125              		.align	2
 1126              		.p2align 4,,15
 1127              		.thumb
 1128              		.thumb_func
 1129              		.type	uart_lld_serve_rx_end_irq, %function
 1130              	uart_lld_serve_rx_end_irq:
 1131              		@ args = 0, pretend = 0, frame = 0
 1132              		@ frame_needed = 0, uses_anonymous_args = 0
 1133 0000 11F00C0F 		tst	r1, #12
 1134 0004 70B5     		push	{r4, r5, r6, lr}
 1135 0006 0446     		mov	r4, r0
 1136 0008 3BD1     		bne	.L38
 1137              	.L24:
 1138 000a A378     		ldrb	r3, [r4, #2]	@ zero_extendqisi2
 1139 000c 43B9     		cbnz	r3, .L25
 1140 000e 6368     		ldr	r3, [r4, #4]
 1141 0010 DB68     		ldr	r3, [r3, #12]
 1142 0012 002B     		cmp	r3, #0
 1143 0014 34D0     		beq	.L23
 1144 0016 218B     		ldrh	r1, [r4, #24]
 1145 0018 2046     		mov	r0, r4
 1146 001a 89B2     		uxth	r1, r1
 1147 001c 9847     		blx	r3
 1148 001e 70BD     		pop	{r4, r5, r6, pc}
 1149              	.L25:
 1150 0020 2169     		ldr	r1, [r4, #16]
 1151 0022 0A68     		ldr	r2, [r1]
 1152 0024 1368     		ldr	r3, [r2]
 1153 0026 23F01F03 		bic	r3, r3, #31
 1154 002a 1360     		str	r3, [r2]
 1155              	.L29:
 1156 002c 1368     		ldr	r3, [r2]
 1157 002e DB07     		lsls	r3, r3, #31
 1158 0030 FCD4     		bmi	.L29
 1159 0032 6068     		ldr	r0, [r4, #4]
 1160 0034 0E7A     		ldrb	r6, [r1, #8]	@ zero_extendqisi2
 1161 0036 4D68     		ldr	r5, [r1, #4]
 1162 0038 8368     		ldr	r3, [r0, #8]
 1163 003a 3D21     		movs	r1, #61
 1164 003c 01FA06F6 		lsl	r6, r1, r6
 1165 0040 0221     		movs	r1, #2
 1166 0042 2E60     		str	r6, [r5]
 1167 0044 A170     		strb	r1, [r4, #2]
 1168 0046 3BB1     		cbz	r3, .L30
 1169 0048 2046     		mov	r0, r4
 1170 004a 9847     		blx	r3
 1171 004c A378     		ldrb	r3, [r4, #2]	@ zero_extendqisi2
 1172 004e 022B     		cmp	r3, #2
 1173 0050 16D1     		bne	.L23
 1174 0052 2369     		ldr	r3, [r4, #16]
 1175 0054 6068     		ldr	r0, [r4, #4]
 1176 0056 1A68     		ldr	r2, [r3]
 1177              	.L30:
ARM GAS  /tmp/ccPWYpcT.s 			page 84


 1178 0058 C168     		ldr	r1, [r0, #12]
 1179 005a E368     		ldr	r3, [r4, #12]
 1180 005c 0029     		cmp	r1, #0
 1181 005e 14BF     		ite	ne
 1182 0060 4FF48871 		movne	r1, #272
 1183 0064 4FF48071 		moveq	r1, #256
 1184 0068 0B43     		orrs	r3, r3, r1
 1185 006a 0025     		movs	r5, #0
 1186 006c 0121     		movs	r1, #1
 1187 006e 04F11800 		add	r0, r4, #24
 1188 0072 A570     		strb	r5, [r4, #2]
 1189 0074 D060     		str	r0, [r2, #12]
 1190 0076 5160     		str	r1, [r2, #4]
 1191 0078 1360     		str	r3, [r2]
 1192 007a 1368     		ldr	r3, [r2]
 1193 007c 0B43     		orrs	r3, r3, r1
 1194 007e 1360     		str	r3, [r2]
 1195              	.L23:
 1196 0080 70BD     		pop	{r4, r5, r6, pc}
 1197              	.L38:
 1198 0082 0248     		ldr	r0, .L39
 1199 0084 FFF7FEFF 		bl	chSysHalt
 1200 0088 BFE7     		b	.L24
 1201              	.L40:
 1202 008a 00BF     		.align	2
 1203              	.L39:
 1204 008c 00000000 		.word	.LC0
 1205              		.size	uart_lld_serve_rx_end_irq, .-uart_lld_serve_rx_end_irq
 1206              		.section	.text.VectorD4,"ax",%progbits
 1207              		.align	2
 1208              		.p2align 4,,15
 1209              		.global	VectorD4
 1210              		.thumb
 1211              		.thumb_func
 1212              		.type	VectorD4, %function
 1213              	VectorD4:
 1214              		@ args = 0, pretend = 0, frame = 0
 1215              		@ frame_needed = 0, uses_anonymous_args = 0
 1216 0000 70B5     		push	{r4, r5, r6, lr}
 1217 0002 1A4E     		ldr	r6, .L72
 1218 0004 B468     		ldr	r4, [r6, #8]
 1219 0006 2568     		ldr	r5, [r4]
 1220 0008 6368     		ldr	r3, [r4, #4]
 1221 000a 40F20F13 		movw	r3, #271
 1222 000e 2B40     		ands	r3, r3, r5
 1223 0010 EBB1     		cbz	r3, .L43
 1224 0012 7368     		ldr	r3, [r6, #4]
 1225 0014 1A69     		ldr	r2, [r3, #16]
 1226 0016 6FF48073 		mvn	r3, #256
 1227 001a 2360     		str	r3, [r4]
 1228 001c BAB1     		cbz	r2, .L43
 1229 001e ABB2     		uxth	r3, r5
 1230 0020 13F0080F 		tst	r3, #8
 1231 0024 14BF     		ite	ne
 1232 0026 1021     		movne	r1, #16
 1233 0028 0021     		moveq	r1, #0
 1234 002a D807     		lsls	r0, r3, #31
ARM GAS  /tmp/ccPWYpcT.s 			page 85


 1235 002c 48BF     		it	mi
 1236 002e 41F00401 		orrmi	r1, r1, #4
 1237 0032 9807     		lsls	r0, r3, #30
 1238 0034 48BF     		it	mi
 1239 0036 41F00801 		orrmi	r1, r1, #8
 1240 003a 5807     		lsls	r0, r3, #29
 1241 003c 48BF     		it	mi
 1242 003e 41F02001 		orrmi	r1, r1, #32
 1243 0042 D805     		lsls	r0, r3, #23
 1244 0044 48BF     		it	mi
 1245 0046 41F04001 		orrmi	r1, r1, #64
 1246 004a 0848     		ldr	r0, .L72
 1247 004c 9047     		blx	r2
 1248              	.L43:
 1249 004e 6B06     		lsls	r3, r5, #25
 1250 0050 07D5     		bpl	.L51
 1251 0052 7368     		ldr	r3, [r6, #4]
 1252 0054 5B68     		ldr	r3, [r3, #4]
 1253 0056 6FF04002 		mvn	r2, #64
 1254 005a 2260     		str	r2, [r4]
 1255 005c 0BB1     		cbz	r3, .L51
 1256 005e 0348     		ldr	r0, .L72
 1257 0060 9847     		blx	r3
 1258              	.L51:
 1259 0062 BDE87040 		pop	{r4, r5, r6, lr}
 1260 0066 FFF7FEBF 		b	_port_irq_epilogue
 1261              	.L73:
 1262 006a 00BF     		.align	2
 1263              	.L72:
 1264 006c 00000000 		.word	.LANCHOR0
 1265              		.size	VectorD4, .-VectorD4
 1266              		.section	.text.uart_lld_init,"ax",%progbits
 1267              		.align	2
 1268              		.p2align 4,,15
 1269              		.global	uart_lld_init
 1270              		.thumb
 1271              		.thumb_func
 1272              		.type	uart_lld_init, %function
 1273              	uart_lld_init:
 1274              		@ args = 0, pretend = 0, frame = 0
 1275              		@ frame_needed = 0, uses_anonymous_args = 0
 1276 0000 10B5     		push	{r4, lr}
 1277 0002 074C     		ldr	r4, .L75
 1278 0004 2046     		mov	r0, r4
 1279 0006 FFF7FEFF 		bl	uartObjectInit
 1280 000a 064B     		ldr	r3, .L75+4
 1281 000c 064A     		ldr	r2, .L75+8
 1282 000e A260     		str	r2, [r4, #8]
 1283 0010 0621     		movs	r1, #6
 1284 0012 03F11802 		add	r2, r3, #24
 1285 0016 E160     		str	r1, [r4, #12]
 1286 0018 2361     		str	r3, [r4, #16]
 1287 001a 6261     		str	r2, [r4, #20]
 1288 001c 10BD     		pop	{r4, pc}
 1289              	.L76:
 1290 001e 00BF     		.align	2
 1291              	.L75:
ARM GAS  /tmp/ccPWYpcT.s 			page 86


 1292 0020 00000000 		.word	.LANCHOR0
 1293 0024 9C000000 		.word	_stm32_dma_streams+156
 1294 0028 00100140 		.word	1073811456
 1295              		.size	uart_lld_init, .-uart_lld_init
 1296 002c AFF30080 		.section	.text.uart_lld_start,"ax",%progbits
 1297              		.align	2
 1298              		.p2align 4,,15
 1299              		.global	uart_lld_start
 1300              		.thumb
 1301              		.thumb_func
 1302              		.type	uart_lld_start, %function
 1303              	uart_lld_start:
 1304              		@ args = 0, pretend = 0, frame = 0
 1305              		@ frame_needed = 0, uses_anonymous_args = 0
 1306 0000 2DE9F843 		push	{r3, r4, r5, r6, r7, r8, r9, lr}
 1307 0004 0378     		ldrb	r3, [r0]	@ zero_extendqisi2
 1308 0006 012B     		cmp	r3, #1
 1309 0008 0446     		mov	r4, r0
 1310 000a 4AD0     		beq	.L78
 1311 000c 8568     		ldr	r5, [r0, #8]
 1312              	.L79:
 1313 000e 0023     		movs	r3, #0
 1314 0010 A370     		strb	r3, [r4, #2]
 1315 0012 6370     		strb	r3, [r4, #1]
 1316 0014 2046     		mov	r0, r4
 1317 0016 FFF7FEFF 		bl	usart_stop
 1318 001a A368     		ldr	r3, [r4, #8]
 1319 001c 3E4A     		ldr	r2, .L91
 1320 001e 9342     		cmp	r3, r2
 1321 0020 54D0     		beq	.L82
 1322 0022 02F58062 		add	r2, r2, #1024
 1323 0026 9342     		cmp	r3, r2
 1324 0028 50D0     		beq	.L82
 1325 002a 6368     		ldr	r3, [r4, #4]
 1326 002c 3B49     		ldr	r1, .L91+4
 1327 002e 5A69     		ldr	r2, [r3, #20]
 1328 0030 B1FBF2F2 		udiv	r2, r1, r2
 1329 0034 AA60     		str	r2, [r5, #8]
 1330              	.L84:
 1331 0036 2169     		ldr	r1, [r4, #16]
 1332 0038 DA68     		ldr	r2, [r3, #12]
 1333 003a D3F80490 		ldr	r9, [r3, #4]
 1334 003e B3F81880 		ldrh	r8, [r3, #24]
 1335 0042 5F8B     		ldrh	r7, [r3, #26]
 1336 0044 9E8B     		ldrh	r6, [r3, #28]
 1337 0046 0B68     		ldr	r3, [r1]
 1338 0048 2968     		ldr	r1, [r5]
 1339 004a 6968     		ldr	r1, [r5, #4]
 1340 004c 42F24C10 		movw	r0, #8524
 1341 0050 42F20C11 		movw	r1, #8460
 1342 0054 B9F1000F 		cmp	r9, #0
 1343 0058 08BF     		it	eq
 1344 005a 0846     		moveq	r0, r1
 1345 005c 002A     		cmp	r2, #0
 1346 005e E268     		ldr	r2, [r4, #12]
 1347 0060 14BF     		ite	ne
 1348 0062 4FF48871 		movne	r1, #272
ARM GAS  /tmp/ccPWYpcT.s 			page 87


 1349 0066 4FF48071 		moveq	r1, #256
 1350 006a 47F04007 		orr	r7, r7, #64
 1351 006e 46F0C106 		orr	r6, r6, #193
 1352 0072 40EA0800 		orr	r0, r0, r8
 1353 0076 BFB2     		uxth	r7, r7
 1354 0078 41EA0208 		orr	r8, r1, r2
 1355 007c 4FF0000C 		mov	ip, #0
 1356 0080 0121     		movs	r1, #1
 1357 0082 B6B2     		uxth	r6, r6
 1358 0084 1834     		adds	r4, r4, #24
 1359 0086 C5F800C0 		str	ip, [r5]
 1360 008a 2F61     		str	r7, [r5, #16]
 1361 008c 6E61     		str	r6, [r5, #20]
 1362 008e E860     		str	r0, [r5, #12]
 1363 0090 DC60     		str	r4, [r3, #12]
 1364 0092 5960     		str	r1, [r3, #4]
 1365 0094 C3F80080 		str	r8, [r3]
 1366 0098 1A68     		ldr	r2, [r3]
 1367 009a 0A43     		orrs	r2, r2, r1
 1368 009c 1A60     		str	r2, [r3]
 1369 009e BDE8F883 		pop	{r3, r4, r5, r6, r7, r8, r9, pc}
 1370              	.L78:
 1371 00a2 1F4B     		ldr	r3, .L91+8
 1372 00a4 9842     		cmp	r0, r3
 1373 00a6 1DD0     		beq	.L89
 1374              	.L80:
 1375 00a8 6368     		ldr	r3, [r4, #4]
 1376 00aa 1B8B     		ldrh	r3, [r3, #24]
 1377 00ac 03F4A053 		and	r3, r3, #5120
 1378 00b0 B3F5805F 		cmp	r3, #4096
 1379 00b4 11D0     		beq	.L90
 1380              	.L81:
 1381 00b6 2269     		ldr	r2, [r4, #16]
 1382 00b8 6369     		ldr	r3, [r4, #20]
 1383 00ba A568     		ldr	r5, [r4, #8]
 1384 00bc 1068     		ldr	r0, [r2]
 1385 00be 1968     		ldr	r1, [r3]
 1386 00c0 0022     		movs	r2, #0
 1387 00c2 2B1D     		adds	r3, r5, #4
 1388 00c4 8360     		str	r3, [r0, #8]
 1389 00c6 8B60     		str	r3, [r1, #8]
 1390 00c8 2283     		strh	r2, [r4, #24]	@ movhi
 1391 00ca A0E7     		b	.L79
 1392              	.L82:
 1393 00cc 6368     		ldr	r3, [r4, #4]
 1394 00ce 1549     		ldr	r1, .L91+12
 1395 00d0 5A69     		ldr	r2, [r3, #20]
 1396 00d2 B1FBF2F2 		udiv	r2, r1, r2
 1397 00d6 AA60     		str	r2, [r5, #8]
 1398 00d8 ADE7     		b	.L84
 1399              	.L90:
 1400 00da E368     		ldr	r3, [r4, #12]
 1401 00dc 43F42053 		orr	r3, r3, #10240
 1402 00e0 E360     		str	r3, [r4, #12]
 1403 00e2 E8E7     		b	.L81
 1404              	.L89:
 1405 00e4 104A     		ldr	r2, .L91+16
ARM GAS  /tmp/ccPWYpcT.s 			page 88


 1406 00e6 0069     		ldr	r0, [r0, #16]
 1407 00e8 0C21     		movs	r1, #12
 1408 00ea 2346     		mov	r3, r4
 1409 00ec FFF7FEFF 		bl	dmaStreamAllocate
 1410 00f0 0E4A     		ldr	r2, .L91+20
 1411 00f2 6069     		ldr	r0, [r4, #20]
 1412 00f4 0C21     		movs	r1, #12
 1413 00f6 2346     		mov	r3, r4
 1414 00f8 FFF7FEFF 		bl	dmaStreamAllocate
 1415 00fc 0C4B     		ldr	r3, .L91+24
 1416 00fe 5A6C     		ldr	r2, [r3, #68]
 1417 0100 42F01002 		orr	r2, r2, #16
 1418 0104 5A64     		str	r2, [r3, #68]
 1419 0106 2520     		movs	r0, #37
 1420 0108 0C21     		movs	r1, #12
 1421 010a FFF7FEFF 		bl	nvicEnableVector
 1422 010e E368     		ldr	r3, [r4, #12]
 1423 0110 43F00063 		orr	r3, r3, #134217728
 1424 0114 E360     		str	r3, [r4, #12]
 1425 0116 C7E7     		b	.L80
 1426              	.L92:
 1427              		.align	2
 1428              	.L91:
 1429 0118 00100140 		.word	1073811456
 1430 011c 80DE8002 		.word	42000000
 1431 0120 00000000 		.word	.LANCHOR0
 1432 0124 00BD0105 		.word	84000000
 1433 0128 00000000 		.word	uart_lld_serve_rx_end_irq
 1434 012c 00000000 		.word	uart_lld_serve_tx_end_irq
 1435 0130 00380240 		.word	1073887232
 1436              		.size	uart_lld_start, .-uart_lld_start
 1437 0134 AFF30080 		.section	.text.uart_lld_stop,"ax",%progbits
 1437      AFF30080 
 1437      AFF30080 
 1438              		.align	2
 1439              		.p2align 4,,15
 1440              		.global	uart_lld_stop
 1441              		.thumb
 1442              		.thumb_func
 1443              		.type	uart_lld_stop, %function
 1444              	uart_lld_stop:
 1445              		@ args = 0, pretend = 0, frame = 0
 1446              		@ frame_needed = 0, uses_anonymous_args = 0
 1447 0000 0378     		ldrb	r3, [r0]	@ zero_extendqisi2
 1448 0002 022B     		cmp	r3, #2
 1449 0004 10B5     		push	{r4, lr}
 1450 0006 0446     		mov	r4, r0
 1451 0008 00D0     		beq	.L97
 1452              	.L93:
 1453 000a 10BD     		pop	{r4, pc}
 1454              	.L97:
 1455 000c FFF7FEFF 		bl	usart_stop
 1456 0010 2069     		ldr	r0, [r4, #16]
 1457 0012 FFF7FEFF 		bl	dmaStreamRelease
 1458 0016 6069     		ldr	r0, [r4, #20]
 1459 0018 FFF7FEFF 		bl	dmaStreamRelease
 1460 001c 054B     		ldr	r3, .L98
ARM GAS  /tmp/ccPWYpcT.s 			page 89


 1461 001e 9C42     		cmp	r4, r3
 1462 0020 F3D1     		bne	.L93
 1463 0022 2520     		movs	r0, #37
 1464 0024 FFF7FEFF 		bl	nvicDisableVector
 1465 0028 034B     		ldr	r3, .L98+4
 1466 002a 5A6C     		ldr	r2, [r3, #68]
 1467 002c 22F01002 		bic	r2, r2, #16
 1468 0030 5A64     		str	r2, [r3, #68]
 1469 0032 EAE7     		b	.L93
 1470              	.L99:
 1471              		.align	2
 1472              	.L98:
 1473 0034 00000000 		.word	.LANCHOR0
 1474 0038 00380240 		.word	1073887232
 1475              		.size	uart_lld_stop, .-uart_lld_stop
 1476 003c AFF30080 		.section	.text.uart_lld_start_send,"ax",%progbits
 1477              		.align	2
 1478              		.p2align 4,,15
 1479              		.global	uart_lld_start_send
 1480              		.thumb
 1481              		.thumb_func
 1482              		.type	uart_lld_start_send, %function
 1483              	uart_lld_start_send:
 1484              		@ args = 0, pretend = 0, frame = 0
 1485              		@ frame_needed = 0, uses_anonymous_args = 0
 1486              		@ link register save eliminated.
 1487 0000 4369     		ldr	r3, [r0, #20]
 1488 0002 C068     		ldr	r0, [r0, #12]
 1489 0004 1B68     		ldr	r3, [r3]
 1490 0006 40F48A60 		orr	r0, r0, #1104
 1491 000a DA60     		str	r2, [r3, #12]
 1492 000c 5960     		str	r1, [r3, #4]
 1493 000e 1860     		str	r0, [r3]
 1494 0010 1A68     		ldr	r2, [r3]
 1495 0012 42F00102 		orr	r2, r2, #1
 1496 0016 1A60     		str	r2, [r3]
 1497 0018 7047     		bx	lr
 1498              		.size	uart_lld_start_send, .-uart_lld_start_send
 1499 001a 00BFAFF3 		.section	.text.uart_lld_stop_send,"ax",%progbits
 1499      0080
 1500              		.align	2
 1501              		.p2align 4,,15
 1502              		.global	uart_lld_stop_send
 1503              		.thumb
 1504              		.thumb_func
 1505              		.type	uart_lld_stop_send, %function
 1506              	uart_lld_stop_send:
 1507              		@ args = 0, pretend = 0, frame = 0
 1508              		@ frame_needed = 0, uses_anonymous_args = 0
 1509              		@ link register save eliminated.
 1510 0000 4169     		ldr	r1, [r0, #20]
 1511 0002 0A68     		ldr	r2, [r1]
 1512 0004 1368     		ldr	r3, [r2]
 1513 0006 23F01F03 		bic	r3, r3, #31
 1514 000a 1360     		str	r3, [r2]
 1515              	.L103:
 1516 000c 1368     		ldr	r3, [r2]
ARM GAS  /tmp/ccPWYpcT.s 			page 90


 1517 000e DB07     		lsls	r3, r3, #31
 1518 0010 FCD4     		bmi	.L103
 1519 0012 087A     		ldrb	r0, [r1, #8]	@ zero_extendqisi2
 1520 0014 4B68     		ldr	r3, [r1, #4]
 1521 0016 3D21     		movs	r1, #61
 1522 0018 8140     		lsls	r1, r1, r0
 1523 001a 1960     		str	r1, [r3]
 1524 001c 5068     		ldr	r0, [r2, #4]
 1525 001e 7047     		bx	lr
 1526              		.size	uart_lld_stop_send, .-uart_lld_stop_send
 1527              		.section	.text.uart_lld_start_receive,"ax",%progbits
 1528              		.align	2
 1529              		.p2align 4,,15
 1530              		.global	uart_lld_start_receive
 1531              		.thumb
 1532              		.thumb_func
 1533              		.type	uart_lld_start_receive, %function
 1534              	uart_lld_start_receive:
 1535              		@ args = 0, pretend = 0, frame = 0
 1536              		@ frame_needed = 0, uses_anonymous_args = 0
 1537              		@ link register save eliminated.
 1538 0000 70B4     		push	{r4, r5, r6}
 1539 0002 0569     		ldr	r5, [r0, #16]
 1540 0004 2C68     		ldr	r4, [r5]
 1541 0006 2368     		ldr	r3, [r4]
 1542 0008 23F01F03 		bic	r3, r3, #31
 1543 000c 2360     		str	r3, [r4]
 1544              	.L106:
 1545 000e 2368     		ldr	r3, [r4]
 1546 0010 DB07     		lsls	r3, r3, #31
 1547 0012 FCD4     		bmi	.L106
 1548 0014 2E7A     		ldrb	r6, [r5, #8]	@ zero_extendqisi2
 1549 0016 6B68     		ldr	r3, [r5, #4]
 1550 0018 3D25     		movs	r5, #61
 1551 001a B540     		lsls	r5, r5, r6
 1552 001c 1D60     		str	r5, [r3]
 1553 001e C368     		ldr	r3, [r0, #12]
 1554 0020 E260     		str	r2, [r4, #12]
 1555 0022 43F48263 		orr	r3, r3, #1040
 1556 0026 6160     		str	r1, [r4, #4]
 1557 0028 2360     		str	r3, [r4]
 1558 002a 2368     		ldr	r3, [r4]
 1559 002c 43F00103 		orr	r3, r3, #1
 1560 0030 2360     		str	r3, [r4]
 1561 0032 70BC     		pop	{r4, r5, r6}
 1562 0034 7047     		bx	lr
 1563              		.size	uart_lld_start_receive, .-uart_lld_start_receive
 1564 0036 00BFAFF3 		.section	.text.uart_lld_stop_receive,"ax",%progbits
 1564      0080AFF3 
 1564      0080
 1565              		.align	2
 1566              		.p2align 4,,15
 1567              		.global	uart_lld_stop_receive
 1568              		.thumb
 1569              		.thumb_func
 1570              		.type	uart_lld_stop_receive, %function
 1571              	uart_lld_stop_receive:
ARM GAS  /tmp/ccPWYpcT.s 			page 91


 1572              		@ args = 0, pretend = 0, frame = 0
 1573              		@ frame_needed = 0, uses_anonymous_args = 0
 1574              		@ link register save eliminated.
 1575 0000 0146     		mov	r1, r0
 1576 0002 0069     		ldr	r0, [r0, #16]
 1577 0004 0268     		ldr	r2, [r0]
 1578 0006 1368     		ldr	r3, [r2]
 1579 0008 23F01F03 		bic	r3, r3, #31
 1580 000c 30B4     		push	{r4, r5}
 1581 000e 1360     		str	r3, [r2]
 1582              	.L109:
 1583 0010 1368     		ldr	r3, [r2]
 1584 0012 DB07     		lsls	r3, r3, #31
 1585 0014 FCD4     		bmi	.L109
 1586 0016 4B68     		ldr	r3, [r1, #4]
 1587 0018 057A     		ldrb	r5, [r0, #8]	@ zero_extendqisi2
 1588 001a DC68     		ldr	r4, [r3, #12]
 1589 001c 4068     		ldr	r0, [r0, #4]
 1590 001e 3D23     		movs	r3, #61
 1591 0020 AB40     		lsls	r3, r3, r5
 1592 0022 0360     		str	r3, [r0]
 1593 0024 CB68     		ldr	r3, [r1, #12]
 1594 0026 5068     		ldr	r0, [r2, #4]
 1595 0028 002C     		cmp	r4, #0
 1596 002a 14BF     		ite	ne
 1597 002c 4FF48874 		movne	r4, #272
 1598 0030 4FF48074 		moveq	r4, #256
 1599 0034 2343     		orrs	r3, r3, r4
 1600 0036 1831     		adds	r1, r1, #24
 1601 0038 0124     		movs	r4, #1
 1602 003a D160     		str	r1, [r2, #12]
 1603 003c 5460     		str	r4, [r2, #4]
 1604 003e 1360     		str	r3, [r2]
 1605 0040 1368     		ldr	r3, [r2]
 1606 0042 2343     		orrs	r3, r3, r4
 1607 0044 1360     		str	r3, [r2]
 1608 0046 30BC     		pop	{r4, r5}
 1609 0048 7047     		bx	lr
 1610              		.size	uart_lld_stop_receive, .-uart_lld_stop_receive
 1611              		.global	UARTD1
 1612 004a 00BFAFF3 		.section	.bss.UARTD1,"aw",%nobits
 1612      0080
 1613              		.align	2
 1614              		.set	.LANCHOR0,. + 0
 1615              		.type	UARTD1, %object
 1616              		.size	UARTD1, 28
 1617              	UARTD1:
 1618 0000 00000000 		.space	28
 1618      00000000 
 1618      00000000 
 1618      00000000 
 1618      00000000 
 1619              		.section	.rodata.str1.4,"aMS",%progbits,1
 1620              		.align	2
 1621              	.LC0:
 1622 0000 444D4120 		.ascii	"DMA failure\000"
 1622      6661696C 
ARM GAS  /tmp/ccPWYpcT.s 			page 92


 1622      75726500 
 1623              		.comm	__gnu_lto_v1,1,1
 1624              		.ident	"GCC: (GNU Tools for ARM Embedded Processors) 4.8.4 20140526 (release) [ARM/embedded-4_8-br
ARM GAS  /tmp/ccPWYpcT.s 			page 93


DEFINED SYMBOLS
                            *ABS*:0000000000000000 uart_lld.c
     /tmp/ccPWYpcT.s:1027   .text.usart_stop:0000000000000000 $t
     /tmp/ccPWYpcT.s:1032   .text.usart_stop:0000000000000000 usart_stop
     /tmp/ccPWYpcT.s:1073   .text.uart_lld_serve_tx_end_irq:0000000000000000 $t
     /tmp/ccPWYpcT.s:1078   .text.uart_lld_serve_tx_end_irq:0000000000000000 uart_lld_serve_tx_end_irq
     /tmp/ccPWYpcT.s:1122   .text.uart_lld_serve_tx_end_irq:000000000000004c $d
     /tmp/ccPWYpcT.s:1125   .text.uart_lld_serve_rx_end_irq:0000000000000000 $t
     /tmp/ccPWYpcT.s:1130   .text.uart_lld_serve_rx_end_irq:0000000000000000 uart_lld_serve_rx_end_irq
     /tmp/ccPWYpcT.s:1204   .text.uart_lld_serve_rx_end_irq:000000000000008c $d
     /tmp/ccPWYpcT.s:1207   .text.VectorD4:0000000000000000 $t
     /tmp/ccPWYpcT.s:1213   .text.VectorD4:0000000000000000 VectorD4
     /tmp/ccPWYpcT.s:1264   .text.VectorD4:000000000000006c $d
     /tmp/ccPWYpcT.s:1267   .text.uart_lld_init:0000000000000000 $t
     /tmp/ccPWYpcT.s:1273   .text.uart_lld_init:0000000000000000 uart_lld_init
     /tmp/ccPWYpcT.s:1292   .text.uart_lld_init:0000000000000020 $d
     /tmp/ccPWYpcT.s:1297   .text.uart_lld_start:0000000000000000 $t
     /tmp/ccPWYpcT.s:1303   .text.uart_lld_start:0000000000000000 uart_lld_start
     /tmp/ccPWYpcT.s:1429   .text.uart_lld_start:0000000000000118 $d
     /tmp/ccPWYpcT.s:1438   .text.uart_lld_stop:0000000000000000 $t
     /tmp/ccPWYpcT.s:1444   .text.uart_lld_stop:0000000000000000 uart_lld_stop
     /tmp/ccPWYpcT.s:1473   .text.uart_lld_stop:0000000000000034 $d
     /tmp/ccPWYpcT.s:1477   .text.uart_lld_start_send:0000000000000000 $t
     /tmp/ccPWYpcT.s:1483   .text.uart_lld_start_send:0000000000000000 uart_lld_start_send
     /tmp/ccPWYpcT.s:1500   .text.uart_lld_stop_send:0000000000000000 $t
     /tmp/ccPWYpcT.s:1506   .text.uart_lld_stop_send:0000000000000000 uart_lld_stop_send
     /tmp/ccPWYpcT.s:1528   .text.uart_lld_start_receive:0000000000000000 $t
     /tmp/ccPWYpcT.s:1534   .text.uart_lld_start_receive:0000000000000000 uart_lld_start_receive
     /tmp/ccPWYpcT.s:1565   .text.uart_lld_stop_receive:0000000000000000 $t
     /tmp/ccPWYpcT.s:1571   .text.uart_lld_stop_receive:0000000000000000 uart_lld_stop_receive
     /tmp/ccPWYpcT.s:1617   .bss.UARTD1:0000000000000000 UARTD1
     /tmp/ccPWYpcT.s:1613   .bss.UARTD1:0000000000000000 $d
     /tmp/ccPWYpcT.s:1620   .rodata.str1.4:0000000000000000 $d
                            *COM*:0000000000000001 __gnu_lto_v1
     /tmp/ccPWYpcT.s:1296   .text.uart_lld_init:000000000000002c $t
     /tmp/ccPWYpcT.s:1437   .text.uart_lld_start:0000000000000134 $t
     /tmp/ccPWYpcT.s:1476   .text.uart_lld_stop:000000000000003c $t

UNDEFINED SYMBOLS
chSysHalt
_port_irq_epilogue
uartObjectInit
_stm32_dma_streams
dmaStreamAllocate
nvicEnableVector
dmaStreamRelease
nvicDisableVector
