ARM GAS  /tmp/ccymQx5f.s 			page 1


   1              		.syntax unified
   2              		.cpu cortex-m4
   3              		.eabi_attribute 27, 3
   4              		.eabi_attribute 28, 1
   5              		.fpu fpv4-sp-d16
   6              		.eabi_attribute 20, 1
   7              		.eabi_attribute 21, 1
   8              		.eabi_attribute 23, 3
   9              		.eabi_attribute 24, 1
  10              		.eabi_attribute 25, 1
  11              		.eabi_attribute 26, 1
  12              		.eabi_attribute 30, 2
  13              		.eabi_attribute 34, 1
  14              		.eabi_attribute 18, 4
  15              		.thumb
  16              		.file	"uart.c"
  17              		.section	.gnu.lto_.jmpfuncs.b192c82092c7bbb2,"",%progbits
  18 0000 789C758C 		.ascii	"x\234u\214\013\012\2000\014C\223V\355\374\036ww\361"
  18      0B0A8030 
  18      0C439356 
  18      EDFC1E77 
  18      77F1
  19 0012 B666630E 		.ascii	"\266fc\016A-\245\011!\257\006\303\327\234M\017\220."
  19      412DA509 
  19      21AF06C3 
  19      D79C4D0F 
  19      902E
  20 0024 CD94B99D 		.ascii	"\315\224\271\235\020\347\340\004F\352L\241\\\313\\\305"
  20      10E7E004 
  20      46EA4CA1 
  20      5CCB5CC5 
  21 0034 2411DEBA 		.ascii	"$\021\336\272\317\234H\245?\367G\313\233\\\177\310\255"
  21      CF9C48A5 
  21      3FF747CB 
  21      9B5C7FC8 
  21      AD
  22 0045 907B2771 		.ascii	"\220{'q\001jY\007\364"
  22      016A5907 
  22      F4
  23              		.text
  24              		.section	.gnu.lto_.inline.b192c82092c7bbb2,"",%progbits
  25 0000 789C8590 		.ascii	"x\234\205\220=\022\2020\020F\277\015\201\204\000\032"
  25      3D128230 
  25      1046BF0D 
  25      8184001A 
  26 0010 BD002556 		.ascii	"\275\000%V\224\224\266v\324\336@\275\011%G\340(\216"
  26      9494B676 
  26      D4DE40BD 
  26      092547E0 
  26      288E
  27 0022 17B0E508 		.ascii	"\027\260\345\010vr\004\227\340\017\343\010&Ev\366%_"
  27      76720497 
  27      E00FE308 
  27      264576F6 
  27      255F
  28 0034 5E2220F0 		.ascii	"^\" \360k\\hX\027\200Z\022\004\335\024T\225\271\315"
  28      6B5C6858 
ARM GAS  /tmp/ccymQx5f.s 			page 2


  28      17805A12 
  28      04DD1454 
  28      95B9CD
  29 0047 5E0C505D 		.ascii	"^\014P]\322$\021\2201\271\340\240I\035 \323S\250\200"
  29      D2241190 
  29      31B9E0A0 
  29      491D20D3 
  29      53A880
  30 005a DBB24961 		.ascii	"\333\262Ia\316[\327\227\010W\334\012\272\034\272\313"
  30      CE5BD797 
  30      0857DC0A 
  30      BA1CBACB 
  31 006a 5D4B442E 		.ascii	"]KD.\303\207Y3Qm\201\260-\306$\030\210_e\357{e\302\351"
  31      C3875933 
  31      516D81B0 
  31      2DC62418 
  31      885F65EF 
  32 0082 75D94F05 		.ascii	"u\331O\005m\277\254FT#6L\315}\007}\335\214\235C\204"
  32      6DBFAC46 
  32      5423364C 
  32      CD7D077D 
  32      DD8C9D43 
  33 0097 8A3C1CF6 		.ascii	"\212<\034\366t\"\020<\215\343\247\344\317\360\264|\275"
  33      7422103C 
  33      8DE3A7E4 
  33      CFF0B47C 
  33      BD
  34 00a8 87B3AD00 		.ascii	"\207\263\255\000\337o\237\347e\037`f\265\242Y\255xR"
  34      DF6F9FE7 
  34      651F6066 
  34      B5A259AD 
  34      7852
  35 00ba 2B196911 		.ascii	"+\031i\021\273\330Ak({-\373G\013\017\017\0223\375"
  35      BBD8416B 
  35      287B2DFB 
  35      470B0F0F 
  35      1233FD
  36              		.text
  37              		.section	.gnu.lto_.pureconst.b192c82092c7bbb2,"",%progbits
  38 0000 789C6362 		.ascii	"x\234cb`b\220e\200\000>\006)F)&\011f)\026+V+6+v)\016"
  38      60629065 
  38      80003E06 
  38      29462926 
  38      09662916 
  39 001c 2B4E492E 		.ascii	"+NI.+n)\036+^I\000&\316\002\263"
  39      2B6E291E 
  39      2B5E4900 
  39      26CE02B3 
  40              		.text
  41              		.section	.gnu.lto_uartStopSendI.part.0.b192c82092c7bbb2,"",%progbits
  42 0000 789C5D50 		.ascii	"x\234]P\261J\003A\020\235\267{\347ig\341\007\004\333"
  42      B14A0341 
  42      109DB77B 
  42      E76967E1 
  42      0704DB
  43 0013 800B4AFE 		.ascii	"\200\013J\376$\001-/\227`\016M\016.\211 \026\331\310"
  43      24012D2F 
ARM GAS  /tmp/ccymQx5f.s 			page 3


  43      97600E4D 
  43      0E2E8920 
  43      16D9C8
  44 0026 8196C14E 		.ascii	"\201\226\301Nm\014jcckaak\241bg\272\313/\304J\021\316"
  44      6D0C6A63 
  44      636B6161 
  44      6BA16267 
  44      BACB2FC4 
  45 003d 998D163A 		.ascii	"\231\215\026:\260\373f\207yo\336\254\"E\377\243\314"
  45      B0FB6687 
  45      796FDEAC 
  45      2245FFA3 
  45      CC
  46 004e A702A20D 		.ascii	"\247\002\242\015F\370\004o\364\314\211\007\345PA\013"
  46      46F8046F 
  46      F4CC8907 
  46      E550410B 
  47 005e 0E173520 		.ascii	"\016\0275 \011\201\006\236\322\030lA\310X\245\261\265"
  47      0981069E 
  47      D2186C41 
  47      C858A5B1 
  47      B5
  48 006f 27F9F56C 		.ascii	"'\371\365l\212S\373\220]\330\257\242\000b\360\240uP"
  48      8A53FB90 
  48      5DD8AFA2 
  48      0062F0A0 
  48      7550
  49 0081 04DAE407 		.ascii	"\004\332\344\007J\016\224\367w\362\255\262yQL\336\227"
  49      4A0E94F7 
  49      77F2ADB2 
  49      79514CDE 
  49      97
  50 0092 02A02D8C 		.ascii	"\002\240-\214\020c\026\324\024;m\2372kG%\022\025\216"
  50      106316D4 
  50      143B6D9F 
  50      326B4725 
  50      12158E
  51 00a5 2ADFE2A0 		.ascii	"*\337\342\240\012OP\327\240\034\276P\226?\036\005?\335"
  51      0A4F50D7 
  51      A01CBE50 
  51      963F1E05 
  51      3FDD
  52 00b7 730962A9 		.ascii	"s\011b\251K^\206c\033\352\200>\355\261]\216\241#8)."
  52      4B5E8663 
  52      1BEA803E 
  52      EDB15D8E 
  52      A1233829 
  53 00cc B21D76F3 		.ascii	"\262\035v\363D\207wo\263\251\012q\305\335e\272\261\034"
  53      4487776F 
  53      B3A90A71 
  53      C5DD65BA 
  53      B11C
  54 00de 9518FE39 		.ascii	"\225\030\3769\235\015\255P\026\270U\274\007\216W\237"
  54      9D0DAD50 
  54      16B855BC 
  54      078E579F 
  55 00ee D3DD36FE 		.ascii	"\323\3356\376\357\0325hg\344\225\177I\244\265\024'\244"
ARM GAS  /tmp/ccymQx5f.s 			page 4


  55      EF1A3568 
  55      67E4957F 
  55      49A4B514 
  55      27A4
  56 0100 79B2BAFF 		.ascii	"y\262\272\377X\021\307\220\006\371zcZI\273i\242\244"
  56      5811C790 
  56      06F97A63 
  56      5A49BB69 
  56      A2A4
  57 0112 B16F1ACD 		.ascii	"\261o\032\315=\023\265\342z\234tM/\355wv\014'\255p\327"
  57      3D13B5E2 
  57      7A9C744D 
  57      2FED7776 
  57      0C27AD70 
  58 0127 74D3C8F4 		.ascii	"t\323\310\364\303\264\267\026\021:\337\266\273\\k"
  58      C3B4B716 
  58      113ADFB6 
  58      BB5C6B
  59              		.text
  60              		.section	.gnu.lto_uartStopReceiveI.part.1.b192c82092c7bbb2,"",%progbits
  61 0000 789C5D50 		.ascii	"x\234]P\261J\003A\020\235\267{\347\211\225\215}\260"
  61      B14A0341 
  61      109DB77B 
  61      E789958D 
  61      7DB0
  62 0012 0DB8A0E4 		.ascii	"\015\270\240\344O\022\320\362r\011\346\320\344\340\222"
  62      4F12D0F2 
  62      7209E6D0 
  62      E4E092
  63 0021 0862918D 		.ascii	"\010b\221\215\\!\330\004\273hcP\033\033\013\033\013"
  63      5C21D804 
  63      BB686350 
  63      1B1B0B1B 
  63      0B
  64 0032 0B7F40C5 		.ascii	"\013\177@\305\316tG\212\370\017\"\2343\033-t`\367\315"
  64      CE74478A 
  64      F80F229C 
  64      331B2D74 
  64      60F7CD
  65 0045 0EF3DEBC 		.ascii	"\016\363\336\274YE\212\376G\231O\005D[\214\360\011\336"
  65      59458AFE 
  65      47994F05 
  65      445B8CF0 
  65      09DE
  66 0057 E885130F 		.ascii	"\350\205\023\017\312\241\202\026\034.k@\022\002\015"
  66      CAA18216 
  66      1C2E6B40 
  66      12020D
  67 0066 3CA531D8 		.ascii	"<\2451\330\201\220\261N\023k\317\362\233\371\014c\373"
  67      8190B14E 
  67      136BCFF2 
  67      9BF90C63 
  67      FB
  68 0077 945DDAAF 		.ascii	"\224]\332\257\242\000b\360\240MP\004\332\346\007J\016"
  68      A20062F0 
  68      A04D5004 
  68      DAE6074A 
ARM GAS  /tmp/ccymQx5f.s 			page 5


  68      0E
  69 0088 94F777F2 		.ascii	"\224\367w\362\235\262yQL?V\002\240-\214\020\023\026"
  69      9DB27951 
  69      4C3F5602 
  69      A02D8C10 
  69      1316
  70 009a D4143B6D 		.ascii	"\324\024;m\2372kG%\022\025\216*\337\342\240\012OP\327"
  70      9F326B47 
  70      2512158E 
  70      2ADFE2A0 
  70      0A4F50D7 
  71 00ae A01CBE52 		.ascii	"\240\034\276R\226\217O\203\237\356\205\004\261\324\025"
  71      968F4F83 
  71      9FEE8504 
  71      B1D415
  72 00bd 2FC3B10B 		.ascii	"/\303\261\013uD\237\366\304\256\306\320\021\234\024"
  72      75449FF6 
  72      C4AEC6D0 
  72      119C14
  73 00cc 17D90EBB 		.ascii	"\027\331\016\273y\246\343\207\367\371L\205\270\346\356"
  73      79A6E387 
  73      F7F94C85 
  73      B8E6EE
  74 00db 32DD5A8E 		.ascii	"2\335Z\216J\014\377\202\316\207V(K\334*\336\003\307"
  74      4A0CFF82 
  74      CE875628 
  74      4BDC2ADE 
  74      03C7
  75 00ed AB2FE86E 		.ascii	"\253/\350n\033\377w\215\032\2643\362\306\277$\322Z\212"
  75      1BFF778D 
  75      1AB433F2 
  75      C6BF24D2 
  75      5A8A
  76 00ff 53D23C59 		.ascii	"S\322<Y=\336\257\211cH\203|\2751\255\244\3354Q\3228"
  76      3DDEAF89 
  76      6348837C 
  76      BD31ADA4 
  76      DD3451D2 
  77 0114 348DE681 		.ascii	"4\215\346\201\211Zq=N\272\246\227\366;{\206\223V\270"
  77      895A713D 
  77      4EBAA697 
  77      F63B7B86 
  77      9356B8
  78 0127 6FBA6964 		.ascii	"o\272id\372a\332\333\210\010\235o]\243[\331"
  78      FA61DADB 
  78      88089D6F 
  78      5DA35BD9 
  79              		.text
  80              		.section	.gnu.lto_uartInit.b192c82092c7bbb2,"",%progbits
  81 0000 789C6362 		.ascii	"x\234cb`b@\007\222@\\\011\304\206@\314\310\314\300\310"
  81      60624007 
  81      92405C09 
  81      C48640CC 
  81      C8CCC0C8 
  82 0014 34E11C03 		.ascii	"4\341\034\003C#\007\023##\210\301\300\310P\317\304X"
  82      43230713 
  82      232388C1 
ARM GAS  /tmp/ccymQx5f.s 			page 6


  82      C0C850CF 
  82      C458
  83 0026 1FC90856 		.ascii	"\037\311\010V\273\236\351\300\203\377\377\327\375\330"
  83      BB9EE9C0 
  83      83FFFFD7 
  83      FDD8
  84 0034 FAB01EA8 		.ascii	"\372\260\036\250\224\201\201\225\241\245\241a\202\002"
  84      94818195 
  84      A1A5A161 
  84      8202
  85 0042 03433258 		.ascii	"\003C2X>\004H\2024\20522\201h\346\363\014\315\017\376"
  85      3E044882 
  85      34853232 
  85      8168E6F3 
  85      0CCD0FFE 
  86 0056 0524322E 		.ascii	"\005$2.dd\005\312V3\374j\350h\020\310d\004\252\206\030"
  86      646405CA 
  86      5633FC6A 
  86      E86810C8 
  86      6404AA86 
  87 006b 9709A22F 		.ascii	"\227\011\242/24>\370\317\004S\004\001!@\011\240\001"
  87      32343EF8 
  87      CF045304 
  87      01214009 
  87      A001
  88 007d 20C7EAEB 		.ascii	" \307\352\353g\344\347\246\352'\347\247T\352\247\244"
  88      67E4E7A6 
  88      EA27E7A7 
  88      54EAA7A4 
  89 008d 96E92767 		.ascii	"\226\351'gd&e\346\027\353\227\024\225\346e\353\003\031"
  89      642665E6 
  89      17EB9714 
  89      95E665EB 
  89      0319
  90 009f 198939FA 		.ascii	"\031\2119\372\305E\311\372\245\211E%z\311\014\000\343"
  90      C545C9FA 
  90      A5894525 
  90      7AC90C00 
  90      E3
  91 00b0 B0337B   		.ascii	"\2603{"
  92              		.text
  93              		.section	.gnu.lto_uartObjectInit.b192c82092c7bbb2,"",%progbits
  94 0000 789C6DD0 		.ascii	"x\234m\320\261J\003A\020\006\340\377\237\315\241\257"
  94      B14A0341 
  94      1006E0FF 
  94      9FCDA1AF 
  95 0010 6027580A 		.ascii	"`'X\012\016y\026#hy\331\004\357\320\344\340\222\010"
  95      0E791623 
  95      6879D904 
  95      EFD0E4E0 
  95      9208
  96 0022 56B98858 		.ascii	"V\271\210X\247\224X\331\206\240\226)}\001E;\313T\372"
  96      A79458D9 
  96      86A09629 
  96      7D01453B 
  96      CB54FA
  97 0035 0A7671F7 		.ascii	"\012vq\367\316\\\241;\260;\263\303~\354\260\002\301"
ARM GAS  /tmp/ccymQx5f.s 			page 7


  97      CE5CA13B 
  97      B03BB3C3 
  97      7EECB002 
  97      C1
  98 0046 DFD871EB 		.ascii	"\337\330q\353\220@\323e\032P\246\257\300d[H_\200\030"
  98      9040D365 
  98      1A50A6AF 
  98      C0645B48 
  98      5F8018
  99 0059 0BC7272C 		.ascii	"\013\307',\357>\312\363j\275~x\272Y,8\223-a\257\354"
  99      EF3ECAF3 
  99      6ABD7E78 
  99      BA592C38 
  99      932D61AF 
 100 006e 47B82E8A 		.ascii	"G\270.\212\351.`\313c\313\355\336\036Q|6/\270Z~|\276"
 100      E92E60CB 
 100      63CBEDDE 
 100      1E517C36 
 100      2FB85A7E 
 101 0084 49CC7B46 		.ascii	"I\314{F\330\307\274p\321L\211;\314\230\222\247\224c"
 101      D8C7BC70 
 101      D14C893B 
 101      CC9892A7 
 101      9463
 102 0096 97ABD1DA 		.ascii	"\227\253\321\332\325K\360\035\370\332\353\357\2006a"
 102      D54BF01D 
 102      F8DAEBEF 
 102      803661
 103 00a5 CD5A1BFC 		.ascii	"\315Z\033\374\352\333\257\377\272\021\326R\353\306F"
 103      EADBAFFF 
 103      BA11D652 
 103      EBC646
 104 00b4 2F033A0A 		.ascii	"/\003:\012kS\353\310\027\357\230\254\346{\225\335D\313"
 104      6B53EBC8 
 104      17EF98AC 
 104      E67B95DD 
 104      44CB
 105 00c6 0DE8FEC4 		.ascii	"\015\350\376\304\013\325$\353u\325f\235K\355t/\324&"
 105      0BD524EB 
 105      75D5669D 
 105      4BED742F 
 105      D426
 106 00d8 693BCD06 		.ascii	"i;\315\006:\314G\3753uE\022\237\353 \267:\212\363\341"
 106      3ACC47FD 
 106      33754512 
 106      9FEB20B7 
 106      3A8AF3E1 
 107 00ec 81C50F37 		.ascii	"\201\305\0177j^\335"
 107      6A5EDD
 108              		.text
 109              		.section	.gnu.lto_uartStart.b192c82092c7bbb2,"",%progbits
 110 0000 789C8D50 		.ascii	"x\234\215P\261J\003A\020}\263\227h\320\306R\033\271"
 110      B14A0341 
 110      107DB397 
 110      68D0C652 
 110      1BB9
 111 0012 C6421457 		.ascii	"\306B\024W\377  \010\0266FA+\271l\216d1\227\223\273"
ARM GAS  /tmp/ccymQx5f.s 			page 8


 111      FF202008 
 111      16364641 
 111      2BB96C8E 
 111      64319793 
 112 0027 9C182C3C 		.ascii	"\234\030,<C@\013\021\013\013Q,\304\200`\241\226\202"
 112      43400B11 
 112      0B0B512C 
 112      C48060A1 
 112      9682
 113 0039 205636A2 		.ascii	" V6\242bga\021\260\263Rl\304Fo\357b\224 \350\300\356"
 113      62676111 
 113      B0B3526C 
 113      C4466FEF 
 113      629420E8 
 114 004f 0CCC9B79 		.ascii	"\014\314\233y\357\015\003Cst\005\257J\300z\220I\003"
 114      EF0D0343 
 114      737405AF 
 114      4AC07A90 
 114      4903
 115 0061 B18D1B60 		.ascii	"\261\215\033`9\301\210T\001\302\022\243\245i\012\261"
 115      39C18854 
 115      01C212A3 
 115      A5690AB1 
 116 0071 C7ECA2F6 		.ascii	"\307\354\242\366\361q\364vy\276F\273\254]#\213\020\013"
 116      F171F476 
 116      79BE46BB 
 116      AC5D238B 
 116      100B
 117 0083 3ED58DA3 		.ascii	">\325\215\243\342\373\033: B\354D\360\253\005\223\304"
 117      E2FB1B3A 
 117      2042EC44 
 117      F0AB0593 
 117      C4
 118 0094 54D66E50 		.ascii	"T\326nP~y\332|\354l\300\014\332\2438B\006\202\253)e"
 118      7E79DA7C 
 118      EC6CC00C 
 118      DAA33842 
 118      0682AB29 
 119 00a9 5A24AF1B 		.ascii	"Z$\257\033\025\332\365\267\2222\"\235\"I\244\253\252"
 119      15DAF5B7 
 119      9232229D 
 119      2249A4AB 
 119      AA
 120 00ba D15FA9F7 		.ascii	"\321_\251\367\353n\256Q\276z8Y\357\215V\366\341\320"
 120      EB6EAE51 
 120      BE7A3859 
 120      EF8D56F6 
 120      E1D0
 121 00cc 0F624892 		.ascii	"\017bH\222\266\203\355`8\226%M-\011\331\220\216\266"
 121      B683ED60 
 121      3896254D 
 121      2D09D990 
 121      8EB6
 122 00de 224B31E0 		.ascii	"\"K1\340\026\225\332\365~\333\227\226E\274\373\253~"
 122      1695DAF5 
 122      7EDB9796 
 122      45BCFBAB 
ARM GAS  /tmp/ccymQx5f.s 			page 9


 122      7E
 123 00ef 87A41641 		.ascii	"\207\244\026ATGi\222ZC\212\323\373\327\013\326L\221"
 123      54476992 
 123      5A438AD3 
 123      FBD70BD6 
 123      4C91
 124 0101 F89DE25B 		.ascii	"\370\235\342[yBi\374\217y\203\252\301\371C\263\370a"
 124      794269FC 
 124      8F7983AA 
 124      C1F943B3 
 124      F861
 125 0113 D6A003EA 		.ascii	"\326\240\003\352\216\024\337a\371\271|\026k\314\"\272"
 125      8E14DF61 
 125      F9B97C16 
 125      6BCC22BA 
 126 0123 33A9FB2A 		.ascii	"3\251\373*,\3479\3332\271\2603%\2361\347\271\310\311"
 126      2CE739DB 
 126      32B9B033 
 126      259E31E7 
 126      B9C8C9
 127 0136 B4B45D5E 		.ascii	"\264\264]^t\274\302,\017\212\234\221\347\256#\270g8"
 127      74BCC22C 
 127      0F8A9C91 
 127      E7AE23B8 
 127      6738
 128 0148 C50181E4 		.ascii	"\305\001\201\344_xs\241\310\207\307R\243).\013\"\357"
 128      5F7873A1 
 128      C887C752 
 128      A3292E0B 
 128      22EF
 129 015a 6514D631 		.ascii	"e\024\3261g\2045\342\025\304@\016\035c\251q=m\270\346"
 129      678435E2 
 129      15C4400E 
 129      1D63A971 
 129      3D6DB8E6 
 130 016e 9C23FBF5 		.ascii	"\234#\373\365\236A0\007\255\226i\331N\011\237\322T\212"
 130      9E413007 
 130      AD9669D9 
 130      4E099FD2 
 130      548A
 131 0180 09       		.ascii	"\011"
 132              		.text
 133              		.section	.gnu.lto_uartStop.b192c82092c7bbb2,"",%progbits
 134 0000 789C8D91 		.ascii	"x\234\215\221\317K\002A\024\307\337\233\325T\272x\254"
 134      CF4B0241 
 134      14C7DF9B 
 134      D554BA78 
 134      AC
 135 0011 8B78E954 		.ascii	"\213x\351T8\365\037\010A\320\301K\026\324)\326q\311"
 135      38F51F08 
 135      41D0C14B 
 135      16D429D6 
 135      71C9
 136 0023 21576375 		.ascii	"!Wcu#\011r\025\301N!\321A\212\250\240\010:\324\265\233"
 136      23097215 
 136      C14E21D1 
 136      418AA8A0 
ARM GAS  /tmp/ccymQx5f.s 			page 10


 136      083AD4B5 
 137 0038 1DBB643F 		.ascii	"\035\273d?\376\002\251[t\260[t\310fvm\013\023j`w\276"
 137      FE02A95B 
 137      74B05B74 
 137      C866766D 
 137      0B136A60 
 138 004e BBF3FDBC 		.ascii	"\273\363\375\274\367\346=\002\004z\327\260xZ\010\260"
 138      F7E63D02 
 138      047AD7B0 
 138      785A08B0 
 139 005e 25765400 		.ascii	"%vT\000I\255\011P\362\023D)\000\241H\260\270\200\266"
 139      49AD0950 
 139      F2134429 
 139      00A148B0 
 139      B880B6
 140 0071 F7825CB5 		.ascii	"\367\202\\\265:\235\363\207\352\311\013\036\220A\005"
 140      3A9DF387 
 140      EAC90B1E 
 140      904105
 141 0080 75FBBF17 		.ascii	"u\373\277\027*\226U\013\0030\373sV\274%;\207D\356J\023"
 141      2A96550B 
 141      0330FB73 
 141      56BC253B 
 141      8744EE4A 
 142 0095 CAAFCF3B 		.ascii	"\312\257\317;OC\256M\305#\364\202\035\034!\247\310\242"
 142      4F43AE4D 
 142      C523F482 
 142      1D1C21A7 
 142      C8A2
 143 00a7 14A7B210 		.ascii	"\024\247\262\020Tp\337\252G\271\223o\0369bX*\367\274"
 143      5470DFAA 
 143      47B9936F 
 143      1E396258 
 143      2AF7BC
 144 00ba DA3DEF5E 		.ascii	"\332=\357^\344\026*\355\355\306!~\205\\\207wk\323\012"
 144      E4162AED 
 144      EDC6217E 
 144      855C8777 
 144      6BD30A
 145 00cd 7254183A 		.ascii	"rT\030:1\226P\341\350\001\270\201\362\345\365\206\343"
 145      319650E1 
 145      E801B881 
 145      F2E5F586 
 145      E3
 146 00de 1B85334B 		.ascii	"\033\2053K\254\011\216\336=\330\025I\006\204K&\363\331"
 146      AC098EDE 
 146      3DD81549 
 146      06844B26 
 146      F3D9
 147 00f0 48C221ED 		.ascii	"H\302!\355\364^\251%\373\366qGzi\177\177\372\273x?t"
 147      F45EA925 
 147      FBF67147 
 147      7A697F7F 
 147      FABB783F 
 148 0105 E97AE737 		.ascii	"\351z\3477\035\350O\023\227\016H\361\237\356\251x,F"
 148      1DE84F13 
 148      970E48F1 
ARM GAS  /tmp/ccymQx5f.s 			page 11


 148      9FEEA978 
 148      2C46
 149 0117 67770B7E 		.ascii	"gw\013~tK\305S\0149W\271\207R\373\261\341qYp\006\205"
 149      744BC553 
 149      0C3957B9 
 149      8752FBB1 
 149      E1715970 
 150 012d 7240D24B 		.ascii	"r@\322Ki*\253k\224e\223\005\232\324V)K\361\004\317\346"
 150      692AAB6B 
 150      94659305 
 150      9AD45629 
 150      4BF104CF 
 151 0142 68DE3033 		.ascii	"h\33603\313T\210\224\232\2469\203QS5\362\021\006\321"
 151      CB548894 
 151      9AA63983 
 151      515335F2 
 151      1106D1
 152 0155 BFFCDA5A 		.ascii	"\277\374\332Z\236N\306\342\323q\3123,m&\245\327\320"
 152      9E4EC6E2 
 152      D371CA33 
 152      2C6D26A5 
 152      D7D0
 153 0167 16993E65 		.ascii	"\026\231>efX$\005\301X|&\234Ps\332\212\301\307\302#"
 153      66582405 
 153      C1587C26 
 153      9C5073DA 
 153      8AC1C7C2 
 154 017c E3400CF0 		.ascii	"\343@\014\360\351\232\2365\012\360\011\374Z\227)"
 154      E99A9E35 
 154      0AF009FC 
 154      5A9729
 155              		.text
 156              		.section	.gnu.lto_uartStartSend.b192c82092c7bbb2,"",%progbits
 157 0000 789C8D50 		.ascii	"x\234\215P1K\303P\020\276{I\254\340\322Q\227\322\245"
 157      314BC350 
 157      10BE7B49 
 157      ACE0D251 
 157      97D2A5
 158 0013 93D2A7FF 		.ascii	"\223\322\247\377\240 \010\016]\254\202N\222\276\206"
 158      A020080E 
 158      5DAC824E 
 158      92BE86
 159 0022 E661D348 		.ascii	"\346a\323H\322\024\213C\323RT\034\244\203CQ\034\004"
 159      D2148B43 
 159      D352541C 
 159      A4834351 
 159      1C04
 160 0034 4150A8E0 		.ascii	"AP\250\340 \035uq\263\322\241\273\350\346TW\227\372"
 160      201D7571 
 160      B3D2A1BB 
 160      E8E65457 
 160      97FA
 161 0046 5E528BB8 		.ascii	"^R\213\270\350\301\273;\270\357\276\357{G\200\300\357"
 161      E8C1BB3B 
 161      B8EFBEEF 
 161      7B4780C0 
 161      EF
ARM GAS  /tmp/ccymQx5f.s 			page 12


 162 0057 9811AF8C 		.ascii	"\230\021\257\214\000G\242\242\002H\232]\200\332$A\224"
 162      0047A2A2 
 162      02489A5D 
 162      80DA2441 
 162      94
 163 0068 0D205409 		.ascii	"\015 T\011V70\300\336\220\373\227\341\260}w\370\370"
 163      563730C0 
 163      DE90FB97 
 163      E1B07D77 
 163      F8F8
 164 007a 80EDC494 		.ascii	"\200\355\304\224\202\026\202*\022j\"Ij\015\032\276\337"
 164      8216822A 
 164      126A2249 
 164      6A0D1ABE 
 164      DF
 165 008b 8C03B060 		.ascii	"\214\003\260`aUd\311\262&\206\242*]\250\177\274\037"
 165      615564C9 
 165      B22686A2 
 165      2A5DA87F 
 165      BC1F
 166 009d BF4D8F61 		.ascii	"\277M\217a:\236\243\006\201\014\202\253H{J\3501\006"
 166      3A9EA306 
 166      810C82AB 
 166      487B4AE8 
 166      3106
 167 00af 0D3CF35B 		.ascii	"\015<\363[)\036*\257#G\214\313n<\337\037\315G_z\206"
 167      291E2AAF 
 167      23478CCB 
 167      6E3CDF1F 
 167      CD475F7A 
 168 00c4 BDC16DBF 		.ascii	"\275\301m\277\203\337\224\273\360\351\037\370Q\216\012"
 168      83DF94BB 
 168      F0E91FF8 
 168      518E0A
 169 00d3 C390238F 		.ascii	"\303\220#\217J\036\325<j\034U\200'\250wZ\327=\022\342"
 169      4A1ED53C 
 169      6A1C5580 
 169      27A8775A 
 169      D73D12E2 
 170 00e7 67E1CA17 		.ascii	"g\341\312\027\261\300Q;\205\023!6!\320R4\022\254fC\206"
 170      B1C0513B 
 170      85132136 
 170      21D05234 
 170      12AC6643 
 171 00fc C08626FB 		.ascii	"\300\206&\373\377\374D\307\013q\320\3009\374p\256\343"
 171      FFFC44C7 
 171      0B71D0C0 
 171      39FC70AE 
 171      E3
 172 010d 25C642BA 		.ascii	"%\306B\272\036\324\006\257}u\274\013\341\321P\036Kb"
 172      1ED406AF 
 172      7D75BC0B 
 172      E1D1501E 
 172      4B62
 173 011f 29356DCB 		.ascii	")5m\313\240\314\316Uh\316(Sf\362,\267]Zr\274\342\026"
 173      A0CCCE55 
 173      68CE2853 
ARM GAS  /tmp/ccymQx5f.s 			page 13


 173      66F22CB7 
 173      5D5A72BC 
 174 0135 158DA917 		.ascii	"\025\215\251\027\250\3530\352\351N)\311 \365\027\336"
 174      A8EB30EA 
 174      E94E29C9 
 174      20F517DE 
 175 0145 D829D1C5 		.ascii	"\330)\321\305tf9Cy\221\025\274\234\304:\306&\263\226"
 175      74663943 
 175      799115BC 
 175      9CC43AC6 
 175      26B396
 176 0158 BC224B9A 		.ascii	"\274\"K\232\020MgV\342Y\3355\266\035>\027O\314\003q"
 176      104D6756 
 176      E259DD35 
 176      B61D3E17 
 176      4FCC0371 
 177 016c 20621996 		.ascii	" b\031\226\355T\340\013]\305\177o"
 177      ED54E00B 
 177      5DC57F6F 
 178              		.text
 179              		.section	.gnu.lto_uartStartSendI.b192c82092c7bbb2,"",%progbits
 180 0000 789C5D4E 		.ascii	"x\234]N\261J\003Q\020\234\331\273\240`ckg\223J\360\221"
 180      B14A0351 
 180      109CD9BB 
 180      A060636B 
 180      67934AF0 
 181 0015 7F89A0E5 		.ascii	"\177\211\240\345\345%\334=4\036\\\022A,\362\"\"\226"
 181      E525DC3D 
 181      341E5C12 
 181      412CF222 
 181      2296
 182 0027 298356B6 		.ascii	")\203V\266\026Zj\251\2056b$\266\022\270\357\260\211"
 182      165A6AA9 
 182      85366224 
 182      B612B8EF 
 182      B089
 183 0039 FBEEB071 		.ascii	"\373\356\260qav\207\335\331\331\025\010\376\307\226"
 183      617687DD 
 183      D9D91508 
 183      FEC796
 184 0048 E24BD152 		.ascii	"\342K\321R0\002e:\007&\353B\006\002b,\034\037\260\322"
 184      3002653A 
 184      0726EB42 
 184      0602622C 
 184      1C1FB0D2 
 185 005c 3EC873B9 		.ascii	">\310s\271Z\335\317\336\337^\270l\256\011\373D\244\211"
 185      5ADDCFDE 
 185      DF5EB86C 
 185      AE09FB44 
 185      A489
 186 006e B1A660DD 		.ascii	"\261\246`\335\300\205\367\323m\300V\013m\315\301eO\207"
 186      C085F7D3 
 186      6DC0560B 
 186      6DCDC165 
 186      4F87
 187 0080 5AA34F5C 		.ascii	"Z\243O\\\226\337\257\033\011o\331\320\361\031~\374\225"
 187      96DFAF1B 
ARM GAS  /tmp/ccymQx5f.s 			page 14


 187      096FD9D0 
 187      F1197EFC 
 187      95
 188 0091 DF745479 		.ascii	"\337tTy} \245\244\214R\306.4>p\3764{\\H\255\337\301"
 188      7D20A5A4 
 188      8C52C62E 
 188      343E70FE 
 188      347B5C48 
 189 00a8 9DD76839 		.ascii	"\235\327h9\312\015\256\351\202N\366\265\306\325j\247"
 189      CA0DAEE9 
 189      824EF6B5 
 189      C6D56AA7 
 190 00b8 7640E848 		.ascii	"v@\350H\340\013L\312e\363\357V\035m\265\325G\302\253"
 190      E00B4CCA 
 190      65F3EF56 
 190      1D6DB5D5 
 190      47C2AB
 191 00cb C66479BF 		.ascii	"\306dy\277gl\336=5\335\336\211\261\231\353\270|`\206"
 191      676CDE3D 
 191      35DDDE89 
 191      B199EBB8 
 191      7C6086
 192 00de C5E8F8D0 		.ascii	"\305\350\370\320(\311\222#3(\254\031%\305p\327\342\027"
 192      28C99223 
 192      3328AC19 
 192      25C570D7 
 192      E217
 193 00f0 39F44453 		.ascii	"9\364DS"
 194              		.text
 195              		.section	.gnu.lto_uartStopSend.b192c82092c7bbb2,"",%progbits
 196 0000 789C8D51 		.ascii	"x\234\215Q=h\024A\024~\337\314\356\335\031\015\011\330"
 196      3D681441 
 196      147EDFCC 
 196      EEDD190D 
 196      09D8
 197 0012 5884B008 		.ascii	"X\204\260\0106F2\022\020\254$\020\020,\322x\012Z\311"
 197      36463212 
 197      10AC2410 
 197      102CD278 
 197      0A5AC9
 198 0025 DEDC921B 		.ascii	"\336\334\222\033\314\336\311\356m0Xd.\234\242`q\210"
 198      CCDEC9EE 
 198      6D305864 
 198      2E9CA260 
 198      7188
 199 0037 851A05A3 		.ascii	"\205\032\005\243 (\202\226)\004SH\020\321HJE\3604E\032"
 199      20288296 
 199      29045348 
 199      10D1484A 
 199      45F03445 
 200 004c 9BB4229C 		.ascii	"\233\264\"\2343\273w\347O\223<\330}o\336\373\336\367"
 200      33BB77E7 
 200      4F933CD8 
 200      7D6FDEFB 
 200      DEF7
 201 005e BE79C388 		.ascii	"\276y\303\210\321\3776a\276\343&\3352\036.\201\265\326"
 201      D1FF3661 
ARM GAS  /tmp/ccymQx5f.s 			page 15


 201      BEE326DD 
 201      321E2E81 
 201      B5D6
 202 0070 891A05C6 		.ascii	"\211\032\005\306\370\332\020\351\001\347\335\011\322"
 202      F8DA10E9 
 202      01E7DD09 
 202      D2
 203 007d FB389C2C 		.ascii	"\3738\234,\355\0006 \320\002\343\016\026\316\303r\340"
 203      ED003620 
 203      D002E30E 
 203      16CEC372 
 203      E0
 204 008e 202D6B7D 		.ascii	" -k}\253}\365\365\006\356\352\325\346C\375\253\323\001"
 204      AB7DF5F5 
 204      06EEEAD5 
 204      E643FDAB 
 204      D301
 205 00a0 14CCBC09 		.ascii	"\024\314\274\011\220\004\2353\007x\251c\316\277\002"
 205      90049D33 
 205      0778A963 
 205      CEBF02
 206 00af 5EB0D576 		.ascii	"^\260\325v\247\363\352k\373\373\022\366\017\202|,\033"
 206      A7F3EA6B 
 206      FBFB12F6 
 206      0F827C2C 
 206      1B
 207 00c0 3E172128 		.ascii	">\027!(G\012\274\320\315\030s\251\251u\313\353\235e"
 207      470ABCD0 
 207      CD1873A9 
 207      A975CBEB 
 207      9D65
 208 00d2 3AFC8CF9 		.ascii	":\374\214\371[Mg\301\254\347\353\264\270\375\343\366"
 208      5B4D67C1 
 208      ACE7EBB4 
 208      B8FDE3F6 
 209 00e2 E6812E98 		.ascii	"\346\201.\230L\373cs\261T4(\341v\007<[\304(]\303\003"
 209      4CFB6373 
 209      B1543428 
 209      E176073C 
 209      5BC4285D 
 210 00f8 7D675221 		.ascii	"}gR!\325d\325\271\236\215\372\365\033\335z.\323\372"
 210      D564D5B9 
 210      9E8DFAF5 
 210      1BDD7A2E 
 210      D3FA
 211 010a 81163F7F 		.ascii	"\201\026?\177y~\177$\243\234An\214\016+\344\227\350"
 211      797E7F24 
 211      A39C416E 
 211      8C0E2BE4 
 211      97E8
 212 011c 9E692DCC 		.ascii	"\236i-\314\300\265\024{Rh\011\275\013\276\2457[\215"
 212      C0B5147B 
 212      526809BD 
 212      0BBEA537 
 212      5B8D
 213 012e C17E8B85 		.ascii	"\301~\213\205\344\373E\262\3029\255\015\361\217\324"
 213      E4FB45B2 
ARM GAS  /tmp/ccymQx5f.s 			page 16


 213      C239AD0D 
 213      F18FD4
 214 013d 6CDFDC42 		.ascii	"l\337\334B\017W\270B?\365u=\2540 \221\301\015\277\302"
 214      0F57B842 
 214      3FF5753D 
 214      AC302091 
 214      C10DBFC2 
 215 0151 DE54C5CA 		.ascii	"\336T\305\312\312\3467\226A\307\350\2316vl\007\035\351"
 215      CAE63796 
 215      41C7E899 
 215      36766C07 
 215      1DE9
 216 0163 D83F239D 		.ascii	"\330?#\235]\357\312\307\023#0\335\015\375\265\033\037"
 216      5DEFCAC7 
 216      132330DD 
 216      0DFDB51B 
 216      1F
 217 0174 4F319AB1 		.ascii	"O1\232\261mP\343\345\243\270'<\235\367\211`\256\300"
 217      6D50E3E5 
 217      A3B8273C 
 217      9DF78960 
 217      AEC0
 218 0186 DF6F8FD8 		.ascii	"\337o\217\330F\223`\315\330>\025\354X\333/D\245\026"
 218      469360CD 
 218      D83E15EC 
 218      58DB2F44 
 218      A516
 219 0198 0642D6CA 		.ascii	"\006B\326\312\363\242\034\314\011YQ%U\213E=J\252\027"
 219      F3A21CCC 
 219      09595125 
 219      558B453D 
 219      4AAA17
 220 01ab 85092AFE 		.ascii	"\205\011*\376\254\210#)\022?\252\217KBur\247\216\340"
 220      AC882329 
 220      123FAA8F 
 220      4B427572 
 220      A78EE0
 221 01be 725D4C4D 		.ascii	"r]LM\027O\025\205\252\312\331\244l\261QpA\206'\223\252"
 221      174F1585 
 221      AACAD9A4 
 221      6CB15170 
 221      41862793 
 222 01d3 1CAFD0F0 		.ascii	"\034\257\320\360t\361\264W\362\343\340R\244\216x\207"
 222      74F1B457 
 222      F2E3E052 
 222      A48E7887 
 223 01e3 8E128B28 		.ascii	"\216\022\213(\037\006a-\232\247\337\226\274\253\336"
 223      1F06612D 
 223      9AA7DF96 
 223      BCABDE
 224              		.text
 225              		.section	.gnu.lto_uartStopSendI.b192c82092c7bbb2,"",%progbits
 226 0000 789C5D50 		.ascii	"x\234]P=KC1\024\275\347&O\037R\251?\301Y\301\340\037"
 226      3D4B4331 
 226      14BDE726 
 226      4F1F52A9 
 226      3FC159C1 
ARM GAS  /tmp/ccymQx5f.s 			page 17


 227 0016 F05758D0 		.ascii	"\360WX\320\261MK_\320\372\340\265\025\304\241\251tp"
 227      B14D4B5F 
 227      D0FAE0B5 
 227      15C4A1A9 
 227      7470
 228 0028 EC283AB9 		.ascii	"\354(:\271\213\376\001\007\007)\"XqT\034trq\022\027"
 228      8BFE0107 
 228      07292258 
 228      71541C74 
 228      72711217 
 229 003c 5DEACD2B 		.ascii	"]\352\315+O\304@rn\222s\316\375`b\372\277Ve\317b\212"
 229      4FC44072 
 229      6E9273CE 
 229      FD6062FA 
 229      BF5665CF 
 230 0052 88083C1C 		.ascii	"\210\010<\034\023\365cf5*\223\237\323\267k\344K\012"
 230      13F56366 
 230      352A939F 
 230      D3B76BE4 
 230      4B0A
 231 0064 3A3C4303 		.ascii	":<C\003\001\011\324c\245\321\333D\356q\301W/\223\311"
 231      0109D463 
 231      A5D1DB44 
 231      EE71C157 
 231      2F93C9
 232 0077 F9E7F8EC 		.ascii	"\371\347\370\354\035\227\034\203\034$\223\034\032-P"
 232      1D971C83 
 232      1C24931C 
 232      1A2D50
 233 0086 2451E045 		.ascii	"$Q\340E4\360~\270Hds\325\272\234\301\254\002\016\250"
 233      34F07EB8 
 233      486473D5 
 233      BA9CC1AC 
 233      020EA8
 234 0099 EEE8E0E9 		.ascii	"\356\350\340\351\350\343\025U\234J\035MD\313\264\344"
 234      E8E31555 
 234      9C4A1D4D 
 234      44CBB4E4 
 235 00a9 C027740C 		.ascii	"\300't\014\007\325\204\336\020\324y\276\032\212\352"
 235      07D584DE 
 235      10D479BE 
 235      1A8AEA
 236 00b8 6FE8FAAD 		.ascii	"o\350\372\255?\377+\011\024\306\237\356*P4*\253{\032"
 236      3FFF2B09 
 236      14C69FEE 
 236      2A50342A 
 236      AB7B1A
 237 00cb C40589F7 		.ascii	"\304\005\211\367\351\333\037\372\005\207\310b\312\025"
 237      E9DB1FFA 
 237      0587C862 
 237      CA15
 238 00d9 73879942 		.ascii	"s\207\231B\241\363r\036d\010\341'g<\022D\250\020\374"
 238      A1F3721E 
 238      6408E127 
 238      673C1244 
 238      A810FC
 239 00ec E5CACF5F 		.ascii	"\345\312\317_\245\320\000\0023\214\324\230$m5\214M\353"
ARM GAS  /tmp/ccymQx5f.s 			page 18


 239      A5D00002 
 239      338CD498 
 239      246D358C 
 239      4DEB
 240 00fe 7BA6DED8 		.ascii	"{\246\336\33056q5\227\266M'\353\356l\031\011\222\352"
 240      35367135 
 240      97B64D27 
 240      EBEE6C19 
 240      0992EA
 241 0111 B66967D6 		.ascii	"\266ig\326t\253Yg\305\322\017N\211L\272"
 241      74AB5967 
 241      C5D20F4E 
 241      894CBA
 242              		.text
 243              		.section	.gnu.lto_uartStartReceive.b192c82092c7bbb2,"",%progbits
 244 0000 789C8D50 		.ascii	"x\234\215P1K\303P\020\276{I\254\340\322Q\227\222E\034"
 244      314BC350 
 244      10BE7B49 
 244      ACE0D251 
 244      9792451C 
 245 0014 943EFD07 		.ascii	"\224>\375\007\005Ap\350b\025t\222\36454\017\233F\222"
 245      054170E8 
 245      62157492 
 245      F435340F 
 245      9B4692
 246 0027 462C0E4D 		.ascii	"F,\016MKQ'\351\340P\024\007A\020\034\024\234\034\025"
 246      4B5127E9 
 246      E0501407 
 246      41101C14 
 246      9C1C15
 247 003a 5C6DE9E2 		.ascii	"\\m\351\342,\352\344TW\007\343{I-\342\242\007\357\356"
 247      2CEAE454 
 247      5707E37B 
 247      492DE2A2 
 247      07EFEE
 248 004d E0BEFBBE 		.ascii	"\340\276\373\276\357\035\001\002\277cB\274-\0048\020"
 248      EF1D0102 
 248      BF6342BC 
 248      2D043810 
 249 005d 151540D2 		.ascii	"\025\025@\322\352\000\324G\011\242l\000\241F\260\266"
 249      EA00D447 
 249      09A26C00 
 249      A146B0B6 
 250 006d 8611F68A 		.ascii	"\206\021\366\212\334>\205\341\345c\367\376\016?\247"
 250      DC3E85E1 
 250      E563F7FE 
 250      0E3FA7
 251 007c C614B411 		.ascii	"\306\024\264\021T\221P\023IRk\320\014\202\226\016\300"
 251      54915013 
 251      49526BD0 
 251      0C82960E 
 251      C0
 252 008d A2856591 		.ascii	"\242\205e\221%\313\212\030\212\252t\240\361\376v\370"
 252      25CB8A18 
 252      8AAA74A0 
 252      F1FE76F8 
 253 009d 323E8419 		.ascii	"2>\204\031x\212\032D2\010\236\"\355)\261\307\0244\361"
ARM GAS  /tmp/ccymQx5f.s 			page 19


 253      788A1A44 
 253      32089E22 
 253      ED29B1C7 
 253      1434F1
 254 00b0 24686778 		.ascii	"$hgx\254\274\212\034Q\227\335p\2767\230\017\276\324"
 254      ACBC8A1C 
 254      5197DD70 
 254      BE37980F 
 254      BED4
 255 00c2 85DDFE75 		.ascii	"\205\335\376u\370\212\337\224;\360\021\354\007I\216"
 255      F88ADF94 
 255      3BF011EC 
 255      07498E
 256 00d1 0AC398A3 		.ascii	"\012\303\230\243\210J\021\325\"j\034U\200\007h\334\264"
 256      884A11D5 
 256      226A1C55 
 256      800768DC 
 256      B4
 257 00e2 C31E89F1 		.ascii	"\303\036\211\361\323p\021\210\230\343\250\035\303\221"
 257      D3701188 
 257      98E3A81D 
 257      C391
 258 00f0 101B1168 		.ascii	"\020\033\021h)\232\210V\3631CdC\223\375\177~b\340\231"
 258      299A8856 
 258      F3314364 
 258      4393FD7F 
 258      7E62E099 
 259 0104 3868E41C 		.ascii	"8h\344\034~87\360\034S1]\017\352\375\347P\035\356B|"
 259      7E3837F0 
 259      1C53315D 
 259      0FEAFDE7 
 259      501DEE42 
 260 0119 3494C792 		.ascii	"4\224\307\222XJ-\3076)s\012UZ0\267(\263x\236;\036\255"
 260      584A2DC7 
 260      3629730A 
 260      555A30B7 
 260      28B3789E 
 261 0130 B87E7983 		.ascii	"\270~y\203\212\3062J\324s\031\365\015\267\222f\220\371"
 261      8AC6324A 
 261      D47319F5 
 261      0DB79266 
 261      90F9
 262 0142 0B6F6E57 		.ascii	"\013onW\350|6\267\230\243\274\314J~Ab]s\235\331\013"
 262      E87C36B7 
 262      98A3BCCC 
 262      4A7E4162 
 262      5D739DD9 
 263 0157 7E99A52D 		.ascii	"~\231\245-HfsKz\336\360\314M\227\317\350\223\263@\\"
 263      4866734B 
 263      7ADEF0CC 
 263      4D97CFE8 
 263      93B3405C 
 264 016b 48D8A6ED 		.ascii	"H\330\246\355\270U\370\002\261\260\200\370"
 264      B855F802 
 264      B1B080F8 
 265              		.text
 266              		.section	.gnu.lto_uartStartReceiveI.b192c82092c7bbb2,"",%progbits
ARM GAS  /tmp/ccymQx5f.s 			page 20


 267 0000 789C5D4E 		.ascii	"x\234]N\261J\003Q\020\234\331\273\240\225\330\332\331"
 267      B14A0351 
 267      109CD9BB 
 267      A095D8DA 
 267      D9
 268 0011 06C147FE 		.ascii	"\006\301G\376%\202\226\227\227p\367\320xpI\004\261\310"
 268      25829697 
 268      9770F7D0 
 268      78704904 
 268      B1C8
 269 0023 8B885806 		.ascii	"\213\210X\006+\321\312RC\264M\251\205e\024\363\005\367"
 269      2BD1CA52 
 269      43B44DA9 
 269      856514F3 
 269      05F7
 270 0035 1D3671DF 		.ascii	"\0356q\337\0356.\314\356\260;;\273\002\301\377\330Q"
 270      1D362ECC 
 270      EEB03B3B 
 270      BB02C1FF 
 270      D851
 271 0047 AC142D05 		.ascii	"\254\024-\005#P\246\237\300dS\310@@\214\205\343#V\332"
 271      2350A69F 
 271      C06453C8 
 271      40408C85 
 271      E32356DA 
 272 005b 57792BD7 		.ascii	"Wy+\327\353\227\305\355\307;\347\315\015a\237\21041"
 272      EB97C5ED 
 272      C73BE7CD 
 272      0D619F88 
 272      3431
 273 006d D614AC1B 		.ascii	"\326\024\254\033\270\362~\272\013\330j\241\2559\270"
 273      B8F27EBA 
 273      0BD86AA1 
 273      AD39B8
 274 007c 1CE8506B 		.ascii	"\034\350Pk\364\205\353r\366\264\225\360\221\015\035"
 274      F485EB72 
 274      F6B495F0 
 274      910D1D
 275 008b 5FE0C7DF 		.ascii	"_\340\307\337\370mG\225\327\007RJ\312(e\354Bc\211\313"
 275      F86D4795 
 275      D707524A 
 275      CA2865EC 
 275      426389CB 
 276 009f C5DD6C25 		.ascii	"\305\335l%\265~\017\317^\243\345(\017\270\247\013:9"
 276      B57E0FCF 
 276      5EA3E528 
 276      0FB8A70B 
 276      3A39
 277 00b1 D41A57AB 		.ascii	"\324\032W\253\235\332\001\241#\201\177cR\316\233\177"
 277      9DDA01A1 
 277      23817F63 
 277      52CE9B7F 
 278 00c1 B7EA68AB 		.ascii	"\267\352h\253\255>\022^5&\313\373=c\363\356\271\351"
 278      AD3E125E 
 278      3526CBFB 
 278      3D63F3EE 
 278      B9E9
ARM GAS  /tmp/ccymQx5f.s 			page 21


 279 00d3 F6CE8CCD 		.ascii	"\366\316\214\315\\\307\345\0033,F\247\307FI\226\234"
 279      5CC7E503 
 279      332C46A7 
 279      C7464996 
 279      9C
 280 00e4 984161CD 		.ascii	"\230Aa\315()\206\373\026\277\260\327C\215"
 280      282986FB 
 280      16BFB0D7 
 280      438D
 281              		.text
 282              		.section	.gnu.lto_uartStopReceive.b192c82092c7bbb2,"",%progbits
 283 0000 789C8D51 		.ascii	"x\234\215Q=h\024A\024~\337\314\356\335\031\015Iaa\241"
 283      3D681441 
 283      147EDFCC 
 283      EEDD190D 
 283      496161A1 
 284 0014 61116C8C 		.ascii	"a\021l\214d$`\223B\002\202`\221\306S\320J\366\346\226"
 284      64246093 
 284      42028260 
 284      91C653D0 
 284      4AF6E696 
 285 0028 DC60F64E 		.ascii	"\334`\366N\366n\203!E\346\302)\332\035ba\014\007F!\240"
 285      F66E8321 
 285      45E6C229 
 285      DA1D6261 
 285      0C074621 
 286 003d 8D828529 		.ascii	"\215\202\205),RH\020\321\210vJ\212#\026\"\306\302V\204"
 286      2C524810 
 286      D188764A 
 286      8A231622 
 286      C6C25684 
 287 0051 7366F7EE 		.ascii	"sf\367\356\374i\342\203\335\367\346\275\357}\357\233"
 287      FC69E283 
 287      DDF7E6BD 
 287      EF7DEF9B 
 288 0061 378C18FD 		.ascii	"7\214\030\375k\343\346\2330\351\246\361p\011\254\271"
 288      6BE3E69B 
 288      30E9A6F1 
 288      7009ACB9 
 289 0071 4954CF31 		.ascii	"IT\3171\3067\206H\0178\257N\222\336\307\341\244i\007"
 289      C6378648 
 289      0F38AF4E 
 289      92DEC7E1 
 289      A46907
 290 0084 B0018116 		.ascii	"\260\001\201\026\030w\260p\021\226\003\207iE\353[\355"
 290      1877B070 
 290      11960387 
 290      6945EB5B 
 290      ED
 291 0095 6B4FDF63 		.ascii	"kO\337cI\2577\356\351\237\235\016\240`\346\215\203$"
 291      49AF37EE 
 291      E99F9D0E 
 291      A060E68D 
 291      8324
 292 00a7 E88239C0 		.ascii	"\350\2029\300K\034s\376\026\360\230\255\267;\235\347"
 292      4B1C73FE 
 292      16F098AD 
ARM GAS  /tmp/ccymQx5f.s 			page 22


 292      B73B9DE7 
 293 00b7 4BDFB6BF 		.ascii	"K\337\266\277b\377 \310\307\212\341s\021\2022\244\300"
 293      62FF20C8 
 293      C78AE173 
 293      118232A4 
 293      C0
 294 00c8 73DD8C31 		.ascii	"s\335\2141\227\032Z7\275\336Y&\303\317\231\277\325t"
 294      971A5A37 
 294      BDDE5926 
 294      C3CF99BF 
 294      D574
 295 00da 1ECC7ABE 		.ascii	"\036\314z\276I\213\337wn\177:\320\005\223i\177`.\226"
 295      498BDF77 
 295      6E7F3AD0 
 295      0593697F 
 295      602E96
 296 00ed 8806C5DC 		.ascii	"\210\006\305\334\356\200\247\213\030\241\353h\351;\223"
 296      EE80A78B 
 296      18A1EB68 
 296      E93B93
 297 00fc 0A8926AB 		.ascii	"\012\211&\253\316\365l\324\257\337\354\3263\251\326"
 297      CEF56CD4 
 297      AFDFECD6 
 297      33A9D6
 298 010b 37B4F871 		.ascii	"7\264\370qkg\365`J9\215\314(\035U\310.\323]\323\232"
 298      6B67F560 
 298      4A398DCC 
 298      281D55C8 
 298      2ED35DD3 
 299 0120 9B866B29 		.ascii	"\233\206k)\366$\320\002z\027|I/>\327\007\373-\026\222"
 299      F624D002 
 299      7A177C49 
 299      2F3ED707 
 299      FB2D1692 
 300 0134 ED17C90A 		.ascii	"\355\027\311\012\347\2641\304\337R\243\275\365\005="
 300      E7B431C4 
 300      DF52A3BD 
 300      F5053D
 301 0143 5C6E9E7E 		.ascii	"\\n\236~\350\033zXa@\"\205\033~\205\275\211\212\265"
 301      E81B7A58 
 301      61402285 
 301      1B7E85BD 
 301      898AB5
 302 0156 B567DB2C 		.ascii	"\265g\333,\205\216\322#m\354\304.:\222\261\277G:\377"
 302      858ED223 
 302      6DECC42E 
 302      3A92B1BF 
 302      473AFF
 303 0169 BD2B1FAB 		.ascii	"\275+\037\253F`\262\033\372c7>\036b$e{G\365'\367[}\345"
 303      4660B21B 
 303      FA63373E 
 303      1E622465 
 303      7B47F527 
 304 0181 C9C00F04 		.ascii	"\311\300\017\004s\007\376z\371\220\3554\011\326h\301"
 304      7307FE7A 
 304      F990ED34 
 304      09D668C1 
ARM GAS  /tmp/ccymQx5f.s 			page 23


 305 0191 3E16EC60 		.ascii	">\026\354`\313 D\251\022\006BV\212s\242\030\314\012"
 305      CB2044A9 
 305      12064256 
 305      8A73A218 
 305      CC0A
 306 01a3 59520555 		.ascii	"YR\005U\251\212Z\024\227/\013\023\224\374\031Q\215\244"
 306      A98A5A14 
 306      972F0B13 
 306      94FC1951 
 306      8DA4
 307 01b5 88FDA836 		.ascii	"\210\375\2506&\011\345\311\335:\202\2535qj*\177&/TY"
 307      2609E5C9 
 307      DD3A82AB 
 307      35716A2A 
 307      7F262F54 
 308 01ca CEC4458B 		.ascii	"\316\304E\213\215\202K2<\035\227\345X\211\206\247\362"
 308      8D824B32 
 308      3C1D97E5 
 308      588986A7 
 308      F2
 309 01db 67BD825F 		.ascii	"g\275\202_\015\256D\352\230w\3448\261\210\262a\020V"
 309      0DAE44EA 
 309      9877E438 
 309      B188B261 
 309      1056
 310 01ed A239FA05 		.ascii	"\2429\372\005q\347\254_"
 310      71E7AC5F 
 311              		.text
 312              		.section	.gnu.lto_uartStopReceiveI.b192c82092c7bbb2,"",%progbits
 313 0000 789C5D50 		.ascii	"x\234]P\273J\003A\024\275\347\316\254.b\210\237`\255"
 313      BB4A0341 
 313      14BDE7CE 
 313      AC2E6288 
 313      9F60AD
 314 0013 E0E00FF8 		.ascii	"\340\340\017\370\025\006\264L&!;h\\\330$\202Xd\"),S"
 314      1506B44C 
 314      26213B68 
 314      5CD82482 
 314      58642229 
 315 0029 888856FE 		.ascii	"\210\210V\376@,\374\001\013\011\"\250XF,\304B\033\277"
 315      402CFC01 
 315      0B0922A8 
 315      58462CC4 
 315      421BBF
 316 003c C026DED9 		.ascii	"\300&\336\331\260\"\016\314\234;3\347\234\373`b\372"
 316      B0220ECC 
 316      9C3B33E7 
 316      9CFB6062 
 316      FA
 317 004d BFD665CF 		.ascii	"\277\326e\317c\206\210\010<|$\352\307\314j\\&\277\240"
 317      63868808 
 317      3C7C24EA 
 317      C7CC6A5C 
 317      26BFA0
 318 0060 EF37C82F 		.ascii	"\3577\310/*\350\360\014\015\004$P\217\225Fo\033\271"
 318      2AE8F00C 
 318      0D042450 
ARM GAS  /tmp/ccymQx5f.s 			page 24


 318      8F95466F 
 318      1BB9
 319 0072 C715DFBC 		.ascii	"\307\025\337\274M\247\243\223\323\321\027&\034\203\034"
 319      4DA7A393 
 319      D3D11726 
 319      1C831C
 320 0081 24931C1A 		.ascii	"$\223\034\032-P$Q\340E4\360~\270Lds\325\246\234\301"
 320      2D502451 
 320      E04534F0 
 320      7EB84C64 
 320      73D5A69C 
 321 0096 AC020EA8 		.ascii	"\254\002\016\250\036\350\350\345\354\343\035U\\J\035"
 321      1EE8E8E5 
 321      ECE31D55 
 321      5C4A1D
 322 00a5 4D44ABB4 		.ascii	"MD\253\264\342\300\027t\016\007\325\204\336\022\324"
 322      E2C01774 
 322      0E07D584 
 322      DE12D4
 323 00b4 79BE1A8A 		.ascii	"y\276\032\212\352\357\350\366\263_\372\225\004\012\343"
 323      EAEFE8F6 
 323      B35FFA95 
 323      040AE3
 324 00c3 4F771528 		.ascii	"Ow\025(\032\227\325\023\015\342\202\304\207\364\355"
 324      1A97D513 
 324      0DE282C4 
 324      87F4ED
 325 00d2 8FFD9243 		.ascii	"\217\375\222Cd1\343\212\271\303\\\241\320y9\3172\204"
 325      6431E38A 
 325      B9C35CA1 
 325      D07939CF 
 325      3284
 326 00e4 F0933326 		.ascii	"\360\2233&\004\021*\004\177\271\362\353u)4\200\300\014"
 326      04112A04 
 326      7FB9F2EB 
 326      75293480 
 326      C00C
 327 00f6 23352649 		.ascii	"#5&I[\015c\323\372\201\2517\366\215M\\\315\245m\323"
 327      5B0D63D3 
 327      FA81A937 
 327      F68D4D5C 
 327      CDA56DD3 
 328 010a C9BA7B3B 		.ascii	"\311\272{;F\202\244\272k\332\2315\335j\326Y\263\364"
 328      4682A4BA 
 328      6BDA9935 
 328      DD6AD659 
 328      B3F4
 329 011c 03A6594B 		.ascii	"\003\246YK\361"
 329      F1
 330              		.text
 331              		.section	.gnu.lto_.symbol_nodes.b192c82092c7bbb2,"",%progbits
 332 0000 789C4DC9 		.ascii	"x\234M\311I\012\302P\020\204\341\356\212\363\220\250"
 332      490AC250 
 332      1084E1EE 
 332      8AF390A8 
 333 0010 C9D2BB56 		.ascii	"\311\322\273V\234GPA\020\004\335\010\202wp\245{\317"
 333      9C475041 
ARM GAS  /tmp/ccymQx5f.s 			page 25


 333      1004DD08 
 333      827770A5 
 333      7BCF
 334 0022 20780F87 		.ascii	" x\017\207\370\304\327\265\371\371(\010d\253\342\206"
 334      F8C4D7B5 
 334      F9F92808 
 334      64ABE286 
 335 0032 2328B2BC 		.ascii	"#(\262\274\211\220\273\261\342\004\252\341K\211\037"
 335      8990BBB1 
 335      E204AAE1 
 335      4B891F
 336 0041 F71FA660 		.ascii	"\367\037\246``\330\001s\206]0o\330\003\013\206}\260"
 336      60D80173 
 336      865D306F 
 336      D8030B86 
 336      7DB0
 337 0053 6838004B 		.ascii	"h8\000K\206C\260l8\002+\206c\260j8\001k\206S\260\356"
 337      8643B06C 
 337      38022B86 
 337      63B06A38 
 337      016B8653 
 338 0069 A96B3074 		.ascii	"\251k0tLS\325-\030y\315\300\206\327\034lz-\300\226\327"
 338      4C53D52D 
 338      1879CDC0 
 338      86D71C6C 
 338      7A2DC096 
 339 007e 0A8CBD36 		.ascii	"\012\214\2756`\362W \241\364\356O\0154rE\3035\327\224"
 339      60F25720 
 339      A1F4EE4F 
 339      0D347245 
 339      C335D794 
 340 0092 6BD67C4B 		.ascii	"k\326|K\016Y\013\261k1v\177)\224\307\271\035\224E.\237"
 340      0E590BB1 
 340      6B31767F 
 340      2994C7B9 
 340      1D94452E 
 341 00a7 5412F756 		.ascii	"T\022\367V\023\367\326\242\357[\327\354\2257l\202{["
 341      13F7D6A2 
 341      EF5BD7EC 
 341      95376C82 
 341      7B5B
 342              		.text
 343              		.section	.gnu.lto_.refs.b192c82092c7bbb2,"",%progbits
 344 0000 789C6362 		.ascii	"x\234cb`b`d\200\002\000\000F\000\006"
 344      60626064 
 344      80020000 
 344      460006
 345              		.text
 346              		.section	.gnu.lto_.decls.b192c82092c7bbb2,"",%progbits
 347 0000 789CB55A 		.ascii	"x\234\265Z{p\024E\032\357\236\311k!\204\310\211b\325"
 347      7B701445 
 347      1AEF9EC9 
 347      6B2184C8 
 347      8962D5
 348 0013 55B9D6C9 		.ascii	"U\271\326\311\325\225w\262\006(\313*\257\304\\\202\222"
 348      D59577B2 
 348      0628CB2A 
ARM GAS  /tmp/ccymQx5f.s 			page 26


 348      AFC45C82 
 348      92
 349 0024 3A406A13 		.ascii	":@j\023\256\364\237['\311\006\366\314\203\332\335p\361"
 349      AEF49F5B 
 349      27C906F6 
 349      CC83DADD 
 349      70F1
 350 0036 BC2AC784 		.ascii	"\274*\307\204\247\310;\230 \217\0201\207\212\234\011"
 350      A7C83B98 
 350      208F1031 
 350      878A9C09 
 351 0046 CF9083B0 		.ascii	"\317\220\203\260\"\217\240U\200 \301C\201\275\370\302"
 351      228FA055 
 351      8020C143 
 351      81BDF8C2 
 352 0056 C769AA22 		.ascii	"\307i\252\"\025\250\240{_\367\364\354\316tzfgc\335V"
 352      15A8A07B 
 352      5FF7F4EC 
 352      CE747A66 
 352      6763DD56 
 353 006a 754FCF6C 		.ascii	"uO\317l\177\277\376}_\377\3725\273\022\222\320\2554"
 353      7FBFFE7D 
 353      5FFFFA35 
 353      BB1292D0 
 353      AD34
 354 007c 8462F059 		.ascii	"\204b\360Yu?BO\245#4\026!\364\010$\011R+\244]H\373\214"
 354      753F424F 
 354      A5233416 
 354      21F40824 
 354      09522BA4 
 355 0094 87D40949 		.ascii	"\207\324\011I\301\010\315\203\364\014\244\032H\177\205"
 355      C108CD83 
 355      F40CA41A 
 355      487F85
 356 00a3 F41CA4A5 		.ascii	"\364\034\244\245\220VBZ\017\251\011R+\244\035\220vB"
 356      9056425A 
 356      0FA90952 
 356      2BA41D90 
 356      7642
 357 00b5 7A1B5207 		.ascii	"z\033R\007\244=\220\366A:\000\351 \244\177a4\354C\332"
 357      A43D90F6 
 357      413A00E9 
 357      20A47F61 
 357      34EC43DA 
 358 00c9 C882D405 		.ascii	"\310\202\324\005)\007R6\244\303Po\025\326\370\034\201"
 358      29075236 
 358      A4C3506F 
 358      15D6F81C 
 358      81
 359 00da D40D8998 		.ascii	"\324\015\211\230~\300x\022\033\322\006y\366g\016\223"
 359      7EC07812 
 359      1BD20679 
 359      F6670E93 
 360 00ea F0B5C2DB 		.ascii	"\360\265\302\333\305\341\235gx\012\343K\236\3719<\342"
 360      C5E19D67 
 360      780AE34B 
 360      9EF9393C 
ARM GAS  /tmp/ccymQx5f.s 			page 27


 360      E2
 361 00fb 3BA9D30D 		.ascii	";\251\323\015\327\371\354;\211=\337#\360\207\304)\003"
 361      D7F9EC3B 
 361      893DDF23 
 361      F087C429 
 361      03
 362 010c AEC70D6D 		.ascii	"\256\307\015m\351q\355\205\004\341G\307\230/\244\375"
 362      E971ED85 
 362      04E147C7 
 362      982FA4FD 
 363 011c 0B8CCB33 		.ascii	"\013\214\3133\254\375*\016\223\304\334E\260\340\032"
 363      ACFD2A0E 
 363      93C4DC45 
 363      B0E01A
 364 012b 23B658C3 		.ascii	"#\266X\303\321\261\373 ]a\355I\014\357\030+\327\260"
 364      D1B1FB20 
 364      5D61ED49 
 364      0CEF182B 
 364      D7B0
 365 013d F8937218 		.ascii	"\370\223r\030\256\265\0346\351\313Q\034\266\021\217"
 365      AEB51C36 
 365      E9CB511C 
 365      B6118F
 366 014c E72F73DC 		.ascii	"\347/s\334%\206q\200q\177\226\303\177\216\365\205\021"
 366      25867180 
 366      717F96C3 
 366      7F8EF585 
 366      11
 367 015d FF04A4BF 		.ascii	"\377\004\244\277\333\364\355sL+\244\255\027\340Z\017"
 367      DBF4ED73 
 367      4C2BA4AD 
 367      17E05A0F 
 368 016d 6911874B 		.ascii	"i\021\207K\264\007\322M\212\265\324\200\265\034\256"
 368      B407D24D 
 368      8AB5D480 
 368      B51CAE
 369 017c 2F425AC1 		.ascii	"/BZ\301a\021\015\023\215\030\365\322\306q6\342\353Z"
 369      61110D13 
 369      8D18F5D2 
 369      C67136E2 
 369      EB5A
 370 018e 32B6B312 		.ascii	"2\266\263\022'\364\270\226\303'\343#\223\341\267!3\326"
 370      27F4B896 
 370      C327E323 
 370      93E1B721 
 370      33D6
 371 01a0 49C28FE3 		.ascii	"I\302\217\343L\352w\262g\0338\254&A<{ 5\333h\273\211"
 371      4CEA77B2 
 371      671B38AC 
 371      26413C7B 
 371      2035DB68 
 372 01b6 8D3B1283 		.ascii	"\215;\022\203-p\335\012\251\205\303me\361L\206\325j"
 372      2D70DD0A 
 372      A985C36D 
 372      65F14C86 
 372      D56A
 373 01c8 C0DA0ED7 		.ascii	"\300\332\016\327\327 \265qX;\004\361l\3478\033\361\215"
ARM GAS  /tmp/ccymQx5f.s 			page 28


 373      D720B571 
 373      583B04F1 
 373      6CE7381B 
 373      F18D
 374 01da F1D4DBD9 		.ascii	"\361\324\333\331a\030\217op\370;\015\361$\270F\254S"
 374      61188F6F 
 374      70F83B0D 
 374      F124B846 
 374      AC53
 375 01ec F05D2987 		.ascii	"\360])\207E\352+\354\331.\016+\023-Q\325z5\272\270~"
 375      45EA2BEC 
 375      D92E0E2B 
 375      132D51D5 
 375      7A35BAB8 
 376 0201 4233707D 		.ascii	"B3p}\022+8\307\005\021&\205l\0275\231\210^S\3255\321"
 376      122B38C7 
 376      05112685 
 376      6C173599 
 376      885E53D5 
 377 0217 E35F4E50 		.ascii	"\343_NP\323\024\334\2123\001\364A\214\356Co\250\360"
 377      D314DC8A 
 377      3301F441 
 377      8CEE436F 
 377      A8F0
 378 0229 1CAC7F25 		.ascii	"\034\254\177%\230\003\234\000\023Vm\000\247\340\327"
 378      98039C00 
 378      13566D00 
 378      A7E0D7
 379 0238 F07D5A33 		.ascii	"\360}Z3jd\337\222\261\244\031\362\034\261o\004\037\231"
 379      6A64DF92 
 379      B1A419F2 
 379      1CB16F04 
 379      1F99
 380 024a 3826A13F 		.ascii	"8&\241?b\212\227\346J<z2\376\010\033*\316\213?\225\030"
 380      628A97E6 
 380      4A3C7A32 
 380      FE081B2A 
 380      CE8B3F95 
 381 025f 02B9C5AE 		.ascii	"\002\271\305\256D!fv\302\310L\301\377\300\023!\337\201"
 381      44216676 
 381      C2C84CC1 
 381      FFC01321 
 381      DF81
 382 0271 65A199E3 		.ascii	"e\241\231\343\030F\256\236\300n\005\357\242!\254\303"
 382      1846AE9E 
 382      C06E05EF 
 382      A221ACC3 
 383 0281 26F71CC6 		.ascii	"&\367\034\306\253\235\217\327E-^\355\216\342\265\004"
 383      AB9D8FD7 
 383      452D5EED 
 383      8EE2B504 
 384 0291 0F0FD87A 		.ascii	"\017\017\330z,\214\330\2538\365\220\265\033B\326AC\266"
 384      2C8CD8AB 
 384      38F590B5 
 384      1B42D641 
 384      43B6
 385 02a3 DB226477 		.ascii	"\333\"dw\243\255j$\032\275\270\342r\003^\333P\337\243"
ARM GAS  /tmp/ccymQx5f.s 			page 29


 385      A3AD6A24 
 385      1ABDB8E2 
 385      72035EDB 
 385      50DFA3
 386 02b6 F6C76263 		.ascii	"\366\307bc\321\035h\003\270\244n\203H\340\260\013-#"
 386      D11D6803 
 386      B8A46E83 
 386      48E0B00B 
 386      2D23
 387 02c8 01819B19 		.ascii	"\001\201\233\031=\211\200\270\365\200\244%\224\331\264"
 387      3D8980B8 
 387      F580A425 
 387      94D9B4
 388 02d7 BA7700D7 		.ascii	"\272w\000\327\203\215\202\2730\241\373\262d\216\255"
 388      838D82BB 
 388      30A1FBB2 
 388      648EAD
 389 02e6 82D35D66 		.ascii	"\202\323]f\246p\257W x\351\256D\201\354\014\306\212"
 389      A670AF57 
 389      2078E9AE 
 389      4481EC0C 
 389      C68A
 390 02f8 DB239607 		.ascii	"\333#\226\007\361\035\211\210\"4\032\275\230`9\016\255"
 390      F11D8988 
 390      22341ABD 
 390      9860390E 
 390      AD
 391 0309 25FCDD06 		.ascii	"%\374\335\006\276Q\254\003\3742Axh\335\340~\334@\011"
 391      BE51AC03 
 391      FC324178 
 391      68DDE07E 
 391      DC4009
 392 031c 1FC1E300 		.ascii	"\037\301\343\000\350s\216pR \005\277\203%\310\217\202"
 392      E8738E70 
 392      522005BF 
 392      8325C88F 
 392      82
 393 032d B9490E3F 		.ascii	"\271I\016?\266d\0239\220\3476r\270\007m\003\326\221"
 393      B6641339 
 393      90E73672 
 393      B8076D03 
 393      D691
 394 033f 0D7DD7E4 		.ascii	"\015}\327\344&5\362\202\354|\026h\373\224\316\002\307"
 394      2635F282 
 394      EC7C1668 
 394      FB94CE02 
 394      C7
 395 0350 A984FBA5 		.ascii	"\251\204\373\245\021i\270\207\327\360zM\303=\2164|K"
 395      1169B887 
 395      D7F07A4D 
 395      C33D8E34 
 395      7C4B
 396 0362 1AAEE165 		.ascii	"\032\256\341e\262P\303\353\344\3245\334c\320\360)\252"
 396      B250C3EB 
 396      E4D435DC 
 396      63D0F029 
 396      AA
ARM GAS  /tmp/ccymQx5f.s 			page 30


 397 0373 E1F72C34 		.ascii	"\341\367,4,\241-2f} r\225\025\023\355\346\304E\250\305"
 397      2CA12D32 
 397      667D2072 
 397      951513ED 
 397      E6C445A8 
 398 0388 1F747072 		.ascii	"\037tpr\302\341\177\252jC\206>\257nO\0311\313\324\243"
 398      C2E17FAA 
 398      6A43863E 
 398      AF6E4F19 
 398      31CBD4A3 
 399 039c 7BFB3AB1 		.ascii	"{\373:\261\272$[\237cv\246\014\227k\202;\334\327/oT"
 399      BA245B9F 
 399      6376A60C 
 399      976B823B 
 399      DCD72F6F 
 400 03b1 238B6491 		.ascii	"#\213d\221\314\241\0066\010T\225t@w\\.\221\201\253\330"
 400      CCA10636 
 400      08549574 
 400      40775C2E 
 400      9181ABD8 
 401 03c5 2D10B3B9 		.ascii	"-\020\263\271\256\202?\202@'\255F*^\342\365~\361\012"
 401      AE823F82 
 401      4027AD46 
 401      2A5EE2F5 
 401      7EF10A
 402 03d8 D5FB2547 		.ascii	"\325\373%Gz\277ze\353]\352\266\243\330\344\215i\322"
 402      7ABF7A65 
 402      EB5DEAB6 
 402      A3D8E48D 
 402      69D2
 403 03ea 51F023E3 		.ascii	"Q\360#\343-\207\376\025\363\320Wp7 )x\256\034o\307z"
 403      2D87FE15 
 403      F3D05770 
 403      37202978 
 403      AE1C6FC7 
 404 03ff 928A0C6D 		.ascii	"\222\212\014m\272\235\020\275\014&\022\332#\233\007"
 404      BA9D10BD 
 404      0C2612DA 
 404      239B07
 405 040e 8E8990D6 		.ascii	"\216\211\220\326\220\025\211>\332\246\310\317a\337I"
 405      9015893E 
 405      DAA6C8CF 
 405      61DF49
 406 041d E8106DE7 		.ascii	"\350\020m\347R\242\377MpI\005\032\031d\001\323y\237"
 406      52A2FF4D 
 406      7049051A 
 406      196401D3 
 406      799F
 407 042f 4819CF6D 		.ascii	"H\031\317m\302\373\351J\366\032E\007;\353\004,\313\232"
 407      C2FBE94A 
 407      F61A4507 
 407      3BEB042C 
 407      CB9A
 408 0441 DCCB5701 		.ascii	"\334\313W\001l\204]\371\265\250+\331\015[x\324%\352"
 408      6C845DF9 
 408      B5A82BD9 
 408      0D5B78D4 
ARM GAS  /tmp/ccymQx5f.s 			page 31


 408      25EA
 409 0453 6F5ECF31 		.ascii	"o^\3171\014\014\006!\305\3734:\260\365\300\357T5K\301"
 409      0C0C0621 
 409      C5FB343A 
 409      B0F5C0EF 
 409      54354BC1 
 410 0467 FFA5CBCE 		.ascii	"\377\245\313\316O\\\257:\007j\351\353od\013B?\205:\224"
 410      4F5CAF3A 
 410      076AE9EB 
 410      6F640B42 
 410      3F853A94 
 411 047b C6AF6032 		.ascii	"\306\257`2\267\202\311\346\025Lv%\012\261\230\214R\256"
 411      B782C9E6 
 411      154C7625 
 411      0AB1988C 
 411      52AE
 412 048d EC50C7D1 		.ascii	"\354P\307\321\241s'\226\262\305\366+\332\215'\323l\265"
 412      A1732796 
 412      B2C5F62B 
 412      DA8D27D3 
 412      6CB5
 413 049f FCB58D96 		.ascii	"\374\265\215\226\257\333h\371:\257\345\017\322R\225"
 413      AFDB68F9 
 413      3AAFE50F 
 413      D25295
 414 04ae 8B597B2D 		.ascii	"\213Y{-W\177\326\340\277\231\\1\311\267*\221\363\233"
 414      577FD6E0 
 414      BF995C31 
 414      C9B72A91 
 414      F39B
 415 04c0 C69359E0 		.ascii	"\306\223Y\340\026\355\344\217\323\204zq\260\343\031"
 415      16EDE48F 
 415      D3847A71 
 415      B0E319
 416 04cf D87AFC1D 		.ascii	"\330z\374\035\326\0111\012\365\345\210\241Z\372\"ML"
 416      D609310A 
 416      F5E588A1 
 416      5AFA224D 
 416      4C
 417 04e0 7AF51281 		.ascii	"z\365\022\201\352\037&\275LNz\231f5e\272\022\005\266"
 417      EA1F26BD 
 417      4C4E7A99 
 417      663565BA 
 417      1205B6
 418 04f3 79FABF57 		.ascii	"y\372\277Ww\256\326\323\272ZoP\265\016\331\253\365\246"
 418      77AED6D3 
 418      BA5A6F50 
 418      B50ED9AB 
 418      F5A6
 419 0505 8D5A974A 		.ascii	"\215Z\227J\326j\345\276\223\320\342t\007j\3155\322G"
 419      D66AE5BE 
 419      93D0E274 
 419      076ACD35 
 419      D247
 420 0517 26B51EBC 		.ascii	"&\265\036\274\252\317\274Z\007\257J\031\317\254\376"
 420      AACFBC5A 
 420      07AF4A19 
ARM GAS  /tmp/ccymQx5f.s 			page 32


 420      CFACFE
 421 0526 B32DD967 		.ascii	"\263-\331g\237\326'\252F\036\3144'\261\342\004kr\037"
 421      9FD627AA 
 421      461ECC34 
 421      27B1E204 
 421      6B721F
 422 0539 19C19A53 		.ascii	"\031\301\232S\0063\3571\372\215`\233S\006s\017\353\013"
 422      0633EF31 
 422      FA8D609B 
 422      5306730F 
 422      EB0B
 423 054b 6DEFF631 		.ascii	"m\357\3661\335\273}\202\357\201\3743\232\177A\363k4"
 423      DDBB7D82 
 423      EF81FC33 
 423      9A7F41F3 
 423      6B34
 424 055d 1FA4F972 		.ascii	"\037\244\371r\211\344+h\276\222\346\253!\217\177$\264"
 424      89E42B68 
 424      BE92E6AB 
 424      218F7F24 
 424      B4
 425 056e 2D9D1F0B 		.ascii	"-\235\037\013\332F\303\320ZbG\202~n{V\302\353\005\345"
 425      DA46C3D0 
 425      5A624782 
 425      7E6E7B56 
 425      C2EB05E5 
 426 0582 C629ED4C 		.ascii	"\306)\355L\347\266t).\301\227\355\266tIO.\027\276\271"
 426      E7B67429 
 426      2EC197ED 
 426      B674494F 
 426      2E17BEB9 
 427 0596 B11C77A8 		.ascii	"\261\034w\250j\256\2027H\344\344\362\035\027\241\244"
 427      6AAE8237 
 427      48E4E4F2 
 427      1D17A1A4 
 428 05a6 40C4A166 		.ascii	"@\304\241f\211\333\305m\351\353\301t!%\337$\331\307"
 428      89DBC56D 
 428      E9EBC174 
 428      2125DF24 
 428      D9C7
 429 05b8 2D6A8874 		.ascii	"-j\210t\364\365H\324\007:\3155\330Ns\012V\245\211\216"
 429      F4F548D4 
 429      073ACD35 
 429      D84E730A 
 429      56A5898E 
 430 05cc A615385A 		.ascii	"\246\0258ZPg\010\207\021l\227\200\327n\342\306:\330"
 430      50670887 
 430      116C9780 
 430      D76EE2C6 
 430      3AD8
 431 05de 7D6FA233 		.ascii	"}o\2423i,e8\267\011n\257\031\256>\303\001\234\325~\011"
 431      692C6538 
 431      B7096EAF 
 431      19AE3EC3 
 431      019CD57E 
 432 05f3 E0F69BE1 		.ascii	"\340\366\233\341\226\244\014gf\327i\206{\321\011\234"
 432      96A40C67 
ARM GAS  /tmp/ccymQx5f.s 			page 33


 432      66D76986 
 432      7BD1099C 
 433 0603 D5840770 		.ascii	"\325\204\007p]f\270U)\303\231\331\0352\303\255s\002"
 433      5D66B855 
 433      29C399D9 
 433      1D32C3AD 
 433      7302
 434 0615 279AF144 		.ascii	"'\232\361D\037\243\200\025\274\221\312\353\025:\234"
 434      1FA38015 
 434      BC91CAEB 
 434      153A9C
 435 0624 B7D0BC85 		.ascii	"\267\320\274\205\346\2554\337N\3636\232\357p2\330\033"
 435      E6AD34DF 
 435      4EF3369A 
 435      EF7032D8 
 435      1B
 436 0635 25C3606F 		.ascii	"%\303`o\312p0\330\255\267\310p\300\274<\341\360nU]\236"
 436      CA7030D8 
 436      ADB7C870 
 436      C0BC3CE1 
 436      F06E555D 
 437 064a A1AF235B 		.ascii	"\241\257#[RFt\033\021#?\246p\"|Z\307#/@\331\004\262"
 437      5246741B 
 437      11233FA6 
 437      70227C5A 
 437      C7232F40 
 438 0661 69A0E7F7 		.ascii	"i\240\347\367d\267!\230'L\325\025\374\266$<\023\232"
 438      64B72198 
 438      274CD515 
 438      FCB6243C 
 438      139A
 439 0673 6A917A1D 		.ascii	"j\221z\035\374dr\3754=\022v$\237J\310\011g\325\226\341"
 439      FC6472FD 
 439      343D1276 
 439      249F4AC8 
 439      0967D596 
 440 0688 BB4241B3 		.ascii	"\273BA\263\021lTI|6\354yD\333:\355\243\223\341\267\031"
 440      116C5449 
 440      7C36EC79 
 440      44DB3AED 
 440      A393E1B7 
 441 069d 49274333 		.ascii	"I'C3\016\341\327\311\363\337s\206\362\357t4\025\036"
 441      0EE1D7C9 
 441      F3DF7386 
 441      F2EF7434 
 441      151E
 442 06af 38D3C8F6 		.ascii	"8\323\310\366\011l\316\241\024:G<\205u\236\241'46\343"
 442      096CCEA1 
 442      143A473C 
 442      85759EA1 
 442      273436E3 
 443 06c3 64A60AE6 		.ascii	"d\246\012\3466\201u\031\301\226:\001\263\231\276\016"
 443      36817519 
 443      C1963A01 
 443      B399BE0E 
 444 06d3 19C156A4 		.ascii	"\031\301V\244\014ff\326m\004[\343\004\314f\352:k\004"
 444      0C6666D6 
ARM GAS  /tmp/ccymQx5f.s 			page 34


 444      6D045BE3 
 444      04CC66EA 
 444      3A6B04
 445 06e6 DB903298 		.ascii	"\333\2202\230[\324\275h\230:\024|\220\3164]t.9D\363"
 445      5BD4BD68 
 445      983A147C 
 445      90CE345D 
 445      742E3944 
 446 06fb 6E9A4768 		.ascii	"n\232Gh~\224\346\307\234\3141{\215s\314FJ\270cd\212"
 446      7E94E6C7 
 446      9CCC317B 
 446      8D73CC46 
 446      4AB86364 
 447 0710 813966D3 		.ascii	"\2019f\323@\364\341.:\307p{i\022\017+\006=F\006\333"
 447      40F4E12E 
 447      3AC7707B 
 447      69120F2B 
 447      063D4606 
 448 0725 5266E036 		.ascii	"Rf\34062\210\014\235\336|\247\032\215`v\350\211\266"
 448      32880C9D 
 448      DE7CA71A 
 448      8D6076E8 
 448      89B6
 449 0737 A9C9DE62 		.ascii	"\251\311\336b\016l\335\365[\272\337x\237\366Y[\246\360"
 449      0E6CDDF5 
 449      5BBADF78 
 449      9FF6595B 
 449      A6F0
 450 0749 F4E400A8 		.ascii	"\364\344\000\250\245/\332\300NO\247)\324.\016\212\275"
 450      A52FDAC0 
 450      4E4FA729 
 450      D42E0E8A 
 450      BD
 451 075a 3634F428 		.ascii	"64\364(6oDl_F&\251+\241\003|\350D/\370l\026\210M\003"
 451      366F446C 
 451      5F4626A9 
 451      2BA1037C 
 451      E8442FF8 
 452 0773 371E3EC8 		.ascii	"7\036>\310\336@j\261\350N\031\321\374\006r\315\231\321"
 452      DE406AB1 
 452      E84E19D1 
 452      FC0672CD 
 452      99D1
 453 0785 ED4FEB60 		.ascii	"\355O\353`=)\203\345\016\033\001\232\366wS\355\357\241"
 453      3D2983E5 
 453      0E1B019A 
 453      F67753ED 
 453      EFA1
 454 0797 1A3F49F3 		.ascii	"\032?I\363\367h~\216\346\037\232\267\355g\206u\202\266"
 454      F7687E8E 
 454      E61F9AB7 
 454      ED678675 
 454      82B6
 455 07a9 18185013 		.ascii	"\030\030P\023\253\006r\212k\245\345]F-\367e:X_\255\317"
 455      AB06728A 
 455      6BA5E55D 
 455      462DF765 
ARM GAS  /tmp/ccymQx5f.s 			page 35


 455      3A585FAD 
 456 07be 7DB0627F 		.ascii	"}\260b\177>\241\233\255\330\004XB\327RFt'\020"
 456      3EA19BAD 
 456      D8045842 
 456      D7524674 
 456      2710
 457 07d0 6176DAF2 		.ascii	"av\332\362\3515\271Y\215\324\353\233e\273\327Q\012\376"
 457      E935B959 
 457      8DD4EB9B 
 457      65BBD751 
 457      0AFE
 458 07e2 8E1E9B92 		.ascii	"\216\036\233\222\275/\202}?\317\312\351\021R\3641\376"
 458      BD2F827D 
 458      3FCFCAE9 
 458      1152F431 
 458      FE
 459 07f3 8EA1E077 		.ascii	"\216\241\340w)\205c\364\304\364\001\315\317\323\374"
 459      298563F4 
 459      C4F401CD 
 459      CFD3FC
 460 0802 02CDD7D3 		.ascii	"\002\315\327\323\216y\223\346o\321\374#\232_r\322U\335"
 460      8E7993E6 
 460      6FD1FC23 
 460      9A5F72D2 
 460      55DD
 461 0814 899394E9 		.ascii	"\211\223\224\351\015\202\204~\340$s/\332\256\252\353"
 461      0D82847E 
 461      E024732F 
 461      DAAEAAEB 
 462 0824 C80F54DB 		.ascii	"\310\017T\333qc\203:C\263\225\320\362,:\275\343\273"
 462      7163833A 
 462      43B395D0 
 462      F22C3ABD 
 462      E3BB
 463 0836 2D0E1BAC 		.ascii	"-\016\033\254\205_\24360W;>\2333C\373Q\012\331X1>\227"
 463      855FA336 
 463      30573B3E 
 463      9B3343FB 
 463      510AD958 
 464 084d 2509193E 		.ascii	"%\011\031>\332Od\221\306\336\227\262\326\274\020\215"
 464      DA4F6491 
 464      C6DE97B2 
 464      D6BC108D 
 465 085d C5EEE6DE 		.ascii	"\305\356\346\336U\021T+?\373\244do\252%\264:K\344\261"
 465      5511542B 
 465      3FFBA464 
 465      6FAA25B4 
 465      3A4BE4B1 
 466 0871 BAC93F43 		.ascii	"\272\311?C\257~U\"?1\375G\032\211\257VV\214\340g\303"
 466      AF7E5522 
 466      3F31FD47 
 466      1A89AF56 
 466      568CE067 
 467 0886 7DDD168D 		.ascii	"}\335\026\215\334\374w\266\320U\233\327r\327\230\247"
 467      DCFC77B6 
 467      D0559BD7 
 467      72D798A7 
ARM GAS  /tmp/ccymQx5f.s 			page 36


 468 0896 09E724B4 		.ascii	"\011\347$\264\203\363\214Q\204\317\353\252L\321H\375"
 468      83F38C51 
 468      84CFEBAA 
 468      4CD148FD 
 469 08a6 2F81A149 		.ascii	"/\201\241I\203_\0119\265\237`\234\264\327\362\022j\027"
 469      835F0939 
 469      B59F609C 
 469      B4D7F212 
 469      6A17
 470 08b8 C76D3D1F 		.ascii	"\307m=\037\267o\034\305MUW\252\213sq\234\3257<\253o"
 470      B76F1CC5 
 470      4D5557AA 
 470      8B73719C 
 470      D5373CAB 
 471 08cd 85AC6E9C 		.ascii	"\205\254n\234H9R\375\"M\304o\330;\006N#G\304\276\336"
 471      483952FD 
 471      224DC46F 
 471      D83B064E 
 471      2347C4BE 
 472 08e2 2CE77CFD 		.ascii	",\347|\375\336\336Wf\3661\011Q/5[\227\304\254\327&D"
 472      DEDE5766 
 472      F6310951 
 472      2F355B97 
 472      C4ACD726 
 473 08f7 DFF3211A 		.ascii	"\337\363!\032\020\206\350\334I\256\343N\211\235\031"
 473      1086E8DC 
 473      49AEE34E 
 473      899D19
 474 0906 E49D191C 		.ascii	"\344\235\031\034Q\307\015\362\254n\010Y\355\177/\345"
 474      51C70DF2 
 474      AC6E0859 
 474      ED7F2FE5 
 475 0916 8EBB65DB 		.ascii	"\216\273e\333q\332\200K\334\347\213\372\361\234\330"
 475      71DA804B 
 475      DCE78BFA 
 475      F19CD8
 476 0925 F5B5BC66 		.ascii	"\365\265\274f\207\034\365\343a\377\014\375\227\366("
 476      871CF5E3 
 476      61FF0CFD 
 476      97F628
 477 0934 05B636A3 		.ascii	"\005\2666\243\354\230\331\0201\313'\223h_\022\253|\353"
 477      EC98D910 
 477      31CB2793 
 477      685F12AB 
 477      7CEB
 478 0946 300FF161 		.ascii	"0\017\361aVeQ\230\233\337\217w>\011\037\254\242\016"
 478      56655198 
 478      9BDF8F77 
 478      3E091FAC 
 478      A20E
 479 0958 47ED52D9 		.ascii	"G\355R\331I\004\216\350\021Pp\203lof\214\300\217,\002"
 479      49048EE8 
 479      11507083 
 479      6C6F668C 
 479      C08F2C02 
 480 096c 0A5E9CC4 		.ascii	"\012^\234\304\312&\002\304\310\024\201e\302\010\014"
 480      CA2602C4 
ARM GAS  /tmp/ccymQx5f.s 			page 37


 480      C8148165 
 480      C2080C
 481 097b AE78090E 		.ascii	"\256x\011\016\206\365\221Xl\032Ja\345X%'_9\006\035\306"
 481      86F59158 
 481      6C1A4A61 
 481      E5582527 
 481      5F39061D 
 482 0990 72A57D2C 		.ascii	"r\245},\231\177\365\334\312ae\305\010\256\021z\373\303"
 482      997FF5DC 
 482      CA6165C5 
 482      08AE117A 
 482      FBC3
 483 09a2 69ADBF5B 		.ascii	"i\255\277[\036\325\\\220\320\"\227\220\344\006\236\344"
 483      1ED55C90 
 483      D0229790 
 483      E4069EE4 
 484 09b2 FA1191B4 		.ascii	"\372\021\221\264\262b$\033\205$/\256~\037\003\205[d"
 484      B262241B 
 484      85242FAE 
 484      7E1F0385 
 484      5B64
 485 09c4 0BE57CF8 		.ascii	"\013\345|\3707\213z\304r\370O\023\015\377u\342X4\361"
 485      378B7AC4 
 485      72F84F13 
 485      0DFF75E2 
 485      5834F1
 486 09d7 B1687224 		.ascii	"\261hr$\376\363\274\370\255\315\214\342\277N\314\246"
 486      FEF3BCF8 
 486      ADCD8CE2 
 486      BF4ECCA6 
 487 09e7 91C63E49 		.ascii	"\221\306>I\322\3304k\3617\361\342\337,\214t\347\271"
 487      D2D8346B 
 487      F137F1E2 
 487      DF2C8C74 
 487      E7B9
 488 09f9 F8F06FA6 		.ascii	"\370\360o\246j\330.\216\300F>\002\255\216\"p\201\217"
 488      6AD82E8E 
 488      C0463E02 
 488      AD8E2270 
 488      818F
 489 0a0b 80B59931 		.ascii	"\200\265\2311\002\203\\\004\254\255l\"\320\312G\340"
 489      02835C04 
 489      ACAD6C22 
 489      D0CA47E0 
 490 0a1b 5561049A 		.ascii	"Ua\004\232\326'\206\277>$\3669\014\302\216\021\015\011"
 490      D62786BF 
 490      3E24F639 
 490      0CC28E11 
 490      0D09
 491 0a2d 2B2B46F3 		.ascii	"++F\363u!\315\306^~\334\036\027\223\034\266-\3359\""
 491      7521CDC6 
 491      5E7EDC1E 
 491      17931CB6 
 491      2DDD3922 
 492 0a41 9256568C 		.ascii	"\222VV\214\344[\303IF\311\337\265>\274\353\225\335\352"
 492      E45BC349 
 492      46C9DFB5 
ARM GAS  /tmp/ccymQx5f.s 			page 38


 492      3EBCEB95 
 492      DDEA
 493 0a53 A2E5EA4F 		.ascii	"\242\345\352O\261\347\261N\264\327\305\35725\214v\021"
 493      B1E7B14E 
 493      B4D7C5EF 
 493      32358C76 
 493      11
 494 0a64 46E4C32F 		.ascii	"F\344\303/z\36026\366u\204\257,\020v\013\021\016~\021"
 494      7AF03236 
 494      F67584AF 
 494      2C10760B 
 494      110E7E11 
 495 0a78 C11BD5A3 		.ascii	"\301\033\325\243\213\324X\354y\266\361\225P\314\002"
 495      8BD458EC 
 495      79B6F195 
 495      50CC02
 496 0a87 62AF10A2 		.ascii	"b\257\020\242\313DB\333\025\255\034%F\330/D8$@\330l"
 496      CB4442DB 
 496      15AD1C25 
 496      46D82F44 
 496      382440D8 
 497 0a9c 81D02944 		.ascii	"\201\320)D\3506!h\213\363\233\026\010]B\204s&\004m|"
 497      E8362168 
 497      8BF39B16 
 497      085D4284 
 497      7326046D 
 498 0ab1 775B201C 		.ascii	"w[ \0342#po\250H7XM\273\207\345\321\026V$\362\226\007"
 498      3223706F 
 498      A8483758 
 498      4DBB87E5 
 498      D1165624 
 499 0ac8 CC84D56D 		.ascii	"\314\204\325mh\015\235\341\037m\3161\274O\232`\363:"
 499      680D9DE1 
 499      1F6DCE31 
 499      BC4F9A60 
 499      F33A
 500 0ada 89FC9956 		.ascii	"\211\374\231VRpD&;\253\013\243\314/\203\014NE\330\177"
 500      52704426 
 500      3BAB0BA3 
 500      CC2F830C 
 500      4E45D87F 
 501 0aee 41887D24 		.ascii	"A\210}$~6'%\362RHt\036'VG\344\333h\211\222Q\343\336"
 501      7E362725 
 501      F2524874 
 501      1E275647 
 501      E4DB6889 
 502 0b06 645BEF05 		.ascii	"d[\357\005\3365\264\223\355J\024tb\314Cws\216\326:\303"
 502      DE35B493 
 502      ED4A1474 
 502      62CC4377 
 502      738ED63A 
 503 0b1b 7948AF97 		.ascii	"yH\257\227\311p\216\245\334\362q\213\2263\304=r\313"
 503      C9708EA5 
 503      DCF2718B 
 503      9633C43D 
 503      72CB
 504 0b2d A6474E58 		.ascii	"\246GNX\366\343A\233\337\372OZZ5\333h\246\307\322\252"
ARM GAS  /tmp/ccymQx5f.s 			page 39


 504      F6E3419B 
 504      DFFA4F5A 
 504      5A35DB68 
 504      A6C7D2AA 
 505 0b41 CF86E1A9 		.ascii	"\317\206\341\251\204\025\232\342\231_S\345\367\224\325"
 505      84159AE2 
 505      995F53E5 
 505      F794D5
 506 0b50 943FEB29 		.ascii	"\224?\353)\367/\364\224\315\017\224\006jB\236p\260\266"
 506      F72FF494 
 506      CD0F9406 
 506      6A429E70 
 506      B0B6
 507 0b62 FA190F14 		.ascii	"\372\031\017\024\346+\225\236@uYem\271\337S\253\004"
 507      E62B959E 
 507      40755965 
 507      6DB9DF53 
 507      AB04
 508 0b74 C393E6A3 		.ascii	"\303\223\346\2431\344\032\256\013\205\225\260\337\027"
 508      31E41AAE 
 508      0B8595B0 
 508      DF17
 509 0b82 CE787CF6 		.ascii	"\316x|\366\\w\001\312\236\233\357-\361\225<\351+*\234"
 509      5C7701CA 
 509      9E9BEF2D 
 509      F1953CE9 
 509      2B2A9C
 510 0b95 393D47BF 		.ascii	"9=G\277\311/()\372\323\364\\\375\266\340\211YsfN/\231"
 510      C92F2829 
 510      FAD3F45C 
 510      FDB6E089 
 510      5973664E 
 511 0bab 4E11823A 		.ascii	"N\021\202:\202f\3525\232z\315\246\336\204\251\307\011"
 511      8266EA35 
 511      9A7ACDA6 
 511      DE84A9C7 
 511      09
 512 0bbc E150B04C 		.ascii	"\341P\260L#[\206&{jCAOe\240\3243\257\254\314\243\004"
 512      235B8626 
 512      7B6A4341 
 512      4F65A0D4 
 512      33AFACCC 
 513 0bd2 ABEEAFAE 		.ascii	"\253\356\257\256\251\366\337\357WJ\003\236\251\223\036"
 513      A9F6DFEF 
 513      574A039E 
 513      A9931E
 514 0be1 9A3435EE 		.ascii	"\23245\356](\\^\356\257\000\3772B\201\277\001\255\307"
 514      5D285C5E 
 514      EEAF00FF 
 514      324281BF 
 514      01ADC7
 515 0bf4 9DB4B4A0 		.ascii	"\235\264\264\240&\030\016y\212KfM\231\354\2319\263\320"
 515      26180E79 
 515      8A4B664D 
 515      99EC9939 
 515      B3D0
 516 0c06 33B718F8 		.ascii	"3\267\030\370.\314\243\255\373*+\313\001n\024q\2410"
ARM GAS  /tmp/ccymQx5f.s 			page 40


 516      2ECCA3AD 
 516      FB2A2BCB 
 516      016E1471 
 516      A130
 517 0c18 1858E80F 		.ascii	"\030X\350\017\216&\217\231\327\243\251gsg\027\315.*"
 517      8E268F99 
 517      D7A3A967 
 517      736717CD 
 517      2E2A
 518 0c2a 71D17271 		.ascii	"q\321rq\311\023sFi\376N\317/|*\235V\314d\201\316d\341"
 518      C9137346 
 518      69FE4ECF 
 518      2F7C2A9D 
 518      56CC6481 
 519 0c41 CA221065 		.ascii	"\312\"\020e\245\276\260+\\\347\257.\317\363\225\225"
 519      A5BEB02B 
 519      5CE7AF2E 
 519      CFF39595 
 520 0c51 6AA5C950 		.ascii	"j\245\311P\312\012\222\022\024\356\245^\233\2755\370"
 520      CA0A9212 
 520      14EEA55E 
 520      9BBD35F8 
 521 0c61 19A826FD 		.ascii	"\031\250&\375\230U\013\327\274\007}\341\2516\265\253"
 521      98550BD7 
 521      BC077DE1 
 521      A936B5AB 
 522 0c71 14F0BBDA 		.ascii	"\024\360\273\332\357\361Al\224\332\312\260/\374\354"
 522      EFF1416C 
 522      94DACAB0 
 522      2FFCEC
 523 0c80 027F88B8 		.ascii	"\002\177\210\270\345\363\351\366.\312\211\222\012\326"
 523      E5F3E9F6 
 523      2ECA8992 
 523      0AD6
 524 0c8e 95CD5782 		.ascii	"\225\315W\202\300\200\272ZQ\251\314\013\371\302\264"
 524      C080BA5A 
 524      51A9CC0B 
 524      F9C2B4
 525 0c9d A129937D 		.ascii	"\241)\223}afC\212\324\306Ol\010\351 1I\017-\360\373"
 525      6166438A 
 525      D4C64F6C 
 525      08E92031 
 525      490F2DF0 
 526 0cb2 CBE5B260 		.ascii	"\313\345\262`\036\244\311\220\246\320h\024\324TW\004"
 526      1EA4C990 
 526      A6D06814 
 526      D4545704 
 527 0cc2 E66594D1 		.ascii	"\346e\224\321\313\303\311:\305_\027\366\024\314*.*\206"
 527      CBC3C93A 
 527      C55F17F6 
 527      14CC2A2E 
 527      2A86
 528 0cd4 4E0157AB 		.ascii	"N\001W\253\246L\256\230\372@^\235\237\350\226v\216\257"
 528      A64CAE98 
 528      FA405E9D 
 528      9FE89676 
 528      8EAF
ARM GAS  /tmp/ccymQx5f.s 			page 41


 529 0ce6 041C28F4 		.ascii	"\004\034(\364WH\305^\251\320+\377\301\353\225\013\274"
 529      5748C55E 
 529      A9D02BFF 
 529      C1EB950B 
 529      BC
 530 0cf7 79902643 		.ascii	"y\220&C\232\222\366x\311\034ozm\010\310e\226W)U5\345"
 530      9A92F678 
 530      C91C6F7A 
 530      6D08C865 
 530      96572955 
 531 0d0d FEC752D5 		.ascii	"\376\307R\325\001\315\037\233ZW\247\265\357\003\034"
 531      01CD1F9B 
 531      5A57A7B5 
 531      EF031C
 532 0d1c 687D5CE1 		.ascii	"h}\\\341\254|_q8\350W\252\342\024\012\274i\263\013K"
 532      AC7C5F71 
 532      38E857AA 
 532      E2140ABC 
 532      69B30B4B 
 533 0d30 BCF29C7C 		.ascii	"\274\362\234|o\332\254\007H\226\227\357\225\037+\360"
 533      6FDAAC07 
 533      489697EF 
 533      951F2BF0 
 534 0d40 668468C5 		.ascii	"f\204h\305\264@EY0\223\204\354!\210\230\026<(e\004B"
 534      B4404559 
 534      309384EC 
 534      21889816 
 534      3C286504 
 535 0d55 F3031561 		.ascii	"\363\003\025aW\310_Y\021\250.\367\327e,\364\227\205"
 535      57C85F59 
 535      11A82EF7 
 535      D7652CF4 
 535      9785
 536 0d67 6B82E3E2 		.ascii	"k\202\343\342\355\3714{_8\035n\202u$\017\327\245\007"
 536      EDF9347B 
 536      5F381D6E 
 536      8275240F 
 536      D7A507
 537 0d7a EB4A6B2B 		.ascii	"\353Jk+n'\201/\016\327,(\006\251\024MZ@\206\311\003"
 537      6E27812F 
 537      0ED72C28 
 537      06A9144D 
 537      5A4086C9 
 538 0d8f E9E4E182 		.ascii	"\351\344\341\202;\365\257\274\3762?\350\225}\233G5W"
 538      3BF5AFBC 
 538      FE323FE8 
 538      957D9B47 
 538      3557
 539 0da1 541D08E7 		.ascii	"T\035\010\347\220\302\023\245\177\201\326\310\255K\253"
 539      90C213A5 
 539      7F81D6C8 
 539      AD4BAB
 540 0db0 0F59966E 		.ascii	"\017Y\226n9&\376\210\300\343\352\3640i3\307\364\264"
 540      3926FE88 
 540      C0E3EAF4 
 540      306933C7 
 540      F4B4
ARM GAS  /tmp/ccymQx5f.s 			page 42


 541 0dc2 28DB4861 		.ascii	"(\333Ha\214\211On\274&\343p\033\377\240h,\3072\227g"
 541      8C894F6E 
 541      BC26E370 
 541      1BFFA068 
 541      2CC73297 
 542 0dd7 3D4E1F7C 		.ascii	"=N\037|\020\205\232\005\276\020\340\2167?\012j5\307"
 542      10859A05 
 542      BE10E08E 
 542      373F0A6A 
 542      35C7
 543 0de9 C49F0674 		.ascii	"\304\237\006t\347X\035(\2151\231\374\302\374%\005\275"
 543      E7581D28 
 543      8D3199FC 
 543      C2FC2505 
 543      BD
 544 0dfa 837BC650 		.ascii	"\203{\306P\323\310\010\370\037=\223\237|"
 544      D3C808F8 
 544      1F3D939F 
 544      7C
 545              		.text
 546              		.section	.gnu.lto_.symtab.b192c82092c7bbb2,"",%progbits
 547 0000 75617274 		.ascii	"uartInit\000\000\000\000\000\000\000\000\000\000\000"
 547      496E6974 
 547      00000000 
 547      00000000 
 547      000000
 548 0013 00670100 		.ascii	"\000g\001\000\000uartObjectInit\000\000\000\000\000"
 548      00756172 
 548      744F626A 
 548      65637449 
 548      6E697400 
 549 002b 00000000 		.ascii	"\000\000\000\000\000\000\000k\001\000\000uartStart\000"
 549      0000006B 
 549      01000075 
 549      61727453 
 549      74617274 
 550 0040 00000000 		.ascii	"\000\000\000\000\000\000\000\000\000\000\000o\001\000"
 550      00000000 
 550      0000006F 
 550      0100
 551 004e 00756172 		.ascii	"\000uartStop\000\000\000\000\000\000\000\000\000\000"
 551      7453746F 
 551      70000000 
 551      00000000 
 551      000000
 552 0061 00007701 		.ascii	"\000\000w\001\000\000uartStartSend\000\000\000\000\000"
 552      00007561 
 552      72745374 
 552      61727453 
 552      656E6400 
 553 0079 00000000 		.ascii	"\000\000\000\000\000\000\000{\001\000\000uartStartS"
 553      0000007B 
 553      01000075 
 553      61727453 
 553      74617274 
 554 008e 656E6449 		.ascii	"endI\000\000\000\000\000\000\000\000\000\000\000\000"
 554      00000000 
ARM GAS  /tmp/ccymQx5f.s 			page 43


 554      00000000 
 554      00000000 
 555 009e 87010000 		.ascii	"\207\001\000\000uartStopSend\000\000\000\000\000\000"
 555      75617274 
 555      53746F70 
 555      53656E64 
 555      00000000 
 556 00b4 00000000 		.ascii	"\000\000\000\000\000\000\215\001\000\000uartStopSen"
 556      00008D01 
 556      00007561 
 556      72745374 
 556      6F705365 
 557 00c9 64490000 		.ascii	"dI\000\000\000\000\000\000\000\000\000\000\000\000\223"
 557      00000000 
 557      00000000 
 557      000093
 558 00d8 01000075 		.ascii	"\001\000\000uartStartReceive\000\000\000\000\000\000"
 558      61727453 
 558      74617274 
 558      52656365 
 558      69766500 
 559 00f1 00000000 		.ascii	"\000\000\000\000\000\000\227\001\000\000uartStartRe"
 559      00009701 
 559      00007561 
 559      72745374 
 559      61727452 
 560 0106 63656976 		.ascii	"ceiveI\000\000\000\000\000\000\000\000\000\000\000\000"
 560      65490000 
 560      00000000 
 560      00000000 
 560      0000
 561 0118 A1010000 		.ascii	"\241\001\000\000uartStopReceive\000\000\000\000\000"
 561      75617274 
 561      53746F70 
 561      52656365 
 561      69766500 
 562 0130 00000000 		.ascii	"\000\000\000\000\000\000\000\247\001\000\000uartSto"
 562      000000A7 
 562      01000075 
 562      61727453 
 562      746F
 563 0142 70526563 		.ascii	"pReceiveI\000\000\000\000\000\000\000\000\000\000\000"
 563      65697665 
 563      49000000 
 563      00000000 
 563      00000000 
 564 0156 00AB0100 		.ascii	"\000\253\001\000\000uart_lld_stop_send\000\000\002\000"
 564      00756172 
 564      745F6C6C 
 564      645F7374 
 564      6F705F73 
 565 0171 00000000 		.ascii	"\000\000\000\000\000\000\000\000\257\001\000\000uar"
 565      00000000 
 565      AF010000 
 565      756172
 566 0180 745F6C6C 		.ascii	"t_lld_stop_receive\000\000\002\000\000\000\000\000\000"
 566      645F7374 
ARM GAS  /tmp/ccymQx5f.s 			page 44


 566      6F705F72 
 566      65636569 
 566      76650000 
 567 019b 000000B1 		.ascii	"\000\000\000\261\001\000\000uart_lld_init\000\000\002"
 567      01000075 
 567      6172745F 
 567      6C6C645F 
 567      696E6974 
 568 01b2 00000000 		.ascii	"\000\000\000\000\000\000\000\000\000\263\001\000\000"
 568      00000000 
 568      00B30100 
 568      00
 569 01bf 75617274 		.ascii	"uart_lld_start\000\000\002\000\000\000\000\000\000\000"
 569      5F6C6C64 
 569      5F737461 
 569      72740000 
 569      02000000 
 570 01d7 0000B501 		.ascii	"\000\000\265\001\000\000uart_lld_stop\000\000\002\000"
 570      00007561 
 570      72745F6C 
 570      6C645F73 
 570      746F7000 
 571 01ee 00000000 		.ascii	"\000\000\000\000\000\000\000\000\267\001\000\000uar"
 571      00000000 
 571      B7010000 
 571      756172
 572 01fd 745F6C6C 		.ascii	"t_lld_start_send\000\000\002\000\000\000\000\000\000"
 572      645F7374 
 572      6172745F 
 572      73656E64 
 572      00000200 
 573 0216 000000B9 		.ascii	"\000\000\000\271\001\000\000uart_lld_start_receive\000"
 573      01000075 
 573      6172745F 
 573      6C6C645F 
 573      73746172 
 574 0234 00020000 		.ascii	"\000\002\000\000\000\000\000\000\000\000\000\273\001"
 574      00000000 
 574      000000BB 
 574      01
 575 0241 0000     		.ascii	"\000\000"
 576              		.text
 577              		.section	.gnu.lto_.opts,"",%progbits
 578 0000 272D6D63 		.ascii	"'-mcpu=cortex-m4' '-mfloat-abi=hard' '-mfpu=fpv4-sp"
 578      70753D63 
 578      6F727465 
 578      782D6D34 
 578      2720272D 
 579 0033 2D643136 		.ascii	"-d16' '-mno-thumb-interwork' '-mthumb' '-O2' '-fomi"
 579      2720272D 
 579      6D6E6F2D 
 579      7468756D 
 579      622D696E 
 580 0066 742D6672 		.ascii	"t-frame-pointer' '-falign-functions=16' '-ffunction"
 580      616D652D 
 580      706F696E 
 580      74657227 
ARM GAS  /tmp/ccymQx5f.s 			page 45


 580      20272D66 
 581 0099 2D736563 		.ascii	"-sections' '-fdata-sections' '-fno-common' '-flto' "
 581      74696F6E 
 581      73272027 
 581      2D666461 
 581      74612D73 
 582 00cc 272D6673 		.ascii	"'-fsingle-precision-constant'\000"
 582      696E676C 
 582      652D7072 
 582      65636973 
 582      696F6E2D 
 583              		.text
 584              		.section	.text.uartInit,"ax",%progbits
 585              		.align	2
 586              		.p2align 4,,15
 587              		.global	uartInit
 588              		.thumb
 589              		.thumb_func
 590              		.type	uartInit, %function
 591              	uartInit:
 592              		@ args = 0, pretend = 0, frame = 0
 593              		@ frame_needed = 0, uses_anonymous_args = 0
 594              		@ link register save eliminated.
 595 0000 FFF7FEBF 		b	uart_lld_init
 596              		.size	uartInit, .-uartInit
 597 0004 AFF30080 		.section	.text.uartObjectInit,"ax",%progbits
 597      AFF30080 
 597      AFF30080 
 598              		.align	2
 599              		.p2align 4,,15
 600              		.global	uartObjectInit
 601              		.thumb
 602              		.thumb_func
 603              		.type	uartObjectInit, %function
 604              	uartObjectInit:
 605              		@ args = 0, pretend = 0, frame = 0
 606              		@ frame_needed = 0, uses_anonymous_args = 0
 607              		@ link register save eliminated.
 608 0000 0023     		movs	r3, #0
 609 0002 0122     		movs	r2, #1
 610 0004 0270     		strb	r2, [r0]
 611 0006 4370     		strb	r3, [r0, #1]
 612 0008 8370     		strb	r3, [r0, #2]
 613 000a 4360     		str	r3, [r0, #4]
 614 000c 7047     		bx	lr
 615              		.size	uartObjectInit, .-uartObjectInit
 616 000e 00BF     		.section	.text.uartStart,"ax",%progbits
 617              		.align	2
 618              		.p2align 4,,15
 619              		.global	uartStart
 620              		.thumb
 621              		.thumb_func
 622              		.type	uartStart, %function
 623              	uartStart:
 624              		@ args = 0, pretend = 0, frame = 0
 625              		@ frame_needed = 0, uses_anonymous_args = 0
 626 0000 10B5     		push	{r4, lr}
ARM GAS  /tmp/ccymQx5f.s 			page 46


 627 0002 2023     		movs	r3, #32
 628 0004 0446     		mov	r4, r0
 629              	@ 546 "/home/cody/dev/chibios/trunk/os/ext/CMSIS/include/core_cmFunc.h" 1
 630 0006 83F31188 		MSR basepri, r3
 631              	@ 0 "" 2
 632              		.thumb
 633 000a 4160     		str	r1, [r0, #4]
 634 000c FFF7FEFF 		bl	uart_lld_start
 635 0010 0223     		movs	r3, #2
 636 0012 2370     		strb	r3, [r4]
 637 0014 0023     		movs	r3, #0
 638              	@ 546 "/home/cody/dev/chibios/trunk/os/ext/CMSIS/include/core_cmFunc.h" 1
 639 0016 83F31188 		MSR basepri, r3
 640              	@ 0 "" 2
 641              		.thumb
 642 001a 10BD     		pop	{r4, pc}
 643              		.size	uartStart, .-uartStart
 644 001c AFF30080 		.section	.text.uartStop,"ax",%progbits
 645              		.align	2
 646              		.p2align 4,,15
 647              		.global	uartStop
 648              		.thumb
 649              		.thumb_func
 650              		.type	uartStop, %function
 651              	uartStop:
 652              		@ args = 0, pretend = 0, frame = 0
 653              		@ frame_needed = 0, uses_anonymous_args = 0
 654 0000 10B5     		push	{r4, lr}
 655 0002 2023     		movs	r3, #32
 656 0004 0446     		mov	r4, r0
 657              	@ 546 "/home/cody/dev/chibios/trunk/os/ext/CMSIS/include/core_cmFunc.h" 1
 658 0006 83F31188 		MSR basepri, r3
 659              	@ 0 "" 2
 660              		.thumb
 661 000a FFF7FEFF 		bl	uart_lld_stop
 662 000e 0023     		movs	r3, #0
 663 0010 0122     		movs	r2, #1
 664 0012 2270     		strb	r2, [r4]
 665 0014 6370     		strb	r3, [r4, #1]
 666 0016 A370     		strb	r3, [r4, #2]
 667              	@ 546 "/home/cody/dev/chibios/trunk/os/ext/CMSIS/include/core_cmFunc.h" 1
 668 0018 83F31188 		MSR basepri, r3
 669              	@ 0 "" 2
 670              		.thumb
 671 001c 10BD     		pop	{r4, pc}
 672              		.size	uartStop, .-uartStop
 673 001e 00BF     		.section	.text.uartStartSend,"ax",%progbits
 674              		.align	2
 675              		.p2align 4,,15
 676              		.global	uartStartSend
 677              		.thumb
 678              		.thumb_func
 679              		.type	uartStartSend, %function
 680              	uartStartSend:
 681              		@ args = 0, pretend = 0, frame = 0
 682              		@ frame_needed = 0, uses_anonymous_args = 0
 683 0000 10B5     		push	{r4, lr}
ARM GAS  /tmp/ccymQx5f.s 			page 47


 684 0002 2023     		movs	r3, #32
 685 0004 0446     		mov	r4, r0
 686              	@ 546 "/home/cody/dev/chibios/trunk/os/ext/CMSIS/include/core_cmFunc.h" 1
 687 0006 83F31188 		MSR basepri, r3
 688              	@ 0 "" 2
 689              		.thumb
 690 000a FFF7FEFF 		bl	uart_lld_start_send
 691 000e 0123     		movs	r3, #1
 692 0010 6370     		strb	r3, [r4, #1]
 693 0012 0023     		movs	r3, #0
 694              	@ 546 "/home/cody/dev/chibios/trunk/os/ext/CMSIS/include/core_cmFunc.h" 1
 695 0014 83F31188 		MSR basepri, r3
 696              	@ 0 "" 2
 697              		.thumb
 698 0018 10BD     		pop	{r4, pc}
 699              		.size	uartStartSend, .-uartStartSend
 700              		.section	.text.uartStartSendI,"ax",%progbits
 701              		.align	2
 702              		.p2align 4,,15
 703              		.global	uartStartSendI
 704              		.thumb
 705              		.thumb_func
 706              		.type	uartStartSendI, %function
 707              	uartStartSendI:
 708              		@ args = 0, pretend = 0, frame = 0
 709              		@ frame_needed = 0, uses_anonymous_args = 0
 710 0000 10B5     		push	{r4, lr}
 711 0002 0446     		mov	r4, r0
 712 0004 FFF7FEFF 		bl	uart_lld_start_send
 713 0008 0123     		movs	r3, #1
 714 000a 6370     		strb	r3, [r4, #1]
 715 000c 10BD     		pop	{r4, pc}
 716              		.size	uartStartSendI, .-uartStartSendI
 717 000e 00BF     		.section	.text.uartStopSend,"ax",%progbits
 718              		.align	2
 719              		.p2align 4,,15
 720              		.global	uartStopSend
 721              		.thumb
 722              		.thumb_func
 723              		.type	uartStopSend, %function
 724              	uartStopSend:
 725              		@ args = 0, pretend = 0, frame = 0
 726              		@ frame_needed = 0, uses_anonymous_args = 0
 727 0000 10B5     		push	{r4, lr}
 728 0002 2023     		movs	r3, #32
 729 0004 0446     		mov	r4, r0
 730              	@ 546 "/home/cody/dev/chibios/trunk/os/ext/CMSIS/include/core_cmFunc.h" 1
 731 0006 83F31188 		MSR basepri, r3
 732              	@ 0 "" 2
 733              		.thumb
 734 000a 4378     		ldrb	r3, [r0, #1]	@ zero_extendqisi2
 735 000c 012B     		cmp	r3, #1
 736 000e 04D0     		beq	.L11
 737 0010 0020     		movs	r0, #0
 738 0012 0023     		movs	r3, #0
 739              	@ 546 "/home/cody/dev/chibios/trunk/os/ext/CMSIS/include/core_cmFunc.h" 1
 740 0014 83F31188 		MSR basepri, r3
ARM GAS  /tmp/ccymQx5f.s 			page 48


 741              	@ 0 "" 2
 742              		.thumb
 743 0018 10BD     		pop	{r4, pc}
 744              	.L11:
 745 001a FFF7FEFF 		bl	uart_lld_stop_send
 746 001e 0023     		movs	r3, #0
 747 0020 6370     		strb	r3, [r4, #1]
 748 0022 0023     		movs	r3, #0
 749              	@ 546 "/home/cody/dev/chibios/trunk/os/ext/CMSIS/include/core_cmFunc.h" 1
 750 0024 83F31188 		MSR basepri, r3
 751              	@ 0 "" 2
 752              		.thumb
 753 0028 10BD     		pop	{r4, pc}
 754              		.size	uartStopSend, .-uartStopSend
 755 002a 00BFAFF3 		.section	.text.uartStopSendI,"ax",%progbits
 755      0080
 756              		.align	2
 757              		.p2align 4,,15
 758              		.global	uartStopSendI
 759              		.thumb
 760              		.thumb_func
 761              		.type	uartStopSendI, %function
 762              	uartStopSendI:
 763              		@ args = 0, pretend = 0, frame = 0
 764              		@ frame_needed = 0, uses_anonymous_args = 0
 765 0000 4378     		ldrb	r3, [r0, #1]	@ zero_extendqisi2
 766 0002 012B     		cmp	r3, #1
 767 0004 10B5     		push	{r4, lr}
 768 0006 0446     		mov	r4, r0
 769 0008 01D0     		beq	.L15
 770 000a 0020     		movs	r0, #0
 771 000c 10BD     		pop	{r4, pc}
 772              	.L15:
 773 000e FFF7FEFF 		bl	uart_lld_stop_send
 774 0012 0023     		movs	r3, #0
 775 0014 6370     		strb	r3, [r4, #1]
 776 0016 10BD     		pop	{r4, pc}
 777              		.size	uartStopSendI, .-uartStopSendI
 778 0018 AFF30080 		.section	.text.uartStartReceive,"ax",%progbits
 778      AFF30080 
 779              		.align	2
 780              		.p2align 4,,15
 781              		.global	uartStartReceive
 782              		.thumb
 783              		.thumb_func
 784              		.type	uartStartReceive, %function
 785              	uartStartReceive:
 786              		@ args = 0, pretend = 0, frame = 0
 787              		@ frame_needed = 0, uses_anonymous_args = 0
 788 0000 10B5     		push	{r4, lr}
 789 0002 2023     		movs	r3, #32
 790 0004 0446     		mov	r4, r0
 791              	@ 546 "/home/cody/dev/chibios/trunk/os/ext/CMSIS/include/core_cmFunc.h" 1
 792 0006 83F31188 		MSR basepri, r3
 793              	@ 0 "" 2
 794              		.thumb
 795 000a FFF7FEFF 		bl	uart_lld_start_receive
ARM GAS  /tmp/ccymQx5f.s 			page 49


 796 000e 0123     		movs	r3, #1
 797 0010 A370     		strb	r3, [r4, #2]
 798 0012 0023     		movs	r3, #0
 799              	@ 546 "/home/cody/dev/chibios/trunk/os/ext/CMSIS/include/core_cmFunc.h" 1
 800 0014 83F31188 		MSR basepri, r3
 801              	@ 0 "" 2
 802              		.thumb
 803 0018 10BD     		pop	{r4, pc}
 804              		.size	uartStartReceive, .-uartStartReceive
 805              		.section	.text.uartStartReceiveI,"ax",%progbits
 806              		.align	2
 807              		.p2align 4,,15
 808              		.global	uartStartReceiveI
 809              		.thumb
 810              		.thumb_func
 811              		.type	uartStartReceiveI, %function
 812              	uartStartReceiveI:
 813              		@ args = 0, pretend = 0, frame = 0
 814              		@ frame_needed = 0, uses_anonymous_args = 0
 815 0000 10B5     		push	{r4, lr}
 816 0002 0446     		mov	r4, r0
 817 0004 FFF7FEFF 		bl	uart_lld_start_receive
 818 0008 0123     		movs	r3, #1
 819 000a A370     		strb	r3, [r4, #2]
 820 000c 10BD     		pop	{r4, pc}
 821              		.size	uartStartReceiveI, .-uartStartReceiveI
 822 000e 00BF     		.section	.text.uartStopReceive,"ax",%progbits
 823              		.align	2
 824              		.p2align 4,,15
 825              		.global	uartStopReceive
 826              		.thumb
 827              		.thumb_func
 828              		.type	uartStopReceive, %function
 829              	uartStopReceive:
 830              		@ args = 0, pretend = 0, frame = 0
 831              		@ frame_needed = 0, uses_anonymous_args = 0
 832 0000 10B5     		push	{r4, lr}
 833 0002 2023     		movs	r3, #32
 834 0004 0446     		mov	r4, r0
 835              	@ 546 "/home/cody/dev/chibios/trunk/os/ext/CMSIS/include/core_cmFunc.h" 1
 836 0006 83F31188 		MSR basepri, r3
 837              	@ 0 "" 2
 838              		.thumb
 839 000a 8378     		ldrb	r3, [r0, #2]	@ zero_extendqisi2
 840 000c 012B     		cmp	r3, #1
 841 000e 04D0     		beq	.L21
 842 0010 0020     		movs	r0, #0
 843 0012 0023     		movs	r3, #0
 844              	@ 546 "/home/cody/dev/chibios/trunk/os/ext/CMSIS/include/core_cmFunc.h" 1
 845 0014 83F31188 		MSR basepri, r3
 846              	@ 0 "" 2
 847              		.thumb
 848 0018 10BD     		pop	{r4, pc}
 849              	.L21:
 850 001a FFF7FEFF 		bl	uart_lld_stop_receive
 851 001e 0023     		movs	r3, #0
 852 0020 A370     		strb	r3, [r4, #2]
ARM GAS  /tmp/ccymQx5f.s 			page 50


 853 0022 0023     		movs	r3, #0
 854              	@ 546 "/home/cody/dev/chibios/trunk/os/ext/CMSIS/include/core_cmFunc.h" 1
 855 0024 83F31188 		MSR basepri, r3
 856              	@ 0 "" 2
 857              		.thumb
 858 0028 10BD     		pop	{r4, pc}
 859              		.size	uartStopReceive, .-uartStopReceive
 860 002a 00BFAFF3 		.section	.text.uartStopReceiveI,"ax",%progbits
 860      0080
 861              		.align	2
 862              		.p2align 4,,15
 863              		.global	uartStopReceiveI
 864              		.thumb
 865              		.thumb_func
 866              		.type	uartStopReceiveI, %function
 867              	uartStopReceiveI:
 868              		@ args = 0, pretend = 0, frame = 0
 869              		@ frame_needed = 0, uses_anonymous_args = 0
 870 0000 8378     		ldrb	r3, [r0, #2]	@ zero_extendqisi2
 871 0002 012B     		cmp	r3, #1
 872 0004 10B5     		push	{r4, lr}
 873 0006 0446     		mov	r4, r0
 874 0008 01D0     		beq	.L25
 875 000a 0020     		movs	r0, #0
 876 000c 10BD     		pop	{r4, pc}
 877              	.L25:
 878 000e FFF7FEFF 		bl	uart_lld_stop_receive
 879 0012 0023     		movs	r3, #0
 880 0014 A370     		strb	r3, [r4, #2]
 881 0016 10BD     		pop	{r4, pc}
 882              		.size	uartStopReceiveI, .-uartStopReceiveI
 883              		.comm	__gnu_lto_v1,1,1
 884 0018 AFF30080 		.ident	"GCC: (GNU Tools for ARM Embedded Processors) 4.8.4 20140526 (release) [ARM/embedded-4_8-br
 884      AFF30080 
ARM GAS  /tmp/ccymQx5f.s 			page 51

