ARM GAS  /tmp/ccK3Q1KP.s 			page 1


   1              		.syntax unified
   2              		.cpu cortex-m4
   3              		.eabi_attribute 27, 3
   4              		.eabi_attribute 28, 1
   5              		.fpu fpv4-sp-d16
   6              		.eabi_attribute 20, 1
   7              		.eabi_attribute 21, 1
   8              		.eabi_attribute 23, 3
   9              		.eabi_attribute 24, 1
  10              		.eabi_attribute 25, 1
  11              		.eabi_attribute 26, 1
  12              		.eabi_attribute 30, 2
  13              		.eabi_attribute 34, 1
  14              		.eabi_attribute 18, 4
  15              		.thumb
  16              		.file	"umath.c"
  17              		.section	.gnu.lto_.jmpfuncs.59e7f7e2714f38ba,"",%progbits
  18 0000 789C6362 		.ascii	"x\234cb`b\300\006\304\24143\0033#3\023\020\002\331e"
  18      6062C006 
  18      C4A13433 
  18      03332333 
  18      131002D9 
  19 0015 202E0323 		.ascii	" .\003#\220b\000\000\014T\001 "
  19      90620000 
  19      0C540120 
  20              		.text
  21              		.section	.gnu.lto_.inline.59e7f7e2714f38ba,"",%progbits
  22 0000 789C6362 		.ascii	"x\234cb`b\300\006\266@if\006\006\336\343\014\214\314"
  22      6062C006 
  22      B6406966 
  22      0606DEE3 
  22      0C8CCC
  23 0013 8CA9118C 		.ascii	"\214\251\021\214\231\214 \021\306\0248\013D\262\002"
  23      998C2011 
  23      C614380B 
  23      44B202
  24 0022 31DB0279 		.ascii	"1\333\002y&\006\226\005\362\002\014\034\3176\261p0p"
  24      26069605 
  24      F2020C1C 
  24      CF36B170 
  24      3070
  25 0034 743C6166 		.ascii	"t<afa\020\340`\001)b\340\224\003jO\007i\002\251g\314"
  25      6110E060 
  25      012962E0 
  25      94036A4F 
  25      076902A9 
  26 004a 80B34004 		.ascii	"\200\263@\004\013\252\366\013S\2309\200\032\201\202"
  26      0BAAF60B 
  26      53983980 
  26      1A8182
  27 0059 4C0C9C3C 		.ascii	"L\014\234<0}\014p}pk\231Q\364\201\014\342e\340``\232"
  27      307D0C70 
  27      7D706B99 
  27      51F4810C 
  27      E265E060 
  28 006f E037C18F 		.ascii	"\3407\301\217\001\000\243\237\024e"
  28      0100A39F 
ARM GAS  /tmp/ccK3Q1KP.s 			page 2


  28      1465
  29              		.text
  30              		.section	.gnu.lto_.pureconst.59e7f7e2714f38ba,"",%progbits
  31 0000 789C6362 		.ascii	"x\234cb`b`g\200\000f\006\006F \027\000\000\341\000\022"
  31      60626067 
  31      80006606 
  31      06462017 
  31      0000E100 
  32              		.text
  33              		.section	.gnu.lto_powf.part.0.59e7f7e2714f38ba,"",%progbits
  34 0000 789C8553 		.ascii	"x\234\205S=k\024Q\024\275\347\275y\0373\263\037\250"
  34      3D6B1451 
  34      14BDE7BD 
  34      791F33B3 
  34      1FA8
  35 0012 D82C0A21 		.ascii	"\330,\012!?\300\306\312\237`oP\313e\221q\3014\232\330"
  35      3FC0C6CA 
  35      9F606F50 
  35      CB659171 
  35      C1349AD8 
  36 0026 E6ADBB45 		.ascii	"\346\255\273E\224\025V+-\004\203\030\220\015XX\331\271"
  36      9415562B 
  36      2D048318 
  36      900D5858 
  36      D9B9
  37 0038 20B88444 		.ascii	" \270\204DI#l\027\024\025\214\205`Ju\274\357\355\314"
  37      49236C17 
  37      14158C85 
  37      604A75BC 
  37      EFEDCC
  38 004b E6A3F1C1 		.ascii	"\346\243\361\301\314\231{\336=o\316\275wF\220\240\343"
  38      CC997BDE 
  38      3D6FCEBD 
  38      774690A0 
  38      E3
  39 005c EB365F1F 		.ascii	"\3536_\037\231>\305\210\224\220\014\336\363C\002\021"
  39      993EC588 
  39      94900CDE 
  39      F3430211 
  40 006c 5088A877 		.ascii	"P\210\250w\201\\\"\373\247\311U$l`#\350\200j\212#\253"
  40      815C22FB 
  40      A7C95524 
  40      6C6023E8 
  40      806A8A23 
  41 0081 85EABF23 		.ascii	"\205\352\277#\316\213{\206\363\3144od\2550\207\371\030"
  41      CE8B7B86 
  41      F3CC346F 
  41      64AD3087 
  41      F918
  42 0093 F03C8156 		.ascii	"\360<\201V\022!#\245\215\215\261r\025\336\207\230\247"
  42      122123A5 
  42      8D8DB172 
  42      15DE8798 
  42      A7
  43 00a4 35E706BB 		.ascii	"5\347\006\273_>\334?\357\236\336\031\270\277y\2166\330"
  43      5F3EDC3F 
  43      EF9EDE19 
ARM GAS  /tmp/ccK3Q1KP.s 			page 3


  43      B8BF798E 
  43      36D8
  44 00b6 710A6A81 		.ascii	"q\012j\201\256p\200\271\000\":Z\302T\371\346\317\376"
  44      AE7080B9 
  44      00223A5A 
  44      C254F9E6 
  44      CFFE
  45 00c8 18EEA1EB 		.ascii	"\030\356\241\353\374\314\363z\033R\320\311\377\011_"
  45      FCCCF37A 
  45      1B52D0C9 
  45      FF095F
  46 00d7 0AB79BE7 		.ascii	"\012\267\233\347\257/\237\000\026\375\233\232X\303<"
  46      AF2F9F00 
  46      16FD9B9A 
  46      58C33C
  47 00e6 490E1015 		.ascii	"I\016\020\025\201b|\306\250\0134\005o\013\214\013>)"
  47      81627CC6 
  47      A80B3405 
  47      6F0B8C0B 
  47      3E29
  48 00f8 3025F65C 		.ascii	"0%\366\\)\202j\221T+\342z\021\363R\324c\317sS\276d["
  48      29826A91 
  48      542BE27A 
  48      11F352D4 
  48      63CF7353 
  49 010f A11397F8 		.ascii	"\241\023\227\370\276\0233$\014r\001\302\303\230\336"
  49      BE133324 
  49      0C7201C2 
  49      C398DE
  50 011e 7E1D3D38 		.ascii	"~\035=8\333\304s(\312\000_\316\221j\026 i[H\242\011"
  50      DBC47328 
  50      CA005FCE 
  50      916A1620 
  50      695B48A2 
  51 0133 55FC263F 		.ascii	"U\374&?\211\376\236\236P\265A\217\335\252\033X\236C"
  51      89FE9E9E 
  51      50B5418F 
  51      DDAA1B58 
  51      9E43
  52 0145 B97C6349 		.ascii	"\271|cI\354\033/\213\250g\202\254V\3126\356\262\254"
  52      EC1B2F8B 
  52      A86782AC 
  52      56CA36EE 
  52      B2AC
  53 0157 DEC43A1A 		.ascii	"\336\304:\032$~\177\323>K\021\017RnS\367^\367\325w\224"
  53      247E7FD3 
  53      3E4B110F 
  53      526E53F7 
  53      5EF7D577 
  54 016c 36A20C22 		.ascii	"6\242\014\"\363\032\336X\355\0167e\271\2413\250p\034"
  54      F31ADE58 
  54      ED0E3765 
  54      B9A133A8 
  54      701C
  55 017e 66F634F1 		.ascii	"f\3664\361\354C\035\0355+\203\323\312\002&\2442\324"
  55      EC431D1D 
  55      352B83D3 
ARM GAS  /tmp/ccK3Q1KP.s 			page 4


  55      CA0226A4 
  55      32D4
  56 0190 22A6B47A 		.ascii	"\"\246\264zd&\304\007\327}\024\251\255\027\301\250\241"
  56      6426C407 
  56      D77D14A9 
  56      AD17C1A8 
  56      A1
  57 01a1 F58677F0 		.ascii	"\365\206w\360\244\273\2679s`3\230\003\007\237?\315\034"
  57      A4BBB739 
  57      73603398 
  57      03079F3F 
  57      CD1C
  58 01b3 2419E263 		.ascii	"$\031\342c\016,\375:35\220\0362\020\037\030\2103\360"
  58      0E2CFD3A 
  58      3335901E 
  58      32101F18 
  58      8833F0
  59 01c6 37CE5A33 		.ascii	"7\316Z3f\003|n\325G\326l\014C\017b?\210\035\352p'3\376"
  59      66037C6E 
  59      D547D66C 
  59      0C430F62 
  59      3F881DEA 
  60 01de 558224E5 		.ascii	"U\202$\345\016\350\037\027\331\205\335\032\302\017\017"
  60      0EE81F17 
  60      D985DD1A 
  60      C20F0F
  61 01ed 9CE57F33 		.ascii	"\234\345\1773\273\274\330\\\272~\256E\372\346\265[\313"
  61      BBBCD85C 
  61      BA7EAE45 
  61      FAE6B55B 
  61      CB
  62 01fe 3796D0FE 		.ascii	"7\226\320\376\007>\210\257l"
  62      073E88AF 
  62      6C
  63              		.text
  64              		.section	.gnu.lto_pow.59e7f7e2714f38ba,"",%progbits
  65 0000 789C8D52 		.ascii	"x\234\215RMK\033Q\024=\347}\315$\021\304\225\024J\021"
  65      4D4B1B51 
  65      143DE77D 
  65      CD2411C4 
  65      95144A11 
  66 0014 7F80F51F 		.ascii	"\177\200\365\037\224\342\322\255\001]\006-\323@\335"
  66      94E2D2AD 
  66      015D062D 
  66      D340DD
  67 0023 F8B176F2 		.ascii	"\370\261v\362\001-\301E\010t\337\020\202 \226\342\262"
  67      012DC145 
  67      0874DF10 
  67      822096E2 
  67      B2
  68 0034 C5458296 		.ascii	"\305E\202\226\246\213\024\012\335\004\\\004\244tS\212"
  68      A68B140A 
  68      DD045C04 
  68      A474538A 
  69 0044 0B772D1D 		.ascii	"\013w-\035\357K&R\273\321\013\363\316\273\367\334{\337"
  69      EF4B2652 
  69      BBD10BF3 
ARM GAS  /tmp/ccK3Q1KP.s 			page 5


  69      CEBBF7DC 
  69      7BDF
  70 0056 99FB9E82 		.ascii	"\231\373\236\202\302\377\266,\337S\011\317\0122\000"
  70      C2FFB62C 
  70      DF5309CF 
  70      0A3200
  71 0065 55FD0B50 		.ascii	"U\375\013P\012\225r'\217\020g\365\267\307\210\2474\255"
  71      0A957227 
  71      8F1067F5 
  71      B7C788A7 
  71      34AD
  72 0077 0FD38CB1 		.ascii	"\017\323\214\261\033Ze\366?AxW\015\204w\244\217\203"
  72      1B5A65F6 
  72      3F417857 
  72      0D8477A4 
  72      8F83
  73 0089 D853DA58 		.ascii	"\330S\332X\307\2755\372\346z\036\3158n\014?\276|\375"
  73      C7BD35FA 
  73      E67A1ECD 
  73      386E0C3F 
  73      BE7CFD
  74 009c A0F6A65C 		.ascii	"\240\366\246\\\217\377&\011\213\024\0319b\235X\025\207"
  74      8FFF2609 
  74      8B141939 
  74      629D5815 
  74      87
  75 00ad 732350E6 		.ascii	"s#P\346\266\256Qe\275\363\376\252\307\270\021\227.\223"
  75      B6AE5165 
  75      BDF3FEAA 
  75      C7B81197 
  75      2E93
  76 00bf 64BA48AD 		.ascii	"d\272H\2550}\317\302\017\033\275\270\332I\222'\243\252"
  76      307DCFC2 
  76      0F1BBDB8 
  76      DA499227 
  76      A3AA
  77 00d1 99BBAADE 		.ascii	"\231\273\252\336\251\3160I\376\224\337r\212(\260\305"
  77      A9CE3049 
  77      FE94DF72 
  77      8A28B0C5 
  78 00e1 79115960 		.ascii	"y\021Y`[PCZ\030n\0226e\\\312\004\202M\301PHf\322`6M"
  78      5B50435A 
  78      186E1236 
  78      655CCA04 
  78      824DC150 
  79 00fb 12B3A88A 		.ascii	"\022\263\250\212\224\271\261?f\341u\210\255\310z\232"
  79      94B9B13F 
  79      66E17588 
  79      ADC87A9A 
  80 010b 439E4A40 		.ascii	"C\236J@\367p\366\243{\374\260\300\003ZD4^\341-yyjT\003"
  80      F770F6A3 
  80      7BFCB0C0 
  80      035A4434 
  80      5EE12D79 
  81 0123 0D0C603D 		.ascii	"\015\014`=);\365\363\302\015\340F\236L\364\274\025\370"
  81      293BF5F3 
  81      C20DE046 
ARM GAS  /tmp/ccK3Q1KP.s 			page 6


  81      9E4CF4BC 
  81      15F8
  82 0135 3403B917 		.ascii	"4\003\271\027\335G\245Vi}\346\244a&\242\212\030\002"
  82      DD47A556 
  82      697DE6A4 
  82      6126A28A 
  82      1802
  83 0147 42BCAAFC 		.ascii	"B\274\252\374\036\352\011\221\215\310\264\303\344 \013"
  83      1EEA0991 
  83      8DC8B4C3 
  83      E4200B
  84 0156 B94AF651 		.ascii	"\271J\366Q\376U9\274i\020H\036 2\277\227r\377\304n\206"
  84      FE5539BC 
  84      6910481E 
  84      2032BF97 
  84      72FFC46E 
  85 016b 3800235A 		.ascii	"8\000#Z-K\326\364\202\001\3444\347\275\214\331o;\337"
  85      2D4BD6F4 
  85      8201E434 
  85      E7BD8CD9 
  85      6F3BDF
  86 017e D5F9DFFC 		.ascii	"\325\371\337\374*\017\013R\251\307%z\242\375hI\364\331"
  86      2A0F0B52 
  86      A9C7257A 
  86      A2FD6849 
  86      F4D9
  87 0190 A336FD5C 		.ascii	"\2436\375\\(\231\376\231\206\273\233\205\235\347\013"
  87      2899FE99 
  87      86BB9B85 
  87      9DE70B
  88 019f EBD0C585 		.ascii	"\353\320\305\205E\026\335\326\263\355\335\027;\327#"
  88      4516DDD6 
  88      B3EDDD17 
  88      3BD723
  89 01ae CC899F   		.ascii	"\314\211\237"
  90              		.text
  91              		.section	.gnu.lto_powf.59e7f7e2714f38ba,"",%progbits
  92 0000 789C5D50 		.ascii	"x\234]P\261J\003Q\020\234\331}'g\010\230ZD\374\002\305"
  92      B14A0351 
  92      109CD97D 
  92      27670898 
  92      5A44FC02 
  93 0015 AFC80F24 		.ascii	"\257\310\017$\020\313pErE\272XYd\205\010\226Wj\231\037"
  93      10CB7045 
  93      7245BA58 
  93      59648508 
  93      96576A99 
  94 002a 487E2045 		.ascii	"H~ E\002\026\026!\022Hce\032\021,\005\033\233\270\357"
  94      02161621 
  94      12486365 
  94      1A112C05 
  94      1B9BB8EF 
  95 003e 48401C98 		.ascii	"H@\034\230]v\337\3542\373\004\202\377\270t\2769+N&\240"
  95      5D76DFEC 
  95      32FB0482 
  95      FFB874BE 
  95      392B4E26 
ARM GAS  /tmp/ccK3Q1KP.s 			page 7


  96 0053 144BE036 		.ascii	"\024K\3406\025\011\323SXE\327\027\260\2522\3046\003"
  96      1509D353 
  96      5845D717 
  96      B0AA32C4 
  96      3603
  97 0065 19338881 		.ascii	"\0313\210\201h\340\340\212\345\216\211\3146\333\355"
  97      68E0E08A 
  97      E58E89CC 
  97      36DBED
  98 0074 F86BF899 		.ascii	"\370k\370\231\034\0209!\354\021\352\201!\226\216\004"
  98      1C103921 
  98      EC11EA81 
  98      21968E04 
  99 0084 43B3E20C 		.ascii	"C\263\342\014\310\312\262\341\361\375\010M\212'}\306"
  99      C8CAB2E1 
  99      F1FD084D 
  99      8A277DC6 
 100 0094 D3C7FCFB 		.ascii	"\323\307\374\373\244\315\221;\350PZ\314\311\277&\233"
 100      A4CD913B 
 100      E8505ACC 
 100      C9BF269B 
 101 00a4 54AC0EF5 		.ascii	"T\254\016\365\005w\351^\024n\360c\017V\313)\331N\334"
 101      0577E95E 
 101      146EF063 
 101      0F56CB29 
 101      D94EDC
 102 00b7 A1FA70EE 		.ascii	"\241\372p\356\332\335P\210\313W~M|+5\257\3401\036\355"
 102      DADD5088 
 102      CB577E4D 
 102      7C2B35AF 
 102      E0311EED 
 103 00cb DE0AEFD9 		.ascii	"\336\012\357\331\036\214\036eQ\367\255\312h\216>\030"
 103      1E8C1E65 
 103      51F7ADCA 
 103      688E3E18 
 104 00db BF2ABDEE 		.ascii	"\277*\275\356\265\373\335\363\014\277W\2219}"
 104      B5FBDDF3 
 104      0CBF5791 
 104      397D
 105              		.text
 106              		.section	.gnu.lto_.symbol_nodes.59e7f7e2714f38ba,"",%progbits
 107 0000 789C6362 		.ascii	"x\234cb`b0a\200\002&\246z\006\206\011\347\030\030\352"
 107      60623061 
 107      800226A6 
 107      7A068609 
 107      E71818EA 
 108 0014 EBE77630 		.ascii	"\353\347v021\3243By\363\200<\306z&\004\217\231\211\201"
 108      3231D433 
 108      4279F380 
 108      3CC67A26 
 108      048F9989 
 109 0029 61D18A73 		.ascii	"a\321\212s\214\014\000vb\016h"
 109      8C0C0076 
 109      620E68
 110              		.text
 111              		.section	.gnu.lto_.refs.59e7f7e2714f38ba,"",%progbits
 112 0000 789C6362 		.ascii	"x\234cb`b`d\200\002\000\000F\000\006"
ARM GAS  /tmp/ccK3Q1KP.s 			page 8


 112      60626064 
 112      80020000 
 112      460006
 113              		.text
 114              		.section	.gnu.lto_.decls.59e7f7e2714f38ba,"",%progbits
 115 0000 789CA554 		.ascii	"x\234\245TAh\023A\024\375\177\2236I\033\252x\350\321"
 115      41681341 
 115      14FD7F93 
 115      36491BAA 
 115      78E8D1
 116 0013 F6503D54 		.ascii	"\366P=T\273)\326\263\010\036\314I\274\024\274-\323v"
 116      BB29D6B3 
 116      081ECC49 
 116      BC14BC2D 
 116      D376
 117 0025 4B034D1A 		.ascii	"K\003M\032\222\015\342\245N\013\025)Ec\241\007/\265"
 117      920DE2A5 
 117      4E0B1529 
 117      4563A107 
 117      2FB5
 118 0037 AD0D3460 		.ascii	"\255\0154`\264\246\030\021\254D\264%R\221^\274y\210"
 118      B4A61811 
 118      AC44B425 
 118      52915EBC 
 118      7988
 119 0049 E05D040F 		.ascii	"\340]\004\017\036\204\365\317\354lM\326\244\215:\360"
 119      1E84F5CF 
 119      EC6C4DD6 
 119      A48D3AF0 
 120 0059 D8D999FF 		.ascii	"\330\331\231\377\336\314\274y\273\032h\360\035\000l"
 120      DECCBC79 
 120      BB1A68F0 
 120      1D006C
 121 0068 6AFB6D00 		.ascii	"j\373m\000O\251\357'\\ h\204vB\000\234\346#\254\022"
 121      4FA9EF27 
 121      5C206884 
 121      7642009C 
 121      E623AC12 
 122 007c 8A8432FC 		.ascii	"\212\2042\374\331\304\034I\200N\350\"\204\0119\245!"
 122      D9C41C49 
 122      804EE822 
 122      840939A5 
 122      21
 123 008d 1AAA1AA1 		.ascii	"\032\252\032\241\373\204P\360\360\213j\355\200\207\357"
 123      FB8450F0 
 123      F08B6AED 
 123      8087EF
 124 009c 728B8AFB 		.ascii	"r\213\212\373\212\260\355\341\226\025WW\353U\010kjN"
 124      8AB0EDE1 
 124      96155757 
 124      EB55086B 
 124      6A4E
 125 00ae 53F3EEDA 		.ascii	"S\363\356\332\273\204\035\017\277\007\226\371~\265:"
 125      BB841D0F 
 125      BF0796F9 
 125      7EB53A
 126 00bd F7616F06 		.ascii	"\367ao\006\371\"\377i\333>\350\206%Nm\345\026\347h1"
ARM GAS  /tmp/ccK3Q1KP.s 			page 9


 126      F922FF69 
 126      DB3EE886 
 126      254E6DE5 
 126      16E76831 
 127 00d1 D43BE01A 		.ascii	"\324;\340\0322\354\012A\257\354\204CrE\000\206k\330"
 127      32EC0A41 
 127      AFEC8443 
 127      72450086 
 127      6BD8
 128 00e3 AD1CD29C 		.ascii	"\255\034\322\234\001\252U\375\020\334V\"\321\012\035"
 128      01AA55FD 
 128      10DC5622 
 128      D10A1D
 129 00f2 AA91C229 		.ascii	"\252\221\302)X\347<[}\276\276p\206\363 \303\034\206"
 129      58E73C5B 
 129      7DBEBE70 
 129      86F320C3 
 129      1C86
 130 0104 883B88D0 		.ascii	"\210;\210\320\017y\242f9\237=\331\300\356\326\225\355"
 130      0F79A266 
 130      399F3DD9 
 130      C0EED695 
 130      ED
 131 0115 ED373EA9 		.ascii	"\3557>\251\234\227\312\026\322\0167\260_\3510l\017\325"
 131      9C97CA16 
 131      D20E37B0 
 131      5FE9306C 
 131      0FD5
 132 0127 EACA77B7 		.ascii	"\352\312w\267@\210\321\253X\350\207\310\010\336T#\342"
 132      4088D1AB 
 132      58E887C8 
 132      08DE5423 
 132      E2
 133 0138 2500FFC3 		.ascii	"%\000\377\303c8\354; k0]\277\253>x(\266>wgi\210\257"
 133      6338EC3B 
 133      206B305D 
 133      BFAB3E78 
 133      28B63E77 
 134 0150 68D2510D 		.ascii	"h\322Q\015\346Q\024\255bO\303\323\312\"E\344\367\314"
 134      E65114AD 
 134      624FC3D3 
 134      CA2245E4 
 134      F7CC
 135 0162 A8EBE4DD 		.ascii	"\250\353\344\335#X\242\212\332i\310\011\342\327\205"
 135      2358A28A 
 135      DA69C809 
 135      E2D785
 136 0171 B9E37E47 		.ascii	"\271\343~G\352\020\226:\301#\324\274)\332\254\226\013"
 136      EA10963A 
 136      C123D4BC 
 136      29DAAC96 
 136      0B
 137 0182 BBE1EC4C 		.ascii	"\273\341\354L\325\266{<\011\022\0135\213\320\2267B\242"
 137      D5B67B3C 
 137      09120B35 
 137      8BD09637 
 137      42A2
ARM GAS  /tmp/ccK3Q1KP.s 			page 10


 138 0194 B83643B3 		.ascii	"\2706C\263-ehc\341\254\274\351\222<\371\022\326\233"
 138      2D656863 
 138      E1ACBCE9 
 138      923CF912 
 138      D69B
 139 01a6 DABA90FD 		.ascii	"\332\272\220\375y\317\211\314\013)\264\214\336\314\004"
 139      79CF89CC 
 139      0B29B48C 
 139      DECC04
 140 01b5 3C9909D4 		.ascii	"<\231\011\324\337\275\234V\035q\345\307\340\037\312"
 140      DFBD9C56 
 140      1D71E5C7 
 140      E01FCA
 141 01c4 3D09C963 		.ascii	"=\011\311c\303\210\354<{\207\374\204c\030\303\307t#"
 141      C388EC3C 
 141      7B87FC84 
 141      6318C3C7 
 141      7423
 142 01d6 0C8B875F 		.ascii	"\014\213\207_\266d.\362\373\"#%I\333<\202V\252\311\010"
 142      B6642EF2 
 142      FB222325 
 142      49DB3C82 
 142      56AAC908 
 143 01ea E75B5FAE 		.ascii	"\347[_\256F\335\3344g\2513\274l\230\221o\237\234\214"
 143      46DDDC34 
 143      67A933BC 
 143      6C98916F 
 143      9F9C8C
 144 01fd 3CB8D8FA 		.ascii	"<\270\330\372o\346u\363\337\314A\212=\236\025\032z\306"
 144      6FE675F3 
 144      DFCC418A 
 144      3D9E151A 
 144      7AC6
 145 020f 3FBEC7A8 		.ascii	"?\276\307\250\244\273\206\225\377\352\233r\375j\316"
 145      A4BB8695 
 145      FFEA9B72 
 145      FD6ACE
 146 021e CAD5F955 		.ascii	"\312\325\371U\377M5c\251S\276\255\367\253\023\346\177"
 146      FF4D3563 
 146      A953BEAD 
 146      F7AB13E6 
 146      7F
 147 022f 67D6F9D5 		.ascii	"g\326\371\3256\363\247\202\235\007\264`&\316\254\011"
 147      36F3A782 
 147      9D07B460 
 147      26CEAC09 
 148 023f 7D14FA22 		.ascii	"}\024\372\"\231t*\302R\361\201\304T\302\0340\331H,\022"
 148      99742AC2 
 148      52F181C4 
 148      54C21C30 
 148      D9482C12 
 149 0253 4B8C4E66 		.ascii	"K\214Nf\306\314H\332\032\213%,}\002\002\364\030:gX\355"
 149      C6CC48DA 
 149      1A8B252C 
 149      7D0202F4 
 149      183A6758 
 150 0268 97AF0CF7 		.ascii	"\227\257\014\367^\202\363\207p\342lt\"\2260#\306\230"
ARM GAS  /tmp/ccK3Q1KP.s 			page 11


 150      5E82F387 
 150      70E26C74 
 150      22963023 
 150      C698
 151 027a 39CE3293 		.ascii	"9\3162\223\226a\335H\232i\322\010\031\206R\351LN]\037"
 151      9661DD48 
 151      9A69D208 
 151      198652E9 
 151      4C4E5D1F 
 152 028e D7932C65 		.ascii	"\327\223,e\351\203\376\021\2266\333h\300L\0053j\276"
 152      E983FE11 
 152      9636DB68 
 152      C04C0533 
 152      6ABE
 153 02a0 C330DCAE 		.ascii	"\3030\334\256\217f\374\242\374\027\246\012n\216"
 153      8F66FCA2 
 153      FC17A60A 
 153      6E8E
 154              		.text
 155              		.section	.gnu.lto_.symtab.59e7f7e2714f38ba,"",%progbits
 156 0000 706F7700 		.ascii	"pow\000\000\000\000\000\000\000\000\000\000\000\000"
 156      00000000 
 156      00000000 
 156      000000
 157 000f B2000000 		.ascii	"\262\000\000\000powf\000\000\000\000\000\000\000\000"
 157      706F7766 
 157      00000000 
 157      00000000 
 158 001f 00000000 		.ascii	"\000\000\000\000\300\000\000\000"
 158      C0000000 
 159              		.text
 160              		.section	.gnu.lto_.opts,"",%progbits
 161 0000 272D6D63 		.ascii	"'-mcpu=cortex-m4' '-mfloat-abi=hard' '-mfpu=fpv4-sp"
 161      70753D63 
 161      6F727465 
 161      782D6D34 
 161      2720272D 
 162 0033 2D643136 		.ascii	"-d16' '-mno-thumb-interwork' '-mthumb' '-O2' '-fomi"
 162      2720272D 
 162      6D6E6F2D 
 162      7468756D 
 162      622D696E 
 163 0066 742D6672 		.ascii	"t-frame-pointer' '-falign-functions=16' '-ffunction"
 163      616D652D 
 163      706F696E 
 163      74657227 
 163      20272D66 
 164 0099 2D736563 		.ascii	"-sections' '-fdata-sections' '-fno-common' '-flto' "
 164      74696F6E 
 164      73272027 
 164      2D666461 
 164      74612D73 
 165 00cc 272D6673 		.ascii	"'-fsingle-precision-constant'\000"
 165      696E676C 
 165      652D7072 
 165      65636973 
 165      696F6E2D 
ARM GAS  /tmp/ccK3Q1KP.s 			page 12


 166              		.text
 167              		.section	.text.pow,"ax",%progbits
 168              		.align	2
 169              		.p2align 4,,15
 170              		.global	pow
 171              		.thumb
 172              		.thumb_func
 173              		.type	pow, %function
 174              	pow:
 175              		@ args = 0, pretend = 0, frame = 0
 176              		@ frame_needed = 0, uses_anonymous_args = 0
 177              		@ link register save eliminated.
 178 0000 41B1     		cbz	r1, .L4
 179 0002 0122     		movs	r2, #1
 180 0004 0023     		movs	r3, #0
 181              	.L3:
 182 0006 0133     		adds	r3, r3, #1
 183 0008 8B42     		cmp	r3, r1
 184 000a 00FB02F2 		mul	r2, r0, r2
 185 000e FAD1     		bne	.L3
 186 0010 1046     		mov	r0, r2
 187 0012 7047     		bx	lr
 188              	.L4:
 189 0014 0120     		movs	r0, #1
 190 0016 7047     		bx	lr
 191              		.size	pow, .-pow
 192 0018 AFF30080 		.section	.text.powf,"ax",%progbits
 192      AFF30080 
 193              		.align	2
 194              		.p2align 4,,15
 195              		.global	powf
 196              		.thumb
 197              		.thumb_func
 198              		.type	powf, %function
 199              	powf:
 200              		@ args = 0, pretend = 0, frame = 0
 201              		@ frame_needed = 0, uses_anonymous_args = 0
 202              		@ link register save eliminated.
 203 0000 0028     		cmp	r0, #0
 204 0002 0BD0     		beq	.L12
 205 0004 0ADD     		ble	.L12
 206 0006 0023     		movs	r3, #0
 207 0008 F7EE007A 		fconsts	s15, #112
 208              	.L11:
 209 000c 0133     		adds	r3, r3, #1
 210 000e 8342     		cmp	r3, r0
 211 0010 67EE807A 		fmuls	s15, s15, s0
 212 0014 FAD1     		bne	.L11
 213 0016 B0EE670A 		fcpys	s0, s15
 214 001a 7047     		bx	lr
 215              	.L12:
 216 001c B7EE000A 		fconsts	s0, #112
 217 0020 7047     		bx	lr
 218              		.size	powf, .-powf
 219              		.comm	__gnu_lto_v1,1,1
 220 0022 00BFAFF3 		.ident	"GCC: (GNU Tools for ARM Embedded Processors) 4.8.4 20140526 (release) [ARM/embedded-4_8-br
 220      0080AFF3 
ARM GAS  /tmp/ccK3Q1KP.s 			page 13


 220      0080AFF3 
 220      0080
ARM GAS  /tmp/ccK3Q1KP.s 			page 14


DEFINED SYMBOLS
                            *ABS*:0000000000000000 umath.c
     /tmp/ccK3Q1KP.s:168    .text.pow:0000000000000000 $t
     /tmp/ccK3Q1KP.s:174    .text.pow:0000000000000000 pow
     /tmp/ccK3Q1KP.s:193    .text.powf:0000000000000000 $t
     /tmp/ccK3Q1KP.s:199    .text.powf:0000000000000000 powf
                            *COM*:0000000000000001 __gnu_lto_v1

NO UNDEFINED SYMBOLS
