ARM GAS  /tmp/cc6tgXFO.s 			page 1


   1              		.syntax unified
   2              		.cpu cortex-m4
   3              		.eabi_attribute 27, 3
   4              		.eabi_attribute 28, 1
   5              		.fpu fpv4-sp-d16
   6              		.eabi_attribute 20, 1
   7              		.eabi_attribute 21, 1
   8              		.eabi_attribute 23, 3
   9              		.eabi_attribute 24, 1
  10              		.eabi_attribute 25, 1
  11              		.eabi_attribute 26, 1
  12              		.eabi_attribute 30, 2
  13              		.eabi_attribute 34, 1
  14              		.eabi_attribute 18, 4
  15              		.thumb
  16              		.file	"bmp280.c"
  17              		.section	.gnu.lto_.jmpfuncs.426762d5191270f5,"",%progbits
  18 0000 789C6362 		.ascii	"x\234cb`b\300\006V\0021\007\020\2632\260\263\2620d2"
  18      6062C006 
  18      56023107 
  18      10B332B0 
  18      B3B23064 
  19 0015 42449922 		.ascii	"BD\231\"\0303\031\031\231P\230\3540if\006\006\3062F"
  19      18331919 
  19      995098EC 
  19      30696606 
  19      06C63246 
  20 0029 10C55486 		.ascii	"\020\305T\206\244\234I\003\310\250f\370\3250\243A \223"
  20      A49C4903 
  20      C8A866F8 
  20      D530A341 
  20      2093
  21 003b 91598E81 		.ascii	"\221Y\216\201qn\303\014\207LF\026\210\022f&\210~F\210"
  21      716EC30C 
  21      874C4616 
  21      88126626 
  21      887E4688 
  22 004f 7EA0318C 		.ascii	"~\2401\214\2540\021\006FF\006\2605\017\030\241\3661"
  22      AC301106 
  22      464606B0 
  22      350F18A1 
  22      F631
  23 0061 420D6585 		.ascii	"B\015e\205\273\000\310`\001\272\222\201\335\3117\300"
  23      BB00C860 
  23      01BA9281 
  23      DDC937C0 
  24 0071 C8C28001 		.ascii	"\310\302\200\001\0004\216\022\034"
  24      00348E12 
  24      1C
  25              		.text
  26              		.section	.gnu.lto_.inline.426762d5191270f5,"",%progbits
  27 0000 789C6362 		.ascii	"x\234cb`b\300\006\346CiV\006\006\021UFF\006F \233\211"
  27      6062C006 
  27      E6436956 
  27      06061155 
  27      46460646 
  28 0017 ED831E03 		.ascii	"\355\203\036\003\333\002y\260\0166~\240\344\004\277"
ARM GAS  /tmp/cc6tgXFO.s 			page 2


  28      DB0279B0 
  28      0E367EA0 
  28      E404BF
  29 0026 097E0C40 		.ascii	"\011~\014@\304!\310\300\300\016\342@ P)\003;?L\027H"
  29      C421C8C0 
  29      C00EE240 
  29      20502903 
  29      3B3F4C17 
  30 003b 3154130B 		.ascii	"1T\023\013/\220\017R\301\314\310-\014\223g\272\300\017"
  30      2F900F52 
  30      C1CCC82D 
  30      0C9367BA 
  30      C00F
  31 004d 57C02E00 		.ascii	"W\300.\0006\025\254\226\201\231\211\021E7+\206\010\003"
  31      3615AC96 
  31      81998911 
  31      45372B86 
  31      0803
  32 005f 00771D11 		.ascii	"\000w\035\021\037"
  32      1F
  33              		.text
  34              		.section	.gnu.lto_.pureconst.426762d5191270f5,"",%progbits
  35 0000 789C6362 		.ascii	"x\234cb`b\340f\200\000V\006\011&\011f\011\026 \003\000"
  35      6062E066 
  35      80005606 
  35      09260966 
  35      09162003 
  36 0015 03AB006B 		.ascii	"\003\253\000k"
  37              		.text
  38              		.section	.gnu.lto_bmp280_init.426762d5191270f5,"",%progbits
  39 0000 789C8D92 		.ascii	"x\234\215\222\317+DQ\024\307\317\271\327\373a\374\376"
  39      CF2B4451 
  39      14C7CFB9 
  39      D7FB61FC 
  39      FE
  40 0011 956C242B 		.ascii	"\225l$+E\210\215\245\260\261P\026\024K&Mw1~\015\026"
  40      45888DA5 
  40      B0B15016 
  40      144B264D 
  40      77317E0D 
  41 0026 2CE6CCB0 		.ascii	",\346\314\260\220\205&\253\311\217\")Q\224\225\245\215"
  41      908526AB 
  41      C98F2229 
  41      519495A5 
  41      8D
  42 0037 A4FC2C0B 		.ascii	"\244\374,\013;\263\361G\220<\347\336\367F\203Y8\365"
  42      3BB3F147 
  42      903CE7DE 
  42      F7468359 
  42      38F5
  43 0049 CE39EFDE 		.ascii	"\3169\357\336\363\375\234s\337}\002\004\374\266:~\236"
  43      F3FD9C73 
  43      DF7D0204 
  43      FCB63A7E 
  43      9E
  44 005a 78B99323 		.ascii	"x\271\223#J@\221\272\003H\270\002Q'\200\020\027\030"
  44      4A4091BA 
ARM GAS  /tmp/cc6tgXFO.s 			page 3


  44      0348B802 
  44      51278010 
  44      1718
  45 006c 1F455D2A 		.ascii	"\037E]*\032a\217h#sy\265^\273\226\241\024}z\036*dh5"
  45      1A618F68 
  45      237379B5 
  45      5EBB96A1 
  45      147D7A1E 
  46 0084 42186184 		.ascii	"B\030a\204_\3205A\340\317.\276\222N\016\223r\227><O"
  46      5FD03541 
  46      E0CF2EBE 
  46      924E0E93 
  46      72973E3C 
  47 0099 1A59435E 		.ascii	"\032YC^Y4G{*.2\236w\263\377PS\"`\014\367\260\021$\307"
  47      5934477B 
  47      2A2E329E 
  47      77B3FF50 
  47      5322600C 
  48 00b2 7D8E1646 		.ascii	"}\216\026F\021mP(\035v\005.;\253\220\327D\210\235d\255"
  48      116D5028 
  48      1D76052E 
  48      3BAB90D7 
  48      44889D64 
  49 00c7 052B44A9 		.ascii	"\005+D\251\006\320=\330\206\330\353#\015\243\320Q\336"
  49      06D03DD8 
  49      86D8EB23 
  49      0DA3D051 
  49      DE
  50 00d8 42F2FAF9 		.ascii	"B\362\372\371\252t\014\017\320\202\010\212-\330L\020"
  50      AA740C0F 
  50      D082088A 
  50      2DD84C10 
  51 00e8 952BB497 		.ascii	"\225+\264\227\340\235Vu\346\370\243\350\311\234`\240"
  51      E09D5675 
  51      E6F8A3E8 
  51      C99C60A0 
  52 00f8 5B585E95 		.ascii	"[X^\225Y\215d\231\336\264\321\354$\373\375\215\377\220"
  52      598D6499 
  52      DEB4D1EC 
  52      24FBFD8D 
  52      FF90
  53 010a 227A4496 		.ascii	"\"zD\226\274/{\317\"\313\343\372E>O3\034\021\333\214"
  53      BC2F7BCF 
  53      22CBE3FA 
  53      453E4F33 
  53      1C11DB8C 
  54 011e 4297512C 		.ascii	"B\227Q,)\214\240\245\245!#\035\317\375\266\006q\366"
  54      298CA0A5 
  54      A521231D 
  54      CFFDB606 
  54      71F6
  55 0130 3D916308 		.ascii	"=\221c\010\005\001\341\2055E\371\021\370\013qR\234E"
  55      0501E185 
  55      3545F911 
  55      F80B7152 
  55      9C45
  56 0142 B8066105 		.ascii	"\270\006a\005\210\035[aq~D\316\277t\017\233tn\371\004"
ARM GAS  /tmp/cc6tgXFO.s 			page 4


  56      881D5B61 
  56      717E44CE 
  56      BF740F9B 
  56      746EF904 
  57 0156 80EF5397 		.ascii	"\200\357S\227\204\203>|\264\210\326\207xB\356\240)\245"
  57      84833E7C 
  57      B488D687 
  57      7842EEA0 
  57      29A5
  58 0168 4DA62E4D 		.ascii	"M\246.M\364\306-\312\352\241e\207\322\335\012\313!\300"
  58      F4C62DCA 
  58      EAA16587 
  58      D2DD0ACB 
  58      21C0
  59 017a 28ACD0E0 		.ascii	"(\254\320\3404m\277\332\177\310\225\341\240\275!;\346"
  59      346DBFDA 
  59      7FC895E1 
  59      A0BD213B 
  59      E6
  60 018b 12040468 		.ascii	"\022\004\004h\316\024V\001<B\"s,\262Z\337\206x\"\276"
  60      CE145601 
  60      3C422273 
  60      2CB25ADF 
  60      867822BE 
  61 019f 7D2DAEE8 		.ascii	"}-\256\350\233U\013\023\263\261\266\361\350tGW{k\030"
  61      9B550B13 
  61      B3B1B6F1 
  61      E8744757 
  61      7B6B18
  62 01b2 8A621393 		.ascii	"\212b\023\223\261\336\251\371\311\271\326\366\234\274"
  62      B1DEA9F9 
  62      C9B9D6F6 
  62      9CBC
  63 01c0 C3E91918 		.ascii	"\303\351\031\030\344\012\370\002\320\023\254\256"
  63      E40AF802 
  63      D013ACAE 
  64              		.text
  65              		.section	.gnu.lto_bmp280_stop.426762d5191270f5,"",%progbits
  66 0000 789C6362 		.ascii	"x\234cb`b@\007\222@|\031\210\205\201\230\221\231\201"
  66      60624007 
  66      92407C19 
  66      88858198 
  66      919981
  67 0013 9169C239 		.ascii	"\221i\3029\006\206F\016&FF\020\203\201\221\241\236\211"
  67      0686460E 
  67      26464610 
  67      838191A1 
  67      9E89
  68 0025 B13E9211 		.ascii	"\261>\222\021\254v=\323\201\007\377\377\257\373\326"
  68      AC763DD3 
  68      8107FFFF 
  68      AFFBD6
  69 0034 F28A999D 		.ascii	"\362\212\231\235\2211\227\021h\\&#\003\013\220\305\310"
  69      91319711 
  69      685C2623 
  69      030B90C5 
  69      C8
ARM GAS  /tmp/cc6tgXFO.s 			page 5


  70 0045 06648114 		.ascii	"\006d\201\024\2612\26444LP``H\006k\011\001\222 sB\031"
  70      B132B434 
  70      344C5060 
  70      6048066B 
  70      09019220 
  71 005c 994034F3 		.ascii	"\231@4\363Y\206\246_\315\237/2'2.ddeHgd\252f\250\002"
  71      5986A65F 
  71      CD9F2F32 
  71      27322E64 
  71      64654867 
  72 0075 1AA1CDB0 		.ascii	"\032\241\315\260\252\001\010\3523\031\231f3\314b\314"
  72      AA0108EA 
  72      33199966 
  72      33CC62CC 
  73 0085 64644E67 		.ascii	"ddNgd\214\000\322,`{\223\030\221\034|\236\241\365\000"
  73      648C00D2 
  73      2C607B93 
  73      18911C7C 
  73      9EA1F500 
  74 0099 2B4C3F5B 		.ascii	"+L?[5\303\257\206\216\006\201LF\326dF\210*\240\241\351"
  74      35C3AF86 
  74      8E06814C 
  74      46D66446 
  74      882AA0A1 
  75 00ae 8C2C9940 		.ascii	"\214,\231@\0271\\d`\204+\204h\016\001*\002\272\003\024"
  75      17315C64 
  75      60842B84 
  75      680E012A 
  75      02BA0314 
  76 00c2 0C822E45 		.ascii	"\014\202.E\231e\251E\305\372I\271\005F\026\006z\311"
  76      9965A945 
  76      C5FA49B9 
  76      05461606 
  76      7AC9
  77 00d4 0C003D49 		.ascii	"\014\000=I5\177"
  77      357F
  78              		.text
  79              		.section	.gnu.lto_bmp280_reset.426762d5191270f5,"",%progbits
  80 0000 789C5D51 		.ascii	"x\234]Q\261J\003A\020}o\367.^,DA\020;\261UT\304\302"
  80      B14A0341 
  80      107D6FF7 
  80      2E5E2C44 
  80      41103BB1 
  81 0018 0FB0B18F 		.ascii	"\017\260\261\217\020\313$\206\343\212\200D\2610H6j\221"
  81      10CB2486 
  81      E38A8044 
  81      B1304836 
  81      6A91
  82 002a 4A0E1B45 		.ascii	"J\016\033E\253`\245\215\205\215\235A\260T\2214\026\026"
  82      AB60A58D 
  82      858D9D41 
  82      B0549134 
  82      1616
  83 003c D7DB59A6 		.ascii	"\327\333Y\246\360\234\275U\211\016\354\314\016\363\366"
  83      F09CBD55 
  83      890EECCC 
  83      0EF3F6
ARM GAS  /tmp/cc6tgXFO.s 			page 6


  84 004b BD37AC82 		.ascii	"\2757\254\202\302\377\230\224\263MW\251A\025?\001\255"
  84      C2FF9894 
  84      B34D57A9 
  84      41153F01 
  84      AD
  85 005c 4091F602 		.ascii	"@\221\366\002\242\251\330\\\247\205r\032\035\323=N\036"
  85      A2A9D85C 
  85      A785721A 
  85      1DD33D4E 
  85      1E
  86 006d 7A471326 		.ascii	"zG\023&1\261\371LSF\024\322q\242B\024\245a\220\025\305"
  86      31B1F94C 
  86      534614D2 
  86      71A24214 
  86      A5619015 
  87 0082 BF2AD7AA 		.ascii	"\277*\327\252\233\244\351\333e<\033h\326\010\017\021"
  87      9BA4E9DB 
  87      653C1B68 
  87      D6080F11 
  88 0092 754E9227 		.ascii	"uN\222'C\037\207\306\304S%vD\001\226I\242 \331:X\243"
  88      431F87C6 
  88      C4532576 
  88      44019649 
  88      A220D93A 
  89 00a8 B2553F62 		.ascii	"\262U?b\377\366\2657R\342\005}8\250\025Bb\3212\354\037"
  89      FFF6B537 
  89      52E2057D 
  89      38A81542 
  89      62D132EC 
  90 00bd DC7D6837 		.ascii	"\334}h7\015\3515\260+\0023\2702\022'\202\363\317q&%"
  90      0DE935B0 
  90      2B0233B8 
  90      32122782 
  90      F3CF7126 
  91 00d2 1752DB67 		.ascii	"\027R\333gC\231\253\362\240\313g\234\232\342\017A\256"
  91      4399ABF2 
  91      A0CB679C 
  91      9AE20F41 
  91      AE
  92 00e3 81BE699B 		.ascii	"\201\276i\233\321\210A\205\016\225\261\366-\337^\304"
  92      D1884185 
  92      0E95B1F6 
  92      2DDF5EC4 
  93 00f3 BC73E0E0 		.ascii	"\274s\340\340\316\210\333?\377\335Av\033\266\306\356"
  93      CE88DB3F 
  93      FFDD4176 
  93      1BB6C6EE 
  94 0103 DFD5A0E7 		.ascii	"\337\325\240\347%\334\230\266\003\340\005\255\256\377"
  94      25DC98B6 
  94      03E005AD 
  94      AEFF
  95 0111 ABE85C14 		.ascii	"\253\350\\\024DM\326\265\3774\266R\217v\252\365\255"
  95      444DD6B5 
  95      FF34B652 
  95      8F76AAF5 
  95      AD
  96 0122 F9726D73 		.ascii	"\371rmsqya\256\002\277^\015W7\276\000\300\303]\300"
ARM GAS  /tmp/cc6tgXFO.s 			page 7


  96      717961AE 
  96      02BF5E0D 
  96      5737BE00 
  96      C0C35DC0 
  97              		.text
  98              		.section	.gnu.lto_bmp280_readPressure.426762d5191270f5,"",%progbits
  99 0000 789C6362 		.ascii	"x\234cb`b@\007\222@<\033\210\245\200\230\221\231\201"
  99      60624007 
  99      92403C1B 
  99      88A58098 
  99      919981
 100 0013 9169C239 		.ascii	"\221i\3029\006\206F\016&FF\020\203\201\221\241\236\211"
 100      0686460E 
 100      26464610 
 100      838191A1 
 100      9E89
 101 0025 B13E9211 		.ascii	"\261>\222\021\244\224Q\211aaC\303\214\007Go\365J6,h"
 101      A4945189 
 101      616143C3 
 101      8C07476F 
 101      F54A362C 
 102 003a 9AD0F0EF 		.ascii	"\232\320\360\357\377\177\306LF\240\241\"\214\014\311"
 102      FF7FC64C 
 102      46A0A122 
 102      8C0CC9
 103 0049 8C0C1140 		.ascii	"\214\014\021@\016\243\002\230bbA\265e=\323\201\007\377"
 103      0EA30298 
 103      626241B5 
 103      653DD381 
 103      07FF
 104 005b FFCF593B 		.ascii	"\377\317Y;\301\226\231\2211\221q!\320( `ehih\230\240"
 104      C1969991 
 104      31917121 
 104      D0282060 
 104      65686968 
 105 0071 00E32783 		.ascii	"\000\343'\203m\011\001\222 \253C\031\231@4\363E\206"
 105      6D090192 
 105      20AB4319 
 105      994034F3 
 105      4586
 106 0083 C6073FB9 		.ascii	"\306\007?\271\022\031\0273\2622\24432B\314\013\0012"
 106      12191733 
 106      B232A433 
 106      3242CC0B 
 106      0132
 107 0095 809220EF 		.ascii	"\200\222 \357\010\272\024e\226\245\026\025\353'\345"
 107      08BA1465 
 107      96A51615 
 107      EB27E5
 108 00a4 16185918 		.ascii	"\026\030Y\030\350%3\260\025\227$\226\224\026\003\000"
 108      E82533B0 
 108      15972496 
 108      94160300 
 109 00b4 C6D83092 		.ascii	"\306\3300\222"
 110              		.text
 111              		.section	.gnu.lto_bmp280_readTemperature.426762d5191270f5,"",%progbits
 112 0000 789C6362 		.ascii	"x\234cb`b@\007\222@<\037\210\245\200\230\221\231\201"
ARM GAS  /tmp/cc6tgXFO.s 			page 8


 112      60624007 
 112      92403C1F 
 112      88A58098 
 112      919981
 113 0013 9169C239 		.ascii	"\221i\3029\006\206F\016&FF\020\203\201\221\241\236\211"
 113      0686460E 
 113      26464610 
 113      838191A1 
 113      9E89
 114 0025 B13E9211 		.ascii	"\261>\222\021\244\224Q\211aaC\303\214\007\255\217o0"
 114      A4945189 
 114      616143C3 
 114      8C07AD8F 
 114      6F30
 115 0037 CE6C38D0 		.ascii	"\316l8\320\262\240\341\317\377\377\214\214\231\214@"
 115      B2A0E1CF 
 115      FFFF8C8C 
 115      998C40
 116 0046 63451819 		.ascii	"cE\030\031\222\031\031\"\200\034F\0050\305\304\202j"
 116      92191922 
 116      801C4605 
 116      30C5C482 
 116      6A
 117 0057 CF7AA603 		.ascii	"\317z\246\003\017\376\377\337\263\261\345\221$3#c\""
 117      0FFEFFDF 
 117      B3B1E591 
 117      24332363 
 117      22
 118 0068 E342A069 		.ascii	"\343B\240i@\300\312\320\322\3200A\001\306O\006[\024"
 118      40C0CAD0 
 118      D2D03041 
 118      01C64F06 
 118      5B14
 119 007a 022441B6 		.ascii	"\002$A\266\20722\201h\346\213\014\215\017f/\006jZ\314"
 119      87323281 
 119      68E68B0C 
 119      8D0F662F 
 119      066A5ACC 
 120 008e C8CA90CE 		.ascii	"\310\312\220\316\310\01011\004\310\000\312\202\274$"
 120      C8083131 
 120      04C800CA 
 120      82BC24
 121 009d E8529459 		.ascii	"\350R\224Y\226ZT\254\237\224[`da\240\227\314\300V\\"
 121      965A54AC 
 121      9F945B60 
 121      6461A097 
 121      CCC0565C 
 122 00b1 9258525A 		.ascii	"\222XRZ\014\000\014\2252n"
 122      0C000C95 
 122      326E
 123              		.text
 124              		.section	.gnu.lto_.symbol_nodes.426762d5191270f5,"",%progbits
 125 0000 789C4DC8 		.ascii	"x\234M\310\273\021\203@\024CQ=\355\007\272\326b\300"
 125      BB118340 
 125      1443513D 
 125      ED07BAD6 
 125      62C0
ARM GAS  /tmp/cc6tgXFO.s 			page 9


 126 0012 26740524 		.ascii	"&t\005$.\205\3345\230\241\017\30320,J\356\034\021\304"
 126      2E85DC35 
 126      98A10FC3 
 126      32302C4A 
 126      EE1C11C4 
 127 0026 88734C14 		.ascii	"\210sL\024\360\376\002\3228XX\015^\216\015e\345\345"
 127      F0FE02D2 
 127      3858580D 
 127      5E8E0D65 
 127      E5E5
 128 0038 83E28D2D 		.ascii	"\203\342\215-\345n\354(_hO*\034L\311\254\247b\321\213"
 128      E56EEC28 
 128      5F684F2A 
 128      1C4CC9AC 
 128      A762D18B 
 129 004c AA2E3954 		.ascii	"\252.9T\230\346\177n\304\262\2275>\277\\\0271\345b\003"
 129      98E67F6E 
 129      C4B29735 
 129      3EBF5C17 
 129      31E56203 
 130 0060 77632F5A 		.ascii	"wc/Z"
 131              		.text
 132              		.section	.gnu.lto_.refs.426762d5191270f5,"",%progbits
 133 0000 789C6362 		.ascii	"x\234cb`b`g\200\000&\006\006FFF\006\000\000\333\000"
 133      60626067 
 133      80002606 
 133      06464646 
 133      060000DB 
 134 0015 11       		.ascii	"\021"
 135              		.text
 136              		.section	.gnu.lto_.decls.426762d5191270f5,"",%progbits
 137 0000 789CBD5C 		.ascii	"x\234\275\\\177p\024E\276\237\231\235dwI.\0048}\350"
 137      7F701445 
 137      BE9F999D 
 137      6477492E 
 137      04387DE8 
 138 0014 79E5FACA 		.ascii	"y\345\372\312\273\242\356N\362\003D(\337S0\201\203\367"
 138      BBA2EE4E 
 138      F2034428 
 138      DF533081 
 138      83F7
 139 0026 F85549B4 		.ascii	"\370UI\264\340\217W\353\230\035\310\236Iv\235\235`\250"
 139      E08F57EB 
 139      981DC89E 
 139      49769D9D 
 139      60A8
 140 0038 7B553724 		.ascii	"{U7$$\247(\020\002H@\210\361\011\210\036\"\010(\261"
 140      24A72810 
 140      02484088 
 140      F109881E 
 140      220828B1 
 141 004c 40177F40 		.ascii	"@\027\177@\004\005\004A\002z\256>E~\350\235\240\021"
 141      04050441 
 141      027AAE3E 
 141      457EE89D 
 141      A011
 142 005e 911F79DF 		.ascii	"\221\037y\337\376\316\314n\317dfw&\347\275\255\352\357"
ARM GAS  /tmp/cc6tgXFO.s 			page 10


 142      FECECC6E 
 142      CF646677 
 142      26E7BDAD 
 142      EAEF
 143 0070 F6F4767F 		.ascii	"\366\364v\177\372\373\253\373\333\335\323\011\307p\014"
 143      FAFBABFB 
 143      DBDDD309 
 143      C7700C
 144 007f CF314C2F 		.ascii	"\3171L/|\356\372\017\206\331\341c\230l\206a\356b\324"
 144      7CEEFA0F 
 144      86D9E163 
 144      986C8661 
 144      EE62D4
 145 0092 EFA7216D 		.ascii	"\357\247!m\207\344\205t#\324\373\005\244\353!\221\017"
 145      87E48574 
 145      23D4FB05 
 145      A4EB2191 
 145      0F
 146 00a3 54657E09 		.ascii	"Te~\011\371\011\220\312 \315\200$@\232\015)\012\351"
 146      F90990CA 
 146      20CD8024 
 146      409A0D29 
 146      0AE9
 147 00b5 8F9058A8 		.ascii	"\217\220X\250\243h\365\365\017i\363sF\375-\017R.\244"
 147      A368F5F5 
 147      0F69F373 
 147      46FD2D0F 
 147      522EA4
 148 00c8 3F405903 		.ascii	"?@Y\003\244FN\355\217\364A\372\276\005\276\003\220n"
 148      A4464EED 
 148      8FF441FA 
 148      BE05BE03 
 148      906E
 149 00da 873406D2 		.ascii	"\2074\006\322|\316\310\313C\220\232 UA\362@\371\257"
 149      7CCEC8CB 
 149      43909A20 
 149      5541F240 
 149      F9AF
 150 00ec E17B24A4 		.ascii	"\341{$\244\321\332\363/5^\010O\274\306\313\335\220\306"
 150      D1DAF32F 
 150      355E084F 
 150      BCC6CBDD 
 150      90C6
 151 00fe 412A31F1 		.ascii	"A*1\3615A\303F^Xc\377\315\220\376[\223\207\364\301i"
 151      3541C346 
 151      5E5863FF 
 151      CD90FE5B 
 151      9387F4C1 
 152 0113 F5FFA8E5 		.ascii	"\365\377\250\345\247\002\231f\302#:\311\321\364g\220"
 152      A7029966 
 152      C2233AC9 
 152      D1F46790 
 153 0123 D384DDA4 		.ascii	"\323\204\335\244\351\264\312\204_\246\361M\312\3563"
 153      E9B4CA84 
 153      5FA6F14D 
 153      CAEE33
 154 0132 61CFD0E4 		.ascii	"a\317\320\344#X:6\243\351t\206\251.\371\010i\352\013"
ARM GAS  /tmp/cc6tgXFO.s 			page 11


 154      23583A36 
 154      A3E97486 
 154      A92EF908 
 154      69EA0B
 155 0145 16F50733 		.ascii	"\026\365\0073K\024\370\004\272\240\362\014V`\363\374"
 155      4B14F804 
 155      BAA0F20C 
 155      5660F3FC 
 156 0155 44752497 		.ascii	"Du$\227\353g\002P\341W\314ZEiI4-f\003\002\3734;\030"
 156      EB670250 
 156      E157CC5A 
 156      45694934 
 156      2D660302 
 157 016d 381ECA32 		.ascii	"8\036\3122\277a\236\203V-\212\3220\244/ffP\340\205]"
 157      BF619E83 
 157      562D8AD2 
 157      30A42F66 
 157      6650E085 
 158 0182 075802BB 		.ascii	"\007X\002\273\226\375\215\332\205\022?\032\012\250\245"
 158      96FD8DDA 
 158      85123F1A 
 158      0AA8A5
 159 0191 8C566EF1 		.ascii	"\214Vn\361\271\205\351\200>\343\335\333:Y\2459\327\313"
 159      B985E980 
 159      3EE3DDDB 
 159      3A59A539 
 159      D7CB
 160 01a3 34C39392 		.ascii	"4\303\223\222hj\030\332\226\352\312\247\367\304&\331"
 160      686A18DA 
 160      96EACAA7 
 160      F7C426D9 
 161 01b3 8FBFEFE3 		.ascii	"\217\277\357\343\004v\003\353\005\356\177\313\032\340"
 161      047603EB 
 161      05EE7FCB 
 161      1AE0
 162 01c1 1D60107E 		.ascii	"\035`\020~\376\002m\015\334v\362\234Z\232\206[\017\203"
 162      FE026D0D 
 162      DC76F29C 
 162      5A9A865B 
 162      0F83
 163 01d3 16BE9345 		.ascii	"\026\276\223E4\336\237**M\026\261T\305I\311R\335R\344"
 163      34DE9F2A 
 163      2A4D16B1 
 163      54C549C9 
 163      52DD52E4 
 164 01e7 91F5A732 		.ascii	"\221\365\2472\275\254\321\332\024_\002\273\221\375\025"
 164      BDACD1DA 
 164      145F02BB 
 164      91FD15
 165 01f6 D017588F 		.ascii	"\320\027X\217e3\216\231\312jj\267\022R\313\246\272\315"
 165      65338E99 
 165      CA6A6AB7 
 165      1252CBA6 
 165      BACD
 166 0208 D31F74A5 		.ascii	"\323\037t\245\237\374n\007Q\272\237y\004\025\266N\311"
 166      9FFC6E07 
 166      51BA9F79 
ARM GAS  /tmp/cc6tgXFO.s 			page 12


 166      0415B64E 
 166      C9
 167 0219 A0F44477 		.ascii	"\240\364Dw\363\013\277U\024\237\300ng\211Ds\215\212"
 167      F30BBF55 
 167      149FC06E 
 167      67894473 
 167      8D8A
 168 022b 778EB374 		.ascii	"w\216\263tA\373h\304\331\2018/\263F MTJ)\360\254W\310"
 168      41FB68C4 
 168      D981382F 
 168      B346204D 
 168      544A29F0 
 169 0242 A8C00C75 		.ascii	"\250\300\014u9&\316\272U\233\217V[\342\355\307\226\335"
 169      3926CEBA 
 169      559B8F56 
 169      5BE2EDC7 
 169      96DD
 170 0254 A074BCC1 		.ascii	"\240t\274\301\3460\013\210\274\035\315\312\304\256<"
 170      E6300B88 
 170      BC1DCDCA 
 170      C4AE3C
 171 0263 8B1112F7 		.ascii	"\213\021\022\367\350`\243S\242o9pt=\333\250(\360\303"
 171      E860A353 
 171      A26F3970 
 171      743DDBA8 
 171      28F0C3
 172 0276 6B38F616 		.ascii	"k8\366\026rF\3413\002\011l\234\345\200\3566\017\267"
 172      7246E133 
 172      02096C9C 
 172      E580EE36 
 172      0FB7
 173 0288 F3AB7215 		.ascii	"\363\253r\025^-\317<\340.\235h\377\027%\021g\035\217"
 173      5E2DCF3C 
 173      E02E9D68 
 173      FF172511 
 173      671D8F
 174 029b B8C42787 		.ascii	"\270\304'\207?,B\243\275\205\243n\037\327\257a\267\327"
 174      3F2C42A3 
 174      BD85A36E 
 174      1FD7AF61 
 174      B7D7
 175 02ad 3CECDE6F 		.ascii	"<\354\336o\036H\270\336\353h\340\035\345\372\216\274"
 175      1E48B8DE 
 175      EB68E01D 
 175      E5FA8EBC 
 176 02bd 046739F4 		.ascii	"\004g9\364\316p\306\261\247\025\177\233*\366P\305\363"
 176      CE70C6B1 
 176      A7157F9B 
 176      2AF650C5 
 176      F3
 177 02ce 3CC9629E 		.ascii	"<\311b\236*^\234*\316\242\\\"\255\377\355\245\006p\027"
 177      2A5E9C2A 
 177      CEA25C22 
 177      ADFFEDA5 
 177      067017
 178 02e1 0EE0776C 		.ascii	"\016\340wl\006\260\300nMZ\262_#8\261e\321\347\247\330"
 178      06B0C06E 
ARM GAS  /tmp/cc6tgXFO.s 			page 13


 178      4D5AB25F 
 178      2338B165 
 178      D1E7A7D8 
 179 02f5 A58D4A57 		.ascii	"\245\215JW\241\2253B\025\226r\243\373u\300\334\244Q"
 179      A1953342 
 179      159672A3 
 179      FB75C0DC 
 179      A451
 180 0307 E3BB4EB0 		.ascii	"\343\273N\260\001\013\2173T\025\330\343 F\246Z\244\336"
 180      010B8F33 
 180      5415D8E3 
 180      2046A65A 
 180      A4DE
 181 0319 09B34BAE 		.ascii	"\011\263K\2569\201.y\302\221Kn9\261\334\235K\306\317"
 181      39812E79 
 181      C2914B6E 
 181      39B1DC9D 
 181      4BC6CF
 182 032c 7F4862D8 		.ascii	"\177Hb\330\307\350\217\253<\375\362\307\204\331\037"
 182      C7E88FAB 
 182      3CFDF2C7 
 182      84D91F
 183 033b BB57A03F 		.ascii	"\273W\240?&\034\371\343z\017\345{Z\331\026\217\245\343"
 183      261CF9E3 
 183      7A0FE57B 
 183      5AD9168F 
 183      A5E3
 184 034d BDED313A 		.ascii	"\275\3551:\236\023WJP\256\364)\272\322g\266\261\340"
 184      9E13574A 
 184      50AEF429 
 184      BAD267B6 
 184      B1E0
 185 035f 4394FF44 		.ascii	"C\224\377D\277\203\301\326\023\313qV\323fq\325\221\222"
 185      BF83C1D6 
 185      13CB7156 
 185      D36671D5 
 185      9192
 186 0371 75033A02 		.ascii	"u\003:\002\317P\321\340\355\335l\003Negq\036\377\304"
 186      CF50D1E0 
 186      EDDD6C03 
 186      4E656771 
 186      1EFFC4
 187 0384 6319101C 		.ascii	"c\031\020\034@-]\260s\014\316-_#\320i\2179 xM\001\301"
 187      402D5DB0 
 187      730CCE2D 
 187      5F23D069 
 187      8F392078 
 188 039b 6B9CE4BD 		.ascii	"k\234\344\275\376T\206,\210\0072n\253\303\314`V\240"
 188      FE54862C 
 188      8807326E 
 188      ABC3CC60 
 188      56A0
 189 03ad 81512B05 		.ascii	"\201Q+\005\006h\005\302X<\3602{\241Ai+t\356\300KO\020"
 189      066805C2 
 189      583CF032 
 189      7BA14169 
 189      2B74EEC0 
ARM GAS  /tmp/cc6tgXFO.s 			page 14


 190 03c4 07BE800E 		.ascii	"\007\276\200\016\334\333?\007\3561;\360e\325\201{\034"
 190      DCDB3F07 
 190      EE313BF0 
 190      65D5817B 
 190      1C
 191 03d5 39F022BE 		.ascii	"9\360\"\276\257\003\257\341-\035\370E\336\275\003\367"
 191      AF03AFE1 
 191      2D1DF845 
 191      DEBD03F7 
 192 03e5 500EFC3D 		.ascii	"P\016\374=:\360E[\007~\213w\340\300>\013\007\246\372"
 192      3AF0455B 
 192      077E8B77 
 192      E0C03E0B 
 192      07A6FA
 193 03f8 537B3A89 		.ascii	"S{:\211=}\304\336\002\364\014\322\363@\223\037\2169"
 193      3D7DC4DE 
 193      02F40CD2 
 193      F340931F 
 193      8E39
 194 040a C89BFD4B 		.ascii	"\310\233\375K\235\241(\244\324T\306\244\303\262r\025"
 194      9DA128A4 
 194      D454C6A4 
 194      C3B27215 
 195 041a D2E0189B 		.ascii	"\322\340\030\233\223\352\256\033\273\333\335_\317\212"
 195      93EAAE1B 
 195      BBDBDD5F 
 195      CF8A
 196 0428 AF3CD9EE 		.ascii	"\257<\331\356nh\306__q\035\361\201y\0341a\242\217\264"
 196      6E68C65F 
 196      5F711DF1 
 196      81791C31 
 196      61A28FB4 
 197 043c 67CDEB2B 		.ascii	"g\315\353+'\343\343\234\023)\254\354\203R(\361\255'"
 197      27E3E39C 
 197      1329ACEC 
 197      835228F1 
 197      AD27
 198 044e DB592285 		.ascii	"\333Y\"\205\325^\202\325\333\347'eH\034\375\362\364"
 198      D55E82D5 
 198      DBE72765 
 198      481CFDF2 
 198      F4
 199 045f 296D7A69 		.ascii	")mzi\346\310Ji}V\306\225\222\021\210c6a\223G9SX\352"
 199      E6C84A69 
 199      7D56C695 
 199      92118863 
 199      36619347 
 200 0477 11026A69 		.ascii	"\021\002ji\246\240\244\304/~\341WZs-\272\032K\213\254"
 200      A6A0A4C4 
 200      2F7EE157 
 200      5A732DBA 
 200      1A4B8BAC 
 201 048b CF88E712 		.ascii	"\317\210\347\0227\274\243(\371\002\273\0209\376\332"
 201      37BCA328 
 201      F902BB10 
 201      39FEDA
 202 049a 9AE38EB1 		.ascii	"\232\343\216\261v8\034s\025\233\264\2308N\354\272\320"
ARM GAS  /tmp/cc6tgXFO.s 			page 15


 202      76381C73 
 202      159BB498 
 202      384EECBA 
 202      D0
 203 04ab 75631B22 		.ascii	"uc\033\"\2678`\273!~\264y\215\2435j\007\257w_\232\022"
 203      B73860BB 
 203      217EB479 
 203      8DA3356A 
 203      07AF775F 
 204 04c1 E3F8B9F8 		.ascii	"\343\370\271\370P\234\215\227\243\024ofg\324\273\021"
 204      509C8D97 
 204      A3146F66 
 204      67D4BB11 
 205 04d1 8663DEC5 		.ascii	"\206c\336\305&m}\245H\374B\225\242\315\221\024\2275"
 205      266D7DA5 
 205      48FC4295 
 205      A2CD9114 
 205      9735
 206 04e3 29047619 		.ascii	")\004v\031\227\003\260\307\222\260N\007\222\021\357"
 206      9703B0C7 
 206      92B04E07 
 206      9211EF
 207 04f2 DA9EDC16 		.ascii	"\332\236\334\026A\007\373\3305X\300\000\266t\357j\227"
 207      4107FBD8 
 207      3558C000 
 207      B674EF6A 
 207      97
 208 0503 0173E5C5 		.ascii	"\001s\345\305\3237\354B\361;p`\276\340\375I\006\346"
 208      D337EC42 
 208      F13B7060 
 208      BEE0FD49 
 208      06E6
 209 0515 76AF0341 		.ascii	"v\257\003A\354\007&X\345\320M\235/)\312\243\331\272"
 209      EC072658 
 209      E5D04D9D 
 209      2F29CAA3 
 209      D9BA
 210 0527 7F66DB09 		.ascii	"\177f\333\011\3021;\261\263uf\313\256\274v\3506\325"
 210      C2313BB1 
 210      B37566CB 
 210      AEBC76E8 
 210      36D5
 211 0539 B2EB1C59 		.ascii	"\262\353\034Y\366\225\375+\234\371g\266\336}\010\273"
 211      F695FD2B 
 211      9CF967B6 
 211      DE7D08BB 
 212 0549 BF86DD3F 		.ascii	"\277\206\335?o\356~\373\377\234\271K\355\376yG\335\177"
 212      6FEE7EFB 
 212      FF9CB94B 
 212      EDFE7947 
 212      DD7F
 213 055b 72D0620B 		.ascii	"r\320b\013'\260w]\227\326|\327\276\031\366\024v\262"
 213      27B0775D 
 213      97D67CD7 
 213      BE19F614 
 213      76B2
 214 056d 091DA8CB 		.ascii	"\011\035\250\313g6\337\3359t_\370LU\340\230\367}:\367"
ARM GAS  /tmp/cc6tgXFO.s 			page 16


 214      6736DFDD 
 214      39745FF8 
 214      4C55E098 
 214      F77D3AF7 
 215 0581 FDF25F10 		.ascii	"\375\362_\020s\367\335\317\241\245t\036\216\272F4:\361"
 215      73F7DDCF 
 215      A1A5741E 
 215      8EBA4634 
 215      3AF1
 216 0593 85833822 		.ascii	"\205\2038\"T\260n'`\266\216\324\020\377\216\006\373"
 216      54B06E27 
 216      60B68ED4 
 216      10FF8E06 
 216      FB
 217 05a4 D8359891 		.ascii	"\3305\230\221\263\357i\260O\235\200\345\333s\366\003"
 217      B3EF69B0 
 217      4F9D80E5 
 217      DB73F603 
 218 05b4 0DF6856B 		.ascii	"\015\366\205k0#g?\322`g\234\200\015\265\347\354\012"
 218      3023673F 
 218      D260679C 
 218      800DB5E7 
 218      EC0A
 219 05c6 0DF6B56B 		.ascii	"\015\366\265k0#g\327h\260\363N\300\002\366\234\265\034"
 219      302367D7 
 219      68B0F34E 
 219      C002F69C 
 219      B51C
 220 05d8 A6C07A5C 		.ascii	"\246\300z\\\203\0319k\245\301.9\001\033f\317\3312\032"
 220      8319396B 
 220      A5C12E39 
 220      011B66CF 
 220      D9321A
 221 05eb ECAA6B30 		.ascii	"\354\252k0#gO\320`\363\374\016\300\012\3559k\243\301"
 221      23674FD0 
 221      60F3FC0E 
 221      C00AED39 
 221      6BA3C1
 222 05fe 9A5C8319 		.ascii	"\232\\\203\0319[E\203=\352\004l\264=g\253i\260\205\256"
 222      395B4583 
 222      3DEA046C 
 222      B43D67AB 
 222      69B085AE 
 223 0612 C18C9C6D 		.ascii	"\301\214\234m\246\301\2268\001\033k\317\331K4\3302\327"
 223      A6C19638 
 223      011B6BCF 
 223      D94B34D8 
 223      32D7
 224 0624 6046CEB6 		.ascii	"`F\316\266\321`+\234\200M\264\347\354e\032l\225k0#g"
 224      D1602B9C 
 224      804DB4E7 
 224      EC651A6C 
 224      956B3023 
 225 0639 3B68B035 		.ascii	";h\2605N\300\246\333s\366*\015\326\341\032\314\310\331"
 225      4EC0A6DB 
 225      73F62A0D 
 225      D6E11ACC 
ARM GAS  /tmp/cc6tgXFO.s 			page 17


 225      C8D9
 226 064b 4E1AEC19 		.ascii	"N\032\354\031'`3\3549{\215\006{\3265\230\221\263C4\330"
 226      276033EC 
 226      397B8D06 
 226      7BD63598 
 226      91B34334 
 227 0660 5F9C80DD 		.ascii	"_\234\200\335o\301Y\362c\325\216\204\351\3478j\263\266"
 227      6FC159F2 
 227      63D58E84 
 227      E9E7386A 
 227      B3B6
 228 0672 C9AF2F70 		.ascii	"\311\257/p\\\306h&\205\361\222\337\355\212\314 7Y'\337"
 228      5CC66826 
 228      85F192DF 
 228      ED8ACC20 
 228      375927DF 
 229 0686 F4AA16E7 		.ascii	"\364\252\026\347\325\305\352\016'\210i\002\340\252\275"
 229      D5C5EA0E 
 229      27886902 
 229      E0AABD
 230 0695 D4CA37EE 		.ascii	"\324\3127\356\032\314\344\312\004\314\260tJ\036\375"
 230      1ACCE4CA 
 230      04CCB074 
 230      4A1EFD
 231 06a4 C7D39F78 		.ascii	"\307\323\237x\220\027L\034\365\236`\250u]\201=\307\221"
 231      90174C1C 
 231      F59E60A8 
 231      755D813D 
 231      C791
 232 06b6 2DFC579C 		.ascii	"-\374W\234?\311\205\232\327s\352\221A\227\337x\340\220"
 232      3FC9859A 
 232      D773EA91 
 232      4197DF78 
 232      E090
 233 06c8 FC646A6A 		.ascii	"\374djj\347\011ghOx\317\211\232\322\204\366O\366\256"
 233      E7096768 
 233      4F78CF89 
 233      9AD284F6 
 233      4FF6AE
 234 06db C6F34CE7 		.ascii	"\306\363L\347\357EV^<\244m\020\276\301\015\302\007~"
 234      EF45565E 
 234      3CA46D10 
 234      BEC10DC2 
 234      077E
 235 06ed F30A73BB 		.ascii	"\363\012s\273\3137#\260\0163Kau\254b\277\246\000_<~"
 235      CB3723B0 
 235      0E334B61 
 235      75AC62BF 
 235      A6005F3C 
 236 0702 73E72645 		.ascii	"s\347&Ei\314v#G\227&G\017\312\361\305O \307\327\256"
 236      69CC7623 
 236      47972647 
 236      0FCAF1C5 
 236      4F20C7D7 
 237 0717 E5186692 		.ascii	"\345\030f\222#>\314\275\034\30759~D9z~\0029\256\272"
 237      233ECCBD 
 237      1CC73539 
ARM GAS  /tmp/cc6tgXFO.s 			page 18


 237      7E44397A 
 237      7E0239AE 
 238 072c 96A39092 		.ascii	"\226\243\220\222\003wk\303\325\335\332\020\2465\375"
 238      03776BC3 
 238      D5DDDA10 
 238      A635FD
 239 073b 6E8DF0D3 		.ascii	"n\215\360\323\313\0151\235o\357#G\216\244\330\301\341"
 239      CB0D319D 
 239      6FEF2347 
 239      8EA4D8C1 
 239      E1
 240 074c C73E6A8B 		.ascii	"\307>j\213\2538\333\342~\243i\254\301C46\177\200\305"
 240      AB38DBE2 
 240      7EA369AC 
 240      C1433436 
 240      7F80C5
 241 075f 91B023A4 		.ascii	"\221\260#\244\356=om\321\216\177\232\020jA\277\241\226"
 241      EE3D6F6D 
 241      D18E7F9A 
 241      106A41BF 
 241      A196
 242 0771 EE7B457D 		.ascii	"\356{E}\335\370\010\002\265\0160[1\333d\304l\243\021"
 242      DDF80802 
 242      B50E305B 
 242      31DB64C4 
 242      6CA311
 243 0784 E191F4F4 		.ascii	"\341\221\364\364\003\331q\263\177\322J\310\203\227\371"
 243      03D971B3 
 243      7FD24AC8 
 243      8397F9
 244 0793 7F6FC731 		.ascii	"\177o\3071\253\221}b@\227\001*\345@\277\353\324\202"
 244      AB917D62 
 244      4097012A 
 244      E540BFEB 
 244      D482
 245 07a5 8B6AA467 		.ascii	"\213j\244g\376!\304\206\370\326\307\364c\232\273Ix\331"
 245      FE21C486 
 245      F8D6C7F4 
 245      639ABB49 
 245      78D9
 246 07b7 F80FC2BD 		.ascii	"\370\017\302\275\277\337\375\301J\374F\325\353\226\240"
 246      BFDFFDC1 
 246      4AFC46D5 
 246      EB96A0
 247 07c6 405BFB58 		.ascii	"@[\373X\270_\007+\257\367"
 247      B85F072B 
 247      AFF7
 248 07d0 5790E487 		.ascii	"W\220\344\207c\366\014p\020D\002\351\254\365\303p\207"
 248      63F60C70 
 248      104402E9 
 248      ACF5C370 
 248      87
 249 07e1 8733C943 		.ascii	"\2073\311C\310\323C\273P\031+<\344\370n\237I\031\016"
 249      C8D343BB 
 249      50192B3C 
 249      E4F86E9F 
 249      49190E
ARM GAS  /tmp/cc6tgXFO.s 			page 19


 250 07f4 0E79BAB1 		.ascii	"\016y\272\261\311*O\237\343\273C7\250\247,\344'\007"
 250      C92A4F9F 
 250      E3BB4337 
 250      A8A72CE4 
 250      2707
 251 0806 873C86E3 		.ascii	"\207<\206\343;\201]\315q\032l\177\365i0a\212?\200\366"
 251      3B815DCD 
 251      711A6C7F 
 251      F5693061 
 251      8A3F80F6 
 252 081a 90F5C21A 		.ascii	"\220\365\302\032\217\341\230\377\214k\335\007h\335\307"
 252      8FE198FF 
 252      8C6BDD07 
 252      68DDC7
 253 0829 2FEF5FCD 		.ascii	"/\357_\315\252\374\253\307\271\337\232\361\306\322k"
 253      AAFCABC7 
 253      B9DF9AF1 
 253      C6D26B
 254 0838 392D6BBB 		.ascii	"9-k\273oU\342\255\007p\021\246\016\272kN\230K\263\325"
 254      6F55E2AD 
 254      077011A6 
 254      0EBA6B4E 
 254      984BB3D5 
 255 084c 6C57C154 		.ascii	"lW\301T\207\237\237\343\026,`\000\333\265\310\342\270"
 255      879F9FE3 
 255      162C6000 
 255      DBB5C8E2 
 255      B8
 256 085d 583D22B7 		.ascii	"X=\"\267\013,\353=\324Ri\261\223\376\323\354N\217\036"
 256      0B2CEB3D 
 256      D45269B1 
 256      93FED3EC 
 256      4E8F1E
 257 0870 58AD798A 		.ascii	"X\255y\212z2\272\3225\236Q\236\363\213\0143\322Z'pc"
 257      7A32BAD2 
 257      359E519E 
 257      F38B0C33 
 257      D25A2770 
 258 0885 1D3B5EEA 		.ascii	"\035;^\352\\\033\234\020\027\252Or\344\315\320\032\244"
 258      5C1B9C10 
 258      17AA4F72 
 258      E4CDD01A 
 258      A4
 259 0896 4F215D8B 		.ascii	"O!]\213\364s\244\247\220\236F\372w\244\337!\275\204"
 259      F473A4A7 
 259      909E46FA 
 259      77A4DF21 
 259      BD84
 260 08a8 F41AD227 		.ascii	"\364\032\322'<\330\026\351\323H\237A\272\016\351\006"
 260      3CD816E9 
 260      D3489F41 
 260      BA0EE906 
 261 08b8 A4CFD3EE 		.ascii	"\244\317\323\356mg\027u\250%\007\246>\352Z\372}h~,u"
 261      6D671775 
 261      A82507A6 
 261      3EEA5AFA 
 261      7D687E2C 
ARM GAS  /tmp/cc6tgXFO.s 			page 20


 262 08cd 682EB0ED 		.ascii	"h.\260\355\256\301\002\3514\331Bi\262\0255\271\024\265"
 262      AEC102E9 
 262      34D94269 
 262      B21535B9 
 262      14B5
 263 08df B1D13890 		.ascii	"\261\3218\2207\346\350\257q\322\014<{\021\022\037|y"
 263      37E6E8AF 
 263      71D20C3C 
 263      7B11121F 
 263      7C79
 264 08f1 DABB5289 		.ascii	"\332\273R\211\317\367\350;\240mf\300\214\0334\243N\256"
 264      CFF7E83B 
 264      A06D66C0 
 264      8C1B34A3 
 264      4EAE
 265 0903 89A61B17 		.ascii	"\211\246\033\027\352;*;\233l\241\307\312N\327}\247U"
 265      EA3B2A3B 
 265      9B6CA1C7 
 265      CA4ED77D 
 265      A755
 266 0915 E1A3940A 		.ascii	"\341\243\224\012\037C\025>\216*\334\204.\263\231V\244"
 266      1F43153E 
 266      8E2ADC84 
 266      2EB39956 
 266      A4
 267 0926 C02EE04C 		.ascii	"\300.\340L\367M\214/\314\322t\236|\311\335s\314\342"
 267      F74D8C2F 
 267      CCD2749E 
 267      7CC9DD73 
 267      CCE2
 268 0938 C289FAAA 		.ascii	"\302\211\372\252(MPZ\361Z\367M\0331tl\363\020\003\\"
 268      284D505A 
 268      F15AF74D 
 268      1B31746C 
 268      F310035C 
 269 094c CE3147E8 		.ascii	"\3161G\350e\234\351\360\334\344\310\034\263(\327\301"
 269      659CE9F0 
 269      DCE4C81C 
 269      B328D7C1 
 270 095c 0BC8343B 		.ascii	"\013\3104;\231-\213.\036c\033\033\225\015\205\332\312"
 270      992D8B2E 
 270      1E631B1B 
 270      950D85DA 
 270      CA
 271 096d 42695686 		.ascii	"BiV\206mH\005\301|\035\203K\362\035\337\256\276H\355"
 271      6D4805C1 
 271      7C1D834B 
 271      F21DDFAE 
 271      BE48ED
 272 0980 C4597679 		.ascii	"\304Yvy\256\345\375\206\3140\211\356\346W~\207+\320"
 272      AEE5FD86 
 272      CC3089EE 
 272      E6577E87 
 272      2BD0
 273 0992 9D08F454 		.ascii	"\235\010\364T\277\201\226.xV\275(\361:\002m\3105\253"
 273      BF81962E 
 273      7856BD28 
ARM GAS  /tmp/cc6tgXFO.s 			page 21


 273      F13A026D 
 273      C835AB
 274 09a5 D1635AE7 		.ascii	"\321cZ\347x\214\353\034\217?\225\351\355\3650\377\304"
 274      788CEB1C 
 274      8F3F95E9 
 274      EDF530FF 
 274      C4
 275 09b6 CAB00C33 		.ascii	"\312\260\0143\033\314 Q\246\265\0171\330U\315\331\364"
 275      1BCC2051 
 275      A6B50F31 
 275      D855CDD9 
 275      F4
 276 09c7 1B263B9C 		.ascii	"\033&;\234\270\200\001\321\340\002\361+'q.S\301\336"
 276      B88001D1 
 276      E002F12B 
 276      27712E53 
 276      C1DE
 277 09d9 700296E6 		.ascii	"p\002\226\346\030zy\373S\266\357\260:2^\275Jt\236z\347"
 277      187A79FB 
 277      53B6EFB0 
 277      3A325EBD 
 277      4A749E7A 
 278 09ee DFC845C0 		.ascii	"\337\310E\300\314\327\257\366y\234]\277z\327c~\317}"
 278      CCD7AFF6 
 278      799C5DBF 
 278      7AD7637E 
 278      CF7D
 279 0a00 00AF5FBD 		.ascii	"\000\257_\275\353h\265v\321j\015`u\03319e\014M\011\363"
 279      EB68B576 
 279      D16A0D60 
 279      751B3139 
 279      650C4D09 
 280 0a15 E1D977EE 		.ascii	"\341\331w\356Ro5\036\302E\347\301\237e\276\325h\300"
 280      526F351E 
 280      C245E7C1 
 280      9F65BED5 
 280      68C0
 281 0a27 21FC1D31 		.ascii	"!\374\0351\363\277\365 \362\177$3\377\363\033\343\257"
 281      F3BFF520 
 281      F27F2433 
 281      FFF31BE3 
 281      AF
 282 0a38 68EFF470 		.ascii	"h\357\364p05\246\3356\010\3549\274\"\342d\023\360\031"
 282      3035A6DD 
 282      3608EC39 
 282      BC22E264 
 282      13F019
 283 0a4b 4A72C4FD 		.ascii	"Jr\304\375\242Uck\207\372N\346\030\216\327/\\\203\005"
 283      A255636B 
 283      87FA4EE6 
 283      188ED72F 
 283      5C8305
 284 0a5e 0C60AFD2 		.ascii	"\014`\257\322`g\235\200\331\0051\000\333I\203\375\315"
 284      60679D80 
 284      D9053100 
 284      DB4983FD 
 284      CD
ARM GAS  /tmp/cc6tgXFO.s 			page 22


 285 0a6f 359891B3 		.ascii	"5\230\221\263\327h\260o\235\200\331\235V\002\330!\032"
 285      D768B06F 
 285      9D80D99D 
 285      5602D821 
 285      1A
 286 0a80 EC07D760 		.ascii	"\354\007\327`\001+/a\3728\231\300~\200\273\206\243\030"
 286      012B2F61 
 286      FA3899C0 
 286      7E80BB86 
 286      A318
 287 0a92 298F233D 		.ascii	")\217#=\201\364#\244\177E\232p\262\350:H\007\370+\310"
 287      81F423A4 
 287      7F459A70 
 287      B2E83A48 
 287      07F82BC8 
 288 0aa6 F0BBFDF3 		.ascii	"\360\273\375\363\030\230\366:O}z\247z\372k\212\261D"
 288      1898F63A 
 288      4F7D7AA7 
 288      7AFA6B8A 
 288      B144
 289 0ab8 1F761C7C 		.ascii	"\037v\034|Ns\320\230\347\226\203\000\315A\374\362\001"
 289      4E73D098 
 289      E7968300 
 289      CD41FCF2 
 289      01
 290 0ac9 F5E452BF 		.ascii	"\365\344R\277\350\375\210\031\317\351\325,}\271t g\363"
 290      E8FD8819 
 290      CFE9D52C 
 290      7DB97420 
 290      67F3
 291 0adb FD3AD862 		.ascii	"\375:\330b\327`\206\353\327\361\226\203\024\330J\327"
 291      D76086EB 
 291      D7F19683 
 291      14D84AD7 
 292 0aeb 60F97D3C 		.ascii	"`\371}<B\365\205\367\320\027\016\240\315\377\027\351"
 292      42F585F7 
 292      D0170EA0 
 292      CDFF17E9 
 293 0afb 29A4A791 		.ascii	")\244\247\221\2365.H;\362\314qW\235c)\324\324d\3148"
 293      9E352E48 
 293      3BF2CC71 
 293      579D6329 
 293      D4D464CC 
 294 0b10 C5B5B36D 		.ascii	"\305\265\263m\027m\333\255yn\243\226\301\266\020T\367"
 294      176DDBAD 
 294      796EA396 
 294      C1B61054 
 294      F7
 295 0b21 7EA907D5 		.ascii	"~\251\007\325.\\\213u:AL\263\023\335\366W\363\353\000"
 295      2E5C8B75 
 295      3A414CB3 
 295      13DDF657 
 295      F3EB00
 296 0b34 ABD99EA3 		.ascii	"\253\331\236\243yKF\215\3353\325\250q\001\243\306\353"
 296      794B468D 
 296      DD33D5A8 
 296      7101A3C6 
ARM GAS  /tmp/cc6tgXFO.s 			page 23


 296      EB
 297 0b45 7999A306 		.ascii	"y\231\243\006g\224Q`{\314Q\343\322\021\214\032=\216"
 297      67945160 
 297      7BCC51E3 
 297      D2118C1A 
 297      3D8E
 298 0b57 A2C6D523 		.ascii	"\242\306\325#\313\264\235\242:\333\354G\026z\372=\335"
 298      CBB49DA2 
 298      3ADBEC47 
 298      167AFA3D 
 298      DD
 299 0b68 5F3B424D 		.ascii	"_;BM]\007]\203\005\014`-\307(\260#N\300\322L\367\255"
 299      5D075D83 
 299      050C602D 
 299      C728B023 
 299      4EC0D24C 
 300 0b7e 34D871D7 		.ascii	"4\330q\327`F\316\226\321`\037;\001K3\335?A\203%\\\203"
 300      6046CE96 
 300      D1601F3B 
 300      014B33DD 
 300      3F418325 
 301 0b94 19396BA3 		.ascii	"\0319k\243\301>w\002f\367\012\007\300V\321`\247]\203"
 301      C13E7702 
 301      66F70A07 
 301      C056D160 
 301      A75D83
 302 0ba7 19395B4D 		.ascii	"\0319[M\203}\345\004,`\317Y;\015v\3015X\300jH\250\037"
 302      837DE504 
 302      2C60CF59 
 302      3B0D76C1 
 302      3558C06A 
 303 0bbe 7A4409EC 		.ascii	"zD\011\354\3678-^\304\311\352\022\322\313H\257\"\355"
 303      F7382D5E 
 303      C4C9EA12 
 303      D2CB48AF 
 303      22ED
 304 0bd0 453A8F27 		.ascii	"E:\217'\264\021i\023\322?#}\224w0\271\235\247'\267\213"
 304      B4116913 
 304      D23F237D 
 304      947730B9 
 304      9DA727B7 
 305 0be5 AEA7A2B4 		.ascii	"\256\247\242\264\202\244\376DF`\337\300\025\337\233"
 305      82A4FE44 
 305      4660DFC0 
 305      15DF9B
 306 0bf4 7885F728 		.ascii	"x\205\367(R\005\367\311MH\267\242 ;\220\276\211\364"
 306      5205F7C9 
 306      4D48B7A2 
 306      203B90BE 
 306      89F4
 307 0c06 6DA47B91 		.ascii	"m\244{\221\376\015\3517N\346\352]\251\213\277\260\037"
 307      FE0DE937 
 307      4EE6EA5D 
 307      A98BBFB0 
 307      1F
 308 0c17 E7C9767B 		.ascii	"\347\311v{]\277\257\224\177\261\177\261\333;\371\347"
 308      5DBFAF94 
ARM GAS  /tmp/cc6tgXFO.s 			page 24


 308      7FB17FB1 
 308      DB3BF9E7 
 309 0c27 12EBB5B7 		.ascii	"\022\353\265\267&\013\361\376\366\345>\221\252_G\341"
 309      260BF1FE 
 309      F6E53E91 
 309      AA5F47E1 
 310 0c37 4D03D9CC 		.ascii	"M\003\331\314\222\244\271c\330\264h!KV\024\203\230\026"
 310      92A4B963 
 310      D8B46821 
 310      4B561483 
 310      9816
 311 0c49 9CD187AA 		.ascii	"\234\321\207\252\357b\265\2723t\204\034\215\245V~\020"
 311      EF62B5BA 
 311      3374841C 
 311      8DA5567E 
 311      10
 312 0c5a E60CEF78 		.ascii	"\346\014\357x\260\206\235\336\227\362\251\367\275\271"
 312      B0869DDE 
 312      97F2A9F7 
 312      BDB9
 313 0c68 FE546640 		.ascii	"\376Tf@\322\267\026\232E0\364\232a\312\2030\327\363"
 313      D2B7169A 
 313      4530F49A 
 313      61CA8330 
 313      D7F3
 314 0c7a 4317ABB4 		.ascii	"C\027\253\264\346\232\326dd\031b\307\323\023<\345\332"
 314      E69AD664 
 314      641962C7 
 314      D3133CE5 
 314      DA
 315 0c8b AD4E3498 		.ascii	"\255N4\230\346m\362\367!\022\261\011$\307\264\271\306"
 315      E66DF2F7 
 315      2112B109 
 315      24C7B4B9 
 315      C6
 316 0c9c 0AD88C11 		.ascii	"\012\330\214\021\306\370\207\233\002\273\036\207\311"
 316      C6F8879B 
 316      02BB1E87 
 316      C9
 317 0ca9 B33840B6 		.ascii	"\2638@\266!\335\211\364q\034\321K\220.G\332F\217n\203"
 317      21DD89F4 
 317      711CD14B 
 317      902E47DA 
 317      468F6E83 
 318 0cbd 567423B7 		.ascii	"Vt#\267\345\031\254<Z\347\314\253\365\373\244k+\257"
 318      E519AC3C 
 318      5AE7CCAB 
 318      F5FBA46B 
 318      2BAF
 319 0ccf B6B172B6 		.ascii	"\266\261r\266\306\206]\273U)K\334\314\264+\035\211\304"
 319      C6865DBB 
 319      55294BDC 
 319      CCB42B1D 
 319      89C4
 320 0ce1 D51FBB05 		.ascii	"\325\037\273\005r$\250\364\366\376\211\271\236Y\256"
 320      7224A8F4 
 320      F6FE89B9 
ARM GAS  /tmp/cc6tgXFO.s 			page 25


 320      9E59AE
 321 0cf0 31A0B0B2 		.ascii	"1\240\260\262\3555P\002\324\316_\2179\217\372\247\021"
 321      ED355002 
 321      D4CE5F8F 
 321      398FFAA7 
 321      11
 322 0d01 99563D89 		.ascii	"\231V=\211\344\365\325j&9F\337\277|\376V<\303y\232'"
 322      E4F5D56A 
 322      263946DF 
 322      BF7CFE56 
 322      3CC3799A 
 323 0d16 8B9E3706 		.ascii	"\213\2367\006f\\\364\030apQ\303\233\026=\227\311\337"
 323      665CF418 
 323      617051C3 
 323      9B163D97 
 323      C9DF
 324 0d28 DA92D2CC 		.ascii	"\332\222\322\314ou{\327\222+\355\372\337\376\356W\273"
 324      6F757BD7 
 324      922BEDFA 
 324      DFFEEE57 
 324      BB
 325 0d39 E7534782 		.ascii	"\347SG\202\206?\354\315\260\342\001\270%_\267y\020o"
 325      863FECCD 
 325      B0E201B8 
 325      255FB779 
 325      106F
 326 0d4b F800803B 		.ascii	"\370\000\200;l\206s\023\327\310;\222\367X\342\347\210"
 326      6C867313 
 326      D7C83B92 
 326      F758E2E7 
 326      88
 327 0d5c 75D23556 		.ascii	"u\3225V\300\200\265\274\307\007\214\351\336H\\\253)"
 327      C080B5BC 
 327      C7078CE9 
 327      DE485CAB 
 327      29
 328 0d6d B583EA73 		.ascii	"\265\203\352sz\362\202ko\334d\343\215\372\337\372\302"
 328      7AF2826B 
 328      6FDC64E3 
 328      8DFADFFA 
 328      C2
 329 0d7e 92C12C81 		.ascii	"\222\301,\201\241W\253\305\272Q\033Odu\025\332\360\337"
 329      A157ABC5 
 329      BA511B4F 
 329      647515DA 
 329      F0DF
 330 0d90 9134D3AD 		.ascii	"\2214\323\255\032;[\\\013\360\222\215\000\276\244\000"
 330      1A3B5B5C 
 330      0BF0928D 
 330      00BEA400 
 331 0da0 67CD0218 		.ascii	"g\315\002\030\273M\023\2215\011\332\262\332t\011:\306"
 331      BB4D1391 
 331      3509DAB2 
 331      DA74093A 
 331      C6
 332 0db1 B6659830 		.ascii	"\266e\2300\267\273\226\340e\033\011<I\011\276r\342D"
 332      B7BB96E0 
ARM GAS  /tmp/cc6tgXFO.s 			page 26


 332      651B093C 
 332      4909BE72 
 332      E244
 333 0dc3 B617DA94 		.ascii	"\266\027\332\224\370\252\224\000\001\023\377\306\303"
 333      F8AA9400 
 333      0113FFC6 
 333      C3
 334 0dd0 73C24EA7 		.ascii	"s\302N\247k\001^\265\021``R\200\236>\003\324\352\314"
 334      6B015EB5 
 334      11606052 
 334      809E3E03 
 334      D4EACC
 335 0de3 DEEA169D 		.ascii	"\336\352\026\235\325\207\236:`\346\347\311l\277\036"
 335      D5879E3A 
 335      60E6E7C9 
 335      6CBF1E
 336 0df2 E7F30D48 		.ascii	"\347\363\015H\237G\272\021\351f\244\333\220\356p\262"
 336      9F47BA11 
 336      E966A4DB 
 336      90EE70B2 
 337 0e02 96EB484D 		.ascii	"\226\353HM\263\332\004\231\\\020%\237\265\0333\002{"
 337      B3DA0499 
 337      5C10259F 
 337      B51B3302 
 337      7B
 338 0e13 6FEA4099 		.ascii	"o\352@\231c\256\231&\301[\231g\024\245\225\314\322\273"
 338      63AE9926 
 338      C15B9967 
 338      14A595CC 
 338      D2BB
 339 0e25 C96675A2 		.ascii	"\311fu\242\212\3151\013\362I\2755\374\315\226<h\034"
 339      8ACD310B 
 339      F249BD35 
 339      FCCD963C 
 339      681C
 340 0e37 A88D954E 		.ascii	"\250\215\225Nq\242\332=\307,\312\320\014\231\324\232"
 340      71A2DA3D 
 340      C72CCAD0 
 340      0C99D49A 
 341 0e47 5DFAAFA1 		.ascii	"]\372\257\241\372\351\302rs3\323-5M\226_3\353\210\265"
 341      FAE9C272 
 341      7333D32D 
 341      354D965F 
 341      33EB88B5 
 342 0e5b 172A4DF9 		.ascii	"\027*M\371,F\017Fke\320\373k\274\341\2775\250q(\336"
 342      2C460F46 
 342      6B65D0FB 
 342      6BBCE1BF 
 342      35A87128 
 343 0e70 F3516ECB 		.ascii	"\363Qn\313\274Do\357\315\246\030\324\220\346\254g\257"
 343      BC446FEF 
 343      CDA618D4 
 343      90E6AC67 
 343      AF
 344 0e81 3108A952 		.ascii	"1\010\251Rk\017>\346\317\352_\015*\363\330\207\030K"
 344      6B0F3EE6 
 344      CFEA5F0D 
ARM GAS  /tmp/cc6tgXFO.s 			page 27


 344      2AF3D887 
 344      184B
 345 0e93 BE5337F1 		.ascii	"\276S7\361\004v\037\357\203v\355\371\254\235\267\220"
 345      04761FEF 
 345      8376EDF9 
 345      AC9DB790 
 346 0ea3 0ABAC9D5 		.ascii	"\012\272\311\325\274\236c\031\013;\256\315\267\262\243"
 346      BC9E6319 
 346      0B3BAECD 
 346      B7B2A3
 347 0eb2 7239A459 		.ascii	"r9\244YP`\343\270&\336\343\310\202O\021S\250,nF\340"
 347      5060E3B8 
 347      26DEE3C8 
 347      824F1153 
 347      A82C6E46 
 348 0ec7 3DB6A6D0 		.ascii	"=\266\246\320\370\324L\361bsS>\257*\221I\323\233&\301"
 348      F8D44CF1 
 348      6273533E 
 348      AF2A9149 
 348      D39B26C1 
 349 0edb 7B969669 		.ascii	"{\226\226i\023\273\224o`\371\353\3020G\254\014c\322"
 349      13BB946F 
 349      60F9EBC2 
 349      3047AC0C 
 349      63D2
 350 0eed D00E6B0D 		.ascii	"\320\016k\015]5k\350pz\015\331\211j\327L\343\360h_Q"
 350      5D356BE8 
 350      707A0DD9 
 350      896AD74C 
 350      E3F0685F 
 351 0f02 3727E287 		.ascii	"7'\342\207\334\213\332\235\306\007\005vT\216\205o\274"
 351      DC8BDA9D 
 351      C6070576 
 351      548E856F 
 351      BC
 352 0f13 6D257983 		.ascii	"m%y\203\362\244h\222\374\270\003\337hP\216\220f\243"
 352      F2A46892 
 352      FCB803DF 
 352      68508E90 
 352      66A3
 353 0f25 F0CF5610 		.ascii	"\360\317V\020\327\276\325\2504\352\262k\245I\371\221"
 353      D7BED5A8 
 353      34EAB26B 
 353      A549F991 
 354 0f35 A5BA96ED 		.ascii	"\245\272\226\355\321\306\254\252\006\216\371\314Z\262"
 354      D1C6ACAA 
 354      068EF9CC 
 354      5AB2
 355 0f43 2D66C93E 		.ascii	"-f\311>u$YwR\262K\210k\337*\235dv\2554\311>\353+Y\242"
 355      75245977 
 355      52B24B88 
 355      6BDF2A9D 
 355      6476AD34 
 356 0f5d 2531FFF0 		.ascii	"%1\377\360\343\012\353z>:\235fQ\254.3\355Z\236\265\010"
 356      E30AEB7A 
 356      3E3A9D66 
 356      51AC2E33 
ARM GAS  /tmp/cc6tgXFO.s 			page 28


 356      ED5A9EB5 
 357 0f72 18DAAEC9 		.ascii	"\030\332\256\311\03402\375n\016(&\223\350r\377\335J"
 357      1C3032FD 
 357      6E0E2826 
 357      93E872FF 
 357      DD4A
 358 0f84 EEF8D5E3 		.ascii	"\356\370\325\343vr\247\331\013\2347\017\201\263\364"
 358      7672A7D9 
 358      0B9C370F 
 358      81B3F4
 359 0f93 10B0897B 		.ascii	"\020\260\211{\266b\230\237\027\362t}\223"
 359      B662989F 
 359      17F2747D 
 359      93
 360 0fa0 4EA95D55 		.ascii	"N\251]U\037\266.\361\364\213t\223Z\226\014\262V\313"
 360      1FB62EF1 
 360      F48B7493 
 360      5A960CB2 
 360      56CB
 361 0fb2 8F966AE9 		.ascii	"\217\226j\351\375\250?\356p%\255^\264\211\332\304W\207"
 361      FDA83FEE 
 361      7025AD5E 
 361      B489DAC4 
 361      5787
 362 0fc4 0D5FBD46 		.ascii	"\015_\275F\276\376\225yZQ\016\303\262`\345\260\025J"
 362      BEFE9579 
 362      5A510EC3 
 362      B260E5B0 
 362      154A
 363 0fd6 7C9EA25C 		.ascii	"|\236\242\\\351\355eY=\\\277\230\004\261\212\021\004"
 363      E9ED6559 
 363      3D5CBF98 
 363      04B18A11 
 363      04
 364 0fe7 6E5E960A 		.ascii	"n^\226\0127\203M\032\304\274\237\207\025\234\235`\015"
 364      37834D1A 
 364      C4BC9F87 
 364      159C9D60 
 364      0D
 365 0ff8 5949CD9A 		.ascii	"YI\315\232Zu\246i"
 365      5A75A669 
 366 1000 D568DB8A 		.ascii	"\325h\333\2128\220]\253\371\266\255N\247i\325d\333\352"
 366      38905DAB 
 366      F9B6AD4E 
 366      A769D564 
 366      DBEA
 367 1012 4A9A56CD 		.ascii	"J\232V\315\251V\314u\245Rx\216(\305\012\302\305\225"
 367      A956CC75 
 367      A552788E 
 367      28C50AC2 
 367      C595
 368 1024 C198581B 		.ascii	"\301\230X\033\213H\303\253\230\234I\305%\345\370\020"
 368      8B48C3AB 
 368      989C49C5 
 368      25E5F810 
 369 1034 94B37F3F 		.ascii	"\224\263\177?\365\336@\01130U\024\223\005Y\364M\232"
 369      F5DE4009 
ARM GAS  /tmp/cc6tgXFO.s 			page 29


 369      33305514 
 369      930559F4 
 369      4D9A
 370 1046 3AAEA462 		.ascii	":\256\244b\322}\343\371I\245\223\307\363\367\334[>3"
 370      D27DE3F9 
 370      49A593C7 
 370      F3F7DC5B 
 370      3E33
 371 1058 0B7FB8B5 		.ascii	"\013\177\270\265\240.&\025\010R\315m\265\221Z\3616Q"
 371      A02E2615 
 371      0852CD6D 
 371      B5915AF1 
 371      3651
 372 106a 78205C10 		.ascii	"x \\\020\256\255\254\256\013\211\00519\024\256\225\241"
 372      AEADACAE 
 372      0B890531 
 372      3914AE95 
 372      A1
 373 107b 036F1D7C 		.ascii	"\003o\035|\217\016\312#\323T\256\021*\253\302\265bA"
 373      8F0ECA23 
 373      D354AE11 
 373      2AABC2B5 
 373      6241
 374 108d 3024CE12 		.ascii	"0$\316\022\352\252\345\240<7*\306\240\261?\030\324\232"
 374      EAAAE5A0 
 374      3C372AC6 
 374      A0B13F18 
 374      D49A
 375 109f 7B855048 		.ascii	"{\205PH\022c\261\322\202\252H\215XP\031\011\315-\010"
 375      1263B1D2 
 375      82AA488D 
 375      58501909 
 375      CD2D08
 376 10b2 89730AA0 		.ascii	"\211s\012\240\341\003\341H\254@\226\352j\037,\200L\225"
 376      E103E148 
 376      AC4096EA 
 376      6A1F2C80 
 376      4C95
 377 10c4 505D108D 		.ascii	"P]\020\215Hr\254\240\274b\312\210\342\202\311\223K\013"
 377      4872ACA0 
 377      BC62CA88 
 377      E282C993 
 377      4B0B
 378 10d6 40A03945 		.ascii	"@\2409E(wuu\210\300B\201\252\215b'p:\233\000\000\215"
 378      28777575 
 378      88C04281 
 378      AA8D6227 
 378      703A9B00 
 379 10ec 07C0178A 		.ascii	"\007\300\027\212\037\224\007\000N\360\336\251\223\246"
 379      1F940700 
 379      4EF0DEA9 
 379      93A6
 380 10fa 4EAAF091 		.ascii	"N\252\360\221ly\305\264\351\004;X6~\\\351\314\237\221"
 380      6C79C5B4 
 380      E9043B58 
 380      367E5CE9 
 380      CC9F91
ARM GAS  /tmp/cc6tgXFO.s 			page 30


 381 110d 9CAAB960 		.ascii	"\234\252\271`\305\014\372\251l\006\266\234<\255\344"
 381      C50CFAA9 
 381      6C06B69C 
 381      3CADE4
 382 111c 3FC797E6 		.ascii	"?\307\227\346\000^$Z\023\011\021\300i\323\247L+\035"
 382      005E245A 
 382      130911C0 
 382      69D3A74C 
 382      2B1D
 383 112e 1F845F87 		.ascii	"\037\204_\207h\331\362)\240\360`\351\370\373&\225\214"
 383      68D9F229 
 383      A0F060E9 
 383      F8FB2695 
 383      8C
 384 113f 1F64289B 		.ascii	"\037d(\2338\255\274\302\033\211\006IS\037Q\323\210b"
 384      38ADBCC2 
 384      1B890649 
 384      531F51D3 
 384      8862
 385 1151 40503546 		.ascii	"@P5F\2629\225\325\221\312\007\203\261\250(\206\362\240"
 385      B23995D5 
 385      91CA0783 
 385      B1A82886 
 385      F2A0
 386 1163 93509D3C 		.ascii	"\223P\235<\267rne5\364\223W^Q\032,\275\267bf\260df\311"
 386      B7726E65 
 386      35F49357 
 386      5E511A2C 
 386      BDB76266 
 387 117b E4F18326 		.ascii	"\344\361\203&\214+\257\240\236\203\305?7\227\024\215"
 387      8C2BAFA0 
 387      9E83C53F 
 387      3797148D 
 388 118b 0A8E1940 		.ascii	"\012\216\031@\020\202\010A\244,\211\324\316\012\317"
 388      10820841 
 388      A42C89D4 
 388      CE0ACF
 389 119a CEAEC42F 		.ascii	"\316\256\304/\242\225Y\325\302\354\030\270\221(I\021"
 389      A29559D5 
 389      C2EC18B8 
 389      91284911 
 390 11aa 29362293 		.ascii	")6\"\223j%9\251\331\312\252\032\271\2368KM\235,\326"
 390      6A2539A9 
 390      D9CAAA1A 
 390      B99E384B 
 390      4D9D2CD6 
 391 11be 07E52CFC 		.ascii	"\007\345,\374\036\355\012!67\246\273\315@\271J\022\205"
 391      1EED0A21 
 391      3637A6BB 
 391      CD40B94A 
 391      1285
 392 11d0 502CF850 		.ascii	"P,\370P\235X\007\342\346WV\005\015E#\335!WV\021\257"
 392      9D5807E2 
 392      E6575605 
 392      0D4523DD 
 392      21575611 
 393 11e5 F1A91041 		.ascii	"\361\251\020A\331\237\204\313\216\006k\305z\031\276"
ARM GAS  /tmp/cc6tgXFO.s 			page 31


 393      D99F84CB 
 393      8E066BC5 
 393      7A19BE
 394 11f4 A2923867 		.ascii	"\242\2228g\242\003T\3255\307\225M)\231R\0175k\242\341"
 394      A20354D5 
 394      35C7954D 
 394      2999520F 
 394      356BA2E1 
 395 1208 6A32267F 		.ascii	"j2&\177_R\002\325u\376\275rT\012G\202*n8\342\005\025"
 395      5F5202D5 
 395      75FEBD72 
 395      540A4782 
 395      2A6E38E2 
 396 121e 833AE431 		.ascii	"\203:\3441\256\361\253*#\222HF9)\016\202_T\312\365\377"
 396      AEF1AB2A 
 396      23924846 
 396      39290E82 
 396      5F54CAF5 
 397 1233 DE3F94E0 		.ascii	"\336?\224\340\234;j\210\022$q6\014\342\240\354\211\025"
 397      9C3B6A88 
 397      12247136 
 397      0CE2A0EC 
 397      8915
 398 1245 8D827407 		.ascii	"\215\202t\007\244\321\220\306xb\305\205\220\212 \025"
 398      A4D190C6 
 398      7862C585 
 398      908A2015 
 399 1255 431A0169 		.ascii	"C\032\001i$\244\333!A\275b\250W\014\365\212\241\336"
 399      24A4DB21 
 399      41BD62A8 
 399      570CF58A 
 399      A1DE
 400 1267 08A837A2 		.ascii	"\010\2507\242\210\223Fr\322\355\2344\212\223\356\340"
 400      88934672 
 400      D2ED9C34 
 400      8A93EEE0 
 401 1277 A4D19C34 		.ascii	"\244\321\2344\306#\025\025B*\342\252%\370\032\221\025"
 401      C6231515 
 401      422AE2AA 
 401      25F81A91 
 401      15
 402 1288 0D02B75E 		.ascii	"\015\002\267^\242\341\207E\011\276#\325!Q\342+\253\004"
 402      A2E18745 
 402      09BE23D5 
 402      2151E22B 
 402      AB04
 403 129a 89A85DA8 		.ascii	"\211\250]\250\021}\2626\016\341G\314yeu\030\3013\372"
 403      117DB236 
 403      0EE147CC 
 403      79657518 
 403      C133FA
 404 12ad A25796C4 		.ascii	"\242W\226\304Y1\324#\311d\325\304f\303\217\332\360\200"
 404      5931D423 
 404      C964D5C4 
 404      66C38FDA 
 404      F080
 405 12bf B945CB65 		.ascii	"\271E\313eK\241\271\360\223O\254\017\313\240\0261\373"
ARM GAS  /tmp/cc6tgXFO.s 			page 32


 405      4BA1B9F0 
 405      934FAC0F 
 405      CBA01631 
 405      FB
 406 12d0 6139F2C0 		.ascii	"a9\362\300\037\2429\342\034\261V\256\021b\017\022\237"
 406      1FA239E2 
 406      1CB156AE 
 406      11620F12 
 406      9F
 407 12e1 7E98643C 		.ascii	"~\230d<\321`]\236\356I\325\341\030\314T\003)\337\"%"
 407      D1605D9E 
 407      EE49D5E1 
 407      18CC5403 
 407      29DF2225 
 408 12f5 FE68F061 		.ascii	"\376h\360a!,\207kg\017\200\241\031\233\215\376\226\205"
 408      212C876B 
 408      670F80A1 
 408      199B8DFE 
 408      9685
 409 1307 592810A3 		.ascii	"Y(\020\243b-L\214\263\241\026x<\251?\200\360&T\243\235"
 409      622D4C8C 
 409      B3A11678 
 409      3CA93F80 
 409      F02654A3 
 410 131c A1301A89 		.ascii	"\2410\032\211T{kT/\205\357\310\303\265\242\224]\203"
 410      547B6B54 
 410      2F85EFC8 
 410      C3B5A294 
 410      5D83
 411 132e 5E76872B 		.ascii	"^v\207+\247\325x\002\223\015\326\374\026T Jbm%(([-\362"
 411      A7D57802 
 411      930DD6FC 
 411      1654204A 
 411      626D2528 
 412 1346 C3A025F3 		.ascii	"\303\240%\363jP\306\371\003\306\270>\177\220,O~\362"
 412      6A50C6F9 
 412      03C6B83E 
 412      7F902C4F 
 412      7EF2
 413 1358 4BF5A11A 		.ascii	"K\365\241\032\201\250\325/\353\271\011n\347`\244\023"
 413      81A8D52F 
 413      EBB9096E 
 413      E760A413 
 414 1368 46D6D743 		.ascii	"F\326\327CX\250\001\215\003\016\360ug&\030\220\271\240"
 414      58A8018D 
 414      030EF075 
 414      67261890 
 414      B9A0
 415 137a 644AF9A4 		.ascii	"dJ\371\244r\000P[\316\032YXTO&\341\301\245S\306\005"
 415      7200505B 
 415      CE1A5958 
 415      544F26E1 
 415      C1A553C6 
 416 138f CBC1BC42 		.ascii	"\313\301\274BM\260\002FM\2518\213+)\343\247\226V\224"
 416      4DB00246 
 416      4DA9388B 
 416      2B29E3A7 
ARM GAS  /tmp/cc6tgXFO.s 			page 33


 416      965694
 417 13a2 79A68F2B 		.ascii	"y\246\217+\343\247\024\022R4\256\3143\241\244,;\206"
 417      E3A71412 
 417      5234AECC 
 417      33A1A42C 
 417      3B86
 418 13b4 15F9F0AC 		.ascii	"\025\371\360\254J);\034\253\012\317\222\3751\261zV\270"
 418      4A293B1C 
 418      AB0ACF92 
 418      FD31B17A 
 418      56B8
 419 13c6 3624D667 		.ascii	"6$\326g\317\021+\345\21048\311YP\255\015\223\020<H\365"
 419      CF112BE5 
 419      883438C9 
 419      5950AD0D 
 419      93103C48 
 420 13db 84CAF524 		.ascii	"\204\312\365$L\352\035yJ\312\212 \025\363\323\306\225"
 420      4CEA1D79 
 420      4ACA8A20 
 420      15F3D3C6 
 420      95
 421 13ec 151152CC 		.ascii	"\025\021R\314\225\226y\312\241\260\274\254\330SRR\226"
 421      959679CA 
 421      A1B0BCAC 
 421      D8535252 
 421      96
 422 13fd 555136A9 		.ascii	"UQ6\251|<?a20\003\032\366\223\231)\\C\374\222|E\352"
 422      7C3C3F61 
 422      3230031A 
 422      F6939929 
 422      5C43FC92 
 423 1414 649E786F 		.ascii	"d\236xo\226\\\177O\335\254,\211\320Azl~\240&Z<\272p"
 423      965C7F4F 
 423      DDAC2C89 
 423      D0417A6C 
 423      7EA0265A 
 424 142b 7825632E 		.ascii	"x%c.\201\221\247\346\300xj\360\366U\0131\271B\254\211"
 424      8191A7E6 
 424      C0786AF0 
 424      F6550B31 
 424      B942AC89 
 425 143f E692CC74 		.ascii	"\346\222\314t\022\034\353$\221\255`\247\373\020\031"
 425      121CEB24 
 425      91AD60A7 
 425      FB1019
 426 144e 8CED93B4 		.ascii	"\214\355\223\264L\216\3266\\\033\226=\220\317\016!\272"
 426      4C8ED636 
 426      5C1B963D 
 426      90CF0E21 
 426      BA
 427 145f EF012126 		.ascii	"\357\001!&\216\003+g\005\357\001\277\323k\305\344H\324"
 427      8E032B67 
 427      05EF01BF 
 427      D36BC5E4 
 427      48D4
 428 1471 4B08089D 		.ascii	"K\010\010\235\253\225\001\274(\017I>\010!\275C_T\313"
 428      AB9501BC 
ARM GAS  /tmp/cc6tgXFO.s 			page 34


 428      280F493E 
 428      0821BD43 
 428      5F54CB
 429 1484 5C4FFD48 		.ascii	"\\O\375H\330\022%A\206b^\206\374`j\225!\011\2651\241"
 429      D8122541 
 429      86625E86 
 429      FC606A95 
 429      2109B531 
 430 1499 52CE4B15 		.ascii	"R\316K\025\021\256\362\350EG$\352'2\226D\352j\345\377"
 430      11AEF2E8 
 430      454724EA 
 430      27329644 
 430      EA6AE5FF 
 431 14ad 037EDCE2 		.ascii	"\003~\334\342."
 431      2E
 432              		.text
 433              		.section	.gnu.lto_.symtab.426762d5191270f5,"",%progbits
 434 0000 626D7032 		.ascii	"bmp280_init\000\000\000\000\000\000\000\000\000\000"
 434      38305F69 
 434      6E697400 
 434      00000000 
 434      00000000 
 435 0015 00001D02 		.ascii	"\000\000\035\002\000\000bmp280_stop\000\000\000\000"
 435      0000626D 
 435      70323830 
 435      5F73746F 
 435      70000000 
 436 002a 00000000 		.ascii	"\000\000\000\000\000\000\000\000F\002\000\000bmp280"
 436      00000000 
 436      46020000 
 436      626D7032 
 436      3830
 437 003c 5F726573 		.ascii	"_reset\000\000\000\000\000\000\000\000\000\000\000\000"
 437      65740000 
 437      00000000 
 437      00000000 
 437      0000
 438 004e 52020000 		.ascii	"R\002\000\000bmp280_readPressure\000\000\000\000\000"
 438      626D7032 
 438      38305F72 
 438      65616450 
 438      72657373 
 439 006a 00000000 		.ascii	"\000\000\000\000\000\000\000X\002\000\000bmp280_rea"
 439      00000058 
 439      02000062 
 439      6D703238 
 439      305F7265 
 440 007f 6454656D 		.ascii	"dTemperature\000\000\000\000\000\000\000\000\000\000"
 440      70657261 
 440      74757265 
 440      00000000 
 440      00000000 
 441 0095 00006102 		.ascii	"\000\000a\002\000\000I2CSensor_transact\000\000\002"
 441      00004932 
 441      4353656E 
 441      736F725F 
 441      7472616E 
ARM GAS  /tmp/cc6tgXFO.s 			page 35


 442 00b0 00000000 		.ascii	"\000\000\000\000\000\000\000\000\000g\002\000\000I2"
 442      00000000 
 442      00670200 
 442      004932
 443 00bf 4353656E 		.ascii	"CSensor_init\000\000\002\000\000\000\000\000\000\000"
 443      736F725F 
 443      696E6974 
 443      00000200 
 443      00000000 
 444 00d5 00007002 		.ascii	"\000\000p\002\000\000I2CSensor_stop\000\000\002\000"
 444      00004932 
 444      4353656E 
 444      736F725F 
 444      73746F70 
 445 00ed 00000000 		.ascii	"\000\000\000\000\000\000\000\000{\002\000\000"
 445      00000000 
 445      7B020000 
 446              		.text
 447              		.section	.gnu.lto_.opts,"",%progbits
 448 0000 272D6D63 		.ascii	"'-mcpu=cortex-m4' '-mfloat-abi=hard' '-mfpu=fpv4-sp"
 448      70753D63 
 448      6F727465 
 448      782D6D34 
 448      2720272D 
 449 0033 2D643136 		.ascii	"-d16' '-mno-thumb-interwork' '-mthumb' '-O2' '-fomi"
 449      2720272D 
 449      6D6E6F2D 
 449      7468756D 
 449      622D696E 
 450 0066 742D6672 		.ascii	"t-frame-pointer' '-falign-functions=16' '-ffunction"
 450      616D652D 
 450      706F696E 
 450      74657227 
 450      20272D66 
 451 0099 2D736563 		.ascii	"-sections' '-fdata-sections' '-fno-common' '-flto' "
 451      74696F6E 
 451      73272027 
 451      2D666461 
 451      74612D73 
 452 00cc 272D6673 		.ascii	"'-fsingle-precision-constant'\000"
 452      696E676C 
 452      652D7072 
 452      65636973 
 452      696F6E2D 
 453              		.text
 454              		.section	.text.bmp280_init,"ax",%progbits
 455              		.align	2
 456              		.p2align 4,,15
 457              		.global	bmp280_init
 458              		.thumb
 459              		.thumb_func
 460              		.type	bmp280_init, %function
 461              	bmp280_init:
 462              		@ args = 0, pretend = 0, frame = 0
 463              		@ frame_needed = 0, uses_anonymous_args = 0
 464 0000 F0B5     		push	{r4, r5, r6, r7, lr}
 465 0002 0F4F     		ldr	r7, .L2
ARM GAS  /tmp/cc6tgXFO.s 			page 36


 466 0004 0F4B     		ldr	r3, .L2+4
 467 0006 97F800E0 		ldrb	lr, [r7]	@ zero_extendqisi2
 468 000a 85B0     		sub	sp, sp, #20
 469 000c 00F15806 		add	r6, r0, #88
 470 0010 00F15C05 		add	r5, r0, #92
 471 0014 4FF0280C 		mov	ip, #40
 472 0018 0EF1010E 		add	lr, lr, #1
 473 001c 0293     		str	r3, [sp, #8]
 474 001e 8DE82010 		stmia	sp, {r5, ip}
 475 0022 3346     		mov	r3, r6
 476 0024 87F800E0 		strb	lr, [r7]
 477 0028 0446     		mov	r4, r0
 478 002a FFF7FEFF 		bl	I2CSensor_init
 479 002e 0222     		movs	r2, #2
 480 0030 3146     		mov	r1, r6
 481 0032 2B46     		mov	r3, r5
 482 0034 2046     		mov	r0, r4
 483 0036 0092     		str	r2, [sp]
 484 0038 FFF7FEFF 		bl	I2CSensor_transact
 485 003c 05B0     		add	sp, sp, #20
 486              		@ sp needed
 487 003e F0BD     		pop	{r4, r5, r6, r7, pc}
 488              	.L3:
 489              		.align	2
 490              	.L2:
 491 0040 00000000 		.word	.LANCHOR0
 492 0044 00000000 		.word	.LC0
 493              		.size	bmp280_init, .-bmp280_init
 494 0048 AFF30080 		.section	.text.bmp280_stop,"ax",%progbits
 494      AFF30080 
 495              		.align	2
 496              		.p2align 4,,15
 497              		.global	bmp280_stop
 498              		.thumb
 499              		.thumb_func
 500              		.type	bmp280_stop, %function
 501              	bmp280_stop:
 502              		@ args = 0, pretend = 0, frame = 0
 503              		@ frame_needed = 0, uses_anonymous_args = 0
 504              		@ link register save eliminated.
 505 0000 FFF7FEBF 		b	I2CSensor_stop
 506              		.size	bmp280_stop, .-bmp280_stop
 507 0004 AFF30080 		.section	.text.bmp280_reset,"ax",%progbits
 507      AFF30080 
 507      AFF30080 
 508              		.align	2
 509              		.p2align 4,,15
 510              		.global	bmp280_reset
 511              		.thumb
 512              		.thumb_func
 513              		.type	bmp280_reset, %function
 514              	bmp280_reset:
 515              		@ args = 0, pretend = 0, frame = 8
 516              		@ frame_needed = 0, uses_anonymous_args = 0
 517 0000 00B5     		push	{lr}
 518 0002 85B0     		sub	sp, sp, #20
 519 0004 04A9     		add	r1, sp, #16
ARM GAS  /tmp/cc6tgXFO.s 			page 37


 520 0006 E023     		movs	r3, #224
 521 0008 01F8013D 		strb	r3, [r1, #-1]!
 522 000c 0023     		movs	r3, #0
 523 000e 0093     		str	r3, [sp]
 524 0010 0122     		movs	r2, #1
 525 0012 FFF7FEFF 		bl	I2CSensor_transact
 526 0016 05B0     		add	sp, sp, #20
 527              		@ sp needed
 528 0018 5DF804FB 		ldr	pc, [sp], #4
 529              		.size	bmp280_reset, .-bmp280_reset
 530 001c AFF30080 		.section	.text.bmp280_readPressure,"ax",%progbits
 531              		.align	2
 532              		.p2align 4,,15
 533              		.global	bmp280_readPressure
 534              		.thumb
 535              		.thumb_func
 536              		.type	bmp280_readPressure, %function
 537              	bmp280_readPressure:
 538              		@ args = 0, pretend = 0, frame = 0
 539              		@ frame_needed = 0, uses_anonymous_args = 0
 540              		@ link register save eliminated.
 541 0000 0020     		movs	r0, #0
 542 0002 7047     		bx	lr
 543              		.size	bmp280_readPressure, .-bmp280_readPressure
 544 0004 AFF30080 		.section	.text.bmp280_readTemperature,"ax",%progbits
 544      AFF30080 
 544      AFF30080 
 545              		.align	2
 546              		.p2align 4,,15
 547              		.global	bmp280_readTemperature
 548              		.thumb
 549              		.thumb_func
 550              		.type	bmp280_readTemperature, %function
 551              	bmp280_readTemperature:
 552              		@ args = 0, pretend = 0, frame = 0
 553              		@ frame_needed = 0, uses_anonymous_args = 0
 554              		@ link register save eliminated.
 555 0000 0020     		movs	r0, #0
 556 0002 7047     		bx	lr
 557              		.size	bmp280_readTemperature, .-bmp280_readTemperature
 558 0004 AFF30080 		.section	.rodata.str1.4,"aMS",%progbits,1
 558      AFF30080 
 558      AFF30080 
 559              		.align	2
 560              	.LC0:
 561 0000 424D5032 		.ascii	"BMP280\000"
 561      383000
 562 0007 00       		.section	.bss.sensCount,"aw",%nobits
 563              		.set	.LANCHOR0,. + 0
 564              		.type	sensCount, %object
 565              		.size	sensCount, 1
 566              	sensCount:
 567 0000 00       		.space	1
 568              		.comm	__gnu_lto_v1,1,1
 569              		.ident	"GCC: (GNU Tools for ARM Embedded Processors) 4.8.4 20140526 (release) [ARM/embedded-4_8-br
ARM GAS  /tmp/cc6tgXFO.s 			page 38

