ARM GAS  /tmp/ccV4asm9.s 			page 1


   1              		.syntax unified
   2              		.cpu cortex-m4
   3              		.eabi_attribute 27, 3
   4              		.eabi_attribute 28, 1
   5              		.fpu fpv4-sp-d16
   6              		.eabi_attribute 20, 1
   7              		.eabi_attribute 21, 1
   8              		.eabi_attribute 23, 3
   9              		.eabi_attribute 24, 1
  10              		.eabi_attribute 25, 1
  11              		.eabi_attribute 26, 1
  12              		.eabi_attribute 30, 2
  13              		.eabi_attribute 34, 1
  14              		.eabi_attribute 18, 4
  15              		.thumb
  16              		.file	"bmp280.c"
  17              		.section	.gnu.lto_.jmpfuncs.d58d111acca16c92,"",%progbits
  18 0000 789C6362 		.ascii	"x\234cb`b\300\006V\0021\007\020\2632\260\263\2620d2"
  18      6062C006 
  18      56023107 
  18      10B332B0 
  18      B3B23064 
  19 0015 42449922 		.ascii	"BD\231\"\0303\031\031\231P\230\3540if\006\006\3062F"
  19      18331919 
  19      995098EC 
  19      30696606 
  19      06C63246 
  20 0029 10C55486 		.ascii	"\020\305T\206\244\234I\003\310\250f\370\3250\243A \223"
  20      A49C4903 
  20      C8A866F8 
  20      D530A341 
  20      2093
  21 003b 91598E81 		.ascii	"\221Y\216\201qn\303\014\207LF\026\210\022f&\210~F\210"
  21      716EC30C 
  21      874C4616 
  21      88126626 
  21      887E4688 
  22 004f 7EA0318C 		.ascii	"~\2401\214\2540\021\006FF\006\2605\017\030\241\3661"
  22      AC301106 
  22      464606B0 
  22      350F18A1 
  22      F631
  23 0061 420D6585 		.ascii	"B\015e\205\273\000\310`\001\272\222\201\335\3117\300"
  23      BB00C860 
  23      01BA9281 
  23      DDC937C0 
  24 0071 C8C28001 		.ascii	"\310\302\200\001\0004\216\022\034"
  24      00348E12 
  24      1C
  25              		.text
  26              		.section	.gnu.lto_.inline.d58d111acca16c92,"",%progbits
  27 0000 789C6362 		.ascii	"x\234cb`b\300\006\346CiV\006\006\021UFF\006F \233\211"
  27      6062C006 
  27      E6436956 
  27      06061155 
  27      46460646 
  28 0017 ED831E03 		.ascii	"\355\203\036\003\333\002y\260\0166~\240\344\004\277"
ARM GAS  /tmp/ccV4asm9.s 			page 2


  28      DB0279B0 
  28      0E367EA0 
  28      E404BF
  29 0026 097E0C40 		.ascii	"\011~\014@\304!\310\300\300\016\342@ P)\003;?L\027H"
  29      C421C8C0 
  29      C00EE240 
  29      20502903 
  29      3B3F4C17 
  30 003b 3154130B 		.ascii	"1T\023\013/\220\017R\301\314\310-\014\223g\272\300\017"
  30      2F900F52 
  30      C1CCC82D 
  30      0C9367BA 
  30      C00F
  31 004d 57C02E00 		.ascii	"W\300.\0006\025\254\226\201\231\211\021E7+\206\010\003"
  31      3615AC96 
  31      81998911 
  31      45372B86 
  31      0803
  32 005f 00771D11 		.ascii	"\000w\035\021\037"
  32      1F
  33              		.text
  34              		.section	.gnu.lto_.pureconst.d58d111acca16c92,"",%progbits
  35 0000 789C6362 		.ascii	"x\234cb`b\340f\200\000V\006\011&\011f\011\026 \003\000"
  35      6062E066 
  35      80005606 
  35      09260966 
  35      09162003 
  36 0015 03AB006B 		.ascii	"\003\253\000k"
  37              		.text
  38              		.section	.gnu.lto_bmp280_init.d58d111acca16c92,"",%progbits
  39 0000 789C8D92 		.ascii	"x\234\215\222\277/DA\020\307gv\275\037\316\257\363#"
  39      BF2F4441 
  39      10C76776 
  39      BD1FCEAF 
  39      F323
  40 0012 110DA292 		.ascii	"\021\015\242\222\020\204F)h\024\022\005\011%\027\271"
  40      10844629 
  40      68141205 
  40      092517B9 
  41 0022 6C717E1D 		.ascii	"lq~\035\012\012sGqQ\310Eu!\022\"\227\210\202D\245\022"
  41      0A0A7347 
  41      7151C845 
  41      75211222 
  41      97888244 
  42 0038 AD841389 		.ascii	"\255\204\023\211F\345:\205\277\200\210gv\337;9\\a\222"
  42      46E53A85 
  42      BF808867 
  42      76DF3B39 
  42      5C6192
  43 004b 37336F77 		.ascii	"73ow\276\237\231}\373\004\010\370mM\374<\362r\037G\224"
  43      BE9F997D 
  43      FB0408F8 
  43      6D4DFC3C 
  43      F2721F47 
  44 0060 80229D03 		.ascii	"\200\"\235\003H\270\002Q'\200\260!pc\012u\251h\203#"
  44      48B80251 
  44      2780B021 
ARM GAS  /tmp/ccV4asm9.s 			page 3


  44      70630A75 
  44      A9688323 
  45 0074 A2DD7C36 		.ascii	"\242\335|6\267\323\270\235\2474}z\036*dh\003B\004a\222"
  45      B7D3B89D 
  45      A7347D7A 
  45      1E2A6468 
  45      03420461 
  46 0089 5FD03541 		.ascii	"_\3205A\340\317.\276\222\316N\222\362\220><O\032YkI"
  46      E0CF2EBE 
  46      92CE4E92 
  46      F2903E3C 
  46      4F1A596B 
  47 009e 59AC487B 		.ascii	"Y\254H{.\256\363\236\367\221M\267T\011\230\306#l\003"
  47      2EAEF39E 
  47      F7914DB7 
  47      540998C6 
  47      236C03
  48 00b1 C9F198A3 		.ascii	"\311\361\230\243\2051D\033\024J\207]\231\313\316*\347"
  48      8531441B 
  48      144A875D 
  48      99CBCE2A 
  48      E7
  49 00c2 35116227 		.ascii	"5\021b'Yk\301\026Q\272\025t\017\266q\366\372H\023(t"
  49      596BC116 
  49      51BA1574 
  49      0FB671F6 
  49      FA481328 
  50 00d7 947790BC 		.ascii	"\224w\220\274\271\314UOc\026-\210\242\330\207\275\004"
  50      B9CC554F 
  50      63162D88 
  50      A2D887BD 
  50      04
  51 00e8 5158A1BD 		.ascii	"QX\241\275\016\357\224\322\231\343\217\242's\202\201"
  51      0EEF94D2 
  51      99E38FA2 
  51      27738281 
  52 00f8 EE603325 		.ascii	"\356`3%\013\032\3112\275i\243\331I\216\370\033\377!"
  52      0B1AC932 
  52      BD69A3D9 
  52      498EF81B 
  52      FF21
  53 010a 45F5882C 		.ascii	"E\365\210,y\337|}\022\005\036\327\257\361y:\340\224"
  53      79DF7C7D 
  53      12051ED7 
  53      AFF1793A 
  53      E094
  54 011c D81615BA 		.ascii	"\330\026\025\272\214bIy\024--\015\031\351L\361\2675"
  54      8C624979 
  54      142D2D0D 
  54      19E94CF1 
  54      B735
  55 012e 888BEF89 		.ascii	"\210\213\357\211\034C(\013\010\317\254\251(\215\300"
  55      1C43280B 
  55      08CFACA9 
  55      288DC0
  56 013d 5F88B3CA 		.ascii	"_\210\263\312\002\3025\010+@\034\330\012+K#\212\376"
  56      02C23508 
ARM GAS  /tmp/ccV4asm9.s 			page 4


  56      2B401CD8 
  56      0A2B4B23 
  56      8AFE
  57 014f A57BD8A3 		.ascii	"\245{\330\243K\313'\000|\237\272*\022\364\341\243E\265"
  57      4BCB2700 
  57      7C9FBA2A 
  57      12F4E1A3 
  57      45B5
  58 0161 3EC41372 		.ascii	">\304\023r\007M\251n7u\031\2427nQ\323\014\235\007\224"
  58      074DA96E 
  58      377519A2 
  58      376E51D3 
  58      0C9D0794 
  59 0175 19501886 		.ascii	"\031P\030\206\000\243\260V\2033t\373b\377!\327E\202"
  59      00A3B056 
  59      833374FB 
  59      62FF21D7 
  59      4582
  60 0187 F686EC98 		.ascii	"\366\206\354\230K\020\020\2409SX\017\360\000\211\374"
  60      4B1010A0 
  60      3953580F 
  60      F00089FC 
  61 0197 9528687D 		.ascii	"\225(h}\033\347\211\370\366\265\270vxI\255\316.\305"
  61      1BE789F8 
  61      F6B5B876 
  61      7849ADCE 
  61      2EC5
  62 01a9 BB67620B 		.ascii	"\273gb\013\275\375=]\021\250\210\317\316\305\207\346"
  62      BDFD3D5D 
  62      11A888CF 
  62      CEC587E6 
  63 01b9 57E696BB 		.ascii	"W\346\226\273z\212\362^gpt\214+\340\013FT\254\252"
  63      7A8AF25E 
  63      6770748C 
  63      2BE00B46 
  63      54ACAA
  64              		.text
  65              		.section	.gnu.lto_bmp280_stop.d58d111acca16c92,"",%progbits
  66 0000 789C6362 		.ascii	"x\234cb`b@\007\222@|\031\210\205\201\230\221\231\201"
  66      60624007 
  66      92407C19 
  66      88858198 
  66      919981
  67 0013 9169C239 		.ascii	"\221i\3029\006\206F\016&FF\020\203\201\221\241\236\211"
  67      0686460E 
  67      26464610 
  67      838191A1 
  67      9E89
  68 0025 B13E9211 		.ascii	"\261>\222\021\254v=\323\201\007\377\377\257\233\323"
  68      AC763DD3 
  68      8107FFFF 
  68      AF9BD3
  69 0034 7A88959D 		.ascii	"z\210\225\235\2211\227\021h\\&#\003\013\220\305\310"
  69      91319711 
  69      685C2623 
  69      030B90C5 
  69      C8
ARM GAS  /tmp/ccV4asm9.s 			page 5


  70 0045 06648114 		.ascii	"\006d\201\024\2612\26444LP``H\006k\011\001\222 sB\031"
  70      B132B434 
  70      344C5060 
  70      6048066B 
  70      09019220 
  71 005c 994034F3 		.ascii	"\231@4\363Y\206\246_\315\373/1'2.ddeHgd\252f\250\002"
  71      5986A65F 
  71      CDFB2F31 
  71      27322E64 
  71      64654867 
  72 0075 1AA1CDB0 		.ascii	"\032\241\315\260\252\001\010\3523\031\231f3\314b\314"
  72      AA0108EA 
  72      33199966 
  72      33CC62CC 
  73 0085 64644E67 		.ascii	"ddNgd\214\000\322,`{\223\030\221\034|\236\241\365\000"
  73      648C00D2 
  73      2C607B93 
  73      18911C7C 
  73      9EA1F500 
  74 0099 2B4C3F5B 		.ascii	"+L?[5\303\257\206\216\006\201LF\326dF\210*\240\241\351"
  74      35C3AF86 
  74      8E06814C 
  74      46D66446 
  74      882AA0A1 
  75 00ae 8C2C9940 		.ascii	"\214,\231@\0271\\d`\204+\204h\016\001*\002\272\003\024"
  75      17315C64 
  75      60842B84 
  75      680E012A 
  75      02BA0314 
  76 00c2 0C822E45 		.ascii	"\014\202.E\231e\251E\305\372I\271\005F\026\006z\311"
  76      9965A945 
  76      C5FA49B9 
  76      05461606 
  76      7AC9
  77 00d4 0C00B412 		.ascii	"\014\000\264\0224\315"
  77      34CD
  78              		.text
  79              		.section	.gnu.lto_bmp280_reset.d58d111acca16c92,"",%progbits
  80 0000 789C5D51 		.ascii	"x\234]Q=K\003A\020}o\357.^,DA\020;\261\025TD\301\037"
  80      3D4B0341 
  80      107D6FEF 
  80      2E5E2C44 
  80      41103BB1 
  81 0019 60631F21 		.ascii	"`c\037!\226I\014\307\025\0019\305\302 \331\250E\012"
  81      96490CC7 
  81      150139C5 
  81      C220D9A8 
  81      450A
  82 002b 9160A398 		.ascii	"\221`\243\230*\210\215\"\0266)\017{\277\332T\327[\332"
  82      2A888D22 
  82      1636290F 
  82      7BBFDA54 
  82      D75BDA
  83 003e A5F09CBD 		.ascii	"\245\360\234\275U\211\016\354\314\016\363\366\2757\254"
  83      55890EEC 
  83      CC0EF3F6 
  83      BD37AC
ARM GAS  /tmp/ccV4asm9.s 			page 6


  84 004d 82C2FF98 		.ascii	"\202\302\377\230\226\263K[\351\200\252\375\0144}E\232"
  84      96B34B5B 
  84      E980AAFD 
  84      0C347D45 
  84      9A
  85 005e 0B888662 		.ascii	"\013\210\206bc\223\006\312Ytu|\226\\\367O\247t\242\333"
  85      639306CA 
  85      5974757C 
  85      965CF74F 
  85      A774A2DB 
  86 0072 FA334D19 		.ascii	"\3723M\031RH'\211\012Q\224\206~V\024\377\252\334\253"
  86      52482789 
  86      0A519486 
  86      7E5614FF 
  86      AADCAB
  87 0085 3849D393 		.ascii	"8I\323\223\273\327\025\337a\215p\021\322\311Ire\350"
  87      BBD715DF 
  87      618D7011 
  87      D2C94972 
  87      65E8
  88 0097 E158EBF6 		.ascii	"\341X\353\366L\211]Q\200a\222(H6\0166\250Lu\236p\330"
  88      4C895D51 
  88      80619228 
  88      48360E36 
  88      A84C759E 
  89 00ad EBF5C74A 		.ascii	"\353\365\307J\274\242\007\0135BH\014Z\206\203\243\333"
  89      BCA2070B 
  89      3542480C 
  89      5A8683A3 
  89      DB
  90 00be 0FC74E03 		.ascii	"\017\307N\003\272u\354\213\300\034n\264\304\271\340"
  90      BA75EC8B 
  90      C01C6EB4 
  90      C4B9E0
  91 00cd BC0E2EA5 		.ascii	"\274\016.\245\344\002:\346\331H\346\252<\354\362\005"
  91      E4023AE6 
  91      D948E6AA 
  91      3CECF205 
  92 00dd 17BAF843 		.ascii	"\027\272\370C\220\253c\240[z<\244_\241Ee\254\003\303"
  92      90AB63A0 
  92      5B7A3CA4 
  92      5FA14565 
  92      AC03C3
  93 00f0 7710326F 		.ascii	"w\0202o\035X\2705b\367\317\177w\220\335F\215\261\307"
  93      1D58B835 
  93      62F7CF7F 
  93      7790DD46 
  93      8DB1C7
  94 0103 7735EC79 		.ascii	"w5\354y\031\017\272e\001xC3\366~\025\255\213\202\250"
  94      190FBA65 
  94      01784333 
  94      F67E15AD 
  94      8B82A8
  95 0116 C9BAE69F 		.ascii	"\311\272\346\237&\326\242p\257\032\355,\224k\333K\253"
  95      26D6A270 
  95      AF1AED2C 
  95      946BDB4B 
ARM GAS  /tmp/ccV4asm9.s 			page 7


  95      AB
  96 0127 8BF31578 		.ascii	"\213\363\025xQ5X\337\372\002l\016]x"
  96      513558DF 
  96      FA026C0E 
  96      5D78
  97              		.text
  98              		.section	.gnu.lto_bmp280_readPressure.d58d111acca16c92,"",%progbits
  99 0000 789C6362 		.ascii	"x\234cb`b@\007\222@<\027\210\245\200\230\221\231\201"
  99      60624007 
  99      92403C17 
  99      88A58098 
  99      919981
 100 0013 9169C239 		.ascii	"\221i\3029\006\206F\016&FF\020\203\201\221\241\236\211"
 100      0686460E 
 100      26464610 
 100      838191A1 
 100      9E89
 101 0025 B13E9211 		.ascii	"\261>\222\021\244\224Q\211aaC\303\214\007K\357\367J"
 101      A4945189 
 101      616143C3 
 101      8C074BEF 
 101      F74A
 102 0037 362C689A 		.ascii	"6,h\232\320\360\357\377\177\306LF\240\241\"\214\014"
 102      D0F0EFFF 
 102      7FC64C46 
 102      A0A1228C 
 102      0C
 103 0048 C98C0C11 		.ascii	"\311\214\014\021@\016\243\002\230bbA\265e=\323\201\007"
 103      400EA302 
 103      98626241 
 103      B5653DD3 
 103      8107
 104 005a FFFF9F59 		.ascii	"\377\377\237Y\177\341\030#3#c\"\343B\240Y@\300\312\320"
 104      7FE11823 
 104      33236322 
 104      E342A059 
 104      40C0CAD0 
 105 006e D2D03041 		.ascii	"\322\3200A\001\306O\006[\023\002$Av\20722\201h\346\213"
 105      01C64F06 
 105      5B130224 
 105      41768732 
 105      328168E6 
 106 0083 0C8D0F7A 		.ascii	"\014\215\017z\026\0035-fdeHgd\204\230\030\002d\000e"
 106      1603352D 
 106      66646548 
 106      67648498 
 106      18026400 
 107 0098 411E1274 		.ascii	"A\036\022t)\312,K-*\326O\312-0\2620\320Kf`+.I,)-\006"
 107      29CA2C4B 
 107      2D2AD64F 
 107      CA2D30B2 
 107      30D04B66 
 108 00b4 006A9C31 		.ascii	"\000j\2341\242"
 108      A2
 109              		.text
 110              		.section	.gnu.lto_bmp280_readTemperature.d58d111acca16c92,"",%progbits
 111 0000 789C6362 		.ascii	"x\234cb`b@\007\222@<\037\210\245\200\230\221\231\201"
ARM GAS  /tmp/ccV4asm9.s 			page 8


 111      60624007 
 111      92403C1F 
 111      88A58098 
 111      919981
 112 0013 9169C239 		.ascii	"\221i\3029\006\206F\016&FF\020\203\201\221\241\236\211"
 112      0686460E 
 112      26464610 
 112      838191A1 
 112      9E89
 113 0025 B13E9211 		.ascii	"\261>\222\021\244\224Q\211aaC\303\214\007O\237\337`"
 113      A4945189 
 113      616143C3 
 113      8C074F9F 
 113      DF60
 114 0037 9CD970A0 		.ascii	"\234\331p\240eA\303\237\377\377\031\0313\031\201\306"
 114      6541C39F 
 114      FFFF1919 
 114      331981C6 
 115 0047 8A303224 		.ascii	"\21202$32D\0009\214\012`\212\211\005\325\236\365L\007"
 115      33324400 
 115      398C0A60 
 115      8A8905D5 
 115      9EF54C07 
 116 005b 1EFCFFFF 		.ascii	"\036\374\377\377fs\313/)fF\306D\306\205@\323\200\200"
 116      6673CB2F 
 116      296646C6 
 116      44C68540 
 116      D38080
 117 006e 95A1A5A1 		.ascii	"\225\241\245\241a\202\002\214\237\014\266(\004H\202"
 117      6182028C 
 117      9F0CB628 
 117      044882
 118 007d 6C0F6564 		.ascii	"l\017ed\002\321\314\027\031\032\037\254[\014\324\264"
 118      02D1CC17 
 118      191A1FAC 
 118      5B0CD4B4 
 119 008d 98919521 		.ascii	"\230\221\225!\235\221\021bb\010\220\001\224\005yI\320"
 119      9D911162 
 119      62089001 
 119      94057949 
 119      D0
 120 009e A528B32C 		.ascii	"\245(\263,\265\250X?)\267\300\310\302@/\231\201\255"
 120      B5A8583F 
 120      29B7C0C8 
 120      C2402F99 
 120      81AD
 121 00b0 B824B1A4 		.ascii	"\270$\261\244\264\030\000s\34130"
 121      B4180073 
 121      E13330
 122              		.text
 123              		.section	.gnu.lto_.symbol_nodes.d58d111acca16c92,"",%progbits
 124 0000 789C4DC8 		.ascii	"x\234M\310\273\021\203@\024CQ=\355\007\272\326b\300"
 124      BB118340 
 124      1443513D 
 124      ED07BAD6 
 124      62C0
 125 0012 26740524 		.ascii	"&t\005$.\205\3345\230\241\017\30320,J\356\034\021\304"
ARM GAS  /tmp/ccV4asm9.s 			page 9


 125      2E85DC35 
 125      98A10FC3 
 125      32302C4A 
 125      EE1C11C4 
 126 0026 88734C14 		.ascii	"\210sL\024\360\376\002\3228XX\015^\216\015e\345\345"
 126      F0FE02D2 
 126      3858580D 
 126      5E8E0D65 
 126      E5E5
 127 0038 83E28D2D 		.ascii	"\203\342\215-\345n\354(_hO*\034L\311\254\247b\321\213"
 127      E56EEC28 
 127      5F684F2A 
 127      1C4CC9AC 
 127      A762D18B 
 128 004c AA2E3954 		.ascii	"\252.9T\230\346\177n\304\262\2275>\277\\\0271\345b\003"
 128      98E67F6E 
 128      C4B29735 
 128      3EBF5C17 
 128      31E56203 
 129 0060 77632F5A 		.ascii	"wc/Z"
 130              		.text
 131              		.section	.gnu.lto_.refs.d58d111acca16c92,"",%progbits
 132 0000 789C6362 		.ascii	"x\234cb`b`g\200\000&\006\006FFF\006\000\000\333\000"
 132      60626067 
 132      80002606 
 132      06464646 
 132      060000DB 
 133 0015 11       		.ascii	"\021"
 134              		.text
 135              		.section	.gnu.lto_.decls.d58d111acca16c92,"",%progbits
 136 0000 789CBD5C 		.ascii	"x\234\275\\\177p\024E\276\237\231\235dwI.\004<}\350"
 136      7F701445 
 136      BE9F999D 
 136      6477492E 
 136      043C7DE8 
 137 0014 79E5FACA 		.ascii	"y\345\372\312\273\242\356N\363\003D(\337C0\201\203\367"
 137      BBA2EE4E 
 137      F3034428 
 137      DF433081 
 137      83F7
 138 0026 F85549B4 		.ascii	"\370UI\264\360\217W\353\220\035\310\236Iv\235\235`\250"
 138      F08F57EB 
 138      901DC89E 
 138      49769D9D 
 138      60A8
 139 0038 7B553724 		.ascii	"{U7$$\247(\030\002H@\210\361\011\210\036\"\010(\261"
 139      24A72818 
 139      02484088 
 139      F109881E 
 139      220828B1 
 140 004c 10D75F10 		.ascii	"\020\327_\020A\001A\220\200\236\253O1\200\336\011\032"
 140      41014190 
 140      809EAB4F 
 140      3180DE09 
 140      1A
 141 005d 01F991F7 		.ascii	"\001\371\221\367\355\357\314\354\366Lfvgr\336\333\252"
 141      EDEFCCEC 
ARM GAS  /tmp/ccV4asm9.s 			page 10


 141      F64C6676 
 141      6772DEDB 
 141      AA
 142 006e FE6E4F6F 		.ascii	"\376nOo\367\247\277\277\272\277\335=\235p\014\307\360"
 142      F7A7BFBF 
 142      BABFDD3D 
 142      9D700CC7 
 142      F0
 143 007f 1CC3F4C1 		.ascii	"\034\303\364\301g\354\1770\314\016\037\303d3\0143\226"
 143      67EC7F30 
 143      CC0E1FC3 
 143      64330C33 
 143      96
 144 0090 51BF9F86 		.ascii	"Q\277\237\206\264\035\222\027\322\015P\357\027\220\256"
 144      B41D9217 
 144      D20D50EF 
 144      1790AE
 145 009f 83443E50 		.ascii	"\203D>P\225\371%\344'B*\2034\023\222\000i\016\244(\244"
 145      95F925E4 
 145      27422A83 
 145      34139200 
 145      690EA428 
 146 00b4 3F4262A1 		.ascii	"?Bb\241\216\242\325\327?\244\315\317\031\365\267<H\271"
 146      8EA2D5D7 
 146      3FA4CDCF 
 146      19F5B73C 
 146      48B9
 147 00c6 90FE0065 		.ascii	"\220\376\000e\015\220\0329\265?\322\007\351\373f\370"
 147      0D901A39 
 147      B53FD207 
 147      E9FB66F8 
 148 00d6 0E40BA1D 		.ascii	"\016@\272\035\322\030H\0138#/\017Bj\202T\005\311\003"
 148      D218480B 
 148      38232F0F 
 148      426A8254 
 148      05C903
 149 00e9 E5BF86EF 		.ascii	"\345\277\206\357\221\220Fk\317\277\324x!<\361\032/w"
 149      9190466B 
 149      CFBFD478 
 149      213CF11A 
 149      2F77
 150 00fb 411A0FA9 		.ascii	"A\032\017\251\304\304\327D\015\033ya\215\3757C\372o"
 150      C4C4D744 
 150      0D1B7961 
 150      8DFD3743 
 150      FA6F
 151 010d 4D1ED207 		.ascii	"M\036\322\007\247\325\377\243\226\237\006d\272\011\217"
 151      A7D5FFA3 
 151      969F0664 
 151      BA098F
 152 011c E82447D3 		.ascii	"\350$G\323\237AN\023v\223\246\323*\023~\231\3067)\273"
 152      9F414E13 
 152      7693A6D3 
 152      2A137E99 
 152      C63729BB 
 153 0130 D7843D53 		.ascii	"\327\204=S\223\217`\351\330\214\246\323\231\246\272"
 153      938F60E9 
ARM GAS  /tmp/ccV4asm9.s 			page 11


 153      D88CA6D3 
 153      99A6BA
 154 013f E423A4A9 		.ascii	"\344#\244\251/X\324\037\312,Q\340\023\350\202\3123Y"
 154      2F58D41F 
 154      CA2C51E0 
 154      13E882CA 
 154      3359
 155 0151 81CDF313 		.ascii	"\201\315\363\023\325\221\\\256\237\011@\205_1k\025\245"
 155      D5915CAE 
 155      9F094085 
 155      5F316B15 
 155      A5
 156 0162 25D1F438 		.ascii	"%\321\3648\033\020\330\247\331\241\300\3610\226\371"
 156      1B10D8A7 
 156      D9A1C0F1 
 156      3096F9
 157 0171 0DF31CB4 		.ascii	"\015\363\034\264jQ\224\206k\372cf\006\005^\330u\200"
 157      6A519486 
 157      6BFA6366 
 157      06055ED8 
 157      7580
 158 0183 25B06BD9 		.ascii	"%\260k\331\337\250](\361#\241\200Z\312h\345\026\237"
 158      DFA85D28 
 158      F123A180 
 158      5ACA68E5 
 158      169F
 159 0195 9B990EE8 		.ascii	"\233\231\016\3503\336\275\255\223U\232s\275L3<)\211"
 159      33DEBDAD 
 159      93559A73 
 159      BD4C333C 
 159      2989
 160 01a7 A686616D 		.ascii	"\246\206am\251\256|zOl\222\375\370\007>N`7\260^\340"
 160      A9AE7C7A 
 160      4F6C92FD 
 160      F8073E4E 
 160      6037B05E 
 161 01bc FEB7AC01 		.ascii	"\376\267\254\001\336\001\006\341\347/\320\326\300m'"
 161      DE0106E1 
 161      E72FD0D6 
 161      C06D27
 162 01cb CFA9A569 		.ascii	"\317\251\245i\270\3650h\341;YD\343\375\251\242\322d"
 162      B8F53068 
 162      E13B5944 
 162      E3FDA9A2 
 162      D264
 163 01dd 114B559C 		.ascii	"\021KU\234\234,\325-E\036Y\177*\323\307\032\255M\361"
 163      9C2CD52D 
 163      451E597F 
 163      2AD3C71A 
 163      AD4DF1
 164 01f0 25B01BD9 		.ascii	"%\260\033\331_\001}\201\365X6\343\230i\254\246v+!\265"
 164      5F017D81 
 164      F55836E3 
 164      9869ACA6 
 164      762B21B5 
 165 0204 6CAADB3C 		.ascii	"l\252\333<\375AW\372\211\357w\020\245\373\231\207Qa"
 165      FD4157FA 
ARM GAS  /tmp/ccV4asm9.s 			page 12


 165      89EF7710 
 165      A5FB9987 
 165      5161
 166 0216 EB940C4A 		.ascii	"\353\224\014JOt7\277\360[E\361\011\354v\226H4\317\250"
 166      4F7437BF 
 166      F05B45F1 
 166      09EC7696 
 166      4834CFA8 
 167 022a 78E7384B 		.ascii	"x\3478K\027\266\217F\234\035\210\3632k\004\322D\245"
 167      17B68F46 
 167      9C1D88F3 
 167      326B04D2 
 167      44A5
 168 023c 9402CF7A 		.ascii	"\224\002\317z\205\214\012\314P\227c\342\254[\265\371"
 168      858C0ACC 
 168      509763E2 
 168      AC5BB5F9 
 169 024c 68B525DE 		.ascii	"h\265%\336yt\331\365J\307\233l\016\263\220\310\333\321"
 169      7974D9F5 
 169      4AC79B6C 
 169      0EB390C8 
 169      DBD1
 170 025e AC4CEACA 		.ascii	"\254L\352\312\263\030!q\217\0166:%\372\226\375G\326"
 170      B3182171 
 170      8F0E363A 
 170      25FA96FD 
 170      47D6
 171 0270 B38D8A02 		.ascii	"\263\215\212\002?\354\302\261\267\2103\012\237\021H"
 171      3FECC2B1 
 171      B788330A 
 171      9F1148
 172 027f 60E32C07 		.ascii	"`\343,\007\364\015\363p;\273*W\341\325\362\314\003\356"
 172      F40DF370 
 172      3BBB2A57 
 172      E1D5F2CC 
 172      03EE
 173 0291 E2F1F67F 		.ascii	"\342\361\366\177Q\022q\326\361\210K|z\350\243\"4\332"
 173      511271D6 
 173      F1884B7C 
 173      7AE8A322 
 173      34DA
 174 02a3 DB38EAF6 		.ascii	"\3338\352\366r\003\032v{\314\303\356\203\346\301\204"
 174      72031A76 
 174      7BCCC3EE 
 174      83E6C184 
 175 02b3 EB3D8E06 		.ascii	"\353=\216\006\336\021\256\377\310Kp\226C\357\024g\034"
 175      DE11AEFF 
 175      C84B7096 
 175      43EF1467 
 175      1C
 176 02c4 7B5AF177 		.ascii	"{Z\361w\251b\017U<\337\223,\346\251\342\307S\305Y\224"
 176      A9620F55 
 176      3CDF932C 
 176      E6A9E2C7 
 176      53C55994 
 177 02d8 4BA4F5BF 		.ascii	"K\244\365\277=\324\000\356\302\001\374\256\315\000\026"
 177      3DD400EE 
ARM GAS  /tmp/ccV4asm9.s 			page 13


 177      C201FCAE 
 177      CD0016
 178 02e7 D8AD494B 		.ascii	"\330\255IK\016h\004'\266,\376\342$\273\264Q\351*\264"
 178      0E680427 
 178      B62CFEE2 
 178      24BBB451 
 178      E92AB4
 179 02fa 7246A8C2 		.ascii	"rF\250\302Rnt\277\016\230\2334j\374\265\343l\300\302"
 179      526E74BF 
 179      0E989B34 
 179      6AFCB5E3 
 179      6CC0C2
 180 030d E30C5505 		.ascii	"\343\014U\005\366\030\210\221\251\026\251w\334\354\222"
 180      F6188891 
 180      A916A977 
 180      DCEC92
 181 031c 6B8EA34B 		.ascii	"k\216\243K\036w\344\222[\216/w\347\222\361\263\037\221"
 181      1E77E492 
 181      5B8E2F77 
 181      E792F1B3 
 181      1F91
 182 032e 18F609FA 		.ascii	"\030\366\011\372\343*\317\200\3741a\366\307\356\025"
 182      E32ACF80 
 182      FC3161F6 
 182      C7EE15
 183 033d E88F0947 		.ascii	"\350\217\011G\376\270\336C\371\236V\266\305c\351x\357"
 183      FEB8DE43 
 183      F99E56B6 
 183      C563E978 
 183      EF
 184 034e 788C8EE7 		.ascii	"x\214\216\347\304\225\022\224+}\206\256\364\271m,\370"
 184      C4951294 
 184      2B7D86AE 
 184      F4B96D2C 
 184      F8
 185 035f 08E53F3E 		.ascii	"\010\345?>\340`\260\365\370r\234\325\264Y\\u\244d\335"
 185      E060B0F5 
 185      F8729CD5 
 185      B4595C75 
 185      A464DD
 186 0372 808EC033 		.ascii	"\200\216\3003T4x\347\015\266\001\247\262\3238\217\177"
 186      543478E7 
 186      0DB601A7 
 186      B2D3388F 
 186      7F
 187 0383 EAB10C08 		.ascii	"\352\261\014\010\016\240\226.\3349\006\347\226o\020"
 187      0EA0962E 
 187      DC3906E7 
 187      966F10
 188 0392 A8C7630E 		.ascii	"\250\307c\016\010^S@\360\032'y\257?\225!\013\342\301"
 188      085E5340 
 188      F01A2779 
 188      AF3F9521 
 188      0BE2C1
 189 03a5 8CDBEA30 		.ascii	"\214\333\35203\230\025h`\324J\201\001Z\2010\026\367"
 189      33981568 
 189      60D44A81 
ARM GAS  /tmp/ccV4asm9.s 			page 14


 189      015A8130 
 189      16F7
 190 03b7 BFCC9E6B 		.ascii	"\277\314\236kP\332\012\235;\360\322\343\304\201\317"
 190      50DA0A9D 
 190      3BF0D2E3 
 190      C481CF
 191 03c6 A103F70D 		.ascii	"\241\003\367\015\314\201{\315\016|Iu\340^G\016\274\230"
 191      CC817BCD 
 191      0E7C4975 
 191      E05E470E 
 191      BC98
 192 03d8 EFEFC06B 		.ascii	"\357\357\300kxK\007~\221w\357\300\275\224\003\377\200"
 192      784B077E 
 192      9177EFC0 
 192      BD9403FF 
 192      80
 193 03e9 0E7CDED6 		.ascii	"\016|\336\326\201\337\346\0358\260\317\302\201\251\376"
 193      81DFE61D 
 193      38B0CFC2 
 193      81A9FE
 194 03f8 D49E4E60 		.ascii	"\324\236N`O\037\2637\003=\205\364,\320\344\207c\016"
 194      4F1FB337 
 194      033D85F4 
 194      2CD0E487 
 194      630E
 195 040a F066FF52 		.ascii	"\360f\377Rg(\012)5\2251\351\260\254\\\20548\312\346"
 195      67280A29 
 195      359531E9 
 195      B0AC5C85 
 195      3438CAE6 
 196 041e A4BAEBC6 		.ascii	"\244\272\353\306\356\336\030\250g\305W\236hw74\343\257"
 196      EEDE18A8 
 196      67C5579E 
 196      68773734 
 196      E3AF
 197 0430 AFB896F8 		.ascii	"\257\270\226\370\300|\216\2300\321O\332\323\346\365"
 197      C07C8E98 
 197      30D14FDA 
 197      D3E6F5
 198 043f 9593F171 		.ascii	"\225\223\361q\306\211\024V\366A)\224\370\326\023\355"
 198      C6891456 
 198      F6412994 
 198      F8D613ED 
 199 044f 2C91C26A 		.ascii	",\221\302j/\301\352\355\363\2232$\216|\325sR\233^\232"
 199      2FC1EAED 
 199      F3933224 
 199      8E7CD573 
 199      529B5E9A 
 200 0463 39B2525A 		.ascii	"9\262RZ\237\225q\245d\004\342\230M\330\344\021\316\024"
 200      9F9571A5 
 200      6404E298 
 200      4DD8E411 
 200      CE14
 201 0475 967A8580 		.ascii	"\226z\205\200Z\232)()\361\363_\372\225\326\\\213\256"
 201      5A9A2928 
 201      29F1F35F 
 201      FA95D65C 
ARM GAS  /tmp/ccV4asm9.s 			page 15


 201      8BAE
 202 0487 C6D122EB 		.ascii	"\306\321\"\3533\342\231\304\365\357*J\276\300.B\216"
 202      33E299C4 
 202      F5EF2A4A 
 202      BEC02E42 
 202      8E
 203 0498 BFB1E6B8 		.ascii	"\277\261\346\270c\234\035\016\307\\\301&-&\216\023\257"
 203      639C1D0E 
 203      C75CC126 
 203      2D268E13 
 203      AF
 204 04a9 9DEBBAA1 		.ascii	"\235\353\272\241\015\221[\034\260\335\020?\322\274\306"
 204      0D915B1C 
 204      B0DD103F 
 204      D2BCC6
 205 04b8 D11AB583 		.ascii	"\321\032\265\203\327\273/M\211q\354L|\030\316\306\313"
 205      D7BB2F4D 
 205      8971EC4C 
 205      7C18CEC6 
 205      CB
 206 04c9 518AB7B2 		.ascii	"Q\212\267\2623\352\335\010\3031\357a\223\266\376R$~"
 206      33EADD08 
 206      C331EF61 
 206      93B6FE52 
 206      247E
 207 04db A14AD1E6 		.ascii	"\241J\321\346H\212K\232\024\002\273\214\313\001\330"
 207      488A4B9A 
 207      1402BB8C 
 207      CB01D8
 208 04ea A34958A7 		.ascii	"\243IX\247\003\311\210wuwn\213\240\203}\342\032,`\000"
 208      03C98877 
 208      75776E8B 
 208      A0837DE2 
 208      1A2C6000 
 209 04fe 5BBA67B5 		.ascii	"[\272g\265\313\200\271\362|\317\365\257\241\370\035"
 209      CB80B9F2 
 209      7CCFF5AF 
 209      A1F81D
 210 050d 38305FF0 		.ascii	"80_\360\376$\003s\273\327\201 \366\003\023\254r\360"
 210      FE240373 
 210      BBD78120 
 210      F60313AC 
 210      72F0
 211 051f C6CE9714 		.ascii	"\306\316\227\024\345\221l\335?\263\355\004\341\230\235"
 211      E5916CDD 
 211      3FB3ED04 
 211      E1989D
 212 052e D8D93AB3 		.ascii	"\330\331:\263eW^=x\253j\331u\216,\373\312\276\025\316"
 212      65575E3D 
 212      78AB6AD9 
 212      758E2CFB 
 212      CABE15CE 
 213 0542 FC335BEF 		.ascii	"\3743[\357>\204\335_\305\356\2377w\277\375\177N\215"
 213      3E84DD5F 
 213      C5EE9F37 
 213      77BFFD7F 
 213      4E8D
ARM GAS  /tmp/ccV4asm9.s 			page 16


 214 0554 55BB7FDE 		.ascii	"U\273\177\336Q\367\237\036\260\330\302\011\354\330k"
 214      51F79F1E 
 214      B0D8C209 
 214      ECD86B
 215 0563 D39AEFEA 		.ascii	"\323\232\357\352\267\303\237\302N6\241\003u\371\314"
 215      B7C39FC2 
 215      4E36A103 
 215      75F9CC
 216 0572 E6BB2B87 		.ascii	"\346\273+\207\356\013\237\251\012\034\363\201O\347~"
 216      EE0B9FA9 
 216      0A1CF381 
 216      4FE77E
 217 0581 40FE0B62 		.ascii	"@\376\013b\276q\327sh)\235\207#\256\021\215N|\356\000"
 217      BE71D773 
 217      68299D87 
 217      23AE118D 
 217      4E7CEE00 
 218 0595 8E0815AC 		.ascii	"\216\010\025\254\333\011\230\255#5\304\277\247\301>"
 218      DB0998AD 
 218      2335C4BF 
 218      A7C13E
 219 05a4 710D66E4 		.ascii	"q\015f\344\354\007\032\3543'`\371\366\234]\240\301\276"
 219      EC071AEC 
 219      332760F9 
 219      F69C5DA0 
 219      C1BE
 220 05b6 740D66E4 		.ascii	"t\015f\344\354G\032\354\224\023\260a\366\234]\246\301"
 220      EC471AEC 
 220      9413B061 
 220      F69C5DA6 
 220      C1
 221 05c7 BE710D66 		.ascii	"\276q\015f\344\354*\015v\326\011X\300\236\263\226C\024"
 221      E4EC2A0D 
 221      76D60958 
 221      C09EB396 
 221      4314
 222 05d9 58AF6B30 		.ascii	"X\257k0#g\2554\330E'`\303\3559[F\203]q\015f\344\354"
 222      2367AD34 
 222      D8452760 
 222      C3ED395B 
 222      46835D71 
 223 05f1 091A6CBE 		.ascii	"\011\032l\276\337\001X\241=gm4X\223k0#g\253h\260G\234"
 223      DF0158A1 
 223      3D676D34 
 223      58936B30 
 223      2367AB68 
 224 0608 808DB6E7 		.ascii	"\200\215\266\347l5\015\266\3105\230\221\263\3154\330"
 224      6C350DB6 
 224      C8359891 
 224      B3CD34D8 
 225 0618 122760E3 		.ascii	"\022'`\343\3549{\211\006[\346\032\314\310\3316\032l"
 225      EC397B89 
 225      065BE61A 
 225      CCC8D936 
 225      1A6C
 226 062a 8513B049 		.ascii	"\205\023\260I\366\234\275L\203\255r\015f\344l\007\015"
 226      F69CBD4C 
ARM GAS  /tmp/ccV4asm9.s 			page 17


 226      83AD720D 
 226      66E46C07 
 226      0D
 227 063b B6C609D8 		.ascii	"\266\306\011\330\014{\316^\245\301:\\\203\0319\333I"
 227      0C7BCE5E 
 227      A5C13A5C 
 227      831939DB 
 227      49
 228 064c 833DE304 		.ascii	"\203=\343\004l\246=g\273h\260g]\203\0319;H\203\375\305"
 228      6CA63D67 
 228      BB68B067 
 228      5D831939 
 228      3B4883FD 
 229 0661 09D8FD16 		.ascii	"\011\330\375\026\234%?V\355H\230~\216\2436k\233\374"
 229      9C253F56 
 229      ED48987E 
 229      8EA3366B 
 229      9BFC
 230 0673 FA02C765 		.ascii	"\372\002\307e\214fR\030/\371\335\256\310\014r\223u\362"
 230      8C665218 
 230      2FF9DDAE 
 230      C80C7293 
 230      75F2
 231 0685 8DAF6A71 		.ascii	"\215\257jq^]\254\356p\202\230&\000\256\332C\255|\343"
 231      5E5DACEE 
 231      70829826 
 231      00AEDA43 
 231      AD7CE3
 232 0698 AEC14CAE 		.ascii	"\256\301L\256L\300\014K\247\344\321\177<\375\211\007"
 232      4CC00C4B 
 232      A7E4D17F 
 232      3CFD8907 
 233 06a8 79C1C451 		.ascii	"y\301\304Q\357\011\206Y\327\025\3303\034\331\302\177"
 233      EF098659 
 233      D715D833 
 233      1CD9C27F 
 234 06b8 CDF9935C 		.ascii	"\315\371\223\\\250y=\247\036\031t\371\215\007\016\311"
 234      A8793DA7 
 234      1E1974F9 
 234      8D070EC9 
 235 06c8 4FA6A676 		.ascii	"O\246\246v\236p\212\366\204\367\235\250)Mh\377t\317"
 235      9E708AF6 
 235      84F79DA8 
 235      294D68FF 
 235      74CF
 236 06da 6A3CCF74 		.ascii	"j<\317t\376^d\345\371\203\332\006\341[\334 |\3507\257"
 236      FE5E64E5 
 236      F983DA06 
 236      E15BDC20 
 236      7CE837AF 
 237 06ee 30B7BB7C 		.ascii	"0\267\273|3\002\3530\263\024V\307*\366k\012\360\305"
 237      3302EB30 
 237      B31456C7 
 237      2AF66B0A 
 237      F0C5
 238 0700 6337756E 		.ascii	"c7unR\224\306l7rtir\364\242\034_\376\004r|\343Z\216"
 238      5294C66C 
ARM GAS  /tmp/ccV4asm9.s 			page 18


 238      37727469 
 238      72F4A21C 
 238      5FFE0472 
 239 0718 E12639E2 		.ascii	"\341&9\342\303\335\313qL\223\343G\224\243\367'\220\343"
 239      C3DDCB71 
 239      4C93E347 
 239      94A3F727 
 239      90E3
 240 072a 8A6B390A 		.ascii	"\212k9\012)9p\267v\233\272[\273\206iM\277[#\374\364"
 240      293970B7 
 240      769BBA5B 
 240      BB86694D 
 240      BF5B23FC 
 241 073f 71D798CE 		.ascii	"q\327\230\316\267\367\222#GR\354\340\360c/\265\305U"
 241      B7F79223 
 241      4752ECE0 
 241      F0632FB5 
 241      C555
 242 0751 9C6D71BF 		.ascii	"\234mq\277\3254\326\340!\032[0\310\342H\330\021R\367"
 242      D534D6E0 
 242      211A5B30 
 242      C8E248D8 
 242      1152F7
 243 0764 EEB7B768 		.ascii	"\356\267\267h\307?M\010\265p\300PK\367\276\242\276n"
 243      C73F4D08 
 243      B570C050 
 243      4BF7BEA2 
 243      BE6E
 244 0776 7C18815A 		.ascii	"|\030\201Z\007\231\255\230m2b\266\321\210\360Hz\272"
 244      0799AD98 
 244      6D3262B6 
 244      D188F048 
 244      7ABA
 245 0788 4076DCEC 		.ascii	"@v\334\354\237\264\022\362\340e\376\337\333q\314jd\237"
 245      9FB412F2 
 245      E065FEDF 
 245      DB71CC6A 
 245      649F
 246 079a 18D06580 		.ascii	"\030\320e\200J9\320\357:\265\340\242\032\351\231\177"
 246      4A39D0EF 
 246      3AB5E0A2 
 246      1AE9997F 
 247 07aa 08B121BE 		.ascii	"\010\261!\276\365Q\375\230\346.\022^6\376\203p\037\354"
 247      F551FD98 
 247      E62E125E 
 247      36FE8370 
 247      1FEC
 248 07bc 737FB012 		.ascii	"s\177\260\022\277A\365\272%(\320\326~\026\036\320\301"
 248      BF41F5BA 
 248      2528D0D6 
 248      7E161ED0 
 248      C1
 249 07cd CAEB03   		.ascii	"\312\353\003"
 250 07d0 1524F9E1 		.ascii	"\025$\371\341\230\335\203\034\004\221@:k]\270\315\341"
 250      98DD831C 
 250      0491403A 
 250      6B5DB8CD 
ARM GAS  /tmp/ccV4asm9.s 			page 19


 250      E1
 251 07e1 E14CF210 		.ascii	"\341L\362\020\262gX\027*c\205\207\034\337\3555)\303"
 251      B2675817 
 251      2A638587 
 251      1CDFED35 
 251      29C3
 252 07f3 C1214F37 		.ascii	"\301!O76Y\345\351w|w\360z\365\224\205\374\344\340\220"
 252      3659E5E9 
 252      777C77F0 
 252      7AF59485 
 252      FCE4E090 
 253 0807 C7707C27 		.ascii	"\307p|'\260\2539N\203\035\250>\015&L\361\007\320\036"
 253      B0AB394E 
 253      831DA83E 
 253      0D264CF1 
 253      07D01E
 254 081a B25E58E3 		.ascii	"\262^X\3431\034\363\237r\255\373\000\255\373\370\245"
 254      311CF39F 
 254      72ADFB00 
 254      ADFBF8A5 
 255 082a 7DAB5995 		.ascii	"}\253Y\225\177\3658\367;3\3368z-\247em\367\255J\274"
 255      7FF538F7 
 255      3B33DE38 
 255      7A2DA765 
 255      6DF7AD4A 
 256 083f 753F2EC2 		.ascii	"u?.\302\324Aw\325\011si\266\232\355*\230\352\360\013"
 256      D44177D5 
 256      097369B6 
 256      9AED2A98 
 256      EAF00B
 257 0852 72DC8205 		.ascii	"r\334\202\005\014`\257-\2668.V\217\310\355\002\313z"
 257      0C60AF2D 
 257      B6382E56 
 257      8FC8ED02 
 257      CB7A
 258 0864 0FB5547A 		.ascii	"\017\265Tz\334I\377iv\247G\366\257\326<E=\031]\351\032"
 258      DC49FF69 
 258      76A747F6 
 258      AFD63C45 
 258      3D195DE9 
 259 0879 CF28CFD9 		.ascii	"\317(\317\331\305\206\031i\255\023\270q\216\035/u\256"
 259      C5861969 
 259      AD13B871 
 259      8E1D2F75 
 259      AE
 260 088a 0D4E880B 		.ascii	"\015N\210\013\325'9\362fh\015\322\247\220\256E\372\005"
 260      D52739F2 
 260      66680DD2 
 260      A790AE45 
 260      FA05
 261 089c D293487B 		.ascii	"\322\223H{\220\376\035\351\367H/\"\275\212\364\011\017"
 261      90FE1DE9 
 261      F7482F22 
 261      BD8AF409 
 261      0F
 262 08ad B645FA34 		.ascii	"\266E\3724\322g\220\256C\272\001\351\363\264{\333\331"
 262      D26790AE 
ARM GAS  /tmp/ccV4asm9.s 			page 20


 262      43BA01E9 
 262      F3B47BDB 
 262      D9
 263 08be 451D6AC9 		.ascii	"E\035j\311\201\251\217\272\226\001\037\232\037M\035"
 263      81A98FBA 
 263      96011F9A 
 263      1F4D1D
 264 08cd 9A0B6CBB 		.ascii	"\232\013l\273k\260@:M\266P\232lEM.Eml4\016\344\2159"
 264      6BB0403A 
 264      4DB6509A 
 264      6C454D2E 
 264      456D6C34 
 265 08e5 FA6B9C34 		.ascii	"\372k\2344\003\317^\204\304\207_\365xW*\361\005\036"
 265      03CF5E84 
 265      C4875FF5 
 265      78572AF1 
 265      051E
 266 08f7 7D07B4CD 		.ascii	"}\007\264\315\014\230q\203f\324\311U\321t\343B}Geg\223"
 266      0C987183 
 266      66D4C955 
 266      D174E342 
 266      7D476567 
 267 090c 2DF458D9 		.ascii	"-\364X\331\351\272\357\264*|\204R\341\243\250\302\307"
 267      E9BAEFB4 
 267      2A7C8452 
 267      E1A3A8C2 
 267      C7
 268 091d 50859BD0 		.ascii	"P\205\233\320e6\323\212\024\330\205\234\351\276\211"
 268      6536D38A 
 268      14D8859C 
 268      E9BE89
 269 092c F185599A 		.ascii	"\361\205Y\232\316\223/\271{\217Z\\8Q_\025\245\011J+"
 269      CE932FB9 
 269      7B8F5A5C 
 269      38515F15 
 269      A5094A2B 
 270 0940 7675DFB8 		.ascii	"vu\337\270\021C\3076\0171\300\245\034s\204^\306\231"
 270      1143C736 
 270      0F31C0A5 
 270      1C73845E 
 270      C699
 271 0952 0ECF4D8E 		.ascii	"\016\317M\216\3141\213s\035\274\200L\263\223\331\262"
 271      CC318B73 
 271      1DBC804C 
 271      B393D9B2 
 272 0962 F8FC51B6 		.ascii	"\370\374Q\266\261Q\331P\250\255,\224fe\370\206T\020"
 272      B151D950 
 272      A8AD2C94 
 272      6665F886 
 272      5410
 273 0974 CCD731B8 		.ascii	"\314\3271\270$\337\361\355\352\213\324N\234e\227\347"
 273      24DFF1ED 
 273      EA8BD44E 
 273      9C6597E7 
 274 0984 5ADE6FC8 		.ascii	"Z\336o\310\014\223\350n~\345w\270\002\335\211@O\015"
 274      0C93E86E 
 274      7EE577B8 
ARM GAS  /tmp/ccV4asm9.s 			page 21


 274      02DD8940 
 274      4F0D
 275 0996 1868E9C2 		.ascii	"\030h\351\302g\325\213\022\257#\320\206\\\263\032=\246"
 275      67D58B12 
 275      AF23D086 
 275      5CB31A3D 
 275      A6
 276 09a7 758EC7B8 		.ascii	"u\216\307\270\316\361\370S\231\276>\017\363O\254\014"
 276      CEF1F853 
 276      99BE3E0F 
 276      F34FAC0C 
 277 09b7 CB30B3C1 		.ascii	"\3130\263\301\014\022eZ\373\020\203]\321\234M\277a\262"
 277      0C12655A 
 277      FB10835D 
 277      D19C4DBF 
 277      61B2
 278 09c9 C3890B18 		.ascii	"\303\211\013\030\020\015.\020\277|\002\3472\025\354"
 278      100D2E10 
 278      BF7C02E7 
 278      3215EC
 279 09d8 4D276069 		.ascii	"M'`i\216\241\227\267?e\373\016\253#\343\325\253D\347"
 279      8EA197B7 
 279      3F65FB0E 
 279      AB23E3D5 
 279      AB44E7
 280 09eb C977FF8D 		.ascii	"\311w\377\215\\\004\314|\375j\257\307\331\365\253\367"
 280      5C04CC7C 
 280      FD6AAFC7 
 280      D9F5ABF7 
 281 09fb 3CE6F7DC 		.ascii	"<\346\367\334\373\361\372\325{\216Vk\347\255\326\000"
 281      FBF1FAD5 
 281      7B8E566B 
 281      E7ADD600 
 282 0a0b 56B71193 		.ascii	"V\267\021\223S\306\260\2240\037\235~w\254z\253\361 "
 282      53C6B094 
 282      301F9D7E 
 282      77AC7AAB 
 282      F120
 283 0a1d 2E3A0FFC 		.ascii	".:\017\374,\363\255F\003\016\341\357\260\231\377\255"
 283      2CF3AD46 
 283      030EE1EF 
 283      B099FFAD 
 284 0a2d 0790FFC3 		.ascii	"\007\220\377\303\231\371_\320\030\177E{\247\207\203"
 284      99F95FD0 
 284      187F457B 
 284      A78783
 285 0a3c A931EDB6 		.ascii	"\2511\355\266A`\317\340\025\021'\233\200\317Q\222\303"
 285      4160CFE0 
 285      1511279B 
 285      80CF5192 
 285      C3
 286 0a4d EE17AD1A 		.ascii	"\356\027\255\032[;\324w2Gq\274~\351\032,`\000{\225\006"
 286      5B3BD477 
 286      324771BC 
 286      7EE91A2C 
 286      60007B95 
 287 0a62 3BED04CC 		.ascii	";\355\004\314.\210\001\330N\032\354o\256\301\214\234"
ARM GAS  /tmp/ccV4asm9.s 			page 22


 287      2E8801D8 
 287      4E1AEC6F 
 287      AEC18C9C 
 288 0a72 EDA2C1BE 		.ascii	"\355\242\301\276s\002fwZ\011`\007i\260\013\256\301\002"
 288      73026677 
 288      5A096007 
 288      69B00BAE 
 288      C102
 289 0a84 565EC2F4 		.ascii	"V^\302\364s2\201\375\020w\015G0R\036Cz\034\351\307H"
 289      733281FD 
 289      10770D47 
 289      30521E43 
 289      7A1CE9C7 
 290 0a99 FF8A34E1 		.ascii	"\377\2124\341d\321u\200\016\360\227\221\341\367\006"
 290      64D17580 
 290      0EF09791 
 290      E1F706
 291 0aa8 E63130ED 		.ascii	"\34610\355u\236\374\354N\365\364\327\024c\211>\3548"
 291      759EFCEC 
 291      4EF5F4D7 
 291      1463893E 
 291      EC38
 292 0aba F882E6A0 		.ascii	"\370\202\346\2401\317-\007\001\232\203\370\245\375\352"
 292      31CF2D07 
 292      019A83F8 
 292      A5FDEA
 293 0ac9 C9A57ED1 		.ascii	"\311\245~\321\373a3\236\323\253Y\372ri\177\316\346\373"
 293      FB61339E 
 293      D3AB59FA 
 293      72697FCE 
 293      E6FB
 294 0adb 75B0C75D 		.ascii	"u\260\307]\203\031\256_\307[\016P`+]\203\345\367\363"
 294      8319AE5F 
 294      C75B0E50 
 294      602B5D83 
 294      E5F7F3
 295 0aee 08D517DE 		.ascii	"\010\325\027\336G_\330\2176\377_\244'\221\366 =m\\\220"
 295      475FD88F 
 295      36FF5FA4 
 295      2791F620 
 295      3D6D5C90 
 296 0b02 76E499E3 		.ascii	"v\344\231\343\256:\307R\250\251\311\230q\212kg\333."
 296      AE3AC752 
 296      A8A9C998 
 296      718A6B67 
 296      DB2E
 297 0b14 DAB65BF3 		.ascii	"\332\266[\363\334F-\203m!\250\356\371J\017\252]\270"
 297      DC462D83 
 297      6D21A8EE 
 297      F94A0FAA 
 297      5DB8
 298 0b26 16EB7482 		.ascii	"\026\353t\202\230f'\272\355\257\346\327\001V\263=G\363"
 298      986627BA 
 298      EDAFE6D7 
 298      0156B33D 
 298      47F3
 299 0b38 968C1A6F 		.ascii	"\226\214\032o\334\247F\215s\0305^\317\313\03458\243"
ARM GAS  /tmp/ccV4asm9.s 			page 23


 299      DCA7468D 
 299      7318355E 
 299      CFCB1C35 
 299      38A3
 300 0b4a 8C02DB6B 		.ascii	"\214\002\333k\216\032\027\017c\324\350u\0245\256\034"
 300      8E1A170F 
 300      63D4E875 
 300      1435AE1C 
 301 0b5a 5EA6ED14 		.ascii	"^\246\355\024\325\331f\037\262\320;\340\351\376\352"
 301      D5D9661F 
 301      B2D03BE0 
 301      E9FEEA
 302 0b69 616AEA3A 		.ascii	"aj\352:\340\032,`\000k9J\201\035v\002\226f\272o\245"
 302      E01A2C60 
 302      006B394A 
 302      811D7602 
 302      9666BA6F 
 303 0b7e C18EB906 		.ascii	"\301\216\271\0063r\266\214\006\373\304\011X\232\351"
 303      3372B68C 
 303      06FBC409 
 303      589AE9
 304 0b8d FE091A2C 		.ascii	"\376\011\032,\341\032\314\310Y\033\015\366\205\0230"
 304      E11ACCC8 
 304      591B0DF6 
 304      851330
 305 0b9c BB573800 		.ascii	"\273W8\000\266\212\006\353q\015f\344l5\015\366\265\023"
 305      B68A06EB 
 305      710D66E4 
 305      6C350DF6 
 305      B513
 306 0bae B0803D67 		.ascii	"\260\200=g\3554\3309\327`\001\253!\241~\350\021%\260"
 306      ED34D839 
 306      D76001AB 
 306      21A17EE8 
 306      1125B0
 307 0bc1 3FE0B478 		.ascii	"?\340\264x\036'\253\213H/!\275\202\264\017\351|\236"
 307      1E27AB8B 
 307      482F21BD 
 307      82B40FE9 
 307      7C9E
 308 0bd3 D046A44D 		.ascii	"\320F\244MH\377\214\364\021\336\301\344v\226\236\334"
 308      48FF8CF4 
 308      11DEC1E4 
 308      76969EDC 
 309 0be3 CEBB9E8A 		.ascii	"\316\273\236\212\322\012\222\372\023\031\201}\023W|"
 309      D20A92FA 
 309      1319817D 
 309      13577C
 310 0bf2 6FE115DE 		.ascii	"o\341\025\336#H\025\334'7!\335\212\202\354@\372\026"
 310      234815DC 
 310      273721DD 
 310      8A82EC40 
 310      FA16
 311 0c04 D27790EE 		.ascii	"\322w\220\356A\3727\244\337:\231\253_K]\374\205\375"
 311      41FA37A4 
 311      DF3A99AB 
 311      5F4B5DFC 
ARM GAS  /tmp/ccV4asm9.s 			page 24


 311      85FD
 312 0c16 384FB6DB 		.ascii	"8O\266\333\353\006|\245\374\313}\217\273\275\223\177"
 312      EB067CA5 
 312      FCCB7D8F 
 312      BBBD937F 
 313 0c26 26B15E7B 		.ascii	"&\261^{k\262\010\357o_\352\027\251\006t\024\3364\230"
 313      6BB208EF 
 313      6F5FEA17 
 313      A9067414 
 313      DE3498
 314 0c39 CD2C499A 		.ascii	"\315,I\232;\206M\213\027\261dE1\204i\301\031}\230\372"
 314      3B864D8B 
 314      17B16445 
 314      318469C1 
 314      197D98FA 
 315 0c4d 2E56AB3B 		.ascii	".V\253;SG\310\321Xj\345\207`\316\360\216\007k\330\351"
 315      5347C8D1 
 315      586AE587 
 315      60CEF08E 
 315      076BD8E9 
 316 0c61 7D299F7A 		.ascii	"})\237z\337\233\353Oe\006%}k\221Y\004C\257\031\246<"
 316      DF9BEB4F 
 316      6506257D 
 316      6B915904 
 316      43AF19A6 
 317 0c76 0873BD17 		.ascii	"\010s\275\027\272X\2455\327\264&#\313\020;\236\236\340"
 317      BA58A535 
 317      D7B42623 
 317      CB103B9E 
 317      9EE0
 318 0c88 29D76E75 		.ascii	")\327nu\242\3014o\223\177\010\221\210M 9\246\3155V\300"
 318      A2C1346F 
 318      937F0891 
 318      884D2039 
 318      A6CD3556 
 319 0c9d 668C30C6 		.ascii	"f\2140\306?\334\024\330\3658L\236\305\001\262\015\351"
 319      3FDC14D8 
 319      F5384C9E 
 319      C501B20D 
 319      E9
 320 0cae 4EA48FE1 		.ascii	"N\244\217\341\210^\202t9\3226zt\033\264\242\033\271"
 320      885E8274 
 320      39D2367A 
 320      741BB4A2 
 320      1BB9
 321 0cc0 2DCF60E5 		.ascii	"-\317`\345\321:g^\255\337'][y\265\215\225\26356\354"
 321      D13A675E 
 321      ADDF275D 
 321      5B79B58D 
 321      95B33536 
 322 0cd5 DAAD4A59 		.ascii	"\332\255JY\342&\246]\351H$\256\374xv\0269\022T\372\372"
 322      E226A65D 
 322      E94824AE 
 322      FC787616 
 322      391254FA 
 323 0cea FEC45CC7 		.ascii	"\376\304\\\307,\327\030PX\331\366\032(\001j\347\257"
 323      2CD71850 
ARM GAS  /tmp/ccV4asm9.s 			page 25


 323      58D9F61A 
 323      28016AE7 
 323      AF
 324 0cfb C39C47FD 		.ascii	"\303\234G\375\323\210L\253\236D\362\372j5\223\034\243"
 324      D3884CAB 
 324      9E44F2FA 
 324      6A35931C 
 324      A3
 325 0d0c 1F5C3A7B 		.ascii	"\037\\:{\013\236\341<\315\223E\317\233\2033.z\2140\270"
 325      0B9EE13C 
 325      CD9345CF 
 325      9B83332E 
 325      7A8C30B8 
 326 0d20 A8E14D8B 		.ascii	"\250\341M\213\236K\344omIi\346\267\272}k\311\225v\375"
 326      9E4BE46F 
 326      6D4969E6 
 326      B7BA7D6B 
 326      C99576FD 
 327 0d34 6F7FF7A9 		.ascii	"o\177\367\251\335\363\251#A\303\037\366fX\361\000\334"
 327      DDF3A923 
 327      41C31FF6 
 327      6658F100 
 327      DC
 328 0d45 926FDA3C 		.ascii	"\222o\332<\210w\333 \200;d\206s\023\327\310;\222\367"
 328      8877DB20 
 328      803B6486 
 328      7313D7C8 
 328      3B92F7
 329 0d58 59E2E788 		.ascii	"Y\342\347\210u\3025V\300\200\265\274\327\007\214\351"
 329      75C23556 
 329      C080B5BC 
 329      D7078CE9 
 330 0d68 DE485CAB 		.ascii	"\336H\\\253)\265\203\352wz\362\202ko\334d\343\215\372"
 330      29B583EA 
 330      777AF282 
 330      6B6FDC64 
 330      E38DFA
 331 0d7b DFFAC292 		.ascii	"\337\372\302\222\301,\201\241W\253\305\272Q\033Odu\025"
 331      C12C81A1 
 331      57ABC5BA 
 331      511B4F64 
 331      7515
 332 0d8d DAF0DF91 		.ascii	"\332\360\337\2214\323-\032;[\\\013\360\222\215\000\276"
 332      34D32D1A 
 332      3B5B5C0B 
 332      F0928D00 
 332      BE
 333 0d9e A400A7CD 		.ascii	"\244\000\247\315\002\030\273M\023\2215\011\332\262\332"
 333      0218BB4D 
 333      13913509 
 333      DAB2DA
 334 0dad 74093AC6 		.ascii	"t\011:\306\265e\2300\267\273\226\340e\033\011<I\011"
 334      B5659830 
 334      B7BB96E0 
 334      651B093C 
 334      4909
 335 0dbf BE76E244 		.ascii	"\276v\342D\266\027\332\224\370\252\224\000\001\023\377"
ARM GAS  /tmp/ccV4asm9.s 			page 26


 335      B617DA94 
 335      F8AA9400 
 335      0113FF
 336 0dce C6C373C2 		.ascii	"\306\303s\302N\247k\001^\265\021`pR\200\336~\003\324"
 336      4EA76B01 
 336      5EB51160 
 336      705280DE 
 336      7E03D4
 337 0de1 EACCDEEA 		.ascii	"\352\314\336\352\026\235\325\207\236:`\346\347\311l"
 337      169DD587 
 337      9E3A60E6 
 337      E7C96C
 338 0df0 BF1EE7F3 		.ascii	"\277\036\347\363\015H\237G\272\021\351f\244\333\220"
 338      0D489F47 
 338      BA11E966 
 338      A4DB90
 339 0dff EE70B296 		.ascii	"\356p\262\226\353HM\263\332\004\231\\\020%\237\265\033"
 339      EB484DB3 
 339      DA04995C 
 339      10259FB5 
 339      1B
 340 0e10 33027B4F 		.ascii	"3\002{O\352@\231c\256\232&\301[\230g\024\245\225\314"
 340      EA409963 
 340      AE9A26C1 
 340      5B986714 
 340      A595CC
 341 0e23 D26F92CD 		.ascii	"\322o\222\315\352$\025\233c\026\346\223zk\370\233,y"
 341      EA24159B 
 341      6316E693 
 341      7A6BF89B 
 341      2C79
 342 0e35 D038501B 		.ascii	"\3208P\033+\235\342$\265{\216Y\234\241\0312\2515\273"
 342      2B9DE224 
 342      B57B8E59 
 342      9CA11932 
 342      A935BB
 343 0e48 F85FC3F4 		.ascii	"\370_\303\364\323\205\345\346f\246[j\232,\277f\326\021"
 343      D385E5E6 
 343      66A65B6A 
 343      9A2CBF66 
 343      D611
 344 0e5a 6B2F529A 		.ascii	"k/R\232\362Y\214\036\214\326\312\240\367]\274\341\277"
 344      F2598C1E 
 344      8CD6CAA0 
 344      F75DBCE1 
 344      BF
 345 0e6b 35A87128 		.ascii	"5\250q(\376\344'\271-\363\023}}7\231bPC\232\263\236"
 345      FEE427B9 
 345      2DF3137D 
 345      7D379962 
 345      50439AB3 
 346 0e80 3DC620A4 		.ascii	"=\306 \244J\255=\370\230?\253\1775\250\314g\037d,\371"
 346      4AAD3DF8 
 346      983FAB7F 
 346      35A8CC67 
 346      1F642CF9 
 347 0e94 4EDDC413 		.ascii	"N\335\304\023\330\275\274\017\332\265\347\263v\336B"
ARM GAS  /tmp/ccV4asm9.s 			page 27


 347      D8BDBC0F 
 347      DAB5E7B3 
 347      76DE42
 348 0ea3 2AE82657 		.ascii	"*\350&W\363z\216e,\354\2706\337\312\216\312\245\220"
 348      F37A8E65 
 348      2CECB836 
 348      DFCA8ECA 
 348      A590
 349 0eb5 6641818D 		.ascii	"fA\201\215\343\232x\267#\013>EL\241\262\270\031\201"
 349      E39A78B7 
 349      230B3E45 
 349      4CA1B2B8 
 349      1981
 350 0ec7 77DB9A42 		.ascii	"w\333\232B\343S3\305\213\315M\371\274\252D&Mo\232\004"
 350      E35333C5 
 350      8BCD4DF9 
 350      BCAA4426 
 350      4D6F9A04 
 351 0edb EF5B5A66 		.ascii	"\357[Zf\227\330\245|\013\313_\027\2069le\030\223\206"
 351      97D8A57C 
 351      0BCB5F17 
 351      86396C65 
 351      189386
 352 0eee 76586BE8 		.ascii	"vXk\350\212YC\207\322k\310NT\273f\032\207G\372\213\272"
 352      8A594387 
 352      D26BC84E 
 352      54BB661A 
 352      8747FA8B 
 353 0f03 3911FFC1 		.ascii	"9\021\377\301\275\250\335i|P`G\345X\370\306;V\2227("
 353      BDA8DD69 
 353      7C506047 
 353      E558F8C6 
 353      3B569237 
 354 0f18 4F8A26C9 		.ascii	"O\212&\311\2179\360\215\006\3450i6\012\377l\005q\355"
 354      8F39F08D 
 354      06E53069 
 354      360AFF6C 
 354      0571ED
 355 0f2b 5B8D4AA3 		.ascii	"[\215J\243.\273V\232\224\037[\252\353\325\335\332\230"
 355      2EBB569A 
 355      941F5BAA 
 355      EBD5DDDA 
 355      98
 356 0f3c 55D5C031 		.ascii	"U\325\3001\237[K\266\305,\331g\216$\353NJv\021q\355"
 356      9F5B4BB6 
 356      C52CD967 
 356      8E24EB4E 
 356      4A761171 
 357 0f51 5BA593CC 		.ascii	"[\245\223\314\256\225&\331\347\375%K\264$\026\034zL"
 357      AE9526D9 
 357      E7FD254B 
 357      B424161C 
 357      7A4C
 358 0f63 615DCF47 		.ascii	"a]\317G=i\026\305\3522\323\256\345i\213\200\241\355"
 358      3D6916C5 
 358      EA32D3AE 
 358      E5698B80 
ARM GAS  /tmp/ccV4asm9.s 			page 28


 358      A1ED
 359 0f75 9ACC0123 		.ascii	"\232\314\001#\323\357\346\200b2\211.\367\337\255\344"
 359      D3EFE680 
 359      6232892E 
 359      F7DFADE4 
 360 0f85 8E5F3966 		.ascii	"\216_9f'w\232\275\300Y\363\0208M\017\001\233\270g+\206"
 360      27779ABD 
 360      C059F310 
 360      384D0F01 
 360      9BB8672B 
 361 0f9a F979114F 		.ascii	"\371y\021O\3277"
 361      D737
 362 0fa0 E994DA55 		.ascii	"\351\224\332U\365c\353\"O\277H7\251e\311\020k\265\374"
 362      F563EB22 
 362      4FBF4837 
 362      A965C910 
 362      6BB5FC
 363 0fb3 68A996BE 		.ascii	"h\251\226\276\217\007\342\016\227\323\352E\233\250M"
 363      8F07E20E 
 363      97D3EA45 
 363      9BA84D
 364 0fc2 7C75D8F0 		.ascii	"|u\330\360\325g\344\353_\231\247\025\345\020,\013V\016"
 364      D567E4EB 
 364      5F99A715 
 364      E5102C0B 
 364      560E
 365 0fd4 5FA1C4E7 		.ascii	"_\241\304\347+\312\345\276>\226\325\303\365\213I\020"
 365      2BCAE5BE 
 365      3E96D5C3 
 365      F58B4910 
 366 0fe4 AB1841E0 		.ascii	"\253\030A\340\346g\251p3\331\244A\314\373yX\301\331"
 366      E667A970 
 366      33D9A441 
 366      CCFB7958 
 366      C1D9
 367 0ff6 09D69095 		.ascii	"\011\326\220\225\324\254\251Ug\232"
 367      D4ACA955 
 367      679A
 368 1000 568DB6AD 		.ascii	"V\215\266\255\210\003\331\265Z`\333\252'M\253&\333V"
 368      8803D9B5 
 368      5A60DBAA 
 368      274DAB26 
 368      DB56
 369 1012 97D3B46A 		.ascii	"\227\323\264jN\265b\256-\225\302sE)V\020.\256\014\306"
 369      4EB562AE 
 369      2D95C273 
 369      45295610 
 369      2EAE0CC6 
 370 1026 C4DA5844 		.ascii	"\304\332XD\272\255\212\311\231\\\\R\216\017A9\373\367"
 370      BAAD8AC9 
 370      995C5C52 
 370      8E0F4139 
 370      FBF7
 371 1038 D3EE0994 		.ascii	"\323\356\011\2240\203SE1Y\220E\337\344i\343K*&\337;"
 371      30835345 
 371      31599045 
 371      DFE469E3 
ARM GAS  /tmp/ccV4asm9.s 			page 29


 371      4B2A26DF 
 372 104d 819F5C3A 		.ascii	"\201\237\\:e\002\177\367=\345\367e\341\017\267\024\324"
 372      65027FF7 
 372      3DE5F765 
 372      E10FB714 
 372      D4
 373 105e C5A40241 		.ascii	"\305\244\002A\252\271\2656R+\336*\012\263\302\005\341"
 373      AAB9B536 
 373      522BDE2A 
 373      0AB3C205 
 373      E1
 374 106f DACAEABA 		.ascii	"\332\312\352\272\220X\020\223C\341Z\031:\360\326\301"
 374      90581093 
 374      43E15A19 
 374      3AF0D6C1 
 375 107f F7E8A03C 		.ascii	"\367\350\240<2M\345\032\241\262*\\+\026\004C\342l\241"
 375      324DE51A 
 375      A1B22A5C 
 375      2B160443 
 375      E26CA1
 376 1092 AE5A0ECA 		.ascii	"\256Z\016\312\363\242b\014\032\373\203A\255\271W\010"
 376      F3A2620C 
 376      1AFB8341 
 376      ADB95708 
 377 10a2 85243116 		.ascii	"\205$1\026+-\250\212\324\210\005\225\221\320\274\202"
 377      2B2DA88A 
 377      D4880595 
 377      91D0BC82 
 378 10b2 9038B700 		.ascii	"\2208\267\000\032\316\012Gb\005\262TW\373@\001d\252"
 378      1ACE0A47 
 378      6205B254 
 378      57FB4001 
 378      64AA
 379 10c4 84EA8268 		.ascii	"\204\352\202hD\222c\005\345\025SG\024\027L\231RZ\000"
 379      44926305 
 379      E5155347 
 379      14174C99 
 379      525A00
 380 10d7 02CD2D42 		.ascii	"\002\315-B\271\253\253C\004\026\012Tm\024;\201\323\331"
 380      B9ABAB43 
 380      04160A54 
 380      6D143B81 
 380      D3D9
 381 10e9 0400683C 		.ascii	"\004\000h<\010\276P\374\240<\010p\202\367L\233<mr\205"
 381      08BE50FC 
 381      A03C0870 
 381      82F74C9B 
 381      3C6D7285 
 382 10fd 8F64CB2B 		.ascii	"\217d\313+\246\317 \330\301\262\011\343K\357\373\031"
 382      A6CF20D8 
 382      C1B209E3 
 382      4BEFFB19 
 383 110d C9A99A0B 		.ascii	"\311\251\232\013V\314\244\237\312fb\313)\323K\376sB"
 383      56CCA49F 
 383      CA6662CB 
 383      29D34BFE 
 383      7342
ARM GAS  /tmp/ccV4asm9.s 			page 30


 384 111f 690EE045 		.ascii	"i\016\340E\2425\221\020\001\234>c\352\364\322\011A\370"
 384      A2359110 
 384      019C3E63 
 384      EAF4D209 
 384      41F8
 385 1131 F51A2D5B 		.ascii	"\365\032-[>\025\024\036,\235p\357\344\222\011C\014e"
 385      3E15141E 
 385      2C9D70EF 
 385      E4920943 
 385      0C65
 386 1143 93A69757 		.ascii	"\223\246\227Wx#\321 i\352#j\032Q\014\010\252\306H6\247"
 386      7823D120 
 386      69EA236A 
 386      1A510C08 
 386      AAC64836 
 387 1158 B23A52F9 		.ascii	"\262:R\371@0\026\025\305P\036t\022\252\223\347U\316"
 387      40301615 
 387      C5501E74 
 387      12AA93E7 
 387      55CE
 388 116a ABAC867E 		.ascii	"\253\254\206~\362\312+J\203\245\367T\334\027,\271\257"
 388      F2CA2B4A 
 388      83A5F754 
 388      DC172CB9 
 388      AF
 389 117b 64CA8421 		.ascii	"d\312\204!\023\307\227WP\317\301\342\237\233K\212F\005"
 389      13C79757 
 389      50CFC1E2 
 389      9F9B4B8A 
 389      4605
 390 118d C70C2208 		.ascii	"\307\014\"\010A\204 R\226Djg\207\347dW\342\027\321\312"
 390      41842052 
 390      96446A67 
 390      87E76457 
 390      E217D1CA 
 391 11a1 EC6A614E 		.ascii	"\354jaN\014\334H\224\244\210\024\033\221I\265\222\234"
 391      0CDC4894 
 391      A488141B 
 391      9149B592 
 391      9C
 392 11b2 D46C6555 		.ascii	"\324leU\215\\O\234\245\246N\026\353\203r\026~\217v\205"
 392      8D5C4F9C 
 392      A5A64E16 
 392      EB837216 
 392      7E8F7685 
 393 11c6 109B17D3 		.ascii	"\020\233\027\323\335f\260\\%\211B(\026|\260N\254\003"
 393      DD66B05C 
 393      25894228 
 393      167CB04E 
 393      AC03
 394 11d8 71F32BAB 		.ascii	"q\363+\253\202\206\242\221\356\220+\253\210\327\370"
 394      8286A291 
 394      EE902BAB 
 394      88D7F8
 395 11e7 5488A0EC 		.ascii	"T\210\240\354O\302eG\203\265b\275\014_QI\234;\311\001"
 395      4FC26547 
 395      83B562BD 
ARM GAS  /tmp/ccV4asm9.s 			page 31


 395      0C5F5149 
 395      9C3BC901 
 396 11fb AAEA9AE3 		.ascii	"\252\352\232\343\313\246\226L\255\207\2325\321p5\031"
 396      CBA6964C 
 396      AD879A35 
 396      D1703519 
 397 120b 93BF2F29 		.ascii	"\223\277/)\201\352:\377^9*\205#A\0257\034\361\202\212"
 397      81EA3AFF 
 397      5E392A85 
 397      23411537 
 397      1CF1828A 
 398 121f 411DF218 		.ascii	"A\035\362\030\327\370U\225\021I$\243\234\024\007\301"
 398      D7F85595 
 398      114924A3 
 398      9C1407C1 
 399 122f 2F2AE5FA 		.ascii	"/*\345\372\177\037\030Jp\356\0355D\011\2228\007\006"
 399      7F1F184A 
 399      70EE1D35 
 399      44099238 
 399      0706
 400 1241 7150F6C4 		.ascii	"qP\366\304\212FA\272\003\322hHc<\261\342BHE\220\212"
 400      8A4641BA 
 400      03D26848 
 400      633CB1E2 
 400      42484590 
 401 1256 218D8034 		.ascii	"!\215\2004\022\322\355\220\240^1\324+\206z\305Po\004"
 401      12D2ED90 
 401      A05E31D4 
 401      2B867AC5 
 401      506F04
 402 1269 D41B51C4 		.ascii	"\324\033Q\304I#9\351vN\032\305Iwp\322hN\032\343\221"
 402      492339E9 
 402      764E1AC5 
 402      497770D2 
 402      684E1AE3 
 403 127e 8A0A2115 		.ascii	"\212\012!\025q\325\022|\215\310\212\006\201[/\321\360"
 403      71D5127C 
 403      8DC88A06 
 403      815B2FD1 
 403      F0
 404 128f 43A204DF 		.ascii	"C\242\004\337\221\352\220(\361\225U\202D\324.\324\210"
 404      91EA9028 
 404      F1955582 
 404      44D42ED4 
 404      88
 405 12a0 3E591B87 		.ascii	">Y\033\207\360#\346\274\262:\214\340\031}\321+K\342"
 405      F023E6BC 
 405      B23A8CE0 
 405      197DD12B 
 405      4BE2
 406 12b2 EC18EA91 		.ascii	"\354\030\352\221d\262jbs\340Gmx\300\334\242\345\262"
 406      64B26A62 
 406      73E0476D 
 406      78C0DCA2 
 406      E5B2
 407 12c4 A5D03CF8 		.ascii	"\245\320<\370\311'\326\207eP\213\230\375\220\034\231"
 407      C927D687 
ARM GAS  /tmp/ccV4asm9.s 			page 32


 407      65508B98 
 407      FD901C99 
 408 12d4 F587688E 		.ascii	"\365\207h\2168W\254\225k\204\330\003\304\247\037\"\031"
 408      3857AC95 
 408      6B84D803 
 408      C4A71F22 
 408      19
 409 12e5 4F345897 		.ascii	"O4X\227\247{Ru8\0063\325`\312\267H\211?\032|H\010\313"
 409      A77B5275 
 409      380633D5 
 409      60CAB748 
 409      893F1A7C 
 410 12fc E1DA3983 		.ascii	"\341\3329\203`h\306\346\240\277ea\026\012\304\250X\013"
 410      6068C6E6 
 410      A0BF6561 
 410      160AC4A8 
 410      580B
 411 130e 13E31CA8 		.ascii	"\023\343\034\250\005\036O\352\017\"\274\011\325hg(\214"
 411      051E4FEA 
 411      0F22BC09 
 411      D5686728 
 411      8C
 412 131f 4622D5DE 		.ascii	"F\"\325\336\032\325K\341;\362P\255(e\327\240\227\335"
 412      1AD54BE1 
 412      3BF250AD 
 412      2865D7A0 
 412      97DD
 413 1331 E1CA6935 		.ascii	"\341\312i5\236\300dC5\277\005\025\210\222X[\011\012"
 413      9EC06443 
 413      35BF0515 
 413      8892585B 
 413      090A
 414 1343 CA568BFC 		.ascii	"\312V\213\3740h\311\274\032\224q\376\2001\256\317\037"
 414      3068C9BC 
 414      1A9471FE 
 414      8031AECF 
 414      1F
 415 1354 24CB939F 		.ascii	"$\313\223\237\374R}\250F j\365\313zn\242\3339\030\351"
 415      FC527DA8 
 415      46206AF5 
 415      CB7A6EA2 
 415      DB3918E9 
 416 1368 C491F5F5 		.ascii	"\304\221\365\365\020\026j@\343\200\003|\335\231\011"
 416      10166A40 
 416      E380037C 
 416      DD9909
 417 1377 06642E28 		.ascii	"\006d.(\231Z>\271\034\000\324\226\263G\026\026\325\223"
 417      995A3EB9 
 417      1C00D496 
 417      B3471616 
 417      D593
 418 1389 497868E9 		.ascii	"Ixh\351\324\361\301r0\257P\023\254\200QS*\316\346J\312"
 418      D4F1C172 
 418      30AF5013 
 418      AC805153 
 418      2ACEE64A 
 419 139e F869A515 		.ascii	"\370i\245\025e\236\031\343\313\370\251\205\204\024\215"
ARM GAS  /tmp/ccV4asm9.s 			page 33


 419      659E19E3 
 419      CBF8A985 
 419      84148D
 420 13ad 2FF34C2C 		.ascii	"/\363L,)\313\216aE><\273R\312\016\307\252\302\263e\177"
 420      29CB8E61 
 420      453E3CBB 
 420      52CA0EC7 
 420      AAC2B365 
 421 13c2 4CAC9E1D 		.ascii	"L\254\236\035\256\015\211\365\331s\305J9\"\015Mr\026"
 421      AE0D89F5 
 421      D973C54A 
 421      39220D4D 
 421      7216
 422 13d4 546BC324 		.ascii	"Tk\303$\004\017R=\241r=\011\223zG\236\222\262\"H\305"
 422      040F523D 
 422      A1723D09 
 422      937A479E 
 422      92B22248 
 423 13e9 FCF4F165 		.ascii	"\374\364\361eE\204\024s\245e\236r(,/+\366\224\224\224"
 423      45841473 
 423      A5659E72 
 423      282C2F2B 
 423      F6949494 
 424 13fd 6555944D 		.ascii	"eU\224M.\237\300O\234\002\314\200\206\375df\012\327"
 424      2E9FC04F 
 424      9C02CC80 
 424      86FD6466 
 424      0AD7
 425 140f 10BF245F 		.ascii	"\020\277$_\221:\231'\336\233%\327\337]7;K\"t\210\036"
 425      913A9927 
 425      DE9B25D7 
 425      DF5D373B 
 425      4B227488 
 426 1424 9B67D544 		.ascii	"\233g\325D\213G\027\336V\311\230K`\344\25190\236\032"
 426      8B4717DE 
 426      56C9984B 
 426      60E4A939 
 426      309E1A
 427 1437 BC7DD542 		.ascii	"\274}\325BL\256\020k\242\271$3\203\004\307:Id+\330\031"
 427      4CAE106B 
 427      A2B92433 
 427      8304C73A 
 427      49642BD8 
 428 144c 3E440663 		.ascii	">D\006c\373$-\223\243\265\015\327\206e\017\344\263C"
 428      FB242D93 
 428      A3B50DD7 
 428      86650FE4 
 428      B343
 429 145e 88EE9B25 		.ascii	"\210\356\233%\304\304\361`\345\254\340\335\340wz\255"
 429      C4C4F160 
 429      E5ACE0DD 
 429      E0777AAD 
 430 146e 981C897A 		.ascii	"\230\034\211z\011\001\241s\2652\200\027\345k\222\017"
 430      0901A173 
 430      B5328017 
 430      E56B920F 
 431 147e 4248EFD0 		.ascii	"BH\357\320\027\3252\327Q?\022\266DI\220\241\230\227"
ARM GAS  /tmp/ccV4asm9.s 			page 34


 431      17D532D7 
 431      513F12B6 
 431      444990A1 
 431      9897
 432 1490 213F945A 		.ascii	"!?\224ZeHBmL\250\224\363RE\204\253<z\321\021\211\372"
 432      6548426D 
 432      4CA894F3 
 432      524584AB 
 432      3C7AD111 
 433 14a6 898C2591 		.ascii	"\211\214%\221\272Z\371\377\000\036\225\342y"
 433      BA5AF9FF 
 433      001E95E2 
 433      79
 434              		.text
 435              		.section	.gnu.lto_.symtab.d58d111acca16c92,"",%progbits
 436 0000 626D7032 		.ascii	"bmp280_init\000\000\000\000\000\000\000\000\000\000"
 436      38305F69 
 436      6E697400 
 436      00000000 
 436      00000000 
 437 0015 00001D02 		.ascii	"\000\000\035\002\000\000bmp280_stop\000\000\000\000"
 437      0000626D 
 437      70323830 
 437      5F73746F 
 437      70000000 
 438 002a 00000000 		.ascii	"\000\000\000\000\000\000\000\000F\002\000\000bmp280"
 438      00000000 
 438      46020000 
 438      626D7032 
 438      3830
 439 003c 5F726573 		.ascii	"_reset\000\000\000\000\000\000\000\000\000\000\000\000"
 439      65740000 
 439      00000000 
 439      00000000 
 439      0000
 440 004e 52020000 		.ascii	"R\002\000\000bmp280_readPressure\000\000\000\000\000"
 440      626D7032 
 440      38305F72 
 440      65616450 
 440      72657373 
 441 006a 00000000 		.ascii	"\000\000\000\000\000\000\000X\002\000\000bmp280_rea"
 441      00000058 
 441      02000062 
 441      6D703238 
 441      305F7265 
 442 007f 6454656D 		.ascii	"dTemperature\000\000\000\000\000\000\000\000\000\000"
 442      70657261 
 442      74757265 
 442      00000000 
 442      00000000 
 443 0095 00006102 		.ascii	"\000\000a\002\000\000I2CSensor_transact\000\000\002"
 443      00004932 
 443      4353656E 
 443      736F725F 
 443      7472616E 
 444 00b0 00000000 		.ascii	"\000\000\000\000\000\000\000\000\000g\002\000\000I2"
 444      00000000 
ARM GAS  /tmp/ccV4asm9.s 			page 35


 444      00670200 
 444      004932
 445 00bf 4353656E 		.ascii	"CSensor_init\000\000\002\000\000\000\000\000\000\000"
 445      736F725F 
 445      696E6974 
 445      00000200 
 445      00000000 
 446 00d5 00007002 		.ascii	"\000\000p\002\000\000I2CSensor_stop\000\000\002\000"
 446      00004932 
 446      4353656E 
 446      736F725F 
 446      73746F70 
 447 00ed 00000000 		.ascii	"\000\000\000\000\000\000\000\000{\002\000\000"
 447      00000000 
 447      7B020000 
 448              		.text
 449              		.section	.gnu.lto_.opts,"",%progbits
 450 0000 272D6D63 		.ascii	"'-mcpu=cortex-m4' '-mfloat-abi=hard' '-mfpu=fpv4-sp"
 450      70753D63 
 450      6F727465 
 450      782D6D34 
 450      2720272D 
 451 0033 2D643136 		.ascii	"-d16' '-mno-thumb-interwork' '-mthumb' '-O2' '-fomi"
 451      2720272D 
 451      6D6E6F2D 
 451      7468756D 
 451      622D696E 
 452 0066 742D6672 		.ascii	"t-frame-pointer' '-falign-functions=16' '-ffunction"
 452      616D652D 
 452      706F696E 
 452      74657227 
 452      20272D66 
 453 0099 2D736563 		.ascii	"-sections' '-fdata-sections' '-fno-common' '-flto' "
 453      74696F6E 
 453      73272027 
 453      2D666461 
 453      74612D73 
 454 00cc 272D6673 		.ascii	"'-fsingle-precision-constant'\000"
 454      696E676C 
 454      652D7072 
 454      65636973 
 454      696F6E2D 
 455              		.text
 456              		.section	.text.bmp280_init,"ax",%progbits
 457              		.align	2
 458              		.p2align 4,,15
 459              		.global	bmp280_init
 460              		.thumb
 461              		.thumb_func
 462              		.type	bmp280_init, %function
 463              	bmp280_init:
 464              		@ args = 0, pretend = 0, frame = 0
 465              		@ frame_needed = 0, uses_anonymous_args = 0
 466 0000 F0B5     		push	{r4, r5, r6, r7, lr}
 467 0002 0F4F     		ldr	r7, .L2
 468 0004 0F4B     		ldr	r3, .L2+4
 469 0006 97F800E0 		ldrb	lr, [r7]	@ zero_extendqisi2
ARM GAS  /tmp/ccV4asm9.s 			page 36


 470 000a 85B0     		sub	sp, sp, #20
 471 000c 00F15806 		add	r6, r0, #88
 472 0010 00F15C05 		add	r5, r0, #92
 473 0014 4FF0280C 		mov	ip, #40
 474 0018 0EF1010E 		add	lr, lr, #1
 475 001c 0293     		str	r3, [sp, #8]
 476 001e 8DE82010 		stmia	sp, {r5, ip}
 477 0022 3346     		mov	r3, r6
 478 0024 87F800E0 		strb	lr, [r7]
 479 0028 0446     		mov	r4, r0
 480 002a FFF7FEFF 		bl	I2CSensor_init
 481 002e 0222     		movs	r2, #2
 482 0030 3146     		mov	r1, r6
 483 0032 2B46     		mov	r3, r5
 484 0034 2046     		mov	r0, r4
 485 0036 0092     		str	r2, [sp]
 486 0038 FFF7FEFF 		bl	I2CSensor_transact
 487 003c 05B0     		add	sp, sp, #20
 488              		@ sp needed
 489 003e F0BD     		pop	{r4, r5, r6, r7, pc}
 490              	.L3:
 491              		.align	2
 492              	.L2:
 493 0040 00000000 		.word	.LANCHOR0
 494 0044 00000000 		.word	.LC0
 495              		.size	bmp280_init, .-bmp280_init
 496 0048 AFF30080 		.section	.text.bmp280_stop,"ax",%progbits
 496      AFF30080 
 497              		.align	2
 498              		.p2align 4,,15
 499              		.global	bmp280_stop
 500              		.thumb
 501              		.thumb_func
 502              		.type	bmp280_stop, %function
 503              	bmp280_stop:
 504              		@ args = 0, pretend = 0, frame = 0
 505              		@ frame_needed = 0, uses_anonymous_args = 0
 506              		@ link register save eliminated.
 507 0000 FFF7FEBF 		b	I2CSensor_stop
 508              		.size	bmp280_stop, .-bmp280_stop
 509 0004 AFF30080 		.section	.text.bmp280_reset,"ax",%progbits
 509      AFF30080 
 509      AFF30080 
 510              		.align	2
 511              		.p2align 4,,15
 512              		.global	bmp280_reset
 513              		.thumb
 514              		.thumb_func
 515              		.type	bmp280_reset, %function
 516              	bmp280_reset:
 517              		@ args = 0, pretend = 0, frame = 8
 518              		@ frame_needed = 0, uses_anonymous_args = 0
 519 0000 00B5     		push	{lr}
 520 0002 85B0     		sub	sp, sp, #20
 521 0004 04A9     		add	r1, sp, #16
 522 0006 E023     		movs	r3, #224
 523 0008 01F8013D 		strb	r3, [r1, #-1]!
ARM GAS  /tmp/ccV4asm9.s 			page 37


 524 000c 0023     		movs	r3, #0
 525 000e 0093     		str	r3, [sp]
 526 0010 0122     		movs	r2, #1
 527 0012 FFF7FEFF 		bl	I2CSensor_transact
 528 0016 05B0     		add	sp, sp, #20
 529              		@ sp needed
 530 0018 5DF804FB 		ldr	pc, [sp], #4
 531              		.size	bmp280_reset, .-bmp280_reset
 532 001c AFF30080 		.section	.text.bmp280_readPressure,"ax",%progbits
 533              		.align	2
 534              		.p2align 4,,15
 535              		.global	bmp280_readPressure
 536              		.thumb
 537              		.thumb_func
 538              		.type	bmp280_readPressure, %function
 539              	bmp280_readPressure:
 540              		@ args = 0, pretend = 0, frame = 0
 541              		@ frame_needed = 0, uses_anonymous_args = 0
 542              		@ link register save eliminated.
 543 0000 0020     		movs	r0, #0
 544 0002 7047     		bx	lr
 545              		.size	bmp280_readPressure, .-bmp280_readPressure
 546 0004 AFF30080 		.section	.text.bmp280_readTemperature,"ax",%progbits
 546      AFF30080 
 546      AFF30080 
 547              		.align	2
 548              		.p2align 4,,15
 549              		.global	bmp280_readTemperature
 550              		.thumb
 551              		.thumb_func
 552              		.type	bmp280_readTemperature, %function
 553              	bmp280_readTemperature:
 554              		@ args = 0, pretend = 0, frame = 0
 555              		@ frame_needed = 0, uses_anonymous_args = 0
 556              		@ link register save eliminated.
 557 0000 0020     		movs	r0, #0
 558 0002 7047     		bx	lr
 559              		.size	bmp280_readTemperature, .-bmp280_readTemperature
 560 0004 AFF30080 		.section	.rodata.str1.4,"aMS",%progbits,1
 560      AFF30080 
 560      AFF30080 
 561              		.align	2
 562              	.LC0:
 563 0000 424D5032 		.ascii	"BMP280\000"
 563      383000
 564 0007 00       		.section	.bss.sensCount,"aw",%nobits
 565              		.set	.LANCHOR0,. + 0
 566              		.type	sensCount, %object
 567              		.size	sensCount, 1
 568              	sensCount:
 569 0000 00       		.space	1
 570              		.comm	__gnu_lto_v1,1,1
 571              		.ident	"GCC: (GNU Tools for ARM Embedded Processors) 4.8.4 20140526 (release) [ARM/embedded-4_8-br
ARM GAS  /tmp/ccV4asm9.s 			page 38


DEFINED SYMBOLS
                            *ABS*:0000000000000000 bmp280.c
     /tmp/ccV4asm9.s:457    .text.bmp280_init:0000000000000000 $t
     /tmp/ccV4asm9.s:463    .text.bmp280_init:0000000000000000 bmp280_init
     /tmp/ccV4asm9.s:493    .text.bmp280_init:0000000000000040 $d
     /tmp/ccV4asm9.s:497    .text.bmp280_stop:0000000000000000 $t
     /tmp/ccV4asm9.s:503    .text.bmp280_stop:0000000000000000 bmp280_stop
     /tmp/ccV4asm9.s:510    .text.bmp280_reset:0000000000000000 $t
     /tmp/ccV4asm9.s:516    .text.bmp280_reset:0000000000000000 bmp280_reset
     /tmp/ccV4asm9.s:533    .text.bmp280_readPressure:0000000000000000 $t
     /tmp/ccV4asm9.s:539    .text.bmp280_readPressure:0000000000000000 bmp280_readPressure
     /tmp/ccV4asm9.s:547    .text.bmp280_readTemperature:0000000000000000 $t
     /tmp/ccV4asm9.s:553    .text.bmp280_readTemperature:0000000000000000 bmp280_readTemperature
     /tmp/ccV4asm9.s:561    .rodata.str1.4:0000000000000000 $d
     /tmp/ccV4asm9.s:568    .bss.sensCount:0000000000000000 sensCount
     /tmp/ccV4asm9.s:569    .bss.sensCount:0000000000000000 $d
                            *COM*:0000000000000001 __gnu_lto_v1
     /tmp/ccV4asm9.s:496    .text.bmp280_init:0000000000000048 $t

UNDEFINED SYMBOLS
I2CSensor_init
I2CSensor_transact
I2CSensor_stop
