ARM GAS  /tmp/ccqHMXUT.s 			page 1


   1              		.syntax unified
   2              		.cpu cortex-m4
   3              		.eabi_attribute 27, 3
   4              		.eabi_attribute 28, 1
   5              		.fpu fpv4-sp-d16
   6              		.eabi_attribute 20, 1
   7              		.eabi_attribute 21, 1
   8              		.eabi_attribute 23, 3
   9              		.eabi_attribute 24, 1
  10              		.eabi_attribute 25, 1
  11              		.eabi_attribute 26, 1
  12              		.eabi_attribute 30, 2
  13              		.eabi_attribute 34, 1
  14              		.eabi_attribute 18, 4
  15              		.thumb
  16              		.file	"bmp280.c"
  17              		.section	.gnu.lto_.jmpfuncs.e5aaa8c4cca818b6,"",%progbits
  18 0000 789C9590 		.ascii	"x\234\225\220=\012\302@\020\205\347'\272\261\363\004"
  18      3D0AC240 
  18      1085E727 
  18      BAB1F304 
  19 0010 2188858D 		.ascii	"!\210\205\215 Vbe\304%X$\206%\205\007\260\331\3026\215"
  19      20566265 
  19      C4255824 
  19      86258507 
  19      B0D9C236 
  20 0025 4D4A8F90 		.ascii	"MJ\217\220\306\263x/+\367\207@\024\203\272\315\314\316"
  20      C6B3782F 
  20      2BF78740 
  20      1483BACD 
  20      CCCE
  21 0037 FBE62DFB 		.ascii	"\373\346-\373\010\010>\235;\002\344\246\206\300\246"
  21      08083E9D 
  21      3B02E4A6 
  21      86C0A6
  22 0046 63366D65 		.ascii	"c6me*\000VV6KtD\215\266G&f\301\001h\264w7\247\026\260"
  22      2A005656 
  22      364B7444 
  22      8DB64726 
  22      66C10168 
  23 0060 EEE83A3E 		.ascii	"\356\350:>\231\375~\210\350\002\217\372Z\2175\006g\347"
  23      99FD7E88 
  23      E8028FFA 
  23      5A8F3506 
  23      67E7
  24 0072 0B6ED2D8 		.ascii	"\013n\322\330\311 \002\274\325\315F\343\320)o>\3305"
  24      C92002BC 
  24      D5CD46E3 
  24      D0296F3E 
  24      D835
  25 0084 FCE233FD 		.ascii	"\374\3423\375\321G\264\222\3733\332B\225\317\306\177"
  25      D147B492 
  25      FB33DA42 
  25      95CFC67F 
  26 0094 67D63516 		.ascii	"g\3265\026\021\244\3368t\310\220\311\357c\233\231\300"
  26      11A4DE38 
  26      74C890C9 
ARM GAS  /tmp/ccqHMXUT.s 			page 2


  26      EF639B99 
  26      C0
  27 00a5 BEC76CCA 		.ascii	"\276\307l\312&\302\227\204\373X#\217\376`a\262\315\212"
  27      26C29784 
  27      FB58238F 
  27      FE6061B2 
  27      CD8A
  28 00b7 E56AB18E 		.ascii	"\345j\261\216\245R\007\025+\231\354\366y\032\027\363"
  28      A5520715 
  28      2B99ECF6 
  28      791A17F3 
  29 00c7 22514926 		.ascii	"\"QI&K\251\372\220\262\203\010\217\300\023\017\355E"
  29      4BA9FA90 
  29      B283088F 
  29      C0130FED 
  29      45
  30 00d8 38       		.ascii	"8"
  31              		.text
  32              		.section	.gnu.lto_.inline.e5aaa8c4cca818b6,"",%progbits
  33 0000 789C9D52 		.ascii	"x\234\235R\261J\003A\020}3\273w{G\342%\001!\020\204"
  33      B14A0341 
  33      107D33BB 
  33      777B47E2 
  33      25012110 
  34 0015 C42AD888 		.ascii	"\304*\330\210UJ\311\027X\373\007j\347',\202\220\322"
  34      554AC917 
  34      58FB076A 
  34      E7272C82 
  34      90D2
  35 0027 D2F27A7F 		.ascii	"\322\362z\177@\260\271N\261\262\323\316\224W.\370\003"
  35      40B0B94E 
  35      B1B2D3CE 
  35      94572EF8 
  35      03
  36 0038 EEEC7A8B 		.ascii	"\356\354z\213\006\005\311-\354\314\274y\267\267\357"
  36      0605C92D 
  36      ECCCBC79 
  36      B7B7EF
  37 0047 E63118BF 		.ascii	"\3461\030\277=\317_p\001\335\333C \345\3654q\011Y\005"
  37      3DCF5F70 
  37      01DDDB43 
  37      20E5F534 
  37      71095905 
  38 005b A89B1359 		.ascii	"\250\233\023Y\252\037\010\204\375\003*\351\374\224."
  38      AA1F0884 
  38      FD032AE9 
  38      FC942E
  39 006a A814CE59 		.ascii	"\250\024\316Y\227\371\026\324:\013\241\215\301\305P"
  39      97F916D4 
  39      3A0BA18D 
  39      C1C550
  40 0079 C7606358 		.ascii	"\307`cXk\362\001cj\015\314j\316\360\311\220\241\356"
  40      6BF20163 
  40      6A0DCC6A 
  40      CEF0C990 
  40      A1EE
  41 008b C7434967 		.ascii	"\307CIg!\235\201_\006GR/C\275D\356\016/\245\266\024"
ARM GAS  /tmp/ccqHMXUT.s 			page 3


  41      219D815F 
  41      0647522F 
  41      43BD44EE 
  41      0E2FA5B6 
  42 00a0 004B8238 		.ascii	"\000K\2028\012\0203\262\325\334\262\274\344\342\256"
  42      0A1033B2 
  42      D5DCB2BC 
  42      E4E2AE
  43 00af 4243C786 		.ascii	"BC\307\206F\336<\2203\320\365\324\026\240+\343\033\262"
  43      46DE3C90 
  43      33D0F5D4 
  43      16A02BE3 
  43      1BB2
  44 00c1 CBB5790B 		.ascii	"\313\265y\013E\015\307^\014Vm\245\250h\216\223\"\363"
  44      450DC75E 
  44      0C566DA5 
  44      A8688E93 
  44      22F3
  45 00d3 B6D85424 		.ascii	"\266\330T$\"7\264\010\244\003\224A\273\273\277\024)"
  45      2237B408 
  45      A4039441 
  45      BBBBBF14 
  45      29
  46 00e4 3CE256EE 		.ascii	"<\342V\356$\267\342E\373^a\367\351\203\303\\\365N\230"
  46      24B7E245 
  46      FB5E61F7 
  46      E983C35C 
  46      F54E98
  47 00f7 A8C77BA2 		.ascii	"\250\307{\242/\225\252O2\336\254\"\250\327\342g}=\361"
  47      2F95AA4F 
  47      32DEAC22 
  47      A8D7E267 
  47      7D3DF1
  48 010a 16190126 		.ascii	"\026\031\001&:A\2267\012\314\240\373\3047\337\310\201"
  48      3A419637 
  48      0ACCA0FB 
  48      C437DFC8 
  48      81
  49 011b 2C0C8372 		.ascii	",\014\203r\324\365\323\217\001:K\211\351\252IG\360C"
  49      D4F5D38F 
  49      013A4B89 
  49      E9AA4947 
  49      F043
  50 012d 4A846034 		.ascii	"J\204`49!1\313\1773\361\011\240\010j\333"
  50      392131CB 
  50      7F33F109 
  50      A0086ADB 
  51              		.text
  52              		.section	.gnu.lto_.pureconst.e5aaa8c4cca818b6,"",%progbits
  53 0000 789C6362 		.ascii	"x\234cb`b\020d\200\000\016\006\011F)&)f)6\011v)\016"
  53      60621064 
  53      80000E06 
  53      09462926 
  53      29662936 
  54 0018 294E2900 		.ascii	")N)\000\011\342\001\016"
  54      09E2010E 
  55              		.text
ARM GAS  /tmp/ccqHMXUT.s 			page 4


  56              		.section	.gnu.lto_chprintf.e5aaa8c4cca818b6,"",%progbits
  57 0000 789C8550 		.ascii	"x\234\205P\315J\002Q\024>\337\0355uc\333v\342\0034\213"
  57      CD4A0251 
  57      143EDF1D 
  57      357563DB 
  57      76E20334 
  58 0015 22E80D7A 		.ascii	"\"\350\015z\000\203Z\3058\216z\011\035\321Q\260\026"
  58      00835AC5 
  58      388E7A09 
  58      1DD151B0 
  58      16
  59 0026 5EC1C245 		.ascii	"^\301\302E\013ig\021)\321:\244\027\030\202\332DI\273"
  59      0B696711 
  59      29D13AA4 
  59      171882DA 
  59      4449BB
  60 0039 162D2497 		.ascii	"\026-$\227\265h\321*\202\351\336\031\024\372\201\016"
  60      B568D12A 
  60      82E9DE19 
  60      14FA810E 
  61 0049 DC7B7EBE 		.ascii	"\334{~\276s\276\363\303\210\321OY\220o\010\2425\251"
  61      73BEF3C3 
  61      88D14F59 
  61      906F08A2 
  61      35A9
  62 005b A11158F7 		.ascii	"\241\021X\367\236\250\025e\2002\010\324dhnB\245\262"
  62      9EA81565 
  62      803208D4 
  62      64686E42 
  62      A5B2
  63 006d 140D84DB 		.ascii	"\024\015\204\333\035_O\036\321\023n\273/>=\017\340\220"
  63      1D5F4F1E 
  63      D1136EBB 
  63      2F3E3D0F 
  63      E090
  64 007f B42B2013 		.ascii	"\264+ \023\264!\035$}\305B\337\373\250Z\321uOon!\016"
  64      B4211D24 
  64      7DC542DF 
  64      FBA85AD1 
  64      754F6F6E 
  65 0095 45EBCDF3 		.ascii	"E\353\315\363\022\034\032\243\325\377\012/\230\373\354"
  65      121C1AA3 
  65      D5FF0A2F 
  65      98FBEC
  66 00a4 794FC3F7 		.ascii	"yO\303\367\203W\364XLC\021\024\222\037\"d\340\014)\225"
  66      8357F458 
  66      4C431114 
  66      921F2264 
  66      E00C2995 
  67 00b8 13A6B624 		.ascii	"\023\246\266$O\032\030H\177\0325\375\241\323\362W\233"
  67      4F1A1848 
  67      7F1A35FD 
  67      A1D3F257 
  67      9B
  68 00c9 AC8329AD 		.ascii	"\254\203)\255\215ho\3343\015\234#,\321]\372\020\035"
  68      8D686FDC 
  68      330D9C23 
ARM GAS  /tmp/ccqHMXUT.s 			page 5


  68      2CD15DFA 
  68      101D
  69 00db 31CF1132 		.ascii	"1\317\0212\341\247\313\310\016Gx\312\344g\251\2514\""
  69      E1A7CBC8 
  69      0E4778CA 
  69      E467A9A9 
  69      3422
  70 00ed 2E3BD288 		.ascii	".;\322\210\366\307G\223x\200\344\021\231\021\314\231"
  70      F6C74793 
  70      7880E411 
  70      9911CC99 
  71 00fd 088E9B87 		.ascii	"\010\216\233\207\226G( \340\210\252\222\366\370\370"
  71      96472820 
  71      E088AA92 
  71      F6F8F8
  72 010c 77C798A9 		.ascii	"w\307\230\251H\377\356\310\021'\272\243\253\027\026"
  72      48FFEEC8 
  72      1127BAA3 
  72      AB1716
  73 011b 04027099 		.ascii	"\004\002p\231.EG\235[\312\003\265\372'\332l\214\340"
  73      2E45479D 
  73      5BCA03B5 
  73      FA27DA6C 
  73      8CE0
  74 012d 5469B983 		.ascii	"Ti\271\203\334Q\315\261\244\027\354\242\245\233v\266"
  74      DC51CDB1 
  74      A417ECA2 
  74      A59B76B6 
  75 013d A167ADBA 		.ascii	"\241g\255\272n\026x\206\333U\335\251\324J\333\2724\352"
  75      6E167886 
  75      DB55DDA9 
  75      D44ADBBA 
  75      34EA
  76 014f 4685DBB5 		.ascii	"F\205\333\265\252\004\312\025^rr\213\005bF9\221\263"
  76      AA04CA15 
  76      5E72728B 
  76      05624639 
  76      91B3
  77 0161 2B45C371 		.ascii	"+E\303q\254\354V\246\341X\325/\251H\201#"
  77      ACEC56A6 
  77      E158D52F 
  77      A9488123 
  78              		.text
  79              		.section	.gnu.lto_bmp280_readPressure.part.0.e5aaa8c4cca818b6,"",%progbits
  80 0000 789C8D55 		.ascii	"x\234\215UKL\023Q\024}w~mi\013\224\177\313W\302\316"
  80      4B4C1351 
  80      147D777E 
  80      6D690B94 
  80      7FCB57C2 
  81 0015 1FB2301A 		.ascii	"\037\2620\032\267n1, \221eiH\323\005\201\264\200;;0"
  81      B76E312C 
  81      20916569 
  81      48D30581 
  81      B4803B3B 
  82 002a 2CAA89A4 		.ascii	",\252\211\244\013\215\212\232\000F\305\037\232\270Q"
  82      0B8D8A9A 
  82      0046C51F 
ARM GAS  /tmp/ccqHMXUT.s 			page 6


  82      9AB851
  83 0039 168A0B41 		.ascii	"\026\212\013A\026\032X\351\202\005+B\324\020\342\202"
  83      161A58E9 
  83      82052B42 
  83      D410E282 
  84 0049 AFB1DEFB 		.ascii	"\257\261\336\373f\336\264\323\244\261/\351}s\317}\367"
  84      66DEB4D3 
  84      A4B12FE9 
  84      7D73CF7D 
  84      F7
  85 005a DE73DEEB 		.ascii	"\336s\336\353\233\221\230\304\362\307\005\374u\272\030"
  85      9B9198C4 
  85      F2C705FC 
  85      75BA18
  86 0069 3B8B3368 		.ascii	";\2133h\014\324\364W|PA\342\263$\311SK\214\351%\312"
  86      0CD4F457 
  86      7C5041E2 
  86      B324C953 
  86      4B8CE925 
  87 007e AE8BE93E 		.ascii	"\256\213\351>\031\024\202\307\334\012\000=0`IU\222\025"
  87      191482C7 
  87      DC0A003D 
  87      30604955 
  87      9215
  88 0090 48F60215 		.ascii	"H\366\002\025S[\331\214\256\2477>\355\356\303\033}q"
  88      535BD98C 
  88      AEA7373E 
  88      EDEEC31B 
  88      7D71
  89 00a2 625AFF93 		.ascii	"bZ\377\223\311\000\304\000\033W\001\213\000\273\214"
  89      C900C400 
  89      1B57018B 
  89      00BB8C
  90 00b1 0EB4F049 		.ascii	"\016\264\360IR\234L\314\334\305\373\313\301\364XJ\317"
  90      529C4CCC 
  90      DCC5FBCB 
  90      C1F4584A 
  90      CF
  91 00c2 64923CAD 		.ascii	"d\222<\255\251\310\264)g\332\261\"\323n-\337\014\352"
  91      A9C8B429 
  91      67DAB122 
  91      D36E2DDF 
  91      0CEA
  92 00d4 D3E369FD 		.ascii	"\323\343i\375/\022\215\201,\261\266\"3\017\226n\344"
  92      2F128D81 
  92      2CB1B622 
  92      330F966E 
  92      E4
  93 00e5 662A126B 		.ascii	"f*\022k\377_\346+I\337\310d\336\035\271\333\000\006"
  93      FF5FE62B 
  93      49DFC864 
  93      DE1DB9DB 
  93      0006
  94 00f7 88650C54 		.ascii	"\210e\014T\031\215\246\220Q\311\325\350\311E\306M\306"
  94      198DA690 
  94      51C9D5E8 
  94      C945C64D 
ARM GAS  /tmp/ccqHMXUT.s 			page 7


  94      C6
  95 0108 43580919 		.ascii	"CX\011\031/\271>\026\206'\320\312\374\350\260Rtf\320"
  95      2FB93E16 
  95      8627D0CA 
  95      FCE8B052 
  95      7466D0
  96 011b 2943C755 		.ascii	")C\307UNH\200L\005\231J\214=\302X\025\305\252\011\251"
  96      4E48804C 
  96      05994A8C 
  96      3DC25815 
  96      C5AA09A9 
  97 012f 21538BF0 		.ascii	"!S\213\360C\204\353\310\011R,DO\365d\032\3104Z5\233"
  97      4384EBC8 
  97      09522C44 
  97      4FF5641A 
  97      C8345A35 
  98 0144 C8694692 		.ascii	"\310iF\222t\254*\233@\301-ax\212\021F\032qt\243\245"
  98      74AC2A9B 
  98      40C12D61 
  98      788A1146 
  98      1A7174A3 
  99 0159 BF4037A8 		.ascii	"\277@7\2504\313= \361\371\013\033_\377\376{K\265\223"
  99      34CB3D20 
  99      F1F90B1B 
  99      5FFFFE7B 
  99      4BB593
 100 016c 88AF49C6 		.ascii	"\210\257I\306\354m6`8?\307T\034Q\220N\262\0231p\037"
 100      EC6D3660 
 100      383FC754 
 100      1C51904E 
 100      B2133170 
 101 0181 67CF741C 		.ascii	"g\317t\034\267q\347<\367\330\324\230\256\227\307\240"
 101      B771E73C 
 101      F7D8D498 
 101      AE97C7A0 
 102 0191 240A407B 		.ascii	"$\012@{\351\345;\330\007\346N\022\242\345\354,v\335"
 102      E9E53BD8 
 102      07E64E12 
 102      A2E5EC2C 
 102      76DD
 103 01a3 3666E530 		.ascii	"6f\3450\274\300\232Q\220\261&\201\306K\033R\020\345"
 103      BCC09A51 
 103      90B12681 
 103      C64B1B52 
 103      10E5
 104 01b5 593E73F9 		.ascii	"Y>s\371\372jD\204TG\373\203b\333C^\373M\237(\250EI\231"
 104      FA6A4484 
 104      5447FB83 
 104      62DB435E 
 104      FB4D9F28 
 105 01cd A3BD0B51 		.ascii	"\243\275\013Q\236\245\360\345F\312X\260cn\316\316e\322"
 105      9EA5F0E5 
 105      46CA58B0 
 105      636ECECE 
 105      65D2
 106 01df 7A3D2860 		.ascii	"z=(`\217\203\3267\255HZR.-c\336\230-\025\0051\311\223"
 106      8F83D637 
ARM GAS  /tmp/ccqHMXUT.s 			page 8


 106      AD485A52 
 106      2E2D63DE 
 106      982D1505 
 107 01f6 C3617CDB 		.ascii	"\303a|\333f\340\305\240E\3531\010\320\307\231y\371\322"
 107      66E0C5A0 
 107      45EB3108 
 107      D0C79979 
 107      F9D2
 108 0208 39E3E764 		.ascii	"9\343\347d\257\010\3701\306W_3\256\012\2544\304\356"
 108      AF08F831 
 108      C6575F33 
 108      AE0AAC34 
 108      C4EE
 109 021a EA293D3D 		.ascii	"\352)==\207Tt1\350\342\323zS\331\376\356\226$\226\227"
 109      87547431 
 109      E8E2D37A 
 109      53D9FEEE 
 109      96249697 
 110 022e 716DB2A5 		.ascii	"qm\262\245\255'\006\276\202\322 +\315\355\330\3619c"
 110      AD2706BE 
 110      82D2202B 
 110      CDEDD8F1 
 110      3963
 111 0240 D3E65A8E 		.ascii	"\323\346Z\216%9\245\353\266\246\000\222\302\200\211"
 111      2539A5EB 
 111      B6A60092 
 111      C28089
 112 024f 1AF376EB 		.ascii	"\032\363v\353\012\216\007,<.\340J\214X\032\322t\243"
 112      0A8E072C 
 112      3C2EE04A 
 112      8C581AD2 
 112      74A3
 113 0261 F365981A 		.ascii	"\363e\230\032\356\354\255*\"\243\312\241!Y\244\006W"
 113      EEECAD2A 
 113      22A3CAA1 
 113      2159A406 
 113      57
 114 0272 9E86059B 		.ascii	"\236\206\005\233X5\226\314\323P\203\250 \225)@*WD-\327"
 114      583596CC 
 114      D35083A8 
 114      20952940 
 114      2A57442D 
 115 0287 56631DE5 		.ascii	"Vc\035\345\336d\247\010\324q\201\265\246\210\235\220"
 115      DE64A708 
 115      D47181B5 
 115      A6889D90 
 116 0297 80830E09 		.ascii	"\200\203\016\011kP\244\006-O\303{\233p\010k\346i\250"
 116      6B50A406 
 116      2D4FC37B 
 116      9B70086B 
 116      E669A8
 117 02aa 47D4D2B0 		.ascii	"G\324\322\260UPC\312\370a\357C\003\247[o\341\363\366"
 117      555043CA 
 117      F861EF43 
 117      03A75B6F 
 117      E1F3F6
 118 02bd 19377271 		.ascii	"\0317rq\015\034\177`\034M^\022\201&\214Y\035\272\262"
ARM GAS  /tmp/ccqHMXUT.s 			page 9


 118      0D1C7F60 
 118      1C4D5E12 
 118      81268C59 
 118      1DBAB2
 119 02d0 D50FB3C7 		.ascii	"\325\017\263\307\266\262c\335\001K\350y\214\024\324"
 119      B6B263DD 
 119      014BE879 
 119      8C14D4
 120 02df 69DE1FAC 		.ascii	"i\336\037\254\312\330g6\361\353\343\207e\277h\324L\353"
 120      CAD86736 
 120      F1EBE387 
 120      65BF68D4 
 120      4CEB
 121 02f1 FCB96FF4 		.ascii	"\374\271o\364\036\220\031~ \351\255\267\362\366p\337"
 121      1E90197E 
 121      20E9ADB7 
 121      F2F670DF 
 122 0301 D260D776 		.ascii	"\322`\327v\346\360\232f\226\302\337\225k\370%\315\326"
 122      E6F09A66 
 122      96C2DF95 
 122      6BF825CD 
 122      D6
 123 0312 EAC62D46 		.ascii	"\352\306-F\224\372\007.\306c\243\375\361\304\351\276"
 123      94FA072E 
 123      C663A3FD 
 123      F1C4E9BE 
 124 0322 81A18E73 		.ascii	"\201\241\216s\355\247\"\314\023\031\034\030\352\212"
 124      EDA722CC 
 124      13191C18 
 124      EA8A
 125 0330 F72712D2 		.ascii	"\367'\022\322h\2074z\306\033\017_\341\356H\274_K\014"
 125      6887347A 
 125      C61B0F5F 
 125      E1EE48BC 
 125      5F4B0C
 126 0343 87874712 		.ascii	"\207\207G\022\377\000 \345\271\253"
 126      FF0020E5 
 126      B9AB
 127              		.text
 128              		.section	.gnu.lto_bmp280_readTemperature.part.1.e5aaa8c4cca818b6,"",%progbits
 129 0000 789C8D55 		.ascii	"x\234\215U\313KTQ\030?\337\271\257\031\347\241\243\243"
 129      CB4B5451 
 129      183FDFB9 
 129      AF19E7A1 
 129      A3A3
 130 0012 E38C9A22 		.ascii	"\343\214\232\"-\202\336\256\212Z\366'\214P\313Qd\232"
 130      2D82DEAE 
 130      8A5AF627 
 130      8C50CB51 
 130      649A
 131 0024 85216ABA 		.ascii	"\205!j\272\313\243\327\300\204b\002\027j\024c\322h\003"
 131      CBA3D7C0 
 131      84620217 
 131      6A1463D2 
 131      6803
 132 0036 3D20C8C7 		.ascii	"= \310\307F\333T\012E-\003\027B\313B\314E\020D\267\357"
 132      46DB540A 
ARM GAS  /tmp/ccqHMXUT.s 			page 10


 132      452D0317 
 132      42CB42CC 
 132      451044B7 
 133 004b 3BF7310F 		.ascii	";\3671\017\230\232\003\367;\347\374\276\327\357\373"
 133      989A03F7 
 133      3BE7FCBE 
 133      D7EFFB
 134 005a CEB9F772 		.ascii	"\316\271\367r\306Y\345\270\204O\330`\354\004\316\240"
 134      C659E5B8 
 134      844FD860 
 134      EC04CEA0 
 135 006a 33D0B21F 		.ascii	"3\320\262\037q\241\001\2273\347\312\342[\306D\235\372"
 135      71A10197 
 135      33E7CAE2 
 135      5BC6449D 
 135      FA
 136 007b D36022A8 		.ascii	"\323`\"\250\200J\360\244O\005\240\005\0036\241qE\205"
 136      804AF0A4 
 136      4F05A005 
 136      0336A171 
 136      4585
 137 008d 896B40C1 		.ascii	"\211k@\301\324n\266$Dv\377v\376\027\274\022\333\323"
 137      D46EB624 
 137      4476FF76 
 137      FE17BC12 
 137      DBD3
 138 009f 39F1DBB2 		.ascii	"9\361\333\262\0002\200\211\243\300\372\201]\305\015"
 138      00328089 
 138      A3C0FA81 
 138      5DC50D
 139 00ae 74C989AB 		.ascii	"t\311\211\253\345Ll\337\355G\273\361\354\344\214\260"
 139      E54C6CDF 
 139      ED47BBF1 
 139      ECE48CB0 
 140 00be AC09E916 		.ascii	"\254\011\351\026\253\321maw..rSY\361\0073f@\341,Q\243"
 140      ABD16D61 
 140      772E2E72 
 140      5359F107 
 140      336640E1 
 141 00d5 A7F5EE6E 		.ascii	"\247\365\356n\251\247\312Y\367\377<_p\261oY\033\005"
 141      A9A7CA59 
 141      F7FF3C5F 
 141      70B16F59 
 141      1B05
 142 00e7 FF718041 		.ascii	"\377q\200Ab\231\001MA\241\253$4\332\352\2642H\370H\370"
 142      6299014D 
 142      41A1AB24 
 142      34DAEAB4 
 142      3248F848 
 143 00fc 09AB2311 		.ascii	"\011\253#\021\240m\220\245\340\011t\263\020nX\230D="
 143      A06D90A5 
 143      E00974B3 
 143      106E5898 
 143      443D
 144 010e 0AA38156 		.ascii	"\012\243\201V\021\022\215$\232\010\213\322\252\031\355"
 144      11128D24 
 144      9A088BD2 
ARM GAS  /tmp/ccqHMXUT.s 			page 11


 144      AA19ED
 145 011d 97D1BE85 		.ascii	"\227\321\276\20561\022\255$\342$\022d\325F\253v\264"
 145      363112AD 
 145      24E22412 
 145      64D546AB 
 145      76B4
 146 012f 5A42AB0E 		.ascii	"ZB\253\016\332\034#\321\211\364\350d46\215\245v\245"
 146      DA1C23D1 
 146      89F4E864 
 146      34368DA5 
 146      76A5
 147 0141 6005D58C 		.ascii	"`\005\325\214\252\303\221DI\247\230\004\215f\245\027"
 147      AAC39144 
 147      49A79804 
 147      8D66A517 
 148 0151 B89C3FB0 		.ascii	"\270\234?\260\251\275\371\345\035\315s\"\246v~;>\303"
 148      A9BDF9E5 
 148      1DCD7322 
 148      A6767E3B 
 148      3EC3
 149 0163 F9293AE1 		.ascii	"\371):\341H\003?\315Ne\300w\222\025\004\016<4\377\003"
 149      48033FCD 
 149      4E65C077 
 149      9215040E 
 149      3C34FF03 
 150 0177 B6382944 		.ascii	"\2668)DC\006\352\322\000\324\276\200lZ\037\330\315#"
 150      4306EAD2 
 150      00D4BE80 
 150      6C5A1FD8 
 150      CD23
 151 0189 442F6926 		.ascii	"D/i&\246;0\217x\012\012\0302\015\012\206$\320|\246\270"
 151      A63B308F 
 151      780A0A18 
 151      320D0A86 
 151      24D07CA6 
 152 019e 908AA8F4 		.ascii	"\220\212\250\364\012\332\346{\237\372\\\225V\226\375"
 152      0ADAE67B 
 152      9FFA5C95 
 152      5696FD
 153 01ad 07D4981E 		.ascii	"\007\324\230\036*\322\277\016\272\001\3654\025V\226"
 153      2AD2BF0E 
 153      BA01F534 
 153      155696
 154 01bc DE40547A 		.ascii	"\336@Tz\251\322\334\2341\013\236\316'\331\0316\255\227"
 154      A9D2DC9C 
 154      310B9ECE 
 154      27D91936 
 154      AD97
 155 01ce 375CD85F 		.ascii	"7\\\330_FkK\257\221\026/\245e>7\217Bn@t\362\227p\230"
 155      466B4BAF 
 155      91162FA5 
 155      653E378F 
 155      426E4074 
 156 01e6 3AF01804 		.ascii	":\360\030\004P\351\320\312\203\013\006%\263\2004]5\267"
 156      50E9D0CA 
 156      830B0625 
 156      B380345D 
ARM GAS  /tmp/ccqHMXUT.s 			page 12


 156      35B7
 157 01f8 E62EBB8A 		.ascii	"\346.\273\212\020\352\244\365\254\027 \214h\202-\210"
 157      10EAA4F5 
 157      AC17208C 
 157      68822D88 
 158 0208 19919DB7 		.ascii	"\031\221\235\267\360\025\300\327\335\035\364\346\272"
 158      F015C0D7 
 158      DD1DF4E6 
 158      BA
 159 0215 2D8FB9F6 		.ascii	"-\217\271\366\365\2626\305\251m\015m\202Uk\203j'\276"
 159      F5B236C5 
 159      A96D0D6D 
 159      82556B83 
 159      6A27BE
 160 0228 6AE63D02 		.ascii	"j\346=\002\015\030\263\202S\004Q\207\323z5N\346\035"
 160      0D18B382 
 160      53045187 
 160      D37A354E 
 160      E61D
 161 023a 73D3BB35 		.ascii	"s\323\2735\215\262\216\210\315\365\320\273\036Me\\\357"
 161      8DB28E88 
 161      CDF5D0BB 
 161      1E4D655C 
 161      EF
 162 024b EB357285 		.ascii	"\3535r\205\012\256\305nG1\246\315\325\274\345b\3152"
 162      0AAEC56E 
 162      4731A6CD 
 162      D5BCE562 
 162      CD32
 163 025d 7DD481BF 		.ascii	"}\324\201\277\316\335\363\254[\212\255\025U\313\230"
 163      CEDDF3AC 
 163      5B8AAD15 
 163      55CB98
 164 026c 2D39E658 		.ascii	"-9\346X\261\356\334?\352\316{\016\2552I\314\015\344"
 164      B1EEDC3F 
 164      EACE7B0E 
 164      AD3249CC 
 164      0DE4
 165 027e 658E4B55 		.ascii	"e\216KU\253\323\217q\027N\224\365c\303\250\261\037\274"
 165      ABD38F71 
 165      174E94F5 
 165      63C3A8B1 
 165      1FBC
 166 0290 A21F9B61 		.ascii	"\242\037\233a7`\033\306\254\354G\273L\337\346\\\312"
 166      37601BC6 
 166      ACEC47BB 
 166      4CDFE65C 
 166      CA
 167 02a1 6FC5CBD7 		.ascii	"o\305\313\327!{\325.\025\017\315\307\336\341\035C\225"
 167      217BD52E 
 167      150FCDC7 
 167      DEE11D43 
 167      95
 168 02b2 53F5F562 		.ascii	"S\365\365b\305\271\342\355\3339\014\330\266\016\361"
 168      C5B9E2ED 
 168      DB390CD8 
 168      B60EF1
ARM GAS  /tmp/ccqHMXUT.s 			page 13


 169 02c1 8BA8A9CA 		.ascii	"\213\250\251\312\333&\213Q\031{\317\246\277\277Y\333"
 169      DB268B51 
 169      197BCFA6 
 169      BFBF59DB 
 170 02d1 F5BAD549 		.ascii	"\365\272\325Iv\241\322/y/(\014\377p\364\315\333Y_\371"
 170      76A1D22F 
 170      792F280C 
 170      FF70F4CD 
 170      DB595FF9 
 171 02e5 E250F262 		.ascii	"\342P\362b\227\373\310\230\266\227*\277\224\237\361"
 171      97FBC898 
 171      B6972ABF 
 171      949FF1
 172 02f4 57588C95 		.ascii	"WX\214\225\304\226!J\371#W\2063c\003\303#g\373\006\207"
 172      C496214A 
 172      F9235786 
 172      336303C3 
 172      2367FB06 
 173 0309 7A2E9C3B 		.ascii	"z.\234;\323\317\370X\017\037;o\014\247\306\223\003\203"
 173      D3CFF858 
 173      0F1F3B6F 
 173      0CA7C693 
 173      0383
 174 031b 43FAC868 		.ascii	"C\372\310hj\364\346\310_Y{\245\032"
 174      6AF4E6C8 
 174      5F597BA5 
 174      1A
 175              		.text
 176              		.section	.gnu.lto_bmp280_init.e5aaa8c4cca818b6,"",%progbits
 177 0000 789CAD56 		.ascii	"x\234\255VkH\034W\024>gfwv\366\251\361\021\337\353\272"
 177      6B481C57 
 177      143E6766 
 177      7776F6A9 
 177      F111DFEB 
 178 0015 E023F195 		.ascii	"\340#\361\225\010\245\255\320\207\255RBIc\027\245\017"
 178      08A5ADD0 
 178      87AD5242 
 178      496317A5 
 178      0F
 179 0026 5AA8D986 		.ascii	"Z\250\331\206e~\230\266\321\344G\375\221\361\321\022"
 179      657E98B6 
 179      D1E447FD 
 179      91F1D112 
 180 0036 F223487F 		.ascii	"\362#H\177\031\223\224\204\020b_)\344\327\206\226V!"
 180      19939484 
 180      10625F29 
 180      E4D78696 
 180      5621
 181 0048 14431A4D 		.ascii	"\024C\032M\323\376\261H\263\004\232Hi\255\320\007\326"
 181      D3FEB148 
 181      B3049A48 
 181      69ADD007 
 181      D6
 182 0059 A6999E3B 		.ascii	"\246\231\236;\367\316\254\243+Qt\300{\357\334{\276\357"
 182      F7CEACA3 
 182      2B5174C0 
 182      7BEFDC7B 
ARM GAS  /tmp/ccqHMXUT.s 			page 14


 182      BEEF
 183 006b 9CFB9D73 		.ascii	"\234\373\235sf\225@\202\225\317\005\372\333\027\000"
 183      66954082 
 183      95CF05FA 
 183      DB1700
 184 007a 18A019B3 		.ascii	"\030\240\031\263\000\245\341)\200~UB\017_\310\222\353"
 184      00A5E129 
 184      807E5542 
 184      0F5FC892 
 184      EB
 185 008b CB4741F7 		.ascii	"\313GA\367\271\177\330\016z\300\205\012\337v[\013\205"
 185      B97FD80E 
 185      7AC0850A 
 185      DF765B0B 
 185      85
 186 009c 1B4EA81E 		.ascii	"\033N\250\036I\376\266\231\014\325\253\271d\250b\220"
 186      49FEB699 
 186      0CD5ABB9 
 186      64A86290 
 187 00ac 6DA357F2 		.ascii	"m\243W\362\231p\277\011\367a\200\243\374\326\"\300\355"
 187      9970BF09 
 187      F76180A3 
 187      FCD622C0 
 187      ED
 188 00bd 26D4A0E4 		.ascii	"&\324\240\344\035\373\006\31024\347!\313\020\"\333\007"
 188      1DFB06C8 
 188      3234E721 
 188      CB1022DB 
 188      07
 189 00ce 84A392EC 		.ascii	"\204\243\222\354r+\036\325\353\363\007\202!<\372\012"
 189      722B1ED5 
 189      EBF30782 
 189      213CFA0A 
 190 00de B2B05D51 		.ascii	"\262\260]Q8\247\353\037\244~\236:Qp<\245\017\353\017"
 190      38A7EB1F 
 190      A47E9E3A 
 190      51703CA5 
 190      0FEB0F
 191 00f1 0C0335A4 		.ascii	"\014\0035\244\013\346!\304\021^\246\027T\315IB\347\215"
 191      0BE621C4 
 191      115EA617 
 191      54CD4942 
 191      E78D
 192 0103 3952BF34 		.ascii	"9R\27746 \237\325\357\033\206l\302\"\031a\335\270\022"
 192      36209FD5 
 192      EF1B866C 
 192      C2221961 
 192      DDB812
 193 0116 377EFFB5 		.ascii	"7~\377\265\021}h\3340\236\322P\226\240n]\336\206\307"
 193      117D68DC 
 193      309ED250 
 193      96A06E5D 
 193      DE86C7
 194 0129 8D5F2791 		.ascii	"\215_'\221\234\366/\030F\226\206.\011\032\322\300\010"
 194      9CF62F18 
 194      4696862E 
 194      091AD2C0 
ARM GAS  /tmp/ccqHMXUT.s 			page 15


 194      08
 195 013a 07BA9CC0 		.ascii	"\007\272\234\300\317\245\361\224a\234\276x\363\311f"
 195      CFA5F194 
 195      619CBE78 
 195      F3C966
 196 0149 842EBC80 		.ascii	"\204.\274\200Q\212\222\317*\315\347h\366\322|\236f?"
 196      518A92CF 
 196      2ACDE768 
 196      F6D27C9E 
 196      663F
 197 015b 76230640 		.ascii	"v#\006@Cw\220\006%D\203'\213\366\244l\032\344\034zU"
 197      43779006 
 197      25448327 
 197      8BF6A46C 
 197      1AE41C7A 
 198 0170 73D99047 		.ascii	"s\331\220G\003\344\263\241\220\220\027\011Y\304^\212"
 198      03E4B3A1 
 198      90901709 
 198      59C45E8A 
 199 0180 D959091B 		.ascii	"\331Y\011\033J\331k\031[\205\331P!\374E\331v\245\200"
 199      4AD96B19 
 199      5B85D950 
 199      21FC45D9 
 199      76A580
 200 0193 54B1936A 		.ascii	"T\261\223j\266S\303V;\330\260\223\275\326\262U\035\033"
 200      B653C356 
 200      3BD8B093 
 200      BDD6B255 
 200      1D1B
 201 01a5 1A05AE49 		.ascii	"\032\005\256I\314\364\270a\210d\210\360wN\004L\000z"
 201      CCF4B861 
 201      886488F0 
 201      774E044C 
 201      007A
 202 01b7 3A68A49C 		.ascii	":h\244\234w\242D\223|\003\006\256-N\205\272\360#tC\002"
 202      77A24493 
 202      7C0306AE 
 202      2D4E85BA 
 202      F0237443 
 203 01cc D55330DA 		.ascii	"\325S0\332\257\353\331$v\037,\351\307\330\312\313\263"
 203      AFEBD924 
 203      761F2CE9 
 203      C7D8CACB 
 203      B3
 204 01dd C244F30A 		.ascii	"\302D\363\012\261n\300\3401\331\302x\011\306\016e4O"
 204      B16EC0E0 
 204      31D9C278 
 204      09C60E65 
 204      344F
 205 01ef 06F6F083 		.ascii	"\006\366\360\203\3650%\330L\220\245\301?f$\213/\320"
 205      F53025D8 
 205      4C90A5C1 
 205      3F66248B 
 205      2FD0
 206 0201 07EF92B6 		.ascii	"\007\357\222\266\265\360\261N\317;\032\372\210\212 "
 206      B5F0B14E 
 206      CF3B1AFA 
ARM GAS  /tmp/ccqHMXUT.s 			page 16


 206      888A20
 207 0210 FE04FA19 		.ascii	"\376\004\372\0314`B\367/O\274Iq\331\216(h2(\202\341"
 207      346042F7 
 207      2F4FBC49 
 207      71D98E28 
 207      68322882 
 208 0225 36618299 		.ascii	"6a\202\231)p\005\305\245\200E\0212)<\202\342\214\242"
 208      297005C5 
 208      A5804511 
 208      32293C82 
 208      E28CA2
 209 0238 612833C5 		.ascii	"a(3\305\262\026\237\206Q=\351\346\014\000\366\255\263"
 209      B2169F86 
 209      513DE9E6 
 209      0C00F6AD 
 209      B3
 210 0249 E2C20F5D 		.ascii	"\342\302\017]-\201Y\011\314\246\010\311\003c\311\256"
 210      2D815909 
 210      CCA608C9 
 210      0363C9AE 
 211 0259 31ED4674 		.ascii	"1\355Ft\375\037r\261-\014\217\234\321G\236\3260\007"
 211      FD1F72B1 
 211      2D0C8F9C 
 211      D1479ED6 
 211      3007
 212 026b 048D86B9 		.ascii	"\004\215\206\271\234\274\023eH\026\260|\315\017~r\307"
 212      9CBC1365 
 212      4816B07C 
 212      CD0F7E72 
 212      C7
 213 027c BE6A4E82 		.ascii	"\276jN\202\221;\362\221K\273\214[m\345\327\232\037\374"
 213      913BF291 
 213      4BBB8C5B 
 213      6DE5D79A 
 213      1FFC
 214 028e 05ADB3BC 		.ascii	"\005\255\263\274\004\343#\363\343\266y>\355\232\351"
 214      04E323F3 
 214      E3B6793E 
 214      ED9AE9
 215 029d 931CE9AB 		.ascii	"\223\034\351\253\207O\331\315_\247\003!\302\343\017"
 215      874FD9CD 
 215      5FA70321 
 215      C2E30F
 216 02ac 91D1F469 		.ascii	"\221\321\364i\213A\304L\221\367S\327\333-O\205\266$"
 216      8B41C44C 
 216      91F753D7 
 216      DB2D4F85 
 216      B624
 217 02be 7971A11B 		.ascii	"yq\241\033I\"JG\204\2401\330$\\\2757q\262\333\306\261"
 217      49224A47 
 217      84A031D8 
 217      245CBD37 
 217      71B2DBC6 
 218 02d3 B3EDCB9B 		.ascii	"\263\355\313\233\265\023]p+\233\2111\233\374\276\332"
 218      B5135D70 
 218      2B9B8931 
 218      9BFCBEDA 
ARM GAS  /tmp/ccqHMXUT.s 			page 17


 219 02e3 B22BAA87 		.ascii	"\262+\252\207\272t\270}\017I\231\031\256\263\000H)\273"
 219      BA74B87D 
 219      0F499919 
 219      AEB30048 
 219      29BB
 220 02f5 0A8B89CF 		.ascii	"\012\213\211\317T\3523[\251\022\3325Q*7\237\275Yn\035"
 220      54EA335B 
 220      A912DA35 
 220      512A379F 
 220      BD596E1D 
 221 0309 953A5CCF 		.ascii	"\225:\\\317\340z|\303\012\337_\331Y*#B\236\324\301\007"
 221      E07A7CC3 
 221      0ADF5FD9 
 221      592A2342 
 221      9ED4C107 
 222 031d 76406133 		.ascii	"v@a3\2002\323\370\332\202\337\221\245\2274,\020\276"
 222      8032D3F8 
 222      DA82DF91 
 222      A597342C 
 222      10BE
 223 032f 5FD4B030 		.ascii	"_\324\2600\263kY(\236cg(l\251\351\206\273\212<\015\357"
 223      B36B5928 
 223      9E636728 
 223      6CA9E986 
 223      BB8A3C0D 
 224 0344 A5A65F5D 		.ascii	"\245\246_]U\276Eq\201\344;\372\327DY\334\215.ah\225"
 224      55BE4571 
 224      81E43BFA 
 224      D74459DC 
 224      8D2E6168 
 225 0359 2FED9684 		.ascii	"/\355\226\204\341\011^\276\245\351\362-\263|(\274|\351"
 225      E1095EBE 
 225      A5E9F22D 
 225      B37C28BC 
 225      7CE9
 226 036b 4EE7EFD8 		.ascii	"N\347\357\330\227\252\240\362\265\277\035\334\316\003"
 226      97AAA0F2 
 226      B5BF1DDC 
 226      CE03
 227 0379 67CBE549 		.ascii	"g\313\345I\030\272\333\357\267\254\320\256O\376\314"
 227      18BADBEF 
 227      B7ACD0AE 
 227      4FFECC
 228 0388 00DF0190 		.ascii	"\000\337\001\220\306d\"Q&\335\014\251\262\017\032;m"
 228      C6642251 
 228      26DD0CA9 
 228      B20F1A3B 
 228      6D
 229 0399 12A79ED3 		.ascii	"\022\247\236\323\327\025v\340\005\372\255\343\276\177"
 229      D71576E0 
 229      05FAADE3 
 229      BE7F
 230 03a7 BF65A733 		.ascii	"\277e\2473\232@\3114<\341\374pm\276\362\243\274\362"
 230      9A40C934 
 230      3CE1FC70 
 230      6DBEF2A3 
 230      BCF2
ARM GAS  /tmp/ccqHMXUT.s 			page 18


 231 03b9 67EDCAAF 		.ascii	"g\355\312\257\334P\345\177aW~e\206\312\367\301\337\273"
 231      DC50E57F 
 231      61577E65 
 231      86CAF7C1 
 231      DFBB
 232 03cb F967E0DF 		.ascii	"\371g\340\337\037m\035\253\022\214\226\325\344B\256"
 232      1F6D1DAB 
 232      128C96D5 
 232      E442AE
 233 03da B557BD95 		.ascii	"\265W\275\225\355PC|+\332a\007\355\256\321\016;\267"
 233      ED50437C 
 233      2BDA6107 
 233      EDAED10E 
 233      3BB7
 234 03ec B41D6A89 		.ascii	"\264\035j\211pU;\324\231\001\324\256\243\035\302\231"
 234      70553BD4 
 234      9901D4AE 
 234      A31DC299 
 235 03fc 5DBB441A 		.ascii	"]\273D\032\252\354\264\325Y\022\373\341r\236\331\016"
 235      AAECB4D5 
 235      5912FBE1 
 235      729ED90E 
 236 040c 739B6C87 		.ascii	"s\233l\2077\326n\207@\272&\357\245\373\241\321\252\311"
 236      37D66E87 
 236      40BA26EF 
 236      A5FBA1D1 
 236      AAC9
 237 041e 743F0481 		.ascii	"t?\004\201\3763CgCp\233\264d3 %\260IE\"\010\360^\010"
 237      FE334367 
 237      43709BB4 
 237      64332025 
 237      B0494522 
 238 0436 891FF7E4 		.ascii	"\211\037\367\344\342h\201C\233\316t^vo\250\254M\227"
 238      E2688143 
 238      9BCE745E 
 238      766FA8AC 
 238      4D97
 239 0448 7F895649 		.ascii	"\177\211VI\216\234\332\034-:h#\300;\346\267#\253\364"
 239      8E9CDA1C 
 239      2D3A6823 
 239      C03BE6B7 
 239      23ABF4
 240 045b 5ED53012 		.ascii	"^\3250\022\210\356\326\370/\314Pj\336\267\012U\036\027"
 240      88EED6F8 
 240      2FCC506A 
 240      DEB70A55 
 240      1E17
 241 046d F9357F64 		.ascii	"\3715\177d\337$\333\210\210\373\303\255\224\343OK\216"
 241      DF24DB88 
 241      88FBC3AD 
 241      94E34F4B 
 241      8E
 242 047e E426699D 		.ascii	"\344&i\235r</\344X\332\260\034\024\313\225\305\237\362"
 242      723C2FE4 
 242      58DAB01C 
 242      14CB95C5 
 242      9FF2
ARM GAS  /tmp/ccqHMXUT.s 			page 19


 243 0490 392C1D40 		.ascii	"9,\035@E\346\000\334\346\\\014'uv/2\343\267\2712r\273"
 243      45E600DC 
 243      E65C0C27 
 243      75762F32 
 243      E3B7B932 
 244 04a6 609D0C4A 		.ascii	"`\235\014J\006\206\357\240?\365\237dE\316\237\016\272"
 244      0686EFA0 
 244      3FF59F64 
 244      45CE9F0E 
 244      BA
 245 04b7 EC9C8745 		.ascii	"\354\234\207E\276\255\365\220v\344\300\241\236\306\375"
 245      BEADF590 
 245      76E4C0A1 
 245      9EC6FD
 246 04c6 DD6F373D 		.ascii	"\335o7=\266\253!\016\376\236\003\007{\236}\353\360\301"
 246      B6AB210E 
 246      FE9E0307 
 246      7B9E7DEB 
 246      F0C1
 247 04d8 DE865DCB 		.ascii	"\336\206]\313\326M\250)=\275]\275\207{<\317\354m'S\210"
 247      D64DA829 
 247      3DBD5DBD 
 247      877B3CCF 
 247      EC6D2753 
 248 04ed F2B939D2 		.ascii	"\362\2719\322\026\213\355\213Ebm-\255{^x.\322Q\337\336"
 248      168BED8B 
 248      45626D2D 
 248      AD7B5E78 
 248      2ED251DF 
 249 0502 126BD9DB 		.ascii	"\022k\331\333\326\321\026[\313\244}\231\311\377k\367"
 249      D6D1165B 
 249      CBA47D99 
 249      C9FF6BF7 
 250 0512 CCCB     		.ascii	"\314\313"
 251              		.text
 252              		.section	.gnu.lto_bmp280_stop.e5aaa8c4cca818b6,"",%progbits
 253 0000 789C6362 		.ascii	"x\234cb`b@\007\222@|\025\210\205\201\230\221\231\201"
 253      60624007 
 253      92407C15 
 253      88858198 
 253      919981
 254 0013 9169C239 		.ascii	"\221i\3029\006\206F\016&FF\020\203\201\221\241\236\211"
 254      0686460E 
 254      26464610 
 254      838191A1 
 254      9E89
 255 0025 B13E9211 		.ascii	"\261>\222\021\254v=\323\201\007\377\377\257\233ulA?"
 255      AC763DD3 
 255      8107FFFF 
 255      AF9B756C 
 255      413F
 256 0037 23233B23 		.ascii	"##;#c.#\320\300LF\006\026 \213\221\015\310\002)cehi"
 256      632E23D0 
 256      C04C4606 
 256      16208B91 
 256      0DC80229 
 257 004f 6898A0C0 		.ascii	"h\230\240\300\300\220\014\326\024\002$A&\20522\201h"
ARM GAS  /tmp/ccqHMXUT.s 			page 20


 257      C0900CD6 
 257      14022441 
 257      26853232 
 257      8168
 258 0061 E6B30C4D 		.ascii	"\346\263\014M\277\232w\367X%2.ddeHgd\252f\250\002\032"
 258      BF9A77F7 
 258      5825322E 
 258      64646548 
 258      6764AA66 
 259 0078 A1CDB0AA 		.ascii	"\241\315\260\252\001\010\3523\031\231f3\314b\314ddN"
 259      0108EA33 
 259      19996633 
 259      CC62CC64 
 259      644E
 260 008a 67648C00 		.ascii	"gd\214\000\322,`\233\223\030\221\234|\236\241\365\000"
 260      D22C609B 
 260      9318919C 
 260      7C9EA1F5 
 260      00
 261 009b 2B4C3F5B 		.ascii	"+L?[5\303\257\206\216\006\201LF\326dF\210*\240\241\351"
 261      35C3AF86 
 261      8E06814C 
 261      46D66446 
 261      882AA0A1 
 262 00b0 8C2C9940 		.ascii	"\214,\231@\0271\\d`\204+\204h\016\001*\002\272\003\024"
 262      17315C64 
 262      60842B84 
 262      680E012A 
 262      02BA0314 
 263 00c4 10822E45 		.ascii	"\020\202.E\231e\251E\305\372I\271\005F\026\006z\311"
 263      9965A945 
 263      C5FA49B9 
 263      05461606 
 263      7AC9
 264 00d6 0C005233 		.ascii	"\014\000R35e"
 264      3565
 265              		.text
 266              		.section	.gnu.lto_bmp280_reset.e5aaa8c4cca818b6,"",%progbits
 267 0000 789C6D90 		.ascii	"x\234m\220;KCA\020\205\317\231\373H\354\014Vv\366\022"
 267      3B4B4341 
 267      1085CF99 
 267      FB48EC0C 
 267      5676F612 
 268 0014 5F58F803 		.ascii	"_X\370\003\254R'\240\245\271H\330\" \021,L\221\365\201"
 268      AC5227A0 
 268      A5B948D8 
 268      2220112C 
 268      4C91F581 
 269 0028 D8045206 		.ascii	"\330\004R\006-\324J\010bZ+Ieg\202\377 \265\225u\232"
 269      2DD44A08 
 269      625A2B49 
 269      656782FF 
 269      20B59575 
 270 003d 38736F8C 		.ascii	"8so\214 \016\354\314\354\356\331ovF \370k\313\272\266"
 270      200EECCC 
 270      ECEED96F 
 270      764620F8 
ARM GAS  /tmp/ccqHMXUT.s 			page 21


 270      6BCBBAB6 
 271 0051 092C6964 		.ascii	"\011,id\000Jg\010\234\345\205\264\004DK\330\332g\252"
 271      004A6708 
 271      9CE585B4 
 271      04444BD8 
 271      DA67AA
 272 0064 EDCB603C 		.ascii	"\355\313`<\235>\277\276\335\367\310\234\260N\204pD\254"
 272      9D3EBFBE 
 272      DDF7C89C 
 272      B04E8470 
 272      44AC
 273 0076 CE14112E 		.ascii	"\316\024\021.\275\357\254\000I\252/\2537H\205b1x\307"
 273      BDEFAC00 
 273      49AA2FAB 
 273      37488562 
 273      3178C7
 274 0089 F94BF7F3 		.ascii	"\371K\367\363K\016\370\300\010E<y\265\212\243\254\242"
 274      4B0EF8C0 
 274      08453C79 
 274      B58AA3AC 
 274      A2
 275 009a 67E9A663 		.ascii	"g\351\246cp\213\033:\2065\312\236\306(-[\315\252\303"
 275      708B1B3A 
 275      8635CA9E 
 275      C6282D5B 
 275      CDAAC3
 276 00ad 4EE2F9C7 		.ascii	"N\342\371\307m'c\273R\356\344\342\261]\312\2705\206"
 276      6D2763BB 
 276      52EEE4E2 
 276      B15DCAB8 
 276      3586
 277 00bf 4D9CEAAF 		.ascii	"M\234\352\257f\324;\325\345\376\307\362w\014#\\\015"
 277      66D43BD5 
 277      E5FEC7F2 
 277      770C235C 
 277      0D
 278 00d0 A21F40DC 		.ascii	"\242\037@\334\304\304_\373E\307|2\023)5-\310\254.\264"
 278      C4C45FFB 
 278      45C77C32 
 278      1329352D 
 278      C8AC2EB4 
 279 00e4 E305E003 		.ascii	"\343\005\340\003\234\277\3118e\325k\2576\347\302n\303"
 279      9CBFC938 
 279      65D56BAF 
 279      36E7C26E 
 279      C3
 280 00f5 9D1C368E 		.ascii	"\235\0346\216\327\253\365\243\255\235\215\265\004\337"
 280      D7ABF5A3 
 280      AD9D8DB5 
 280      04DF
 281 0103 D12F481D 		.ascii	"\321/H\035"
 282              		.text
 283              		.section	.gnu.lto_bmp280_readPressure.e5aaa8c4cca818b6,"",%progbits
 284 0000 789C6D90 		.ascii	"x\234m\220\315+\204Q\024\306\237\347\336;cf|DYI\323"
 284      CD2B8451 
 284      14C69FE7 
 284      DE3B6366 
ARM GAS  /tmp/ccqHMXUT.s 			page 22


 284      7C445949 
 285 0015 642B062B 		.ascii	"d+\006+\177\200\245\245)\2263\223\246w1\245\031,X\270"
 285      7F80A5A5 
 285      29963393 
 285      A67731A5 
 285      192C58B8 
 286 0029 18B2512C 		.ascii	"\030\262Q,\261!;)+\261\230\305(\305\006)\013+\315NI"
 286      B1213B29 
 286      2BB198C5 
 286      28C50629 
 286      0B2BCD4E 
 287 003e B15352AF 		.ascii	"\261SR\257s\347\035\343#\247\336\367\334{>~\347\271"
 287      73E71DE3 
 287      23A7DEF7 
 287      DC7B3E7E 
 287      E7B9
 288 0050 4741E1AF 		.ascii	"GA\341\257\015\312\367@\240K<C\240\332\270\006\026#"
 288      0DCAF740 
 288      A04B3C43 
 288      A0DAB806 
 288      1623
 289 0062 4AE9BB24 		.ascii	"J\351\273$l\314\224\343\260-\232\306\205iH\347A,(m\270"
 289      6CCC94E3 
 289      B02D9AC6 
 289      856948E7 
 289      412C286D 
 290 0077 30418760 		.ascii	"0A\207`\017\366\254\335\250\256\274\334s\313VJ\273\366"
 290      0FF6ACDD 
 290      A8AEBCDC 
 290      73CB564A 
 290      BBF6
 291 0089 C3F7498F 		.ascii	"\303\367I\2172\256\223\310\022\343ra\242\346\224\371"
 291      32AE93C8 
 291      12E37261 
 291      A2E694F9 
 292 0099 3DFF4855 		.ascii	"=\377HU\252\276_>)=\305c\212y\302\300\243\016#\315="
 292      AABE5F3E 
 292      293DC563 
 292      8A79C2C0 
 292      A30E23CD 
 293 00ae E14625E2 		.ascii	"\341F%\342f\204P\222\011\211 \010\207\024\033\223\277"
 293      66845092 
 293      09892008 
 293      87141B93 
 293      BF
 294 00bf 9393A272 		.ascii	"\223\223\242r^_a\351\364\376\345U\245\271//\351\303"
 294      5E5F61E9 
 294      F4FEE555 
 294      A5B92F2F 
 294      E9C3
 295 00d1 A1154B79 		.ascii	"\241\025Ky4\2758p\307A\217\241\035l\213\210p\216\312"
 295      34BD3870 
 295      C7418FA1 
 295      1D6C8B88 
 295      708ECA
 296 00e4 8969AA49 		.ascii	"\211i\252I\3100\220\342\"\221\2060w3o.%\334\367e\177"
 296      C83090E2 
ARM GAS  /tmp/ccqHMXUT.s 			page 23


 296      22918630 
 296      77336F2E 
 296      25DCF765 
 297 00f9 7D34E0E6 		.ascii	"}4\340\346h\3461'\032\353\324c\251\213\376\217\345\367"
 297      68E63127 
 297      1AEBD463 
 297      A98BFE8F 
 297      E5F7
 298 010b 336FB05A 		.ascii	"3o\260Z\351\376\002\204\347\361n\327l\273\307X\266^"
 298      E9FE0284 
 298      E7F16ED7 
 298      6CBBC758 
 298      B65E
 299 011d 24D4DAC0 		.ascii	"$\324\332\300`WF\313\022\232\201K\234?\236m^\350F\243"
 299      605746CB 
 299      129A814B 
 299      9C3F9E6D 
 299      5EE846A3 
 300 0131 4BB6FC5C 		.ascii	"K\266\374\\_\212\032wI}\203\225HP\0044\340\255Y\252"
 300      5F8A1A77 
 300      497D8395 
 300      48500434 
 300      E0AD59AA 
 301 0145 3A5CE518 		.ascii	":\\\345\030\365\330\366\325cj\373\272\305b\365y\237"
 301      F5D8F6D5 
 301      636AFBBA 
 301      C562F579 
 301      9F
 302 0156 0D78901D 		.ascii	"\015x\220\035\023E\222u\235\035#\005ov\262PLf\362SC"
 302      13459275 
 302      9D1D2305 
 302      6F76B250 
 302      4C66F253 
 303 016b C303FD59 		.ascii	"\303\003\375Y\204\213\323\351\351\231\342'\270\302u"
 303      848BD3E9 
 303      E999E227 
 303      B8C275
 304 017a FD       		.ascii	"\375"
 305              		.text
 306              		.section	.gnu.lto_bmp280_readTemperature.e5aaa8c4cca818b6,"",%progbits
 307 0000 789C6D90 		.ascii	"x\234m\220\315+\204Q\024\306\237\347\336;cf|DYI\222"
 307      CD2B8451 
 307      14C69FE7 
 307      DE3B6366 
 307      7C445949 
 308 0015 253158F9 		.ascii	"%1X\371\003,-g\212\345\2304\275\013%\203\005\013\027"
 308      032C2D67 
 308      8AE59834 
 308      BD0B2583 
 308      050B17
 309 0028 43961694 		.ascii	"C\226\026\224\217\215\217DRV\312B\031e!\205\224\205"
 309      8F8D8F44 
 309      5256CA42 
 309      19652185 
 309      9485
 310 003a 9566231B 		.ascii	"\225f#\033\033\333I\275\316\235w\214\217\234z\337s\357"
 310      1BDB49BD 
ARM GAS  /tmp/ccqHMXUT.s 			page 24


 310      CE9D778C 
 310      8F9C7ADF 
 310      73EF
 311 004c F9F89DE7 		.ascii	"\371\370\235\347\036\005\205\277\326#\3373\201&\361"
 311      1E0585BF 
 311      D623DF33 
 311      8126F1
 312 005b 0C816AE5 		.ascii	"\014\201j\345\016\230\213(\245\037\343\2601s\336\002"
 312      0E988B28 
 312      A51FE3B0 
 312      3173DE02 
 313 006b 5BA3695C 		.ascii	"[\243i\\\230\206t\036\304\254\322\206\263Ct\010\266"
 313      9886741E 
 313      C4ACD286 
 313      B3437408 
 313      B6
 314 007c 61C7DA95 		.ascii	"a\307\332\225\302\213\377\304\015\233\317m\333\017\337"
 314      C28BFFC4 
 314      0D9BCF6D 
 314      DB0FDF
 315 008b 273DCAB8 		.ascii	"'=\312\270F\"M\014\312\205\255%\247\314\357\371'*_\360"
 315      46224D0C 
 315      CA85AD25 
 315      A7CCEFF9 
 315      272A5FF0 
 316 009f FDB78BDC 		.ascii	"\375\267\213\334M{Lq\2240\360\250\303HqG\270Q\211\270"
 316      4D7B4C71 
 316      9430F0A8 
 316      C3487147 
 316      B85189B8 
 317 00b3 1921E464 		.ascii	"\031!\344dBk\020\204C\212%\344\357\344$\251\234\327"
 317      426B1084 
 317      438A25E4 
 317      EFE424A9 
 317      9CD7
 318 00c5 B7983F5B 		.ascii	"\267\230?[\337}W)\356\311K:ql\305\222\036M\007\216\334"
 318      DF7D5729 
 318      EEC94B3A 
 318      716CC592 
 318      1E4D078E 
 319 00da B1C76368 		.ascii	"\261\307ch\013\233\"\"\234\241rb\252J\022\206\031Hq"
 319      0B9B2222 
 319      9CA17262 
 319      AA4A1286 
 319      194871
 320 00ed 91484598 		.ascii	"\221HE\230\273\231\242K\011\267\270p\260:\020p343\230"
 320      BB99A24B 
 320      09B7B870 
 320      B03A1070 
 320      33343398 
 321 0101 168D65EA 		.ascii	"\026\215e\352\251\324E\377\307\362\373\231\367X\312"
 321      A9D445FF 
 321      C7F2FB99 
 321      F758CA
 322 0110 377F01C2 		.ascii	"7\177\001\3023(\332e[\3571\226.\027\011\26540\330\225"
 322      3328DA65 
 322      5BEF3196 
ARM GAS  /tmp/ccqHMXUT.s 			page 25


 322      2E1709B5 
 322      3430D895 
 323 0124 D1B2846A 		.ascii	"\321\262\204j\340\032W\257\227k7\272\322\350\2225?\327"
 323      E01A57AF 
 323      976B37BA 
 323      D2E89235 
 323      3FD7
 324 0136 97A4C663 		.ascii	"\227\244\306c\\\337c1\022\024\001\025xm\232\252\014"
 324      5CDF6331 
 324      12140115 
 324      786D9AAA 
 324      0C
 325 0147 5719463D 		.ascii	"W\031F=\326}\365\230\322\276\0360W8\334g\005\036d\023"
 325      D67DF598 
 325      D2BE1E30 
 325      5738DC67 
 325      051E6413 
 326 015b A248B2AE 		.ascii	"\242H\262\256\263\241\177\334\233\032\031\317\306\207"
 326      B3A17FDC 
 326      9B1A19CF 
 326      C687
 327 0169 47C77AFB 		.ascii	"G\307z\373\272\273\322\010g'R\023\223\331O\254\216u"
 327      BABBD208 
 327      67275213 
 327      93D94FAC 
 327      8E75
 328 017b 7C       		.ascii	"|"
 329              		.text
 330              		.section	.gnu.lto_.symbol_nodes.e5aaa8c4cca818b6,"",%progbits
 331 0000 789C4DCC 		.ascii	"x\234M\314=N\303@\030\204\341\371f\343$N\342\300\005"
 331      3D4EC340 
 331      1884E1F9 
 331      66E3244E 
 331      E2C005
 332 0013 22AE4585 		.ascii	"\"\256E\205\304\0318\300\030\033\210!? !A\003\024\244"
 332      C41938C0 
 332      181B8821 
 332      3F202141 
 332      0314A4
 333 0026 E21CEE73 		.ascii	"\342\034\356s\006\250h\322\322!\300k;\254\267y\365\314"
 333      06A868D2 
 333      D221C06B 
 333      3BACB779 
 333      F5CC
 334 0038 4A1F419C 		.ascii	"J\037A\234\031\232\307_\023p\267\005\244Uq\3125e-\237"
 334      199AC75F 
 334      1370B705 
 334      A45571CA 
 334      35652D9F 
 335 004c 0BE32DC5 		.ascii	"\013\343-\305\016\317)\327\362\245\260(\245\365\344"
 335      0ECF29D7 
 335      F2A5B028 
 335      A5F5E4
 336 005b A282D500 		.ascii	"\242\202\325\000fT/|2\247\242\016/\250~\207\227\324"
 336      66542F7C 
 336      32A7A20E 
 336      2FA87E87 
ARM GAS  /tmp/ccqHMXUT.s 			page 26


 336      97D4
 337 006d 20D096D4 		.ascii	" \320\226\324\260a\232\232-\2508\350\206\032\005\315"
 337      B0619A9A 
 337      2DA838E8 
 337      861A05CD 
 338 007d A971D035 		.ascii	"\251q\32055\011\272\242\222\240\0255\375\227\303\004"
 338      3509BAA2 
 338      92A01535 
 338      FD97C304 
 339 008d F9FB4FD5 		.ascii	"\371\373O\32516uG(}\335\001\312\017\337\004\371\374"
 339      31367547 
 339      287DDD01 
 339      CA0FDF04 
 339      F9FC
 340 009f FBC439E0 		.ascii	"\373\3049\340u\3619\363.\327\273\247\310\017\331\375"
 340      75F139F3 
 340      2ED7BBA7 
 340      C80FD9FD 
 341 00af D7B11F36 		.ascii	"\327\261\0376\017\273#\347\246(\353V~\254\332?l\016"
 341      0FBB23E7 
 341      A628EB56 
 341      7EACDA3F 
 341      6C0E
 342 00c1 0E92E6E0 		.ascii	"\016\222\346\340p_C\366\2665\027\267\216Y\033\177'c"
 342      705F43F6 
 342      B63517B7 
 342      8E591B7F 
 342      2763
 343 00d3 6DF6     		.ascii	"m\366"
 344              		.text
 345              		.section	.gnu.lto_.refs.e5aaa8c4cca818b6,"",%progbits
 346 0000 789C6362 		.ascii	"x\234cb`b\340f\200\000\026f\006\026F\026&V&V\006\000"
 346      6062E066 
 346      80001666 
 346      06164616 
 346      26562656 
 347 0016 01F7002E 		.ascii	"\001\367\000."
 348              		.text
 349              		.section	.gnu.lto_.decls.e5aaa8c4cca818b6,"",%progbits
 350 0000 789CBD5C 		.ascii	"x\234\275\\\013t\024E\272\356\307\314d\206\304\200\301"
 350      0B741445 
 350      BAEEC7CC 
 350      6486C480 
 350      C1
 351 0011 07B8DE75 		.ascii	"\007\270\336u\364\270w=\273+\201\300\"\336\335\253`"
 351      F4B8773D 
 351      BB2B81C0 
 351      22DEDDAB 
 351      60
 352 0022 02CA5951 		.ascii	"\002\312YQN\022\\=\347\356\035\233d\200\271\346\305"
 352      4E125C3D 
 352      E7EE1D9B 
 352      6480B9E6 
 352      C5
 353 0033 4C0761EF 		.ascii	"L\007a\357=\327&!\361\011F\302# \204\250\200(\210\""
 353      3DD72621 
 353      F10946C2 
ARM GAS  /tmp/ccqHMXUT.s 			page 27


 353      232084A8 
 353      80288822 
 354 0047 A084051C 		.ascii	"\240\204\005\034PC\024\004$\362\010\250\014\250\310"
 354      50431404 
 354      24F208A8 
 354      0CA8C8
 355 0056 43948791 		.ascii	"C\224\207\2217\271U\177u\317Tw\272{\252G\367\3669]]"
 355      37B9557F 
 355      75CF5477 
 355      BA7BAA47 
 355      F7F6395D 
 356 006b 5D53F5D5 		.ascii	"]S\365\325\377\377\365\327\377\327\253G\340\004\356"
 356      FFFFF5D7 
 356      FFD7AB47 
 356      E004EE
 357 007a 3F5C1CD7 		.ascii	"?\\\034\327\211\256\277\2079\356\373\014\216\363q\034"
 357      89AEBF87 
 357      39EEFB0C 
 357      8EF3711C 
 358 008a 7717BABB 		.ascii	"w\027\272\273\241\033\375\304\275\204\356\325\350NC"
 358      A11BFDC4 
 358      BD84EED5 
 358      E84E43
 359 0099 F70D02C7 		.ascii	"\367\015\002\307mE\367'\350\336\216\356\035\350\036"
 359      6D45F727 
 359      E8DE8EEE 
 359      1DE81E
 360 00a8 C891AB3B 		.ascii	"\310\221\253;\272w\242\367\357\320\235%r\334\257\320"
 360      BA77A2F7 
 360      EFD09D25 
 360      72DCAFD0 
 361 00b8 FD5B74F7 		.ascii	"\375[t\367G\367\235\350\036\202\356a\350\276\027\335"
 361      47F79DE8 
 361      1E82EE61 
 361      E8BE17DD 
 362 00c8 A3D0FD10 		.ascii	"\243\320\375\020\272\377\206n\011\335%\350F\305\270"
 362      BAFF866E 
 362      09DD25E8 
 362      46C5B8
 363 00d7 F1E81911 		.ascii	"\361\350\031\0219\335\2051\323\321\363~\224\236\211"
 363      39DD8531 
 363      D3D1F37E 
 363      949E89
 364 00e6 9E192A5D 		.ascii	"\236\031*]\225\350}\022\272'\240\373\357\350\276\017"
 364      95E87D12 
 364      BA27A0FB 
 364      EFE8BE0F 
 365 00f6 DDFF8DEE 		.ascii	"\335\377\215\356\377Q\313\273\324\262\243\324:\207\251"
 365      FF51CBBB 
 365      D4B2A3D4 
 365      3A87A9
 366 0105 757C8B82 		.ascii	"u|\213\202\243\202\276\016L3\306\356\303%\352\250\341"
 366      A382BE0E 
 366      4C33C6EE 
 366      C325EAA8 
 366      E1
 367 0116 39AE0ADD 		.ascii	"9\256\012\335\274\212\345Q\345\340E8'Q\376\0370\206"
ARM GAS  /tmp/ccqHMXUT.s 			page 28


 367      BC8AE551 
 367      E5E04538 
 367      2751FE1F 
 367      3086
 368 0128 48F8C755 		.ascii	"H\370\307U\246\241\240\023\245\235\027H\031\214\211"
 368      A6A1A013 
 368      A59D1748 
 368      198C89
 369 0137 B35C85D2 		.ascii	"\263\\\205\322\273\033x\312\022S\253\357\222\240\257"
 369      BB1B78CA 
 369      1253ABEF 
 369      92A0AF
 370 0146 EF227A3F 		.ascii	"\357\"z?\253\326\227\245\362w=z\3662\324\207\333\342"
 370      ABD697A5 
 370      F2773D7A 
 370      F632D487 
 370      DBE2
 371 0158 168EE4D3 		.ascii	"\026\216\344\323\352\303\330\270\276G\320o\377\213\356"
 371      EAC3D8B8 
 371      BE47D06F 
 371      FF8BEE
 372 0167 274452EF 		.ascii	"'DR\357u\002is\255N\227HhPD\242\003Z\273\217F\357\223"
 372      75026973 
 372      AD4E9748 
 372      685044A2 
 372      035ABB8F 
 373 017e D1FD5791 		.ascii	"\321\375W\221\320\212\351\307\364U\211z=iS\345T\215"
 373      D08AE9C7 
 373      F455897A 
 373      3D6953E5 
 373      548D
 374 0190 EEFF1409 		.ascii	"\356\377\024\011\317\030\247\003\245\213b\202\217N\225"
 374      CF18A703 
 374      A58B6282 
 374      8F4E95
 375 019f 172C3FB7 		.ascii	"\027,?\267J\263\244\352\011nG\254+8\035\353\307\315"
 375      4AB3A4EA 
 375      096E47AC 
 375      2B381DEB 
 375      C7CD
 376 01b1 981F74DF 		.ascii	"\230\037t\337*\022\235\241\257\337\252tb\2760\1774/"
 376      2A129DA1 
 376      AFDFAA74 
 376      62BE307F 
 376      342F
 377 01c3 53505AA9 		.ascii	"SPZ\251H\344\320\241\266\317o)\375\313F\317\276\006"
 377      48E4D0A1 
 377      B6CF6F29 
 377      FDCB46CF 
 377      BE06
 378 01d5 3CACBFDD 		.ascii	"<\254\277\335(<,7\027\325&Z\037\321d\001\354\212\011"
 378      283C2C37 
 378      17D5265A 
 378      1FD16401 
 378      EC8A09
 379 01e8 FCFE2A0F 		.ascii	"\374\376*\017\270\316;\014\330\270_tW\333Ak\027\\O\262"
 379      B8CE3B0C 
ARM GAS  /tmp/ccqHMXUT.s 			page 29


 379      D8B85F74 
 379      57DB416B 
 379      175C4FB2 
 380 01fc 3A40DEE8 		.ascii	":@\336\350yB\320\327'\252\230\270>M\377\356B\361\273"
 380      7942D0D7 
 380      27AA98B8 
 380      3E4DFFEE 
 380      42F1BB
 381 020f 0DF50EF9 		.ascii	"\015\365\016\371\031\365\326\242gO\261k\275C\324z5="
 381      19F5D6A2 
 381      674FB16B 
 381      BD43D47A 
 381      353D
 382 0221 CC45CF3C 		.ascii	"\314E\317<\243\336s/(\350\362\267\242J\037\346%>\323"
 382      A3DE732F 
 382      28E8F2B7 
 382      A24A1FE6 
 382      253ED3
 383 0234 C72902C4 		.ascii	"\307)\002\3042|\234\037e\370\015\267PQ\352b5\317\363"
 383      327C9C1F 
 383      65F80DB7 
 383      5051EA62 
 383      35CFF3
 384 0247 7E897F89 		.ascii	"~\211\177\211\317BH\275x\356w\334k\250T\235\242T\365"
 384      CF4248BD 
 384      78EE77DC 
 384      6BA8549D 
 384      A254F5
 385 025a E4BA5E49 		.ascii	"\344\272^IA\221\036\361\213\020\226\304/\344\177G\252"
 385      41911EF1 
 385      8B1096C4 
 385      2FE47F47 
 385      AA
 386 026b 50A2BB8A 		.ascii	"P\242\273\212\375$\225S\323M\256\233\271&Tg\264}U3\257"
 386      FD249553 
 386      D34DAE9B 
 386      B9265467 
 386      B47D5533 
 387 0280 D466A471 		.ascii	"\324f\244q\265\350M\211\325T\365jHT\345\325j\342\343"
 387      B5E84D89 
 387      D554F56A 
 387      4854E5D5 
 387      6AE2E3
 388 0293 E4473FF5 		.ascii	"\344G?\365\012\022\277\204OC\324\377\236\327\3013``"
 388      0A12BF84 
 388      4F43D4FF 
 388      9ED7C133 
 388      6060
 389 02a5 7A96A2B2 		.ascii	"z\226\242\262:j\233]\002I\265\241V\344\240\305\377\304"
 389      3A6A9B5D 
 389      0249B5A1 
 389      56E4A0C5 
 389      FFC4
 390 02b7 039ACB97 		.ascii	"\003\232\313\227H\312\213'\361T\306\341\361T\315\032"
 390      48CA8B27 
 390      F154C6E1 
 390      F154CD1A 
ARM GAS  /tmp/ccqHMXUT.s 			page 30


 391 02c7 E257DE97 		.ascii	"\342W\336\227\210t\362\272\012h\272$~\031\377\033\024"
 391      8874F2BA 
 391      0A68BA24 
 391      7E19FF1B 
 391      14
 392 02d8 BEC18BA6 		.ascii	"\276\301\213\246\305\004\356\001^\025\273\031\223j4"
 392      C504EE01 
 392      5E15BB19 
 392      936A34
 393 02e7 516DA6F6 		.ascii	"Qm\246\366\242\011}\377\217k\260\320}\334S \260EJ\022"
 393      A2097DFF 
 393      8F6BB0D0 
 393      7DDC5320 
 393      B0454A12 
 394 02fb A1C7DA6B 		.ascii	"\241\307\332k\337\370\275\242x%~5\2179\232\244\027<"
 394      DFF8BDA2 
 394      78257E35 
 394      8F399AA4 
 394      173C
 395 030d 3B4EFD33 		.ascii	";N\3753\215\203\000g\015\340\274\303\353\201TV)\241"
 395      8D830067 
 395      0DE0BCC3 
 395      EB815456 
 395      29A1
 396 031f A0772D43 		.ascii	"\240w-CR\001&\311+pQ\336\251\330\274\264\330b\037>;"
 396      520126C9 
 396      2B7051DE 
 396      A9D8BCB4 
 396      D8621F3E 
 397 0334 A3B7D2B4 		.ascii	"\243\267\322\264\211O\347\236\301\3746\325*\367\265"
 397      894FE79E 
 397      C1FC36D5 
 397      2AF7B5
 398 0343 669AF490 		.ascii	"f\232\364\220\250\250\201\015J\260\276b\333\256\305"
 398      A8A8810D 
 398      4AB0BE62 
 398      DBAEC5
 399 0352 7CB5A2A0 		.ascii	"|\265\242\240\0376@\337\233*\350\231O\012$\361Q^@\341"
 399      1F3640DF 
 399      9B2AE899 
 399      4F0A24F1 
 399      515E40E1 
 400 0366 4663773B 		.ascii	"Fcw;57Cq\221\364\344\035\356\374\276\306\353\225X\224"
 400      35374371 
 400      91F4E41D 
 400      EEFCBEC6 
 400      EB955894 
 401 037a 67EE71B1 		.ascii	"g\356q\261\003;\367\364\203F\373\000z\335\307BJ\335"
 401      033BF7F4 
 401      8346FB00 
 401      7ADDC742 
 401      4ADD
 402 038c 6EB3B1DB 		.ascii	"n\263\261\333}Z\333\035S\275\231\251\343\355\022\272"
 402      7D5ADB1D 
 402      53BD99A9 
 402      E3ED12BA 
 403 039c F6BC9860 		.ascii	"\366\274\230`\332\365\216\012\372\276\247&\237I$\213"
ARM GAS  /tmp/ccqHMXUT.s 			page 31


 403      DAF58E0A 
 403      FABEA726 
 403      9F49248B 
 404 03ac 54F26431 		.ascii	"T\362d1\236\354\242\222\237O$\273)\225\260\325\277\315"
 404      9EECA292 
 404      9F4F24BB 
 404      2995B0D5 
 404      BFCD
 405 03be 54076E85 		.ascii	"T\007n\205\016\374\221E\007\226\370\225\361\226L\251"
 405      0EFC9145 
 405      0796F895 
 405      F1964CA9 
 406 03ce 07C7564C 		.ascii	"\007\307VL\373\3720__\255\264\3665SF\224\205\247\324"
 406      FBFA305F 
 406      5FADB4F6 
 406      35534694 
 406      85A7D4
 407 03e1 E8510D30 		.ascii	"\350Q\0150#\336\250\321\365\373x\277\211\306\351\262"
 407      23DEA8D1 
 407      F5FB78BF 
 407      89C6E9B2 
 408 03f1 4AFC5EC4 		.ascii	"J\374^\304F\262\\8\337>\243J\316\337\007*\271\217I%"
 408      46B25C38 
 408      DF3EA34A 
 408      CEDF072A 
 408      B98F4925 
 409 0405 57EC9BE9 		.ascii	"W\354\233\351L%\243\247\366`\037\366\005\350\343\\1"
 409      4C25A3A7 
 409      F6601FF6 
 409      05E8E35C 
 409      31
 410 0416 257D8C19 		.ascii	"%}\214\031\365\261}6\350c\214I\037\027\213\224\356\251"
 410      F5B17D36 
 410      E8638C49 
 410      1F178B94 
 410      EEA9
 411 0428 692B4453 		.ascii	"i+DS\305\373P\324+\036\213*\305(U:\010\252t\310\322"
 411      C5FB50D4 
 411      2B1E8B2A 
 411      C528553A 
 411      08AA74C8 
 412 043d 17EC01FE 		.ascii	"\027\354\001\376\367\245\354\014V\356\233\011VM\265"
 412      F7A5EC0C 
 412      56EE9B09 
 412      564DB5
 413 044c E24491E2 		.ascii	"\342D\221\342y\375\032\202\213\243\274\301\207\033\371"
 413      79FD1A82 
 413      8BA3BCC1 
 413      871BF9
 414 045b 2A3065C7 		.ascii	"*0e\307\300\216\037\020M\035\002\003T\3753\353\356\004"
 414      C08E1F10 
 414      4D1D0203 
 414      54FD33EB 
 414      EE04
 415 046d DB720280 		.ascii	"\333r\002\200\216\210F\207\220fp\010iz#\237\346KD\360"
 415      8E884687 
 415      90667008 
ARM GAS  /tmp/ccqHMXUT.s 			page 32


 415      697A239F 
 415      E64B44F0 
 416 0481 44AB3BE7 		.ascii	"D\253;\3474;\262\014F\001\352\0105\023\240\237\026 "
 416      343BB20C 
 416      4601EA08 
 416      3513A09F 
 416      1620
 417 0493 EA8BDBDE 		.ascii	"\352\213\333\336\341OW)\015}\331\025\270~\037V\340\323"
 417      E14F5729 
 417      0D7DD915 
 417      B87E1F56 
 417      E0D3
 418 04a5 A0C09DA9 		.ascii	"\240\300\235\251)p\207Q\201/\022\005\356`R\340i\256"
 418      29708751 
 418      812F1205 
 418      EE6052E0 
 418      69AE
 419 04b7 AE0A3CDF 		.ascii	"\256\012<\337e\252\300o\272\234+p\007\245\300?\201\002"
 419      65AAC06F 
 419      BA9C2B70 
 419      07A5C03F 
 419      8102
 420 04c9 9FB554E0 		.ascii	"\237\265T\340\017\\\014\012\3545Q`\252>R\323~\250\351"
 420      0F5C0C0A 
 420      EC355160 
 420      AA3E52D3 
 420      7EA8E9
 421 04dc 73FE6614 		.ascii	"s\376f\024\036\205\360\024\012\343\227\300mw\031\365"
 421      1E85F014 
 421      0AE397C0 
 421      6D7719F5 
 422 04ec 8B58280A 		.ascii	"\213X(\012)a\3128;,3U\301\005v\363\351\211\352\332\241"
 422      2961CA38 
 422      3B2C3355 
 422      C10576F3 
 422      E989EADA 
 423 0501 BA8DA96A 		.ascii	"\272\215\251jVt\316\376Fg]3\372\336\354k\261\016L\026"
 423      5674CEFE 
 423      46675D33 
 423      FADEEC6B 
 423      B10E4C16 
 424 0515 7013C6BA 		.ascii	"p\023\306\272p{\3148\276b\351\037\307Y\2700k\037\340"
 424      707BCC38 
 424      BE62E91F 
 424      C759B830 
 424      6B1FE0
 425 0528 4289AEDC 		.ascii	"B\211\256\334\337\310c.\314\346\022\274V\276G\234\207"
 425      DFC8632E 
 425      CCE612BC 
 425      56BE479C 
 425      87
 426 0539 D8AE6F8F 		.ascii	"\330\256o\217\034V\315K\255\200GJ\213\335IGJz \201["
 426      1C56CD4B 
 426      AD80474A 
 426      8BDD4947 
 426      4A7A2081 
 427 054e 0E459E16 		.ascii	"\016E\236\026\014n\251C\362\223\324dNI\211\236\375\306"
ARM GAS  /tmp/ccqHMXUT.s 			page 33


 427      0C6EA943 
 427      F293D464 
 427      4E49899E 
 427      FDC6
 428 0560 A74CCF30 		.ascii	"\247L\3170\251j0\315\262f\021\217\307z\177\244(=$~*"
 428      A96A30CD 
 428      B266118F 
 428      C77A7FA4 
 428      283D247E 
 429 0575 507CC29C 		.ascii	"P|\302\234\342\246\301V8\002w\031\212\324\031(\216\255"
 429      E2A6C156 
 429      38027719 
 429      8AD41928 
 429      8EAD
 430 0587 3FDD7A43 		.ascii	"?\335zC\003 \3271\220]\025\335U;\237i\214\332\344\322"
 430      0320D731 
 430      905D15DD 
 430      553B9F69 
 430      8CDAE4D2 
 431 059b AACF4BB0 		.ascii	"\252\317K\260\261\367x\264\027X\343\231\300\305\373"
 431      B1F778B4 
 431      1758E399 
 431      C0C5FB
 432 05aa 9EA472D7 		.ascii	"\236\244r\327\303\010\334V(\322\320\225\213\330\257"
 432      C308DC56 
 432      28D2D095 
 432      8BD8AF
 433 05b9 08170D4C 		.ascii	"\010\027\015L\\\\T\271\220\370\031B:\202\335\035\207"
 433      5C5C54B9 
 433      90F81942 
 433      3A82DD1D 
 433      87
 434 05ca 65ED487A 		.ascii	"e\355Hz\274+-\031u\222\006\366\205c0\277\016\254~\363"
 434      BC2B2D19 
 434      759206F6 
 434      856330BF 
 434      0EAC7EF3 
 435 05de 3C870E73 		.ascii	"<\207\016s\316\331#\275\327\003\373M\3201\337H\373E"
 435      CED923BD 
 435      D703FB4D 
 435      D031DF48 
 435      FB45
 436 05f0 3AE6EA34 		.ascii	":\346\3524\006F\254;&j\225\03576\277\255(O{4\375\364"
 436      0646AC3B 
 436      266A951D 
 436      3736BFAD 
 436      284F7B34 
 437 0606 58312270 		.ascii	"X1\"p\353\240\262E\306\226\235se\307\355\244e\0271\265"
 437      EBA0B245 
 437      C6969D73 
 437      65C7EDA4 
 437      651731B5 
 438 061a ECBB5B66 		.ascii	"\354\273[f\263\351\247G\253\276\030\252\277\002\325"
 438      B3E9A747 
 438      ABBE18AA 
 438      BF02D5
 439 0629 BF6EAC7E 		.ascii	"\277n\254~\365\313G\357\"\325\277\316T\375\201\355&"
ARM GAS  /tmp/ccqHMXUT.s 			page 34


 439      F5CB47EF 
 439      22D5BFCE 
 439      54FD81ED 
 439      26
 440 063a 533889BF 		.ascii	"S8\211\277\353Z\333\346\273r\362\266\005P\311rP\240"
 440      EB5ADBE6 
 440      BB72F2B6 
 440      0550C972 
 440      50A0
 441 064c 56AFB1F9 		.ascii	"V\257\261\371\356N\247\353\202w*\203\300}\352\325\250"
 441      EE4EA7EB 
 441      82772A83 
 441      C07DEAD5 
 441      A8
 442 065d 4F497F11 		.ascii	"OI\177\021\233\033\357~\015ZJ\243a\227cD\275\022\237"
 442      9B1BEF7E 
 442      0D5A4AA3 
 442      61976344 
 442      BD129F
 443 0670 DE0E3D82 		.ascii	"\336\016=\202\200\265\263\200Y*RU\364G\032\354\013\307"
 443      80B5B380 
 443      592A5255 
 443      F4471AEC 
 443      0BC7
 444 0682 607ACA7E 		.ascii	"`z\312~\242\301\016\262\200\365\260\246\354\034\015"
 444      A2C10EB2 
 444      80F5B0A6 
 444      EC1C0D
 445 0691 F68D6330 		.ascii	"\366\215c0=e\027h\260\243,`\275\254)\273D\203\235p\014"
 445      3D651768 
 445      B0A32C60 
 445      BDAC29BB 
 445      44839D70 
 446 06a6 A6A7EC0A 		.ascii	"\246\247\354\012\015v\212\005\314oMY\335N\012\254\303"
 446      0D768A05 
 446      CC6F4D59 
 446      DD4E0AAC 
 446      C3
 447 06b7 31989EB2 		.ascii	"1\230\236\262\3514\330y\026\260\333\254)\233A\203]v"
 447      E934D879 
 447      16B0DBAC 
 447      299B4183 
 447      5D76
 448 06c9 0CA6A76C 		.ascii	"\014\246\247l\026\0156\331\307\000\326\327\232\262\006"
 448      160D36D9 
 448      C700D6D7 
 448      9AB206
 449 06d8 1AACC631 		.ascii	"\032\254\3061\230\236\262\2714\330\323,`\203\254)\233"
 449      989EB2B9 
 449      34D8D32C 
 449      6083AC29 
 449      9B
 450 06e9 47834D75 		.ascii	"G\203Mu\014\246\247\354-\032\354\005\026\260\301\326"
 450      0CA6A7EC 
 450      2D1AEC05 
 450      16B0C1D6 
 451 06f9 94BD4D83 		.ascii	"\224\275M\203\315p\014\246\247l\025\0156\233\005\354"
ARM GAS  /tmp/ccqHMXUT.s 			page 35


 451      CD700CA6 
 451      A76C150D 
 451      369B05EC 
 452 0709 3E6BCADE 		.ascii	">k\312\336\241\301\346:\006\323S\266\206\006\233\317"
 452      A1C1E63A 
 452      06D353B6 
 452      86069BCF 
 453 0719 0236D29A 		.ascii	"\0026\322\232\262\2654X\223c0=e\353h\260WX\300\036\266"
 453      B2B53458 
 453      9363303D 
 453      65EB68B0 
 453      5758C01E 
 454 072e A66C030D 		.ascii	"\246l\003\015\366\252c0=e;h\260\245,`\217\232P\026\277"
 454      F6AA6330 
 454      3D653B68 
 454      B0A52C60 
 454      8F9A5016 
 455 0743 CCCA6137 		.ascii	"\314\312a7\375\232@M\326\226\373\264\001\216C\037\315"
 455      FD9A404D 
 455      D696FBB4 
 455      018E431F 
 455      CD
 456 0754 2530DEF6 		.ascii	"%0\336\3669\035\221\351\370\306\343\344\033\327\252"
 456      391D91E9 
 456      F8C6E3E4 
 456      1BD7AA
 457 0763 7E9E0C56 		.ascii	"~\236\014V\327\260 \3328\300\271\233\251\221o\3241\230"
 457      D7B020DA 
 457      38C0B99B 
 457      A9916FD4 
 457      3198
 458 0775 41953198 		.ascii	"A\2251\230n\350\024_\372\217\332\257x\340\015&\201\332"
 458      6EE8145F 
 458      FA8FDAAF 
 458      78E00D26 
 458      81DA
 459 0787 27E8659E 		.ascii	"'\350e\236W\342\217\013x\012\377\235\340\213SA\342Z"
 459      57E28F0B 
 459      780AFF9D 
 459      E08B5341 
 459      E25A
 460 0799 8C2C19B4 		.ascii	"\214,\031\264\372\364\013\016\361+YQ+M8Jk\302',b\262"
 460      FAF40B0E 
 460      F12B5951 
 460      2B4D384A 
 460      6BC2272C 
 461 07af 71ED0736 		.ascii	"q\355\0076\317\203\365L\366}\2219gw\250\023\204\223"
 461      CF83F54C 
 461      F67D9139 
 461      6777A813 
 461      8493
 462 07c1 3041F8CC 		.ascii	"0A\370\314g\034a\256v\2703\202\306aF"
 462      671C61AE 
 462      76B83382 
 462      C66146
 463 07d0 2ECC9655 		.ascii	".\314\226U\254\307\024H\027\367\336\324\274\\Q\252="
 463      ACC71448 
ARM GAS  /tmp/ccqHMXUT.s 			page 36


 463      17F7DED4 
 463      BC5C51AA 
 463      3D
 464 07e1 4EF86855 		.ascii	"N\370hU\371\350\000>\276\371\005\3708\341\230\217\333"
 464      F9E8003E 
 464      BEF905F8 
 464      38E1988F 
 464      DB
 465 07f2 0C7C446F 		.ascii	"\014|Dos\316\307^\225\217\013\300G\307/\300\307e\307"
 465      73CEC75E 
 465      958F0BC0 
 465      47C72FC0 
 465      C765C7
 466 0805 7CF4A5F8 		.ascii	"|\364\245\370\200\331Z\0372[\353\311M\267\237\255az"
 466      80D95A1F 
 466      325BEBC9 
 466      4DB79FAD 
 466      617A
 467 0817 3A859E86 		.ascii	":\205\236\206\365\355\217\361\222#NfX\374\370\230\232"
 467      F5ED8FF1 
 467      92234E66 
 467      58FCF898 
 467      9A
 468 0828 E22A6C53 		.ascii	"\342*lS\334\223\252\304\252D,\261)\335L\226\204\231"
 468      DC93AAC4 
 468      AA442CB1 
 468      29DD4C96 
 468      8499
 469 083a 90DA5B3E 		.ascii	"\220\332[>X\241.\377\324\000\3243)C\325\177\374.\331"
 469      58A12EFF 
 469      D400D433 
 469      2943D57F 
 469      FC2ED9
 470 084d 6E7C0A80 		.ascii	"n|\012\200\246w3\266\242\307\320\210\036}#\242W\\\323"
 470      A67733B6 
 470      A2C7D088 
 470      1E7D23A2 
 470      575CD3
 471 0860 393CE3E6 		.ascii	"9<\343\346\237PS\360K\032\367\377^N\340\346\001\371"
 471      9F5053F0 
 471      4B1AF7FF 
 471      5E4EE0E6 
 471      01F9
 472 0872 B8011D3A 		.ascii	"\270\001\035:\250\204\002\375\241Yu.\244\221^\371Y\210"
 472      A88402FD 
 472      A159752E 
 472      A4915EF9 
 472      5988
 473 0884 55D195CF 		.ascii	"U\321\225\317j\3134wc\367\262\354g\302}\272\305\371"
 473      6ACB3477 
 473      63F7B2EC 
 473      67C27DBA 
 473      C5F9
 474 0896 C24AF406 		.ascii	"\302J\364\006\242u/\000C+\273\264pJ\013+\357\245\312"
 474      A2752F00 
 474      432BBBB4 
 474      704A0B2B 
ARM GAS  /tmp/ccqHMXUT.s 			page 37


 474      EFA5CA
 475 08a9 48FC12B8 		.ascii	"H\374\022\270\226n\014N\304o\327Z\347\3720.\316\304"
 475      966E0C4E 
 475      C46FD75A 
 475      E7FA302E 
 475      CEC4
 476 08bb 17218FF4 		.ascii	"\027!\217\364j\005a\314\026\361\362\335\307\006a0,\362"
 476      6A0561CC 
 476      16F1F2DD 
 476      C7066130 
 476      2CF2
 477 08cd B44391B9 		.ascii	"\264C\221\271b\227\345\273\035\275\311*\013\376\211"
 477      6297E5BB 
 477      1DBDC92A 
 477      0BFE89
 478 08dc 619147B7 		.ascii	"a\221G\267|'\361\363\004A\205MU\236\272&L\320\207\240"
 478      7C27F1F3 
 478      0441854D 
 478      559EBA26 
 478      4CD087A0 
 479 08f0 453C5E98 		.ascii	"E<^\230/\352\226\371\217:\226\275\237\226}\364\342\226"
 479      2FEA96F9 
 479      8F3A96BD 
 479      9F967DF4 
 479      E296
 480 0902 793CA19F 		.ascii	"y<\241\237,\347\2361\342\015\246\307rj\324r\336\252"
 480      2CE79E31 
 480      E20DA6C7 
 480      726AD472 
 480      DEAA
 481 0914 44A76F83 		.ascii	"D\247o\203A\030\351tWX\210\263\231j6\0220\242\360S\322"
 481      4118E974 
 481      575888B3 
 481      996A3612 
 481      30A2F053 
 482 0929 9D82F975 		.ascii	"\235\202\371u`\353\247\231,\027\223%r+\307\262X\244"
 482      60EBA799 
 482      2C179325 
 482      722BC7B2 
 482      58A4
 483 093b 864ACFB3 		.ascii	"\206J\317\263\324o3;\335\265m\236\252)det\216c<=?\247"
 483      D46F333B 
 483      DDB56D9E 
 483      AA296465 
 483      748E633C 
 484 0952 A6E92CD2 		.ascii	"\246\351,\322B\026\270\301\314\212\227X\327FJ\010\003"
 484      4216B8C1 
 484      CC8A9758 
 484      D7464A08 
 484      03
 485 0963 D51705BC 		.ascii	"\325\027\005\27434\037\302\005\020.\204\360k\010\017"
 485      33341FC2 
 485      05102E84 
 485      F06B080F 
 486 0973 437804C2 		.ascii	"Cx\004\302\037 \374\021\302\363\020^\201p\226\010e!"
 486      1F20FC11 
 486      C2F3105E 
ARM GAS  /tmp/ccqHMXUT.s 			page 38


 486      81709608 
 486      6521
 487 0985 7C09C257 		.ascii	"|\011\302W \\\004\341\022\010_\247\325\333\252]HW\213"
 487      205C04E1 
 487      12085FA7 
 487      D5DBAA5D 
 487      48578B
 488 0998 774CADD7 		.ascii	"wL\255\327\325\245\274h\276;\261h.\361\215\216\301\374"
 488      D5A5BC68 
 488      BE3BB168 
 488      2EF18D8E 
 488      C1FC
 489 09aa 7692ACA3 		.ascii	"v\222\254\243$9\035$Y\017\322X\246\357\310\313\322\265"
 489      24391D24 
 489      590FD258 
 489      A6EFC8CB 
 489      D2B5
 490 09bc 6D1C9B8E 		.ascii	"m\034\233\216g\315B\354\263o\217\244\315Q\242SDm\006"
 490      67CD42EC 
 490      B36F8FA4 
 490      CD51A253 
 490      446D06
 491 09cf B4CA0898 		.ascii	"\264\312\010\230t\202\246\227\311\225\240\341\304\005"
 491      7482A697 
 491      C995A0E1 
 491      C405
 492 09dd D9A3B26A 		.ascii	"\331\243\262j\223\025t_Y\347\270n[\021>M\211\360Y\020"
 492      9315745F 
 492      59E7B86E 
 492      5B113E4D 
 492      89F05910 
 493 09f1 E17320C2 		.ascii	"\341s \302\345\2402o\321\202\224\370g\004\303y\023\375"
 493      E5A0326F 
 493      D18294F8 
 493      6704C379 
 493      13FD
 494 0a03 86994DE5 		.ascii	"\206\231M\345\361M\356\216\335&\007N\310V\221\215S\232"
 494      F14DEE8E 
 494      DD26074E 
 494      C856918D 
 494      539A
 495 0a15 BDA1FDC6 		.ascii	"\275\241\375\306e\340:V\211\270\001.\246\033=\364\014"
 495      65E03A56 
 495      89B8012E 
 495      A61B3DF4 
 495      0C
 496 0a26 C1B0786E 		.ascii	"\301\260xnPd\201\233\226\301\260\001i3\223Y1\355\354"
 496      5064819B 
 496      96C1B001 
 496      69339359 
 496      31EDEC
 497 0a39 6EBEBA5A 		.ascii	"n\276\272ZY\322W\035Y(\265\312mK\022N\260\207\206!\304"
 497      59D2571D 
 497      5928B5CA 
 497      6D4B124E 
 497      B0878621 
 498 0a4e E98EAE26 		.ascii	"\351\216\256&\033\251\315`egf\230\236oH\016\023k\257"
ARM GAS  /tmp/ccqHMXUT.s 			page 39


 498      1BA9CD60 
 498      65676698 
 498      9E6F480E 
 498      136BAF
 499 0a61 7DF70F30 		.ascii	"}\367\0170\002]\007@\013R\006\252\177\346UrP\342=\000"
 499      025D0740 
 499      0B5206AA 
 499      7FE65572 
 499      50E23D00 
 500 0a75 5A926114 		.ascii	"Z\222a\024\243h\030\347\210\372q\216\350KD:;\365GG\177"
 500      A36818E7 
 500      88FA718E 
 500      E84B443A 
 500      3BF54747 
 501 0a8a E1CC6818 		.ascii	"\341\314h\030fl0\035G\311\306>\270\301.\253\312\246"
 501      666C301D 
 501      47C9C63E 
 501      B8C12EAB 
 501      CAA6
 502 0a9c 9D3059C3 		.ascii	"\2350Y\303\242\002:D\235\012D/\355\007[F\3006\261\200"
 502      A2023A44 
 502      9D0A442F 
 502      ED075B46 
 502      C036B180 
 503 0ab0 D92C43CF 		.ascii	"\331,C\317l\\`\271\207\325\224\364\350U\254\371\360"
 503      6C5C60B9 
 503      87D594F4 
 503      E855ACF9 
 503      F0
 504 0ac1 477FC607 		.ascii	"G\177\306\007\001\223\037\277\372Xd;~\265U4\356so\203"
 504      01931FBF 
 504      FA58643B 
 504      7EB55534 
 504      EE736F83 
 505 0ad5 E3575B99 		.ascii	"\343W[\231Fkg\315\306\000f\247\021\343&\243W\202\231"
 505      466B67CD 
 505      C60066A7 
 505      11E326A3 
 505      578299
 506 0ae8 3DC73EBA 		.ascii	"=\307>\272\213\234j\334\001\203\316\355W%?\325\250\303"
 506      8B9C6ADC 
 506      0183CEED 
 506      57253FD5 
 506      A8C3
 507 0afa C1F4B519 		.ascii	"\301\364\265\031\351_\271\035\350oKN\377\224\352\350"
 507      E95FB91D 
 507      E86F4B4E 
 507      FF94EAE8 
 508 0b0a BBEA9E1E 		.ascii	"\273\352\236\036t\246j\333i\203\304\037\207#\",\223"
 508      74A66ADB 
 508      6983C41F 
 508      8723222C 
 508      93
 509 0b1b 8043C049 		.ascii	"\200C\300I\233\363A\253J\326\032\262'\263\033\372\353"
 509      9BF341AB 
 509      4AD61AB2 
 509      27B31BFA 
ARM GAS  /tmp/ccqHMXUT.s 			page 40


 509      EB
 510 0b2c 378EC1FC 		.ascii	"7\216\301\374:\260\2654\3301\0260+'\206\300\326\321"
 510      3AB0B534 
 510      D8311630 
 510      2B2786C0 
 510      D6D1
 511 0b3e 60DF3B06 		.ascii	"`\337;\006\323S\266\201\006;\303\002f\265Z\211\300v"
 511      D353B681 
 511      063BC302 
 511      66B55A89 
 511      C076
 512 0b50 D060E71C 		.ascii	"\320`\347\034\203\371\315\264\204\353\242d\022\377\031"
 512      83F9CDB4 
 512      84EBA264 
 512      12FF19
 513 0b5f CC1A7681 		.ascii	"\314\032v\201\247\334\013\341>\010?\207\360K\010c,\203"
 513      A7DC0BE1 
 513      3E083F87 
 513      F04B0863 
 513      2C83
 514 0b71 AEEDB483 		.ascii	"\256\355\264\203\277\004\004oMMc\220\331k>|\360Od\365"
 514      BF04046F 
 514      4D4D6390 
 514      D96B3E7C 
 514      F04F64F5 
 515 0b85 D7E063B1 		.ascii	"\327\340c\261<\254(\370\232\246\240:\323)\005~\232\202"
 515      3CAC28F8 
 515      9AA6A03A 
 515      D329057E 
 515      9A82
 516 0b97 E8C56D64 		.ascii	"\350\305md\345R;\350\375\224\021\217\365h\2266\\\332"
 516      E5523BE8 
 516      FD94118F 
 516      F5689636 
 516      5CDA
 517 0ba9 96FED6A3 		.ascii	"\226\376\326\243\032\330\363\216\301t\307\257\243u\333"
 517      1AD8F38E 
 517      C174C7AF 
 517      A375DB
 518 0bb8 29B0398E 		.ascii	")\2609\216\301zt\321\010\242\013\237\200.l\2036\377"
 518      C17A74D1 
 518      08A20B9F 
 518      802E6C83 
 518      36FF
 519 0bca 0AC2C310 		.ascii	"\012\302\303\020\036\201\360\230~@\332\224i\364\273"
 519      1E81F098 
 519      7E40DA94 
 519      69F4BB
 520 0bd9 C4C652A8 		.ascii	"\304\306R\250\011c\314\261\342Z\265m+\335\266+3\235"
 520      0963CCB1 
 520      E25AB56D 
 520      2BDDB62B 
 520      339D
 521 0beb 7A2D5DDB 		.ascii	"z-]\333\"\247\272\371[\315\251\266\302X\254\231\005"
 521      22A7BAF9 
 521      5BCDA9B6 
 521      C258AC99 
ARM GAS  /tmp/ccqHMXUT.s 			page 41


 521      05
 522 0bfc D16626BA 		.ascii	"\321f&\272\352K\343v\200\231\265\027h\332\342^c\343"
 522      EA4BE376 
 522      8099B517 
 522      68DAE25E 
 522      63E3
 523 0c0e 23C46B9C 		.ascii	"#\304k\234\006\257\361^fr\257!\350y\224\370\016\243"
 523      06AFF15E 
 523      6672AF21 
 523      E87994F8 
 523      0EA3
 524 0c20 D738DF06 		.ascii	"\3278\337\006^\243\203\311k\\n\233\241\316\024\211\265"
 524      5EA383C9 
 524      6B5C6E9B 
 524      A1CE1489 
 524      B5
 525 0c31 D9022474 		.ascii	"\331\002$t\244l\356\257\264Q\246k\273c0\277\016\254"
 525      A46CEEAF 
 525      B451A66B 
 525      BB6330BF 
 525      0EAC
 526 0c43 6E3705D6 		.ascii	"n7\005\326\306\002fc\356\247\323`{\035\203\351)\233"
 526      C6026663 
 526      EEA7D360 
 526      7B1D83E9 
 526      299B
 527 0c55 41837DC1 		.ascii	"A\203}\301\002fc\356g\321`1\307`z\312\032h\260\257Y"
 527      026663EE 
 527      67D16031 
 527      C7607ACA 
 527      1A68B0AF 
 528 0c6a C0ACB670 		.ascii	"\300\254\266p\020\330\\\032\354\210c0=e\363h\260\357"
 528      10D85C1A 
 528      EC886330 
 528      3D65F368 
 528      B0EF
 529 0c7c 58C0FCD6 		.ascii	"X\300\374\326\2245\322`\247\035\203\371\315\272\004"
 529      9435D260 
 529      A71D83F9 
 529      CDBA04
 530 0c8b B9E81E25 		.ascii	"\271\350\036%\361?\201Y<\013\306\352<\204\027!\274\014"
 530      F13F8159 
 530      3C0BC6EA 
 530      3C841721 
 530      BC0C
 531 0c9d 61278493 		.ascii	"a'\204\223]8\254\206\260\006\302'!|\332\305`\334N\321"
 531      5D38AC86 
 531      B006C227 
 531      217CDAC5 
 531      60DC4ED1 
 532 0cb1 C6EDAC63 		.ascii	"\306\355\254cSd\313H\342\023\031\211\337\004#\276\367"
 532      5364CB48 
 532      E2131989 
 532      DF0423BE 
 532      F7
 533 0cc2 E108EF2E 		.ascii	"\341\010\357.\010\025\230'\327@\270\022\030Y\003\341"
 533      08159827 
ARM GAS  /tmp/ccqHMXUT.s 			page 42


 533      D740B812 
 533      185903E1 
 534 0cd2 FB107E08 		.ascii	"\373\020~\010\341f\010\277\207\360$\213\255^\2378\370"
 534      E16608BF 
 534      87F0248B 
 534      AD5E9F38 
 534      F8
 535 0ce3 8BE6E32E 		.ascii	"\213\346\343.<\335^\224\362\221\362o\266<\357\364L\376"
 535      3CDD5E94 
 535      F291F26F 
 535      B63CEFF4 
 535      4CFE
 536 0cf5 F1D86275 		.ascii	"\361\330bu\327d*\234\337\276\330\305S\245\264\024^\323"
 536      D7642A9C 
 536      DFBED8C5 
 536      53A5B414 
 536      5ED3
 537 0d07 9D4FCE89 		.ascii	"\235O\316\211\315\031\303\232iSy<\242\270\232\253\003"
 537      CD19C39A 
 537      6953793C 
 537      A2B89AAB 
 537      03
 538 0d18 8BDE8BEC 		.ascii	"\213\336\213\354\305\252y\037\326\020\322U\222\246\273"
 538      C5AA791F 
 538      D610D255 
 538      92A6BB
 539 0d27 AE86986E 		.ascii	"\256\206\230n\217\007rX\311\275\336\225\330\357\315"
 539      8F077258 
 539      C9BDDE95 
 539      D8EFCD
 540 0d36 F02522DD 		.ascii	"\360%\"\335\342\2725\325\310\202\256\326$&\017\271\271"
 540      E2BA35D5 
 540      C882AED6 
 540      24260FB9 
 540      B9
 541 0d47 8E73ADBC 		.ascii	"\216s\255\2742=\3030&\303\303\020+\232f\271(\325\236"
 541      323DC330 
 541      26C3C310 
 541      2B9A66B9 
 541      28D59E
 542 0d5a CE22419B 		.ascii	"\316\"A\233\335\344\237\212\261\307\306\220\002\327"
 542      DDE49F8A 
 542      B1C7C690 
 542      02D7
 543 0d68 E018CB6F 		.ascii	"\340\030\313o\321G8\375\207\233\022\277\030\272\311"
 543      D14738FD 
 543      879B12BF 
 543      18BAC9
 544 0d77 ABD04156 		.ascii	"\253\320AVA\270\016\302\347\240G\277\000\341L\010\033"
 544      41B80EC2 
 544      E7A047BF 
 544      00E14C08 
 544      1B
 545 0d88 E8DE9DD4 		.ascii	"\350\336\235\324\375\017\325\310\332K\235\227\276|\341"
 545      FD0FD5C8 
 545      DA4B9D97 
 545      BE7CE1
ARM GAS  /tmp/ccqHMXUT.s 			page 43


 546 0d97 D31BC9BE 		.ascii	"\323\033\311\276\315\213.\354\377?\353\236\334\377\353"
 546      CD8B2EEC 
 546      FF3FEB9E 
 546      DCFFEB
 547 0da6 81247E3E 		.ascii	"\201$~>\364\261F\227q\020\360$\014\002pz\362\251\357"
 547      F4B14697 
 547      7110F024 
 547      0C02707A 
 547      F2A9EF
 548 0db9 E5CD0B59 		.ascii	"\345\315\013Yg\362\212\356\263W\201;\210HN\372u\254"
 548      67F28AEE 
 548      B357813B 
 548      88484EFA 
 548      75AC
 549 0dcb C4BF0254 		.ascii	"\304\277\002T.4R\331F\250\\\310D\345\256\315\037uQ\300"
 549      2E3452D9 
 549      46A85CC8 
 549      44E5AECD 
 549      1F7551C0 
 550 0ddf EBB8996A 		.ascii	"\353\270\231j\007Qx\231\335L\264u\036\374\2677A\360"
 550      07517899 
 550      DD4CB475 
 550      1EFCB737 
 550      41F0
 551 0df1 AF819558 		.ascii	"\257\201\225X\330\303h%\334\006#\341\326\033\011\267"
 551      D8C36825 
 551      DC0623E1 
 551      D61B09B7 
 552 0e01 2F11518D 		.ascii	"/\021Q\215\204U/X\342\272\016b\360\031\211z*V\215;="
 552      84552F58 
 552      E2BA0E62 
 552      F019897A 
 552      2A568D3B 
 553 0e16 4322F1EF 		.ascii	"C\"\361\357\200z&\331d\267\242d\271\213^b\214\323\363"
 553      807A26D9 
 553      64B7A264 
 553      B98B5E62 
 553      8CD3F3
 554 0e29 1A311D12 		.ascii	"\0321\035\022?*\261\304e\005\361*\335\245\227\022\251"
 554      3F2AB1C4 
 554      6505F12A 
 554      DDA59712 
 554      A9
 555 0e3a B9529DE8 		.ascii	"\271R\235\350!\365\377u\327\265T]\223\022\352\254\250"
 555      21F5FF75 
 555      D7B5545D 
 555      9312EAAC 
 555      A8
 556 0e4b 59652DDA 		.ascii	"Ye-\332\270\365I\211\315\2254\233+\034\263\351\247\331"
 556      B8F54989 
 556      CD95349B 
 556      2B1CB3E9 
 556      A7D9
 557 0e5d 54D054D6 		.ascii	"T\320T\326\347\261c\261\312f^\373\017;\026\325\323\027"
 557      E7B163B1 
 557      CA665EFB 
 557      0F3B16D5 
ARM GAS  /tmp/ccqHMXUT.s 			page 44


 557      D317
 558 0e6f 4C2CADA5 		.ascii	"L,\255\245Yz\207\205%\353\011\355\317ci\243\011KL,D"
 558      597A8785 
 558      25EB09ED 
 558      CF6369A3 
 558      094B4C2C 
 559 0e84 5D8615F1 		.ascii	"]\206\025\361\265\216\331\370\005[\246\205\241e\342"
 559      B58ED9F8 
 559      055BA685 
 559      A165E2
 560 0e93 EF531D28 		.ascii	"\357S\035(\337\207tKm`a\321\372\340\333\317c\361\023"
 560      DF87744B 
 560      6D6061D1 
 560      FAE0DBCF 
 560      63F113
 561 0ea6 3B169DB0 		.ascii	";\026\235\260\264\225f\351}\307,9l5;\223\321f\307\322"
 561      B49566E9 
 561      7DC72C39 
 561      6C353B93 
 561      D166C7D2 
 562 0eba 72739391 		.ascii	"rs\223\221\022\313;i\226[YX\266\036\374\374<\226\367"
 562      12CB3B69 
 562      965B5958 
 562      B61EFCFC 
 562      3C96F7
 563 0ecd A7602553 		.ascii	"\247`%Sby\037\315\362v\307,\3739\375\225X=Z\014\003"
 563      62791FCD 
 563      F276C72C 
 563      FB39FD95 
 563      583D5A0C 
 564 0ee2 AEB7216C 		.ascii	"\256\267!l\206\360=\010?\200p\013\204\237B\330\3162"
 564      86F03D08 
 564      3F80700B 
 564      849F42D8 
 564      CE32
 565 0ef4 E57A89A6 		.ascii	"\345z\211\246s\027\320\331\230\242\023S\242W\360aP\326"
 565      7317D0D9 
 565      98A21353 
 565      A257F061 
 565      50D6
 566 0f06 B329A717 		.ascii	"\263)\247\027_\350\015\333W_\301x\257\356j\307GS\026"
 566      5FE80DDB 
 566      575FC178 
 566      AFEE6AC7 
 566      475316
 567 0f19 4091C3C6 		.ascii	"@\221\303\306\201\324\273\265\327\340\201\324a\246\201"
 567      81D4BBB5 
 567      D7E081D4 
 567      61A681
 568 0f28 5433EBC7 		.ascii	"T3\353\307q\361\035\212k\342,D\367_\306\347\347\216"
 568      71F11D8A 
 568      6BE22C44 
 568      F75FC6E7 
 568      E78E
 569 0f3a 03FDCBCC 		.ascii	"\003\375\313\314\351\267\306\020\270\365P\344{#\375"
 569      E9B7C610 
 569      B8F550E4 
ARM GAS  /tmp/ccqHMXUT.s 			page 45


 569      7B23FD
 570 0f49 F045E2F7 		.ascii	"\360E\342\367L\324\237=\012\303@4\221\203\271\300\326"
 570      4CD49F3D 
 570      0AC34034 
 570      9183B9C0 
 570      D6
 571 0f5a 38604A83 		.ascii	"8`J\203\220\350\245 \236W\220m\361\317\034c\371uX/\264"
 571      90E8A520 
 571      9E57906D 
 571      F1CF1C63 
 571      F975582F 
 572 0f6f 68C738C8 		.ascii	"h\3078\310\261\224\030\013\236\315\272\361\014|\364"
 572      B194180B 
 572      9ECDBAF1 
 572      0C7CF4
 573 0f7e C0C931B0 		.ascii	"\300\3111\260V\365\030\3309\030\325\036\273\3328\252"
 573      56F518D8 
 573      3918D51E 
 573      BBDA38AA 
 574 0f8e 4D69EE7B 		.ascii	"Mi\356{\3261\027:\251\304\316,>\324K;pG"
 574      D631173A 
 574      A9C4CE2C 
 574      3ED44B3B 
 574      7047
 575 0fa0 0853B218 		.ascii	"\010S\262\030\020\315\234\232\331Ek\223\304\237t\341"
 575      10CD9C9A 
 575      D9456B93 
 575      C49F74E1 
 576 0fb0 01F22930 		.ascii	"\001\362)0\006g \354\200\360,\204\227X\314\3031\332"
 576      066720EC 
 576      80F02C84 
 576      9758CCC3 
 576      31DA
 577 0fc2 3C3C93A5 		.ascii	"<<\223\245\3657\207\352eN\352a\212\324#@\352Q\232$4"
 577      F53787EA 
 577      654EEA61 
 577      8AD42340 
 577      EA519A24 
 578 0fd7 4DCE726A 		.ascii	"M\316rj\216\364\302\276|\341\374Mg\234}\204\177\301"
 578      8EF4C2BE 
 578      7CE1FC4D 
 578      679C7D84 
 578      7FC1
 579 0fe9 2348FC64 		.ascii	"#H\374d7\376\006\277!K\2571\214\337\340Oq\033\276\301"
 579      37FE06BF 
 579      214BAF31 
 579      8CDFE04F 
 579      711BBEC1 
 580 0ffd 3F43FE   		.ascii	"?C\376"
 581 1000 D404A7DB 		.ascii	"\324\004\247\333th\365\303\372\227\263\272\376\251\311"
 581      7468F5C3 
 581      FA97B3BA 
 581      FEA9C9
 582 100f B22CD33F 		.ascii	"\262,\323?5Y\225\345\374\017\205\022\304I|\215\033\213"
 582      355995E5 
 582      FC0F8512 
 582      C4497C8D 
ARM GAS  /tmp/ccqHMXUT.s 			page 46


 582      1B8B
 583 1021 BCD66DFF 		.ascii	"\274\326m\377\177$\224\364\035m\364(\321\316\315\026"
 583      7F2494F4 
 583      1D6DF428 
 583      D1CECD16 
 584 1031 5F4B37C5 		.ascii	"_K7\305\347\303\267\306\005\037\273\270\362\230z(d\252"
 584      E7C3B7C6 
 584      051FBBB8 
 584      F2987A28 
 584      64AA
 585 1043 1B9BD31F 		.ascii	"\033\233\323\037\263\222\233S\023\034dvn\304\322\256"
 585      B3929B53 
 585      131C6476 
 585      6EC4D2AE 
 586 1053 0390AA9E 		.ascii	"\003\220\252\236\016A\004n*\024\251w\033l\362\372Z\230"
 586      0E41046E 
 586      2A14A977 
 586      1B6CF2FA 
 586      5A98
 587 1065 9CE3F4E4 		.ascii	"\234\343\364\344G\245\337k\321\237\025\234\025\307T"
 587      47A5DF6B 
 587      D19F159C 
 587      15C754
 588 1074 2B1D4C8B 		.ascii	"+\035L\213/\271Y\336AN]\221\351y\223\021\314\241\035"
 588      2FB959DE 
 588      414E5D91 
 588      E9799311 
 588      CCA11D
 589 1087 6D8B1FC4 		.ascii	"m\213\037\304$\353G\257;\306\323u\262\350g\2048\002"
 589      24EB47AF 
 589      3BC6D375 
 589      B2E86784 
 589      3802
 590 1099 B69205CC 		.ascii	"\266\222\005\314\346\323\224\2754X\263c0=e\373h\260"
 590      E6D394BD 
 590      3458B363 
 590      303D65FB 
 590      68B0
 591 10ab 8D2C6036 		.ascii	"\215,`6Kn_\250\356\314n\340i\361\3110(\214[7\3564,\034"
 591      4B6E5FA8 
 591      EECC6EE0 
 591      69F1C930 
 591      288C5B37 
 592 10c3 D6599005 		.ascii	"\326Y\220\005\343=7\265\210\234d\340\251\366\201\331"
 592      E33D37B5 
 592      889C64E0 
 592      A9F681D9 
 593 10d3 6400F48A 		.ascii	"d\000\364\212\0333\376\221\241\017\030\252\306\204Y"
 593      1B33FE91 
 593      A10F18AA 
 593      C68459
 594 10e2 55FD9A3B 		.ascii	"U\375\232;\335B\327\273\374&pm\216\005\254o\255\003"
 594      DD42D7BB 
 594      FC26706D 
 594      8E05AC6F 
 594      AD03
 595 10f4 B5BA639A 		.ascii	"\265\272c\232\237\263\300\371M\332\313\354\242;\264"
ARM GAS  /tmp/ccqHMXUT.s 			page 47


 595      9FB3C0F9 
 595      4DDACBEC 
 595      A23BB4
 596 1103 C4CF04C3 		.ascii	"\304\317\004\3037\313\015\013\227\020\316\205p\036\204"
 596      37CB0D0B 
 596      9710CE85 
 596      701E84
 597 1112 8D103641 		.ascii	"\215\0206A\3702\204K\3357\377\263Q\005\356\253\236\006"
 597      F832844B 
 597      DD37FFB3 
 597      5105EEAB 
 597      9E06
 598 1124 5FA7374C 		.ascii	"_\2477L\311\372\241\002\316\256^QZ\373\262[\334\235"
 598      C9FAA102 
 598      CEAE5E51 
 598      5AFBB25B 
 598      DC9D
 599 1136 BF2616F7 		.ascii	"\277&\026\367M0\226\307\014\212B\324\362\237\305\357"
 599      4D3096C7 
 599      0C8A42D4 
 599      F29FC5EF 
 600 1146 79267E2D 		.ascii	"y&~-w\232\343\3746\364\325\266\021\032\364+\360J\\a"
 600      779AE3FC 
 600      36F4D5B6 
 600      111AF42B 
 600      F04A5C61 
 601 115a 94F81299 		.ascii	"\224\370\022\231\333\351N\302j\267\371NB\374\000\034"
 601      DBE94EC2 
 601      6AB7F94E 
 601      42FC001C 
 602 116a 1ABF5D63 		.ascii	"\032\277]c`\304P\261\032\267\374\346\022\016\373\211"
 602      60C450B1 
 602      1AB7FCE6 
 602      120EFB89 
 603 117a 1E429DC0 		.ascii	"\036B\235\300U\263\301\355pY\341\231M\220MT\"\026\237"
 603      55B3C1ED 
 603      7059E199 
 603      4D904D54 
 603      22169F
 604 118d 8BDC9850 		.ascii	"\213\334\230P\211\335\307\316?\315O\206\035\243\177"
 604      89DDC7CE 
 604      3FCD4F86 
 604      1DA37F
 605 119c 804ED45E 		.ascii	"\200N\324^\223\324\201\352\201\260\3206\030\235\347"
 605      93D481EA 
 605      81B0D036 
 605      189DE7
 606 11ab FC43AD3C 		.ascii	"\374C\255<\314\3646$w\237S\252\243+\016\265\012\352"
 606      CCF43624 
 606      779F53AA 
 606      A32B0EB5 
 606      0AEA
 607 11bd 095DB2A5 		.ascii	"\011]\262\2459\003\250\330`o\0138\013UA\200o\037j%\263"
 607      3903A8D8 
 607      606F0B38 
 607      0B554180 
 607      6F1F6A25 
ARM GAS  /tmp/ccqHMXUT.s 			page 48


 608 11d2 A4DD704E 		.ascii	"\244\335pNQ\201\365w'p~\035\334*\032N\340f\263Pg\263"
 608      5181F577 
 608      27707E1D 
 608      DC2A1A4E 
 608      E066B350 
 609 11e8 17FF8E9E 		.ascii	"\027\377\216\236\272s\"\003u6\273\361k\364p\027X\340"
 609      BA732203 
 609      7536BBF1 
 609      6BF47017 
 609      58E0
 610 11fa 6CF6E3D7 		.ascii	"l\366\343\327\352\231}\221\205Y\233\035\371uz\270\005"
 610      EA997D91 
 610      85599B1D 
 610      F9757AB8 
 610      05
 611 120b 2C70665E 		.ascii	",pf^\331\354\2425O\342\337\003\373\024\005\333\263\011"
 611      D9ECA235 
 611      4FE2DF03 
 611      FB1405DB 
 611      B309
 612 121d C2F721FC 		.ascii	"\302\367!\374\020\302\026\0107C\370\021m\231\254,\301"
 612      10C21608 
 612      3743F811 
 612      6D99AC2C 
 612      C1
 613 122e 5A373511 		.ascii	"Z75\021Zh\354\244fd\357`?\267\335H\315\204\026\300L"
 613      5A68ECA4 
 613      6664EF60 
 613      3FB7DD48 
 613      CD8416C0 
 614 1243 A809A668 		.ascii	"\250\011\246h\207 T\200\312\347 \\\016\341J\010\337"
 614      87205480 
 614      CAE7205C 
 614      0EE14A08 
 614      DF
 615 1254 85B09985 		.ascii	"\205\260\231\205\372\271\211i\234\3160\320\266\223\332"
 615      FAB98969 
 615      9CCE30D0 
 615      B693DA
 616 1263 83AD8BDB 		.ascii	"\203\255\213\333\342[T\200O\034\233\316m\026\246\363"
 616      E25B5480 
 616      4F1C9BCE 
 616      6D16A6F3 
 617 1273 E624A46E 		.ascii	"\346$\244nu;\"u\220V>M-\277\3031\245\237ZP\352IB\351"
 617      753B2275 
 617      90563E4D 
 617      2DBFC331 
 617      A59F5A50 
 618 128b F604A537 		.ascii	"\366\004\2457q\215J\364dl\365W\307z-\305\263{\345J\347"
 618      718D4AF4 
 618      646CF557 
 618      C77A2DC5 
 618      B37BE54A 
 619 12a0 1393AB78 		.ascii	"\023\223\253x\303\370\320n)\326f|\310\272\240v\371\360"
 619      C3F8D06E 
 619      29D6667C 
 619      C8BAA076 
ARM GAS  /tmp/ccqHMXUT.s 			page 49


 619      F9F0
 620 12b2 E9DEE404 		.ascii	"\351\336\344\004\325n0\336\263\256u\270\242\206\011"
 620      D56E30DE 
 620      B3AE75B8 
 620      A28609
 621 12c1 69371AEF 		.ascii	"i7\032\357\325-0\363ig\230\371TE\233[\2261o\236\032"
 621      D52D30F3 
 621      696798F9 
 621      54459B5B 
 621      96316F9E 
 622 12d6 FE9E6BE9 		.ascii	"\376\236k\351\265\346\233\247\272l\022\377\245\033\333"
 622      B5E69BA7 
 622      BA6C12FF 
 622      A51BDB
 623 12e5 B303462A 		.ascii	"\263\003F*\353\311\374\354\000\023\2253[\324U\263Wa"
 623      EBC9FCEC 
 623      00139533 
 623      5BD455B3 
 623      5761
 624 12f7 1365854B 		.ascii	"\023e\205K\203L\301\275h\376\226\354\223I\374\032\307"
 624      834CC1BD 
 624      68FE96EC 
 624      9349FC1A 
 624      C7
 625 1308 607E33B0 		.ascii	"`~3\260\265\000\266\201\005,\331\326\224\266W\364\276"
 625      B500B681 
 625      052CD9D6 
 625      94B657F4 
 625      BE
 626 1319 6330BF41 		.ascii	"c0\277A|\211E\350\203`z\016A\370\025\204_\263\230\241"
 626      7C8945E8 
 626      83607A0E 
 626      41F81584 
 626      5FB398A1 
 627 132d CFE9B9CC 		.ascii	"\317\351\271\314A\240\247\335\271\330\315.Zq%~\037\330"
 627      41A0A7DD 
 627      B9D8CD2E 
 627      5A71257E 
 627      1FD8
 628 133f FEFD2C24 		.ascii	"\376\375,$\355J\220\024_\347?\252\377\374D\340\3367"
 628      ED4A9014 
 628      5FE73FAA 
 628      FFFC44E0 
 628      DE37
 629 1351 F4A45BB9 		.ascii	"\364\244[\271W\024e:t\367cX\306\004F\340\266B\276\235"
 629      5714653A 
 629      74F76358 
 629      C60446E0 
 629      B642BE9D 
 630 1365 EE9B4CAB 		.ascii	"\356\233L\253S+#\205\225\331hv\312\223\272\004nG\222"
 630      532B2385 
 630      95D96876 
 630      CA93BA04 
 630      6E4792
 631 1378 822A45FF 		.ascii	"\202*E\377\312-\302\375c\317\327#\357S\227\210\254\013"
 631      CA2DC2FD 
 631      63CFD723 
ARM GAS  /tmp/ccqHMXUT.s 			page 50


 631      EF539788 
 631      AC0B
 632 138a A9FC1D76 		.ascii	"\251\374\035v\353\376{\037\014U,\326\376\375\316_\315"
 632      EBFE7B1F 
 632      0C552CD6 
 632      FEFDCE5F 
 632      CD
 633 139b AEAE6A55 		.ascii	"\256\256jUN\342uM\007\273`'\222\333)\335\3400\376\227"
 633      4EE2754D 
 633      07BB6027 
 633      92DB29DD 
 633      E030FE97 
 634 13af 5D255CDC 		.ascii	"]%\\\334N\315\377aSor,\351$\330\251s\346v\312\032\007"
 634      4ECDFF61 
 634      536F722C 
 634      E924D8A9 
 634      73E676CA 
 635 13c5 1372C668 		.ascii	"\023r\306h\001:\203~\222\232|}\246\276e\206\272>C\376"
 635      013A837E 
 635      929A7C7D 
 635      A6BE6586 
 635      BA3E43FE 
 636 13d9 F27CF275 		.ascii	"\362|\362u\274\212\250\031\035\335\211\215d\026@A\006"
 636      BC8AA819 
 636      1DDD898D 
 636      64164041 
 636      06
 637 13ea 656A7F02 		.ascii	"ej\177\002\330\247\033>\"m\304c\235\273\252p\263Zz\343"
 637      D8A71B3E 
 637      226DC463 
 637      9DBBAA70 
 637      B35A7AE3 
 638 13fe 850BC07A 		.ascii	"\205\013\300z\3011\226_\2075\247e\032\360\252\271O\354"
 638      C131965F 
 638      8735A765 
 638      1AF0AAB9 
 638      4FEC
 639 1410 0B6B120D 		.ascii	"\013k\022\015\374\250\006\241}7r\311\261\373\274l\341"
 639      FCA806A1 
 639      7D3772C9 
 639      B1FBBC6C 
 639      E1
 640 1421 3E35BD13 		.ascii	">5\275\023\270F#\017\272Z\325\250\315\267\262s\207\325"
 640      B846230F 
 640      BA5AD5A8 
 640      CDB7B273 
 640      87D5
 641 1433 4916F4EB 		.ascii	"I\026\364\353g\215\230\034\305\343\224\201\311\036s"
 641      678D981C 
 641      C5E39481 
 641      C91E73
 642 1442 06BC7106 		.ascii	"\006\274q\006\232\214\014$\237\254\352[a\336\260\267"
 642      9A8C0C24 
 642      9FACEA5B 
 642      61DEB0B7 
 643 1452 1E553968 		.ascii	"\036U9h\032\334\220\344\250\330\024\307\034\324Xp\220"
 643      1ADC90E4 
ARM GAS  /tmp/ccqHMXUT.s 			page 51


 643      A8D814C7 
 643      1CD45870 
 643      90
 644 1463 98A5BECC 		.ascii	"\230\245\276\314\242F\226\177\345\243D\033\023\014t"
 644      A246967F 
 644      E5A3441B 
 644      130C74
 645 1472 9968EB3C 		.ascii	"\231h\353<4&\347)\307\014<m\301@\3678\003K\273\364Q"
 645      3426E729 
 645      C70C3C6D 
 645      C140F738 
 645      034BBBF4 
 646 1487 B3AF15CD 		.ascii	"\263\257\025\315\376?\310\354\242\355\207\304\377\010"
 646      FE3FC8EC 
 646      A2ED87C4 
 646      FF08
 647 1495 EEA203FC 		.ascii	"\356\242\003\374\330Y\010\317Cx\021\302N\010\253=8|"
 647      D85908CF 
 647      437811C2 
 647      4E08AB3D 
 647      387C
 648 14a7 D2C3E052 		.ascii	"\322\303\340R~0q)\003\323\311\223Z\300\023\270U\327"
 648      7E307129 
 648      03D3C993 
 648      5AC013B8 
 648      55D7
 649 14b9 99BA156C 		.ascii	"\231\272\025l\234?!n\345\007p+\333!\337w\226\336\341"
 649      9C3F216E 
 649      E507702B 
 649      DB21DF77 
 649      96DEE1
 650 14cc 07CAADB4 		.ascii	"\007\312\255\264\005\357\203\332\004\256-I\251\201\011"
 650      05EF83DA 
 650      04AE2D49 
 650      A98109
 651 14db 9752A7BC 		.ascii	"\227R\247\274Y[\323\303EL?gSJ\345\3609\217\211S\211"
 651      595BD3C3 
 651      454C3F67 
 651      534AE5F0 
 651      398F8953 
 652 14f0 5ED8FC9C 		.ascii	"^\330\374\234\267nr\254\263\363&\007\016\245\336c\330"
 652      B76E72AC 
 652      B3F32607 
 652      0EA5DE63 
 652      D8
 653 1501 90C7CCD8 		.ascii	"\220\307\314\330\213\355sS\261)+0\347?\300\262\3444"
 653      8BED7353 
 653      B1292B30 
 653      E73FC0B2 
 653      E434
 654 1513 0F1E5A4C 		.ascii	"\017\036ZL\367\260\010\254=.\260\013\200k]\312N`V\245"
 654      F7B008AC 
 654      3D2EB00B 
 654      806B5DCA 
 654      4E6056A5 
 655 1527 542E6775 		.ascii	"T.gu\025XS,zjo\206\251\274l\326\221\347\331\212K=pl"
 655      1558532C 
ARM GAS  /tmp/ccqHMXUT.s 			page 52


 655      7A6A6F86 
 655      A9BC6CD6 
 655      91E7D98A 
 656 153f 7B264AE0 		.ascii	"{&J\340:\315\345w\276\330 \277\027\231\344\327\214\345"
 656      3ACDE577 
 656      BED820BF 
 656      1799E4D7 
 656      8CE5
 657 1551 872B16B8 		.ascii	"\207+\026\270g\257\347m\213\001yZm\177\353\245}\267"
 657      67AFE76D 
 657      8B01795A 
 657      6D7FEBA5 
 657      7DB7
 658 1563 33DD58CC 		.ascii	"3\335X\314p\316O\345B\035\374LUjz\360 #N-E]h\342l*\351"
 658      70CE4FE5 
 658      421DFC4C 
 658      556A7AF0 
 658      20234E2D 
 659 157e 392D5BD0 		.ascii	"9-[\320\210_\271\204?Fu\240\234Kl\244\355\345\236$\333"
 659      885FB984 
 659      3F4675A0 
 659      9C4B6CA4 
 659      EDE59E24 
 660 1593 81CA647E 		.ascii	"\201\312d~<gJz\342o\256$~\251\307\213\227O\256\327\357"
 660      3C674A7A 
 660      E26FAE24 
 660      7EA9C78B 
 660      974FAED7 
 661 15a8 C85184E3 		.ascii	"\310Q\204\343\014\370\302\345I\\\213i;\213\272F|\351"
 661      0CF8C2E5 
 661      495C8B69 
 661      3B8BBA46 
 661      7CE9
 662 15ba 7AD346BC 		.ascii	"z\323F\274hl\304W\231\032q\001n\015B\342\033\000\374"
 662      686CC457 
 662      991A7101 
 662      6E0D42E2 
 662      1B00FC
 663 15cd AA656BA8 		.ascii	"\252ek\250t\252\255a\350\006V\265\251\034,7m\234u-\346"
 663      74AAAD61 
 663      E80656B5 
 663      A91C2C37 
 663      6D9C752D 
 664 15e2 DDC0AE65 		.ascii	"\335\300\256eV\231\265\214AD\253\315Et\331(\242\225"
 664      5699B58C 
 664      4144ABCD 
 664      4574D928 
 664      A295
 665 15f4 F622B2E2 		.ascii	"\366\"\262\342\325\252\230J\341;\246\274\376\250\362"
 665      D5AA984A 
 665      E13BA6BC 
 665      FEA8F2
 666 1603 BA60B003 		.ascii	"\272`\260\003f\327:\267\221\233\314y\177\321h#\233\231"
 666      66D73AB7 
 666      919BCC79 
 666      7FD16823 
 666      9B99
ARM GAS  /tmp/ccqHMXUT.s 			page 53


 667 1615 D443732A 		.ascii	"\324Cs*\022_\227\244\324@\033\201Y\225R\271\\o*\260"
 667      125F97A4 
 667      D4401B81 
 667      599552B9 
 667      5C6F2AB0 
 668 1629 0B9B3581 		.ascii	"\013\2335\201\0219\010\334ns\326\272\230\377\215\216"
 668      113908DC 
 668      6E73D6BA 
 668      98FF8D8E 
 669 1639 CCBFC4CF 		.ascii	"\314\277\304\317IR\312\2165\253R*k\233\364\254\375\225"
 669      4952CA8E 
 669      35AB522A 
 669      6B9BF4AC 
 669      FD95
 670 164b 1767BB80 		.ascii	"\027g\273\200\301X]l\325W\233\334s\224MS\224\316\316"
 670      C1585D6C 
 670      D5579BDC 
 670      73944D53 
 670      94CECE
 671 165e 278CB6C9 		.ascii	"'\214\266\311f\301\250\325\250\023\273h\235P\347\213"
 671      66C1A8D5 
 671      A813BB68 
 671      9D50E78B 
 672 166e EA3BEB02 		.ascii	"\352;\353\002\322?:w\336\270\006v\204\266z\360\274\250"
 672      D23F3A77 
 672      DEB80676 
 672      84B67AF0 
 672      BCA8
 673 1680 A997C305 		.ascii	"\251\227\303\005$u\377q\305\011|,j;`,1`H\3740\303\246"
 673      2475FF71 
 673      C5097C2C 
 673      6A3B602C 
 673      316048FC 
 674 1697 D230C33F 		.ascii	"\3220\303?\013\035xET\352\274\220\216f\336\275,\015"
 674      0B1D7845 
 674      54EABC90 
 674      8E66DEBD 
 674      2C0D
 675 16a9 E6BD56BB 		.ascii	"\346\275V\273r\303\022#\273\235\236\337t\315i\350*\237"
 675      72C31223 
 675      BB9D9EDF 
 675      74CD69E8 
 675      2A9F
 676 16bb 1828D432 		.ascii	"\030(\3242}\326\245\321\032\342\215\266h\347\026\376"
 676      7DD6A5D1 
 676      1AE28DB6 
 676      68E716FE 
 677 16cb 29E7FE64 		.ascii	")\347\376d\217\307n\027\370%\213o8`u\303\323uLi<Wk\356"
 677      8FC76E17 
 677      F8258B6F 
 677      386075C3 
 677      D3754C69 
 678 16e3 EDF758B0 		.ascii	"\355\367X\260\367y\327\356\026\303\377\315q\364\356"
 678      F779D7EE 
 678      16C3FFCD 
 678      71F4EE
 679 16f2 86B79529 		.ascii	"\206\267\225)\260\202i\\\277\264\031\227|iTG|V\322@"
ARM GAS  /tmp/ccqHMXUT.s 			page 54


 679      B082695C 
 679      BFB41997 
 679      7C695447 
 679      7C56D240 
 680 1706 C9F71694 		.ascii	"\311\367\026\224\304L)\371\360yK\021\333\320q\310H\007"
 680      C44C29F9 
 680      F0794B11 
 680      DBD071C8 
 680      4807
 681 1718 165CB2F1 		.ascii	"\026\\\262\361\221\345\001P\343\373T\335\201PC\363Q"
 681      91E50150 
 681      E3FB54DD 
 681      815043F3 
 681      51
 682 1729 8BD25DC8 		.ascii	"\213\322]\310:\346\241W\224\014r9o!\227\343fr\211v~"
 682      3AE6A157 
 682      940C7239 
 682      6F2197E3 
 682      66728976 
 683 173e FE9CC23B 		.ascii	"\376\234\302;\366\227'l\345\242\372t\003]O\3656\247"
 683      F697276C 
 683      E5A2FA74 
 683      035D4FF5 
 683      36A7
 684 1750 EBA49EAE 		.ascii	"\353\244\236\256[\270\227p{\035x\375\314_\336\250\302"
 684      5BB89770 
 684      7B1D78FD 
 684      CC5FDEA8 
 684      C2
 685 1761 9AA39CEB 		.ascii	"\232\243\234\353\344;E\355;\236\203q\024\2256\303W;"
 685      E43B45ED 
 685      3B9E8371 
 685      149536C3 
 685      573B
 686 1773 18F17402 		.ascii	"\030\361t\002\021\243);\321\034\350\365\333f+\321\311"
 686      11A3293B 
 686      D11CE8F5 
 686      DB662BD1 
 686      C9
 687 1784 0A56009E 		.ascii	"\012V\000\236\327\206\212\337\030\301\272\034\277\372"
 687      D7868ADF 
 687      18C1BA1C 
 687      BFFA
 688 1792 51857A98 		.ascii	"Q\205z\230\2177o\212G6~\322\213,\203{\226n\355a\326"
 688      8F376F8A 
 688      47367ED2 
 688      8B2C837B 
 688      966EED61 
 689 17a7 7DF59C27 		.ascii	"}\365\234'\2033\\VY;<\346\233\035\304\002[\225:oY\012"
 689      83335C56 
 689      593B3CE6 
 689      9B1DC402 
 689      5B953A6F 
 690 17bd 7B05AB52 		.ascii	"{\005\253R\027,J\261K\344\222Q\2110\247L\247\241/"
 690      172C4AB1 
 690      4BE49251 
 690      8930A74C 
ARM GAS  /tmp/ccqHMXUT.s 			page 55


 690      A7A12F
 691 17d0 5A528C17 		.ascii	"ZR\214\027;\254J]\261,\365\224M\251N\313R\207l\244\243"
 691      3BAC4A5D 
 691      B12CF594 
 691      4DA94ECB 
 691      52876CA4 
 692 17e5 A45995DA 		.ascii	"\244Y\225\332cSj\262e\2516\233s5U\226\245\276\264\251"
 692      63536AB2 
 692      65A9369B 
 692      73355596 
 692      A5BEB4A9 
 693 17f9 ABDAB2D4 		.ascii	"\253\332\262\324\011\233RS\254K\331PXcY\252\336\246"
 693      099B5253 
 693      AC4BD950 
 693      586359AA 
 693      DEA6
 694 180b AEDA4429 		.ascii	"\256\332D)\356\332\274phB0\034\311\016\345\024\005\""
 694      EEDABC70 
 694      6842301C 
 694      C90EE514 
 694      0522
 695 181d C1B24879 		.ascii	"\301\262Hy\270\3178.}xNn\001\274\004d\317\275\017\214"
 695      B8CF382E 
 695      7D784E6E 
 695      01BC0464 
 695      CFBD0F8C 
 696 1831 F2E772DD 		.ascii	"\362\347r\335\023I\021Y\222\203\336\341\017\014\311"
 696      13491159 
 696      9283DEE1 
 696      0F0CC9
 697 1840 2D1CFED0 		.ascii	"-\034\376\320P\327\360\274\373\207\272\356\031U\360"
 697      50D7F0BC 
 697      FB87BAEE 
 697      1955F0
 698 184f 881B7EB8 		.ascii	"\210\033~\2705\2732\022\316\226\302\245\267\227\225"
 698      35BB3212 
 698      CE96C2A5 
 698      B79795
 699 185e 97056F0F 		.ascii	"\227\005o\017J\243C\331\241\262\242\222\312\342`vD."
 699      4AA343D9 
 699      A1B2A292 
 699      CAE26076 
 699      442E
 700 1870 0E95C9A8 		.ascii	"\016\225\311\250\202\264J\364\034\024\220\007\330d."
 700      82B44AF4 
 700      1C149007 
 700      D8642E
 701 187f 958AC685 		.ascii	"\225\212\306\205\312\202\331\201\342\340\030\251\262"
 701      CA82D981 
 701      E2E018A9 
 701      B2
 702 188c 440EC893 		.ascii	"D\016\310\223*\202\021T\330\027\010\250\305\323\244"
 702      2A821154 
 702      D81708A8 
 702      C5D3A4
 703 189b E2E27030 		.ascii	"\342\342p0\022\311\313\036W^\032\314.*/\236\224]\034"
 703      12C9CB1E 
ARM GAS  /tmp/ccqHMXUT.s 			page 56


 703      575E1ACC 
 703      2E2A2F9E 
 703      945D1C
 704 18ae 9C908D0A 		.ascii	"\234\220\215\012\216\016\225G\262\345pe\331c\331(2N"
 704      8E0E9547 
 704      B2E57065 
 704      D963D928 
 704      324E
 705 18c0 2AC9AE28 		.ascii	"*\311\256(\017\313\221\354\202\302\021\375s\262\357"
 705      0FCB91EC 
 705      82C211FD 
 705      73B2EF
 706 18cf BF3F2F1B 		.ascii	"\277?/\03314\241\037\360]RR\214aQ\002\221F\016\013\234"
 706      3134A11F 
 706      F05D5252 
 706      8C615102 
 706      91460E0B 
 707 18e4 46260240 		.ascii	"F&\002@\205\273\241\007\260\037\220\273!\234\300\250"
 707      85BBA107 
 707      B01F90BB 
 707      219CC0A8 
 708 18f4 07863F30 		.ascii	"\007\206?0\274\320\213\243\005\205\017\216\304\330\201"
 708      BCD08BA3 
 708      05850F8E 
 708      C4D881
 709 1903 FCA143F2 		.ascii	"\374\241C\362\036\271\012\307\210\344\002\205\017\323"
 709      1EB90AC7 
 709      88E40285 
 709      0FD3
 710 1911 6FF90F43 		.ascii	"o\371\017C\311\373\037\314\375\313\320\274t\204W^QZ"
 710      C9FB1FCC 
 710      FDCBD0BC 
 710      7484575E 
 710      515A
 711 1923 5E8C011F 		.ascii	"^\214\001\037\0349\342\301\274\241\001\364kO5Z0\002"
 711      1C39E2C1 
 711      BCA101F4 
 711      6B4F355A 
 711      3002
 712 1935 093C9037 		.ascii	"\011<\2207\364\241\341\271C\257\326\245\335\367`AaZ"
 712      F4A1E1B9 
 712      43AFD6A5 
 712      DDF76041 
 712      615A
 713 1947 79450017 		.ascii	"yE\000\027\365b1\365\317A\010Db8\232^TR^\364X R\021"
 713      F56231F5 
 713      CF410844 
 713      62389A5E 
 713      54525EF4 
 714 195f 0C1667A2 		.ascii	"\014\026g\242J\212+\345IE\223\212JP=\231\005\205y\201"
 714      4A8A2BE5 
 714      4945938A 
 714      4A503D99 
 714      05857981 
 715 1973 BC51858F 		.ascii	"\274Q\205\217\004r\037\311\275\177\350\325\303\206\024"
 715      04721FC9 
 715      BD7FE8D5 
ARM GAS  /tmp/ccqHMXUT.s 			page 57


 715      C38614
 716 1982 1452EF81 		.ascii	"\024R\357\201\234k\214)\375\006\006\356\354\206\021"
 716      9C6B8C29 
 716      FD0606EE 
 716      EC8611
 717 1991 020081B9 		.ascii	"\002\000\201\271\314-/\033\023\032\353)\202\007\226"
 717      CC2D2F1B 
 717      131AEB29 
 717      820796
 718 19a0 CA981269 		.ascii	"\312\230\022il\004\251Q0\034.\017G\372'\023mX\216K\266"
 718      6C04A951 
 718      301C2E0F 
 718      47FA2713 
 718      6D588E4B 
 719 19b5 685CA93C 		.ascii	"h\\\251<\021+Ki\245\034\234\030\220\335\360\034\344"
 719      112B4B69 
 719      A51C9C18 
 719      90DDF01C 
 719      E4
 720 19c6 08213229 		.ascii	"\010!2)\242\251Mwy\\8(\025G\002\343+\203\225\210\335"
 720      A2A94D77 
 720      795C3828 
 720      154702E3 
 720      2B839588 
 721 19db 1E45E302 		.ascii	"\036E\343\002\272\244\001\316\220\213\306a\255\361\022"
 721      BAA401CE 
 721      908BC661 
 721      ADF112
 722 19ea 8880EC8B 		.ascii	"\210\200\354\213\303y*\002e\301\2112zT\204\203\023\356"
 722      C3792A02 
 722      65C18932 
 722      7A548483 
 722      13EE
 723 19fc 634025AA 		.ascii	"c@%\2529$\177D\356\210\211(giE\250\004\367\311{ssQv"
 723      39247F44 
 723      EE888928 
 723      676945A8 
 723      04F7C97B 
 724 1a14 8DFE34B9 		.ascii	"\215\3764\271\"\034*\017\020\334Py\032\0221\022\207"
 724      221C2A0F 
 724      10DC5079 
 724      1A123112 
 724      87
 725 1a25 7CA763FC 		.ascii	"|\247c\374qE\345\341 \356\34589\200\364\242H\236\370"
 725      7145E5E1 
 725      20EEE538 
 725      3980F4A2 
 725      489EF8
 726 1a38 EFA9A104 		.ascii	"\357\251\241\004&\334Q\212\205\020\016\216E\2358 \213"
 726      26DC518A 
 726      85100E8E 
 726      459D3820 
 726      8B
 727 1a49 917E03D1 		.ascii	"\221~\003\321}\007\272\007\241\373N1\222\323\027\335"
 727      7D07BA07 
 727      A1FB4E31 
 727      92D317DD 
ARM GAS  /tmp/ccqHMXUT.s 			page 58


 728 1a59 FDD09D83 		.ascii	"\375\320\235\203\356\376\350\036\200\356?\242\033\345"
 728      EEFEE81E 
 728      80EE3FA2 
 728      1BE5
 729 1a67 CB41F972 		.ascii	"\313A\371rP\276\034\224\257?\312\327\277\237\020\036"
 729      50BE1C94 
 729      AF3FCAD7 
 729      BF9F101E 
 730 1a77 2084FF28 		.ascii	" \204\377(\204\007\012\341;\204\360 !|\247\030\356\327"
 730      84070AE1 
 730      3B84F020 
 730      217CA718 
 730      EED7
 731 1a89 17DDFD84 		.ascii	"\027\335\375\204\2220z\364wW\004\020\265iX\302\217\007"
 731      92307AF4 
 731      77570410 
 731      B56958C2 
 731      8F07
 732 1a9b C3E8595E 		.ascii	"\303\350Y^R\034\014\273\212\306Ia,v\2514\350\225\325"
 732      521C0CBB 
 732      8AC64961 
 732      2C76A934 
 732      E895D5
 733 1aae 7E887E84 		.ascii	"~\210~\204X\232L\272\021z\007]L\223\303\3011\021\220"
 733      589A4CBA 
 733      117A075D 
 733      4C93C3C1 
 733      311190
 734 1ac1 238EB84B 		.ascii	"#\216\270K#c\321\217j\367@\266E\215y\302\305\223\320"
 734      2363D18F 
 734      6AF740B6 
 734      458D79C2 
 734      C593D0
 735 1ad4 4FDEE0C4 		.ascii	"O\336\340\304\220\214\304\022\364<.\227\217\376\257"
 735      908CC412 
 735      F43C2E97 
 735      8FFEAF
 736 1ae3 8AF4E084 		.ascii	"\212\364\340\204`\231\\*E\036\303:\3758\216\210\025"
 736      60995C2A 
 736      451EC33A 
 736      FD388E88 
 736      15
 737 1af4 81CA4C4D 		.ascii	"\201\312LM\223JB\021d\251\272S\272\205S|\025\201\307"
 737      934A4211 
 737      64A9BA53 
 737      BA85537C 
 737      1581C7
 738 1b07 A5901C2A 		.ascii	"\245\220\034*\033\333\015u\315\310X\32077DQB\260\"X"
 738      1BDB0D75 
 738      CDC858D0 
 738      37374451 
 738      42B02258 
 739 1b1b 860CE358 		.ascii	"\206\014\343X\224\013i<\316\337\015\323&\225@;\243\304"
 739      940B693C 
 739      CEDF0DD3 
 739      2695403B 
 739      A3C4
ARM GAS  /tmp/ccqHMXUT.s 			page 59


 740 1b2d 8AF2F292 		.ascii	"\212\362\362\222\264R\242\245\350Y\376xY0\354)\005-"
 740      B452A2A5 
 740      E859FE78 
 740      5930EC29 
 740      052D
 741 1b3f BBC391D2 		.ascii	"\273\303\221\322\2524\241&\313R\365\026\211 \030\016"
 741      AA34A126 
 741      CB52F516 
 741      8920180E 
 742 1b4f 96152101 		.ascii	"\226\025!\001yH\222\017uZlW\0032\330\017\324\3075\373"
 742      7948920F 
 742      755A6C57 
 742      0332D80F 
 742      D4C735FB 
 743 1b63 81A32EFC 		.ascii	"\201\243.\374\223/<\261\270T\302b\365\311Zl\230S\033"
 743      932F3CB1 
 743      B854C262 
 743      F5C95A6C 
 743      98531B
 744 1b76 0CE1B001 		.ascii	"\014\341\260\001\023'\"\267P\212$\216p\020]\177J\006"
 744      132722B7 
 744      508A248E 
 744      70105D7F 
 744      4A06
 745 1b88 8378CECE 		.ascii	"\203x\316\316\035Q0\274\000\001\220\222c\006\364\355"
 745      1D5130BC 
 745      00019092 
 745      6306F4ED 
 746 1b98 37111BE1 		.ascii	"7\021\033\341\254\274\021C\002\005\250y\245\322@!\352"
 746      ACBC1143 
 746      0205A879 
 746      A5D24021 
 746      EA
 747 1ba9 3579C131 		.ascii	"5y\3011Bn\276\353\201\274\302|q\344\220|\327\210\276"
 747      426EBEEB 
 747      81BCC27C 
 747      71E4907C 
 747      D788BE
 748 1bbc 38E83724 		.ascii	"8\3507$_\034\226\233\357\211@FWhLQ\330\023\212\214\013"
 748      5F1C969B 
 748      EF894046 
 748      57684C51 
 748      D8138A8C 
 749 1bd1 8D917D91 		.ascii	"\215\221}\221`\311\230PYqp\242gB\260H.\017g\305)\013"
 749      60C99850 
 749      597170A2 
 749      6742B048 
 749      2E0F67C5 
 750 1be7 90DCC808 		.ascii	"\220\334\310\010\241\227\360D\034\312\023\261\233\324"
 750      A197F044 
 750      1CCA13B1 
 750      9BD4
 751 1bf5 2A1273F3 		.ascii	"*\022s\363\373\241;\307\365\340\220\374~8\310\021\362"
 751      FBA13BC7 
 751      F5E090FC 
 751      7E38C811 
 751      F2
ARM GAS  /tmp/ccqHMXUT.s 			page 60


 752 1c06 F2C50294 		.ascii	"\362\305\002\224X\220\237#\346\346\346\273\013\363\207"
 752      58909F23 
 752      E6E6E6BB 
 752      0BF387
 753 1c15 170C750D 		.ascii	"\027\014u\015\273\037\021\203$\354\303\226)T\212\365"
 753      BB1F1183 
 753      24ECC396 
 753      29548AF5 
 754 1c25 123FCA2B 		.ascii	"\022?\312+e\027\326^\267<\361\236\3121\3560\016\377"
 754      6517D65E 
 754      B73CF19E 
 754      CA31EE30 
 754      0EFF
 755 1c37 E8C40D45 		.ascii	"\350\304\015E\202\341\220T\202\204\220Q\0001\342\311"
 755      82E19054 
 755      82849051 
 755      0031E2C9 
 756 1c47 BAD32F0F 		.ascii	"\272\323/\017\215(\314\001\177[\022\032\235=\266\250"
 756      8D28CC01 
 756      7F5B121A 
 756      9D3DB6A8 
 757 1c57 C8E07707 		.ascii	"\310\340w\007\364\031\324g\000\355\252\221\337Ex\236"
 757      F419D467 
 757      00EDAA91 
 757      DF45789E 
 758 1c67 48E8EF88 		.ascii	"H\350\357\210J\367\343\341\220\034ta\005\021+*eqlPv"
 758      4AF7E3E1 
 758      901C7461 
 758      05112B2A 
 758      65716C50 
 759 1c7c A1A7EC42 		.ascii	"\241\247\354B\021\331\003?\312n\374\253,N(\225\007:"
 759      11D9033F 
 759      CA6EFCAB 
 759      2C4E2895 
 759      073A
 760 1c8e D24AE852 		.ascii	"\322J\350RX)3!\026\210\224W\206\261Bf\320\257=\310\013"
 760      58293321 
 760      16889457 
 760      86B14266 
 760      D0AF3DC8 
 761 1ca3 EE1D41A4 		.ascii	"\356\035A\244\376\310]\351\023\322\202%\320!\322\321"
 761      FEC85DE9 
 761      13D28225 
 761      D021D2D1 
 762 1cb3 534BF3A1 		.ascii	"SK\363\2418\001'P\252/\362\242d\210\342\337\037'F!\030"
 762      38012750 
 762      AA2FF2A2 
 762      6488E2DF 
 762      1F274621 
 763 1cc8 81D26EC8 		.ascii	"\201\322n\310\347\213\024\253F\304W\220\247\372\362"
 763      E78B14AB 
 763      46C45790 
 763      A7FAF2
 764 1cd7 3414C3AE 		.ascii	"4\024\303\256\334\213\236\340\311\235\361\010}\027\363"
 764      DC8B9EE0 
 764      C99DF108 
 764      7D17F3
ARM GAS  /tmp/ccqHMXUT.s 			page 61


 765 1ce6 7855A80C 		.ascii	"xU\250\014\311MsB\335\220EW\243^-\352\033\257\031\013"
 765      C94D7342 
 765      DD904557 
 765      A35E2DEA 
 765      1BAF190B 
 766 1cfa 142B2AAF 		.ascii	"\024+*\257Df>\354\035\037\030]9\006uU\367\370\200\\"
 766      44663EEC 
 766      1D1F185D 
 766      39067555 
 766      F7F8805C 
 767 1d0e 5E9186B2 		.ascii	"^\221\206\262\204+\3440z\206\213\321\3237\276\254\\"
 767      842BE430 
 767      7A868BD1 
 767      D337BEAC 
 767      5C
 768 1d1f 0E8D9984 		.ascii	"\016\215\231\204P\306\007H\3243\036\211\241\3541O\010"
 768      50C60748 
 768      D4331E89 
 768      A1EC314F 
 768      08
 769 1d30 30339182 		.ascii	"03\221\202Q\325z\312!\"\204F\013\345\243\257\032U0$"
 769      51D57ACA 
 769      21228446 
 769      0BE5A3AF 
 769      1A553024 
 770 1d44 BF30DE63 		.ascii	"\2770\336c\012\362\305{\362\363\221.\367w\335[82\337"
 770      0AF2C57B 
 770      F2F3912E 
 770      F777DD5B 
 770      3832DF
 771 1d57 5D1991C2 		.ascii	"]\031\221\302rR\277=AB\266\2522\202~@F\013I\032q\352"
 771      7252BF3D 
 771      4142B6AA 
 771      32827E40 
 771      460B491A 
 772 1d6d CC34910E 		.ascii	"\3144\221\016\206%t\315=R$X\020D\024\226\311HyI\207"
 772      862574CD 
 772      3D522458 
 772      10441496 
 772      C9487949 
 773 1d82 BEDE2C11 		.ascii	"\276\336,\021i\264W\253PD\021qL\251|\2656\242\035]Z"
 773      69B457AB 
 773      50441171 
 773      4CA97CB5 
 773      36A21D5D 
 774 1d97 9133A86F 		.ascii	"\2213\250o\237\"\316\230\202\374\025\211!9\220!\257"
 774      9F22CE98 
 774      82FC1589 
 774      21399021 
 774      AF
 775 1da8 B7448AC8 		.ascii	"\267D\212\310\205\301\322\212\014\034\031\211\207\224"
 775      85C1D28A 
 775      0C1C1989 
 775      8794
 776 1db6 95E1205F 		.ascii	"\225\341 _\310\217\364B\177Dr\367\206\325\310\015jY"
 776      C88FF442 
 776      7F4472F7 
ARM GAS  /tmp/ccqHMXUT.s 			page 62


 776      86D5C80D 
 776      6A59
 777 1dc8 ACEB5ACE 		.ascii	"\254\353Z\316>\025HD}\372\212\350'o\205\232\366/T>\014"
 777      3E154844 
 777      7DFA8AE8 
 777      276F859A 
 777      F62F543E 
 778 1ddd 1D0C4B72 		.ascii	"\035\014Kr<k?\227\214\222\322\325,\241\262\220\354)"
 778      3C6B3F97 
 778      8C92D2D5 
 778      2CA1B290 
 778      EC29
 779 1def 0622BDA3 		.ascii	"\006\"\275\243\021\233C\220\211u\007\356AF_\313\021"
 779      119B4390 
 779      897507EE 
 779      41465FCB 
 779      11
 780 1e00 C16D8E03 		.ascii	"\301m\216\003dq2\342\300\221\240\334\323\204\232\353"
 780      647132E2 
 780      C091A0DC 
 780      D3849AEB 
 781 1e10 CC6B76D4 		.ascii	"\314kv\324\367\245\360X<\344\230 A_\312\014\004\306"
 781      F7A5F058 
 781      3CE49820 
 781      415FCA0C 
 781      04C6
 782 1e22 96551605 		.ascii	"\226U\026\005\324\327\364?\217\256\014\225\310\267\207"
 782      D4D7F43F 
 782      8FAE0C95 
 782      C8B787
 783 1e31 CAEEC283 		.ascii	"\312\356\302\203q5\025\015\200&\220\246\270\216\232"
 783      7135150D 
 783      802690A6 
 783      B88E9A
 784 1e40 3E84A5B2 		.ascii	">\204\245\262\210T$c\355\355V4\256p\\qAI0X\221\231\310"
 784      88542463 
 784      EDED5634 
 784      AE705C71 
 784      41493058 
 785 1e57 8199CFA4 		.ascii	"\201\231\317\244'\027\210\311T\206\363\240\304h@O\014"
 785      271788C9 
 785      5486F3A0 
 785      C468404F 
 785      0C
 786 1e68 A13AA617 		.ascii	"\241:\246\027\013\362\006\372p\033\347\342n\364\177"
 786      0BF206FA 
 786      701BE7E2 
 786      6EF47F
 787 1e77 28CF7963 		.ascii	"(\317yc"
 788              		.text
 789              		.section	.gnu.lto_.symtab.e5aaa8c4cca818b6,"",%progbits
 790 0000 626D7032 		.ascii	"bmp280_init\000\000\000\000\000\000\000\000\000\000"
 790      38305F69 
 790      6E697400 
 790      00000000 
 790      00000000 
 791 0015 00001B03 		.ascii	"\000\000\033\003\000\000bmp280_stop\000\000\000\000"
ARM GAS  /tmp/ccqHMXUT.s 			page 63


 791      0000626D 
 791      70323830 
 791      5F73746F 
 791      70000000 
 792 002a 00000000 		.ascii	"\000\000\000\000\000\000\000\000'\003\000\000bmp280"
 792      00000000 
 792      27030000 
 792      626D7032 
 792      3830
 793 003c 5F726573 		.ascii	"_reset\000\000\000\000\000\000\000\000\000\000\000\000"
 793      65740000 
 793      00000000 
 793      00000000 
 793      0000
 794 004e 33030000 		.ascii	"3\003\000\000bmp280_readPressure\000\000\000\000\000"
 794      626D7032 
 794      38305F72 
 794      65616450 
 794      72657373 
 795 006a 00000000 		.ascii	"\000\000\000\000\000\000\0009\003\000\000bmp280_rea"
 795      00000039 
 795      03000062 
 795      6D703238 
 795      305F7265 
 796 007f 6454656D 		.ascii	"dTemperature\000\000\000\000\000\000\000\000\000\000"
 796      70657261 
 796      74757265 
 796      00000000 
 796      00000000 
 797 0095 00004103 		.ascii	"\000\000A\003\000\000SD6\000\000\002\000\000\000\000"
 797      00005344 
 797      36000002 
 797      00000000 
 798 00a5 00000000 		.ascii	"\000\000\000\000\000q\003\000\000chvprintf\000\000\002"
 798      00710300 
 798      00636876 
 798      7072696E 
 798      74660000 
 799 00ba 00000000 		.ascii	"\000\000\000\000\000\000\000\000\000G\003\000\000I2"
 799      00000000 
 799      00470300 
 799      004932
 800 00c9 4353656E 		.ascii	"CSensor_transact_buf\000\000\002\000\000\000\000\000"
 800      736F725F 
 800      7472616E 
 800      73616374 
 800      5F627566 
 801 00e5 00000000 		.ascii	"\000\000\000\000V\003\000\000chThdSleep\000\000\002"
 801      56030000 
 801      63685468 
 801      64536C65 
 801      65700000 
 802 00fa 00000000 		.ascii	"\000\000\000\000\000\000\000\000\000]\003\000\000I2"
 802      00000000 
 802      005D0300 
 802      004932
 803 0109 4353656E 		.ascii	"CSensor_init\000\000\002\000\000\000\000\000\000\000"
ARM GAS  /tmp/ccqHMXUT.s 			page 64


 803      736F725F 
 803      696E6974 
 803      00000200 
 803      00000000 
 804 011f 00006103 		.ascii	"\000\000a\003\000\000I2CSensor_stop\000\000\002\000"
 804      00004932 
 804      4353656E 
 804      736F725F 
 804      73746F70 
 805 0137 00000000 		.ascii	"\000\000\000\000\000\000\000\000l\003\000\000"
 805      00000000 
 805      6C030000 
 806              		.text
 807              		.section	.gnu.lto_.opts,"",%progbits
 808 0000 272D6D63 		.ascii	"'-mcpu=cortex-m4' '-mfloat-abi=hard' '-mfpu=fpv4-sp"
 808      70753D63 
 808      6F727465 
 808      782D6D34 
 808      2720272D 
 809 0033 2D643136 		.ascii	"-d16' '-mno-thumb-interwork' '-mthumb' '-O2' '-fomi"
 809      2720272D 
 809      6D6E6F2D 
 809      7468756D 
 809      622D696E 
 810 0066 742D6672 		.ascii	"t-frame-pointer' '-falign-functions=16' '-ffunction"
 810      616D652D 
 810      706F696E 
 810      74657227 
 810      20272D66 
 811 0099 2D736563 		.ascii	"-sections' '-fdata-sections' '-fno-common' '-flto' "
 811      74696F6E 
 811      73272027 
 811      2D666461 
 811      74612D73 
 812 00cc 272D6673 		.ascii	"'-fsingle-precision-constant'\000"
 812      696E676C 
 812      652D7072 
 812      65636973 
 812      696F6E2D 
 813              		.text
 814              		.section	.text.chprintf.constprop.2,"ax",%progbits
 815              		.align	2
 816              		.p2align 4,,15
 817              		.thumb
 818              		.thumb_func
 819              		.type	chprintf.constprop.2, %function
 820              	chprintf.constprop.2:
 821              		@ args = 4, pretend = 12, frame = 8
 822              		@ frame_needed = 0, uses_anonymous_args = 1
 823 0000 0EB4     		push	{r1, r2, r3}
 824 0002 00B5     		push	{lr}
 825 0004 82B0     		sub	sp, sp, #8
 826 0006 03AA     		add	r2, sp, #12
 827 0008 0548     		ldr	r0, .L2
 828 000a 52F8041B 		ldr	r1, [r2], #4
 829 000e 0192     		str	r2, [sp, #4]
 830 0010 FFF7FEFF 		bl	chvprintf
ARM GAS  /tmp/ccqHMXUT.s 			page 65


 831 0014 02B0     		add	sp, sp, #8
 832              		@ sp needed
 833 0016 5DF804EB 		ldr	lr, [sp], #4
 834 001a 03B0     		add	sp, sp, #12
 835 001c 7047     		bx	lr
 836              	.L3:
 837 001e 00BF     		.align	2
 838              	.L2:
 839 0020 00000000 		.word	SD6
 840              		.size	chprintf.constprop.2, .-chprintf.constprop.2
 841 0024 AFF30080 		.section	.text.bmp280_init,"ax",%progbits
 841      AFF30080 
 841      AFF30080 
 842              		.align	2
 843              		.p2align 4,,15
 844              		.global	bmp280_init
 845              		.thumb
 846              		.thumb_func
 847              		.type	bmp280_init, %function
 848              	bmp280_init:
 849              		@ args = 0, pretend = 0, frame = 0
 850              		@ frame_needed = 0, uses_anonymous_args = 0
 851 0000 F0B5     		push	{r4, r5, r6, r7, lr}
 852 0002 374D     		ldr	r5, .L16
 853 0004 374B     		ldr	r3, .L16+4
 854 0006 2E78     		ldrb	r6, [r5]	@ zero_extendqisi2
 855 0008 85B0     		sub	sp, sp, #20
 856 000a 0136     		adds	r6, r6, #1
 857 000c 0293     		str	r3, [sp, #8]
 858 000e 2827     		movs	r7, #40
 859 0010 00F15C03 		add	r3, r0, #92
 860 0014 0093     		str	r3, [sp]
 861 0016 0197     		str	r7, [sp, #4]
 862 0018 00F15803 		add	r3, r0, #88
 863 001c 2E70     		strb	r6, [r5]
 864 001e 0446     		mov	r4, r0
 865 0020 FFF7FEFF 		bl	I2CSensor_init
 866 0024 2546     		mov	r5, r4
 867 0026 8826     		movs	r6, #136
 868              	.L8:
 869 0028 84F85860 		strb	r6, [r4, #88]
 870 002c 2046     		mov	r0, r4
 871 002e 0121     		movs	r1, #1
 872 0030 0222     		movs	r2, #2
 873 0032 FFF7FEFF 		bl	I2CSensor_transact_buf
 874 0036 0028     		cmp	r0, #0
 875 0038 4CD1     		bne	.L5
 876 003a 94F85D20 		ldrb	r2, [r4, #93]	@ zero_extendqisi2
 877 003e 94F85C30 		ldrb	r3, [r4, #92]	@ zero_extendqisi2
 878 0042 03EB0223 		add	r3, r3, r2, lsl #8
 879 0046 AB62     		str	r3, [r5, #40]
 880              	.L6:
 881 0048 0236     		adds	r6, r6, #2
 882 004a F6B2     		uxtb	r6, r6
 883 004c 8E2E     		cmp	r6, #142
 884 004e 05F10405 		add	r5, r5, #4
 885 0052 E9D1     		bne	.L8
ARM GAS  /tmp/ccqHMXUT.s 			page 66


 886 0054 04F12407 		add	r7, r4, #36
 887 0058 2546     		mov	r5, r4
 888 005a 0BE0     		b	.L12
 889              	.L15:
 890 005c 94F85D20 		ldrb	r2, [r4, #93]	@ zero_extendqisi2
 891 0060 94F85C30 		ldrb	r3, [r4, #92]	@ zero_extendqisi2
 892 0064 03EB0223 		add	r3, r3, r2, lsl #8
 893 0068 6B63     		str	r3, [r5, #52]
 894 006a 0435     		adds	r5, r5, #4
 895 006c 0136     		adds	r6, r6, #1
 896 006e BD42     		cmp	r5, r7
 897 0070 F6B2     		uxtb	r6, r6
 898 0072 11D0     		beq	.L14
 899              	.L12:
 900 0074 84F85860 		strb	r6, [r4, #88]
 901 0078 2046     		mov	r0, r4
 902 007a 0121     		movs	r1, #1
 903 007c 0222     		movs	r2, #2
 904 007e FFF7FEFF 		bl	I2CSensor_transact_buf
 905 0082 0028     		cmp	r0, #0
 906 0084 EAD0     		beq	.L15
 907 0086 1848     		ldr	r0, .L16+8
 908 0088 1849     		ldr	r1, .L16+12
 909 008a 0435     		adds	r5, r5, #4
 910 008c FFF7FEFF 		bl	chprintf.constprop.2
 911 0090 0136     		adds	r6, r6, #1
 912 0092 BD42     		cmp	r5, r7
 913 0094 F6B2     		uxtb	r6, r6
 914 0096 EDD1     		bne	.L12
 915              	.L14:
 916 0098 2023     		movs	r3, #32
 917 009a F522     		movs	r2, #245
 918 009c 84F85930 		strb	r3, [r4, #89]
 919 00a0 84F85820 		strb	r2, [r4, #88]
 920 00a4 0221     		movs	r1, #2
 921 00a6 0022     		movs	r2, #0
 922 00a8 2046     		mov	r0, r4
 923 00aa FFF7FEFF 		bl	I2CSensor_transact_buf
 924 00ae 6420     		movs	r0, #100
 925 00b0 FFF7FEFF 		bl	chThdSleep
 926 00b4 4B23     		movs	r3, #75
 927 00b6 F422     		movs	r2, #244
 928 00b8 84F85820 		strb	r2, [r4, #88]
 929 00bc 84F85930 		strb	r3, [r4, #89]
 930 00c0 2046     		mov	r0, r4
 931 00c2 0221     		movs	r1, #2
 932 00c4 0022     		movs	r2, #0
 933 00c6 FFF7FEFF 		bl	I2CSensor_transact_buf
 934 00ca 0023     		movs	r3, #0
 935 00cc 2362     		str	r3, [r4, #32]	@ float
 936 00ce 6362     		str	r3, [r4, #36]	@ float
 937 00d0 05B0     		add	sp, sp, #20
 938              		@ sp needed
 939 00d2 F0BD     		pop	{r4, r5, r6, r7, pc}
 940              	.L5:
 941 00d4 0649     		ldr	r1, .L16+16
 942 00d6 0448     		ldr	r0, .L16+8
ARM GAS  /tmp/ccqHMXUT.s 			page 67


 943 00d8 FFF7FEFF 		bl	chprintf.constprop.2
 944 00dc B4E7     		b	.L6
 945              	.L17:
 946 00de 00BF     		.align	2
 947              	.L16:
 948 00e0 00000000 		.word	.LANCHOR0
 949 00e4 00000000 		.word	.LC0
 950 00e8 00000000 		.word	SD6
 951 00ec 2C000000 		.word	.LC2
 952 00f0 08000000 		.word	.LC1
 953              		.size	bmp280_init, .-bmp280_init
 954 00f4 AFF30080 		.section	.text.bmp280_stop,"ax",%progbits
 954      AFF30080 
 954      AFF30080 
 955              		.align	2
 956              		.p2align 4,,15
 957              		.global	bmp280_stop
 958              		.thumb
 959              		.thumb_func
 960              		.type	bmp280_stop, %function
 961              	bmp280_stop:
 962              		@ args = 0, pretend = 0, frame = 0
 963              		@ frame_needed = 0, uses_anonymous_args = 0
 964              		@ link register save eliminated.
 965 0000 FFF7FEBF 		b	I2CSensor_stop
 966              		.size	bmp280_stop, .-bmp280_stop
 967 0004 AFF30080 		.section	.text.bmp280_reset,"ax",%progbits
 967      AFF30080 
 967      AFF30080 
 968              		.align	2
 969              		.p2align 4,,15
 970              		.global	bmp280_reset
 971              		.thumb
 972              		.thumb_func
 973              		.type	bmp280_reset, %function
 974              	bmp280_reset:
 975              		@ args = 0, pretend = 0, frame = 0
 976              		@ frame_needed = 0, uses_anonymous_args = 0
 977              		@ link register save eliminated.
 978 0000 E023     		movs	r3, #224
 979 0002 80F85830 		strb	r3, [r0, #88]
 980 0006 0121     		movs	r1, #1
 981 0008 0022     		movs	r2, #0
 982 000a FFF7FEBF 		b	I2CSensor_transact_buf
 983              		.size	bmp280_reset, .-bmp280_reset
 984 000e 00BF     		.section	.text.bmp280_readPressure,"ax",%progbits
 985              		.align	2
 986              		.p2align 4,,15
 987              		.global	bmp280_readPressure
 988              		.thumb
 989              		.thumb_func
 990              		.type	bmp280_readPressure, %function
 991              	bmp280_readPressure:
 992              		@ args = 0, pretend = 0, frame = 0
 993              		@ frame_needed = 0, uses_anonymous_args = 0
 994 0000 F723     		movs	r3, #247
 995 0002 70B5     		push	{r4, r5, r6, lr}
ARM GAS  /tmp/ccqHMXUT.s 			page 68


 996 0004 0322     		movs	r2, #3
 997 0006 0D46     		mov	r5, r1
 998 0008 80F85830 		strb	r3, [r0, #88]
 999 000c 0121     		movs	r1, #1
 1000 000e 0446     		mov	r4, r0
 1001 0010 FFF7FEFF 		bl	I2CSensor_transact_buf
 1002 0014 B8BB     		cbnz	r0, .L22
 1003 0016 94F85D30 		ldrb	r3, [r4, #93]	@ zero_extendqisi2
 1004 001a 94F85C10 		ldrb	r1, [r4, #92]	@ zero_extendqisi2
 1005 001e 94F85E20 		ldrb	r2, [r4, #94]	@ zero_extendqisi2
 1006 0022 DFED195A 		flds	s11, .L27
 1007 0026 94ED154A 		flds	s8, [r4, #84]	@ int
 1008 002a D4ED147A 		flds	s15, [r4, #80]	@ int
 1009 002e 9FED175A 		flds	s10, .L27+4
 1010 0032 9FED176A 		flds	s12, .L27+8
 1011 0036 DFED176A 		flds	s13, .L27+12
 1012 003a 1B01     		lsls	r3, r3, #4
 1013 003c 03EB0133 		add	r3, r3, r1, lsl #12
 1014 0040 03EB1212 		add	r2, r3, r2, lsr #4
 1015 0044 07EE102A 		fmsr	s14, r2	@ int
 1016 0048 B8EEC77A 		fsitos	s14, s14
 1017 004c F8EEC44A 		fsitos	s9, s8
 1018 0050 35EEC77A 		fsubs	s14, s11, s14
 1019 0054 FAEEE87A 		vcvt.f32.s32	s15, s15, #15
 1020 0058 67EE244A 		fmuls	s9, s14, s9
 1021 005c 67EE277A 		fmuls	s15, s14, s15
 1022 0060 67EE244A 		fmuls	s9, s14, s9
 1023 0064 94ED134A 		flds	s8, [r4, #76]	@ int
 1024 0068 E4EE857A 		vfma.f32	s15, s9, s10
 1025 006c F8EEC45A 		fsitos	s11, s8
 1026 0070 E5EE867A 		vfma.f32	s15, s11, s12
 1027 0074 77EE277A 		fadds	s15, s14, s15
 1028 0078 C7EEA67A 		fdivs	s15, s15, s13
 1029 007c C4ED097A 		fsts	s15, [r4, #36]
 1030 0080 0DB1     		cbz	r5, .L22
 1031 0082 C5ED007A 		fsts	s15, [r5]
 1032              	.L22:
 1033 0086 70BD     		pop	{r4, r5, r6, pc}
 1034              	.L28:
 1035              		.align	2
 1036              	.L27:
 1037 0088 00008049 		.word	1233125376
 1038 008c 00000030 		.word	805306368
 1039 0090 0000803D 		.word	1031798784
 1040 0094 00007A44 		.word	1148846080
 1041              		.size	bmp280_readPressure, .-bmp280_readPressure
 1042 0098 AFF30080 		.section	.text.bmp280_readTemperature,"ax",%progbits
 1042      AFF30080 
 1043              		.align	2
 1044              		.p2align 4,,15
 1045              		.global	bmp280_readTemperature
 1046              		.thumb
 1047              		.thumb_func
 1048              		.type	bmp280_readTemperature, %function
 1049              	bmp280_readTemperature:
 1050              		@ args = 0, pretend = 0, frame = 0
 1051              		@ frame_needed = 0, uses_anonymous_args = 0
ARM GAS  /tmp/ccqHMXUT.s 			page 69


 1052 0000 FA23     		movs	r3, #250
 1053 0002 70B5     		push	{r4, r5, r6, lr}
 1054 0004 0322     		movs	r2, #3
 1055 0006 0D46     		mov	r5, r1
 1056 0008 80F85830 		strb	r3, [r0, #88]
 1057 000c 0121     		movs	r1, #1
 1058 000e 0446     		mov	r4, r0
 1059 0010 FFF7FEFF 		bl	I2CSensor_transact_buf
 1060 0014 C8BB     		cbnz	r0, .L31
 1061 0016 94F85D30 		ldrb	r3, [r4, #93]	@ zero_extendqisi2
 1062 001a 94F85C10 		ldrb	r1, [r4, #92]	@ zero_extendqisi2
 1063 001e 94F85E20 		ldrb	r2, [r4, #94]	@ zero_extendqisi2
 1064 0022 94ED0A4A 		flds	s8, [r4, #40]	@ int
 1065 0026 DFED197A 		flds	s15, .L36
 1066 002a DFED195A 		flds	s11, .L36+4
 1067 002e DFED194A 		flds	s9, .L36+8
 1068 0032 9FED195A 		flds	s10, .L36+12
 1069 0036 9FED196A 		flds	s12, .L36+16
 1070 003a 1B01     		lsls	r3, r3, #4
 1071 003c 03EB0133 		add	r3, r3, r1, lsl #12
 1072 0040 03EB1213 		add	r3, r3, r2, lsr #4
 1073 0044 B8EEC47A 		fsitos	s14, s8
 1074 0048 04EE103A 		fmsr	s8, r3	@ int
 1075 004c 67EEC77A 		fnmuls	s15, s15, s14
 1076 0050 F8EEC46A 		fsitos	s13, s8
 1077 0054 24EEC77A 		fnmuls	s14, s9, s14
 1078 0058 E6EEA57A 		vfma.f32	s15, s13, s11
 1079 005c D4ED0C4A 		flds	s9, [r4, #48]	@ int
 1080 0060 67EEA77A 		fmuls	s15, s15, s15
 1081 0064 F8EEE45A 		fsitos	s11, s9
 1082 0068 A6EE857A 		vfma.f32	s14, s13, s10
 1083 006c 67EEA57A 		fmuls	s15, s15, s11
 1084 0070 D4ED0B5A 		flds	s11, [r4, #44]	@ int
 1085 0074 F8EEE56A 		fsitos	s13, s11
 1086 0078 E7EE267A 		vfma.f32	s15, s14, s13
 1087 007c C7EE867A 		fdivs	s15, s15, s12
 1088 0080 C4ED087A 		fsts	s15, [r4, #32]
 1089 0084 0DB1     		cbz	r5, .L31
 1090 0086 C5ED007A 		fsts	s15, [r5]
 1091              	.L31:
 1092 008a 70BD     		pop	{r4, r5, r6, pc}
 1093              	.L37:
 1094              		.align	2
 1095              	.L36:
 1096 008c 00000039 		.word	956301312
 1097 0090 00000037 		.word	922746880
 1098 0094 0000803A 		.word	981467136
 1099 0098 00008038 		.word	947912704
 1100 009c 0000A045 		.word	1168113664
 1101              		.size	bmp280_readTemperature, .-bmp280_readTemperature
 1102              		.section	.rodata.str1.4,"aMS",%progbits,1
 1103              		.align	2
 1104              	.LC0:
 1105 0000 424D5032 		.ascii	"BMP280\000"
 1105      383000
 1106 0007 00       		.space	1
 1107              	.LC1:
ARM GAS  /tmp/ccqHMXUT.s 			page 70


 1108 0008 424D5032 		.ascii	"BMP280: ERROR READING T-PARAMETER\000"
 1108      38303A20 
 1108      4552524F 
 1108      52205245 
 1108      4144494E 
 1109 002a 0000     		.space	2
 1110              	.LC2:
 1111 002c 424D5032 		.ascii	"BMP280: ERROR READING P-PARAMETER\000"
 1111      38303A20 
 1111      4552524F 
 1111      52205245 
 1111      4144494E 
 1112 004e 0000     		.section	.bss.sensCount,"aw",%nobits
 1113              		.set	.LANCHOR0,. + 0
 1114              		.type	sensCount, %object
 1115              		.size	sensCount, 1
 1116              	sensCount:
 1117 0000 00       		.space	1
 1118              		.comm	__gnu_lto_v1,1,1
 1119              		.ident	"GCC: (GNU Tools for ARM Embedded Processors) 4.8.4 20140526 (release) [ARM/embedded-4_8-br
ARM GAS  /tmp/ccqHMXUT.s 			page 71


DEFINED SYMBOLS
                            *ABS*:0000000000000000 bmp280.c
     /tmp/ccqHMXUT.s:815    .text.chprintf.constprop.2:0000000000000000 $t
     /tmp/ccqHMXUT.s:820    .text.chprintf.constprop.2:0000000000000000 chprintf.constprop.2
     /tmp/ccqHMXUT.s:839    .text.chprintf.constprop.2:0000000000000020 $d
     /tmp/ccqHMXUT.s:842    .text.bmp280_init:0000000000000000 $t
     /tmp/ccqHMXUT.s:848    .text.bmp280_init:0000000000000000 bmp280_init
     /tmp/ccqHMXUT.s:948    .text.bmp280_init:00000000000000e0 $d
     /tmp/ccqHMXUT.s:955    .text.bmp280_stop:0000000000000000 $t
     /tmp/ccqHMXUT.s:961    .text.bmp280_stop:0000000000000000 bmp280_stop
     /tmp/ccqHMXUT.s:968    .text.bmp280_reset:0000000000000000 $t
     /tmp/ccqHMXUT.s:974    .text.bmp280_reset:0000000000000000 bmp280_reset
     /tmp/ccqHMXUT.s:985    .text.bmp280_readPressure:0000000000000000 $t
     /tmp/ccqHMXUT.s:991    .text.bmp280_readPressure:0000000000000000 bmp280_readPressure
     /tmp/ccqHMXUT.s:1037   .text.bmp280_readPressure:0000000000000088 $d
     /tmp/ccqHMXUT.s:1043   .text.bmp280_readTemperature:0000000000000000 $t
     /tmp/ccqHMXUT.s:1049   .text.bmp280_readTemperature:0000000000000000 bmp280_readTemperature
     /tmp/ccqHMXUT.s:1096   .text.bmp280_readTemperature:000000000000008c $d
     /tmp/ccqHMXUT.s:1103   .rodata.str1.4:0000000000000000 $d
     /tmp/ccqHMXUT.s:1116   .bss.sensCount:0000000000000000 sensCount
     /tmp/ccqHMXUT.s:1117   .bss.sensCount:0000000000000000 $d
                            *COM*:0000000000000001 __gnu_lto_v1
     /tmp/ccqHMXUT.s:841    .text.chprintf.constprop.2:0000000000000024 $t
     /tmp/ccqHMXUT.s:954    .text.bmp280_init:00000000000000f4 $t
     /tmp/ccqHMXUT.s:1042   .text.bmp280_readPressure:0000000000000098 $t

UNDEFINED SYMBOLS
chvprintf
SD6
I2CSensor_init
I2CSensor_transact_buf
chThdSleep
I2CSensor_stop
