ARM GAS  /tmp/ccW9nGcV.s 			page 1


   1              		.syntax unified
   2              		.cpu cortex-m4
   3              		.eabi_attribute 27, 3
   4              		.eabi_attribute 28, 1
   5              		.fpu fpv4-sp-d16
   6              		.eabi_attribute 20, 1
   7              		.eabi_attribute 21, 1
   8              		.eabi_attribute 23, 3
   9              		.eabi_attribute 24, 1
  10              		.eabi_attribute 25, 1
  11              		.eabi_attribute 26, 1
  12              		.eabi_attribute 30, 2
  13              		.eabi_attribute 34, 1
  14              		.eabi_attribute 18, 4
  15              		.thumb
  16              		.file	"bmp280.c"
  17              		.section	.gnu.lto_.jmpfuncs.1b9243c300128a07,"",%progbits
  18 0000 789C8D50 		.ascii	"x\234\215P;\016\202@\024\234\367\026XKO@\210\261\260"
  18      3B0E8240 
  18      149CF716 
  18      584B4F40 
  18      88B1B0
  19 0013 313156C6 		.ascii	"11V\306J\214\204X\200dCa\343\001\266\260\245\261\241"
  19      4A8C8458 
  19      80644361 
  19      E301B6B0 
  19      A5B1A1
  20 0026 F408345E 		.ascii	"\364\0104^\324\312\375HB!\35263\231\2317\273o\031\214"
  20      D4CAFD48 
  20      4221EA36 
  20      33999937 
  20      BB6F198C 
  21 003a 4FE74240 		.ascii	"O\347B@i0\2020L\010C\033\203\0005\3266C|&M\226\223d"
  21      69308230 
  21      4C08431B 
  21      830035D6 
  21      36437C26 
  22 0052 BEE1D9DE 		.ascii	"\276\341\331\336\333\251&\272:\015N\351\254\3021\350"
  22      DBA926BA 
  22      3A0D4EE9 
  22      ACC231E8 
  23 0062 D1763B4D 		.ascii	"\321v;M\3029\"\200\246\000\357\202\220zb+\177\364\314"
  23      C2392280 
  23      A600EF82 
  23      907A622B 
  23      7FF4CC
  24 0075 FFEC91BD 		.ascii	"\377\354\221\275\345\336K\026\270\361{\271L\264\030"
  24      E5DE4B16 
  24      B8F17BB9 
  24      4CB418
  25 0084 16CB18B9 		.ascii	"\026\313\030\271/\236\270H \330\317S\277oHc\227\331"
  25      2F9EB848 
  25      20D8CF53 
  25      BF6F4863 
  25      97D9
  26 0096 1F1263A6 		.ascii	"\037\022c\246\231\226\337L\314\366E\265\336\254\266"
  26      9996DF4C 
ARM GAS  /tmp/ccW9nGcV.s 			page 2


  26      CCF645B5 
  26      DEACB6
  27 00a5 49A6D449 		.ascii	"I\246\324I%*K\017\3072O\252e\225\252\264\310\352L\215"
  27      252A4B0F 
  27      C7324FAA 
  27      6595AAB4 
  27      C8EA4C8D 
  28 00b9 45EA4144 		.ascii	"E\352AD\372\010^\2762=\312"
  28      FA085EBE 
  28      323DCA
  29              		.text
  30              		.section	.gnu.lto_.inline.1b9243c300128a07,"",%progbits
  31 0000 789CAD8E 		.ascii	"x\234\255\216\261\015\3020\020E\377\267\317q\"\202Q"
  31      B10DC230 
  31      1045FFB7 
  31      CF712282 
  31      51
  32 0011 84681012 		.ascii	"\204h\020\022ti\351\230\002j6\000\006\211\224\222\021"
  32      7469E998 
  32      026A3600 
  32      06899492 
  32      11
  33 0022 28188021 		.ascii	"(\030\200!\330\001F\240\241\247\204s\010\"\022%>\351"
  33      D80146A0 
  33      A1A78473 
  33      08221225 
  33      3EE9
  34 0034 CE27BFFF 		.ascii	"\316'\277\377\375\015\014~\235%\233\231@z\023D(9L?,"
  34      FD0D0C7E 
  34      9D259B99 
  34      407A1344 
  34      28394C3F 
  35 0049 E10260F7 		.ascii	"\341\002`\367+-\233G\200X\334\015\011U\232\371\343\024"
  35      2B2D9B47 
  35      8058DC0D 
  35      09559AF9 
  35      E314
  36 005b 10AE6713 		.ascii	"\020\256g\023%6\247\022.\020\366\222v\367j\014\244\005"
  36      2536A712 
  36      2E10F692 
  36      76F76A0C 
  36      A405
  37 006d E01B332D 		.ascii	"\340\0333-@\340\007\255\325\327\327\322\177\355J8dE"
  37      40E007AD 
  37      D5D7D7D2 
  37      7FED4A38 
  37      6445
  38 007f FBCE9B87 		.ascii	"\373\316\233\207\257\313\010\274Si\3560\242p\273\346"
  38      AFCB08BC 
  38      5369EE30 
  38      A270BBE6 
  39 008f 8E9906DE 		.ascii	"\216\231\006\336\264\267(\2426\347\352\262QJ=\234\201"
  39      B4B728A2 
  39      36E7EAB2 
  39      514A3D9C 
  39      81
  40 00a0 4711137B 		.ascii	"G\021\023{\307\311\377\315\011O\205\333\"\277"
ARM GAS  /tmp/ccW9nGcV.s 			page 3


  40      C7C9FFCD 
  40      094F85DB 
  40      22BF
  41              		.text
  42              		.section	.gnu.lto_.pureconst.1b9243c300128a07,"",%progbits
  43 0000 789C6362 		.ascii	"x\234cb`b\340e\200\0006\006\011F)\026\011V)6)v)\000"
  43      6062E065 
  43      80003606 
  43      09462916 
  43      09562936 
  44 0018 05CA00C7 		.ascii	"\005\312\000\307"
  45              		.text
  46              		.section	.gnu.lto_chprintf.1b9243c300128a07,"",%progbits
  47 0000 789C8550 		.ascii	"x\234\205P\315J\002Q\024>\337\0355uc\333v\342\0034\213"
  47      CD4A0251 
  47      143EDF1D 
  47      357563DB 
  47      76E20334 
  48 0015 22E80D7A 		.ascii	"\"\350\015z\000\203Z\3058\216z\011\035\321Q\260\026"
  48      00835AC5 
  48      388E7A09 
  48      1DD151B0 
  48      16
  49 0026 5EC1C245 		.ascii	"^\301\302E\013ig\021)\321:\244\027\030\202\332DI\273"
  49      0B696711 
  49      29D13AA4 
  49      171882DA 
  49      4449BB
  50 0039 162D2497 		.ascii	"\026-$\227\265h\321*\202\351\336\031\024\372\201\016"
  50      B568D12A 
  50      82E9DE19 
  50      14FA810E 
  51 0049 DC7B7EBE 		.ascii	"\334{~\276s\276\363\303\210\321OY\220o\010\2425\251"
  51      73BEF3C3 
  51      88D14F59 
  51      906F08A2 
  51      35A9
  52 005b A11158F7 		.ascii	"\241\021X\367\236\250\025e\2002\010\324dhnB\245\262"
  52      9EA81565 
  52      803208D4 
  52      64686E42 
  52      A5B2
  53 006d 140D84DB 		.ascii	"\024\015\204\333\035_O\036\321\023n\273/>=\017\340\220"
  53      1D5F4F1E 
  53      D1136EBB 
  53      2F3E3D0F 
  53      E090
  54 007f B42B2013 		.ascii	"\264+ \023\264!\035$}\305B\337\373\250Z\321uOon!\016"
  54      B4211D24 
  54      7DC542DF 
  54      FBA85AD1 
  54      754F6F6E 
  55 0095 45EBCDF3 		.ascii	"E\353\315\363\022\034\032\243\325\377\012/\230\373\354"
  55      121C1AA3 
  55      D5FF0A2F 
  55      98FBEC
  56 00a4 794FC3F7 		.ascii	"yO\303\367\203W\364XLC\021\024\222\037\"d\340\014)\225"
ARM GAS  /tmp/ccW9nGcV.s 			page 4


  56      8357F458 
  56      4C431114 
  56      921F2264 
  56      E00C2995 
  57 00b8 13A6B624 		.ascii	"\023\246\266$O\032\030H\177\0325\375\241\323\362W\233"
  57      4F1A1848 
  57      7F1A35FD 
  57      A1D3F257 
  57      9B
  58 00c9 AC8329AD 		.ascii	"\254\203)\255\215ho\3343\015\234#,\321]\372\020\035"
  58      8D686FDC 
  58      330D9C23 
  58      2CD15DFA 
  58      101D
  59 00db 31CF1132 		.ascii	"1\317\0212\341\247\313\310\016Gx\312\344g\251\2514\""
  59      E1A7CBC8 
  59      0E4778CA 
  59      E467A9A9 
  59      3422
  60 00ed 2E3BD288 		.ascii	".;\322\210\366\307G\223x\200\344\021\231\021\314\231"
  60      F6C74793 
  60      7880E411 
  60      9911CC99 
  61 00fd 088E9B87 		.ascii	"\010\216\233\207\226G( \340\210\252\222\366\370\370"
  61      96472820 
  61      E088AA92 
  61      F6F8F8
  62 010c 77C798A9 		.ascii	"w\307\230\251H\377\356\310\021'\272\243\253\027\026"
  62      48FFEEC8 
  62      1127BAA3 
  62      AB1716
  63 011b 04027099 		.ascii	"\004\002p\231.EG\235[\312\003\265\372'\332l\214\340"
  63      2E45479D 
  63      5BCA03B5 
  63      FA27DA6C 
  63      8CE0
  64 012d 5469B983 		.ascii	"Ti\271\203\334Q\315\261\244\027\354\242\245\233v\266"
  64      DC51CDB1 
  64      A417ECA2 
  64      A59B76B6 
  65 013d A167ADBA 		.ascii	"\241g\255\272n\026x\206\333U\335\251\324J\333\2724\352"
  65      6E167886 
  65      DB55DDA9 
  65      D44ADBBA 
  65      34EA
  66 014f 4685DBB5 		.ascii	"F\205\333\265\252\004\312\025^rr\213\005bF9\221\263"
  66      AA04CA15 
  66      5E72728B 
  66      05624639 
  66      91B3
  67 0161 2B45C371 		.ascii	"+E\303q\254\354V\246\341X\325/\251H\201#"
  67      ACEC56A6 
  67      E158D52F 
  67      A9488123 
  68              		.text
  69              		.section	.gnu.lto_bmp280_init.1b9243c300128a07,"",%progbits
  70 0000 789CAD56 		.ascii	"x\234\255V[h\024g\024>gfwfvg/1\033\315}]\027r\321l."
ARM GAS  /tmp/ccW9nGcV.s 			page 5


  70      5B681467 
  70      143E6766 
  70      77667667 
  70      2F311BCD 
  71 001b 0AD25628 		.ascii	"\012\322V(m\332\204\342\203m\272$\364B\013\215A\206"
  71      6DDA84E2 
  71      836DBA24 
  71      F4420B8D 
  71      4186
  72 002d 79886D4D 		.ascii	"y\210mM\354C\363\340\344\322\">H\350Sj\025\024\021\323"
  72      EC43F3E0 
  72      E4D2223E 
  72      48E8536A 
  72      151411D3 
  73 0041 9B059F02 		.ascii	"\233\005\237\002-\232\200\224\2105im_\266\004\272\010"
  73      2D9A8094 
  73      8835696D 
  73      5FB604BA 
  73      08
  74 0052 D5508A0D 		.ascii	"\325P\212\015\024Jk\305\3519\363\317\314f\343\006S\364"
  74      144A6BC5 
  74      E939F3CF 
  74      CC66E306 
  74      53F4
  75 0064 87FC9773 		.ascii	"\207\374\227s\316\367\235\377?\227\331H \301\332q\216"
  75      CEF79DFF 
  75      3F97D948 
  75      20C1DA71 
  75      8E
  76 0075 FE722180 		.ascii	"\376r!\2001Z1\016(M.\000\214j\022\252b#K\201o\236\000"
  76      315A310E 
  76      284D2E00 
  76      8C6A12AA 
  76      62234B81 
  77 008c 2B1CFC69 		.ascii	"+\034\374i\013X\221\000*B\034\3646\2120\234\323TI\376"
  77      0B589100 
  77      2A421CF4 
  77      368A309C 
  77      D35449FE 
  78 00a0 6E0F196A 		.ascii	"n\017\031jW\022d\250a\224\305\030\222\302\016\\w\340"
  78      571264A8 
  78      6194C518 
  78      92C20E5C 
  78      77E0
  79 00b2 618C0894 		.ascii	"a\214\010\224\356m\"\302nN\213J\241\351o\201,c\313*"
  79      EE6D22C2 
  79      6E4E8B4A 
  79      A1E96F81 
  79      2C63CB2A 
  80 00c6 59C61059 		.ascii	"Y\306\020Y\016\010G$9\020TT-\024\326#\321\030\036y\015"
  80      0E084724 
  80      39105454 
  80      2D14D623 
  80      D1181E79 
  81 00db F9DA8134 		.ascii	"\371\332\2014\234\261\254\217\362\277.\034\257<\226"
  81      9CB1AC8F 
  81      F2BF2E1C 
ARM GAS  /tmp/ccW9nGcV.s 			page 6


  81      AF3C96
  82 00ea B726ADFB 		.ascii	"\267&\255\373\266\215&\322\003+\020\006\020^\245\003"
  82      B68D26D2 
  82      032B1006 
  82      105EA503 
  83 00fa 6ACE2261 		.ascii	"j\316\"a\361\213\005\322\2720=&\237\266\356\331\266"
  83      F18B05D2 
  83      BA303D26 
  83      9FB6EED9 
  83      B6
  84 010b ECC05225 		.ascii	"\354\300R%a\203\270\0267{\357\215)kb\326\266\2371Q\226"
  84      6183B816 
  84      377BEF8D 
  84      296B62D6 
  84      B69F3151 
  85 0120 20B3216F 		.ascii	" \263!o\223\263\366\357\363HNGWl;nb@\202\266\0020%\200"
  85      93B3F6EF 
  85      F3484E47 
  85      576C3B6E 
  85      624082B6 
  86 0138 8162E057 		.ascii	"\201b\340W\322l\336\266O\236\237\334\275\023\241\037"
  86      D26CDEB6 
  86      4F9E9FDC 
  86      BD13A11F 
  87 0148 CF619A6E 		.ascii	"\317a\232n)V\215\3263\264\206h=K\253\216\203\210\021"
  87      29568DD6 
  87      33B48668 
  87      3D4BAB8E 
  87      838811
  88 015b 303118A5 		.ascii	"01\030\245I\211\321\244\306I&\225\321$\227\323QK\360"
  88      4989D1A4 
  88      C6492695 
  88      D12497D3 
  88      514BF0
  89 016e 5441136C 		.ascii	"TA\023l\346\251\212\220\347\011Y\315\207\032\326\325"
  89      E6A98A90 
  89      E70959CD 
  89      871AD6D5 
  90 017e F254C7C7 		.ascii	"\362T\307\307z\336%y\332\346\372K\263\270\301\2054\262"
  90      7ADE2579 
  90      DAE6FA4B 
  90      B3B8C185 
  90      34B2
  91 0190 A68925CD 		.ascii	"\246\211%\315\274\333\316\323\016>\266\360.\303S\273"
  91      BCDBCED3 
  91      0E3EB6F0 
  91      2EC353BB 
  92 01a0 8BEB7057 		.ascii	"\213\353pW\032A\230\2400\244\304Y\020\001\007\200F/"
  92      1A4198A0 
  92      30A4C459 
  92      10010780 
  92      462F
  93 01b2 CD94F33E 		.ascii	"\315\224\363>\224h\221\257\303\330\325\277\027b\375"
  93      946891AF 
  93      C3D8D5BF 
  93      1762FD
  94 01c1 F82906C1 		.ascii	"\370)\006\301@\355\02381jYe\024\354\021\270k\035\345"
ARM GAS  /tmp/ccW9nGcV.s 			page 7


  94      40ED1338 
  94      316A5965 
  94      14EC11B8 
  94      6B1DE5
  95 01d4 5D486485 		.ascii	"]Hd\205\203\026r\203u\035\306\217\312\036&D0V\312\350"
  95      83167283 
  95      751DC68F 
  95      CA1E2644 
  95      3056CAE8 
  96 01e8 68C6F60A 		.ascii	"h\306\366\012\305F\230\014^\011rw\374\317\234\344\361"
  96      C546980C 
  96      5E097277 
  96      FCCF9CE4 
  96      F1
  97 01f9 4546E07D 		.ascii	"EF\340}\212m\013|f\321x\327\3040Q\021D7Pgh\304\201\356"
  97      8A6D0B7C 
  97      66D178D7 
  97      C4305111 
  97      44375067 
  98 0211 5F9D7887 		.ascii	"_\235x\207\342\242\177\243\250\303\240\270\014\277\020"
  98      E2A27FA3 
  98      A8C3A0B8 
  98      0CBF10
  99 0220 265A9A02 		.ascii	"&Z\232\002\327P\\\210x\0241\207Bu)N)&\306JS\254j\361"
  99      D7505C88 
  99      78143187 
  99      4275294E 
  99      2926C64A 
 100 0238 453861CD 		.ascii	"E8a\315\004\005\003\200\377\352\370\200\353\207\236"
 100      04050380 
 100      FFEAF880 
 100      EB879E
 101 0247 6660DCC0 		.ascii	"f`\334\3002\272!y`\226\262f\307n\312\262\376!\027\233"
 101      32BA2179 
 101      6096B266 
 101      C76ECAB2 
 101      FE21179B 
 102 025b 92B0FB94 		.ascii	"\222\260\373\2245\365\254\211\345\340\322\230\230\020"
 102      35F5AC89 
 102      E5E0D298 
 102      9810
 103 0269 E47D28C3 		.ascii	"\344}(\303L%\347\353\316\370\3477\375\247\226\033L^"
 103      4C25E7EB 
 103      CEF8E737 
 103      FDA7961B 
 103      4C5E
 104 027b 948F0449 		.ascii	"\224\217\004I\231[\353\022\317\2723\376\033z\272\012"
 104      995BEB12 
 104      CFBA33FE 
 104      1B7ABA0A 
 105 028b 83F9C8FC 		.ascii	"\203\371\310\374\230o\276\231\244N\372\244\242\364\265"
 105      986FBE99 
 105      A44EFAA4 
 105      A2F4B5
 106 029a C217FCF2 		.ascii	"\302\027\374\3627I\341\006\341\251\207\204\321\361\351"
 106      3749E106 
 106      E1A98784 
ARM GAS  /tmp/ccW9nGcV.s 			page 8


 106      D1F1E9
 107 02a9 07838839 		.ascii	"\007\203\2109\"\037\346\257\365x\236\252\374\220T\014"
 107      221FE6AF 
 107      F5789EAA 
 107      FC90540C 
 108 02b9 B871A390 		.ascii	"\270q\243\220\270\245\343^\301d\330<\\\271=\367\361"
 108      B8A5E35E 
 108      C164D83C 
 108      5CB93DF7 
 108      F1
 109 02ca A08F63DD 		.ascii	"\240\217c\335\226\325\315\332\207\001\270Q\306\301X"
 109      96D5CDDA 
 109      8701B851 
 109      C6C158
 110 02d9 9AF9B1C9 		.ascii	"\232\371\261\311\263\253n\205L\341\272#\017I\231s\335"
 110      B3AB6E85 
 110      4CE1BA23 
 110      0F499973 
 110      DD
 111 02ea E202A048 		.ascii	"\342\002\240H\371UXC|N\244\276\364#UKR\007\245\011\363"
 111      F9555843 
 111      7C4EA4BE 
 111      F423554B 
 111      5207A509 
 112 02ff A5EFB77A 		.ascii	"\245\357\267z\252\272\"\3279\334\210oX\343\373\222\237"
 112      AABA22D7 
 112      39DC886F 
 112      58E3FB92 
 112      9F
 113 0310 A57A2214 		.ascii	"\245z\"\024I\035\277\357_(\351\\\240\3361\276\272\242"
 113      491DBFEF 
 113      5F28E95C 
 113      A0DE31BE 
 113      BAA2
 114 0322 1765E915 		.ascii	"\027e\351\025\023+]\337/\233XU\332\265\354F\274\334"
 114      132B5DDF 
 114      2F9B5855 
 114      DAB5EC46 
 114      BCDC
 115 0334 CF50D28B 		.ascii	"\317P\322\213f\020n)\362\"|\220_|\375\201\362\255\036"
 115      66106E29 
 115      F2227C90 
 115      5F7CFD81 
 115      F2AD1E
 116 0347 70914262 		.ascii	"p\221Bb]&\312\232A\014\270\206^\371\222\2646\011O\213"
 116      5D26CA9A 
 116      410CB886 
 116      5EF992B4 
 116      36094F8B 
 117 035b F2AD2B94 		.ascii	"\362\255+\224o\275\347C\021\345Ko:{\323\177\3246*_\377"
 117      6FBDE743 
 117      11E54B6F 
 117      3A7BD37F 
 117      D4362A5F 
 118 0370 DB21EC54 		.ascii	"\333!\354T8\275U\236\207\211[\243\272g\205~}\212\221"
 118      38BD559E 
 118      87895BA3 
ARM GAS  /tmp/ccW9nGcV.s 			page 9


 118      BA67857E 
 118      7D8A91
 119 0383 03210190 		.ascii	"\003!\001\220\246e\"Q\346\203\214\324\370\203\306\332"
 119      A6652251 
 119      E6838CD4 
 119      F883C6DA 
 120 0393 7657AB9E 		.ascii	"vW\253\236\274\246\260\"\004\364['|\377q\303Og\332@"
 120      BCA6B022 
 120      04F45B27 
 120      7CFF71C3 
 120      4F67DA40 
 121 03a7 C9313C5E 		.ascii	"\3111<^\374\341z\364\312O\213\312_\362+\277\341\177"
 121      FCE17AF4 
 121      CA4F8BCA 
 121      5FF22BBF 
 121      E17F
 122 03b9 55FED77E 		.ascii	"U\376\327~\3457\224\250\3740\374\265S|\006\376\375\331"
 122      E53794A8 
 122      FC30FCB5 
 122      537C06FE 
 122      FDD9
 123 03cb 8F63A3C1 		.ascii	"\217c\243\301\264\\\223+\011O\326\3648\333\241\231\370"
 123      B45C932B 
 123      094FD6F4 
 123      38DBA199 
 123      F8
 124 03dc D6B4C376 		.ascii	"\326\264\303v\222\256\323\016;\036k;\264\020\341\003"
 124      92AED30E 
 124      3B1E6B3B 
 124      B410E103 
 125 03ec ED90712E 		.ascii	"\355\220q.\320\262\201vH\226v\035p\323\320\350\247-"
 125      D0B28176 
 125      4896761D 
 125      70D3D0E8 
 125      A72D
 126 03fe E3855887 		.ascii	"\343\205X\207\213\025N;,?b;\274\265~;D\0125y\273\320"
 126      8B154E3B 
 126      2C3F623B 
 126      BCB57E3B 
 126      440A3579 
 127 0414 0F1D5E4D 		.ascii	"\017\035^M\026\372!\012\364\237\031\0267\204\260)\204"
 127      16FA210A 
 127      F49F1916 
 127      3784B029 
 127      84
 128 0425 2C079281 		.ascii	",\007\222\201\355\032\022AD\364B\214{\341\007\030\315"
 128      ED1A1241 
 128      44F4428C 
 128      7BE10718 
 128      CD
 129 0436 7B29F446 		.ascii	"{)\364F/\325\354\262\312q\337\324u\310|\357\300\241"
 129      2FD5ECB2 
 129      CA71DFD4 
 129      75C87CEF 
 129      C0A1
 130 0448 A1F6FD83 		.ascii	"\241\366\375\203\357\354z\262\243m\000\364\241\003\007"
 130      EFEC7AB2 
ARM GAS  /tmp/ccW9nGcV.s 			page 10


 130      A36D00F4 
 130      A10307
 131 0457 879E7FFB 		.ascii	"\207\236\177\373\360\301\341\266\216U\373]h*C\303\375"
 131      F0C1E1B6 
 131      8E55FB5D 
 131      682A43C3 
 131      FD
 132 0468 C38787D4 		.ascii	"\303\207\207\324\347\366\365\220)\244\305\272'\325\235"
 132      E7F6F590 
 132      29A4C5BA 
 132      27D59D
 133 0477 CDBE944D 		.ascii	"\315\276\224Me\273;\273\366\276\370B\252\267\265\247"
 133      65BB3BBB 
 133      F6BEF842 
 133      AAB7B5A7 
 134 0487 33DBB9AF 		.ascii	"3\333\271\257\273\267;\273\236I\317*\223\377\000K,M"
 134      BBB73BBB 
 134      9E49CF2A 
 134      93FF004B 
 134      2C4D
 135 0499 58       		.ascii	"X"
 136              		.text
 137              		.section	.gnu.lto_bmp280_stop.1b9243c300128a07,"",%progbits
 138 0000 789C6362 		.ascii	"x\234cb`b@\007\222@|\031\210\205\201\230\221\231\201"
 138      60624007 
 138      92407C19 
 138      88858198 
 138      919981
 139 0013 9169C239 		.ascii	"\221i\3029\006\206F\016&FF\020\203\201\221\241\236\211"
 139      0686460E 
 139      26464610 
 139      838191A1 
 139      9E89
 140 0025 B13E9211 		.ascii	"\261>\222\021\254v=\323\201\007\377\377\257\373\322"
 140      AC763DD3 
 140      8107FFFF 
 140      AFFBD2
 141 0034 FA889D9D 		.ascii	"\372\210\235\235\2211\227\021h\\&#\003\013\220\305\310"
 141      91319711 
 141      685C2623 
 141      030B90C5 
 141      C8
 142 0045 06648114 		.ascii	"\006d\201\024\2612\26444LP``H\006k\011\001\222 sB\031"
 142      B132B434 
 142      344C5060 
 142      6048066B 
 142      09019220 
 143 005c 994034F3 		.ascii	"\231@4\363Y\206\246_\315\357/3'2.ddeHgd\252f\250\002"
 143      5986A65F 
 143      CDEF2F33 
 143      27322E64 
 143      64654867 
 144 0075 1AA1CDB0 		.ascii	"\032\241\315\260\252\001\010\3523\031\231f3\314b\314"
 144      AA0108EA 
 144      33199966 
 144      33CC62CC 
 145 0085 64644E67 		.ascii	"ddNgd\214\000\322,`{\223\030\221\034|\236\241\365\000"
ARM GAS  /tmp/ccW9nGcV.s 			page 11


 145      648C00D2 
 145      2C607B93 
 145      18911C7C 
 145      9EA1F500 
 146 0099 2B4C3F5B 		.ascii	"+L?[5\303\257\206\216\006\201LF\326dF\210*\240\241\351"
 146      35C3AF86 
 146      8E06814C 
 146      46D66446 
 146      882AA0A1 
 147 00ae 8C2C9940 		.ascii	"\214,\231@\0271\\d`\204+\204h\016\001*\002\272\003\024"
 147      17315C64 
 147      60842B84 
 147      680E012A 
 147      02BA0314 
 148 00c2 0C822E45 		.ascii	"\014\202.E\231e\251E\305\372I\271\005F\026\006z\311"
 148      9965A945 
 148      C5FA49B9 
 148      05461606 
 148      7AC9
 149 00d4 0C0037E2 		.ascii	"\014\0007\3425x"
 149      3578
 150              		.text
 151              		.section	.gnu.lto_bmp280_reset.1b9243c300128a07,"",%progbits
 152 0000 789C6362 		.ascii	"x\234cb`b@\007\222@l\302\310\300 \014\244\031\231\031"
 152      60624007 
 152      92406CC2 
 152      C8C0200C 
 152      A4199919 
 153 0014 1899269C 		.ascii	"\030\231&\234c`h\344`bd\0041\030\030\031\352\231\030"
 153      636068E4 
 153      60626404 
 153      31181819 
 153      EA9918
 154 0027 EB2319C1 		.ascii	"\353#\031\301j\3273\035x\360\377\377\272\031\307\026"
 154      6AD7331D 
 154      78F0FFFF 
 154      BA19C716 
 155 0037 F43332B2 		.ascii	"\36432\26231\34622\2600d22\260\001\011\220\012V\206"
 155      3331E632 
 155      32B03064 
 155      3232B001 
 155      09900A56 
 156 004c 96868609 		.ascii	"\226\206\206\011\012\014\014\311`\365!@\022dH(#\023"
 156      0A0C0CC9 
 156      60F52140 
 156      12644828 
 156      2313
 157 005e 88663ECB 		.ascii	"\210f>\313\320\264c\307\343\017L\211\214\013\031Y\031"
 157      D0B463C7 
 157      E30F4C89 
 157      8C0B1959 
 157      19
 158 006f 7419D634 		.ascii	"t\031\3264\000Ah&#\2236\303*\020\3230\223\221y6\303"
 158      00416826 
 158      239336C3 
 158      2A10D330 
 158      93917936 
ARM GAS  /tmp/ccW9nGcV.s 			page 12


 159 0084 2CC64C46 		.ascii	",\306LF\226tF\246\010 \315\012\2666\011b;\003H\204\015"
 159      967446A6 
 159      0820CD0A 
 159      B6360962 
 159      3B034884 
 160 0099 EE70108F 		.ascii	"\356p\020\217\351\001H\012h\356\257\346\335=^\020s\323"
 160      E901480A 
 160      68EEAFE6 
 160      DD3D5E10 
 160      73D3
 161 00ab 1959AA19 		.ascii	"\031Y\252\031\252\200\256\202\232:\037\250\216\035\273"
 161      AA80AE82 
 161      9A3A1FA8 
 161      8E1DBB
 162 00ba B18C8860 		.ascii	"\261\214\210`8\317\320v\200\025f\000[5\303\257\206\216"
 162      38CFD076 
 162      80156600 
 162      5B35C3AF 
 162      868E
 163 00cc 06814C46 		.ascii	"\006\201LF\216d\250\"\240\251`\013\031!\3662\000}\314"
 163      8E64A822 
 163      A0A9600B 
 163      1921F632 
 163      007DCC
 164 00df C9C07091 		.ascii	"\311\300p\221\201\021\256\007bN\010P=\320\257\240p\026"
 164      8111AE07 
 164      624E0850 
 164      3DD0AFA0 
 164      7016
 165 00f1 7429CA2C 		.ascii	"t)\312,K-*\326O\312-0\2620\320Kf\000\000\246\360H\010"
 165      4B2D2AD6 
 165      4FCA2D30 
 165      B230D04B 
 165      660000A6 
 166              		.text
 167              		.section	.gnu.lto_bmp280_readPressure.1b9243c300128a07,"",%progbits
 168 0000 789C8552 		.ascii	"x\234\205R;hTA\024=g\346\315~\362\221\010v\006\011\301"
 168      3B685441 
 168      143D67E6 
 168      CD7EF291 
 168      08760609 
 169 0015 2A12D74F 		.ascii	"*\022\327O#\330\211e\212\024YH\012\213\315\022\226W"
 169      23D88965 
 169      8A145948 
 169      0A8BCD12 
 169      9657
 170 0027 2C867D31 		.ascii	",\206}1\205)2\233,\222BqK\215MBH#J\252\220\024\026\033"
 170      8529329B 
 170      2C924271 
 170      4B8D4D42 
 170      48234AAA 
 171 003f 90651554 		.ascii	"\220e\025T\204\0246\201\355\304\017hc\"A\262\336\331"
 171      84143681 
 171      EDC40F68 
 171      632241B2 
 171      DED9
 172 0051 49365909 		.ascii	"I6Y\011x\341\275\231;\367\2363\347\236\367\024\024\376"
ARM GAS  /tmp/ccW9nGcV.s 			page 13


 172      78E1BD99 
 172      3BF79E33 
 172      E79EF714 
 172      14FE
 173 0063 8D5BF2DC 		.ascii	"\215[\362\334\221\343\213\2622\006\252\362{\240\230"
 173      91E38BB2 
 173      3206AAF2 
 173      7BA098
 174 0072 504A6FA7 		.ascii	"PJo\247`;\314\253\013\260]Z\005\213U\270t7.i@\343\273"
 174      603BCCAB 
 174      0BB05D5A 
 174      058B55B8 
 174      74372E69 
 175 0089 0CE93620 		.ascii	"\014\3516 f\225\016\014g\307\3508U?\226\255-\327W\277"
 175      66950E0C 
 175      67C7E838 
 175      553F96AD 
 175      2DD757BF 
 176 009d 7EE2535B 		.ascii	"~\342S[)-\331?\215\006\031R\356?Gd\211QI\330\327\\T"
 176      292DD93F 
 176      8D061952 
 176      EE3F4764 
 176      895149D8 
 177 00b4 D02EC863 		.ascii	"\320.\310c+\277\252\217\257\333\245\271\262=\020hH\255"
 177      2BBFAA8F 
 177      AFDBA5B9 
 177      B23D1068 
 177      48AD
 178 00c6 70FE7FC8 		.ascii	"p\376\177\3105U\2517\032\017\327Ko{;5\363\204A\310 "
 178      3555A937 
 178      1A0FD74B 
 178      6F7B3B35 
 178      F38441C8 
 179 00db 8E0C97D9 		.ascii	"\216\014\227\331\217\204\2340\311\014W$\2210(\311=}"
 179      8F849C30 
 179      C90C5724 
 179      913028C9 
 179      3D7D
 180 00ed BE08472D 		.ascii	"\276\010G-1\"o7Q\232\312\255\372\035\3466\237|\373\251"
 180      31226F37 
 180      519ACAAD 
 180      FA1DE636 
 180      9F7CFBA9 
 181 0101 325CA5C1 		.ascii	"2\\\245\301 ^X\211tHs\011\317\335\366j\310\3303,\212"
 181      205E5889 
 181      74487309 
 181      CFDDF66A 
 181      C8D8332C 
 182 0116 98788EDA 		.ascii	"\230x\216\332\211J4\245\214\323Kr'\311\226@\227\231"
 182      894A34A5 
 182      8CD34B72 
 182      27C99640 
 182      9799
 183 0128 3D5712DE 		.ascii	"=W\022\336\375\371\215GC\2367G3\203\373\242\365\220"
 183      FDF98D47 
 183      439E3747 
 183      3383FBA2 
ARM GAS  /tmp/ccW9nGcV.s 			page 14


 183      F590
 184 013a 755DFA3A 		.ascii	"u]\372:N\247\345\361\270\037\360\240\322{D\020\237\301"
 184      4EA7E5F1 
 184      B81FF0A0 
 184      D27B4410 
 184      9FC1
 185 014c BE5DB03D 		.ascii	"\276]\260=!;\263\207M\302\332\274\320{f\264\230\321"
 185      213BB387 
 185      4DC2DABC 
 185      D07B66B4 
 185      98D1
 186 015e 05D4F0FA 		.ascii	"\005\324\360\372\363\326NU\267\200\256\330}\322\306"
 186      F3D64E55 
 186      B780AED8 
 186      7DD2C6
 187 016d 3435B653 		.ascii	"45\266S\272\206\322\367\255\275jw\313'\357\233\3075"
 187      BA86D2F7 
 187      ADBD6A77 
 187      CB27EF9B 
 187      C735
 188 017f E9130E7A 		.ascii	"\351\023\016z\246\035\032\340\313\200s\355\315\346\217"
 188      A61D1AE0 
 188      CB8073ED 
 188      CDE68F
 189 018e DFE2DA4B 		.ascii	"\337\342\332K\351\225A\2122\324M\371\210m\230\334\221"
 189      E995418A 
 189      32D44DF9 
 189      886D98DC 
 189      91
 190 019f 33696972 		.ascii	"3iirf\177D\261^[aK\231\257\216\3108Ru\177\356\331\333"
 190      667F44B1 
 190      5E5B614B 
 190      99AF8EC8 
 190      3852757F 
 191 01b6 85707AA2 		.ascii	"\205pz\242\020\245\306\363\223\327n\\\271\234E,\232"
 191      10A5C6F3 
 191      93D76E5C 
 191      B99C452C 
 191      9A
 192 01c7 CA4CDD8B 		.ascii	"\312L\335\213\222\331\273\371\311\341\302D\024\375\005"
 192      92D9BBF9 
 192      C9E1C244 
 192      14FD05
 193 01d6 798D9BA1 		.ascii	"y\215\233\241"
 194              		.text
 195              		.section	.gnu.lto_bmp280_readTemperature.1b9243c300128a07,"",%progbits
 196 0000 789C6D52 		.ascii	"x\234mR=H[Q\024\376\276{\337Mb\324\322\202\223\024\225"
 196      3D485B51 
 196      14FEBE7B 
 196      DF4D62D4 
 196      D2829314 
 197 0015 8E2D366D 		.ascii	"\216-6m\247\202[qt4\320\2161\210\274A(F\035t\360\246"
 197      A7825B71 
 197      7434D08E 
 197      3188BC41 
 197      28461D74 
 198 002b 0DC5A9B8 		.ascii	"\015\305\251\270\252K\305\255\012N\202\240\320\010\342"
ARM GAS  /tmp/ccW9nGcV.s 			page 15


 198      AA4BC5AD 
 198      0A4E82A0 
 198      D008E2
 199 003a CFA0A238 		.ascii	"\317\240\2428\304-K)\205\016\235\024c!\236\363^\232"
 199      C42D4B29 
 199      850E9D14 
 199      63219EF3 
 199      5E9A
 200 004c 36A517DE 		.ascii	"6\245\027\336;\367\374}\347;\037\327\300\340\337\363"
 200      3BF7FC7D 
 200      E73B1FD7 
 200      C0E0DFF3 
 201 005c 4ABE1E09 		.ascii	"J\276\036\011w\213e\0024\013'@1e\214\275\310\300\247"
 201      778B6502 
 201      340B2740 
 201      31658CBD 
 201      C8C0A7
 202 006f DD4E0F7C 		.ascii	"\335N\017|\2075\301\322>\324\275J\212\033\320\305U\216"
 202      8735C1D2 
 202      3ED4BD4A 
 202      8A1BD0C5 
 202      558E
 203 0081 D40B8839 		.ascii	"\324\013\2109c\003\307\2717TL>\302\212\367\013\325\257"
 203      6303C7B9 
 203      37544C3E 
 203      C28AF70B 
 203      D5AF
 204 0093 57152EFA 		.ascii	"W\025.\372r\351\223\377U\257\223!e~\027\221'^\213\303"
 204      72E993FF 
 204      55AF9321 
 204      657E1791 
 204      275E8BC3 
 205 00a7 BEC898A0 		.ascii	"\276\310\230\240\225\320\206)W\353\365\365\355\322y"
 205      95D08629 
 205      57EBF5F5 
 205      EDD279
 206 00b6 6FDA729C 		.ascii	"o\332r\234p\010i\223\310qEpS\022\321\031\016%\231\320"
 206      70086993 
 206      C8714570 
 206      5312D119 
 206      0E2599D0 
 207 00ca 1707A190 		.ascii	"\027\007\241\220r\206\345\257|\2624j\3551\336mm]\377"
 207      7286E5AF 
 207      7CB2346A 
 207      ED31DE6D 
 207      6D5DFF
 208 00dd 3439AED2 		.ascii	"49\256\322\241\037\353^N6d\360\004\237\365\372<\244"
 208      A11FEB5E 
 208      4E3664F0 
 208      049FF5FA 
 208      3CA4
 209 00ef 5BC69290 		.ascii	"[\306\222\220H\214\321*\231dDa\2041\025\215\244\232"
 209      488CD12A 
 209      99644461 
 209      8431158D 
 209      A49A
 210 0101 C4D40B6A 		.ascii	"\304\324\013j\232\022\334\332\373\333\217C1\356\030"
ARM GAS  /tmp/ccW9nGcV.s 			page 16


 210      9A12DCDA 
 210      FBDB8F43 
 210      31EE18
 211 0110 DD2C6684 		.ascii	"\335,f\204c\003uS\352\332\376\017\313?k\236\342C\371"
 211      63037553 
 211      EADAFE0F 
 211      CB3F6B9E 
 211      E243F9
 212 0123 E16F80E4 		.ascii	"\341o\200\344,j~\336\337\017\231\3167\212\0045\032\030"
 212      2C6A7EDE 
 212      DF0F99CE 
 212      378A0435 
 212      1A18
 213 0135 6B155811 		.ascii	"k\025X\021\241\0358\304\336\267\335/\007\266\331\250"
 213      A11D38C4 
 213      DEB7DD2F 
 213      07B6D9A8 
 214 0145 C98EBFE5 		.ascii	"\311\216\277\345\313\322\342\"c\017Q\372\261{y\320\331"
 214      CBD2E222 
 214      630F51FA 
 214      B17B79D0 
 214      D9
 215 0156 D009883B 		.ascii	"\320\011\210;\"\340\2246u\2666\005\370\376X\365:\252"
 215      22E09436 
 215      75B63605 
 215      F8FE58F5 
 215      3AAA
 216 0168 DC5644AF 		.ascii	"\334VD\2575\251\225\025\212\262\316@\310{-=\335X\364"
 216      35A99515 
 216      8AB2CE40 
 216      C87B2D3D 
 216      DD58F4
 217 017b AA8AC49B 		.ascii	"\252\212\304\233\355.\322\373\014\305\352\315*\233\344"
 217      ED2ED2FB 
 217      0CC5EACD 
 217      2A9BE4
 218 018a E2ECB06C 		.ascii	"\342\354\260l$Y}z\017\006'\302\351\321\211Bfd\374\355"
 218      24597D7A 
 218      0F0627C2 
 218      E9D18942 
 218      6664FCED 
 219 019e 8B97CF9E 		.ascii	"\213\227\317\236\346\221(L\346&\247\012w\377\303\211"
 219      E691284C 
 219      E626A70A 
 219      77FFC389 
 220 01ae 7D       		.ascii	"}"
 221              		.text
 222              		.section	.gnu.lto_.symbol_nodes.1b9243c300128a07,"",%progbits
 223 0000 789C4DCF 		.ascii	"x\234M\317\317\016\301@\020\307\361\231\337v\373\227"
 223      CF0EC140 
 223      10C7F199 
 223      DF76FB97 
 224 0010 4710AFE5 		.ascii	"G\020\257\345$\361$S-Z\212H\\\305\201G\351\3353prqu"
 224      24F12453 
 224      2D5A8A48 
 224      5CC58147 
 224      E9DD3370 
ARM GAS  /tmp/ccW9nGcV.s 			page 17


 225 0027 13746D63 		.ascii	"\023tmc\273\227o>3\231\303\202@C&\373\360a!\332]\210"
 225      BB976F3E 
 225      3399C382 
 225      404326FB 
 225      F06121DA 
 226 003d 4436E504 		.ascii	"D6\345\004S\010\267<\226\254S\260'J\227h\006\204\014"
 226      5308B73C 
 226      96AC53B0 
 226      274A9768 
 226      06840C
 227 0050 02B7440E 		.ascii	"\002\267D\016Q\035\316 ^\207s\210v\344\012\342[\246"
 227      511DCE20 
 227      5E877388 
 227      76E40AE2 
 227      5BA6
 228 0062 29F30A12 		.ascii	")\363\012\0228-!\241S\001\211\234\026\220\330i\015I"
 228      382D21A1 
 228      5301899C 
 228      1690D869 
 228      0D49
 229 0074 FE521453 		.ascii	"\376R\024S~}7\215\350\374kH\265)\367\250\276\231&\224"
 229      7E7D378D 
 229      E8FC6B48 
 229      B529F7A8 
 229      BE992694 
 230 0088 17AFB16A 		.ascii	"\027\257\261j>{\252\356\003\343z\3738h3\310\366\317"
 230      3E7BAAEE 
 230      03E37AFB 
 230      386833C8 
 230      F6CF
 231 009a 91F2FAF6 		.ascii	"\221\362\372\366P'\366\320o\033\330\322\027w\012U\012"
 231      5027F6D0 
 231      6F1BD8D2 
 231      17770A55 
 231      0A
 232              		.text
 233              		.section	.gnu.lto_.refs.1b9243c300128a07,"",%progbits
 234 0000 789C6362 		.ascii	"x\234cb`b\340f\200\000\026F\006&F&&f&f\006\000\001\273"
 234      6062E066 
 234      80001646 
 234      06264626 
 234      26662666 
 235 0018 0024     		.ascii	"\000$"
 236              		.text
 237              		.section	.gnu.lto_.decls.1b9243c300128a07,"",%progbits
 238 0000 789CBD5D 		.ascii	"x\234\275]{t\024E\272\357\356yd\3620DP\304\275\3365"
 238      7B741445 
 238      BAEFEE79 
 238      64F23044 
 238      50C4BDDE 
 239 0015 EEBA773D 		.ascii	"\356\272w={W\002\201E\274\273W\305\004\224\263\242\234"
 239      7B570281 
 239      45BCBB57 
 239      C50494B3 
 239      A29C
 240 0027 24EED53F 		.ascii	"$\356\325?\366\214M2\201Y\223L\230\351 \336\177\266"
 240      F68C4D32 
ARM GAS  /tmp/ccW9nGcV.s 			page 18


 240      8159934C 
 240      98E920DE 
 240      7FB6
 241 0039 790B2A04 		.ascii	"y\013*\004\004\022\224\267\210\017P\336B\020qdy)\012"
 241      041294B7 
 241      880F50DE 
 241      42107164 
 241      79290A
 242 004c 01140D0F 		.ascii	"\001\024\015\017\211\250\210/\020\020\025\002\344~\365"
 242      89A8882F 
 242      10101502 
 242      E47EF5
 243 005b 55F74C55 		.ascii	"U\367LU\247{\246:\352\235s\252\246\246R\365\253\357"
 243      A77BA63A 
 243      EA9D73AA 
 243      A6A652F5 
 243      ABEF
 244 006d 555F3DBB 		.ascii	"U_=\273\243H\2124\324#I\355\360\371\242F\222^\312\221"
 244      A3488A34 
 244      D42349ED 
 244      F0F9A246 
 244      925ECA91 
 245 0081 A40C4992 		.ascii	"\244\014I\222n\203\220\005\301\013a\021\204\356\212"
 245      6E839005 
 245      C10B6111 
 245      84EE8A
 246 0090 245D03E1 		.ascii	"$]\003\341Z\010M\022-\263\007\322\315\020\372I\364\003"
 246      5A084D12 
 246      2DB307D2 
 246      CD10FA49 
 246      F403
 247 00a2 55A57DF0 		.ascii	"U\245}\360\373k\010W\003\346\015\020~\017\241\027\204"
 247      FB6B0857 
 247      03E60D10 
 247      7E0FA117 
 247      84
 248 00b3 7E106E81 		.ascii	"~\020n\2010\020\302 \010C <\000\001\212J\177\207\357"
 248      3010C220 
 248      0843203C 
 248      00018A4A 
 248      7F87EF
 249 00c6 A047E23E 		.ascii	"\240G\342>\004'\033\276\377\002\371\271\0066\241E\205"
 249      04271BBE 
 249      FF02F9B9 
 249      0636A145 
 249      85
 250 00d7 DF2108C3 		.ascii	"\337!\010\303 TB\350\017a8\204\021F}\257Qw\240\321^"
 250      205442E8 
 250      0F613884 
 250      11467DAF 
 250      5177A0D1 
 251 00ec 3FA38DCF 		.ascii	"?\243\215\317!\372B\341\333 t^\017\337\262\224l\203"
 251      21FA42E1 
 251      DB20745E 
 251      0FDFB294 
 251      6C83
 252 00fe F0B60BC2 		.ascii	"\360\266\013\302`\250\367\017\010\017{(\3466\211\362"
ARM GAS  /tmp/ccW9nGcV.s 			page 19


 252      60A8F70F 
 252      080F7B28 
 252      E63689F2 
 253 010e FE2D8453 		.ascii	"\376-\204S\020\274\220\037\200P\345\341eq/\374\256\206"
 253      10BC901F 
 253      8050E5E1 
 253      65712FFC 
 253      AE86
 254 0120 7017043F 		.ascii	"p\027\004?\344\357\206p\021\362k<\274\034\367\023Z "
 254      E4EF8670 
 254      11F26B3C 
 254      BC1CF713 
 254      5A20
 255 0132 CF075FE7 		.ascii	"\317\007_\347 \355!8\020\332 \335\256\3206\011}C\014"
 255      20ED2138 
 255      10DA20DD 
 255      AED03609 
 255      7D430C
 256 0145 79119E48 		.ascii	"y\021\236HY\"\247\\\010y\020\272z\250\354\330\317\325"
 256      5922A75C 
 256      087910BA 
 256      7AA8ECD8 
 256      CFD5
 257 0157 063D84FE 		.ascii	"\006=\204\376]\026\232#\220\367\240\207\362K\332T\214"
 257      5D169A23 
 257      90F7A087 
 257      F24BDA54 
 257      8C
 258 0168 F2A61EFE 		.ascii	"\362\246\036\376\035\276\177m\301#:\314b\360\210|\010"
 258      1DBE7F6D 
 258      C1233ACC 
 258      62F0887C 
 258      08
 259 0179 EF093918 		.ascii	"\357\0119\030m\230<#[\236$\376\015\006\375\244\315\337"
 259      6D983C23 
 259      5B9E24FE 
 259      0D06FDA4 
 259      CDDF
 260 018b 59B0896D 		.ascii	"Y\260\211mt1\344m\312\277\247\321V\272v\210l\211\335"
 260      7431E46D 
 260      CABFA7D1 
 260      56BA7688 
 260      6C89DD
 261 019e 59DBFBBD 		.ascii	"Y\333\373\275\321\036I\377\021\276o\266\264\331\313"
 261      D11E49FF 
 261      11BE6FB6 
 261      B4D9CB
 262 01ad A64D37ED 		.ascii	"\246M7\355\365\264i\263\027\323f!|\367\261\264\231-"
 262      F5B469B3 
 262      17D36621 
 262      7CF7B1B4 
 262      992D
 263 01bf 4DD1F5B1 		.ascii	"M\321\365\261\372\302\211\372\335;s\273J\323u\370\344"
 263      FAC289FA 
 263      DD3B73BB 
 263      4AD375F8 
 263      E4
ARM GAS  /tmp/ccW9nGcV.s 			page 20


 264 01d0 EF84D61F 		.ascii	"\357\204\326\037\220U97S\212\017\304TN\246\364a\200"
 264      90553937 
 264      538A0FC4 
 264      544EA6F4 
 264      6180
 265 01e2 88495AA2 		.ascii	"\210IZ\242\353\365\255\333\316\234\360\350z@\225\027"
 265      EBF5ADDB 
 265      CE9CF0E8 
 265      7A409517 
 266 01f2 CB5D01BA 		.ascii	"\313]\001\272\277,\375Az\021j\326\353\372\342\337\312"
 266      BF2CFD41 
 266      7A116AD6 
 266      EBFAE2DF 
 266      CA
 267 0203 52C74F7A 		.ascii	"R\307OzdU^\"+\020/\005DU~N\376\003mK\217\237\237\224"
 267      64555E22 
 267      2B102F05 
 267      44557E4E 
 267      FE036D4B 
 268 021b A37B69BE 		.ascii	"\243{i\276d\374\305\346s\203\264\020\370\210_\332\261"
 268      64FCC5E6 
 268      7383B410 
 268      F8885FDA 
 268      B1
 269 022c E45A7DE1 		.ascii	"\344Z}\341\026\331\216-( 3\355\353\212\331~>\312\355"
 269      16D98E2D 
 269      282033ED 
 269      EB8AD97E 
 269      3ECAED
 270 023f 1ED98E4A 		.ascii	"\036\331\216J\276\224*/C\"\227[\211\334O\211\\.D\344"
 270      BE942A2F 
 270      4322975B 
 270      89DC4F89 
 270      5C2E44E4 
 271 0253 FB3BDE92 		.ascii	"\373;\336\222\365\0319\034\215\335\245YH\343D R\313"
 271      F519391C 
 271      8DDDA559 
 271      48E34420 
 271      52CB
 272 0265 941E4BFE 		.ascii	"\224\036K\376%AJ\276I\2117\251\210\363\023\017\234\225"
 272      25414ABE 
 272      498937A9 
 272      88F3130F 
 272      9C95
 273 0277 C7421D55 		.ascii	"\307B\035U^%g\002\027\323d\231k_\225}\231,\011\370\333"
 273      5E256702 
 273      17D36499 
 273      6B5F957D 
 273      992C09F8 
 274 028c 2C40F0F0 		.ascii	",@\360\360\317F\2028\332.\366\355\221\232+\345\356\230"
 274      CF468238 
 274      DA2EF6ED 
 274      919A2BE5 
 274      EE98
 275 029e F2A03541 		.ascii	"\362\2405A\306\355\331f\232\343\305 \277\365\271x\217"
 275      C6EDD966 
 275      9AE3C520 
ARM GAS  /tmp/ccW9nGcV.s 			page 21


 275      BFF5B978 
 275      8F
 276 02af C624F901 		.ascii	"\306$\371\001\023NN\222\177d\312\313\377\011v\224\250"
 276      134E4E92 
 276      7F64CACB 
 276      FF097694 
 276      A8
 277 02c0 A03B5650 		.ascii	"\240;VP\345\015\362\357 \226y\352\345\314d\242]&j|\315"
 277      E50DF2EF 
 277      209679EA 
 277      E5CC64A2 
 277      5D266A7C 
 278 02d5 2200016C 		.ascii	"\"\000\001l\203\230\206\251\363\373\243Q\277\206\222"
 278      839886A9 
 278      F3FBA351 
 278      BF8692
 279 02e4 FCB18324 		.ascii	"\374\261\203$e\213$\323\320\342\246\254\223\310_\225"
 279      658B24D3 
 279      D0E2A6AC 
 279      93C85F95 
 280 02f4 B3199884 		.ascii	"\263\031\230\204\340WQRT\371\376dwv\202X\221\204P\244"
 280      E0575152 
 280      54F9FE64 
 280      77768258 
 280      918450A4 
 281 0308 B18A6C98 		.ascii	"\261\212l\230\257]q#\311\341q\246\333\272\355Bc\307"
 281      AF5D7123 
 281      C9E171A6 
 281      DBBAED42 
 281      63C7
 282 031a FEC5D92E 		.ascii	"\376\305\331.%\316\211\230-\202&\244\312M)P\266\375"
 282      25CE8998 
 282      2D8226A4 
 282      CA4D2950 
 282      B6FD
 283 032c 74A9BCC9 		.ascii	"t\251\274\311J\3451\327R\311g\245\242\257\326\365L\177"
 283      4AE531D7 
 283      52C967A5 
 283      A2AFD6F5 
 283      4C7F
 284 033e 9AEEAC8B 		.ascii	"\232\356\254\213t\347\327f\354\331+\217\303\356\274"
 284      74E7D766 
 284      ECD92B8F 
 284      C3EEBC
 285 034d 0B8DF080 		.ascii	"\013\215\360\200bc\315BPG\336\336\272\312\360\014\273"
 285      6263CD42 
 285      5047DEDE 
 285      BACAF00C 
 285      BB
 286 035e 11EA70A7 		.ascii	"\021\352p\247\241\032v\257\247\035c/\002}\252X;\206"
 286      A11A76AF 
 286      A71D632F 
 286      027DAA58 
 286      3B86
 287 0370 DFD231FC 		.ascii	"\337\3221\374\274\261\303O\322\322\217\304\275\310\377"
 287      BCB1C34F 
 287      D2D28FC4 
ARM GAS  /tmp/ccW9nGcV.s 			page 22


 287      BDC8FF
 288 037f 3472C88F 		.ascii	"4r\310\217\014\351\377\275\236\223=\274\355l\230\324"
 288      0CE9FFBD 
 288      9E933DBC 
 288      ED6C98D4 
 289 038f 16450DEB 		.ascii	"\026E\015\353-\326\260N\212\030V\200\305\223X\303\022"
 289      2DD6B04E 
 289      8A185680 
 289      C59358C3 
 289      12
 290 03a0 EA6EBB52 		.ascii	"\352n\273Rt\224\026\033\256\204\270\370P\316fu\254H"
 290      7494161B 
 290      AE84B8F8 
 290      50CE6675 
 290      AC48
 291 03b2 675C73E2 		.ascii	"g\\s\342\252\213\244f\343#\001\345\030\277\305\207\316"
 291      AA8BA466 
 291      E32301E5 
 291      18BFC587 
 291      CE
 292 03c3 230DAFFE 		.ascii	"#\015\257\376\001\255\372\030Z\365\012\217\355\270!"
 292      01ADFA18 
 292      5AF50A8F 
 292      EDB821
 293 03d2 023465DB 		.ascii	"\0024e\333\233FO\373\014\241\232:\015\3250u\323\255"
 293      9B464FFB 
 293      0CA19A3A 
 293      0DD53075 
 293      D3AD
 294 03e4 48D30904 		.ascii	"H\323\011\004\332\342\261\366\264\014KO\313\340-?#3"
 294      DAE2B1F6 
 294      B40C4B4F 
 294      CBE02D3F 
 294      2333
 295 03f6 993006F3 		.ascii	"\2310\006\363_\274\270\220=\035a{\305\273\036\001[\312"
 295      5FBCB890 
 295      3D1D617B 
 295      C5BB1E01 
 295      5BCA
 296 0408 63F124D6 		.ascii	"c\361$\326\226~r\2578\231\312\234\216\271\350\353\337"
 296      967E72AF 
 296      3899CA9C 
 296      8EB9E8EB 
 296      DF
 297 0419 B05CED73 		.ascii	"\260\\\355s\315U>\313U\372\036\222j\\\375.\025K\306"
 297      CD553ECB 
 297      55FA1E92 
 297      6A5CFD2E 
 297      154BC6
 298 042c 24C23A4E 		.ascii	"$\302:Nv\212\345\263,\313\037\210\260\334\303Q\221?"
 298      768AE5B3 
 298      2CCB1F88 
 298      B0DCC351 
 298      913F
 299 043e 8DE58BA9 		.ascii	"\215\345\213\251X\336\3663\262\334\306\262\374\221k"
 299      58DEF633 
 299      B2DCC6B2 
ARM GAS  /tmp/ccW9nGcV.s 			page 23


 299      FC916B
 300 044d 96F325FE 		.ascii	"\226\363%\376c\366(U~E\276\001\3428\306;1\376\000\343"
 300      63F62855 
 300      7E45BE01 
 300      E238C63B 
 300      31FE00E3 
 301 0461 C3187F8D 		.ascii	"\303\030\177\215\361\031\214/@\234\226\316\027Y:?E:"
 301      F1198C2F 
 301      409C96CE 
 301      17593A3F 
 301      453A
 302 0473 977672A2 		.ascii	"\227vr\242\247\307/\357\310\251W\315\205\223?\215\333"
 302      A7C72FEF 
 302      C8A957CD 
 302      85933F8D 
 302      DB
 303 0484 5A79748F 		.ascii	"Zyt\217\214nk\274B\226\203\013\274\274\333J\013\243"
 303      8C6E6BBC 
 303      4296830B 
 303      BCBCDB4A 
 303      0BA3
 304 0496 48AF6095 		.ascii	"H\257`\225I\212eY\265~\342UdYE\362\323/\253\232&\316"
 304      498A6559 
 304      B57EE255 
 304      645945F2 
 304      D32FAB9A 
 305 04ac 735CFBB1 		.ascii	"s\\\373\261K\272\205\262\331\366U\011\026\342\207.\311"
 305      4BBA85B2 
 305      D9F65509 
 305      16E2872E 
 305      C9
 306 04bd F9AAFC04 		.ascii	"\371\252\374\004\322\377\232=\375\316\030\212\364\016"
 306      D2FF9A3D 
 306      FDCE188A 
 306      F40E
 307 04cb 569966A5 		.ascii	"V\231f\245\377\234\232Os\323S\377\303\027\270(T\345"
 307      FF9C9A4F 
 307      73D353FF 
 307      C317B828 
 307      54E5
 308 04dd C7956C00 		.ascii	"\307\225l\000<\224\000\354\324D=~1\264\263WZAxM\240"
 308      3C9400EC 
 308      D4443D7E 
 308      31B4B357 
 308      5A41784D 
 309 04f2 E2A42E0F 		.ascii	"\342\244.\0177l\245\272\234\215\262\370D@\026\034\214"
 309      376CA5BA 
 309      9C8DB2F8 
 309      4440161C 
 309      8C
 310 0503 227D8D55 		.ascii	"\"}\215U\346Xd\321z\344\363\326\177k\324\365<\372\247"
 310      E65864D1 
 310      7AE4F3D6 
 310      7F6BD4F5 
 310      3CFAA7
 311 0516 F4026933 		.ascii	"\364\002i3\324\251\312\263P\"\313|&l\347$ry;X\264\011"
 311      D4A9CAB3 
ARM GAS  /tmp/ccW9nGcV.s 			page 24


 311      5022CB7C 
 311      266CE724 
 311      72793B58 
 312 052c B6DA3558 		.ascii	"\266\3325X>\007\366\324\216\271H\234\370\320\376\332"
 312      3E07F6D4 
 312      8EB9489C 
 312      F8D0FEDA 
 313 053c BEDDE6D4 		.ascii	"\276\335\346\324~\221\202\263\004\237up\377\314\272"
 313      7E9182B3 
 313      049F7570 
 313      FFCCBA
 314 054b C04C3FFE 		.ascii	"\300L?\376*\322\233\"\2348N1\211Z\232\257k\002G<\331"
 314      2AD29B22 
 314      9C384E31 
 314      895A9AAF 
 314      6B02473C 
 315 0560 2FD04D77 		.ascii	"/\320MwbcK\255\252\335{\262\371f\252\332\245B\252]\277"
 315      62634BAD 
 315      AADD7BB2 
 315      F966AADA 
 315      A542AA5D 
 316 0575 AB41ACA7 		.ascii	"\253A\254\247\372\315\346+\260\371)~\322\374\262\016"
 316      FACDE62B 
 316      B0F9297E 
 316      D2FCB20E 
 317 0585 9675E6C4 		.ascii	"\226u\346\304m\264\371eB\315\037\3353\263c\363\252|"
 317      6DB4F965 
 317      42CD1FDD 
 317      33B363F3 
 317      AA7C
 318 0597 DBD5A9F4 		.ascii	"\333\325\251\364\267\367\344\2677-\300FV\240\005\275"
 318      B7F7E4B7 
 318      372DC046 
 318      56A005BD 
 319 05a7 E7B7AAEF 		.ascii	"\347\267\252\357vvQj\316\265\231)\364\221\004\365\235"
 319      7676516A 
 319      CEB59929 
 319      F49104F5 
 319      9D
 320 05b8 32606033 		.ascii	"2``3~\373\213\250)\223\206\217]#\362V|f\017v\011\012"
 320      7EFB8BA8 
 320      2993868F 
 320      5D23F256 
 320      7C660F76 
 321 05ce F6990898 		.ascii	"\366\231\010\230\363Z%\376\035\013\366\205k0\236\262"
 321      F35A25FE 
 321      1D0BF685 
 321      6B309EB2 
 322 05de EF59B06F 		.ascii	"\357Y\260oD\300\234\347\213\361\037Y\260\323\256\301"
 322      44C09CE7 
 322      8BF11F59 
 322      B0D3AEC1 
 323 05ee 78CA2EB0 		.ascii	"x\312.\260`\347D\300\234'@\361\213,\330y\327`<e\227"
 323      60E744C0 
 323      9C2740F1 
 323      8B2CD879 
 323      D7603C65 
ARM GAS  /tmp/ccW9nGcV.s 			page 25


 324 0603 59B04B22 		.ascii	"Y\260K\"`\371\316\224\325\357c\300\306d\270\005\343"
 324      60F9CE94 
 324      D5EF63C0 
 324      C664B805 
 324      E3
 325 0614 299BC182 		.ascii	")\233\301\202M\020\001\273\311\231\262\231,\330d\327"
 325      4D1001BB 
 325      C999B299 
 325      2CD864D7 
 326 0624 603C65B3 		.ascii	"`<e\263Y\260'E\300z9S\326\310\202Mw\015\306S\3664\013"
 326      59B02745 
 326      C07A3953 
 326      D6C8824D 
 326      770DC653 
 327 063b 364B04AC 		.ascii	"6K\004\254\2773esY\2609\256\301x\312V\262`\363D\300"
 327      BF336573 
 327      59B039AE 
 327      C178CA56 
 327      B260F344 
 328 0650 EE70A66C 		.ascii	"\356p\246l5\013\266\3205\030O\331Z\026\354Y\021\260"
 328      350BB6D0 
 328      35184FD9 
 328      5A16EC59 
 328      11B0
 329 0662 BB9D297B 		.ascii	"\273\235){\225\005[\352\032\214\247l\003\013\366\242"
 329      95055BEA 
 329      1A8CA76C 
 329      030BF6A2 
 330 0672 08D85067 		.ascii	"\010\330Pg\3126\262`\313]\203\361\224mb\301V\210\200"
 330      CA36B260 
 330      CB5D83F1 
 330      946D62C1 
 330      568880
 331 0685 3DE04CD9 		.ascii	"=\340L\331f\026l\215k0\236\262f\026l\275\010\330C6\224"
 331      66166C8D 
 331      6B309EB2 
 331      66166CBD 
 331      08D84336 
 332 069a 253E76F5 		.ascii	"%>v\365\3100\375\222\302,\2336f\230\023\034\227c\264"
 332      C830FD92 
 332      C22C9B36 
 332      6698131C 
 332      9763B4
 333 06ad 94C4D89C 		.ascii	"\224\304\330\234\341vF\306\361M&\312\327m4\306y:[\335"
 333      E17646C6 
 333      F14D26CA 
 333      D76D34C6 
 333      793A5BDD 
 334 06c1 2A829862 		.ascii	"*\202\230b\000|z\0073\365}\3075\230\305\224\011X\247"
 334      007C7A07 
 334      33F57DC7 
 334      3598C594 
 334      0958A7
 335 06d4 CE7BC8F1 		.ascii	"\316{\310\361\240\302\234\307\364\260/\013K_\205\034"
 335      A0C29CC7 
 335      F4B02F0B 
 335      4B5F851C 
ARM GAS  /tmp/ccW9nGcV.s 			page 26


 336 06e4 F57CA364 		.ascii	"\365|\243d&\250\240i3EOz\336\313\260;iD\200\324U\235"
 336      26A8A069 
 336      33454F7A 
 336      DECBB03B 
 336      694480D4 
 337 06fa 2CE14BD6 		.ascii	",\341K\326\022ZD\304\224bh?\272c\3565zk\\\026?\177z"
 337      125A44C4 
 337      9462683F 
 337      BA63EE35 
 337      7A6B5C16 
 338 0711 6DC6BBE6 		.ascii	"m\306\273\346\012\3414\256\020Z3\254S\314&\227GP0\021"
 338      0AE134AE 
 338      105A33AC 
 338      53CC2697 
 338      47503011 
 339 0725 B3B2C1B5 		.ascii	"\263\262\301\265\234vR\001\306\370\341\365M\257\350"
 339      9C765201 
 339      C6F8E1F5 
 339      4DAFE8
 340 0734 FA38BF0B 		.ascii	"\3728\277\013F\366\275c2\362=2r\372g`\344\274kFn\262"
 340      46F6BD63 
 340      32F23D32 
 340      72FA6760 
 340      E4BC6B46 
 341 074a 3012BFC9 		.ascii	"0\022\277\311=#\011\215\264!#c\002?\235\221\311\001"
 341      3D23098D 
 341      B4212363 
 341      023F9D91 
 341      C901
 342 075c B78CF462 		.ascii	"\267\214\364b\030\301\005[O\272`\353&\315H\275`#\364"
 342      18C1055B 
 342      4FBA60EB 
 342      26CD48BD 
 342      6023F4
 343 076f E89E6EFC 		.ascii	"\350\236n\374\236D\313\333d\247\203d\247[)\351\361\037"
 343      9E44CBDB 
 343      64A78364 
 343      A75B29E9 
 343      F11F
 344 0781 DE9E6BAC 		.ascii	"\336\236k\254\301\351qT=\322N\352\272t\217\006\336\314"
 344      C1E97154 
 344      3DD24EEA 
 344      BA748F06 
 344      DECC
 345 0793 5DE88828 		.ascii	"]\350\210(X\303O\002\033\033_\363\270\271Ap;N\036~\""
 345      58C34F02 
 345      1B1B5FF3 
 345      B8B94170 
 345      3B4E1E7E 
 346 07a8 DCDE5DAE 		.ascii	"\334\336]\256\227\3643\3363\315c\262\207p\364|\007\363"
 346      97F433DE 
 346      33CD63B2 
 346      8770F47C 
 346      07F3
 347 07ba E8D4927E 		.ascii	"\350\324\222~Mg9I|` \263Z\231\253\371?\261\262\037{"
 347      4D673949 
 347      7C6020B3 
ARM GAS  /tmp/ccW9nGcV.s 			page 27


 347      5A99ABF9 
 347      3FB1B21F 
 348 07cf 0A       		.ascii	"\012"
 349 07d0 6E0B98C7 		.ascii	"n\013\230\307 \037l\037#\217GiL\363\220\255\243\315"
 349      201F6C1F 
 349      238F4769 
 349      4CF390AD 
 349      A3CD
 350 07e2 166908EC 		.ascii	"\026i\010\354/\274\213Ufx:l\0355_K\027\370\344O\002"
 350      2FBC8B55 
 350      66783A6C 
 350      1D355F4B 
 350      17F8E44F 
 351 07f7 FB0BDCD6 		.ascii	"\373\013\334\326\221*\317S\024\003\266\263\002\345t"
 351      912ACF53 
 351      1403B6B3 
 351      02E574
 352 0806 98A44F95 		.ascii	"\230\244O\225gz\310P5\313\303\354\317\302J\337\265\360"
 352      677AC850 
 352      35CBC3EC 
 352      CFC24ADF 
 352      B5F0
 353 0818 F359E1C7 		.ascii	"\363Y\341\307\333v\315\225\011\3756[\"w\260\023\210"
 353      DB76CD95 
 353      09FD365B 
 353      2277B013 
 353      88
 354 0829 C449D6EE 		.ascii	"\304I\326\356\351\206\344\033Q\362\237;H\376\016' E"
 354      E986E41B 
 354      51F29F3B 
 354      48FE0E27 
 354      2045
 355 083b FA01AB3C 		.ascii	"\372\001\253<\323Q\362;\177E%\377\214\220\344\337\267"
 355      D351F23B 
 355      7F4525FF 
 355      8C90E4DF 
 355      B7
 356 084c 95FC33EE 		.ascii	"\225\3743\356%o\340\035Hn\332\251\362\002\327`\371\251"
 356      256FE01D 
 356      486EDAA9 
 356      F202D760 
 356      F9A9
 357 085e D4F80CA3 		.ascii	"\324\370\014\243\306y\250\306\371\036\262\331\276\200"
 357      C679A8C6 
 357      F91EB2D9 
 357      BE80
 358 086c 57E66399 		.ascii	"W\346c\231\026er\2223\222\216\353U=\376\324n\336\207"
 358      16657292 
 358      33928EEB 
 358      553DFED4 
 358      6EDE87
 359 087f 3E65C573 		.ascii	">e\305s\271\312\234\277\033EB=\316\034\327`\371\034"
 359      B9CA9CBF 
 359      1B45423D 
 359      CE1CD760 
 359      F91C
 360 0891 D8EB53C5 		.ascii	"\330\353S\305\366\314\365\304~w\036\012e\011\266\373"
ARM GAS  /tmp/ccW9nGcV.s 			page 28


 360      F6CCF5C4 
 360      7E771E0A 
 360      6509B6FB 
 361 08a1 BCD55CD6 		.ascii	"\274\325\\\326-\333;I\036\203\226\370\274\200\275\300"
 361      2DDB3B49 
 361      1E8396F8 
 361      BC80BDC0 
 362 08b1 00F35926 		.ascii	"\000\363Y&nzS\273\375(\201\232B\324)\254\245\315\334"
 362      6E7A53BB 
 362      FD28819A 
 362      42D429AC 
 362      A5CDDC
 363 08c4 43A733DD 		.ascii	"C\2473\335\343V\270\264\023q\036\356\262\300\036:/\030"
 363      E356B8B4 
 363      13711EEE 
 363      B2C01E3A 
 363      2F18
 364 08d6 F330A189 		.ascii	"\3630\241\211\014\261+\221\247\223\231\3261\201J\206"
 364      0CB12B91 
 364      A79399D6 
 364      31814A86 
 365 08e6 31C4E719 		.ascii	"1\304\347\031C|\021\015\361%4\304\345\030\277\302\232"
 365      437C110D 
 365      F12534C4 
 365      E518BFC2 
 365      9A
 366 08f7 A3D328BF 		.ascii	"\243\323(\277\302\303L]\277w\315w\276E;N\315,e\233\271"
 366      C2C34C5D 
 366      BF77CD77 
 366      BE453B4E 
 366      CD2C659B 
 367 090c 24627BCE 		.ascii	"$b{\316\233\022\304\253\377W\223\261\316\241[\342\223"
 367      9B12C4AB 
 367      FF5793B1 
 367      CEA15BE2 
 367      93
 368 091d B2DC22F2 		.ascii	"\262\334\"\362\326|z*7#\230!\002w\207\015\201v\037\366"
 368      D67C7A2A 
 368      37239821 
 368      0277870D 
 368      81761FF6 
 369 0931 44037C07 		.ascii	"D\003|\007\256P\346*DA\3631^\210\361s\030\177\206\361"
 369      AE50E62A 
 369      4441F331 
 369      5E88F173 
 369      187F86F1 
 370 0945 E7187F81 		.ascii	"\347\030\177\201\361\267\030\237\303\370\002\306\355"
 370      F1B7189F 
 370      C3F802C6 
 370      ED
 371 0952 184F4515 		.ascii	"\030OE\0257`\274\010\343g1~\016\343u\030\257\0271\000"
 371      3760BC08 
 371      E367317E 
 371      0EE37518 
 371      AF173100 
 372 0966 EA2199DD 		.ascii	"\352!\231\335\346\247\263\334\036 q\262l]\265`\353t"
 372      E6A7B3DC 
ARM GAS  /tmp/ccW9nGcV.s 			page 29


 372      1E2071B2 
 372      6C5DB560 
 372      EB74
 373 0978 F9A971FA 		.ascii	"\371\251q\372\316^\246\257Y*\202\230\242;\315$\276\334"
 373      CE5EA6AF 
 373      592A8298 
 373      A23BCD24 
 373      BEDC
 374 098a CD814962 		.ascii	"\315\201Ibv\365:\266\2772\353g\231]\275\356\232\015"
 374      76F53AB6 
 374      BF32EB67 
 374      995DBDEE 
 374      9A0D
 375 099c AB60B627 		.ascii	"\253`\266'\004C\011\333.\202h\267<\267\267\263i\214"
 375      044309DB 
 375      2E8268B7 
 375      3CB7B7B3 
 375      698C
 376 09ae 9D4D473B 		.ascii	"\235MG;\233\201\2662\023\343\215h\023\2330~S\3042\036"
 376      9B81B632 
 376      13E38D68 
 376      139B307E 
 376      53C4321E 
 377 09c2 6757B5CD 		.ascii	"gW\265\315Y\3469\353\3172\023\232\304\220:\031I\235"
 377      59E639EB 
 377      CF32139A 
 377      C4903A19 
 377      499D
 378 09d4 A27083E7 		.ascii	"\242p\203\347\207Yn\217\241ya\177\326\336\210\253\350"
 378      87596E8F 
 378      A179617F 
 378      D6DE88AB 
 378      E8
 379 09e5 0C6922AE 		.ascii	"\014i\"\256\331&\214M\263f\213_\360+\252\274\335\223"
 379      D9268C4D 
 379      B3668B5F 
 379      F02BAABC 
 379      DD93
 380 09f7 4186138B 		.ascii	"A\206\023\213\301\010\200\340\015.\250\314\255\230\316"
 380      C10880E0 
 380      0D2EA8CC 
 380      AD98CE
 381 0a06 4EEC424E 		.ascii	"N\354BN\241I~\212\021\015\357\026(\322\211,:\"x3\223"
 381      A1497E8A 
 381      110DEF16 
 381      28D2892C 
 381      3A227833 
 382 0a1b 79679279 		.ascii	"yg\222y2S\364B2\333\274\375O~\246\274G\232$N\225\337"
 382      3253F442 
 382      32DBBCFD 
 382      4F7EA6BC 
 382      479A244E 
 383 0a31 C6B16297 		.ascii	"\306\261b\227\307c[M\221\306e[\204o\267\322t>\032\214"
 383      C7635B4D 
 383      91C6655B 
 383      846FB7D2 
 383      743E1A8C 
ARM GAS  /tmp/ccW9nGcV.s 			page 30


 384 0a45 B7EF2083 		.ascii	"\267\357 \203\263\335\271\\\342R\364\215\011\301\267"
 384      B3DDB95C 
 384      E252F48D 
 384      09C1B7
 385 0a54 AED9F8C5 		.ascii	"\256\331\370\305u\313q\252\270\037\007\276xv\372\223"
 385      75CB71AA 
 385      B81F07BE 
 385      7876FA93 
 386 0a64 631B9CF8 		.ascii	"c\033\234\370\364\355\327\021i\037@\220\335nA\024\251"
 386      F4EDD711 
 386      691F4090 
 386      DD6E4114 
 386      A9
 387 0a75 05ABB458 		.ascii	"\005\253\264X\246&\361\327'\342\015\355\026\241i\311"
 387      A626F1D7 
 387      27E20DED 
 387      16A169C9 
 388 0a85 1BDBE904 		.ascii	"\033\333\351\004\334\234\230\034K`vnb\322L\247\261\364"
 388      DC9C981C 
 388      4B60766E 
 388      62D24CA7 
 388      B1F4
 389 0a97 8AF6D756 		.ascii	"\212\366\327V0\227~t\177b\216Mn\271\300p\357\032\217"
 389      30977E74 
 389      7F628E4D 
 389      6EB9C070 
 389      EF1A8F
 390 0aaa EB63F1F7 		.ascii	"\353c\361\367(q\024\254]\004,\305V\343\207,\330\204"
 390      287114AC 
 390      5D042CC5 
 390      56E3872C 
 390      D884
 391 0abc 1CB7603C 		.ascii	"\034\267`<e\007Y\260'E\300Rl\310\035\331>7\355\2551"
 391      650759B0 
 391      2745C052 
 391      6CC81DD9 
 391      3E37EDAD 
 392 0ad1 872360DC 		.ascii	"\207#`\334\034\364p\327\215,g\307\007\034\310\302\335"
 392      1CF470D7 
 392      8D2C67C7 
 392      071CC8C2 
 392      DD
 393 0ae2 CCE4A429 		.ascii	"\314\344\244)\355}#\243\0174\320{/_x\360\360'\207\357"
 393      ED7D23A3 
 393      0F34D07B 
 393      2F5F78F0 
 393      F02787EF 
 394 0af6 0396A609 		.ascii	"\003\226\246\011aNM\237\362d;\330z\207\277)\322\002"
 394      614E4D9F 
 394      F2643BD8 
 394      7A87BF29 
 394      D202
 395 0b08 D702E6B5 		.ascii	"\327\002\346\265ut\"7\373zA\004.\337F_v\037\266C\253"
 395      75742237 
 395      FB7A4104 
 395      2EDF465F 
 395      761FB643 
ARM GAS  /tmp/ccW9nGcV.s 			page 31


 396 0b1d F221747C 		.ascii	"\362!t|\207q\014\374\010\343V\214\217a\374)\306\307"
 396      87710CFC 
 396      08E3568C 
 396      8F61FC29 
 396      C6C7
 397 0b2f 313E81F1 		.ascii	"1>\201\361iv\234\374eP\025iE\216\305\333\362\216)]?"
 397      69769CFC 
 397      65501569 
 397      458EC5DB 
 397      F28E295D 
 398 0b44 D4C958E7 		.ascii	"\324\311X\347\264\352wp\270{\177M\035\3569tR\257Z\354"
 398      B4EA7770 
 398      B87B7F4D 
 398      1DEE3974 
 398      52AF5AEC 
 399 0b58 845AE52F 		.ascii	"\204Z\345/\305\3566!v\035\327\261\006\2730\264_)\325"
 399      C5EE3621 
 399      761DD7B1 
 399      06BB30B4 
 399      5F29D5
 400 0b6b 23BB8DFC 		.ascii	"#\273\215\374\245\177=a.\272i\315\027<Wb\212\273\271"
 400      A57F3D61 
 400      2EBA69CD 
 400      173C5762 
 400      8ABBB9
 401 0b7e 4E4F911C 		.ascii	"NO\221\034\354\277\315\223<\007\310\311L&\332=\011>"
 401      ECBFCD93 
 401      3C07C8C9 
 401      4C26DA3D 
 401      093E
 402 0b90 DEB1F261 		.ascii	"\336\261\362ai\330H;\236\240\221\256\250{\374\224:E"
 402      69D8483B 
 402      9EA091AE 
 402      A87BFC94 
 402      3A45
 403 0ba2 DA2306D7 		.ascii	"\332#\006\327\354u\302\263\273\025ic\021\255\211u\347"
 403      EC75C2B3 
 403      BB156963 
 403      11AD8975 
 403      E7
 404 0bb3 75498B78 		.ascii	"uI\213x\357\370\371\311\306\362{\214\227\230\304\324"
 404      EFF8F9C9 
 404      C6F27B8C 
 404      9798C4D4 
 405 0bc3 2BD20E9F 		.ascii	"+\322\016\237<\020\021\332x\257e\350\234wl\247q\275"
 405      3C1011DA 
 405      78AF65E8 
 405      9C776CA7 
 405      71BD
 406 0bd5 CF9B76F0 		.ascii	"\317\233v\360\034?.\276\352\330Ne\216\036\037\357A="
 406      1C3F2EBE 
 406      EAD84E65 
 406      8E1E1FEF 
 406      413D
 407 0be7 8D4B39D7 		.ascii	"\215K9\327\007\023\303\307zD&\356s\221\031B\203\313"
 407      0713C3C7 
 407      7A4426EE 
ARM GAS  /tmp/ccW9nGcV.s 			page 32


 407      73911942 
 407      83CB
 408 0bf9 B9AB41D7 		.ascii	"\271\253A\327j\302\006\331\035\230\204\023\256\005\256"
 408      6AC206D9 
 408      1D988413 
 408      AE05AE
 409 0c08 E1F239B8 		.ascii	"\341\3629\270\265<\334b\0218\247Q\035\340^\345\341\226"
 409      B53CDC62 
 409      1138A751 
 409      1DE05EE5 
 409      E196
 410 0c1a BA86E3A9 		.ascii	"\272\206\343\251\333\300\303\275$\002\3474\254\003\334"
 410      DBC0C3BD 
 410      2402E734 
 410      AC03DC
 411 0c29 461EEE15 		.ascii	"F\036\356\025\327p<u\233x\270\325\"pvC\273\335\2075"
 411      D7703C75 
 411      9B78B8D5 
 411      22707643 
 411      BBDD8735 
 412 0c3d 60559EE0 		.ascii	"`U\236\340%\3465\321K<\330d\214\037\307\370I\214\247"
 412      25E635D1 
 412      4B3CD864 
 412      8C1FC7F8 
 412      498CA7
 413 0c50 613C1DE3 		.ascii	"a<\035\343\247\274\002\213)\335\313,\246\326_!\260\270"
 413      A7BC028B 
 413      29DDCB2C 
 413      A6D65F21 
 413      B0B8
 414 0c62 694EB9D1 		.ascii	"iN\271\321\302\321\235|\364Q\225\237\307n\361\002\336"
 414      C2D19D7C 
 414      F451959F 
 414      C76EF102 
 414      DE
 415 0c73 FE1D870B 		.ascii	"\376\035\207\013\277m\350\205\367a\374\035\306\3471"
 415      BF6DE885 
 415      F761FC1D 
 415      C6E731
 416 0c82 BE8471BB 		.ascii	"\276\204q\273\310RpQ\362\2060\347_X\027L\016I\215\372"
 416      C8527051 
 416      F28630E7 
 416      5F58174C 
 416      0E498DFA 
 417 0c96 F5098FFE 		.ascii	"\365\011\217\376\033\003\240\301\353\326\0037z\355="
 417      1B03A0C1 
 417      EBD60337 
 417      7AED3D
 418 0ca5 F00D6948 		.ascii	"\360\015iH\235\235\024t\332\2472\015\357\327\366\325"
 418      9D9D1474 
 418      DAA7320D 
 418      EFD7F6D5 
 419 0cb5 C7BF4537 		.ascii	"\307\277E75\007}\337\376\364\276\217\207!\315\316\265"
 419      35077DDF 
 419      FEF4BE8F 
 419      8721CDCE 
 419      B5
ARM GAS  /tmp/ccW9nGcV.s 			page 33


 420 0cc6 FABEF72B 		.ascii	"\372\276\367+\362in\372\275\357\226\265M\262>1G|\251"
 420      F2696EFA 
 420      BDEF96B5 
 420      4DB23E31 
 420      477CA9
 421 0cd9 BA37004B 		.ascii	"\2727\000K\325\005^\262T=j!Vp\251\272\330kY\2526y\025"
 421      D5055EB2 
 421      543D6A21 
 421      5670A9BA 
 421      D86B59AA 
 422 0cf0 9A9B7EA1 		.ascii	"\232\233~\241z\352\212\216\013\325\037\257\260]\250"
 422      7AEA8A8E 
 422      0BD51FAF 
 422      B05DA8
 423 0cff 5EBAC2FD 		.ascii	"^\272\302\375B5I\232*?\213\235p\211\327~\241\252\312"
 423      4235499A 
 423      2A3F8B9D 
 423      7089D77E 
 423      A1AACA
 424 0d12 7B3D8A21 		.ascii	"{=\212!{;F\323xv\220\374\241\3576\020\311\323\371\203"
 424      7B3B46D3 
 424      787690FC 
 424      A1EF3610 
 424      C9D3F983 
 425 0d26 228DCD95 		.ascii	"\"\215\315\225]\302\0058\270#\013;>\237k\367\000\263"
 425      5DC20538 
 425      B8230B3B 
 425      3E9F6BF7 
 425      00B3
 426 0d38 C7C4EA9F 		.ascii	"\307\304\352\2374\302ugZ\376\261\021'e\257\240\025\356"
 426      34C27567 
 426      5AFEB111 
 426      2765AFA0 
 426      15EE
 427 0d4a C94D6B85 		.ascii	"\311Mk\205<\216*\257\364\022i\254\262Z\342\351\247q"
 427      3C8E2AAF 
 427      F41269AC 
 427      B25AE2E9 
 427      A771
 428 0d5c 01BB4AC8 		.ascii	"\001\273J\310\026\317\037\234\357n\337\244\365\354\367"
 428      16CF1F9C 
 428      EF6EDFA4 
 428      F5ECF7
 429 0d6b E77F4577 		.ascii	"\347\177Ew\333\326\242E>\321\245S\026\271\336j\221{"
 429      DBD6A245 
 429      3ED1A553 
 429      16B9DE6A 
 429      917B
 430 0d7d E9E6C97A 		.ascii	"\351\346\311z!\233l\350\322\321&\027w\261\265\311e]"
 430      219B6CE8 
 430      D2D12617 
 430      77B1B5C9 
 430      655D
 431 0d8f 789B34B2 		.ascii	"x\2334\262\327%\263=L\366\277\222\331^&{o2\333'j\330"
 431      D725B33D 
 431      4CF6BF92 
 431      D95E267B 
ARM GAS  /tmp/ccW9nGcV.s 			page 34


 431      6F32DB27 
 432 0da5 EB19C3DE 		.ascii	"\353\031\303\336\200\206\335\224\306\260Wu\326\260\301"
 432      8086DD94 
 432      C6B05775 
 432      D6B0C1
 433 0db4 9ADEACDA 		.ascii	"\232\336\254\332\214[\344\002\017\264?d\002\346$\264"
 433      8C5BE402 
 433      0FB43F64 
 433      02E624B4 
 434 0dc4 1A7FFDA0 		.ascii	"\032\177\375\240\234ocr\\QU\336\011l\244+\205\017Iv"
 434      9C6F6372 
 434      5C5155DE 
 434      096CA42B 
 434      850F4976 
 435 0dd8 98191E44 		.ascii	"\230\031\036D\233|[\310&W\035\234\345r/\357\364\007"
 435      9B7C5BC8 
 435      26571D9C 
 435      E5722FEF 
 435      F407
 436 0dea E41CE55D 		.ascii	"\344\034\345]\264\307\303\235\263\307f\253=\2664\240"
 436      B4C7C39D 
 436      B3C766AB 
 436      3DB634A0 
 437 0dfa 3D360BD9 		.ascii	"=6\013\331\343\011\326\366\214\274\263\366\2067)\217"
 437      E309D6F6 
 437      8CBCB3F6 
 437      8637298F 
 438 0e0a 373C1153 		.ascii	"7<\021SjfLi/\232\322>\007SR\2449y\262\241\201\316\371"
 438      6A664C69 
 438      2F9AD23E 
 438      075352A4 
 438      3979B2A1 
 439 0e21 C8350767 		.ascii	"\3105\007g\031\253s\372\220\342\"+\236\233\351/\340"
 439      19AB73FA 
 439      90E2222B 
 439      9E9BE92F 
 439      E0
 440 0e32 6D3898BD 		.ascii	"m8\230\275\362!qU>u\220\250\3620\252\362\345\274N\251"
 440      F2217155 
 440      3E7590A8 
 440      F230AAF2 
 440      E5BC4EA9 
 441 0e46 F2A85595 		.ascii	"\362\250U\225mT\225G\205T\271)\257\243*w\345\331\252"
 441      6D549547 
 441      8554B929 
 441      AFA32A77 
 441      E5D9AA
 442 0e59 F2482754 		.ascii	"\362H'Ty\224Qe+\252\362cGU\236\021Q\245\335R\201i\217"
 442      79945165 
 442      2BAAF263 
 442      47559E11 
 442      51A5DD52 
 443 0e70 B6B40B5B 		.ascii	"\266\264\013[z\007\347\257-\030\037bg\2610r[Dm\366U"
 443      7A07E7AF 
 443      2D181F62 
 443      67B13072 
 443      5B446DF6 
ARM GAS  /tmp/ccW9nGcV.s 			page 35


 444 0e85 0629D9A9 		.ascii	"\006)\331\251\245TXN\023\265\355\354\214x\322\2252\357"
 444      A554584E 
 444      13B5EDEC 
 444      8C78D295 
 444      32EF
 445 0e97 EF5C1AD5 		.ascii	"\357\\\032\325\234C\363\335\335\301\211\277\321p5\261"
 445      9C43F3DD 
 445      DDC189BF 
 445      D17035B1 
 446 0ea7 81AF5085 		.ascii	"\201\257P\205S\257\374YN\210\346\210p\221b\337|\315"
 446      53AFFC59 
 446      4E88E688 
 446      709162DF 
 446      7CCD
 447 0eb9 A1F9C6EE 		.ascii	"\241\371\306\356\361J\334oy\301:\012\360\207\306v\200"
 447      F14ADC6F 
 447      79C13A0A 
 447      F087C676 
 447      80
 448 0eca BC58DE3B 		.ascii	"\274X\336;d\275rI\037\317r\226K\353\364e\007\215\335"
 448      64BD7249 
 448      1FCF7296 
 448      4BEBF465 
 448      078DDD
 449 0edd F8D35EB2 		.ascii	"\370\323^\262\033\367a\007\321\314R,\317\253t8B\374"
 449      1BF76107 
 449      D1CC522C 
 449      CFAB7438 
 449      42FC
 450 0eef 4A440E29 		.ascii	"JD\016)\356\016\256;s\272\346\365\225\272>\301\274r"
 450      EE0EAE3B 
 450      73BAE6F5 
 450      95BA3EC1 
 450      BC72
 451 0f01 A74FD46F 		.ascii	"\247O\324oz!\251\317<\023CI\352s\035\325\347\367\250"
 451      7A21A9CF 
 451      3C134349 
 451      EA731DD5 
 451      E7F7A8
 452 0f14 CF3316A2 		.ascii	"\3173\026\242\205aZ\217LY\377G\\\013\234G\240\213\235"
 452      85615A8F 
 452      4C59FF47 
 452      5C0B9C47 
 452      A08B9D
 453 0f27 066A98FA 		.ascii	"\006j\230\372<}\"\373\"\002M\350j\025\243\307b`\036"
 453      3C7D22FB 
 453      22024DE8 
 453      6A15A3C7 
 453      62601E
 454 0f3a DEC03C99 		.ascii	"\336\300<\231\311D{;\377\362\235\237\271\260\"\325w"
 454      C9447B3B 
 454      FFF29D9F 
 454      B9B022D5 
 454      77
 455 0f4b B5288CE3 		.ascii	"\265(\214\343\210[\3528L7\366F^7N\344\351(1\313\212"
 455      885BEA38 
 455      4C37F646 
ARM GAS  /tmp/ccW9nGcV.s 			page 36


 455      5E374EE4 
 455      E92831CB 
 456 0f60 6867021C 		.ascii	"hg\002\034\"o\271\027\017\341\016>\005[ \002\226\342"
 456      226FB917 
 456      0FE10E3E 
 456      055B2002 
 456      96E2
 457 0f72 C98F59F3 		.ascii	"\311\217Y\363\027\210\276\334\307f.\324\272f\315\333"
 457      1788BEDC 
 457      C7662ED4 
 457      BA66CDDB 
 458 0f82 7F2133DC 		.ascii	"\177!3\334\364\363\241I>\261\371\320d\237\365y\317\335"
 458      F4F3A149 
 458      3EB1F9D0 
 458      649FF579 
 458      CFDD
 459 0f94 381F22F9 		.ascii	"8\037\"\371\002O|\012\336\275\211'"
 459      024F7C0A 
 459      DEBD8927 
 460 0fa0 BC458F24 		.ascii	"\274E\217$3\357\037\177\3536:]\177\322G\326\031\337"
 460      33EF1F7F 
 460      EB363A5D 
 460      7FD247D6 
 460      19DF
 461 0fb2 764DBFCE 		.ascii	"vM\277\316\340p\010}\365V\372\327\354A\372\353\323\323"
 461      E070087D 
 461      F556FAD7 
 461      EC41FAEB 
 461      D3D3
 462 0fc4 3F7E5C7C 		.ascii	"?~\\|\275\361\030\235\271\2133\256\233l`\212:\177\036"
 462      BDF1189D 
 462      B98B33AE 
 462      9B6C608A 
 462      3A7F1E
 463 0fd7 6F037D7E 		.ascii	"o\003}~\211\202Mt\015\226\317\201md\301\036\027\001"
 463      89824D74 
 463      0D96CF81 
 463      6D64C11E 
 463      1701
 464 0fe9 4BB137B7 		.ascii	"K\2617\267\211\005\233\346\032\214\247l3\0136S\004,"
 464      89059BE6 
 464      1A8CA76C 
 464      330B3653 
 464      042C
 465 0ffb C5BE5C33 		.ascii	"\305\276\\3\013"
 465      0B
 466 1000 36C73558 		.ascii	"6\3075X\276\235z\245\016\326\241\312\323}x\017\301\207"
 466      BE9D7AA5 
 466      0ED6A1CA 
 466      D37D780F 
 466      C187
 467 1012 F710309E 		.ascii	"\367\0200\236\215q#\306Oc<\327'0]x\302\307L\027\346"
 467      8D7123C6 
 467      4F633CD7 
 467      27305D78 
 467      C2C74C17 
 468 1027 21C1933B 		.ascii	"!\301\223;g1\340\257\326\2549\366\347\215\035\227GT"
ARM GAS  /tmp/ccW9nGcV.s 			page 37


 468      6731E0AF 
 468      D6AC39F6 
 468      E78D1D97 
 468      4754
 469 1039 1E4E142C 		.ascii	"\036N\024,d)X\342\232\202|\226\202x\333nz\313\337\334"
 469      642958E2 
 469      9A827C96 
 469      8278DB6E 
 469      7ACBDFDC 
 470 104d 7A78D18A 		.ascii	"zx\321\212\347\352\310}l\374\362n\230U\233`+]\203\361"
 470      E7EAC87D 
 470      6CFCF26E 
 470      98559B60 
 470      2B5D83F1 
 471 1061 FB18F57B 		.ascii	"\373\030\365{\030\260\215\256\301\362:X\004\265\205"
 471      18B08DAE 
 471      C1F23A58 
 471      04B585
 472 1070 29680B8F 		.ascii	")h\013\217\243\316\027`\274\030\343%\030/e\255@\221"
 472      A3CE1760 
 472      BC18E325 
 472      182F65AD 
 472      4091
 473 1082 DEEC661D 		.ascii	"\336\354f\0350\251sdP\223^T\022\305u\322\355\004V\267"
 473      30A97364 
 473      50935E54 
 473      12C575D2 
 473      ED0456B7 
 474 1096 EF75733B 		.ascii	"\357us;\334p\272%\323\227\321\233\215\321\220\000+\322"
 474      DC70BA25 
 474      D397D19B 
 474      8DD19000 
 474      2BD2
 475 10a8 4111C414 		.ascii	"A\021\304\024W7\327~d\235\307\331\271i\205\245-\341"
 475      5737D77E 
 475      649DC7D9 
 475      B96985A5 
 475      2DE1
 476 10ba EEDF7C90 		.ascii	"\356\337|\220\272\373W\320\335\267vK\357\356\025\236"
 476      BAFB57D0 
 476      DDB7764B 
 476      EFEE159E 
 477 10ca 4720DCEA 		.ascii	"G \334\352\356\317\357\247[JB\356\376\322~\326\335\253"
 477      EECFEFA7 
 477      5B4A42EE 
 477      FED27ED6 
 477      DDAB
 478 10dc F254BA4D 		.ascii	"\362T\272M\325iw\177y\177\302u\201\257q\015\226\317"
 478      D569777F 
 478      797FC275 
 478      81AF710D 
 478      96CF
 479 10ee 81D51F60 		.ascii	"\201\325\037`\374\340\327TM\235v\3673X\260\323\256\301"
 479      FCE0D754 
 479      4D9D76F7 
 479      3358B0D3 
 479      AEC1
ARM GAS  /tmp/ccW9nGcV.s 			page 38


 480 1100 78CA661E 		.ascii	"x\312f\036`\330\234\"\302f\012w?\233\245\354{\021\312"
 480      60D89C22 
 480      C2660A77 
 480      3F9BA5EC 
 480      7B11CA
 481 1113 521CC234 		.ascii	"R\034\3024\262`\027D\300\234nW\000\330\323,\330e\327"
 481      B2601744 
 481      C09C6E57 
 481      00D8D32C 
 481      D865D7
 482 1126 603C6573 		.ascii	"`<esY\260\261W\011\200\345;S6\237\005{\3145X\276]\227"
 482      59B0B157 
 482      0980E53B 
 482      53369F05 
 482      7BCC3558 
 483 113d A01FB647 		.ascii	"\240\037\266G\251\362jt\213k\320Y\255\305x\035\306\353"
 483      A9F26A74 
 483      8B6BD059 
 483      ADC5781D 
 483      C6EB
 484 114f 316EC278 		.ascii	"1n\302x#\306\2330\336\214q\034\343-\"\316\355e\326\271"
 484      23C69B30 
 484      DE8C711C 
 484      E32D22CE 
 484      ED65D6B9 
 485 1163 3D79955B 		.ascii	"=y\225[W\224\232\021\346\310l5n*\254\301-\200m\030\177"
 485      57949A11 
 485      E6C86C35 
 485      6E2AACC1 
 485      2D806D18 
 486 1178 89F1298C 		.ascii	"\211\361)\214\277\305\370\034\306:\022?\026\343\361"
 486      BFC5F81C 
 486      C63A123F 
 486      16E3F1
 487 1187 18BF84F1 		.ascii	"\030\277\204\361r!v\274\314\265\230\255>\313\011\200"
 487      722176BC 
 487      CCB598AD 
 487      3ECB0980 
 488 1197 BB71B8B5 		.ascii	"\273q\270\265\355\253\363g\344\351\364R&}\237\327\364"
 488      EDABF367 
 488      E4E9F452 
 488      267D9FD7 
 488      F4
 489 11a8 ABE4F488 		.ascii	"\253\344\364\210)\026\361\247O\004\364\2119\346\311"
 489      2916F1A7 
 489      4F04F489 
 489      39E6C9
 490 11b7 580FEE60 		.ascii	"X\017\356`\354\001\263~\266A\376N\237\333s\261\267|"
 490      EC01B37E 
 490      B641FE4E 
 490      9FDB73B1 
 490      B77C
 491 11c9 F6E76259 		.ascii	"\366\347bY\011\015\317\2612\300\265\232\306\361\300"
 491      090DCFB1 
 491      32C0B59A 
 491      C6F1C0
 492 11d8 6073EE47 		.ascii	"`s\356G\343\214\225^\237\232/\"\217\024\327\247\276"
ARM GAS  /tmp/ccW9nGcV.s 			page 39


 492      E38C955E 
 492      9F9A2F22 
 492      8F14D7A7 
 492      BE
 493 11e9 AF20B2A5 		.ascii	"\257 \262\245XK\\c\2454\276\271\214\361\315C\343\233"
 493      584B5C63 
 493      A534BEB9 
 493      8CF1CD43 
 493      E39B
 494 11fb 8FE6F512 		.ascii	"\217\346\365\022\306\313\251!\242a\355\300x\027\306"
 494      C6CBA921 
 494      A261EDC0 
 494      7817C6
 495 120a EFB24626 		.ascii	"\357\262F&r\234\331\337\244,\303h\267\331\265\326\366"
 495      729CD9DF 
 495      A42CC368 
 495      B7D9B5D6 
 495      F6
 496 121b 3A68CD9F 		.ascii	":h\315\237\306\326\367$\273\356\365\322|=\376m\353\272"
 496      C6D6F724 
 496      BBEEF5D2 
 496      7C3DFE6D 
 496      EBBA
 497 122d 4FBEECB1 		.ascii	"O\276\354\261\214L.\364\313\355\377\0343V\266\\DK1\177"
 497      8C4C2EF4 
 497      CBEDFF1C 
 497      3356B65C 
 497      444B317F 
 498 1241 DDEF73BE 		.ascii	"\335\357s\276\210&\372\254\326\245\343g\256\245\323"
 498      8826FAAC 
 498      D6A5E367 
 498      AEA5D3
 499 1250 8903389D 		.ascii	"\211\0038\235\230}\265\355t\"\365\223\205-\326\351\304"
 499      987DB5ED 
 499      7422F593 
 499      852DD6E9 
 499      C4
 500 1261 BAEDF48A 		.ascii	"\272\355\364\212\245\320\352\267i\373r\3417\365Z\036"
 500      A5D0EAB7 
 500      69FB72E1 
 500      37F55A1E 
 501 1271 3E5976B5 		.ascii	">Yv\265\375\253z\271b\252\374\021\372\224\243V*\237"
 501      FDAB7AB9 
 501      62AAFC11 
 501      FA94A356 
 501      2A9F
 502 1283 A217418F 		.ascii	"\242\027A\217\012Q9k\273\361D\311\012|!\342\033\262"
 502      0A51396B 
 502      BBF144C9 
 502      0A7C21E2 
 502      1BB2
 503 1295 09D9A905 		.ascii	"\011\331\251\005\013\275\332C_>\012\306\354\032,\337"
 503      0BBDDA43 
 503      5F3E0AC6 
 503      EC1A2CDF 
 504 12a5 0EEC2D04 		.ascii	"\016\354-\004; \002\346\274\3600\301\350{\037\017\271"
 504      3B2002E6 
ARM GAS  /tmp/ccW9nGcV.s 			page 40


 504      BCF030C1 
 504      E87B1F0F 
 504      B9
 505 12b6 06CBB788 		.ascii	"\006\313\267\210/9\237\377\030;\3531\214?\301\370S\221"
 505      2F399FFF 
 505      183BEB31 
 505      8C3FC1F8 
 505      5391
 506 12c8 D1E1B08F 		.ascii	"\321\341\260\217\031\035\306\342\203_-\356\305n\367"
 506      191DC6E2 
 506      835F2DEE 
 506      C56EF7
 507 12d7 610D5795 		.ascii	"a\015W\225\017\342\250}H\204\244\367\223$%\336#\367"
 507      0FE2A87D 
 507      4884A4F7 
 507      932425DE 
 507      23F7
 508 12e9 25BF89AA 		.ascii	"%\277\211\252H\377\262\364\244\033\245gu}\006v\367/"
 508      48FFB2F4 
 508      A41BA567 
 508      757D0676 
 508      F72F
 509 12fb 898C298C 		.ascii	"\211\214)\214\"\275\203\345\366\371\256\267m\316h\214"
 509      22BD83E5 
 509      F6F9AEB7 
 509      6DCE688C 
 510 130b 56D61BB6 		.ascii	"V\326\033\266\347\324\313\264-EjNS\321\240\350?\244"
 510      E7D4CBB4 
 510      2D456A4E 
 510      53D1A0E8 
 510      3FA4
 511 131d E748FFF8 		.ascii	"\347H\377\370\340\323\241w\033\307\251\316\225\014\376"
 511      E0D3A177 
 511      1BC7A9CE 
 511      950CFE
 512 132c 8EFBB877 		.ascii	"\216\373\270w\320\023G\265\260\265\265\345\344\226r"
 512      D01347B5 
 512      B0B5B5E5 
 512      E49672
 513 133b 729B4B6F 		.ascii	"r\233Koo\377\247$~]\366\233\364^\212\273\205\226x\323"
 513      6FFFA724 
 513      7E5DF69B 
 513      F45E8ABB 
 513      859678D3 
 514 134f 539594F0 		.ascii	"S\225\224\360R\363N\235\271\021\367^\277E'\365\243\275"
 514      52F34E9D 
 514      B911F75E 
 514      BF4527F5 
 514      A3BD
 515 1361 93728621 		.ascii	"\223r\206!t\234\265v\3776r\241\343\254@\347\327\343"
 515      749CB576 
 515      FF3672A1 
 515      E3AC40E7 
 515      D7E3
 516 1373 ED4BE8C3 		.ascii	"\355K\350\303i\364>\311\230\356\262\201g\372\033\356"
 516      69F43EC9 
 516      98EEB281 
ARM GAS  /tmp/ccW9nGcV.s 			page 41


 516      67FA1BEE 
 517 1383 F648BACE 		.ascii	"\366H\272\316\257\307\247\177\323\350A\274\236Yd&j\205"
 517      AFC7A77F 
 517      D3E841BC 
 517      9E596426 
 517      6A85
 518 1395 7333AD05 		.ascii	"s3\255\005\264\031\357\312d@F\254\351\256\261\3629\254"
 518      B419EFCA 
 518      644046AC 
 518      E9AEB1F2 
 518      39AC
 519 13a7 59E70240 		.ascii	"Y\347\002@\2309l\2221pw\362\"\346C&\200\271\353y\321"
 519      98396C92 
 519      317077F2 
 519      22E64326 
 519      80B9EB79 
 520 13bc F5B079C9 		.ascii	"\365\260y\311a\3304\355\015f'V\016\270V\215d\212\207"
 520      61D834ED 
 520      0D662756 
 520      0EB8568D 
 520      648A87
 521 13cf 2C67FB76 		.ascii	",g\373v\366r\240\237\277\227\212\227\270\374n\031\030"
 521      F672A09F 
 521      BF978A97 
 521      B8FC6E19 
 521      18
 522 13e0 E3B76720 		.ascii	"\343\267g \220``\241\225\201\364\327ay\0354\372\032"
 522      906060A1 
 522      9581F4D7 
 522      61791D34 
 522      FA1A
 523 13f2 4D0E16DE 		.ascii	"M\016\026\336\321\230\346\005\330\343]s0\301\201\203"
 523      D198E605 
 523      D8E35D73 
 523      30C18183 
 524 1402 E445D8C5 		.ascii	"\344E\330\305\"F\344\370\356\027=\376t\222\201\016w"
 524      2246E4F8 
 524      EE173DFE 
 524      7492810E 
 524      77
 525 1413 79B99199 		.ascii	"y\271\221\231\220\363\230k\006&;0\320%\301\300\262\016"
 525      90F3986B 
 525      06263B30 
 525      D025C1C0 
 525      B20E
 526 1425 1DD4EE98 		.ascii	"\035\324\356\230\315\356\2053v\037\326u\250\362w8L\234"
 526      CDEE8533 
 526      761FD675 
 526      A8F27738 
 526      4C9C
 527 1437 C3F1EB07 		.ascii	"\303\361\353\007\214\317c\334\206q;\306\343\374$\236"
 527      8CCF63DC 
 527      86713BC6 
 527      E3FC249E 
 528 1447 E417184A 		.ascii	"\344\027\030JN\331\014%\306z(\345K\247\025imw\333\361"
 528      4ED90C25 
 528      C67A28E5 
ARM GAS  /tmp/ccW9nGcV.s 			page 42


 528      4BA71569 
 528      6D77DBF1 
 529 145b 05BCF4BF 		.ascii	"\005\274\364\277\310CiwSlE\212c\271\257\035\207\211"
 529      C8436977 
 529      536C458A 
 529      63B9AF1D 
 529      8789
 530 146d 53CCF8D2 		.ascii	"S\314\370\322\024\272\2336\257H[\323TC\"\215j\347\377"
 530      14BA9B36 
 530      AF485BD3 
 530      5443228D 
 530      6AE7FF
 531 1480 DEC3DC5C 		.ascii	"\336\303\334\\\334e\255fy\241\213\301\2131(=\251O\310"
 531      DC65AD66 
 531      79A18BC1 
 531      8B31283D 
 531      A94FC8
 532 1493 9371F490 		.ascii	"\223q\364\220\214Z\234\334\237\364\333\214C\361\263"
 532      8C5A9CDC 
 532      9FF4DB8C 
 532      43F1B3
 533 14a2 4772EAC7 		.ascii	"Gr\352\307\264\266\267_\357\342E\277\263\375\226W\304"
 533      B4B6B75F 
 533      EFE245BF 
 533      B3FD9657 
 533      C4
 534 14b3 12AE8D1F 		.ascii	"\022\256\215\037\001i\022\275t\240\217\221GJ\266t'_"
 534      016912BD 
 534      74A08F91 
 534      474AB674 
 534      275F
 535 14c5 5A036380 		.ascii	"Z\003c\200?@\266\024\273\363\347\376\014\325\244\200"
 535      3F40B614 
 535      BBF3E7FE 
 535      0CD5A480 
 536 14d5 A9729A36 		.ascii	"\251r\2326S\346\375\005N\217\007m\365\250\267U\030\032"
 536      53E6FD05 
 536      4E8F076D 
 536      F5A8B755 
 536      181A
 537 14e7 54E5697E 		.ascii	"T\345i~2\351\231\345\027\321\340\002\242\012J\342q\004"
 537      32E999E5 
 537      17D1E002 
 537      A20A4AE2 
 537      7104
 538 14f9 66AA5954 		.ascii	"f\252YTa\320i\250b\305\304\011y^*D)Ek\006\007sm53{\273"
 538      61D069A8 
 538      62C5C409 
 538      795E2A44 
 538      29456B06 
 539 1514 7BCD2CB6 		.ascii	"{\315,\266\323\214ED'\355Et\311*\242E\251E\344\304\253"
 539      D38C4544 
 539      27ED4574 
 539      C92AA245 
 539      A945E4C4 
 540 1529 533583C2 		.ascii	"S5\203\302%\266\274n\356\004\257/\244\260BU\356\227"
 540      25B6BC6E 
ARM GAS  /tmp/ccW9nGcV.s 			page 43


 540      EE04AF2F 
 540      A4B04255 
 540      EE97
 541 153b 6D631D6D 		.ascii	"mc\035m\366\254?\023\262\260\376\274\220u\354'\325\372"
 541      F6AC3F13 
 541      B2B0FEBC 
 541      9075EC27 
 541      D5FA
 542 154d 91EE3DED 		.ascii	"\221\356=\355\0329e\255~)\344\345T\313\340r\231\255"
 542      1A3965AD 
 542      7E29E4E5 
 542      54CBE072 
 542      99AD
 543 155f BC56EF30 		.ascii	"\274V\3570\344E\305\240H\215\327\330r\266\312\312\331"
 543      E445C5A0 
 543      488DD7D8 
 543      72B6CACA 
 543      D9
 544 1570 4A21CE5A 		.ascii	"J!\316Z\022\234\255@\\\347Z\2518s\252ep\266\212\347"
 544      129CAD40 
 544      5CE75AA9 
 544      3873AA65 
 544      70B68AE7 
 545 1584 EC7F644F 		.ascii	"\354\177dO\203\027\371k\255o]\373\311\026\337\034}\213"
 545      8317F96B 
 545      AD6F5DFB 
 545      C916DF1C 
 545      7D8B
 546 1596 EDEC38C5 		.ascii	"\355\3548\305\032~\203\325$\336gM\302\230\302\033\277"
 546      1A7E83D5 
 546      24DE674D 
 546      C298C21B 
 546      BF
 547 15a7 45D7F42D 		.ascii	"E\327\364-m\373\256\333\2007>6\371\361% \327\270\\\323"
 547      6DFBAEDB 
 547      80373E36 
 547      F9F12520 
 547      D7B85CD3 
 548 15bb 1B373056 		.ascii	"\03370V}Cnj\275\201\030\247,\030\252<\310rx3\310\362"
 548      7D436E6A 
 548      BD8118A7 
 548      2C18AA3C 
 548      C8727833 
 549 15d1 06884BED 		.ascii	"\006\210K\355\212^\037\300|E\232\322\303\321]\336u\203"
 549      8A5E1FC0 
 549      7C459AD2 
 549      C3D15DDE 
 549      7583
 550 15e3 C31F0625 		.ascii	"\303\037\006%\007\335-\376\337u,i\351)3{\360\024\232"
 550      07DD2DFE 
 550      DF752C69 
 550      E929337B 
 550      F0149A
 551 15f6 85B67650 		.ascii	"\205\266vPZcBim_\275\2459)-UG\336\341O\365\010\340\034"
 551      5A634269 
 551      6D5FBDA5 
 551      39292D55 
ARM GAS  /tmp/ccW9nGcV.s 			page 44


 551      47DEE14F 
 552 160e 87ED30DC 		.ascii	"\207\3550\334\355\363w\034\357\371\377[\3404\336\317"
 552      EDF3771C 
 552      EFF9FF5B 
 552      E034DECF 
 553 161e 77E0EF9D 		.ascii	"w\340\357\235\216\335\255\265>~\351\303't\331\326A\245"
 553      8EDDADB5 
 553      3E7EE9C3 
 553      2774D9D6 
 553      41A5
 554 1630 58AAEDB6 		.ascii	"X\252\355\266\032#\2416\335\264\304\361M\353\326\337"
 554      1A23A136 
 554      DDB4C4F1 
 554      4DEBD6DF 
 555 1640 C7B8F216 		.ascii	"\307\270\362\026\2311\273s\035\310:\340g\227\326\026"
 555      9931BB73 
 555      1DC83AE0 
 555      6797D616 
 556 1650 B1AC7310 		.ascii	"\261\254s\020\313\007\266bi?\354$\226\224\377<#\245"
 556      CB07B662 
 556      693FEC24 
 556      9694FF3C 
 556      23A5
 557 1662 5C8C71D4 		.ascii	"\\\214q\324B\327V\007\272\016\363t\375FZD\014\361\203"
 557      42D75607 
 557      BA0EF374 
 557      FD465A44 
 557      0CF183
 558 1675 A567FFFA 		.ascii	"\245g\377\372\362X}\374d\362\317J\344v\217\371\377\264"
 558      F2587DFC 
 558      64F2CF4A 
 558      E4768FF9 
 558      FFB4
 559 1687 E65D6BA2 		.ascii	"\346]k\242\030\264Y\376W\026\356n%\021\011\232\276\017"
 559      18B459FE 
 559      5716EE6E 
 559      2511099A 
 559      BE0F
 560 1699 E6802FDD 		.ascii	"\346\200/\335\324\240\307\307\350\372\305\366vY6\347"
 560      D4A0C7C7 
 560      E8FAC5F6 
 560      765936E7 
 561 16a9 668BAC60 		.ascii	"f\213\254`\035.V\266\032P\017\310\011\365v\362!\331"
 561      1D2E56B6 
 561      1A500FC8 
 561      09F576F2 
 561      21D9
 562 16bb 63BCC872 		.ascii	"c\274\310r\244\307Ym\017r\356 \237\372s$\313\307\251"
 562      A4C7596D 
 562      0F72EE20 
 562      9FFA7324 
 562      CBC7A9
 563 16ce E8C749BB 		.ascii	"\350\307I\273\260X\023\361{N\265>s\254E|\261S\255\343"
 563      B05813F1 
 563      7B4EB53E 
 563      73AC457C 
 563      B153ADE3 
ARM GAS  /tmp/ccW9nGcV.s 			page 45


 564 16e2 0EB5C425 		.ascii	"\016\265\304%r\302jD\204S\241\177;\360\271#\305d\365"
 564      72C26A44 
 564      8453A17F 
 564      3BF0B923 
 564      C564F5
 565 16f5 E754EB4B 		.ascii	"\347T\353K\307Z\217\245\250\365\225c\255\335)\244\363"
 565      C75A8FA5 
 565      A8F59563 
 565      ADDD29A4 
 565      F3
 566 1706 B563AD1D 		.ascii	"\265c\255\035)j}\343X\213\354l;\325:\351X\253%E[\247"
 566      296A7DE3 
 566      588BEC6C 
 566      3BD53AE9 
 566      58AB2545 
 567 171c 181FF2A7 		.ascii	"\030\037\362\247\202\021\221\352PAy\244\342\321\202"
 567      821191EA 
 567      504179A4 
 567      E2D182
 568 172b 8AD0A882 		.ascii	"\212\320\250\202\362\021\341a\341H\254@\213\326\325"
 568      F211E161 
 568      E148AC40 
 568      8BD6D5
 569 173a 3C5C0089 		.ascii	"<\\\000\211\021jUA\270\246\274\252\256\"T\020\013E\303"
 569      116A5541 
 569      B8A6BCAA 
 569      AE225410 
 569      0B45C3
 570 174d 6A55CF11 		.ascii	"jU\317\021RN)\246\212\243\341Q\241\250\377\256{\357"
 570      524E29A6 
 570      8AA3E151 
 570      A1A8FFAE 
 570      7BEF
 571 175f CF2F92BA 		.ascii	"\317/\222\272\260y\177\033RVXP\027\213\026T\205\207"
 571      B0797F1B 
 571      52565850 
 571      178B1654 
 571      8587
 572 1771 150C2F2F 		.ascii	"\025\014///P\243\3257\327DjB7\207\324a\341\202\276="
 572      2F50A3D5 
 572      37D7446A 
 572      423787D4 
 572      61E182BE 
 573 1786 FBF7EC9B 		.ascii	"\373\367\354\233\204\325**B\225\000\353\217\205\377"
 573      84D52A2A 
 573      429500EB 
 573      8F85FF
 574 1795 3714D46E 		.ascii	"7\024\324n\304\232|\015\246l\270F\203\262\031u\360\335"
 574      C49A7C0D 
 574      A66CB846 
 574      83B21975 
 574      F0DD
 575 17a7 3FA8F54D 		.ascii	"?\250\365MQ\270Z\005vjB\005A\200W\353\252\264\240\366"
 575      51B85A05 
 575      766A4205 
 575      418057EB 
 575      AAB4A0F6 
ARM GAS  /tmp/ccW9nGcV.s 			page 46


 576 17bb 686D2806 		.ascii	"hm(\006\2253\203A\243\272\357\221hX\013y\243!\265\342"
 576      95338341 
 576      A3BAEF91 
 576      68580B79 
 576      A321B5E2 
 577 17cf EE       		.ascii	"\356"
 578 17d0 74A2886A 		.ascii	"t\242\210j\005\265\221\250\026+\030P2\244h\310h(Y]\033"
 578      05B591A8 
 578      162B1850 
 578      32A468C8 
 578      6828595D 
 579 17e5 AE0A4563 		.ascii	"\256\012Ec\005w\025\025Aq\023\335W\035\033\036\3242"
 579      05771515 
 579      417113DD 
 579      571D1B1E 
 579      D432
 580 17f7 A0813E85 		.ascii	"\240\201>\205A\015\3322R\236\332:\3153<\244\365\027"
 580      410DDA32 
 580      529EDA3A 
 580      CD333CA4 
 580      F517
 581 1809 68C864A1 		.ascii	"h\310d\241|D\354\321X\202l\222\016W\203\210\002u\006"
 581      7C44ECD1 
 581      58826C92 
 581      0E578388 
 581      027506
 582 181c 6616E584 		.ascii	"f\026\345\204$\275\000\257y\001_\363#S\232\217p\245"
 582      24BD00AF 
 582      79015FF3 
 582      23539A8F 
 582      70A5
 583 182e 7946556B 		.ascii	"yFUk\375\\\265\030\032\025\252\321H{\271\230\012\306"
 583      FD5CB518 
 583      1A15AAD1 
 583      487BB998 
 583      0AC6
 584 1840 2275D172 		.ascii	"\"u\321rh4\207\375\231G\177T\205cZ\250&\024\015j\271"
 584      683487FD 
 584      99477F54 
 584      85635AA8 
 584      26140D6A 
 585 1855 7C4646A8 		.ascii	"|FF\250*X\023\032\255\005\264\021\204\014\220C\371\210"
 585      2A58131A 
 585      AD05B411 
 585      840C9043 
 585      F988
 586 1867 204DF775 		.ascii	" M\367u\307\177\371\210\012b\033\265\010\007_\265\321"
 586      C77FF988 
 586      0A621BB5 
 586      08075FB5 
 586      D1
 587 1878 D0A80CAD 		.ascii	"\320\250\014\2556\032\216\004\351\317p$\243<R\243\301"
 587      361A8E04 
 587      E9CF7024 
 587      A33C52A3 
 587      C1
 588 1889 5F6F75AD 		.ascii	"_ou\255\302\021\345\221h\010\340\263I6QT\2716\372\277"
ARM GAS  /tmp/ccW9nGcV.s 			page 47


 588      C211E591 
 588      6808E0B3 
 588      49365154 
 588      B936FABF 
 589 189d 3B87121C 		.ascii	";\207\022\034uK5 \005\242\241\341`\216\240\356X\357"
 589      754B3520 
 589      05A2A1E1 
 589      608EA0EE 
 589      58EF
 590 18af 7E106E81 		.ascii	"~\020n\201\320\037\302\255\236Xa/\010\275!\024B\350"
 590      D01FC2AD 
 590      9E58612F 
 590      08BD2114 
 590      42E8
 591 18c1 03A12F84 		.ascii	"\003\241/\204?A\200r\205P\256\020\312\025B\271>P\256"
 591      3F418072 
 591      8550AE10 
 591      CA1542B9 
 591      3E50AE
 592 18d4 4F6F25DA 		.ascii	"Oo%\332W\211\376I\211\366S\242\267(\321\376J\364VO\264"
 592      5789FE49 
 592      89F653A2 
 592      B728D1FE 
 592      4AF4564F 
 593 18e9 772F08BD 		.ascii	"w/\010\275\225\252(|\365\361\325\006\201\332\014\"\230"
 593      95AA287C 
 593      F5F1D506 
 593      81DA0C22 
 593      98
 594 18fa 4740E0B5 		.ascii	"G@\340\265\301HUE(\352-\037\241F\211\264\324\352P@\213"
 594      C1485545 
 594      28EA2D1F 
 594      A14689B4 
 594      D4EA5040 
 595 190f 69AA06AA 		.ascii	"i\252\006\252\203?b*C\253\216T\320\337\225U\352\360"
 595      833F622A 
 595      43AB8E54 
 595      D0DF9555 
 595      EAF0
 596 1921 5886160D 		.ascii	"X\206\026\015U\306P\216$\341\217V<\012\306\033\010\215"
 596      55C6508E 
 596      24E18F56 
 596      3C0AC61B 
 596      088D
 597 1933 0E6BC07E 		.ascii	"\016k\300~\310\377\210\026\031\366\217\332lTm\265\032"
 597      C8FF8816 
 597      19F68FDA 
 597      6C546DB5 
 597      1A
 598 1944 7B184A86 		.ascii	"{\030J\206\036!\011Om\260.\227\2523\206:\017j]\022\012"
 598      1E21094F 
 598      6DB02E97 
 598      AA33863A 
 598      0F6A5D12 
 599 1959 A63999B5 		.ascii	"\2469\231\265\301G\324\260\026\256\031\336\305\314\036"
 599      C147D4B0 
 599      16AE19DE 
ARM GAS  /tmp/ccW9nGcV.s 			page 48


 599      C5CC1E
 600 1968 5917AA83 		.ascii	"Y\027\252\203\326\363\230\222\230\225U\033\204f1\351"
 600      D6F39892 
 600      9895551B 
 600      846631E9 
 601 1978 C3246484 		.ascii	"\303$d\204jC5\320\327\207\373\252\353@\265}\\\331L\265"
 601      6A4335D0 
 601      D787FBAA 
 601      EB40B57D 
 601      5CD94CB5 
 602 198c 369AB888 		.ascii	"6\232\270\210j\212\016\337\221G\210I\"\022\260P\215"
 602      6A8A0EDF 
 602      91478849 
 602      2212B050 
 602      8D
 603 199d A604F441 		.ascii	"\246\004\364A9Bi\026\341^\255BK\202\314\332H\244*\033"
 603      39426916 
 603      E15EAD42 
 603      4B82CCDA 
 603      48A42A1B 
 604 19b1 CCD734E5 		.ascii	"\314\3274\345LH\323>A{\000J\016\372 dc\222\374\375\021"
 604      4C48D33E 
 604      417B004A 
 604      0EFA2064 
 604      6392FCFD 
 605 19c6 2ACE500C 		.ascii	"*\316P\014\241}X.3Va\210?\263\2648x\377\275\203\357"
 605      A17D582E 
 605      33566188 
 605      3FB3B438 
 605      78FFBD83 
 606 19db 1D5C9601 		.ascii	"\035\\\226\001\251\322\262\373\206\006\340\273d\340"
 606      A9D2B2FB 
 606      8606E0BB 
 606      64E0
 607 19e9 80E2077D 		.ascii	"\200\342\007}X\304]\007E\256H\007\275\"\\\003\235\336"
 607      58C45D07 
 607      45AE4807 
 607      BD225C03 
 607      9DDE
 608 19fb 146B16F4 		.ascii	"\024k\026\364\010#\0310\223\231#M%@\252<R\007\335$\032"
 608      08231930 
 608      9399234D 
 608      2540AA3C 
 608      5207DD24 
 609 1a10 18191C56 		.ascii	"\030\031\034VWY\031\212\372F\006\265Hm\006\024\211\326"
 609      5759198A 
 609      FA4606B5 
 609      486D0614 
 609      89D6
 610 1a22 6A51F88E 		.ascii	"jQ\370\216V\300w\346\310\232\210\026\256|\024PF\006"
 610      56C077E6 
 610      C89A8816 
 610      AE7C1450 
 610      4606
 611 1a34 69D23F12 		.ascii	"i\322?\022\204Q\363\260?\214\230\271\221:\215i\326\037"
 611      8451F3B0 
 611      3F8C98B9 
ARM GAS  /tmp/ccW9nGcV.s 			page 49


 611      913A8D69 
 611      D61F
 612 1a46 C184121E 		.ascii	"\301\204\022\036\246D\206\3759\035# \235\202\242!\245"
 612      A64486FD 
 612      391D2320 
 612      9D82A221 
 612      A5
 613 1a57 834B0B4A 		.ascii	"\203K\013J\313\300\233W\367)\254\354\333\253\367\350"
 613      CBC09B57 
 613      F729ACEC 
 613      DBABF7E8 
 614 1a67 72C2CDFD 		.ascii	"r\302\315\375\245\003J\312\202e\340\355\212C\225Ji\211"
 614      A5034ACA 
 614      8265E0ED 
 614      8A43954A 
 614      6989
 615 1a79 525CE2B9 		.ascii	"R\\\342\271\263\244\304ST\322\033B!\204>\336\273\312"
 615      B3A4C453 
 615      54D21B42 
 615      21843EDE 
 615      BBCA
 616 1a8b 8696F8EA 		.ascii	"\206\226\370\352bjT\273\232\0165\261\202pay0\026\252"
 616      626A54BB 
 616      9A0E35B1 
 616      82706179 
 616      3016AA
 617 1a9e 8945A2A4 		.ascii	"\211E\242\244#\017.,*\305\037`\221\3114J90\370\336\001"
 617      230F2E2C 
 617      2AC51F60 
 617      91C9344A 
 617      3930F8DE 
 618 1ab3 456583FF 		.ascii	"Ee\203\3776\320;\270\370\236\201\336;\357/}0C\255\250"
 618      36D03BB8 
 618      F89E81DE 
 618      3BEF2F7D 
 618      3043ADA8 
 619 1ac7 888662B1 		.ascii	"\210\206b\261b\221q\220v\372\322\262!}\012\013\356\271"
 619      62917190 
 619      76FAD2B2 
 619      217D0A0B 
 619      EEB9
 620 1ad9 A7B800E0 		.ascii	"\247\270\000\340G\365\306\346\253\252\210\217\312\204"
 620      47F5C6E6 
 620      ABAA888F 
 620      CA84
 621 1ae7 0C4A54A1 		.ascii	"\014JT\241\233a\025\000\240r\026|\031\346\222\0058\206"
 621      9B611500 
 621      A072167C 
 621      19E69205 
 621      3886
 622 1af9 BD044892 		.ascii	"\275\004H\222\030\014\301\246\026s\005IQ>\202e\017\260"
 622      180CC1A6 
 622      16730549 
 622      513E8265 
 622      0FB0
 623 1b0b BF4A1EC0 		.ascii	"\277J\036\300\232\367\334W\364\327\201\305\331\200\027"
 623      9AF7DC57 
ARM GAS  /tmp/ccW9nGcV.s 			page 50


 623      F4D781C5 
 623      D98017
 624 1b1a A9A5DD3D 		.ascii	"\251\245\335=\353\276\241C\356+\036\030\204\277v3\222"
 624      EBBEA143 
 624      EE2B1E18 
 624      84BF7633 
 624      92
 625 1b2b A54380FD 		.ascii	"\245C\200\375`\361\300\277\015.\032x%\227w\367}\245"
 625      60F1C0BF 
 625      0D2E1A78 
 625      259777F7 
 625      7DA5
 626 1b3d 651911E8 		.ascii	"e\031\021\350\007P5\273\274*R\376p0V\033\012U\344\002"
 626      075035BB 
 626      BC2A52FE 
 626      7030561B 
 626      0A55E402 
 627 1b51 60459DF6 		.ascii	"`E\235\366h\371\243\345U\200\231[ZV\034,\276\277\354"
 627      68F9A3E5 
 627      5580995B 
 627      5A561C2C 
 627      BEBFEC
 628 1b64 C160D183 		.ascii	"\301`\321\203E\367\014\274r\320\200\3222\346w\260\360"
 628      45F70CBC 
 628      72D080D2 
 628      32E677B0 
 628      F0
 629 1b75 2A6B4EEF 		.ascii	"*kN\357~\301[\263\010B\020!\010GE\221\232\312\360p\177"
 629      7EC15BB3 
 629      08421021 
 629      08474591 
 629      9ACAF070 
 630 1b8a 397E1109 		.ascii	"9~\021\011\030}\313\037\212F#\321\330-\256\272\205\341"
 630      187DCB1F 
 630      8A4623D1 
 630      D82DAEBA 
 630      85E1
 631 1b9c 5240965D 		.ascii	"R@\226]\215A\007|Z(\032\252!\203\227\237feB\033D\345"
 631      8D41077C 
 631      5A281AAA 
 631      2183979F 
 631      6665421B 
 632 1bb2 C6100A24 		.ascii	"\306\020\012$\231C(Iz\311\2372\243\243+\252U\302}\246"
 632      99432849 
 632      7AC99F32 
 632      A3A32BAA 
 632      55C27DA6 
 633 1bc6 66A606B9 		.ascii	"f\246\006\2715\017\214\007\365\035=\232\332x\020p\010"
 633      350F8C07 
 633      F51D3D9A 
 633      DA781070 
 633      08
 634 1bd7 5DC54306 		.ascii	"]\305C\006\004K\301\347\252\325\0113/*\361\336[\\V\342"
 634      044BC1E7 
 634      AAD50933 
 634      2F2AF1DE 
 634      5B5C56E2 
ARM GAS  /tmp/ccW9nGcV.s 			page 51


 635 1beb 193AA0C4 		.ascii	"\031:\240\304;\244\027\211z\017(\361\014**\361\307\260"
 635      3BA41789 
 635      7A0F28F1 
 635      0C2A2AF1 
 635      C7B0
 636 1bfd A0375C59 		.ascii	"\2407\\Y\036\365\207c#\302\225\340QBU\225\341\232\212"
 636      1EF58763 
 636      23C295E0 
 636      51425595 
 636      E19A8A
 637 1c10 D068FFA8 		.ascii	"\320h\377\250P\271\026\211vM\240\007ii\230\321\300\217"
 637      50B91689 
 637      764DA007 
 637      696998D1 
 637      C08F
 638 1c22 E868126B 		.ascii	"\350h\022k\243Ig0\033\362\3367\240\2447\211\012=\245"
 638      A3496730 
 638      1BF2DE37 
 638      A0A43789 
 638      0A3DA5
 639 1c35 D09F4A49 		.ascii	"\320\237JI\177**\361\225\225\014.\035\350\035t\017P"
 639      7F2A2AF1 
 639      95950C2E 
 639      1DE81D74 
 639      0F50
 640 1c47 00A2C920 		.ascii	"\000\242\311 \323\013\350\336^2z\370\264\321w\326U\372"
 640      D30BE8DE 
 640      5E327AF8 
 640      B4D177D6 
 640      55FA
 641 1c59 A2244EEB 		.ascii	"\242$N\353\177G\251\340=\353b\360\007p\243\340#\201"
 641      7F47A9E0 
 641      3DEB62F0 
 641      0770A3E0 
 641      2381
 642 1c6b 5B77DAA3 		.ascii	"[w\332\243\364\023\355]u\247\032\013\225\206\300\253"
 642      F413ED5D 
 642      75A71A0B 
 642      9586C0AB 
 643 1c7b D46830A3 		.ascii	"\324h0\243\244\362\272\306.\023\246\231\001\263A\017"
 643      A4F2BAC6 
 643      2E13A699 
 643      01B3410F 
 644 1c8b 243C95D5 		.ascii	"$<\225\325\332\225\246[\030V][\330\277W\317r\311\232"
 644      DA95A65B 
 644      18565D5B 
 644      D8BF57CF 
 644      72C99A
 645 1c9e 0363344D 		.ascii	"\003c4M\201UP\277\021\250RcZY\250\2726\207$\206\022"
 645      815550BF 
 645      11A85263 
 645      5A59A8BA 
 645      36872486 
 646 1cb3 8750170D 		.ascii	"\207P\027\015\311e\362\320\000\312\000\254(\0205\022"
 646      C965F2D0 
 646      00CA00AC 
 646      28103512 
ARM GAS  /tmp/ccW9nGcV.s 			page 52


 647 1cc3 D946DD70 		.ascii	"\331F\335pMX\363@\332_\201\350\201a@\337\0000\037_\360"
 647      4D58F340 
 647      DA5F81E8 
 647      816140DF 
 647      00301F5F 
 648 1cd8 4E327E18 		.ascii	"N2~\030\245b\304\301\222\0104\221c\344\001|H\353\226"
 648      A562C4C1 
 648      92083491 
 648      63E4017C 
 648      48EB96
 649 1ceb F8A15698 		.ascii	"\370\241V\230\015\006j\215Dw\346\217\204\254PT\325 "
 649      0D066A8D 
 649      4477E68F 
 649      84AC5054 
 649      D520
 650 1cfd DBAB41DA 		.ascii	"\333\253A\332\325\274Z\215\016'\003\341(\025\007\263"
 650      D5BC5A8D 
 650      0E2703E1 
 650      281507B3 
 651 1d0d DC607078 		.ascii	"\334`pxM]y\320\370\231\375\227au\341*\355\346p\315m"
 651      4D5D79D0 
 651      F899FD97 
 651      6175E12A 
 651      EDE670CD 
 652 1d22 64466CE4 		.ascii	"dFl\344\302<m\024\225hw\306\225F\325\232\230Z\256\221"
 652      C23C6D14 
 652      956877C6 
 652      9546D59A 
 652      985AAE91 
 653 1d36 81233799 		.ascii	"\201#7\231Md\220\313:Y\340\2633\216\024\035?\270R\272"
 653      4D6490CB 
 653      3A59E0B3 
 653      338E141D 
 653      3FB852BA 
 654 1d4a C030BCA9 		.ascii	"\3000\274\251\247\264\270_&\321O\021\031\266\376\017"
 654      A7B4B85F 
 654      26D14F11 
 654      19B6FE0F 
 655 1d5a CD9994AF 		.ascii	"\315\231\224\257"
 656              		.text
 657              		.section	.gnu.lto_.symtab.1b9243c300128a07,"",%progbits
 658 0000 626D7032 		.ascii	"bmp280_init\000\000\000\000\000\000\000\000\000\000"
 658      38305F69 
 658      6E697400 
 658      00000000 
 658      00000000 
 659 0015 0000EC02 		.ascii	"\000\000\354\002\000\000bmp280_stop\000\000\000\000"
 659      0000626D 
 659      70323830 
 659      5F73746F 
 659      70000000 
 660 002a 00000000 		.ascii	"\000\000\000\000\000\000\000\000\025\003\000\000bmp"
 660      00000000 
 660      15030000 
 660      626D70
 661 0039 3238305F 		.ascii	"280_reset\000\000\000\000\000\000\000\000\000\000\000"
 661      72657365 
ARM GAS  /tmp/ccW9nGcV.s 			page 53


 661      74000000 
 661      00000000 
 661      00000000 
 662 004d 00210300 		.ascii	"\000!\003\000\000bmp280_readPressure\000\000\000\000"
 662      00626D70 
 662      3238305F 
 662      72656164 
 662      50726573 
 663 0069 00000000 		.ascii	"\000\000\000\000\000\000\000\000'\003\000\000bmp280"
 663      00000000 
 663      27030000 
 663      626D7032 
 663      3830
 664 007b 5F726561 		.ascii	"_readTemperature\000\000\000\000\000\000\000\000\000"
 664      6454656D 
 664      70657261 
 664      74757265 
 664      00000000 
 665 0094 00000030 		.ascii	"\000\000\0000\003\000\000SD6\000\000\002\000\000\000"
 665      03000053 
 665      44360000 
 665      02000000 
 666 00a4 00000000 		.ascii	"\000\000\000\000\000\000]\003\000\000chvprintf\000\000"
 666      00005D03 
 666      00006368 
 666      76707269 
 666      6E746600 
 667 00b9 02000000 		.ascii	"\002\000\000\000\000\000\000\000\000\0007\003\000\000"
 667      00000000 
 667      00003703 
 667      0000
 668 00c7 49324353 		.ascii	"I2CSensor_transact_buf\000\000\002\000\000\000\000\000"
 668      656E736F 
 668      725F7472 
 668      616E7361 
 668      63745F62 
 669 00e5 00000000 		.ascii	"\000\000\000\000F\003\000\000I2CSensor_init\000\000"
 669      46030000 
 669      49324353 
 669      656E736F 
 669      725F696E 
 670 00fd 02000000 		.ascii	"\002\000\000\000\000\000\000\000\000\000M\003\000\000"
 670      00000000 
 670      00004D03 
 670      0000
 671 010b 49324353 		.ascii	"I2CSensor_stop\000\000\002\000\000\000\000\000\000\000"
 671      656E736F 
 671      725F7374 
 671      6F700000 
 671      02000000 
 672 0123 00005803 		.ascii	"\000\000X\003\000\000"
 672      0000
 673              		.text
 674              		.section	.gnu.lto_.opts,"",%progbits
 675 0000 272D6D63 		.ascii	"'-mcpu=cortex-m4' '-mfloat-abi=hard' '-mfpu=fpv4-sp"
 675      70753D63 
 675      6F727465 
ARM GAS  /tmp/ccW9nGcV.s 			page 54


 675      782D6D34 
 675      2720272D 
 676 0033 2D643136 		.ascii	"-d16' '-mno-thumb-interwork' '-mthumb' '-O2' '-fomi"
 676      2720272D 
 676      6D6E6F2D 
 676      7468756D 
 676      622D696E 
 677 0066 742D6672 		.ascii	"t-frame-pointer' '-falign-functions=16' '-ffunction"
 677      616D652D 
 677      706F696E 
 677      74657227 
 677      20272D66 
 678 0099 2D736563 		.ascii	"-sections' '-fdata-sections' '-fno-common' '-flto' "
 678      74696F6E 
 678      73272027 
 678      2D666461 
 678      74612D73 
 679 00cc 272D6673 		.ascii	"'-fsingle-precision-constant'\000"
 679      696E676C 
 679      652D7072 
 679      65636973 
 679      696F6E2D 
 680              		.text
 681              		.section	.text.chprintf.constprop.0,"ax",%progbits
 682              		.align	2
 683              		.p2align 4,,15
 684              		.thumb
 685              		.thumb_func
 686              		.type	chprintf.constprop.0, %function
 687              	chprintf.constprop.0:
 688              		@ args = 4, pretend = 12, frame = 8
 689              		@ frame_needed = 0, uses_anonymous_args = 1
 690 0000 0EB4     		push	{r1, r2, r3}
 691 0002 00B5     		push	{lr}
 692 0004 82B0     		sub	sp, sp, #8
 693 0006 03AA     		add	r2, sp, #12
 694 0008 0548     		ldr	r0, .L2
 695 000a 52F8041B 		ldr	r1, [r2], #4
 696 000e 0192     		str	r2, [sp, #4]
 697 0010 FFF7FEFF 		bl	chvprintf
 698 0014 02B0     		add	sp, sp, #8
 699              		@ sp needed
 700 0016 5DF804EB 		ldr	lr, [sp], #4
 701 001a 03B0     		add	sp, sp, #12
 702 001c 7047     		bx	lr
 703              	.L3:
 704 001e 00BF     		.align	2
 705              	.L2:
 706 0020 00000000 		.word	SD6
 707              		.size	chprintf.constprop.0, .-chprintf.constprop.0
 708 0024 AFF30080 		.section	.text.bmp280_init,"ax",%progbits
 708      AFF30080 
 708      AFF30080 
 709              		.align	2
 710              		.p2align 4,,15
 711              		.global	bmp280_init
 712              		.thumb
ARM GAS  /tmp/ccW9nGcV.s 			page 55


 713              		.thumb_func
 714              		.type	bmp280_init, %function
 715              	bmp280_init:
 716              		@ args = 0, pretend = 0, frame = 0
 717              		@ frame_needed = 0, uses_anonymous_args = 0
 718 0000 F0B5     		push	{r4, r5, r6, r7, lr}
 719 0002 284D     		ldr	r5, .L16
 720 0004 284B     		ldr	r3, .L16+4
 721 0006 2E78     		ldrb	r6, [r5]	@ zero_extendqisi2
 722 0008 85B0     		sub	sp, sp, #20
 723 000a 0136     		adds	r6, r6, #1
 724 000c 0293     		str	r3, [sp, #8]
 725 000e 2827     		movs	r7, #40
 726 0010 00F15C03 		add	r3, r0, #92
 727 0014 0093     		str	r3, [sp]
 728 0016 0197     		str	r7, [sp, #4]
 729 0018 00F15803 		add	r3, r0, #88
 730 001c 2E70     		strb	r6, [r5]
 731 001e 0446     		mov	r4, r0
 732 0020 FFF7FEFF 		bl	I2CSensor_init
 733 0024 2546     		mov	r5, r4
 734 0026 8826     		movs	r6, #136
 735              	.L8:
 736 0028 84F85860 		strb	r6, [r4, #88]
 737 002c 2046     		mov	r0, r4
 738 002e 0121     		movs	r1, #1
 739 0030 0222     		movs	r2, #2
 740 0032 FFF7FEFF 		bl	I2CSensor_transact_buf
 741 0036 80BB     		cbnz	r0, .L5
 742 0038 94F85D20 		ldrb	r2, [r4, #93]	@ zero_extendqisi2
 743 003c 94F85C30 		ldrb	r3, [r4, #92]	@ zero_extendqisi2
 744 0040 03EB0223 		add	r3, r3, r2, lsl #8
 745 0044 AB62     		str	r3, [r5, #40]
 746              	.L6:
 747 0046 0236     		adds	r6, r6, #2
 748 0048 F6B2     		uxtb	r6, r6
 749 004a 8E2E     		cmp	r6, #142
 750 004c 05F10405 		add	r5, r5, #4
 751 0050 EAD1     		bne	.L8
 752 0052 04F12407 		add	r7, r4, #36
 753 0056 2546     		mov	r5, r4
 754 0058 0BE0     		b	.L12
 755              	.L15:
 756 005a 94F85D20 		ldrb	r2, [r4, #93]	@ zero_extendqisi2
 757 005e 94F85C30 		ldrb	r3, [r4, #92]	@ zero_extendqisi2
 758 0062 03EB0223 		add	r3, r3, r2, lsl #8
 759 0066 6B63     		str	r3, [r5, #52]
 760 0068 0435     		adds	r5, r5, #4
 761 006a 0136     		adds	r6, r6, #1
 762 006c BD42     		cmp	r5, r7
 763 006e F6B2     		uxtb	r6, r6
 764 0070 11D0     		beq	.L14
 765              	.L12:
 766 0072 84F85860 		strb	r6, [r4, #88]
 767 0076 2046     		mov	r0, r4
 768 0078 0121     		movs	r1, #1
 769 007a 0222     		movs	r2, #2
ARM GAS  /tmp/ccW9nGcV.s 			page 56


 770 007c FFF7FEFF 		bl	I2CSensor_transact_buf
 771 0080 0028     		cmp	r0, #0
 772 0082 EAD0     		beq	.L15
 773 0084 0948     		ldr	r0, .L16+8
 774 0086 0A49     		ldr	r1, .L16+12
 775 0088 0435     		adds	r5, r5, #4
 776 008a FFF7FEFF 		bl	chprintf.constprop.0
 777 008e 0136     		adds	r6, r6, #1
 778 0090 BD42     		cmp	r5, r7
 779 0092 F6B2     		uxtb	r6, r6
 780 0094 EDD1     		bne	.L12
 781              	.L14:
 782 0096 05B0     		add	sp, sp, #20
 783              		@ sp needed
 784 0098 F0BD     		pop	{r4, r5, r6, r7, pc}
 785              	.L5:
 786 009a 0649     		ldr	r1, .L16+16
 787 009c 0348     		ldr	r0, .L16+8
 788 009e FFF7FEFF 		bl	chprintf.constprop.0
 789 00a2 D0E7     		b	.L6
 790              	.L17:
 791              		.align	2
 792              	.L16:
 793 00a4 00000000 		.word	.LANCHOR0
 794 00a8 00000000 		.word	.LC0
 795 00ac 00000000 		.word	SD6
 796 00b0 2C000000 		.word	.LC2
 797 00b4 08000000 		.word	.LC1
 798              		.size	bmp280_init, .-bmp280_init
 799 00b8 AFF30080 		.section	.text.bmp280_stop,"ax",%progbits
 799      AFF30080 
 800              		.align	2
 801              		.p2align 4,,15
 802              		.global	bmp280_stop
 803              		.thumb
 804              		.thumb_func
 805              		.type	bmp280_stop, %function
 806              	bmp280_stop:
 807              		@ args = 0, pretend = 0, frame = 0
 808              		@ frame_needed = 0, uses_anonymous_args = 0
 809              		@ link register save eliminated.
 810 0000 FFF7FEBF 		b	I2CSensor_stop
 811              		.size	bmp280_stop, .-bmp280_stop
 812 0004 AFF30080 		.section	.text.bmp280_reset,"ax",%progbits
 812      AFF30080 
 812      AFF30080 
 813              		.align	2
 814              		.p2align 4,,15
 815              		.global	bmp280_reset
 816              		.thumb
 817              		.thumb_func
 818              		.type	bmp280_reset, %function
 819              	bmp280_reset:
 820              		@ args = 0, pretend = 0, frame = 0
 821              		@ frame_needed = 0, uses_anonymous_args = 0
 822              		@ link register save eliminated.
 823 0000 E023     		movs	r3, #224
ARM GAS  /tmp/ccW9nGcV.s 			page 57


 824 0002 80F85830 		strb	r3, [r0, #88]
 825 0006 0121     		movs	r1, #1
 826 0008 0022     		movs	r2, #0
 827 000a FFF7FEBF 		b	I2CSensor_transact_buf
 828              		.size	bmp280_reset, .-bmp280_reset
 829 000e 00BF     		.section	.text.bmp280_readPressure,"ax",%progbits
 830              		.align	2
 831              		.p2align 4,,15
 832              		.global	bmp280_readPressure
 833              		.thumb
 834              		.thumb_func
 835              		.type	bmp280_readPressure, %function
 836              	bmp280_readPressure:
 837              		@ args = 0, pretend = 0, frame = 0
 838              		@ frame_needed = 0, uses_anonymous_args = 0
 839 0000 F723     		movs	r3, #247
 840 0002 10B5     		push	{r4, lr}
 841 0004 0322     		movs	r2, #3
 842 0006 0C46     		mov	r4, r1
 843 0008 80F85830 		strb	r3, [r0, #88]
 844 000c 0121     		movs	r1, #1
 845 000e FFF7FEFF 		bl	I2CSensor_transact_buf
 846 0012 10B9     		cbnz	r0, .L21
 847 0014 0CB1     		cbz	r4, .L21
 848 0016 0023     		movs	r3, #0
 849 0018 2360     		str	r3, [r4]	@ float
 850              	.L21:
 851 001a 10BD     		pop	{r4, pc}
 852              		.size	bmp280_readPressure, .-bmp280_readPressure
 853 001c AFF30080 		.section	.text.bmp280_readTemperature,"ax",%progbits
 854              		.align	2
 855              		.p2align 4,,15
 856              		.global	bmp280_readTemperature
 857              		.thumb
 858              		.thumb_func
 859              		.type	bmp280_readTemperature, %function
 860              	bmp280_readTemperature:
 861              		@ args = 0, pretend = 0, frame = 0
 862              		@ frame_needed = 0, uses_anonymous_args = 0
 863 0000 FA23     		movs	r3, #250
 864 0002 10B5     		push	{r4, lr}
 865 0004 0322     		movs	r2, #3
 866 0006 0C46     		mov	r4, r1
 867 0008 80F85830 		strb	r3, [r0, #88]
 868 000c 0121     		movs	r1, #1
 869 000e FFF7FEFF 		bl	I2CSensor_transact_buf
 870 0012 10B9     		cbnz	r0, .L26
 871 0014 0CB1     		cbz	r4, .L26
 872 0016 0023     		movs	r3, #0
 873 0018 2360     		str	r3, [r4]	@ float
 874              	.L26:
 875 001a 10BD     		pop	{r4, pc}
 876              		.size	bmp280_readTemperature, .-bmp280_readTemperature
 877 001c AFF30080 		.section	.rodata.str1.4,"aMS",%progbits,1
 878              		.align	2
 879              	.LC0:
 880 0000 424D5032 		.ascii	"BMP280\000"
ARM GAS  /tmp/ccW9nGcV.s 			page 58


 880      383000
 881 0007 00       		.space	1
 882              	.LC1:
 883 0008 424D5032 		.ascii	"BMP280: ERROR READING T-PARAMETER\000"
 883      38303A20 
 883      4552524F 
 883      52205245 
 883      4144494E 
 884 002a 0000     		.space	2
 885              	.LC2:
 886 002c 424D5032 		.ascii	"BMP280: ERROR READING P-PARAMETER\000"
 886      38303A20 
 886      4552524F 
 886      52205245 
 886      4144494E 
 887 004e 0000     		.section	.bss.sensCount,"aw",%nobits
 888              		.set	.LANCHOR0,. + 0
 889              		.type	sensCount, %object
 890              		.size	sensCount, 1
 891              	sensCount:
 892 0000 00       		.space	1
 893              		.comm	__gnu_lto_v1,1,1
 894              		.ident	"GCC: (GNU Tools for ARM Embedded Processors) 4.8.4 20140526 (release) [ARM/embedded-4_8-br
ARM GAS  /tmp/ccW9nGcV.s 			page 59


DEFINED SYMBOLS
                            *ABS*:0000000000000000 bmp280.c
     /tmp/ccW9nGcV.s:682    .text.chprintf.constprop.0:0000000000000000 $t
     /tmp/ccW9nGcV.s:687    .text.chprintf.constprop.0:0000000000000000 chprintf.constprop.0
     /tmp/ccW9nGcV.s:706    .text.chprintf.constprop.0:0000000000000020 $d
     /tmp/ccW9nGcV.s:709    .text.bmp280_init:0000000000000000 $t
     /tmp/ccW9nGcV.s:715    .text.bmp280_init:0000000000000000 bmp280_init
     /tmp/ccW9nGcV.s:793    .text.bmp280_init:00000000000000a4 $d
     /tmp/ccW9nGcV.s:800    .text.bmp280_stop:0000000000000000 $t
     /tmp/ccW9nGcV.s:806    .text.bmp280_stop:0000000000000000 bmp280_stop
     /tmp/ccW9nGcV.s:813    .text.bmp280_reset:0000000000000000 $t
     /tmp/ccW9nGcV.s:819    .text.bmp280_reset:0000000000000000 bmp280_reset
     /tmp/ccW9nGcV.s:830    .text.bmp280_readPressure:0000000000000000 $t
     /tmp/ccW9nGcV.s:836    .text.bmp280_readPressure:0000000000000000 bmp280_readPressure
     /tmp/ccW9nGcV.s:854    .text.bmp280_readTemperature:0000000000000000 $t
     /tmp/ccW9nGcV.s:860    .text.bmp280_readTemperature:0000000000000000 bmp280_readTemperature
     /tmp/ccW9nGcV.s:878    .rodata.str1.4:0000000000000000 $d
     /tmp/ccW9nGcV.s:891    .bss.sensCount:0000000000000000 sensCount
     /tmp/ccW9nGcV.s:892    .bss.sensCount:0000000000000000 $d
                            *COM*:0000000000000001 __gnu_lto_v1
     /tmp/ccW9nGcV.s:708    .text.chprintf.constprop.0:0000000000000024 $t
     /tmp/ccW9nGcV.s:799    .text.bmp280_init:00000000000000b8 $t

UNDEFINED SYMBOLS
chvprintf
SD6
I2CSensor_init
I2CSensor_transact_buf
I2CSensor_stop
