ARM GAS  /tmp/ccfVTTjR.s 			page 1


   1              		.syntax unified
   2              		.cpu cortex-m4
   3              		.eabi_attribute 27, 3
   4              		.eabi_attribute 28, 1
   5              		.fpu fpv4-sp-d16
   6              		.eabi_attribute 20, 1
   7              		.eabi_attribute 21, 1
   8              		.eabi_attribute 23, 3
   9              		.eabi_attribute 24, 1
  10              		.eabi_attribute 25, 1
  11              		.eabi_attribute 26, 1
  12              		.eabi_attribute 30, 2
  13              		.eabi_attribute 34, 1
  14              		.eabi_attribute 18, 4
  15              		.thumb
  16              		.file	"board.c"
  17              		.section	.gnu.lto_.jmpfuncs.d03f998cc389045f,"",%progbits
  18 0000 789C6362 		.ascii	"x\234cb`b\300\006\370\2414\033\0203\002\32503\2600\262"
  18      6062C006 
  18      F8A1341B 
  18      103302D5 
  18      3033B030 
  19 0015 32320000 		.ascii	"22\000\000\002\365\000+"
  19      02F5002B 
  20              		.text
  21              		.section	.gnu.lto_.inline.d03f998cc389045f,"",%progbits
  22 0000 789C6362 		.ascii	"x\234cb`b\300\006\016Ci6\006\006\026\036F\260\"\266"
  22      6062C006 
  22      0E436936 
  22      0606161E 
  22      46B022B6 
  23 0014 05F260B5 		.ascii	"\005\362`\265\214\\ \202\201\231\011U\230\011C\204\031"
  23      8C5C2082 
  23      81990955 
  23      98094384 
  23      19
  24 0025 43848581 		.ascii	"C\204\205\201\235\225\221\231!#\2021\223\021l|:\234"
  24      9D959199 
  24      21238231 
  24      93116C7C 
  24      3A9C
  25 0037 05225961 		.ascii	"\005\"YaJY\026\310\01300\035\341\344``\352aca\000K\221"
  25      4A5916C8 
  25      0B30301D 
  25      E1E46060 
  25      EA616361 
  26 004e AB930100 		.ascii	"\253\223\001\000 G\017\027"
  26      20470F17 
  27              		.text
  28              		.section	.gnu.lto_.pureconst.d03f998cc389045f,"",%progbits
  29 0000 789C6362 		.ascii	"x\234cb`b\340e\200\0006\006\011F \227\231\201E\212U"
  29      6062E065 
  29      80003606 
  29      09462097 
  29      9981458A 
  30 0015 0A00038E 		.ascii	"\012\000\003\216\000s"
  30      0073
ARM GAS  /tmp/ccfVTTjR.s 			page 2


  31              		.text
  32              		.section	.gnu.lto___early_init.d03f998cc389045f,"",%progbits
  33 0000 789C6362 		.ascii	"x\234cb`b@\007\222@\\\015\304\\@\314\310\314\300\310"
  33      60624007 
  33      92405C0D 
  33      C45C40CC 
  33      C8CCC0C8 
  34 0014 34E11C03 		.ascii	"4\341\034\003C#\007\023##\210\301\300\310P\317\304X"
  34      43230713 
  34      232388C1 
  34      C0C850CF 
  34      C458
  35 0026 1FC90856 		.ascii	"\037\311\010V\273\236\351\300\203\377\377\327m9\266"
  35      BB9EE9C0 
  35      83FFFFD7 
  35      6D39B6
  36 0035 600E2350 		.ascii	"`\016#P-\003\003+CKC\303\004\005\006\206d\260\202\020"
  36      2D03032B 
  36      434B43C3 
  36      04050686 
  36      64B08210 
  37 0049 2009D215 		.ascii	" \011\322\025\312\310\004\242\231\31734?\230\375\230"
  37      CAC804A2 
  37      99CF3334 
  37      3F98FD98 
  38 0059 2B917121 		.ascii	"+\221q!#+\330\232_\015\035\015\002\231\214@\345\020"
  38      232BD89A 
  38      5F0D1D0D 
  38      02998C40 
  38      E510
  39 006b 033341F4 		.ascii	"\0033A\364E\206\306\007s\224a\212  \004(\0014\001\344"
  39      4586C607 
  39      7394618A 
  39      20200428 
  39      013401E4 
  40 007f 5C8EA4FC 		.ascii	"\\\216\244\374\304\242\024\275d\006\000\372\352$k"
  40      C4A214BD 
  40      640600FA 
  40      EA246B
  41              		.text
  42              		.section	.gnu.lto_mmc_lld_is_card_inserted.d03f998cc389045f,"",%progbits
  43 0000 789C6362 		.ascii	"x\234cb`b@\007\222@\034\005\304\\@\314\310\314\300\310"
  43      60624007 
  43      92401C05 
  43      C45C40CC 
  43      C8CCC0C8 
  44 0014 34E11C03 		.ascii	"4\341\034\003C#\007\023##\210\301\300\310P\317\304X"
  44      43230713 
  44      232388C1 
  44      C0C850CF 
  44      C458
  45 0026 1FC90856 		.ascii	"\037\311\010V\273\236\351\300\203\377\377\327m8\276"
  45      BB9EE9C0 
  45      83FFFFD7 
  45      6D38BE
  46 0035 E00E2323 		.ascii	"\340\016##\310(V\206\226\206\206\011\012\014\014\311"
  46      C8285686 
ARM GAS  /tmp/ccfVTTjR.s 			page 3


  46      96868609 
  46      0A0C0CC9 
  47 0045 60052140 		.ascii	"`\005!@\022\244+\024(\011\244\231/24>\270\235\234\310"
  47      12A42B14 
  47      2809A499 
  47      2F32343E 
  47      B89D9CC8 
  48 0059 B8909195 		.ascii	"\270\220\221\225!\2021\223\221\201\021ji\010##H\001"
  48      21823193 
  48      9181116A 
  48      69082323 
  48      4801
  49 006b C8088EA4 		.ascii	"\310\010\216\244\374\304\242\024\275d\006\000q\224\034"
  49      FCC4A214 
  49      BD640600 
  49      71941C
  50 007a BF       		.ascii	"\277"
  51              		.text
  52              		.section	.gnu.lto_mmc_lld_is_write_protected.d03f998cc389045f,"",%progbits
  53 0000 789C6362 		.ascii	"x\234cb`b@\007\222@\034\005\304\\@\314\310\314\300\310"
  53      60624007 
  53      92401C05 
  53      C45C40CC 
  53      C8CCC0C8 
  54 0014 34E11C03 		.ascii	"4\341\034\003C#\007\023##\210\301\300\310P\317\304X"
  54      43230713 
  54      232388C1 
  54      C0C850CF 
  54      C458
  55 0026 1FC90856 		.ascii	"\037\311\010V\273\236\351\300\203\377\377\327]:\276"
  55      BB9EE9C0 
  55      83FFFFD7 
  55      5D3ABE
  56 0035 E00D2323 		.ascii	"\340\015##\310(V\206\226\206\206\011\012\014\014\311"
  56      C8285686 
  56      96868609 
  56      0A0C0CC9 
  57 0045 60052140 		.ascii	"`\005!@\022\244+\024(\011\244\231/24>x\235\234\310\270"
  57      12A42B14 
  57      2809A499 
  57      2F32343E 
  57      789D9CC8 
  58 005a 90919521 		.ascii	"\220\221\225!\2021\223\021ni\010##H\001\310\010\216"
  58      82319311 
  58      6E690823 
  58      234801C8 
  58      088E
  59 006c A4FCC4A2 		.ascii	"\244\374\304\242\024\275d\006\000\204\244\035\000"
  59      14BD6406 
  59      0084A41D 
  59      00
  60              		.text
  61              		.section	.gnu.lto_boardInit.d03f998cc389045f,"",%progbits
  62 0000 789C6362 		.ascii	"x\234cb`b@\007\222@\034\004\304\\@\314\310\314\300\310"
  62      60624007 
  62      92401C04 
  62      C45C40CC 
ARM GAS  /tmp/ccfVTTjR.s 			page 4


  62      C8CCC0C8 
  63 0014 34E11C03 		.ascii	"4\341\034\003C#\007\023##\210\301\300\310P\317\304X"
  63      43230713 
  63      232388C1 
  63      C0C850CF 
  63      C458
  64 0026 1FC90856 		.ascii	"\037\311\010V\273\236\351\300\203\377\377\327};\276"
  64      BB9EE9C0 
  64      83FFFFD7 
  64      7D3BBE
  65 0035 60372313 		.ascii	"`7#\023\310(V\206\226\206\206\011\012\014\014\311`\005"
  65      C8285686 
  65      96868609 
  65      0A0C0CC9 
  65      6005
  66 0047 214012A4 		.ascii	"!@\022\244+\224\221\011D3_d`Ld\\\310\310\012\267,\204"
  66      2B949109 
  66      44335F64 
  66      604C645C 
  66      C8C80AB7 
  67 005d 91112401 		.ascii	"\221\021$\001\322\312\221\224\237X\224\242\227\314\000"
  67      D2CA9194 
  67      9F5894A2 
  67      97CC00
  68 006c 004F4619 		.ascii	"\000OF\031{"
  68      7B
  69              		.text
  70              		.section	.gnu.lto_boardSetBuzzer.d03f998cc389045f,"",%progbits
  71 0000 789C6362 		.ascii	"x\234cb`b@\0076@\234\302\310\300\300\005\244\031\331"
  71      60624007 
  71      36409CC2 
  71      C8C0C005 
  71      A419D9
  72 0013 18189926 		.ascii	"\030\030\231&\234c`h\344`bb\336#\307\320\300\305rE\237"
  72      9C636068 
  72      E4606262 
  72      DE23C7D0 
  72      C0C57245 
  73 0028 A1818799 		.ascii	"\241\201\207\231\221\025\"\314\002c\26022\202\030\014"
  73      911522CC 
  73      0263B032 
  73      3282180C 
  74 0038 8C0CF54C 		.ascii	"\214\014\365L\314,\254\214\365\221\214`\343\3263\035"
  74      CC2CAC8C 
  74      F5918C60 
  74      E3D6331D 
  75 0048 78F0FFFF 		.ascii	"x\360\377\377\272I\247\027\234cdbcb\314\005\013\263"
  75      BA49A717 
  75      9C636462 
  75      6362CC05 
  75      0BB3
  76 005a 32B43434 		.ascii	"2\26444LP``H\006sC\200$Hw(#\023\210f>\301\320\362\346"
  76      4C506060 
  76      48067343 
  76      80244877 
  76      28231388 
  77 0074 E0D4D34C 		.ascii	"\340\324\323L\211\214\013\031Y\031\322\031\231\"\030"
ARM GAS  /tmp/ccfVTTjR.s 			page 5


  77      898C0B19 
  77      5919D219 
  77      992218
  78 0083 3319515C 		.ascii	"3\031Q\\\031\312\310\314\260G\216\371,\303\241\035/"
  78      19CAC8CC 
  78      B0478EF9 
  78      2CC3A11D 
  78      2F
  79 0094 363142D4 		.ascii	"61B\324i3\254jh\001*d\2041\230`\014\346\331\014\263"
  79      6933AC6A 
  79      68012A64 
  79      84319860 
  79      0CE6D90C 
  80 00a9 80140BC8 		.ascii	"\200\024\013\310\030\326\206\216\216\006\026\0060\023"
  80      18D6868E 
  80      8E061606 
  80      3013
  81 00b7 6C5412D4 		.ascii	"lT\022\324\344$FF(\015\011\024\220\0126\016\270},\014"
  81      E4244646 
  81      280D0914 
  81      900A360E 
  81      B87D2C0C 
  82 00cb 57F4C1F6 		.ascii	"W\364\301\366\255\330Lm\373\230\261\331\307\012\016"
  82      ADD84C6D 
  82      FB98B1D9 
  82      C70A0E
  83 00da 898B0C8D 		.ascii	"\211\213\014\215\017\316\251B\354\203\201\020\240F\240"
  83      0FCEA942 
  83      EC838110 
  83      A046A0
  84 00e9 1CC8951C 		.ascii	"\034\310\225\034I\371\211E)z\311\014\000\013\275S\306"
  84      49F98945 
  84      297AC90C 
  84      000BBD53 
  84      C6
  85              		.text
  86              		.section	.gnu.lto_boardSetLED.d03f998cc389045f,"",%progbits
  87 0000 789CAD50 		.ascii	"x\234\255P\261JCA\020\234\331\275{\204\3407\2044V\202"
  87      B14A4341 
  87      109CD9BD 
  87      7B84E037 
  87      84345682 
  88 0014 F9013F23 		.ascii	"\371\001?#\201X\346E\021\013\021\374\201\\\340\025\257"
  88      8158E645 
  88      110B11FC 
  88      815CE015 
  88      AF
  89 0025 4CAD8DB6 		.ascii	"L\255\215\266)\264LHR\304T\221\240 \244\260L\033\360"
  89      29B44C48 
  89      52C45491 
  89      A020A4B0 
  89      4C1BF0
  90 0038 1FE2DDBD 		.ascii	"\037\342\335\275<A\261t\341n\346\366vg\226\025\010~"
  90      3C41B174 
  90      E16EE6F6 
  90      76679615 
  90      087E
ARM GAS  /tmp/ccfVTTjR.s 			page 6


  91 004a C7893FE7 		.ascii	"\307\211?\347\004\252\036\231\2002x\003\372\025\021"
  91      04AA1E99 
  91      80327803 
  91      FA1511
  92 0059 9DD5E0AA 		.ascii	"\235\325\340\252f\335\200;P\332\"mJb\311@@\364D\215"
  92      66DD803B 
  92      50DA226D 
  92      4A62C940 
  92      40F4448D 
  93 006d 65EF9451 		.ascii	"e\357\224Q\356I\346\233\335\356q\274\272\337R\022\341"
  93      EE49E69B 
  93      DDEE71BC 
  93      BADF5212 
  93      E1
  94 007e 554C5B64 		.ascii	"UL[d\316\015\352@7>\233\376\016\335-J@]\"\373|\236\256"
  94      CE0DEA40 
  94      373E9BFE 
  94      0EDD2D4A 
  94      405D22FB 
  95 0095 B4C3075A 		.ascii	"\264\303\007Z\\P\332\274\344\217)[T\314j\372\212\305"
  95      5C50DABC 
  95      E48F295B 
  95      54CC6AFA 
  95      8AC5
  96 00a7 F863F4C2 		.ascii	"\370c\364\302\242\360\010C\227\371J\226DJ\242w\270\365"
  96      A2F00843 
  96      97F94A96 
  96      444AA277 
  96      B8F5
  97 00b9 60828E75 		.ascii	"`\202\216uy\356\014\"\215Z\351^:%\367Xl%T$\365oC\203"
  97      79EE0C22 
  97      8D5AE95E 
  97      3A25F758 
  97      6C255424 
  98 00d1 75231AE6 		.ascii	"u#\032\346\223\377\366\323\277\374l\\\305;\372\233\355"
  98      93FFF6D3 
  98      BFFC6C5C 
  98      C53BFA9B 
  98      ED
  99 00e2 61E15746 		.ascii	"a\341WF\3237\372\2770e%\275\356\334\234\035w\361\005"
  99      D337FABF 
  99      306525BD 
  99      EEDC9C1D 
  99      77F105
 100 00f5 8624551F 		.ascii	"\206$U\037"
 101              		.text
 102              		.section	.gnu.lto_.symbol_nodes.d03f998cc389045f,"",%progbits
 103 0000 789C4DC8 		.ascii	"x\234M\310\301\021@@\020D\321\236^C\314N=,\312Q\004"
 103      C1114040 
 103      1044D19E 
 103      5E43CC4E 
 103      3D2CCA51 
 104 0015 42128348 		.ascii	"B\022\203Hp\240\312\374\333\373\004\321\343\213A\001"
 104      70A0CAFC 
 104      DBFB04D1 
 104      E38B4101 
 105 0025 DB0148FB 		.ascii	"\333\001H\373j\034(K\034)&V\252$NT\2238S\376\323o\203"
ARM GAS  /tmp/ccfVTTjR.s 			page 7


 105      6A1C284B 
 105      1C292656 
 105      AA244E54 
 105      933853FE 
 106 003c 0BB650ED 		.ascii	"\013\266P\355{#\254\240C=/\303\003\242\020#\241"
 106      7B23ACA0 
 106      433D2FC3 
 106      03A21023 
 106      A1
 107              		.text
 108              		.section	.gnu.lto_.refs.d03f998cc389045f,"",%progbits
 109 0000 789C6362 		.ascii	"x\234cb`b`d\200\002\000\000F\000\006"
 109      60626064 
 109      80020000 
 109      460006
 110              		.text
 111              		.section	.gnu.lto_.decls.d03f998cc389045f,"",%progbits
 112 0000 789CBD5C 		.ascii	"x\234\275\\\011t\024\325\232\256\252^\222\220\310\246"
 112      097414D5 
 112      9AAEAA5E 
 112      9290C8A6 
 113 0010 EF0D3A9E 		.ascii	"\357\015:\236\261\235\243s<\216\022\266\247\350{#B\022"
 113      B19DA373 
 113      3C8E12B6 
 113      A7E87B23 
 113      4212
 114 0022 84F35872 		.ascii	"\204\363Xr:\370\3249oNStWH?\223t\277\356\016\004g\316"
 114      3AF8D439 
 114      6F4E5374 
 114      57483F93 
 114      74BFEE0E 
 115 0039 B1126411 		.ascii	"\261\022d\021\004\022v\010\004dy\010n,\262$,\257A\226"
 115      04127608 
 115      04647908 
 115      6E2CB224 
 115      2CAF4196 
 116 004d 401C4844 		.ascii	"@\034HD\004\006\201FDE\205\001\224]\314\334\373\337"
 116      04068146 
 116      44458501 
 116      945DCCDC 
 116      FBDF
 117 005f AAEE7B2B 		.ascii	"\252\356{+U\335U\215g\352\234\372\373\366\355\252\357"
 117      55DD558D 
 117      67EA9CFA 
 117      FBF6EDAA 
 117      EF
 118 0070 7EF7FFFF 		.ascii	"~\367\377\377\373\337\245n\265\300\011\334l\236\343"
 118      FBDFA56E 
 118      B5C009DC 
 118      6C9EE3
 119 007f DAD0F187 		.ascii	"\332\320\361\207\2279n`\007\216\313\3408\3569t\242l"
 119      97396E60 
 119      078ECBE0 
 119      38EE3974 
 119      A26C
 120 0091 EE6D8E1C 		.ascii	"\356m\216\0348o\005:W\243s\274\300q\223\3209\005\235"
 120      386F053A 
ARM GAS  /tmp/ccfVTTjR.s 			page 8


 120      57A373BC 
 120      C07193D0 
 120      39059D
 121 00a4 B5E89C23 		.ascii	"\265\350\234#\220k\347\011\034s\340\353q\326^$V*y\202"
 121      906BE709 
 121      1C73E0EB 
 121      71D65E24 
 121      562A7982 
 122 00b8 923F4773 		.ascii	"\222?Gs-\247`\323e\362J\236\366\030/\264\277n\274\016"
 122      2DA760D3 
 122      65F24A9E 
 122      F6182FB4 
 122      BF6EBC0E 
 123 00cc DE242A8F 		.ascii	"\336$*\217\327|W\017\\\207\014\005k\037J7\241\363et"
 123      D77C570F 
 123      5C870C05 
 123      6B1F4A37 
 123      A1F36574 
 124 00e0 71013AC7 		.ascii	"q\001:\307\240\323\206\362\355\350|\011\245\377\003"
 124      A0D386F2 
 124      EDE87C09 
 124      A5FF03
 125 00ef 9D23D159 		.ascii	"\235#\321Y\302\023\274)\012\217\351\032\334\332\273"
 125      C213BC29 
 125      0A8FE91A 
 125      DCDABB
 126 00fe C0AC5530 		.ascii	"\300\254U0gi03\271I\262\\-\307&\310U\374_1\234\310w"
 126      67693033 
 126      B949B25C 
 126      2DC726C8 
 126      55FC5F31 
 127 0115 CC42B938 		.ascii	"\314B\2718\221\223\005\267<\312\255\220e\271F\226\005"
 127      919305B7 
 127      3CCAAD90 
 127      65B94696 
 127      05
 128 0126 917F9BCF 		.ascii	"\221\177\233\317D\252\026x\035\355\241\203\374\216\017"
 128      44AA1678 
 128      1DEDA183 
 128      FC8E0F
 129 0135 7C3B49AB 		.ascii	"|;I\253)t\313C\\\275\2744\026[\367\325[\316\005r\364"
 129      2974CB43 
 129      5CBDBC34 
 129      165BF7D5 
 129      5BCE0572 
 130 014a 0DB9ADED 		.ascii	"\015\271\255\355u\356\267\334\034\004./\235(\313|D\344"
 130      75EEB7DC 
 130      1C042E2F 
 130      9D28CB7C 
 130      44E4
 131 015c 9FFB8D4A 		.ascii	"\237\373\215J\301\245R\260+\320+\371\337*\251\027m\244"
 131      C1A552B0 
 131      2BD02BF9 
 131      DF2AA917 
 131      6DA4
 132 016e 3881EBC2 		.ascii	"8\201\353\302s\217s\253\011\273]\235t9\375\013\267\022"
 132      738F73AB 
ARM GAS  /tmp/ccfVTTjR.s 			page 9


 132      09BB5D9D 
 132      7439FD0B 
 132      B712
 133 0180 1720BF23 		.ascii	"\027 \277#\333\000\036\003\254\340\037bi\377\215g\324"
 133      DB001E03 
 133      ACE01F62 
 133      69FF8D67 
 133      D4
 134 0191 8289AE8D 		.ascii	"\202\211\256\215E\353\367\345\324T\305\332\332\036\322"
 134      45EBF7E5 
 134      D454C5DA 
 134      DA1ED2
 135 01a0 90C4D531 		.ascii	"\220\304\3251b\271Fai\003\217\344\262\271)X\275\350"
 135      62B94661 
 135      69038FE4 
 135      B2B92958 
 135      BDE8
 136 01b2 CE414D1D 		.ascii	"\316AM\035\273r\265\030\306\325\3241\256\350\2456\025"
 136      BB72B518 
 136      C6D5D431 
 136      AEE8A536 
 136      15
 137 01c3 A08FAAE9 		.ascii	"\240\217\252\351\232X\335\333\263m\262\234)\362\357"
 137      9A58DDDB 
 137      B36DB29C 
 137      29F2EF
 138 01d2 F35D11CC 		.ascii	"\363]\021\314\237y\204\273\212\177\\!\227\022\005\323"
 138      9F7984BB 
 138      8A7F5C21 
 138      971205D3 
 139 01e2 588BEE24 		.ascii	"X\213\356$7\021\353E\217\354\313\221\355$\237c\340\230"
 139      3711EB45 
 139      8FECCB91 
 139      ED249F63 
 139      E098
 140 01f4 E3616E29 		.ascii	"\343an)\242\033=9i\311\375\362\322]\274\036{t\001O\025"
 140      A21B3D39 
 140      69C9FDF2 
 140      D25DBC1E 
 140      7B74014F 
 141 0209 2D0B6AD1 		.ascii	"-\013j\321.\260H1\257G\220\275J\3447\"}\213\374&-\311"
 141      2EB04831 
 141      AF4790BD 
 141      4AE43722 
 141      7D8BFC26 
 142 021f 0D9380E4 		.ascii	"\015\223\200\344&S$7\356\333\317\3133s\030\216\026\014"
 142      26532437 
 142      EEDBCFCB 
 142      3373188E 
 142      160C
 143 0231 D5C81A4A 		.ascii	"\325\310\032J\344\373eS\256\305q\20676 \265p\252\003"
 143      E4FB6553 
 143      AEC57186 
 143      373620B5 
 143      70AA03
 144 0244 8679A51E 		.ascii	"\206y\245\036zW+I\006\216\251\203\274^\226\263\234\004"
 144      7A572B49 
ARM GAS  /tmp/ccfVTTjR.s 			page 10


 144      068EA983 
 144      BC5E96B3 
 144      9C04
 145 0256 52E05EB7 		.ascii	"R\340^\267\212\3452\306z\2137\001\226i\222\330l\313"
 145      8AE532C6 
 145      7A8B3701 
 145      966992D8 
 145      6CCB
 146 0268 603ACCD2 		.ascii	"`:\314\322\265\323\036\035;)\351,nr\002R\337`J\213j"
 146      B5D31E1D 
 146      3B29E92C 
 146      6E720252 
 146      DF604A8B 
 147 027d 9BB26727 		.ascii	"\233\262g'_\215\012\023\371&>\013\335\275\233g\033\225"
 147      5F8D0A13 
 147      F9263E0B 
 147      DDBD9B67 
 147      1B95
 148 028f 79A8ADD3 		.ascii	"y\250\255\323\267=\003\215\263\031\200\252\005\026H"
 148      B73D038D 
 148      B31980AA 
 148      051648
 149 029e E433E2BA 		.ascii	"\3443\342\272\214\177W/\300h\360\263\222\300\235#\033"
 149      8C7F572F 
 149      C068F0B3 
 149      92C09D23 
 149      1B
 150 02af B54C5EAE 		.ascii	"\265L^\256\027]\224*\304V\312\335\346'\252\320>\222"
 150      175D942A 
 150      C456CADD 
 150      E627AAD0 
 150      3E92
 151 02c1 636DBCFF 		.ascii	"cm\274\377\257P\205\026\250\3024AW\027&\200\266N\257"
 151      AF508516 
 151      A8C23441 
 151      57172680 
 151      B64EAF
 152 02d4 EF0B4087 		.ascii	"\357\013@\207\001hN;]\360\032]\360l\345\370\254D\242"
 152      01684E3B 
 152      5DF01A5D 
 152      F06CE5F8 
 152      AC44A2
 153 02e7 8DED5352 		.ascii	"\215\355SR^k\344/\207\022\315\223\366\232&B\305T\013"
 153      5E6BE42F 
 153      8712CD93 
 153      F69A2642 
 153      C5540B
 154 02fa DF4DB7F0 		.ascii	"\337M\267\360%\202\011\347\357L\343)\007q\376X\335\371"
 154      258209E7 
 154      EF4CE329 
 154      0771FE58 
 154      DDF9
 155 030c E936DCDB 		.ascii	"\3516\334\333\331\322m\000\377c\334\000\342\325J\352"
 155      D9D26D00 
 155      FF63DC00 
 155      E2D54AEA 
 156 031c 0F514333 		.ascii	"\017QC3\212|+\377h\372\252>u\367\252>N\253z\205eU\273"
ARM GAS  /tmp/ccfVTTjR.s 			page 11


 156      8A7C2BFF 
 156      68FAAA3E 
 156      75F7AA3E 
 156      4EAB7A85 
 157 0333 6855B341 		.ascii	"hU\263Ak\215\031\260n\206v\273\273\240\365\265\261\315"
 157      6B8D19B0 
 157      6E8676BB 
 157      BBA0F5B5 
 157      B1CD
 158 0345 74FBD4E7 		.ascii	"t\373\324\347\251\240\363<\035Q\225\206\266cV?\3341"
 158      A9A0F33C 
 158      1D519586 
 158      B663563F 
 158      DC31
 159 0357 7E07E381 		.ascii	"~\007\343\201\357\004\335\001\2011\010&pA\333\327^\227"
 159      EF04DD01 
 159      81310826 
 159      7041DBD7 
 159      5E97
 160 0369 5C243775 		.ascii	"\\$7uO{s%\364\264j\354\274\005\345_H\267\323\213\336"
 160      4F7B7325 
 160      F4B46AEC 
 160      BC05E55F 
 160      48B7D38B 
 161 037e 929A7AA8 		.ascii	"\222\232z\250X\343mV\261\\zD\271v\265\024\371\213\340"
 161      58E36D56 
 161      B15C7A44 
 161      B976B514 
 161      F98BE0
 162 0391 DAFFCB3F 		.ascii	"\332\377\313?\214\344e$S\372\342y\306\235M\271\3579"
 162      8CE46524 
 162      53FAE279 
 162      C69D4DB9 
 162      EF39
 163 03a3 DA7DA7DA 		.ascii	"\332}\247\332\254z\234\266.\252!D~\013\320\336\016\362"
 163      AC7A9CB6 
 163      2EAA2144 
 163      7E0BD0DE 
 163      0EF2
 164 03b5 EF207782 		.ascii	"\357 w\202\374\030\3441\220_\202\374\312L\3256\320<"
 164      FC18E431 
 164      905F82FC 
 164      CA4CD536 
 164      D03C
 165 03c7 6703CFB5 		.ascii	"g\003\317\265\351\332/V\267}\206m\236\034\255\262ep"
 165      E9DA2F56 
 165      B77D866D 
 165      9E1CADB2 
 165      6570
 166 03d9 13C9DCA1 		.ascii	"\023\311\334\241:UG\261c\326\323\330\177\257\361\031"
 166      3A5547B1 
 166      63D6D3D8 
 166      7FAFF119 
 167 03e9 A8FCF936 		.ascii	"\250\374\3716\326\177M\300\340:\334D73\036\3340\316"
 167      D67F4DC0 
 167      E03ADC44 
 167      37331EDC 
ARM GAS  /tmp/ccfVTTjR.s 			page 12


 167      30CE
 168 03fb 45729378 		.ascii	"Er\223x04:\201[\216\212\304p\366\254D\336\007\211<\236"
 168      30343A81 
 168      5B8E8AC4 
 168      70F6AC44 
 168      DE07893C 
 169 0410 BA747322 		.ascii	"\272ts\"[\240\262w%\262mTvk\"\333Ne\237Md;\250\354\013"
 169      5BA0B277 
 169      25B26D54 
 169      766B22DB 
 169      4E659F4D 
 170 0429 896C2795 		.ascii	"\211l'\225}3\221\235AeO\260\307\2633){$\3554\023J\022"
 170      7D33919D 
 170      41654FB0 
 170      C7B33329 
 170      7B24ED34 
 171 0440 F95BD000 		.ascii	"\371[\320\000n\3636\335\333\004\256\326\256\361\003"
 171      6EF336DD 
 171      DB04AED6 
 171      AEF103
 172 044f 46E5A906 		.ascii	"F\345\251\006\2342\370A\025\356\331\272p5\312\200\237"
 172      9C32F841 
 172      15EED9BA 
 172      7035CA80 
 172      9F
 173 0460 346B75D0 		.ascii	"4ku\320\317\2631[\344g\010] \005]\223\254\304@\270\302"
 173      CFB3315B 
 173      E467085D 
 173      20055D93 
 173      ACC440B8 
 174 0475 C8716B84 		.ascii	"\310qk\204\2548\201\234\254DBm\232\0027O[\013\266\330"
 174      AC38819C 
 174      AC44426D 
 174      9A02374F 
 174      5B0BB6D8 
 175 0489 54435DEC 		.ascii	"TC]\354y\320k`n\002Wg\012-U\267\241F\267%Z4\275\226"
 175      79D06B60 
 175      6E025767 
 175      0A2D55B7 
 175      A146B725 
 176 04a1 F6982158 		.ascii	"\366\230!X\364\372\244\305f\347a#U\270\234x\253\213"
 176      F4FAA4C5 
 176      66E76123 
 176      55B89C78 
 176      AB8B
 177 04b3 DEDCCBBB 		.ascii	"\336\334\313\273t&c\314\245\"\277@xTo\312\306\\\205"
 177      742663CC 
 177      A522BF40 
 177      78546FCA 
 177      C65C85
 178 04c6 AFAB1334 		.ascii	"\257\253\0234=\310\337\367\302l\015\347\247\356C\216"
 178      3DC8DFF7 
 178      C26C0DE7 
 178      A7EE438E 
 179 04d6 4E34AE0A 		.ascii	"N4\256\0123S\214Oe{\304+\022[{\366\322_`\234\271D\300"
 179      33538C4F 
 179      657BC42B 
ARM GAS  /tmp/ccfVTTjR.s 			page 13


 179      125B7BF6 
 179      D25F609C 
 180 04ed 1DE0057B 		.ascii	"\035\340\005{\312\0311\013\203:k\001O8\227i\253p\265"
 180      CA19310B 
 180      833A6B01 
 180      4F389769 
 180      AB70B5
 181 0500 0EAAB0CC 		.ascii	"\016\252\260\314T\025\356\234\250\377\0079\026\345\315"
 181      5415EE9C 
 181      A8FF0739 
 181      16E5CD
 182 050f 87BDD3DF 		.ascii	"\207\275\323\337D\037\030\017\263\216\225\002\216|k"
 182      441F180F 
 182      B38E9502 
 182      8E7C6B
 183 051e 1C6945BE 		.ascii	"\034iE\276w\004M\344\3338\261\023\246\215\363S\307\276"
 183      77044DE4 
 183      DB38B113 
 183      A68DF353 
 183      C7BE
 184 0530 8D8EF6B1 		.ascii	"\215\216\366\261/\352\320\215}\373\035\272\261\357\260"
 184      2FEAD08D 
 184      7DFB1DBA 
 184      B1EFB0
 185 053f 4337F69D 		.ascii	"C7\366\235r\260\261\2173\021\237\022U\021\371\325\002"
 185      72B0B18F 
 185      33119F12 
 185      5511F9D5 
 185      02
 186 0550 8E4F6B04 		.ascii	"\216Ok\004\375\370$\362\323\34263\033\237\030{\305\326"
 186      FDF824F2 
 186      D3E23633 
 186      1B9F187B 
 186      C5D6
 187 0562 9D6DA9DC 		.ascii	"\235m\251\334\201\332\343\233\3164\333\317\211\023f"
 187      81DAE39B 
 187      CE34DBCF 
 187      891366
 188 0571 DACF6693 		.ascii	"\332\317f\223\355\247A\353|\363N\200\3635\230r\276%"
 188      EDA741EB 
 188      7CF34E80 
 188      F3359872 
 188      BE25
 189 0583 27EADBB7 		.ascii	"'\352\333\267\037\363\213g\333\005\315\200\264^0\261"
 189      1FF38B67 
 189      DB05CD80 
 189      B45E30B1 
 190 0593 DCA1E8E1 		.ascii	"\334\241\350\341\316\302\3730\321m\002\036W\177\257"
 190      CEC2FB30 
 190      D16D021E 
 190      577FAF
 191 05a2 F1618610 		.ascii	"\361a\206\020)\310\210\304N(S\257\236\355~C\235\"\224"
 191      29C888C4 
 191      4E2853AF 
 191      9EED7E43 
 191      9D2294
 192 05b5 D320A43B 		.ascii	"\323 \244;\312l\320S\230\216\235b\361\245\251'\3425"
ARM GAS  /tmp/ccfVTTjR.s 			page 14


 192      CA6CD053 
 192      988E9D62 
 192      F1A5A927 
 192      E235
 193 05c7 8ED55E89 		.ascii	"\216\325^\211\345\222\206\273\007\"\316^g\312\210\303"
 193      E59286BB 
 193      0722CE5E 
 193      67CA88C3 
 194 05d7 E2C03C48 		.ascii	"\342\300<Hk\360\015\315`\360\246\324\006\177c|ts\363"
 194      6BF00DCD 
 194      60F0A6D4 
 194      067F637C 
 194      7473F3
 195 05ea 22E00F7D 		.ascii	"\"\340\017}\345\370\244+\023\"\277\037\272\372\324K"
 195      E5F8A42B 
 195      1322BF1F 
 195      BAFAD44B 
 196 05fa 07A82D43 		.ascii	"\007\250-CM\232\322S+\242\265\2459\247F\024\371f\001"
 196      4D9AD253 
 196      2BA2B5A5 
 196      39A74614 
 196      F96601
 197 060d 8788E396 		.ascii	"\207\210\343\226\301\\\014X#\015\0263\003f\324\217#"
 197      C15C0C58 
 197      230D1633 
 197      0366D48F 
 197      23
 198 061e B06D34D8 		.ascii	"\260m4\330\267\226\301Xf;h\260\213f\300\214\226\000"
 198      B796C158 
 198      663B68B0 
 198      8B66C08C 
 198      9600
 199 0630 10580B0D 		.ascii	"\020X\013\015v\3052\030\315\254*z\272\371\000\236\214"
 199      76C53218 
 199      CDAC2A7A 
 199      BAF9009E 
 199      8C
 200 0641 DDCBCD94 		.ascii	"\335\313\315\224\345*y\251\323\310)8\016.\221\223^\202"
 200      E52A79A9 
 200      D3C82938 
 200      0E2E9193 
 200      5E82
 201 0653 26E0C2BD 		.ascii	"&\340\302\275\254\223\036\236\332\021;)\316O\035\225"
 201      AC931E9E 
 201      DA113B29 
 201      CE4F1D95 
 202 0663 8E284EAA 		.ascii	"\216(N\252\016x\256A\345\360\275\3514Z9z\2629[\236\222"
 202      0E78AE41 
 202      E5F0BDE9 
 202      345A397A 
 202      B2395B9E 
 203 0678 139FD0BE 		.ascii	"\023\237\320\276\223\204\370)m\353:\332,\270Hvj\336"
 203      9384F829 
 203      6DEB3ADA 
 203      2CB84876 
 203      6ADE
 204 068a C79B1775 		.ascii	"\307\233\027u\223\227\356\344\2255\022y\242\374\030"
ARM GAS  /tmp/ccfVTTjR.s 			page 15


 204      9397EEE4 
 204      95351279 
 204      A2FC18
 205 0699 555667B5 		.ascii	"UVg\265,\034+\343kf\233\237\200!\310\031\260\342\015"
 205      2C1C2BE3 
 205      6B669B9F 
 205      8021C819 
 205      B0E20D
 206 06ac 4D40300F 		.ascii	"M@0\017\264u\372*\262~\370\025\000Ueh\327\314l\2325"
 206      B475FA2A 
 206      B27EF815 
 206      00556568 
 206      D7CC6C9A 
 207 06c1 331BDBAA 		.ascii	"3\033\333\252mY\211D[\233\215\263v\261\300\275\005\005"
 207      6D598944 
 207      5B9B8DB3 
 207      76B1C0BD 
 207      0505
 208 06d3 9E4AF81F 		.ascii	"\236J\370\037C2u\257Zs\345\333\356\363\345h\265MUE\215"
 208      433275AF 
 208      5A73E5DB 
 208      EEF3E568 
 208      B54D5545 
 209 06e8 65C0CE1A 		.ascii	"e\300\316\032\243\010\334\334\2144\375\206\252\272:"
 209      A308DCDC 
 209      8C34FD86 
 209      AABA3A
 210 06f7 753E21E0 		.ascii	"u>!\340i\361I\341a\272\200\371\031&Z\235\321\260\036"
 210      69F149E1 
 210      61BA80F9 
 210      19265A9D 
 210      D1B01E
 211 070a 35E14B74 		.ascii	"5\341Kt\023^l\031\314\305\200]\241\301\226\231\001s"
 211      135E6C19 
 211      CCC5805D 
 211      A1C19699 
 211      0173
 212 071c 1933FB89 		.ascii	"\0313\373\211\006[e\031\214ev\215\006{\317\014\230\336"
 212      065B6519 
 212      8C65768D 
 212      067BCF0C 
 212      98DE
 213 072e EC45EFA0 		.ascii	"\354E\357\240\273C\324_\301\320\357\000X\352\277A\036"
 213      BB43D45F 
 213      C1D0EF00 
 213      58EABF41 
 213      1E
 214 073f 02D90AF2 		.ascii	"\002\331\012\3620\310# \217\202\374\001\344E\220\227"
 214      30C82320 
 214      8F82FC01 
 214      E4459097 
 215 074f 405EA1ED 		.ascii	"@^\241\355\233d\354r}\346\2038\234\355\206\261\313\332"
 215      9B64EC72 
 215      7DE68338 
 215      9CED86B1 
 215      CBDA
 216 0761 8CA46397 		.ascii	"\214\244c\227=\006U\305\354\257%\031\273\\\323\216]"
ARM GAS  /tmp/ccfVTTjR.s 			page 16


 216      3D0655C5 
 216      ECAF2519 
 216      BB5CD38E 
 216      5D
 217 0772 B666581D 		.ascii	"\266fX\035\273Pf\200\221k\264|\373ZY\236\340T\033\331"
 217      BB506680 
 217      916BB47C 
 217      FB5A599E 
 217      E0541BD9 
 218 0786 2E2DA25E 		.ascii	".-\242^#3~\236\023=V\227\3232R\005k\262\014\246m\261"
 218      23337E9E 
 218      133D5697 
 218      D3325205 
 218      6BB20CA6 
 219 079c AA1D1BC1 		.ascii	"\252\035\033\301\216[\301\"\037\203\274\001\362\026"
 219      8E5BC122 
 219      1F83BC01 
 219      F216
 220 07aa DBFA3E69 		.ascii	"\333\372>i\027\344\310\240\227\302K\214\216\271\324"
 220      17E4C8A0 
 220      97C24B8C 
 220      8EB9D4
 221 07b9 884646DA 		.ascii	"\210FF\332(P\313\\\237C\241\313\3225B\264\376\024j\013"
 221      2850CB5C 
 221      9F43A1CB 
 221      D23542B4 
 221      FE146A0B 
 222 07cd 299FDF   		.ascii	")\237\337"
 223 07d0 DA55A4FC 		.ascii	"\332U\244\374\270\317\305n\377\022\355\326(\313\235"
 223      B8CFC56E 
 223      FF12EDD6 
 223      28CB9D
 224 07df 455EB6E1 		.ascii	"E^\266\341\321\343\334\314\324Op\031\034\201[\002\267"
 224      D1E3DCCC 
 224      D44F7019 
 224      1C815B02 
 224      B7
 225 07f0 8CB7B17D 		.ascii	"\214\267\261}\\l\303\3623\3778\037\220\361O\251\373"
 225      5C6CC3F2 
 225      33FF381F 
 225      90F14FA9 
 225      FB
 226 0801 B9DB7AB3 		.ascii	"\271\333z\263nB\313H\207\223l\032g>\025\247\222\336"
 226      6E42CB48 
 226      87936C1A 
 226      673E15A7 
 226      92DE
 227 0813 40FC97BD 		.ascii	"@\374\227\275\020S0\256\300\235\263\014\306\032e\326"
 227      105330AE 
 227      C09DB30C 
 227      C61A65D6 
 228 0823 3E6A546C 		.ascii	">jTl\352y]\303\252\363\367o\007\225\275e\303\016\276"
 228      EA795DC3 
 228      AAF3F76F 
 228      0795BD65 
 228      C30EBE
 229 0836 314BEB8B 		.ascii	"1K\353\213M\332\247Tf\306\321\333\263LT\304x\325\011"
ARM GAS  /tmp/ccfVTTjR.s 			page 17


 229      4DDAA754 
 229      66C6D1DB 
 229      B34C54C4 
 229      78D509
 230 0849 59B2F5C1 		.ascii	"Y\262\365\301\006\230\234\252\243\035\303a\232\300\355"
 230      06989CAA 
 230      A31DC361 
 230      9AC0ED
 231 0858 86C26AB5 		.ascii	"\206\302j\265\336\320\360A\353\223\304\033jMy\303\346"
 231      DED0F041 
 231      EB93C41B 
 231      6A4D79C3 
 231      E6
 232 0869 E679A6A6 		.ascii	"\346y\246\246DK\235j\361>(~b\007\\\374\\m\361G\326\237"
 232      444B9D6A 
 232      F13E287E 
 232      62075CFC 
 232      5C6DF147 
 233 087f 7F8E143F 		.ascii	"\177\216\024?\327T\361\247\017\315\326sF\203Y\253j\276"
 233      D754F1A7 
 233      0FCDD673 
 233      468359AB 
 233      6ABE
 234 0891 0F2E3FB6 		.ascii	"\017.?\266\004\012Y\010\016\324\322Ak\276~\364\252="
 234      040A5908 
 234      0ED4D241 
 234      6BBE7EF4 
 234      AA3D
 235 08a3 A73CC7A7 		.ascii	"\247<\307\247\374\367x\234}Z\376\213\252\271\263\337"
 235      FCF7789C 
 235      7D5AFE8B 
 235      AAB9B3DF 
 236 08b3 6AB094CA 		.ascii	"j\260\224\312\341\244eD\326\211\257\034\202\026A\300"
 236      E1A46544 
 236      D689AF1C 
 236      821641C0 
 237 08c3 CE98014B 		.ascii	"\316\230\001K\022\331\177\242\301\316Y\006c\231]\243"
 237      12D97FA2 
 237      C1CE5906 
 237      63995DA3 
 238 08d3 C1CE9B01 		.ascii	"\301\316\233\0013~\362\031\275A\203]\260\014\3062\273"
 238      337EF219 
 238      BD41835D 
 238      B00CC632 
 238      BB
 239 08e4 45835D36 		.ascii	"E\203]6\003f\274H\033\375\231\006\273j\031\214e\366"
 239      0366BC48 
 239      1BFD9906 
 239      BB6A198C 
 239      65F6
 240 08f6 0B0D76D3 		.ascii	"\013\015v\323\014\230\313\230Y\315\247\024\330\035\313"
 240      0C98CB98 
 240      59CDA714 
 240      D81DCB
 241 0905 602CB399 		.ascii	"`,\263\2314XU\266\011\260$k\321\263i\260\011\226\301"
 241      345855B6 
 241      09B0246B 
ARM GAS  /tmp/ccfVTTjR.s 			page 18


 241      D1B369B0 
 241      0996C1
 242 0918 58667369 		.ascii	"Xfsi\2607\315\200\3650f6\237\006\233f\031\214e\266\220"
 242      B037CD80 
 242      F5306636 
 242      9F069B66 
 242      198C65B6 
 243 092d 06AB3503 		.ascii	"\006\2535\003\326\327\230\331\"\032l\216e0\226\331Z"
 243      D6D798D9 
 243      221A6C8E 
 243      653096D9 
 243      5A
 244 093e 1A6C8119 		.ascii	"\032l\201\031\260\347\215\231\255\247\301\026Y\006c"
 244      B0E78D99 
 244      ADA7C116 
 244      590663
 245 094d 997D4483 		.ascii	"\231}D\203-1\0036\310\230\331&\032l\231e0\226\331\026"
 245      2D310336 
 245      C898D926 
 245      1A6C9965 
 245      3096D916 
 246 0961 1A6CA519 		.ascii	"\032l\245\031\260Bcf\2154\330;\226\301Xf\333h\260w\315"
 246      B0426366 
 246      8D34D83B 
 246      96C15866 
 246      DB68B077 
 247 0976 80BD6CCC 		.ascii	"\200\275l\314l\007\015\366\241e0\226Y\013\015\266\301"
 247      6C070DF6 
 247      A1653096 
 247      590B0DB6 
 247      C1
 248 0987 0CD8481D 		.ascii	"\014\330H\035f\361\303h\2349\307F\215\3257e\253\003"
 248      66F1C368 
 248      9C39C746 
 248      8DD53765 
 248      AB03
 249 0999 1C8B7D34 		.ascii	"\034\213}4\227\300h\314\266:\"c\352\215\307\326\017"
 249      97C068CC 
 249      B63A2263 
 249      EA8DC7D6 
 249      0F
 250 09aa 362AFD3C 		.ascii	"6*\375<\031\254F\315 &\351\000\027\356\243F\276M\226"
 250      19AC46CD 
 250      2026E900 
 250      17EEA346 
 250      BE4D96
 251 09bd C134AEBC 		.ascii	"\3014\256\274O;\0351\261\301'\261u\227\332\324\325M"
 251      4F3B1D31 
 251      B1C127B1 
 251      7597DAD4 
 251      D54D
 252 09cf FF5A34D7 		.ascii	"\377Z4\327\266\341\331\3341\315\032\322\261\370\"\022"
 252      B6E1D9DC 
 252      31CD1AD2 
 252      B1F82212 
 253 09df 4E9147C7 		.ascii	"N\221G\307-\331\354\203\235\370a\346v#\2178B{\304\021"
 253      2DD9EC83 
ARM GAS  /tmp/ccfVTTjR.s 			page 19


 253      9DF861E6 
 253      76238F38 
 253      427BC411 
 254 09f3 33EA4AD2 		.ascii	"3\352J\322\305\237\336\267\010\036\326\231\337\314\326"
 254      C59FDEB7 
 254      081ED699 
 254      DFCCD6
 255 0a02 B0AA5599 		.ascii	"\260\252U\231(|\001\023\205/\262\265#\315\026\213\333"
 255      287C0113 
 255      852FB2B5 
 255      23CD168B 
 255      DB
 256 0a13 D9D0784C 		.ascii	"\331\320xL[\013\275GX\306c\013\344\223\307\037j\370"
 256      5B0BBD47 
 256      58C6630B 
 256      E493C71F 
 256      6AF8
 257 0a25 4096C73B 		.ascii	"@\226\307;\255\324c\277R\2173P\217\013\277B=\256Z\256"
 257      ADD463BF 
 257      528F3350 
 257      8F0BBF42 
 257      3DAE5AAE 
 258 0a39 C7639A7A 		.ascii	"\307c\232z\354|\314z=\216+\365\370\032\352q\347W\250"
 258      EC7CCC7A 
 258      3D8E2BF5 
 258      F81AEA71 
 258      E757A8
 259 0a4c C7841CAB 		.ascii	"\307\204\034\253\365\350A\325\003fm\335\311\254\315"
 259      F5E841D5 
 259      03666DDD 
 259      C9ACCD
 260 0a5b D4E2FAF7 		.ascii	"\324\342\372\3676\315\342\372\361\003\274\213d\247\232"
 260      36CDE2FA 
 260      F103BC8B 
 260      64A79A
 261 0a6a 2EC9D1EB 		.ascii	".\311\321\353\007\250\251\256ln\252{Y\321\330E\320\330"
 261      07A8A9AE 
 261      6C6EAA7B 
 261      59D1D845 
 261      D0D8
 262 0a7c 5B393A8B 		.ascii	"[9:\213\324\246\220\332\016\354^\247\354\227\275\014"
 262      D4A690DA 
 262      0EEC5EA7 
 262      EC97BD0C 
 263 0a8c 5033D386 		.ascii	"P3\323\206\332zp3\331#\372\023\000-\314\321Z\321\251"
 263      DA7A7033 
 263      D923FA13 
 263      002DCCD1 
 263      5AD1A9
 264 0a9f 31A29335 		.ascii	"1\242\2235\"\372\212K\272\201g\336\374\353J\016\376"
 264      22FA8A4B 
 264      BA8167DE 
 264      FCEB4A0E 
 264      FE
 265 0ab0 92C1FDBF 		.ascii	"\222\301\375\277\337'p+\200>6\240\305\216*\341@O4(\235"
 265      DF27702B 
 265      803E36A0 
ARM GAS  /tmp/ccfVTTjR.s 			page 20


 265      C58E2AE1 
 265      404F3428 
 266 0ac5 0C31D2BB 		.ascii	"\0141\322\273w\205X\035\3350u\261\362\010\246\037\356"
 266      7785581D 
 266      DD3075B1 
 266      F208A61F 
 266      EE
 267 0ad6 663EBA4B 		.ascii	"f>\272K\270\326f\353\013,;\037 ^w\007*\264\265\235\205"
 267      B8D666EB 
 267      0B2C3B1F 
 267      205E7707 
 267      2AB4B59D 
 268 0aeb D35A60D9 		.ascii	"\323Z`\331\227nE\342\207\300\035\3246wK\2631l\255\233"
 268      976E45E2 
 268      87C01DD4 
 268      36774BB3 
 268      316CAD9B 
 269 0aff DD4D2ED2 		.ascii	"\335M.\322\304\227\376\276\355\326D\026\350\354x\351"
 269      C497FEBE 
 269      EDD64416 
 269      E8EC78E9 
 270 0b0f EF538D32 		.ascii	"\357S\2152L,\366\234\201[&\332\333-\375\265\336OV[\360"
 270      4C2CF69C 
 270      815B26DA 
 270      DB2DFDB5 
 270      DE4F565B 
 271 0b24 4F26167B 		.ascii	"O&\026{&\252~AV\364&\333\004\0056]}2&L\360C\320v<nx"
 271      26AA7E41 
 271      56F426DB 
 271      0405365D 
 271      7D32264C 
 272 0b3f D3CEACF9 		.ascii	"\323\316\254\371^\266\254{\027\255\373\350\355\346E"
 272      5EB6AC7B 
 272      17ADFBE8 
 272      EDE645
 273 0b4e 3CE6AFB3 		.ascii	"<\346\257\263>\365<=\232\213+>v\377~\262\314\007\212"
 273      3EF53C3D 
 273      9A8B2B3E 
 273      76FF7EB2 
 273      CC078A
 274 0b61 BF6DA078 		.ascii	"\277m\240x\303M\262\0027\365\036|\313\214\366\212\337"
 274      C34DB202 
 274      37F51E7C 
 274      CB8CF68A 
 274      DF
 275 0b72 FF0051FC 		.ascii	"\377\000Q\374\014S\212?\242\253\370\031\326\025\257"
 275      0C538A3F 
 275      A2ABF819 
 275      D615AF
 276 0b81 E07D9E58 		.ascii	"\340}\236X?\025\371)\226\301\\\311\2548\203\262b-Xq"
 276      3F15F929 
 276      96C15CC9 
 276      AC3883B2 
 276      622D5871 
 277 0b95 A61DAFB6 		.ascii	"\246\035\257\266\317bm\271\350\036\215-\031\315)I\303"
 277      CF626DB9 
 277      E81E8D2D 
ARM GAS  /tmp/ccfVTTjR.s 			page 21


 277      19CD2949 
 277      C3
 278 0ba6 B503393A 		.ascii	"\265\0039:\353\240\372\230\230\304\274UZ<\275Z$\231"
 278      EBA0FA98 
 278      98C4BC55 
 278      5A3CBD5A 
 278      2499
 279 0bb8 F1D71F04 		.ascii	"\361\327\037\004\225\220x\363\276e0\027\003\266}\272"
 279      959078F3 
 279      BE653017 
 279      03B67DBA 
 280 0bc8 C99D69CC 		.ascii	"\311\235i\314N@\201\333\002\345\326i\335\345\316\367"
 280      4E4081DB 
 280      02E5D669 
 280      DDE5CEF7 
 281 0bd8 AD93F82A 		.ascii	"\255\223\370*\350:\353L\370\013\352\347\317e\301\346"
 281      E83AEB4C 
 281      F80BEAE7 
 281      CF65C1E6 
 282 0be8 6AE2B757 		.ascii	"j\342\267W\342\250IT\235\304[n\237W\366j\223Y\307--"
 282      E2A84954 
 282      9DC45B6E 
 282      9F57F66A 
 282      9359C72D 
 283 0bfd 5CCA4911 		.ascii	"\\\312I\021\013\367\213\324\324\303\232b\324\275S\015"
 283      0BF78BD4 
 283      D4C39A62 
 283      D4BD530D 
 284 0c0d 78A4B302 		.ascii	"x\244\263\002\352T\335Q\333#\020\315P\216XG9\342bp\304"
 284      EA54DD51 
 284      DB2310CD 
 284      508E5847 
 284      39E26270 
 285 0c22 7A70C4A5 		.ascii	"zp\304\245 \227\321\356h4\330Zn\247\246\017S:Z\255\267"
 285      2097D1EE 
 285      6834D85A 
 285      6EA7A60F 
 285      533A5AAD 
 286 0c37 4B631DA3 		.ascii	"Kc\035\243b\026\322\305\324v4\341{\306\013D8\250?\253"
 286      6216D2C5 
 286      D47634E1 
 286      7BC60B44 
 286      38A83FAB 
 287 0c4b 0E07C8E3 		.ascii	"\016\007\310\343\211:\313\210\2547_\236\316\014\007"
 287      893ACB88 
 287      AC375F9E 
 287      CE0C07
 288 0c5a FE6606EE 		.ascii	"\376f\006\356y\035\202z\007\375@J\344'\300lq\242\015"
 288      791D827A 
 288      07FD404A 
 288      E427C06C 
 288      71A20D
 289 0c6d 1BE84D90 		.ascii	"\033\350M\220SA\326\200l\001\371)\310\317@\236\000\031"
 289      5341D680 
 289      6C01F929 
 289      C8CF409E 
 289      0019
ARM GAS  /tmp/ccfVTTjR.s 			page 22


 290 0c7f 03790EE4 		.ascii	"\003y\016\344w \253\301\304SA\316\0019\017\344\002\220"
 290      7720ABC1 
 290      C45341CE 
 290      01390FE4 
 290      0290
 291 0c91 AB41BE9B 		.ascii	"\253A\276\233\312\001\224^`\373\217\307\037|\017bu\033"
 291      CA01945E 
 291      60FB8FC7 
 291      1F7C0F62 
 291      751B
 292 0ca3 3CF0FDBA 		.ascii	"<\360\375\272\235\347M\262i\036\027\264{\336u\263\243"
 292      9DE74DB2 
 292      691E17B4 
 292      7BDE75B3 
 292      A3
 293 0cb4 89E78649 		.ascii	"\211\347\206I\236\354\254;\373\355\270\355\325\304\246"
 293      9EECAC3B 
 293      FBEDB8ED 
 293      D5C4A6
 294 0cc3 2BC0AD17 		.ascii	"+\300\255\027\3315\033\031SoQf\215z\262\336\370}L\346"
 294      D9351B19 
 294      536F5166 
 294      8D7AB2DE 
 294      F87D4CE6 
 295 0cd7 C14D7C0F 		.ascii	"\301M|\017\332#\011\235\324\336:\376_d/\333\006h\215"
 295      DA23099D 
 295      D4DE3AFE 
 295      5F642FDB 
 295      06688D
 296 0cea DB3AA57E 		.ascii	"\333:\245~\032\311\340`-m\322\204\271\350\345S\344U"
 296      1AC9E060 
 296      2D6DD284 
 296      B9E8E553 
 296      E455
 297 0cfc CDD421EE 		.ascii	"\315\324!\356\215\361\321\253\247f+NIv\0264\001\205"
 297      8DF1D1AB 
 297      A7662B4E 
 297      49761634 
 297      0185
 298 0d0e 4DE97589 		.ascii	"M\351u\211x\233\302)j\233\302'\226\301\\\014\330\015"
 298      789BC229 
 298      6A9BC227 
 298      96C15C0C 
 298      D80D
 299 0d20 1AACC50C 		.ascii	"\032\254\305\014X\222Mh\267h\260\303\226\301Xf?\323"
 299      58924D68 
 299      B768B0C3 
 299      96C15866 
 299      3FD3
 300 0d32 609F9B01 		.ascii	"`\237\233\001K\262\011\355\027\032\354\013\313`,\263"
 300      4BB209ED 
 300      171AEC0B 
 300      CB602CB3 
 301 0d42 9AD314D8 		.ascii	"\232\323\024\330Y3`I\366\326\314\244\301\276\263\014"
 301      59336049 
 301      F6D6CCA4 
 301      C1BEB30C 
ARM GAS  /tmp/ccfVTTjR.s 			page 23


 302 0d52 C6329B4D 		.ascii	"\3062\233M\203]1\003\346\322a\246w\320\215@\3447C'\265"
 302      835D3103 
 302      E6D261A6 
 302      77D08D40 
 302      E4374327 
 303 0d67 05A25323 		.ascii	"\005\242S#\310m w\200\214\202\334\005r7\310\275 \233"
 303      C86D2077 
 303      808C82DC 
 303      057237C8 
 303      BD209B
 304 0d7a CC7464EB 		.ascii	"\314td\353\351\036\346F'\023\321(\311\012\322\272\263"
 304      E91EE646 
 304      2713D128 
 304      C90AD2BA 
 304      B3
 305 0d8b 2DFF7937 		.ascii	"-\377y7\233\240c7\333\366\377\001\207\217\324\033\241"
 305      9BA06337 
 305      DBF6FF01 
 305      878FD41B 
 305      A1
 306 0d9c 0FDACD6D 		.ascii	"\017\332\315m\204n\321\306\222\253\007!\226\264\230"
 306      846ED1C6 
 306      92AB0721 
 306      96B498
 307 0dab 1A5E5F37 		.ascii	"\032^_79\\\213\362\264v\342\261p\377s$\026~\006\261"
 307      395C8BF2 
 307      B476E2B1 
 307      70FF7324 
 307      167E06B1 
 308 0dbf F0E3CE29 		.ascii	"\360\343\316)c!\213\003\313\244Z\376\033\016\001\377"
 308      63218B03 
 308      CBA45AFE 
 308      1B0E01FF 
 309 0dcf A3A662E1 		.ascii	"\243\246b\341\346Cl,\374\034(\034M;\026n9Do\310\265"
 309      E6436C2C 
 309      FC1C281C 
 309      4D3B166E 
 309      39446FC8 
 310 0de4 0CE662C0 		.ascii	"\014\346b\300\032i\260Sf\300\222m\310\245\301\276\264"
 310      1A69B053 
 310      66C0926D 
 310      C8A5C1BE 
 310      B4
 311 0df5 0CC632DB 		.ascii	"\014\3062\333A\203}c\006,\331\206\\\032\354\007\313"
 311      41837D63 
 311      062CD986 
 311      5C1AEC07 
 311      CB
 312 0e06 602E3DF3 		.ascii	"`.=\363r\355\274C\344\217A\2208\016M\377\004\310\223"
 312      72EDBC43 
 312      E48F4190 
 312      380E4DFF 
 312      04C893
 313 0e19 204F833C 		.ascii	" O\203<\003\362\254\231\220p\230\016\011\227\200pK\272"
 313      03F2AC99 
 313      9070980E 
 313      09978070 
ARM GAS  /tmp/ccfVTTjR.s 			page 24


 313      4BBA
 314 0e2b 134AD4A2 		.ascii	"\023J\324\242\317\374\276\261}H \3720b\360\015\315\340"
 314      CFFCBEB1 
 314      7D4820FA 
 314      3062F00D 
 314      CDE0
 315 0e3d BA65062E 		.ascii	"\272e\006.\232A\364\366A\2628\257\276\201\376\263\026"
 315      9A41F4F6 
 315      41B238AF 
 315      BE81FEB3 
 315      16
 316 0e4e 4F6F5936 		.ascii	"OoY6\331,\345`\366\332\221*\330\370.V\3012\031\260\232"
 316      D92CE560 
 316      F6DA912A 
 316      D8F82E56 
 316      C13219B0 
 317 0e63 4314D834 		.ascii	"C\024\3304\313`F[\345Z\301\027>\005\233\177\015\362"
 317      CB60465B 
 317      E55AC117 
 317      3E059B7F 
 317      0DF2
 318 0e75 3CC8EF41 		.ascii	"<\310\357A^`'\334\263\273\264[\353\326\316\230\022Q"
 318      5E6027DC 
 318      B3BBB45B 
 318      EBD6CE98 
 318      1251
 319 0e87 94338B6B 		.ascii	"\2243\213kd\333Oh\333\256\352b\242\303q\031{\327\272"
 319      64DB4F68 
 319      DBAEEA62 
 319      A2C37119 
 319      7BD7BA
 320 0e9a B397940E 		.ascii	"\263\227\224\016\207\000\243\011\272eD\326[\346\234"
 320      8700A309 
 320      BA6544D6 
 320      5BE69C
 321 0ea9 AE673699 		.ascii	"\256g6\231o0\203\227d'\303\"2D `\333-\203\2718\303\203"
 321      6F308397 
 321      6427C322 
 321      32442060 
 321      DB2D83B9 
 322 0ec0 7EC30C4D 		.ascii	"~\303\014MHas\344\012\330\276\370\021\310_@\256\005"
 322      486173E4 
 322      0AD8BEF8 
 322      11C85F40 
 322      AE05
 323 0ed2 CBAC03D9 		.ascii	"\313\254\003\331\014\3622\310\037A^5c\261zz\243\343"
 323      0CF232C8 
 323      1F415E35 
 323      63B17A7A 
 323      A3E3
 324 0ee4 3EA8425D 		.ascii	">\250B]\272o\312\304\352\266O{\026\376\241\200l\240"
 324      BA6FCAC4 
 324      EAB64F7B 
 324      16FEA180 
 324      6CA0
 325 0ef6 44236ACB 		.ascii	"D#j\313\200\254\301\256\221\025+\002\366\251\0310\275"
 325      80ACC1AE 
ARM GAS  /tmp/ccfVTTjR.s 			page 25


 325      91152B02 
 325      F6A91930 
 325      BD
 326 0f07 B64D6995 		.ascii	"\266Mi\225\350s\021\350s1\331\024\012\272\272\305\266"
 326      E87311E8 
 326      7331D914 
 326      0ABABAC5 
 326      B6
 327 0f18 9A63ED5A 		.ascii	"\232c\355ZM\235v\233i\035\263\315\324\020\313H\357\363"
 327      4D9D769B 
 327      691DB3CD 
 327      D410CB48 
 327      EFF3
 328 0f2a 127A17F9 		.ascii	"\022z\027\371;\360~\232\225\267;Y5\265\355S\243 \371"
 328      3BF07E9A 
 328      95B73B59 
 328      35B5ED53 
 328      A320F9
 329 0f3d 57A52F81 		.ascii	"W\245/\201~\212\367q\365V\305\364\016\372/\200\220\263"
 329      7E8AF771 
 329      F556C5F4 
 329      0EFA2F80 
 329      90B3
 330 0f4f C1FB41EB 		.ascii	"\301\373A\353\341\205\361\253 \247C\325g\202\234\015"
 330      E185F1AB 
 330      20A743D5 
 330      67829C0D 
 331 0f5f 722EC83B 		.ascii	"r.\310;f\324\360\036O\251\201z\207\014\215\2705&x\204"
 331      66D4F01E 
 331      4FA9817A 
 331      870C8DB8 
 331      35267884 
 332 0f73 5B2ECB33 		.ascii	"[.\3133c\353\266M\377w\344bvr\253\300M\355\212/[\315"
 332      63EBB64D 
 332      FF77E462 
 332      7672ABC0 
 332      4DED8A2F 
 333 0f89 3FA45B44 		.ascii	"?\244[D\274\000\370\357\246j\371\302\204\011\235y\365"
 333      BC00F8EF 
 333      A66AF9C2 
 333      84099D79 
 333      F5
 334 0f9a FFA498DB 		.ascii	"\377\244\230\3334\257"
 334      34AF
 335 0fa0 4AC2CF6D 		.ascii	"J\302\317mv\275\377rjQ\377\313\211\374E\223\300\325"
 335      76BDFF72 
 335      6A51FFCB 
 335      89FC4593 
 335      C0D5
 336 0fb2 74D5632A 		.ascii	"t\325c*7H\203H\361\"_\345\300\366\035\357H\213$u\233"
 336      37488348 
 336      F1225FE5 
 336      C0F61DEF 
 336      488B2475 
 337 0fc7 1EC9371C 		.ascii	"\036\3117\034z$\177J\220\\\011$\337\325\220\324\377"
 337      7A247F4A 
 337      905C0924 
ARM GAS  /tmp/ccfVTTjR.s 			page 26


 337      DFD590D4 
 337      FF
 338 0fd8 3BAB490E 		.ascii	";\253I\016\315\337YMn\217\2764\026\255i\326\377;\253"
 338      CDDF594D 
 338      6E8FBE34 
 338      16AD69D6 
 338      FF3BAB
 339 0feb 24AF0D4E 		.ascii	"$\257\015Nuh^\033\304\325\323\230|\243\276\"\257\376"
 339      75685E1B 
 339      C4D5D398 
 339      7CA3BE22 
 339      AFFE
 340 0ffd B99BEA   		.ascii	"\271\233\352"
 341 1000 D8BBE18A 		.ascii	"\330\273\341\212)\006\032\211\377i\230R\265i2(R\251"
 341      29061A89 
 341      FF699852 
 341      B5693228 
 341      52A9
 342 1012 DB146DDD 		.ascii	"\333\024m\335\246\351\326mSs\\s\2303\012\212\372\254"
 342      A6E9D66D 
 342      53735C73 
 342      98330A8A 
 342      FAAC
 343 1024 4EABAC44 		.ascii	"N\253\254D~\006\230\2676-V\265ZV3\333\263\212\325\304"
 343      7E0698B7 
 343      362D56B5 
 343      5A5633DB 
 343      B38AD5C4 
 344 1038 8E6EDA75 		.ascii	"\216n\332u\223\257^>1\212\271\275\036\267\352\374{\265"
 344      93AF5E3E 
 344      318AB9BD 
 344      1EB7EAFC 
 344      7BB5
 345 104a 56252073 		.ascii	"V% sY\220\177\346\336\226\327Fc\353~\330/\340\327\354"
 345      59907FE6 
 345      DE96D746 
 345      63EB7ED8 
 345      2FE0D7EC 
 346 105e 65F9E7B6 		.ascii	"e\371\347\2666\236\327\237\271E;\250\344\337\241\036"
 346      369ED79F 
 346      B9453BA8 
 346      E4DFA11E 
 347 106e A1D75EB9 		.ascii	"\241\327^\271\324\317`\356\246\271A\344\0278tgo\232"
 347      D4CF60EE 
 347      A6B941E4 
 347      17387467 
 347      6F9A
 348 1080 EB20863A 		.ascii	"\353 \206:4\363\237\037\311\374\015\347\247^\356\276"
 348      34F39F1F 
 348      C9FC0DE7 
 348      A75EEEBE 
 349 1090 79D0F0B9 		.ascii	"y\320\360\271N,>\325z0^\207h\353A\274\220\\\357\300"
 349      4E2C3ED5 
 349      7A305E87 
 349      68EB41BC 
 349      905CEFC0 
 350 10a4 D3B5D51A 		.ascii	"\323\265\325\032\305\245\304\000;j\351\316\"t\3376A"
ARM GAS  /tmp/ccfVTTjR.s 			page 27


 350      C5A5C400 
 350      3B6AE9CE 
 350      2274DF36 
 350      41
 351 10b5 B73A3AEF 		.ascii	"\267::\357 \373\206\3336\240\200\357M\253\263\215.<"
 351      20FB86DB 
 351      36A080EF 
 351      4DABB38D 
 351      2E3C
 352 10c7 480D3E76 		.ascii	"H\015>vY\006s1`\3654\330~3`I\006\321\353i\260V\313`"
 352      59067331 
 352      60F534D8 
 352      7E336049 
 352      06D1EB69 
 353 10df 2CB34D34 		.ascii	",\263M4\330Q3`I\366Q5\322`',\203\261\314v\320`13`zK"
 353      D8513360 
 353      49F65135 
 353      D260272C 
 353      83B1CC76 
 354 10fa 577A07ED 		.ascii	"Wz\007\355jh$\350\300]\356r\007\356TW\202\\\005r5\310"
 354      6A6824E8 
 354      C05DEE72 
 354      07EE5457 
 354      825C0572 
 355 1110 7741BE0F 		.ascii	"wA\276\017\362C\0073\2129\007\234\352\022\234X\227N"
 355      F2430733 
 355      8A39079C 
 355      EA129C58 
 355      974E
 356 1122 E56272B4 		.ascii	"\345br\264f8\256 i1?\230\0023\\?\222\243\363)\260\037"
 356      6638AE20 
 356      69313F98 
 356      02335C3F 
 356      92A3F329 
 357 1138 4D81193E 		.ascii	"M\201\031>\356\220\243k)\260[\246\300\014wP\312\321"
 357      EE90A36B 
 357      29B05BA6 
 357      C00C7750 
 357      CAD1
 358 114a 2D1458D5 		.ascii	"-\024X\325}f\300\202\306\314.Q`\223M\201M\346u\250Q"
 358      7D66C082 
 358      C6CC2E51 
 358      60934D81 
 358      4DE675A8 
 359 115f BEA08C59 		.ascii	"\276\240\214Y\301\013\026\203\235\327\203\374\010\344"
 359      C10B1683 
 359      9DD783FC 
 359      08E4
 360 116d 26905B40 		.ascii	"&\220[@6\262\366\237q_\273Q\254C;\212u0\243X+\350\013"
 360      36B2F69F 
 360      715FBB51 
 360      AC433B8A 
 360      7530A358 
 361 1184 E2E8C601 		.ascii	"\342\350\306\001~;\352\207\376\211{\357\276\3052i\341"
 361      7E3BEA87 
 361      FE897BEF 
 361      BEC53269 
ARM GAS  /tmp/ccfVTTjR.s 			page 28


 361      E1
 362 1195 7DB80DF2 		.ascii	"}\270\015\362\344\350H\221\237\017\345\342\362HV\220"
 362      E4E84891 
 362      9F0FE5E2 
 362      F2485690 
 363 11a5 A88CB839 		.ascii	"\250\214\2709F\311\310\342\226WM\376\314\251\370\274"
 363      46C9C8E2 
 363      96574DFE 
 363      CCA9F8BC 
 364 11b5 92250B8A 		.ascii	"\222%\013\212\367+\337?\274\216\367x\220\246\240d\355"
 364      F72BDF3F 
 364      BC8EF778 
 364      90A6A064 
 364      ED
 365 11c6 5E7364A9 		.ascii	"^sd\251Si\027J\026~_\2254\021\025\346\"\257\264\026"
 365      5369174A 
 365      167E5F95 
 365      341115E6 
 365      22AFB416 
 366 11da 25E38DE8 		.ascii	"%\343\215\350\343\234Rsc>{\016\254AUd\3718Y>m\247wi"
 366      E39C5273 
 366      633E7B0E 
 366      AC415564 
 366      F938593E 
 367 11f2 F9AC5C73 		.ascii	"\371\254\\sd\215C\303\347\246\226\217,o\311`\031\355"
 367      648D43C3 
 367      E7A6968F 
 367      2C6FC960 
 367      19ED
 368 1204 96A3E836 		.ascii	"\226\243\3506\305\016\306\234fD\227\375FC\311\256\245"
 368      C50EC69C 
 368      664497FD 
 368      4643C9AE 
 368      A5
 369 1215 74514BA9 		.ascii	"tQK\251e\315\236)ZJ\355T\204\\9\223\245\024\375\344"
 369      65CD9E29 
 369      5A4AED54 
 369      845C3993 
 369      A514FDE4 
 370 1229 7E4E7109 		.ascii	"~Nq\011cB\034\313\206\323\220ikg\257#:\372\321\222\341"
 370      63421CCB 
 370      86D39069 
 370      6B67AF23 
 370      3AFAD192 
 371 123e 5822F07D 		.ascii	"X\"\360}\313\257K\243 \015\012\215\277.\005\3162\205"
 371      CBAF4BA3 
 371      200D0A8D 
 371      BF2E05CE 
 371      3285
 372 1250 76EF9DE2 		.ascii	"v\357\235\342Q\241\321\010|\257#>\325R\376\011\"\331"
 372      51A1D108 
 372      7CAF233E 
 372      D552FE09 
 372      22D9
 373 1262 3BE622FF 		.ascii	";\346\"\377%L\222S\275\006\016\003\247*\323o\330\343"
 373      254C9253 
 373      BD060E03 
ARM GAS  /tmp/ccfVTTjR.s 			page 29


 373      A72AD36F 
 373      D8E3
 374 1274 6F31981E 		.ascii	"o1\230\036~K\277\206\3119<\003\002\201\322\314Q\001"
 374      7E4BBF86 
 374      C9393C03 
 374      0281D2CC 
 374      5101
 375 1286 31E4EBEE 		.ascii	"1\344\353\356\345r<\036I\014\225\216\363\370\313\375"
 375      E5723C1E 
 375      490C958E 
 375      F3F8CBFD 
 376 1296 11E70BC3 		.ascii	"\021\347\013\303^t\345qO\345\226\004\312\244\\o\300"
 376      5E74E571 
 376      4FE59604 
 376      CAA45C6F 
 376      C0
 377 12a7 372ED727 		.ascii	"7.\327'\215\311\365\226\370G\371\003\341\334H\250\242"
 377      8DC9F596 
 377      F847F903 
 377      E1DC48A8 
 377      A2
 378 12b8 FCD55C94 		.ascii	"\374\325\\\224(\021Ks\375\345\336\322\012\237\224[V"
 378      28114B73 
 378      FDE5DED2 
 378      0A9F945B 
 378      56
 379 12c9 E6F58483 		.ascii	"\346\365\204\203\376\356%\\\326\320\241y\371!\377\030"
 379      FEEE255C 
 379      D6D0A179 
 379      F921FF18 
 380 12d9 2994134F 		.ascii	")\224\023O\375i\350\210l\177\030\201\207\245PD\362\345"
 380      FD69E888 
 380      6C7F1881 
 380      87A55044 
 380      F2E5
 381 12eb A0743014 		.ascii	"\240t0\024\210H^\364%\303\033(/G\251\016>\177XI>\222"
 381      88485EF4 
 381      25C31B28 
 381      2F47A90E 
 381      3E7F5849 
 382 1301 5B110EE5 		.ascii	"[\021\016\345\212\241\262'\313\003\345\322\223\2228"
 382      8AA1B227 
 382      CB03E5D2 
 382      939238
 383 1310 CA1F2F28 		.ascii	"\312\037/(\034\361\371\313#\250\234\314\012\364\331"
 383      1CF1F9CB 
 383      23A89CCC 
 383      0AF4D9
 384 131f BB9727D2 		.ascii	"\273\227'\322'\311\325e\"b].\345z|R\261XQ\032\361D\306"
 384      27C9D565 
 384      22625D2E 
 384      E57A7C52 
 384      B158511A 
 385 1336 05A530BA 		.ascii	"\005\2450\272\273\203\307\243\336\237\201\023}=\221"
 385      BB83C7A3 
 385      DE9F8113 
 385      7D3D91
ARM GAS  /tmp/ccfVTTjR.s 			page 30


 386 1345 2C928552 		.ascii	",\222\205R\366\220$\372\034cC\376\210d\017\217+\367"
 386      F69024FA 
 386      1C6343FE 
 386      88640F8F 
 386      2BF7
 387 1357 3E6B4513 		.ascii	">kE\023(\355\361\007F\225\006\274\257\242r:\015\300"
 387      28EDF107 
 387      469506BC 
 387      AFA2723A 
 387      0DC0
 388 1369 897C698C 		.ascii	"\211|i\214\337+\015./\016d\216*}\325\023\366\277&e\340"
 388      DF2B0D2E 
 388      2F0E648E 
 388      2A7DD513 
 388      F6BF2665 
 389 137e 44794559 		.ascii	"DyEY\346h)\202\024S\034\260\215)\213t@\231\341\210\030"
 389      E6682982 
 389      14531CB0 
 389      8D298B74 
 389      4099E188 
 390 1393 913C910E 		.ascii	"\221<\221\016\003\206\374\321\363\342\260\301\303\006"
 390      0386FCD1 
 390      F3E2B0C1 
 390      C306
 391 13a1 8FC8C4C9 		.ascii	"\217\310\304\311\242\021\303\013!\257\177\336\210\301"
 391      A211C30B 
 391      21AF7FDE 
 391      88C1
 392 13af 7F2AE888 		.ascii	"\177*\350\210\223y\303\207\015+@_\207\275\320\005\177"
 392      9379C387 
 392      0D2B405F 
 392      87BDD005 
 392      7F
 393 13c0 CD1F5C94 		.ascii	"\315\037\\\224\310\311\3029\356\202\376\371\257d\253"
 393      C8C9C239 
 393      EE82FEF9 
 393      AF64AB
 394 13cf 29940BE9 		.ascii	")\224\013\351\227\334\203G\250\351\242W\206\345\241"
 394      97DC8347 
 394      A8E9A257 
 394      86E5A1
 395 13de B4034AB5 		.ascii	"\264\003J\265y\375>\2337\354\313\364\212A\321\353\217"
 395      79FD3E9B 
 395      37ECCBF4 
 395      8A41D1EB 
 395      8F
 396 13ef 8CCB3753 		.ascii	"\214\3137S\361` \024\011\347\026\215\030\332\273W\356"
 396      F1602014 
 396      09E7168D 
 396      18DABB57 
 396      EE
 397 1400 9021F9B9 		.ascii	"\220!\371\271E\205\203\307\364\314E\316\340)-\365a\207"
 397      458583C7 
 397      F4CC45CE 
 397      E0292DF5 
 397      6187
 398 1412 4019C40D 		.ascii	"@\031\304\015zY\321#\361\246\016\350C\325\010\302Q5"
ARM GAS  /tmp/ccfVTTjR.s 			page 31


 398      7A59D123 
 398      F1A60EE8 
 398      43D508C2 
 398      5135
 399 1424 82935823 		.ascii	"\202\223X#\030\233\324\022~%\272\311\301\311\274\341"
 399      189BD412 
 399      7E25BAC9 
 399      C1C9BCE1 
 400 1434 430B8714 		.ascii	"C\013\207\024\214(\270\007\001x\305\322\322Q\242\367"
 400      8C28B807 
 400      0178C5D2 
 400      D251A2F7 
 401 1444 554FC429 		.ascii	"UO\304)\225\373<\336Q\005\351\324\353\205\302\301\303"
 401      95FB3CDE 
 401      5105E9D4 
 401      EB85C2C1 
 401      C3
 402 1455 C7F4CA0D 		.ascii	"\307\364\312\015\"\373\222\212\345\204#e\310\201F\007"
 402      22FB928A 
 402      E5842365 
 402      C8814607 
 403 1465 FD014FC4 		.ascii	"\375\001O\3041tx~\201\3339|\304+\205\005\356\214\341"
 403      3174787E 
 403      81DB397C 
 403      C42B8505 
 403      EE8CE1
 404 1478 45850505 		.ascii	"E\205\005\005\371nG\341\213\205\371n\333`t\016\317w"
 404      F96E47E1 
 404      8B85F96E 
 404      DB60740E 
 404      CF77
 405 148a F32F81CF 		.ascii	"\363/\201\317\366|\012\325\205\370\032N\332\302R\304"
 405      F67C0AD5 
 405      85F81A4E 
 405      DAC252C4 
 406 149a E12D45CD 		.ascii	"\341-E\315\217\037d\037P\344v\333\207\344\375\321m\357"
 406      8F1F641F 
 406      50E476DB 
 406      87E4FDD1 
 406      6DEF
 407 14ac 3FD03D04 		.ascii	"?\320=\004\213A\266\001nw\007\177\000\263\361\373P\015"
 407      8B41B601 
 407      6E77077F 
 407      00B3F1FB 
 407      500D
 408 14be C2619C74 		.ascii	"\302a\234t\240\017\021\031+\324\023\253 /P^\354\037"
 408      A00F1119 
 408      2BD413AB 
 408      202F505E 
 408      EC1F
 409 14d0 EDF4C247 		.ascii	"\355\364\302G\337T\225\013E\342J\366\226\204\307\205"
 409      DF54950B 
 409      45E24AF6 
 409      9684C785 
 410 14e0 D5369119 		.ascii	"\3256\221\031)\301\216\217Z\202\267\304C\322}\254ay"
 410      29C18E8F 
 410      5A82B7C4 
ARM GAS  /tmp/ccfVTTjR.s 			page 32


 410      43D27DAC 
 410      6179
 411 14f2 4BB05E9C 		.ascii	"K\260^\234AO\271T\031A\037\301\2204f\220\011\010\242"
 411      414FB954 
 411      19411FC1 
 411      90346690 
 411      0908A2
 412 1505 EAFEEEA1 		.ascii	"\352\376\356\241yC+\321\225eA\177\251\024\012\347\276"
 412      79432BD1 
 412      9565417F 
 412      A9140AE7 
 412      BE
 413 1516 9097872E 		.ascii	"\220\227\207.W\351eD\202!\254i\300\365\007p\334\210"
 413      57E96544 
 413      8221AC69 
 413      C0F50770 
 413      DC88
 414 1528 A0629EB1 		.ascii	"\240b\236\261\214_\342\015\204$\004\230\215\263Q\333"
 414      8C5FE20D 
 414      84240498 
 414      8DB351DB 
 415 1538 8B782395 		.ascii	"\213x#\225\377\226\036\212g\314\323eXs!i4\012@\330\230"
 415      FF961E8A 
 415      67CCD365 
 415      58732169 
 415      340A40D8 
 416 154d 3D9F42E7 		.ascii	"=\237B\347\323\350\354\213\316gl\341^=\320\331\023\235"
 416      D3E8EC8B 
 416      CE676CE1 
 416      5E3DD0D9 
 416      139D
 417 155f BDD0D91B 		.ascii	"\275\320\331\033\235}\320\371;t\242\353z\241\353z\241"
 417      9D7DD0F9 
 417      3B74A2EB 
 417      7AA1EB7A 
 417      A1
 418 1570 EB7AA1EB 		.ascii	"\353z\241\353z\243\353z\367\024B}\204\320\357\204\320"
 418      7AA3EB7A 
 418      F714427D 
 418      84D0EF84 
 418      D0
 419 1581 5342E869 		.ascii	"SB\350i!\324W\010=c\013\365\354\201\316\236Bi\010}\364"
 419      21D45708 
 419      3D630BF5 
 419      EC81CE9E 
 419      4269087D 
 420 1596 76043D88 		.ascii	"v\004=\210m\006\326\360X)\204>\003\245>)d\367\226\210"
 420      6D06D6F0 
 420      5829843E 
 420      03A53E29 
 420      64F79688 
 421 15aa 21AC76B1 		.ascii	"!\254v\261L\312\214(\355\005\375\010\251\214HY\300G"
 421      4CCA8C28 
 421      ED05FD08 
 421      A98C4859 
 421      C047
 422 15bc BE17978A 		.ascii	"\276\027\227\212\243\303\031\221\220T\034\006=\342\204"
ARM GAS  /tmp/ccfVTTjR.s 			page 33


 422      A3C31991 
 422      90541C06 
 422      3DE284
 423 15cb A32C3C1A 		.ascii	"\243,<\032\375\250\004C\024\004\225\2243\344\033\207"
 423      FDA80443 
 423      14049594 
 423      33E41B87 
 424 15db 7ECA942A 		.ascii	"~\312\224*\375\021\244\026\31196\022\030\365\227`\266"
 424      FD11A416 
 424      C9393612 
 424      18F59760 
 424      B6
 425 15ec 34462A8F 		.ascii	"4F*\217\224\211ahMcq\302\026\364Tt$\376\022\366\224"
 425      94896168 
 425      4D6371C2 
 425      16F45474 
 425      24FE12F6 
 426 1601 A2E6EA89 		.ascii	"\242\346\352\211t\212{\020\311\311\012z\306\212\376"
 426      748A7B10 
 426      C9C90A7A 
 426      C68AFE
 427 1610 88BF7C74 		.ascii	"\210\277|t'5\373\257\025R\005b\325\231\272\022\262:"
 427      2735FBAF 
 427      15520562 
 427      D599BA12 
 427      B23A
 428 1622 043DA858 		.ascii	"\004=\250XH: \2112\244 j\267\350fGY\0052yoKNY\026\251"
 428      483A2089 
 428      32A4206A 
 428      B7E86647 
 428      59053279 
 429 163c C4CE5346 		.ascii	"\304\316SF\320\321g`l9\322\034 \241*\224\201\257\"~"
 429      D0D16760 
 429      6C39D21C 
 429      20A12A94 
 429      81AF227E 
 430 1650 E83ACCB4 		.ascii	"\350:\314\264\003\326\212X\012\036\2062\203\250\227"
 430      03D68A58 
 430      0A1E8632 
 430      83A897
 431 165f 7CDA5279 		.ascii	"|\332RyJeP\231]\225\366\204\264,\205\244r/\252\255\223"
 431      4A655099 
 431      5D95F684 
 431      B42C85A4 
 431      722FAAAD 
 432 1674 64FD3E15 		.ascii	"d\375>\025\"\242\224\2337\264hp\021\212?\271\020f\212"
 432      22A2949B 
 432      37B46870 
 432      118A3FB9 
 432      10668A
 433 1687 FBF4E859 		.ascii	"\373\364\350Y\351\305^\213\243\333\010\324&\362\245"
 433      E9C55E8B 
 433      A3DB08D4 
 433      26F2A5
 434 1696 625B9EBB 		.ascii	"b[\236\273':{\011En\001E\233<w^\241\333\351~\031}\272"
 434      273A7B09 
 434      456E0145 
ARM GAS  /tmp/ccfVTTjR.s 			page 34


 434      9B3C775E 
 434      A1DBE97E 
 435 16ad 9D23E023 		.ascii	"\235#\340#cp\257\242\274\201/\270\035\350\263\320mC"
 435      6370AFA2 
 435      BC812FB8 
 435      1DE8B3D0 
 435      6D43
 436 16bf C170A0D5 		.ascii	"\301p\240\325\330\007r`\237\312JB\304\343+\023q\345"
 436      D8077260 
 436      9FCA4A42 
 436      C4E32B13 
 436      71E5
 437 16d1 F287F6F7 		.ascii	"\362\207\366\367\024!W\022\313T6B\236\333>,\177\204"
 437      14215712 
 437      CB543642 
 437      9EDB3E2C 
 437      7F84
 438 16e3 DB56D8DF 		.ascii	"\333V\330\337m\037\332\003\213\236\375\335\266\201\210"
 438      6D1FDA03 
 438      8B9EFDDD 
 438      B68188
 439 16f2 4C182EB4 		.ascii	"L\030.\264\373\213\275!\247?\\\342/\216d\205\245\322"
 439      FB8BBD21 
 439      A73F5CE2 
 439      2F8E6485 
 439      A5D2
 440 1704 627FB94F 		.ascii	"b\177\271O\252t\216A]~ \3245\216\356!W\243\230\212\276"
 440      AA748E41 
 440      5D7E20D4 
 440      358EEE21 
 440      57A3988A 
 441 1719 842AB18C 		.ascii	"\204*\261\214Tf\205*\321'\366\344\254\210\232\262\243"
 441      5466852A 
 441      D127F6E4 
 441      AC889AB2 
 441      A3
 442 172a EA041DA5 		.ascii	"\352\004\035\245ao\361hG\011\226x\354Aba'\350\200=\242"
 442      616FF168 
 442      47099678 
 442      EC416261 
 442      27E8803D 
 443 173f CF1792C2 		.ascii	"\317\027\222\302a)\334\015\017PP\330\366\240\241\207"
 443      6129DC0D 
 443      0F5050D8 
 443      F6A0A187 
 444 174f 178D79E2 		.ascii	"\027\215y\342c\021;\372!\370\000\365+t\373\211\341I"
 444      63113BFA 
 444      21F800F5 
 444      2B74FB89 
 444      E149
 445 1761 160C9106 		.ascii	"\026\014\221\006\243aQGH\025I\221\001\025\257\275&\205"
 445      A3615147 
 445      48154991 
 445      0115AFBD 
 445      2685
 446 1773 844079B6 		.ascii	"\204@y\266\2323\244 \337rW\231PkI\274G\351Lt\340\005"
 446      9A33A420 
ARM GAS  /tmp/ccfVTTjR.s 			page 35


 446      DF725799 
 446      506B49BC 
 446      47E94C74 
 447 1789 EE7828D6 		.ascii	"\356x(\326\225\352bP?Q\021DJ\3015\0179\0038,\2062\002"
 447      95EA6250 
 447      3F511144 
 447      4AC1350F 
 447      3903382C 
 448 17a0 E1A024F9 		.ascii	"\341\240$\371B\216`E\320\027\262\005|!\273X\034*\305"
 448      428E6045 
 448      D017B205 
 448      7C21BB58 
 448      1C2AC5
 449 17b3 A2C459D8 		.ascii	"\242\304Y\330?_\214\210\316\302\001\344#\217|\344\223"
 449      3F5F8C88 
 449      CEC201E4 
 449      238F7CE4 
 449      93
 450 17c4 8F02F231 		.ascii	"\217\002\3621\010\177d\025\366\037B\324"
 450      087F6415 
 450      F61F42D4 
 451 17d0 D615F76E 		.ascii	"\326\025\367n\352X\211t'\017t\017\005|\350\242\356\355"
 451      EA588974 
 451      270F740F 
 451      057CE8A2 
 451      EEED
 452 17e2 7FFA3F13 		.ascii	"\177\372?\023\273\362&"
 452      BBF226
 453              		.text
 454              		.section	.gnu.lto_.symtab.d03f998cc389045f,"",%progbits
 455 0000 5F5F6561 		.ascii	"__early_init\000\000\000\000\000\000\000\000\000\000"
 455      726C795F 
 455      696E6974 
 455      00000000 
 455      00000000 
 456 0016 0000A400 		.ascii	"\000\000\244\000\000\000mmc_lld_is_card_inserted\000"
 456      00006D6D 
 456      635F6C6C 
 456      645F6973 
 456      5F636172 
 457 0035 00000000 		.ascii	"\000\000\000\000\000\000\000\000\000\000\000\251\000"
 457      00000000 
 457      000000A9 
 457      00
 458 0042 00006D6D 		.ascii	"\000\000mmc_lld_is_write_protected\000\000\000\000\000"
 458      635F6C6C 
 458      645F6973 
 458      5F777269 
 458      74655F70 
 459 0063 00000000 		.ascii	"\000\000\000\000\000\000\000\203\002\000\000boardIn"
 459      00000083 
 459      02000062 
 459      6F617264 
 459      496E
 460 0075 69740000 		.ascii	"it\000\000\000\000\000\000\000\000\000\000\000\000\207"
 460      00000000 
 460      00000000 
ARM GAS  /tmp/ccfVTTjR.s 			page 36


 460      000087
 461 0084 02000062 		.ascii	"\002\000\000boardSetBuzzer\000\000\000\000\000\000\000"
 461      6F617264 
 461      53657442 
 461      757A7A65 
 461      72000000 
 462 009c 00000000 		.ascii	"\000\000\000\000\000\212\002\000\000boardSetLED\000"
 462      008A0200 
 462      00626F61 
 462      72645365 
 462      744C4544 
 463 00b1 00000000 		.ascii	"\000\000\000\000\000\000\000\000\000\000\000\221\002"
 463      00000000 
 463      00000091 
 463      02
 464 00be 00007061 		.ascii	"\000\000pal_default_config\000\000\000\000\000\000\000"
 464      6C5F6465 
 464      6661756C 
 464      745F636F 
 464      6E666967 
 465 00d9 00000000 		.ascii	"\000\000\000\000\000\227\002\000\000stm32_clock_ini"
 465      00970200 
 465      0073746D 
 465      33325F63 
 465      6C6F636B 
 466 00f1 74000002 		.ascii	"t\000\000\002\000\000\000\000\000\000\000\000\000\225"
 466      00000000 
 466      00000000 
 466      0095
 467 00ff 020000   		.ascii	"\002\000\000"
 468              		.text
 469              		.section	.gnu.lto_.opts,"",%progbits
 470 0000 272D6D63 		.ascii	"'-mcpu=cortex-m4' '-mfloat-abi=hard' '-mfpu=fpv4-sp"
 470      70753D63 
 470      6F727465 
 470      782D6D34 
 470      2720272D 
 471 0033 2D643136 		.ascii	"-d16' '-mno-thumb-interwork' '-mthumb' '-O2' '-fomi"
 471      2720272D 
 471      6D6E6F2D 
 471      7468756D 
 471      622D696E 
 472 0066 742D6672 		.ascii	"t-frame-pointer' '-falign-functions=16' '-ffunction"
 472      616D652D 
 472      706F696E 
 472      74657227 
 472      20272D66 
 473 0099 2D736563 		.ascii	"-sections' '-fdata-sections' '-fno-common' '-flto' "
 473      74696F6E 
 473      73272027 
 473      2D666461 
 473      74612D73 
 474 00cc 272D6673 		.ascii	"'-fsingle-precision-constant'\000"
 474      696E676C 
 474      652D7072 
 474      65636973 
 474      696F6E2D 
ARM GAS  /tmp/ccfVTTjR.s 			page 37


 475              		.text
 476              		.section	.text.__early_init,"ax",%progbits
 477              		.align	2
 478              		.p2align 4,,15
 479              		.global	__early_init
 480              		.thumb
 481              		.thumb_func
 482              		.type	__early_init, %function
 483              	__early_init:
 484              		@ args = 0, pretend = 0, frame = 0
 485              		@ frame_needed = 0, uses_anonymous_args = 0
 486              		@ link register save eliminated.
 487 0000 FFF7FEBF 		b	stm32_clock_init
 488              		.size	__early_init, .-__early_init
 489 0004 AFF30080 		.section	.text.mmc_lld_is_card_inserted,"ax",%progbits
 489      AFF30080 
 489      AFF30080 
 490              		.align	2
 491              		.p2align 4,,15
 492              		.global	mmc_lld_is_card_inserted
 493              		.thumb
 494              		.thumb_func
 495              		.type	mmc_lld_is_card_inserted, %function
 496              	mmc_lld_is_card_inserted:
 497              		@ args = 0, pretend = 0, frame = 0
 498              		@ frame_needed = 0, uses_anonymous_args = 0
 499              		@ link register save eliminated.
 500 0000 0120     		movs	r0, #1
 501 0002 7047     		bx	lr
 502              		.size	mmc_lld_is_card_inserted, .-mmc_lld_is_card_inserted
 503 0004 AFF30080 		.section	.text.mmc_lld_is_write_protected,"ax",%progbits
 503      AFF30080 
 503      AFF30080 
 504              		.align	2
 505              		.p2align 4,,15
 506              		.global	mmc_lld_is_write_protected
 507              		.thumb
 508              		.thumb_func
 509              		.type	mmc_lld_is_write_protected, %function
 510              	mmc_lld_is_write_protected:
 511              		@ args = 0, pretend = 0, frame = 0
 512              		@ frame_needed = 0, uses_anonymous_args = 0
 513              		@ link register save eliminated.
 514 0000 0020     		movs	r0, #0
 515 0002 7047     		bx	lr
 516              		.size	mmc_lld_is_write_protected, .-mmc_lld_is_write_protected
 517 0004 AFF30080 		.section	.text.boardInit,"ax",%progbits
 517      AFF30080 
 517      AFF30080 
 518              		.align	2
 519              		.p2align 4,,15
 520              		.global	boardInit
 521              		.thumb
 522              		.thumb_func
 523              		.type	boardInit, %function
 524              	boardInit:
 525              		@ args = 0, pretend = 0, frame = 0
ARM GAS  /tmp/ccfVTTjR.s 			page 38


 526              		@ frame_needed = 0, uses_anonymous_args = 0
 527              		@ link register save eliminated.
 528 0000 7047     		bx	lr
 529              		.size	boardInit, .-boardInit
 530 0002 00BFAFF3 		.section	.text.boardSetBuzzer,"ax",%progbits
 530      0080AFF3 
 530      0080AFF3 
 530      0080
 531              		.align	2
 532              		.p2align 4,,15
 533              		.global	boardSetBuzzer
 534              		.thumb
 535              		.thumb_func
 536              		.type	boardSetBuzzer, %function
 537              	boardSetBuzzer:
 538              		@ args = 0, pretend = 0, frame = 0
 539              		@ frame_needed = 0, uses_anonymous_args = 0
 540              		@ link register save eliminated.
 541 0000 034B     		ldr	r3, .L10
 542 0002 0822     		movs	r2, #8
 543 0004 08B9     		cbnz	r0, .L9
 544 0006 5A83     		strh	r2, [r3, #26]	@ movhi
 545 0008 7047     		bx	lr
 546              	.L9:
 547 000a 1A83     		strh	r2, [r3, #24]	@ movhi
 548 000c 7047     		bx	lr
 549              	.L11:
 550 000e 00BF     		.align	2
 551              	.L10:
 552 0010 00040240 		.word	1073873920
 553              		.size	boardSetBuzzer, .-boardSetBuzzer
 554 0014 AFF30080 		.section	.text.boardSetLED,"ax",%progbits
 554      AFF30080 
 554      AFF30080 
 555              		.align	2
 556              		.p2align 4,,15
 557              		.global	boardSetLED
 558              		.thumb
 559              		.thumb_func
 560              		.type	boardSetLED, %function
 561              	boardSetLED:
 562              		@ args = 0, pretend = 0, frame = 0
 563              		@ frame_needed = 0, uses_anonymous_args = 0
 564              		@ link register save eliminated.
 565 0000 034B     		ldr	r3, .L16
 566 0002 2022     		movs	r2, #32
 567 0004 08B9     		cbnz	r0, .L15
 568 0006 5A83     		strh	r2, [r3, #26]	@ movhi
 569 0008 7047     		bx	lr
 570              	.L15:
 571 000a 1A83     		strh	r2, [r3, #24]	@ movhi
 572 000c 7047     		bx	lr
 573              	.L17:
 574 000e 00BF     		.align	2
 575              	.L16:
 576 0010 00040240 		.word	1073873920
 577              		.size	boardSetLED, .-boardSetLED
ARM GAS  /tmp/ccfVTTjR.s 			page 39


 578              		.global	pal_default_config
 579 0014 AFF30080 		.section	.rodata.pal_default_config,"a",%progbits
 579      AFF30080 
 579      AFF30080 
 580              		.align	2
 581              		.type	pal_default_config, %object
 582              		.size	pal_default_config, 168
 583              	pal_default_config:
 584 0000 A300826A 		.word	1786904739
 585 0004 00010000 		.word	256
 586 0008 AFFBFFFF 		.word	-1105
 587 000c 44551564 		.word	1679119684
 588 0010 FFFF0000 		.word	65535
 589 0014 00770000 		.word	30464
 590 0018 04A00A00 		.word	696324
 591 001c 45A50AA8 		.word	-1475697339
 592 0020 00030000 		.word	768
 593 0024 FFAFF0FF 		.word	-1003521
 594 0028 25555555 		.word	1431655717
 595 002c FFFC0000 		.word	64767
 596 0030 00000077 		.word	1996488704
 597 0034 44005055 		.word	1431306308
 598 0038 0FA0A802 		.word	44605455
 599 003c 00020000 		.word	512
 600 0040 FFAFFBFF 		.word	-282625
 601 0044 50555151 		.word	1364284752
 602 0048 FFFF0000 		.word	65535
 603 004c 00000088 		.word	-2013265920
 604 0050 40660600 		.word	419392
 605 0054 00000000 		.word	0
 606 0058 00000000 		.word	0
 607 005c FFFFFFFF 		.word	-1
 608 0060 55555555 		.word	1431655765
 609 0064 FFFF0000 		.word	65535
 610 0068 00000000 		.word	0
 611 006c 00000000 		.word	0
 612 0070 00000000 		.word	0
 613 0074 00000000 		.word	0
 614 0078 FFFFFFFF 		.word	-1
 615 007c 45000000 		.word	69
 616 0080 FFFF0000 		.word	65535
 617 0084 00000000 		.word	0
 618 0088 00000000 		.word	0
 619 008c 00000000 		.word	0
 620 0090 00000000 		.word	0
 621 0094 FFFFFFFF 		.word	-1
 622 0098 00000000 		.word	0
 623 009c FFFF0000 		.word	65535
 624 00a0 00000000 		.word	0
 625 00a4 00000000 		.word	0
 626              		.comm	__gnu_lto_v1,1,1
 627              		.ident	"GCC: (GNU Tools for ARM Embedded Processors) 4.8.4 20140526 (release) [ARM/embedded-4_8-br
ARM GAS  /tmp/ccfVTTjR.s 			page 40


DEFINED SYMBOLS
                            *ABS*:0000000000000000 board.c
     /tmp/ccfVTTjR.s:477    .text.__early_init:0000000000000000 $t
     /tmp/ccfVTTjR.s:483    .text.__early_init:0000000000000000 __early_init
     /tmp/ccfVTTjR.s:490    .text.mmc_lld_is_card_inserted:0000000000000000 $t
     /tmp/ccfVTTjR.s:496    .text.mmc_lld_is_card_inserted:0000000000000000 mmc_lld_is_card_inserted
     /tmp/ccfVTTjR.s:504    .text.mmc_lld_is_write_protected:0000000000000000 $t
     /tmp/ccfVTTjR.s:510    .text.mmc_lld_is_write_protected:0000000000000000 mmc_lld_is_write_protected
     /tmp/ccfVTTjR.s:518    .text.boardInit:0000000000000000 $t
     /tmp/ccfVTTjR.s:524    .text.boardInit:0000000000000000 boardInit
     /tmp/ccfVTTjR.s:531    .text.boardSetBuzzer:0000000000000000 $t
     /tmp/ccfVTTjR.s:537    .text.boardSetBuzzer:0000000000000000 boardSetBuzzer
     /tmp/ccfVTTjR.s:552    .text.boardSetBuzzer:0000000000000010 $d
     /tmp/ccfVTTjR.s:555    .text.boardSetLED:0000000000000000 $t
     /tmp/ccfVTTjR.s:561    .text.boardSetLED:0000000000000000 boardSetLED
     /tmp/ccfVTTjR.s:576    .text.boardSetLED:0000000000000010 $d
     /tmp/ccfVTTjR.s:583    .rodata.pal_default_config:0000000000000000 pal_default_config
     /tmp/ccfVTTjR.s:580    .rodata.pal_default_config:0000000000000000 $d
                            *COM*:0000000000000001 __gnu_lto_v1
     /tmp/ccfVTTjR.s:554    .text.boardSetBuzzer:0000000000000014 $t
     /tmp/ccfVTTjR.s:579    .text.boardSetLED:0000000000000014 $t

UNDEFINED SYMBOLS
stm32_clock_init
