ARM GAS  /tmp/cca5Nhly.s 			page 1


   1              		.syntax unified
   2              		.cpu cortex-m4
   3              		.eabi_attribute 27, 3
   4              		.eabi_attribute 28, 1
   5              		.fpu fpv4-sp-d16
   6              		.eabi_attribute 20, 1
   7              		.eabi_attribute 21, 1
   8              		.eabi_attribute 23, 3
   9              		.eabi_attribute 24, 1
  10              		.eabi_attribute 25, 1
  11              		.eabi_attribute 26, 1
  12              		.eabi_attribute 30, 2
  13              		.eabi_attribute 34, 1
  14              		.eabi_attribute 18, 4
  15              		.thumb
  16              		.file	"board.c"
  17              		.section	.gnu.lto_.jmpfuncs.aa23bb47f2a4e842,"",%progbits
  18 0000 789C6362 		.ascii	"x\234cb`b\300\006\256Ci6 f\004\252af`f\212`\314ddh\350"
  18      6062C006 
  18      AE436936 
  18      206604AA 
  18      61666066 
  19 001b E8686061 		.ascii	"\350h`a`\000s\030\025\240\014&I\006\254\362\034X\344"
  19      60007318 
  19      15A00C26 
  19      4906ACF2 
  19      1C58E4
  20 002e 1B90E41B 		.ascii	"\033\220\344\033\230`\012\332X\020*& \253`\301\246\242"
  20      98600ADA 
  20      58102A26 
  20      20AB60C1 
  20      A6A2
  21 0040 83A0191D 		.ascii	"\203\240\031\0358\315`aded\000\000\220\266\037\367"
  21      38CD6061 
  21      64656400 
  21      0090B61F 
  21      F7
  22              		.text
  23              		.section	.gnu.lto_.inline.aa23bb47f2a4e842,"",%progbits
  24 0000 789C6362 		.ascii	"x\234cb`b\300\006\276@i6\006\006\026\036F\260\"\266"
  24      6062C006 
  24      BE406936 
  24      0606161E 
  24      46B022B6 
  25 0014 05F260B5 		.ascii	"\005\362`\265\214\\ \202\201\231\011U\230\011C\204\231"
  25      8C5C2082 
  25      81990955 
  25      98094384 
  25      99
  26 0025 41FA0203 		.ascii	"A\372\002\003\252\020\013/H\230\004\232\201\235\225"
  26      AA100B2F 
  26      4898049A 
  26      819D95
  27 0034 91992123 		.ascii	"\221\231!#\2021\223\021\304gH\207\263\030\201\230\025"
  27      82319311 
  27      C4674887 
  27      B3188198 
ARM GAS  /tmp/cca5Nhly.s 			page 2


  27      15
  28 0045 6634CB02 		.ascii	"f4\313\002y\001\006\246#\234\034\014L=l,\014`)ru2\000"
  28      790106A6 
  28      239C1C0C 
  28      4C3D6C2C 
  28      0C602972 
  29 005c 00048910 		.ascii	"\000\004\211\020\262"
  29      B2
  30              		.text
  31              		.section	.gnu.lto_.pureconst.aa23bb47f2a4e842,"",%progbits
  32 0000 789C6362 		.ascii	"x\234cb`b\340e\200\0006\006\011F \227Y\202E\212U\012"
  32      6062E065 
  32      80003606 
  32      09462097 
  32      5982458A 
  33 0016 00040600 		.ascii	"\000\004\006\000\213"
  33      8B
  34              		.text
  35              		.section	.gnu.lto___early_init.aa23bb47f2a4e842,"",%progbits
  36 0000 789C6362 		.ascii	"x\234cb`b@\007\222@\\\015\304\\@\314\310\314\300\310"
  36      60624007 
  36      92405C0D 
  36      C45C40CC 
  36      C8CCC0C8 
  37 0014 34E11C03 		.ascii	"4\341\034\003C#\007\023##\210\301\300\310P\317\304X"
  37      43230713 
  37      232388C1 
  37      C0C850CF 
  37      C458
  38 0026 1FC90856 		.ascii	"\037\311\010V\273\236\351\300\203\377\377\327m9\266"
  38      BB9EE9C0 
  38      83FFFFD7 
  38      6D39B6
  39 0035 600E2350 		.ascii	"`\016#P-\003\003+CKC\303\004\005\006\206d\260\202\020"
  39      2D03032B 
  39      434B43C3 
  39      04050686 
  39      64B08210 
  40 0049 2009D215 		.ascii	" \011\322\025\312\310\004\242\231\31734?\230\375\230"
  40      CAC804A2 
  40      99CF3334 
  40      3F98FD98 
  41 0059 2B917121 		.ascii	"+\221q!#+\330\232_\015\035\015\002\231\214@\345\020"
  41      232BD89A 
  41      5F0D1D0D 
  41      02998C40 
  41      E510
  42 006b 033341F4 		.ascii	"\0033A\364E\206\306\007s\224a\212  \004(\0014\001\344"
  42      4586C607 
  42      7394618A 
  42      20200428 
  42      013401E4 
  43 007f 5C8EA4FC 		.ascii	"\\\216\244\374\304\242\024\275d\006\000\372\352$k"
  43      C4A214BD 
  43      640600FA 
  43      EA246B
  44              		.text
ARM GAS  /tmp/cca5Nhly.s 			page 3


  45              		.section	.gnu.lto_mmc_lld_is_card_inserted.aa23bb47f2a4e842,"",%progbits
  46 0000 789C6362 		.ascii	"x\234cb`b@\007\222@\034\005\304\\@\314\310\314\300\310"
  46      60624007 
  46      92401C05 
  46      C45C40CC 
  46      C8CCC0C8 
  47 0014 34E11C03 		.ascii	"4\341\034\003C#\007\023##\210\301\300\310P\317\304X"
  47      43230713 
  47      232388C1 
  47      C0C850CF 
  47      C458
  48 0026 1FC90856 		.ascii	"\037\311\010V\273\236\351\300\203\377\377\327m8\276"
  48      BB9EE9C0 
  48      83FFFFD7 
  48      6D38BE
  49 0035 E00E2323 		.ascii	"\340\016##\310(V\206\226\206\206\011\012\014\014\311"
  49      C8285686 
  49      96868609 
  49      0A0C0CC9 
  50 0045 60052140 		.ascii	"`\005!@\022\244+\024(\011\244\231/24>\270\235\234\310"
  50      12A42B14 
  50      2809A499 
  50      2F32343E 
  50      B89D9CC8 
  51 0059 B8909195 		.ascii	"\270\220\221\225!\2021\223\221\201\021ji\010##H\001"
  51      21823193 
  51      9181116A 
  51      69082323 
  51      4801
  52 006b C8088EA4 		.ascii	"\310\010\216\244\374\304\242\024\275d\006\000q\224\034"
  52      FCC4A214 
  52      BD640600 
  52      71941C
  53 007a BF       		.ascii	"\277"
  54              		.text
  55              		.section	.gnu.lto_mmc_lld_is_write_protected.aa23bb47f2a4e842,"",%progbits
  56 0000 789C6362 		.ascii	"x\234cb`b@\007\222@\034\005\304\\@\314\310\314\300\310"
  56      60624007 
  56      92401C05 
  56      C45C40CC 
  56      C8CCC0C8 
  57 0014 34E11C03 		.ascii	"4\341\034\003C#\007\023##\210\301\300\310P\317\304X"
  57      43230713 
  57      232388C1 
  57      C0C850CF 
  57      C458
  58 0026 1FC90856 		.ascii	"\037\311\010V\273\236\351\300\203\377\377\327]:\276"
  58      BB9EE9C0 
  58      83FFFFD7 
  58      5D3ABE
  59 0035 E00D2323 		.ascii	"\340\015##\310(V\206\226\206\206\011\012\014\014\311"
  59      C8285686 
  59      96868609 
  59      0A0C0CC9 
  60 0045 60052140 		.ascii	"`\005!@\022\244+\024(\011\244\231/24>x\235\234\310\270"
  60      12A42B14 
  60      2809A499 
ARM GAS  /tmp/cca5Nhly.s 			page 4


  60      2F32343E 
  60      789D9CC8 
  61 005a 90919521 		.ascii	"\220\221\225!\2021\223\021ni\010##H\001\310\010\216"
  61      82319311 
  61      6E690823 
  61      234801C8 
  61      088E
  62 006c A4FCC4A2 		.ascii	"\244\374\304\242\024\275d\006\000\204\244\035\000"
  62      14BD6406 
  62      0084A41D 
  62      00
  63              		.text
  64              		.section	.gnu.lto_boardInit.aa23bb47f2a4e842,"",%progbits
  65 0000 789C6362 		.ascii	"x\234cb`b@\007\222@|\211\221\201\201\013H32302M8\307"
  65      60624007 
  65      92407C89 
  65      9181810B 
  65      48333233 
  66 0019 C0D0C8C1 		.ascii	"\300\320\310\301\304\310\010b002\32431\326G2\202\325"
  66      C4C80862 
  66      303032D4 
  66      3331D647 
  66      3282D5
  67 002c AE673AF0 		.ascii	"\256g:\360\340\377\377u\337\216/\330\303\310\304\001"
  67      E0FFFF75 
  67      DF8E2FD8 
  67      C3C8C401 
  68 003c 14606568 		.ascii	"\024`ehih\230\240\300\300\220\014V\020\002$A\272B\031"
  68      696898A0 
  68      C0C0900C 
  68      56100224 
  68      41BA4219 
  69 0050 994034F3 		.ascii	"\231@4\363y\206\266\007\375K\031\023\031\0272\262\002"
  69      7986B607 
  69      FD4B1913 
  69      191732B2 
  69      02
  70 0061 A5AB197E 		.ascii	"\245\253\031~5t4\010d2\002\225C\014\214`\314ddl\350"
  70      35743408 
  70      64320295 
  70      430C8C60 
  70      CC64646C 
  71 0076 E8686001 		.ascii	"\350h`\0013\231\2404s\033\013C&#\013\003\003\320\200"
  71      3399A034 
  71      731B0B43 
  71      26230B03 
  71      03D080
  72 0089 05335849 		.ascii	"\0053XI\320\317\204\251\177&A\375\023\360\332?\213\240"
  72      D0CF84A9 
  72      7F2641FD 
  72      13F0DA3F 
  72      8BA0
  73 009b FE06BCF6 		.ascii	"\376\006\274\366\317%\301\375\034\020\355\222\010\335"
  73      CF25C1FD 
  73      1C10ED92 
  73      08DD
  74 00a9 2B48D0AD 		.ascii	"+H\320\255\200\242\373\"C\343\203=\2520\335\020\020"
ARM GAS  /tmp/cca5Nhly.s 			page 5


  74      80A2FB22 
  74      43E3833D 
  74      AA30DD10 
  74      10
  75 00ba 02D4098C 		.ascii	"\002\324\011\214\030P*\340H\312O,J\321Kf\000\000\334"
  75      18502AE0 
  75      48CA4F2C 
  75      4AD14B66 
  75      0000DC
  76 00cd 7C6B72   		.ascii	"|kr"
  77              		.text
  78              		.section	.gnu.lto_boardSetBuzzer.aa23bb47f2a4e842,"",%progbits
  79 0000 789CAD50 		.ascii	"x\234\255P1j\002A\024}\357\317\314\262\210g\2204V\001"
  79      316A0241 
  79      147DEFCF 
  79      CCB28867 
  79      90345601 
  80 0014 BD80C750 		.ascii	"\275\200\307P\320\322U\010)D\310\005\034a\213--\004"
  80      D0D25508 
  80      2944C805 
  80      1C618B2D 
  80      2D04
  81 0026 411BD3A6 		.ascii	"A\033\323\246H\2124),\222T\202$\"x\000\017\220;\350"
  81      488A3429 
  81      2C925482 
  81      24227800 
  81      0F903BE8 
  82 003a CCAC2B24 		.ascii	"\314\254+$\244\364\303\314{\363\347\377\367>_ \370\033"
  82      A4F4C3CC 
  82      7BF3E7FF 
  82      F73E5F20 
  82      F81B
  83 004c 0D77FA04 		.ascii	"\015w\372\004J\016\031\2012\371\006\306\261\210ZU`K"
  83      4A0E1981 
  83      32F906C6 
  83      B1885A55 
  83      604B
  84 005e 7A5F872D 		.ascii	"z_\207-+\232<\255\013bHO@\214Di\303Q\207A\356E\336\017"
  84      2B9A3CAD 
  84      0B62484F 
  84      408C4469 
  84      C3518741 
  85 0076 C7E3F374 		.ascii	"\307\343\363t\263\334R\"\341 \244\015Rk'7@/<\233\356"
  85      B3DC5222 
  85      E120A40D 
  85      526B2737 
  85      402F3C9B 
  86 008b F6DD2D8A 		.ascii	"\366\335-\212G\265F\372\3631\333H\227\2174\270\243\264"
  86      47B546FA 
  86      F331DB48 
  86      978F34B8 
  86      A3B4
  87 009d 79CF5F53 		.ascii	"y\317_S\266\250\260\252\250/|\276e\257\314\353n\361"
  87      B6A8B0AA 
  87      A82F7CBE 
  87      65AFCCEB 
  87      6EF1
ARM GAS  /tmp/cca5Nhly.s 			page 6


  88 00af 645357C8 		.ascii	"dSW\310\202HA\324\002s\007\332\313\030\233eV#\320 \225"
  88      824841D4 
  88      027307DA 
  88      CB189B65 
  88      5623D020 
  89 00c4 9C9513F2 		.ascii	"\234\225\023\362\214\371R|E\024_\3744\366\365\340\267"
  89      8CF9527C 
  89      45145FFC 
  89      34F6F5E0 
  89      B7
  90 00d5 BEBA9FFA 		.ascii	"\276\272\237\372\317\317\204M\3540>l\253\271_\021M\327"
  90      CFCF844D 
  90      EC303E6C 
  90      ABB95F11 
  90      4DD7
  91 00e7 E8FEFC94 		.ascii	"\350\376\374\224q2\354>\364k=\234\000\304\015S\215"
  91      7132EC3E 
  91      F46B3D9C 
  91      00C40D53 
  91      8D
  92              		.text
  93              		.section	.gnu.lto_boardSetLED.aa23bb47f2a4e842,"",%progbits
  94 0000 789CAD50 		.ascii	"x\234\255P\301JBA\024=\347\336\231\207H\337 nZ\005\371"
  94      C14A4241 
  94      143DE7DE 
  94      998748DF 
  94      206E5A05 
  95 0015 037E8642 		.ascii	"\003~\206B-}&\341\"\202~\300\021\336\302\245\353\332"
  95      2D7D26E1 
  95      22827EC0 
  95      11DEC2A5 
  95      EBDA
  96 0027 D42E5AD4 		.ascii	"\324.Z\324\262\020\005sU\210A\340\007\270\226>\300\235"
  96      B2100573 
  96      558841E0 
  96      07B8963E 
  96      C09D
  97 0039 CECCF305 		.ascii	"\316\314\363\005E\313.\314\2343w\356=\347r\005\202\337"
  97      45CB2ECC 
  97      9C3377EE 
  97      3DE77205 
  97      82DF
  98 004b 51F7A743 		.ascii	"Q\367\247C\240\354\221\011(\303\017\240_\022\321q\005"
  98      A0EC9109 
  98      28C30FA0 
  98      5F12D171 
  98      05
  99 005c AE6C9635 		.ascii	"\256l\2265\270\003\245\315\323\246 \226\014\004DO\324"
  99      B803A5CD 
  99      D3A62096 
  99      0C04444F 
  99      D4
 100 006d 58F64E19 		.ascii	"X\366N\031\345\236d\272\332n\037G\363\3335%\021^\304"
 100      E59E64BA 
 100      DA6E1F47 
 100      F3DB3525 
 100      115EC4
ARM GAS  /tmp/cca5Nhly.s 			page 7


 101 0080 B445E6DC 		.ascii	"\264E\346\334\260\012\264\343\263\341\357\320\335\244"
 101      B00AB4E3 
 101      B3E1EFD0 
 101      DDA4
 102 008e 04D43764 		.ascii	"\004\3247d_\257\223\271\266xG\213s\312\011\273\3741"
 102      5FAF93B9 
 102      B678478B 
 102      73CA09BB 
 102      FC31
 103 00a0 65938A71 		.ascii	"e\223\212qE\027\230\275l\236\337\231\027\036\341\301"
 103      451798BD 
 103      6C9EDF99 
 103      171EE1C1 
 104 00b0 65BE9205 		.ascii	"e\276\222\005\221\202\350\015\256=\230\240c\335`\340"
 104      9182E80D 
 104      AE3D98A0 
 104      63DD60E0 
 105 00c0 0C228D5A 		.ascii	"\014\"\215Z\351^:%\367\230o%T$\325oC\203e-\032\336\217"
 105      E95E3A25 
 105      F7986F25 
 105      5424D56F 
 105      4383652D 
 106 00d7 FEDB4FFF 		.ascii	"\376\333O\377\362\263q\025\237\350\257\326\207\271_"
 106      F2B37115 
 106      9FE8AFD6 
 106      87B95F
 107 00e6 110DDFE8 		.ascii	"\021\015\337\350\377\302\224\245\364\262uuv\334\306"
 107      FFC294A5 
 107      F4B27575 
 107      76DCC6
 108 00f5 0EC02455 		.ascii	"\016\300$Ue"
 108      65
 109              		.text
 110              		.section	.gnu.lto_.symbol_nodes.aa23bb47f2a4e842,"",%progbits
 111 0000 789C4DC9 		.ascii	"x\234M\311\301\021\202@\020D\321\236\036V\314\272WV"
 111      C1118240 
 111      1044D19E 
 111      1E56CCBA 
 111      5756
 112 0012 C1231170 		.ascii	"\301#\021p1\010\003\340N\014Z\344\241P\345\272\354\\"
 112      310803E0 
 112      4E0C5AE4 
 112      A150E5BA 
 112      EC5C
 113 0024 7EBD6982 		.ascii	"~\275i\202x\"\037#\005\214\013 Mw\343\205\262\212\035"
 113      78221F23 
 113      058C0B20 
 113      4D77E385 
 113      B28A1D
 114 0037 C58A89F2 		.ascii	"\305\212\211\362\212W\252\251x\243\302\301\3605\004"
 114      8A57AAA9 
 114      78A3C2C1 
 114      F03504
 115 0046 C17AEAF4 		.ascii	"\301z\352\364\373\306h6Pm\221\243Ez}\314\375\\\372\310"
 115      FBC66836 
 115      506D91A3 
 115      457A7DCC 
ARM GAS  /tmp/cca5Nhly.s 			page 8


 115      FD5CFAC8 
 116 005a 9D73D7FF 		.ascii	"\235s\327\377\376\316\373^l\275\0327O"
 116      FECEFB5E 
 116      6CBD1A37 
 116      4F
 117              		.text
 118              		.section	.gnu.lto_.refs.aa23bb47f2a4e842,"",%progbits
 119 0000 789C6362 		.ascii	"x\234cb`b`d\200\002\000\000F\000\006"
 119      60626064 
 119      80020000 
 119      460006
 120              		.text
 121              		.section	.gnu.lto_.decls.aa23bb47f2a4e842,"",%progbits
 122 0000 789CBD5C 		.ascii	"x\234\275\\\011t\023G\232\356n\035\266\261\303\225c"
 122      09741347 
 122      9AEE6E1D 
 122      B6B1C395 
 122      63
 123 0011 219BB7D1 		.ascii	"!\233\267\321\354K\366e3\011\306\300$df7\034\266\023"
 123      EC4BF665 
 123      3309C6C0 
 123      24646637 
 123      1CB613
 124 0024 78C3E127 		.ascii	"x\303\341'\223\231d\337\276\2474R\033kb[\032I\006\223"
 124      939964DF 
 124      BEA73452 
 124      1B6B625B 
 124      1A490693 
 125 0038 DDF7A6B1 		.ascii	"\335\367\246\261\301\020s\204\030s\20317a\002!\034\001"
 125      C1107384 
 125      18738331 
 125      37610221 
 125      1C01
 126 004a 730AC26D 		.ascii	"s\012\302m\306\330\001\007\210\003\326\220!\201\204"
 126      C6D80107 
 126      8803D690 
 126      218184
 127 0059 0039B803 		.ascii	"\0009\270\003\336\252\277\273\245\352v\267T-\362V\357"
 127      DEAABFBB 
 127      A5EA76B7 
 127      542DF256 
 127      EF
 128 006a F5AF52A9 		.ascii	"\365\257R\251\372\253\257\376\372\353\377\253\252\017"
 128      FAABAFFE 
 128      FAEBFFAB 
 128      AA0F
 129 0078 8EE1989D 		.ascii	"\216\341\230\235,\303\264\243\317c\377\3050\201N\014"
 129      2CC3B4A3 
 129      CF63FFC5 
 129      30814E0C 
 130 0088 93C230CC 		.ascii	"\223\3020\314\313\350\260\242c)#\375>\215\216VF\372"
 130      CBE8B0A2 
 130      632923FD 
 130      3E8D8E56 
 130      46FA
 131 009a A4A2E31C 		.ascii	"\244\242\343\034:\316\243\243\222c\230*tLGG\015:\346"
 131      3ACEA3A3 
ARM GAS  /tmp/cca5Nhly.s 			page 9


 131      9263982A 
 131      744C4747 
 131      0D3AE6
 132 00ad A163013A 		.ascii	"\241c\001:\020$\263\234cT\037|\016\316\372\024\2116"
 132      1024B39C 
 132      63541F7C 
 132      0ECEFA14 
 132      8936
 133 00bf 398F93F3 		.ascii	"9\217\223\363\347i\31222>K\324\313\312y\332O%\327\261"
 133      E769CA32 
 133      323E4BD4 
 133      CBCA79DA 
 133      4F25D7B1 
 134 00d3 5CA50E1E 		.ascii	"\\\245\016\036\346iC\337'8u\273\026r1.U2\177\355\007"
 134      E66943DF 
 134      273875BB 
 134      1672312E 
 134      55327FED 
 135 00e8 B72F45AE 		.ascii	"\267/E\256\343$J\267\240c'J/\223uda$}\355@\307^t\354"
 135      E3244AB7 
 135      A063274A 
 135      2F937564 
 135      61247DED 
 136 0101 47C73199 		.ascii	"G\3071\231\313t\231\337{\032\334\232\007\300\254\221"
 136      CB7499DF 
 136      7B1ADC9A 
 136      07C0AC91 
 137 0111 31E76830 		.ascii	"1\347h0\323\231*Q,\027\353*\305!\207;wg\336\023\321"
 137      D3992A51 
 137      2C17EB2A 
 137      C521873B 
 137      7767DE13 
 138 0126 C771B833 		.ascii	"\307q\2703\303\274\316\362l\3474&\302A*#\215y\016\225"
 138      C3BCCEF2 
 138      6CE73426 
 138      C2412A23 
 138      8D790E95 
 139 013a 7E9A5921 		.ascii	"~\232Y!\2123#\223\366\364\024\255<\273\214\355\216t"
 139      8A332393 
 139      F6F414AD 
 139      3CBB8CED 
 139      8E74
 140 014c 3084659E 		.ascii	"0\204e\236e\336G\247\315\024\305e\277fu\364\235\020"
 140      65DE47A7 
 140      CD14C565 
 140      BF6675F4 
 140      9D10
 141 015e 96617876 		.ascii	"\226axv\025\002\343\331\225\354\263R%bxSC\006\256\004"
 141      1502E3D9 
 141      95ECB352 
 141      25627853 
 141      4306AE04 
 142 0172 E733F23F 		.ascii	"\3473\362?:\237_1u\342\304\212\360\326\206E=\305\272"
 142      3A9F5F31 
 142      75E2C48A 
 142      F0D68645 
 142      3DC5BA
ARM GAS  /tmp/cca5Nhly.s 			page 10


 143 0185 7D6C1A33 		.ascii	"}l\0323E\024+\344\346Dks(\225Ycm\270]y`/[.\212\322)"
 143      45142BE4 
 143      E6446B73 
 143      28955963 
 143      6DB85D79 
 144 01a0 E5714FE1 		.ascii	"\345qO\341\331\265\354\323H\246\244E\211\340\177\321"
 144      D9B5ECD3 
 144      48A6A445 
 144      89E07FD1 
 145 01b0 CF68028F 		.ascii	"\317h\002\217\207.\330$&\260\254\212-\005\274\314hK"
 145      872ED824 
 145      26B0AC8A 
 145      2D05BCCC 
 145      684B
 146 01c2 D5CE9744 		.ascii	"\325\316\227D1\225g\327!N\034\263G\003$\327\027\375"
 146      319567D7 
 146      214E1CB3 
 146      470324D7 
 146      17FD
 147 01d4 D0D03159 		.ascii	"\320\3201Y\234c\216B\245X\347zD\345\244\364\221\013"
 147      9C638E42 
 147      A558E77A 
 147      44E5A4F4 
 147      910B
 148 01e6 A8FA2132 		.ascii	"\250\372!2q\353\021V\254\316\340\331\367\241\015M\246"
 148      71EB1156 
 148      ACCEE0D9 
 148      F7A10D4D 
 148      A6
 149 01f7 E11CAA6E 		.ascii	"\341\034\252n\335\336\2201\223W\300N\321\200\245\032"
 149      DDDE9031 
 149      9357C04E 
 149      D180A51A 
 150 0207 720BEF24 		.ascii	"r\013\357$\301\332L\203\251\231\355&\301.\320\200u5"
 150      C1DA4C83 
 150      A999ED26 
 150      C12ED080 
 150      7535
 151 0219 66D64482 		.ascii	"f\326D\202]2\015F2\233\020nk8\212\273\340a\246Z\024"
 151      5D320D46 
 151      329B106E 
 151      6B388ABB 
 151      E061A65A 
 152 022e 27887576 		.ascii	"'\210uv#\253c\030(\"\306-\302\263\273\330\207\325\343"
 152      23AB6318 
 152      2822C62D 
 152      C2B3BBD8 
 152      87D5E3
 153 0241 F2C4D4CE 		.ascii	"\362\304\324\316x\\\342\374\004\343R,\017\267\310\343"
 153      785CE2FC 
 153      04E3522C 
 153      0FB7C8E3 
 154 0251 9267FF0A 		.ascii	"\222g\377\012\215\373\016\032\207\317M\302\276P\345"
 154      8DFB0E1A 
 154      87CF4DC2 
 154      BE50E5
 155 0260 671BD2C5 		.ascii	"g\033\322\305\252\014\331\241\324\015\\\023\207\370"
ARM GAS  /tmp/cca5Nhly.s 			page 11


 155      AA0CD9A1 
 155      D40D5C13 
 155      87F8
 156 026e 3EAD4339 		.ascii	">\255C9\325\3009\244\354\304\274\3174,\352!\326\355"
 156      D5C039A4 
 156      ECC4BCCF 
 156      342CEA21 
 156      D6ED
 157 0280 559C8358 		.ascii	"U\234\203X)>C\324\325U\251\013;\323\250?\331\372\034"
 157      293E43D4 
 157      D555A90B 
 157      3BD3A83F 
 157      D9FA1C
 158 0293 8CDE03D0 		.ascii	"\214\336\003\320\320\253\372n\200\002hK\325j\311\015"
 158      D0ABFA6E 
 158      8002684B 
 158      D56AC90D 
 159 02a3 1C06A05B 		.ascii	"\034\006\240[\035\334\200E\343\006,\352qmI\213%\332"
 159      1DDC8045 
 159      E3062CEA 
 159      716D498B 
 159      25DA
 160 02b5 DB2D8CB9 		.ascii	"\333-\214\271\302\034S\301\261\262\366\364H&\352\242"
 160      C21C53C1 
 160      B1B2F6F4 
 160      4826EAA2 
 161 02c5 F2C88A1D 		.ascii	"\362\310\212\035{Y\324G\212\"&\233\206\353\252\351\022"
 161      7B59D447 
 161      8A22269B 
 161      86EBAAE9 
 161      12
 162 02d6 0E05C424 		.ascii	"\016\005\304$\255\206h\270\324f\236\335\303\376\012"
 162      AD8668B8 
 162      D4669EDD 
 162      C3FE0A
 163 02e5 C9BD4812 		.ascii	"\311\275H\022\025\274\313Q\214\271\036\006mF\003\370"
 163      15BCCB51 
 163      8CB91E06 
 163      6D4603F8 
 164 02f5 1A39806B 		.ascii	"\0329\200kL\2039T`?\220`\363i\300\034\306\314~\"\301"
 164      4C833954 
 164      603F9060 
 164      F369C01C 
 164      C6CC7E22 
 165 030a 6A4D83A9 		.ascii	"jM\203\251\231\335 \301\226\323\200=\023\257ST\375\023"
 165      99DD20C1 
 165      96D3803D 
 165      13AF5354 
 165      FD13
 166 031c 8BFF3CBB 		.ascii	"\213\377<\273\032\242\355\032\350\251\217@n\002\271"
 166      1AA2ED1A 
 166      E8A98F40 
 166      6E02B9
 167 032b 05E45690 		.ascii	"\005\344V\220\365 w\200l\002\371)\310\223 ?#\373\327"
 167      F5207780 
 167      6C02F929 
 167      C893203F 
ARM GAS  /tmp/cca5Nhly.s 			page 12


 167      23FBD7
 168 033e C8432C65 		.ascii	"\310C,e\323\311\241E\035\251\303\247\252\037\305.\360"
 168      D3C9A145 
 168      1DA9C3A7 
 168      AA1FC52E 
 168      F0
 169 034f 34E86135 		.ascii	"4\350a5\247\035\240\330\325\251\332\2268\362\2462\223"
 169      A71DA0D8 
 169      D5A9DA96 
 169      38F2A632 
 169      93
 170 0360 71DD9149 		.ascii	"q\335\221I\342\004\366\317\321\272S\225\272Y\245n<\311"
 170      E204F6CF 
 170      D1BA5395 
 170      BA59A56E 
 170      3CC9
 171 0372 E278B695 		.ascii	"\342x\266\225ME5o\340\364f[P#.\2404]J+)t\312\223L\255"
 171      4D45356F 
 171      E0F4665B 
 171      50232EA0 
 171      345D4A2B 
 172 038c 5817899C 		.ascii	"X\027\211\234=q\214\237/\206'\212\355\355\177a\036c"
 172      3D718C9F 
 172      2F86278A 
 172      EDED7F61 
 172      1E63
 173 039e 66834BAD 		.ascii	"f\203K\255D3\242\020\317\276\374\250\241\326\332\330"
 173      4433A210 
 173      CFBEFCA8 
 173      A1D6DAD8 
 174 03ae C7E4D46B 		.ascii	"\307\344\324k\262sAs\025\215\016\030\346\337\230\225"
 174      B2734173 
 174      158D0E18 
 174      E6DF9895 
 175 03be 184F5C23 		.ascii	"\030O\\#Z\000\015\227?\307>\251f\031aU\263Q\314kC$\\"
 175      5A000D97 
 175      3FC73EA9 
 175      66196155 
 175      B351CC6B 
 176 03d5 7B2863E6 		.ascii	"{(c\346\204H{\373\223\032N\230\275\021\251/eR\026\360"
 176      84487BFB 
 176      931A4E98 
 176      BD11A92F 
 176      655216F0 
 177 03e9 2A0967B5 		.ascii	"*\011g\265u\026\005\240_\264W#\365s\366\367\001\307"
 177      751605A0 
 177      5FB45723 
 177      F573F6F7 
 177      01C7
 178 03fb FB15CC6B 		.ascii	"\373\025\314k+,\3526%\204\301<.i\203N\313!\230\305^"
 178      2B2CEA36 
 178      2584C13C 
 178      2E69834E 
 178      CB2198C5 
 179 0410 A28A3A67 		.ascii	"\242\212:g'/\201h\251G\037\025`\211\252E\216\034\257"
 179      272F8168 
 179      A9471F15 
ARM GAS  /tmp/cca5Nhly.s 			page 13


 179      6089AA45 
 179      8E1CAF
 180 0423 C84522B6 		.ascii	"\310E\"\266:\014\325\305x\366\012\3228\317^\3550\327"
 180      3A0CD5C5 
 180      78F60AD2 
 180      38CF5EED 
 180      30D7
 181 0435 9E0C2CAF 		.ascii	"\236\014,\257R\261\334r\010\346x*\222&\272\352GuW\361"
 181      52B1DC72 
 181      08E6782A 
 181      9226BAEA 
 181      477557F1 
 182 0449 EC8074C2 		.ascii	"\354\200t\302\226\030\343\341\372\003\322\013\243X\334"
 182      9618E3E1 
 182      FA03D20B 
 182      A358DC
 183 0458 02E89DAB 		.ascii	"\002\350\235\253\311MT\021\355\215\242\230f\22709f\225"
 183      C94D5411 
 183      ED8DA298 
 183      66973039 
 183      6695
 184 046a 69308731 		.ascii	"i0\2071\330&\0320\243i\252\026l\207i0\035f\311\366\324"
 184      D8261A30 
 184      A369AA16 
 184      6C876930 
 184      1D66C9F6 
 185 047f 7D9D9E8A 		.ascii	"}\235\236\212\246e'\2477\340dG\032Y)\366\230\3279\216"
 185      A66527A7 
 185      37E06447 
 185      1A5929F6 
 185      98D7398E 
 186 0493 33C393A6 		.ascii	"3\303\223\246u\277\206!W\301aWz\320\242;i\242\000\332"
 186      75BF8621 
 186      57C16157 
 186      7AD0A23B 
 186      69A200DA 
 187 04a7 5255DB1F 		.ascii	"RU\333\037\200*\001\250\321\242\365\311Z\227\314\252"
 187      802A01A8 
 187      D1A2F5C9 
 187      5A97CCAA 
 188 04b7 5D329B16 		.ascii	"]2\233\026K\264\253\275j\302\262F\352+\347\322\011\030"
 188      4BB4ABBD 
 188      6AC2B246 
 188      EA2BE7D2 
 188      0918
 189 04c9 ADE2A84C 		.ascii	"\255\342\250L\376\036i\362\247il\301h\225\201&f\365"
 189      FE1E69F2 
 189      A7696CC1 
 189      68958126 
 189      66F5
 190 04db 73BECBC2 		.ascii	"s\276\313\302\376\336\222\254=L\347\036\320\036\302"
 190      FEDE92AC 
 190      3D4CE71E 
 190      D01EC2
 191 04ea 86DDC8B3 		.ascii	"\206\335\310\263\023\271\247\223W\365{\017\256\352i"
 191      13B9A793 
 191      57F57B0F 
ARM GAS  /tmp/cca5Nhly.s 			page 14


 191      AEEA69
 192 04f9 1CA1EAB3 		.ascii	"\034\241\352\263\246U\355 U\255\036\303_\322\200\031"
 192      A655ED20 
 192      55AD1EC3 
 192      5FD28019 
 193 0509 4D2E1F74 		.ascii	"M.\037t\014\3177\3563\335(3\220\010\036\003I\007#\017"
 193      0CCF37EE 
 193      33DD2833 
 193      90081E03 
 193      4907230F 
 194 051d B40D4B06 		.ascii	"\264\015K\006\340H\261\230\303!r\271U7D\032\203`\002"
 194      E048B198 
 194      C32172B9 
 194      5537441A 
 194      836002
 195 0530 759C26F8 		.ascii	"u\234&\370\334\024\034Rn\342\320s{\245\274\275 \255"
 195      DC141C52 
 195      6EE2D073 
 195      7BA5BCBD 
 195      20AD
 196 0542 263741FD 		.ascii	"&7A\375\370\324\244\202@\370\216p\270\267\202\265\323"
 196      F8D4A482 
 196      40F88E70 
 196      B8B782B5 
 196      D3
 197 0553 3496438F 		.ascii	"4\226C\217(\323\241\225h\236\011\246\275\214\303\023"
 197      28D3A195 
 197      689E09A6 
 197      BD8CC313 
 198 0563 D3151CC5 		.ascii	"\323\025\034\305\304t\221\312\234\251\314w\036i\276"
 198      C47491CA 
 198      9CA9CC77 
 198      1E69BE
 199 0572 FBAD662D 		.ascii	"\373\255f-N\333\226\330z\351{\230O\337\000y\013\344"
 199      4EDB96D8 
 199      7AE97B98 
 199      4FDF0079 
 199      0BE4
 200 0584 1D903F83 		.ascii	"\035\220?\203\234\012\215\232\015r.M\323.\223\036\355"
 200      9C0A8D9A 
 200      0D722E4D 
 200      D32E931E 
 200      ED
 201 0595 6FC0F352 		.ascii	"o\300\363R\262A<R\377\331\315\254\271bx\202%\205\251"
 201      B2413C52 
 201      FFD9CDAC 
 201      B9627882 
 201      2585A9
 202 05a8 94A6CFE5 		.ascii	"\224\246\317\345\211\002\305\206%/b\373}\237KA\3657"
 202      8902C586 
 202      252F62FB 
 202      7D9F4B41 
 202      F537
 203 05ba 6BEC9702 		.ascii	"k\354\227\002\006\267\341\003t\262\312\202\353\307;"
 203      06B7E103 
 203      74B2CA82 
 203      EBC73B
ARM GAS  /tmp/cca5Nhly.s 			page 15


 204 05c9 A4DC3816 		.ascii	"\244\3348\026\014\203\216c\276@Ub8kZ,\357\353X\036K"
 204      0C838E63 
 204      BE405562 
 204      386B5A2C 
 204      EFEB581E 
 205 05de 14BD16CB 		.ascii	"\024\275\026\313\346\210\354\273\261l\013\221]e\213"
 205      E688ECBB 
 205      B16C0B91 
 205      5D658B
 206 05ed 665B89EC 		.ascii	"f[\211\354E\261l\033\221\275*\226m'\2627\306\262S\210"
 206      45B16C1B 
 206      91BD2A96 
 206      6D27B237 
 206      C6B25388 
 207 0601 ECDDB1EC 		.ascii	"\354\335\261\354T\242?\342\006\315\230\222xv\035\014"
 207      54A23FE2 
 207      06CD9892 
 207      78761D0C 
 208 0611 80F59C45 		.ascii	"\200\365\234E\3674\2169j\323\330\201J\345\211\346_\""
 208      F7348E39 
 208      6AD3D881 
 208      4AE589E6 
 208      5F22
 209 0623 D8C1041C 		.ascii	"\330\301\004\034\331\27213\345\031\2604\254\225Y0\253"
 209      D9BA3133 
 209      E519B034 
 209      AC955930 
 209      AB
 210 0634 F6D93CBB 		.ascii	"\366\331<\273\217\353\006)\010M\242\354\003\241\204"
 210      8FEB0629 
 210      084DA2EC 
 210      03A184
 211 0643 91E17EC2 		.ascii	"\221\341~\302\245E\011d\244\305\022\312\320\344\230"
 211      A5450964 
 211      A4C512CA 
 211      D0E498
 212 0652 266D2BD4 		.ascii	"&m+\324\325&\232\371\301\366\020\216\032\230\033\307"
 212      D5269AF9 
 212      C1F6108E 
 212      1A981BC7 
 213 0662 9CA4424B 		.ascii	"\234\244BK\0246\024\357vZ\213F\273X\227=\345\315\311"
 213      143614EF 
 213      765A8B46 
 213      BB58973D 
 213      E5CDC9
 214 0675 8B695726 		.ascii	"\213iW&o*p\031\321Q\027\276}\220u\350\254NTEy\366\030"
 214      6F2A7019 
 214      D15117BE 
 214      7D9075E8 
 214      AC4E5445 
 215 068c 329344A5 		.ascii	"2\223D\245p\271Fm\004\331s\020\226/\215T1\344T\245q"
 215      70B9466D 
 215      04D97310 
 215      962F8D54 
 215      31E454A5 
 216 06a1 53544BA7 		.ascii	"STK\247\350\342\256w\264!\221\352\253\327\376\004\363"
 216      E8E2AE77 
ARM GAS  /tmp/cca5Nhly.s 			page 16


 216      B42191EA 
 216      ABD7FE04 
 216      F3
 217 06b2 CC4F2100 		.ascii	"\314O!\000\256\262'\\#\252ax\366$\207W`-\332&\\_\010"
 217      AEB2275C 
 217      23AA6178 
 217      F6248757 
 217      602DDA26 
 218 06c9 4D68A16A 		.ascii	"Mh\241j\302\275\326\332\177\022#a\226\336\3555\377\030"
 218      C2BDD6DA 
 218      7F122361 
 218      96DEED35 
 218      FF18
 219 06db 7EBC02F5 		.ascii	"~\274\002\365\023\317\236\006\317\367\245=)\317\327"
 219      13CF9E06 
 219      CFF7A53D 
 219      29CFD7
 220 06ea AAF57C5B 		.ascii	"\252\365|[*\273`\332\255T\276\357\212\275\243\357\273"
 220      2ABB60DA 
 220      AD54BEEF 
 220      8ABDA3EF 
 220      BB
 221 06fb 6DD7F57D 		.ascii	"m\327\365}\345)\272\276oZ\212\256\357\233\233\242\366"
 221      E529BABE 
 221      6F5A8AAE 
 221      EF9B9BA2 
 221      F6
 222 070c 7D0C857F 		.ascii	"}\014\205\177j%\374\323\027\340\237\316\032\370'\236"
 222      6A25FCD3 
 222      17E09FCE 
 222      1AF8279E 
 223 071c 0D47FB8C 		.ascii	"\015G\373\214\326?\251\372+2\353jS\331n4\036\337\261"
 223      D63FA9FA 
 223      2B32EB6A 
 223      53D96E34 
 223      1EDFB1
 224 072f 27397E5A 		.ascii	"'9~Z[i\306\3177\224\343\347\262\326\370\346\266\202"
 224      5B69C6CF 
 224      3794E3E7 
 224      B2D6F8E6 
 224      B682
 225 0741 F15DA632 		.ascii	"\361]\2462\276%\255\265\035\307\017\375\366\3215\355"
 225      BE25ADB5 
 225      1DC70FFD 
 225      F6D135ED 
 226 0751 84B499A3 		.ascii	"\204\264\231\243X\377\313z\270\267\340\021\330\247\340"
 226      58FFCB7A 
 226      B8B7E011 
 226      D8A7E0
 227 0760 F0BC7A45 		.ascii	"\360\274zE\212\332\206U\204\244\212\214H\374\304\245"
 227      8ADA8655 
 227      84A48A8C 
 227      48FCC4A5 
 228 0770 1BB4B3C3 		.ascii	"\033\264\263\303\177((B=\227\223\236e\326\353)L\272"
 228      7F282842 
 228      3D97939E 
 228      65D6EB29 
ARM GAS  /tmp/cca5Nhly.s 			page 17


 228      4CBA
 229 0782 7A6ADCD4 		.ascii	"zj\334\324\310\205\365\373,\340inBc\353S\264+\332\245"
 229      C885F5FB 
 229      2CE0696E 
 229      4263EB53 
 229      B42BDAA5 
 230 0796 6CBA9AB8 		.ascii	"l\272\232\270f;\023M\003M\023wh\3146\\\262k\203(N\262"
 230      663B134D 
 230      034D1377 
 230      68CC365C 
 230      B26B8328 
 231 07ac 2B9BF90D 		.ascii	"+\233\371\015ZD\275\315|\343\275\215\360\351\205\031"
 231      5A44BDCD 
 231      7CE3BD8D 
 231      F0E98519 
 232 07bc 4D6F2A60 		.ascii	"Mo*`\315\246\301\264W\006\224\361\373\035\214\337+0"
 232      CDA6C1B4 
 232      570694F1 
 232      FB1D8CDF 
 232      2B30
 233 07ce 0BBD     		.ascii	"\013\275"
 234 07d0 01F22EC8 		.ascii	"\001\362.\310{\344\214\224cZ:\350P\262x\002/64\230\304"
 234      7BE48C94 
 234      635A3AE8 
 234      50B27802 
 234      2F363498 
 235 07e5 8846D675 		.ascii	"\210F\326u\221\234\213\267A\245-\311vB\270\366\\\306"
 235      919C8BB7 
 235      41A52DC9 
 235      7642B8F6 
 235      5CC6
 236 07f7 4C3EE17E 		.ascii	"L>\341~\246UA\312\211Y\320\342\366p\217\355\242\330"
 236      A65541CA 
 236      8959D0E2 
 236      F6708FED 
 236      A2D8
 237 0809 95672B2C 		.ascii	"\225g+,8X-IM\274\241\251\302\341\2305pJ\245E\355/\""
 237      38582D49 
 237      4DBCA1A9 
 237      C2E19835 
 237      704AA545 
 238 0820 2DCBFFFE 		.ascii	"-\313\377\376\317\363\000\031\377\225\330e\334\325\013"
 238      CFF30019 
 238      FF95D865 
 238      DCD50B
 239 082f B9122D23 		.ascii	"\271\022-#\035VY4\306\374u\224Jr\243\360\376A\270v\201"
 239      1D565934 
 239      C6FC7594 
 239      4A72A3F0 
 239      FE41B876 
 240 0844 71512432 		.ascii	"qQ$2\015\246\356\224Y\207\210\333\015\250.\356\267\256"
 240      0DA6EE94 
 240      598788DB 
 240      0DA82EEE 
 240      B7AE
 241 0856 BED47317 		.ascii	"\276\324s\027\250\354]\0136\360\335i\277\300U\003\216"
 241      A8EC5D0B 
ARM GAS  /tmp/cca5Nhly.s 			page 18


 241      36F0DD69 
 241      BFC05503 
 241      8E
 242 0867 399846D1 		.ascii	"9\230F\321\020\343)'\352\311\346'\352!2)\301\310\360"
 242      10E32927 
 242      EAC9E627 
 242      EA213229 
 242      C1C8F0
 243 087a 62305AAE 		.ascii	"b0Z\256Ae5Zkh]\337\374\274d\0155T\326\260\265a.\325"
 243      4165355A 
 243      6B685DDF 
 243      FCBC640D 
 243      3554D6B0 
 244 0892 04ACCEAE 		.ascii	"\004\254\316\256T\357\201\352\337\355\204\253\237\257"
 244      54EF81EA 
 244      DFED84AB 
 244      9FAF
 245 08a0 ADFEE6C6 		.ascii	"\255\376\346\306K/K\325\317\247\252\276\355x\215\236"
 245      4B2F4BD5 
 245      CFA7AABE 
 245      ED788D9E 
 246 08b0 311A842C 		.ascii	"1\032\204,\245\373\326\177\377\314\022\250d1\030\320"
 246      A5FBD67F 
 246      FFCC12A8 
 246      643118D0 
 247 08c0 994EDAEE 		.ascii	"\231N\332\356\033\240\361\306\0034\366{>\312>)\373E"
 247      1BA0F1C6 
 247      0334F67B 
 247      3ECA3E29 
 247      FB45
 248 08d2 CDDC3BE0 		.ascii	"\315\334;\340}\350)\205\303W\246\021\325F\374\303q\030"
 248      7DE82985 
 248      C357A611 
 248      D546FCC3 
 248      7118
 249 08e4 1112D837 		.ascii	"\021\022\33074`q<\373O$\330\025\323`jf7H\260\037h\300"
 249      3460713C 
 249      FB4F24D8 
 249      15D3606A 
 249      663748B0 
 250 08fb 8CB73DC3 		.ascii	"\214\267=\303\267H\260\033\246\301\324\314\356\220`"
 250      B748B01B 
 250      A6C1D4CC 
 250      EE9060
 251 090a 7768C08C 		.ascii	"wh\300\214Wh\341\237I\260\373\246\301\324\314\356\223"
 251      5768E19F 
 251      49B0FBA6 
 251      C1D4CCEE 
 251      93
 252 091b 60E5E914 		.ascii	"`\345\351\024`\016cf3?%\300*M\203\251\231U\223`U4`q"
 252      600E6366 
 252      333F25C0 
 252      2A4D83A9 
 252      99559360 
 253 0933 16A23524 		.ascii	"\026\2425$\330\014\323`jfsH\260j\032\260\336\306\314"
 253      D80CD360 
 253      6A667348 
ARM GAS  /tmp/cca5Nhly.s 			page 19


 253      B06A1AB0 
 253      DEC6CC
 254 0946 E6916073 		.ascii	"\346\221`sL\203\251\231- \301\026\320\200\3657f\266"
 254      4C83A999 
 254      2D20C116 
 254      D080F537 
 254      66B6
 255 0958 8804AB35 		.ascii	"\210\004\2535\015\246f\266\201\004[F\0036\320\230\331"
 255      0DA666B6 
 255      81045B46 
 255      0336D098 
 255      D9
 256 0969 46126CA5 		.ascii	"F\022l\245i05\263\315$\330\032\032\260!\306\314>&\301"
 256      693035B3 
 256      CD24D81A 
 256      1AB021C6 
 256      CC3E26C1 
 257 097d FE6A1A4C 		.ascii	"\376j\032L\315l\033\011\266\236\006,\317\230\331v\022"
 257      CD6C1B09 
 257      B69E062C 
 257      CF98D976 
 257      12
 258 098e EC23D360 		.ascii	"\354#\323`jf;I\260\3154`\257\0333\333M\202m3\015\246"
 258      6A663B49 
 258      B0CD3460 
 258      AF1B33DB 
 258      4D826D33 
 259 09a4 66D64482 		.ascii	"f\326D\202\355\244\001{S\207Y\364c4\317\234g!\346\352"
 259      EDA4017B 
 259      538759F4 
 259      6334CF9C 
 259      6721E6EA 
 260 09b8 7BD29509 		.ascii	"{\322\225\011\216\311\030\315\3040>I7;#S\265\033\317"
 260      8EC918CD 
 260      C4303E49 
 260      373B2353 
 260      B51BCF
 261 09cb AD9FD82E 		.ascii	"\255\237\330.\307yi\262z\204\0061N\000\\p\210\230\371"
 261      C77969B2 
 261      7A840631 
 261      4E005C70 
 261      8898F9
 262 09de 369B06D3 		.ascii	"6\233\006\323\230\362!\355r\204\342\352^\354\326\025"
 262      98F221ED 
 262      7284E2EA 
 262      5EECD615 
 263 09ee E28A6E0F 		.ascii	"\342\212n\017\375\262<\373\271\005\257\346Z5w\252\265"
 263      FDB23CFB 
 263      B905AFE6 
 263      5A3577AA 
 263      B5
 264 09ff 466F55C3 		.ascii	"FoU\303)i\337\370L\272\361\0150\011O7\262\210\323\244"
 264      2969DFF8 
 264      4CBAF10D 
 264      30094F37 
 264      B288D3A4 
 265 0a13 459CA351 		.ascii	"E\234\243QW\234\020\337vh\021\354\324\321_\311n]\335"
ARM GAS  /tmp/cca5Nhly.s 			page 20


 265      579C10DF 
 265      766811EC 
 265      D4D15FC9 
 265      6E5DDD
 266 0a26 2C2F14DA 		.ascii	",/\024\332`\241p!];\323\254\340\314]\313F\3631m+\364"
 266      60A17021 
 266      5D3BD3AC 
 266      E0CC5DCB 
 266      46F3316D 
 267 0a3c F6AF8CE7 		.ascii	"\366\257\214\347\026\310&\317<Y\277^\024+\354f\332q"
 267      16C826CF 
 267      3C59BF5E 
 267      142BEC66 
 267      DA71
 268 0a4e 446EC73F 		.ascii	"Dn\307?\240\0357~\201v\3347\335\216g4\355\330\373\214"
 268      A01D377E 
 268      8176DC37 
 268      DD8E6734 
 268      EDD8FB8C 
 269 0a62 F9769C91 		.ascii	"\371v\234\221\333q\011\332Q\231\361\340\355\230\221"
 269      DB7109DA 
 269      5199F1E0 
 269      ED9891
 270 0a71 61B61DBD 		.ascii	"a\266\035\275\211v\300\252\255\227\264j\243\272\205"
 270      8976C0AA 
 270      AD97B46A 
 270      A3BA85
 271 0a80 F78A4573 		.ascii	"\367\212Es\013\357\231\243\254C\312N\264\\\022\3037"
 271      0BEF99A3 
 271      AC43CA4E 
 271      B45C12C3 
 271      37
 272 0a91 8F124B5D 		.ascii	"\217\022K]\221n\251\373\275\254\261\357Ac\2635\032\243"
 272      916EA9FB 
 272      BDACB1EF 
 272      4163B335 
 272      1AA3
 273 0aa3 47BA7D70 		.ascii	"G\272}p\377Gp\217>\317\376\004P\013\223\206\332rt\253"
 273      FF47708F 
 273      3ECFFE04 
 273      500B9386 
 273      DA7274AB 
 274 0ab7 7483C84D 		.ascii	"t\203\310M\000Z\336\241\027\355\232N\264\253;\021\375"
 274      005ADEA1 
 274      17ED9A4E 
 274      B4AB3B11 
 274      FD
 275 0ac8 C435DDC2 		.ascii	"\3045\335\302+o\366/r\016\376\221\302\374\277\237\307"
 275      2B6FF62F 
 275      720EFE91 
 275      C2FCBF9F 
 275      C7
 276 0ad9 31EB803E 		.ascii	"1\353\200>\356@\223\201*f@\317\325\313AF\352\244\315"
 276      EE409381 
 276      2A6640CF 
 276      D5CB4146 
 276      EAA4CD
ARM GAS  /tmp/cca5Nhly.s 			page 21


 277 0aec 0F84581E 		.ascii	"\017\204X\036\3364u\261|\243\367\000\034fv= \\s\203"
 277      DE3475B1 
 277      7CA3F700 
 277      1C66763D 
 277      205C7383 
 278 0b00 F90D96BD 		.ascii	"\371\015\226\275\217KV'\302E\203\375\035z8\251\015\226"
 278      8F4B5627 
 278      C24583FD 
 278      1D7A38A9 
 278      0D96
 279 0b12 A6641B12 		.ascii	"\246d\033\022\375p\314)\355p7\265\032\303\275u\273\027"
 279      FD70CC29 
 279      ED7037B5 
 279      1AC3BD75 
 279      BB17
 280 0b24 E5264D74 		.ascii	"\345&Mt\353\357b\217\303\322\006\235\025o\375\265j\224"
 280      EBEF628F 
 280      C3D2069D 
 280      156FFDB5 
 280      6A94
 281 0b36 41B1D9F3 		.ascii	"A\261\331\363\015\234\362\216\265\303\326_sOi\267\005"
 281      0D9CF28E 
 281      B5C3D65F 
 281      734F69B7 
 281      05
 282 0b47 FF45B1D9 		.ascii	"\377E\261\331S\251\330\205\264\2437\325\302\311\260"
 282      53A9D885 
 282      B4A337D5 
 282      C2C9B0
 283 0b56 C9EA53D5 		.ascii	"\311\352S\325\2051~\010\332\212\347\015\323\254\252"
 283      85317E08 
 283      DA8AE70D 
 283      D3ACAA
 284 0b65 3DDF3BA6 		.ascii	"=\337;\246u\357 u\037\276\333\260\210\305\374u\366\247"
 284      75EF2075 
 284      1FBEDBB0 
 284      88C5FC75 
 284      F6A7
 285 0b77 0692B3B9 		.ascii	"\006\222\263\271\250\342#=\217H\333|\240\370\211\017"
 285      A8E2233D 
 285      8F48DB7C 
 285      A0F8890F 
 286 0b87 99BC4386 		.ascii	"\231\274C\206cj\340\224\352\216\212?\362\270\244\370"
 286      636AE094 
 286      EA8E8A3F 
 286      F2B8A4F8 
 287 0b97 6A2AC5B7 		.ascii	"j*\305\267\350*\276\332\274\342e\274\317b\373\247<;"
 287      E82ABEDA 
 287      BCE265BC 
 287      CF62FBA7 
 287      3C3B
 288 0ba9 DD349823 		.ascii	"\3354\230#^/V\023\275X\003\2758\333\212w\333\347\250"
 288      5E2F5613 
 288      BD5803BD 
 288      38DB8A77 
 288      DBE7A8
 289 0bbc FB72E543 		.ascii	"\373r\345C\232\276TiNN\032\356\035\210\341Y\215\312"
ARM GAS  /tmp/cca5Nhly.s 			page 22


 289      9ABE5469 
 289      4E4E1AEE 
 289      1D88E159 
 289      8DCA
 290 0bce C32892CF 		.ascii	"\303(\222\317\333\240\305\323kE\234\025\177m#\250D\362"
 290      DBA0C5D3 
 290      6B459C15 
 290      7F6D23A8 
 290      44F2
 291 0be0 371F9B06 		.ascii	"7\037\233\006s\250\300v\315\240\274,\255\272\015\200"
 291      73A8C076 
 291      CDA0BC2C 
 291      ADBA0D80 
 292 0bf0 63F642BD 		.ascii	"c\366B\275\265ZsYr\245y2;\001Bg-\205\275\2408\177!\015"
 292      B55A7359 
 292      72A57932 
 292      3B014267 
 292      2D85BDA0 
 293 0c08 EEAC92EC 		.ascii	"\356\254\222\354\366n\0245\216\252\343X\313\335K\362"
 293      F66E1435 
 293      8EAAE358 
 293      CBDD4BF2 
 294 0c18 8D5AD2AA 		.ascii	"\215Z\322\252\243\242\263\006.\341\242H\015w_8\334\333"
 294      A3A2B306 
 294      2EE1A248 
 294      0D775F38 
 294      DCDB
 295 0c2a 9C62940B 		.ascii	"\234b\224\013\247\365x\246\263\032\3324\265\2636\"H"
 295      A7F578A6 
 295      B31ADA34 
 295      B5B33622 
 295      48
 296 0c3b 9A210CB1 		.ascii	"\232!\014\261\2260\304:0\304\245`\210\313A\256$\315"
 296      9630C43A 
 296      30C4A560 
 296      88CB41AE 
 296      24CD
 297 0c4d D168B2B5 		.ascii	"\321h\262\265\312J,\037f\231n\267C\323;F\325,&\253Y"
 297      CA4A2C1F 
 297      66996EB7 
 297      43D33B46 
 297      D52C26AB 
 298 0c62 D099C2F6 		.ascii	"\320\231\302\366\2147\210\260S\377\2552\035\220.O\254"
 298      8C3788B0 
 298      53FFAD32 
 298      1D902E4F 
 298      AC
 299 0c73 308DA8B6 		.ascii	"0\215\250\266\346\357g\250\246\003\037\322\300\015\324"
 299      E6EF67A8 
 299      A6031FD2 
 299      C00DD4
 300 0c82 21A8F721 		.ascii	"!\250\367!/H\361\354\024X-\276c\301\0354\015\344\014"
 300      2F48F1EC 
 300      14582DBE 
 300      63C11D34 
 300      0DE40C
 301 0c95 90B3409E 		.ascii	"\220\263@\236\000\331\002\362\024\310s \277\004y\021"
ARM GAS  /tmp/cca5Nhly.s 			page 23


 301      00D902F2 
 301      14C87320 
 301      BF047911 
 302 0ca5 E4772027 		.ascii	"\344w 'A\027\317\0009\017\344\002\220\213@~\000r}\""
 302      4117CF00 
 302      390FE402 
 302      908B407E 
 302      00727D22 
 303 0cb9 0390A340 		.ascii	"\003\220\243@\333\217g\236\370\000|u9\230\377\325\016"
 303      DB8F679E 
 303      F8007C75 
 303      3998FFD5 
 303      0E
 304 0cca 965765D1 		.ascii	"\226We\321\\.\350p\275\253\274\013\305u\3038Wvf]\275"
 304      5C2EE870 
 304      BDABBC0B 
 304      C575C338 
 304      5776665D 
 305 0cdf 387E57B9 		.ascii	"8~W\271\324\247\253\301\254\227X5w1$\276?I\335\251g"
 305      D4A7ABC1 
 305      AC975835 
 305      773124BE 
 305      3F49DDA9 
 306 0cf4 6B8D1F4F 		.ascii	"k\215\037OP]\270\211>t\360TL'\233\356\234\371_\351\016"
 306      505DB889 
 306      3E74F054 
 306      4C279BEE 
 306      9CF95FE9 
 307 0d09 948F6134 		.ascii	"\224\217a4\036\350\222\370j\244\012\007k\251^\343\346"
 307      1EE892F8 
 307      6AA40A07 
 307      6BA95EE3 
 307      E6
 308 0d1a C2DF9F83 		.ascii	"\302\337\237\203;\027\352\023\273\270\211\025\341\353"
 308      3B17EA13 
 308      BBB88915 
 308      E1EB
 309 0d28 E76A64A3 		.ascii	"\347jd\243\224\236`j\006\012\365\311\205D\3748\3249"
 309      949E606A 
 309      060AF5C9 
 309      8544FC38 
 309      D439
 310 0d3a E271A816 		.ascii	"\342q\250\026\323`\016\025\330-\022\354\014\015X\234"
 310      D3600E15 
 310      D82D12EC 
 310      0C0D589C 
 311 0d4a 475DEF90 		.ascii	"G]\357\220`_\230\006S3\373\231\004k\243\001\213\363"
 311      605F9806 
 311      5333FB99 
 311      046BA301 
 311      8BF3
 312 0d5c A8EB7D12 		.ascii	"\250\353}\022\354\202i05\263\231m\004\330e\032\2608"
 312      EC826930 
 312      35B3996D 
 312      04D8651A 
 312      B038
 313 0d6e CFF05593 		.ascii	"\317\360U\223`?\232\006S3\253!\301\356\322\2009t\230"
ARM GAS  /tmp/cca5Nhly.s 			page 24


 313      603F9A06 
 313      5333AB21 
 313      C1EED280 
 313      397498
 314 0d81 E97DC841 		.ascii	"\351}\310A\300\263\333!H\355\000\357\264\013\344\036"
 314      C0B3DB21 
 314      48ED00EF 
 314      B40BE41E 
 315 0d91 907B417E 		.ascii	"\220{A~\002\362\000\310C \217\200l\240\011d[\310\010"
 315      02F200C8 
 315      43208F80 
 315      6CA00964 
 315      5BC808
 316 0da4 33A12B85 		.ascii	"3\241+\2057\212\263\2034\353j\323\377<\310\035P\221"
 316      378AB383 
 316      34EB6AD3 
 316      FF3CC81D 
 316      5091
 317 0db6 85CB8EFE 		.ascii	"\205\313\216\376\007v\037\211\357\202j\266\322\335\005"
 317      07761F89 
 317      EF826AB6 
 317      D2DD05
 318 0dc5 7542EB4B 		.ascii	"uB\353K\2567\202/9A5\275\276I9]\013\263\244v\242\276"
 318      AE37822F 
 318      394135BD 
 318      BE49395D 
 318      0BB3A476 
 319 0ddb F0C8CB92 		.ascii	"\360\310\313\222/<\005\276\360X\327\204\276P\215\003"
 319      2F3C05BE 
 319      F058D784 
 319      BE508D03 
 320 0deb DBA45AFE 		.ascii	"\333\244Z\376\233\216\003\377\317\251|\341\326\343j"
 320      9B8E03FF 
 320      CFA97CE1 
 320      D6E36A
 321 0dfa 5FD80614 		.ascii	"_\330\006\024>O\332\027n;N\030\374y\323`\016\025\330"
 321      3E4FDA17 
 321      6E3B4E18 
 321      FC79D360 
 321      0E15D8
 322 0e0d 7612EC6B 		.ascii	"v\022\354k\032\260x\217\375\223`\337\232\006S3\333M"
 322      1AB0788F 
 322      FD9360DF 
 322      9A065333 
 322      DB4D
 323 0e1f 825DA301 		.ascii	"\202]\243\001\213\367\330?\011v\3354\230C\257{\231\016"
 323      8BF7D83F 
 323      0976DD34 
 323      9843AF7B 
 323      990E
 324 0e31 D6C1B3AD 		.ascii	"\326\301\263\255\340$\276\200\241\177\016d\004\344y"
 324      E024BE80 
 324      A17F0E64 
 324      04E479
 325 0e40 90FF00F9 		.ascii	"\220\377\000\371\025\215K\370\214t\011\267\201\360\211"
 325      158D4BF8 
 325      8C7409B7 
ARM GAS  /tmp/cca5Nhly.s 			page 25


 325      81F089
 326 0e4f 64179468 		.ascii	"d\027\224hD\237\377\335\366\216.A\322\207\021\203oH"
 326      449FFFDD 
 326      F68E2E41 
 326      D2871183 
 326      6F48
 327 0e61 066237B3 		.ascii	"\006b7\263\014\034$\203\360\335Fis^y\374l\222\026Oo"
 327      0C1C2483 
 327      F0DD4669 
 327      735E79FC 
 327      6C92164F 
 328 0e76 5B36DE2A 		.ascii	"[6\336*\2451}\303\233\012\3304\323`\251*\260\231\307"
 328      A5317DC3 
 328      9B0AD834 
 328      D360A92A 
 328      B099C7
 329 0e89 09B039A6 		.ascii	"\011\2609\246\301\214n\225;\011\266\320\002}~\011\344"
 329      C18C6E95 
 329      3B09B6D0 
 329      027D7E09 
 329      E4
 330 0e9a 65905740 		.ascii	"e\220W@^S/\270\027w\323\316[OhWL1/\312\320\342\032\365"
 330      5E532FB8 
 330      1777D3CE 
 330      5B4F6857 
 330      4C312FCA 
 331 0eb2 ED71B26F 		.ascii	"\355q\262o7t\243\0108\016c\353\232u\365\232\034p$`\264"
 331      3774A308 
 331      380E63EB 
 331      9A75F59A 
 331      1C702460 
 332 0ec7 40378DA8 		.ascii	"@7\215\250\266\226\331m\265\252WY\354\244\301\213s'"
 332      B696D96D 
 332      B5AA5759 
 332      ECA4C18B 
 332      7327
 333 0ed9 C322698A 		.ascii	"\303\"i\212 \201\0354\015\346`\014?\344\355\345h\320"
 333      20811D34 
 333      0DE6600C 
 333      3FE4EDE5 
 333      68D0
 334 0eeb C2CD91A7 		.ascii	"\302\315\221\247\340\366\305\257AN\200\005\317&\350"
 334      E0F6C5AF 
 334      414E8005 
 334      CF26E8
 335 0efa 99CD201B 		.ascii	"\231\315 \033A\376\004\362\006\310[4=\326L\336\350\330"
 335      41FE04F2 
 335      06C85B34 
 335      3DD64CDE 
 335      E8D8
 336 0f0c 044D684C 		.ascii	"\004MhL\3666\331H\375g\247\226\262\263*D\374H\326E\270"
 336      F636D948 
 336      FD67A796 
 336      B2B32A44 
 336      FC48D645 
 337 0f21 E7B5C534 		.ascii	"\347\265\3054\242\272\307nH[V\022X+\015\230\336\340"
 337      A2BAC76E 
ARM GAS  /tmp/cca5Nhly.s 			page 26


 337      485B5612 
 337      582B0D98 
 337      DEE0
 338 0f33 26D42A29 		.ascii	"&\324*)\3648(\264I\272+\024\224uO=l\376\336a\3304j\357"
 338      F43828B4 
 338      49BA2B14 
 338      94754F3D 
 338      6CFEDE61 
 339 0f4b 336D54DD 		.ascii	"3mT\335gj\210e\244\370\2431\305\363\254\010\233qf\236"
 339      676A8865 
 339      A4F8A331 
 339      C5F3AC08 
 339      9B71669E 
 340 0f5f ED50ABA9 		.ascii	"\355P\253\251\375\220\342\006\245\327\012|\013\364\023"
 340      FD90E206 
 340      A5D70A7C 
 340      0BF413
 341 0f6e 3C8DA3B7 		.ascii	"<\215\243\267-\246\367!\037\211G\356\033^\354\360-<"
 341      2DA6F721 
 341      1F8947EE 
 341      1B5EECF0 
 341      2D3C
 342 0f80 3AB6061A 		.ascii	":\266\006\032\275\027\344\001\220\207@\036\001)\332"
 342      BD17E401 
 342      9087401E 
 342      0129DA
 343 0f8f 28D47081 		.ascii	"(\324p\201%\324@\334A\216\246\334\232.x\212Y"
 343      25D440DC 
 343      418EA6DC 
 343      9A2E788A 
 343      59
 344 0fa0 2E8AD591 		.ascii	".\212\325\221\263'\276^\312\316\256\020\207H\347rLM"
 344      B327BE5E 
 344      CACEAE10 
 344      8748E772 
 344      4C4D
 345 0fb2 775CEE3C 		.ascii	"w\\\356<\373\244n\035\321\032\340m\006\345\342w\223"
 345      FBA46E1D 
 345      D11AE06D 
 345      06E5E277 
 345      93
 346 0fc3 26756595 		.ascii	"&ue\225\027*\250N\323<)\001\177\227\333\364\336n\320"
 346      172AA84E 
 346      D33C2901 
 346      7F97DBF4 
 346      DE6ED0
 347 0fd6 A4BCDD40 		.ascii	"\244\274\335@zi\001\307\314\357\256GU\254\027d\222<"
 347      7A6901C7 
 347      CCEFAE47 
 347      55AC1764 
 347      923C
 348 0fe8 3BD1863B 		.ascii	";\321\206;\270\322\226\024I\3424=\222\223;\222\254\213"
 348      B8D29614 
 348      49E2343D 
 348      92933B92 
 348      AC8B
 349 0ffa 847F8A91 		.ascii	"\204\177\212\221l\003"
ARM GAS  /tmp/cca5Nhly.s 			page 27


 349      6C03
 350 1000 929B3524 		.ascii	"\222\2335$\365_\360Pe\323\274\340a\252.zu\203\376\013"
 350      F55FF050 
 350      65D3BCE0 
 350      61AA2E7A 
 350      7583FE0B 
 351 1014 1EE23C35 		.ascii	"\036\342<50\303\246yj\0007O\323\347\273\365\025y\375"
 351      30C3A679 
 351      6A00374F 
 351      D3E7BBF5 
 351      1579FD
 352 1027 BF7B2896 		.ascii	"\277{(\226\3757(1\335@#\321\267f\310M\233.\202\"\345"
 352      FD372831 
 352      DD4023D1 
 352      B766C84D 
 352      9B2E8222 
 353 103c B64DD7B6 		.ascii	"\266M\327\266m\246n\333\2665D5\2079#\267\250\317\252"
 353      6DA66EDB 
 353      B6354435 
 353      873923B7 
 353      A8CFAA
 354 104f 4D61C5B3 		.ascii	"Ma\305\263\325\320\2755I\261\252\321\262\232\335\221"
 354      D5D0BD35 
 354      49B1AAD1 
 354      B29ADD91 
 355 105f 556466E4 		.ascii	"Udf\344\366\307\373n\263\345\313+\303\230\333_\242\275"
 355      F6C7FB6E 
 355      B3E5CB2B 
 355      C398DB5F 
 355      A2BD
 356 1071 BAF4616D 		.ascii	"\272\364am\257J \363uA&\376\320\300N\251\026\177\306"
 356      AF4A20F3 
 356      754126FE 
 356      D0C04EA9 
 356      167FC6
 357 1084 EF09A2EF 		.ascii	"\357\011\242\357\271\205\332\236\303\3173\310?\350\337"
 357      B985DA9E 
 357      C3CF33C8 
 357      3FE8DF
 358 1093 B8B24B7A 		.ascii	"\270\262Kz\343J\255\015\007\313\215\017k\375k\022\227"
 358      E34AAD0D 
 358      07CB8D0F 
 358      6BFD6B12 
 358      97
 359 10a4 F6484AA7 		.ascii	"\366HJ\247u\236\023\347\230=\006\332Y\246\326\316\277"
 359      759E13E7 
 359      983D06DA 
 359      59A6D6CE 
 359      BF
 360 10b5 324BC50D 		.ascii	"2K\305\015a\344Z\026\377;~\006Q\304\012bY\375\225m\270"
 360      61E45A16 
 360      FF3B7E06 
 360      51C40A62 
 360      59FD956D 
 361 10ca 93D2B635 		.ascii	"\223\322\2665\304-\006\007\332{\212V\2755\237\2724\342"
 361      C42D0607 
 361      DA7B8A56 
ARM GAS  /tmp/cca5Nhly.s 			page 28


 361      BD359FBA 
 361      34E2
 362 10dc 62D35DDA 		.ascii	"b\323]\332j\312\341\222\253m\232\305\341\217\322\342"
 362      6ACAE192 
 362      AB6D9AC5 
 362      E18FD2E2 
 363 10ec 16E727BE 		.ascii	"\026\347'\276\026p\273\321\360\242W$\272\016}\"\326"
 363      1670BBD1 
 363      F0A25724 
 363      BA0E7D22 
 363      D6
 364 10fd 3BCD8D78 		.ascii	";\315\215x\227}\255\015\257e[4ZK\210\201\351\254\323"
 364      977DAD0D 
 364      AF655B34 
 364      5A4B8881 
 364      E9ACD3
 365 1110 D29D25D1 		.ascii	"\322\235%\321]GA\267<<\267Q\375\222\261\213@\001\237"
 365      5D4741B7 
 365      3C3CB751 
 365      FD92B18B 
 365      40019F
 366 1123 9BD44C24 		.ascii	"\233\324L$\274\240\221\230\231]1\015\346P\201\325\222"
 366      BCA09198 
 366      995D310D 
 366      E65081D5 
 366      92
 367 1134 60D769C0 		.ascii	"`\327i\300\342\25406\222`\367L\203\251\231}L\202U<B"
 367      E2AC3036 
 367      9260F74C 
 367      83A9997D 
 367      4C82553C 
 368 1149 0116E726 		.ascii	"\001\026\347&\263\355$\330d\323`jf\273I\260i4`z\373"
 368      B3ED24D8 
 368      64D3606A 
 368      66BB49B0 
 368      6934607A 
 369 115e 7A7A1FD2 		.ascii	"zz\037\322\324xv\275\015OG>\264\341\011\307G 7\201\334"
 369      D47876BD 
 369      0D4F473E 
 369      B4E109C7 
 369      47203781 
 370 1173 02722BC8 		.ascii	"\002r+\310z\220;l\252\031\336{\300iu\214\223\332\244"
 370      7A903B6C 
 370      AA19DE7B 
 370      C069758C 
 370      93DAA4
 371 1186 13999818 		.ascii	"\023\231\230\030\2369\0227P\0321\363\250\300\0147\327"
 371      9E391237 
 371      501A31F3 
 371      A8C00C37 
 371      D7
 372 1197 C4F03C02 		.ascii	"\304\360<\002l\011\025\230\341\265 1\274\201\000[E\005"
 372      6C091598 
 372      E1B52031 
 372      BC81005B 
 372      4505
 373 11a9 66787BA9 		.ascii	"fx{\251\030\336F\200\255\243\002\363\0333\273F\200m"
ARM GAS  /tmp/cca5Nhly.s 			page 29


 373      18DE4680 
 373      ADA302F3 
 373      1B33BB46 
 373      806D
 374 11bb A6029BC2 		.ascii	"\246\002\233\302\352P#lA\262\2025`\005\357C?\357\006"
 374      EA50236C 
 374      41B28235 
 374      6005EF43 
 374      3FEF06
 375 11ce 1906B90F 		.ascii	"\031\006\271\017\344~\220\007\325\375\277\343\021m\004"
 375      E47E9007 
 375      D5FDBFE3 
 375      116D04
 376 11dd 921C2B81 		.ascii	"\222\034+\201\035\363\300\214Y\364\003Qtc\007\177\004"
 376      1DF3C08C 
 376      59F40351 
 376      7463077F 
 376      04
 377 11ee 05A17F61 		.ascii	"\005\241\177aN?\262X\224Fx?f\2238%\374&\317\256\200"
 377      4E3FB258 
 377      9446783F 
 377      66933825 
 377      FC26CFAE 
 378 1203 7A717D52 		.ascii	"zq}R\226_R\231d\346r\010\\>a\312I\273l\363r\226\310"
 378      965F5299 
 378      64E67208 
 378      5C3E61CA 
 378      49BB6CF3 
 379 121a C9D62FFF 		.ascii	"\311\326/\377\376\360&\216\222\322P\220\263\366\257"
 379      FEF0268E 
 379      92D25090 
 379      B3F6AF
 380 1229 6DA9B3CB 		.ascii	"m\251\263\313\343\"\032K-\362\020Q`\256\260\362h\221"
 380      E3221A4B 
 380      2DF21051 
 380      60AEB0F2 
 380      6891
 381 123b 3326869F 		.ascii	"3&\206\237e\344\226\033\3639pt-j\242\232\217]\315\247"
 381      65E4961B 
 381      F3397074 
 381      2D6AA29A 
 381      8F5DCDA7 
 382 124f BDEDBE96 		.ascii	"\275\355\276\226\317\312\265-km\211\370\210\342\266"
 382      CFCAB52D 
 382      6B6D89F8 
 382      88E2B6
 383 125e 1435A3FD 		.ascii	"\0245\243\375b\030\235&\367\2031\247w\303\313\036\325"
 383      62189D26 
 383      F78331A7 
 383      77C3CB1E 
 383      D5
 384 126f 50B26A29 		.ascii	"P\262j)]\321RjZ{\240\212\202R8UM)|\254'#\233\2041!F"
 384      5DD1526A 
 384      5A7BA08A 
 384      82523855 
 384      4D297CAC 
 385 128a CD86D190 		.ascii	"\315\206\321\220i\357\320_-\024\372a\324D\340\367\376"
ARM GAS  /tmp/cca5Nhly.s 			page 30


 385      69EFD05F 
 385      2D14FA61 
 385      D444E0F7 
 385      FE
 386 129b 5F96466E 		.ascii	"_\226Fn\022\024\016\376\262\024\030\323\024:<M\214'"
 386      12140EFE 
 386      B21418D3 
 386      143A3C4D 
 386      8C27
 387 12ad CC4653DC 		.ascii	"\314FS\334Om\321e\250\346,<\3715:\353D\354,\371\255"
 387      4F6DD165 
 387      A8E62C3C 
 387      F9353AEB 
 387      44EC2CF9 
 388 12c2 C5F15E0E 		.ascii	"\305\361^\016\212t\002k\347D\357\357\204\351\326\004"
 388      8A74026B 
 388      E744EFEF 
 388      84E9D604 
 389 12d2 EA57A342 		.ascii	"\352W\243B\177\303r\374\030\371\306D&7\263\320W,d\272"
 389      7FC372FC 
 389      18F9C644 
 389      2637B3D0 
 389      572C64BA 
 390 12e6 7D9EF199 		.ascii	"}\236\361\231\036al\246\273\320;\332\353\013f\206\002"
 390      1E616CA6 
 390      BBD03BDA 
 390      EB0B6686 
 390      02
 391 12f7 A5256F65 		.ascii	"\245%oe\242D!_\224\351\367\005B\301\314\374Q\303\373"
 391      A244215F 
 391      94E9F705 
 391      42C1CCFC 
 391      51C3FB
 392 130a F6C91C36 		.ascii	"\366\311\0346,'\363\325\274\241#\307\366\311\364\363"
 392      2C27F3D5 
 392      BCA123C7 
 392      F6C9F4F3 
 393 131a 45AEA222 		.ascii	"E\256\242\"O\257B&#\030*\356\333\3075\306\357\365\271"
 393      4FAF4226 
 393      23182AEE 
 393      DBC735C6 
 393      EFF5B9
 394 132d 42F65747 		.ascii	"B\366WG\274\346\310f\236\312,\015\0062\371@\361\363"
 394      BCE6C866 
 394      9ECA2C0D 
 394      0632F940 
 394      F1F3
 395 133f 25BE12E1 		.ascii	"%\276\022\341y\201\037\355\315\364\226\270\213J=Bf0"
 395      79811FED 
 395      CDF496B8 
 395      8B4A3D42 
 395      6630
 396 1351 E4F19684 		.ascii	"\344\361\226\204\320\211\251\245\350\033\235\031\352"
 396      D089A9A5 
 396      E81B9D19 
 396      EA
 397 135e 17A77431 		.ascii	"\027\247t1\217X\225\010\231.\217P\300\227\026\205\\"
ARM GAS  /tmp/cca5Nhly.s 			page 31


 397      8F589508 
 397      992E8F50 
 397      C0971685 
 397      5C
 398 136f A1F17E21 		.ascii	"\241\361~!\210\316\356\344r)\347\333\206\217\314\311"
 398      88CEEEE4 
 398      7229E7DB 
 398      868FCCC9 
 399 137f 75DA478E 		.ascii	"u\332G\216z#/\327\23122?/77\307i\313{-/\307i\031\212"
 399      7A232FD7 
 399      9932323F 
 399      2F3737C7 
 399      69CB7B2D 
 400 1398 8E91394E 		.ascii	"\216\2219N\366\217P[\326\013\256\220|\"NZ\202B\310\346"
 400      F68F505B 
 400      D60BAE90 
 400      7C224E5A 
 400      8242C8E6 
 401 13ac 2E12F800 		.ascii	".\022\370\000;\304:8\337\351\264\016\313\376\275\323"
 401      3BC43A38 
 401      DFE9B40E 
 401      CBFEBDD3 
 402 13bc 3AE815E7 		.ascii	":\350\025\3470,\206X\006;\235\251^_\261\317#\240Z\\"
 402      302C8658 
 402      063B9DA9 
 402      5E5FB1CF 
 402      23A05A5C 
 403 13d0 837DBEA2 		.ascii	"\203}\276\242\324\321>>\340\351\345f2\\.t^\321x\227"
 403      D4D13E3E 
 403      E0E9E566 
 403      325C2E74 
 403      5ED17897 
 404 13e4 B7C41B7A 		.ascii	"\267\304\033z\201F\223\321&\025\273]A\277\027\265!m"
 404      814693D1 
 404      2615BB5D 
 404      41BF17B5 
 404      216D
 405 13f6 F8F0EC9C 		.ascii	"\370\360\354\234\200w\254\020\310\210\246\3760|T\272"
 405      8077AC10 
 405      C888A6FE 
 405      307C54BA 
 406 1406 37885083 		.ascii	"7\210P\203B $x2P\332\037\360\205\0047\372\221\342\366"
 406      42202478 
 406      3250DA1F 
 406      F0850437 
 406      FA91E2F6 
 407 141a 9594A054 		.ascii	"\225\224\240T'\2177('Sp[\372\273BiR\253P\312\032\020"
 407      278F3728 
 407      2753705B 
 407      FABB4269 
 407      52AB50CA 
 408 1430 788F6D5C 		.ascii	"x\217m\\\300\033\022\254\301\361%\356\337\232\341\206"
 408      C01B12AC 
 408      C1F125EE 
 408      DF9AE186 
 409 1440 D22EAF6F 		.ascii	"\322.\257ot\221\317\375\026\342\327e0N\344\010c\275"
 409      7491CFFD 
ARM GAS  /tmp/cca5Nhly.s 			page 32


 409      16E2D765 
 409      304EE408 
 409      63BD
 410 1452 6E616849 		.ascii	"nahI\201/ut\321[\256\240\367m!\005'JJ\213S\307\010!"
 410      812F7574 
 410      D15BAEA0 
 410      F76D2105 
 410      274A4A8B 
 411 146a 44B5C067 		.ascii	"D\265\300g\031[\034\352\2042\203!>\204t\325i\360\260"
 411      195B1CEA 
 411      84328321 
 411      3E8474D5 
 411      69F0B0
 412 147d DFBB5E1B 		.ascii	"\337\273^\0331t\304\320Q\2518\231?jd\036\344\015\312"
 412      3174C4D0 
 412      51A93899 
 412      3F6A641E 
 412      E40DCA
 413 1490 1E35F40F 		.ascii	"\0365\364\017\271\235q2{\344\210\021\271\350\347\210"
 413      B99D7132 
 413      7BE48811 
 413      B9E8E788 
 414 14a0 57BBE19F 		.ascii	"W\273\341\2379C\363c9i8\307\231;(\347\215t%\205r!\375"
 414      3943F363 
 414      396938C7 
 414      993B28E7 
 414      8D742585 
 415 14b7 47E7D051 		.ascii	"G\347\320QJ:\377\215\021\331(m\203Z-n\257\307\342\016"
 415      4A3AFF8D 
 415      11D9286D 
 415      835A2D6E 
 415      AFC7E20E 
 416 14cb 7A52DDBC 		.ascii	"zR\335\274\237w{C\343s\2221\357\374\274\241c\2632Q\367"
 416      9F777B43 
 416      E3739231 
 416      EFFCBCA1 
 416      63B33251 
 417 14e0 C8D69D86 		.ascii	"\310\326\235\2062\244\216\351cF\217R\377vB_\212F\020"
 417      32A48EE9 
 417      63468F52 
 417      FF76425F 
 417      8A4610
 418 14f3 8EA2119C 		.ascii	"\216\242\021\234\304\032\301\330R+\341_I7\0318\231="
 418      C41AC1D8 
 418      522BE15F 
 418      49371938 
 418      993D
 419 1505 7278DEB0 		.ascii	"rx\336\260\334Q\271\017!\0007_T4\232w\277\205\006\227"
 419      DC51B90F 
 419      2100375F 
 419      54349A77 
 419      BF850697 
 420 1519 50E271B9 		.ascii	"P\342q\271Gw\362\3720k\257\007\345\004\2038iC_<j| \013"
 420      4777F2FA 
 420      306BAF07 
 420      E5048338 
 420      69435F3C 
ARM GAS  /tmp/cca5Nhly.s 			page 33


 421 1531 4366FB4A 		.ascii	"Cf\373J\012\274c\354n\370\352\237\210u \024%\355.\014"
 421      0ABC63EC 
 421      6EF8EA9F 
 421      88752014 
 421      25ED2E0C 
 422 1545 8E0F2AE3 		.ascii	"\216\017*\343+5T\210\015\011Y\226\273\320%\245\373\231"
 422      2B355488 
 422      0D095996 
 422      BBD025A5 
 422      FB99
 423 1557 C3721762 		.ascii	"\303r\027b\005\332\375\256\022\241,\204\276\374\001"
 423      05DAFDAE 
 423      12A12C84 
 423      BEFC01
 424 1566 61EC100A 		.ascii	"a\354\020\012\010\251K\0069\207g\017/C%\213\375\336"
 424      08A94B06 
 424      3987670F 
 424      2F43258B 
 424      FDDE
 425 1578 222110CC 		.ascii	"\"!\020\314|5;\033\025W\350\245\204\374\001p8\030\327"
 425      7C353B1B 
 425      1557E8A5 
 425      84FC0170 
 425      3818D7
 426 158b EBC32323 		.ascii	"\353\303##\204\252y\3114~\241\333\027\020\020`:\316"
 426      84AA79C9 
 426      347EA1DB 
 426      17101060 
 426      3ACE
 427 159d 46B61C72 		.ascii	"F\266\034r\207\312\37639\024\327\330\027\213\261\346"
 427      87CAFE33 
 427      3914D7D8 
 427      178BB1E6 
 428 15ad 02C218E4 		.ascii	"\002\302\030\344\314\260{\311z\001\035/\242\243?:^\262"
 428      CCB07BC9 
 428      7A011D2F 
 428      A2A33F3A 
 428      5EB2
 429 15bf 04FBF446 		.ascii	"\004\373\364FG\026:\372\240\243/:\372\241\3437\350@"
 429      47163AFA 
 429      A0A32F3A 
 429      FAA1E337 
 429      E840
 430 15d1 E5FAA072 		.ascii	"\345\372\240r}P\271>\250\\_T\256o\026\027\350\307\005"
 430      7D50B93E 
 430      A85C5F54 
 430      AE6F1617 
 430      E8C705
 431 15e4 7EC3055E 		.ascii	"~\303\005^\340\002/r\201\376\\\340%K \2537:\262\270"
 431      E0022F72 
 431      81FE5CE0 
 431      254B20AB 
 431      373AB2B8 
 432 15f8 A200FAEA 		.ascii	"\242\000\372\352k\363\273\020\333\024\254\341qB\000"
 432      6BF3BB10 
 432      DB14ACE1 
 432      714200
ARM GAS  /tmp/cca5Nhly.s 			page 34


 433 1607 7DFB8A3C 		.ascii	"}\373\212<B\300\352.\344\003X\355|\261\220\032\222\355"
 433      42C0EA2E 
 433      E40358ED 
 433      7CB1901A 
 433      92ED
 434 1619 0FFD09A9 		.ascii	"\017\375\011\251\224\220\344\315\320\357\202\"~L0%\024"
 434      9490E4CD 
 434      D0EF8222 
 434      7E4C3025 
 434      14
 435 162a 100A82A0 		.ascii	"\020\012\202\240G\234\260\025\007\307\240?e\307\212"
 435      479CB015 
 435      07C7A03F 
 435      65C78A
 436 1639 9C8A9CB2 		.ascii	"\234\212\234\262\007<\343\321_\251B\2317\204\324\"\330"
 436      073CE3D1 
 436      5FA94299 
 436      3784D422 
 436      D8
 437 164a C7857CA3 		.ascii	"\307\205|\243\377\344O\027\306\012%\241b>\010\3269\016"
 437      FFE44F17 
 437      C60A25A1 
 437      623E08D6 
 437      390E
 438 165c 272C7E57 		.ascii	"',~Wig\311^\202\256\"d\376\256P\227\250\005I9i~\327"
 438      6967C95E 
 438      82AE2264 
 438      FEAE5097 
 438      A8054939 
 439 1673 38DE1BF2 		.ascii	"8\336\033\362\226\214\351\242d\377\271T(E\254\272\022"
 439      968CE9A2 
 439      64FFB954 
 439      2845ACBA 
 439      12
 440 1684 2521AB93 		.ascii	"%!\253\223\337\205\252\205\244\015\222(C\360\243q\200"
 440      DF85AA85 
 440      A40D9228 
 440      43F0A371 
 440      80
 441 1695 4EB61597 		.ascii	"N\266\025\227\242.\357k\312(\213Ce\330x\212%t\364\355"
 441      A22EEF6B 
 441      CA288B43 
 441      65D8788A 
 441      2574F4ED 
 442 16a9 1B578234 		.ascii	"\033W\2024\007H\250\011\305`\253\210\037*\207\231v\302"
 442      0748A809 
 442      C560AB88 
 442      1F2A8799 
 442      76C2
 443 16bb 5AE18BC0 		.ascii	"Z\341\213\300\302P\246\037\005\200\027M\325'7\006\325"
 443      C250A61F 
 443      0580174D 
 443      D5273706 
 443      D5
 444 16cc D95D1E4F 		.ascii	"\331]\036OH\313B@(q\243\326\332\245\254\337%BD\2242"
 444      48CB4240 
 444      2871A3D6 
ARM GAS  /tmp/cca5Nhly.s 			page 35


 444      DAA5ACDF 
 444      25424494 
 445 16e1 B387E70F 		.ascii	"\263\207\347\017\315G~*\023\242mA\277\336Yenl\265\330"
 445      CD477E2A 
 445      13A26D41 
 445      BFDE5965 
 445      6E6CB5D8 
 446 16f5 5B8C4263 		.ascii	"[\214Bc\"G(\260d;\263\320\321\207\313wr(\376e;\263\363"
 446      224728B0 
 446      643BB3D0 
 446      D187CB77 
 446      7228FE65 
 447 170c 9C76E7EB 		.ascii	"\234v\347\353\350\333i\037\005_)C\373\344g\277\362\252"
 447      E8DB691F 
 447      055F2943 
 447      FBE467BF 
 447      F2AA
 448 171e D386BEF3 		.ascii	"\323\206\276\363\234\026\344\\^1\353#A\276\322\257\254"
 448      9C16E45C 
 448      5E31EB23 
 448      41BED2AF 
 448      AC
 449 172f 4C22E2F2 		.ascii	"L\"\342\362\024\363\270q9\303\007\271\362\221)\361\305"
 449      14F3B871 
 449      39C307B9 
 449      F29129F1 
 449      C5
 450 1740 0A1B2EDB 		.ascii	"\012\033.\333i\035\2213\312i\311\033\344\264\016\357"
 450      691D9133 
 450      CA69C91B 
 450      E4B40EEF 
 451 1750 8D45D620 		.ascii	"\215E\326 \247\345\025D&\010\005\255\336\002w\300\356"
 451      A7E51544 
 451      260805AD 
 451      DE0277C0 
 451      EE
 452 1761 0D167A0B 		.ascii	"\015\026z\013BiA\241\250\300[\342\021\312\354cQP\363"
 452      426941A1 
 452      A8C05BE2 
 452      11CAEC63 
 452      5150F3
 453 1774 05BA47D1 		.ascii	"\005\272G\321]Ri\024\177\321\217@\031\226\241\262\264"
 453      5D526914 
 453      7FD18F40 
 453      1996A1B2 
 453      B4
 454 1785 4019FAC6 		.ascii	"@\031\372\306\226\234\026RRV\324\034\277\255(\350.\030"
 454      969C1652 
 454      5256D41C 
 454      BFAD28E8 
 454      2E18
 455 1797 632BC412 		.ascii	"c+\304\022GW\311\027v\201\200\346\342=\236\200\020\014"
 455      4757C917 
 455      768180E6 
 455      E23D9E80 
 455      100C
 456 17a9 0AC11E38 		.ascii	"\012\301\0368\004#\377\356B\301\325\215\302y4\332Z\321"
ARM GAS  /tmp/cca5Nhly.s 			page 36


 456      0423FFEE 
 456      42C1D58D 
 456      C27934DA 
 456      5AD1
 457 17bb 1FFEC789 		.ascii	"\037\376\307\211\177!\214\306\002p\032D\377\241(\342"
 457      7F218CC6 
 457      02701A44 
 457      FFA128E2 
 458 17cb 778654BE 		.ascii	"w\206T\276\020"
 458      10
 459 17d0 1A5CFAF6 		.ascii	"\032\\\372\366\333B\200\363\225\244+9\303rsL\207\236"
 459      DB4280F3 
 459      95A42B39 
 459      C372734C 
 459      879E
 460 17e2 985A0BA3 		.ascii	"\230Z\013\243\023\253\256\222\016\334\300\035\31722"
 460      13ABAE92 
 460      0EDCC01D 
 460      CF3232
 461 17f1 24C72F0D 		.ascii	"$\307/\015\267G]\362\024\314\205&1c\002\276R?VBwb2\206"
 461      B7475DF2 
 461      14CC8526 
 461      316302BE 
 461      523F5642 
 462 1809 F24BFD48 		.ascii	"\362K\375Ho8?`\367a\317\031H\361\005\375\202\340\011"
 462      6F383F60 
 462      F761CF19 
 462      48F105FD 
 462      82E009
 463 181c D8FCA57E 		.ascii	"\330\374\245~O\300\342\363\004\254|A\240\010\213B{\336"
 463      4FC0E2F3 
 463      04AC7C41 
 463      A0088B42 
 463      7BDE
 464 182e A01C3EC4 		.ascii	"\240\034>\304\333\363\006K_\331\322W\216\364\225+}\015"
 464      DBF3064B 
 464      5FD9D257 
 464      8EF4952B 
 464      7D0D
 465 1840 C15F6979 		.ascii	"\301_iy\203\206I\232\355\216I(S3)\342<\336+\340\363"
 465      8386499A 
 465      ED8E4928 
 465      533329E2 
 465      3CDE2BE0 
 466 1855 A042BD3A 		.ascii	"\240B\275:\376\365\177%\370r}"
 466      FEF57F25 
 466      F8727D
 467              		.text
 468              		.section	.gnu.lto_.symtab.aa23bb47f2a4e842,"",%progbits
 469 0000 5F5F6561 		.ascii	"__early_init\000\000\000\000\000\000\000\000\000\000"
 469      726C795F 
 469      696E6974 
 469      00000000 
 469      00000000 
 470 0016 0000DE00 		.ascii	"\000\000\336\000\000\000mmc_lld_is_card_inserted\000"
 470      00006D6D 
 470      635F6C6C 
ARM GAS  /tmp/cca5Nhly.s 			page 37


 470      645F6973 
 470      5F636172 
 471 0035 00000000 		.ascii	"\000\000\000\000\000\000\000\000\000\000\000\342\000"
 471      00000000 
 471      000000E2 
 471      00
 472 0042 00006D6D 		.ascii	"\000\000mmc_lld_is_write_protected\000\000\000\000\000"
 472      635F6C6C 
 472      645F6973 
 472      5F777269 
 472      74655F70 
 473 0063 00000000 		.ascii	"\000\000\000\000\000\000\000\206\002\000\000boardIn"
 473      00000086 
 473      02000062 
 473      6F617264 
 473      496E
 474 0075 69740000 		.ascii	"it\000\000\000\000\000\000\000\000\000\000\000\000\212"
 474      00000000 
 474      00000000 
 474      00008A
 475 0084 02000062 		.ascii	"\002\000\000boardSetBuzzer\000\000\000\000\000\000\000"
 475      6F617264 
 475      53657442 
 475      757A7A65 
 475      72000000 
 476 009c 00000000 		.ascii	"\000\000\000\000\000\215\002\000\000boardSetLED\000"
 476      008D0200 
 476      00626F61 
 476      72645365 
 476      744C4544 
 477 00b1 00000000 		.ascii	"\000\000\000\000\000\000\000\000\000\000\000\224\002"
 477      00000000 
 477      00000094 
 477      02
 478 00be 00007061 		.ascii	"\000\000pal_default_config\000\000\000\000\000\000\000"
 478      6C5F6465 
 478      6661756C 
 478      745F636F 
 478      6E666967 
 479 00d9 00000000 		.ascii	"\000\000\000\000\000\243\002\000\000stm32_clock_ini"
 479      00A30200 
 479      0073746D 
 479      33325F63 
 479      6C6F636B 
 480 00f1 74000002 		.ascii	"t\000\000\002\000\000\000\000\000\000\000\000\000\230"
 480      00000000 
 480      00000000 
 480      0098
 481 00ff 0200005F 		.ascii	"\002\000\000_pal_lld_setgroupmode\000\000\002\000\000"
 481      70616C5F 
 481      6C6C645F 
 481      73657467 
 481      726F7570 
 482 011c 00000000 		.ascii	"\000\000\000\000\000\000\000\232\002\000\000"
 482      0000009A 
 482      020000
 483              		.text
ARM GAS  /tmp/cca5Nhly.s 			page 38


 484              		.section	.gnu.lto_.opts,"",%progbits
 485 0000 272D6D63 		.ascii	"'-mcpu=cortex-m4' '-mfloat-abi=hard' '-mfpu=fpv4-sp"
 485      70753D63 
 485      6F727465 
 485      782D6D34 
 485      2720272D 
 486 0033 2D643136 		.ascii	"-d16' '-mno-thumb-interwork' '-mthumb' '-O2' '-fomi"
 486      2720272D 
 486      6D6E6F2D 
 486      7468756D 
 486      622D696E 
 487 0066 742D6672 		.ascii	"t-frame-pointer' '-falign-functions=16' '-ffunction"
 487      616D652D 
 487      706F696E 
 487      74657227 
 487      20272D66 
 488 0099 2D736563 		.ascii	"-sections' '-fdata-sections' '-fno-common' '-flto' "
 488      74696F6E 
 488      73272027 
 488      2D666461 
 488      74612D73 
 489 00cc 272D6673 		.ascii	"'-fsingle-precision-constant'\000"
 489      696E676C 
 489      652D7072 
 489      65636973 
 489      696F6E2D 
 490              		.text
 491              		.section	.text.__early_init,"ax",%progbits
 492              		.align	2
 493              		.p2align 4,,15
 494              		.global	__early_init
 495              		.thumb
 496              		.thumb_func
 497              		.type	__early_init, %function
 498              	__early_init:
 499              		@ args = 0, pretend = 0, frame = 0
 500              		@ frame_needed = 0, uses_anonymous_args = 0
 501              		@ link register save eliminated.
 502 0000 FFF7FEBF 		b	stm32_clock_init
 503              		.size	__early_init, .-__early_init
 504 0004 AFF30080 		.section	.text.mmc_lld_is_card_inserted,"ax",%progbits
 504      AFF30080 
 504      AFF30080 
 505              		.align	2
 506              		.p2align 4,,15
 507              		.global	mmc_lld_is_card_inserted
 508              		.thumb
 509              		.thumb_func
 510              		.type	mmc_lld_is_card_inserted, %function
 511              	mmc_lld_is_card_inserted:
 512              		@ args = 0, pretend = 0, frame = 0
 513              		@ frame_needed = 0, uses_anonymous_args = 0
 514              		@ link register save eliminated.
 515 0000 0120     		movs	r0, #1
 516 0002 7047     		bx	lr
 517              		.size	mmc_lld_is_card_inserted, .-mmc_lld_is_card_inserted
 518 0004 AFF30080 		.section	.text.mmc_lld_is_write_protected,"ax",%progbits
ARM GAS  /tmp/cca5Nhly.s 			page 39


 518      AFF30080 
 518      AFF30080 
 519              		.align	2
 520              		.p2align 4,,15
 521              		.global	mmc_lld_is_write_protected
 522              		.thumb
 523              		.thumb_func
 524              		.type	mmc_lld_is_write_protected, %function
 525              	mmc_lld_is_write_protected:
 526              		@ args = 0, pretend = 0, frame = 0
 527              		@ frame_needed = 0, uses_anonymous_args = 0
 528              		@ link register save eliminated.
 529 0000 0020     		movs	r0, #0
 530 0002 7047     		bx	lr
 531              		.size	mmc_lld_is_write_protected, .-mmc_lld_is_write_protected
 532 0004 AFF30080 		.section	.text.boardInit,"ax",%progbits
 532      AFF30080 
 532      AFF30080 
 533              		.align	2
 534              		.p2align 4,,15
 535              		.global	boardInit
 536              		.thumb
 537              		.thumb_func
 538              		.type	boardInit, %function
 539              	boardInit:
 540              		@ args = 0, pretend = 0, frame = 0
 541              		@ frame_needed = 0, uses_anonymous_args = 0
 542 0000 10B5     		push	{r4, lr}
 543 0002 144C     		ldr	r4, .L5
 544 0004 4FF40071 		mov	r1, #512
 545 0008 2046     		mov	r0, r4
 546 000a 40F20622 		movw	r2, #518
 547 000e FFF7FEFF 		bl	_pal_lld_setgroupmode
 548 0012 2046     		mov	r0, r4
 549 0014 4FF48071 		mov	r1, #256
 550 0018 40F20622 		movw	r2, #518
 551 001c FFF7FEFF 		bl	_pal_lld_setgroupmode
 552 0020 0D48     		ldr	r0, .L5+4
 553 0022 4FF40071 		mov	r1, #512
 554 0026 40F20622 		movw	r2, #518
 555 002a FFF7FEFF 		bl	_pal_lld_setgroupmode
 556 002e 0B48     		ldr	r0, .L5+8
 557 0030 4FF48071 		mov	r1, #256
 558 0034 40F20622 		movw	r2, #518
 559 0038 FFF7FEFF 		bl	_pal_lld_setgroupmode
 560 003c 2046     		mov	r0, r4
 561 003e 0821     		movs	r1, #8
 562 0040 1922     		movs	r2, #25
 563 0042 FFF7FEFF 		bl	_pal_lld_setgroupmode
 564 0046 2046     		mov	r0, r4
 565 0048 2021     		movs	r1, #32
 566 004a 1922     		movs	r2, #25
 567 004c BDE81040 		pop	{r4, lr}
 568 0050 FFF7FEBF 		b	_pal_lld_setgroupmode
 569              	.L6:
 570              		.align	2
 571              	.L5:
ARM GAS  /tmp/cca5Nhly.s 			page 40


 572 0054 00040240 		.word	1073873920
 573 0058 00080240 		.word	1073874944
 574 005c 00000240 		.word	1073872896
 575              		.size	boardInit, .-boardInit
 576              		.section	.text.boardSetBuzzer,"ax",%progbits
 577              		.align	2
 578              		.p2align 4,,15
 579              		.global	boardSetBuzzer
 580              		.thumb
 581              		.thumb_func
 582              		.type	boardSetBuzzer, %function
 583              	boardSetBuzzer:
 584              		@ args = 0, pretend = 0, frame = 0
 585              		@ frame_needed = 0, uses_anonymous_args = 0
 586              		@ link register save eliminated.
 587 0000 034B     		ldr	r3, .L12
 588 0002 0822     		movs	r2, #8
 589 0004 08B9     		cbnz	r0, .L11
 590 0006 5A83     		strh	r2, [r3, #26]	@ movhi
 591 0008 7047     		bx	lr
 592              	.L11:
 593 000a 1A83     		strh	r2, [r3, #24]	@ movhi
 594 000c 7047     		bx	lr
 595              	.L13:
 596 000e 00BF     		.align	2
 597              	.L12:
 598 0010 00040240 		.word	1073873920
 599              		.size	boardSetBuzzer, .-boardSetBuzzer
 600 0014 AFF30080 		.section	.text.boardSetLED,"ax",%progbits
 600      AFF30080 
 600      AFF30080 
 601              		.align	2
 602              		.p2align 4,,15
 603              		.global	boardSetLED
 604              		.thumb
 605              		.thumb_func
 606              		.type	boardSetLED, %function
 607              	boardSetLED:
 608              		@ args = 0, pretend = 0, frame = 0
 609              		@ frame_needed = 0, uses_anonymous_args = 0
 610              		@ link register save eliminated.
 611 0000 034B     		ldr	r3, .L18
 612 0002 2022     		movs	r2, #32
 613 0004 08B9     		cbnz	r0, .L17
 614 0006 5A83     		strh	r2, [r3, #26]	@ movhi
 615 0008 7047     		bx	lr
 616              	.L17:
 617 000a 1A83     		strh	r2, [r3, #24]	@ movhi
 618 000c 7047     		bx	lr
 619              	.L19:
 620 000e 00BF     		.align	2
 621              	.L18:
 622 0010 00040240 		.word	1073873920
 623              		.size	boardSetLED, .-boardSetLED
 624              		.global	pal_default_config
 625 0014 AFF30080 		.section	.rodata.pal_default_config,"a",%progbits
 625      AFF30080 
ARM GAS  /tmp/cca5Nhly.s 			page 41


 625      AFF30080 
 626              		.align	2
 627              		.type	pal_default_config, %object
 628              		.size	pal_default_config, 168
 629              	pal_default_config:
 630 0000 A300826A 		.word	1786904739
 631 0004 00010000 		.word	256
 632 0008 AFFBFFFF 		.word	-1105
 633 000c 44551564 		.word	1679119684
 634 0010 FFFF0000 		.word	65535
 635 0014 00770000 		.word	30464
 636 0018 04A00A00 		.word	696324
 637 001c 45A50AA8 		.word	-1475697339
 638 0020 00030000 		.word	768
 639 0024 FFAFFFFF 		.word	-20481
 640 0028 25555555 		.word	1431655717
 641 002c FFFF0000 		.word	65535
 642 0030 00000077 		.word	1996488704
 643 0034 44005055 		.word	1431306308
 644 0038 0FA0A802 		.word	44605455
 645 003c 00020000 		.word	512
 646 0040 FFAFFBFF 		.word	-282625
 647 0044 50555151 		.word	1364284752
 648 0048 FFFF0000 		.word	65535
 649 004c 00000088 		.word	-2013265920
 650 0050 40660600 		.word	419392
 651 0054 00000000 		.word	0
 652 0058 00000000 		.word	0
 653 005c FFFFFFFF 		.word	-1
 654 0060 55555555 		.word	1431655765
 655 0064 FFFF0000 		.word	65535
 656 0068 00000000 		.word	0
 657 006c 00000000 		.word	0
 658 0070 00000000 		.word	0
 659 0074 00000000 		.word	0
 660 0078 FFFFFFFF 		.word	-1
 661 007c 45000000 		.word	69
 662 0080 FFFF0000 		.word	65535
 663 0084 00000000 		.word	0
 664 0088 00000000 		.word	0
 665 008c 00000000 		.word	0
 666 0090 00000000 		.word	0
 667 0094 FFFFFFFF 		.word	-1
 668 0098 00000000 		.word	0
 669 009c FFFF0000 		.word	65535
 670 00a0 00000000 		.word	0
 671 00a4 00000000 		.word	0
 672              		.comm	__gnu_lto_v1,1,1
 673              		.ident	"GCC: (GNU Tools for ARM Embedded Processors) 4.8.4 20140526 (release) [ARM/embedded-4_8-br
ARM GAS  /tmp/cca5Nhly.s 			page 42

