ARM GAS  /tmp/cc0VxuqZ.s 			page 1


   1              		.syntax unified
   2              		.cpu cortex-m4
   3              		.eabi_attribute 27, 3
   4              		.eabi_attribute 28, 1
   5              		.fpu fpv4-sp-d16
   6              		.eabi_attribute 20, 1
   7              		.eabi_attribute 21, 1
   8              		.eabi_attribute 23, 3
   9              		.eabi_attribute 24, 1
  10              		.eabi_attribute 25, 1
  11              		.eabi_attribute 26, 1
  12              		.eabi_attribute 30, 2
  13              		.eabi_attribute 34, 1
  14              		.eabi_attribute 18, 4
  15              		.thumb
  16              		.file	"chcond.c"
  17              		.section	.gnu.lto_.jmpfuncs.3f04d19e9eacc76f,"",%progbits
  18 0000 789C6D8A 		.ascii	"x\234m\212A\022\200 \014\003\223\024\007\371\241O\300"
  18      41128020 
  18      0C039314 
  18      07F9A14F 
  18      C0
  19 0011 0F78E6E9 		.ascii	"\017x\346\351\244\214r\262\2076\331\255 \374M\177o\003"
  19      A48C72B2 
  19      8736D9AD 
  19      20FC4D7F 
  19      6F03
  20 0023 49BFE8E2 		.ascii	"I\277\350\342\315\004\"\215\306\327\303\025\305\010"
  20      CD04228D 
  20      C6D7C315 
  20      C508
  21 0031 38327209 		.ascii	"82r\011V$\251I\316\360\322\306a\363,\333B\273b\002:"
  21      5624A949 
  21      CEF0D2C6 
  21      61F32CDB 
  21      42BB6202 
  22 0046 FC0553   		.ascii	"\374\005S"
  23              		.text
  24              		.section	.gnu.lto_.inline.3f04d19e9eacc76f,"",%progbits
  25 0000 789C6D90 		.ascii	"x\234m\220=\016\202@\020\205\337,\213\273\340\242\022"
  25      3D0E8240 
  25      1085DF2C 
  25      8BBBE0A2 
  25      12
  26 0011 2B0A8385 		.ascii	"+\012\203\2056&z\012kN\341Y\254\351l\271\201w0!\266"
  26      36267A0A 
  26      6B4EE159 
  26      ACE96CB9 
  26      81773021 
  27 0026 D6961646 		.ascii	"\326\226\026F;\023+\023\013g\027\220\004\335b~\336\274"
  27      3B132B13 
  27      0B671790 
  27      04DD627E 
  27      DEBC
  28 0038 F9325901 		.ascii	"\3712Y\001\201\177oMU\016\000_\022\301\266B\234\206"
  28      817F6F4D 
  28      550E005F 
ARM GAS  /tmp/cc0VxuqZ.s 			page 2


  28      12C1B642 
  28      9C86
  29 004a D08F95DB 		.ascii	"\320\217\225\333 \014\306\215>xn\240wK\247{\206\205"
  29      200CC68D 
  29      3E786EA0 
  29      774BA77B 
  29      8685
  30 005c 3C63AC89 		.ascii	"<c\254\211I\270\271\015\036|u_@\355\347\254\335\224"
  30      49B8B90D 
  30      1E7C755F 
  30      40EDE7AC 
  30      DD94
  31 006e AE226491 		.ascii	"\256\"d\221\032\353\020}v\345\231\207\250\244\206j\336"
  31      1AEB107D 
  31      76E59987 
  31      A8A4866A 
  31      DE
  32 007f 6705BD2D 		.ascii	"g\005\275-\251\346\222uH\350\204 x\017\275\"\255.\011"
  32      A9E69275 
  32      48E88420 
  32      780FBD22 
  32      AD2E09
  33 0092 5B808FE4 		.ascii	"[\200\217\344\205\0060=\034\303\257\2536\270\3244\214"
  33      8506303D 
  33      1CC3AFAB 
  33      36B8D434 
  33      8C
  34 00a3 1F7560F6 		.ascii	"\037u`\366|\236hLZ\316\354r\375\341\310\210K\324\274"
  34      7C9E684C 
  34      5ACEEC72 
  34      FDE1C888 
  34      4BD4BC
  35 00b6 3C0B10C4 		.ascii	"<\013\020\304\035\222s\344\031\177\305\007\253Y%s"
  35      1D9273E4 
  35      197FC507 
  35      AB592573 
  36              		.text
  37              		.section	.gnu.lto_.pureconst.3f04d19e9eacc76f,"",%progbits
  38 0000 789C6362 		.ascii	"x\234cb`b\020f\200\000N\006)F+&)f)\026+V)v+\016)N+\000"
  38      60621066 
  38      80004E06 
  38      29462B26 
  38      29662916 
  39 001e 103901B2 		.ascii	"\0209\001\262"
  40              		.text
  41              		.section	.gnu.lto_chCondObjectInit.3f04d19e9eacc76f,"",%progbits
  42 0000 789C8D50 		.ascii	"x\234\215P;K\003A\020\236o/!b\243\255\205`/f-\374\013"
  42      3B4B0341 
  42      109E6F2F 
  42      2162A3AD 
  42      85602F66 
  43 0017 FE022368 		.ascii	"\376\002#h\231\354\205\273E\223\203\273DP\213\334\251"
  43      99EC85BB 
  43      459383BB 
  43      44508BDC 
  43      A9
  44 0028 9D0887E5 		.ascii	"\235\010\207\345i#\242\205\2056\012\026\026\251\004"
ARM GAS  /tmp/cc0VxuqZ.s 			page 3


  44      6923A285 
  44      85360A16 
  44      16A904
  45 0037 F10101C1 		.ascii	"\361\001\001\3016V\266\326\"\304\331\273S\324B\034\330"
  45      3656B6D6 
  45      22C4D9BB 
  45      53D4421C 
  45      D8
  46 0048 9DD9D9F9 		.ascii	"\235\331\331\371\036\214 A\277c\214\317,\210\034\316"
  46      1E8C2041 
  46      BF638CCF 
  46      2C881CCE 
  47 0058 B008227E 		.ascii	"\260\010\"~ \212\206\004`\012\002u\004:\213Hg\317D\267"
  47      208A8604 
  47      600A0275 
  47      043A8B48 
  47      67CF44B7 
  48 006c 3F189C5E 		.ascii	"?\030\234^^\237\357#\021%\240\001f\324\351g\221\266"
  48      5E9FEF23 
  48      1125A001 
  48      66D4E967 
  48      91B6
  49 007e C2309E20 		.ascii	"\3020\236 R\351\263\302\267!\230\2070\331\272\247\215"
  49      52E9B3C2 
  49      B7219887 
  49      30D9BAA7 
  49      8D
  50 008f B7CDC39D 		.ascii	"\267\315\303\235\361*\016P$\007b\235\326\0308I'!\307"
  50      F12A0E50 
  50      2407629D 
  50      D6183849 
  50      2721C7
  51 00a2 9C06F628 		.ascii	"\234\006\366(\201\206p\200\005\316V*X\3037\247Lq\373"
  51      81867080 
  51      05CE562A 
  51      58C337A7 
  51      4C71FB
  52 00b5 9EDCBD94 		.ascii	"\236\334\275\224\276\244\262\242\273\375\330\343\361"
  52      BEA4B2A2 
  52      BBFDD8E3 
  52      F1
  53 00c2 8C592185 		.ascii	"\214Y!\205d\274\375\247\347\253)\215\002SGa8\312\"9"
  53      64BCFDA7 
  53      E7AB298D 
  53      02534761 
  53      38CA2239 
  54 00d6 3BE5EC30 		.ascii	";\345\3540\260c\206\031G\251\302M<\\\305\021wrg#\177"
  54      B0638619 
  54      47A9C24D 
  54      3C5CC511 
  54      77726723 
  55 00eb C1C54F78 		.ascii	"\301\305Ox\217\242\327\335\213Bf\3443*,\302\0130\213"
  55      8FA2D7DD 
  55      8B4266E4 
  55      332A2CC2 
  55      0B308B
  56 00fe 9F96AED7 		.ascii	"\237\226\256\327\250K\345\331\253\322\256\257H\345\352"
ARM GAS  /tmp/cc0VxuqZ.s 			page 4


  56      A84BE5D9 
  56      ABD2AEAF 
  56      48E5EA
  57 010d 9AF602D9 		.ascii	"\232\366\002\331\362\333\315%\311\205\337\222\201\257"
  57      F2DBCD25 
  57      C985DF92 
  57      81AF
  58 011b B8AFBCA6 		.ascii	"\270\257\274\246]V4\363\017\200n\252\345\266\315Cn\240"
  58      5D5634F3 
  58      0F806EAA 
  58      E5B6CD43 
  58      6EA0
  59 012d 5CBBECD2 		.ascii	"\\\273\354\322\007\023\363uw"
  59      0713F375 
  59      77
  60              		.text
  61              		.section	.gnu.lto_chCondSignal.3f04d19e9eacc76f,"",%progbits
  62 0000 789C8D92 		.ascii	"x\234\215\222Ah\323P\030\307\277\357\275\304\256\231"
  62      4168D350 
  62      18C7BFEF 
  62      BDC4AE99 
  63 0010 60C1CB4E 		.ascii	"`\301\313N\243\027O\352R\305\353` \010;\354\262:P/\322"
  63      A3174FEA 
  63      52C5EB60 
  63      20083BEC 
  63      B23A502F 
  64 0025 BE863568 		.ascii	"\276\2065hZIZq\016YZ6(\3632\301\203\330yP\007\302\030"
  64      5A495A71 
  64      0E595A36 
  64      28F332C1 
  64      83D87950 
  65 003c DBAEBB0D 		.ascii	"\333\256\273\015\224\341\030N{\365\3406\324\223\202"
  65      94E1184E 
  65      7BF5E036 
  65      D49382
  66 004b 15D4C33C 		.ascii	"\025\324\303<\314\357\345\245Y\354e\013\344\345\345"
  66      CCEFE5A5 
  66      59EC650B 
  66      E4E5E5
  67 005a E5FBFFFE 		.ascii	"\345\373\377\376\377\357\3451`\320}]\244\373\017-\277"
  67      FFEFE531 
  67      60D07D5D 
  67      A4FB0F2D 
  67      BF
  68 006b A127EA80 		.ascii	"\241'\352\200ln\033\240\326\303\030o\016\202oh\277S"
  68      6C6E1BA0 
  68      D6C3186F 
  68      0E826F68 
  68      BF53
  69 007d E09FE4A8 		.ascii	"\340\237\344\250\251e\015QN\000a\212q\015\247\256c\000"
  69      A9650D51 
  69      4E00618A 
  69      710DA7AE 
  69      6300
  70 008f 5961EBBB 		.ascii	"Ya\353\273\007\007\313\2776\226\227p\236\235\322\320"
  70      0707CBBF 
  70      36969770 
ARM GAS  /tmp/cc0VxuqZ.s 			page 5


  70      9E9DD2D0 
  71 009f 41D0C146 		.ascii	"A\320\301FH\322\200\206\034\250J\207i\337\237K\003\210"
  71      48D28086 
  71      1CA84A87 
  71      69DF9F4B 
  71      0388
  72 00b1 40759546 		.ascii	"@u\225F\011\033C&\237|\033\352?\277=\376\334\027\225"
  72      091B4326 
  72      9F7C1BEA 
  72      3FBF3DFE 
  72      DC1795
  73 00c4 E5F03925 		.ascii	"\345\3609%\012\334\020*\\\206\347\252\203~\230\301g"
  73      0ADC102A 
  73      5C86E7AA 
  73      837E98C1 
  73      67
  74 00d5 FE93211B 		.ascii	"\376\223!\033\203\327kh#O\313Y\364\275\021~\327T\227"
  74      83D76B68 
  74      234FCB59 
  74      F4BD117E 
  74      D75497
  75 00e8 EFA0BEFF 		.ascii	"\357\240\276\377zk\247\245+\3468\352\223p\237\362\235"
  75      7A6BA7A5 
  75      2BE638EA 
  75      93709FF2 
  75      9D
  76 00f9 85459F2E 		.ascii	"\205E\237.\317F\275\011O\011sb\0345\211K\004\262<\306"
  76      CF46BD09 
  76      4F097362 
  76      1C35894B 
  76      04B23CC6 
  77 010d 768A181F 		.ascii	"v\212\030\037\347\027\367\376\336\210\002\252\311\372"
  77      E717F7FE 
  77      DE8802AA 
  77      C9FA
  78 011b E60E76C2 		.ascii	"\346\016v\302\212\240Q\342'\025y\367\303\354\247\004"
  78      8AA051E2 
  78      271579F7 
  78      C3ECA704 
  79 012b 754FF09A 		.ascii	"uO\360\232\357\247\310&\344C\310\017\224K\252\315\267"
  79      EFA7C826 
  79      E443C80F 
  79      944BAACD 
  79      B7
  80 013c 30FD7DEF 		.ascii	"0\375}\357\353\217L\224\2210\207\366c\310\2419\310\303"
  80      EB8F4C94 
  80      913087F6 
  80      63C8A139 
  80      C8C3
  81 014e 148D97BD 		.ascii	"\024\215\227\275\3351\036~y\244\037\346`*\207\021\346"
  81      DD311E7E 
  81      79A41FE6 
  81      602A8711 
  81      E6
  82 015f 68CD6EF4 		.ascii	"h\315n\364\235\217\007\351!\270\014\202a\020&\245\253"
  82      9D8F07E9 
  82      21B80C82 
ARM GAS  /tmp/cc0VxuqZ.s 			page 6


  82      611026A5 
  82      AB
  83 0170 2A08796C 		.ascii	"*\010yl\256\0329\\\241\327p\207.\034\331D\240%\303@"
  83      AE1A395C 
  83      A1D77087 
  83      2E1CD944 
  83      A025C340 
  84 0184 BED53EFD 		.ascii	"\276\325>\375\237\374A\227\265\021\267\34619\015\357"
  84      9FFC4197 
  84      B511B7E6 
  84      31390DEF 
  85 0194 61A65D5F 		.ascii	"a\246]_[\300\316\357\237\204}\277!uI!K\325\366J=Y\331"
  85      5BC0CEEF 
  85      9F847DBF 
  85      21754921 
  85      4BD5F64A 
  86 01ab D8DBD91D 		.ascii	"\330\333\331\035\355\330\207(\207\013\004\012\016\015"
  86      EDD88728 
  86      870B040A 
  86      0E0D
  87 01b9 C40E4D0E 		.ascii	"\304\016M\016_a\277\242\265\240\326~\261\246EZP\347"
  87      5F61BFA2 
  87      B5A0D67E 
  87      B1A6455A 
  87      50E7
  88 01cb 15A585AC 		.ascii	"\025\245\205\254\315\230\305\262c\231\242\\\2300\013"
  88      CD98C5B2 
  88      6399A25C 
  88      98300B
  89 01da D65D5314 		.ascii	"\326]S\024\355\274]\366\314\212[-\3352i\342VL\317\025"
  89      EDBC5DF6 
  89      CC8A5B2D 
  89      DD3269E2 
  89      564CCF15 
  90 01ee B42ECAA5 		.ascii	"\264.\312\245\302\200\200\241\243\004\326\275\212yy"
  90      C28080A1 
  90      A304D6BD 
  90      8A7979
  91 01fd 243B9C35 		.ascii	"$;\2345\355\222\270]-\310Z\327\272)\234+\325\222\030"
  91      ED92B85D 
  91      2DC85AD7 
  91      BA299C2B 
  91      D59218
  92 0210 28426A24 		.ascii	"(Bj$;\232\316\347<\353\216k\237K\237\311\000s!\341X"
  92      3B9ACEE7 
  92      3CEB8E6B 
  92      9F4B9FC9 
  92      007321E1 
  93 0225 4ED99D80 		.ascii	"N\331\235\200K\307H\023Q\213\236(\026\010\370\017\355"
  93      4BC74813 
  93      518B9E28 
  93      1608F80F 
  93      ED
  94 0236 33F5BD   		.ascii	"3\365\275"
  95              		.text
  96              		.section	.gnu.lto_chCondSignalI.3f04d19e9eacc76f,"",%progbits
  97 0000 789C8D52 		.ascii	"x\234\215R\315K\033A\024\177of\223&A\250\320\177\240"
ARM GAS  /tmp/cc0VxuqZ.s 			page 7


  97      CD4B1B41 
  97      147F6F66 
  97      932641A8 
  97      D07FA0
  98 0013 E0D18FB5 		.ascii	"\340\321\217\265\305\213\207\374\027\015To\311l\310"
  98      C58B87FC 
  98      170D546F 
  98      C96CC8
  99 0022 0ED60412 		.ascii	"\016\326\004\022-\250\210\233&\322\366\244\307\222\010"
  99      2DA8889B 
  99      26D2F6A4 
  99      C79208
 100 0031 C58BA082 		.ascii	"\305\213\240\202Q\274\344$9\224R\011*\271(H)\351\275"
 100      51BCE424 
 100      39945209 
 100      2AB92848 
 100      29E9BD
 101 0044 503D28F8 		.ascii	"P=(\370\001\366\315\3146\331\346b\007v\336\333\231\371"
 101      01F6CDCC 
 101      36D9E662 
 101      0776DEDB 
 101      99F9
 102 0056 7DBC37C3 		.ascii	"}\2747\303\200A\357xI\337\006-g(b\010\220\255\036\003"
 102      8041EF78 
 102      49DF062D 
 102      67286208 
 102      90AD1E03 
 103 006a 14238CF1 		.ascii	"\024#\214\361j\034\274\230u\325\017^\037G\313,[\210"
 103      6A1CBC98 
 103      75D50F5E 
 103      1F47CB2C 
 103      5B88
 104 007c 2A018425 		.ascii	"*\001\204%\306-\\\232@MRc\215\366\303\303\316\301\373"
 104      C62D5C9A 
 104      404D5263 
 104      8DF6C3C3 
 104      CEC1FB
 105 008f DA1A7E66 		.ascii	"\332\032~f}\014\247\0218H\204\010M\030U\023\235\012"
 105      7D0CA711 
 105      38488408 
 105      4D185513 
 105      9D0A
 106 00a1 41D9F356 		.ascii	"A\331\363V\237\003\010\215zE\263\"K S\221\037\301\273"
 106      9F03088D 
 106      7A45B322 
 106      4B205391 
 106      1FC1BB
 107 00b4 DBD2FECA 		.ascii	"\333\322\376\312p\022\327\311H\006\371\002\314\023\305"
 107      7012D7C9 
 107      4806F902 
 107      CC13C5
 108 00c3 206C7934 		.ascii	" ly4\012\022Y\025*(\221g\220\275\246hi\351\024\006\212"
 108      0A125915 
 108      2A289167 
 108      90BDA668 
 108      69E91406 
 109 00d8 218AF3FB 		.ascii	"!\212\363\373\312\217\263PG\312$\215\217\327t\314\020"
ARM GAS  /tmp/cc0VxuqZ.s 			page 8


 109      CA8FB350 
 109      47CA248D 
 109      8FD774CC 
 109      10
 110 00e9 0BED85F8 		.ascii	"\013\355\205\370#\206\271}z\031'\177\304]\364\274~R"
 110      2386B97D 
 110      7A19277F 
 110      C45DF4BC 
 110      7E52
 111 00fb F1E9C1A7 		.ascii	"\361\351\301\247\327\300\015\002\322\370\006\345_?\227"
 111      D7C00D02 
 111      D2F806E5 
 111      5F3F97
 112 010a EF463B16 		.ascii	"\357F;\026\211\245\253\236@\016\32587&\276~\232\354"
 112      89A5AB9E 
 112      400ED538 
 112      3726BE7E 
 112      9AEC
 113 011c 35D1BCBE 		.ascii	"5\321\274\276\344\201.\030\022P\355`\306Q\324wt\266"
 113      E4812E18 
 113      1250ED60 
 113      C651D477 
 113      74B6
 114 012e F7A5852C 		.ascii	"\367\245\205,h*DB\312\024\372\246\230\202o\0318\351"
 114      682A4442 
 114      CA14FAA6 
 114      98826F19 
 114      38E9
 115 0140 1DEEC692 		.ascii	"\035\356\306\222\270I\277~\263^<Z\220\306\222\242\206"
 115      B849BF7E 
 115      B35E3C5A 
 115      90C692A2 
 115      86
 116 0151 372F9EFD 		.ascii	"7/\236\375\003_\354\221\216\006\245y\000\3165\274\376"
 116      035FEC91 
 116      8E06A579 
 116      00CE35BC 
 116      FE
 117 0162 BDBE3294 		.ascii	"\275\2762\224\304\355.\301\270\304\260\237>\225\370"
 117      C4ED2EC1 
 117      B8C4B09F 
 117      3E95F8
 118 0171 C4DC5B6F 		.ascii	"\304\334[o\015\177\357O\027\001j'\254\222\023(\267\177"
 118      0D7FEF4F 
 118      17016A27 
 118      AC921328 
 118      B77F
 119 0183 9762860F 		.ascii	"\227b\206\017`\001n\275\017\312GD(9ssR\0317-\267\364"
 119      60016EBD 
 119      0FCA4744 
 119      28397373 
 119      5219372D 
 120 0199 DB6941B1 		.ascii	"\333iA\261}3\320\351(\230\367\205jO\365v\324vs\323i"
 120      7D33D0E9 
 120      2898F785 
 120      6A4FF576 
 120      D47673D3 
ARM GAS  /tmp/cc0VxuqZ.s 			page 9


 121 01ae 5BE49C39 		.ascii	"[\344\2349\333I\277\265\205+S2W\260g\362\263\331)\233"
 121      DB49BFB5 
 121      852B5332 
 121      57B067F2 
 121      B3D9299B 
 122 01c2 92FC8C5D 		.ascii	"\222\374\214]\310\013Z\027\271\2543\"`\354?\0002+\336"
 122      C80B5A17 
 122      B9AC3322 
 122      60EC3F00 
 122      322BDE
 123 01d5 CC3A74C8 		.ascii	"\314:t\310-\010\327\031q\341\017=:\312\275"
 123      2D08D719 
 123      71E10F3D 
 123      3ACABD
 124              		.text
 125              		.section	.gnu.lto_chCondBroadcastI.3f04d19e9eacc76f,"",%progbits
 126 0000 789C8D52 		.ascii	"x\234\215RMk\024A\020\255\352\236\336\035\007\005\301"
 126      4D6B1441 
 126      10ADEA9E 
 126      DE1D0705 
 126      C1
 127 0011 1FA0172F 		.ascii	"\037\240\027/\0062\212^<\370/vA\275mz\302\314\240\331"
 127      06328A5E 
 127      3CF82F76 
 127      41BD6D7A 
 127      C2CCA0D9 
 128 0025 85DD44D0 		.ascii	"\205\335D\320 \333\033\347 \350!\027A\342\305\217\233"
 128      20DB1BE7 
 128      20E82117 
 128      41E2C58F 
 128      9B
 129 0036 825110CC 		.ascii	"\202Q\020\314\315\010\342'~\004\017\201\200\270\344"
 129      CD08E227 
 129      7E040F81 
 129      80B8E4
 130 0045 2678C839 		.ascii	"&x\3109\004\327\327\323\235u\314E\013\246\252\272\273"
 130      04D7D7D3 
 130      9D75CC45 
 130      0BA6AABA 
 130      BB
 131 0056 DE7B35D5 		.ascii	"\336{5\325-H\320^;\203\357\026\266SD\256\021\213\305"
 131      2D48D05E 
 131      3B83EF16 
 131      B65344AE 
 131      118BC5
 132 0069 4F448350 		.ascii	"OD\203Pp\340\022\351\222\227a \344\3157D&RE\235\314"
 132      70E012E9 
 132      92976120 
 132      E4CD3744 
 132      2652459D 
 133 007e 7EC56CF7 		.ascii	"~\305l\367\211\251/d\240\270\177\216K\276e\261:\034"
 133      89A92F64 
 133      A0B87F8E 
 133      4BBE65B1 
 133      3A1C
 134 0090 8D1E6FBC 		.ascii	"\215\036o\274\177\266\303\217\304\001\3113L\001\345"
 134      7FB6C38F 
ARM GAS  /tmp/cc0VxuqZ.s 			page 10


 134      C401C933 
 134      4C01E5
 135 009f 4C0A8E43 		.ascii	"L\012\216C\233E\326\301\024\025\306,\036!\322\345\262"
 135      9B45D6C1 
 135      1415C62C 
 135      1E21D2E5 
 135      B2
 136 00b0 010FEA06 		.ascii	"\001\017\352\006\013\004\331dI\320\223\037iacg\351\365"
 136      0B04D964 
 136      49D0931F 
 136      69616367 
 136      E9F5
 137 00c2 EDF3E36A 		.ascii	"\355\363\343j\227\254\336\370\276\240\210Z|\217\025"
 137      97ACDEF8 
 137      BEA0885A 
 137      7C8F15
 138 00d1 084A8694 		.ascii	"\010J\206\224\243\011zh\214\031\256?}\265\306\0022w"
 138      A3097A68 
 138      8C19AE3F 
 138      7DB5C602 
 138      3277
 139 00e3 686960CC 		.ascii	"hi`\314\301\234E\312\301Yv\302DS6\266\370\001\2600h"
 139      C19C45CA 
 139      C15976C2 
 139      445336B6 
 139      F801B030 
 140 00f8 BC7B12B5 		.ascii	"\274{\022\265\370>\226\216\300\234\250be\312\322b\331"
 140      F83E968E 
 140      C09CA862 
 140      65CAD262 
 140      D9
 141 0109 63798C85 		.ascii	"cy\214\205b\011\377\260u\350/\370\325=\322QUZT\340p"
 141      6209FFB0 
 141      75E82FF8 
 141      D53DD251 
 141      555A54E0 
 142 011e 9FA9D8DA 		.ascii	"\237\251\330\332\\\277\313\356WR\016\347i\333\\\267"
 142      5CBFCBEE 
 142      57520EE7 
 142      69DB5CB7 
 143 012e C040B3BB 		.ascii	"\300@\263\2730\364\236\333R(\255|9\354\012\275\3227"
 143      30F49EDB 
 143      5228AD7C 
 143      39EC0ABD 
 143      D237
 144 0140 10D77CFE 		.ascii	"\020\327|\376\025y\035\262\\j\206UM\351cPF{R\3735\362"
 144      15791DB2 
 144      5C6A8655 
 144      4DE96350 
 144      467B52FB 
 145 0156 C67D57D5 		.ascii	"\306}W\325\304)\356\264\034\371\312\362\017\261\333"
 145      C429EEB4 
 145      1CF9CAF2 
 145      0FB1DB
 146 0165 503041C7 		.ascii	"P0A\307\300\344ENc\036N#\364c\331\347\271\325\237\361"
 146      C0E4454E 
 146      631E4E23 
ARM GAS  /tmp/cc0VxuqZ.s 			page 11


 146      F463D9E7 
 146      B9D59FF1 
 147 0179 901FEBF6 		.ascii	"\220\037\353\366\265\3151\215\232\247+\230\241\247y"
 147      B5CD318D 
 147      9AA72B98 
 147      A1A779
 148 0188 CEFFE029 		.ascii	"\316\377\340)\355-\025?\007'\307\215\244\325\263&\026"
 148      ED2D153F 
 148      0727C78D 
 148      A4D5B326 
 148      16
 149 0199 78286B34 		.ascii	"x(k4\030\2768\352Jv\255\201\036\212\272\235\335\361"
 149      18BE38EA 
 149      4A76AD81 
 149      1E8ABA9D 
 149      DDF1
 150 01ab 38EBCC4C 		.ascii	"8\353\314L\307\272\223\\\216\223\351K\261\316\362\251"
 150      C7BA935C 
 150      8E93E94B 
 150      B1CEF2A9 
 151 01bb BCD38B67 		.ascii	"\274\323\213g\273s\355\0131\222\356l\334\353j\354\353"
 151      BB73ED0B 
 151      3192EE6C 
 151      DCEB6AEC 
 151      EB
 152 01cc 4E3B99D4 		.ascii	"N;\231\324t\352?\000y[_\234KP\224\365t\226Lf\364\033"
 152      74EA3F00 
 152      795B5F9C 
 152      4B5094F5 
 152      74964C66 
 153 01e2 E3FBC6D6 		.ascii	"\343\373\306\326"
 154              		.text
 155              		.section	.gnu.lto_chCondBroadcast.3f04d19e9eacc76f,"",%progbits
 156 0000 789C8D50 		.ascii	"x\234\215P=K\003A\020\235\267\227\363\243K\251M\270"
 156      3D4B0341 
 156      109DB797 
 156      F3A34BA9 
 156      4DB8
 157 0012 C64EB2F9 		.ascii	"\306N\262\371\011\001A\260Hc\024\264\222\313\336a\026"
 157      090141B0 
 157      486314B4 
 157      92CBDE61 
 157      16
 158 0023 BD3BB95C 		.ascii	"\275;\271\\\304`\221K\214 \"\232\"\205\215\240 \210"
 158      C460914B 
 158      8C20229A 
 158      22858DA0 
 158      2088
 159 0035 20DAF803 		.ascii	" \332\370\003\374\005\221\350\037\020,mbk\023o\357b"
 159      FC0591E8 
 159      1F102C6D 
 159      626B136F 
 159      EF62
 160 0047 102D7461 		.ascii	"\020-tawfg\336\274}\373\0301\372\271\246\243]\000\321"
 160      776667DE 
 160      BC7DFB18 
 160      31FAB9A6 
ARM GAS  /tmp/cc0VxuqZ.s 			page 12


 160      A35D00D1 
 161 005b 4914A111 		.ascii	"I\024\241\021X\273K\324\230`\200J\010Tg\250\257\"\306"
 161      58BB4BD4 
 161      9860804A 
 161      085467A8 
 161      AF22C6
 162 006e DEB18797 		.ascii	"\336\261\207\227\301\340\266sx\177\204k6\251\301\211"
 162      C1E0B673 
 162      787F846B 
 162      36A9C189 
 163 007e EB3AB5C2 		.ascii	"\353:\265\302\260m\020\211\370\272\024\235jv\031LE\255"
 163      B06D1089 
 163      F8BA149D 
 163      6A76194C 
 163      45AD
 164 0090 4BCDF7B7 		.ascii	"K\315\367\267\316\353\324\010f\342\002:\305\344\240"
 164      CEEBD408 
 164      66E2023A 
 164      C5E4A0
 165 009f 4053A2B4 		.ascii	"@S\242\264DY\206\366q\026\236\346e\362\336\012$`\250"
 165      445986F6 
 165      71169EE6 
 165      65F2DE0A 
 165      2460A8
 166 00b2 6CD43F18 		.ascii	"l\324?\030\366\207\037y\244V\377\251w\203/\312]\372"
 166      F6871F79 
 166      A456FFA9 
 166      77832FCA 
 166      5DFA
 167 00c4 080FC2B4 		.ascii	"\010\017\302\264\204&\220p\254C\223H)\344\336\371\261"
 167      84269070 
 167      AC439348 
 167      29E4DEF9 
 167      B1
 168 00d5 FE0BA78B 		.ascii	"\376\013\247\213!\225\304\030\321\177\244\232\270\214"
 168      2195C418 
 168      D17FA49A 
 168      B88C
 169 00e3 7C8AA5D1 		.ascii	"|\212\245\3217i&\256\220ID\365\250\321o>\247F\263\224"
 169      376926AE 
 169      904944F5 
 169      A8D16F3E 
 169      A746B394 
 170 00f7 B802E586 		.ascii	"\270\002\345\206\302\346x\331sl.<\253\306-{\233\213"
 170      C2E678D9 
 170      736C2E3C 
 170      ABC62D7B 
 170      9B8B
 171 0109 B22C49AF 		.ascii	"\262,I\257\302\003\277\352n\360(\361\003^\361ET\027"
 171      C203BFEA 
 171      6EF028F1 
 171      035EF145 
 171      5417
 172 011b 9E6B6505 		.ascii	"\236ke\005\345\377\032\260w\002>W(.\024\271t\305f\325"
 172      E5FF1AB0 
 172      77023E57 
 172      282E14B9 
ARM GAS  /tmp/cc0VxuqZ.s 			page 13


 172      74C566D5 
 173 012f 5258DF5E 		.ascii	"RX\337^\023\316|\325\025\3312\245\013\305E\243dV\354"
 173      13CE7CD5 
 173      15D932A5 
 173      0BC545A3 
 173      6456EC
 174 0142 2D5FCE1A 		.ascii	"-_\316\03239b>\215;\266\343\3715\372\004y_xF"
 174      3339623E 
 174      8D3BB6E3 
 174      F935FA04 
 174      795F7846 
 175              		.text
 176              		.section	.gnu.lto_chCondWaitS.3f04d19e9eacc76f,"",%progbits
 177 0000 789C9554 		.ascii	"x\234\225TMH\224A\030~\337\371~vWwu\3731\350\022\342"
 177      4D489441 
 177      187EDFF9 
 177      7E765777 
 177      75FB31E8 
 178 0016 31C38D0C 		.ascii	"1\303\215\014D\242C\367n)\325Q\277\225\335\217Z5]+3"
 178      44A243F7 
 178      6E29D551 
 178      BF95DD8F 
 178      5A355D2B 
 179 002b F05BDB43 		.ascii	"\360[\333C`\007\021\202\312\304\225\020!\210\272e$\264"
 179      60071182 
 179      CAC49510 
 179      2188BA65 
 179      24B4
 180 003d D5C14C32 		.ascii	"\325\301L2\202\310\277\016K\036$\222\360\"\206\253n"
 180      82C8BF0E 
 180      4B1E2492 
 180      F02286AB 
 180      6E
 181 004e EF7C33FB 		.ascii	"\357|3\373\347\266h\003;\357\314\354<?\363\316;\037"
 181      E7B66803 
 181      3BEFCCEC 
 181      3C3FF3CE 
 181      3B1F
 182 0060 0306BBDB 		.ascii	"\003\006\273\333y\372\255j\000\343\024\321\001\310\006"
 182      79FAAD6A 
 182      00E314D1 
 182      01C806
 183 006f 6601224E 		.ascii	"f\001\"N\206\212\030(L\235\375\010`\225h\357\024\260"
 183      868A1828 
 183      4C9DFD08 
 183      609568EF 
 183      14B0
 184 0081 DC2AD373 		.ascii	"\334*\323s\247\272\330vNC\344\021\020z\231\242\352\032"
 184      A7BAD876 
 184      4E43E411 
 184      107A99A2 
 184      EA1A
 185 0093 F65E46CE 		.ascii	"\366^F\316\256T\301\250e\015&\306V~\342C+\036\215Y["
 185      AE54C1A8 
 185      650D26C6 
 185      567EE243 
 185      2B1E8D59 
ARM GAS  /tmp/cc0VxuqZ.s 			page 14


 186 00a8 A914A289 		.ascii	"\251\024\242\211\344\244\026\301@\270D\023\254\264\003"
 186      E4A416C1 
 186      40B84413 
 186      ACB403
 187 00b7 53F3ADD9 		.ascii	"S\363\255\331\330\201\370\233\331{G\255X\337\200\265"
 187      D881F89B 
 187      D97B47AD 
 187      58DF80B5 
 188 00c7 43501315 		.ascii	"CP\023\025\006u\373B\016\306_\315\316\2405hE\326R\251"
 188      0675FB42 
 188      0EC65FCD 
 188      CEA03568 
 188      45D652A9 
 189 00db 72135506 		.ascii	"r\023U\006g\366\002>g\361D*5\337\2771\214\025\014\232"
 189      67F6023E 
 189      67F1442A 
 189      35DFBF31 
 189      8C150C9A 
 190 00ef 7014AB40 		.ascii	"p\024\253@\305\020\202N\2231\232\270(>\241X\012&jn\271"
 190      C510824E 
 190      93319AB8 
 190      283EA158 
 190      0A266A6E 
 191 0104 E891B18C 		.ascii	"\350\221\261\214\026\365r\336y\251\343|\032D\351\010"
 191      16F572DE 
 191      79A9E37C 
 191      1A44E908 
 192 0114 95824820 		.ascii	"\225\202H \201[\240\326@\375\232\016\215\310((\237\240"
 192      815BA0D6 
 192      40FD9A0E 
 192      8DC82828 
 192      9FA0
 193 0126 6F718292 		.ascii	"oq\202\222\324\204\343\250A\000Y5<\265\250]$\236j8n"
 193      D484E3A8 
 193      41005935 
 193      3CB5A85D 
 193      249E6A38 
 194 013b A263081E 		.ascii	"\242c\010\036E,\313k\242\263\0076\255\273|\344\012!"
 194      452CCB6B 
 194      A2B30736 
 194      ADBB7CE4 
 194      0A21
 195 014d A7E20771 		.ascii	"\247\342\007q\331\366\233\021d\224\003\340\274[#_OI"
 195      D9F69B11 
 195      649403E0 
 195      BC5B235F 
 195      4F49
 196 015f 236947F1 		.ascii	"#iG\361\231o\006\200\0203\304\346\000\226\012\315Dj"
 196      996F0680 
 196      1033C4E6 
 196      00960ACD 
 196      446A
 197 0171 F47EBD89 		.ascii	"\364~\275\211%\031\301R\262\3035\322\334\214#\237\021"
 197      2519C152 
 197      B2C335D2 
 197      DC8C239F 
 197      11
ARM GAS  /tmp/cc0VxuqZ.s 			page 15


 198 0182 92DA6788 		.ascii	"\222\332g\210\256\375X\277-\230\0002\326\334\006\212"
 198      AEFD58BF 
 198      2D980032 
 198      D6DC068A 
 199 0192 5A235A13 		.ascii	"Z#Z\023=\266\221\231?\277\026\230\330)OWgb\231\034z"
 199      3DB69199 
 199      3FBF1698 
 199      D8294F57 
 199      6762991C 
 200 01a7 4C2C2745 		.ascii	"L,'E,\224SdT%\237j\223m\336Y\036>\221\316\226\336\003"
 200      2C945364 
 200      54259F6A 
 200      936DDE59 
 200      1E3E91CE 
 201 01be B7E88225 		.ascii	"\267\350\202%U\217\211^Au\200vs\252\203\222B\313\277"
 201      558F895E 
 201      41758076 
 201      73AA8392 
 201      42CBBF
 202 01d1 ED46E2A6 		.ascii	"\355F\342\246\262\265\223\277\2659\277S\220\245\376"
 202      B2B593BF 
 202      B539BF53 
 202      90A5FE
 203 01e0 EFEF3571 		.ascii	"\357\3575q\265\331d)\302\205G&knj}\316.\350\334t\271"
 203      B5D96429 
 203      C2854726 
 203      6B6E6A7D 
 203      CE2EE8DC 
 204 01f6 73FDEB1C 		.ascii	"s\375\353\034;!\264?@t\365\355\302\010e\341\2450\036"
 204      3B21B43F 
 204      4074F5ED 
 204      C20865E1 
 204      A5301E
 205 0209 E0B9116D 		.ascii	"\340\271\021m\001\334\264\300\036ow\323\242>\271\335"
 205      01DCB4C0 
 205      1E6F77D3 
 205      A23EB9DD 
 206 0219 C20DAA40 		.ascii	"\302\015\252@\317\3156\370 \271\244\245aevI\034\312"
 206      CFCD36F8 
 206      20B9A4A5 
 206      61657649 
 206      1CCA
 207 022b 95F4E44A 		.ascii	"\225\364\344J:r$9\366\305\2614\262\274\020\311\212!"
 207      3A722439 
 207      F6C5B134 
 207      B2BC10C9 
 207      8A21
 208 023d C9EC4A64 		.ascii	"\311\354Jd\0103\242\204\316\346\256\201\316\025\233"
 208      0833A284 
 208      CEE6AE81 
 208      CE159B
 209 024c 026CA4FF 		.ascii	"\002l\244\377D\375NO$\223rs\366N\241\250R6-\001Y\037"
 209      44FD4E4F 
 209      24937273 
 209      F64EA1A8 
 209      52362D01 
 210 0262 8BF3C9A5 		.ascii	"\213\363\311\245Lf\274\266Q(zDg\376\021\247\327\034"
ARM GAS  /tmp/cc0VxuqZ.s 			page 16


 210      4C66BCB6 
 210      51287A44 
 210      67FE11A7 
 210      D71C
 211 0274 FB9776E6 		.ascii	"\373\227v\346H{ei&\227\325<\202\033\373\023\017\360"
 211      487B6569 
 211      2697D53C 
 211      821BFB13 
 211      0FF0
 212 0286 32B7F54B 		.ascii	"2\267\365K\363\340gw\301\275\305\216\316\304\033\032"
 212      F3E06777 
 212      C1BDC58E 
 212      CEC41B1A 
 213 0296 DC8861C1 		.ascii	"\334\210a\301#:l\310\242\347\340\012\007}S\216\310D"
 213      233A6CC8 
 213      A2E7E00A 
 213      077D538E 
 213      C844
 214 02a8 FDAE4F97 		.ascii	"\375\256O\227\276K\012^\240/\243\034\326\357\371\224"
 214      BE4B0A5E 
 214      A02FA31C 
 214      D6EFF994 
 215 02b8 5CF21249 		.ascii	"\\\362\022I9\361z\334\361\257\327\253\345\275\336/\020"
 215      39F17ADC 
 215      F1AFD7AB 
 215      E5BDDE2F 
 215      10
 216 02c9 494C0632 		.ascii	"IL\0062\232\351\022@\272z\376\314O\372\202m\241\026"
 216      9AE91240 
 216      BA7AFECC 
 216      4FFA826D 
 216      A116
 217 02db 9FD1E6EF 		.ascii	"\237\321\346\357\366\371[\256\373\214\240\331l\266u"
 217      F6F95BAE 
 217      FB8CA0D9 
 217      6CB675
 218 02ea FAC21D5D 		.ascii	"\372\302\035]\255W|4\350\010\373:;\014Z7\332Z\3755\006"
 218      AD577C34 
 218      E808FB3A 
 218      3B0C5A37 
 218      DA5AFD35 
 219 02ff 2846B85D 		.ascii	"(F\270]\011u\006\224\360\265\366\332}\200\315V\343j"
 219      09750694 
 219      F0B5F6DA 
 219      7D80CD56 
 219      E36A
 220 0311 979F3605 		.ascii	"\227\2376\005C\341\2335A8\375_\230N#\350'\320_t\365"
 220      43E19B35 
 220      4138FD5F 
 220      984E23E8 
 220      27D05F74 
 221 0326 A6F8     		.ascii	"\246\370"
 222              		.text
 223              		.section	.gnu.lto_chCondWait.3f04d19e9eacc76f,"",%progbits
 224 0000 789C8D4F 		.ascii	"x\234\215O\317K\002A\024~o\326\315\272I\247\202\220"
 224      CF4B0241 
 224      147E6FD6 
ARM GAS  /tmp/cc0VxuqZ.s 			page 17


 224      CDBA49A7 
 224      8290
 225 0012 25E8168E 		.ascii	"%\350\026\216\320? \004A\007/iP'\321q\321\245\326\255"
 225      D03F2004 
 225      41072F69 
 225      5027D171 
 225      D1A5D6AD 
 226 0026 5543E9E0 		.ascii	"UC\351\340\032\036\012:\010u\250C\220\004A\020\324\271"
 226      1A1E0A3A 
 226      0875A843 
 226      90044110 
 226      D4B9
 227 0038 93D72E46 		.ascii	"\223\327.F\177\200 F\347\354X\004\333\233]\223\352R"
 227      7F802046 
 227      E7EC5804 
 227      DB9B5D93 
 227      EA52
 228 004a 6F98796F 		.ascii	"o\230yo\336\257\357\373\0300\370m\323t\267\021\340\210"
 228      DEAFEFFB 
 228      1830F86D 
 228      D374B711 
 228      E088
 229 005c 3C2A80AC 		.ascii	"<*\200\254\331\001\250\2173D\031\000B\215am\035e+\316"
 229      D901A88F 
 229      33441900 
 229      428D616D 
 229      1D652BCE 
 230 0070 42CB719A 		.ascii	"B\313q\232\275\347\273{<u\332\215s\347\303u\021\015"
 230      BDE7BB7B 
 230      3C75DA8D 
 230      73E7C375 
 230      110D
 231 0082 A4B50B08 		.ascii	"\244\265\013\010\002a\215>\250y\216\005~\342\334\260"
 231      02618D3E 
 231      A8798E05 
 231      7EE2DCB0 
 232 0092 76CF75AF 		.ascii	"v\317u\257\273\203\376\033NN(h\"\250\220\306\026-%S"
 232      BB83FE1B 
 232      4E4E2868 
 232      22A890C6 
 232      162D2553 
 233 00a6 A1419BB5 		.ascii	"\241A\233\265\257\277\360\360\222\364J\022\253\310\244"
 233      AFBFF0F0 
 233      92F44A12 
 233      ABC8A4
 234 00b5 573AB0F7 		.ascii	"W:\260\367\372r\37445l\006\032\277@\325cF\247\242Hu"
 234      FA72FC34 
 234      356C061A 
 234      BF40D563 
 234      46A7A248 
 235 00ca 8A2F310C 		.ascii	"\212/1\014\007x\346\234\304\014\222D&\011\0054\031\215"
 235      0778E69C 
 235      C40C9244 
 235      26090534 
 235      198D
 236 00dc EA87C3BA 		.ascii	"\352\207\303\272\352\323{\200\306\240\337\235\3617\346"
 236      EAD37B80 
ARM GAS  /tmp/cc0VxuqZ.s 			page 18


 236      C6A0DF9D 
 236      F137E6
 237 00eb 50DD8577 		.ascii	"P\335\205wg\337\011\0318&\320#CI\305\300 \300\177X\244"
 237      67DF0919 
 237      3826D023 
 237      4349C5C0 
 237      20C07F58 
 238 0100 F192803D 		.ascii	"\361\222\200=T\370\206\232\306+\014\373x\217P\277\335"
 238      54F8869A 
 238      C62B0CFB 
 238      788F50BF 
 238      DD
 239 0111 4B8DE0FC 		.ascii	"K\215\340\374d\222\240H\250\354\215\362\274e\352\\X"
 239      6492A048 
 239      A8EC8DF2 
 239      BC65EA5C 
 239      58
 240 0122 D92ACFEA 		.ascii	"\331*\317\352;\\\344\215\214a\025y\311.\02768\005v\211"
 240      3B5CE48D 
 240      8C611579 
 240      C92E1736 
 240      38057689 
 241 0136 176D4179 		.ascii	"\027mAya\025\262\021\001\212Y\314\305\376\032\322+%"
 241      6115B211 
 241      018A59CC 
 241      C5FE1AD2 
 241      2B25
 242 0148 BE184F2C 		.ascii	"\276\030O,'\270Q\020\233\345\254\354\265\365\2240\227"
 242      27B85110 
 242      9BE5ACEC 
 242      B5F59430 
 242      97
 243 0159 CA0511C9 		.ascii	"\312\005\021\311C(\236X\3212\351\242\276e\033\363\332"
 243      43289E58 
 243      D132E9A2 
 243      BE651BF3 
 243      DA
 244 016a 5C14980D 		.ascii	"\\\024\230\015AS7-\273\012\2377\346\203\202"
 244      4153372D 
 244      BB0A9F37 
 244      E68382
 245              		.text
 246              		.section	.gnu.lto_chCondWaitTimeoutS.3f04d19e9eacc76f,"",%progbits
 247 0000 789C9553 		.ascii	"x\234\225S[k\023A\024>gw\366\222\3066iS/\010\225\242"
 247      5B6B1341 
 247      143E6777 
 247      F692C636 
 247      69532F08 
 248 0016 6F2AC61B 		.ascii	"o*\306\033\024\021\037\374\017\026\3641nB\262hZm\342"
 248      14111FFC 
 248      0F16F431 
 248      6E42B268 
 248      5A6DE2
 249 0029 1DE9462B 		.ascii	"\035\351F+\010>(\372\242Vh\253x\353K\253\242\010*D\021"
 249      083E28FA 
 249      A25668AB 
 249      78EB4BAB 
ARM GAS  /tmp/cc0VxuqZ.s 			page 19


 249      A2082A44 
 250 003e AC161515 		.ascii	"\254\026\025\025\324Z\320\200\210\012\"\001\025\245"
 250      D45AD080 
 250      880A2201 
 250      15A5
 251 004c 51E3999D 		.ascii	"Q\343\231\235\311\272\251-\266\013\311\314\234\231\357"
 251      C9BAA92D 
 251      B60BC9CC 
 251      9C99EF
 252 005b 3BDFB929 		.ascii	";\337\271)\240\300\370/A\277\005:\300(\255\030\000T"
 252      A0C0F82F 
 252      41BF053A 
 252      C028AD18 
 252      0054
 253 006d 8E3C02C8 		.ascii	"\216<\002\310\231\012\252b\243*\354\321\003\000\247"
 253      990AAA62 
 253      A32AECD1 
 253      0300A7
 254 007c 46BBA382 		.ascii	"F\273\243\2023\203)\246\377h\212gk5E\037ZJVc\250\211"
 254      338329A6 
 254      FF688A67 
 254      6B35451F 
 254      5A4A5663 
 255 0092 AC3A1A02 		.ascii	"\254:\032\002l \362\015 t**35\335\300\316\015\310\335"
 255      6C20F20D 
 255      20742A2A 
 255      3335DDC0 
 255      CE0DC8DD 
 256 00a6 2AF3A1CF 		.ascii	"*\363\241\317q\216\024\336]~\200'\234|W\257\363\263"
 256      718E14DE 
 256      5D7E8027 
 256      9C7C57AF 
 256      F3B3
 257 00b8 5C46B491 		.ascii	"\\F\264\221$\256@\260\020\326\323\001\233\335Ea\325"
 257      24AE40B0 
 257      10D6D301 
 257      9BDD4561 
 257      D5
 258 00c9 9A5DECD1 		.ascii	"\232]\354\321\374\261g\303\350\034ur\305r9d\243\252"
 258      FCB167C3 
 258      E81C7572 
 258      C5723964 
 258      A3AA
 259 00db 40CBFF80 		.ascii	"@\313\377\200\003J\276P.\017]*~m\234\303\300F\246a\032"
 259      034ABE50 
 259      2E0F5D2A 
 259      7E6D9CC3 
 259      C046A661 
 260 00f0 C180189E 		.ascii	"\301\200\030\236\301\371\020\240\003\006\351\320G\207"
 260      C1F910A0 
 260      0306E9D0 
 260      4787
 261 00fe 5A7E5D47 		.ascii	"Z~]G\177ZH^\207\345ZOF\275\201\377E\370\033\242\325"
 261      7F5A485E 
 261      87E55A4F 
 261      46BD81FF 
 261      45F81BA2 
ARM GAS  /tmp/cc0VxuqZ.s 			page 20


 262 0113 A08B6269 		.ascii	"\240\213bi\026@\340\032\350[G\377E\035ZQ\241E}\010\373"
 262      1640E01A 
 262      E85B47FF 
 262      451D5A51 
 262      A1457D08 
 263 0128 5EFD7CFD 		.ascii	"^\375|\375|\245|Z\301\344\007\016_\320\242\036\203g"
 263      7CA57C5A 
 263      C1E4070E 
 263      5FD0A21E 
 263      8367
 264 013a 1EFE1407 		.ascii	"\036\376\024\007rw\0265bs\351,tk\227\304\332E\320\357"
 264      72771635 
 264      6273E92C 
 264      746B97C4 
 264      DA45D0EF 
 265 014e 384EE1FB 		.ascii	"8N\341\373\325\263\013\311\27589\253l4\272\341d\316"
 265      D5B30BC9 
 265      BD3839AB 
 265      6C34BAE1 
 265      64CE
 266 0160 71C2369A 		.ascii	"q\3026\232{`\3149\310w\201\264\013\343\271\010\270\031"
 266      7B60CC39 
 266      C87781B4 
 266      0BE3B908 
 266      B819
 267 0172 D8C8C962 		.ascii	"\330\310\311bx\236\210i\217\336\036\300U8\226\357\327"
 267      789E8869 
 267      8FDE1EC0 
 267      553896EF 
 267      D7
 268 0183 6378812C 		.ascii	"cx\201,I\254\223\324\031\033k<\352 \011\340lL\262)\234"
 268      49AC93D4 
 268      191B6B3C 
 268      EA2009E0 
 268      6C4CB229 
 269 0198 E1A26078 		.ascii	"\341\242`x\014]\305\323\335{\205l\000O\304\014\013U"
 269      0C5DC5D3 
 269      DD7B856C 
 269      004FC40C 
 269      0B55
 270 01aa 10E2EB6C 		.ascii	"\020\342\353l\254\025\256~\\\233+\036&y\014\"\222\205"
 270      AC15AE7E 
 270      5C9B2B1E 
 270      26790C22 
 270      9285
 271 01bc D3090264 		.ascii	"\323\011\002d\000 \305\017\017\006\005\241\224\275\332"
 271      0020C50F 
 271      0F0605A1 
 271      94BDDA
 272 01cb F6225866 		.ascii	"\366\"Xfc\210x\321\225\317\374\362U\2712\251Os\251\306"
 272      638878D1 
 272      95CFFCF2 
 272      55B932A9 
 272      4F73A9C6 
 273 01df F67F39B7 		.ascii	"\366\1779\267\270\242\316\330\003\273\251\273$U\247"
 273      B8A2CED8 
 273      03BBA9BB 
ARM GAS  /tmp/cc0VxuqZ.s 			page 21


 273      2455A7
 274 01ee 8D614155 		.ascii	"\215aAUO\2579U\203\244\320\252[\255\225\270\251\367"
 274      4FAF3955 
 274      83A4D0AA 
 274      5BAD95B8 
 274      A9F7
 275 0200 45E1AF8C 		.ascii	"E\341\257\214\374^>\276\304\207>\337\325DC\375\2554"
 275      FC5E3EBE 
 275      C4873EDF 
 275      D54443FD 
 275      AD34
 276 0212 132AC2B2 		.ascii	"\023*\302\262\304=\303\337^\360\231`\376\364\207\374"
 276      C43DC3DF 
 276      5EF09960 
 276      FEF487FC 
 277 0222 FA758EBD 		.ascii	"\372u\216\275)|\017A\327\247\333#=J\014o\010\341DTQ"
 277      297C0F41 
 277      D7A7DB23 
 277      3D4A0C6F 
 277      08E14454 
 278 0237 33022132 		.ascii	"3\002!2(\247~\355\"\243y\363W\202\013d@\243\354\012"
 278      28A77EED 
 278      22A379F3 
 278      57820B64 
 278      40A3EC0A 
 279 024b 3C5E1AD5 		.ascii	"<^\032\325*\260z\267\016\021\277\313\260\337\245\341"
 279      2AB07AB7 
 279      0E11BFCB 
 279      B0DFA5E1 
 280 025b 73C9B183 		.ascii	"s\311\261\203\363*\310\206\177\221l2$\211}\237\353F"
 280      F32AC886 
 280      7F916C32 
 280      24897D9F 
 280      EB46
 281 026d CF6952E6 		.ascii	"\317iR\346\021\304\350\230\320{\017\260\225\356\304"
 281      11C4E898 
 281      D07B0FB0 
 281      95EEC4
 282 027c ECDCBF5E 		.ascii	"\354\334\277^*\311\307\262\020\265\343\322\302&N\213"
 282      2AC9C7B2 
 282      10B5E3D2 
 282      C2264E8B 
 283 028c 9B032EF3 		.ascii	"\233\003.\363ei\324\313LD4\334\244!\232\325!\336/\032"
 283      6569D4CB 
 283      4C4434DC 
 283      A4219AD5 
 283      21DE2F1A 
 284 02a0 53776DFA 		.ascii	"Swm\372\\GDc\376(\275eU\004;\246\346<\311m\256\377`"
 284      5C474463 
 284      FE28BD65 
 284      55043BA6 
 284      E63CC96D 
 285 02b7 157CCD38 		.ascii	"\025|\3158xd\262\320\031\237\311\003\305\247\335M\225"
 285      7864B2D0 
 285      199FC903 
 285      C5A7DD4D 
 285      95
ARM GAS  /tmp/cc0VxuqZ.s 			page 22


 286 02c8 660E7A43 		.ascii	"f\016zC\325h\311\216\345\340\231\006\335\005l\234%\273"
 286      D568C98E 
 286      E5E09906 
 286      DD056C9C 
 286      25BB
 287 02da E8D631D5 		.ascii	"\350\3261\325C\360\373\331\345\312\207\235\376\026\327"
 287      43F0FBD9 
 287      E5CA879D 
 287      FE16D7
 288 02e9 E10C5369 		.ascii	"\341\014Si\354\013o>\032\023\215\275^5\366\002c\360"
 288      EC0B6F3E 
 288      1A138DBD 
 288      5E35F602 
 288      63F0
 289 02fb 923E815C 		.ascii	"\222>\201\\\341\203\355\371\250\224\035\351\216\217"
 289      E183EDF9 
 289      A8941DE9 
 289      8E8F
 290 0309 FAD268AA 		.ascii	"\372\322h\252=\235\210Z\355\361]\321xb{\324J\331\033"
 290      3D9D885A 
 290      EDF15DD1 
 290      78627BD4 
 290      4AD91B
 291 031c EDF64C34 		.ascii	"\355\366L4\333\261\255mS\2246\035\331h\246\303\"\273"
 291      DBB1AD6D 
 291      5394361D 
 291      D968A6C3 
 291      22BB
 292 032e D5DE165F 		.ascii	"\325\336\026_b\201\232\316$\325\354\326--S\000\332m"
 292      62819ACE 
 292      24D5ECD6 
 292      2D2D5300 
 292      DA6D
 293 0340 D6E66D71 		.ascii	"\326\346mqz\224\312\246:\022\261xfI\012VL\013\227\316"
 293      7A94CAA6 
 293      3A12B178 
 293      66490A56 
 293      4C0B97CE 
 294 0354 EE24CCCA 		.ascii	"\356$\314\312ia2V*N\240?\033(\316\375"
 294      69613256 
 294      2A4EA03F 
 294      1B28CEFD 
 295              		.text
 296              		.section	.gnu.lto_chCondWaitTimeout.3f04d19e9eacc76f,"",%progbits
 297 0000 789C8D4F 		.ascii	"x\234\215OO+DQ\024?\277\373\346\217\254,Y\320K\331i"
 297      4F2B4451 
 297      143FBFFB 
 297      E68FAC2C 
 297      59D04BD9 
 298 0015 EE942F30 		.ascii	"\356\224/0\245\224\205\215\241Xi\346\316k\346\305\233"
 298      A594858D 
 298      A15869E6 
 298      CE6BE6C5 
 298      9B
 299 0026 A7373322 		.ascii	"\24773\"\013\217(\312\302\304\202\2052D)\305\007\260"
 299      0B8F28CA 
 299      C2C48285 
ARM GAS  /tmp/cc0VxuqZ.s 			page 23


 299      324429C5 
 299      07B0
 300 0038 9825A591 		.ascii	"\230%\245\221o\240|\000l\245\236s\337\033\302\206s\273"
 300      6FA07C00 
 300      6CA59E73 
 300      DF1BC286 
 300      73BB
 301 004a E7FF39BF 		.ascii	"\347\3779\277\337\021$\350\267\364\360_\006\321.[\030"
 301      DF1124E8 
 301      B7F4F05F 
 301      06D12E5B 
 301      18
 302 005b 04B1D322 		.ascii	"\004\261\323\"Z\355\020\200v\010\264\"\2602\015\335"
 302      5AED1080 
 302      7608B422 
 302      B0320DDD 
 303 006b 8A7E6AF8 		.ascii	"\212~j\370\376\316\343ip\213\003\277\271~\344\277\007"
 303      FECEE369 
 303      708B03BF 
 303      B97EE4BF 
 303      07
 304 007c 016083D7 		.ascii	"\001`\203\327\016\201\024h\212\003\230\241\021\261\237"
 304      0E811468 
 304      8A0398A1 
 304      11B19F
 305 008b 3897A2F9 		.ascii	"8\227\242\371\030\004w\301\305\3665nD\247\001\007\024"
 305      180477C1 
 305      C5F6356E 
 305      44A70107 
 305      14
 306 009c 638504E5 		.ascii	"c\205\004\345\320\340\325,qZ\347\375\346g\254B\324\011"
 306      D0E0D52C 
 306      715AE7FD 
 306      E667AC42 
 306      D409
 307 00ae D69ACA24 		.ascii	"\326\232\312$\204\266F\213\326^\237\367\236\272\333"
 307      84B6468B 
 307      D65E9FF7 
 307      9EBADB
 308 00bd CDC4E327 		.ascii	"\315\304\343'\210\207\374\370-\032\372F#:\264\217\266"
 308      8887FCF8 
 308      2D1AFA46 
 308      233AB48F 
 308      B6
 309 00ce 70E8EF67 		.ascii	"p\350\357gl>\214E\323\212\231\332\373\252o\267\353\361"
 309      6C3E8C45 
 309      D38A99DA 
 309      FBAA6FB7 
 309      EBF1
 310 00e0 88E43D6D 		.ascii	"\210\344=m\274\254\325{\243\215E$\226\351\315\337\364"
 310      BCACD57B 
 310      A38D4524 
 310      96E9CDDF 
 310      F4
 311 00f1 BB6C2414 		.ascii	"\273l$\024B2\2344\212\210\331H\022\375\207H\016g\214"
 311      42329C34 
 311      8A88D948 
ARM GAS  /tmp/cc0VxuqZ.s 			page 24


 311      12FD8748 
 311      0E678C
 312 0104 1D02D337 		.ascii	"\035\002\3237\340\034\316\321\027A>\320\352\325q\035"
 312      E01CCED1 
 312      17413ED0 
 312      EAD5711D 
 313 0114 5F905176 		.ascii	"_\220Qv\202\341\370X\335\234\226%\327\261\244r\013K"
 313      82E1F858 
 313      DD9C9625 
 313      D7B1A472 
 313      0B4B
 314 0126 B2602D48 		.ascii	"\262`-HU\262\363\266[\221U\257V\236\225\354xUY\361\024"
 314      55B2F3B6 
 314      5B9155AF 
 314      569E95EC 
 314      785559F1 
 315 013b E7955B2E 		.ascii	"\347\225[.\244\024\031N\245\230\371k\310Z\254\312\341"
 315      A414194E 
 315      A598F96B 
 315      C85AACCA 
 315      E1
 316 014c B1EC6856 		.ascii	"\261\354hV\332e5W+\350^\317\232Q\316H\255\254R%\352"
 316      DA653557 
 316      2BE85ECF 
 316      9A51CE48 
 316      ADAC5225 
 317 0161 1ACB8E9B 		.ascii	"\032\313\216\233\371\\\305\232\367\354As M\302\243\244"
 317      F95CC59A 
 317      F7EC4173 
 317      204DC2A3 
 317      A4
 318 0172 6339AEB7 		.ascii	"c9\256\267D\037\002\274\204A"
 318      441F02BC 
 318      8441
 319              		.text
 320              		.section	.gnu.lto_.symbol_nodes.3f04d19e9eacc76f,"",%progbits
 321 0000 789C4DCD 		.ascii	"x\234M\315=n\302@\020\206\341\371v\274\260\374\030h"
 321      3D6EC240 
 321      1086E1F9 
 321      76BCB0FC 
 321      1868
 322 0012 A972006E 		.ascii	"\251r\000n\304e>K\024\211\2508\001\005\034\305\035\005"
 322      C4653E4B 
 322      1489A838 
 322      01051CC5 
 322      1D05
 323 0024 674018C2 		.ascii	"g@\030\302\217,\020\"\211R\000\302`\304\3566\257\236"
 323      8F2C1022 
 323      895200C2 
 323      60C4EE36 
 323      AF9E
 324 0036 9991D688 		.ascii	"\231\221\326\210\221>\244|f\011\212\214\346\"\344\370"
 324      913EA47C 
 324      66098A8C 
 324      E622E4F8 
 325 0046 0B260311 		.ascii	"\013&\003\021p\005\232\200\337\240\006\\\203Q\300-h"
 325      70059A80 
ARM GAS  /tmp/cc0VxuqZ.s 			page 25


 325      DFA0065C 
 325      8351C02D 
 325      68
 326 0057 3DEDB9F8 		.ascii	"=\355\271\370\203b6`%8\332\203\325\200;\320y\"\007k"
 326      83623660 
 326      2538DA83 
 326      D5803BD0 
 326      7922076B 
 327 006b 25930438 		.ascii	"%\223\0048\202u\257\023\330\360\372\003\233^\277`\354"
 327      8275AF13 
 327      D8F0FA03 
 327      9B5EBF60 
 327      EC
 328 007c F503B6BC 		.ascii	"\365\003\266\274\376\301\366[\212\272d\327\025\3244"
 328      FEC1F65B 
 328      8ABA64D7 
 328      15D434
 329 008b CA6AD1CB 		.ascii	"\312j\321\313\261\247\221\312dq\203FMI\037\265\355W"
 329      B1A791CA 
 329      64718346 
 329      4D491FB5 
 329      ED57
 330 009d 5B927DE6 		.ascii	"[\222}\346\037jc\231\016\213Vmy\347^{\327\221\301c\356"
 330      1F6A6399 
 330      0E8B566D 
 330      79E75E7B 
 330      D791C163 
 331 00b2 62496787 		.ascii	"bIg\207\256\326\334s/wH%o\022"
 331      AED6DC73 
 331      2F774825 
 331      6F12
 332              		.text
 333              		.section	.gnu.lto_.refs.3f04d19e9eacc76f,"",%progbits
 334 0000 789C6362 		.ascii	"x\234cb`b\340f\200\000FV\0066&\016\0066 \004\000\002"
 334      6062E066 
 334      80004656 
 334      0636260E 
 334      06362004 
 335 0016 0F0032   		.ascii	"\017\0002"
 336              		.text
 337              		.section	.gnu.lto_.decls.3f04d19e9eacc76f,"",%progbits
 338 0000 789CBD5B 		.ascii	"x\234\275[{t\324\326\231\2274\343y`\003\016MRz\316\356"
 338      7B74D4D6 
 338      999734E3 
 338      7960030E 
 338      4D527ACE 
 339 0015 C6D99374 		.ascii	"\306\331\223tS\366$\346\325\000{N\003-{NHw\323\315\306"
 339      53F624E6 
 339      D5007B4E 
 339      032D7B4E 
 339      4877D3CD 
 340 002a CD69CED9 		.ascii	"\315i\316\331?\246b,\343)\363\212F\346q\332nd\033;M"
 340      3FA6622C 
 340      E329F38A 
 340      46E671DA 
 340      6E641B3B 
 341 003f 9A10DB10 		.ascii	"\232\020\333\020\240\3011v\200\020\302#@x\231\347\224"
ARM GAS  /tmp/cc0VxuqZ.s 			page 26


 341      A0C13176 
 341      8010C223 
 341      407899E7 
 341      94
 342 0050 629BA731 		.ascii	"b\233\2471\006\003\001B\354\244<\362jL\343@X\010\263"
 342      06030142 
 342      ECA43CF2 
 342      6A4CE340 
 342      5808B3
 343 0063 DFBDBA9A 		.ascii	"\337\275\272\232\221\356H\2624I;\307W\322h\356\375}"
 343      91EE48B2 
 343      34493BC7 
 343      57D268EE 
 343      FD7D
 344 0075 BFEFFB7E 		.ascii	"\277\357\373~\367J\367J\346\030\216y\321\3150)\370\374"
 344      F74AF74A 
 344      E6188E79 
 344      D1CD3029 
 344      F8FC
 345 0087 EF1486A9 		.ascii	"\357\024\206\251\3672\314\020\206a\036\201\302Ai\201"
 345      F732CC10 
 345      86611E81 
 345      C2416981 
 346 0097 B286513E 		.ascii	"\262\206Q>\205P6C\231\3112L\014J\002\312l(\277\206R"
 346      85503643 
 346      99C9324C 
 346      0C4A02CA 
 346      6C28BF86 
 347 00ac 09A5064A 		.ascii	"\011\245\006J=\224EP\226BY\006\345u(o@y\013\312Z(\360"
 347      3D944550 
 347      96425906 
 347      E575286F 
 347      40790BCA 
 348 00c3 C76C6419 		.ascii	"\307ld\031\335\007a\346A\361\201\301\275\260\337\016"
 348      DD0761E6 
 348      41F181C1 
 348      BDB0DF0E 
 349 00d3 651B9476 		.ascii	"e\033\224v(.({\240\010\320\246\215pB\365\375\234\202"
 349      282E287B 
 349      A008D0A6 
 349      8D7042F5 
 349      FD9C82
 350 00e6 554E6121 		.ascii	"UNa!n\005\004\013\265/\204}\017\354GP\330\035P\356\344"
 350      6E05040B 
 350      B52F847D 
 350      0FEC4750 
 350      D81D50EE 
 351 00fb 14FF1643 		.ascii	"\024\377\026C\0337\261\203l\034\205r\214Q\316!\274\273"
 351      1B37B183 
 351      6C1C8572 
 351      8C51CE21 
 351      BCBB
 352 010d A0DE3F71 		.ascii	"\240\336?q\212_\310\\\204\262\211b1Dc\223\266\203l\214"
 352      8A5FC85C 
 352      84B28962 
 352      31446393 
 352      B6836C8C 
ARM GAS  /tmp/cc0VxuqZ.s 			page 27


 353 0121 873AF7C1 		.ascii	"\207:\367\301\357\215\260\367\030\330\032\007\347\037"
 353      EF8DB0F7 
 353      18D81A07 
 353      E71F
 354 012f 263C621A 		.ascii	"&<b\032\233K\211\315g(\233\011b\263\235\330\355 vU\033"
 354      9B4B89CD 
 354      67289B09 
 354      62B39DD8 
 354      ED207655 
 355 0144 AA4D9587 		.ascii	"\252M\225\207\207\330j\243\354\355!1FxZ{\025\224=\224"
 355      87D86AA3 
 355      ECED2131 
 355      46785A7B 
 355      15943D94 
 356 0158 672F15CF 		.ascii	"g/\025\317\373\241l\201\343\357\303\276\231\324w\221"
 356      FBA16C81 
 356      E3EFC3BE 
 356      99D47791 
 357 0168 BA09927F 		.ascii	"\272\011\222\177tz.\205\205\364\362]\302}\030\243\344"
 357      747A2E85 
 357      85F4F25D 
 357      C27D18A3 
 357      E4
 358 0179 AB85F8F1 		.ascii	"\253\205\370\361?\304N+\3547A\371\0278\367$\253\370"
 358      3FC44E2B 
 358      EC3741F9 
 358      1738F724 
 358      ABF8
 359 018b F7001C2F 		.ascii	"\367\000\034/\207\343\311\3047m\234\273\241\374\200"
 359      87E3C9C4 
 359      376D9CBB 
 359      A1FC80
 360 019a 53B4BA8A 		.ascii	"S\264\272\212\304f;\354\017B\371oV\361\367\337\210\277"
 360      C4663BEC 
 360      0F42F96F 
 360      56F1F7DF 
 360      88BF
 361 01ac 280EC749 		.ascii	"(\016\307I\034\036&\371@\234Fq\212N\037\342\024\315"
 361      1C1E26F9 
 361      409C4671 
 361      8A4E1FE2 
 361      14CD
 362 01be 22ED22BD 		.ascii	"\"\355\"\275=\313fk\026\351\335Gx\253>hc3\001\312oH"
 362      3DCB666B 
 362      16E9DD47 
 362      78AB3E68 
 362      633301CA 
 363 01d4 1B8ED4FF 		.ascii	"\033\216\324\3775\211G5\205\205\372\315H\012K\325\322"
 363      35894735 
 363      8585FACD 
 363      480A4BD5 
 363      D2
 364 01e5 3789C744 		.ascii	"7\211\307D\022\217u\304G\277\315\230x\011'\024\217I"
 364      128F75C4 
 364      47BFCD98 
 364      78092714 
 364      8F49
ARM GAS  /tmp/cc0VxuqZ.s 			page 28


 365 01f7 9A98AC25 		.ascii	"\232\230\254%1A9~\011\366\363\015\342R?H\\~\004\245"
 365      3141397E 
 365      09F6F30D 
 365      E2523F48 
 365      5C7E04A5 
 366 020b 5613977A 		.ascii	"V\023\227z2n\240\343\005\260_H\341\371\231\337\311\360"
 366      326EA0E3 
 366      05B05F48 
 366      E1F999DF 
 366      C9F0
 367 021d 69AE95A7 		.ascii	"i\256\225\247\035\000\274\247Y\236\035\346g\212\360"
 367      1D00BCA7 
 367      599E1DE6 
 367      678AF0
 368 022c 41811F77 		.ascii	"A\201\037w\227\373\231\025\262\\\327\333v\371\212K\226"
 368      97FB9915 
 368      B25CD7DB 
 368      76F98A4B 
 368      96
 369 023d 7D3CDBC2 		.ascii	"}<\333\302\372\001\356?Xf\024\263\032\232\326\311\362"
 369      FA01EE3F 
 369      586614B3 
 369      1A9AD6C9 
 369      F2
 370 024e EBA32854 		.ascii	"\353\243(T\207\320W\333\367od\253d\031~X\211\301\177"
 370      87D057DB 
 370      F76F64AB 
 370      64197E58 
 370      89C17F
 371 0261 CB323CBB 		.ascii	"\3132<\273\202\035\345\030i\351\241m\0231\31171\316"
 371      821DE518 
 371      69E9A16D 
 371      1331C937 
 371      31CE
 372 0273 0E560FC4 		.ascii	"\016V\017\304\263\036\277\226\"\376\256V@h\360\025Y"
 372      B31EBF96 
 372      22FEAE56 
 372      4068F015 
 372      59
 373 0284 FA0A0DD7 		.ascii	"\372\012\015\327\354\263\344\014\372\342e\376\356\355"
 373      ECB3E40C 
 373      FAE265FE 
 373      EEED
 374 0292 B0D75572 		.ascii	"\260\327Ur\357Jy\344\222\214\327>\325kV\223\232K$5k"
 374      EF4A79E4 
 374      928CD73E 
 374      D56B5693 
 374      9A4B2435 
 375 02a7 B0D7FB59 		.ascii	"\260\327\373Y\203\360\331\002\272Z\273\356_1\320z\014"
 375      83F0D902 
 375      BA5ABBEE 
 375      5F31D07A 
 375      0C
 376 02b8 743467A0 		.ascii	"t4g\240\245/4)y\330\210\201z\262\362\300Ry`\365q\301"
 376      A52F3429 
 376      79D88881 
 376      7AB2F2C0 
ARM GAS  /tmp/cc0VxuqZ.s 			page 29


 376      527960F5 
 377 02ce 3F938394 		.ascii	"?\223\203\224^\\\337j\335{\230&\271\271\26775\277\223"
 377      5E5CDF6A 
 377      DD7B9826 
 377      B9B9B737 
 377      35BF93
 378 02e1 FF839C9C 		.ascii	"\377\203\234\234'\247R\3172w3\257\020\265\311\254\304"
 378      27A752CF 
 378      327733AF 
 378      10B5C9AC 
 378      C4
 379 02f2 B38FDC65 		.ascii	"\263\217\334e(8\004\276\205\275\033\037\271p\367b\362"
 379      283804BE 
 379      85BD1B1F 
 379      B970F762 
 379      F2
 380 0303 99175078 		.ascii	"\231\027Px\024\231\216`\352\021J\221F\260S\324\366\276"
 380      14998E60 
 380      EA114A91 
 380      46B053D4 
 380      F6BE
 381 0315 4CA08E77 		.ascii	"L\240\216w\357UR\267\235\035\001(m\234>P\203\241p\314"
 381      EF5552B7 
 381      9D1D0128 
 381      6D9C3E50 
 381      83A170CC 
 382 0329 59DC6227 		.ascii	"Y\334b'\264V\332a\\9y\243\205-RN3:@\335\347^\246\031"
 382      B456DA61 
 382      5C3979A3 
 382      852D524E 
 382      333A40DD 
 383 0341 D5BD79D1 		.ascii	"\325\275y\321/7\024\330$\274sqg=;\017\367\325\275\230"
 383      2F3714D8 
 383      24BC7371 
 383      673D3B0F 
 383      F7D5BD98 
 384 0355 F21B2E43 		.ascii	"\362\033.C\312\315S\3149o\305M\366Q\234{\227]8Y\311"
 384      CACD53CC 
 384      396FC54D 
 384      F6519C7B 
 384      975D3859 
 385 036a 5662E87D 		.ascii	"Vb\350}6\210W%{j_\373\236\334\274\217\035,\360\315n"
 385      36885725 
 385      7B6A5FFB 
 385      9EDCBC8F 
 385      1D2CF0CD 
 386 037f D5FEBF67 		.ascii	"\325\376\277g\034\331\261x?\213#\337\201\335\270e\354"
 386      1CD9B178 
 386      3F8B23DF 
 386      81DDB865 
 386      EC
 387 0390 86390CC7 		.ascii	"\2069\014\307\324\270Q\223CYn4]P\3358d\313\215\233\304"
 387      D4B85193 
 387      43596E34 
 387      5D50DD38 
 387      64CB8D9B 
 388 03a5 0D9E6D07 		.ascii	"\015\236m\007W8\346\3454\256\221\360\310\241\362!\025"
ARM GAS  /tmp/cc0VxuqZ.s 			page 30


 388      5738E6E5 
 388      34AE91F0 
 388      C8A1F221 
 388      15
 389 03b6 F478B7DB 		.ascii	"\364x\267\333\013\352x\025l\221c\260\"\035\330\202\216"
 389      0BEA7815 
 389      6C9163B0 
 389      221DD882 
 389      8E
 390 03c7 464C8EF4 		.ascii	"FL\216\364}\033c\360J\365B\321\215\373\376kn\303A\304"
 390      7D1B63F0 
 390      4AF542D1 
 390      8DFBFE6B 
 390      6EC341C4 
 391 03db CE65A1B6 		.ascii	"\316e\241\266\355\217\344\262\320\203\241V\346\014\265"
 391      ED8FE4B2 
 391      D083A156 
 391      E60CB5
 392 03ea F4855D93 		.ascii	"\364\205]\2230\2473\030h\275\233\036\217\274\324x\344"
 392      30A73318 
 392      68BD9B1E 
 392      8FBCD478 
 392      E4
 393 03fb D58F1B5E 		.ascii	"\325\217\033^\177\346\000\015\317\303\231\277qu\216"
 393      7FE6000D 
 393      CFC399BF 
 393      71758E
 394 040a 69B59338 		.ascii	"i\265\2238\237\231\012\344\336\246\246\213,\032\323"
 394      9F990AE4 
 394      DEA6A68B 
 394      2C1AD3
 395 0419 5C6A87F4 		.ascii	"\\j\207\364\230\305\210c\222\330\326{\264\2227^\352"
 395      98C58863 
 395      92D8D67B 
 395      B492375E 
 395      EA
 396 042a 7A70892C 		.ascii	"zp\211,\027*?\015.\344m\207\027\333\353\217\036\325"
 396      172A3F0D 
 396      2EE46D87 
 396      17DBEB8F 
 396      1ED5
 397 043c 7C29365F 		.ascii	"|)6_\225\207\314\177@\233\337\375\361\225G\024\363\037"
 397      9587CC7F 
 397      409BDFFD 
 397      F1954714 
 397      F31F
 398 044e D832FFFE 		.ascii	"\3302\377\376\261\205\331\346M\007p\242\214\215\227"
 398      B185D9E6 
 398      4D0770A2 
 398      8C8D97
 399 045d FA1F5886 		.ascii	"\372\037X\206\215\\\302\375\345H\036-\215\311\371\372"
 399      8D5CC2FD 
 399      E5481E2D 
 399      8DC9F9FA 
 400 046d E4C1774D 		.ascii	"\344\301wM\005\270\270\245\331\347\324]\301\315\344"
 400      05B8B8A5 
 400      D9E7D45D 
ARM GAS  /tmp/cc0VxuqZ.s 			page 31


 400      C1CDE4
 401 047c E4D59B64 		.ascii	"\344\325\233d\371y\217\312\341]\307\210E\272@\374\365"
 401      F9798FCA 
 401      E15DC788 
 401      45BA40FC 
 401      F5
 402 048d 181E0014 		.ascii	"\030\036\000\024\260\367\354\200\231\352\250*9\240\005"
 402      B0F7EC80 
 402      99EAA82A 
 402      39A005
 403 049c EB730CA6 		.ascii	"\353s\014\246gvM\013v\321\016X\2419\263\257\264`\037"
 403      67764D0B 
 403      76D10E58 
 403      A139B3AF 
 403      B4601F
 404 04af 3906D333 		.ascii	"9\006\3233\373?-\330gv\300F\2323\273\245\005\273\352"
 404      FB3F2DD8 
 404      6776C046 
 404      9A33BBA5 
 404      05BBEA
 405 04c2 184CCFEC 		.ascii	"\030L\317\354\266\026\354K;`E\346\314\352\2725`7\034"
 405      B616EC4B 
 405      3B6045E6 
 405      CCEABA35 
 405      60371C
 406 04d5 83E99935 		.ascii	"\203\351\2315h\301\276\266\003\366\2009\263\205Z\260"
 406      68C1BEB6 
 406      03F68039 
 406      B3855AB0 
 407 04e5 4A8F5330 		.ascii	"J\217S0=\263EZ\260\032;`\243\315\231-\321\202=\357\030"
 407      3DB3455A 
 407      B01A3B60 
 407      A3CD992D 
 407      D1823DEF 
 408 04fa 4CCFEC55 		.ascii	"L\317\354U-\330Kv\300&\2323k\324\202\325;\006\3233\333"
 408      2DD84B76 
 408      C0269A33 
 408      6BD482D5 
 408      3B06D333 
 409 050f A0057BC5 		.ascii	"\240\005{\305\016\330\024sf\233\264`K\034\203\351\231"
 409      0ED81473 
 409      669BB460 
 409      4B1C83E9 
 409      99
 410 0520 6DD6822D 		.ascii	"m\326\202-\265\0036\315\234\331V-X\223c0=\263\355Z\260"
 410      B50336CD 
 410      9CD9562D 
 410      58936330 
 410      3DB3ED5A 
 411 0535 163B604F 		.ascii	"\026;`O\2303\333\241\005[\341\030L\317l\227\026l\225"
 411      9833DBA1 
 411      055BE118 
 411      4CCF6C97 
 411      166C95
 412 0548 1DB0A7CD 		.ascii	"\035\260\247\315\231\355\321\202\255q\014\246g\326\245"
 412      99EDD182 
 412      AD710CA6 
ARM GAS  /tmp/cc0VxuqZ.s 			page 32


 412      67D6A5
 413 0557 057BDB0E 		.ascii	"\005{\333\016\330/\015\230\245?F\355\320e\272\217M_"
 413      D82F0D98 
 413      A53F46ED 
 413      D065BA8F 
 413      4D5F
 414 0569 B7396693 		.ascii	"\2679f\223G\275\301qx\215f2\030[=No\310t~\303\274\340"
 414      47BDC171 
 414      788D6632 
 414      185B3D4E 
 414      6FC8747E 
 415 0580 520BBBA0 		.ascii	"R\013\273\240Z>0Z\2757\337e\007\321\342\002\370j\207"
 415      5A3E305A 
 415      BD37DF65 
 415      07D1E202 
 415      F86A87
 416 0593 E6467FBF 		.ascii	"\346F\177\277c0J\312\010Lw\353\224\236\356'\255\247"
 416      63304ACA 
 416      084C77EB 
 416      949EEE27 
 416      ADA7
 417 05a5 FB680988 		.ascii	"\373h\011\210\323\254\015\2144\256\313\263\313\271\373"
 417      D3AC0D8C 
 417      34AECBB3 
 417      CBB9FB
 418 05b4 D1AD13E7 		.ascii	"\321\255\023\347O\263P\216\325\243\024^\250:\3421ZM"
 418      4FB3508E 
 418      D5A3145E 
 418      A83AE231 
 418      5A4D
 419 05c6 C200D64D 		.ascii	"\302\000\326M\315\224\320\302i\224p\334N\230,.\355\357"
 419      CD94D0C2 
 419      699470DC 
 419      4E982C2E 
 419      EDEF
 420 05d8 77347E57 		.ascii	"w4~W\356M\262\352b\313\031\032O\347\363\340W\367k\035"
 420      EE4DB2EA 
 420      62CB191A 
 420      4FE7F3E0 
 420      57F76B1D 
 421 05ec F91B7E69 		.ascii	"\371\033~i\177ae\245\272\324\363\026\207\254\367z\350"
 421      7F6165A5 
 421      BAD4F316 
 421      87ACF77A 
 421      E8
 422 05fd BBD5F50E 		.ascii	"\273\325\365\016WV8\346\212c\017\036\240t\275\277\201"
 422      575638E6 
 422      8A630F1E 
 422      A074BDBF 
 422      81
 423 060e FDA24A5E 		.ascii	"\375\242J^2\332\276\033\027U7\336\306n\364\177\013n"
 423      32DABE1B 
 423      175537DE 
 423      C66EF47F 
 423      0B6E
 424 0620 7CE5D88D 		.ascii	"|\345\330\215\321\0327\320\264\375\313\006\245{~\207"
 424      D11A37D0 
ARM GAS  /tmp/cc0VxuqZ.s 			page 33


 424      B4FDCB06 
 424      A57B7E87 
 425 0630 69B09E30 		.ascii	"i\260\2360!>\233\271\357\350W\\\336=\204V\\\320\351"
 425      213E9BB9 
 425      EFE8575C 
 425      DE3D8456 
 425      5CD0E9
 426 0643 C1575CAE 		.ascii	"\301W\\\256\037j$3~e15\205\271\243\266\016\207'\202"
 426      1F6A2433 
 426      7E653135 
 426      85B9A3B6 
 426      0E872782 
 427 0657 B7F0301E 		.ascii	"\267\3600\036\010\024\260Z\3577\001\253J\276\363{u9"
 427      0814B05A 
 427      EF3701AB 
 427      4ABEF37B 
 427      7539
 428 0669 62325E8D 		.ascii	"b2^\215\370\206p\307\017;]@\250\371\230\210c7\026\307"
 428      F88670C7 
 428      0F3B5D40 
 428      A8F99888 
 428      633716C7 
 429 067d 222F2D8E 		.ascii	"\"/-\216\036Z\034v\346\323\257\347\352G\372\3031\253"
 429      1E5A1C76 
 429      E6D3AFE7 
 429      EA47FAC3 
 429      31AB
 430 068f BD36068F 		.ascii	"\2756\006\217\"\323<\365.\273p\235hl\320I\271\272\334"
 430      22D33CF5 
 430      2EBB709D 
 430      686CD049 
 430      B9BADC
 431 06a2 76BABD92 		.ascii	"v\272\275\222,\267\375\211C\353T\353\250h\330\230\335"
 431      2CB7FD89 
 431      43EB54EB 
 431      A868D898 
 431      DD
 432 06b3 EFC24DDA 		.ascii	"\357\302M\332\271\254u\252\243\352:\025\372\315\306"
 432      B9AC75AA 
 432      A3EA3A15 
 432      FACDC6
 433 06c2 F45EB74E 		.ascii	"\364^\267N\305\263\235,Gps\215\250.\211\031\202<{\000"
 433      C5B39D2C 
 433      4770738D 
 433      A82E8919 
 433      823C7B00 
 434 06d6 5F290E72 		.ascii	"_)\016r\367j\243\177\304q\364\213\264\321O\336<\334"
 434      F76AA37F 
 434      C471F48B 
 434      B4D14FDE 
 434      3CDC
 435 06e8 C82AFC95 		.ascii	"\310*\374\225\225\313S4\336\024\355U\234\034\232\316"
 435      95CB5334 
 435      DE14ED55 
 435      9C1C9ACE 
 436 06f8 58E46443 		.ascii	"X\344dC\247\246\327\365\331!g1\311hR\300\024\311_v\014"
 436      A7A6D7F5 
ARM GAS  /tmp/cc0VxuqZ.s 			page 34


 436      D9216731 
 436      C96852C0 
 436      14C95F76 
 437 070d 56A403DB 		.ascii	"V\244\003\333=\337\336\302\250\314jo\0148\346\257\330"
 437      3DDFDEC2 
 437      A8CC6A6F 
 437      0C38E6AF 
 437      D8
 438 071e EE095A29 		.ascii	"\356\011Z)WS]\317\021\245\234\260\241\024\030\337\360"
 438      57535DCF 
 438      11A59CB0 
 438      A11418DF 
 438      F0
 439 072f 8AB21AE7 		.ascii	"\212\262\032\347\265>\025\325\"\316F:Q\327G?:\310b8"
 439      B53E15D5 
 439      22CE463A 
 439      51D7473F 
 439      3AC86238 
 440 0743 E5466733 		.ascii	"\345Fg3\0157\350}\230\036\356\266p`\264\263\300(}1y"
 440      0D37E87D 
 440      981EEEB6 
 440      7060B4B3 
 440      C0287D31 
 441 0758 AE158DF0 		.ascii	"\256\025\215\360\347q7\334\345\243\007%%2\032=\237\320"
 441      E77137DC 
 441      E5A30725 
 441      25321A3D 
 441      9FD0
 442 076a E8B907EB 		.ascii	"\350\271\007\353\371\024\350\231g\317\340\355Y\255\266"
 442      F914E899 
 442      67CFE0ED 
 442      59ADB6
 443 0779 CD2E32E7 		.ascii	"\315.2\347\264w.\373\035\373]De\307\314L\267\326\314"
 443      B4772EFB 
 443      1DFB5D44 
 443      65C7CC4C 
 443      B7D6CC
 444 078c 619F0DED 		.ascii	"a\237\015\355\231\317IaX\351Y\240\336\346*+\300=\216"
 444      99CF4961 
 444      58E959A0 
 444      DEE62A2B 
 444      C03D8E
 445 079f 11F56ABE 		.ascii	"\021\365j\276:_wA\352\265\0037\305\200\240\321G\273"
 445      3A5F7741 
 445      EAB50337 
 445      C580A0D1 
 445      47BB
 446 07b1 7ECFB347 		.ascii	"~\317\263GX\224\246\243,J\3201\274=\216\267\347\361"
 446      5894A6A3 
 446      2C4AD031 
 446      BC3D8EB7 
 446      E7F1
 447 07c3 B61127AE 		.ascii	"\266\021'\256\011o\233\361v\025\336\256\306"
 447      096F9BF1 
 447      7615DEAE 
 447      C6
 448 07d0 DBF578FB 		.ascii	"\333\365x\373\016\336\356\303\333\303x{\024o\217\341"
ARM GAS  /tmp/cc0VxuqZ.s 			page 35


 448      0EDEEEC3 
 448      DBC3787B 
 448      146F8FE1 
 449 07e0 ED71BCED 		.ascii	"\355q\274\355\303\333\017\355\010@\031h\3232S\307\334"
 449      C3DB0FED 
 449      08401968 
 449      D33253C7 
 449      DC
 450 07f1 7D393F1B 		.ascii	"}9?\0338\225y6\300\263]\216\301hE\351\"\271O\023\311"
 450      38957936 
 450      C0B35D8E 
 450      C16845E9 
 450      22B94F13 
 451 0806 FD38926D 		.ascii	"\3758\222m8n\027\365\303\370\025\237\372\304\312\341"
 451      386E17F5 
 451      C3F8159F 
 451      FAC4CAE1 
 452 0816 70606C75 		.ascii	"p`lu\247\306\352nlu\017k#\262\3332\323C\236}\312\245"
 452      A7C6EA6E 
 452      6C750F6B 
 452      23B2DB32 
 452      D3439E7D 
 453 082c E1D74F75 		.ascii	"\341\327Ou\355\373\230\345\262\334\200\236\021\036g"
 453      EDFB98E5 
 453      B2DC809E 
 453      111E67
 454 083b 5FA996A7 		.ascii	"_\251\226\247)m9\246\322\217o(\330{\014m\244-|\237Y"
 454      296D39A6 
 454      D28F6F28 
 454      D87B0C6D 
 454      A42D7C9F 
 455 0850 89469797 		.ascii	"\211F\227\227\344\232B\026/F3\244\225\316\213\313\034"
 455      E49A4216 
 455      2F4633A4 
 455      95CE8BCB 
 455      1C
 456 0861 A73DA13C 		.ascii	"\247=\241<\227L\016@\266*{S\251{\224g\215\0343\317o"
 456      974C0E40 
 456      B62A7B53 
 456      A97B9467 
 456      8D1C33CF 
 457 0876 C44D7E47 		.ascii	"\304M~G \254x\366#\016\345\364\023.\027V\250\225\216"
 457      20AC78F6 
 457      230EE5F4 
 457      132E1756 
 457      A8958E
 458 0889 D5A786AC 		.ascii	"\325\247\206\254\366tP\254\352\215Ym\241Y}\236\023\253"
 458      F67450AC 
 458      EA8D596D 
 458      A1597D9E 
 458      13AB
 459 089b CF6956FD 		.ascii	"\317iV\375\331\254z\373\223g\017Q\254\226\031\263\332"
 459      D9AC7AFB 
 459      93670F51 
 459      AC9619B3 
 459      DA
 460 08ac 49B3FA22 		.ascii	"I\263\372\"'V_\320\254\006\014c\265\220f\265\301\230"
ARM GAS  /tmp/cc0VxuqZ.s 			page 36


 460      27565FD0 
 460      AC060C63 
 460      B59066B5 
 460      C198
 461 08be 552BCDEA 		.ascii	"U+\315\352zN\254\256\323\254\2762\214Uk\347a\270\242"
 461      7A4EACAE 
 461      D3ACBE32 
 461      8C556BE7 
 461      61B8A2
 462 08d1 CAB75229 		.ascii	"\312\267R)\027\375\270\033\335\315\230\365\231[\234"
 462      17FDB81B 
 462      DDCD98F5 
 462      995B9C
 463 08e0 EE79B74A 		.ascii	"\356y\267JX\327{\2226\025z\323\246\177o\327\326\024"
 463      58D77B92 
 463      36157AD3 
 463      A67F6FD7 
 463      D614
 464 08f2 BA155A8C 		.ascii	"\272\025Z\214E3\302\360\266a\022N\036N'\001\271\000"
 464      4533C2F0 
 464      B661124E 
 464      1E4E2701 
 464      B900
 465 0904 7792C624 		.ascii	"w\222\306$7\322$+]9\2214kFHV\271\214r\322p\202\220t"
 465      37D2242B 
 465      5D399134 
 465      6B464856 
 465      B98C72D2 
 466 091c 90905A97 		.ascii	"\220\220Z\227AB\310\027\373\363\255\235\213\267\216"
 466      4142C817 
 466      FBF3AD9D 
 466      8BB78E
 467 092b C2F3ADE7 		.ascii	"\302\363\255\347]\350r}\232\012NN\363-&kX\3553\214y"
 467      5DE8727D 
 467      9A0A4E4E 
 467      F32D266B 
 467      58ED338C 
 468 0940 6FAAF3CF 		.ascii	"o\252\363\317\363\330E\351aU\215|\215u\344I\302\276"
 468      F3D845E9 
 468      61558D7C 
 468      8D75E449 
 468      C2BE
 469 0952 46095358 		.ascii	"F\011SX\017`x\363f\250\226i\302\314\232\021?^\314N\030"
 469      0F6078F3 
 469      66A89669 
 469      C2CC9A11 
 469      3F5ECC4E 
 470 0967 A80A3D7E 		.ascii	"\250\012=~\"\252By\340\230\033\306\252\332K\253\252"
 470      22AA4279 
 470      E0981BC6 
 470      AADA4BAB 
 470      AA
 471 0978 DE966F37 		.ascii	"\336\226o7U\337x\366e\227u3K\337\314\232\021\337\032"
 471      55DF78F6 
 471      65977533 
 471      4BDFCC9A 
 471      11DF1A
ARM GAS  /tmp/cc0VxuqZ.s 			page 37


 472 098b 0CC45807 		.ascii	"\014\304X\0077q\235\265l}u\363\001\271\037\245\323\376"
 472      37719DB5 
 472      6C7D75F3 
 472      01B91FA5 
 472      D3FE
 473 099d 2B318B69 		.ascii	"+1\213iE\266g\024\251r\242\225\361\373!\372\270\251"
 473      45B66714 
 473      A972A295 
 473      F1FB21FA 
 473      B8A9
 474 09af D45E35A2 		.ascii	"\324^5\242\226|\347\354\374\357\311-U\311Tj2\315\013"
 474      967CE7EC 
 474      FCEFC92D 
 474      55C9546A 
 474      32CD0B
 475 09c2 D93223D6 		.ascii	"\3312#\326hD\214\"\262\304\204H\223!\221\235\257\276"
 475      68448C22 
 475      B2C48448 
 475      9321919D 
 475      AFBE
 476 09d4 6846C422 		.ascii	"hF\304\"@\315\204G\3064\307\2540\261\333b\230\233\376"
 476      40CD8447 
 476      C634C7AC 
 476      30B1DB62 
 476      989BFE
 477 09e7 54D73FFE 		.ascii	"T\327?\376A\336\347\364e\245\345t\000\320\344\202\012"
 477      41DEE7F4 
 477      65A5E574 
 477      00D0E482 
 477      0A
 478 09f8 C0161322 		.ascii	"\300\026\023\"+\015\21145\035\365\344@d\025Md\015^\333"
 478      2B0D8934 
 478      351DF5E4 
 478      4064154D 
 478      640D5EDB 
 479 0a0c D35F454C 		.ascii	"\323_EL\210\2546\211H\177&\"\212\247\034\323i\002\261"
 479      88AC3689 
 479      487F2622 
 479      8AA71CD3 
 479      6902B1
 480 0a1f C658F017 		.ascii	"\306X\360\027\216.2\027\274\325\030\274\316\310\235"
 480      8E2E3217 
 480      BCD518BC 
 480      CEC89D
 481 0a2e F417D235 		.ascii	"\364\027\3225)\367\316\231p\333\240\347\366\317L\013"
 481      29F7CE99 
 481      70DBA0E7 
 481      F6CF4C0B 
 482 0a3e 125A6AF1 		.ascii	"\022Zj\361\"\026\204&\313\267S)\326\350u\012\227\312"
 482      22168426 
 482      CBB75329 
 482      D6E8750A 
 482      97CA
 483 0a50 693CA319 		.ascii	"i<\243\031\324\377\322\302V\3439\373&\027\232\261\366"
 483      D4FFD2C2 
 483      56E339FB 
 483      26179AB1 
ARM GAS  /tmp/cc0VxuqZ.s 			page 38


 483      F6
 484 0a61 53360705 		.ascii	"S6\007\005\342\230[\270\311\026W\326\302Q[\015Y\016"
 484      E2985BB8 
 484      C91657D6 
 484      C2515B0D 
 484      590E
 485 0a73 40BF0DBE 		.ascii	"@\277\015\276\034\360\332)e\341\305\300doz\242\375\017"
 485      1CF0DA29 
 485      65E1C5C0 
 485      646F7AA2 
 485      FD0F
 486 0a85 1AEEA77B 		.ascii	"\032\356\247{\372\010\367V\314\2756\177P\356z \216Y"
 486      FA08F756 
 486      CCBD367F 
 486      50EE7A20 
 486      8E59
 487 0a97 809BECCA 		.ascii	"\200\233\354\312\346~r\036\341\276\313\026\367\023\335"
 487      E67E721E 
 487      E1BECB16 
 487      F713DD
 488 0aa6 FA45A396 		.ascii	"\372E\243\2264nn\213\031'\225\247_\312\314x5\015\346"
 488      346E6E8B 
 488      192795A7 
 488      5FCACC78 
 488      350DE6
 489 0ab9 6829434E 		.ascii	"h)CN\236Q\300\336\303\31468\006+\3221{\277A\377\032"
 489      9E51C0DE 
 489      C3CC3638 
 489      062BD231 
 489      7BBF41FF 
 490 0ace DA563B78 		.ascii	"\332V;x\026O\247\372\2735O\247\3668\006\323\223\273"
 490      164FA7FA 
 490      BB354FA7 
 490      F63806D3 
 490      93BB
 491 0ae0 A6056BB7 		.ascii	"\246\005k\267\003f\364\014\307\350\243\025\011\314\035"
 491      0366F40C 
 491      C7E8A315 
 491      09CC1D
 492 0aef 5D6806B9 		.ascii	"]h\006\271\327\205\346\255\177\304\333?\341m\033\336"
 492      D785E6AD 
 492      7FC4DB3F 
 492      E16D1BDE 
 493 0aff 76E0ED41 		.ascii	"v\340\355A\227n>\333\225\257\366\022C)\016&\0119\271"
 493      976E3EDB 
 493      95AFF612 
 493      43290E26 
 493      0939B9
 494 0b12 C5BC7B18 		.ascii	"\305\274{\030\255CA\327\276X\311\326`\015\037\305\335"
 494      AD4341D7 
 494      BE58C9D6 
 494      600D1FC5 
 494      DD
 495 0b23 E3D4E0DD 		.ascii	"\343\324\340\335\203^\351\373\0247\351\312\352\036\027"
 495      835EE9FB 
 495      1437E9CA 
 495      EA1E17
ARM GAS  /tmp/cc0VxuqZ.s 			page 39


 496 0b32 BEAE26DD 		.ascii	"\276\256&\335\243\313F\367\250J\336x\331\346+\230i\373"
 496      A3CB46F7 
 496      A84ADE78 
 496      D9E62B98 
 496      69FB
 497 0b44 776A1C39 		.ascii	"wj\0349}A}\227\264\007;R]0\370\030\245\003\202~\216"
 497      7D417D97 
 497      B4073B52 
 497      5D30F818 
 497      A503827E 
 498 0b59 9B9CC976 		.ascii	"\233\234\311v\3443\325\2213\266\034i}YU\377I\027~\376"
 498      E433D591 
 498      33B61C69 
 498      7D5955FF 
 498      49177EFE 
 499 0b6d 9EC6CD6D 		.ascii	"\236\306\315m\241e\207\362\326\216\002\266\3261\230"
 499      A16587F2 
 499      D68E02B6 
 499      D63198
 500 0b7c 5EFDBB8F 		.ascii	"^\375\273\217\251\317\213\224\233\335\315v\360,\226"
 500      A9CF8B94 
 500      9BDDCD76 
 500      F02C96
 501 0b8b 40F71CA3 		.ascii	"@\367\034\243\237\365\332\277|\177H_\357&S\267\021\226"
 501      9FF5DABF 
 501      7C7F485F 
 501      EF2653B7 
 501      1196
 502 0b9d 338DF395 		.ascii	"3\215\363\225\344\215\316\017p`vS\011\247^\335C\266"
 502      E48DCE0F 
 502      70607653 
 502      09A75EDD 
 502      43B6
 503 0baf CC785C76 		.ascii	"\314x\\v\345\233$5\3537\0301\034\007L\227\000\220\323"
 503      E59B2435 
 503      EB371831 
 503      1C074C97 
 503      0090D3
 504 0bc2 C0727551 		.ascii	"\300ruQ\023/Bv\332\0014\032\034\215>Z\375\362\354Y<"
 504      132F4276 
 504      DA01341A 
 504      1C8D3E5A 
 504      FDF2EC59 
 505 0bd7 049DC343 		.ascii	"\004\235\303C\315{x\373>\336\366\341\355G\332\301\307"
 505      CD7B78FB 
 505      3EDEF6E1 
 505      ED47DAC1 
 505      C7
 506 0be8 2C364875 		.ascii	",6Hui\354\363x\366\320\225\263\222oe\224\314\263\027"
 506      69ECF378 
 506      F6D095B3 
 506      926F6594 
 506      CCB317
 507 0bfb 1C83E902 		.ascii	"\034\203\351\002\231\254\357\326*\231g{\355\340Y(\231"
 507      99ACEFD6 
 507      2A99677B 
 507      EDE05928 
ARM GAS  /tmp/cc0VxuqZ.s 			page 40


 507      99
 508 0c0c BCB4A474 		.ascii	"\274\264\244t\213\236\002\326!X\221UR\2724I\351\306"
 508      8B9E02D6 
 508      21589155 
 508      52BA3449 
 508      E9C6
 509 0c1e 49398153 		.ascii	"I9\201S\360\011\336~\212\267\237\351\257\005}\005\324"
 509      F009DE7E 
 509      8AB79FE9 
 509      AF057D05 
 509      D4
 510 0c2f B5403FEE 		.ascii	"\265@?\356\032]\232\264\361\221\223\273N\201?\366\037"
 510      1A5D9AB4 
 510      F19193BB 
 510      4E813FF6 
 510      1F
 511 0c40 0E5E561F 		.ascii	"\016^V\037\016^\305\343\347\025\343\361\323\352\341"
 511      0E5EC5E3 
 511      E715E3F1 
 511      D3EAE1
 512 0c4f E075DC64 		.ascii	"\340u\334d \373>\351\242z\23740\370\3709\257:\271e\301"
 512      20FB3EE9 
 512      A27A9F34 
 512      30F8F839 
 512      AF3AB965 
 513 0c64 1B990B41 		.ascii	"\033\231\013Au\272\007\277\316\231\3379\353\336\313"
 513      75BA07BF 
 513      CE99DF39 
 513      EBDECB
 514 0c73 786EA8CA 		.ascii	"xn\250\312\303\241J\215s7\240\311\3355\234\273\353\372"
 514      C3A14A8D 
 514      7337A0C9 
 514      DD359CBB 
 514      EBFA
 515 0c85 4CD50FA5 		.ascii	"L\325\017\2452ed\317\364\015C9y\372\224\"d\273\271:"
 515      326564CF 
 515      F40D4339 
 515      79FA9422 
 515      64BBB93A 
 516 0c99 F7F1D509 		.ascii	"\367\361\325\011x\221\345\026\316\324\201\241\0163\205"
 516      7891E516 
 516      CED481A1 
 516      0E3385
 517 0ca8 9C4A5159 		.ascii	"\234JQYJ~!\024)gm\374\223\301E\374\020\315\376\252P"
 517      4A7E2114 
 517      29676DFC 
 517      93C145FC 
 517      10CDFEAA 
 518 0cbd DB87E429 		.ascii	"\333\207\344)|\225\033\365\255w)\3029>\205\357\3030"
 518      7C951BF5 
 518      AD7729C2 
 518      393E85EF 
 518      C330
 519 0ccf A96F2BCD 		.ascii	"\251o+\315)M\232e7Js\245[\377\260\301N\232\215\036\313"
 519      294D9A65 
 519      374A73A5 
 519      5BFFB0C1 
ARM GAS  /tmp/cc0VxuqZ.s 			page 41


 519      4E9A8D1E 
 520 0ce4 1ADBDBA2 		.ascii	"\032\333\333\242\261\267\015\313j;\036\006\216\340m"
 520      B1B70DCB 
 520      6A3B1E06 
 520      8EE06D
 521 0cf3 3FDEDED4 		.ascii	"?\336\336\324\013\355\223t\340\014gY\010\3659wz\332"
 521      0BED9374 
 521      E00C6759 
 521      08F53977 
 521      7ADA
 522 0d05 475D00F7 		.ascii	"G]\000\367\232<\233A\255~\347Nw\0374\211M\366C\247\355"
 522      9A3C9B41 
 522      AD7EE74E 
 522      771F3489 
 522      4DF643A7 
 523 0d1a 38CD36C0 		.ascii	"8\3156\300U\012Ob\233}\366/\352/\270\251\213:\002\247"
 523      550A4F62 
 523      9B7DF62F 
 523      EA2FB8A9 
 523      8B3A02A7 
 524 0d2e 26AD7FA1 		.ascii	"&\255\177\241\024@\326\251N\240u*T\235cn\340\032\317"
 524      1440D6A9 
 524      4EA0752A 
 524      549D636E 
 524      E01ACF
 525 0d41 BBCDD6A9 		.ascii	"\273\315\326\251\010c\262NuN~bdz\341\0325\322E\372E"
 525      0863B24E 
 525      754E7E62 
 525      647AE11A 
 525      35D245FA 
 526 0d56 B76E2A7C 		.ascii	"\267n*|\007S\207]\231\262d\230\362\302\027\261P\250"
 526      0753875D 
 526      99B26498 
 526      F2C217B1 
 526      50A8
 527 0d68 5AE048BB 		.ascii	"Z\340H\273:\367\035\370H\367?\203\270\206\231\357\365"
 527      3AF71DF8 
 527      48F73F83 
 527      B88699EF 
 527      F5
 528 0d79 EECC4B65 		.ascii	"\356\314Ke\005\376\314\001\2537]DY\236\250\326\363\022"
 528      05FECC01 
 528      AB375D44 
 528      599EA8D6 
 528      F312
 529 0d8b 9C06C796 		.ascii	"\234\006\307\226\027\230X\366\030\213a\261\305\335\320"
 529      179858F6 
 529      188B61B1 
 529      C5DDD0
 530 0d9a 425A0CC9 		.ascii	"BZ\014\311\201\013\312\362\344\262d\235^\010>\3469\374"
 530      810BCAF2 
 530      E4B2649D 
 530      5E083EE6 
 530      39FC
 531 0dac 96568D5C 		.ascii	"\226V\215\\\311>\223\226\275\311k}`\325\355Cow\0175"
 531      C93E9396 
 531      BDC96B7D 
ARM GAS  /tmp/cc0VxuqZ.s 			page 42


 531      60D5ED43 
 531      6F770F35 
 532 0dc0 7D290F55 		.ascii	"})\017UP\275P\216\325#\213w\362\026\331\020\\\3650C"
 532      50BD508E 
 532      D5238B77 
 532      F216D910 
 532      5CF53043 
 533 0dd4 C19D5305 		.ascii	"\301\235S\005\307\263\363\335\350\356\341\025[\202\253"
 533      C7B3F3DD 
 533      E8EEE115 
 533      5B82AB
 534 0de3 92CF9D47 		.ascii	"\222\317\235G\202S(\352Z\371\350\224\303\317K\335Y\313"
 534      825328EA 
 534      5AF9E894 
 534      C3CF4BDD 
 534      59CB
 535 0df5 4410D405 		.ascii	"D\020\324\005\037t\271\324\177\024\274\327\301\352\343"
 535      1F74B9D4 
 535      7F14BCD7 
 535      C1EAE3
 536 0e04 321BEE36 		.ascii	"2\033\3566\030\273{\223v\267\311\246\273_\376\371\211"
 536      18BB7B93 
 536      76B7C9A6 
 536      BB5FFEF9 
 536      89
 537 0e15 690A2BC6 		.ascii	"i\012+\306\242\025!\330\242w\227R^\243\205\362Vd\224"
 537      A21521D8 
 537      A2779752 
 537      5EA385F2 
 537      566494
 538 0e28 47B5420F 		.ascii	"G\265B\017\274\314Z\2554m\325la\353\015\323V\233LFx"
 538      BCCC5AAD 
 538      346DD56C 
 538      61EB0DD3 
 538      569B4C46 
 539 0e3d BCE068DA 		.ascii	"\274\340h\332j\271\205\2557M[\255\262h\265:kP\276\232"
 539      6AB985AD 
 539      374D5BAD 
 539      B268B53A 
 539      6B50BE9A 
 540 0e51 EAFFC176 		.ascii	"\352\377\301v\364\357=\362\355\324\263\225\363~L\251"
 540      F4EF3DF2 
 540      EDD4B395 
 540      F37E4CA9 
 541 0e61 06ADC29A 		.ascii	"\006\255\302\232\201\255q\033\254\025S*I\247{\323\233"
 541      81AD711B 
 541      AC15532A 
 541      49A77BD3 
 541      9B
 542 0e72 B25F7D63 		.ascii	"\262_}c\204g\337\262N\367Z#u\303,\347\363\034\257\037"
 542      8467DFB2 
 542      4EF75A23 
 542      75C32CE7 
 542      F31CAF1F 
 543 0e86 6FD3FAD6 		.ascii	"o\323\372\326-\373\023]Rz\337f\254w|=Q\326y\016\342"
 543      2DFB135D 
 543      527ADF66 
ARM GAS  /tmp/cc0VxuqZ.s 			page 43


 543      AC777C3D 
 543      51D6790E 
 544 0e9b 1AEB4DF5 		.ascii	"\032\353M\365\336\256y\\\362Z{A\035\253\357(\346\015"
 544      DEAE795C 
 544      F25A7B41 
 544      1DABEF28 
 544      E60D
 545 0ead 2D2E44EB 		.ascii	"-.D\353\351\013\321&\313\236\201\236'\232\005e\233\251"
 545      E90BD126 
 545      CB9E819E 
 545      279A0565 
 545      9BA9
 546 0ebf 82D65928 		.ascii	"\202\326Y(h{\226\202Z\257\275\373\323Vs\005Y\215;;\014"
 546      687B9682 
 546      5AAFBDFB 
 546      D3567305 
 546      598D3B3B 
 547 0ed4 14346FB8 		.ascii	"\0244o\270\245\202\324\001\243\325ZA;-\303Rk\341\340"
 547      A582D401 
 547      A3D55A41 
 547      3B2DC352 
 547      6BE1E0
 548 0ee7 EE8C83CC 		.ascii	"\356\214\203\314\264\342\362XD(\016\306J\347\026\227"
 548      B4E2F258 
 548      44280EC6 
 548      4AE71697 
 549 0ef7 0AB38A83 		.ascii	"\012\263\212\203\345\241\351\241X\242X\022+\2423\213"
 549      E5A1E9A1 
 549      58A25812 
 549      2BA2338B 
 550 0f07 E140948A 		.ascii	"\341@\224\212\3431QJ\024\377\370\311\307\247>>\007j"
 550      E331514A 
 550      14FFF8C9 
 550      C7A73E3E 
 550      076A
 551 0f19 46E2A1B0 		.ascii	"F\342\241\260 &\212\037\235:\025\252Ks\343B\342\241"
 551      20268A1F 
 551      9D3A15AA 
 551      4B73E342 
 551      E2A1
 552 0f2b 72262F92 		.ascii	"r&/\222\230\021\220<\217\376\354\251\242\251\314}\305"
 552      9811903C 
 552      8FFEECA9 
 552      A2A9CC7D 
 552      C5
 553 0f3c 1509B198 		.ascii	"\025\011\261\230\027#\017FcQ\341A\201\237\036*\016E"
 553      17230F46 
 553      6351E141 
 553      819F1E2A 
 553      0E45
 554 0f4e 83E18A52 		.ascii	"\203\341\212R\2418!\225\206\242\022\264\360\302n\334"
 554      A1382195 
 554      86A212B4 
 554      F0C26EDC 
 555 0f5e D88034DE 		.ascii	"\330\2004\336\242r\204\007BQ\2418P*\224\361\025a)\240"
 555      A2728407 
 555      4251A138 
ARM GAS  /tmp/cc0VxuqZ.s 			page 44


 555      502A94F1 
 555      156129A0 
 556 0f72 9AF30702 		.ascii	"\232\363\007\002\244\271OJH\274$\004$o\005\234\231\030"
 556      A4B94F4A 
 556      48BC2404 
 556      246F059C 
 556      9918
 557 0f84 90E02772 		.ascii	"\220\340'r4\332\206s\0111\010\347\203\261h\351CAf\274"
 557      34DA8673 
 557      093108E7 
 557      83B168E9 
 557      434166BC 
 558 0f98 8D062A35 		.ascii	"\215\006*5\322\250\234\271"
 558      D2A89CB9 
 559 0fa0 13ED4352 		.ascii	"\023\355CR(\026\015\314\342\305\020?=\014dFd\237\234"
 559      28160DCC 
 559      E2C5103F 
 559      3D0C6446 
 559      649F9C
 560 0fb3 E8083C31 		.ascii	"\350\010<17\241\372:\\*\027\005\2764\021x\246B\250\000"
 560      37A1FA3A 
 560      5C2A1705 
 560      BE341178 
 560      A642A800 
 561 0fc7 ECC26079 		.ascii	"\354\302`y@w\312\031\355D\260\034\321\366)\020\020\257"
 561      4077CA19 
 561      ED44B01C 
 561      D1F62910 
 561      10AF
 562 0fd9 349C271E 		.ascii	"4\234'\036\210\012s$\330\305Ea\226W\212\213\241\030"
 562      880A7324 
 562      D8C54561 
 562      96578A8B 
 562      A118
 563 0feb 04B88244 		.ascii	"\004\270\202Dz\210\022Xt\210\253\204b^\360R\202\026"
 563      7A881258 
 563      7488AB84 
 563      625EF052 
 563      8216
 564 0ffd 931CAB   		.ascii	"\223\034\253"
 565 1000 0882270A 		.ascii	"\010\202'\012\300\"\037\235F\251\014Js~\224\033J`\326"
 565      C0221F9D 
 565      46A90C4A 
 565      737E941B 
 565      4A60D6
 566 1013 8408F247 		.ascii	"\204\010\362G\024f\200\210\002\222+1\346a(\023\240L"
 566      14668088 
 566      02922B31 
 566      E6612813 
 566      A04C
 567 1025 8432C995 		.ascii	"\2042\311\225\030;\032\312\030(c\241\214\2032\036\312"
 567      183B1ACA 
 567      182863A1 
 567      8C83321E 
 567      CA
 568 1036 0FA140BD 		.ascii	"\017\241@\275\261Po,\324\033\013\365\306A\275qc8q<'"
 568      B1506F2C 
ARM GAS  /tmp/cc0VxuqZ.s 			page 45


 568      D41B0BF5 
 568      C641BD71 
 568      6338713C 
 569 104b FE90131F 		.ascii	"\376\220\023\037\346\304\011\2348\221\023'\271\3041"
 569      E6C4099C 
 569      38911327 
 569      B9C431
 570 105a A3A18CE1 		.ascii	"\243\241\214\341\302\"\354\306\345\305\003\300\326\213"
 570      C222ECC6 
 570      E5C503C0 
 570      D68B
 571 1068 82355B10 		.ascii	"\2025[\020a\037\013\227\012\242;X\316\213(\202|D\200"
 571      611F0B97 
 571      0AA23B58 
 571      CE8B2882 
 571      7C4480
 572 107b 7358945E 		.ascii	"sX\224^)\022+E\322\214\007\312\302\374\214\204W\022"
 572      29122B45 
 572      D28C07CA 
 572      C2FC8C84 
 572      5712
 573 108d 85B2040E 		.ascii	"\205\262\004\016\037:\360\210\245s\241\333\370\2049"
 573      1F3AF088 
 573      A573A1DB 
 573      F88439
 574 109c 2109BC16 		.ascii	"!\011\274\026<\263\245\330\364_\305\363\205YBT\212\360"
 574      3CB3A5D8 
 574      F45FC5F3 
 574      85594254 
 574      8AF0
 575 10ae 89995053 		.ascii	"\211\231PS\230\215\016\\\361@\30505\347\341P\002:\302"
 575      988D0E5C 
 575      F140C530 
 575      35E7E150 
 575      023AC2
 576 10c1 708D0AD0 		.ascii	"p\215\012\320\031\177<0\233\007\305Eg\014\211\007\000"
 576      197F3C30 
 576      9B07C545 
 576      670C8907 
 576      00
 577 10d2 152B230F 		.ascii	"\025+#\017\037\302\011!.\200\036\2433\362\"\025\220"
 577      1FC20921 
 577      2E801EA3 
 577      33F22215 
 577      90
 578 10e3 B0718E04 		.ascii	"\260q\216\004\023\221\346\240\356\032Q\304\006\373\330"
 578      1391E6A0 
 578      EE1A51C4 
 578      06FBD8
 579 10f2 EC28F88D 		.ascii	"\354(\370\215\221\200a\004\213\006\314C=Dd\010r\216"
 579      91806104 
 579      8B06CC43 
 579      3D446408 
 579      728E
 580 1104 0F637DC0 		.ascii	"\017c}\300\311x,\026\366\006\225\266\240\334\251\320"
 580      C9782C16 
 580      F60695B6 
ARM GAS  /tmp/cc0VxuqZ.s 			page 46


 580      A0DCA9D0 
 581 1114 2FFE6BFA 		.ascii	"/\376k\372\257\204\240\364X4$q\301x\201r\256$4#\312"
 581      AF84A0F4 
 581      58342471 
 581      C1788172 
 581      AE243423 
 582 1129 87876ABF 		.ascii	"\207\207j\277<F\252\377D\214\361\245A>!=6\234:\221\257"
 582      3C46AAFF 
 582      448CF1A5 
 582      413E213D 
 582      369C3A91 
 583 113e 7CFF05F8 		.ascii	"|\377\005\370]2$s\354G\235'\024\301\3350}\362\347p\""
 583      5D322473 
 583      EC479D27 
 583      14C1DD30 
 583      7DF2E770 
 584 1153 562195B8 		.ascii	"V!\225\270\321/wd\235\007\032%\301\362_\3603\205\212"
 584      D12F7764 
 584      9D071A25 
 584      C1F25FF0 
 584      33858A
 585 1166 78493EFE 		.ascii	"xI>\376\362$\304v.\"\201\217\241\333\010\245\025a\001"
 585      F224C476 
 585      2E22818F 
 585      A1DB08A5 
 585      156101
 586 1179 197A5C9A 		.ascii	"\031z\\\232\363\237\261\340\314\222\241\370\267Gc%a"
 586      F39FB1E0 
 586      CC92A1F8 
 586      B7476325 
 586      61
 587 118a 41889714 		.ascii	"A\210\227\024\340\037\236\212\206\321Owj\177Rm\003n"
 587      E01F9E8A 
 587      86D14F77 
 587      6A7F526D 
 587      036E
 588 119c 00711322 		.ascii	"\000q\023\"J\267S\216\013P\022\347\222\264\002d \363"
 588      4AB7538E 
 588      0B5012E7 
 588      92B40264 
 588      20F3
 589 11ae DD2B2A81 		.ascii	"\335+*\201\363\210\270\277\345\211Xy\"Q\236\250(\317"
 589      F388B8BF 
 589      E5895879 
 589      22519EA8 
 589      28CF
 590 11c0 0F672B44 		.ascii	"\017g+D\0214\223'\242Fw\315\012\211R\005\037\016 OE"
 590      11349327 
 590      A24677CD 
 590      0A895205 
 590      1F0E204F 
 591 11d5 552F7703 		.ascii	"U/w\003\260\301\017\303u\347\224\301Ew\312;K\302\011"
 591      B0C10FC3 
 591      75E794C1 
 591      4577CA3B 
 591      4BC209
 592 11e8 467B342C 		.ascii	"F{4,\370`_*\204%\036\016\312*\242\301\000\376\005\035"
ARM GAS  /tmp/cc0VxuqZ.s 			page 47


 592      F8605F2A 
 592      84251E0E 
 592      CA2AA2C1 
 592      00FE051D 
 593 11fc 79500D5E 		.ascii	"yP\015^\314\207]\030\222\203Z\303)dd\030q\272T\230^"
 593      CC875D18 
 593      92835AC3 
 593      29646418 
 593      71BA5498 
 594 1211 314391AE 		.ascii	"1C\221\256\366\214?\316GCA\244TW\351\364\031c\035\211"
 594      F68C3FCE 
 594      474341A4 
 594      5457E9F4 
 594      19631D89 
 595 1225 53427DBF 		.ascii	"SB}\277P\212\004\202|84]\344\361\220\013q\223\202Qp"
 595      508A0482 
 595      7C38345D 
 595      E4F1900B 
 595      71938251 
 596 123a DA132B2B 		.ascii	"\332\023++K\010\022'E\270`\371\020e\374\014\201\356"
 596      4B081227 
 596      45B860F9 
 596      1065FC0C 
 596      81EE
 597 124c 5CD233F1 		.ascii	"\\\3223\361\274\300O@\232\303\224\223\321\030\260\211"
 597      BCC04F40 
 597      9AC39493 
 597      D118B089 
 598 125c 4B73EF50 		.ascii	"Ks\357P\276\226\205\312b\220\206Hl\2260\002g\365QA\372"
 598      BE9685CA 
 598      62908648 
 598      6C963002 
 598      67F55141 
 599 1271 1904E171 		.ascii	"\031\004\341q\244\371\022R\011\017\217\241hB\020\301"
 599      A4F91252 
 599      090F8FA1 
 599      684210C1 
 600 1281 407C8233 		.ascii	"@|\2023\332J\317\005\356\220\360\237\227\227\002~\211"
 600      DA4ACF05 
 600      EE90F09F 
 600      9797027E 
 600      89
 601 1292 102E7BFA 		.ascii	"\020.{\372\377\001a\366\334\305"
 601      FF0161F6 
 601      DCC5
 602              		.text
 603              		.section	.gnu.lto_.symtab.3f04d19e9eacc76f,"",%progbits
 604 0000 6368436F 		.ascii	"chCondObjectInit\000\000\000\000\000\000\000\000\000"
 604      6E644F62 
 604      6A656374 
 604      496E6974 
 604      00000000 
 605 0019 000000B4 		.ascii	"\000\000\000\264\000\000\000chCondSignal\000\000\000"
 605      00000063 
 605      68436F6E 
 605      64536967 
 605      6E616C00 
ARM GAS  /tmp/cc0VxuqZ.s 			page 48


 606 002f 00000000 		.ascii	"\000\000\000\000\000\000\000\000\000k\001\000\000ch"
 606      00000000 
 606      006B0100 
 606      006368
 607 003e 436F6E64 		.ascii	"CondSignalI\000\000\000\000\000\000\000\000\000\000"
 607      5369676E 
 607      616C4900 
 607      00000000 
 607      00000000 
 608 0053 00006F01 		.ascii	"\000\000o\001\000\000chCondBroadcastI\000\000\000\000"
 608      00006368 
 608      436F6E64 
 608      42726F61 
 608      64636173 
 609 006d 00000000 		.ascii	"\000\000\000\000\000\000\000\000s\001\000\000chCond"
 609      00000000 
 609      73010000 
 609      6368436F 
 609      6E64
 610 007f 42726F61 		.ascii	"Broadcast\000\000\000\000\000\000\000\000\000\000\000"
 610      64636173 
 610      74000000 
 610      00000000 
 610      00000000 
 611 0093 00770100 		.ascii	"\000w\001\000\000chCondWaitS\000\000\000\000\000\000"
 611      00636843 
 611      6F6E6457 
 611      61697453 
 611      00000000 
 612 00a9 00000000 		.ascii	"\000\000\000\000\000\000{\001\000\000chCondWait\000"
 612      00007B01 
 612      00006368 
 612      436F6E64 
 612      57616974 
 613 00be 00000000 		.ascii	"\000\000\000\000\000\000\000\000\000\000\000\201\001"
 613      00000000 
 613      00000081 
 613      01
 614 00cb 00006368 		.ascii	"\000\000chCondWaitTimeoutS\000\000\000\000\000\000\000"
 614      436F6E64 
 614      57616974 
 614      54696D65 
 614      6F757453 
 615 00e6 00000000 		.ascii	"\000\000\000\000\000\205\001\000\000chCondWaitTimeo"
 615      00850100 
 615      00636843 
 615      6F6E6457 
 615      61697454 
 616 00fe 75740000 		.ascii	"ut\000\000\000\000\000\000\000\000\000\000\000\000\221"
 616      00000000 
 616      00000000 
 616      000091
 617 010d 01000063 		.ascii	"\001\000\000ch\000\000\002\000\000\000\000\000\000\000"
 617      68000002 
 617      00000000 
 617      000000
 618 011c 0000B101 		.ascii	"\000\000\261\001\000\000chSchWakeupS\000\000\002\000"
ARM GAS  /tmp/cc0VxuqZ.s 			page 49


 618      00006368 
 618      53636857 
 618      616B6575 
 618      70530000 
 619 0132 00000000 		.ascii	"\000\000\000\000\000\000\000\000\226\001\000\000chS"
 619      00000000 
 619      96010000 
 619      636853
 620 0141 63685265 		.ascii	"chReadyI\000\000\002\000\000\000\000\000\000\000\000"
 620      61647949 
 620      00000200 
 620      00000000 
 620      000000
 621 0154 009B0100 		.ascii	"\000\233\001\000\000chSchRescheduleS\000\000\002\000"
 621      00636853 
 621      63685265 
 621      73636865 
 621      64756C65 
 622 016d 00000000 		.ascii	"\000\000\000\000\000\000\000\000\237\001\000\000chM"
 622      00000000 
 622      9F010000 
 622      63684D
 623 017c 74784C6F 		.ascii	"txLockS\000\000\002\000\000\000\000\000\000\000\000"
 623      636B5300 
 623      00020000 
 623      00000000 
 623      0000
 624 018e 00A20100 		.ascii	"\000\242\001\000\000chSchGoSleepS\000\000\002\000\000"
 624      00636853 
 624      6368476F 
 624      536C6565 
 624      70530000 
 625 01a5 00000000 		.ascii	"\000\000\000\000\000\000\000\246\001\000\000chMtxUn"
 625      000000A6 
 625      01000063 
 625      684D7478 
 625      556E
 626 01b7 6C6F636B 		.ascii	"lockS\000\000\002\000\000\000\000\000\000\000\000\000"
 626      53000002 
 626      00000000 
 626      00000000 
 626      00
 627 01c8 AA010000 		.ascii	"\252\001\000\000chSchGoSleepTimeoutS\000\000\002\000"
 627      63685363 
 627      68476F53 
 627      6C656570 
 627      54696D65 
 628 01e4 00000000 		.ascii	"\000\000\000\000\000\000\000\000\254\001\000\000"
 628      00000000 
 628      AC010000 
 629              		.text
 630              		.section	.gnu.lto_.opts,"",%progbits
 631 0000 272D6D63 		.ascii	"'-mcpu=cortex-m4' '-mfloat-abi=hard' '-mfpu=fpv4-sp"
 631      70753D63 
 631      6F727465 
 631      782D6D34 
 631      2720272D 
ARM GAS  /tmp/cc0VxuqZ.s 			page 50


 632 0033 2D643136 		.ascii	"-d16' '-mno-thumb-interwork' '-mthumb' '-O2' '-fomi"
 632      2720272D 
 632      6D6E6F2D 
 632      7468756D 
 632      622D696E 
 633 0066 742D6672 		.ascii	"t-frame-pointer' '-falign-functions=16' '-ffunction"
 633      616D652D 
 633      706F696E 
 633      74657227 
 633      20272D66 
 634 0099 2D736563 		.ascii	"-sections' '-fdata-sections' '-fno-common' '-flto' "
 634      74696F6E 
 634      73272027 
 634      2D666461 
 634      74612D73 
 635 00cc 272D6673 		.ascii	"'-fsingle-precision-constant'\000"
 635      696E676C 
 635      652D7072 
 635      65636973 
 635      696F6E2D 
 636              		.text
 637              		.section	.text.chCondObjectInit,"ax",%progbits
 638              		.align	2
 639              		.p2align 4,,15
 640              		.global	chCondObjectInit
 641              		.thumb
 642              		.thumb_func
 643              		.type	chCondObjectInit, %function
 644              	chCondObjectInit:
 645              		@ args = 0, pretend = 0, frame = 0
 646              		@ frame_needed = 0, uses_anonymous_args = 0
 647              		@ link register save eliminated.
 648 0000 4060     		str	r0, [r0, #4]
 649 0002 0060     		str	r0, [r0]
 650 0004 7047     		bx	lr
 651              		.size	chCondObjectInit, .-chCondObjectInit
 652 0006 00BFAFF3 		.section	.text.chCondSignal,"ax",%progbits
 652      0080AFF3 
 652      0080
 653              		.align	2
 654              		.p2align 4,,15
 655              		.global	chCondSignal
 656              		.thumb
 657              		.thumb_func
 658              		.type	chCondSignal, %function
 659              	chCondSignal:
 660              		@ args = 0, pretend = 0, frame = 0
 661              		@ frame_needed = 0, uses_anonymous_args = 0
 662 0000 08B5     		push	{r3, lr}
 663 0002 2022     		movs	r2, #32
 664 0004 0346     		mov	r3, r0
 665              	@ 546 "/home/cody/dev/chibios/trunk/os/ext/CMSIS/include/core_cmFunc.h" 1
 666 0006 82F31188 		MSR basepri, r2
 667              	@ 0 "" 2
 668              		.thumb
 669 000a 0068     		ldr	r0, [r0]
 670 000c 8342     		cmp	r3, r0
ARM GAS  /tmp/cc0VxuqZ.s 			page 51


 671 000e 05D0     		beq	.L3
 672 0010 0268     		ldr	r2, [r0]
 673 0012 1A60     		str	r2, [r3]
 674 0014 0021     		movs	r1, #0
 675 0016 5360     		str	r3, [r2, #4]
 676 0018 FFF7FEFF 		bl	chSchWakeupS
 677              	.L3:
 678 001c 0023     		movs	r3, #0
 679              	@ 546 "/home/cody/dev/chibios/trunk/os/ext/CMSIS/include/core_cmFunc.h" 1
 680 001e 83F31188 		MSR basepri, r3
 681              	@ 0 "" 2
 682              		.thumb
 683 0022 08BD     		pop	{r3, pc}
 684              		.size	chCondSignal, .-chCondSignal
 685 0024 AFF30080 		.section	.text.chCondSignalI,"ax",%progbits
 685      AFF30080 
 685      AFF30080 
 686              		.align	2
 687              		.p2align 4,,15
 688              		.global	chCondSignalI
 689              		.thumb
 690              		.thumb_func
 691              		.type	chCondSignalI, %function
 692              	chCondSignalI:
 693              		@ args = 0, pretend = 0, frame = 0
 694              		@ frame_needed = 0, uses_anonymous_args = 0
 695              		@ link register save eliminated.
 696 0000 0368     		ldr	r3, [r0]
 697 0002 9842     		cmp	r0, r3
 698 0004 07D0     		beq	.L5
 699 0006 1A68     		ldr	r2, [r3]
 700 0008 0260     		str	r2, [r0]
 701 000a 0021     		movs	r1, #0
 702 000c 5060     		str	r0, [r2, #4]
 703 000e 1846     		mov	r0, r3
 704 0010 1962     		str	r1, [r3, #32]
 705 0012 FFF7FEBF 		b	chSchReadyI
 706              	.L5:
 707 0016 7047     		bx	lr
 708              		.size	chCondSignalI, .-chCondSignalI
 709 0018 AFF30080 		.section	.text.chCondBroadcastI,"ax",%progbits
 709      AFF30080 
 710              		.align	2
 711              		.p2align 4,,15
 712              		.global	chCondBroadcastI
 713              		.thumb
 714              		.thumb_func
 715              		.type	chCondBroadcastI, %function
 716              	chCondBroadcastI:
 717              		@ args = 0, pretend = 0, frame = 0
 718              		@ frame_needed = 0, uses_anonymous_args = 0
 719 0000 38B5     		push	{r3, r4, r5, lr}
 720 0002 0446     		mov	r4, r0
 721 0004 0068     		ldr	r0, [r0]
 722 0006 A042     		cmp	r0, r4
 723 0008 0AD0     		beq	.L7
 724 000a 6FF00105 		mvn	r5, #1
ARM GAS  /tmp/cc0VxuqZ.s 			page 52


 725              	.L10:
 726 000e 0368     		ldr	r3, [r0]
 727 0010 2360     		str	r3, [r4]
 728 0012 5C60     		str	r4, [r3, #4]
 729 0014 FFF7FEFF 		bl	chSchReadyI
 730 0018 0562     		str	r5, [r0, #32]
 731 001a 2068     		ldr	r0, [r4]
 732 001c A042     		cmp	r0, r4
 733 001e F6D1     		bne	.L10
 734              	.L7:
 735 0020 38BD     		pop	{r3, r4, r5, pc}
 736              		.size	chCondBroadcastI, .-chCondBroadcastI
 737 0022 00BFAFF3 		.section	.text.chCondBroadcast,"ax",%progbits
 737      0080AFF3 
 737      0080AFF3 
 737      0080
 738              		.align	2
 739              		.p2align 4,,15
 740              		.global	chCondBroadcast
 741              		.thumb
 742              		.thumb_func
 743              		.type	chCondBroadcast, %function
 744              	chCondBroadcast:
 745              		@ args = 0, pretend = 0, frame = 0
 746              		@ frame_needed = 0, uses_anonymous_args = 0
 747 0000 08B5     		push	{r3, lr}
 748 0002 2023     		movs	r3, #32
 749              	@ 546 "/home/cody/dev/chibios/trunk/os/ext/CMSIS/include/core_cmFunc.h" 1
 750 0004 83F31188 		MSR basepri, r3
 751              	@ 0 "" 2
 752              		.thumb
 753 0008 FFF7FEFF 		bl	chCondBroadcastI
 754 000c FFF7FEFF 		bl	chSchRescheduleS
 755 0010 0023     		movs	r3, #0
 756              	@ 546 "/home/cody/dev/chibios/trunk/os/ext/CMSIS/include/core_cmFunc.h" 1
 757 0012 83F31188 		MSR basepri, r3
 758              	@ 0 "" 2
 759              		.thumb
 760 0016 08BD     		pop	{r3, pc}
 761              		.size	chCondBroadcast, .-chCondBroadcast
 762 0018 AFF30080 		.section	.text.chCondWaitS,"ax",%progbits
 762      AFF30080 
 763              		.align	2
 764              		.p2align 4,,15
 765              		.global	chCondWaitS
 766              		.thumb
 767              		.thumb_func
 768              		.type	chCondWaitS, %function
 769              	chCondWaitS:
 770              		@ args = 0, pretend = 0, frame = 0
 771              		@ frame_needed = 0, uses_anonymous_args = 0
 772 0000 0F4B     		ldr	r3, .L18
 773 0002 70B5     		push	{r4, r5, r6, lr}
 774 0004 9C69     		ldr	r4, [r3, #24]
 775 0006 A66B     		ldr	r6, [r4, #56]
 776 0008 0546     		mov	r5, r0
 777 000a 3046     		mov	r0, r6
ARM GAS  /tmp/cc0VxuqZ.s 			page 53


 778 000c FFF7FEFF 		bl	chMtxUnlockS
 779 0010 2562     		str	r5, [r4, #32]
 780 0012 2B46     		mov	r3, r5
 781 0014 03E0     		b	.L15
 782              	.L17:
 783 0016 9968     		ldr	r1, [r3, #8]
 784 0018 A268     		ldr	r2, [r4, #8]
 785 001a 9142     		cmp	r1, r2
 786 001c 02D3     		bcc	.L14
 787              	.L15:
 788 001e 1B68     		ldr	r3, [r3]
 789 0020 9D42     		cmp	r5, r3
 790 0022 F8D1     		bne	.L17
 791              	.L14:
 792 0024 5A68     		ldr	r2, [r3, #4]
 793 0026 6260     		str	r2, [r4, #4]
 794 0028 2360     		str	r3, [r4]
 795 002a 0720     		movs	r0, #7
 796 002c 5C60     		str	r4, [r3, #4]
 797 002e 1460     		str	r4, [r2]
 798 0030 FFF7FEFF 		bl	chSchGoSleepS
 799 0034 246A     		ldr	r4, [r4, #32]
 800 0036 3046     		mov	r0, r6
 801 0038 FFF7FEFF 		bl	chMtxLockS
 802 003c 2046     		mov	r0, r4
 803 003e 70BD     		pop	{r4, r5, r6, pc}
 804              	.L19:
 805              		.align	2
 806              	.L18:
 807 0040 00000000 		.word	ch
 808              		.size	chCondWaitS, .-chCondWaitS
 809 0044 AFF30080 		.section	.text.chCondWait,"ax",%progbits
 809      AFF30080 
 809      AFF30080 
 810              		.align	2
 811              		.p2align 4,,15
 812              		.global	chCondWait
 813              		.thumb
 814              		.thumb_func
 815              		.type	chCondWait, %function
 816              	chCondWait:
 817              		@ args = 0, pretend = 0, frame = 0
 818              		@ frame_needed = 0, uses_anonymous_args = 0
 819 0000 08B5     		push	{r3, lr}
 820 0002 2023     		movs	r3, #32
 821              	@ 546 "/home/cody/dev/chibios/trunk/os/ext/CMSIS/include/core_cmFunc.h" 1
 822 0004 83F31188 		MSR basepri, r3
 823              	@ 0 "" 2
 824              		.thumb
 825 0008 FFF7FEFF 		bl	chCondWaitS
 826 000c 0023     		movs	r3, #0
 827              	@ 546 "/home/cody/dev/chibios/trunk/os/ext/CMSIS/include/core_cmFunc.h" 1
 828 000e 83F31188 		MSR basepri, r3
 829              	@ 0 "" 2
 830              		.thumb
 831 0012 08BD     		pop	{r3, pc}
 832              		.size	chCondWait, .-chCondWait
ARM GAS  /tmp/cc0VxuqZ.s 			page 54


 833 0014 AFF30080 		.section	.text.chCondWaitTimeoutS,"ax",%progbits
 833      AFF30080 
 833      AFF30080 
 834              		.align	2
 835              		.p2align 4,,15
 836              		.global	chCondWaitTimeoutS
 837              		.thumb
 838              		.thumb_func
 839              		.type	chCondWaitTimeoutS, %function
 840              	chCondWaitTimeoutS:
 841              		@ args = 0, pretend = 0, frame = 0
 842              		@ frame_needed = 0, uses_anonymous_args = 0
 843 0000 2DE9F041 		push	{r4, r5, r6, r7, r8, lr}
 844 0004 124C     		ldr	r4, .L27
 845 0006 A369     		ldr	r3, [r4, #24]
 846 0008 9F6B     		ldr	r7, [r3, #56]
 847 000a 0646     		mov	r6, r0
 848 000c 3846     		mov	r0, r7
 849 000e 8846     		mov	r8, r1
 850 0010 FFF7FEFF 		bl	chMtxUnlockS
 851 0014 A569     		ldr	r5, [r4, #24]
 852 0016 3346     		mov	r3, r6
 853 0018 2E62     		str	r6, [r5, #32]
 854 001a 03E0     		b	.L26
 855              	.L22:
 856 001c 9C68     		ldr	r4, [r3, #8]
 857 001e AA68     		ldr	r2, [r5, #8]
 858 0020 9442     		cmp	r4, r2
 859 0022 02D3     		bcc	.L25
 860              	.L26:
 861 0024 1B68     		ldr	r3, [r3]
 862 0026 9E42     		cmp	r6, r3
 863 0028 F8D1     		bne	.L22
 864              	.L25:
 865 002a 5A68     		ldr	r2, [r3, #4]
 866 002c 6A60     		str	r2, [r5, #4]
 867 002e 2B60     		str	r3, [r5]
 868 0030 4146     		mov	r1, r8
 869 0032 5D60     		str	r5, [r3, #4]
 870 0034 0720     		movs	r0, #7
 871 0036 1560     		str	r5, [r2]
 872 0038 FFF7FEFF 		bl	chSchGoSleepTimeoutS
 873 003c 431C     		adds	r3, r0, #1
 874 003e 0446     		mov	r4, r0
 875 0040 02D0     		beq	.L24
 876 0042 3846     		mov	r0, r7
 877 0044 FFF7FEFF 		bl	chMtxLockS
 878              	.L24:
 879 0048 2046     		mov	r0, r4
 880 004a BDE8F081 		pop	{r4, r5, r6, r7, r8, pc}
 881              	.L28:
 882 004e 00BF     		.align	2
 883              	.L27:
 884 0050 00000000 		.word	ch
 885              		.size	chCondWaitTimeoutS, .-chCondWaitTimeoutS
 886 0054 AFF30080 		.section	.text.chCondWaitTimeout,"ax",%progbits
 886      AFF30080 
ARM GAS  /tmp/cc0VxuqZ.s 			page 55


 886      AFF30080 
 887              		.align	2
 888              		.p2align 4,,15
 889              		.global	chCondWaitTimeout
 890              		.thumb
 891              		.thumb_func
 892              		.type	chCondWaitTimeout, %function
 893              	chCondWaitTimeout:
 894              		@ args = 0, pretend = 0, frame = 0
 895              		@ frame_needed = 0, uses_anonymous_args = 0
 896 0000 08B5     		push	{r3, lr}
 897 0002 2023     		movs	r3, #32
 898              	@ 546 "/home/cody/dev/chibios/trunk/os/ext/CMSIS/include/core_cmFunc.h" 1
 899 0004 83F31188 		MSR basepri, r3
 900              	@ 0 "" 2
 901              		.thumb
 902 0008 FFF7FEFF 		bl	chCondWaitTimeoutS
 903 000c 0023     		movs	r3, #0
 904              	@ 546 "/home/cody/dev/chibios/trunk/os/ext/CMSIS/include/core_cmFunc.h" 1
 905 000e 83F31188 		MSR basepri, r3
 906              	@ 0 "" 2
 907              		.thumb
 908 0012 08BD     		pop	{r3, pc}
 909              		.size	chCondWaitTimeout, .-chCondWaitTimeout
 910              		.comm	__gnu_lto_v1,1,1
 911 0014 AFF30080 		.ident	"GCC: (GNU Tools for ARM Embedded Processors) 4.8.4 20140526 (release) [ARM/embedded-4_8-br
 911      AFF30080 
 911      AFF30080 
ARM GAS  /tmp/cc0VxuqZ.s 			page 56

