ARM GAS  /tmp/cc7QYcgA.s 			page 1


   1              		.syntax unified
   2              		.cpu cortex-m4
   3              		.eabi_attribute 27, 3
   4              		.eabi_attribute 28, 1
   5              		.fpu fpv4-sp-d16
   6              		.eabi_attribute 20, 1
   7              		.eabi_attribute 21, 1
   8              		.eabi_attribute 23, 3
   9              		.eabi_attribute 24, 1
  10              		.eabi_attribute 25, 1
  11              		.eabi_attribute 26, 1
  12              		.eabi_attribute 30, 2
  13              		.eabi_attribute 34, 1
  14              		.eabi_attribute 18, 4
  15              		.thumb
  16              		.file	"chevents.c"
  17              		.section	.gnu.lto_.jmpfuncs.1b400facf6d6fc32,"",%progbits
  18 0000 789C6D8C 		.ascii	"x\234m\214\335\021\200 \014\203\223\326_P\221\355\\"
  18      DD118020 
  18      0C8393D6 
  18      5F5091ED 
  18      5C
  19 0011 C10578D5 		.ascii	"\301\005x\325q\034S\344\300\343N\373\322\344k\023\201"
  19      711C53E4 
  19      C0E34EFB 
  19      D2E46B13 
  19      81
  20 0022 E06FAEBC 		.ascii	"\340o\256\274=\234\250\262a\313N\251\221\004\220\247"
  20      3D9CA8B2 
  20      61CB4EA9 
  20      910490A7 
  21 0032 6CDC194D 		.ascii	"l\334\031M\257)>\350S\023\257\014\300X\033C\253\361"
  21      AF293EE8 
  21      5313AF0C 
  21      C0581B43 
  21      ABF1
  22 0044 F1002632 		.ascii	"\361\000&2\245h\200\271\322K\321\026p*/\317\005\353"
  22      A56880B9 
  22      D24BD116 
  22      702A2FCF 
  22      05EB
  23 0056 17F982EC 		.ascii	"\027\371\202\354\213p\003\236\225\013\033"
  23      8B70039E 
  23      950B1B
  24              		.text
  25              		.section	.gnu.lto_.inline.1b400facf6d6fc32,"",%progbits
  26 0000 789C8552 		.ascii	"x\234\205R\277K\034A\024\376\336\333\331\331\037\267"
  26      BF4B1C41 
  26      14FEDEDB 
  26      D9D91FB7 
  27 0010 7B3BABEB 		.ascii	"{;\253\353aL\304\003\2134\301\377@\210\377\300uB\032"
  27      614CC403 
  27      8B34C1FF 
  27      4088FFC0 
  27      75421A
  28 0023 214D8829 		.ascii	"!M\210)\362'\004\256SR\204M*\261\220kl%e0\020\266\011"
  28      F22704AE 
ARM GAS  /tmp/cc7QYcgA.s 			page 2


  28      5352844D 
  28      2AB1906B 
  28      6C256530 
  29 003a 040BB92A 		.ascii	"\004\013\271*\235 \251R\211\225\034\222\30273w\307\031"
  29      9D20A952 
  29      89951C92 
  29      C2373377 
  29      C719
  30 004c 0E9DE2CD 		.ascii	"\016\235\342\3157\337\3731o\276y\014\306\274\365\"\360"
  30      37DFFB31 
  30      6FBE790C 
  30      C6BCF522 
  30      F0
  31 005d 7B09E419 		.ascii	"{\011\344\031\201\363_o\220\217\266]0#\333\024\252<"
  31      81F35F6F 
  31      908FB65D 
  31      3023DB14 
  31      AA3C
  32 006f FD1221DA 		.ascii	"\375\022!\332_w\\\200VJ\004\262\260\375\365=\364`\215"
  32      5F775C80 
  32      564A04B2 
  32      B0FDF53D 
  32      F4608D
  33 0082 C1C34259 		.ascii	"\301\303BY\247B\022KBv\271\343yY!\"-\224\276\336@|\275"
  33      A742124B 
  33      4276B9E3 
  33      79592122 
  33      2D94BEDE 
  34 0099 E1288D4E 		.ascii	"\341(\215NA1\336\276\242w\304)\202K\302\356\014\366"
  34      4131DEBE 
  34      A277C429 
  34      824BC2EE 
  34      0CF6
  35 00ab 7C6B86F7 		.ascii	"|k\206\367X\256\014\006\001\331\233\035\036S}.\350\257"
  35      58AE0C06 
  35      01D99B1D 
  35      1E537D2E 
  35      E8AF
  36 00bd EDEF3943 		.ascii	"\355\3579C\300KomK\015Y\330gF2\332\352\013\177\300}"
  36      C04B6F6D 
  36      4B0D59D8 
  36      674632DA 
  36      EA0B7FC0 
  37 00d2 A5263B74 		.ascii	"\245&;t\2357\241\002\375\224\223\341\361\016}T4\241"
  37      9D37A102 
  37      FD9493E1 
  37      F10E7D54 
  37      34A1
  38 00e4 01ED71C5 		.ascii	"\001\355q\305\316:!Z\250@u/\302\3229\221\"\327\242\025"
  38      CE3A215A 
  38      A840752F 
  38      C2D23991 
  38      22D7A215 
  39 00f8 8E7627C8 		.ascii	"\216v'\310\365\002\327\2356\243\243\304\013 \367\033"
  39      F502D79D 
  39      36A3A3C4 
  39      0B20F71B 
ARM GAS  /tmp/cc7QYcgA.s 			page 3


  40 0108 6FA1FE7D 		.ascii	"o\241\376}\347.\342a\023\304NG+v\335\253{1\222\025\201"
  40      E72EE261 
  40      13C44E47 
  40      2B76DDAB 
  40      7B319215 
  41 011d 6AB036D5 		.ascii	"j\2606\325\214R\027\000\037\220<\026\220\"T\376K\202"
  41      8C521700 
  41      1F903C16 
  41      902254FE 
  41      4B82
  42 012f D76A560B 		.ascii	"\327jV\013\345\255\315haq_bx\371\360w:-\243\014\331"
  42      E5ADCD68 
  42      61715F62 
  42      78F9F077 
  42      3A2DA30C 
  43 0144 576558AA 		.ascii	"WeX\252\304\325=\271\240\251K^,\005s,.\210\347\331\247"
  43      C4D53DB9 
  43      A0A94B5E 
  43      2C05732C 
  43      2E88E7D9 
  44 0159 1FFF7BDA 		.ascii	"\037\377{\332(\253\311\030tn\217\351\376\034\370\230"
  44      28ABC918 
  44      746E8FE9 
  44      FE1CF898 
  45 0169 02AB2505 		.ascii	"\002\253%\005\363\304r2\205+\347\223<5,\014\262\263"
  45      F3C47232 
  45      852BE793 
  45      3C352C0C 
  45      B2B3
  46 017b 760CFEA3 		.ascii	"v\014\376\243\374$\345\220\003\352\236\301S\363P\221"
  46      FC24E590 
  46      03EA9EC1 
  46      53F35091 
  47 018b CEC7CF8F 		.ascii	"\316\307\317\217\027)\361\244\234\377m\323q\202\256"
  47      1729F1A4 
  47      9CFF6DD3 
  47      7182AE
  48 019a BE7D1817 		.ascii	"\276}\030\027j:\006\361m.\2717Q\027|\245\357W\303\035"
  48      6A3A06F1 
  48      6D2EB937 
  48      51177CA5 
  48      EF57C31D 
  49 01ae 8D4B6AB8 		.ascii	"\215Kj\270"
  50              		.text
  51              		.section	.gnu.lto_.pureconst.1b400facf6d6fc32,"",%progbits
  52 0000 789C6362 		.ascii	"x\234cb`bPf\200\000A\006+&+f+\026+V+6)v)\016+N+.)nI"
  52      60625066 
  52      80004106 
  52      2B262B66 
  52      2B162B56 
  53 0021 1E2B5E2B 		.ascii	"\036+^+>+~+\001+A+\000H\370\004*"
  53      3E2B7E2B 
  53      012B412B 
  53      0048F804 
  53      2A
  54              		.text
  55              		.section	.gnu.lto_chEvtRegisterMaskWithFlags.1b400facf6d6fc32,"",%progbits
ARM GAS  /tmp/cc7QYcgA.s 			page 4


  56 0000 789C8D92 		.ascii	"x\234\215\222?h\024A\024\306\2777\263\353\255\227\034"
  56      3F681441 
  56      14C6BF37 
  56      B3EBAD97 
  56      1C
  57 0011 042B6DC2 		.ascii	"\004+m\30256F2bg\027\020\002\026i<\005S\311\335\336"
  57      35364632 
  57      62671710 
  57      0216693C 
  57      0553C9DD 
  58 0026 B2B7E8DE 		.ascii	"\262\267\350\336\311\336\037\014\026\331\013B\304\306"
  58      C9DE1F0C 
  58      16D90B42 
  58      C4C6
  59 0034 132C8221 		.ascii	"\023,\202!\022A\020,\264\323k\004[\011\006\354D,\002"
  59      1241102C 
  59      B4D36B04 
  59      5B0906EC 
  59      442C02
  60 0047 D642B492 		.ascii	"\326B\264\222\213\020\337\314l\016\321U3\2603\337\316"
  60      8B10DFCC 
  60      6C0ED155 
  60      33B033DF 
  60      CE
  61 0058 BCDF9BEF 		.ascii	"\274\337\233\357\015O@\340\367q\202\277=\336\276\317"
  61      0D4F40E0 
  61      F77182BF 
  61      3DDEBECF 
  62 0068 2B499018 		.ascii	"+I\220\030l\003}O\020i\001\302\262\240\345E2\261/\304"
  62      6C037D4F 
  62      106901C2 
  62      B2A0E545 
  62      32B12FC4 
  63 007c 9B9DFDFD 		.ascii	"\233\235\375\375\347/W_\375\240G\342\230\244\230\340"
  63      E72F575F 
  63      FDA047E2 
  63      98A498E0 
  64 008c 2022B8AC 		.ascii	" \"\270\254\310cEEV\242\304\223\344x\027\267\323tP\006"
  64      C8634545 
  64      56A2C493 
  64      E47817B7 
  64      D3745006 
  65 00a0 7CC35FE2 		.ascii	"|\303_\342Y'\275LB\257r\033+_\277<\370||\034V\245\307"
  65      5927BD4C 
  65      42AF721B 
  65      2B5FBF3C 
  65      F87C7C1C 
  66 00b7 E4C2DC4A 		.ascii	"\344\302\334J\350I\355VZ\313\323X\245\215tm.\"\363{"
  66      E849ED56 
  66      5ACBD358 
  66      A58D746D 
  66      2E22F37B 
  67 00cb 85229265 		.ascii	"\205\"\222e\255\306\347w\263s\307\226\365\016+\037?"
  67      ADC6E777 
  67      B373C796 
  67      F50E2B1F 
  67      3F
ARM GAS  /tmp/cc7QYcgA.s 			page 5


  68 00dc 6DDE3B67 		.ascii	"m\336;gS\206\344\314\340\024\033]\307CF\335\220\244"
  68      5386E4CC 
  68      E0141B5D 
  68      C74346DD 
  68      90A4
  69 00ee 4E71C484 		.ascii	"Nq\304\204\326\350\340-\030z;\230\260\310\014\236\245"
  69      D6E8E02D 
  69      187A3B98 
  69      B0C80C9E 
  69      A5
  70 00ff 3C4A63A8 		.ascii	"<Jc\250\020\222\253!d\220\025\241\276\220\271\255\341"
  70      1092AB21 
  70      649015A1 
  70      BE90B9AD 
  70      E1
  71 0110 6847FC85 		.ascii	"hG\374\205\314\277.\324\245j\233\037F\273\342\300\246"
  71      CCBF2ED4 
  71      A56A9B1F 
  71      46BBE2C0 
  71      A6
  72 0121 676C9299 		.ascii	"gl\222\231=\246\373i:\025\321\321[\030\245w\264*\306"
  72      3DA6FB69 
  72      3A15D1D1 
  72      5B18A577 
  72      B42AC6
  73 0134 A6409DAD 		.ascii	"\246@\235\255\230e\023\331*\377Y\004\345\027\341dV<"
  73      986513D9 
  73      2AFF5904 
  73      E517E164 
  73      563C
  74 0146 5BC4F79C 		.ascii	"[\304\367\234\"&\362I7#\213\206\034\256\355\375IN\346"
  74      2226F249 
  74      37238B86 
  74      1CAEEDFD 
  74      494EE6
  75 0159 93F619F4 		.ascii	"\223\366\031\364\316d\346wkxx\272\220\335[\002\016\323"
  75      CE64E677 
  75      6B7878BA 
  75      90DD5B02 
  75      0ED3
  76 016b 3F557AC2 		.ascii	"?Uz\302/c\372\005\277\364K\225\236\322\264M\371\036"
  76      2F63FA05 
  76      BFF44B95 
  76      9ED2B44D 
  76      F91E
  77 017d FDDD6FAF 		.ascii	"\375\335o\257\2351\013\333\252\244[T\307\236U\215V\034"
  77      9D310BDB 
  77      AAA45B54 
  77      C79E558D 
  77      561C
  78 018f 28BF555F 		.ascii	"(\277U_R\365\240\247\374FT\213Zm\325I\272\315k\212E"
  78      52F5A0A7 
  78      FC46548B 
  78      5A6DD549 
  78      BACD6B8A 
  79 01a4 D251EDC4 		.ascii	"\322Q\355\304\347\375\240\0274;\355Y\037s\377C\202\233"
  79      E7FDA017 
ARM GAS  /tmp/cc7QYcgA.s 			page 6


  79      343BED59 
  79      1F73FF43 
  79      829B
  80 01b6 1D757EA1 		.ascii	"\035u~\241r\241\242\242\246\177\275[\327\261Ip\325\217"
  80      72A1A2A2 
  80      A67FBD5B 
  80      D7B14970 
  80      D58F
  81 01c8 E7BB4D7F 		.ascii	"\347\273M\177\266\201\251\205\312\305r\255\332\016n"
  81      B681A985 
  81      CAC572AD 
  81      DA0E6E
  82 01d7 24D1E9F2 		.ascii	"$\321\351\362\3113\020\011\012q\020\267\222%\374\004"
  82      C9331009 
  82      0A7110B7 
  82      9225FC04 
  83 01e7 1DA4CE55 		.ascii	"\035\244\316U"
  84              		.text
  85              		.section	.gnu.lto_chEvtUnregister.1b400facf6d6fc32,"",%progbits
  86 0000 789C8D50 		.ascii	"x\234\215P\315KTQ\024\377\235{\337\3070\030\264h\341"
  86      CD4B5451 
  86      14FF9D7B 
  86      DFC73018 
  86      B468E1
  87 0013 4264366E 		.ascii	"Bd6n\232\360V\376\003\206\020\270p\3438Q\253\230y\363"
  87      9AF056FE 
  87      038610B8 
  87      70E33851 
  87      AB9879F3 
  88 0027 701EF566 		.ascii	"p\036\365f\342\315\007\271\2327\"\010\256\024\\\210"
  88      E2CD07B9 
  88      9A372208 
  88      AE145C88 
  89 0037 1F60100C 		.ascii	"\037`\020\014D\331\266E\213\214$\013\032\372\300\205"
  89      44D9B645 
  89      8B8C240B 
  89      1AFAC085 
  90 0047 AD12176D 		.ascii	"\255\022\027m\012tW+;\357]\035\007\023\352\302\275\367"
  90      0A74572B 
  90      3BEF5D1D 
  90      0713EAC2 
  90      BDF7
  91 0059 7CFC7EE7 		.ascii	"|\374~\347\234\337\021\0208{n\361Msx\201\177J\200\304"
  91      9CDF1110 
  91      387B6EF1 
  91      4D737881 
  91      7F4A80C4 
  92 006d 7C1B6826 		.ascii	"|\033h&\004\231\332\220\302x-\021&\355\366{ \3541\310"
  92      0499DA90 
  92      C2782D11 
  92      26EDF67B 
  92      20EC31C8 
  93 0081 D2715B03 		.ascii	"\322q[\003n\230B\306\231\244\025\301z,\242(\014BCH\303"
  93      6E9842C6 
  93      99A415C1 
  93      7A2CA228 
  93      0C424348 
ARM GAS  /tmp/cc7QYcgA.s 			page 7


  94 0096 362D6ADC 		.ascii	"6-j\334\241\270\321s\361\352\333\321\321\306\352\334"
  94      A1B8D173 
  94      F1EADBD1 
  94      D1C6EADC 
  95 00a6 D6263D1B 		.ascii	"\326&=\033\270@\360\011\222\370\261\340\021l\266\270"
  95      B840F009 
  95      92F8B1E0 
  95      116CB6B8 
  96 00b6 BD17634D 		.ascii	"\275\027cM\314\204\341|\012pbw\202\337\003\013Y\022"
  96      CC84E17C 
  96      0A706277 
  96      82DF030B 
  96      5912
  97 00c8 FCC936A6 		.ascii	"\374\3116\246\017\177.\356\367v@9zD&\342\236\204\272"
  97      0F7F2EEE 
  97      F7764039 
  97      7A4426E2 
  97      9E84BA
  98 00db 8C344A2D 		.ascii	"\2144J-\264\037\263\264\026.\015{\024\327\271M\036\211"
  98      B41FB3B4 
  98      162E0D7B 
  98      14D7B94D 
  98      1E89
  99 00ed 546475F2 		.ascii	"Tdu\362s\307yy\272\220,;\254Hn\343\315\367\275\255\326"
  99      73C77979 
  99      BA902C3B 
  99      AC486EE3 
  99      CDF7BDAD 
 100 0102 26E9FA93 		.ascii	"&\351\372\223dM\222\335\0153\260!\345\007L\177\375\325"
 100      644D92DD 
 100      0D33B021 
 100      E5074C7F 
 100      FDD5
 101 0114 FA2D4E40 		.ascii	"\372-N@\2114.\263\210\025,s3\203\031QS\315\310\323\011"
 101      89342EB3 
 101      88152C73 
 101      33831951 
 101      53CDC8D3 
 102 0129 9749EF3E 		.ascii	"\227I\357>&5%\215'!\237k\335$\372\233\304\225\2651\301"
 102      2635258D 
 102      27219F6B 
 102      DD24FA9B 
 102      C495B531 
 103 013e 43ACBF05 		.ascii	"C\254\277\005e\231\313\233\216\007x\321\332=\235\362"
 103      6599CB9B 
 103      8E0778D1 
 103      DA3D9DF2 
 104 014e CC00E7D4 		.ascii	"\314\000\347\324\002\2661\363\2439\324%\254\243\177"
 104      02B631F3 
 104      A339D425 
 104      ACA37F
 105 015d 17C49E78 		.ascii	"\027\304\236x\371\345\022\307\355\247;}\221R\353\177"
 105      F9E512C7 
 105      EDA73B7D 
 105      9152EB7F 
 106 016d F79EA3C7 		.ascii	"\367\236\243\307\\*\3363\272\366\234\243\026\365\353"
 106      5C2ADE33 
ARM GAS  /tmp/cc7QYcgA.s 			page 8


 106      BAF69CA3 
 106      16F5EB
 107 017c FA9FD03C 		.ascii	"\372\237\320<\370\274ct\270\307\232\210;D\320\353\252"
 107      F8BC6374 
 107      B8C79A88 
 107      3B44D0EB 
 107      AA
 108 018d 58F65DE5 		.ascii	"X\366]\345\224\013S\252\340\326\225S\364\362^\271\242"
 108      940B53AA 
 108      E0D69553 
 108      F4F25EB9 
 108      A2
 109 019e AA41AD74 		.ascii	"\252A\255tO\261\021TU%p8\356\326\335R\2652\350`\370"
 109      4FB11154 
 109      55257038 
 109      EED6DD52 
 109      B532E860 
 110 01b3 5F14F761 		.ascii	"_\024\367aU\215\214eF3\312+9\367k\205\010\033\270w\035"
 110      558D8C65 
 110      4633CA2B 
 110      39F76B85 
 110      081BB877 
 111 01c8 FF66ADE4 		.ascii	"\377f\255\344\014\026qq,3\236\312\347*\356\203\300\273"
 111      0C167171 
 111      2C339ECA 
 111      E72AEE83 
 111      C0BB
 112 01da 921AB80A 		.ascii	"\222\032\270\012\021\300\366]\277\034L\341\017\235\304"
 112      11C0F65D 
 112      BF1C4CE1 
 112      0F9DC4
 113 01e9 AD59     		.ascii	"\255Y"
 114              		.text
 115              		.section	.gnu.lto_chEvtGetAndClearEvents.1b400facf6d6fc32,"",%progbits
 116 0000 789C8D51 		.ascii	"x\234\215QAk\023Q\020\376\346m\222M+B\361P\364R\026"
 116      416B1351 
 116      10FEE66D 
 116      924D2B42 
 116      F150F452 
 117 0015 C18B953E 		.ascii	"\301\213\225>\021\004\217\005\241\320C/\246\202\245"
 117      11048F05 
 117      A1D0432F 
 117      A682A5
 118 0024 0749364B 		.ascii	"\007I6K\363\320Md\223\224\026\017}I*(\364\020\332R\264"
 118      F3D04D64 
 118      9394160F 
 118      7D492A28 
 118      F410DA52 
 119 0039 A5602908 		.ascii	"\245`)\010z\261x\320C{\350\037\260\340I,=\004\372\003"
 119      7AB178D0 
 119      437BE81F 
 119      B0E0492C 
 119      3D04FA03 
 120 004d C4A35288 		.ascii	"\304\243R\210\363\336n\202zP\337\2623\2633\363}\363"
 120      F3DE6E82 
 120      7A50DFB2 
 120      33B333F3 
ARM GAS  /tmp/cc7QYcgA.s 			page 9


 120      7DF3
 121 005f BD590181 		.ascii	"\275Y\001\201?\317%~g9\275\306\236\034\220h\037\001"
 121      3FCF257E 
 121      6739BDC6 
 121      9E1C9068 
 121      1F01
 122 0071 8DAC2032 		.ascii	"\215\254 2\001\010K\202\226f\310\264\322e\354h\275\332"
 122      01084B82 
 122      9666C8B4 
 122      D265EC68 
 122      BDDA
 123 0083 79F2EE3B 		.ascii	"y\362\356;\275\320\207\313/\365Y\267K\244\210io\022"
 123      BDD087CB 
 123      2FF559B7 
 123      4BA48869 
 123      6F12
 124 0095 7CC23DFE 		.ascii	"|\302=\376 \317:\221\372}\316[q\330\351v\317>wN\277"
 124      20CF3A91 
 124      FA7DCE5B 
 124      71D8E976 
 124      CF3E774E 
 125 00aa D085F30E 		.ascii	"\320\205\363\016\0249)6\2514\205\204\014\362\264\303"
 125      14392936 
 125      A9348584 
 125      0CF2B4C3 
 126 00ba F4AEC964 		.ascii	"\364\256\311d\215aD\032\313Z\267\275\270\002C\317g\232"
 126      8D61441A 
 126      CB5AB7BD 
 126      B80243CF 
 126      679A
 127 00cc AD117697 		.ascii	"\255\021v\227\204\361\316\021\232\337\276\256\237^L"
 127      84F1CE11 
 127      9ADFBEAE 
 127      9F5E4C
 128 00db 9AC144BB 		.ascii	"\232\301D\273\224\266j\371Yp\314\215\235\370\332#xF"
 128      94B66AF9 
 128      5970CC8D 
 128      9DF8DA23 
 128      7846
 129 00ed DBFAF9B8 		.ascii	"\333\372\371\270\212\353Fd\3063Q\277\276\222\324\335"
 129      8AEB4664 
 129      C63351BF 
 129      BE92D4DD 
 130 00fd 58F24734 		.ascii	"X\362G4\217O\3666\334\230r\216\234Q\\U\211\315na\263"
 130      8F4FF636 
 130      DC98728E 
 130      9C515C55 
 130      89CD6E61 
 131 0112 A1F590A2 		.ascii	"\241\365\220\242\201\307\370\241\237\232h0$J\210\007"
 131      81C7F8A1 
 131      9F9A6830 
 131      244A8807 
 132 0122 2D418190 		.ascii	"-A\201\220\370$\260\224\355>a\312R\201\251\030r\216"
 132      F824B094 
 132      ED3E61CA 
 132      5281A918 
 132      728E
ARM GAS  /tmp/cc7QYcgA.s 			page 10


 133 0134 0718A893 		.ascii	"\007\030\250\223@D\037\322\332o\015\367 \031F\315\231"
 133      40441FD2 
 133      DA6F0DF7 
 133      201946CD 
 133      99
 134 0145 0B30D341 		.ascii	"\0130\323A\353\303\306\255^\301M\262\334\374\236z\311"
 134      EBC3C6AD 
 134      5EC14DB2 
 134      DCFC9E7A 
 134      C9
 135 0156 ACED766D 		.ascii	"\254\355vm\367d\234\034\305\033mu\377u,C\201\377\331"
 135      F7649C1C 
 135      C51B6D75 
 135      FF752C43 
 135      81FFD9
 136 0169 6D9E5E31 		.ascii	"m\236^1\324\356\022\277\3542O\257i$\326\377\011\215"
 136      D4EE12BF 
 136      EC324FAF 
 136      6924D6FF 
 136      098D
 137 017b BDE66C5F 		.ascii	"\275\346l_\177\234\234\346\215\360\3573\2757d\251\022"
 137      7F9C9CE6 
 137      8DF0EF33 
 137      BD3764A9 
 137      12
 138 018c 06D2AF14 		.ascii	"\006\322\257\024\027e1\230\227~I\025T\245*kQ\275\374"
 138      17653198 
 138      977E4915 
 138      54A52A6B 
 138      51BDFC
 139 019f 407210D5 		.ascii	"@r\020\325d5\3629\037\314\007\345Zu\314\007\205\343"
 139      6435F239 
 139      1FCC07E5 
 139      5A75CC07 
 139      85E3
 140 01b1 FF02050B 		.ascii	"\377\002\005\0135y{*7\231\223\252\354?\254\027Mo\024"
 140      35797B2A 
 140      379993AA 
 140      EC3FAC17 
 140      4D6F14
 141 01c4 DCF7C389 		.ascii	"\334\367\303\211z\331\037+ah*w\307+\344\253\301\243"
 141      7AD91F2B 
 141      61682A77 
 141      C72BE4AB 
 141      C1A3
 142 01d6 485DF3AE 		.ascii	"H]\363\256\\\207\210\340\206AX\211\026\361\023\210\214"
 142      5C8788E0 
 142      86415889 
 142      16F11388 
 142      8C
 143 01e7 ACE3     		.ascii	"\254\343"
 144              		.text
 145              		.section	.gnu.lto_chEvtAddEvents.1b400facf6d6fc32,"",%progbits
 146 0000 789C8D51 		.ascii	"x\234\215Q=K\003A\020}\263\227/\261\320R\013C\032\033"
 146      3D4B0341 
 146      107DB397 
 146      2FB1D052 
ARM GAS  /tmp/cc7QYcgA.s 			page 11


 146      0B431A1B 
 147 0014 1557FC05 		.ascii	"\025W\374\005\202 \244\2601\021\264\012\311\3450\207"
 147      8220A4B0 
 147      3111B40A 
 147      C9E53087 
 148 0024 5E22970F 		.ascii	"^\"\227\017\024\213\\\242\240h\023AP\024\013A\020,T"
 148      148B5CA2 
 148      A0681341 
 148      50140B41 
 148      102C54
 149 0037 C4C6CE1F 		.ascii	"\304\306\316\037\240\202\235\210\205h-hk\243\263{&\210"
 149      A0829D88 
 149      85682D68 
 149      6BA3B37B 
 149      2688
 150 0049 8D2EECCC 		.ascii	"\215.\354\314\333\331yogf\005\004~\257n\336\317\004"
 150      DBD9796F 
 150      67660504 
 150      7EAF6EDE 
 150      CF04
 151 005b 6CB22703 		.ascii	"l\262'\003$\032\267@-\"\210\024\000\241*\250:M:\367"
 151      241AB740 
 151      2D228814 
 151      00A12AA8 
 151      3A4D3AF7 
 152 006f 545C3D7D 		.ascii	"T\\=}~\236\334o\\\\\323\251h7`\023\002l(H\016!\244\020"
 152      7E9EDC6F 
 152      5C5CD3A9 
 152      68376013 
 152      026C2848 
 153 0087 6705B1E2 		.ascii	"g\005\261\342y\215\030`jV\222\255\222\232$\241\274q"
 153      798D1860 
 153      6A5692AD 
 153      929A24A1 
 153      BC71
 154 0099 8BFAFBEB 		.ascii	"\213\372\373\353\326KW+-M\007\024\204~\213P1T\215\206"
 154      D64B572B 
 154      2D4D0714 
 154      847E8B50 
 154      31548D86 
 155 00ad 5F6814AB 		.ascii	"_h\024\253\264\357\355\214\330\244\217Sd\223\021S\250"
 155      B4EFED8C 
 155      D8A48F53 
 155      64931153 
 155      A8
 156 00be 75BFFE7D 		.ascii	"u\277\376}\037\360\233\271A\375\341\361i\273\307\227"
 156      1FF09BB9 
 156      41FDE1F1 
 156      69BBC797 
 157 00ce 9C21A31F 		.ascii	"\234!\243\037}\\\243\266\301=\354\326<\257\323\246\320"
 157      7D5CA3B6 
 157      C13DECD6 
 157      3CAFD3A6 
 157      D0
 158 00df 123EBC35 		.ascii	"\022>\2745\205\302\216\256X\011\207\265@\306o\224\375"
 158      85C28EAE 
 158      580987B5 
ARM GAS  /tmp/cc7QYcgA.s 			page 12


 158      40C66F94 
 158      FD
 159 00f0 37D0926F 		.ascii	"7\320\222o\035M\301@?\216=-\022a9\246\265\361#\212\336"
 159      1D4DC140 
 159      3F8E3D2D 
 159      126139A6 
 159      B5F1238A 
 160 0105 A489166D 		.ascii	"\244\211\026m\371\322h\262BL\234Q=\262X\334\017\376"
 160      F9D268B2 
 160      424C9C51 
 160      3DB258DC 
 160      0FFE
 161 0117 4F87A9C0 		.ascii	"O\207\251\300\177\006\226\246C\376<= \374\030P\232\216"
 161      7F0696A6 
 161      43FE3C3D 
 161      20FC1850 
 161      9A8E
 162 0129 28EA4BDE 		.ascii	"(\352K\336\241vv\236jU\344\007\223\334&\377\211\312"
 162      A176769E 
 162      6A55E407 
 162      93DC26FF 
 162      89CA
 163 013b 1D96B982 		.ascii	"\035\226\271\202cI\263\220]\224Y\253\"\315\234\235\261"
 163      6349B390 
 163      5D9459AB 
 163      22CD9C9D 
 163      B1
 164 014c 0B455972 		.ascii	"\013EYr\313\371Y\311\300-\311\242kr\334\252X\371Rq\320"
 164      CBF959C9 
 164      C02DC9A2 
 164      6B72DCAA 
 164      58F95271 
 165 0161 C4C85F14 		.ascii	"\304\310_\024k\241$G\307\023\361\204\264\363\346\\9"
 165      6BA12447 
 165      C713F184 
 165      B4F3E65C 
 165      39
 166 0172 AB725D2B 		.ascii	"\253r]+e:c\345\2749\230C\347xb\"\226I\027\255y\327\036"
 166      653A63E5 
 166      BC399843 
 166      E7786222 
 166      964917AD 
 167 0189 88F50E41 		.ascii	"\210\365\016A\270\010;\226Sp\027\361\005\351?\221\344"
 167      B8083B96 
 167      537017F1 
 167      05E93F91 
 167      E4
 168              		.text
 169              		.section	.gnu.lto_chEvtGetAndClearFlags.1b400facf6d6fc32,"",%progbits
 170 0000 789C8D50 		.ascii	"x\234\215P;H\003A\020\235\331K\374\024\202`c\0329\004"
 170      3B480341 
 170      109DD94B 
 170      FC148260 
 170      631A3904 
 171 0014 2B252B82 		.ascii	"+%+\202\245 \010\202E\032\243\240\225\\6gr\350%r\227"
 171      A5200882 
 171      451AA3A0 
ARM GAS  /tmp/cc7QYcgA.s 			page 13


 171      955C3667 
 171      72E82572 
 172 0029 04034A2E 		.ascii	"\004\003J.\242\245\020D\360\207\250\010\2026ZZ\010F"
 172      A2A51044 
 172      F087A808 
 172      82365A5A 
 172      0846
 173 003b 3B0B055B 		.ascii	";\013\005[\261\010\244\325\302JP!\316\336%Am\342,{3"
 173      B108A4D5 
 173      C24A5021 
 173      CEDE2541 
 173      6DE22C7B 
 174 0050 3BFBDEDB 		.ascii	";\373\336\333y\307\200\301\337\010\320\276F\200-\312"
 174      79C780C1 
 174      DF08D0BE 
 174      46802DCA 
 175 0060 A800B2C2 		.ascii	"\250\000\262\302\003@\276\205!\312\002\020r\014s\323"
 175      0340BE85 
 175      21CA0210 
 175      720C73D3 
 176 0070 28A1D80D 		.ascii	"(\241\330\015G\216\263QZ{\277a;Nq\365\320\371\252T\020"
 176      478EB351 
 176      5A7BBF61 
 176      3B4E71F5 
 176      D0F9AA54 
 177 0085 0D24D941 		.ascii	"\015$\331A\004\2010E\007T\335\304|\277\3379g\305R\245"
 177      04813045 
 177      0754DDC4 
 177      7CBFDF39 
 177      67C552A5 
 178 0099 72F5F952 		.ascii	"r\365\371R~\305\216V\005M\004\037hxD\242\024~Xu\234"
 178      7EC58E56 
 178      054D041F 
 178      687844A2 
 178      147E5875 
 179 00ae 825A3B0B 		.ascii	"\202Z;\013\367\275\011\372\312!&\221\311\254<\300\312"
 179      F7BD09FA 
 179      CA212691 
 179      C9AC3CC0 
 179      CA
 180 00bf DBE766B9 		.ascii	"\333\347f\271\263\012\006\242\037\243\337\235\214\326"
 180      B30A06A2 
 180      1FA3DF9D 
 180      8CD6
 181 00cd 9222DD29 		.ascii	"\222\"\335)\236\305.X\307}g{\330 K\024r \237*\253\372"
 181      9EC52E58 
 181      C77D677B 
 181      D8204B14 
 181      72209F2A 
 182 00e3 7DA17AEF 		.ascii	"}\241z\357\367\306\273\207\225\247\347\303\203\200'"
 182      F7C6BB87 
 182      95A7E7C3 
 182      838027
 183 00f2 19435F2F 		.ascii	"\031C_/\2349\024C\344n\017v\211\337\024CE\3524\273\370"
 183      9C391443 
 183      E46E0F76 
 183      89DF1443 
ARM GAS  /tmp/cc7QYcgA.s 			page 14


 183      45EA34BB 
 184 0107 08D68C11 		.ascii	"\010\326\214\021\363\362\362\343\216y\314*\255\255\001"
 184      F3F2F2E3 
 184      8E79CC2A 
 184      ADAD01
 185 0116 4D76DCE2 		.ascii	"Mv\334\342?\2364<!\033\256\007\370\341A\303S\354\362"
 185      3F9E343C 
 185      211BAE07 
 185      F8E141C3 
 185      53ECF2
 186 0129 E41E217F 		.ascii	"\344\036!\177q\273\\\237\335kN \312\337&\261\003<\236"
 186      71BB5C9F 
 186      DD6B4E20 
 186      CADF26B1 
 186      033C9E
 187 013c 34752E92 		.ascii	"4u.\222\321,\217\352\031.\342F\304H\332<e\245\023s\234"
 187      D12C8FEA 
 187      192EE246 
 187      C448DA3C 
 187      65A51373 
 188 0151 0A2BC56D 		.ascii	"\012+\305mKP_\317\350\211\224\035\024\340\237\235\327"
 188      4B505FCF 
 188      E889941D 
 188      14E09F9D 
 188      D7
 189 0162 62F67023 		.ascii	"b\366p#\242\276\230\342#\241\360X\230\033\0111\237\216"
 189      A2BE98E2 
 189      23A1F058 
 189      981B0931 
 189      9F8E
 190 0174 4AACA5CF 		.ascii	"J\254\245\317\010s4\235\020\3018\264\207\302\343jD\263"
 190      0873349D 
 190      10C138B4 
 190      87C2E36A 
 190      44B3
 191 0186 F505CBE8 		.ascii	"\365\005\313\350S{\372\201Y\320l\352f\322\312\3027\350"
 191      537BFA81 
 191      59D06CEA 
 191      66D2CAC2 
 191      37E8
 192 0198 E59523   		.ascii	"\345\225#"
 193              		.text
 194              		.section	.gnu.lto_chEvtSignalI.1b400facf6d6fc32,"",%progbits
 195 0000 789CAD52 		.ascii	"x\234\255R\275kTA\020\237\331}_\367\336I,\222\302B\320"
 195      BD6B5441 
 195      109FD97D 
 195      5FF7DE49 
 195      2C92C242 
 196 0015 4A34E813 		.ascii	"J4\350\023\211`\376\004\373\034\304*\230\227\343\262"
 196      8960FE04 
 196      FB1CC42A 
 196      9897E3B2 
 197 0025 48727077 		.ascii	"Hrpw\006$E\366\222+b\027R\035I\243\255E\016\002J\202"
 197      062445F6 
 197      922B6217 
 197      521D49A3 
 197      AD450E02 
ARM GAS  /tmp/cc7QYcgA.s 			page 15


 198 003b 161E09C1 		.ascii	"\026\036\011\301\257(^%W\035)bc\221\322\017$\316\354"
 198      AF285E25 
 198      571D2962 
 198      6391D20F 
 198      24CEEC
 199 004e BB77BE93 		.ascii	"\273w\276\223\200)\262\260\263\277\331\231\371\315o"
 199      8029B2B0 
 199      B3BFD999 
 199      F9CD6F
 200 005d 3F0408F8 		.ascii	"?\004\010\370wL\320\274,\001FhE\017P\254|\004\250zB"
 200      774CD0BC 
 200      2C014668 
 200      450F50AC 
 200      7C04A87A 
 201 0072 C8A321D0 		.ascii	"\310\243!\320\276\365\344\016\350\254\024\316\362\025"
 201      BEF5E40E 
 201      E8AC14CE 
 201      F215
 202 0080 F6D8662D 		.ascii	"\366\330f-a\357]$\317}w\223<[8)\317A7&p\021\031\000"
 202      61EF5D24 
 202      CF7D7793 
 202      3C5B3829 
 202      CF413726 
 203 0098 C2829096 		.ascii	"\302\202\220\226\355\270\270p\017M\307\206x\3359>\336"
 203      EDB8B870 
 203      0F4DC786 
 203      78DD393E 
 203      DE
 204 00a9 68B75EBC 		.ascii	"h\267^\274\302\017b@\342\014\202\005\012\301&\204\016"
 204      C20F6240 
 204      E20C8205 
 204      0AC12684 
 204      0E
 205 00ba 238F0C66 		.ascii	"#\217\014f\030\371l\0026Y64l\250i\275r\011 2\356\030"
 205      18F96C02 
 205      36593634 
 205      6CA869BD 
 205      72092032 
 206 00d0 596E9443 		.ascii	"Yn\224C\301\253\334\207\305\366\227\215\226\270\217"
 206      C1ABDC87 
 206      C5F6978D 
 206      96B88F
 207 00df 4FD18602 		.ascii	"O\321\206\002Z\303\360Lk}^\241X\2075T(\013(\307i\265"
 207      5AC3F04C 
 207      6B7D5EA1 
 207      58873554 
 207      280B28C7 
 208 00f5 8C98494C 		.ascii	"\214\230IL.b\037\226\266eR\345Pa\201\020\355.\336\215"
 208      2E621F96 
 208      B66552E5 
 208      50618110 
 208      ED2EDE8D 
 209 0109 374FC743 		.ascii	"7O\307C\245\246\250]o\2641a\363\206\341\232B\373\344"
 209      A5A6A85D 
 209      6FB43161 
 209      F386E19A 
 209      42FBE4
ARM GAS  /tmp/cc7QYcgA.s 			page 16


 210 011c BA44C01B 		.ascii	"\272D\300\033\330\375Z=\327+\341\024\364S\017\225C\011"
 210      D8FD5A3D 
 210      D72BE114 
 210      F4530F95 
 210      4309
 211 012e 4743E67C 		.ascii	"GC\346|[\215\226\225$f\014\267\210\325\351y\205\316"
 211      5B8D9695 
 211      24660CB7 
 211      88D5E979 
 211      85CE
 212 0140 C96D4477 		.ascii	"\311mDw\225\177\217\373r\351\260'\3217g\316\260\214"
 212      957F8FFB 
 212      72E9B027 
 212      D13767CE 
 212      B08C
 213 0152 DAB7E68F 		.ascii	"\332\267\346\217\325\353\275\000\223\364\375\230\034"
 213      D5EBBD00 
 213      93F4FD98 
 213      1C
 214 015f 71D67740 		.ascii	"q\326w@\262\340\346\257\325\333\375\222\203\276L\033"
 214      B2E0E6AF 
 214      D5DBFD92 
 214      83BE4C1B 
 215 016f 9E5F3092 		.ascii	"\236_0\222\277\247$\007g#9k$\007\361\3155\177\267z\222"
 215      BFA72407 
 215      6723396B 
 215      2407F1CD 
 215      357FB77A 
 216 0184 038AA545 		.ascii	"\003\212\245E8\2607\310\"\266\352\233\007\"\375\230"
 216      38B037C8 
 216      22B6EA9B 
 216      0722FD98 
 217 0194 7A54A1DB 		.ascii	"zT\241\333\205\003\377\225\021\373\034q\031|\202Z\347"
 217      8503FF95 
 217      11FB1C71 
 217      197C825A 
 217      E7
 218 01a5 ED633FE6 		.ascii	"\355c?\346\003\230\207\237z\231\277\207\027u\237\224"
 218      0398879F 
 218      7A99BF87 
 218      17759F94 
 219 01b5 6814DF68 		.ascii	"h\024\337h,\3025\277\3633T;\357\257&5\361\030\243|\212"
 219      2CC235BF 
 219      F333543B 
 219      EFAF2635 
 219      F118A37C 
 220 01ca 719B5BE1 		.ascii	"q\233[\341tq&\037F\305\251G\341T~.\214\246\325\244*"
 220      7471261F 
 220      46C5A947 
 220      E1547E2E 
 220      8CA6D5A4 
 221 01df 96C34AE9 		.ascii	"\226\303J\351\341\354\203\220@\251\022\226K\021\355"
 221      E1EC8390 
 221      40A91296 
 221      4B11ED
 222 01ee E7E7F2B3 		.ascii	"\347\347\362\263\225\362\215\010\376\000eS\305G"
 222      95F28D08 
ARM GAS  /tmp/cc7QYcgA.s 			page 17


 222      FE006553 
 222      C547
 223              		.text
 224              		.section	.gnu.lto_chEvtBroadcastFlagsI.1b400facf6d6fc32,"",%progbits
 225 0000 789C8D53 		.ascii	"x\234\215S\315k\023A\024\177ofgw\223lJ\274\350\305C"
 225      CD6B1341 
 225      147F6F66 
 225      6777936C 
 225      4ABCE8C5 
 226 0015 F15230E8 		.ascii	"\361R0\350BA\264\007\377\000\357-((\322n\226\355\242"
 226      4241B407 
 226      FF00EF2D 
 226      2828D26E 
 226      96EDA2
 227 0028 6D248905 		.ascii	"m$\211\005\361\320I\272\205\036\212\024O~\\,\336\274"
 227      F1D049BA 
 227      851E8A14 
 227      4F7E5C2C 
 227      DEBC
 228 003a 287851AA 		.ascii	"(xQ\252\222\200\240\202\255\012^Z\024rR\264\365\003"
 228      9280A082 
 228      AD0A5E5A 
 228      147252B4 
 228      F503
 229 004c A4285248 		.ascii	"\244(RH\337\354WL\255\340\300\276\231\367x\357\367\373"
 229      DFEC574C 
 229      ADE0C0BE 
 229      99F778EF 
 229      F7FB
 230 005e BD37B30C 		.ascii	"\2757\263\014\030\354\\.}\2479\3001\3321\003\310\026"
 230      18EC5C2E 
 230      7DA739C0 
 230      31DA3103 
 230      C816
 231 0070 5600EA26 		.ascii	"V\000\352&C#:p&\336\356\005\231\325\036\035\005iiL\314"
 231      43233A70 
 231      26DEEE05 
 231      99D51E1D 
 231      0569694C 
 232 0085 0D90A72B 		.ascii	"\015\220\247+k\011\324\243$=\312n\231\006\343\363\317"
 232      6B09D4A3 
 232      243DCA6E 
 232      9906E3F3 
 232      CF
 233 0096 8012CCC0 		.ascii	"\200\022\314\300\240\004\023Q\305\001a\232qM\350\206"
 233      A0041351 
 233      C501619A 
 233      714DE886 
 234 00a6 89D3A750 		.ascii	"\211\323\247P\321\342\001X\224\362j{\366\363'v]6\203"
 234      D1E20158 
 234      94F26A7B 
 234      F6F32776 
 234      5D3683
 235 00b9 5B72ABD3 		.ascii	"[r\253\323A\364\221$\036Ap\020N\222\203\375\341\306"
 235      41F49124 
 235      1E417010 
 235      4E9283FD 
ARM GAS  /tmp/cc7QYcgA.s 			page 18


 235      E1C6
 236 00cb B45ECD77 		.ascii	"\264^\315wY\263\335\351l\375\2707\277\201Kl\017\302"
 236      59B3DDE9 
 236      6CFDB837 
 236      BF814B6C 
 236      0FC2
 237 00dd 282E12A0 		.ascii	"(.\022\240\300\011\004=v\014\360\221\233\024\241\246"
 237      C009043D 
 237      760CF091 
 237      9B14A1A6 
 238 00ed E89453C6 		.ascii	"\350\224S\306R&OF\353S\247B\234JK@ \345B\177\342;\241"
 238      52264F46 
 238      EB53A742 
 238      9C4A4B40 
 238      20E5427F 
 239 0104 C661B2D4 		.ascii	"\306a\262\324\306\0102\332\37024\326\036\254\017\215"
 239      C60832DA 
 239      F83234D6 
 239      1EAC0F8D 
 240 0114 E26D14E0 		.ascii	"\342m\024\340\241^\204;\222\326\020I\276\0117H\245\360"
 240      A15E843B 
 240      92D61049 
 240      BE093748 
 240      A5F0
 241 0126 5028B57A 		.ascii	"P(\265z\250q\014\377T<\202\034h0!\310\257\365U\226\240"
 241      A8710CFF 
 241      543C821C 
 241      683021C8 
 241      AFF55596 
 242 013b 18114AC1 		.ascii	"\030\021J\301G#\0021=D\005\0021H\202\262\0143\017yR"
 242      47230231 
 242      3D440502 
 242      314882B2 
 242      0C330F79 
 243 0150 95A1420F 		.ascii	"\225\241B\017M\025m\234\210\202\377\207C\245\000\317"
 243      4D156D9C 
 243      8882FF87 
 243      43A500CF 
 244 0160 E1E9C7D6 		.ascii	"\341\351\307\326\346\025+A3U\036\357U\253\301\343\301"
 244      E6152B41 
 244      33551EEF 
 244      55ABC1E3 
 244      C1
 245 0171 50ECEB7D 		.ascii	"P\354\353}IZ\256\010\007\377\011\317\2722\227f>\244"
 245      495AAE08 
 245      07FF09CF 
 245      BA329766 
 245      3EA4
 246 0183 ED59A1D6 		.ascii	"\355Y\241\326\234\342\0146\352g\322\360.\214\002\276"
 246      9CE20C36 
 246      EA67D2F0 
 246      2E8C02BE 
 247 0193 1C8AC6F3 		.ascii	"\034\212\306\363\265;\236|\310\251\021g\235\272;\373"
 247      B53B9E7C 
 247      C8A91167 
 247      9DBA3BFB 
 248 01a3 372F4F79 		.ascii	"7/Oy\033k\337\263IY_X\226\211\313\356\357\2427yP\257"
ARM GAS  /tmp/cc7QYcgA.s 			page 19


 248      1B6BDFB3 
 248      49595F58 
 248      9689CBEE 
 248      EFA23779 
 249 01b9 60B6598C 		.ascii	"`\266Y\214\312\000.\303o9\247f\230u\322y\345\011\315"
 249      CA002EC3 
 249      6F39A766 
 249      9875D279 
 249      E509CD
 250 01cc 571D442A 		.ascii	"W\035D*\365\364\026\257}{\201\011_!~\013\307\323\267"
 250      F5F416AF 
 250      7D7B8109 
 250      5F217E0B 
 250      C7D3B7
 251 01df B0934FF4 		.ascii	"\260\223O\364\364j\000\375\025\\\315\244\365~%\275\007"
 251      F46A00FD 
 251      155CCDA4 
 251      F57E25BD 
 251      07
 252 01f0 F4BA69AB 		.ascii	"\364\272i\253@\236\316\336m\356't\375\345\317\222*3"
 252      409ECEDE 
 252      6DEE2774 
 252      FDE5CF92 
 252      2A33
 253 0202 D5337C03 		.ascii	"\3253|\003\365\366\223\201Dr\264\206In`\250;\030\264"
 253      F5F69381 
 253      4472B486 
 253      496E60A8 
 253      3B18B4
 254 0215 C7CB13AE 		.ascii	"\307\313\023\256\355\224K\227\354\222;e;\343\376\230"
 254      ED944B97 
 254      EC923B65 
 254      3BE3FE98 
 255 0225 5FAEDAB5 		.ascii	"_\256\332\265\312\305\311s6\035*5\273Zq(\356N\271\223"
 255      CAC5C973 
 255      361D2A35 
 255      BB5A7128 
 255      EE4EB993 
 256 0239 B5EA6107 		.ascii	"\265\352a\007\270{\376\3026\313\267\325\243"
 256      B87BFEC2 
 256      36CBB7D5 
 256      A3
 257              		.text
 258              		.section	.gnu.lto_chEvtSignal.1b400facf6d6fc32,"",%progbits
 259 0000 789C8D50 		.ascii	"x\234\215P=K\003A\020\235\331\315\251\244J\251M\270"
 259      3D4B0341 
 259      109DD9CD 
 259      A9A44AA9 
 259      4DB8
 260 0012 C64EB2E2 		.ascii	"\306N\262\342/\010\010\202E\032\243\240\225\\6K\262"
 260      2F080882 
 260      451AA3A0 
 260      955C364B 
 260      B2
 261 0023 E8DDC9DD 		.ascii	"\350\335\311\335%\030Dr\361\003E\020\023\260\260\261"
 261      25184472 
 261      F1034510 
ARM GAS  /tmp/cc7QYcgA.s 			page 20


 261      13B0B0B1 
 262 0033 10043BED 		.ascii	"\020\004;\355\254\305\312*\342?\010XY\010\321R\304\270"
 262      ACC5CA2A 
 262      E23F0858 
 262      5908D152 
 262      C4B8
 263 0045 7B178368 		.ascii	"{\027\203h\241\013;3\354\274y\363\366\021 \360\363\214"
 263      A10B3B33 
 263      ECBC79F3 
 263      F61120F0 
 263      F38C
 264 0057 A9BB8000 		.ascii	"\251\273\200\000-\225\221\002\222f\033\2401B\020u\001"
 264      2D959102 
 264      92661BA0 
 264      31421075 
 264      01
 265 0068 087582F5 		.ascii	"\010u\202\365%\214\260W\344\246\323\353]~\034]\277\343"
 265      258CB057 
 265      E4A6D3EB 
 265      5D7E1C5D 
 265      BFE3
 266 007a 1D4952B4 		.ascii	"\035IR\264\021\022*\350\256\001;a\3304\001x\204\235"
 266      11122AE8 
 266      AE013B61 
 266      D8340178 
 266      849D
 267 008c 5751132C 		.ascii	"WQ\023, \321\231\266a\353\345\371\370qt\000\263\360"
 267      20D199B6 
 267      61EBE5F9 
 267      F8717400 
 267      B3F0
 268 009e 0C0D8836 		.ascii	"\014\015\2106 T\251VFcyi\330\303\323\360$+\343\245\213"
 268      2054A956 
 268      46637969 
 268      D8C3D3F0 
 268      242BE3A5 
 269 00b3 28114D5D 		.ascii	"(\021M]\015\372\007\375~\3777\367\260\333\275mm~1n\300"
 269      0DFA07FD 
 269      7EFF37F7 
 269      B0DBBD6D 
 269      6D7E316E 
 270 00c8 5BB81FA6 		.ascii	"[\270\037\246$R\2161E\011i\011\023\022\023\032\273\335"
 270      24528E31 
 270      45096909 
 270      1312131A 
 270      BBDD
 271 00da 397C4AFE 		.ascii	"9|J\376\302\032\274\317&q\010\340?j-<W~E\352\340\233"
 271      C21ABCCF 
 271      267108E0 
 271      3F6A2D3C 
 271      577E45EA 
 272 00f0 3A0B2F30 		.ascii	":\013/0\035\353z\200F\367\265e\014f!6\006\265!\032;"
 272      1DEB7A80 
 272      46F7B565 
 272      0C662136 
 272      06B5211A 
 273 0105 C5CAAE2D 		.ascii	"\305\312\256-\030w\2135V\024U\306\313\262 ]\237\005"
ARM GAS  /tmp/cc7QYcgA.s 			page 21


 273      18778B35 
 273      561455C6 
 273      CBB2205D 
 273      9F05
 274 0117 5EC55961 		.ascii	"^\305Ya\252\360\002\346{\\\275\213\252p\002?\303!\373"
 274      AAF002E6 
 274      7B5CBD8B 
 274      AA70023F 
 274      C321FB
 275 012a D788580F 		.ascii	"\327\210X\017\330t.?\233g\322\341\253\225\242\306zb"
 275      D8742E3F 
 275      9B67D2E1 
 275      AB95A2C6 
 275      7A62
 276 013c 99DB3315 		.ascii	"\231\3333\025\207g\312\220\312\345\347\314\202\345\213"
 276      8767CA90 
 276      CAE5E7CC 
 276      82E58B
 277 014b 354F4E98 		.ascii	"5ON\230\343\223@<\030\266\205\355z5\370\004m\312|\015"
 277      E393403C 
 277      18B685ED 
 277      7A35F804 
 277      6DCA7C0D 
 278              		.text
 279              		.section	.gnu.lto_chEvtBroadcastFlags.1b400facf6d6fc32,"",%progbits
 280 0000 789C6362 		.ascii	"x\234cb`b@\007\222@\034\306\310\3000\021H32302M8\307"
 280      60624007 
 280      92401CC6 
 280      C8C03011 
 280      48333233 
 281 0019 C0D0C8C1 		.ascii	"\300\320\310\301\304\310\010b002\32431\326G2\202\325"
 281      C4C80862 
 281      303032D4 
 281      3331D647 
 281      3282D5
 282 002c AE673AF0 		.ascii	"\256g:\360\340\377\377uW.\037=\310\370C\223\213\231"
 282      E0FFFF75 
 282      572E1F3D 
 282      C8F84393 
 282      8B99
 283 003e 31979181 		.ascii	"1\227\221\201\005H\200dY\031Z\032\032&(00$\203\325\206"
 283      05488064 
 283      59195A1A 
 283      1A262830 
 283      302483D5 
 284 0053 00499001 		.ascii	"\000I\220\001\241\214L \232\371\034C\323\307\267S\036"
 284      A18C4C20 
 284      9AF91C43 
 284      D3C7B753 
 284      1E
 285 0064 4BC09525 		.ascii	"K\300\225%2.dde\000\333\300\310P\306\014r\0313\304y"
 285      322E6464 
 285      6500DBC0 
 285      C850C60C 
 285      721933C4 
 286 0079 720CED8C 		.ascii	"r\014\355\214s\033f8dB,\215`\314ddT\000\261\340\362"
 286      731B6638 
ARM GAS  /tmp/cc7QYcgA.s 			page 22


 286      64422C8D 
 286      60CC6464 
 286      5400B1E0 
 287 008e 5D5079A8 		.ascii	"]Py\250o\3163\264~\2704w/#\314\310j\206_\015\035\015"
 287      6FCE33B4 
 287      7EB83477 
 287      2F23CCC8 
 287      6A865F0D 
 288 00a4 02998CCC 		.ascii	"\002\231\214\314\311\214\0203\322\031\231\323\031Y2"
 288      C98C1033 
 288      D21999D3 
 288      195932
 289 00b3 1959408A 		.ascii	"\031Y@\212\233\037\274{\311\205\241\2265\031j\\&#\033"
 289      9B1FBC7B 
 289      C985A196 
 289      35196A5C 
 289      26231B
 290 00c6 030331CE 		.ascii	"\003\0031\316Md\\\002\0140\260\363\030\220\234\227\310"
 290      4D645C02 
 290      0C30B0F3 
 290      18909C97 
 290      C8
 291 00d7 B89C510E 		.ascii	"\270\234Q\016\342\260\213\014\215\037\232\346\263\302"
 291      E2B08B0C 
 291      8D1F9AE6 
 291      B3C2
 292 00e5 F5324042 		.ascii	"\3652@B\206\021\024\" \265F\372\031\371\271\251\372"
 292      86111422 
 292      20B546FA 
 292      19F9B9A9 
 292      FA
 293 00f6 C9F92995 		.ascii	"\311\371)\225\372)\251e\372\311\031\231I\231\371\305"
 293      FA29A965 
 293      FAC91999 
 293      4999F9C5 
 294 0106 FA2545A5 		.ascii	"\372%E\245y\331\372@FQ\211~qQ2P<\265,5\257\244X/\231"
 294      79D9FA40 
 294      4651897E 
 294      71513250 
 294      3CB52C35 
 295 011f C1819096 		.ascii	"\301\201\220\226\324\212\022}g\337`\317`\375\314\274"
 295      D48A127D 
 295      67DF60CF 
 295      60FDCCBC 
 296 012f E49CD214 		.ascii	"\344\234\322\024\220\332\242\324\370\344\\\267\322\274"
 296      90DAA2D4 
 296      F8E45CB7 
 296      D2BC
 297 013d 64BD0C06 		.ascii	"d\275\014\006\001\337\340 \205\244\304\342\324\202\242"
 297      01DFE020 
 297      85A4C4E2 
 297      D482A2
 298 014c 4C1D0555 		.ascii	"L\035\005U\003\006\246\"\006\366\334\324\334\374\242"
 298      0306A622 
 298      06F6DCD4 
 298      DCFCA2
 299 015b 4A0600B4 		.ascii	"J\006\000\264\305|\257"
ARM GAS  /tmp/cc7QYcgA.s 			page 23


 299      C57CAF
 300              		.text
 301              		.section	.gnu.lto_chEvtGetAndClearFlagsI.1b400facf6d6fc32,"",%progbits
 302 0000 789C8590 		.ascii	"x\234\205\220\277K\303@\024\307\337\367\305\200\213"
 302      BF4BC340 
 302      14C7DFF7 
 302      C5808B
 303 000f A3838350 		.ascii	"\243\203\203P\\\005\017\004\027\301\377\242\202\216"
 303      5C050F04 
 303      17C1FFA2 
 303      828E
 304 001d E935A6A1 		.ascii	"\3515\246\241\266\201$\026\234z\225\376\001\305I\255"
 304      B6812416 
 304      9C7A95FE 
 304      01C549AD 
 305 002d 83C5CD45 		.ascii	"\203\305\315E\334:\026\301\245\240\340*\016\201Bww!"
 305      DC3A16C1 
 305      A5A0E02A 
 305      0E814277 
 305      7721
 306 003f BE4BACA0 		.ascii	"\276K\254\240\213\017\356\336\257\373\276\317\343\230"
 306      8B0FEEDE 
 306      AFFBBECF 
 306      E398
 307 004d 98FEDA9A 		.ascii	"\230\376\332\232\234u\020\355\212\207C\340\301\013Q"
 307      9C7510ED 
 307      8A8743E0 
 307      C10B51
 308 005c 6F99011B 		.ascii	"o\231\001\033\020\250\313\350\036\302>\305\006\215\214"
 308      10A8CBE8 
 308      1EC23EC5 
 308      068D8C
 309 006b 39CF9E66 		.ascii	"9\317\236f\217|i&\375\033\363\231\347@\010\031\273\003"
 309      8F7C6926 
 309      FD1BF399 
 309      E7400819 
 309      BB03
 310 007d D2A00349 		.ascii	"\322\240\003IP)\034/\375\346\334\363$\313\363\367\207"
 310      50291C2F 
 310      FDE6DCF3 
 310      24CBF3F7 
 310      87
 311 008e 8FD93556 		.ascii	"\217\3315V]F\013\344\220\207\221\014\025s\251o\314\240"
 311      5D460BE4 
 311      9087910C 
 311      1573A96F 
 311      CCA0
 312 00a0 B2C875C1 		.ascii	"\262\310u\301\253\312m\227\330\007[\357<\323\331\333"
 312      ABCA6D97 
 312      D8075BEF 
 312      3CD3D9DB 
 313 00b0 C57C0A0F 		.ascii	"\305|\012\017\267p)\200\263IwFlO6\030\322\225@\235\000"
 313      B7702980 
 313      B3497746 
 313      6C4F3618 
 313      D295409D 
 314 00c5 6CE125BB 		.ascii	"l\341%\273\206\005\\\224\343\361|\312\245\362[\266\362"
ARM GAS  /tmp/cc7QYcgA.s 			page 24


 314      86055C94 
 314      E3F17CCA 
 314      A5F25BB6 
 314      F2
 315 00d6 8FCC568A 		.ascii	"\217\314V\212\340\225z\331\260\371C-\273U\300.e?t[5"
 315      E0957AD9 
 315      B0F9432D 
 315      BB55C02E 
 315      653F745B 
 316 00eb A296AF74 		.ascii	"\242\226\257tT?Uu\277\243t#\254\205Q\242\322\370\244"
 316      543F5575 
 316      BFA37423 
 316      AC8551A2 
 316      D2F8A4
 317 00fe DD5412C4 		.ascii	"\335T\022\304\251Jb-u\277\343\267\323dK\223{t\354\005"
 317      A94A622D 
 317      75BFE3B7 
 317      D3644B93 
 317      7B74EC05 
 318 0112 C91701C5 		.ascii	"\311\027\001\305Yy"
 318      5979
 319              		.text
 320              		.section	.gnu.lto_chEvtDispatch.1b400facf6d6fc32,"",%progbits
 321 0000 789C8553 		.ascii	"x\234\205SMk\023Q\024\275\367\275y3\3234\375\242Et!"
 321      4D6B1351 
 321      14BDF7BD 
 321      7933D334 
 321      FDA24574 
 322 0015 96EEFCA0 		.ascii	"\226\356\374\240\243\202\270\020\374\025\251\3502NB"
 322      A382B810 
 322      FC15A9E8 
 322      324E42
 323 0024 3A481B48 		.ascii	":H\033Hb\241n:\311d!m\220 n\324Mk)\256\232\256\212T"
 323      62A16E3A 
 323      C964216D 
 323      90206ED4 
 323      4D6B29AE 
 324 003c B34857BA 		.ascii	"\263HW\2720\026A\012\221.\362\003D\320\245-\306\363"
 324      3016410A 
 324      912EF203 
 324      44D0A52D 
 324      C6F3
 325 004e 663241BB 		.ascii	"f2A\273\361A\316{\357\334s\357=sg\"H\320\351u\007\277"
 325      F141CE7B 
 325      EFDC73EF 
 325      3D736722 
 325      48D0E975 
 326 0064 AFA06F63 		.ascii	"\257\240ocg\233X\324?\021\225m\301ft\220\302\370r\206"
 326      679B58D4 
 326      3F11956D 
 326      C1667490 
 326      C2F87286 
 327 0078 FC846ADE 		.ascii	"\374\204j\336$?i\260\212h\025\305\367mS\310\332{\202"
 327      243F69B0 
 327      8A6815C5 
 327      F76D53C8 
 327      DA7B82
ARM GAS  /tmp/cc7QYcgA.s 			page 25


 328 008b C0AA5A10 		.ascii	"\300\252Z\020X\314\232'\246\025!\015eZ\274r\217u\037"
 328      58CC9A27 
 328      A615210D 
 328      655ABC72 
 328      8F751F
 329 009e 31431BBE 		.ascii	"1C\033\276\377\264\273\365\363\027?\177\326\252\256"
 329      FFB4BBF5 
 329      F3173F7F 
 329      D6AAAE
 330 00ad FB27BD1E 		.ascii	"\373'\275\036\263\307\360t\203\311e\272\213\013O\207"
 330      B3C7F074 
 330      83C965BA 
 330      8B0B4F87 
 331 00bd 9B30FE35 		.ascii	"\2330\3765\031\346\326[?\016\237\234\363\327+u\3777"
 331      19E6D65B 
 331      3F0E9F9C 
 331      F3D72B75 
 331      FF37
 332 00cf 523D9682 		.ascii	"R=\226\202n\375/sG\264\272\275\336\311\356n\355\210"
 332      6EFD2F73 
 332      47B4BABD 
 332      DEC9EE6E 
 332      ED88
 333 00e1 8FC414D3 		.ascii	"\217\304\024\323\202n\010\220\224\346M\236!\223q\261"
 333      826E0890 
 333      94E64D9E 
 333      219371B1 
 334 00f1 C9636308 		.ascii	"\311cc\010\240\022\032\2065$\265j\004\252\015\250F\301"
 334      A0121A86 
 334      3524B56A 
 334      04AA0DA8 
 334      46C1
 335 0103 D018A43C 		.ascii	"\320\030\244<\216\2239\001\260&\373\025\260\024U\341"
 335      8E933901 
 335      B026FB15 
 335      B01455E1 
 336 0113 6F3ABEBB 		.ascii	"o:\276\273\341\023\247\200\230I\212\00569\307\2220("
 336      E113A780 
 336      98498A05 
 336      3639C792 
 336      3028
 337 0125 D9A6603B 		.ascii	"\331\246`;8\336\276\224\346-V\224c[\2736\030'I\324\246"
 337      38DEBE94 
 337      E62D5694 
 337      635BBB36 
 337      182749D4 
 338 013a CA771947 		.ascii	"\312w\031G\206\020\324T\360.x\3051\231\010y\274\257"
 338      8610D454 
 338      F02E78C5 
 338      31990879 
 338      BCAF
 339 014c 0F54FD56 		.ascii	"\017T\375V\2766\240u\025\365\367\203\317\261A\007Sh"
 339      BE36A075 
 339      15F5F783 
 339      CFB14107 
 339      5368
 340 015e 5769069B 		.ascii	"Wi\006\233\215\213\261p\030\371\375\242\217b.\031\322"
ARM GAS  /tmp/cc7QYcgA.s 			page 26


 340      8D8BB170 
 340      18F9FDA2 
 340      8F622E19 
 340      D2
 341 016f 226A1FBC 		.ascii	"\"j\037\274n\\\210\003#}S\301\352\300\324(X\335\213"
 341      6E5C8803 
 341      237D53C1 
 341      EAC0D428 
 341      58DD8B
 342 0182 F49C1159 		.ascii	"\364\234\021Y\033D\306s<\206xX\345\255\212\331\211\227"
 342      1B44C673 
 342      3C867858 
 342      E5AD8AD9 
 342      8997
 343 0194 F402721B 		.ascii	"\364\002r\033q\235f\366\335\035P\265u%\322\220Vi\220"
 343      719D66F6 
 343      DD1D50B5 
 343      7525D290 
 343      566990
 344 01a7 9EB61679 		.ascii	"\236\266\026yW\361\254\036\007;\215\263q\261I\210t\025"
 344      57F1AC1E 
 344      073B8DB3 
 344      71B14988 
 344      7415
 345 01b9 19CE973A 		.ascii	"\031\316\227:\304\260-\001I\243\266\267\254\363L\302"
 345      C4B02D01 
 345      49A3B6B7 
 345      ACF34CC2 
 346 01c9 D727F56C 		.ascii	"\327'\365l\366\217\017\223q\23685\235\016\211\034\233"
 346      F68F0F93 
 346      719E3835 
 346      9D0E891C 
 346      9B
 347 01da 0289ACB8 		.ascii	"\002\211\254\270CQM|\242\037\337\234G\023\325\334K\353"
 347      43514D7C 
 347      A21FDF9C 
 347      4713D5DC 
 347      4BEB
 348 01ec 5A967E6D 		.ascii	"Z\226~m\237\251\334m_\216\235F+\305\214\220\376+]w\346"
 348      9FA9DC6D 
 348      5F8E9D46 
 348      2BC58C90 
 348      FE2B5D77 
 349 0201 F30B59C7 		.ascii	"\363\013Y\307\315g\226\235Lv\311q\347\275\373^\276\350"
 349      CD67969D 
 349      4C76C971 
 349      E7BDFB5E 
 349      BEE8
 350 0213 940A0F17 		.ascii	"\224\012\017\027\03788\024JN\261\340\202\317.e\027K"
 350      1F383814 
 350      4A4EB1E0 
 350      82CF2E65 
 350      174B
 351 0225 C5599754 		.ascii	"\305Y\227T\326\313\314^\225\300?rY\274\313"
 351      D6CBCC5E 
 351      95C03F72 
 351      59BCCB
ARM GAS  /tmp/cc7QYcgA.s 			page 27


 352              		.text
 353              		.section	.gnu.lto_chEvtWaitOne.1b400facf6d6fc32,"",%progbits
 354 0000 789C8D53 		.ascii	"x\234\215SMHTQ\024>\347\2767\3164\316\214\343Fj\321"
 354      4D485451 
 354      143EE7BE 
 354      37CE34CE 
 354      8CE3466A 
 355 0015 30084164 		.ascii	"0\010Ad\370Jh\021n\204 p\341&\223j\025\343\3631\276"
 355      F84A6811 
 355      6E842070 
 355      E126936A 
 355      15E3F331 
 356 002a EACDC8CC 		.ascii	"\352\315\310\314(I\201wf\\\270(\032\"\310\376@\023\027"
 356      28498177 
 356      665CB828 
 356      1A22C8FE 
 356      401317
 357 003d 45342D5A 		.ascii	"E4-Z\210\005\272h\021\204\206\233\"k!\272\010\244MA"
 357      8805BA68 
 357      1184869B 
 357      226B21BA 
 357      08A44D41 
 358 0051 603F389D 		.ascii	"`?8\235\363\376\322\010\364\302\274s\356\271\347\373"
 358      F3FED208 
 358      F4C2BC73 
 358      EEB9E7FB 
 359 0061 EE77CEB9 		.ascii	"\356w\316\271#@\300\277\253\215~\355*\300m\262\030\000"
 359      2340C0BF 
 359      AB8D7EED 
 359      2AC06DB2 
 359      1800
 360 0073 14954580 		.ascii	"\024\225E\200bH\010e6\0012\254\276\323@F\024T\235\260"
 360      62480865 
 360      360132AC 
 360      BED34046 
 360      14549DB0 
 361 0087 8AC80E20 		.ascii	"\212\310\016 \214\010E\305\221s\310\034\242\031&\245"
 361      8C0845C5 
 361      9173C81C 
 361      A21926A5 
 362 0097 BCB932BD 		.ascii	"\274\2712\275\271\216w\344\374\350\204\374]\253!\232"
 362      B98E77E4 
 362      FCE884FC 
 362      5DAB219A 
 363 00a7 48F71D43 		.ascii	"H\367\035C\320\021\316\322\006\223\266\021\352v\001"
 363      D011CED2 
 363      0693B611 
 363      EA7601
 364 00b6 0E76FEFB 		.ascii	"\016v\376\373\373\033\373\344D\251\"7\011j\242\"\340"
 364      FB1BFBE4 
 364      44A92237 
 364      096AA222 
 364      E0
 365 00c7 F84EC8AA 		.ascii	"\370N\310\252\230_\251\325\256\315\375X\035\307\246"
 365      985FA9D5 
 365      AECDFD58 
 365      1DC7A6
ARM GAS  /tmp/cc7QYcgA.s 			page 28


 366 00d6 2684144E 		.ascii	"&\204\024Na3\250d'\311\326\201\211j\020-\204\220{R\317"
 366      6133A864 
 366      27C9D681 
 366      896A102D 
 366      84907B52 
 367 00eb 9188BB89 		.ascii	"\221\210\273\211\362&\346n\032x\023\347O#\177\210;\000"
 367      F226E66E 
 367      1A7813E7 
 367      4F237F88 
 367      3B00
 368 00fd A3525692 		.ascii	"\243RV\222\016\225\223\004,\207\326i\372r\023zP\260"
 368      0E959304 
 368      2C87D669 
 368      FA72137A 
 368      50B0
 369 010f 5516A0B4 		.ascii	"U\026\240\264<C\225\247p\232\032\230F\265\005\036KZ"
 369      3C4395A7 
 369      709A1A98 
 369      46B5051E 
 369      4B5A
 370 0121 67A8FE16 		.ascii	"g\250\376\0268db\340\036\334-J\0317\261\356\012\374"
 370      386462E0 
 370      1EDC2D4A 
 370      1937B1EE 
 370      0AFC
 371 0133 9463EC05 		.ascii	"\224c\354\005-d2.+h\027\323\213\340Z\327\201E(}\375"
 371      2D64322E 
 371      2B6817D3 
 371      8BE05AD7 
 371      8145287D 
 372 0148 756B6DAF 		.ascii	"ukm\257+\005\300\271\300\356>\302U\205\207\2518\023"
 372      2B05C0B9 
 372      C0EE3EC2 
 372      558587A9 
 372      3813
 373 015a 4DC0757C 		.ascii	"M\300u| \307;L\014\201\313\272'\311\236\177^q\317\303"
 373      20C73B4C 
 373      0C81CBBA 
 373      27C99E7F 
 373      5E71CFC3 
 374 016e 0E376BFE 		.ascii	"\0167k\376\264Q=\350i\256\263\205*$\224\240\365T\003"
 374      B4513DE8 
 374      69AEB385 
 374      2A2494A0 
 374      F55403
 375 0181 537882BC 		.ascii	"Sx\202\274G\263\000\345\027\345\013\036$D\2504\213\177"
 375      47B300E5 
 375      17E50B1E 
 375      2444A834 
 375      8B7F
 376 0193 0DAF3E17 		.ascii	"\015\257>\027\243~\230\221\333\006\325\203\012\314&"
 376      A37E9891 
 376      DB06D583 
 376      0ACC26
 377 01a2 B84D6F36 		.ascii	"\270Mo6j\353\302It{\324N\227\272\356Q\023#\377\277_"
 377      6AEBC249 
 377      747BD44E 
ARM GAS  /tmp/cc7QYcgA.s 			page 29


 377      97BAEE51 
 377      1323FFBF 
 378 01b7 71ADC36A 		.ascii	"q\255\303j\337\371\026FW\306\026\302^G\374\266Fu\267"
 378      DFF91646 
 378      57C616C2 
 378      5E47FCB6 
 378      4675B7
 379 01ca 7D8C8F85 		.ascii	"}\214\217\205i\230\015N\2613\017\327\374\001\325\357"
 379      69980D4E 
 379      B1330FD7 
 379      FC01D5EF 
 380 01da BAD88407 		.ascii	"\272\330\204\007\211\24491\350\025\244z\203\177T\256"
 380      89A43931 
 380      E815A47A 
 380      837F54AE 
 381 01ea 3E0F7849 		.ascii	">\017xI\3214_\316@\305\013\305\376FK\313\343S\037\205"
 381      D1345FCE 
 381      40C50BC5 
 381      FE464BCB 
 381      E3531F85 
 382 01fe 77D0E054 		.ascii	"w\320\340T\035\337\205\216\322\313\362\254\257=N\234"
 382      1DDF858E 
 382      D2CBF2AC 
 382      AF3D4E9C 
 383 020e AEB8A77E 		.ascii	"\256\270\247~\260\221\370\350\310N\356\334\332\337\235"
 383      B091F8E8 
 383      C84EEEDC 
 383      DADF9D
 384 021d E809BABB 		.ascii	"\350\011\272\273w\226\302'4\006\373]\301\226w\225\302"
 384      7796C227 
 384      3406FB5D 
 384      C1967795 
 384      C2
 385 022e 2A261CCA 		.ascii	"*&\034\312%(>\373\266\344K\212q\354\003 =\010\361e\316"
 385      25283EFB 
 385      B6E44B8A 
 385      71EC0320 
 385      3D08F165 
 386 0243 A40E2AF7 		.ascii	"\244\016*\367\227\366\363\237\007\271w\214n\323\372"
 386      97F6F39F 
 386      07B9778C 
 386      6ED3FA
 387 0252 B396A1E9 		.ascii	"\263\226\241\351\331\276a\255\317\030\322\364~\263\327"
 387      D9BE61AD 
 387      CF18D2F4 
 387      7EB3D7
 388 0261 CCE6B542 		.ascii	"\314\346\265Bn0sQ#'W\320\3629\235\342\306\220\221)\344"
 388      6E307351 
 388      232757D0 
 388      F2399DE2 
 388      C6909129 
 389 0276 5B7550F4 		.ascii	"[uP\364\302\000Z\035;\001\215\313\005\355DWwg\267ff"
 389      C2005A1D 
 389      3B018DCB 
 389      05ED4457 
 389      7767B766 
 390 028b F44B837D 		.ascii	"\364K\203}\234\2333\316\353\326\311\301\214\336\332"
ARM GAS  /tmp/cc7QYcgA.s 			page 30


 390      9C9B33CE 
 390      EBD6C9C1 
 390      8CDEDA
 391 029a 0FF1AEEE 		.ascii	"\017\361\256\356S\311\336T\336\030\310\231\207\223\007"
 391      53C9DE54 
 391      DE18C899 
 391      879307
 392 02a9 8E80C841 		.ascii	"\216\200\310A\3202\254ln\030\376\000,\"\033\315"
 392      D032AC6C 
 392      6E18FE00 
 392      2C221BCD 
 393              		.text
 394              		.section	.gnu.lto_chEvtWaitAny.1b400facf6d6fc32,"",%progbits
 395 0000 789C8D53 		.ascii	"x\234\215SMh\023Q\020\236y\273Mb~\332\036D\364`\010"
 395      4D681351 
 395      109E79BB 
 395      4D627EDA 
 395      1E44F460 
 396 0015 0541AC74 		.ascii	"\005A\254t\265\340A\274\024\004\241\207^\254E=I\272"
 396      B5E041BC 
 396      1404A187 
 396      5EAC453D 
 396      49BA
 397 0027 59D25537 		.ascii	"Y\322U7)\233\264X\024\372\222\366\340E\014\"\370\207"
 397      299BB458 
 397      14FA92F6 
 397      E0450C22 
 397      F887
 398 0039 D0225E54 		.ascii	"\320\"^T\214\010B\211\"E<\010\232\212\007-\255\036\202"
 398      8C084289 
 398      22453C08 
 398      9A8A072D 
 398      AD1E82
 399 004c 453CD483 		.ascii	"E<\324\203\275U-\306\231\375\243\212\320>\310\316\274"
 399      BD552DC6 
 399      99FDA38A 
 399      D03EC8CE 
 399      BC
 400 005d F7E69BF9 		.ascii	"\367\346\233\371\346\233\027\001\002\376]\335\364\023"
 400      E69B1701 
 400      02FE5DDD 
 400      F413
 401 006b 2AC035B2 		.ascii	"*\3005\262\330\002(*s\000\245\210\020J-\0112\252~\320"
 401      D802282A 
 401      7300A588 
 401      104A2D09 
 401      32AA7ED0 
 402 007f 40C61554 		.ascii	"@\306\025T\335c\025\221\035@\030\027\212\212\343'\221"
 402      DD631591 
 402      1D401817 
 402      8A8AE327 
 402      91
 403 0090 73880E98 		.ascii	"s\210\016\230\226\362J\343\313\375e\274!g'\247\344Z"
 403      96F24AE3 
 403      CBFD65BC 
 403      216727A7 
 403      E45A
ARM GAS  /tmp/cc7QYcgA.s 			page 31


 404 00a2 B3896822 		.ascii	"\263\211h\"\325;\200\240#\234\240\015\246\034\303\305"
 404      D53B80A0 
 404      239CA00D 
 404      A61CC3C5 
 405 00b2 D62F173B 		.ascii	"\326/\027;\273\262xy\207\234*W\344o\202\232\250\010"
 405      BBB27879 
 405      879C2A57 
 405      E46F829A 
 405      A808
 406 00c4 38B811B2 		.ascii	"8\270\021\262*f\033\315\346\267\367?>\327q\333V\204"
 406      2A661BCD 
 406      E6B7F73F 
 406      3ED771DB 
 406      5684
 407 00d6 34DEC10E 		.ascii	"4\336\301\016P\311N\223\015\201\211j\030-\204\210w\023"
 407      50C94E93 
 407      0D81896A 
 407      182D8488 
 407      7713
 408 00e8 E393B8B7 		.ascii	"\343\223\270\267I\360\246\225?m\374\241t-0)e%\345\242"
 408      49F0A695 
 408      3F6DFCA1 
 408      742D3029 
 408      6525E5A2 
 409 00fc DD206006 		.ascii	"\335 `\006\264\216\321\227\373\036@\301V\251Cyq\225"
 409      B48ED197 
 409      FB1E40C1 
 409      56A94379 
 409      7195
 410 010e 9A4DE35D 		.ascii	"\232M\343]\322,\213j'\334\223\264\216S\313\235\260\307"
 410      D22C8B6A 
 410      27DC93B4 
 410      8E53CB9D 
 410      B0C7
 411 0120 C4965B70 		.ascii	"\304\226[p\263$e\273\211\241\363\360S^d/l!'\343N\302"
 411      B32465BB 
 411      89A1F3F0 
 411      535E642F 
 411      6C2127E3 
 412 0136 0EFF4104 		.ascii	"\016\377A\004\317z\016\314Ay\345\327\325\245\355\036"
 412      CF7A0ECC 
 412      4179E5D7 
 412      D5A5ED1E 
 413 0146 1500B780 		.ascii	"\025\000\267\200#8\302\005\205\347\247\270CL\302%\274"
 413      2338C205 
 413      85E7A7B8 
 413      434CC225 
 413      BC
 414 0157 2DAFF798 		.ascii	"-\257\367\230\030\001/\353\226\024{\301}\305\273\217"
 414      18012FEB 
 414      96147BC1 
 414      7DC5BB8F 
 415 0167 BAB999F3 		.ascii	"\272\271\231\363\247\357Ov\373\234C\016Q\205\210\022"
 415      A7EF4F76 
 415      FB9C430E 
 415      51858812 
 416 0177 34463D70 		.ascii	"4F=p\012\237\220\377N\3520\361t\342\264\017\211\020"
ARM GAS  /tmp/cc7QYcgA.s 			page 32


 416      0A9F90FF 
 416      4EEA30F1 
 416      74E2B40F 
 416      8910
 417 0189 2ACBE45F 		.ascii	"*\313\344_\301\313\257\245Dp\314\310\277f3\200\012\324"
 417      C1CBAFA5 
 417      4470CCC8 
 417      BF663380 
 417      0AD4
 418 019b 922CD3EB 		.ascii	"\222,\323\353\231\352\262p\003=\215\016QQ\317\335ob"
 418      99EAB270 
 418      033D8D0E 
 418      5151CFDD 
 418      6F62
 419 01ad FCFFF515 		.ascii	"\374\377\365\025\317\272Y\235\232oa\262\361\274\036"
 419      CFBA599D 
 419      9A6F61B2 
 419      F1BC1E
 420 01bc F5150964 		.ascii	"\365\025\011dM\350\236|\214o\215\3220\333\334fW\253"
 420      4DE89E7C 
 420      8C6F8DD2 
 420      30DBDC66 
 420      57AB
 421 01ce 4BC18062 		.ascii	"K\301\200b\233n6\351C\342Y\016\014\373\015\251\301\340"
 421      9B6E36E9 
 421      43E2590E 
 421      0CFB0DA9 
 421      C1E0
 422 01e0 671E7F14 		.ascii	"g\036\177\024~P\302\355\244}\023\271\313\317&j\001\237"
 422      7E50C2ED 
 422      A47D13B9 
 422      CBCF266A 
 422      019F
 423 01f2 D62C9376 		.ascii	"\326,\223v\012>\014\016\333(\037]9\301\275\3535\333"
 423      0A3E0C0E 
 423      DB281F5D 
 423      39C1BDEB 
 423      35DB
 424 0204 287D965B 		.ascii	"(}\226[\336\314\333I\343\003\222\326y+\260\356\255\244"
 424      DECCDB49 
 424      E30392D6 
 424      792BB0EE 
 424      ADA4
 425 0216 B18A4937 		.ascii	"\261\212I7\345;(=z\261\020Pr\012-\000\322\220\305\233"
 425      E53B283D 
 425      7AB11050 
 425      720A2D00 
 425      D290C59B 
 426 022a 79935451 		.ascii	"y\223TQ\326\346w\362\037\002Y\017FwkCy\313\320\364|"
 426      D6E677F2 
 426      1F02590F 
 426      46776B43 
 426      79CBD0F4 
 427 023f 664CCB18 		.ascii	"fL\313\030\243\232>d\016\232\371\202V\264Grg4r\354\242"
 427      A39A3E64 
 427      0E9AF982 
 427      56B44772 
ARM GAS  /tmp/cc7QYcgA.s 			page 33


 427      673472EC 
 428 0254 56B0753A 		.ascii	"V\260u:7F\215\\\261\320\245\203\242\027\207\321\352"
 428      37468D5C 
 428      B1D0A583 
 428      A21787D1 
 428      EA
 429 0265 D908689C 		.ascii	"\331\010h\234+j\207\373\372{\37353\247\237\035\311p"
 429      2B6A87FB 
 429      FA7BFB35 
 429      33A79F1D 
 429      C970
 430 0277 AC6D9CD2 		.ascii	"\254m\234\322\255##9\275k\010\332\373\372\217\246\006"
 430      AD232339 
 430      BD6B08DA 
 430      FBFA8FA6 
 430      06
 431 0288 D30563D8 		.ascii	"\323\005c\3306\367\246v\355\003aC\3302\254\274=\006"
 431      36F7A676 
 431      ED036143 
 431      D832ACBC 
 431      3D06
 432 029a 7F00FDF7 		.ascii	"\177\000\375\367\020U"
 432      1055
 433              		.text
 434              		.section	.gnu.lto_chEvtWaitAll.1b400facf6d6fc32,"",%progbits
 435 0000 789C8D51 		.ascii	"x\234\215QMh\023Q\020\236yo\223\324$\325x\021A,A\360"
 435      4D681351 
 435      109E796F 
 435      93D424D5 
 435      7811412C 
 436 0016 62A51B0B 		.ascii	"b\245\033\013\236\274\024\004\241B/\246E=I\262Y\232"
 436      9EBC1404 
 436      A1422FA6 
 436      453D49B2 
 436      599A
 437 0028 4537299B 		.ascii	"E7)\233M\261z\350\313\317A\020\244\210BU\004\213\267"
 437      4DB17AE8 
 437      CBCF4110 
 437      A4884255 
 437      048BB7
 438 003b E2DF4DA8 		.ascii	"\342\337M\250\245\364\030\220T\274\372\203!\342\251"
 438      A5F41890 
 438      54BCFA83 
 438      21E2A9
 439 004a 5EBC1911 		.ascii	"^\274\031\021\342\274\335\267\333(B\373`gf\337\233\371"
 439      E2BCDDB7 
 439      DB2842FB 
 439      606766DF 
 439      9BF9
 440 005c E69B6F18 		.ascii	"\346\233o\0300\370\367\214\323w\236\003\334'\217\021"
 440      30F8F78C 
 440      D3779E03 
 440      DC278F11 
 441 006c 40B6B405 		.ascii	"@\266\264\005P\033b\214\2672 \342Z\353(\210$G\315\277"
 441      501B628C 
 441      B73220E2 
 441      5AEB2888 
ARM GAS  /tmp/cc7QYcgA.s 			page 34


 441      2447CDBF 
 442 0080 D6106500 		.ascii	"\326\020e\000\010\213\214k\270x\031%\006\036\203\025"
 442      088B8C6B 
 442      B8781925 
 442      061E8315 
 443 0090 21EE76BE 		.ascii	"!\356v\276\255m\343\003\261\331|\"~\367\373\210\026"
 443      AD6DE303 
 443      B1D97C22 
 443      7EF7FB88 
 443      16
 444 00a1 52BFD308 		.ascii	"R\277\323\010\006\302%\372\301\264\347\230\3667\201"
 444      06C225FA 
 444      C1B4E798 
 444      F63781
 445 00b0 976CB3D3 		.ascii	"\227l\263\323\357?\373\334\353\366\361\320A\0169\\!"
 445      EF3FFBDC 
 445      EBF6F1D0 
 445      410E395C 
 445      21
 446 00c1 BC0858C8 		.ascii	"\274\010X\310\243h#\304d\024\227&!MR\032*\213@S\210"
 446      A36823C4 
 446      64149726 
 446      214D521A 
 446      2A8B4053 
 447 00d6 A5B49F0D 		.ascii	"\245\264\237\015\262\007\235i\262\222\337\0142\351y"
 447      B2079D69 
 447      B292DF0C 
 447      32E979
 448 00e5 1BEA1F7E 		.ascii	"\033\352\037~\022\251\034>\245\331f\221\217\302\252"
 448      12A91C3E 
 448      A5D96691 
 448      8FC2AA
 449 00f4 A07391A8 		.ascii	"\240s\221\250\215\302\011\013\265G\360\260&D\312\302"
 449      8DC2090B 
 449      B547F0B0 
 449      2644CAC2 
 450 0104 C84DF825 		.ascii	"\310M\370%n\311(j\243\004\223\\\243\036\303<\202\362"
 450      6EC9286A 
 450      A304935C 
 450      A31EC33C 
 450      82F2
 451 0116 2A802DA8 		.ascii	"*\200-\250\377\350\335\373zX\221\000\360\033x\302 \334"
 451      FFE8DDFB 
 451      7A589100 
 451      F01B78C2 
 451      20DC
 452 0128 E05267EE 		.ascii	"\340Rg\356\213=\002\267\361\261X\236\2600\006\012u("
 452      8B3D02B7 
 452      F1B1589E 
 452      B030060A 
 452      7528
 453 013a 2DA3F0FD 		.ascii	"-\243\360\375\216z\337\347cK\316\237\326_\037\0118G"
 453      8E7ADFE7 
 453      634BCE9F 
 453      D65F1F09 
 453      3847
 454 014c 3CA27122 		.ascii	"<\242q\"J\245\011\232AB\004\204\202}\266\241\361\246"
ARM GAS  /tmp/cc7QYcgA.s 			page 35


 454      4AA5099A 
 454      41420484 
 454      827DB6A1 
 454      F1A6
 455 015e D10DE78C 		.ascii	"\321\015\347\214Q\331\254d\337\202\346\367\332\360\300"
 455      51D9AC64 
 455      DF82E6F7 
 455      DAF0C0
 456 016d 757447F8 		.ascii	"utG\370\031\322\261\225\221\032\275]\336\330f~\222\022"
 456      19D2B195 
 456      911ABD5D 
 456      DED8667E 
 456      9212
 457 017f E80C7554 		.ascii	"\350\014uT\341)\013\223\377o\316\225\367\027\352a\277"
 457      E1290B93 
 457      FF6FCE95 
 457      F717EA61 
 457      BF
 458 0190 8366A7D7 		.ascii	"\203f\247\327\216\007r\204\232\016\033J;Y\277_.\362"
 458      8E077284 
 458      9A0E1B4A 
 458      3B59BF5F 
 458      2EF2
 459 01a2 404042DB 		.ascii	"@@B\333\331\324\306G\026PU\335S{\230\274\276\336X\013"
 459      D9D4C647 
 459      165055DD 
 459      537B98BC 
 459      BEDE580B 
 460 01b6 274F7834 		.ascii	"'Ox4<9^\204\227I\302\243'/yrp\316\335\340\251to\313"
 460      3C395E84 
 460      9749C2A3 
 460      272F7972 
 460      70CEDDE0 
 461 01ce CEE12AC9 		.ascii	"\316\341*\311\341-\027\006\226\233\303\3478\342C\276"
 461      E12D1706 
 461      969BC3E7 
 461      38E243BE 
 462 01de 87DAABEE 		.ascii	"\207\332\253\356\227\220\222\332\3034\311B\343\313\344"
 462      979092DA 
 462      C334C942 
 462      E3CBE4
 463 01ed 71BD58B6 		.ascii	"q\275X\266M\335(\027\026\364\2029\257\033E+o\225+\272"
 463      4DDD2817 
 463      16F48239 
 463      AF1B452B 
 463      6F952BBA 
 464 0201 EB544B57 		.ascii	"\353TKWu\012\034W\2578\006\335\233\363f\311\255\214"
 464      750A1C57 
 464      AF3806DD 
 464      9BF366C9 
 464      AD8C
 465 0213 19C00D77 		.ascii	"\031\300\015wnb\2672\363\272\253\237\235\312Nfu\253"
 465      6E62B732 
 465      F3BAAB9F 
 465      9DCA4E66 
 465      75AB
 466 0225 645CAB16 		.ascii	"d\\\253\026d\256c^1\354s\325\2221V\204\324T\366B:\237"
ARM GAS  /tmp/cc7QYcgA.s 			page 36


 466      64AE635E 
 466      31EC73D5 
 466      92315684 
 466      D454F642 
 467 023b AB98738E 		.ascii	"\253\230s\216u2}<\003\314\201\230m\332eg\001\376\000"
 467      75327D3C 
 467      03CC8198 
 467      6DDA6567 
 467      01FE00
 468 024e 0C44E8AD 		.ascii	"\014D\350\255"
 469              		.text
 470              		.section	.gnu.lto_chEvtWaitOneTimeout.1b400facf6d6fc32,"",%progbits
 471 0000 789CAD54 		.ascii	"x\234\255TMH\024q\024\177\357?;\273\263\253\266~[P\313"
 471      4D481471 
 471      147FEF3F 
 471      3BBBB3AB 
 471      B67E5B50 
 472 0015 228491E5 		.ascii	"\"\204\221\345d\321!:$\004\201\007/\231T\247X\307M\247"
 472      64D1213A 
 472      24048107 
 472      2F9954A7 
 472      58C74DA7 
 473 0029 DA55D655 		.ascii	"\332U\326U\222\002\307\325\300\203\221E\220\225\226"
 473      9202C7D5 
 473      C0839145 
 473      909596
 474 0038 524145A8 		.ascii	"RAE\250\227.VbP\020\204F\227(\223\020*:\010EP\230)\332"
 474      972E5662 
 474      50108446 
 474      97289310 
 474      2A3A0845 
 475 0050 7BF3B169 		.ascii	"{\363\261i\010\356\241\201\371\377\337\327\357}\317"
 475      08EEA181 
 475      F9FFDFD7 
 475      EF7DCF
 476 005f 0810F0EF 		.ascii	"\010\020\360\357\023\245\367\270\014p\205n\364\001\212"
 476      13A5F7B8 
 476      0C70856E 
 476      F4018A
 477 006e EE098036 		.ascii	"\356\011\2006E\010\251\263\010\014\237\302g\272$\\o"
 477      4508A9B3 
 477      080C9FC2 
 477      67BA245C 
 477      6F
 478 007f 54E2E491 		.ascii	"T\342\344\221\000q.\364ZF\262p\377ZGbO\317>\022\273"
 478      00712EF4 
 478      5A46B270 
 478      FF5A4762 
 478      4FCF3E12 
 479 0094 1DB10715 		.ascii	"\035\261\007\025\213P\034\211\027\221\011@h\025\222"
 479      8B501C89 
 479      17910940 
 479      681592
 480 00a3 4B767B48 		.ascii	"Kv{H\322z\0249\276(\204\001\303\2704\375\374\353\014"
 480      D27A1439 
 480      BE288401 
 480      C3B834FD 
ARM GAS  /tmp/cc7QYcgA.s 			page 37


 480      FCEB0C
 481 00b6 5E35C63A 		.ascii	"^5\306:\372\215\205\245%D\035)\327\335\010\032\302\021"
 481      FA8D85A5 
 481      25441D29 
 481      D7DD081A 
 481      C211
 482 00c8 6230685E 		.ascii	"b0h^\302\2652y\013;6\373\341\302\006\243?\321m,\022"
 482      C2B53279 
 482      0B3B36FB 
 482      E1C206A3 
 482      3FD16D2C 
 483 00dd 544749C0 		.ascii	"TGI\300\236\265\220Cblzi\251w\366aW\027.\212\000B\010"
 483      9EB59043 
 483      626C7A69 
 483      A977F661 
 483      57172E8A 
 484 00f4 6F6121C5 		.ascii	"oa!\305$\270\233\230\001b\024b\\^\214 \370lu\0321\350"
 484      24B89B98 
 484      01621462 
 484      5C5E8C20 
 484      F86C751A 
 485 010a 27B19CC5 		.ascii	"'\261\234\305\272l[\234\303L\256\315\3441\223\317G\001"
 485      BA6C5B9C 
 485      C34CAECD 
 485      E43193CF 
 485      4701
 486 011c 1F144B86 		.ascii	"\037\024K\206\016\303\350\016ZN-#\340\364\3509D'w\246"
 486      0EC3E80E 
 486      5A4E2D23 
 486      E0F4E839 
 486      442777A6 
 487 0130 0A05DFD2 		.ascii	"\012\005\337\3228$&\337R'Bx\007e\250Ew1\3347\3509L\375"
 487      382426DF 
 487      52274278 
 487      0765A845 
 487      7731DC37 
 488 0148 2886AD3A 		.ascii	"(\206\255:\272\257\303\2656\303\310\324\321s\006~\033"
 488      BAAFC3B5 
 488      36C3C8D4 
 488      D173067E 
 488      1B
 489 0159 9D4C2911 		.ascii	"\235L)\021\344\271r\231\212Y\\5\202}\333\004L@\342\373"
 489      E4B97299 
 489      8A595C35 
 489      827DDB04 
 489      4C40E2FB 
 490 016d FCE58FEB 		.ascii	"\374\345\217\353\355T\000\254\000\346H\020\316J\274"
 490      ED5400AC 
 490      00E64810 
 490      CE4ABC
 491 017c 1892B51D 		.ascii	"\030\222\265\035\0018\217}FO\231\216^\260\275\372\202"
 491      01388F7D 
 491      464F998E 
 491      5EB0BDFA 
 491      82
 492 018d 4C25F5DD 		.ascii	"L%\365\335\266>\315\362\3159O-<\331\342\344\254\230"
 492      B63ECDF2 
ARM GAS  /tmp/cc7QYcgA.s 			page 38


 492      CD394F2D 
 492      3CD9E2E4 
 492      AC98
 493 019f 894A9428 		.ascii	"\211J\224(A\323\251\006v\341$\344,\3408\264?j?\341@"
 493      41D3A906 
 493      76E124E4 
 493      2CE038B4 
 493      3F6A3FE1 
 494 01b4 7C84AAE5 		.ascii	"|\204\252\345x/\340\331\227\266\214\244\230\221+\006"
 494      782FE0D9 
 494      97B68CA4 
 494      98912B06 
 495 01c4 57851274 		.ascii	"W\205\022t\026Il\366\364\342\315t\3070m\025C\027\314"
 495      16496CF6 
 495      F4E2CD74 
 495      C7306D15 
 495      4317CC
 496 01d7 1448A9D4 		.ascii	"\024H\251\324\035\302\007\344\325\254\023\226\325\031"
 496      1DC207E4 
 496      D5AC1396 
 496      D519
 497 01e5 C2210C2C 		.ascii	"\302!\014,w(C\237\237\007\364rjxt\273\345\307\236\316"
 497      7728439F 
 497      9F07F472 
 497      6A7874BB 
 497      E5C79ECE 
 498 01f9 5E2AD726 		.ascii	"^*\327&Ku\314X\275r\311\276\2554\315j_\301\271\351\361"
 498      4B75CC58 
 498      BD72C9BE 
 498      AD34CD6A 
 498      5FC1B9E9 
 499 020e 21BF5385 		.ascii	"!\277S\205?9\321u\232=9v\340\367q\205:f\232\355\371"
 499      3F39D175 
 499      9A3D3976 
 499      E0F77185 
 499      3A669AED 
 500 0223 DC569AB4 		.ascii	"\334V\232\264g\255\274\262j7\374\024\377\265j\017\334"
 500      67ADBCB2 
 500      6A37FC14 
 500      FFB56A0F 
 500      DC
 501 0234 4D37D772 		.ascii	"M7\327r\352\323\350F'rV\312#\0168\220lB\325Z+\305n\025"
 501      EAD3E846 
 501      277256CA 
 501      230E3890 
 501      6C42D55A 
 502 024c 18DEC56E 		.ascii	"\030\336\305n\357\265\177\033\225\035\233\234Z.\233"
 502      EFB57F1B 
 502      951D9B9C 
 502      5A2E9B
 503 025b 719223CA 		.ascii	"q\222#\312\375+ML\366\314\276\027\216\"\317jxf\012i"
 503      FD2B4D4C 
 503      F6CCBE17 
 503      8E22CF6A 
 503      78660A69 
 504 026f 241EB78F 		.ascii	"$\036\267\217$\277\250|\362i\3476\230\024\026\220?R"
 504      24BFA87C 
ARM GAS  /tmp/cc7QYcgA.s 			page 39


 504      F269E736 
 504      98141690 
 504      3F52
 505 0281 99C6E5CB 		.ascii	"\231\306\345\313G\273\226{\202\246\366q\245\322\356"
 505      47BB967B 
 505      82A6F671 
 505      A5D2EE
 506 0290 7780B4F3 		.ascii	"w\200\264\363bp\361F\006\365\313\323;\277\211;\3455"
 506      6270F146 
 506      06F5CBD3 
 506      3BBF893B 
 506      E535
 507 02a2 7F0CAFE9 		.ascii	"\177\014\257\351/\312\341\204e(\330\023m\224\353\366"
 507      2FCAE184 
 507      6528D813 
 507      6D94EBF6 
 508 02b2 1CDAA4FB 		.ascii	"\034\332\244\373\307\034\301s\225\205\371\014\376\257"
 508      C71CC173 
 508      9585F90C 
 508      FEAF
 509 02c0 20C3D87A 		.ascii	" \303\330z\247ZW\037\011\253Z}M\213Z\023nV\265:\275"
 509      A75A571F 
 509      09AB5A7D 
 509      4D8B5A13 
 509      6E56B53A 
 510 02d5 5AAF6F54 		.ascii	"Z\257oT\343\261\246\350I\225\210X\\m\214i$\0177\207"
 510      E3B1A6E8 
 510      49958858 
 510      5C6D8C69 
 510      240F3787 
 511 02e9 A3F1C612 		.ascii	"\243\361\306\022\015$-\336\200\221\262\265\200\341\323"
 511      0D242DDE 
 511      8091B2B5 
 511      80E1D3
 512 02f8 71757F45 		.ascii	"qu\177Eey\245\252G\265SM5l\033\013\037\323\"\007\232"
 512      6579A5AA 
 512      47B5534D 
 512      356C1B0B 
 512      1FD32207 
 513 030d A25A491D 		.ascii	"\242ZI\035dVT\036\014V\207\032\303\0151}[p\363\016\020"
 513      6456541E 
 513      0C56871A 
 513      C30D317D 
 513      5B70F30E 
 514 0322 31F044C2 		.ascii	"1\360D\302\221\372X\013\374\001\224\371[H"
 514      91FA580B 
 514      FC0194F9 
 514      5B48
 515              		.text
 516              		.section	.gnu.lto_chEvtWaitAnyTimeout.1b400facf6d6fc32,"",%progbits
 517 0000 789CAD54 		.ascii	"x\234\255T[H\024a\024>\347\237\235\331\331\365~\243"
 517      5B481461 
 517      143EE79F 
 517      9DD9D9F5 
 517      7EA3
 518 0012 1E4A1621 		.ascii	"\036J\026!\204\014'\213\240\350!!\010|\360%\223\352"
 518      840C278B 
ARM GAS  /tmp/cc7QYcgA.s 			page 40


 518      A0E82121 
 518      087CF025 
 518      93EA
 519 0024 29D671D1 		.ascii	")\326q\321\251v\225u\225\244\300Y5\360\301\300.\242"
 519      A9769575 
 519      95A4C059 
 519      35F0C1C0 
 519      2EA2
 520 0036 5D84C404 		.ascii	"]\204\304\004\251\360\002Aa=\254`K\220ZBD\205\017bD"
 520      A9F00241 
 520      613DAC60 
 520      4B905A42 
 520      44850F62 
 521 004b 414F4181 		.ascii	"AOA\201\224`\347\314e\321\020\334\207\006\346\377\317"
 521      9460E7CC 
 521      65D110DC 
 521      8706E6FF 
 521      CF
 522 005c 39FF39DF 		.ascii	"9\3779\3379\3379\377\214\000\001\377>\021z\017\313\000"
 522      39DF39FF 
 522      8C0001FF 
 522      3E117A0F 
 522      CB00
 523 006e 03B4A31F 		.ascii	"\003\264\243\037P\364-\000\304U!\244\236R0\375*\257"
 523      50F42D00 
 523      C45521A4 
 523      9E5230FD 
 523      2AAF
 524 0080 9992F0BC 		.ascii	"\231\222\360\274\327H\223\247\213I\363\240\317v\222"
 524      D74893A7 
 524      8B49F3A0 
 524      CF7692
 525 008f 85B29A4D 		.ascii	"\205\262\232Mf\357\34012+\256\331\213\252-\250\256\305"
 525      66EFE031 
 525      322BAED9 
 525      8BAA2DA8 
 525      AEC5
 526 00a1 87C80220 		.ascii	"\207\310\002 t\010\311#+^\262t\234E\316/J`\3304o,\217"
 526      7408C923 
 526      2B5EB274 
 526      9C45CE2F 
 526      4A60D834 
 527 00b8 8EF4EEBE 		.ascii	"\216\364\356\276m&\272\357\233k\353\353\210\006R\255"
 527      6D26BAEF 
 527      9B6BEBEB 
 527      880652AD 
 528 00c8 87107484 		.ascii	"\207\020t\2043\244`\300\332\204gs\361vlbhe\0257\305"
 528      33A460C0 
 528      DA846773 
 528      F1766C62 
 528      68651537 
 529 00dd 4A028E6C 		.ascii	"J\002\216l\027;!\022\313\353\353s\327\223\311\031\234"
 529      173B2112 
 529      CBEBEB73 
 529      D793C919 
 529      9C
 530 00ee 9EF2EC42 		.ascii	"\236\362\354B\010\342\010\226PZ\212WH\031&E%\305\343"
ARM GAS  /tmp/cc7QYcgA.s 			page 41


 530      08E20896 
 530      505A8A57 
 530      48192645 
 530      25C5E3
 531 0101 C33082DF 		.ascii	"\3030\202\3379\316 \005s\310,\347\361Y\276c.`\245\220"
 531      39CE2005 
 531      73C82CE7 
 531      F159BE63 
 531      2E60A590 
 532 0115 97225E08 		.ascii	"\227\"^\010_\206n\323\354\013\3308\266\023pI\364\234"
 532      5F866ED3 
 532      EC0BD838 
 532      B6137049 
 532      F49C
 533 0127 A295FB51 		.ascii	"\242\225\373Q\213\202wi\036:?=#\376A\034E\031\032P)"
 533      8B827769 
 533      1E3A3F3D 
 533      23FE411C 
 533      45191A50 
 534 013c 8387263D 		.ascii	"\203\207&=\247\251\013e\260\327@\345.\334\211\233f\256"
 534      A7A90B65 
 534      B0D740E5 
 534      2EDC899B 
 534      66AE
 535 014e 81DECBF0 		.ascii	"\201\336\313\360\333\354aI\015#O\223\251\251\026\241"
 535      DBEC6149 
 535      0D234F93 
 535      A9A916A1 
 536 015e 3A046777 		.ascii	":\004gw\004X\200\316\037\177n}\336\351\224\002`'\260"
 536      045880CE 
 536      1F7F6E7D 
 536      DEE99402 
 536      6027B0
 537 0171 06817045 		.ascii	"\006\201pE\342\353 \331w\242\030\256\341\2209Xi\240"
 537      E2EB20D9 
 537      77A218AE 
 537      E1903958 
 537      69A0
 538 0183 0F1C547F 		.ascii	"\017\034T\177\200\245\324y\237s\236acs\315K\337f\343"
 538      80A5D479 
 538      9F739E61 
 538      6373CD4B 
 538      DF66E3
 539 0196 B25BB46A 		.ascii	"\262[\264jU*Q\245\024\233I$\030\303\255\310\275w\363"
 539      552A51A5 
 539      149B4924 
 539      18C3ADC8 
 539      BD77F3
 540 01a9 D0F5BCEB 		.ascii	"\320\365\274\353\274\033\342\247\250\006N\370\012f\277"
 540      BC1BE2A7 
 540      A8064EF8 
 540      0A66BF
 541 01b8 C6B35266 		.ascii	"\306\263Rf\216\3344\255Z\224\240\247Tb\267\231\247+"
 541      8EDC34AD 
 541      5A94A0A7 
 541      5462B799 
 541      A72B
ARM GAS  /tmp/cc7QYcgA.s 			page 42


 542 01ca 09743D33 		.ascii	"\011t=3\266\360\364\300\367\035R:\314\203\370\230`-"
 542      B6F0F4C0 
 542      F71D523A 
 542      CC83F898 
 542      602D
 543 01dc A6B08169 		.ascii	"\246\260\201i\020'\260x#\240\014C9<\242\327Kk\263\213"
 543      1027B078 
 543      23A00C43 
 543      393CA2D7 
 543      4B6BB38B 
 544 01f0 0E5D6740 		.ascii	"\016]g@G\211\260#V\030\230\2655w\311\331\355:-\276o"
 544      4789B023 
 544      561898B5 
 544      3577C9D9 
 544      ED3A2DBE 
 545 0205 E0EAF2D8 		.ascii	"\340\352\362\330\324\317\024\217\234\324T\263ugz\214"
 545      D4CF148F 
 545      9CD454B3 
 545      75677A8C 
 546 0215 90E3678E 		.ascii	"\220\343g\216\006\346Z\035\372\022\257H\371\363\251"
 546      06E65A1D 
 546      FA12AF48 
 546      F9F3A9
 547 0224 BC99B702 		.ascii	"\274\231\267\002\277\304\177\345\355\205\261L\353j."
 547      BFC47FE5 
 547      ED85B14C 
 547      EB6A2E
 548 0233 4DBE9C91 		.ascii	"M\276\234\221\334\324yi\217\271\330\015\311\247\250"
 548      DCD47969 
 548      8FB9D80D 
 548      C9A7A8
 549 0242 06FB5E31 		.ascii	"\006\373^1\256\012\223\007-\334\017\217z\313\\\237\002"
 549      AE0A9307 
 549      2DDC0F8F 
 549      7ACB5C9F 
 549      02
 550 0253 BB8DB969 		.ascii	"\273\215\271i@w\276\350\232Nu\256\260\201\373e\345\033"
 550      4077BEE8 
 550      9A4E75AE 
 550      B081FB65 
 550      E51B
 551 0265 4F198B08 		.ascii	"O\031\213\010\217\216,\347\252\215\003\333\016\236B"
 551      8F8E2CE7 
 551      AA8D03DB 
 551      0E9E42
 552 0274 D3FB6AD2 		.ascii	"\323\373j\322\351\341G@\272\313b\374\311\312[\022\362"
 552      E9E14740 
 552      BACB62FC 
 552      C9CA5B12 
 552      F2
 553 0285 BD73FD49 		.ascii	"\275s\375I\211\371\373\254o~\221~\213\234P\330\256\202"
 553      89F9FBAC 
 553      6F7E917E 
 553      8B9C50D8 
 553      AE82
 554 0297 B1E8D8F3 		.ascii	"\261\350\330\363\356\246\342\210\312\203~\205\330\251"
 554      EEA6E288 
ARM GAS  /tmp/cc7QYcgA.s 			page 43


 554      CA837E85 
 554      D8A9
 555 02a5 F70692C8 		.ascii	"\367\006\222\310\377\014\3448v?\24056\205C\232\336T"
 555      FF0CE438 
 555      763FA035 
 555      3685439A 
 555      DE54
 556 02b7 DFAED587 		.ascii	"\337\256\325\207\3324\275\321\2503\232Z\264X\2645rA"
 556      DA34BDD1 
 556      A8339A5A 
 556      B458B435 
 556      7241
 557 02c9 23211AD3 		.ascii	"#!\032\323Z\242:\331Cm\241H\254\245\\\007I\2175c\270"
 557      5AA23AD9 
 557      436DA148 
 557      ACA55C07 
 557      498F3563 
 558 02de 72BBC0D0 		.ascii	"r\273\300\320\245\230v\274\272\246\252F3\"\372\305\326"
 558      A59876BC 
 558      BAA6AA46 
 558      3322FAC5 
 558      D6
 559 02ef 7AF68D86 		.ascii	"z\366\215\206\316\351\341\023\255\021\275\274\021r\253"
 559      CEE9E113 
 559      AD11BDBC 
 559      1172AB
 560 02fe 6B4E06EA 		.ascii	"kN\006\352\202-\241\346\250\261/\260g?\210(x\303\241"
 560      822DA1E6 
 560      A8B12FB0 
 560      673F8828 
 560      78C3A1
 561 0311 7053B41D 		.ascii	"pS\264\035\376\002\341!Rl"
 561      FE02E121 
 561      526C
 562              		.text
 563              		.section	.gnu.lto_chEvtWaitAllTimeout.1b400facf6d6fc32,"",%progbits
 564 0000 789CAD54 		.ascii	"x\234\255TMHTQ\024>\347\375;\3524\012B-\222A\210 \303"
 564      4D485451 
 564      143EE7FD 
 564      3BEA340A 
 564      422D9241 
 565 0017 974120B4 		.ascii	"\227A \264H\010\002\027n2\251V1\276y\350\243f\306fF"
 565      48080217 
 565      6E32A956 
 565      31BE79E8 
 565      A366C666 
 566 002c C95AF846 		.ascii	"\311Z\370F\015\212$$\0124\211\224Z\224\2201\264\010"
 566      0D8A2424 
 566      0A348994 
 566      5A949031 
 566      B408
 567 003e CC8582A9 		.ascii	"\314\205\202\251\020\032m\372\221YH\022mZ\024\010Y\004"
 567      101A6DFA 
 567      91594812 
 567      6D5A1408 
 567      5904
 568 0050 D339EFBD 		.ascii	"\3239\357\275y\215\0218\213.\314\275\347\376\234\357"
ARM GAS  /tmp/cc7QYcgA.s 			page 44


 568      798D1138 
 568      8B2ECCBD 
 568      E7FE9CEF 
 569 0060 7CDFFDEE 		.ascii	"|\337\375\356\033\001\004\370\273E\351wQ\002\270C#\226"
 569      1B0104F8 
 569      BB45E977 
 569      5102B843 
 569      2396
 570 0072 010A23AB 		.ascii	"\001\012#\253\000\031M\020\304\211&\260\003\352\327"
 570      00194D10 
 570      C48926B0 
 570      03EAD7
 571 0081 1AB02B44 		.ascii	"\032\260+DAz\253\323L\236\251\245\231\204\232{H\026"
 571      417AABD3 
 571      4C9EA9A5 
 571      99849A7B 
 571      4816
 572 0093 94AD201F 		.ascii	"\224\255 \037\032=F\313JaY-\004\032\"\007\200\320/\210"
 572      1A3D46CB 
 572      4A61592D 
 572      041A2207 
 572      80D02F88 
 573 00a7 92ACA81A 		.ascii	"\222\254\250\032\366\237E\256\212u0i\333\267\326_>\037"
 573      F69F45AE 
 573      8A753069 
 573      DBB7D65F 
 573      3E1F
 574 00b9 DE3B66CF 		.ascii	"\336;f\317\015M\330\277\362yD\013\211\341\021\004\003"
 574      0D4DD8BF 
 574      F279440B 
 574      89E11104 
 574      03
 575 00ca E10C4D30 		.ascii	"\341\014M0\354\014\202\264\235\362San=\237\317\215/"
 575      EC0C82B4 
 575      9DF25361 
 575      6E3D9FCF 
 575      8D2F
 576 00dc 2ECEE3F5 		.ascii	".\316\343\365g\322\036\004\013E\031\"8I\260*M$\015c"
 576      67D21E04 
 576      0B451922 
 576      3849B02A 
 576      4D240D63 
 577 00f0 08651C05 		.ascii	"\010e\034\005(\302 Er\210\247U\334UsG82\014\331\366"
 577      28C22045 
 577      7288A755 
 577      DC557347 
 577      38320CD9 
 578 0105 48D8CD03 		.ascii	"H\330\315\003.J\355\024\365L\272\035\005\036\305\025"
 578      2E4AED14 
 578      F54CBA1D 
 578      051EC515 
 579 0115 18587B4F 		.ascii	"\030X{O,#\370\000e\350D\271\036\246lj\247\211k=\034"
 579      2C23F800 
 579      65E844B9 
 579      1EA66C6A 
 579      A7896B3D 
 580 012a B0501987 		.ascii	"\260P\031\207\273\031\333\016Y\250^\201\237\3665\216"
ARM GAS  /tmp/cc7QYcgA.s 			page 45


 580      BB19DB0E 
 580      59A85E81 
 580      9FF6358E 
 581 013a B418F24D 		.ascii	"\264\030\362M3y\315\241\334\201\340\215^\000\2530\360"
 581      3379CDA1 
 581      DC81E08D 
 581      5E00AB30 
 581      F0
 582 014b EDC7ED8D 		.ascii	"\355\307\355\215\335\036\011\000\267\200s[\010\227E"
 582      DD1E0900 
 582      B780735B 
 582      089745
 583 015a B64A74FD 		.ascii	"\266Jt\375\252\205\033x\317\036m\266\310\037\0175\020"
 583      AA851B78 
 583      CF1E6DB6 
 583      C81F0F35 
 583      10
 584 016b E6C8DFBF 		.ascii	"\346\310\337\277\351\355\227\273\330\3149\367h)+\026"
 584      E9ED97BB 
 584      D8CC39F7 
 584      68292B16 
 585 017b 48AB0E53 		.ascii	"H\253\016S\221\230Rn\005\211`\214\002\243\302\233X\201"
 585      9198526E 
 585      0589608C 
 585      02A3C29B 
 585      5881
 586 018d C117831F 		.ascii	"\301\027\203\037\261\220SFi\235L\177\031\206\276d*\213"
 586      B1905346 
 586      699D4C7F 
 586      1986BE64 
 586      2A8B
 587 019f 96B53F56 		.ascii	"\226\265?V\264\243\010\023M\3422,|\236\177\2671\347"
 587      B4A30813 
 587      4DE2322C 
 587      7C9E7FB7 
 587      31E7
 588 01b1 2707B8C0 		.ascii	"'\007\270\3006\333\332i\372\270N,Ev\004\247\010\326"
 588      36DBDA69 
 588      FAB84E2C 
 588      457604A7 
 588      08D6
 589 01c3 91094532 		.ascii	"\221\011E2#\370\004k\213\001e\370^\303\376\274\312\315"
 589      23F8046B 
 589      8B0165F8 
 589      5EC3FEBC 
 589      CACD
 590 01d5 2EBD915D 		.ascii	".\275\221] \317\235\243\244\326\013\033-\254\374\267"
 590      20CF9DA3 
 590      A4D60B1B 
 590      2DACFCB7 
 591 01e5 70D11B5D 		.ascii	"p\321\033]\236\216\256\327pu}+\273\351\353\010\372\226"
 591      9E8EAED7 
 591      70757D2B 
 591      BBE9EB08 
 591      FA96
 592 01f7 060DCF3A 		.ascii	"\006\015\317:F\330U\316\032-\014\361\355,|\3124\372"
 592      46D855CE 
ARM GAS  /tmp/cc7QYcgA.s 			page 46


 592      1A2D0CF1 
 592      ED2C7CCA 
 592      34FA
 593 0209 E77957DE 		.ascii	"\347yW\336\256[\2011\351\277\352Vau\277\363.s\233KY"
 593      AE5B8131 
 593      E9BFEA56 
 593      6175BFF3 
 593      2E739B4B 
 594 021e B9503AE4 		.ascii	"\271P:\344\352\015\225\340\363\300\354\340\214/\261"
 594      EA0D95E0 
 594      F3C0ECE0 
 594      8C2FB1
 595 022d CA11EE98 		.ascii	"\312\021\356\230?\355/V\023\036m9\207[\212ov'xJ-\355"
 595      3FED2F56 
 595      131E6D39 
 595      875B8A6F 
 595      7627784A 
 596 0243 6D972A56 		.ascii	"m\227*Vs\276\3027\364o\302\340N\265\017\200\234G\366"
 596      73BEC237 
 596      F46FC2E0 
 596      4EB50F80 
 596      9C47F6
 597 0256 49D36B1B 		.ascii	"I\323k\033M^\254<\274\257\220\024u8\273\210\374\031"
 597      4D5EAC3C 
 597      BCAF9014 
 597      7538BB88 
 597      FC19
 598 0268 232732E6 		.ascii	"#'2\346a\275+\0213u#\021\355\323\243f\257ntY\035V\""
 598      61BD2B11 
 598      33752311 
 598      EDD3A366 
 598      AF6E7459 
 599 027f A5A7933D 		.ascii	"\245\247\223=\361\363:\005\311\264\236J\032\264n\366"
 599      F1F33A05 
 599      C9B49E4A 
 599      1AB46EF6 
 600 028f 9AF174AA 		.ascii	"\232\361t\252\301\000\321Hw7\357\224f^J\353\307[\333"
 600      C100D148 
 600      7737EF94 
 600      665E4AEB 
 600      C75BDB
 601 02a2 5ADA742B 		.ascii	"Z\332t+n\\\350\211\362\331\244y\316\210\235\350\211"
 601      6E5CE889 
 601      F2D9A479 
 601      CE889DE8 
 601      89
 602 02b3 1B0D5D10 		.ascii	"\033\015]\020jm;\031\356\210\244\314\356\244u0\274\357"
 602      6A6D3B19 
 602      EE88A4CC 
 602      EEA47530 
 602      BCEF
 603 02c5 10084950 		.ascii	"\020\010IPcf,\221\354\203\337\035\222'r"
 603      63662C91 
 603      EC83DF1D 
 603      922772
 604              		.text
 605              		.section	.gnu.lto_.symbol_nodes.1b400facf6d6fc32,"",%progbits
ARM GAS  /tmp/cc7QYcgA.s 			page 47


 606 0000 789C4DC9 		.ascii	"x\234M\311INBQ\020\205\341:\267\036\257\241\357\334"
 606      494E4251 
 606      1085E13A 
 606      B71EAFA1 
 606      EFDC
 607 0012 09DB612D 		.ascii	"\011\333a-\207\304\2048t\005\0160q\007n@\"\214`\342"
 607      87C48438 
 607      74050E30 
 607      71076E40 
 607      228C60E2 
 608 0026 D481A151 		.ascii	"\324\201\241Q\032{\003!\004\210\220k|U\223?\337)'Nn"
 608      1A7B0321 
 608      0488906B 
 608      7C55933F 
 608      DF29274E 
 609 003b 20FEDC08 		.ascii	" \376\334\010\024\271\034\212\220W\027\310\374\034\037"
 609      14B91C8A 
 609      905717C8 
 609      FC1C1F
 610 004a 14370691 		.ascii	"\0247\006\221\256n\002:\303)\250\206/``8\0073\206\317"
 610      AE6E023A 
 610      C329A886 
 610      2F606038 
 610      073386CF 
 611 005e 60683803 		.ascii	"`h8\003#\303\005\030\033.\301\304\360\025\314\032\276"
 611      23C30518 
 611      1B2EC1C4 
 611      F015CC1A 
 611      BE
 612 006f 8139C377 		.ascii	"\2019\303w0o\370\001\026\014?\301\242\341\027X2\374"
 612      306FF801 
 612      160C3FC1 
 612      A2E11758 
 612      32FC
 613 0081 06CB29B1 		.ascii	"\006\313)\261\005+\236\255\026\260\001\253\251\366`"
 613      052B9EAD 
 613      16B001AB 
 613      A9F660
 614 0090 2DD501AC 		.ascii	"-\325\001\254\377K\303\252\\\367\373\201F\241\334\365"
 614      FF4BC3AA 
 614      5CF7FB81 
 614      46A1DCF5 
 615 00a0 7603D538 		.ascii	"v\003\3258\224\316\323\001\032\327\244{j\022y'\336A"
 615      94CED301 
 615      1AD7A47B 
 615      6A127927 
 615      DE41
 616 00b2 4E1EDAEB 		.ascii	"N\036\332\353\246\346\353\322\275mh\301\247x\314j\010"
 616      A6E6EBD2 
 616      BD6D68C1 
 616      A778CC6A 
 616      08
 617 00c3 2D9DC979 		.ascii	"-\235\311y\373^\265\374\327\312\251\217\201\374\002"
 617      FB5EB5FC 
 617      D7CAA98F 
 617      81FC02
 618 00d2 A13E87A2 		.ascii	"\241>\207\242"
ARM GAS  /tmp/cc7QYcgA.s 			page 48


 619              		.text
 620              		.section	.gnu.lto_.refs.1b400facf6d6fc32,"",%progbits
 621 0000 789C6362 		.ascii	"x\234cb`bPe\200\000F bd\006b\026 \346\001b^ \346\003"
 621      60625065 
 621      80004620 
 621      62640662 
 621      1620E601 
 622 0019 627E2016 		.ascii	"b~ \026\000bA\240\022\000\016\035\000\232"
 622      006241A0 
 622      12000E1D 
 622      009A
 623              		.text
 624              		.section	.gnu.lto_.decls.1b400facf6d6fc32,"",%progbits
 625 0000 789CBD5B 		.ascii	"x\234\275[{t\024U\232\257\252\356t'\004\003\212\272"
 625      7B741455 
 625      9AAFAAEE 
 625      74270403 
 625      8ABA
 626 0012 CE9E3D6B 		.ascii	"\316\236=kf\317\270\307\343\036'<\034\305?Vp\235\031"
 626      66CFB8C7 
 626      E31E273C 
 626      1CC53F56 
 626      709D19
 627 0025 F1EC7177 		.ascii	"\361\354qw\216\254g\346\3549{z\212\356\202\364N\247"
 627      8EAC67E6 
 627      EC397B7A 
 627      8AEE82F4 
 627      4EA7
 628 0037 BBA7BAC2 		.ascii	"\273\247\272\302\343\217=\026\341\3458\212! 0\341a\242"
 628      E38F3D16 
 628      E1E5388A 
 628      212030E1 
 628      61A2
 629 0049 46050714 		.ascii	"F\005\007\024\004\203\204G)\317\020\344\021\023\310"
 629      04838447 
 629      29CF10E4 
 629      1113C8
 630 0058 600CAD12 		.ascii	"`\014\255\022P\027\225\310K\004\311~\367\253[\235[\225"
 630      501795C8 
 630      4B04C97E 
 630      F7AB5B9D 
 630      5B95
 631 006a 5BDD5519 		.ascii	"[\335U\031\327>\347V\335\252\272\337\357\376\276\307"
 631      D73EE756 
 631      DDAABADF 
 631      EFFEBEC7 
 632 007a FDEAD6AD 		.ascii	"\375\352\326\255jI\220\204-aA\350\207_\323/\005A,\026"
 632      6A499084 
 632      2D6141E8 
 632      875FD32F 
 632      05412C16 
 633 008e 849B0441 		.ascii	"\204\233\004Ax\000J\020J#\224\327\240\210P\240\031\376"
 633      78004A10 
 633      4A2394D7 
 633      A08850A0 
 633      19FE
 634 00a0 6E81B209 		.ascii	"n\201\262\011\312\223p\262\026\312R(\365P\032\240\254"
ARM GAS  /tmp/cc7QYcgA.s 			page 49


 634      CA9370B2 
 634      16CA5228 
 634      F5501AA0 
 634      AC
 635 00b1 81B2114A 		.ascii	"\201\262\021J3\224mP\014(\035P\272\240tC\311B9\013\245"
 635      33946D50 
 635      0C281D50 
 635      BAA07443 
 635      C942390B 
 636 00c6 0FCA2528 		.ascii	"\017\312%(\337B\371\016\212(\231}\204$\301\366#\375"
 636      DF42F90E 
 636      8A28997D 
 636      8424C1F6 
 636      23FD
 637 00d8 DC006527 		.ascii	"\334\000e'\224V(\377\005\327\273`\037\201\375\026\330"
 637      945628FF 
 637      05D7BB60 
 637      1F81FD16 
 637      D8
 638 00e9 374331A0 		.ascii	"7C1\240\224\301q\030\212\014e\"\000iP@\025a\007\224"
 638      94C17118 
 638      8A0C6522 
 638      00695040 
 638      15610794 
 639 00fd BD0403CE 		.ascii	"\275\004\003\316\377=\224\375P\377=\\\313@\231)\232"
 639      FF3D94FD 
 639      50FF3D5C 
 639      CB409929 
 639      9A
 640 010e 7D923E8A 		.ascii	"}\222>\212\240<\001\007\263\241\314\2012O\034\314\205"
 640      A03C0107 
 640      B3A1CC81 
 640      324F1CCC 
 640      85
 641 011f E85B44B9 		.ascii	"\350[D\271\260<\014j\237\275tO\332\021\321g`\277P\264"
 641      B03C0C6A 
 641      9FBD744F 
 641      DA11D167 
 641      60BF50B4 
 642 0133 63107B0D 		.ascii	"c\020{\015\027L\216e\202Yo\245\266e1Y}\016\300\271\000"
 642      174C8E65 
 642      82596FA5 
 642      B6653159 
 642      7D0EC0B9 
 643 0148 A3C37F52 		.ascii	"\243\303\177R\336\265\264\237%\034\256\304'\303<`\023"
 643      DEB5B49F 
 643      251CAEC4 
 643      27C33C60 
 643      13
 644 0159 1E6EF84B 		.ascii	"\036n\370K)\376r\016~=\265\257\306\350\341\264\311N"
 644      29FE720E 
 644      7E3DB5AF 
 644      C6E8E1B4 
 644      C94E
 645 016b 6A8F0CC5 		.ascii	"j\217\014\305\253\247\373\325\016\2334P\256a\332\336"
 645      ABA7FBD5 
 645      0E9B3450 
ARM GAS  /tmp/cc7QYcgA.s 			page 50


 645      AE61DADE 
 646 017b E244B893 		.ascii	"\342D\270\223\330\273O4\343p\012\340^\246> \034\357"
 646      D8BB4F34 
 646      E3700AE0 
 646      5EA63E20 
 646      1CEF
 647 018d 82722F94 		.ascii	"\202r/\224\011P\356\247\\\033h\\\221z\023\354_q\364"
 647      0950EEA7 
 647      5C1B685C 
 647      917A13EC 
 647      5F71F4
 648 01a0 B586DA9F 		.ascii	"\265\206\332\237p\263x\207i_V<\021\235\014\312#\012"
 648      70B37887 
 648      695F563C 
 648      119D0CCA 
 648      230A
 649 01b2 408D447F 		.ascii	"@\215D\177\301\214%+n\2548\">\227(n\003\355w=\354_w"
 649      C18C252B 
 649      6EAC3822 
 649      3E97286E 
 649      03ED773D 
 650 01c9 F44BC684 		.ascii	"\364K\306\204\323\017\026v\014\366Wi\373\000m\333@\307"
 650      D30F1676 
 650      0CF65769 
 650      FB006DDB 
 650      40C7
 651 01db 06C1DB04 		.ascii	"\006\301\333\004\373\315\016\274f\016\236\002e-\007"
 651      FBCD0EBC 
 651      660E9E02 
 651      652D07
 652 01ea AF998E4B 		.ascii	"\257\231\216K\013\357m\330ou\340m\243ve\375\311\363"
 652      0BEF6DD8 
 652      6F75E06D 
 652      A37665FD 
 652      C9F3
 653 01fc E136BADF 		.ascii	"\3416\272\337\341\2207\250\017\213\030\273\356\023\315"
 653      E19037A8 
 653      0F8B18BB 
 653      EE13CD
 654 020b 1C4278EE 		.ascii	"\034Bx\356\202\372A(\273\241\354\241\262\"\225#\234"
 654      82FA4128 
 654      BBA1ECA1 
 654      B2229523 
 654      9C
 655 021c DA617FC4 		.ascii	"\332a\177\304\201I\362\306H\352\033\013s\"\325\233\215"
 655      8149F2C6 
 655      48EA1B0B 
 655      7322D59B 
 655      8D
 656 022d 61D60624 		.ascii	"a\326\006$nH\274L\225\314\330\271N\365bc\333\212\031"
 656      6E48BC4C 
 656      95CCD8B9 
 656      4EF56263 
 656      DB8A19
 657 0240 89F6F11D 		.ascii	"\211\366\361\035\255\037\343\304y\327\017\300\241\213"
 657      AD1FE3C4 
 657      79D70FC0 
ARM GAS  /tmp/cc7QYcgA.s 			page 51


 657      A18B
 658 024e E17082C3 		.ascii	"\341p\202\303\241\233\303!_\377\326\370\361\303\241"
 658      A19BC321 
 658      5FFFD6F8 
 658      F1C3A1
 659 025d 9BE1D0C3 		.ascii	"\233\341\320\303\341@\362\366\215.v\010y\260\3054\312"
 659      E140F2F6 
 659      8D2E7608 
 659      79B0C534 
 659      CA
 660 026e 4392F2F3 		.ascii	"C\222\362\363 \375\220{\001\211\333O\241\376\031\207"
 660      20FD907B 
 660      0189DB4F 
 660      A1FE1987 
 661 027e CBD91F88 		.ascii	"\313\331\037\210\313Y\206\313\227P\377\212\303\245\357"
 661      CB5986CB 
 661      9750FF8A 
 661      C3A5EF
 662 028d 07E2D2C7 		.ascii	"\007\342\322\307p9\017\365\013\034.%\302\223:\374\032"
 662      70390FF5 
 662      0B1C2E25 
 662      C2933AFC 
 662      1A
 663 029e E6EB93F6 		.ascii	"\346\353\223\366\003\227\337\210\262XV\"\224cex\011"
 663      0397DF88 
 663      B2585622 
 663      94636578 
 663      09
 664 02af 0EC53B84 		.ascii	"\016\305;\204\227t\2756\273\347\314\247\001]/\226\305"
 664      9774BD36 
 664      BBE7CCA7 
 664      015D2F96 
 664      C5
 665 02c0 46B104E0 		.ascii	"F\261\004\340\377U\024\356\022\326\200h\255\256\277"
 665      FF5514EE 
 665      12D68068 
 665      ADAEBF
 666 02cf 70976314 		.ascii	"p\227c\024\372\204\356\333\273{\203X\243\353p\241\011"
 666      FA84EEDB 
 666      BB7B8358 
 666      A3EB70A1 
 666      09
 667 02e0 C1FF4714 		.ascii	"\301\377G\024d\361%\361.\337H+\0164\217G\222\257\"\316"
 667      64F125F1 
 667      2EDF482B 
 667      0E348F47 
 667      92AF22CE 
 668 02f4 56D10E24 		.ascii	"V\321\016$\213\241\022\226\"\036[\015\010\032\034\222"
 668      8BA11296 
 668      221E5B0D 
 668      081A1C92 
 669 0304 9EBE2153 		.ascii	"\236\276!S\033\361\011z\206\034\204\205\037\\\016\265"
 669      1BF1097A 
 669      861C8485 
 669      1F5C0EB5 
 670 0314 AED1B34D 		.ascii	"\256\321\263M\372m\313\007\264.\266\264\026\031\327"
 670      FA6DCB07 
ARM GAS  /tmp/cc7QYcgA.s 			page 52


 670      B42EB6B4 
 670      1619D7
 671 0323 9CA6AE79 		.ascii	"\234\246\256y\015\265\336-r\314\347\011\250o\376\272"
 671      0DB5DE2D 
 671      72CCE709 
 671      A86FFEBA 
 672 0333 7F42A0F5 		.ascii	"\177B\240\365\010\364\336\220\201V<\265\332\364\303"
 672      08F4DE90 
 672      81563CB5 
 672      DAF4C3
 673 0342 0604EA1C 		.ascii	"\006\004\352\034\344\007\321\341\007\321n\027\274L+"
 673      E407D1E1 
 673      07D16E17 
 673      BC4C2B
 674 0351 FDF6E0FA 		.ascii	"\375\366\340\372^\333\336.\254\326\263\347\262\375\013"
 674      5EDBDE2E 
 674      ACD6B3E7 
 674      B2FD0B
 675 0360 CFCA7FD2 		.ascii	"\317\312\177\322\215\271z\177\377\023\302\255\302s4"
 675      8DB97A7F 
 675      FF13C2AD 
 675      C27334
 676 036f DA745193 		.ascii	"\332tQ\223\305\007n\341\006\034\001\337,\336\212\265"
 676      C5076EE1 
 676      061C01DF 
 676      2CDE8AB5 
 677 037f 000E37A1 		.ascii	"\000\0167\241Tx\212\230\307\014\323\233\204E\210\022"
 677      54788A98 
 677      C70CD39B 
 677      84458812 
 678 038f 2A10B19D 		.ascii	"*\020\261\235\355\207\307\240\245\266\2107\001L\253"
 678      ED87C7A0 
 678      A5B68837 
 678      014CAB
 679 039e 64B75441 		.ascii	"d\267TA\030I\350B\221\026\0207\005\021X7\232\347\337"
 679      1849E842 
 679      91161037 
 679      05115837 
 679      9AE7DF
 680 03b1 AC07CDF3 		.ascii	"\254\007\315\363\202\015\322\366\373\261\320\000\234"
 680      820DD2F6 
 680      FBB1D000 
 680      9C
 681 03be 8DB7E7AF 		.ascii	"\215\267\347\257\372\221\336\360\256\310S\241\234\351"
 681      FA91DEF0 
 681      AEC853A1 
 681      9CE9
 682 03cc 1AA618B4 		.ascii	"\032\246\030\264\357\233s*\030\037|'\226\313\242\201"
 682      EF9B732A 
 682      181F7C27 
 682      96CBA281 
 683 03dc FC7BF9FC 		.ascii	"\374{\371\374\3351$\341\022\212\354r\362\277(\227\233"
 683      DD3124E1 
 683      128AEC72 
 683      F2BF2897 
 683      9B
 684 03ed 670BB3BF 		.ascii	"g\013\263\277\374Y\253\250\327\015\227\305\235\240\200"
ARM GAS  /tmp/cc7QYcgA.s 			page 53


 684      FC59ABA8 
 684      D70D97C5 
 684      9DA080
 685 03fc 24CC0B58 		.ascii	"$\314\013X\200<\203\321\252\371\243\015\354p\327\224"
 685      803C83D1 
 685      AAF9A30D 
 685      EC70D794 
 686 040c FDA30B1A 		.ascii	"\375\243\013\032\"h\001\375|\300\227[\353w\213\350\313"
 686      226801FD 
 686      7CC0975B 
 686      EB778BE8 
 686      CB
 687 041d 03688BBD 		.ascii	"\003h\213\275\201\302\266\260\301H\302a\024y\317a\213"
 687      81C2B6B0 
 687      C148C261 
 687      1479CF61 
 687      8B
 688 042e ECF9D53D 		.ascii	"\354\371\325=\263\305\331\230 \337\363d\221\253\324"
 688      B3C5D998 
 688      20DFF364 
 688      91ABD4
 689 043d 9FB2D88A 		.ascii	"\237\262\330\212&Y\030\264p\207f\222\353{\207\327\312"
 689      265918B4 
 689      70876692 
 689      EB7B87D7 
 689      CA
 690 044e 16D873BE 		.ascii	"\026\330s\276\301\312m`\213\367\255Dr4\235xH\353M\326"
 690      C1CA6D60 
 690      8BF7AD44 
 690      72349D78 
 690      48EB4DD6 
 691 0462 BDA713D3 		.ascii	"\275\247\023\323\311\312 7/y\271\323\314\337\363\016"
 691      C9CA2037 
 691      2F79B9D3 
 691      CCDFF30E 
 692 0472 BDD37421 		.ascii	"\275\323t!\324KC\206Z\361\324\266\373\221\323\007\010"
 692      D44B4386 
 692      5AF1D4B6 
 692      FB91D307 
 692      08
 693 0483 B42EE84C 		.ascii	"\264.\350LqaG\212\013\333SQ\270d\240B2\376\010\341\377"
 693      7161478A 
 693      0BDB5351 
 693      B864A042 
 693      32FE08E1 
 694 0498 B9393CB4 		.ascii	"\2719<\264{q\\\261[\024\350\331\257W\367\212$M\006<"
 694      7B715CB1 
 694      5B14E8D9 
 694      AF57F78A 
 694      244D063C 
 695 04ac 64A59DD8 		.ascii	"d\245\235\330W\326\031\311\317\237>r\367r]\037i^*\034"
 695      57D619C9 
 695      CF9F3E72 
 695      F7725D1F 
 695      695E2A1C 
 696 04c0 C8CD6DCB 		.ascii	"\310\315m\313\274%\246\220\325}\014\273\237]D\272\357"
 696      BC25A690 
ARM GAS  /tmp/cc7QYcgA.s 			page 54


 696      D57D0CBB 
 696      9F5D44BA 
 696      EF
 697 04d1 7576DFF2 		.ascii	"uv\337\362\371\247\017\230\335\367z\352\376\344\341"
 697      F9A70F98 
 697      DDF77AEA 
 697      FEE4E1
 698 04e0 2583BB77 		.ascii	"%\203\273w\275'\320\310x\376\364\271;\237\307N>\303"
 698      BD27D0C8 
 698      78FEF4B9 
 698      3B9FC74E 
 698      3EC3
 699 04f2 F1D256E4 		.ascii	"\361\322V\344\014\215\011\245v\347\3011\323@\022:r\354"
 699      0C8D09A5 
 699      76E7C131 
 699      D340123A 
 699      72EC
 700 0504 87345C41 		.ascii	"\2074\\AMc\302\232\215\272\376\207\220\305\241\3137"
 700      4D63C29A 
 700      8DBAFE87 
 700      90C5A1CB 
 700      37
 701 0515 62B9CD10 		.ascii	"b\271\315\020_\037\306\004`\202u{\001s\215\243\032\343"
 701      5F1FC604 
 701      6082757B 
 701      01738DA3 
 701      1AE3
 702 0527 020B96F5 		.ascii	"\002\013\226\365\015fgv\211\005;\345\005l\244;\263o"
 702      0D666776 
 702      89053BE5 
 702      056CA43B 
 702      B36F
 703 0539 58B04F7D 		.ascii	"X\260O}\203\331\231}\313\202\235\365\002v\233;\263k"
 703      83D9997D 
 703      CB829DF5 
 703      02769B3B 
 703      B36B
 704 054b 2CD839DF 		.ascii	",\3309\337`vf\327Y\260\013^\300\312\335\231\325\266"
 704      607666D7 
 704      59B00B5E 
 704      C0CADD99 
 704      D5B6
 705 055d 3360DFF8 		.ascii	"3`\337\370\006\2633\253c\301\256y\001\273\323\235\331"
 705      06B333AB 
 705      63C1AE79 
 705      01BBD39D 
 705      D9
 706 056e 12164C0F 		.ascii	"\022\026L\017\371\005\2633[\312\202\315\365\0026\332"
 706      F905B333 
 706      5BCA82CD 
 706      F50236DA 
 707 057e 9DD97216 		.ascii	"\235\331r\026\354I\337`vf\365,\330\323^\300\306\273"
 707      EC49DF60 
 707      7666F52C 
 707      D8D35EC0 
 707      C6BB
 708 0590 335BC982 		.ascii	"3[\311\202\325\372\006\2633{\203\005[\342\005l\242;"
ARM GAS  /tmp/cc7QYcgA.s 			page 55


 708      D5FA06B3 
 708      337B8305 
 708      5BE2056C 
 708      A23B
 709 05a2 B38D2CD8 		.ascii	"\263\215,\3302\337`vf\233X\260z/`\223\334\231\275\305"
 709      32DF6076 
 709      669B58B0 
 709      7A2F6093 
 709      DC99BDC5 
 710 05b6 82ADF20D 		.ascii	"\202\255\362\015fg\266\205\005k\360\002\366+wf[Y\260"
 710      6667B685 
 710      056BF002 
 710      F62B7766 
 710      5B59B0
 711 05c9 177D83D9 		.ascii	"\027}\203\331\231mc\301^\366\002\366\033wf;X\260\265"
 711      996D63C1 
 711      5EF602F6 
 711      1B77663B 
 711      58B0B5
 712 05dc BEC1ECCC 		.ascii	"\276\301\354\314\216\260`\353\275\200\375\226\303,\367"
 712      8EB060EB 
 712      BD80FD96 
 712      C32CF7
 713 05eb E3C991DB 		.ascii	"\343\311\221\333\364)1w\337\226\204\015!k\202\343\363"
 713      F4293177 
 713      DF96840D 
 713      216B82E3 
 713      F3
 714 05fc 1E2D0C60 		.ascii	"\036-\014`l\016\371\235\220\331\364\206\347\202\323"
 714      6C0EF99D 
 714      90D9F486 
 714      E782D3
 715 060b 8DE2E239 		.ascii	"\215\342\3429\372\376\321\326\334\274\305\013b\236\033"
 715      FAFED1D6 
 715      DCBCC50B 
 715      629E1B
 716 061a 60FD3E66 		.ascii	"`\375>f\242\277\3137\230#\224\011\230m\352\224[A0\362"
 716      A2BFCB37 
 716      98239409 
 716      986DEA94 
 716      5B4130F2 
 717 062e AF209055 		.ascii	"\257 \220U%\211Yn\270\215\337V\026_\226\356\200\355"
 717      2589596E 
 717      B88DDF56 
 717      165F96EE 
 717      80ED
 718 0640 2B52498E 		.ascii	"+RI\216\205Y\267j\375\270\026\326\026\342-P!@~Q\267"
 718      8559B76A 
 718      FDB816D6 
 718      16E22D50 
 718      21407E51 
 719 0655 48784962 		.ascii	"HxIb\"\341\210\0273\345\271\265\237\334\267\362o\364"
 719      22E18817 
 719      33E5B9B5 
 719      9FDCB7F2 
 719      6FF4
 720 0667 AC215AEB 		.ascii	"\254!Z\3537\307\235x6\235\013\337\335/\355+}\343\267"
ARM GAS  /tmp/cc7QYcgA.s 			page 56


 720      37C79D78 
 720      369D0BDF 
 720      DD2FED2B 
 720      7DE3B7
 721 067a DED76A9A 		.ascii	"\336\327j\232\254\325\243u\022\351\375d\3109[]\357s"
 721      ACD5A375 
 721      12E9FD64 
 721      C8395B5D 
 721      EF73
 722 068c B14612CE 		.ascii	"\261F\022\316\370\326\340NG\\\357\256\023\317\327\350"
 722      F8D6E04E 
 722      475CEFAE 
 722      13CFD7E8 
 723 069c CB477B57 		.ascii	"\313G{W\243\327Rc#\252\361\325\367\240\306e\337j\214"
 723      A3D75263 
 723      23AAF1D5 
 723      F7A0C665 
 723      DF6A8C
 724 06af 66D4208F 		.ascii	"f\324 \217\355\027\353\314\3419J\250\313\377\300D\370"
 724      ED17EBCC 
 724      E1394AA8 
 724      CBFFC044 
 724      F8
 725 06c0 344BA3EC 		.ascii	"4K\243\354K \1779@\026V\310\351BO*\272q\371\300J\372"
 725      4B207F39 
 725      401656C8 
 725      E9424F2A 
 725      BA71F9C0 
 726 06d6 C46FAECF 		.ascii	"\304o\256\317^G\356D\326gz\242xK\3320\021\230`\363\302"
 726      5E47EE44 
 726      D6677AA2 
 726      784BDA30 
 726      119860F3 
 727 06eb 7F0D588D 		.ascii	"\177\015X\215\361\346\037\255\345\210\011\270\032\361"
 727      F1E61FAD 
 727      E58809B8 
 727      1AF1
 728 06f9 57C21D6D 		.ascii	"W\302\035m\363\273\2000\357s\032\034\006\006\307sag"
 728      F3BB8030 
 728      EF731A1C 
 728      0606C773 
 728      6167
 729 070b 70743983 		.ascii	"pt9\203\303\313\363t\343P\365\310\375$\341\325\260\207"
 729      C3CBF374 
 729      E350F5C8 
 729      FD24E1D5 
 729      B087
 730 071d E451EEEA 		.ascii	"\344Q\356\352\247\354\371\236\3134\306\274\2568\266"
 730      A7ECF99E 
 730      CB34C6BC 
 730      AE38B6
 731 072c 9CD83B5B 		.ascii	"\234\330;[\234\213k {%\262N\365g\2075<<\335\267\240"
 731      9C8B6B20 
 731      7B25B24E 
 731      F5678735 
 731      3C3CDDB7 
 732 0741 48AB3468 		.ascii	"H\2534h\235\352=k\235\212\\\363\360xo[\247\222\305\243"
ARM GAS  /tmp/cc7QYcgA.s 			page 57


 732      9DEA3D6B 
 732      9D8A5CF3 
 732      F0786F5B 
 732      A792C5A3 
 733 0755 A2447187 		.ascii	"\242Dq\207jQ\233\023\007\010\312b\033\336)\016J?f\255"
 733      6A519B13 
 733      0708CA62 
 733      1BDE290E 
 733      4A3F66AD 
 734 0769 DFE6DBFA 		.ascii	"\337\346\333\372\345\254\365\215\253m+E\302\237\263"
 734      E5ACF58D 
 734      AB6D2B45 
 734      C29FB3
 735 0778 223191BD 		.ascii	"\"1\221\275\177[\246\257?\264\210\232\3760\232\276\323"
 735      7F5BA6AF 
 735      3FB4889A 
 735      FE309ABE 
 735      D3
 736 0789 C5F413DD 		.ascii	"\305\364\023\335\200$\241\027E\332\007\231\276\247\303"
 736      8024A117 
 736      45DA0799 
 736      BEA7C3
 737 0798 327DBB27 		.ascii	"2}\273'\323wrM\337\356\337\364\024\357\330\300\022\241"
 737      D377724D 
 737      DFEEDFF4 
 737      14EFD8C0 
 737      12A1
 738 07aa 2CBEEF1B 		.ascii	",\276\357\033\254<\237\037\333\031?v\240\037;\301\217"
 738      AC3C9F1F 
 738      DB193F76 
 738      A01F3BC1 
 738      8F
 739 07bb B278CCEE 		.ascii	"\262x\314\356\315KNo\332LG\253\256\317\213\272\261\370"
 739      CD4B4E6F 
 739      DA4C47AB 
 739      AECF8BBA 
 739      B1F8
 740 07cd 903D87   		.ascii	"\220=\207"
 741 07d0 CE2EF610 		.ascii	"\316.\366\020\035y\236\362V\037B\223\2309g\201o\260"
 741      1D799EF2 
 741      561F4293 
 741      98396781 
 741      6FB0
 742 07e2 721BD8F6 		.ascii	"r\033\330\366\205\336\226\350\365\334\362\372H4J\035"
 742      85DE96E8 
 742      F5DCF2FA 
 742      48344A1D 
 743 07f2 F6DBE38C 		.ascii	"\366\333\343\214\227\276\027\216.\240\361\322\343!^"
 743      97BE178E 
 743      2EA0F1D2 
 743      E3215E
 744 0801 E006D35B 		.ascii	"\340\006\323[\202k\354f\340\036\314\241\3461u\236h\271"
 744      826BEC66 
 744      E01ECCA1 
 744      E631759E 
 744      68B9
 745 0813 6A2DD99B 		.ascii	"j-\331\2333\315\016'\\\301\211\260\035\356\272\207%"
ARM GAS  /tmp/cc7QYcgA.s 			page 58


 745      33CD0E27 
 745      5CC189B0 
 745      1DEEBA87 
 745      25
 746 0824 7BBB61AC 		.ascii	"{\273a\254w\027o\223[\354\031\324\251\273\330yW0-\303"
 746      77176F93 
 746      5BEC19D4 
 746      A9BBD879 
 746      57302DC3 
 747 0838 04620F13 		.ascii	"\004b\017\023\210Y\014\304\2170\020?\301m/\033\216n"
 747      88590CC4 
 747      8F30103F 
 747      C16D2F1B 
 747      8E6E
 748 084a 77F9D3EC 		.ascii	"w\371\323\354\324\361\224o\275\313\035\336q\353\346"
 748      D4F1946F 
 748      BDCB1DDE 
 748      71EBE6
 749 0859 43B69BFF 		.ascii	"C\266\233\377\365\022{\356\213\002\220\327;\027[\317"
 749      F5127BEE 
 749      8B0290D7 
 749      3B175BCF 
 750 0869 19E612FC 		.ascii	"\031\346\022\374E\337\210\366h\356[h\233\021\350%\036"
 750      45DF88F6 
 750      68EE5B68 
 750      9B11E825 
 750      1E
 751 087a E0267208 		.ascii	"\340&r\010\362~\354\013\024\210W\221\270\351\210H\034"
 751      F27EEC0B 
 751      14885791 
 751      B8E98848 
 751      1C
 752 088b D48EDB0E 		.ascii	"\324\216\333\016\334\236\304\355\363\350\270F\334\276"
 752      DC9EC4ED 
 752      F3E8B846 
 752      DCBE
 753 0899 88DBB5B8 		.ascii	"\210\333\265\270\3753n7\340\366-\334\356\301\355!\334"
 753      FD336E37 
 753      E0F62DDC 
 753      EEC1ED21 
 753      DC
 754 08aa 76E1F604 		.ascii	"v\341\366\004n\273q{\026\267_z\011\0003C2\253\275O\226"
 754      6EBB717B 
 754      16B75F7A 
 754      09003343 
 754      32ABBD4F 
 755 08bf F87D5F65 		.ascii	"\370}_e\263e\266\263n\367\"\313;f\256Y\342\0051\317"
 755      B365B6B3 
 755      6EF722CB 
 755      3B66AE59 
 755      E20531CF 
 756 08d3 705A4272 		.ascii	"pZBr\271\217\3273\326\354\352\002\366\276\272\344{\231"
 756      B98FD733 
 756      D6ECEA02 
 756      F6BEBAE4 
 756      7B99
 757 08e5 5DBDE65B 		.ascii	"]\275\346[\011\247Y\366\346\314b\022\333\344\005\221"
ARM GAS  /tmp/cc7QYcgA.s 			page 59


 757      09A759F6 
 757      E6CC6212 
 757      DBE40591 
 758 08f5 F770CC8F 		.ascii	"\367p\314\217\262]L\224\355\301(\333\2131\265\037\267"
 758      B25D4C94 
 758      EDC128DB 
 758      8B31B51F 
 758      B7
 759 0906 7D1811E7 		.ascii	"}\030\021\347q\373\215\227\270\330\311\256.\354(\261"
 759      71FB8D97 
 759      B8D8C9AE 
 759      2EEC28B1 
 760 0916 5EEA7E2F 		.ascii	"^\352~/\023\241\026\206\352v\244\272C\364@\251y\200"
 760      13A11686 
 760      EA76A4BA 
 760      43F440A9 
 760      7980
 761 0928 127DC79D 		.ascii	"\022}\307\235\243\231;6\314\007\350\334\361\005\363"
 761      A3993B36 
 761      CC07E8DC 
 761      F105F3
 762 0937 58161F0F 		.ascii	"X\026\037\017\344\360%a\257#&~\"\274\250\353u\344\305"
 762      E4F02561 
 762      AF23267E 
 762      22BCA8EB 
 762      75E4C5
 763 094a FB2271E9 		.ascii	"\373\"q\351\034}\222\331\227$|\204\3556\211\267s9QF"
 763      1C7D92D9 
 763      97247C84 
 763      ED3689B7 
 763      73395146 
 764 095e A6B0F1E6 		.ascii	"\246\260\361\346\276\315\220C$\353\265oo\001\321\235"
 764      BECD9043 
 764      24EBB56F 
 764      6F01D19D 
 765 096e 8CE8E67D 		.ascii	"\214\350\346}\353MQs\274|V@\024u\244\242\315\013^7E"
 765      EB4D5173 
 765      BC7C5640 
 765      1475A4A2 
 765      CD0B5E37 
 766 0983 CD983A57 		.ascii	"\315\230:W@\224\232\343\037\205&r\023\335\260`N\203"
 766      40949AE3 
 766      1F852672 
 766      13DDB060 
 766      4E83
 767 0995 A887F00D 		.ascii	"\250\207\360\015\222@\345l\216\272.\331>\320!\337'4"
 767      9240E56C 
 767      8EBA2ED9 
 767      3ED021DF 
 767      2734
 768 09a7 648D9507 		.ascii	"d\215\225\007\206\327\316\316\366\367\337\356\375\333"
 768      86D7CECE 
 768      F6F7DFEE 
 768      FDDB
 769 09b5 843F046C 		.ascii	"\204?\004l\337&\230\226s:\321\341\244\313\\'\351\253"
 769      DF269896 
 769      733AD1E1 
ARM GAS  /tmp/cc7QYcgA.s 			page 60


 769      A4CB5C27 
 769      E9AB
 770 09c7 14EA1E59 		.ascii	"\024\352\036Y\324\003d^\367d\300\203{\364\253Dl'\212"
 770      D403645E 
 770      F764C083 
 770      7BF4AB44 
 770      6C278A
 771 09da D51410A3 		.ascii	"\325\024\020\243tL#\351\317\350\363F\2129\023\021)\233"
 771      744C23E9 
 771      CFE8F346 
 771      8A391311 
 771      299B
 772 09ec 899E0EF0 		.ascii	"\211\236\016\360L\324\177`!\270\245\306\350\357\237"
 772      4CD47F60 
 772      21B8A5C6 
 772      E8EF9F
 773 09fb E0FC8283 		.ascii	"\340\374\202\203x\317\315L\213\234f\"\215\035fY0\214"
 773      78CFCD4C 
 773      8B9C6622 
 773      8D1D6659 
 773      308C
 774 0a0d 6B96A344 		.ascii	"k\226\243D?\263\371\\\324\257\326U?\203\011\202\032"
 774      3FB3F95C 
 774      D4AFD655 
 774      3F830982 
 774      1A
 775 0a1e BDE5D4AF 		.ascii	"\275\345\324\257&Y\347\334\245(\301\305\\m\273\332h"
 775      2659E7DC 
 775      A528C1C5 
 775      5C6DBBDA 
 775      68
 776 0a2f 40981A40 		.ascii	"@\230\032@\316\345s\334\340\344\270tH\034\335\244(\307"
 776      CEE573DC 
 776      E0E4B874 
 776      481CDDA4 
 776      28C7
 777 0a41 655C8ECD 		.ascii	"e\\\216\315\317>\353\346\221\013y<\262\302\351\0213"
 777      CF3EEBE6 
 777      910B793C 
 777      B2C2E911 
 777      33
 778 0a52 846C1E59 		.ascii	"\204l\036Y\307\327\366Cg\304\325{\212\270\032};j{\201"
 778      C7D7F643 
 778      67C4D57B 
 778      8AB81A7D 
 778      3B6A7B81 
 779 0a66 6AEB2645 		.ascii	"j\353&E\011\256\032\254m\366\234\361A]\033Lh\365k\375"
 779      09AE1AAC 
 779      6DF69CF1 
 779      415D1B4C 
 779      68F56BFD 
 780 0a7a FD011F5F 		.ascii	"\375\001\037_\0205:\225meG\251\301M\245\273\370\312"
 780      10353A95 
 780      6D6547A9 
 780      C14DA5BB 
 780      F8CA
 781 0a8c 5F8D4DB2 		.ascii	"_\215M\262f\323G\260E\203\253\362\255\314(mqF\210\273"
ARM GAS  /tmp/cc7QYcgA.s 			page 61


 781      66D347B0 
 781      4583ABF2 
 781      ADCC286D 
 781      714688BB 
 782 0aa0 181B21CE 		.ascii	"\030\033!\316Q\332\340\034\245/q\255\264\343\220\357"
 782      51DAE01C 
 782      A52F71AD 
 782      B4E390EF 
 783 0ab0 44B6366F 		.ascii	"D\2666o\"\343\337m\336\347\233\250\331\231\310\326x"
 783      22E3DF6D 
 783      DEE79BA8 
 783      D999C8D6 
 783      78
 784 0ac1 4F6466B6 		.ascii	"Odf\266\377\024\201\335\305.\3441\321\032\247\211\326"
 784      FF1481DD 
 784      C52EE431 
 784      D11AA789 
 784      D6
 785 0ad2 71870D79 		.ascii	"q\207\015y7K\207v#\016\355/\371\312\\\261\374-\213/"
 785      374B8776 
 785      230EED2F 
 785      F9CA5CB1 
 785      FC2D8B2F 
 786 0ae6 A3321B3D 		.ascii	"\2432\033=\371\373m\247\277\335\305\362\371{\243S\231"
 786      F9FB6DA7 
 786      BFDDC5F2 
 786      F97BA353 
 786      99
 787 0af7 37B9FEEE 		.ascii	"7\271\376\356x?\247\314ZT\346[\2762\233\235\236i\366"
 787      783FA7CC 
 787      5A54E65B 
 787      BE329B9D 
 787      9E69F6
 788 0b0a E4992B96 		.ascii	"\344\231+\226gd\361\215\002b\371<\323\354Tf\013\327"
 788      6764F18D 
 788      0262F93C 
 788      D3EC5466 
 788      0BD7
 789 0b1c 332B960E 		.ascii	"3+\226\016$43OI\302\302R\256>'\235\231h\333\2202\221"
 789      2434334F 
 789      49C2C252 
 789      AE3E279D 
 789      9968DB90 
 790 0b32 9B14A5B9 		.ascii	"\233\024\245\271\235K\363\344\322\241d\242w\002\356"
 790      9D4BF3E4 
 790      D2A164A2 
 790      7702EE
 791 0b41 DF32E60E 		.ascii	"\3372\346\016\0148\360\016\271\307\016\351\375+\336"
 791      0C38F00E 
 791      B9C70EE9 
 791      FD2BDE
 792 0b50 5EEB73AF 		.ascii	"^\353s\257}\0012\350\232J\235\317\023M\316\347\011\037"
 792      7D0132E8 
 792      9A4A9DCF 
 792      134DCEE7 
 792      091F
 793 0b62 9FD5DA52 		.ascii	"\237\325\332RE\036\022\235u\307f\343\247b\216o\177\210"
ARM GAS  /tmp/cc7QYcgA.s 			page 62


 793      451E129D 
 793      75C766E3 
 793      A7628E6F 
 793      7F88
 794 0b74 567C4F1E 		.ascii	"V|O\036\010\334!xlL\232\037\014\330\236\003m\217\204"
 794      08DC2178 
 794      6C4C9A1F 
 794      0CD89E03 
 794      6D8F84
 795 0b87 AF0F5299 		.ascii	"\257\017R\231\264\266\251\354\020w\353eW`\360\024\236"
 795      B4B6A9EC 
 795      1077EB65 
 795      5760F014 
 795      9E
 796 0b98 7F5F69E1 		.ascii	"\177_i\341\206r\266\377\320\361\213\342\022\234\242"
 796      8672B6FF 
 796      D0F18BE2 
 796      129CA2
 797 0ba7 132C4968 		.ascii	"\023,Ih\305v\206k@c\217l\352d\263\215\273X\276lc8\007"
 797      C576866B 
 797      40638F6C 
 797      EA64B38D 
 797      BB58BE6C 
 798 0bbe E8616EE4 		.ascii	"\350an\344\367\035_\310\014Psb\324\316\037\240\253\234"
 798      F71D5FC8 
 798      0C507362 
 798      D4CE1FA0 
 798      AB9C
 799 0bd0 C43A8634 		.ascii	"\304:\20641r\223\2424;\2714\273O8&o'=r\354\032\022G"
 799      317293A2 
 799      343BB934 
 799      BB4F3826 
 799      6F273D72 
 800 0be8 3729CAF1 		.ascii	"7)\312\361/\\\216\035\03788\236\365\310\261{H\034\335"
 800      2F5C8E1D 
 800      1F38389E 
 800      F5C8B17B 
 800      481CDD
 801 0bfb A428C70F 		.ascii	"\244(\307\017\271\034\277\356\341O&\362\315\367?\342"
 801      B91CBFEE 
 801      E14F26F2 
 801      CDF73FE2 
 802 0c0b CDF7D904 		.ascii	"\315\367\331\004\345i\301\243\245\376\255\2730A\235"
 802      E569C1A3 
 802      A5FEADBB 
 802      30419D
 803 0c1a C2047565 		.ascii	"\302\004ue\320h\035\302\202\2070h@\316\031\3562 \273"
 803      D0681DC2 
 803      82873068 
 803      40CE19EE 
 803      3220BB
 804 0c2d 8F8BCFE1 		.ascii	"\217\213\317\341\200d\015\237\315ox\352\257~\342/\223"
 804      80640D9F 
 804      CD6F78EA 
 804      AF7EE22F 
 804      93
 805 0c3e F5328477 		.ascii	"\3652\204w\027#\255\334\374\345&E\3258\303\365\327\362"
ARM GAS  /tmp/cc7QYcgA.s 			page 63


 805      1723ADDC 
 805      FCE52645 
 805      D538C3F5 
 805      D7F2
 806 0c50 8FF7E76E 		.ascii	"\217\367\347nL\246'$a%W\307\301\263\322\263\376\264"
 806      4CA62724 
 806      612557C7 
 806      C1B3D2B3 
 806      FEB4
 807 0c62 93C5CF0B 		.ascii	"\223\305\317\013\210\345\323\316M\212j\367\005W\273"
 807      88E5D3CE 
 807      4D8A6AF7 
 807      0557BB
 808 0c71 AD9F0CD6 		.ascii	"\255\237\014\326\356\015\217\332\365\015M;w\261|\332"
 808      EE0D8FDA 
 808      F50D4D3B 
 808      77B17CDA 
 809 0c81 B94951ED 		.ascii	"\271IQ\355\276\346L\344j\263_\367\034\014\375I\177\227"
 809      BEE64CE4 
 809      6AB35FF7 
 809      1C0CFD49 
 809      7F97
 810 0c93 FB0F0932 		.ascii	"\373\017\0112\275t\033o\227y\0178\2168\337\355\260\222"
 810      BD741B6F 
 810      97790F38 
 810      8E38DFED 
 810      B092
 811 0ca5 C5E40A8F 		.ascii	"\305\344\012\217\211\321R\377\364\217\364F\356ce\236"
 811      89D152FF 
 811      F48FF446 
 811      EE63659E 
 812 0cb5 B9C855CA 		.ascii	"\271\310U\312c\240kxLr\351\367\032\267\337M'\236\326"
 812      63A06B78 
 812      4C72E9F7 
 812      1AB7DF4D 
 812      279ED6
 813 0cc8 45BF0F2F 		.ascii	"E\277\017/\327\235\352\277&\016Z^\370\310\205\206\036"
 813      D79DEABF 
 813      260E5A5E 
 813      F8C88586 
 813      1E
 814 0cd9 E4D1683E 		.ascii	"\344\321h>\341\252>yi\345F\244&\310!\222;\240\341\342"
 814      E1AA3E79 
 814      69E546A4 
 814      26C82192 
 814      3BA0E1E2 
 815 0ced 20F6950B 		.ascii	" \366\225\013\261yvb\377 4\022b\375\313\226\212@L\327"
 815      B1797662 
 815      FF203412 
 815      62FDCB96 
 815      8A404CD7 
 816 0d01 AFC39C8B 		.ascii	"\257\303\234\213\367\205v\300\342t\217\300$\322/\033"
 816      F78576C0 
 816      E2748FC0 
 816      24D22F1B 
 817 0d11 C539F816 		.ascii	"\3059\370\026jA\220\274\203\231{\003\367\205\250;\220"
 817      6A4190BC 
ARM GAS  /tmp/cc7QYcgA.s 			page 64


 817      83997B03 
 817      F785A83B 
 817      90
 818 0d22 24D4A2C8 		.ascii	"$\324\242\310S\301A\357\242\367\314\243/\270\3105\201"
 818      53C141EF 
 818      A2F7CCA3 
 818      2FB8C835 
 818      81
 819 0d33 A30AFDD1 		.ascii	"\243\012\375\321\027\\\253\216\271\276\313\315\346^"
 819      175CAB8E 
 819      B9BECBCD 
 819      E65E
 820 0d41 1DFD1DC3 		.ascii	"\035\375\035\303\375D\347G\224\373B\344^_\230\273\035"
 820      FD44E747 
 820      94FB42E4 
 820      5E5F98BB 
 820      1D
 821 0d52 48125E41 		.ascii	"H\022^A\221E\203\271w\314\245\334\027y\342\376~\273"
 821      914583B9 
 821      77CCA5DC 
 821      1779E2FE 
 821      7EBB
 822 0d64 C9DD7A3D 		.ascii	"\311\335z=\2679\207K;\366\371z\256\303\374\240\316|"
 822      B739874B 
 822      3BF6F97A 
 822      AEC3FCA0 
 822      CE7C
 823 0d76 D7B3DD09 		.ascii	"\327\263\335\011\346\353m\202nt\231`Y\374S\314n\337"
 823      E6EB6D82 
 823      6E749960 
 823      59FC53CC 
 823      6EDF
 824 0d88 60E53666 		.ascii	"`\3456f'\353\354\377l9\340\005/\317\007o\347\332\231"
 824      27EBECFF 
 824      6C39E005 
 824      2FCF076F 
 824      E7DA99
 825 0d9b 0FDEDA7D 		.ascii	"\017\336\332}\203\331\311]b\301Nx\001\343}\026\306\373"
 825      83D9C95D 
 825      62C14E78 
 825      01E37D16 
 825      C6FB
 826 0dad B141228B 		.ascii	"\261A\"\213\213\203d\011\177I\220\274[X\212\333\345"
 826      8B836409 
 826      7F4990BC 
 826      5B588ADB 
 826      E5
 827 0dbe B8ADC7ED 		.ascii	"\270\255\307\355J\334\256\016\332\336\215\237\312\215"
 827      4ADCAE0E 
 827      DADE8D9F 
 827      CA8D
 828 0dcc 126E2816 		.ascii	"\022n(\026\012\011\335\330\354><xoVah\367\316\026\347"
 828      0A09DDD8 
 828      EC3E3C78 
 828      6F566168 
 828      F7CE16E7 
 829 0de0 610CBF80 		.ascii	"a\014\277\200\303\343\363\302\303\303\371\356Z/#\"M"
ARM GAS  /tmp/cc7QYcgA.s 			page 65


 829      C3E3F3C2 
 829      C3C3F9EE 
 829      5A2F2322 
 829      4D
 830 0df1 838647CF 		.ascii	"\203\206G\317ws\350\360h\3620<j\214+\317\016\375\357"
 830      7773E8F0 
 830      68F2303C 
 830      6A8C2BCF 
 830      0EFDEF
 831 0e04 6D30CE7B 		.ascii	"m0\316{\254\2176\326\242\"\313\312\012\347(\307\177"
 831      AC8F36D6 
 831      A222CBCA 
 831      0AE728C7 
 831      7F
 832 0e15 DC5E4191 		.ascii	"\334^A\221u\203\025\371\302Rd\235'E\336~\326\212\376"
 832      758315F9 
 832      C252649D 
 832      2745DE7E 
 832      D68AFE
 833 0e28 35411263 		.ascii	"5A\022c[r\270yb\314\325\2515\306V\363\217\000&\230\341"
 833      5B72B879 
 833      62CCD5A9 
 833      35C656F3 
 833      8F002698 
 834 0e3d 1BCC1EFD 		.ascii	"\033\314\036\375\333\017[\237O\230\023\314\375^\360"
 834      DB0F5B9F 
 834      4F9813CC 
 834      FD5EF0
 835 0e4c F2BC85DC 		.ascii	"\362\274\205\334q\330\371\371\250\367\033\357\026\347"
 835      71D8F9F9 
 835      A8F71BEF 
 835      16E7
 836 0e5a FD6E8263 		.ascii	"\375n\202c\332\221wv\337=\233\376I\254\031\015s\324"
 836      DA917776 
 836      DF3D9BFE 
 836      49AC190D 
 836      73D4
 837 0e6c E170C743 		.ascii	"\341p\307C>\351\313\215\307\266`\251\213S\007]\203\214"
 837      3EE9CB8D 
 837      C7B660A9 
 837      8B53075D 
 837      838C
 838 0e7e E1DB6036 		.ascii	"\341\333`6\007@8]x\321z\343\211\257\325?\366\002\350"
 838      0740385D 
 838      78D17AE3 
 838      89AFD53F 
 838      F602E8
 839 0e91 FD85E73A 		.ascii	"\375\205\347:&\005\275\216)\350\015L5\033q\273\011\267"
 839      2605BD8E 
 839      29E80D4C 
 839      351B71BB 
 839      09B7
 840 0ea3 6FE17607 		.ascii	"o\341v\007\233|\334lC\242.\207\275!(\321\241>\264H\276"
 840      9B7CDC6C 
 840      43A22E87 
 840      BD2128D1 
 840      A13EB448 
ARM GAS  /tmp/cc7QYcgA.s 			page 66


 841 0eb8 3610C9B2 		.ascii	"6\020\311\262\370\246o0\233!\215E\355l$\313\342f/xy"
 841      F8A66F30 
 841      9B218D45 
 841      ED6C24CB 
 841      E2662F78 
 842 0ecd 2299FE0F 		.ascii	"\"\231\376\017\302\034\026\237\345\222\232O/\363\235"
 842      C21C169F 
 842      E5929A4F 
 842      2FF39D
 843 0edc D2C438E5 		.ascii	"\322\3048\345\025t\312\253\350\002\003\267\357\340\366"
 843      1574CAAB 
 843      E80203B7 
 843      EFE0F6
 844 0eeb 5DFBBDE0 		.ascii	"]\373\275\340b\231\343^`\317\273\274[\023k\037\335\330"
 844      6299E35E 
 844      60CFBBBC 
 844      5B136B1F 
 844      DDD8
 845 0efd 760CF4F1 		.ascii	"v\014\364\361\376\275\341\231\334\367\206\230?\257\361"
 845      FEBDE199 
 845      DCF78698 
 845      3FAFF1
 846 0f0c F367BEEF 		.ascii	"\363g\276\357\015\3778\002\2777\034<O\352\265\346I\255"
 846      0DFF3802 
 846      BF371C3C 
 846      4FEAB5E6 
 846      49AD
 847 0f1e 85F3E7DC 		.ascii	"\205\363\347\3349\306\346\305/\017\334\010\346\344F"
 847      39C6E6C5 
 847      2F0FDC08 
 847      E6E446
 848 0f2d 70539E15 		.ascii	"pS\236\025\003\333\247\336+r<|F)\337w\255\214\357\332"
 848      03DBA7DE 
 848      2B723C7C 
 848      4629DF77 
 848      AD8CEFDA 
 849 0f41 D07707ED 		.ascii	"\320w\007\355\236j\032\341\360\024\257?\327?-\351\306"
 849      9E6A1AE1 
 849      F014AF3F 
 849      D73F2DE9 
 849      C6
 850 0f52 F1636620 		.ascii	"\361cf {\365\325\233W\373\356\303\205\215\243\350\251"
 850      7BF5D59B 
 850      57FBEEC3 
 850      858DA3E8 
 850      A9
 851 0f63 EE113E3D 		.ascii	"\356\021>=\205kb\016/\031\347\225r\363l\341\373\333"
 851      856B620E 
 851      2F19E795 
 851      72F36CE1 
 851      FBDB
 852 0f75 D55EFC2C 		.ascii	"\325^\374,\314\373J\314\236O\350R\361\361 \031[_8\010"
 852      CCFB4ACC 
 852      9E4FE852 
 852      F1F12019 
 852      5B5F3808 
 853 0f89 0FF1D393 		.ascii	"\017\361\323\223\213\010\323\361}\271\271\203qs'\272"
ARM GAS  /tmp/cc7QYcgA.s 			page 67


 853      8B08D3F1 
 853      7DB9B983 
 853      717327BA 
 854 0f99 F998DDCD 		.ascii	"\371\230\335\315\327\274\270"
 854      D7BCB8
 855 0fa0 99F7A121 		.ascii	"\231\367\241!\277\277\247\230\376\236\306\376\236\301"
 855      BFBFA798 
 855      FE9EC6FE 
 855      9EC1
 856 0fae 34D088DB 		.ascii	"4\320\210\333=\270=bg\320\2373\034\367)\013\327\350"
 856      3DB83D62 
 856      67D09F33 
 856      1CF7290B 
 856      D7E8
 857 0fc0 061EFB6E 		.ascii	"\006\036\373n\024j1\016&./3\377+A\205FZ2\022\225\371"
 857      146A310E 
 857      262E2F33 
 857      FF2B4185 
 857      465A3212 
 858 0fd6 307823D6 		.ascii	"0x#\326lk\377\330\302-zz\202\003\377\307\030^2P\021"
 858      6C6BFFD8 
 858      C22D7A7A 
 858      8203FFC7 
 858      185E3250 
 859 0feb ED5D973B 		.ascii	"\355]\227;z\036o\265\013S\234\223\276{\316\272\364\034"
 859      7A1E6FB5 
 859      0B539C93 
 859      BE7BCEBA 
 859      F41C
 860 0ffd A23D3B   		.ascii	"\242=;"
 861 1000 EEFA0B5C 		.ascii	"\356\372\013\\\274\205\253\214\003w6\207\324\345</\004"
 861      BC85AB8C 
 861      03773687 
 861      D4E53C2F 
 861      04
 862 1011 3E76956A 		.ascii	">v\225j\314#\365\211\253\324\325<R\247\\\245\326\346"
 862      CC23F589 
 862      ABD4D53C 
 862      52A75CA5 
 862      D6E6
 863 1023 91EA7595 		.ascii	"\221\352u\225\272\236G\352\264\253TM\236\231\323\231"
 863      BA9E47EA 
 863      B4AB544D 
 863      9E99D399 
 864 1033 01296152 		.ascii	"\001)aREe\252J\251\210\246b\263*b\312\364\212he|J<\225"
 864      4565AA4A 
 864      A988A662 
 864      B32A62CA 
 864      F48A6865 
 865 104b A9D0D4EA 		.ascii	"\251\320\324\352\344\357*\240\242j\025\351\224\252e"
 865      E4EF2AA0 
 865      A26A15E9 
 865      94AA65
 866 105a 2A1E7CEC 		.ascii	"*\036|\354\321\207\036\235\011-\253\322\361\204\242"
 866      D1871E9D 
 866      092DABD2 
 866      F184A2
ARM GAS  /tmp/cc7QYcgA.s 			page 68


 867 1069 662A1E7E 		.ascii	"f*\036~\350!h\256\315J+\231\237V\012EU\231i\021-\364"
 867      E82168AE 
 867      CD4A2B99 
 867      9F560A45 
 867      55996911 
 868 107f F0BF3D5E 		.ascii	"\360\277=^\376\220\360\223\212\352\214Z!\253Uw'SI\345"
 868      FE90F093 
 868      8AEA8C5A 
 868      21AB5577 
 868      275349E5 
 869 1093 6E459E12 		.ascii	"nE\236\022\257\210'\243\211\352\230R\221\321b\361\244"
 869      AF8827A3 
 869      89EA9852 
 869      91D162F1 
 869      A4
 870 10a4 061261D8 		.ascii	"\006\022a\330\215\033\033\321\356\311\323\270J\006B"
 870      8D1B1BD1 
 870      EEC9D3B8 
 870      4A0642
 871 10b3 49A52212 		.ascii	"I\245\"\022S\246\312\325\011-buW\022\211P\361b-\243"
 871      53A6CAD5 
 871      092D6275 
 871      57128950 
 871      F1622DA3 
 872 10c7 C99A12D1 		.ascii	"\311\232\022\321\302\325pf|D\203K\2646\326\203r\031"
 872      C2D57066 
 872      7C44834B 
 872      B436D683 
 872      7219
 873 10d9 350AE795 		.ascii	"5\012\347\225\351JR\313\3744*\334\353A\304\"\227\023"
 873      E94A52CB 
 873      FC342ADC 
 873      EB41C422 
 873      9713
 874 10eb AB14CAB0 		.ascii	"\253\024\312\260\026\311\244\252\325(P\031\316\036\216"
 874      16C9A4AA 
 874      D5285019 
 874      CE1E8E
 875 10fa 340F12F1 		.ascii	"4\017\022\361\214\246$\0255\242\225\331O\204\225D$\251"
 875      8CA62415 
 875      35A295D9 
 875      4F849544 
 875      24A9
 876 110c CCD4C6FB 		.ascii	"\314\324\306\373\352:3+c\331\242X\253T\0259\006\232"
 876      EA3A332B 
 876      63D9A258 
 876      AB541539 
 876      069A
 877 111e 472B2366 		.ascii	"G+#f\375\036\177X\321\312\030\340\204\322\310\003vi"
 877      FD1E7F58 
 877      D1CA18E0 
 877      84D2C803 
 877      7669
 878 1130 55991ED6 		.ascii	"U\231\036\326\322j<\005\366\255\246\206\036f\332\225"
 878      D26A3C05 
 878      F6ADA686 
 878      1E66DA95 
ARM GAS  /tmp/cc7QYcgA.s 			page 69


 879 1140 54B1493C 		.ascii	"T\261I<\025\216\246\222\032H\334\357;\210*\243)U\201"
 879      158EA692 
 879      1A48DCEF 
 879      3B882AA3 
 879      295581
 880 1153 2E4BC969 		.ascii	".K\311i\342\311\2506\363\237\207\206\022\231~_\0251"
 880      E2C9A836 
 880      F39F8786 
 880      12997E5F 
 880      1531
 881 1165 82AA4C83 		.ascii	"\202\252L\203\030\212h\201\314\230{\241\334\007e<\224"
 881      188A6881 
 881      CC987BA1 
 881      DC07653C 
 881      94
 882 1176 FB0399B1 		.ascii	"\373\003\231\261\243\241\214\2012\026\3128(\367@\371"
 882      A3A18C81 
 882      3216CA38 
 882      28F740F9 
 883 1186 19146837 		.ascii	"\031\024h7\026\332\215\205vc\241\3358h7n\214\244\336"
 883      16DA8D85 
 883      7663A1DD 
 883      3868376E 
 883      8CA4DE
 884 1199 23A93F93 		.ascii	"#\251?\223\324{%\365>I\035/\251\367\007\3241\243\241"
 884      D47B25F5 
 884      3E491D2F 
 884      A9F707D4 
 884      31A3A1
 885 11ac 8C91122A 		.ascii	"\214\221\022*\354\306\025\245#\3006L\2145\003\274\227"
 885      ECC615A5 
 885      23C0364C 
 885      8C3503BC 
 885      97
 886 11bd 8EA41231 		.ascii	"\216\244\0221E\015F+e\225XP\256R\340\034\306dX\253J"
 886      450D462B 
 886      65955850 
 886      AE52E01C 
 886      C66458AB 
 887 11d2 C54864A6 		.ascii	"\305Hd\246#S\023\362\264LXS\225\251\0314\037\251\204"
 887      235313F2 
 887      B44C5853 
 887      95A91934 
 887      1FA984
 888 11e5 D4D82C18 		.ascii	"\324\330,\0305\305\312\314\270\006Z+\241\031Zj\312\177"
 888      35C5CACC 
 888      B8065A2B 
 888      A1195A6A 
 888      CA7F
 889 11f7 A74B313C 		.ascii	"\247K1<\252\344\314\357\240\2452\203T\002\351Hu\231"
 889      AAE4CCEF 
 889      A0A53283 
 889      5402E948 
 889      7599
 890 1209 E9D90CC6 		.ascii	"\351\331\014\306MD\033\221\363\265y\246$\035\231!\307"
 890      4D441B91 
 890      F3B579A6 
ARM GAS  /tmp/cc7QYcgA.s 			page 70


 890      241D9921 
 890      C7
 891 121a B57872DA 		.ascii	"\265xr\332\010\353\364\357\253\225j\350}$\323\022O\015"
 891      08EBF4EF 
 891      AB956AE8 
 891      7D24D312 
 891      4F0D
 892 122c 4B47A05B 		.ascii	"KG\240[\254\026a\025N(i%\011\343rZQU5xt\234\257\360"
 892      AC166115 
 892      4E286925 
 892      09E3725A 
 892      51553578 
 893 1244 A9D26692 		.ascii	"\251\322f\222\341\\e\242\303>5\203\2045\"\201\012U\030"
 893      E15C65A2 
 893      C33E3583 
 893      84352281 
 893      0A5518
 894 1257 55C00FDA 		.ascii	"U\300\017\332\021\246\303\210\366r\002\003\010N\246"
 894      11A6C388 
 894      F6720203 
 894      084EA6
 895 1266 53A94429 		.ascii	"S\251D)\014\001k8\224@\335\034W\346(B\313A\030\302i"
 895      0C016B38 
 895      9440DD1C 
 895      57E62842 
 895      CB4118C2 
 896 127b AC92EB33 		.ascii	"\254\222\3533Ls*\031\204\376\333h\345/\246k\217)\323"
 896      4C732A19 
 896      84FEDB68 
 896      E52FA66B 
 896      8F29D3
 897 128e 0882FA28 		.ascii	"\010\202\372(\330\353\327q\255\362\227\244I@\311\244"
 897      D8EBD771 
 897      ADF297A4 
 897      4940C9A4 
 898 129e 034A221D 		.ascii	"\003J\"\0352\021C\246\340\010\024x<\251R\221[\361\370"
 898      321143A6 
 898      E0081478 
 898      3CA95291 
 898      5BF1F8
 899 12b1 61457B30 		.ascii	"aE{0\031{(\241\310\352/\260u\031\236~0\0263\017oq\266"
 899      197B28A1 
 899      C8EA2FB0 
 899      75199E7E 
 899      3016330F 
 900 12c8 C21E86E3 		.ascii	"\302\036\206\343\331\311\361iI9\361\210\244\245o\306"
 900      D9C9F169 
 900      4939F188 
 900      A4A56FC6 
 901 12d8 E37F5153 		.ascii	"\343\177QSr,*g4l\363H\021v[\3124\035\305i6\210\206)"
 901      722C2A67 
 901      346CF348 
 901      11765BCA 
 901      341DC569 
 902 12f0 5C82DCE3 		.ascii	"\\\202\334\3430\276!2*\345d,A\222\310\015\330\370\347"
 902      30BE2132 
 902      2AE5642C 
ARM GAS  /tmp/cc7QYcgA.s 			page 71


 902      4192C80D 
 902      D8F8E7
 903 1303 F14C5AD6 		.ascii	"\361LZ\326\242\225\305\364<\245\363k\210\204\177O*\003"
 903      A295C5F4 
 903      3CA5F36B 
 903      88847F4F 
 903      2A03
 904 1315 070F2667 		.ascii	"\007\017&g1\007\211D\011I\037\361*\210\216Q\254\300"
 904      31078944 
 904      09491FF1 
 904      2A888E51 
 904      ACC0
 905 1327 7FC0A954 		.ascii	"\177\300\251T\265\026$\227F\261\302\364\302(\026\203"
 905      B5162497 
 905      46B1C2F4 
 905      C2281683 
 906 1337 9E03AD26 		.ascii	"\236\003\255&G+\037\203\360\232\365\310HZ\207\204\242"
 906      472B1F83 
 906      F09AF5C8 
 906      485A8784 
 906      A2
 907 1348 C4AA13CA 		.ascii	"\304\252\023\312\344\033\360\304\303\251\311\011EIO"
 907      E41BF0C4 
 907      C3A9C909 
 907      45494F
 908 1357 BE993DA2 		.ascii	"\276\231=\242\342\223A>B\330(Uf\0023\353\303I\274\316"
 908      E293413E 
 908      42D82855 
 908      660233EB 
 908      C349BCCE 
 909 136b A2B10E28 		.ascii	"\242\261\016(\221\201\343\260j\006ZH\305$T\244\342p"
 909      9181E3B0 
 909      6A065A48 
 909      C52454A4 
 909      E270
 910 137d 54E97054 		.ascii	"T\351pT\315\341X\002g\253U\025\014W\244\022\241[\246"
 910      CDE15802 
 910      67AB5515 
 910      0C57A412 
 910      A15BA6
 911 1390 C755AD5A 		.ascii	"\307U\255ZND\210j\2525\210\300\342\021\316\205\021\266"
 911      4E44886A 
 911      AA3588C0 
 911      E211CE85 
 911      11B6
 912 13a2 73E608B2 		.ascii	"s\346\010\262\235\012O\3270\362\310\236\344\312b\330"
 912      9D0A4FD7 
 912      30F2C89E 
 912      E4CA62D8 
 913 13b2 C7948426 		.ascii	"\307\224\204&Ceju2\032\301+\244\026\"-d\265\024v\011"
 913      43656A75 
 913      321AC12B 
 913      A416222D 
 913      64B51476 
 914 13c7 F0339186 		.ascii	"\3603\221\206S\244\2232\252tL\231R=\315\034\317\354"
 914      53A49332 
 914      AA744C99 
ARM GAS  /tmp/cc7QYcgA.s 			page 72


 914      523DCD1C 
 914      CFEC
 915 13d9 9992B49C 		.ascii	"\231\222\264\234\214G\311\350\014\304\246L\363r'\033"
 915      8C47C9E8 
 915      0CC4A64C 
 915      F372271B 
 916 13e9 18901A49 		.ascii	"\030\220\032I\210#\265\252HTN\304\247\250\262\026O%"
 916      8823B5AA 
 916      48544EC4 
 916      A7A8B216 
 916      4F25
 917 13fb 8192AA45 		.ascii	"\201\222\252E\341\266\243\205RS\247f\024M\322\252\244"
 917      E1B6A385 
 917      5253A766 
 917      144DD2AA 
 917      A4
 918 140c 68E5FF01 		.ascii	"h\345\377\001\357\273v\010"
 918      EFBB7608 
 919              		.text
 920              		.section	.gnu.lto_.symtab.1b400facf6d6fc32,"",%progbits
 921 0000 63684576 		.ascii	"chEvtRegisterMaskWithFlags\000\000\000\000\000\000\000"
 921      74526567 
 921      69737465 
 921      724D6173 
 921      6B576974 
 922 0021 00000000 		.ascii	"\000\000\000\000\000\264\000\000\000chEvtUnregister"
 922      00B40000 
 922      00636845 
 922      7674556E 
 922      72656769 
 923 0039 00000000 		.ascii	"\000\000\000\000\000\000\000\000\000\000\000\000\210"
 923      00000000 
 923      00000000 
 923      88
 924 0046 01000063 		.ascii	"\001\000\000chEvtGetAndClearEvents\000\000\000\000\000"
 924      68457674 
 924      47657441 
 924      6E64436C 
 924      65617245 
 925 0064 00000000 		.ascii	"\000\000\000\000\000\000\000\220\001\000\000chEvtAd"
 925      00000090 
 925      01000063 
 925      68457674 
 925      4164
 926 0076 64457665 		.ascii	"dEvents\000\000\000\000\000\000\000\000\000\000\000"
 926      6E747300 
 926      00000000 
 926      00000000 
 926      0000
 927 0088 00960100 		.ascii	"\000\226\001\000\000chEvtGetAndClearFlags\000\000\000"
 927      00636845 
 927      76744765 
 927      74416E64 
 927      436C6561 
 928 00a5 00000000 		.ascii	"\000\000\000\000\000\000\000\000\000\232\001\000\000"
 928      00000000 
 928      009A0100 
ARM GAS  /tmp/cc7QYcgA.s 			page 73


 928      00
 929 00b2 63684576 		.ascii	"chEvtSignalI\000\000\000\000\000\000\000\000\000\000"
 929      74536967 
 929      6E616C49 
 929      00000000 
 929      00000000 
 930 00c8 0000A001 		.ascii	"\000\000\240\001\000\000chEvtBroadcastFlagsI\000\000"
 930      00006368 
 930      45767442 
 930      726F6164 
 930      63617374 
 931 00e4 00000000 		.ascii	"\000\000\000\000\000\000\000\000\000\000\251\001\000"
 931      00000000 
 931      0000A901 
 931      00
 932 00f1 00636845 		.ascii	"\000chEvtSignal\000\000\000\000\000\000\000\000\000"
 932      76745369 
 932      676E616C 
 932      00000000 
 932      00000000 
 933 0106 000000B2 		.ascii	"\000\000\000\262\001\000\000chEvtBroadcastFlags\000"
 933      01000063 
 933      68457674 
 933      42726F61 
 933      64636173 
 934 0121 00000000 		.ascii	"\000\000\000\000\000\000\000\000\000\000\000\267\001"
 934      00000000 
 934      000000B7 
 934      01
 935 012e 00006368 		.ascii	"\000\000chEvtGetAndClearFlagsI\000\000\000\000\000\000"
 935      45767447 
 935      6574416E 
 935      64436C65 
 935      6172466C 
 936 014c 00000000 		.ascii	"\000\000\000\000\000\000\274\001\000\000chEvtDispat"
 936      0000BC01 
 936      00006368 
 936      45767444 
 936      69737061 
 937 0161 63680000 		.ascii	"ch\000\000\000\000\000\000\000\000\000\000\000\000\300"
 937      00000000 
 937      00000000 
 937      0000C0
 938 0170 01000063 		.ascii	"\001\000\000chEvtWaitOne\000\000\000\000\000\000\000"
 938      68457674 
 938      57616974 
 938      4F6E6500 
 938      00000000 
 939 0186 00000000 		.ascii	"\000\000\000\000\000\324\001\000\000chEvtWaitAny\000"
 939      00D40100 
 939      00636845 
 939      76745761 
 939      6974416E 
 940 019c 00000000 		.ascii	"\000\000\000\000\000\000\000\000\000\000\000\330\001"
 940      00000000 
 940      000000D8 
 940      01
ARM GAS  /tmp/cc7QYcgA.s 			page 74


 941 01a9 00006368 		.ascii	"\000\000chEvtWaitAll\000\000\000\000\000\000\000\000"
 941      45767457 
 941      61697441 
 941      6C6C0000 
 941      00000000 
 942 01bf 00000000 		.ascii	"\000\000\000\000\334\001\000\000chEvtWaitOneTimeout"
 942      DC010000 
 942      63684576 
 942      74576169 
 942      744F6E65 
 943 01da 00000000 		.ascii	"\000\000\000\000\000\000\000\000\000\000\000\000\340"
 943      00000000 
 943      00000000 
 943      E0
 944 01e7 01000063 		.ascii	"\001\000\000chEvtWaitAnyTimeout\000\000\000\000\000"
 944      68457674 
 944      57616974 
 944      416E7954 
 944      696D656F 
 945 0202 00000000 		.ascii	"\000\000\000\000\000\000\000\354\001\000\000chEvtWa"
 945      000000EC 
 945      01000063 
 945      68457674 
 945      5761
 946 0214 6974416C 		.ascii	"itAllTimeout\000\000\000\000\000\000\000\000\000\000"
 946      6C54696D 
 946      656F7574 
 946      00000000 
 946      00000000 
 947 022a 0000F101 		.ascii	"\000\000\361\001\000\000ch\000\000\002\000\000\000\000"
 947      00006368 
 947      00000200 
 947      000000
 948 0239 00000000 		.ascii	"\000\000\000\000\000\006\002\000\000chSchReadyI\000"
 948      00060200 
 948      00636853 
 948      63685265 
 948      61647949 
 949 024e 00020000 		.ascii	"\000\002\000\000\000\000\000\000\000\000\000\366\001"
 949      00000000 
 949      000000F6 
 949      01
 950 025b 00006368 		.ascii	"\000\000chSchRescheduleS\000\000\002\000\000\000\000"
 950      53636852 
 950      65736368 
 950      6564756C 
 950      65530000 
 951 0274 00000000 		.ascii	"\000\000\000\000\000\372\001\000\000chSchGoSleepS\000"
 951      00FA0100 
 951      00636853 
 951      6368476F 
 951      536C6565 
 952 028b 00020000 		.ascii	"\000\002\000\000\000\000\000\000\000\000\000\375\001"
 952      00000000 
 952      000000FD 
 952      01
 953 0298 00006368 		.ascii	"\000\000chSchGoSleepTimeoutS\000\000\002\000\000\000"
ARM GAS  /tmp/cc7QYcgA.s 			page 75


 953      53636847 
 953      6F536C65 
 953      65705469 
 953      6D656F75 
 954 02b4 00000000 		.ascii	"\000\000\000\000\000\000\001\002\000\000"
 954      00000102 
 954      0000
 955              		.text
 956              		.section	.gnu.lto_.opts,"",%progbits
 957 0000 272D6D63 		.ascii	"'-mcpu=cortex-m4' '-mfloat-abi=hard' '-mfpu=fpv4-sp"
 957      70753D63 
 957      6F727465 
 957      782D6D34 
 957      2720272D 
 958 0033 2D643136 		.ascii	"-d16' '-mno-thumb-interwork' '-mthumb' '-O2' '-fomi"
 958      2720272D 
 958      6D6E6F2D 
 958      7468756D 
 958      622D696E 
 959 0066 742D6672 		.ascii	"t-frame-pointer' '-falign-functions=16' '-ffunction"
 959      616D652D 
 959      706F696E 
 959      74657227 
 959      20272D66 
 960 0099 2D736563 		.ascii	"-sections' '-fdata-sections' '-fno-common' '-flto' "
 960      74696F6E 
 960      73272027 
 960      2D666461 
 960      74612D73 
 961 00cc 272D6673 		.ascii	"'-fsingle-precision-constant'\000"
 961      696E676C 
 961      652D7072 
 961      65636973 
 961      696F6E2D 
 962              		.text
 963              		.section	.text.chEvtRegisterMaskWithFlags,"ax",%progbits
 964              		.align	2
 965              		.p2align 4,,15
 966              		.global	chEvtRegisterMaskWithFlags
 967              		.thumb
 968              		.thumb_func
 969              		.type	chEvtRegisterMaskWithFlags, %function
 970              	chEvtRegisterMaskWithFlags:
 971              		@ args = 0, pretend = 0, frame = 0
 972              		@ frame_needed = 0, uses_anonymous_args = 0
 973              		@ link register save eliminated.
 974 0000 30B4     		push	{r4, r5}
 975 0002 2024     		movs	r4, #32
 976              	@ 546 "/home/cody/dev/chibios/trunk/os/ext/CMSIS/include/core_cmFunc.h" 1
 977 0004 84F31188 		MSR basepri, r4
 978              	@ 0 "" 2
 979              		.thumb
 980 0008 064D     		ldr	r5, .L2
 981 000a 0468     		ldr	r4, [r0]
 982 000c AD69     		ldr	r5, [r5, #24]
 983 000e 0C60     		str	r4, [r1]
 984 0010 0024     		movs	r4, #0
ARM GAS  /tmp/cc7QYcgA.s 			page 76


 985 0012 0160     		str	r1, [r0]
 986 0014 4D60     		str	r5, [r1, #4]
 987 0016 8A60     		str	r2, [r1, #8]
 988 0018 0B61     		str	r3, [r1, #16]
 989 001a CC60     		str	r4, [r1, #12]
 990              	@ 546 "/home/cody/dev/chibios/trunk/os/ext/CMSIS/include/core_cmFunc.h" 1
 991 001c 84F31188 		MSR basepri, r4
 992              	@ 0 "" 2
 993              		.thumb
 994 0020 30BC     		pop	{r4, r5}
 995 0022 7047     		bx	lr
 996              	.L3:
 997              		.align	2
 998              	.L2:
 999 0024 00000000 		.word	ch
 1000              		.size	chEvtRegisterMaskWithFlags, .-chEvtRegisterMaskWithFlags
 1001 0028 AFF30080 		.section	.text.chEvtUnregister,"ax",%progbits
 1001      AFF30080 
 1002              		.align	2
 1003              		.p2align 4,,15
 1004              		.global	chEvtUnregister
 1005              		.thumb
 1006              		.thumb_func
 1007              		.type	chEvtUnregister, %function
 1008              	chEvtUnregister:
 1009              		@ args = 0, pretend = 0, frame = 0
 1010              		@ frame_needed = 0, uses_anonymous_args = 0
 1011              		@ link register save eliminated.
 1012 0000 2023     		movs	r3, #32
 1013              	@ 546 "/home/cody/dev/chibios/trunk/os/ext/CMSIS/include/core_cmFunc.h" 1
 1014 0002 83F31188 		MSR basepri, r3
 1015              	@ 0 "" 2
 1016              		.thumb
 1017 0006 0246     		mov	r2, r0
 1018 0008 02E0     		b	.L5
 1019              	.L8:
 1020 000a 8B42     		cmp	r3, r1
 1021 000c 07D0     		beq	.L10
 1022 000e 1A46     		mov	r2, r3
 1023              	.L5:
 1024 0010 1368     		ldr	r3, [r2]
 1025 0012 8342     		cmp	r3, r0
 1026 0014 F9D1     		bne	.L8
 1027 0016 0023     		movs	r3, #0
 1028              	@ 546 "/home/cody/dev/chibios/trunk/os/ext/CMSIS/include/core_cmFunc.h" 1
 1029 0018 83F31188 		MSR basepri, r3
 1030              	@ 0 "" 2
 1031              		.thumb
 1032 001c 7047     		bx	lr
 1033              	.L10:
 1034 001e 0B68     		ldr	r3, [r1]
 1035 0020 1360     		str	r3, [r2]
 1036 0022 0023     		movs	r3, #0
 1037              	@ 546 "/home/cody/dev/chibios/trunk/os/ext/CMSIS/include/core_cmFunc.h" 1
 1038 0024 83F31188 		MSR basepri, r3
 1039              	@ 0 "" 2
 1040              		.thumb
ARM GAS  /tmp/cc7QYcgA.s 			page 77


 1041 0028 7047     		bx	lr
 1042              		.size	chEvtUnregister, .-chEvtUnregister
 1043 002a 00BFAFF3 		.section	.text.chEvtGetAndClearEvents,"ax",%progbits
 1043      0080
 1044              		.align	2
 1045              		.p2align 4,,15
 1046              		.global	chEvtGetAndClearEvents
 1047              		.thumb
 1048              		.thumb_func
 1049              		.type	chEvtGetAndClearEvents, %function
 1050              	chEvtGetAndClearEvents:
 1051              		@ args = 0, pretend = 0, frame = 0
 1052              		@ frame_needed = 0, uses_anonymous_args = 0
 1053              		@ link register save eliminated.
 1054 0000 2023     		movs	r3, #32
 1055              	@ 546 "/home/cody/dev/chibios/trunk/os/ext/CMSIS/include/core_cmFunc.h" 1
 1056 0002 83F31188 		MSR basepri, r3
 1057              	@ 0 "" 2
 1058              		.thumb
 1059 0006 054B     		ldr	r3, .L12
 1060 0008 9A69     		ldr	r2, [r3, #24]
 1061 000a 536B     		ldr	r3, [r2, #52]
 1062 000c 23EA0001 		bic	r1, r3, r0
 1063 0010 5163     		str	r1, [r2, #52]
 1064 0012 0022     		movs	r2, #0
 1065              	@ 546 "/home/cody/dev/chibios/trunk/os/ext/CMSIS/include/core_cmFunc.h" 1
 1066 0014 82F31188 		MSR basepri, r2
 1067              	@ 0 "" 2
 1068              		.thumb
 1069 0018 1840     		ands	r0, r0, r3
 1070 001a 7047     		bx	lr
 1071              	.L13:
 1072              		.align	2
 1073              	.L12:
 1074 001c 00000000 		.word	ch
 1075              		.size	chEvtGetAndClearEvents, .-chEvtGetAndClearEvents
 1076              		.section	.text.chEvtAddEvents,"ax",%progbits
 1077              		.align	2
 1078              		.p2align 4,,15
 1079              		.global	chEvtAddEvents
 1080              		.thumb
 1081              		.thumb_func
 1082              		.type	chEvtAddEvents, %function
 1083              	chEvtAddEvents:
 1084              		@ args = 0, pretend = 0, frame = 0
 1085              		@ frame_needed = 0, uses_anonymous_args = 0
 1086              		@ link register save eliminated.
 1087 0000 2023     		movs	r3, #32
 1088              	@ 546 "/home/cody/dev/chibios/trunk/os/ext/CMSIS/include/core_cmFunc.h" 1
 1089 0002 83F31188 		MSR basepri, r3
 1090              	@ 0 "" 2
 1091              		.thumb
 1092 0006 044B     		ldr	r3, .L15
 1093 0008 9B69     		ldr	r3, [r3, #24]
 1094 000a 5A6B     		ldr	r2, [r3, #52]
 1095 000c 1043     		orrs	r0, r0, r2
 1096 000e 5863     		str	r0, [r3, #52]
ARM GAS  /tmp/cc7QYcgA.s 			page 78


 1097 0010 0023     		movs	r3, #0
 1098              	@ 546 "/home/cody/dev/chibios/trunk/os/ext/CMSIS/include/core_cmFunc.h" 1
 1099 0012 83F31188 		MSR basepri, r3
 1100              	@ 0 "" 2
 1101              		.thumb
 1102 0016 7047     		bx	lr
 1103              	.L16:
 1104              		.align	2
 1105              	.L15:
 1106 0018 00000000 		.word	ch
 1107              		.size	chEvtAddEvents, .-chEvtAddEvents
 1108 001c AFF30080 		.section	.text.chEvtGetAndClearFlags,"ax",%progbits
 1109              		.align	2
 1110              		.p2align 4,,15
 1111              		.global	chEvtGetAndClearFlags
 1112              		.thumb
 1113              		.thumb_func
 1114              		.type	chEvtGetAndClearFlags, %function
 1115              	chEvtGetAndClearFlags:
 1116              		@ args = 0, pretend = 0, frame = 0
 1117              		@ frame_needed = 0, uses_anonymous_args = 0
 1118              		@ link register save eliminated.
 1119 0000 0246     		mov	r2, r0
 1120 0002 2023     		movs	r3, #32
 1121              	@ 546 "/home/cody/dev/chibios/trunk/os/ext/CMSIS/include/core_cmFunc.h" 1
 1122 0004 83F31188 		MSR basepri, r3
 1123              	@ 0 "" 2
 1124              		.thumb
 1125 0008 0023     		movs	r3, #0
 1126 000a C068     		ldr	r0, [r0, #12]
 1127 000c D360     		str	r3, [r2, #12]
 1128              	@ 546 "/home/cody/dev/chibios/trunk/os/ext/CMSIS/include/core_cmFunc.h" 1
 1129 000e 83F31188 		MSR basepri, r3
 1130              	@ 0 "" 2
 1131              		.thumb
 1132 0012 7047     		bx	lr
 1133              		.size	chEvtGetAndClearFlags, .-chEvtGetAndClearFlags
 1134 0014 AFF30080 		.section	.text.chEvtSignalI,"ax",%progbits
 1134      AFF30080 
 1134      AFF30080 
 1135              		.align	2
 1136              		.p2align 4,,15
 1137              		.global	chEvtSignalI
 1138              		.thumb
 1139              		.thumb_func
 1140              		.type	chEvtSignalI, %function
 1141              	chEvtSignalI:
 1142              		@ args = 0, pretend = 0, frame = 0
 1143              		@ frame_needed = 0, uses_anonymous_args = 0
 1144              		@ link register save eliminated.
 1145 0000 426B     		ldr	r2, [r0, #52]
 1146 0002 037F     		ldrb	r3, [r0, #28]	@ zero_extendqisi2
 1147 0004 1143     		orrs	r1, r1, r2
 1148 0006 0A2B     		cmp	r3, #10
 1149 0008 4163     		str	r1, [r0, #52]
 1150 000a 0AD0     		beq	.L22
 1151 000c 0B2B     		cmp	r3, #11
ARM GAS  /tmp/cc7QYcgA.s 			page 79


 1152 000e 00D0     		beq	.L23
 1153              	.L18:
 1154 0010 7047     		bx	lr
 1155              	.L23:
 1156 0012 036A     		ldr	r3, [r0, #32]
 1157 0014 1940     		ands	r1, r1, r3
 1158 0016 8B42     		cmp	r3, r1
 1159 0018 FAD1     		bne	.L18
 1160              	.L20:
 1161 001a 0023     		movs	r3, #0
 1162 001c 0362     		str	r3, [r0, #32]
 1163 001e FFF7FEBF 		b	chSchReadyI
 1164              	.L22:
 1165 0022 036A     		ldr	r3, [r0, #32]
 1166 0024 1942     		tst	r1, r3
 1167 0026 F8D1     		bne	.L20
 1168 0028 7047     		bx	lr
 1169              		.size	chEvtSignalI, .-chEvtSignalI
 1170 002a 00BFAFF3 		.section	.text.chEvtBroadcastFlagsI,"ax",%progbits
 1170      0080
 1171              		.align	2
 1172              		.p2align 4,,15
 1173              		.global	chEvtBroadcastFlagsI
 1174              		.thumb
 1175              		.thumb_func
 1176              		.type	chEvtBroadcastFlagsI, %function
 1177              	chEvtBroadcastFlagsI:
 1178              		@ args = 0, pretend = 0, frame = 0
 1179              		@ frame_needed = 0, uses_anonymous_args = 0
 1180 0000 70B5     		push	{r4, r5, r6, lr}
 1181 0002 0468     		ldr	r4, [r0]
 1182 0004 A042     		cmp	r0, r4
 1183 0006 0646     		mov	r6, r0
 1184 0008 0D46     		mov	r5, r1
 1185 000a 0DD0     		beq	.L24
 1186              	.L29:
 1187 000c E368     		ldr	r3, [r4, #12]
 1188 000e 2B43     		orrs	r3, r3, r5
 1189 0010 E360     		str	r3, [r4, #12]
 1190 0012 15B1     		cbz	r5, .L26
 1191 0014 2269     		ldr	r2, [r4, #16]
 1192 0016 1342     		tst	r3, r2
 1193 0018 03D0     		beq	.L27
 1194              	.L26:
 1195 001a 6068     		ldr	r0, [r4, #4]
 1196 001c A168     		ldr	r1, [r4, #8]
 1197 001e FFF7FEFF 		bl	chEvtSignalI
 1198              	.L27:
 1199 0022 2468     		ldr	r4, [r4]
 1200 0024 A642     		cmp	r6, r4
 1201 0026 F1D1     		bne	.L29
 1202              	.L24:
 1203 0028 70BD     		pop	{r4, r5, r6, pc}
 1204              		.size	chEvtBroadcastFlagsI, .-chEvtBroadcastFlagsI
 1205 002a 00BFAFF3 		.section	.text.chEvtSignal,"ax",%progbits
 1205      0080
 1206              		.align	2
ARM GAS  /tmp/cc7QYcgA.s 			page 80


 1207              		.p2align 4,,15
 1208              		.global	chEvtSignal
 1209              		.thumb
 1210              		.thumb_func
 1211              		.type	chEvtSignal, %function
 1212              	chEvtSignal:
 1213              		@ args = 0, pretend = 0, frame = 0
 1214              		@ frame_needed = 0, uses_anonymous_args = 0
 1215 0000 08B5     		push	{r3, lr}
 1216 0002 2023     		movs	r3, #32
 1217              	@ 546 "/home/cody/dev/chibios/trunk/os/ext/CMSIS/include/core_cmFunc.h" 1
 1218 0004 83F31188 		MSR basepri, r3
 1219              	@ 0 "" 2
 1220              		.thumb
 1221 0008 FFF7FEFF 		bl	chEvtSignalI
 1222 000c FFF7FEFF 		bl	chSchRescheduleS
 1223 0010 0023     		movs	r3, #0
 1224              	@ 546 "/home/cody/dev/chibios/trunk/os/ext/CMSIS/include/core_cmFunc.h" 1
 1225 0012 83F31188 		MSR basepri, r3
 1226              	@ 0 "" 2
 1227              		.thumb
 1228 0016 08BD     		pop	{r3, pc}
 1229              		.size	chEvtSignal, .-chEvtSignal
 1230 0018 AFF30080 		.section	.text.chEvtBroadcastFlags,"ax",%progbits
 1230      AFF30080 
 1231              		.align	2
 1232              		.p2align 4,,15
 1233              		.global	chEvtBroadcastFlags
 1234              		.thumb
 1235              		.thumb_func
 1236              		.type	chEvtBroadcastFlags, %function
 1237              	chEvtBroadcastFlags:
 1238              		@ args = 0, pretend = 0, frame = 0
 1239              		@ frame_needed = 0, uses_anonymous_args = 0
 1240 0000 08B5     		push	{r3, lr}
 1241 0002 2023     		movs	r3, #32
 1242              	@ 546 "/home/cody/dev/chibios/trunk/os/ext/CMSIS/include/core_cmFunc.h" 1
 1243 0004 83F31188 		MSR basepri, r3
 1244              	@ 0 "" 2
 1245              		.thumb
 1246 0008 FFF7FEFF 		bl	chEvtBroadcastFlagsI
 1247 000c FFF7FEFF 		bl	chSchRescheduleS
 1248 0010 0023     		movs	r3, #0
 1249              	@ 546 "/home/cody/dev/chibios/trunk/os/ext/CMSIS/include/core_cmFunc.h" 1
 1250 0012 83F31188 		MSR basepri, r3
 1251              	@ 0 "" 2
 1252              		.thumb
 1253 0016 08BD     		pop	{r3, pc}
 1254              		.size	chEvtBroadcastFlags, .-chEvtBroadcastFlags
 1255 0018 AFF30080 		.section	.text.chEvtGetAndClearFlagsI,"ax",%progbits
 1255      AFF30080 
 1256              		.align	2
 1257              		.p2align 4,,15
 1258              		.global	chEvtGetAndClearFlagsI
 1259              		.thumb
 1260              		.thumb_func
 1261              		.type	chEvtGetAndClearFlagsI, %function
ARM GAS  /tmp/cc7QYcgA.s 			page 81


 1262              	chEvtGetAndClearFlagsI:
 1263              		@ args = 0, pretend = 0, frame = 0
 1264              		@ frame_needed = 0, uses_anonymous_args = 0
 1265              		@ link register save eliminated.
 1266 0000 0346     		mov	r3, r0
 1267 0002 0022     		movs	r2, #0
 1268 0004 C068     		ldr	r0, [r0, #12]
 1269 0006 DA60     		str	r2, [r3, #12]
 1270 0008 7047     		bx	lr
 1271              		.size	chEvtGetAndClearFlagsI, .-chEvtGetAndClearFlagsI
 1272 000a 00BFAFF3 		.section	.text.chEvtDispatch,"ax",%progbits
 1272      0080
 1273              		.align	2
 1274              		.p2align 4,,15
 1275              		.global	chEvtDispatch
 1276              		.thumb
 1277              		.thumb_func
 1278              		.type	chEvtDispatch, %function
 1279              	chEvtDispatch:
 1280              		@ args = 0, pretend = 0, frame = 0
 1281              		@ frame_needed = 0, uses_anonymous_args = 0
 1282 0000 F8B5     		push	{r3, r4, r5, r6, r7, lr}
 1283 0002 0D46     		mov	r5, r1
 1284 0004 0746     		mov	r7, r0
 1285 0006 89B1     		cbz	r1, .L39
 1286 0008 0024     		movs	r4, #0
 1287 000a 0126     		movs	r6, #1
 1288 000c 01E0     		b	.L43
 1289              	.L41:
 1290 000e 0134     		adds	r4, r4, #1
 1291 0010 65B1     		cbz	r5, .L39
 1292              	.L43:
 1293 0012 06FA04F3 		lsl	r3, r6, r4
 1294 0016 2B42     		tst	r3, r5
 1295 0018 F9D0     		beq	.L41
 1296 001a 57F82420 		ldr	r2, [r7, r4, lsl #2]
 1297 001e 2046     		mov	r0, r4
 1298 0020 25EA0305 		bic	r5, r5, r3
 1299 0024 0134     		adds	r4, r4, #1
 1300 0026 9047     		blx	r2
 1301 0028 002D     		cmp	r5, #0
 1302 002a F2D1     		bne	.L43
 1303              	.L39:
 1304 002c F8BD     		pop	{r3, r4, r5, r6, r7, pc}
 1305              		.size	chEvtDispatch, .-chEvtDispatch
 1306 002e 00BF     		.section	.text.chEvtWaitOne,"ax",%progbits
 1307              		.align	2
 1308              		.p2align 4,,15
 1309              		.global	chEvtWaitOne
 1310              		.thumb
 1311              		.thumb_func
 1312              		.type	chEvtWaitOne, %function
 1313              	chEvtWaitOne:
 1314              		@ args = 0, pretend = 0, frame = 0
 1315              		@ frame_needed = 0, uses_anonymous_args = 0
 1316 0000 38B5     		push	{r3, r4, r5, lr}
 1317 0002 0D4B     		ldr	r3, .L52
ARM GAS  /tmp/cc7QYcgA.s 			page 82


 1318 0004 0546     		mov	r5, r0
 1319 0006 9C69     		ldr	r4, [r3, #24]
 1320 0008 2023     		movs	r3, #32
 1321              	@ 546 "/home/cody/dev/chibios/trunk/os/ext/CMSIS/include/core_cmFunc.h" 1
 1322 000a 83F31188 		MSR basepri, r3
 1323              	@ 0 "" 2
 1324              		.thumb
 1325 000e 636B     		ldr	r3, [r4, #52]
 1326 0010 10EA0302 		ands	r2, r0, r3
 1327 0014 06D1     		bne	.L51
 1328 0016 2062     		str	r0, [r4, #32]
 1329 0018 0A20     		movs	r0, #10
 1330 001a FFF7FEFF 		bl	chSchGoSleepS
 1331 001e 636B     		ldr	r3, [r4, #52]
 1332 0020 05EA0302 		and	r2, r5, r3
 1333              	.L51:
 1334 0024 5042     		negs	r0, r2
 1335 0026 1040     		ands	r0, r0, r2
 1336 0028 23EA0003 		bic	r3, r3, r0
 1337 002c 6363     		str	r3, [r4, #52]
 1338 002e 0023     		movs	r3, #0
 1339              	@ 546 "/home/cody/dev/chibios/trunk/os/ext/CMSIS/include/core_cmFunc.h" 1
 1340 0030 83F31188 		MSR basepri, r3
 1341              	@ 0 "" 2
 1342              		.thumb
 1343 0034 38BD     		pop	{r3, r4, r5, pc}
 1344              	.L53:
 1345 0036 00BF     		.align	2
 1346              	.L52:
 1347 0038 00000000 		.word	ch
 1348              		.size	chEvtWaitOne, .-chEvtWaitOne
 1349 003c AFF30080 		.section	.text.chEvtWaitAny,"ax",%progbits
 1350              		.align	2
 1351              		.p2align 4,,15
 1352              		.global	chEvtWaitAny
 1353              		.thumb
 1354              		.thumb_func
 1355              		.type	chEvtWaitAny, %function
 1356              	chEvtWaitAny:
 1357              		@ args = 0, pretend = 0, frame = 0
 1358              		@ frame_needed = 0, uses_anonymous_args = 0
 1359 0000 38B5     		push	{r3, r4, r5, lr}
 1360 0002 0B4B     		ldr	r3, .L56
 1361 0004 0546     		mov	r5, r0
 1362 0006 9C69     		ldr	r4, [r3, #24]
 1363 0008 2023     		movs	r3, #32
 1364              	@ 546 "/home/cody/dev/chibios/trunk/os/ext/CMSIS/include/core_cmFunc.h" 1
 1365 000a 83F31188 		MSR basepri, r3
 1366              	@ 0 "" 2
 1367              		.thumb
 1368 000e 636B     		ldr	r3, [r4, #52]
 1369 0010 1840     		ands	r0, r0, r3
 1370 0012 06D1     		bne	.L55
 1371 0014 0A20     		movs	r0, #10
 1372 0016 2562     		str	r5, [r4, #32]
 1373 0018 FFF7FEFF 		bl	chSchGoSleepS
 1374 001c 636B     		ldr	r3, [r4, #52]
ARM GAS  /tmp/cc7QYcgA.s 			page 83


 1375 001e 05EA0300 		and	r0, r5, r3
 1376              	.L55:
 1377 0022 23EA0003 		bic	r3, r3, r0
 1378 0026 6363     		str	r3, [r4, #52]
 1379 0028 0023     		movs	r3, #0
 1380              	@ 546 "/home/cody/dev/chibios/trunk/os/ext/CMSIS/include/core_cmFunc.h" 1
 1381 002a 83F31188 		MSR basepri, r3
 1382              	@ 0 "" 2
 1383              		.thumb
 1384 002e 38BD     		pop	{r3, r4, r5, pc}
 1385              	.L57:
 1386              		.align	2
 1387              	.L56:
 1388 0030 00000000 		.word	ch
 1389              		.size	chEvtWaitAny, .-chEvtWaitAny
 1390 0034 AFF30080 		.section	.text.chEvtWaitAll,"ax",%progbits
 1390      AFF30080 
 1390      AFF30080 
 1391              		.align	2
 1392              		.p2align 4,,15
 1393              		.global	chEvtWaitAll
 1394              		.thumb
 1395              		.thumb_func
 1396              		.type	chEvtWaitAll, %function
 1397              	chEvtWaitAll:
 1398              		@ args = 0, pretend = 0, frame = 0
 1399              		@ frame_needed = 0, uses_anonymous_args = 0
 1400 0000 38B5     		push	{r3, r4, r5, lr}
 1401 0002 0C4B     		ldr	r3, .L60
 1402 0004 0446     		mov	r4, r0
 1403 0006 9D69     		ldr	r5, [r3, #24]
 1404 0008 2023     		movs	r3, #32
 1405              	@ 546 "/home/cody/dev/chibios/trunk/os/ext/CMSIS/include/core_cmFunc.h" 1
 1406 000a 83F31188 		MSR basepri, r3
 1407              	@ 0 "" 2
 1408              		.thumb
 1409 000e 6B6B     		ldr	r3, [r5, #52]
 1410 0010 00EA0302 		and	r2, r0, r3
 1411 0014 8242     		cmp	r2, r0
 1412 0016 04D0     		beq	.L59
 1413 0018 2862     		str	r0, [r5, #32]
 1414 001a 0B20     		movs	r0, #11
 1415 001c FFF7FEFF 		bl	chSchGoSleepS
 1416 0020 6B6B     		ldr	r3, [r5, #52]
 1417              	.L59:
 1418 0022 23EA0403 		bic	r3, r3, r4
 1419 0026 6B63     		str	r3, [r5, #52]
 1420 0028 0023     		movs	r3, #0
 1421              	@ 546 "/home/cody/dev/chibios/trunk/os/ext/CMSIS/include/core_cmFunc.h" 1
 1422 002a 83F31188 		MSR basepri, r3
 1423              	@ 0 "" 2
 1424              		.thumb
 1425 002e 2046     		mov	r0, r4
 1426 0030 38BD     		pop	{r3, r4, r5, pc}
 1427              	.L61:
 1428 0032 00BF     		.align	2
 1429              	.L60:
ARM GAS  /tmp/cc7QYcgA.s 			page 84


 1430 0034 00000000 		.word	ch
 1431              		.size	chEvtWaitAll, .-chEvtWaitAll
 1432 0038 AFF30080 		.section	.text.chEvtWaitOneTimeout,"ax",%progbits
 1432      AFF30080 
 1433              		.align	2
 1434              		.p2align 4,,15
 1435              		.global	chEvtWaitOneTimeout
 1436              		.thumb
 1437              		.thumb_func
 1438              		.type	chEvtWaitOneTimeout, %function
 1439              	chEvtWaitOneTimeout:
 1440              		@ args = 0, pretend = 0, frame = 0
 1441              		@ frame_needed = 0, uses_anonymous_args = 0
 1442 0000 124B     		ldr	r3, .L68
 1443 0002 70B5     		push	{r4, r5, r6, lr}
 1444 0004 0446     		mov	r4, r0
 1445 0006 9D69     		ldr	r5, [r3, #24]
 1446 0008 0846     		mov	r0, r1
 1447 000a 2023     		movs	r3, #32
 1448              	@ 546 "/home/cody/dev/chibios/trunk/os/ext/CMSIS/include/core_cmFunc.h" 1
 1449 000c 83F31188 		MSR basepri, r3
 1450              	@ 0 "" 2
 1451              		.thumb
 1452 0010 6B6B     		ldr	r3, [r5, #52]
 1453 0012 14EA0306 		ands	r6, r4, r3
 1454 0016 0CD1     		bne	.L63
 1455 0018 11B9     		cbnz	r1, .L64
 1456              	@ 546 "/home/cody/dev/chibios/trunk/os/ext/CMSIS/include/core_cmFunc.h" 1
 1457 001a 81F31188 		MSR basepri, r1
 1458              	@ 0 "" 2
 1459              		.thumb
 1460 001e 70BD     		pop	{r4, r5, r6, pc}
 1461              	.L64:
 1462 0020 2C62     		str	r4, [r5, #32]
 1463 0022 0A20     		movs	r0, #10
 1464 0024 FFF7FEFF 		bl	chSchGoSleepTimeoutS
 1465 0028 0028     		cmp	r0, #0
 1466 002a 0BDB     		blt	.L67
 1467 002c 6B6B     		ldr	r3, [r5, #52]
 1468 002e 04EA0306 		and	r6, r4, r3
 1469              	.L63:
 1470 0032 7042     		negs	r0, r6
 1471 0034 3040     		ands	r0, r0, r6
 1472 0036 23EA0003 		bic	r3, r3, r0
 1473 003a 6B63     		str	r3, [r5, #52]
 1474 003c 0023     		movs	r3, #0
 1475              	@ 546 "/home/cody/dev/chibios/trunk/os/ext/CMSIS/include/core_cmFunc.h" 1
 1476 003e 83F31188 		MSR basepri, r3
 1477              	@ 0 "" 2
 1478              		.thumb
 1479 0042 70BD     		pop	{r4, r5, r6, pc}
 1480              	.L67:
 1481              	@ 546 "/home/cody/dev/chibios/trunk/os/ext/CMSIS/include/core_cmFunc.h" 1
 1482 0044 86F31188 		MSR basepri, r6
 1483              	@ 0 "" 2
 1484              		.thumb
 1485 0048 3046     		mov	r0, r6
ARM GAS  /tmp/cc7QYcgA.s 			page 85


 1486 004a 70BD     		pop	{r4, r5, r6, pc}
 1487              	.L69:
 1488              		.align	2
 1489              	.L68:
 1490 004c 00000000 		.word	ch
 1491              		.size	chEvtWaitOneTimeout, .-chEvtWaitOneTimeout
 1492              		.section	.text.chEvtWaitAnyTimeout,"ax",%progbits
 1493              		.align	2
 1494              		.p2align 4,,15
 1495              		.global	chEvtWaitAnyTimeout
 1496              		.thumb
 1497              		.thumb_func
 1498              		.type	chEvtWaitAnyTimeout, %function
 1499              	chEvtWaitAnyTimeout:
 1500              		@ args = 0, pretend = 0, frame = 0
 1501              		@ frame_needed = 0, uses_anonymous_args = 0
 1502 0000 124B     		ldr	r3, .L76
 1503 0002 70B5     		push	{r4, r5, r6, lr}
 1504 0004 0446     		mov	r4, r0
 1505 0006 9D69     		ldr	r5, [r3, #24]
 1506 0008 0846     		mov	r0, r1
 1507 000a 2023     		movs	r3, #32
 1508              	@ 546 "/home/cody/dev/chibios/trunk/os/ext/CMSIS/include/core_cmFunc.h" 1
 1509 000c 83F31188 		MSR basepri, r3
 1510              	@ 0 "" 2
 1511              		.thumb
 1512 0010 6B6B     		ldr	r3, [r5, #52]
 1513 0012 14EA0306 		ands	r6, r4, r3
 1514 0016 0CD1     		bne	.L71
 1515 0018 11B9     		cbnz	r1, .L72
 1516              	@ 546 "/home/cody/dev/chibios/trunk/os/ext/CMSIS/include/core_cmFunc.h" 1
 1517 001a 81F31188 		MSR basepri, r1
 1518              	@ 0 "" 2
 1519              		.thumb
 1520 001e 70BD     		pop	{r4, r5, r6, pc}
 1521              	.L72:
 1522 0020 2C62     		str	r4, [r5, #32]
 1523 0022 0A20     		movs	r0, #10
 1524 0024 FFF7FEFF 		bl	chSchGoSleepTimeoutS
 1525 0028 0028     		cmp	r0, #0
 1526 002a 0ADB     		blt	.L75
 1527 002c 6B6B     		ldr	r3, [r5, #52]
 1528 002e 04EA0306 		and	r6, r4, r3
 1529              	.L71:
 1530 0032 23EA0603 		bic	r3, r3, r6
 1531 0036 6B63     		str	r3, [r5, #52]
 1532 0038 0023     		movs	r3, #0
 1533              	@ 546 "/home/cody/dev/chibios/trunk/os/ext/CMSIS/include/core_cmFunc.h" 1
 1534 003a 83F31188 		MSR basepri, r3
 1535              	@ 0 "" 2
 1536              		.thumb
 1537 003e 3046     		mov	r0, r6
 1538 0040 70BD     		pop	{r4, r5, r6, pc}
 1539              	.L75:
 1540              	@ 546 "/home/cody/dev/chibios/trunk/os/ext/CMSIS/include/core_cmFunc.h" 1
 1541 0042 86F31188 		MSR basepri, r6
 1542              	@ 0 "" 2
ARM GAS  /tmp/cc7QYcgA.s 			page 86


 1543              		.thumb
 1544 0046 3046     		mov	r0, r6
 1545 0048 70BD     		pop	{r4, r5, r6, pc}
 1546              	.L77:
 1547 004a 00BF     		.align	2
 1548              	.L76:
 1549 004c 00000000 		.word	ch
 1550              		.size	chEvtWaitAnyTimeout, .-chEvtWaitAnyTimeout
 1551              		.section	.text.chEvtWaitAllTimeout,"ax",%progbits
 1552              		.align	2
 1553              		.p2align 4,,15
 1554              		.global	chEvtWaitAllTimeout
 1555              		.thumb
 1556              		.thumb_func
 1557              		.type	chEvtWaitAllTimeout, %function
 1558              	chEvtWaitAllTimeout:
 1559              		@ args = 0, pretend = 0, frame = 0
 1560              		@ frame_needed = 0, uses_anonymous_args = 0
 1561 0000 38B5     		push	{r3, r4, r5, lr}
 1562 0002 104B     		ldr	r3, .L84
 1563 0004 0446     		mov	r4, r0
 1564 0006 9D69     		ldr	r5, [r3, #24]
 1565 0008 0846     		mov	r0, r1
 1566 000a 2023     		movs	r3, #32
 1567              	@ 546 "/home/cody/dev/chibios/trunk/os/ext/CMSIS/include/core_cmFunc.h" 1
 1568 000c 83F31188 		MSR basepri, r3
 1569              	@ 0 "" 2
 1570              		.thumb
 1571 0010 6B6B     		ldr	r3, [r5, #52]
 1572 0012 04EA0302 		and	r2, r4, r3
 1573 0016 A242     		cmp	r2, r4
 1574 0018 0AD0     		beq	.L79
 1575 001a 11B9     		cbnz	r1, .L80
 1576              	.L83:
 1577              	@ 546 "/home/cody/dev/chibios/trunk/os/ext/CMSIS/include/core_cmFunc.h" 1
 1578 001c 80F31188 		MSR basepri, r0
 1579              	@ 0 "" 2
 1580              		.thumb
 1581 0020 38BD     		pop	{r3, r4, r5, pc}
 1582              	.L80:
 1583 0022 2C62     		str	r4, [r5, #32]
 1584 0024 0B20     		movs	r0, #11
 1585 0026 FFF7FEFF 		bl	chSchGoSleepTimeoutS
 1586 002a 0028     		cmp	r0, #0
 1587 002c 08DB     		blt	.L82
 1588 002e 6B6B     		ldr	r3, [r5, #52]
 1589              	.L79:
 1590 0030 23EA0403 		bic	r3, r3, r4
 1591 0034 6B63     		str	r3, [r5, #52]
 1592 0036 0023     		movs	r3, #0
 1593              	@ 546 "/home/cody/dev/chibios/trunk/os/ext/CMSIS/include/core_cmFunc.h" 1
 1594 0038 83F31188 		MSR basepri, r3
 1595              	@ 0 "" 2
 1596              		.thumb
 1597 003c 2046     		mov	r0, r4
 1598 003e 38BD     		pop	{r3, r4, r5, pc}
 1599              	.L82:
ARM GAS  /tmp/cc7QYcgA.s 			page 87


 1600 0040 0020     		movs	r0, #0
 1601 0042 EBE7     		b	.L83
 1602              	.L85:
 1603              		.align	2
 1604              	.L84:
 1605 0044 00000000 		.word	ch
 1606              		.size	chEvtWaitAllTimeout, .-chEvtWaitAllTimeout
 1607              		.comm	__gnu_lto_v1,1,1
 1608 0048 AFF30080 		.ident	"GCC: (GNU Tools for ARM Embedded Processors) 4.8.4 20140526 (release) [ARM/embedded-4_8-br
 1608      AFF30080 
ARM GAS  /tmp/cc7QYcgA.s 			page 88


DEFINED SYMBOLS
                            *ABS*:0000000000000000 chevents.c
     /tmp/cc7QYcgA.s:964    .text.chEvtRegisterMaskWithFlags:0000000000000000 $t
     /tmp/cc7QYcgA.s:970    .text.chEvtRegisterMaskWithFlags:0000000000000000 chEvtRegisterMaskWithFlags
     /tmp/cc7QYcgA.s:999    .text.chEvtRegisterMaskWithFlags:0000000000000024 $d
     /tmp/cc7QYcgA.s:1002   .text.chEvtUnregister:0000000000000000 $t
     /tmp/cc7QYcgA.s:1008   .text.chEvtUnregister:0000000000000000 chEvtUnregister
     /tmp/cc7QYcgA.s:1044   .text.chEvtGetAndClearEvents:0000000000000000 $t
     /tmp/cc7QYcgA.s:1050   .text.chEvtGetAndClearEvents:0000000000000000 chEvtGetAndClearEvents
     /tmp/cc7QYcgA.s:1074   .text.chEvtGetAndClearEvents:000000000000001c $d
     /tmp/cc7QYcgA.s:1077   .text.chEvtAddEvents:0000000000000000 $t
     /tmp/cc7QYcgA.s:1083   .text.chEvtAddEvents:0000000000000000 chEvtAddEvents
     /tmp/cc7QYcgA.s:1106   .text.chEvtAddEvents:0000000000000018 $d
     /tmp/cc7QYcgA.s:1109   .text.chEvtGetAndClearFlags:0000000000000000 $t
     /tmp/cc7QYcgA.s:1115   .text.chEvtGetAndClearFlags:0000000000000000 chEvtGetAndClearFlags
     /tmp/cc7QYcgA.s:1135   .text.chEvtSignalI:0000000000000000 $t
     /tmp/cc7QYcgA.s:1141   .text.chEvtSignalI:0000000000000000 chEvtSignalI
     /tmp/cc7QYcgA.s:1171   .text.chEvtBroadcastFlagsI:0000000000000000 $t
     /tmp/cc7QYcgA.s:1177   .text.chEvtBroadcastFlagsI:0000000000000000 chEvtBroadcastFlagsI
     /tmp/cc7QYcgA.s:1206   .text.chEvtSignal:0000000000000000 $t
     /tmp/cc7QYcgA.s:1212   .text.chEvtSignal:0000000000000000 chEvtSignal
     /tmp/cc7QYcgA.s:1231   .text.chEvtBroadcastFlags:0000000000000000 $t
     /tmp/cc7QYcgA.s:1237   .text.chEvtBroadcastFlags:0000000000000000 chEvtBroadcastFlags
     /tmp/cc7QYcgA.s:1256   .text.chEvtGetAndClearFlagsI:0000000000000000 $t
     /tmp/cc7QYcgA.s:1262   .text.chEvtGetAndClearFlagsI:0000000000000000 chEvtGetAndClearFlagsI
     /tmp/cc7QYcgA.s:1273   .text.chEvtDispatch:0000000000000000 $t
     /tmp/cc7QYcgA.s:1279   .text.chEvtDispatch:0000000000000000 chEvtDispatch
     /tmp/cc7QYcgA.s:1307   .text.chEvtWaitOne:0000000000000000 $t
     /tmp/cc7QYcgA.s:1313   .text.chEvtWaitOne:0000000000000000 chEvtWaitOne
     /tmp/cc7QYcgA.s:1347   .text.chEvtWaitOne:0000000000000038 $d
     /tmp/cc7QYcgA.s:1350   .text.chEvtWaitAny:0000000000000000 $t
     /tmp/cc7QYcgA.s:1356   .text.chEvtWaitAny:0000000000000000 chEvtWaitAny
     /tmp/cc7QYcgA.s:1388   .text.chEvtWaitAny:0000000000000030 $d
     /tmp/cc7QYcgA.s:1391   .text.chEvtWaitAll:0000000000000000 $t
     /tmp/cc7QYcgA.s:1397   .text.chEvtWaitAll:0000000000000000 chEvtWaitAll
     /tmp/cc7QYcgA.s:1430   .text.chEvtWaitAll:0000000000000034 $d
     /tmp/cc7QYcgA.s:1433   .text.chEvtWaitOneTimeout:0000000000000000 $t
     /tmp/cc7QYcgA.s:1439   .text.chEvtWaitOneTimeout:0000000000000000 chEvtWaitOneTimeout
     /tmp/cc7QYcgA.s:1490   .text.chEvtWaitOneTimeout:000000000000004c $d
     /tmp/cc7QYcgA.s:1493   .text.chEvtWaitAnyTimeout:0000000000000000 $t
     /tmp/cc7QYcgA.s:1499   .text.chEvtWaitAnyTimeout:0000000000000000 chEvtWaitAnyTimeout
     /tmp/cc7QYcgA.s:1549   .text.chEvtWaitAnyTimeout:000000000000004c $d
     /tmp/cc7QYcgA.s:1552   .text.chEvtWaitAllTimeout:0000000000000000 $t
     /tmp/cc7QYcgA.s:1558   .text.chEvtWaitAllTimeout:0000000000000000 chEvtWaitAllTimeout
     /tmp/cc7QYcgA.s:1605   .text.chEvtWaitAllTimeout:0000000000000044 $d
                            *COM*:0000000000000001 __gnu_lto_v1
     /tmp/cc7QYcgA.s:1001   .text.chEvtRegisterMaskWithFlags:0000000000000028 $t
     /tmp/cc7QYcgA.s:1108   .text.chEvtAddEvents:000000000000001c $t
     /tmp/cc7QYcgA.s:1349   .text.chEvtWaitOne:000000000000003c $t
     /tmp/cc7QYcgA.s:1390   .text.chEvtWaitAny:0000000000000034 $t
     /tmp/cc7QYcgA.s:1432   .text.chEvtWaitAll:0000000000000038 $t
     /tmp/cc7QYcgA.s:1608   .text.chEvtWaitAllTimeout:0000000000000048 $t

UNDEFINED SYMBOLS
ch
chSchReadyI
chSchRescheduleS
ARM GAS  /tmp/cc7QYcgA.s 			page 89


chSchGoSleepS
chSchGoSleepTimeoutS
