ARM GAS  /tmp/ccP0xjSZ.s 			page 1


   1              		.syntax unified
   2              		.cpu cortex-m4
   3              		.eabi_attribute 27, 3
   4              		.eabi_attribute 28, 1
   5              		.fpu fpv4-sp-d16
   6              		.eabi_attribute 20, 1
   7              		.eabi_attribute 21, 1
   8              		.eabi_attribute 23, 3
   9              		.eabi_attribute 24, 1
  10              		.eabi_attribute 25, 1
  11              		.eabi_attribute 26, 1
  12              		.eabi_attribute 30, 2
  13              		.eabi_attribute 34, 1
  14              		.eabi_attribute 18, 4
  15              		.thumb
  16              		.file	"chmtx.c"
  17              		.section	.gnu.lto_.jmpfuncs.10b44178ba0c2895,"",%progbits
  18 0000 789C6D8C 		.ascii	"x\234m\214\301\015\300 \020\303\354\243\205\262\026"
  18      C10DC020 
  18      10C3ECA3 
  18      85B216
  19 000f 5374852E 		.ascii	"St\205.\320\371{\240>\311\303\221\"+A\260\313\370\273"
  19      D0F97BA0 
  19      3EC9C391 
  19      222B41B0 
  19      CBF8BB
  20 0022 6358346E 		.ascii	"cX4n\037\251 \034&\316\211\252%\245W\232\371\263\244"
  20      1FA9201C 
  20      26CE89AA 
  20      25A5579A 
  20      F9B3A4
  21 0035 9CB926FB 		.ascii	"\234\271&\373\222\371\000gf\002\230"
  21      92F90067 
  21      660298
  22              		.text
  23              		.section	.gnu.lto_.inline.10b44178ba0c2895,"",%progbits
  24 0000 789C7D4F 		.ascii	"x\234}O\261j\002A\020}3\267w\273{\012'6Zy\330\304.H"
  24      B16A0241 
  24      107D33B7 
  24      77BB7B0A 
  24      27365A79 
  25 0018 08292510 		.ascii	"\010)%\020\260\264\266\264S\177D\354\3246E\260L\322"
  25      B0B4B6B4 
  25      537F44EC 
  25      D43645B0 
  25      4CD2
  26 002a 8748AA10 		.ascii	"\207H\252\020H\037R\345\003\204\330\004\322\246\011"
  26      481F52E5 
  26      0384D804 
  26      D2A609
  27 0039 CEEE4623 		.ascii	"\316\356F#\"n13;\363\346\275y\014\306\2417\241\220-"
  27      226E3133 
  27      3BF3E6BD 
  27      790CC6A1 
  27      37A1902D 
  28 004d 603481CD 		.ascii	"`4\201\315s\013\346\373\324\203\031IL\004\207\340hQ"
  28      730BE6FB 
ARM GAS  /tmp/ccP0xjSZ.s 			page 2


  28      D4831949 
  28      4C0487E0 
  28      6851
  29 005f 81FDB8F0 		.ascii	"\201\375\270\360\375\010\357\230\021)\014\2724$iE\227"
  29      FD08EF98 
  29      11290CBA 
  29      34246945 
  29      97
  30 0070 E8FF97B4 		.ascii	"\350\377\227\264\211\320\374\226!\231\347\014Z\351\022"
  30      89D0FC96 
  30      2199E70C 
  30      5AE912
  31 007f 231E374A 		.ascii	"#\0367J\340{6\302\374\233\030\214\350\3511S^\252\000"
  31      E07B36C2 
  31      FC9B188C 
  31      E8E93153 
  31      5EAA00
  32 0092 252B214D 		.ascii	"%+!M;\012:\223\237\232\347a= \334$F\301\310\304\336"
  32      3B0A3A93 
  32      9F9AE761 
  32      3D20DC24 
  32      46C1C8C4 
  33 00a7 B6A1C78D 		.ascii	"\266\241\307\215pN\321O\022XC\321\261\233\234\322\376"
  33      704ED14F 
  33      125843D1 
  33      B19B9CD2 
  33      FE
  34 00b8 3561DF38 		.ascii	"5a\3378\002\215\372'6~\233\257\253\024\305\237\253\255"
  34      028DFA27 
  34      367E9BAF 
  34      AB14C59F 
  34      ABAD
  35 00ca 024F3B02 		.ascii	"\002O;\002\253-!\032\216\255\347q\276\204>y\270N\221"
  35      AB2D211A 
  35      8EADE771 
  35      BE843E79 
  35      B84E91
  36 00dd DE9D7B6A 		.ascii	"\336\235{j\025\342\237\212\213\020#\325\035\023\026"
  36      15E29F8A 
  36      8B1023D5 
  36      1D1316
  37 00ec F99708F1 		.ascii	"\371\227\010\361\331\313Myk\220R\017 \007\300\032c\364"
  37      D9CB4D79 
  37      6B90520F 
  37      2007C01A 
  37      63F4
  38 00fe 3110     		.ascii	"1\020"
  39              		.text
  40              		.section	.gnu.lto_.pureconst.10b44178ba0c2895,"",%progbits
  41 0000 789C6362 		.ascii	"x\234cb`b\020f\200\000N\006)&)f)\026+V+6Iv+\016)N+\000"
  41      60621066 
  41      80004E06 
  41      29262966 
  41      29162B56 
  42 001e 0FEE01B6 		.ascii	"\017\356\001\266"
  43              		.text
  44              		.section	.gnu.lto_chMtxTryLockS.part.0.10b44178ba0c2895,"",%progbits
ARM GAS  /tmp/ccP0xjSZ.s 			page 3


  45 0000 789C8551 		.ascii	"x\234\205Q=K\003A\020\235\267\273\361\"\"\370\023\254"
  45      3D4B0341 
  45      109DB7BB 
  45      F12222F8 
  45      13AC
  46 0012 0DB8E4BF 		.ascii	"\015\270\344\277$\240\245\271\204\313!g\340r\212b\221"
  46      24A0A5B9 
  46      84CB2167 
  46      E0728A62 
  46      91
  47 0023 8D5858A6 		.ascii	"\215XX\246\024\305\302J\260\321R\202\215e\024E;\025"
  47      14C5C24A 
  47      B0D15282 
  47      8D651445 
  47      3B15
  48 0035 04B1B4B2 		.ascii	"\004\261\264\262\266\2113\2333\370\201\270\2603\217"
  48      B689339B 
  48      33F881B8 
  48      B0338F
  49 0044 61DE07BB 		.ascii	"a\336\007\273\212\024\375<%\276\027 *sG\201`z7\014\014"
  49      8A14FD3C 
  49      25BE1720 
  49      2A734781 
  49      607A370C 
  50 0059 94EF0A5A 		.ascii	"\224\357\012Zz\267\250\001\001\004\352\030\245\321Y"
  50      7AB7A801 
  50      0104EA18 
  50      A5D159
  51 0068 84679F28 		.ascii	"\204g\237(\367<\034>\235\036a\022\024\203\024\022\220"
  51      F73C1C3E 
  51      9D1E6112 
  51      14831412 
  51      90
  52 0079 6604C345 		.ascii	"f\004\303E\334\012\264\355\\o\226(\364\214\012W\021"
  52      DC0AB4ED 
  52      5C6F9628 
  52      F48C0A57 
  52      11
  53 008a AAF00277 		.ascii	"\252\360\002w]\345%\351\327\264\365\270\333\277TK8\344"
  53      5DE525E9 
  53      D7B4F5B8 
  53      DBBF544B 
  53      38E4
  54 009c 141150A2 		.ascii	"\024\021P\2429\326\363U\357\323^\327\271\231\030f\223"
  54      39D6F355 
  54      EFD35ED7 
  54      B9991866 
  54      93
  55 00ad DEDD8EA0 		.ascii	"\336\335\216\240B\002\321[\000C\237\2446\012\304=\007"
  55      4202D15B 
  55      00439FA4 
  55      360AC43D 
  55      07
  56 00be C49283B7 		.ascii	"\304\222\203\267`$X\242c\307g\212%\307b\023\021\224"
  56      602458A2 
  56      63C7678A 
  56      25C76213 
ARM GAS  /tmp/ccP0xjSZ.s 			page 4


  56      1194
  57 00d0 F0839C37 		.ascii	"\360\203\2347z\233H\370\222\346\254\377:N\243}\016\214"
  57      7A9B48F8 
  57      92E6ACFF 
  57      3A4EA37D 
  57      0E8C
  58 00e2 A945DE12 		.ascii	"\251E\336\022\352\247\245\376by\373\3132\370\323\322"
  58      EAA7A5FE 
  58      6279FBCB 
  58      32F8D3D2 
  59 00f2 E496DA53 		.ascii	"\344\226\332S\257\356\373/\352\033\271\374\277i\224"
  59      AFEEFB2F 
  59      EA1BB9FC 
  59      BF6994
  60 0101 E7A62A0F 		.ascii	"\347\246*\017\344%\357\370\267d\354\265\037\310\010"
  60      E425EFF8 
  60      B764ECB5 
  60      1FC808
  61 0110 45F1CF9C 		.ascii	"E\361\317\234\037L\313\263C\226\204bm\263\2254l\330"
  61      1F4CCBB3 
  61      43968462 
  61      6DB39534 
  61      6CD8
  62 0122 AA6FD87A 		.ascii	"\252o\330zc\315\206\315\270\026\267\3326KWW\226-\203"
  62      63CD86CD 
  62      B816B7DA 
  62      364B5757 
  62      962D83
  63 0135 34B3ED34 		.ascii	"4\263\3554\344y\222\255\317\207\364\001q\014t\302"
  63      E47992AD 
  63      CF87F401 
  63      710C74C2 
  64              		.text
  65              		.section	.gnu.lto_chMtxObjectInit.10b44178ba0c2895,"",%progbits
  66 0000 789C8D91 		.ascii	"x\234\215\221\275K\003A\020\305\347m\022\014Zhk!\012"
  66      BD4B0341 
  66      10C5E76D 
  66      120C5A68 
  66      6B210A
  67 0013 9662B6F1 		.ascii	"\226b\266\361?1\202\226\311^\314-\232\004\356\022\361"
  67      3F318296 
  67      C95ECC2D 
  67      9A04EE12 
  67      F1
  68 0024 A3C8255A 		.ascii	"\243\310%Z\207\324\021\004\213X\210(XYX\244\023\211"
  68      87D41104 
  68      8B588828 
  68      585958A4 
  68      1389
  69 0036 0A29EC52 		.ascii	"\012)\354R\304J\260\260Ul\342\354\355)\242\"\016\334"
  69      C44AB0B0 
  69      556CE2EC 
  69      ED29A222 
  69      0EDC
  70 0048 CDDCDCBC 		.ascii	"\315\334\334\274\337\274\273\025$\350{L\362U\007\321"
  70      DFBCBB15 
  70      24E87B4C 
ARM GAS  /tmp/ccP0xjSZ.s 			page 5


  70      F25507D1 
  71 0058 2A67C408 		.ascii	"*g\304\010\242yGTK\012\300\024\004\252\012TW\020\316"
  71      A2794754 
  71      4B0AC014 
  71      04AA0A54 
  71      5710CE
  72 006b 9E89CE60 		.ascii	"\236\211\316`8<=\277j\237\340@$\201\002\230\250\303"
  72      383C3DBF 
  72      6A9FE040 
  72      24810298 
  72      A8C3
  73 007d 9709DA0B 		.ascii	"\227\011\332\013\202\346\014\221\012\037\323|7\200%"
  73      82E60C91 
  73      0A1FD37C 
  73      378025
  74 008c 089363B7 		.ascii	"\010\223c\267T\177\333}iLep\210\004\345!vh\233\205s"
  74      547FDB7D 
  74      694C6570 
  74      8804E521 
  74      76689B85 
  75 00a1 741C702C 		.ascii	"t\034p,j`\237Z\320\020y`\231s,\\\230\305\027\247\214"
  75      6A609F5A 
  75      D0107960 
  75      99732C5C 
  75      98C517A7 
  76 00b6 E8F65B37 		.ascii	"\350\366[7\217#\237\253l\321\351>\367x\334\222\025B"
  76      8F239FAB 
  76      6CD1E93E 
  76      F778DC92 
  76      1542
  77 00c8 89E50EEE 		.ascii	"\211\345\016\356\037.\3475\342\214\256\005\301\004/"
  77      1F2EE735 
  77      E28CAE05 
  77      C1042F
  78 00d7 89E814D1 		.ascii	"\211\350\024\321adG,3\216\302\015\327\315\321\014\332"
  78      6164472C 
  78      338EC20D 
  78      D7CDD10C 
  78      DA
  79 00e8 DC899C8D 		.ascii	"\334\211\234\215\377%\027?\344\027\375\327\306\264u"
  79      FF25173F 
  79      E417FDD7 
  79      C6B475
  80 00f7 1201C62C 		.ascii	"\022\001\306,\340\227O\263\331t\342\246\350Qm\3604k"
  80      E0974FB3 
  80      D974E2A6 
  80      E8516DF0 
  80      346B
  81 0109 B51F9166 		.ascii	"\265\037\221f\207\374\367\314\251I\351\226\0129\251"
  81      87FCF7CC 
  81      A949E996 
  81      0A39A9
  82 0118 4ACE9674 		.ascii	"J\316\226tr\033R\271:\253K\276,{\225\342\232\344\302"
  82      721B52B9 
  82      3AAB4BBE 
  82      2C7B95E2 
  82      9AE4C2
ARM GAS  /tmp/ccP0xjSZ.s 			page 6


  83 012b 2B4BDF53 		.ascii	"+K\337S\334/\2247S\212\026\3761\257\213j\275\342\360"
  83      DC2F9437 
  83      538A16FE 
  83      31AF8B6A 
  83      BDE2F0
  84 013e 90EB2BD7 		.ascii	"\220\353+\327I\271\364\016Wt\202\204"
  84      49B9F40E 
  84      57748284 
  85              		.text
  86              		.section	.gnu.lto_chMtxLockS.10b44178ba0c2895,"",%progbits
  87 0000 789CB558 		.ascii	"x\234\265X\333o\024U\030\377\316\314\316\354}\267\333"
  87      DB6F1455 
  87      18FFCECC 
  87      CEEC7DB7 
  87      DB
  88 0011 6E2F3CD4 		.ascii	"n/<\324\224RZ\350\322.-\324K\2141\274\371\007\320\250"
  88      94525AE8 
  88      D22E2DD4 
  88      4B8C31BC 
  88      F907D0A8 
  89 0025 8F654BB6 		.ascii	"\217eK\266\033)\345R\024\344\201Y(b\244\230\212&\334"
  89      1B29E552 
  89      14E48159 
  89      2862A498 
  89      8A26DC
  90 0038 1504949B 		.ascii	"\025\004\224\233\201\020\003h\232P\020c\327\026\324"
  90      81100368 
  90      9A501063 
  90      D716D4
  91 0047 4412DA42 		.ascii	"D\022\332BlC\274\264\372\320\210\032h\305\372\235\313"
  91      6C43BCB4 
  91      FAD0881A 
  91      68C5FA9D 
  91      CB
  92 0058 ECCEECCC 		.ascii	"\354\316\354\314\302\022q\036\316\231=\347\374\276\373"
  92      C212711E 
  92      CE993DE7 
  92      FCBEFB
  93 0067 F7EB9C4A 		.ascii	"\367\353\234J A\3663\217\000\214\025\002\254\306wR\006"
  93      2041F633 
  93      8F008C15 
  93      02ACC677 
  93      5206
  94 0079 44EAB906 		.ascii	"D\352\271\006\220tI\222\377\323\313\000\232\247\360"
  94      90744992 
  94      FFD3CB00 
  94      9AA7F0
  95 0088 A617349F 		.ascii	"\246\0274\237\237\204\351:\221\035\201+E\240\271|lt"
  95      9F84E93A 
  95      911D812B 
  95      45A0B97C 
  95      6C74
  96 009a B0D1C5DF 		.ascii	"\260\321\305\337\211\302\221\212\244^\373\232\"\235"
  96      89C2918A 
  96      A45EFB9A 
  96      229D
  97 00a8 976544AA 		.ascii	"\227eD\252R\251\361g)?\266\304\311\005^r\271\210\233"
ARM GAS  /tmp/ccP0xjSZ.s 			page 7


  97      52A9F167 
  97      293FB6C4 
  97      C9055E72 
  97      B9889B
  98 00bb E3DC9287 		.ascii	"\343\334\222\207\037\364\262\203\036\251\304\370\263"
  98      1FF4B283 
  98      1EA9C4F8 
  98      B3
  99 00c8 841F5BE2 		.ascii	"\204\037[\342%\001~\334\247\277\204%\371\364 =\030\030"
  99      25017EDC 
  99      A7BF8425 
  99      F9F4203D 
  99      1818
 100 00da 23783040 		.ascii	"#x0@\202|=(\025p\001!&\240@*6\376,\346\307\226\204H"
 100      827C3D28 
 100      15700121 
 100      26A0402A 
 100      36FE2CE6 
 101 00f2 113F5EA8 		.ascii	"\021?^\250\277\024\021B_\200\300&\311/;\024\265\324"
 101      BF141142 
 101      5F80C026 
 101      C92F3B14 
 101      B5D4
 102 0104 E9727B4A 		.ascii	"\351r{J\274\276p XP\034*,\"\233^&4rJ%\034\322\264\235"
 102      BCBE7020 
 102      58501C2A 
 102      2C229B5E 
 102      2634724A 
 103 011d A35B4F8C 		.ascii	"\243[O\214\223=Z_\327A\355\357\231\031B\022\004\243"
 103      933D5A5F 
 103      D741EDEF 
 103      99194212 
 103      04A3
 104 012f DC482046 		.ascii	"\334H F\340%\374A*\330$9\314a\347\330\276=\003\357\315"
 104      E025FC41 
 104      2AD82439 
 104      CC61E7D8 
 104      BE3D03EF 
 105 0144 D20E6EEE 		.ascii	"\322\016n\356\321\376A(C>\231'\362\342[\003D\333\251"
 105      D1FE4128 
 105      433E9927 
 105      F2E25B03 
 105      44DBA9
 106 0157 25276766 		.ascii	"%'gf\202\011\"K\360L~@\355\254\246\271\231\2512\302"
 106      8209224B 
 106      F04C7E40 
 106      EDACA6B9 
 106      99A932C2 
 107 016b 5AC84744 		.ascii	"Z\310GD\372\237p\247\245\276\321\231\231_\266\375\372"
 107      FA9F70A7 
 107      A5BED199 
 107      995FB6FD 
 107      FA
 108 017c 3E798140 		.ascii	">y\201@\0139L*A\305\371\020\316N\322N\300\005\350\261"
 108      0B394C2A 
 108      41C5F910 
 108      CE4ED24E 
ARM GAS  /tmp/ccP0xjSZ.s 			page 8


 108      C005E8B1 
 109 0190 5BEC78F0 		.ascii	"[\354x\360\207\303K\007?\016J\020\227\217\342rHl\207"
 109      87C34B07 
 109      3F0E4A10 
 109      978FE272 
 109      486C87
 110 01a3 71FE18E7 		.ascii	"q\376\030\3472\234\217\341\\\216\207\324\012*`6\035"
 110      329C8FE1 
 110      5C8E87D4 
 110      0A2A6036 
 110      1D
 111 01b4 2AE93047 		.ascii	"*\3510G`\252\304<\227J\253\246;5t\230G\207\371t\250"
 111      60AAC43C 
 111      974AABA6 
 111      3B357498 
 111      4787F974 
 112 01c9 15C22262 		.ascii	"\025\302\"b^@\017\326\321\235z:D\351\260\220\016\015"
 112      5E400FD6 
 112      D19D7A3A 
 112      44E9B090 
 112      0E0D
 113 01db 425BA398 		.ascii	"B[\243\230\027\321\203\213\351\320D\267i\021@\227\246"
 113      17D1838B 
 113      E9D044B7 
 113      69114097 
 113      A6
 114 01ec F55470AF 		.ascii	"\365Tp\257\200F\004\237\2458nwA3\206h\273K\276\012\233"
 114      8046049F 
 114      A5386E77 
 114      41338668 
 114      BB4BBE0A 
 115 0201 8777638D 		.ascii	"\207wc\215\264\220\343D\2018Q#pB\303\347E\224\020\201"
 115      B490E344 
 115      81385123 
 115      7042C3E7 
 115      45941081 
 116 0215 DA0471EE 		.ascii	"\332\004q\356\203\275IM+H\020\327F\230\322\336\244o"
 116      83BD494D 
 116      2B4810D7 
 116      4698D2DE 
 116      A46F
 117 0227 EE764245 		.ascii	"\356vBE\321\270\272Y4\227\021\020\263x\001*\367\306"
 117      D1B8BA59 
 117      34971110 
 117      B378012A 
 117      F7C6
 118 0239 C9545AAE 		.ascii	"\311TZ\256\213\011\003\024\206 O\2348)\330+@z\343\367"
 118      8B090314 
 118      86204F9C 
 118      3829D82B 
 118      407AE3F7 
 119 024d 43D76F49 		.ascii	"C\327oI\177\032B\217\230\222\326L\3740\251\312\000C"
 119      7F1A428F 
 119      9892D64C 
 119      FC30A9CA 
 119      0043
 120 025f E0C67D69 		.ascii	"\340\306}ip\350\010\241\2532\374\316<I\33587&\245\235"
ARM GAS  /tmp/ccP0xjSZ.s 			page 9


 120      70E808A1 
 120      AB32FCCE 
 120      3C49DD38 
 120      3726A59D 
 121 0273 3ECC9CE6 		.ascii	">\314\234\346\322\360\021\216=\225 >n\205?NHF\3052\224"
 121      D2F0118E 
 121      3D95203E 
 121      6E853F4E 
 121      4846C532 
 122 0288 429F38B5 		.ascii	"B\2378\265\212Z\177\341\374\220\324B\3160S\374\314\372"
 122      8A5A7FE1 
 122      FC90D442 
 122      CE3053FC 
 122      CCFA
 123 029a 803D4EAF 		.ascii	"\200=N\257\254A\330\3327+\215\330\001\335\311.\032\254"
 123      AC41D8DA 
 123      372B8DD8 
 123      01DDC92E 
 123      1AAC
 124 02ac 20DD6B15 		.ascii	" \335k\025>\362\325\276\275\001\\\2472\024\276)\033"
 124      3EF2D5BE 
 124      BD015CA7 
 124      3214BE29 
 124      1B
 125 02bd 377BBDFA 		.ascii	"7{\275\372\246\3126\035\306\315\311\364\246\223m*\246"
 125      A6CA361D 
 125      C6CDC9F4 
 125      A6936D2A 
 125      A6
 126 02ce F038E080 		.ascii	"\3608\340\200$\017 O\010\034\365\243\367\207\357w\373"
 126      240F204F 
 126      081CF5A3 
 126      F787EF77 
 126      FB
 127 02df 4450F492 		.ascii	"DP\364\222\350\333\376\307e'\215\01556\306\223\026'"
 127      E8DBFEC7 
 127      65278D0D 
 127      3536C693 
 127      1627
 128 02f1 153C44A3 		.ascii	"\025<D\243\323G\277l\341\271\342\211\317vX\241\310\317"
 128      D347BF6C 
 128      E1B9E289 
 128      CF7658A1 
 128      C8CF
 129 0303 B96AAA61 		.ascii	"\271j\252a2\320B>c^\317Ng\331\036\251\232\221\251I/"
 129      32D0423E 
 129      635ECF4E 
 129      67D91EA9 
 129      9A91A949 
 130 0318 478ADC3C 		.ascii	"G\212\334<\227\205\255\260\307\242\036Q`'\272U]u\345"
 130      9785ADB0 
 130      C7A21E51 
 130      6027BA55 
 130      5D75E5
 131 032b E3555D69 		.ascii	"\343U]i\3570\332\304U\337<\262\253C\317u\220\251.\020"
 131      EF30DAC4 
 131      55DF3CB2 
ARM GAS  /tmp/ccP0xjSZ.s 			page 10


 131      AB43CF75 
 131      90A92E10 
 132 033f 92AE2330 		.ascii	"\222\256#0d_)N1\273LIS\340\303Y2\317\324\237\273d\273"
 132      645F294E 
 132      31BB4C49 
 132      53E0C359 
 132      32CFD49F 
 133 0356 4C71C6C8 		.ascii	"Lq\306\310\344K\342\371\252\322\363\365\311\305\362"
 133      E44BE2F9 
 133      AAD2F3F5 
 133      C9C5F2
 134 0365 2CF3E758 		.ascii	",\363\347X\\Oq\327i\213]\032\372\000+\273\237\333\216"
 134      5C4F71D7 
 134      698B5D1A 
 134      FA002BBB 
 134      9FDB8E
 135 0378 62745386 		.ascii	"btS\206`\016.8\366\337\337\200\213\245\275\367\227S"
 135      600E2E38 
 135      F6DFDF80 
 135      8BA5BDF7 
 135      9753
 136 038a EB5478A7 		.ascii	"\353Tx\247\214\263\304\364\210\242\243\3462\217}F\215"
 136      8CB3C4F4 
 136      88A2A3E6 
 136      328F7D46 
 136      8D
 137 039b 5559AD64 		.ascii	"UY\255d\324\370Sr\037\321\241^Dg\274_JJ\341\215R\322"
 137      D4F85372 
 137      1FD1A15E 
 137      4467BC5F 
 137      4A4AE18D 
 138 03b1 8CA1C1CA 		.ascii	"\214\241\301\312\245y\2710=-\316\212x\372\037\232\325"
 138      A579B930 
 138      3D2DCE8A 
 138      78FA1F9A 
 138      D5
 139 03c2 14CF4C95 		.ascii	"\024\317L\225(\212\351\221\264w\325\326\242\250\262"
 139      288AE991 
 139      B477D5D6 
 139      A2A8B2
 140 03d1 24366528 		.ascii	"$6e(\012g\376\252\025\203\352j\006\037\270;}\333a\022"
 140      0A67FEAA 
 140      1583EA6A 
 140      061FB83B 
 140      7DDB6112 
 141 03e5 F05A7ECA 		.ascii	"\360Z~\312\343\264\003\365\242\354\317]\224\325\271"
 141      E3B403F5 
 141      A2ECCF5D 
 141      94D5B9
 142 03f4 5CE7F0E1 		.ascii	"\\\347\360\341\301c\245zM\206\204\210\363\304\310\272"
 142      C163A57A 
 142      4D868488 
 142      F3C4C8BA 
 143 0404 413BD69D 		.ascii	"A;\326\235\000\255\273\367\326\012\216\324\213\322e"
 143      00ADBBF7 
 143      D60A8ED4 
 143      8BD265
ARM GAS  /tmp/ccP0xjSZ.s 			page 11


 144 0413 6412E501 		.ascii	"d\022\345\001L2p\345\013+\223\324<\012\223\214\230\231"
 144      4C3270E5 
 144      0B2B93D4 
 144      3C0A938C 
 144      9899
 145 0425 6498D93F 		.ascii	"d\230\331?/\237v\0361\267\363p\356\310\325\330cQ\217"
 145      2F9F761E 
 145      31B7F370 
 145      EEC8D5D8 
 145      63518F
 146 0438 9149B8EA 		.ascii	"\221I\270\352\371\217W\365|{\207\321&\301$\307\366\247"
 146      F98F57F5 
 146      7C7B87D1 
 146      26C124C7 
 146      F6A7
 147 044a 9924FCDF 		.ascii	"\231$\374\337\230\304\375@&\241\231\342\237\024\026"
 147      98C4FD40 
 147      26A199E2 
 147      9F1416
 148 0459 2689E466 		.ascii	"&\211\344f\222Z\213\353\023\331L2\316mG1\031&\251\305"
 148      925A8BEB 
 148      13D94C32 
 148      CE6D4731 
 148      1926A9C5 
 149 046d 05176392 		.ascii	"\005\027c\222H\211`\022\217\231I8j\201\225I\"\026&\311"
 149      48896012 
 149      8F994938 
 149      6A819549 
 149      221626C9 
 150 0481 68E44C32 		.ascii	"h\344L2\2563\311\002#\223\224p&\361\232\231d\374Q\230"
 150      AE33C902 
 150      23939470 
 150      26F19A99 
 150      64FC5198 
 151 0495 64826726 		.ascii	"d\202g&bd\022\256\254\316Z\024\021Kb'\314L\222\257j"
 151      626412AE 
 151      ACCE5A14 
 151      114B6227 
 151      CC4C92AF 
 152 04aa C5A0BACE 		.ascii	"\305\240\272\316\310$\006\001\331L\222C\271\211I\306"
 152      C8240601 
 152      D94C9243 
 152      B98949C6 
 153 04ba 7317655D 		.ascii	"s\027e].\327\211^K>#\001\310\342\223\010\273\304RUW"
 153      2ED7895E 
 153      4B3E2301 
 153      C8E29308 
 153      BBC45255 
 154 04cf 6F2B96FE 		.ascii	"o+\226\376\257\177\224\376\2372\367\377=\026\357h>M"
 154      AF7F94FE 
 154      9F32F7FF 
 154      3D16EF68 
 154      3E4D
 155 04e1 38656EC2 		.ascii	"8en\302{\271\375\255\267\307\242\036c\377s\325\013\037"
 155      7BB9FDAD 
 155      B7C7A21E 
 155      63FF73D5 
ARM GAS  /tmp/ccP0xjSZ.s 			page 12


 155      0B1F
 156 04f3 AFEA85F6 		.ascii	"\257\352\205\366\016\243M\000\337@\327\344\331;\027"
 156      0EA34D00 
 156      DF40D7E4 
 156      D93B17
 157 0502 88CEBDE9 		.ascii	"\210\316\275\351/\354\302X\372s\024\321EzR\302\320\355"
 157      2FECC258 
 157      FA7314D1 
 157      457A52C2 
 157      D0ED
 158 0514 26AC85CE 		.ascii	"&\254\205\316]J\177\234z\322-\224\363\243\226;\371m"
 158      5D4A7F9C 
 158      7AD22D94 
 158      F3A3963B 
 158      F96D
 159 0526 508778B3 		.ascii	"P\207x\263 \252\035\244\037\256\374\230|6\255%.\376"
 159      20AA1DA4 
 159      1FAEFC98 
 159      7C36AD25 
 159      2EFE
 160 0538 70B0F626 		.ascii	"p\260\366&q\342\366\343\020r\236\272\265\236Z\026\240"
 160      71E2F6E3 
 160      10729EBA 
 160      B59E5A16 
 160      A0
 161 0549 1FE67AB9 		.ascii	"\037\346z\271HL\337\324\226\223\007\236\326\341e\033"
 161      484CDFD4 
 161      9693079E 
 161      D6E1651B 
 162 0559 E175BC9A 		.ascii	"\341u\274\232\211\030\275\213\352\302\366w\0017\230"
 162      8918BD8B 
 162      EAC2F677 
 162      013798
 163 0568 9E66FC7E 		.ascii	"\236f\374~\306\033\357\003\276\217\256oq\362\373\217"
 163      C61BEF03 
 163      BE8FAE6F 
 163      71F2FB8F 
 164 0578 85D51A73 		.ascii	"\205\325\032s\263Z\203%\241oKY\254\266Cbv\243\230\214"
 164      B35A8325 
 164      A16F4B59 
 164      ACB64362 
 164      76A3988C 
 165 058c DB0DB810 		.ascii	"\333\015\270\020`\254\326X,X\255\000\360\346n\2405\016"
 165      60ACD658 
 165      2C58AD00 
 165      F0E66EA0 
 165      350E
 166 059e 5B64A5B5 		.ascii	"[d\245\265F\013\255\011\225\024{\346\011\035\271\330"
 166      460BAD09 
 166      95147BE6 
 166      091DB9D8 
 167 05ae 8ACCCE8E 		.ascii	"\212\314\316\216\321\330\237\031!\012\245\210\316Dn"
 167      D1D89F19 
 167      210AA588 
 167      CE446E
 168 05bd 29298683 		.ascii	"))\206\203_\0012b\210\346&\303\210\364p\016ZR\355\303"
 168      5F013262 
ARM GAS  /tmp/ccP0xjSZ.s 			page 13


 168      88E626C3 
 168      88F4700E 
 168      5A52EDC3 
 169 05d1 C2629061 		.ascii	"\302b\220aD\256\255\311\332&\215\226R\317\270\310\030"
 169      44AEADC9 
 169      DA268D96 
 169      52CFB8C8 
 169      18
 170 05e2 315FD58A 		.ascii	"1_\325\212Au\223\221\021\015\002\262\0311\207\3628\365"
 170      41759391 
 170      110D02B2 
 170      193187F2 
 170      38F5
 171 05f4 436F5303 		.ascii	"CoS\003<\273M\233r\271\316\341\0037O\035\210\362\372"
 171      3CBB4D9B 
 171      72B9CEE1 
 171      03374F1D 
 171      88F2FA
 172 0607 12029ECF 		.ascii	"\022\002\236\317\374\241n2\376\235Vs\377\235\216\323"
 172      FCA16E32 
 172      FE9D5673 
 172      FF9D8ED3 
 173 0617 DFD8F3A3 		.ascii	"\337\330\363\243\247\266y--_\034\0237=\212\017\250x"
 173      A7B6792D 
 173      2D5F1C13 
 173      373D8A0F 
 173      A878
 174 0629 852FD15B 		.ascii	"\205/\321[\240\020\366\021~\277\275\223\222\370\205"
 174      A010F611 
 174      7EBFBD93 
 174      92F885
 175 0638 56680E3E 		.ascii	"Vh\016>\344N\255\233?|\367\316\270\244_\254\313Y\346"
 175      E44EAD9B 
 175      3F7CF7CE 
 175      B8A45FAC 
 175      CB59E6
 176 064b 547B8B3D 		.ascii	"T{\213=\031\302H\365x\262\225y\355\225y\205\262r\036"
 176      19C248F5 
 176      78B29579 
 176      ED957985 
 176      B2721E
 177 065e ABDD7F8D 		.ascii	"\253\335\177\215\231\315lx\210\272\270\010\024\372Z"
 177      99CD6C78 
 177      88BAB808 
 177      14FA5A
 178 066d 44FF2BF1 		.ascii	"D\377+\361\035$G\207k\322WwQ\317\004\267\250[\321h["
 178      1D244787 
 178      6BD25777 
 178      51CF04B7 
 178      A85BD168 
 179 0682 47FBF268 		.ascii	"G\373\362h\254\243uC\264u\371\253\321X[bY\242cm\264"
 179      ACA37543 
 179      B475F9AB 
 179      D1585B62 
 179      59A2636D 
 180 0697 73CDBA95 		.ascii	"s\315\272\225\257D\361eMgt\355\232\030\256\267w\256"
 180      AF44F165 
ARM GAS  /tmp/ccP0xjSZ.s 			page 14


 180      4D6774ED 
 180      9A18AEB7 
 180      77AE
 181 06a9 AF8F811C 		.ascii	"\257\217\201\034\353\\%u\256\222;W\257Z\234\0074\261"
 181      EB5C2575 
 181      AE923B57 
 181      AF5A9C07 
 181      34B1
 182 06bb 32B6625D 		.ascii	"2\266b]+\036j[\033kk\255o\203\177\0016\236\217~"
 182      2B1E6A5B 
 182      1B6B6BAD 
 182      6F837F01 
 182      369E8F7E 
 183              		.text
 184              		.section	.gnu.lto_chMtxLock.10b44178ba0c2895,"",%progbits
 185 0000 789C8D50 		.ascii	"x\234\215P\261J\003A\020}\263\233`\312\224\332\204k"
 185      B14A0341 
 185      107DB39B 
 185      60CA94DA 
 185      846B
 186 0012 C446B27E 		.ascii	"\304F\262~B@\020,\322\030\005\255\344\2629\314\242w"
 186      4240102C 
 186      D21805AD 
 186      E4B239CC 
 186      A277
 187 0024 277B1749 		.ascii	"'{\027I\260\310E\002ZI\020\013\033\005A\320J\177All"
 187      B0C84502 
 187      5A49100B 
 187      1B0541D0 
 187      4A7F416C 
 188 0039 24923F10 		.ascii	"$\222?\020\354\254b\233&\336\336\305 6\2720;og\336\314"
 188      ECAC629B 
 188      26DEDEC5 
 188      2036BA30 
 188      3B6F67DE 
 189 004e 9B590686 		.ascii	"\233Y\006\206\337g.\266\005\002NcO\034\304z}\240\223"
 189      DF672EB6 
 189      05024E63 
 189      4F1CC47A 
 189      7DA093
 190 0061 63440680 		.ascii	"cD\006\200\320f\324\336\242\204\373\300\036\337\306"
 190      D066D4DE 
 190      A284FBC0 
 190      1EDFC6
 191 0070 E3FBD1F3 		.ascii	"\343\373\321\363\325\013\335\261\034'7\211g\321\215"
 191      D50BDDB1 
 191      1C273789 
 191      67D18D
 192 007f A29E05C8 		.ascii	"\242\236\005\310\344\271\036\337\246v\203\230\361\274"
 192      E4B91EDF 
 192      A6768398 
 192      F1BC
 193 008d 8FA3CF8F 		.ascii	"\217\243\317\217\363\367\331)\315\246k\312\"iN\010\270"
 193      F3F7D929 
 193      CDA66BCA 
 193      22694E08 
 193      B8
ARM GAS  /tmp/ccP0xjSZ.s 			page 15


 194 009e 198AA793 		.ascii	"\031\212\247\223\025\320\245\313\350\242\244R\275MR"
 194      15D0A5CB 
 194      E8A2A452 
 194      BD4D52
 195 00ad 449641D3 		.ascii	"D\226A\323\374\361$?Y\344\025\335\341\331 \374\356x"
 195      FCF1243F 
 195      59E415DD 
 195      E1D920FC 
 195      EE78
 196 00bf 88517412 		.ascii	"\210Qt\022\345\025qIi\213\035\342\2122\300\177\206\260"
 196      E5157149 
 196      698B1DE2 
 196      8A32C07F 
 196      86B0
 197 00d1 E926FE81 		.ascii	"\351&\376\201D\024?Dm\272\245B*7@g\3704\310Lk\221\356"
 197      44143F44 
 197      6DBAA542 
 197      2A374067 
 197      F834C84C 
 198 00e8 4B664FC3 		.ascii	"KfO\303\025\242\356\273\216\220~\255%j\316\201\220u"
 198      15A2EEBB 
 198      8E907EAD 
 198      256ACE81 
 198      9075
 199 00fa 55557E20 		.ascii	"UU~ B\335\360vE\014t(\002-\343\270\0336\213\022\245"
 199      42DDF076 
 199      450C7428 
 199      022DE3B8 
 199      1B368B12 
 200 010f BFF84E33 		.ascii	"\277\370N3\024\313\345\312jE(O\3565j\206\253\235m\351"
 200      14CBE5CA 
 200      6A45284F 
 200      EE356A86 
 200      AB9D6DE9 
 201 0123 AE343C59 		.ascii	"\2564<Y\254#_\256\254YU;p\366\265Z\264\346\227\3004"
 201      AC235FAE 
 201      AC59553B 
 201      70F6B55A 
 201      B4E697C0 
 202 0138 665CC7F5 		.ascii	"f\\\307\365u\013_\237Bp}"
 202      750B5F9F 
 202      42707D
 203              		.text
 204              		.section	.gnu.lto_chMtxTryLock.10b44178ba0c2895,"",%progbits
 205 0000 789C8D51 		.ascii	"x\234\215Q\317k\023A\030}of\223\015\322B/\202\275\224"
 205      CF6B1341 
 205      187D6F66 
 205      930DD242 
 205      2F82BD94 
 206 0014 5C3C291D 		.ascii	"\\<)\035\301\177\240 \010=\364b,\330S\331L\226d\320"
 206      C17FA020 
 206      083DF462 
 206      2CD853D9 
 206      4C9664D0 
 207 0028 4D649348 		.ascii	"Md\223HK\017\235\224\200\036\244V\360P\032<\010\021"
 207      4B0F9D94 
 207      801EA456 
ARM GAS  /tmp/ccP0xjSZ.s 			page 16


 207      F0501A3C 
 207      0811
 208 003a 7F81FA27 		.ascii	"\177\201\372'\364$\275X\2617ED\360&\275x(HA\352\314"
 208      F424BD58 
 208      B1374544 
 208      F026BD78 
 208      284841EA 
 209 004f 6E1BD48B 		.ascii	"n\033\324\213.\3547\337\314\274\357\275\367}# \360\367"
 209      2EEC37DF 
 209      CCBCEFBD 
 209      F77D2320 
 209      F0F7
 210 0061 77D1FD9F 		.ascii	"w\321\375\237\011\254\273\225\005Pl\354\002\275\222"
 210      09ACBB95 
 210      05506CEC 
 210      02BD92
 211 0070 10C1E00D 		.ascii	"\020\301\340\015`O\311\203\020vL2\310\317\003\322' "
 211      604FC983 
 211      10764C32 
 211      C8CF03D2 
 211      2720
 212 0082 56850CB8 		.ascii	"V\205\014\270\272\300\214\345\225\330\376rt\364\362"
 212      BAC08CE5 
 212      95D8FE72 
 212      74F4F2
 213 0091 F0DE709F 		.ascii	"\360\336p\237;b\\2!\2120D\350\002K>8T\001}k7\312\200"
 213      3B625C32 
 213      218A3044 
 213      E8024B3E 
 213      3854017D 
 214 00a9 CEAAAEBA 		.ascii	"\316\252\256\272\350\311\346)\374*w\261\366\375\333"
 214      E8C9E629 
 214      FC2A77B1 
 214      F6FDDB
 215 00b8 83AF6746 		.ascii	"\203\257gF\260\210\217\234\245L\215hK\357^\346-L\241"
 215      B0888F9C 
 215      A54C8D68 
 215      4BEF5EE6 
 215      2D4CA1
 216 00cb CF877673 		.ascii	"\317\207vs\3060\333^\243\241,\373lt\177\373\370>\310"
 216      C630DB5E 
 216      A3A12CFB 
 216      6C747FFB 
 216      F83EC8
 217 00de DB7C8BB5 		.ascii	"\333|\213\265\217\237~<\236\034q\347\211}1,\234\350"
 217      8F9F7E3C 
 217      9E1C71E7 
 217      897D312C 
 217      9CE8
 218 00f0 E8CC23EA 		.ascii	"\350\314#\352,\236\303sk\355\366\317\2751\327\301\000"
 218      2C9EC373 
 218      6BEDF6CF 
 218      BD31D7C1 
 218      00
 219 0101 5B3D6B27 		.ascii	"[=k'\014\013uJ/T\314\010\253\036\034\361Ynp\007\375"
 219      0C0B754A 
 219      2F54CC08 
ARM GAS  /tmp/ccP0xjSZ.s 			page 17


 219      AB1E1CF1 
 219      596E7007 
 220 0116 FDDE78C4 		.ascii	"\375\336x\304\247n\353\010<\354\217)\317S\342 \224\357"
 220      A76EEB08 
 220      3CEC8F29 
 220      CF53E220 
 220      94EF
 221 0128 D02F9D80 		.ascii	"\320/\235\200\302\025\034\332;\2368\324\024#&'b\334"
 221      C2151CDA 
 221      3B9E38D4 
 221      14232627 
 221      62DC
 222 013a C08EAB82 		.ascii	"\300\216\253\202\377\036L\304\241\323\310\006\201\337"
 222      FF1E4CC4 
 222      A1D3C806 
 222      81DF
 223 0148 0611F109 		.ascii	"\006\021\361\011\247r\266\367\350\275\336\273\317\274"
 223      A772B6F7 
 223      E8BDDEBB 
 223      CFBC
 224 0156 B69E6B7C 		.ascii	"\266\236k|@\311\2278\263\342\356\340\2643%\351\337\205"
 224      40C99738 
 224      B3E2EEE0 
 224      B43325E9 
 224      DF85
 225 0168 5ED6D72B 		.ascii	"^\326\327+\325h%\261\322\255\332\262\252\305\267\224"
 225      D56825B1 
 225      D2ADDAB2 
 225      AAC5B794 
 226 0178 6E98AA69 		.ascii	"n\230\252i\265U'\3556\257+\227\244\035\325N\265;O:K"
 226      B55527ED 
 226      36AF2B97 
 226      A41DD54E 
 226      B53B4F3A 
 227 018d D31A33FF 		.ascii	"\323\0323\377\302\307K\035ui\2562[Q\246\251otk\036\233"
 227      C2C74B1D 
 227      7569AE32 
 227      5B51A6A9 
 227      6F746B1E 
 228 01a2 C68B3AB9 		.ascii	"\306\213:\271\334m\352\351\006&\346*W\312\325\250\035"
 228      DC6DEAE9 
 228      0626E62A 
 228      57CAD5A8 
 228      1D
 229 01b3 DF4CCDF9 		.ascii	"\337L\315\371\362\331\013\020)\302$NZ\3512~\001]\203"
 229      F2D90B10 
 229      29C2244E 
 229      5AE9327E 
 229      015D83
 230 01c6 9A68     		.ascii	"\232h"
 231              		.text
 232              		.section	.gnu.lto_chMtxTryLockS.10b44178ba0c2895,"",%progbits
 233 0000 789C5D50 		.ascii	"x\234]P=K\003A\020\2357\273\207\207(\\co\255\340\342"
 233      3D4B0341 
 233      109D37BB 
 233      8787285C 
 233      636FADE0 
ARM GAS  /tmp/ccP0xjSZ.s 			page 18


 234 0015 0FF05F18 		.ascii	"\017\360_\030\320\322lB\262\310yp9E\261\310F\256\260"
 234      D0D26C42 
 234      B2C87970 
 234      3945B1C8 
 234      46AEB0
 235 0028 B0486DB0 		.ascii	"\260Hm\260\020\254\315_\260\024\321\210Vj\345\017\260"
 235      10ACCD5F 
 235      B014D188 
 235      566AE50F 
 235      B0
 236 0039 329D4D9C 		.ascii	"2\235M\234=\023\021\027vf\230y\357\315\007\023\323\377"
 236      3D131117 
 236      76669879 
 236      EFCD0713 
 236      D3FF
 237 004b B72E7F0E 		.ascii	"\267.\177\016?\036\021\201\373#\242^\314\254/6\310\317"
 237      3F1E1181 
 237      FB23A25E 
 237      CCAC2F36 
 237      C8CF
 238 005d AB71427E 		.ascii	"\253qB~AA\20744\020<\201\272\2544\272\333\2504\206|"
 238      41418734 
 238      34103C81 
 238      BAAC34BA 
 238      DBA83486 
 239 0072 F33E995C 		.ascii	"\363>\231\\\177>_\335c\3041\310A:\211\321HA\221D\001"
 239      7F3E5FDD 
 239      63C431C8 
 239      413A89D1 
 239      48419144 
 240 0087 1751E97D 		.ascii	"\027Q\351}\177\231\310V\254M\261A\254\006\016^=\320"
 240      7F99C856 
 240      AC4DB141 
 240      AC060E5E 
 240      3DD0
 241 0099 C9DBCBF0 		.ascii	"\311\333\313\360\016;\270\2249Z\210ViE\210\003:\207"
 241      0E3BB894 
 241      395A8856 
 241      69458803 
 241      3A87
 242 00ab 03B7A0B7 		.ascii	"\003\267\240\267\304\253\252_\035\263\351o\251\374\350"
 242      C4ABAA5F 
 242      1DB3E96F 
 242      A9FCE8
 243 00ba 2DFE5202 		.ascii	"-\376R\002\004\177\267\253\011c\234\250G*\343\031\210"
 243      047FB7AB 
 243      09639CA8 
 243      472AE319 
 243      88
 244 00cb 8FE9CB9F 		.ascii	"\217\351\313\237\372\304A\333)X\304\235\324\246\014"
 244      FAC441DB 
 244      2958C49D 
 244      D4A60C
 245 00da 5D8DF324 		.ascii	"]\215\363$G\010\225\012\361J\010\322\022\361\331`I4"
 245      4708950A 
 245      F14A08D2 
 245      12F1D960 
ARM GAS  /tmp/ccP0xjSZ.s 			page 19


 245      4934
 246 00ec 14C20208 		.ascii	"\024\302\002\010\310pRc\332Y\33246k\034\231F\363\300"
 246      C8705263 
 246      DA59DA34 
 246      366B1C99 
 246      46F3C0
 247 00ff D8B6ABBB 		.ascii	"\330\266\253\273\254c\212|\177o\327H\220\027\246\223"
 247      AC638A7C 
 247      7F6FD748 
 247      9017A693 
 248 010f 5BC9A7C5 		.ascii	"[\311\247\305\341\232\245o\351\235K\354"
 248      E19AA56F 
 248      E99D4BEC 
 249              		.text
 250              		.section	.gnu.lto_chMtxUnlock.10b44178ba0c2895,"",%progbits
 251 0000 789C9555 		.ascii	"x\234\225U]h\\E\024>gfw\357\335\237\304\304\202\331"
 251      5D685C45 
 251      143E6766 
 251      77EFDD9F 
 251      C4C482D9 
 252 0014 24109782 		.ascii	"$\020\227\202\024\214v\325\252\210\370P\020\004\037"
 252      148C76D5 
 252      AA88F850 
 252      10041F
 253 0023 FA620CFE 		.ascii	"\372b\014\376\274\310\346f\331\\\354f\303&\321\006)"
 253      BCC8E666 
 253      D95CEC66 
 253      C326D106 
 253      29
 254 0034 BD890984 		.ascii	"\275\211\011\2046\324\340ok)\266\204 \210\265\251H\323"
 254      36D4E06F 
 254      6B29B684 
 254      2088B5A9 
 254      48D3
 255 0046 40C13431 		.ascii	"@\30141\232X\254\306\007cC\224M\301>\304b\253E,I\354"
 255      9A58ACC6 
 255      07634394 
 255      4DC13EC4 
 255      62AB452C 
 256 005c 7AE6CEDC 		.ascii	"z\346\316\334\273w7i\022/\354\314\334\273\363}\3379"
 256      BB773769 
 256      122FECCC 
 256      DCBBF37D 
 256      DF39
 257 006e DF9C9961 		.ascii	"\337\234\231a\300\240\3649H\277\263:\200\206\000\030"
 257      C0A0F439 
 257      48BFB33A 
 257      80860018 
 258 007e 01648397 		.ascii	"\001d\203\227\000\272u\306\370\027\023\000V(\264\020"
 258      00BA75C6 
 258      F8171300 
 258      5628B410 
 259 008e 062BC251 		.ascii	"\006+\302Q\227\337}\314/\277k\366w?\013\364\357\020"
 259      97DF7DCC 
 259      2FBF6BF6 
 259      773F0BF4 
 259      EF10
ARM GAS  /tmp/ccP0xjSZ.s 			page 20


 260 00a0 6FA28D04 		.ascii	"o\242\215\004P\223\26349\375\202\2563\337\3007bz\260"
 260      5093B334 
 260      39FD82AE 
 260      33DFC037 
 260      627AB0
 261 00b3 57A30941 		.ascii	"W\243\011A\014\313\011!g\020F\024\003@8\300\270\317"
 261      0CCB0921 
 261      67104614 
 261      034038C0 
 261      B8CF
 262 00c5 1FD0F460 		.ascii	"\037\320\364`(\214\007^B\021\033\337\016'-\353\355\334"
 262      288C075E 
 262      42111BDF 
 262      0E272DEB 
 262      EDDC
 263 00d7 6F5796F0 		.ascii	"oW\226\360\2505\336{\302Z\315\347\021M\244<\036A0\020"
 263      A835DE7B 
 263      C25ACDE7 
 263      114DA43C 
 263      1E413010 
 264 00eb 5EA4178C 		.ascii	"^\244\027\214\331\035\363\025'&\261\343G\337?\\m\235"
 264      D91DF315 
 264      2726B1E3 
 264      47DF3F5C 
 264      6D9D
 265 00fd E819B46E 		.ascii	"\350\031\264n\023\324D\316\340\361-\"\363?\275\345E"
 265      13D444CE 
 265      E0F12D22 
 265      F33FBDE5 
 265      45
 266 010e FA183CB9 		.ascii	"\372\030<\271\031\3624\033\317\345\363\237\236\371w"
 266      19F2341B 
 266      CFE5F39F 
 266      9EF977
 267 011d B11FEF89 		.ascii	"\261\037\357\211!$p\010\267S\260\011\034\246\236\253"
 267      21247008 
 267      B753B009 
 267      1CA69EAB 
 268 012d 3E40FD49 		.ascii	">@\375I\352uL#\004\201\202\012\253\177\"\364\342/S\260"
 268      EA754C23 
 268      0481820A 
 268      AB7F22F4 
 268      E22F53B0 
 269 0141 4A7A0954 		.ascii	"Jz\011TQ\243E\251\201j1\252\021\243Z\321\320\343\207"
 269      51A345A9 
 269      816A31AA 
 269      11A35AD1 
 269      D0E387
 270 0154 5ECB1A8C 		.ascii	"^\313\032\214I2\211\001\021 =\317S;\244C#2\352\370w"
 270      49328901 
 270      11203DCF 
 270      533BA443 
 270      2332EAF8 
 271 0169 D0337F8B 		.ascii	"\3203\177\213<L\340\307\350\207\024\006\352\341\023"
 271      3C4CE0C7 
 271      E8871406 
 271      EAE113
ARM GAS  /tmp/ccP0xjSZ.s 			page 21


 272 0178 8B9E1788 		.ascii	"\213\236\027\210\247\036\3567Q?\006\037v[V\205\211\301"
 272      A71EEE37 
 272      513F061F 
 272      765B5685 
 272      89C1
 273 018a 3760D9EA 		.ascii	"7`\331\352\027\243P\032\005\225H3d'\327\204\240z5\200"
 273      17A3501A 
 273      05954833 
 273      6427D784 
 273      A07A3580 
 274 019e 4BD0F3E7 		.ascii	"K\320\363\347\301\311\317\007\270\212\004@*\330\353"
 274      C1C9CF07 
 274      B88A0440 
 274      2AD8EB
 275 01ad 89F02672 		.ascii	"\211\360&rQp\\V]\035\274\213\307\255#\273M\014\203\342"
 275      51705C56 
 275      5D1DBC8B 
 275      C7AD23BB 
 275      4D0C83E2 
 276 01c1 8DC4EC55 		.ascii	"\215\304\354Uv\376\377@\375_&\331E\324\013\347O=\341"
 276      76FEFF40 
 276      FD5F26D9 
 276      45D40BE7 
 276      4F3DE1
 277 01d4 441DB443 		.ascii	"D\035\264C\345\024*A\313S\250\013\012\256Br\012\233"
 277      E5142A41 
 277      CB53A80B 
 277      0AAE4272 
 277      0A9B
 278 01e6 40338361 		.ascii	"@3\203a\011QY>L6J\320]\224\272\0009yH01\333\270\345"
 278      0951593E 
 278      4C364AD0 
 278      5D94BA00 
 278      39794830 
 279 01fe C9FC7B87 		.ascii	"\311\374{\207\372\312\335\\\344`\374\320/S\232\223\230"
 279      FACADD5C 
 279      E460FCD0 
 279      2F539A93 
 279      98
 280 020f 21534F61 		.ascii	"!SOa\225\260\311\262r\371o\247z\220\323\302(\255.\023"
 280      95B0C9B2 
 280      72F96FA7 
 280      7A90D3C2 
 280      28AD2E13 
 281 0223 2B5C2F4B 		.ascii	"+\\/Kc\364\011\232Q\341\217\352d\216\253K\213+/\227"
 281      63F4099A 
 281      51E18FEA 
 281      648EAB4B 
 281      8B2B2F97 
 282 0237 AA52287E 		.ascii	"\252R(~.&\236\265e\231\224\215J\231\334\334\341_\347"
 282      2E269EB5 
 282      6599948D 
 282      4A99DCDC 
 282      E15FE7
 283 024a 905122AE 		.ascii	"\220Q\"\256V\205\322\322\224\226-r^\212LC\357\265\305"
 283      5685D2D2 
 283      94962D72 
ARM GAS  /tmp/ccP0xjSZ.s 			page 22


 283      5E8A4C43 
 283      EFB5C5
 284 025d A93F26DC 		.ascii	"\251?&\334\365\257\"\246B\3216R\200\275\232,\222\353"
 284      F5AF22A6 
 284      42D13652 
 284      80BD9A2C 
 284      92EB
 285 026f CBE856D5 		.ascii	"\313\350V\325\260]O\356\212\2460\\H\322\267\276\241"
 285      B05D4FEE 
 285      8AA6305C 
 285      48D2B7BE 
 285      A1
 286 0280 01F0D2FA 		.ascii	"\001\360\322\372\200\366>\277\263\263\027\257\366\005"
 286      80F63EBF 
 286      B3B317AF 
 286      F605
 287 028e 85C0975E 		.ascii	"\205\300\227^g\253\267\350,\256qvR&=\271Ug'\274\316"
 287      67ABB7E8 
 287      2CAE7176 
 287      52263DB9 
 287      556727BC 
 288 02a3 D66CE42C 		.ascii	"\326l\344,\256qv\332\343\354\360\315+(\223\240\350\211"
 288      AE7176DA 
 288      E3ECF0CD 
 288      2B2893A0 
 288      E889
 289 02b5 C96B811F 		.ascii	"\311k\201\037F\237\262\235\035\271\327\231\022\261\313"
 289      469FB29D 
 289      1DB9D799 
 289      12B1CB
 290 02c4 B860608D 		.ascii	"\270``\215\327@M!\247\341\253\253\335\307]\332HJ\245"
 290      D7404D21 
 290      A7E1ABAB 
 290      DDC75DDA 
 290      484AA5
 291 02d7 0A727307 		.ascii	"\012rs\007\340X\035o\244\331\312\340\371[7\227\334\311"
 291      E0581D6F 
 291      A4D9CAE0 
 291      F95B3797 
 291      DCC9
 292 02e9 65CAB146 		.ascii	"e\312\261F\357f\301\3656\013\300e`D\355Cj\374\324D\002"
 292      EF66C1F5 
 292      360BC065 
 292      6044ED43 
 292      6AFCD444 
 293 02fe D7C64EA1 		.ascii	"\327\306N\241\010\\\007:\226\271\310\357\302;s\345\016"
 293      085C073A 
 293      96B9C8EF 
 293      C23B73E5 
 293      0E
 294 030f B58745C1 		.ascii	"\265\207E\301\011\024\344\003ci\222\325V\307:/\003\247"
 294      0914E403 
 294      636992D5 
 294      56C73A2F 
 294      03A7
 295 0321 3AE1ABA3 		.ascii	":\341\253\243\373S\3104\233)\250\212k\346\310?\363L"
 295      FB53C834 
ARM GAS  /tmp/ccP0xjSZ.s 			page 23


 295      9B29A88A 
 295      6BE6C83F 
 295      F34C
 296 0333 12A9001F 		.ascii	"\022\251\000\037\273c\035ijcrw\035\373\207\302k\312"
 296      BB631D69 
 296      6A637277 
 296      1DFB87C2 
 296      6BCA
 297 0345 E7EF615E 		.ascii	"\347\357a^(\037.\021\265\356:~\035}\320\273\214$\021"
 297      281F2E11 
 297      B5EE3A7E 
 297      1D7DD0BB 
 297      8C2411
 298 0358 F54AE802 		.ascii	"\365J\350\002\372\243[+3#\241\004\316\026\035\032\233"
 298      FAA35B2B 
 298      3323A104 
 298      CE161D1A 
 298      9B
 299 0369 6C2E1B4B 		.ascii	"l.\033K\2026\374\342\215mE\360\375%\322\265^\351\240"
 299      8236FCE2 
 299      8D6D45F0 
 299      FD25D2B5 
 299      5EE9A0
 300 037c 075E25D5 		.ascii	"\007^%\325\027FN\327\027y\263K\022\254s\322\205\224"
 300      17464ED7 
 300      1779B34B 
 300      12AC73D2 
 300      8594
 301 038e 3751E9CD 		.ascii	"7Q\351\315\271\225\277\230\263<\225vi\025\016\273\350"
 301      B995BF98 
 301      B33C9576 
 301      69150EBB 
 301      E8
 302 039f DAC34ECA 		.ascii	"\332\303N\312\375\020*\025\333\360X%f\231\345\317+K"
 302      FD102A15 
 302      DBF05825 
 302      6699E5CF 
 302      2B4B
 303 03b1 AC14B9A1 		.ascii	"\254\024\271\241\\J\370\374=\364\345\256\377\256$\001"
 303      5C4AF8FC 
 303      3DF4E5AE 
 303      FFAE2401 
 304 03c1 DC1BA6D2 		.ascii	"\334\033\246\322@\237\223\214\200\336\015t\261ms\266"
 304      409F938C 
 304      80DE0D74 
 304      B16D73B6 
 305 03d1 4E083E42 		.ascii	"N\010>BQ7\347\246o\263\242\363|3k\012Q\330<aq\003n\355"
 305      5137E7A6 
 305      6FB3A2F3 
 305      7C336B0A 
 305      51D83C61 
 306 03e9 A64AE067 		.ascii	"\246J\340g4\260o&\033\254n\246\004\236\301:I7\013\335"
 306      34B06F26 
 306      1BAC6EA6 
 306      049EC13A 
 306      49370BDD 
 307 03fd 377A66FD 		.ascii	"7zf\375.X\355G$\01515\036o\311\244\223q#\323\334\025"
ARM GAS  /tmp/ccP0xjSZ.s 			page 24


 307      2E58ED47 
 307      240D3135 
 307      1E6FC9A4 
 307      937123D3 
 308 0413 6F4EBE16 		.ascii	"oN\276\0267Z\314&3\323\036\357\310v\266\276\032\247"
 308      375ACC26 
 308      33D31EEF 
 308      C876B6BE 
 308      1AA7
 309 0425 41B623DE 		.ascii	"A\266#\336\2365\350{\272c\337N\003\270\321\321\306\367"
 309      9E35E87B 
 309      BA63DF4E 
 309      03B8D1D1 
 309      C6F7
 310 0437 A6DBB4D6 		.ascii	"\246\333\264\326\344\353mY3\263{3|r_G\374\351=\015\317"
 310      E4EB6D59 
 310      33B37B33 
 310      7C725F47 
 310      FCE93D0D 
 311 044c 36C4CD56 		.ascii	"6\304\315Vcog\263\230\233M\276b\244\237\351l5v\266@"
 311      636F67B3 
 311      989B4DBE 
 311      62A49FE9 
 311      6C3576B6 
 312 0461 C59E86E7 		.ascii	"\305\236\206\347bM\211\366$\261=\020\273\357!`Y\320"
 312      624D89F6 
 312      24B13D10 
 312      BBEF2160 
 312      59D0
 313 0473 D2C97426 		.ascii	"\322\311t&\333\005\273\266\020\234\313j\007\330\002"
 313      DB05BBB6 
 313      109CCB6A 
 313      07D802
 314 0482 8FFE2F4C 		.ascii	"\217\376/L\273\321\322L\240\377\000!tl\371"
 314      BBD1D24C 
 314      A0FF0021 
 314      746CF9
 315              		.text
 316              		.section	.gnu.lto_chMtxUnlockS.10b44178ba0c2895,"",%progbits
 317 0000 789C9555 		.ascii	"x\234\225U\337k\034U\024>\347\336\231\235\331\231m\032"
 317      DF6B1C55 
 317      143EE7DE 
 317      999DD999 
 317      6D1A
 318 0012 906C1210 		.ascii	"\220l\022\020-}\021\014vh\253>\210\177F\203?\336\322"
 318      2D7D110C 
 318      7668AB3E 
 318      887F4683 
 318      3FDED2
 319 0025 49D80C76 		.ascii	"I\330\014v\223\220\037j)\245\223\260j\260A\203 \304"
 319      93901F6A 
 319      29A593B0 
 319      6AB04183 
 319      20C4
 320 0037 06B12186 		.ascii	"\006\261!\206@D\214Tl\252\211\244M\033\033\022\255>"
 320      40448C54 
 320      6CAA89A4 
ARM GAS  /tmp/ccP0xjSZ.s 			page 25


 320      4D1B1B12 
 320      AD3E
 321 0049 146D3791 		.ascii	"\024m7\2215\245\372\020\037\004\021J#\306s\177\314\354"
 321      35A5FA10 
 321      1F04114A 
 321      23C6737F 
 321      CCEC
 322 005b 6493A6EB 		.ascii	"d\223\246\353\205\275\367\316\314\375\276\357\234\357"
 322      85BDF7CE 
 322      CCFDBEEF 
 322      9CEF
 323 0069 9E7B9701 		.ascii	"\236{\227\001\203\312\3666\375\3226\300\024\215\230"
 323      83CAF636 
 323      FDD236C0 
 323      148D98
 324 0078 0164C3DF 		.ascii	"\001d\303\337\003\364\333\214\361/\256\000\204\216\263"
 324      03F4DB8C 
 324      F12FAE00 
 324      848EB3
 325 0087 EA4298E1 		.ascii	"\352B\230\341h\253\367\0063\325{K\2767Yj\360\011\361"
 325      68ABF706 
 325      33D57B4B 
 325      BE37596A 
 325      F009F1
 326 009a 24FA4C0A 		.ascii	"$\372L\012-\265\312R\313/\33363\206\276\025\313\323"
 326      2DB5CA52 
 326      CB2FDB36 
 326      3386BE15 
 326      CBD3
 327 00ac 058B16A4 		.ascii	"\005\213\026\244\321U\013\234h\342\"\212\011 \234a\334"
 327      D1550B9C 
 327      68E2228A 
 327      09209C61 
 327      DC
 328 00bd 3053969D 		.ascii	"0S\226\235v\\<\363\022\212\330\370A\030\013\303\367"
 328      765C3CF3 
 328      128AD8F8 
 328      41180BC3 
 328      F7
 329 00ce 4A13531B 		.ascii	"J\023S\033\370A8_8\037\376\263\265\205\030 \345q\004"
 329      F841385F 
 329      381FFEB3 
 329      B5851820 
 329      E57104
 330 00e1 C1477891 		.ascii	"\301Gx\221\036\360\200\034\230\261=1\205\235\277y\356"
 330      1EF0801C 
 330      98B13D31 
 330      859DBF79 
 330      EE
 331 00f2 9DC6F0FC 		.ascii	"\235\306\360\374\300p\370/A\003\344\014\236\255\022"
 331      C070F82F 
 331      4103E40C 
 331      9EAD12
 332 0101 79A9F86E 		.ascii	"y\251\370n\022i0x\356a\310\317\330|ikk\350\346\330\372"
 332      12693078 
 332      EE61C8CF 
 332      D87C696B 
ARM GAS  /tmp/ccP0xjSZ.s 			page 26


 332      6BE8E6D8 
 333 0116 28D63F8A 		.ascii	"(\326?\212\320\202\343x\220\202m\301\011\032\271\036"
 333      D082E378 
 333      90826DC1 
 333      091AB91E 
 334 0126 53348ED1 		.ascii	"S4\216\321ha\036\301\006\012\312\321_\\z03\032VK\017"
 334      68611EC1 
 334      060ACAD1 
 334      5F5C7A30 
 334      331A564B 
 335 013b A93AEAAC 		.ascii	"\251:\352\254,uP/f\015b\326(:j&\024\302p\370\200\"S"
 335      2C75502F 
 335      660D62D6 
 335      283A6A26 
 335      14C270F8 
 336 0152 18100152 		.ascii	"\030\020\001R;F\375\270\015\315\310h\340\337\301\300"
 336      3B46FDB8 
 336      0DCDC868 
 336      E0DFC1C0 
 337 0162 ED19F2B0 		.ascii	"\355\031\362\260\005'\321\204\034\246\232`*\244\366"
 337      0527D184 
 337      1CA69A60 
 337      2AA4F6
 338 0171 02F134C1 		.ascii	"\002\3614\301\223\001\332\243p\256?\014k\003L\237\202"
 338      9301DAA3 
 338      70AE3F0C 
 338      6B034C9F 
 338      82
 339 0182 FBE1A098 		.ascii	"\373\341\240\2309y\024T\"MG&w\034A\217z\002\202w\344"
 339      39791454 
 339      224D4726 
 339      771C418F 
 339      7A028277 
 340 0197 C2028F78 		.ascii	"\302\002\217xmI\306\211\214@n\016-\001\346\032\304\312"
 340      6D49C689 
 340      8C406E0E 
 340      2D01E61A 
 340      C4CA
 341 01a9 A0A56157 		.ascii	"\240\245aWAt\034\207)Q\005\312Pp\002\024))01K\334\375"
 341      41741C87 
 341      295105CA 
 341      50700214 
 341      29293031 
 342 01c0 854F86CE 		.ascii	"\205O\206\316\276Q\243\363\216\014\230_\376}\321\002"
 342      BE51A3F3 
 342      8E0C985F 
 342      FE7DD102 
 343 01d0 508CBE0A 		.ascii	"P\214\276\012.\207u\"\2210,\275\277xm\0009Y\247\265"
 343      2E877522 
 343      91302CBD 
 343      BF786D00 
 343      3959A7B5 
 344 01e4 4E06B82F 		.ascii	"N\006\270/\316\2662FC\320|N4\321\240r\\\335,m\276\\"
 344      CEB63246 
 344      43D07C4E 
 344      34D1A072 
 344      5CDD2C6D 
ARM GAS  /tmp/ccP0xjSZ.s 			page 27


 345 01fa A94AA198 		.ascii	"\251J\241\230\\,\234\226\262L\311f\225Li\355\255_~B"
 345      5C2C9C96 
 345      B24CC966 
 345      954C69ED 
 345      AD5F7E42 
 346 020e 4689C45A 		.ascii	"F\211\304Z\373\264\226\245\265\244\310\227J\344:\024"
 346      FBB496A5 
 346      B5A4C897 
 346      4AE43A14 
 347 021e FEF8F5EE 		.ascii	"\376\370\365\356\205\205x\207\352\210\251\\V\315\024"
 347      85857887 
 347      EA88A95C 
 347      56CD14
 348 022d 60C192DB 		.ascii	"`\301\222\3338rq\023\343}\237\220;\2560R\335)'i\354"
 348      38727113 
 348      E37D9F90 
 348      3BAE3052 
 348      DD292769 
 349 0242 6E680A92 		.ascii	"nh\012\222\264\006\320\351\344\017v\366\354\337o\246"
 349      B406D0E9 
 349      E40F76F6 
 349      ECDF6FA6 
 350 0252 85C0A5A4 		.ascii	"\205\300\245\244\263\365U:\213;\234\235SI\317U\353\354"
 350      B3F5553A 
 350      8B3B9C9D 
 350      5349CF55 
 350      EBEC
 351 0264 6CD2D986 		.ascii	"l\322\331\206\275\234\305\035\316^I8{\355\253;\250\222"
 351      BD9CC51D 
 351      CE5E4938 
 351      7BEDAB3B 
 351      A892
 352 0276 A0E88929 		.ascii	"\240\350\211)i\201\011\027\237\227\316N?\036-qe\031"
 352      69810917 
 352      9F97CE4E 
 352      3F1E2D71 
 352      6519
 353 0288 970D6C48 		.ascii	"\227\015lH\032hi\344u\270\372[\377\2071-\345\313\313"
 353      1A6869E4 
 353      75B8FA5B 
 353      FF87312D 
 353      E5CBCB
 354 029b B4C7C8E7 		.ascii	"\264\307\310\347\321\307x3\255\326\006\337\036\371z"
 354      D1C77833 
 354      ADD606DF 
 354      1EF97A
 355 02aa 235E9CD1 		.ascii	"#^\234\321\2165'\017\013\356vX\000n\001#j\003\2513\251"
 355      8E35270F 
 355      0BEE7658 
 355      006E0123 
 355      6A03A933 
 356 02bf 7353B36B 		.ascii	"sS\263k\237\242\010\334\006\2728\271\310\357\362\\\261"
 356      9FA208DC 
 356      06BA38B9 
 356      C8EFF25C 
 356      B1
 357 02d0 26A24EB0 		.ascii	"&\242N\260h8\201l\276Z\314\223\254\265\262\326w\013"
ARM GAS  /tmp/ccP0xjSZ.s 			page 28


 357      6838816C 
 357      BE5ACC93 
 357      ACB5B2D6 
 357      770B
 358 02e2 38D5095F 		.ascii	"8\325\011_)\236\316!\263$SZ\027\327\322\3147E\246\210"
 358      299ECE21 
 358      B324535A 
 358      17D7D2CC 
 358      3745A688 
 359 02f6 7480CF3C 		.ascii	"t\200\317<\260\216,}0y\274\217\203\343\356\216\362\271"
 359      B08E2C7D 
 359      3079BC8F 
 359      83E3EE8E 
 359      F2B9
 360 0308 3AC9CBE5 		.ascii	":\311\313\345\303\025\2421\336\307\305\206\247\222\333"
 360      C315A231 
 360      DEC7C586 
 360      A792DB
 361 0317 4812D9A4 		.ascii	"H\022\331\244\204-\240+q\255,M;-\270\274\355\322x\310"
 361      842DA02B 
 361      71AD2C4D 
 361      3B2DB8BC 
 361      EDD278C8 
 362 032b E1925812 		.ascii	"\341\222X\022\224\360\345?\037\331\006?]!\335\230\224"
 362      94F0E53F 
 362      1FD9063F 
 362      5D21DD98 
 362      94
 363 033c 4E27E075 		.ascii	"N'\340uJ}\365\343\331\246m\336\034U\004\273\334t\216"
 363      4A7DF5E3 
 363      D9A66DDE 
 363      1C5504BB 
 363      DC748E
 364 034f F626ABBC 		.ascii	"\366&\253\274\371y\375/\026mO\255,\255\362e\227\335"
 364      F979FD2F 
 364      166D4FAD 
 364      2CADF265 
 364      97DD
 365 0361 79D929B9 		.ascii	"y\331)\271\037\234J\261=\257UbVY\336[\337`\225\310="
 365      1F9C4AB1 
 365      3DAF5562 
 365      5659DE5B 
 365      DF6095C8 
 366 0376 E572C2B3 		.ascii	"\345r\302\263\033P(\015\335\320\222\000\361\177@\215"
 366      1B50280D 
 366      DDD09200 
 366      F17F408D 
 367 0386 8F46944C 		.ascii	"\217F\224L\200\373\2433\343\300G(\012f\346\336\035Q"
 367      80FBA333 
 367      E3C04728 
 367      0A66E6DE 
 367      1D51
 368 0398 3093D59B 		.ascii	"0\223\325\233R\326\227D\256\370w\372\021\372K\243^|"
 368      52D69744 
 368      AEF877FA 
 368      11FA4BA3 
 368      5E7C
ARM GAS  /tmp/ccP0xjSZ.s 			page 29


 369 03aa 8BE90384 		.ascii	"\213\351\003\204\364I\344\346y\355\235\3716\317\357"
 369      F449E4E6 
 369      79ED9DF9 
 369      36CFEF
 370 03b9 6C3DE9B5 		.ascii	"l=\351\265\266\275\352\371\355\301\361\240\263\307\353"
 370      B6BDEAF9 
 370      EDC1F1A0 
 370      B3C7EB
 371 03c8 EDEEEB78 		.ascii	"\355\356\353x\305\243Iw\257\327\323\355\323\373|\357"
 371      C5A34977 
 371      AFD7D3ED 
 371      D3FB7CEF 
 372 03d8 EB877CE0 		.ascii	"\353\207|\340~o\027?\221\357\262:\332^\353\352\016:"
 372      7E6F173F 
 372      91EFB23A 
 372      DA5EEBEA 
 372      0E3A
 373 03ea 8F56810F 		.ascii	"\217V\201\017:\374\023}\255m\232\243\035\236\376_\230"
 373      3AFC137D 
 373      AD6D9AA3 
 373      1D9EFE5F 
 373      98
 374 03fb 1EBFBD95 		.ascii	"\036\277\275\225@\377\001)\023*\273"
 374      40FF0129 
 374      132ABB
 375              		.text
 376              		.section	.gnu.lto_chMtxUnlockAll.10b44178ba0c2895,"",%progbits
 377 0000 789C9555 		.ascii	"x\234\225U]h\034U\024>\347\336\235\235\231\3356\215"
 377      5D681C55 
 377      143EE7DE 
 377      9D9D99DD 
 377      368D
 378 0012 2690DD3C 		.ascii	"&\220\335<\324\245\340\213\375\031\177\343kE\020|\350"
 378      D4A5E08B 
 378      FD197FE3 
 378      6B45107C 
 378      E8
 379 0023 8B69F0E7 		.ascii	"\213i\360\347E6\223ew\320M\342\356F\022E:\211[(\244"
 379      45369365 
 379      77D04DE2 
 379      EE461245 
 379      3A895B28 
 380 0038 D420156A 		.ascii	"\324 \025jEi\011y\021!\"\212UQ\203\251\215\333bm\355"
 380      45690979 
 380      1121228A 
 380      555183A9 
 380      8DDB626D 
 381 004d 8341AA6C 		.ascii	"\203A\252lP*\264\326F\003\266\246\266\361\334\237\231"
 381      502AB4D6 
 381      4603B6A6 
 381      B6F1DC9F 
 381      99
 382 005e EC6E7F36 		.ascii	"\354n\1776\016\354\235;w\356w\276\357~\347\314Y\006"
 382      0EEC9D3B 
 382      77EE77BE 
 382      EF7EE7CC 
 382      5906
ARM GAS  /tmp/ccP0xjSZ.s 			page 30


 383 0070 0C1AAF61 		.ascii	"\014\032\257a\372\025M\200\353t\3078 \2338\0110j1\306"
 383      FA154D80 
 383      EB74C738 
 383      209B3809 
 383      306A31C6 
 384 0084 0F1E03F0 		.ascii	"\017\036\003\360c\326\337&\370\3538\332b\035m\026\231"
 384      63D6DF26 
 384      F8EB38DA 
 384      621D6D16 
 384      99
 385 0095 EBA255A3 		.ascii	"\353\242U\243\322A\253\021\214\252\335F0\211\262\330"
 385      D241AB11 
 385      8CAADD46 
 385      3089B2D8 
 386 00a5 DE390133 		.ascii	"\3369\0013\313\002\026S\260GL\264\324{\013QL\000a\027"
 386      CB021653 
 386      B0474CB4 
 386      D47B0B51 
 386      4C006117 
 387 00b9 E376C488 		.ascii	"\343v\304\210\306L\013w=\215B\011\333\004\207}\377\365"
 387      C64C0B77 
 387      3D8D4209 
 387      DB04877D 
 387      FFF5
 388 00cb EAD41F17 		.ascii	"\352\324\037\027\360M\177\246|\310\377we\005\321CR}"
 388      F04D7FA6 
 388      7CC8FF77 
 388      6505D143 
 388      527D
 389 00dd 3F828BF0 		.ascii	"?\202\213\360\024=`J\336X\244\376\030\012;s\355\235"
 389      143D604A 
 389      DE58A4FE 
 389      180A3B73 
 389      ED9D
 390 00ef FD49FFD0 		.ascii	"\375I\377\320\330\204\177\235\240\036r\006]\315\220"
 390      D8847F9D 
 390      A01E7206 
 390      5DCD90
 391 00fe D36CA6BA 		.ascii	"\323l\246\272\262\262\367\362\305\205\213\330q\227\001"
 391      B2B2F7F2 
 391      C5858BD8 
 391      719701
 392 010d 693C8C9B 		.ascii	"i<\214\233\300\004\017#\026=L\322\203M\017\274E\254"
 392      C0040F23 
 392      163D4CD2 
 392      834D0FBC 
 392      45AC
 393 011f B489A19D 		.ascii	"\264\211\241\235\006#AC4I\003t\212\201.\003\312\276"
 393      06234143 
 393      34490374 
 393      8A812E03 
 393      CABE
 394 0131 3F915278 		.ascii	"?\221Rx\020\254t\355\244\361\274\011=\310\350\306\277"
 394      10AC74ED 
 394      A4F1BC09 
 394      3DC8E8C6 
 394      BF
ARM GAS  /tmp/ccP0xjSZ.s 			page 31


 395 0142 85B11F8F 		.ascii	"\205\261\037\217\320\361\3228\205\006d\321\330\014\357"
 395      D0F1D238 
 395      850664D1 
 395      D80CEF
 396 0151 FA743D49 		.ascii	"\372t=I\0216\303=\036\232o\301\301Q\337o\365\320z\031"
 396      1136C33D 
 396      1E9A6FC1 
 396      C151DF6F 
 396      F5D07A19 
 397 0165 96FD3D62 		.ascii	"\226\375=bf\347e$\241\335\226\212{\021\364]O\340$\214"
 397      66E76524 
 397      A1DD968A 
 397      7B11F45D 
 397      4FE0248C 
 398 0179 FDF9CFFE 		.ascii	"\375\371\317\376_\022Z\002\200\"\220F#\274\304E\336"
 398      5F125A02 
 398      80229046 
 398      23BCC445 
 398      DE
 399 018a B94AFE46 		.ascii	"\271J\376F\030\307\267\375\003\333=\214\005Q\343)1\013"
 399      18C7B7FD 
 399      03DB3D8C 
 399      0551E329 
 399      310B
 400 019c DFEFD3EF 		.ascii	"\337\357\323\357\327\251\330B\363\331\305\317;\003\315"
 400      D7A9D842 
 400      F3D9C5CF 
 400      3B03CD
 401 01ab A6141A21 		.ascii	"\246\024\032!\241\004]Og\020!\002AA}}\003\345\337G\327"
 401      A1045D4F 
 401      67102102 
 401      41417D7D 
 401      03E5DF47 
 402 01c0 8710B1A5 		.ascii	"\207\020\261\245\316\366\036\344P6QMm\240\232@\3013"
 402      CEF61EE4 
 402      5036514D 
 402      6DA09A40 
 402      C133
 403 01d2 7F699685 		.ascii	"\177i\226\2056NJ\033\303\223d\321\322n\275\320\224^"
 403      364E4A1B 
 403      C39364D1 
 403      D26EBDD0 
 403      945E
 404 01e4 C4BA72E9 		.ascii	"\304\272r\351\014O\343\007R\200-5s\005j\241H\002\304"
 404      0C4FE307 
 404      52802D35 
 404      73056AA1 
 404      4802C4
 405 01f7 3588AF82 		.ascii	"5\210\257\202*\247\342\012\242\231\036j\302\224\025"
 405      2AA7E20A 
 405      A2991E6A 
 405      C29415
 406 0206 1921DCF2 		.ascii	"\031!\334\362\354go\214\357n\011\355W\223\231\361_\177"
 406      EC676F8C 
 406      EF6E09ED 
 406      579399F1 
 406      5F7F
ARM GAS  /tmp/ccP0xjSZ.s 			page 32


 407 0218 33C50944 		.ascii	"3\305\011DDW%+\213\011\221X\337\257\376t\374\3531\344"
 407      4457252B 
 407      8B099158 
 407      DFAFFE74 
 407      FCEB31E4 
 408 022c 54449A6B 		.ascii	"TD\232k\304\303\015a\366\0335FD\230O\205\021\372\246"
 408      C4C30D61 
 408      F61B3546 
 408      44984F85 
 408      11FAA6
 409 023f F3726EE1 		.ascii	"\363rn\341\3523\215\254$\305\340b\343'\222\226)\332"
 409      EA338DAC 
 409      24C5E062 
 409      E3279296 
 409      29DA
 410 0251 A4A2A97E 		.ascii	"\244\242\251~\264\357\347\037\220\321AB\256\015\232"
 410      B4EFE71F 
 410      90D14142 
 410      AE0D9A
 411 0260 2BAAB924 		.ascii	"+\252\271$\311\227\212D\344qa\367_g0p2A\221j\323\030"
 411      C9978A44 
 411      E47161F7 
 411      5F673070 
 411      3241916A 
 412 0276 81B92EAE 		.ascii	"\201\271.\256\245\354\231\214\337\340\300\271\217\215"
 412      A5EC998C 
 412      DFE0C0B9 
 412      8F8D
 413 0284 F0CB08AC 		.ascii	"\360\313\010\254\220\037\007W\262:CY\307\022[kU\221"
 413      901F0757 
 413      B23A4359 
 413      C7125B6B 
 413      5591
 414 0296 E1C95AC3 		.ascii	"\341\311Z\303\243\002=\033\036\275\362~,\215_\255f\352"
 414      A3023D1B 
 414      1EBDF27E 
 414      2C8D5FAD 
 414      66EA
 415 02a8 BEA62792 		.ascii	"\276\246'\222X\"\224\360\023\213mu\360W\032\250;k\251"
 415      582294F0 
 415      138B6D75 
 415      F0571AA8 
 415      3B6BA9
 416 02bb CD1A7842 		.ascii	"\315\032xB\261\237\375\360\213\255i<\272\032\340a\025"
 416      B19FFDF0 
 416      8BAD693C 
 416      BA1AE061 
 416      15
 417 02cc E026E565 		.ascii	"\340&\345e\351JI\252\224\315/\315r\205\314bK\303\247"
 417      E94A49AA 
 417      94CD2FCD 
 417      7285CC62 
 417      4BC3A7
 418 02df 94BC452D 		.ascii	"\224\274E-W&\342\215d\267\255e\212\254pW\226\256\262"
 418      5726E28D 
 418      64B7AD65 
 418      8AAC7057 
ARM GAS  /tmp/ccP0xjSZ.s 			page 33


 418      96AEB2
 419 02f2 46E46DE9 		.ascii	"F\344m\351\262B\356wP\256\316\277\246)\001\302F\324"
 419      B242EE77 
 419      50AECEBF 
 419      A62901C2 
 419      46D4
 420 0304 EAEA8F98 		.ascii	"\352\352\217\230\240\036\336\021\224\200\001\225\016"
 420      A01EDE11 
 420      94800195 
 420      0E
 421 0311 510247E6 		.ascii	"Q\002G\346/_`u\237O3SV\371e\240\250\350\003\262\230"
 421      2F5F6075 
 421      9F4F3353 
 421      56F965A0 
 421      A8E803B2 
 422 0326 0E2C9F60 		.ascii	"\016,\237`A\363h[s\277\211\207\220\033\372\315N\352"
 422      41F3685B 
 422      73BF8987 
 422      901BFACD 
 422      4EEA
 423 0338 76F4C784 		.ascii	"v\364\307\204=\224\314\262\356\303\313K!G\273\344\270"
 423      3D94CCB2 
 423      EEC3CB4B 
 423      2147BBE4 
 423      B8
 424 0349 F3E61C76 		.ascii	"\363\346\034vM\"D\325M\325U\335-@1mT\273\260\363\325"
 424      4D2244D5 
 424      4DD555DD 
 424      2D40316D 
 424      54BBB0F3 
 425 035e EAF9E978 		.ascii	"\352\371\351x\320\310B;\333\\U\315\364\367\321\036X"
 425      D0C8423B 
 425      DB5C55CD 
 425      F4F7D11E 
 425      58
 426 036f 60897F89 		.ascii	"`\211\177\211\265t\3634\276Gf\312\356-\241\272{\247"
 426      B574F334 
 426      BE4766CA 
 426      EE2DA1BA 
 426      7BA7
 427 0381 711A37AA 		.ascii	"q\0327\252`\247at\361\373kF\210\325> 1\210\255\216\223"
 427      60A76174 
 427      F1FB6B46 
 427      88D53E20 
 427      3188AD8E 
 428 0396 1BC8671C 		.ascii	"\033\310g\034w\240o\304\351\313\274\350\2709\257\327"
 428      77A06FC4 
 428      E9CBBCE8 
 428      B839AFD7 
 429 03a6 1B283AA5 		.ascii	"\033(:\245\302P\377s\016M\012%\247Xpi=_\032\336\346"
 429      C250FF73 
 429      0E4D0A25 
 429      A7587069 
 429      3D5F1ADE 
 430 03bb 02774B83 		.ascii	"\002wK\203,?\270\275\031,3\\r\036\335\321\375x\267\343"
 430      2C3FB8BD 
 430      192C335C 
ARM GAS  /tmp/ccP0xjSZ.s 			page 34


 430      721EDDD1 
 430      FD78B7E3 
 431 03cf F5BBCF0F 		.ascii	"\365\273\317\017\365\211\275\205\314\263n\376\261\241"
 431      F589BD85 
 431      CCB36EFE 
 431      B1A1
 432 03dd 7E775B0E 		.ascii	"~w[\016Zwt?\221\352M\0273\203\005oK\352\356{\201\025"
 432      5A77743F 
 432      91EA4D17 
 432      3383056F 
 432      4BEAEE7B 
 433 03f3 C0CC67F2 		.ascii	"\300\314g\362\003\205\021x`\015\232\302\250RW\016\036"
 433      03851178 
 433      600D9AC2 
 433      A852570E 
 433      1E
 434 0404 FC5F98A2 		.ascii	"\374_\230\242\233\353#\320\177\244\015\015W"
 434      9BEB23D0 
 434      7FA40D0D 
 434      57
 435              		.text
 436              		.section	.gnu.lto_.symbol_nodes.10b44178ba0c2895,"",%progbits
 437 0000 789C4DCA 		.ascii	"x\234M\312;\012\302`\020\004\340\231\177\0235\017\365"
 437      3B0AC260 
 437      1004E099 
 437      7F13350F 
 437      F5
 438 0011 04F1AA9B 		.ascii	"\004\361\252\2332`\343\005T\320+x\002\305F\301J\261"
 438      3260E305 
 438      54D02B78 
 438      02C546C1 
 438      4AB1
 439 0023 B190C427 		.ascii	"\261\220\304'\250 X\0061\0221\3776\3037\263\006\006"
 439      A8205806 
 439      311231FF 
 439      36C337B3 
 439      0606
 440 0035 6DA23C93 		.ascii	"m\242<\223S\201\336\012P\355'to\305\2400)\225\277v\220"
 440      5381DE0A 
 440      50ED2774 
 440      6FC5A030 
 440      2995BF76 
 441 004a D01CA8C6 		.ascii	"\320\034\250\306bF\025\213G\252c\361Du-\236\2515\213"
 441      6246158B 
 441      47AA63F1 
 441      44752D9E 
 441      A9358B
 442 005d 176ADDE2 		.ascii	"\027j\335\342\225\332\250\310\007\325+\031\307\344\235"
 442      95DAA8C8 
 442      07D52B19 
 442      C7E49D
 443 006c EA577A52 		.ascii	"\352WzR\203J/j\370\227H\200\331v\343\210\370\310\206"
 443      834A2F6A 
 443      F8974880 
 443      D976E388 
 443      F8C886
 444 007f 9B481CC1 		.ascii	"\233H\034\301h\377\246\270@:iI\015\230\356#\251\207"
ARM GAS  /tmp/ccP0xjSZ.s 			page 35


 444      68FFA6B8 
 444      403A6949 
 444      0D98EE23 
 444      A987
 445 0091 C896EB48 		.ascii	"\310\226\353H\032\305\3677\275\000\343E\276\023\361"
 445      1AC5F737 
 445      BD00E345 
 445      BE13F1
 446 00a0 9AC8BAF3 		.ascii	"\232\310\272\363\016>zCU~"
 446      0E3E7A43 
 446      557E
 447              		.text
 448              		.section	.gnu.lto_.refs.10b44178ba0c2895,"",%progbits
 449 0000 789C6362 		.ascii	"x\234cb`b\020e\200\000F bd\006bv \346\000bN\240\020"
 449      60621065 
 449      80004620 
 449      62640662 
 449      7620E600 
 450 0018 00045D00 		.ascii	"\000\004]\000?"
 450      3F
 451              		.text
 452              		.section	.gnu.lto_.decls.10b44178ba0c2895,"",%progbits
 453 0000 789CBD5B 		.ascii	"x\234\275[\013p\024\307\231\236\231]\355j%\361\360\003"
 453      0B7014C7 
 453      999E995D 
 453      ED6A25F1 
 453      F003
 454 0012 C7AEBA2A 		.ascii	"\307\256\272*\226T|\345r*\026\257\304\370\352\316\340"
 454      96547CE5 
 454      722A16AF 
 454      C4F8EACE 
 454      E0
 455 0023 F35D59A9 		.ascii	"\363]Y\251\330>b\316\225T%\251\315\260;B\033\366\345"
 455      D83E62CE 
 455      955425A9 
 455      CDB03B42 
 455      1BF6E5
 456 0036 D911A0BA 		.ascii	"\331\021\240\272\272\362HB\262\303\201,$\220\201\022"
 456      BAF24842 
 456      B2C3812C 
 456      24908112 
 457 0046 20D9918F 		.ascii	" \331\221\217\330\011\0056 \203\221Y\233\207@\012\240"
 457      D8090536 
 457      20839159 
 457      9B87400A 
 457      A0
 458 0057 F03CC011 		.ascii	"\360<\300\021r\034\260\211\355\030#\036\306\200\366"
 458      721CB089 
 458      ED18231E 
 458      C680F6
 459 0066 FEEEE9D9 		.ascii	"\376\356\351\331\355\036\315\214f\024\222-uO\317L\367"
 459      ED1ECD8C 
 459      6614922D 
 459      754FCF4C 
 459      F7
 460 0077 D7DFFFE8 		.ascii	"\327\337\377\350\356\351\177F\002'p\027\275\034\227"
 460      EEE97F46 
ARM GAS  /tmp/ccP0xjSZ.s 			page 36


 460      02277017 
 460      BD1C97
 461 0086 85DF47FF 		.ascii	"\205\337G\377\314q\333|\034W\304q\334\243\220<\220\332"
 461      CC71DB7C 
 461      1C57C471 
 461      DCA3903C 
 461      90DA
 462 0098 21BD0169 		.ascii	"!\275\001i\013\247\375\306@\372\011\317q\022\244\371"
 462      0BA7FDC6 
 462      40FA09CF 
 462      7112A4F9 
 463 00a8 909290D2 		.ascii	"\220\222\220\322\220\252 \3757\244jHu\220~\011i\031"
 463      90AA20FD 
 463      37A46A48 
 463      75907E09 
 463      6919
 464 00ba A4E5905A 		.ascii	"\244\345\220Z \301\037\267\212\347\230\037\302\011\020"
 464      20C11FB7 
 464      8AE7981F 
 464      C20910
 465 00c9 EC3228FF 		.ascii	"\3542(\377\014R\033\244\325\220.Az\006\322\017!m\205"
 465      0C521BA4 
 465      D5902E41 
 465      7A06D20F 
 465      216D85
 466 00dc FB0590D6 		.ascii	"\373\005\220\326Cy\023\244\247!=\001i6\301E8\002\034"
 466      437913A4 
 466      A7213D01 
 466      6936C145 
 466      38021C
 467 00ef E7F2C3FB 		.ascii	"\347\362\303\373@<Q\333A8\376\023\205\211\372\004\261"
 467      403C51DB 
 467      4138FE13 
 467      8589FA04 
 467      B1
 468 0100 B927A1FC 		.ascii	"\271'\241\374\030\244Y\004W m.\023\354\250\001\017\311"
 468      18A45904 
 468      57206D2E 
 468      13ECA801 
 468      0FC9
 469 0112 FC0DC279 		.ascii	"\374\015\302y,\244\022\202\355\347\264\372e\0262d8M"
 469      2CA41282 
 469      EDE7B4FA 
 469      65163264 
 469      384D
 470 0124 8E76A2DB 		.ascii	"\216v\242\333\231\220\276\011\327o@j \334nBZ\302k\230"
 470      9990BE09 
 470      D76F406A 
 470      20DC6E42 
 470      5AC26B98 
 471 0138 B4ACBBE0 		.ascii	"\264\254\273\340|\002\034\273\340\370\016\244IP~\200"
 471      7C021CBB 
 471      E0F80EA4 
 471      49507E80 
 472 0148 D7B8EB7A 		.ascii	"\327\270\353z( \334n!\031\004M\367\310\006`N.N\364R"
 472      2820DC6E 
 472      2119044D 
ARM GAS  /tmp/ccP0xjSZ.s 			page 37


 472      F7C80660 
 472      4E2E4EF4 
 473 015d 04D78B21 		.ascii	"\004\327\213!\225@\032#\260r%\011\306X\270\276\033\216"
 473      95401A23 
 473      B0722509 
 473      C658B8BE 
 473      1B8E
 474 016f E3E17827 		.ascii	"\343\341x'\244r\"\277@\352\314'zy\316\240\2274eKdG\032"
 474      A47222BF 
 474      40EACC27 
 474      7A79CEA0 
 474      9734654B 
 475 0186 47D7C15D 		.ascii	"G\327\301]P\376)i\217\344\362py\337\371\011\271\276"
 475      50FE2969 
 475      8FE4F270 
 475      79DFF909 
 475      B9BE
 476 0198 D0805B45 		.ascii	"\320\200[Ed\370\031\261\231\025\226\300\2618\377e\300"
 476      64F819B1 
 476      991596C0 
 476      B138FF65 
 476      C0
 477 01a9 41BE79B7 		.ascii	"A\276y\267\301n\272]\374\304n\203\006\333\031e@\366"
 477      C16EBA5D 
 477      FCC46E83 
 477      06DB1965 
 477      40F6
 478 01bb 4376BA5B 		.ascii	"Cv\272[\320\306D\023\224\213)[\315&\366x\222\370\323"
 478      D0C64413 
 478      948B295B 
 478      CD26F678 
 478      92F8D3
 479 01ce 8F88ED90 		.ascii	"\217\210\355\220\315\272\010\317\002\302e\002`\334\007"
 479      CDBA08CF 
 479      02C26502 
 479      60DC07
 480 01dd 69A2A08D 		.ascii	"i\242\240\215\021\304\377y\023\377E\343i\274K\3364W"
 480      11C4FF79 
 480      13FF45E3 
 480      69BC4BDE 
 480      3457
 481 01ef DDBF46C3 		.ascii	"\335\277F\303\263\332\300s\031\341Yk\302\023\215\371"
 481      B3DAC073 
 481      19E1596B 
 481      C2138DF9 
 482 01ff 09263CCB 		.ascii	"\011&<\313\310\330\260\323\355VbW\232/\222\357~\270"
 482      C8D8B0D3 
 482      ED566257 
 482      9A2F92EF 
 482      7EB8
 483 0211 576FE0AE 		.ascii	"Wo\340\256\373\273\316\235\346\254\313\341\323\371\030"
 483      FBBBCE9D 
 483      E6ACCBE1 
 483      D3F918
 484 0220 B85BCD43 		.ascii	"\270[\315C\001\356EU\255Q\007:\324{W\001\367\037\363"
 484      01EE4555 
 484      AD51073A 
ARM GAS  /tmp/ccP0xjSZ.s 			page 38


 484      D47B5701 
 484      F71FF3
 485 0233 223F36C0 		.ascii	"\"?6\300\025\342BI\0007\271\237\373\225\2526\016\354"
 485      15E24249 
 485      0037B99F 
 485      FB95AA36 
 485      0EEC
 486 0245 3DFF8947 		.ascii	"=\377\211GU\013E\276\235\017\200*~\300s\017r\277V\341"
 486      550B45BE 
 486      9D0F802A 
 486      7EC0730F 
 486      72BF56E1 
 487 0259 0EB4FFB6 		.ascii	"\016\264\377\266\001\325%\364\265\372\337~\033Cw`h\225"
 487      01D525F4 
 487      B5FADF7E 
 487      1B437760 
 487      6895
 488 026b E73991FF 		.ascii	"\3479\221\377\025\377\240k\240\315K\326\315\300@\033"
 488      15FFA06B 
 488      A0CD4BD6 
 488      CDC0401B 
 489 027b 30509701 		.ascii	"0P\227\001H\344\371\000\315\020\237\353\025\020\032"
 489      48E4F900 
 489      CD109FEB 
 489      15101A
 490 028a BE4D0A59 		.ascii	"\276M\012YV\246\333Z\027K\244\252m\365j\331\376\274"
 490      56A6DB5A 
 490      174BA4AA 
 490      6DF56AD9 
 490      FEBC
 491 029c 44415D22 		.ascii	"DA]\"/\245\365\217\211\326\337\300\022u\233\251\306"
 491      2FA5F58F 
 491      89D6DFC0 
 491      12759BA9 
 491      C6
 492 02ad 11D0B57D 		.ascii	"\021\320\265}{6\3635\252\01276b\250\203\243\206\332"
 492      7B36F335 
 492      AA0A3736 
 492      62A883A3 
 492      86DA
 493 02bf DCD3A969 		.ascii	"\334\323\251iy3\006:>L\313>\203\226}\2546\340\024\365"
 493      7933063A 
 493      3E4CCB3E 
 493      83967DAC 
 493      36E014F5 
 494 02d3 F4155A77 		.ascii	"\364\025Zw\371\347\311\025t\342\347\376\356\355\212"
 494      F9E7C915 
 494      74E2E7FE 
 494      EEED8A
 495 02e2 B925C8B7 		.ascii	"\271%\310\2674\251\357\344\226\243\212AJ\3766\257\256"
 495      34A9EFE4 
 495      96A38A41 
 495      4AFE36AF 
 495      AE
 496 02f3 807FCB2B 		.ascii	"\200\177\313+ \333\260\247\235\257\305\272\334\312\337"
 496      20DBB0A7 
 496      9DAFC5BA 
ARM GAS  /tmp/ccP0xjSZ.s 			page 39


 496      DCCADF
 497 0302 092A5825 		.ascii	"\011*X%\260*\030\021H\340\332q\223\267\241\271\326\020"
 497      B02A1811 
 497      48E0DA71 
 497      93B7A1B9 
 497      D610
 498 0314 43AB039D 		.ascii	"C\253\003\235\315\375\325|5\206F\3678\006\226\371M\342"
 498      CDFDD57C 
 498      358646F7 
 498      380696F9 
 498      4DE2
 499 0326 DA8079E6 		.ascii	"\332\200y\346F\375\332\373\324\266\367\241\376\026\276"
 499      46FDDAFB 
 499      D4B6F7A1 
 499      FE16BE
 500 0335 18700772 		.ascii	"\030p\007r\270f\026$E\355G*\260xC\373J\032E\035\354"
 500      B8661624 
 500      45ED472A 
 500      B07843FB 
 500      4A1A451D 
 501 034a 63D76041 		.ascii	"c\327`A\006\254\271\273\025\223##\330\201ou\350\376"
 501      06ACB9BB 
 501      15932323 
 501      D8816F75 
 501      E8FE
 502 035c 9EC1BEF5 		.ascii	"\236\301\276\365\027\301t*p\342\357\365{\337#\376\276"
 502      17C1742A 
 502      70E2EFF5 
 502      7BDF23FE 
 502      BE
 503 036d 1B435D1D 		.ascii	"\033C]\0355\324\346%;\037\301\234\366a\240\254`\364"
 503      35D4E625 
 503      3B1FC19C 
 503      F661A0AC 
 503      60F4
 504 037f 77BFC1DF 		.ascii	"w\277\301\337\375\254\377\371\003\371\002r\273q\334"
 504      FDACFFF9 
 504      03F90272 
 504      BB71DC
 505 038e DFB8BAC0 		.ascii	"\337\270\272\300-\36180\\\241\225\027\250\003\333\232"
 505      2DF13830 
 505      5CA19517 
 505      A803DB9A 
 506 039e CFF1ABD5 		.ascii	"\317\361\253\325\314b\017\361\3446\237\225\216\004n"
 506      CC620FF1 
 506      E4369F95 
 506      8E046E
 507 03ad 39EEABD7 		.ascii	"9\356\253\327\350\311\203k>\257!\236\334\353\310\223"
 507      E8C9836B 
 507      3EAF219E 
 507      DCEBC893 
 508 03bd 3B7B5FC6 		.ascii	";{_\306\3162\342\220\364\351\375Gp\377Gq\377}\306\376"
 508      CE32E290 
 508      F4E9FD47 
 508      70FF4771 
 508      FF7DC6FE 
 509 03d1 B3FD576B 		.ascii	"\263\375WkI\377}\216\372?{x\305\360\376E\376\321\011"
ARM GAS  /tmp/ccP0xjSZ.s 			page 40


 509      49FF7D8E 
 509      FA3F7B78 
 509      C5F0FE45 
 509      FED109
 510 03e4 76BE31B8 		.ascii	"v\2761\270\246\373\022\351\345\030\0362k\275F\357\230"
 510      A6FB12E9 
 510      E5181E32 
 510      6BBD46EF 
 510      98
 511 03f5 59CCDA0F 		.ascii	"Y\314\332\017\316\251\012\002\367\232W\347?\252\021"
 511      CEA90A02 
 511      F79A57E7 
 511      3FAA11
 512 0404 3B905D77 		.ascii	";\220]w\263\231o\252U\367O\3269\274\356\0321\310h\342"
 512      B3996FAA 
 512      55F74FD6 
 512      39BCEE1A 
 512      31C868E2 
 513 0418 D2613C07 		.ascii	"\322a<\007h`\033\235\200Y\272RM\3462\015\366\246k0\226"
 513      68601B9D 
 513      8059BA52 
 513      4DE6320D 
 513      F6A66B30 
 514 042d D9551A6C 		.ascii	"\331U\032l\233\023\260\361\326\314\276\242\301v\270"
 514      9B13B0F1 
 514      D6CCBEA2 
 514      C176B8
 515 043c 0663997D 		.ascii	"\006c\231}M\203\275\353\004\354^kf7i\260\367]\203\261"
 515      4D83BDEB 
 515      04EC5E6B 
 515      663769B0 
 515      F75D83B1 
 516 0450 CC8668B0 		.ascii	"\314\206h\260}N\300\202\326\314\032\217P`=\256\301X"
 516      7D4EC082 
 516      D6CC1A8F 
 516      50603DAE 
 516      C158
 517 0462 664D34D8 		.ascii	"fM4\330!'`\017X3[A\203\035q\015\3062k\241\301N8\001"
 517      2127600F 
 517      58335B41 
 517      831D710D 
 517      C6326BA1 
 518 047a 9B6CCD6C 		.ascii	"\233l\315l\025\015v\3325\030\313l\015\015\326\357\004"
 518      150D76DA 
 518      3518CB6C 
 518      0D0DD6EF 
 518      04
 519 048b 6C8635B3 		.ascii	"l\2065\263V\032\354\217\256\301Xf\233h\260\363N\300"
 519      561AEC8F 
 519      AEC15866 
 519      9B68B0F3 
 519      4EC0
 520 049d 6659337B 		.ascii	"fY3{\223\006\273\340\032\214e\266\205\006\373\314\011"
 520      9306BBE0 
 520      1A8C65B6 
 520      8506FBCC 
 520      09
ARM GAS  /tmp/ccP0xjSZ.s 			page 41


 521 04ae 589935B3 		.ascii	"X\2315\263m4\330\027\256\301Xfo\323`\227\234\200\315"
 521      6D34D817 
 521      AEC15866 
 521      6FD36097 
 521      9C80CD
 522 04c1 B666B683 		.ascii	"\266f\266\203\006\273\342\032\214e\266\223\006\373\312"
 522      06BBE21A 
 522      8C65B693 
 522      06FBCA
 523 04d0 09D88FAD 		.ascii	"\011\330\217\255\231\275K\203\335t\015\3062\353\243"
 523      99BD4B83 
 523      DD740DC6 
 523      32EBA3
 524 04df C1D40207 		.ascii	"\301\324\002\007`?7a\226\373\231\265C\313\364a>\267"
 524      603F3761 
 524      96FB99B5 
 524      43CBF461 
 524      3EB7
 525 04f1 6E0B5C6D 		.ascii	"n\013\\m\201\376\214\343r\215\346\362\030/\024\270}"
 525      81FE8CE3 
 525      728DE6F2 
 525      182F14B8 
 525      7D
 526 0502 2663E486 		.ascii	"&c\344\206\255\301\371v\276Y[\347\265\307\363eN\020"
 526      ADC1F976 
 526      BE595BE7 
 526      B5C7F365 
 526      4E10
 527 0514 6D16C035 		.ascii	"m\026\3005\335\324\263\376J\327`\006WF`\314\263Sn\337"
 527      DDD4B3FE 
 527      4AD76006 
 527      574660CC 
 527      B3536EDF 
 528 0528 9EB1DFB7 		.ascii	"\236\261\337\267\243\020\202@m\362\3575\257+\362\313"
 528      A3108240 
 528      6DF2EF35 
 528      AF2BF2CB 
 529 0538 85FB216F 		.ascii	"\205\373!o\022\0029\026ZY/eq\220fm\201Y4\002\003\330"
 529      12023916 
 529      5A592F65 
 529      7190666D 
 529      81593402 
 530 054e 37B5F284 		.ascii	"7\265\362\204\227\004\312\023^q\242&\233\245\375lw\353"
 530      9704CA13 
 530      5E71A226 
 530      9BA5FD6C 
 530      77EB
 531 0560 37D4810C 		.ascii	"7\324\201\014\257\307Q~m\304cd\036yu\277\332]\274\351"
 531      AFC7517E 
 531      6DC46364 
 531      1E7975BF 
 531      DA5DBCE9 
 532 0574 E7CE2324 		.ascii	"\347\316#$\035z\024g\225\200z\337\\`|Z\355p\031\"\021"
 532      1D7A1467 
 532      95807ADF 
 532      5C607C5A 
 532      ED701922 
ARM GAS  /tmp/ccP0xjSZ.s 			page 42


 533 0589 B8EDAE25 		.ascii	"\270\355\256%x\300\340\327{\232\370\301\032u\325d\347"
 533      78C0E0D7 
 533      7B9AF8C1 
 533      1A75D564 
 533      E7
 534 059a 629CD3C5 		.ascii	"b\234\323\305X\213\305x\3576\210q\300\265\030\223)1"
 534      588BC578 
 534      EF368871 
 534      C0B51893 
 534      2931
 535 05ac D0CEFD4A 		.ascii	"\320\316\375J\2236<\357\342\232\354\367L\210\317+\302"
 535      93363CEF 
 535      E29AECF7 
 535      4C88CF2B 
 535      C2
 536 05bd 5DCC7E25 		.ascii	"]\314~%s\252\207\017j\227G\332\252\250\231k=\255d\323"
 536      73AA870F 
 536      6A9747DA 
 536      AAA8996B 
 536      3DAD64D3 
 537 05d1 AF8585FA 		.ascii	"\257\205\205\3720w\324\326\345\364D\360V\364\342\211"
 537      3077D4D6 
 537      E5F444F0 
 537      56F4E289 
 538 05e1 40033BF9 		.ascii	"@\003;\371W\201\325d\336\372\037=\"1\023\007$\376J\270"
 538      5781D564 
 538      DEFA1F3D 
 538      22311307 
 538      24FE4AB8 
 539 05f5 DFF7BA8D 		.ascii	"\337\367\272\215!\324\375Y\217\231a\347\370x\230s\354"
 539      21D4FD59 
 539      8F9961E7 
 539      F8789873 
 539      EC
 540 0606 363A8793 		.ascii	"6:\207\223-\365\340h\345\310\375\004\356k'\223G\320"
 540      2DF5E068 
 540      E5C8FD04 
 540      EE6B2793 
 540      47D0
 541 0618 D24E039D 		.ascii	"\322N\003\235G\257\021\037\033q_\256\207\252\016\355"
 541      47AF111F 
 541      1B715FAE 
 541      87AA0EED 
 542 0628 ABE617E3 		.ascii	"\253\346\027\343\375\351f\001\205\252\206\014\332p\260"
 542      FDE96601 
 542      85AA860C 
 542      DA70B0
 543 0637 C15FE643 		.ascii	"\301_\346CM\266\010\303BU\007\365P\025\272\347`\203"
 543      4DB608C3 
 543      425507F5 
 543      5015BAE7 
 543      6083
 544 0649 CF84AA44 		.ascii	"\317\204\252D~'/\020\334\321j\2241b\236\240\310o\303"
 544      7E272F10 
 544      DCD16A94 
 544      31629EA0 
 544      C86FC3
ARM GAS  /tmp/ccP0xjSZ.s 			page 43


 545 065c 2B45A730 		.ascii	"+E\2470\211\326\376Z\237[\355\007i\355gn\364\266\362"
 545      89D6FE5A 
 545      9F5BED07 
 545      69ED676E 
 545      F4B6F2
 546 066f 88BF494C 		.ascii	"\210\277ILb\026\275~\347\242\204\207\226\023\325\357"
 546      6216BD7E 
 546      E7A28487 
 546      9613D5EF 
 547 067f C0AAFF5F 		.ascii	"\300\252\377_\237\271\352gY\001\011\\'n\3225L\365G\217"
 547      9FB9EA67 
 547      5901095C 
 547      276ED235 
 547      4CF5478F 
 548 0693 E9AAEF72 		.ascii	"\351\252\357r\244\372\343\246\252\357r\257z\202w\"\037"
 548      A4FAE3A6 
 548      AAEF72AF 
 548      7A827722 
 548      1F
 549 06a4 2514F977 		.ascii	"%\024\371w]\203\005\355\354\330E\331q\027\266c\006\354"
 549      5D8305ED 
 549      ECD845D9 
 549      7117B663 
 549      06EC
 550 06b6 28F2EFB1 		.ascii	"(\362\357\261\326\334o\264&\243:R\264\334/\252\231\346"
 550      D6DC6FB4 
 550      26A33A52 
 550      B4DC2FAA 
 550      99E6
 551 06c8 43EC1C7A 		.ascii	"C\354\034z\324\211w\330\354\362\326\035\322\346P<\347"
 551      D48977D8 
 551      ECF2D61D 
 551      D2E6503C 
 551      E7
 552 06d9 9C720D16 		.ascii	"\234r\015\026d\300\272\032\326:\212\205\251<\375d&p"
 552      64C0BA1A 
 552      D63A8A85 
 552      A93CFD64 
 552      2670
 553 06eb 7FC2FD1E 		.ascii	"\177\302\375\0360\372\313\326k}/\020\1779\340\300_`"
 553      30FACBD6 
 553      6B7D2F10 
 553      7F39E0C0 
 553      5F60
 554 06fd 81391750 		.ascii	"\2019\027P\233Jt\307]\347\327QmTm\343-7.\034\3401\234"
 554      9B4A74C7 
 554      5DE7D751 
 554      6D546DE3 
 554      2D372E1C 
 555 0714 F6A4F99A 		.ascii	"\366\244\371\232\021n\304\007a\026nH\332?\331\235b\264"
 555      116EC407 
 555      61166E48 
 555      DA3FD99D 
 555      62B4
 556 0726 119939B3 		.ascii	"\021\2319\263\035-\261G\260L\033\375\306UA\323\014\345"
 556      1D2DB147 
 556      B04C1BFD 
ARM GAS  /tmp/ccP0xjSZ.s 			page 44


 556      C65541D3 
 556      0CE5
 557 0738 88072847 		.ascii	"\210\007(G\354\305\216\370;\354\210\207p\336G\273\243"
 557      ECC58EF8 
 557      3BEC8887 
 557      70DE47BB 
 557      A3
 558 0749 D52AFF7B 		.ascii	"\325*\377{\372\321q\233k\271\203\006\353Xu\263\237\356"
 558      FAD1719B 
 558      6BB98306 
 558      EB5875B3 
 558      9FEE
 559 075b A6CBEFC0 		.ascii	"\246\313\357\300\367\254\203\0020\257\037o\326\367\031"
 559      F7AC8302 
 559      30AF1F6F 
 559      D6F719
 560 076a 5A14BEDB 		.ascii	"Z\024\276\3335\"\353\315_60O\004G\234\300\3152!h\366"
 560      3522EBCD 
 560      5F36304F 
 560      04479CC0 
 560      CD322168 
 561 077f A3DFA180 		.ascii	"\243\337\241\200\277\362\310L\357\360\310@]8\337\205"
 561      BFF2C84C 
 561      EFF0C840 
 561      5D38DF85 
 562 078f F31E9C2F 		.ascii	"\363\036\234/\301\206[\212\363\006\234\257\304\371\313"
 562      C1865B8A 
 562      F3069CAF 
 562      C4F9CB
 563 079e 386FC579 		.ascii	"8o\305y;\3167\341|;\316w\343|/\316\273q~\022\347\247"
 563      3BCE37E1 
 563      7C3BCE77 
 563      E37C2FCE 
 563      BB717E12 
 564 07b4 9C388036 		.ascii	"\2348\2006C\346\334l\"\267N\315\\\034\2702\264\377\007"
 564      43E6DC6C 
 564      22B74ECD 
 564      5C1CB832 
 564      B4FF07
 565 07c7 2DB535FB 		.ascii	"-\2655\373\325\213\350\341\342"
 565      D58BE8E1 
 565      E2
 566 07d0 1E6E255E 		.ascii	"\036n%^\007\352a\200*\205\334\013\370\031\270N\255\346"
 566      07EA6180 
 566      2A85DC0B 
 566      F819B84E 
 566      ADE6
 567 07e2 9F1B69D3 		.ascii	"\237\033i\323$\362\177\020\012Q\270\277\320r\313\203"
 567      24F27F10 
 567      0A51B8BF 
 567      D072CB83 
 568 07f2 2AE804B5 		.ascii	"*\350\004\265\262^\262\331\361| \334\203K\036\374\316"
 568      B25EB2D9 
 568      F17C20DC 
 568      834B1EFC 
 568      CE
 569 0803 9BF8B1C8 		.ascii	"\233\370\261\310?\353\311\001\013\\c!;\200\276\305\275"
ARM GAS  /tmp/ccP0xjSZ.s 			page 45


 569      3FEBC901 
 569      0B5C6321 
 569      3B80BEC5 
 569      BD
 570 0814 AAAA4DEA 		.ascii	"\252\252M\352\215H\231V]\340:p\2153\302D\323~r\203\343"
 570      8D489956 
 570      5DE03A70 
 570      8D33C244 
 570      D37E7283 
 571 0829 1FB90ED4 		.ascii	"\037\271\016\324\360\363\272\272\3619\216L3Fx\302\360"
 571      F0F3BABA 
 571      F1398E4C 
 571      334678C2 
 571      F0
 572 083a 4381F988 		.ascii	"C\201\371\210\003\351\265m \363&\354A\253\007\262\331"
 572      03E9B56D 
 572      20F326EC 
 572      41AB07B2 
 572      D9
 573 084b 898C4A2D 		.ascii	"\211\214J-c\370\010\350\274\003Q7\230\213\232\325E\025"
 573      63F808E8 
 573      BC035137 
 573      988B9AD5 
 573      4515
 574 085d F98F04B4 		.ascii	"\371\217\004\264\004\236s$\252\252.S\261\250\217N\300"
 574      049E7324 
 574      AAAA2E53 
 574      B1A88F4E 
 574      C0
 575 086e F7502BC6 		.ascii	"\367P+\306d\237\014\227m\340b\346\335\036\"\233\306"
 575      649F0C97 
 575      6DE062E6 
 575      DD1E229B 
 575      C6
 576 087f 59E0DE36 		.ascii	"Y\340\3366gu\305\310\352\323Q\261\372\324\310\3523S"
 576      6775C5C8 
 576      EAD351B1 
 576      FAD4C8EA 
 576      3353
 577 0891 8D7FDD6D 		.ascii	"\215\177\335m`\265\333\234\325\240\221\325\027\243b"
 577      60B5DB9C 
 577      D5A091D5 
 577      17A362
 578 08a0 F58591D5 		.ascii	"\365\205\221\325EsV\207\315\375\0009\227\225#\\v\340"
 578      45735687 
 578      CDFD0039 
 578      9795235C 
 578      76E0
 579 08b2 0807CD85 		.ascii	"\010\007\315\205\273n\024n\320\221p5F\237\037\264\367"
 579      BB6E146E 
 579      D0917035 
 579      469F1FB4 
 579      F7
 580 08c3 F9ABA67E 		.ascii	"\371\253\246~q\351\210&\353\372Y\232\014\002wz\204\221"
 580      71E98826 
 580      EBFA599A 
 580      0C02777A 
ARM GAS  /tmp/ccP0xjSZ.s 			page 46


 580      8491
 581 08d5 A9B3BC3E 		.ascii	"\251\263\274>:\226\327\355Y~mj\221\025'\014~\362\211"
 581      3A96D7ED 
 581      597E6D6A 
 581      9115270C 
 581      7EF289
 582 08e8 39C96B46 		.ascii	"9\311kF\222\267F\345'\267\214~2d\312\252\357\264\201"
 582      92B746E5 
 582      27B78C7E 
 582      3264CAAA 
 582      EFB481
 583 08fb D5658706 		.ascii	"\325e\207\006\256\366\214\206\025j\305\260\252\361\230"
 583      AEF68C86 
 583      156AC5B0 
 583      AAF198
 584 090a B1BAD8EF 		.ascii	"\261\272\330\357z\026\253\367\334CJ\272\277\012\\u\200"
 584      7A16ABF7 
 584      DC434ABA 
 584      BF0A5C75 
 584      80
 585 091b 9525474A 		.ascii	"\225%GJ\335\240zr\234\352\214\234^\030\316i\240\021"
 585      DDA07A72 
 585      9CEA8C9C 
 585      5E18CE69 
 585      A011
 586 092d 6DF6EAF9 		.ascii	"m\366\352\371\345\265mfK\226-\263%\036\303\260j\307"
 586      E5B56D66 
 586      4B962DB3 
 586      251EC3B0 
 586      6AC7
 587 093f 91187629 		.ascii	"\221\030v)\031\306T\253\272\324\214J\346\255\323\015"
 587      19C654AB 
 587      BAD48C4A 
 587      E6ADD30D 
 588 094f F7A9ED35 		.ascii	"\367\251\3555\231lv\246\221\007Zm\255\2104\030\211h"
 588      996C76A6 
 588      91075A6D 
 588      AD883418 
 588      8968
 589 0961 4B334364 		.ascii	"K3Cd\235\005\221FS\"\333\327,\265\"b\243\220&3\036\271"
 589      9D059146 
 589      5322DBD7 
 589      2CB52262 
 589      A3902633 
 590 0977 9337B4D0 		.ascii	"\2237\264\320\204\201\327\353\026\274V\232\362\332q"
 590      8481D7EB 
 590      16BC569A 
 590      F2DA71
 591 0986 7AA9CAEB 		.ascii	"z\251\312\353~\215<\003\366\221\026\000/\263\000\337"
 591      7E8D3C03 
 591      F6911600 
 591      2FB300DF 
 592 0996 E4DA1140 		.ascii	"\344\332\021@\366\345\026\036\004S\325\241l\326l\267"
 592      F6E5161E 
 592      0453D5A1 
 592      6CD66CB7 
 593 09a6 DBE6D185 		.ascii	"\333\346\321\205\232\316Q\333\335\277\350\037\305\254"
ARM GAS  /tmp/ccP0xjSZ.s 			page 47


 593      9ACE51DB 
 593      DDBFE81F 
 593      C5AC
 594 09b4 F6A027EC 		.ascii	"\366\240'\354\375\206>G\004\022\270c\270I\253gX\244"
 594      FD863E47 
 594      0412B863 
 594      B849AB67 
 594      58A4
 595 09c6 616F1DD9 		.ascii	"ao\035\331\276\240{#o_\326\236\260\334\251\017\3446"
 595      BEA07B23 
 595      6F5FD69E 
 595      B0DCA90F 
 595      E436
 596 09d8 06FF4071 		.ascii	"\006\377@q?t\374C\302\275\015s\357\037\231;\013$p\237"
 596      3F74FC43 
 596      C2BD0D73 
 596      EF1F993B 
 596      0B24709F 
 597 09ec E226AF0E 		.ascii	"\342&\257\016\347~l1\341\376\252#\356G\217h\334\365"
 597      E77E6C31 
 597      E1FEAA23 
 597      EE478F68 
 597      DCF5
 598 09fe CDD7F51C 		.ascii	"\315\327\365\034\356\3506_\307\264\327%\332\223|u\221"
 598      EEE8365F 
 598      C7B4D725 
 598      DA937C75 
 598      91
 599 0a0f 01CCD5D6 		.ascii	"\001\314\325\326K\315\374\237\006\326\213\277zz\321"
 599      4BCDFC9F 
 599      06D68BBF 
 599      7A7AD1
 600 0a1e 35589061 		.ascii	"5X\220av\266\211\375t\251\301\011\236\315\353\214\213"
 600      76B689FD 
 600      74A9C109 
 600      9ECDEB8C 
 600      8B
 601 0a2f 47A8D719 		.ascii	"G\250\327\031-\256\301XrWi\260uN\300\314\202\376f?\332"
 601      2DAEC158 
 601      725769B0 
 601      754EC0CC 
 601      82FE663F 
 602 0a44 4944BEC3 		.ascii	"ID\276\303\203v,\257y\320\216b\003\316_\307\371op\276"
 602      83762CAF 
 602      79D08E62 
 602      03CE5FC7 
 602      F96F70BE 
 603 0a58 11E79B3C 		.ascii	"\021\347\233<L\344cC\221>JL]q$\227P3[\255\207\207\331"
 603      4CE46343 
 603      913E4A4C 
 603      5D712497 
 603      50335BAD 
 604 0a6f BE1986F6 		.ascii	"\276\031\206\366\271j\276N\213\364\341\341\261\261h"
 604      B96ABE4E 
 604      8BF4E1E1 
 604      B1B168
 605 0a7e C4E1618C 		.ascii	"\304\341a\214L\354\301M:\207\015\217\243\267\364\257"
ARM GAS  /tmp/ccP0xjSZ.s 			page 48


 605      4CECC14D 
 605      3A870D8F 
 605      A3B7F4AF 
 606 0a8e 743A1D0C 		.ascii	"t:\035\014\217\232\314\365\227\234EF\332r\375\337M\011"
 606      8F9ACCF5 
 606      979C4546 
 606      DA72FDDF 
 606      4D09
 607 0aa0 72A85F0F 		.ascii	"r\250_\017\311\355\304\202\234\031Y\020\026\010\306"
 607      C9EDC482 
 607      9C195910 
 607      1608C6
 608 0aaf 396EB26B 		.ascii	"9n\262k\270 \237\353\202\354r$\310\366\227t\357\177"
 608      B8209FEB 
 608      82EC7224 
 608      C8F69774 
 608      EF7F
 609 0ac1 C7835F8B 		.ascii	"\307\203_\213\346pm|\314\322\2505\231\035\332g\036\032"
 609      E6706D7C 
 609      CCD2A835 
 609      991DDA67 
 609      1E1A
 610 0ad3 D8E262B7 		.ascii	"\330\342b\267`\254\367w\035v\033t\3176l{\020\007\335"
 610      60ACF777 
 610      1D761B74 
 610      CF366C7B 
 610      1007DD
 611 0ae6 BB3D68A2 		.ascii	"\273=h\242YZ|[\202\356-N\344\260\016\025\201U\276 \261"
 611      595A7C5B 
 611      82EE2D4E 
 611      E4B00E15 
 611      8155BE20 
 612 0afb 0CC65F9C 		.ascii	"\014\306_\234\257\326\007\215\253\365L\303C\203\255"
 612      AFD6078D 
 612      ABF54CC3 
 612      4383AD
 613 0b0a 4A3EA826 		.ascii	"J>\250&\237 \376\016[e\275A)\206/\315P_\226\201$O\261"
 613      9F20FE0E 
 613      5B65BD41 
 613      29862FCD 
 613      505F9681 
 614 0b21 85470DBB 		.ascii	"\205G\015\273\007\023\204k\2551\326\007\255]~U\217\000"
 614      0713846B 
 614      AD31D607 
 614      AD5D7E55 
 614      8F00
 615 0b33 E188CD26 		.ascii	"\341\210\315&'\200f3\263\331\217\036<\"\377\036\236"
 615      27806633 
 615      B3D98F1E 
 615      3C22FF1E 
 615      9E
 616 0b44 FFDEC7F3 		.ascii	"\377\336\307\363\334\036\234\357\303y/\316\217\3223"
 616      DC1E9CEF 
 616      C3792FCE 
 616      8FD233
 617 0b53 9F956E90 		.ascii	"\237\225n\220\313\347\335\314#\220yft\303\350f~\030"
 617      CBE7DDCC 
ARM GAS  /tmp/ccP0xjSZ.s 			page 49


 617      23907966 
 617      74C3E866 
 617      7E18
 618 0b65 89FC5ED7 		.ascii	"\211\374^\327`\214\"3\313\217\3501f4*D\276\307\011\236"
 618      608C2233 
 618      CB8FE831 
 618      66342A44 
 618      BEC7099E 
 619 0b79 4DE4937C 		.ascii	"M\344\223|b\243\015\261\316b\336%X\320\316(\235\224"
 619      62A30DB1 
 619      CE62DE25 
 619      58D0CE28 
 619      9D94
 620 0b8b 51B663A3 		.ascii	"Q\266c\243\354\300&8\216\363\0238?\311.D\273\213\015"
 620      ECC02638 
 620      8EF31338 
 620      3FC92E44 
 620      BB8B0D
 621 0b9e 0B113BE9 		.ascii	"\013\021;\351\233\255\213\264~\324\314N\330\025\212"
 621      9BAD8BB4 
 621      7ED4CC4E 
 621      D8158A
 622 0bad CE5F657D 		.ascii	"\316_e}\254\277\312:\203'\357\236b\323\311\333\356U"
 622      ACBFCA3A 
 622      8327EF9E 
 622      62D3C9DB 
 622      EE55
 623 0bbf D629DCA4 		.ascii	"\326)\334\244\177\370C\3329\375!\255\177\344\311{qm"
 623      7FF843DA 
 623      39FD21AD 
 623      7FE4C97B 
 623      716D
 624 0bd1 666BF36B 		.ascii	"fk\363k\371U\25067\202\033\205\200\245\2272_\021\\\310"
 624      F955A836 
 624      37821B85 
 624      80A59732 
 624      5F115CC8 
 625 0be5 F170E9A5 		.ascii	"\361p\351\245\346\266\353\247l7\200m\367!k\251A\243"
 625      E6B6EBA7 
 625      6C37806D 
 625      F7216BA9 
 625      41A3
 626 0bf7 A5CCFAB3 		.ascii	"\245\314\372\263\374\036N\315\234<\2419\262S[\235\335"
 626      FC1E4ECD 
 626      9C3CA139 
 626      B2535B9D 
 626      DD
 627 0c08 F5E5C378 		.ascii	"\365\345\303x58\217-\365z\211KK!\241.\030\254\224\031"
 627      35388F2D 
 627      F57A894B 
 627      4B21A12E 
 627      18AC9419 
 628 0c1c 9482DA55 		.ascii	"\224\202\332U\007_\305\237\303o\034\234/_{?\"\357\214"
 628      075FC59F 
 628      C36F1C9C 
 628      2F5F7B3F 
 628      22EF8C
ARM GAS  /tmp/ccP0xjSZ.s 			page 50


 629 0c2f 3FC363EB 		.ascii	"?\303c\353\235\222\333\262|\355\3060\027n\227\231/P"
 629      9D92DBB2 
 629      7CEDC630 
 629      176E9799 
 629      2F50
 630 0c41 66FE3336 		.ascii	"f\37636\363\247\254\231{J\034\230\331\354\035\226y\177"
 630      F3A7AC99 
 630      7B4A1C98 
 630      D9EC1D96 
 630      797F
 631 0c53 AD547FEB 		.ascii	"\255T\177\353p\177\353\3614\360\026\316O\343\374\034"
 631      707FEBF1 
 631      34F016CE 
 631      4FE3FC1C 
 632 0c63 CBE0604E 		.ascii	"\313\340`Nq\246[<\204\372e~\317iX\000W[\020G\255.\345"
 632      71A65B3C 
 632      84FA657E 
 632      CF695800 
 632      575B1047 
 633 0c7a 277943AB 		.ascii	"'yC\253\035\026/TpD-\337\212\204\336;\233\273O\342\257"
 633      1D162F54 
 633      70442DDF 
 633      8A84DE3B 
 633      9BBB4FE2 
 634 0c8f A57120A3 		.ascii	"\245q \243\255\320\371\243\300\025\343\243\300\240g"
 634      ADD0F9A3 
 634      C015E3A3 
 634      C0A067
 635 0c9e 5800A1CF 		.ascii	"X\000\241\317\3407$~tT*\323\252\303\023'\256q\3312~"
 635      E037247E 
 635      74542AD3 
 635      AAC31327 
 635      AE71D932 
 636 0cb3 44189350 		.ascii	"D\030\223P\315\031u\366\275\271P\315ec\250\346\032\273"
 636      CD1975F6 
 636      BDB950CD 
 636      6563A8E6 
 636      1ABB
 637 0cc5 7B37E8A5 		.ascii	"{7\350\245\301\346q\342\206\2456\227\330\264\272i\324"
 637      C1E671E2 
 637      86A53697 
 637      D8B4BA69 
 637      D4
 638 0cd6 6666D71F 		.ascii	"ff\327\037\373<\350\377\004\324l\366\371IZ\227\002w"
 638      FB3CE8FF 
 638      04D46CF6 
 638      F9495A97 
 638      0277
 639 0ce8 D65C09C7 		.ascii	"\326\\\011\307\221\022\264\375\324\347\270\306-K%l\341"
 639      9112B4FD 
 639      D4E7B8C6 
 639      2D4B256C 
 639      E1
 640 0cf9 E9F8E395 		.ascii	"\351\370\343\225?\315.\323\257Y\267\"\034\207\206\207"
 640      3FCD2ED3 
 640      AF59B722 
 640      1C878687 
ARM GAS  /tmp/ccP0xjSZ.s 			page 51


 641 0d09 4410CFB3 		.ascii	"D\020\317\263-0\177\241P\315.u\222\213`M\255\327.XC"
 641      2D307FA1 
 641      50CD2E75 
 641      928B604D 
 641      ADD72E58 
 642 0d1e 6C65F081 		.ascii	"le\360\201\2136>\240\305\234T/z\014\250\361\332\212"
 642      8B363EA0 
 642      C59C542F 
 642      7A0CA8F1 
 642      DA8A
 643 0d30 4F9AADDD 		.ascii	"O\232\255\335W\322\310\353\276v\335c\337\320\306yP#"
 643      57D2C8EB 
 643      BE76DD63 
 643      DFD0C679 
 643      5023
 644 0d42 C679EABD 		.ascii	"\306y\352\275\214\242\202\334z\230\007\033\325:\301"
 644      8CA282DC 
 644      7A98071B 
 644      D53AC1
 645 0d51 FC15C0DF 		.ascii	"\374\025\300\337\372\376\035\\#\266\311\254Uc\265/\362"
 645      FAFE1D5C 
 645      23B6C9AC 
 645      5563B52F 
 645      F2
 646 0d62 8884E375 		.ascii	"\210\204\343u\011\005\302\273\301{\007.1\377\257\206"
 646      0905C2BB 
 646      C17B072E 
 646      31FFAF86 
 647 0d72 6B58AEBC 		.ascii	"kX\256\274\336\374W\177%\201|\201g\273\016\032z\236"
 647      DEFC577F 
 647      25817C81 
 647      67BB0E1A 
 647      7A9E
 648 0d84 A1D7F313 		.ascii	"\241\327\363\023\234F\327=/\267\350\331Gz6\214=\024"
 648      9C46D73D 
 648      2FB7E8D9 
 648      477A368C 
 648      3D14
 649 0d96 83B6826A 		.ascii	"\203\266\202j\362Z\215\330\017lZ5[\266j\262\031\347"
 649      F25A8DD8 
 649      0F6C5A35 
 649      5BB66AB2 
 649      19E7
 650 0da8 2BBCC659 		.ascii	"+\274\306Ys\353\265\257&\376\346MU\375\245:\224}\276"
 650      73EBB5AF 
 650      26FEE64D 
 650      55FDA53A 
 650      947DBE
 651 0dbb 7AF163FA 		.ascii	"z\361c\372\253\206\2321\326\276N\307\313WZ\272,\373"
 651      AB869A31 
 651      D6BE4EC7 
 651      CB575ABA 
 651      2CFB
 652 0dcd AAE1D407 		.ascii	"\252\341\324\007\310e\3657\015T+\2637\015-^\223\241"
 652      C865F537 
 652      0D542BB3 
 652      370D2D5E 
ARM GAS  /tmp/ccP0xjSZ.s 			page 52


 652      93A1
 653 0ddf 0E13FC1F 		.ascii	"\016\023\374\037\350\011\376E\257\213w@k\214\303\335"
 653      E809FE45 
 653      AF8B7740 
 653      6B8CC3DD 
 654 0def 648A6F31 		.ascii	"d\212o1\027\371\214>\305\353\243t\265\243QZ\243\236"
 654      17F98C3E 
 654      C5EBA374 
 654      B5A3515A 
 654      A39E
 655 0e01 61445E6D 		.ascii	"aD^m/r\253\231\310\231fz\026v\021\022os n\207\271\270"
 655      2F72AB99 
 655      C899667A 
 655      16761112 
 655      6F73206E 
 656 0e18 378CE2AE 		.ascii	"7\214\342\256w(.;\231[\265\"\004_\361\332-p\3656.\334"
 656      77282E3B 
 656      995BB522 
 656      045FF1DA 
 656      2D70F536 
 657 0e2e 917761AE 		.ascii	"\221wa\256\254\264\"\031\227J\303\311HUiDZP\032\256"
 657      ACB42219 
 657      974AC3C9 
 657      48556944 
 657      5A501AAE 
 658 0e42 88CE8D26 		.ascii	"\210\316\215&\323\245\212\\\231\230_\012\005Y)M%e%]"
 658      D3A58A5C 
 658      99985F0A 
 658      0559294D 
 658      2565255D 
 659 0e56 FAD8334F 		.ascii	"\372\3303O=\376\324\"\250\031OEc\222\234.}\342\361\307"
 659      3DFED422 
 659      A8194F45 
 659      63929C2E 
 659      7DE2F1C7 
 660 0e6a A1BA5295 		.ascii	"\241\272R\225\222\322\017Up\205JZ\021\025)\244\370\236"
 660      92D20F55 
 660      70854A5A 
 660      111529A4 
 660      F89E
 661 0e7c 78FAD9E0 		.ascii	"x\372\331\340\343\334\267J+\323r\251(\307\277\223H&"
 661      E3DCB74A 
 661      2BD372A9 
 661      28C7BF93 
 661      4826
 662 0e8e A4EF48E2 		.ascii	"\244\357H\342\334hi4\021\216UF\244\322\264\022\211&"
 662      DC686934 
 662      118E5546 
 662      A4D2B412 
 662      8926
 663 0ea0 1468E4AF 		.ascii	"\024h\344\257\204\343\214\2202\335\246r\\\004N\011\251"
 663      84E38C90 
 663      32DDA672 
 663      5C044E09 
 663      A9
 664 0eb1 341491CA 		.ascii	"4\024\221\312\305\312\230\022\322{\014\204B\244yA<="
 664      C5CA9812 
ARM GAS  /tmp/ccP0xjSZ.s 			page 53


 664      D27B0C84 
 664      42A47941 
 664      3C3D
 665 0ec3 2FA4F8E1 		.ascii	"/\244\370\341d\332\324\220\002\327Ii\206\003\341\364"
 665      64DAD490 
 665      02D74969 
 665      8603E1F4 
 666 0ed3 6EC215E9 		.ascii	"n\302\025\351\252t^\230\012Y\022#\200\025\256\010i\345"
 666      AA745E98 
 666      0A591223 
 666      8015AE08 
 666      69E5
 667 0ee5 E9EEB0C2 		.ascii	"\351\356\260\302\025\021\300\361\245B\011i\221\002\207"
 667      1511C0F1 
 667      A5420969 
 667      910287
 668 0ef4 942C2DF0 		.ascii	"\224,-\360+)9\232\014)\205\225\204_\221&\001*\342*\321"
 668      2B29399A 
 668      0C298595 
 668      845F9126 
 668      012AE22A 
 669 0f09 A43F9C4C 		.ascii	"\244?\234L(\320\342\021\327f\251\010'e\011\272,F\227"
 669      28D0E211 
 669      D766A908 
 669      276509BA 
 669      2C4697
 670 0f1c 9102C2CA 		.ascii	"\221\002\302\312\242\177\031\035Jh\301\303q\244\004"
 670      A27F191D 
 670      4A68C1C3 
 670      71A404
 671 0f2b 599A0726 		.ascii	"Y\232\007&\011)\236\364\224\357Az\030\322\014H\217x"
 671      09299EF4 
 671      94EF417A 
 671      18D20C48 
 671      8F78
 672 0f3d D2532743 		.ascii	"\322S'C\232\002i*\244i\220\246C\372.$\2507\025\352M"
 672      9A02692A 
 672      A46990A6 
 672      43FA2E24 
 672      A83715EA 
 673 0f52 857A53A1 		.ascii	"\205zS\241\3364\2507m\212 O\027\344\357\012\362\367"
 673      DE34A837 
 673      6D8A204F 
 673      17E4EF0A 
 673      F2F7
 674 0f64 04F96141 		.ascii	"\004\371aA\236!\310\217x\344)\223!M\021b2\034\246\025"
 674      9E21C88F 
 674      78E42993 
 674      214D1162 
 674      321CA615 
 675 0f78 A442C0D6 		.ascii	"\244B\300\326\217\224\265P\222\341\230\214E$\331\033"
 675      8F94B550 
 675      92E1988C 
 675      4524D91B 
 676 0f88 AE1065A4 		.ascii	"\256\020e\244A1.\3015\354^~%\236\214\200\223\301yyL"
 676      41312EC1 
 676      35EC5E7E 
ARM GAS  /tmp/ccP0xjSZ.s 			page 54


 676      259E8C80 
 676      93C17979 
 677 0f9d 9C97F6   		.ascii	"\234\227\366"
 678 0fa0 2BB2549E 		.ascii	"+\262T\236\306\352C\005\237\034\251\002_(\224\026E\025"
 678      C6EA4305 
 678      9F1CA902 
 678      5F289416 
 678      4515
 679 0fb2 905AF22D 		.ascii	"\220Z\362-T\222s\177\221*\226\026H\011%.\246\347CMi"
 679      5492737F 
 679      912A9616 
 679      4809252E 
 679      A6E7434D 
 680 0fc7 212A7852 		.ascii	"!*xR\241\312\261\232e\323\241X4\015n5.gk\355J \025Z"
 680      A1CAB19A 
 680      65D3A158 
 680      340D6E35 
 680      2E676BED 
 681 0fdf 28469568 		.ascii	"(F\225hb\3368\375\362s\225R%\364>\236\252\211/\025\245"
 681      62DE38FD 
 681      F2739552 
 681      25F43E9E 
 681      AA892F15 
 682 0ff4 42D02D2E 		.ascii	"B\320-.\026\340\"\\\220RR\002"
 682      16E0225C 
 682      90525202 
 683 1000 DC7C5E41 		.ascii	"\334|^A\274\022,:\315\225\373\304\225Eht\3045t8&\027"
 683      BC122C3A 
 683      CD95FBC4 
 683      95456874 
 683      C4357438 
 684 1016 26403118 		.ascii	"&@1\030\011D\210c\257\002~P\0171-B\322\2131\354@p1\225"
 684      09448863 
 684      AF027E50 
 684      0F312D42 
 684      D28B31EC 
 685 102e 4CC64A1D 		.ascii	"L\306J\035\364\227\226\303\244\2570W\020\372Whuw\270"
 685      F49796C3 
 685      A4AF3057 
 685      10FA5768 
 685      7577B8
 686 1041 E22965D1 		.ascii	"\342)e\321\177\312UO&\303\363\347<\224\022e\345\241"
 686      7FCA554F 
 686      26C3F3E7 
 686      3C941265 
 686      E5A1
 687 1053 C9423C35 		.ascii	"\311B<5\016_\377\217\271\277\220\302\312\367\023Q\245"
 687      0E5FFF8F 
 687      B9BF90C2 
 687      CAF71351 
 687      A5
 688 1064 089FE34A 		.ascii	"\010\237\343J\201\\\261\204n<\206A*\306g\317&b\271j"
 688      815CB184 
 688      6E3C8641 
 688      2AC667CF 
 688      2662B96A 
 689 1078 5A79CE58 		.ascii	"Zy\316X\352\344\261X\014Z\315\011W<\221\234\023\223"
ARM GAS  /tmp/ccP0xjSZ.s 			page 55


 689      EAE4B158 
 689      0C5ACD09 
 689      573C919C 
 689      1393
 690 108a A4146A05 		.ascii	"\244\024j\005g\317\200\232\253\276_\202\313?\022\347"
 690      67CF809A 
 690      ABBE5F82 
 690      CB3F12E7 
 691 109a 4B95A939 		.ascii	"K\225\2519\343\311\015\030eR\2442&\241\232!4|\245\270"
 691      E3C90D18 
 691      6552A432 
 691      26A19A21 
 691      347CA5B8 
 692 10ae 3664B572 		.ascii	"6d\265r\011\262P\025\261.@\207\362\347~YS\255O\306\303"
 692      09B25015 
 692      B12E4087 
 692      F2E77E59 
 692      53AD4FC6 
 693 10c3 AE40C60E 		.ascii	"\256@\306\016(\023\007\2245\007\014\300\325JY\006\327"
 693      28130794 
 693      35070CC0 
 693      D54A5906 
 693      D7
 694 10d4 299051A3 		.ascii	")\220Q\243\011\013\242\262R)\306BJ4\016\023 \001\276"
 694      090BA2B2 
 694      5229C642 
 694      4A340E13 
 694      2001BE
 695 10e7 07804D6E 		.ascii	"\007\200Mn\214c\256i>\303\\\362/P\260\031\321\021\315"
 695      8C63AE69 
 695      3EC35CF2 
 695      2F50B019 
 695      D111CD
 696 10fa 0E01441A 		.ascii	"\016\001D\032n\300\374\000W\"RL\021\241P^\231\010\207"
 696      6EC0FC00 
 696      5722524C 
 696      11A1505E 
 696      990887
 697 110d 701D54F2 		.ascii	"p\035T\362\241\272\242\\\014\207\230\230VPu\270\204"
 697      A1BAA25C 
 697      0C879898 
 697      565075B8 
 697      84
 698 111e BA1B4BC4 		.ascii	"\272\033K\304\217Hs+\347i\276L_\011\244\304D4\214<\323"
 698      8F48732B 
 698      E769BE4C 
 698      5F09A4C4 
 698      44348C3C 
 699 1133 13993B6F 		.ascii	"\023\231;o\252+gT\320d0^\211\207\302b,:W\026\225h2\001"
 699      AA2B6754 
 699      D064305E 
 699      8987C262 
 699      2C3A5716 
 700 114b 9464259C 		.ascii	"\224d%\234\000\361}\311\362\362\264\244\010J\\\010W"
 700      00F17DC9 
 700      F2F2B4A4 
 700      084A5C08 
ARM GAS  /tmp/ccP0xjSZ.s 			page 56


 700      57
 701 115c 14690324 		.ascii	"\024i\003$\012.\342Q\236K\215\321N#\022>\012J\352\016"
 701      0A2EE251 
 701      9E4B8DD1 
 701      4E23123E 
 701      0A4AEA0E 
 702 1170 ED029E06 		.ascii	"\355\002\236\006\243\211\264$+wa\007\370!\272\374tR"
 702      A389B424 
 702      2B776107 
 702      F821BAFC 
 702      7452
 703 1182 F9F7784A 		.ascii	"\371\367xJ\251\2323V\253\225H\002}8'\215\312\243\345"
 703      A99A3356 
 703      AB954802 
 703      7D38278D 
 703      CAA3E5
 704 1195 49B0603C 		.ascii	"I\260`<\271@\372\177\273\001\357\351"
 704      B940FA7F 
 704      BB01EFE9 
 705              		.text
 706              		.section	.gnu.lto_.symtab.10b44178ba0c2895,"",%progbits
 707 0000 63684D74 		.ascii	"chMtxObjectInit\000\000\000\000\000\000\000\000\000"
 707      784F626A 
 707      65637449 
 707      6E697400 
 707      00000000 
 708 0018 00000065 		.ascii	"\000\000\000e\001\000\000chMtxLockS\000\000\000\000"
 708      01000063 
 708      684D7478 
 708      4C6F636B 
 708      53000000 
 709 002d 00000000 		.ascii	"\000\000\000\000\000\000\000\000k\001\000\000chMtxL"
 709      00000000 
 709      6B010000 
 709      63684D74 
 709      784C
 710 003f 6F636B00 		.ascii	"ock\000\000\000\000\000\000\000\000\000\000\000\000"
 710      00000000 
 710      00000000 
 710      000000
 711 004e 6F010000 		.ascii	"o\001\000\000chMtxTryLock\000\000\000\000\000\000\000"
 711      63684D74 
 711      78547279 
 711      4C6F636B 
 711      00000000 
 712 0065 00000000 		.ascii	"\000\000\000\000\000s\001\000\000chMtxTryLockS\000\000"
 712      00730100 
 712      0063684D 
 712      74785472 
 712      794C6F63 
 713 007d 00000000 		.ascii	"\000\000\000\000\000\000\000\000\000\000y\001\000\000"
 713      00000000 
 713      00007901 
 713      0000
 714 008b 63684D74 		.ascii	"chMtxUnlock\000\000\000\000\000\000\000\000\000\000"
 714      78556E6C 
 714      6F636B00 
ARM GAS  /tmp/ccP0xjSZ.s 			page 57


 714      00000000 
 714      00000000 
 715 00a0 00007D01 		.ascii	"\000\000}\001\000\000chMtxUnlockS\000\000\000\000\000"
 715      00006368 
 715      4D747855 
 715      6E6C6F63 
 715      6B530000 
 716 00b7 00000000 		.ascii	"\000\000\000\000\000\000\000\201\001\000\000chMtxUn"
 716      00000081 
 716      01000063 
 716      684D7478 
 716      556E
 717 00c9 6C6F636B 		.ascii	"lockAll\000\000\000\000\000\000\000\000\000\000\000"
 717      416C6C00 
 717      00000000 
 717      00000000 
 717      0000
 718 00db 00850100 		.ascii	"\000\205\001\000\000ch\000\000\002\000\000\000\000\000"
 718      00636800 
 718      00020000 
 718      000000
 719 00ea 00000000 		.ascii	"\000\000\000\000\230\001\000\000chSchGoSleepS\000\000"
 719      98010000 
 719      63685363 
 719      68476F53 
 719      6C656570 
 720 0101 02000000 		.ascii	"\002\000\000\000\000\000\000\000\000\000\211\001\000"
 720      00000000 
 720      00008901 
 720      00
 721 010e 00636853 		.ascii	"\000chSchReadyI\000\000\002\000\000\000\000\000\000"
 721      63685265 
 721      61647949 
 721      00000200 
 721      00000000 
 722 0123 0000008D 		.ascii	"\000\000\000\215\001\000\000chSchWakeupS\000\000\002"
 722      01000063 
 722      68536368 
 722      57616B65 
 722      75705300 
 723 0139 00000000 		.ascii	"\000\000\000\000\000\000\000\000\000\221\001\000\000"
 723      00000000 
 723      00910100 
 723      00
 724 0146 63685363 		.ascii	"chSchRescheduleS\000\000\002\000\000\000\000\000\000"
 724      68526573 
 724      63686564 
 724      756C6553 
 724      00000200 
 725 015f 00000096 		.ascii	"\000\000\000\226\001\000\000"
 725      010000
 726              		.text
 727              		.section	.gnu.lto_.opts,"",%progbits
 728 0000 272D6D63 		.ascii	"'-mcpu=cortex-m4' '-mfloat-abi=hard' '-mfpu=fpv4-sp"
 728      70753D63 
 728      6F727465 
 728      782D6D34 
ARM GAS  /tmp/ccP0xjSZ.s 			page 58


 728      2720272D 
 729 0033 2D643136 		.ascii	"-d16' '-mno-thumb-interwork' '-mthumb' '-O2' '-fomi"
 729      2720272D 
 729      6D6E6F2D 
 729      7468756D 
 729      622D696E 
 730 0066 742D6672 		.ascii	"t-frame-pointer' '-falign-functions=16' '-ffunction"
 730      616D652D 
 730      706F696E 
 730      74657227 
 730      20272D66 
 731 0099 2D736563 		.ascii	"-sections' '-fdata-sections' '-fno-common' '-flto' "
 731      74696F6E 
 731      73272027 
 731      2D666461 
 731      74612D73 
 732 00cc 272D6673 		.ascii	"'-fsingle-precision-constant'\000"
 732      696E676C 
 732      652D7072 
 732      65636973 
 732      696F6E2D 
 733              		.text
 734              		.section	.text.chMtxObjectInit,"ax",%progbits
 735              		.align	2
 736              		.p2align 4,,15
 737              		.global	chMtxObjectInit
 738              		.thumb
 739              		.thumb_func
 740              		.type	chMtxObjectInit, %function
 741              	chMtxObjectInit:
 742              		@ args = 0, pretend = 0, frame = 0
 743              		@ frame_needed = 0, uses_anonymous_args = 0
 744              		@ link register save eliminated.
 745 0000 0023     		movs	r3, #0
 746 0002 4060     		str	r0, [r0, #4]
 747 0004 0060     		str	r0, [r0]
 748 0006 8360     		str	r3, [r0, #8]
 749 0008 7047     		bx	lr
 750              		.size	chMtxObjectInit, .-chMtxObjectInit
 751 000a 00BFAFF3 		.section	.text.chMtxLockS,"ax",%progbits
 751      0080
 752              		.align	2
 753              		.p2align 4,,15
 754              		.global	chMtxLockS
 755              		.thumb
 756              		.thumb_func
 757              		.type	chMtxLockS, %function
 758              	chMtxLockS:
 759              		@ args = 0, pretend = 0, frame = 0
 760              		@ frame_needed = 0, uses_anonymous_args = 0
 761 0000 70B5     		push	{r4, r5, r6, lr}
 762 0002 2F4B     		ldr	r3, .L23
 763 0004 0546     		mov	r5, r0
 764 0006 8068     		ldr	r0, [r0, #8]
 765 0008 9C69     		ldr	r4, [r3, #24]
 766 000a 0028     		cmp	r0, #0
 767 000c 53D0     		beq	.L3
ARM GAS  /tmp/ccP0xjSZ.s 			page 59


 768 000e A268     		ldr	r2, [r4, #8]
 769 0010 8368     		ldr	r3, [r0, #8]
 770 0012 9A42     		cmp	r2, r3
 771 0014 06D9     		bls	.L5
 772              	.L14:
 773 0016 037F     		ldrb	r3, [r0, #28]	@ zero_extendqisi2
 774 0018 8260     		str	r2, [r0, #8]
 775 001a 062B     		cmp	r3, #6
 776 001c 32D0     		beq	.L6
 777 001e 072B     		cmp	r3, #7
 778 0020 1CD0     		beq	.L7
 779 0022 9BB1     		cbz	r3, .L22
 780              	.L5:
 781 0024 2B46     		mov	r3, r5
 782 0026 03E0     		b	.L20
 783              	.L18:
 784 0028 9968     		ldr	r1, [r3, #8]
 785 002a A268     		ldr	r2, [r4, #8]
 786 002c 9142     		cmp	r1, r2
 787 002e 02D3     		bcc	.L19
 788              	.L20:
 789 0030 1B68     		ldr	r3, [r3]
 790 0032 9D42     		cmp	r5, r3
 791 0034 F8D1     		bne	.L18
 792              	.L19:
 793 0036 5A68     		ldr	r2, [r3, #4]
 794 0038 6260     		str	r2, [r4, #4]
 795 003a 2360     		str	r3, [r4]
 796 003c 5C60     		str	r4, [r3, #4]
 797 003e 1460     		str	r4, [r2]
 798 0040 2562     		str	r5, [r4, #32]
 799 0042 0620     		movs	r0, #6
 800 0044 BDE87040 		pop	{r4, r5, r6, lr}
 801 0048 FFF7FEBF 		b	chSchGoSleepS
 802              	.L22:
 803 004c 90E80C00 		ldmia	r0, {r2, r3}
 804 0050 1A60     		str	r2, [r3]
 805 0052 0268     		ldr	r2, [r0]
 806 0054 5360     		str	r3, [r2, #4]
 807 0056 FFF7FEFF 		bl	chSchReadyI
 808 005a E3E7     		b	.L5
 809              	.L7:
 810 005c 90E80A00 		ldmia	r0, {r1, r3}
 811 0060 1960     		str	r1, [r3]
 812 0062 066A     		ldr	r6, [r0, #32]
 813 0064 0168     		ldr	r1, [r0]
 814 0066 4B60     		str	r3, [r1, #4]
 815 0068 3346     		mov	r3, r6
 816 006a 02E0     		b	.L17
 817              	.L15:
 818 006c 9968     		ldr	r1, [r3, #8]
 819 006e 8A42     		cmp	r2, r1
 820 0070 02D8     		bhi	.L16
 821              	.L17:
 822 0072 1B68     		ldr	r3, [r3]
 823 0074 9E42     		cmp	r6, r3
 824 0076 F9D1     		bne	.L15
ARM GAS  /tmp/ccP0xjSZ.s 			page 60


 825              	.L16:
 826 0078 5A68     		ldr	r2, [r3, #4]
 827 007a 4260     		str	r2, [r0, #4]
 828 007c 0360     		str	r3, [r0]
 829 007e 5860     		str	r0, [r3, #4]
 830 0080 1060     		str	r0, [r2]
 831 0082 CFE7     		b	.L5
 832              	.L6:
 833 0084 90E80A00 		ldmia	r0, {r1, r3}
 834 0088 1960     		str	r1, [r3]
 835 008a 066A     		ldr	r6, [r0, #32]
 836 008c 0168     		ldr	r1, [r0]
 837 008e 4B60     		str	r3, [r1, #4]
 838 0090 3346     		mov	r3, r6
 839 0092 02E0     		b	.L13
 840              	.L9:
 841 0094 9968     		ldr	r1, [r3, #8]
 842 0096 9142     		cmp	r1, r2
 843 0098 02D3     		bcc	.L12
 844              	.L13:
 845 009a 1B68     		ldr	r3, [r3]
 846 009c 9E42     		cmp	r6, r3
 847 009e F9D1     		bne	.L9
 848              	.L12:
 849 00a0 5A68     		ldr	r2, [r3, #4]
 850 00a2 4260     		str	r2, [r0, #4]
 851 00a4 0360     		str	r3, [r0]
 852 00a6 5860     		str	r0, [r3, #4]
 853 00a8 1060     		str	r0, [r2]
 854 00aa B068     		ldr	r0, [r6, #8]
 855 00ac A268     		ldr	r2, [r4, #8]
 856 00ae 8368     		ldr	r3, [r0, #8]
 857 00b0 9342     		cmp	r3, r2
 858 00b2 B0D3     		bcc	.L14
 859 00b4 B6E7     		b	.L5
 860              	.L3:
 861 00b6 A36B     		ldr	r3, [r4, #56]
 862 00b8 EB60     		str	r3, [r5, #12]
 863 00ba AC60     		str	r4, [r5, #8]
 864 00bc A563     		str	r5, [r4, #56]
 865 00be 70BD     		pop	{r4, r5, r6, pc}
 866              	.L24:
 867              		.align	2
 868              	.L23:
 869 00c0 00000000 		.word	ch
 870              		.size	chMtxLockS, .-chMtxLockS
 871 00c4 AFF30080 		.section	.text.chMtxLock,"ax",%progbits
 871      AFF30080 
 871      AFF30080 
 872              		.align	2
 873              		.p2align 4,,15
 874              		.global	chMtxLock
 875              		.thumb
 876              		.thumb_func
 877              		.type	chMtxLock, %function
 878              	chMtxLock:
 879              		@ args = 0, pretend = 0, frame = 0
ARM GAS  /tmp/ccP0xjSZ.s 			page 61


 880              		@ frame_needed = 0, uses_anonymous_args = 0
 881 0000 08B5     		push	{r3, lr}
 882 0002 2023     		movs	r3, #32
 883              	@ 546 "/home/cody/dev/chibios/trunk/os/ext/CMSIS/include/core_cmFunc.h" 1
 884 0004 83F31188 		MSR basepri, r3
 885              	@ 0 "" 2
 886              		.thumb
 887 0008 FFF7FEFF 		bl	chMtxLockS
 888 000c 0023     		movs	r3, #0
 889              	@ 546 "/home/cody/dev/chibios/trunk/os/ext/CMSIS/include/core_cmFunc.h" 1
 890 000e 83F31188 		MSR basepri, r3
 891              	@ 0 "" 2
 892              		.thumb
 893 0012 08BD     		pop	{r3, pc}
 894              		.size	chMtxLock, .-chMtxLock
 895 0014 AFF30080 		.section	.text.chMtxTryLock,"ax",%progbits
 895      AFF30080 
 895      AFF30080 
 896              		.align	2
 897              		.p2align 4,,15
 898              		.global	chMtxTryLock
 899              		.thumb
 900              		.thumb_func
 901              		.type	chMtxTryLock, %function
 902              	chMtxTryLock:
 903              		@ args = 0, pretend = 0, frame = 0
 904              		@ frame_needed = 0, uses_anonymous_args = 0
 905              		@ link register save eliminated.
 906 0000 0346     		mov	r3, r0
 907 0002 2022     		movs	r2, #32
 908              	@ 546 "/home/cody/dev/chibios/trunk/os/ext/CMSIS/include/core_cmFunc.h" 1
 909 0004 82F31188 		MSR basepri, r2
 910              	@ 0 "" 2
 911              		.thumb
 912 0008 8268     		ldr	r2, [r0, #8]
 913 000a 0020     		movs	r0, #0
 914 000c 1AB1     		cbz	r2, .L29
 915 000e 0023     		movs	r3, #0
 916              	@ 546 "/home/cody/dev/chibios/trunk/os/ext/CMSIS/include/core_cmFunc.h" 1
 917 0010 83F31188 		MSR basepri, r3
 918              	@ 0 "" 2
 919              		.thumb
 920 0014 7047     		bx	lr
 921              	.L29:
 922 0016 054A     		ldr	r2, .L30
 923 0018 9269     		ldr	r2, [r2, #24]
 924 001a 9A60     		str	r2, [r3, #8]
 925 001c 916B     		ldr	r1, [r2, #56]
 926 001e D960     		str	r1, [r3, #12]
 927 0020 0120     		movs	r0, #1
 928 0022 9363     		str	r3, [r2, #56]
 929 0024 0023     		movs	r3, #0
 930              	@ 546 "/home/cody/dev/chibios/trunk/os/ext/CMSIS/include/core_cmFunc.h" 1
 931 0026 83F31188 		MSR basepri, r3
 932              	@ 0 "" 2
 933              		.thumb
 934 002a 7047     		bx	lr
ARM GAS  /tmp/ccP0xjSZ.s 			page 62


 935              	.L31:
 936              		.align	2
 937              	.L30:
 938 002c 00000000 		.word	ch
 939              		.size	chMtxTryLock, .-chMtxTryLock
 940              		.section	.text.chMtxTryLockS,"ax",%progbits
 941              		.align	2
 942              		.p2align 4,,15
 943              		.global	chMtxTryLockS
 944              		.thumb
 945              		.thumb_func
 946              		.type	chMtxTryLockS, %function
 947              	chMtxTryLockS:
 948              		@ args = 0, pretend = 0, frame = 0
 949              		@ frame_needed = 0, uses_anonymous_args = 0
 950              		@ link register save eliminated.
 951 0000 8268     		ldr	r2, [r0, #8]
 952 0002 0346     		mov	r3, r0
 953 0004 0AB1     		cbz	r2, .L35
 954 0006 0020     		movs	r0, #0
 955 0008 7047     		bx	lr
 956              	.L35:
 957 000a 044A     		ldr	r2, .L36
 958 000c 9269     		ldr	r2, [r2, #24]
 959 000e 8260     		str	r2, [r0, #8]
 960 0010 916B     		ldr	r1, [r2, #56]
 961 0012 C160     		str	r1, [r0, #12]
 962 0014 0120     		movs	r0, #1
 963 0016 9363     		str	r3, [r2, #56]
 964 0018 7047     		bx	lr
 965              	.L37:
 966 001a 00BF     		.align	2
 967              	.L36:
 968 001c 00000000 		.word	ch
 969              		.size	chMtxTryLockS, .-chMtxTryLockS
 970              		.section	.text.chMtxUnlock,"ax",%progbits
 971              		.align	2
 972              		.p2align 4,,15
 973              		.global	chMtxUnlock
 974              		.thumb
 975              		.thumb_func
 976              		.type	chMtxUnlock, %function
 977              	chMtxUnlock:
 978              		@ args = 0, pretend = 0, frame = 0
 979              		@ frame_needed = 0, uses_anonymous_args = 0
 980 0000 38B5     		push	{r3, r4, r5, lr}
 981 0002 164B     		ldr	r3, .L50
 982 0004 0446     		mov	r4, r0
 983 0006 9869     		ldr	r0, [r3, #24]
 984 0008 2023     		movs	r3, #32
 985              	@ 546 "/home/cody/dev/chibios/trunk/os/ext/CMSIS/include/core_cmFunc.h" 1
 986 000a 83F31188 		MSR basepri, r3
 987              	@ 0 "" 2
 988              		.thumb
 989 000e 2568     		ldr	r5, [r4]
 990 0010 E368     		ldr	r3, [r4, #12]
 991 0012 8363     		str	r3, [r0, #56]
ARM GAS  /tmp/ccP0xjSZ.s 			page 63


 992 0014 AC42     		cmp	r4, r5
 993 0016 1BD0     		beq	.L39
 994 0018 C16B     		ldr	r1, [r0, #60]
 995 001a 4BB1     		cbz	r3, .L40
 996              	.L42:
 997 001c 1A68     		ldr	r2, [r3]
 998 001e 9342     		cmp	r3, r2
 999 0020 03D0     		beq	.L41
 1000 0022 9268     		ldr	r2, [r2, #8]
 1001 0024 9142     		cmp	r1, r2
 1002 0026 38BF     		it	cc
 1003 0028 1146     		movcc	r1, r2
 1004              	.L41:
 1005 002a DB68     		ldr	r3, [r3, #12]
 1006 002c 002B     		cmp	r3, #0
 1007 002e F5D1     		bne	.L42
 1008              	.L40:
 1009 0030 2B68     		ldr	r3, [r5]
 1010 0032 AA6B     		ldr	r2, [r5, #56]
 1011 0034 8160     		str	r1, [r0, #8]
 1012 0036 2360     		str	r3, [r4]
 1013 0038 2846     		mov	r0, r5
 1014 003a 5C60     		str	r4, [r3, #4]
 1015 003c 0021     		movs	r1, #0
 1016 003e A560     		str	r5, [r4, #8]
 1017 0040 E260     		str	r2, [r4, #12]
 1018 0042 AC63     		str	r4, [r5, #56]
 1019 0044 FFF7FEFF 		bl	chSchWakeupS
 1020 0048 0023     		movs	r3, #0
 1021              	@ 546 "/home/cody/dev/chibios/trunk/os/ext/CMSIS/include/core_cmFunc.h" 1
 1022 004a 83F31188 		MSR basepri, r3
 1023              	@ 0 "" 2
 1024              		.thumb
 1025 004e 38BD     		pop	{r3, r4, r5, pc}
 1026              	.L39:
 1027 0050 0023     		movs	r3, #0
 1028 0052 A360     		str	r3, [r4, #8]
 1029 0054 0023     		movs	r3, #0
 1030              	@ 546 "/home/cody/dev/chibios/trunk/os/ext/CMSIS/include/core_cmFunc.h" 1
 1031 0056 83F31188 		MSR basepri, r3
 1032              	@ 0 "" 2
 1033              		.thumb
 1034 005a 38BD     		pop	{r3, r4, r5, pc}
 1035              	.L51:
 1036              		.align	2
 1037              	.L50:
 1038 005c 00000000 		.word	ch
 1039              		.size	chMtxUnlock, .-chMtxUnlock
 1040              		.section	.text.chMtxUnlockS,"ax",%progbits
 1041              		.align	2
 1042              		.p2align 4,,15
 1043              		.global	chMtxUnlockS
 1044              		.thumb
 1045              		.thumb_func
 1046              		.type	chMtxUnlockS, %function
 1047              	chMtxUnlockS:
 1048              		@ args = 0, pretend = 0, frame = 0
ARM GAS  /tmp/ccP0xjSZ.s 			page 64


 1049              		@ frame_needed = 0, uses_anonymous_args = 0
 1050              		@ link register save eliminated.
 1051 0000 124B     		ldr	r3, .L63
 1052 0002 30B4     		push	{r4, r5}
 1053 0004 0446     		mov	r4, r0
 1054 0006 0568     		ldr	r5, [r0]
 1055 0008 9869     		ldr	r0, [r3, #24]
 1056 000a E368     		ldr	r3, [r4, #12]
 1057 000c 8363     		str	r3, [r0, #56]
 1058 000e AC42     		cmp	r4, r5
 1059 0010 17D0     		beq	.L53
 1060 0012 C16B     		ldr	r1, [r0, #60]
 1061 0014 4BB1     		cbz	r3, .L54
 1062              	.L56:
 1063 0016 1A68     		ldr	r2, [r3]
 1064 0018 9342     		cmp	r3, r2
 1065 001a 03D0     		beq	.L55
 1066 001c 9268     		ldr	r2, [r2, #8]
 1067 001e 9142     		cmp	r1, r2
 1068 0020 38BF     		it	cc
 1069 0022 1146     		movcc	r1, r2
 1070              	.L55:
 1071 0024 DB68     		ldr	r3, [r3, #12]
 1072 0026 002B     		cmp	r3, #0
 1073 0028 F5D1     		bne	.L56
 1074              	.L54:
 1075 002a 2B68     		ldr	r3, [r5]
 1076 002c AA6B     		ldr	r2, [r5, #56]
 1077 002e 8160     		str	r1, [r0, #8]
 1078 0030 2360     		str	r3, [r4]
 1079 0032 2846     		mov	r0, r5
 1080 0034 5C60     		str	r4, [r3, #4]
 1081 0036 A560     		str	r5, [r4, #8]
 1082 0038 E260     		str	r2, [r4, #12]
 1083 003a AC63     		str	r4, [r5, #56]
 1084 003c 30BC     		pop	{r4, r5}
 1085 003e FFF7FEBF 		b	chSchReadyI
 1086              	.L53:
 1087 0042 0023     		movs	r3, #0
 1088 0044 A360     		str	r3, [r4, #8]
 1089 0046 30BC     		pop	{r4, r5}
 1090 0048 7047     		bx	lr
 1091              	.L64:
 1092 004a 00BF     		.align	2
 1093              	.L63:
 1094 004c 00000000 		.word	ch
 1095              		.size	chMtxUnlockS, .-chMtxUnlockS
 1096              		.section	.text.chMtxUnlockAll,"ax",%progbits
 1097              		.align	2
 1098              		.p2align 4,,15
 1099              		.global	chMtxUnlockAll
 1100              		.thumb
 1101              		.thumb_func
 1102              		.type	chMtxUnlockAll, %function
 1103              	chMtxUnlockAll:
 1104              		@ args = 0, pretend = 0, frame = 0
 1105              		@ frame_needed = 0, uses_anonymous_args = 0
ARM GAS  /tmp/ccP0xjSZ.s 			page 65


 1106 0000 134A     		ldr	r2, .L76
 1107 0002 70B5     		push	{r4, r5, r6, lr}
 1108 0004 2023     		movs	r3, #32
 1109 0006 9469     		ldr	r4, [r2, #24]
 1110              	@ 546 "/home/cody/dev/chibios/trunk/os/ext/CMSIS/include/core_cmFunc.h" 1
 1111 0008 83F31188 		MSR basepri, r3
 1112              	@ 0 "" 2
 1113              		.thumb
 1114 000c A36B     		ldr	r3, [r4, #56]
 1115 000e D3B1     		cbz	r3, .L66
 1116 0010 0026     		movs	r6, #0
 1117 0012 0BE0     		b	.L70
 1118              	.L75:
 1119 0014 1168     		ldr	r1, [r2]
 1120 0016 956B     		ldr	r5, [r2, #56]
 1121 0018 1960     		str	r1, [r3]
 1122 001a 1046     		mov	r0, r2
 1123 001c 4B60     		str	r3, [r1, #4]
 1124 001e 9A60     		str	r2, [r3, #8]
 1125 0020 DD60     		str	r5, [r3, #12]
 1126 0022 9363     		str	r3, [r2, #56]
 1127 0024 FFF7FEFF 		bl	chSchReadyI
 1128 0028 A36B     		ldr	r3, [r4, #56]
 1129 002a 43B1     		cbz	r3, .L74
 1130              	.L70:
 1131 002c 1A68     		ldr	r2, [r3]
 1132 002e D968     		ldr	r1, [r3, #12]
 1133 0030 A163     		str	r1, [r4, #56]
 1134 0032 9342     		cmp	r3, r2
 1135 0034 EED1     		bne	.L75
 1136 0036 9E60     		str	r6, [r3, #8]
 1137 0038 A36B     		ldr	r3, [r4, #56]
 1138 003a 002B     		cmp	r3, #0
 1139 003c F6D1     		bne	.L70
 1140              	.L74:
 1141 003e E36B     		ldr	r3, [r4, #60]
 1142 0040 A360     		str	r3, [r4, #8]
 1143 0042 FFF7FEFF 		bl	chSchRescheduleS
 1144              	.L66:
 1145 0046 0023     		movs	r3, #0
 1146              	@ 546 "/home/cody/dev/chibios/trunk/os/ext/CMSIS/include/core_cmFunc.h" 1
 1147 0048 83F31188 		MSR basepri, r3
 1148              	@ 0 "" 2
 1149              		.thumb
 1150 004c 70BD     		pop	{r4, r5, r6, pc}
 1151              	.L77:
 1152 004e 00BF     		.align	2
 1153              	.L76:
 1154 0050 00000000 		.word	ch
 1155              		.size	chMtxUnlockAll, .-chMtxUnlockAll
 1156              		.comm	__gnu_lto_v1,1,1
 1157 0054 AFF30080 		.ident	"GCC: (GNU Tools for ARM Embedded Processors) 4.8.4 20140526 (release) [ARM/embedded-4_8-br
 1157      AFF30080 
 1157      AFF30080 
ARM GAS  /tmp/ccP0xjSZ.s 			page 66


DEFINED SYMBOLS
                            *ABS*:0000000000000000 chmtx.c
     /tmp/ccP0xjSZ.s:735    .text.chMtxObjectInit:0000000000000000 $t
     /tmp/ccP0xjSZ.s:741    .text.chMtxObjectInit:0000000000000000 chMtxObjectInit
     /tmp/ccP0xjSZ.s:752    .text.chMtxLockS:0000000000000000 $t
     /tmp/ccP0xjSZ.s:758    .text.chMtxLockS:0000000000000000 chMtxLockS
     /tmp/ccP0xjSZ.s:869    .text.chMtxLockS:00000000000000c0 $d
     /tmp/ccP0xjSZ.s:872    .text.chMtxLock:0000000000000000 $t
     /tmp/ccP0xjSZ.s:878    .text.chMtxLock:0000000000000000 chMtxLock
     /tmp/ccP0xjSZ.s:896    .text.chMtxTryLock:0000000000000000 $t
     /tmp/ccP0xjSZ.s:902    .text.chMtxTryLock:0000000000000000 chMtxTryLock
     /tmp/ccP0xjSZ.s:938    .text.chMtxTryLock:000000000000002c $d
     /tmp/ccP0xjSZ.s:941    .text.chMtxTryLockS:0000000000000000 $t
     /tmp/ccP0xjSZ.s:947    .text.chMtxTryLockS:0000000000000000 chMtxTryLockS
     /tmp/ccP0xjSZ.s:968    .text.chMtxTryLockS:000000000000001c $d
     /tmp/ccP0xjSZ.s:971    .text.chMtxUnlock:0000000000000000 $t
     /tmp/ccP0xjSZ.s:977    .text.chMtxUnlock:0000000000000000 chMtxUnlock
     /tmp/ccP0xjSZ.s:1038   .text.chMtxUnlock:000000000000005c $d
     /tmp/ccP0xjSZ.s:1041   .text.chMtxUnlockS:0000000000000000 $t
     /tmp/ccP0xjSZ.s:1047   .text.chMtxUnlockS:0000000000000000 chMtxUnlockS
     /tmp/ccP0xjSZ.s:1094   .text.chMtxUnlockS:000000000000004c $d
     /tmp/ccP0xjSZ.s:1097   .text.chMtxUnlockAll:0000000000000000 $t
     /tmp/ccP0xjSZ.s:1103   .text.chMtxUnlockAll:0000000000000000 chMtxUnlockAll
     /tmp/ccP0xjSZ.s:1154   .text.chMtxUnlockAll:0000000000000050 $d
                            *COM*:0000000000000001 __gnu_lto_v1
     /tmp/ccP0xjSZ.s:871    .text.chMtxLockS:00000000000000c4 $t
     /tmp/ccP0xjSZ.s:1157   .text.chMtxUnlockAll:0000000000000054 $t

UNDEFINED SYMBOLS
chSchGoSleepS
chSchReadyI
ch
chSchWakeupS
chSchRescheduleS
