ARM GAS  /tmp/ccQ3u45G.s 			page 1


   1              		.syntax unified
   2              		.cpu cortex-m4
   3              		.eabi_attribute 27, 3
   4              		.eabi_attribute 28, 1
   5              		.fpu fpv4-sp-d16
   6              		.eabi_attribute 20, 1
   7              		.eabi_attribute 21, 1
   8              		.eabi_attribute 23, 3
   9              		.eabi_attribute 24, 1
  10              		.eabi_attribute 25, 1
  11              		.eabi_attribute 26, 1
  12              		.eabi_attribute 30, 2
  13              		.eabi_attribute 34, 1
  14              		.eabi_attribute 18, 4
  15              		.thumb
  16              		.file	"chprintf.c"
  17              		.section	.gnu.lto_.jmpfuncs.568cc5e0f3a44ede,"",%progbits
  18 0000 789C6362 		.ascii	"x\234cb`b\300\006\256Bi\026\006~Fv\026\020\213)\202"
  18      6062C006 
  18      AE426916 
  18      067E4676 
  18      16108B29 
  19 0015 31939181 		.ascii	"1\223\221\201\013,\310\014$\312\030\221\005\301\014"
  19      0B2CC80C 
  19      24CA1891 
  19      05C10C
  20 0024 90083344 		.ascii	"\220\0103D5\262\010\314$\254\352\231\300f\201\344\352"
  20      35B208CC 
  20      24ACEA99 
  20      C06681E4 
  20      EA
  21 0035 C9E3B0B0 		.ascii	"\311\343\260\2603\202\355\000\"&\260\030\023\324t&\210"
  21      3382ED00 
  21      2226B018 
  21      13D47426 
  21      88
  22 0046 A5A86E05 		.ascii	"\245\250n\005;\006\000\004H\015\306"
  22      3B060004 
  22      480DC6
  23              		.text
  24              		.section	.gnu.lto_.inline.568cc5e0f3a44ede,"",%progbits
  25 0000 789C6362 		.ascii	"x\234cb`b\300\006l\031!4\013\003\203\344\027fF\026\346"
  25      6062C006 
  25      6C192134 
  25      0B0383E4 
  25      17664616 
  26 0015 F408C64C 		.ascii	"\364\010\306LF\220 s\006\234\005V\003\"X\324\346\355"
  26      46902073 
  26      069C0556 
  26      032258D4 
  26      E6ED
  27 0027 B561605B 		.ascii	"\265a`[ \317\304\300\262@^\200\201\351\002\277\002D"
  27      20CFC4C0 
  27      B2405E80 
  27      81E902BF 
  27      0244
  28 0039 4E568F91 		.ascii	"NV\217\221\211\011\244\004\254\203E\240\241\026\242"
ARM GAS  /tmp/ccQ3u45G.s 			page 2


  28      8909A404 
  28      AC8345A0 
  28      A116A2
  29 0048 8CED831E 		.ascii	"\214\355\203\036\013\210\340\000)c\343\007JM\360\233"
  29      0B88E000 
  29      2963E307 
  29      4A4DF09B 
  30 0058 E0C730C1 		.ascii	"\340\3070\301\017\301f`\026\277\317\270B\231\221\201"
  30      0FC16660 
  30      16BFCFB8 
  30      42999181 
  31 0068 E90AD3CB 		.ascii	"\351\012\323\313\011s\231\030D\332\357s3A\3243\002\035"
  31      09739918 
  31      44DAEF73 
  31      3341D433 
  31      021D
  32 007a 06560462 		.ascii	"\006V\004b2\203X \235\2140\235\254\202L\014L'\030\357"
  32      32835820 
  32      9D8C309D 
  32      AC824C0C 
  32      4C2718EF 
  33 008e B2431913 		.ascii	"\262C\031\023\374\300\214E\254\255R\254\202@\003A\252"
  33      FCC08C45 
  33      ACAD52AC 
  33      82400341 
  33      AA
  34 009f C08C16FE 		.ascii	"\300\214\026\376\011~,\022\022\206@\277\200\275\305"
  34      097E2C12 
  34      128640BF 
  34      80BDC5
  35 00ae 0C72693A 		.ascii	"\014ri:\234\005v3\327\017Gd\257\275`\027`\201\205\022"
  35      9C057633 
  35      D70F4764 
  35      AFBD6017 
  35      60818512 
  36 00c2 23032B1F 		.ascii	"#\003+\037\320\235`\2470\3630\200\302\022$\000u\033"
  36      D09D60A7 
  36      30F33080 
  36      C2122400 
  36      751B
  37 00d4 030061C6 		.ascii	"\003\000a\3060i"
  37      3069
  38              		.text
  39              		.section	.gnu.lto_.pureconst.568cc5e0f3a44ede,"",%progbits
  40 0000 789C6362 		.ascii	"x\234cb`b\340d\200\000\026\006)F)f)\026)\000\002\334"
  40      6062E064 
  40      80001606 
  40      29462966 
  40      29162900 
  41 0016 0082     		.ascii	"\000\202"
  42              		.text
  43              		.section	.gnu.lto_long_to_string_with_divisor.568cc5e0f3a44ede,"",%progbits
  44 0000 789C8D55 		.ascii	"x\234\215UKhUW\024\335\373\234\373\313\273\367\371O"
  44      4B685557 
  44      14DDFB9C 
  44      FBCBBBF7 
  44      F94F
ARM GAS  /tmp/ccQ3u45G.s 			page 3


  45 0012 3431FF90 		.ascii	"41\377\220:\020\362\024\253R\034H&\245\316\015\264\303"
  45      3A10F214 
  45      AB521C48 
  45      26A5CE0D 
  45      B4C3
  46 0024 F419AF0F 		.ascii	"\364\031\257\017?\321\370\241:\311}y)\304\346\211\251"
  46      3FD1F8A1 
  46      3AC97D79 
  46      29C4E689 
  46      A9
  47 0035 38B11569 		.ascii	"8\261\025i\220\"\305J\320\322I[!\266\212\021\377t\364"
  47      9022C54A 
  47      D0D2495B 
  47      21B68A11 
  47      FF74F4
  48 0048 A84226C6 		.ascii	"\250B&\306A\374T\034\211\326\333u\316\375\370\014\205"
  48      41FC541C 
  48      89D6DB75 
  48      CEFDF80C 
  48      85
  49 0059 E642F6BE 		.ascii	"\346B\366\276w\355\265\367\331{\235\235D\220\240\271"
  49      77EDB5F7 
  49      D97B9D9D 
  49      4490A0B9 
  50 0069 CFD7F899 		.ascii	"\317\327\370\2311\211\266\300s\226X\214\335!*:B\030"
  50      3189B6C0 
  50      7396588C 
  50      DD212A3A 
  50      4218
  51 007b 23AB28C8 		.ascii	"#\253(\310He=\311F\004\033lF/\246\260t\334\326q\213"
  51      48653DC9 
  51      46041B6C 
  51      462FA6B0 
  51      74DCD671 
  52 0090 ED08B685 		.ascii	"\355\010\266\205W\276N\300\235a\033\270\027\321\273"
  52      57BE4EC0 
  52      9D611BB8 
  52      17D1BB
  53 009f 1DAE89E2 		.ascii	"\035\256\211\3425\302\215\342\031\035w#\274;\303\254"
  53      35C28DE2 
  53      191D7723 
  53      BC3BC3AC 
  54 00af 3C310D0A 		.ascii	"<1\015\012i\230\226\35595n\206\007?c\325\242\331N\343"
  54      699896ED 
  54      39356E86 
  54      073F63D5 
  54      A2D94EE3 
  55 00c3 417062FA 		.ascii	"Apb\372\332_'\353\277\372nh,x\033\206\\`\014\263\201"
  55      DA5F27EB 
  55      BFFA6E68 
  55      2C781B86 
  55      5C600CB3 
  56 00d8 29CFF429 		.ascii	")\317\364)>\270U;a\274?]\2249\371j\374\3068\007'\202"
  56      3EB8553B 
  56      61BC3F5D 
  56      9439F96A 
  56      FCC63807 
ARM GAS  /tmp/ccQ3u45G.s 			page 4


  57 00ee E2DF61B8 		.ascii	"\342\337a\270Pgn\232W\346\330\344?\017\313\231\261\342"
  57      50676E9A 
  57      57E6D8E4 
  57      3F0FCB99 
  57      B1E2
  58 0100 48108683 		.ascii	"H\020\206\203\005\226\202\272\347\231w\251o*\030\236"
  58      059682BA 
  58      E79977A9 
  58      6F2A189E 
  59 0110 0CC3CD3A 		.ascii	"\014\303\315:\353\343y\366\371\363\243\251\2526\015"
  59      EBE379F6 
  59      F9F3A3A9 
  59      AA360D
  60 011f 419FFC5F 		.ascii	"A\237\374_\342\204\230\234\016\303\362\350\231\231\025"
  60      E284989C 
  60      0EC3F2E8 
  60      999915
  61 012e FC01D36E 		.ascii	"\374\001\323n5[/\237\343v\222\2617\340\177\2007co\201"
  61      355B2F9F 
  61      E37692B1 
  61      37E07F80 
  61      37636F81 
  62 0142 C4B6328E 		.ascii	"\304\2662\2162.\303x0\"\013C\013b\326\"\370q\370\305"
  62      322EC378 
  62      30220B43 
  62      0B62D622 
  62      F871F8C5 
  63 0156 00E51282 		.ascii	"\000\345\022\202fK\343z\313b_\033\373\2728c9Hf\275b"
  63      664BE37A 
  63      CB625F1B 
  63      FBBA3863 
  63      394866BD 
  64 016b 36A8BA2B 		.ascii	"6\250\272+\001\237\005\334\250\220&\2054\343M\266\000"
  64      019F05DC 
  64      A8902685 
  64      34E34DB6 
  64      00
  65 017c FE1E706B 		.ascii	"\376\036pk\234\335\246Zn\217Kt\250\022\235qD]<\015C"
  65      9CDDA65A 
  65      6E8F4B74 
  65      A8129D71 
  65      445D3C0D 
  66 0191 CBD6E83B 		.ascii	"\313\326\350;\242\220\322\003\317VX\254P\017\01389E"
  66      A290D203 
  66      CF5658AC 
  66      500F0B38 
  66      3945
  67 01a3 571F5FB9 		.ascii	"W\037_\271\\\337\313\347\331$\237=\245\224U-\323V\226"
  67      5CDFCBE7 
  67      D9249F3D 
  67      A594552D 
  67      D35696
  68 01b6 F4BB943D 		.ascii	"\364\273\224=l(\372m*\215\226~Z\235\320\027\370\234"
  68      6C28FA6D 
  68      2A8D967E 
  68      5A9DD017 
  68      F89C
ARM GAS  /tmp/ccQ3u45G.s 			page 5


  69 01c8 D5DABA9A 		.ascii	"\325\332\272\232[!\333gW\274\031\265PI\236\314\022N"
  69      5B21DB67 
  69      57BC19B5 
  69      50499ECC 
  69      124E
  70 01da 3109FB89 		.ascii	"1\011\373\211\274\241g\245_o\212$q\221\257NA\265S2\201"
  70      BCA167A5 
  70      5F6F8A24 
  70      7191AF4E 
  70      41B55332 
  71 01ef 966874B1 		.ascii	"\226ht\261B\301mN\340\245\210h\346H\351r\312]\006\\"
  71      42C16D4E 
  71      E0A58868 
  71      E648E972 
  71      CA5D065C 
  72 0203 9D2BD7E0 		.ascii	"\235+\327\340T\2140s\345Eo\032\323\201\217\322\001*"
  72      548C3073 
  72      E5456F1A 
  72      D3818FD2 
  72      012A
  73 0215 64A051E3 		.ascii	"d\240Q\343\326\005\366\271\316\373\361\256U!\264\347"
  73      D605F6B9 
  73      CEFBF1AE 
  73      5521B4E7 
  74 0225 1A0FCE03 		.ascii	"\032\017\316\003h\360~{\316\025r|\266\015|6y\267\216"
  74      68F07E7B 
  74      CE15727C 
  74      B60D7C36 
  74      79B78E
  75 0238 6754D716 		.ascii	"gT\327\026\215\254\222\372\320\30779\251\\\233\234\272"
  75      8DAC92FA 
  75      D0C73739 
  75      A95C9B9C 
  75      BA
  76 0249 312EDD83 		.ascii	"1.\335\203m\210\246\203*\263\177\246\304:\237\015-K"
  76      6D88A683 
  76      2AB37FA6 
  76      C43A9F0D 
  76      2D4B
  77 025b 886721E9 		.ascii	"\210g!\351\221f\323\346\227\373\220^A[\"\344[\372\246"
  77      9166D3E6 
  77      97FB905E 
  77      415B22E4 
  77      5BFAA6
  78 026e 1804818B 		.ascii	"\030\004\201\213\033D\252\312\2136\025L=\370\261\322"
  78      1B44AACA 
  78      8B36154C 
  78      3DF8B1D2 
  79 027e F34D496E 		.ascii	"\363MIn}\265Hi\305\006\004b\335^\376\221j\274\322\307"
  79      7DB54869 
  79      C5060462 
  79      DD5EFE91 
  79      6ABCD2C7 
  80 0292 9EEA0229 		.ascii	"\236\352\002)\261Q\243s\323\233\020P2\016?)\332)6g\021"
  80      B151A373 
  80      D39B1050 
  80      320E3F29 
ARM GAS  /tmp/ccQ3u45G.s 			page 6


  80      DA293667 
  81 02a7 2A2420AD 		.ascii	"*$ \255\371\346)T\252\265NOXj3<\302\237$\356\3011z5"
  81      F9E62954 
  81      AAB54E4F 
  81      586A333C 
  81      C29F24EE 
  82 02bf 86664BAF 		.ascii	"\206fK\257\323N\233!\372\234\301[0\236n\350h\251.\301"
  82      D34E9B21 
  82      FA9CC15B 
  82      309E6EE8 
  82      68A92EC1 
  83 02d3 5A35B325 		.ascii	"Z5\263%\321\263\346\235\236g\313i3m>\263\326\223\265"
  83      D1B3E69D 
  83      9E67CB69 
  83      336D3EB3 
  83      D693B5
  84 02e6 96081E49 		.ascii	"\226\010\036IB\355>\233U\241\241_\276\034HB\035\020"
  84      42ED3E9B 
  84      55A1A15F 
  84      BE1C4842 
  84      1D10
  85 02f8 96B5A8E6 		.ascii	"\226\265\250\346;Q5\351\306=\353?\244\347j\351;\342"
  85      3B5135E9 
  85      C63DEB3F 
  85      A4E76AE9 
  85      3BE2
  86 030a 9D3B574E 		.ascii	"\235;WN\333\357\364Y\352\353\017\223\207\007#\331\322"
  86      DBEFF459 
  86      EAEB0F93 
  86      870723D9 
  86      D2
  87 031b 8BEFD4F1 		.ascii	"\213\357\324\361j\325 W\326\201is\313\027\033+$1\261"
  87      6AD52057 
  87      D6816973 
  87      CB171B2B 
  87      2431B1
  88 032e F3640240 		.ascii	"\363d\002@\247{\372\242W!u\345\016\226\022\223\200\361"
  88      A77BFAA2 
  88      572175E5 
  88      0E961293 
  88      80F1
  89 0340 8552D58D 		.ascii	"\205R\325\215U\315(U\357Sqz4\237\012\221\374N2b\352"
  89      55CD2855 
  89      EF53717A 
  89      349F0A91 
  89      FC4E3262 
  90 0355 3FD2BADC 		.ascii	"?\322\272\334\216\376\335}\271|\377\266\303\271m}\207"
  90      8EFEDD7D 
  90      B97CFFB6 
  90      C3B96D7D 
  90      87
  91 0366 72F91D85 		.ascii	"r\371\035\205\317\013\375\373s\007\006\016\356\331\231"
  91      CF0BFDFB 
  91      7307060E 
  91      EED999
  92 0375 C3CBA1DE 		.ascii	"\303\313\241\336\201B\377\301\375\010\354\035(\3549"
  92      8142FFC1 
ARM GAS  /tmp/ccQ3u45G.s 			page 7


  92      FD08EC1D 
  92      28EC39
  93 0384 B0BD2B4F 		.ascii	"\260\275+O\306\256\256\265\037\232\273`\327\033\373"
  93      C6AEAEB5 
  93      1F9ABB60 
  93      D71BFB
  94 0393 BAD66E40 		.ascii	"\272\326n@\313\373\376\005\260\254}\310"
  94      CBFBFE05 
  94      B0AC7DC8 
  95              		.text
  96              		.section	.gnu.lto_ftoa.568cc5e0f3a44ede,"",%progbits
  97 0000 789C6D53 		.ascii	"x\234mS\317k\023A\024~of7\233l\022\2224\255\361$\305"
  97      CF6B1341 
  97      147E6F66 
  97      379B6C12 
  97      9234ADF1 
  98 0016 ABDA0585 		.ascii	"\253\332\005\205\352\315\203\377B\013z\214\333\272]"
  98      EACD83FF 
  98      420B7A8C 
  98      DBBA5D
  99 0025 348DA46D 		.ascii	"4\215\244m\240*t\323\255X\177,\344\252=\330\242\007"
  99      A02A74D3 
  99      AD587F2C 
  99      E4AA3DD8 
  99      A207
 100 0037 C1430F45 		.ascii	"\301C\017E\021\314!\007\017^\252\010\275\010\036\252"
 100      11CC2107 
 100      0F5EAA08 
 100      BD081EAA 
 101 0047 070505FF 		.ascii	"\007\005\005\377\000)\254\357\315\356\254V\034\3307"
 101      0029ACEF 
 101      CDEEAC56 
 101      1CD837
 102 0056 B3EFFBDE 		.ascii	"\263\357\373\336\367~\354\254\000\001\377\256\323\364"
 102      F77EECAC 
 102      0001FFAE 
 102      D3F4
 103 0064 5C900067 		.ascii	"\\\220\000giG\023P\364\337\001\364\362B\310=\007\002"
 103      69471350 
 103      F4DF01F4 
 103      F242C83D 
 103      0702
 104 0076 DB181C83 		.ascii	"\333\030\034\203\240$\321H\334\006\"\037\000aEH\003"
 104      A024D148 
 104      DC06221F 
 104      00614548 
 104      03
 105 0087 572E216B 		.ascii	"W.!k\340q\330\012\202\376\376\355\357C|\030\014\327"
 105      E071D80A 
 105      82FEFEED 
 105      EF437C18 
 105      0CD7
 106 0099 36838338 		.ascii	"6\203\2038F\364\221\362M\"\270\010\027\351\005\307\325"
 106      46F491F2 
 106      4D22B808 
 106      17E905C7 
 106      D5
ARM GAS  /tmp/ccQ3u45G.s 			page 8


 107 00aa 268CC305 		.ascii	"&\214\303\005l\213\341~\034\037\354<}0\300\015q\024"
 107      6C8BE17E 
 107      1C1FEC3C 
 107      7D30C00D 
 107      7114
 108 00bc A1456148 		.ascii	"\241EaHF\202\217\322`\223#\003\026\003y\002\260\000"
 108      46828FD2 
 108      60932303 
 108      16037902 
 108      B000
 109 00ce 4DDCA29C 		.ascii	"M\334\242\2346\275\210\022\271E\231M\205XF\225M\215"
 109      36BD8812 
 109      B945994D 
 109      85584695 
 109      4D8D
 110 00e0 CD089B7A 		.ascii	"\315\010\233zJ\035e\2311\226i\2201)\255\011kT\362x\002"
 110      4A1D6599 
 110      31966990 
 110      3129AD09 
 110      6B54F278 
 111 00f5 03D7486B 		.ascii	"\003\327Hk\212,\3677\215\202w\271\013\341z\370<:\327"
 111      8A2CF737 
 111      8D8277B9 
 111      0BE17AF8 
 111      3C3AD7
 112 0108 C42714E4 		.ascii	"\304'\024\344\241\364Pp\0172\246U\241\200\267\360\346"
 112      A1F45070 
 112      0F32A655 
 112      A180B7F0 
 112      E6
 113 0119 6BAF9CC1 		.ascii	"k\257\234\301\012\313\377\325\334\024J\330s\3444\032"
 113      0ACBFFD5 
 113      DC144AD8 
 113      73E4341A 
 114 0129 7FF476A2 		.ascii	"\177\364v\242\363:\300\360\020\017\351\355\302\352\247"
 114      F33AC0F0 
 114      100FE9ED 
 114      C2EAA7
 115 0138 7E51C3B9 		.ascii	"~Q\303\271Sp\222J\336\200G\275 \250\372\230\273\011"
 115      5370924A 
 115      DE8047BD 
 115      20A8FA98 
 115      BB09
 116 014a BF82753E 		.ascii	"\277\202u>Y-\022\0065OK%\"\255,)\211\374\014\273Z\304"
 116      592D1206 
 116      354F4B25 
 116      22AD2C29 
 116      89FC0CBB 
 117 0160 221DE57B 		.ascii	"\"\035\345{\034\276\216L\355-xHu\276\207;\233\333R\373"
 117      1CBE8E4C 
 117      ED2D7848 
 117      75BE873B 
 117      9BDB52FB 
 118 0174 4A997CDE 		.ascii	"J\231|\336ELem\342r\232\202\255\262\221\317G\233\365"
 118      454C656D 
 118      E2729A82 
 118      ADB291CF 
ARM GAS  /tmp/ccQ3u45G.s 			page 9


 118      479BF5
 119 0187 C2FBE1E7 		.ascii	"\302\373\341\347\254\3632E\253\217\213I\376W\375\\\002"
 119      ACF33245 
 119      AB8F8B49 
 119      FE57FD5C 
 119      02
 120 0198 25B50796 		.ascii	"%\265\007\226\217\305\224b*a>\025'\022\362\263\360["
 120      8FC59462 
 120      2A613E15 
 120      2712F2B3 
 120      F05B
 121 01aa 74422B55 		.ascii	"tB+U(\237\222\277\233\325U\245Z\011H\271_P\373k\036"
 121      289F92BF 
 121      9BD555A5 
 121      5A0948B9 
 121      5F50FB6B 
 122 01bf 374FD47B 		.ascii	"7O\324{\031uD\261ki\277G\264\273N\210bF\341\217\350"
 122      197544B1 
 122      6B69BF47 
 122      B4BB4E88 
 122      6246E18F 
 123 01d4 86F68E52 		.ascii	"\206\366\216R\274\232\276\255\207\366Rhl\214`5\237a"
 123      BC9ABEAD 
 123      87F65268 
 123      6C8C6035 
 123      9F61
 124 01e6 A6DDF8DF 		.ascii	"\246\335\370\337x\250\361z:\036\012R\243\371\000Y\205"
 124      78A8F17A 
 124      3A1E0A52 
 124      A3F90059 
 124      85
 125 01f7 0D267D04 		.ascii	"\015&}\004\244k#\222\017]\0009xq\213/\006\362\215\340"
 125      A46B2392 
 125      0F5D0039 
 125      78718B2F 
 125      06F28DE0 
 126 020b FFF18C33 		.ascii	"\377\361\2143\327n\315:n{f\331\231\231\355:\356\234"
 126      D76ECD3A 
 126      6E7B66D9 
 126      9999ED3A 
 126      EE9C
 127 021d 7FD96F2F 		.ascii	"\177\331o/8\213\235\245\371\253\016\035\272\315\216"
 127      388B9DA5 
 127      F9AB0E1D 
 127      BACD8E
 128 022c DF5E5A20 		.ascii	"\337^Z \340z\307\237_\2742\341\002^\373\015d&\316R"
 128      E07AC79F 
 128      5FBC32E1 
 128      025EFB0D 
 128      6426CE52 
 129              		.text
 130              		.section	.gnu.lto_chvprintf.568cc5e0f3a44ede,"",%progbits
 131 0000 789CA53A 		.ascii	"x\234\245:yt\224\325\365\357~\223\311,\231,d%{\310\276"
 131      797494D5 
 131      F5EF7E93 
 131      C92C992C 
 131      64257BC8 
ARM GAS  /tmp/ccQ3u45G.s 			page 10


 132 0015 91B0EF01 		.ascii	"\221\260\357\001\202\200\342r\324JNAT\204\004\306\321"
 132      8280E272 
 132      D44A4E41 
 132      548404C6 
 132      D1
 133 0026 90000948 		.ascii	"\220\000\011H\341G\231\220\240\021\007!e1*\012H\000"
 133      E1479990 
 133      A0110721 
 133      65312A0A 
 133      4800
 134 0038 2928CA22 		.ascii	")(\312\"\010\301$@\305\"\342\317\237xp\012\236\332Z"
 134      08C12440 
 134      C522E2CF 
 134      9F78700A 
 134      9EDA5A
 135 004b AB154E5D 		.ascii	"\253\025N]\252?Di\247\367\276\345\233-\036\307v\376"
 135      AA3F4469 
 135      A7F7BEE5 
 135      9B2D1EC7 
 135      76FE
 136 005d 78F77D77 		.ascii	"x\367}w{w{\367{\337K4\246\261\300_\253\201\261\245\371"
 136      7B777BF7 
 136      7BDF4B34 
 136      A6B1C05F 
 136      AB81B1A5 
 137 0072 8CB5E11C 		.ascii	"\214\265\341\034nd\240\255;\307X\223Y\203011\210Ie\230"
 137      6E64A0AD 
 137      3BC75893 
 137      59833031 
 137      31884965 
 138 0087 666C3131 		.ascii	"fl11\2475\334u\2321\247\315\010@h\026\256\231\232\013"
 138      A735DC75 
 138      9A31A7CD 
 138      08406816 
 138      AE999A0B 
 139 009b 116D5E93 		.ascii	"\021m^\223\217X\023\030\204\224Y\263|\231\200h\353\326"
 139      8F581318 
 139      849459B3 
 139      7C998068 
 139      EBD6
 140 00ad 1188B680 		.ascii	"\021\210\266\200U\240\255Z\004G\3338:\002l\002m\203"
 140      55A0AD5A 
 140      0447DB38 
 140      3A026C02 
 140      6D83
 141 00bf 483189D4 		.ascii	"H1\211\324bZ\013\220\036E\243-J\213\346\213Y\373\320"
 141      625A0B90 
 141      1E45A32D 
 141      4A8BE68B 
 141      59FBD0
 142 00d2 CAB66888 		.ascii	"\312\266h\210\021\\1\202\275\307\334G\213\345\352\222"
 142      115C3182 
 142      BDC7DC47 
 142      8BE5EA92 
 143 00e2 B8BA5888 		.ascii	"\270\272X\210#4\304i\211\\I<W\022\257%\010%I\\I\002"
 143      2334C469 
 143      895C493C 
ARM GAS  /tmp/ccQ3u45G.s 			page 11


 143      5712AF25 
 143      0825495C 
 144 00f8 240A2589 		.ascii	"$\012%\211\202\273\307\234\244%s%}\271\222\276\362)"
 144      82BBC79C 
 144      A4257325 
 144      7DB992BE 
 144      F229
 145 010a 953F256B 		.ascii	"\225?%k)\\U\032W\225\002iB6UM\322\314C\377laNs>\037"
 145      295C551A 
 145      57950269 
 145      4236554D 
 145      D2CC43FF 
 146 0124 07F0B19C 		.ascii	"\007\360\261\234\217\003\371\230\316\307R>f\010\014"
 146      8F03F998 
 146      CEC7523E 
 146      66080C
 147 0133 0C13A219 		.ascii	"\014\023\242\031Z\346\245\010T\235u\360\004\3053\023"
 147      5AE6A508 
 147      549D75F0 
 147      04C53313 
 148 0143 B2043E4B 		.ascii	"\262\004>K\353\307\227\314\346K\366\203l\201\316\206"
 148      EBC797CC 
 148      E64BF683 
 148      6C81CE86 
 149 0153 5C31C911 		.ascii	"\\1\311\021\223\036s\256\226w\356\01496\354\204\001"
 149      931E73AE 
 149      9677EE0C 
 149      3936EC84 
 149      01
 150 0164 39F3B41C 		.ascii	"9\363\264\034\337\307|\255\200\253)\344j\012\240HH\027"
 150      DFC77CAD 
 150      80AB29E4 
 150      6A0AA048 
 150      4817
 151 0176 AA499156 		.ascii	"\252I\221V\354\"?KZF\"\275\030J\004\272D\231W\252\365"
 151      EC223F4B 
 151      5A4622BD 
 151      184A04BA 
 151      449957AA 
 152 018b E7F4324E 		.ascii	"\347\3642N\357\017e\002]\246\350\3450PL\006\250\311"
 152      EF0F6502 
 152      5DA6E8E5 
 152      30504C06 
 152      A8C9
 153 019d 406D105F 		.ascii	"@m\020_q0_q\020\014\021\350\301j2D\211\016U\223a\332"
 153      71305F71 
 153      100C11E8 
 153      C16A3244 
 153      890E5593 
 154 01b3 70BEC608 		.ascii	"p\276\306\010\276\306p\030!\320#\264\221\\\305(\256"
 154      BEC67018 
 154      21D023B4 
 154      915CC528 
 154      AE
 155 01c4 6E248C12 		.ascii	"n$\214\022\350Q\332h\316=\236s\217\326\306\360<\215"
 155      E851DA68 
 155      CE3D9E73 
ARM GAS  /tmp/ccQ3u45G.s 			page 12


 155      8FD6C6F0 
 155      3C8D
 156 01d6 E5791AA3 		.ascii	"\345y\032\243U\\\264\322\323\241\223\024\314\012\030"
 156      555CB4D2 
 156      D3A19314 
 156      CC0A18
 157 01e5 2B64C6C2 		.ascii	"+d\306\3028^\022\343\264\311\242\010\306\363\"x\203"
 157      385E12E3 
 157      B4C9A208 
 157      C6F32278 
 157      83
 158 01f6 097C6537 		.ascii	"\011|e7\203\011\234\241GNz\314'\230V)xo\340\274'\031"
 158      83099CA1 
 158      474E7ACC 
 158      27985629 
 158      786FE0BC 
 159 020c 4CE22CA7 		.ascii	"L\342,\247\344\244\307\374;\246M\024,\006\316\002l\205"
 159      E4A4C7FC 
 159      3BA64D14 
 159      2C06CE02 
 159      6C85
 160 021e 66083386 		.ascii	"f\0103\206\233\314\026k\204-2*:\246Ol\\|BbR\337\344"
 160      9BCC166B 
 160      842D322A 
 160      3AA64F6C 
 160      5C7C4262 
 161 0235 94D4B4F4 		.ascii	"\224\324\264\364\214\314\254~\3319\271y\371\005\205"
 161      8CCCAC7E 
 161      D939B979 
 161      F90585
 162 0244 45C525A5 		.ascii	"E\305%\245\375\313\312\007\014\0344x\310\320a\303G\214"
 162      FDCBCA07 
 162      0C1C3478 
 162      C8D061C3 
 162      478C
 163 0256 1C357A4C 		.ascii	"\0345zL\305\330qo\260n\326\303N\260\223\354\024\373"
 163      C5D8716F 
 163      B06ED6C3 
 163      4EB093EC 
 163      14FB
 164 0268 1D8315D3 		.ascii	"\035\203\025\323\201vfL6\333\346t\376\346\243U__\203"
 164      8176664C 
 164      36DBE674 
 164      FEE6A355 
 164      5F5F83
 165 027b A73674B7 		.ascii	"\2476t\267lu^\367x\000\034\200\273x\030\260j`\323\360"
 165      6C755EF7 
 165      78001C80 
 165      BB7818B0 
 165      6A60D3F0 
 166 028f 01B238D0 		.ascii	"\001\2628\320\302\374\2675\227]\327\375\217w\\\311\253"
 166      C2FCB735 
 166      975DD7FD 
 166      8F775CC9 
 166      AB
 167 02a0 B7AE5CE7 		.ascii	"\267\256\\\347\374\027\212:\300\240\261\011\241I:\367"
 167      FC178A3A 
ARM GAS  /tmp/ccQ3u45G.s 			page 13


 167      C0A0B109 
 167      A1493AF7 
 168 02b0 BFE0B4F0 		.ascii	"\277\340\264\360\025\015\\lrHb\277\351\376\372\264m"
 168      150D5C6C 
 168      724862BF 
 168      E9FEFAB4 
 168      6D
 169 02c1 5D53ABD3 		.ascii	"]S\253\323\343Y\341\2000\215\335\022\232\230\363X\315"
 169      E359E180 
 169      308DDD12 
 169      9A98F358 
 169      CD
 170 02d2 9BCE966E 		.ascii	"\233\316\226n\217g\034\227\272-D\251w\357iWRF\215\335"
 170      8F671C97 
 170      BA2D44A9 
 170      77EF6957 
 170      52468DDD 
 171 02e6 EE95320B 		.ascii	"\356\2252\013)\350U\352\202\237\324\235!I\255\353\376"
 171      29E855EA 
 171      829FD49D 
 171      2149ADEB 
 171      FE
 172 02f7 F6F45B80 		.ascii	"\366\364[\200\302M_z<\321<\"\323B\014\344!\257k(uw\210"
 172      C24D5F7A 
 172      3CD13C22 
 172      D3420CE4 
 172      21AF6B28 
 173 030e 5217FDA4 		.ascii	"R\027\375\244jBL\367\325@#\037\0141m\327\036u%9?r\252"
 173      6A424CF7 
 173      D540231F 
 173      0C316DD7 
 173      1E752539 
 174 0325 3A09D758 		.ascii	":\011\327Xm\210\321|\317\033M\224j\0141\232?<\352Jv"
 174      6D88D17C 
 174      CF1B4D94 
 174      6A0C319A 
 174      3F3CEA4A 
 175 033a 7AEBD2A4 		.ascii	"z\353\322\244\261\025!\272\3509\355\032\354#i\326X\023"
 175      B11521BA 
 175      E839ED1A 
 175      EC2369D6 
 175      5813
 176 034c 8422DABD 		.ascii	"\204\"\332\275\256\273m\265\013|D-\032k\366\021=\"\240"
 176      AEBB6DB5 
 176      0B7C442D 
 176      1A6BF611 
 176      3D22A0
 177 035f 96E42FBB 		.ascii	"\226\344/\273O\353\376\310\343quu\272\316\302\031\355"
 177      4FEBFEC8 
 177      E3717575 
 177      BACEC219 
 177      ED
 178 0370 340ACCA3 		.ascii	"4\012\314\243\015\210\203\201\2060\032\2144\204\323"
 178      0D888381 
 178      86301A8C 
 178      3484D3
 179 037f 60A2C1CC 		.ascii	"`\242\301\314f\301n\310f\026\204\273\020Z%\214\220x"
ARM GAS  /tmp/ccQ3u45G.s 			page 14


 179      66C16EC8 
 179      661684BB 
 179      105A258C 
 179      9078
 180 0391 9B849112 		.ascii	"\233\204\221\022FI\030-a\014\302=\010\373H\030+a\234"
 180      4649182D 
 180      610CC23D 
 180      08FB4818 
 180      2B619C
 181 03a4 84F11226 		.ascii	"\204\361\022& |\021a\242\204I\010\367!\354+a2\302W\020"
 181      207C1161 
 181      A2844908 
 181      F721EC2B 
 181      6132C257 
 182 03b9 A648982A 		.ascii	"\246H\230*a\232\204\351\010\017 \314\2200S\302,\011"
 182      619A84E9 
 182      080F20CC 
 182      903053C2 
 182      2C09
 183 03cb FB49982D 		.ascii	"\373I\230-a\016\302C\010s%\314\2230_\302\002\204\207"
 183      610EC243 
 183      087325CC 
 183      93305FC2 
 183      028487
 184 03de 1116227C 		.ascii	"\021\026\"|\015a\021\302c\010\213%,\221\260\024\341"
 184      0D6111C2 
 184      63088B25 
 184      2C91B014 
 184      E1
 185 03ef 7184A301 		.ascii	"q\204\243\001\203UA\021\033+=\032\217\030\250d\016\260"
 185      83554111 
 185      1B2B3D1A 
 185      8F18A864 
 185      0EB0
 186 0401 4EC02162 		.ascii	"N\300!b\242T<\011\037\214\223\211\361F\232\335D\263"
 186      A2543C09 
 186      1F8C9389 
 186      F1469ADD 
 186      44B3
 187 0413 2934DC2C 		.ascii	")4\334,\345n!\364\2558\330n\243\341v\034\014wH\332\235"
 187      E56E21F4 
 187      AD38D86E 
 187      A3E1761C 
 187      0C7748DA 
 188 0428 C4F80BF9 		.ascii	"\304\370\013\371p\0271N%\236*\032~I\214\323$m\272\014"
 188      7017314E 
 188      259E2A1A 
 188      7E498CD3 
 188      246DBA0C 
 189 043c CBDD849C 		.ascii	"\313\335\204\234!\037\356!\201{\245c\367\321\303L\322"
 189      211FEE21 
 189      817BA563 
 189      F7D1C34C 
 189      D2
 190 044d 77BF24CF 		.ascii	"w\277$\317\246\207jRUC\303\\\022\265\023\227C\232\376"
 190      A6876A52 
 190      5543C35C 
ARM GAS  /tmp/ccQ3u45G.s 			page 15


 190      12B51397 
 190      439AFE
 191 0460 20A11FA2 		.ascii	" \241\037\242a\236\314n\235\214f\275\314\322|b_ \365"
 191      619ECC6E 
 191      9D8C66BD 
 191      CCD27C62 
 191      5F20F5
 192 0473 2D944C0D 		.ascii	"-\224L\015$\321H\303b\031\264\207\351a\011\015K%f\231"
 192      24D148C3 
 192      6219B487 
 192      E961090D 
 192      4B256699 
 193 0487 E45D2E9F 		.ascii	"\344].\237W\020\321\01146\361q%\037[h\214\\\0052\350"
 193      5710D109 
 193      3436F171 
 193      251F5B68 
 193      8C5C0532 
 194 049c 8F80B4AC 		.ascii	"\217\200\264\254Ua\036\343\014\253\351q\033>\272@\352"
 194      55611EE3 
 194      0CABE971 
 194      1B3EBA40 
 194      EA
 195 04ad 5D03D2D2 		.ascii	"]\003\322\322'@\232\272V\221\326q\315m|\\O#\333\000"
 195      27409ABA 
 195      5691D671 
 195      CD6D7C5C 
 195      4F23DB00 
 196 04c1 D28A8D1C 		.ascii	"\322\212\215\034\271\211\217\3554F=\245HO\363\307\315"
 196      B9898FED 
 196      34463DA5 
 196      484FF3C7 
 196      CD
 197 04d2 CA80E768 		.ascii	"\312\200\347h\262\035'[h\262\003'[\325B\333\324\322"
 197      B21D275B 
 197      68B20327 
 197      5BD542DB 
 197      D4D2
 198 04e4 CFABC976 		.ascii	"\317\253\311v5\351 %\306\0354Zw\322\030\261K)|A\231"
 198      35E92025 
 198      C61D345A 
 198      77D218B1 
 198      4B297C41 
 199 04f9 B74761F6 		.ascii	"\267Ga\366*\205/r\376\2278\377\313\212\372\212\322\271"
 199      2A852F72 
 199      FE9738FF 
 199      CB8AFA8A 
 199      D2B9
 200 050b 5FB11DE0 		.ascii	"_\261\035\340l\0079\333!\276\323_U:\017\363u_S\262G"
 200      6C0739DB 
 200      21BED35F 
 200      553A0FF3 
 200      755F53B2 
 201 0520 39E731CE 		.ascii	"9\3471\316y\\!_W\012\273\010o\350\346c\217B\236\240"
 201      795C215F 
 201      570ABB08 
 201      6FE8E663 
 201      8F429EA0 
ARM GAS  /tmp/ccQ3u45G.s 			page 16


 202 0534 C7B0937C 		.ascii	"\307\260\223|\304\306bd-\330\317\262Dk\020k\210:\024"
 202      C4C66264 
 202      2DD8CFB2 
 202      446B106B 
 202      883A14
 203 0547 9B591824 		.ascii	"\233Y\030$\252B\310\2135D%\212\015&\302*\2628\013\272"
 203      AA42C88B 
 203      3544258A 
 203      0D26C22A 
 203      B2380BBA 
 204 055b 70AC013C 		.ascii	"p\254\001<\341W\363\236;\025\307\213\0044\004\206*0"
 204      E157F39E 
 204      3B15C78B 
 204      04340486 
 204      2A30
 205 056d B0674C78 		.ascii	"\260gLx\326w\263C`\207\012\323\225w\033\355`\232\004"
 205      D677B343 
 205      60870AD3 
 205      95771BED 
 205      609A04
 206 0580 6EB60B9F 		.ascii	"n\266\013\237'\232:\337\273\337\016\371\223P\250\012"
 206      279A3ADF 
 206      BBDF0EF9 
 206      9350A80A 
 207 0590 CDFB7F13 		.ascii	"\315\373\177\023\274\315\232\037o>\266!}\026\364\200"
 207      BCCD9A1F 
 207      6F3EB621 
 207      7D16F480 
 208 05a0 91A1881D 		.ascii	"\221\241\210\035@\357\350o\263\225GWe(\322\330g\330"
 208      40EFE86F 
 208      B3954757 
 208      6528D2D8 
 208      67D8
 209 05b2 D34D4EA7 		.ascii	"\323MN\247s\260\003\242%W\214l\237o\262S\237\366lYm"
 209      73B003A2 
 209      25578C6C 
 209      9F6FB253 
 209      9FF66C59 
 210 05c7 D35989D8 		.ascii	"\323Y\211\330\307\333^\335\014W?\004\006\034GkhL\216"
 210      C7DB5EDD 
 210      0C573F04 
 210      061C476B 
 210      684C8E
 211 05da 1DE361E0 		.ascii	"\035\343a\340*\320X\255\263+\215\0142\222\013o\263\023"
 211      2AD058AD 
 211      B32B8D0C 
 211      32920B6F 
 211      B313
 212 05ec 9735A147 		.ascii	"\2275\241G8;\204\035p\266R#G=\357\262\246\255\355F\265"
 212      383B841D 
 212      70B65223 
 212      473DEFB2 
 212      A6ADED46 
 213 0601 4A8E505E 		.ascii	"J\216P^\005\341\344\364\233\254\345J\317\201@\033\362"
 213      05E1E4F4 
 213      9BACE54A 
 213      CF81401B 
ARM GAS  /tmp/ccQ3u45G.s 			page 17


 213      F2
 214 0612 7C9A7C15 		.ascii	"|\232|\025\230\230\333\200+\254\374\303\007;G*\276\312"
 214      9898DB80 
 214      2BACFCC3 
 214      073B472A 
 214      BECA
 215 0624 12568C49 		.ascii	"\022V\214IF\347\220?\326\016\343I.\216\013\314\326_"
 215      46E7903F 
 215      D60EE349 
 215      2E8E0BCC 
 215      D65F
 216 0636 6B2873B7 		.ascii	"k(s\267\022\230P\302~\353\214q@\274\020I@\025$b\225"
 216      129850C2 
 216      7EEB8C71 
 216      40BC1049 
 216      40152462 
 217 064b 224AE61D 		.ascii	"\"J\346\035&\015e$C\303x4\312\001\211\244\255\271\265"
 217      260D6524 
 217      43C37834 
 217      CA0189A4 
 217      ADB9B5
 218 065e F98B0D7D 		.ascii	"\371\213\015}\225\306\211\350\013\217\005\311~\316\234"
 218      95C689E8 
 218      0B8F05C9 
 218      7ECE9C
 219 066d AEB3EFA5 		.ascii	"\256\263\357\245)Ya\270\231\235\340\206\037]\265k\243"
 219      295961B8 
 219      999DE086 
 219      1F5DB56B 
 219      A3
 220 067e 9E9049C2 		.ascii	"\236\220I\302\000=\031\340MF\323@\235\211\207\241\277"
 220      003D19E0 
 220      4D46D340 
 220      9D8987A1 
 220      BF
 221 068f 5F182CEC 		.ascii	"_\030,\354_\024\350\225\3377\357\331\230\242\030'/c"
 221      5F14E895 
 221      DF37EFD9 
 221      98A21827 
 221      2F63
 222 06a1 DF6376D1 		.ascii	"\337cv\321\261\030\221\350\030\257j\233\377\027e\025"
 222      B11891E8 
 222      18AF6A9B 
 222      FF176515 
 223 06b1 3AABEC39 		.ascii	":\253\3549\346\265\347F\335\036-\2608\274\366\334\310"
 223      E6B5E746 
 223      DD1E2DB0 
 223      38BCF6DC 
 223      C8
 224 06c2 ED19E053 		.ascii	"\355\031\340S\032\032V\235\231\027\352d\313\336\367"
 224      1A1A569D 
 224      9917EA64 
 224      CBDEF7
 225 06d1 1F70B342 		.ascii	"\037p\263Bb\011g\314\354z\177+_>\034\230\245\363\375"
 225      620967CC 
 225      EC7A7F2B 
 225      5F3E1C98 
ARM GAS  /tmp/ccQ3u45G.s 			page 18


 225      A5F3FD
 226 06e4 1778D546 		.ascii	"\027x\325F\010\333\261j\273\274\266\337$\227\324\317"
 226      08DBB16A 
 226      BBBCB6DF 
 226      2497D4CF 
 227 06f4 21556023 		.ascii	"!U`#\013I\275\001iV,\274\233\"\360!\201\270\214Y\314"
 227      0B49BD01 
 227      69562CBC 
 227      9B22F021 
 227      81B88C59 
 228 0709 7AE9FDF9 		.ascii	"z\351\375\371|:\200E\270.,!\201H\206\347~\241\371\037"
 228      7C3A8045 
 228      B82E2C21 
 228      814886E7 
 228      7EA1F91F 
 229 071d 1B3395E6 		.ascii	"\0333\225\346)v\010\363\337\017s\025\351f\271\037\206"
 229      297608F3 
 229      DF0F7315 
 229      E966B91F 
 229      86
 230 072e 7397C37C 		.ascii	"s\227\303|]\346\011\276\272\261T\261\336\202\334|\271"
 230      5DE609BE 
 230      BAB154B1 
 230      DE82DC7C 
 230      B9
 231 073f FF051E90 		.ascii	"\377\005\036\220\226\2776\015\325i\234`\361\011H\230"
 231      96BF360D 
 231      D5699C60 
 231      F1094898 
 232 074f 1D0C36B4 		.ascii	"\035\0146\264xJ\314\331\013\377\343f\351r\233\330\366"
 232      784ACCD9 
 232      0BFFE366 
 232      E9729BD8 
 232      F6
 233 0760 5EA8B5A3 		.ascii	"^\250\265\243PL\247\273\221\014\216b\255\005\006\276"
 233      504CA7BB 
 233      910C8E62 
 233      AD0506BE 
 234 0770 F33C67A2 		.ascii	"\363<g\242u\243xx\213\375\222\025\315\336\310\341U\337"
 234      75A37878 
 234      8BFD9215 
 234      CDDEC8E1 
 234      55DF
 235 0782 BEFF6FA0 		.ascii	"\276\377o\240\030o\245*\346I\266\315\003\303l\320\274"
 235      186FA52A 
 235      E649B6CD 
 235      03C36CD0 
 235      BC
 236 0793 A63F6E50 		.ascii	"\246?nPL\267!\237~\324B\015S\004\241WQ\344\026\021\322"
 236      4CB7219F 
 236      7ED4420D 
 236      5304A157 
 236      51E41611 
 237 07a8 F7E7ED7A 		.ascii	"\367\347\355z\035\031\244\236$}\221\225\227\233\353"
 237      1D19A49E 
 237      247D9195 
 237      979BEB
ARM GAS  /tmp/ccQ3u45G.s 			page 19


 238 07b7 14DF1DC8 		.ascii	"\024\337\035\310\252l\215a\370}KYX\335\274oS\177\305"
 238      AA6C8D61 
 238      F87D4B59 
 238      58DDBC6F 
 238      537FC5
 239 07ca D185D110 		.ascii	"\321\205\321\020a\260"
 239      61B0
 240 07d0 0AE9BF37 		.ascii	"\012\351\2777\177\256{\322\215\304\030\031\363\305\012"
 240      7FAE7BD2 
 240      8DC41819 
 240      F3C50A
 241 07df D90342AA 		.ascii	"\331\003B\252\033DLc0\320\221W(\200wD\267L\247\225\372"
 241      1B444C63 
 241      30D09157 
 241      28807744 
 241      B74CA795 
 242 07f4 5081F0F0 		.ascii	"P\201\360\360=\373\270\315?|e~\341\213\245\212#\035"
 242      3DFBB8CD 
 242      3F7C657E 
 242      E18BA58A 
 242      231D
 243 0806 B331257D 		.ascii	"\2631%}xJ\356\227)\351s\236\253\212c_&\210N\372\361"
 243      784AEE97 
 243      29E9739E 
 243      AB8A635F 
 243      26884EFA 
 244 081b A622A5EA 		.ascii	"\246\"\245\352N;\030\375+Gw\370\027\262rF\363\3121\006"
 244      4E3B18FD 
 244      2B4777F8 
 244      17B27246 
 244      F3CA3106 
 245 082f 55CEA79B 		.ascii	"U\316\247\233\312\024\353]\310\035P9z\347\272+\250r"
 245      CA14EB5D 
 245      C81D5039 
 245      7AE7BA2B 
 245      A872
 246 0841 8C76981D 		.ascii	"\214v\230\035\213^\337\231\350\272\330\201}6\331\016"
 246      8B5EDF99 
 246      E8BAD881 
 246      7D36D90E 
 247 0851 F7D3F38C 		.ascii	"\367\323\363\214D\327\207{\371\366\211g\337Y\205\327"
 247      44D7877B 
 247      F9F68967 
 247      DF5985D7 
 248 0861 87DF8AD7 		.ascii	"\207\337\212\327\355\351\245h\022\330\367\026Q4\207"
 248      EDE9A568 
 248      12D8F716 
 248      513487
 249 0870 AFE9A19E 		.ascii	"\257\351\241\236\032J\321T!_\350ES\025P4\277\364-\232"
 249      1A4AD154 
 249      215FE845 
 249      53155034 
 249      BFF42D9A 
 250 0884 A94145A3 		.ascii	"\251AE\243'x\032\262*[\023\331\327\361\242f<\233J\024"
 250      27781AB2 
 250      2A5B13D9 
 250      D7F1A266 
ARM GAS  /tmp/ccQ3u45G.s 			page 20


 250      3C9B4A14 
 251 0898 C3743B24 		.ascii	"\303t;$\373\227\314\266$E\273\333No'\212\265n\365\014"
 251      FB97CCB6 
 251      2445BBDB 
 251      4E6F278A 
 251      B56EF50C 
 252 08ac 8E9D2EE2 		.ascii	"\216\235.\342\330\007\203\033\267\367\"\266\244i\011"
 252      D807831B 
 252      B7F722B6 
 252      A46909
 253 08bb A766D012 		.ascii	"\247f\320\022Iz\265\270\275\325\022\313\343V\353\223"
 253      497AB5B8 
 253      BDD512CB 
 253      E356EB93 
 254 08cb 80705922 		.ascii	"\200pY\"\230\202x\221\002|\243\334\214\230\032\2142"
 254      98827891 
 254      027CA3DC 
 254      8C981A8C 
 254      32
 255 08dc 626ADD2C 		.ascii	"bj\335,E\325\316%7\262%\307\363\264\364e\2474\245>\301"
 255      45D5CE25 
 255      37B225C7 
 255      F3B4F465 
 255      A734A53E 
 256 08f1 5FFDAD7E 		.ascii	"_\375\255~iIfn\220\215\367\311T\305x\237\336x\303\375"
 256      6949666E 
 256      908DF7C9 
 256      54C5789F 
 256      DE78C3FD 
 257 0905 1B6FCB15 		.ascii	"\033o\313\025o\237\271/\340\235L\332R\330\025\325L\237"
 257      6F9FB92F 
 257      E09D4CDA 
 257      52D815D5 
 257      4C9F
 258 0917 D40B77A6 		.ascii	"\324\013w\246T\343\323LS\331\337hU,\315\313O\216Q|\367"
 258      54E3D34C 
 258      53D9DF68 
 258      552CCDCB 
 258      4F8E517C 
 259 092c 480B8D5D 		.ascii	"H\013\215]\242\302\233\3176\377Z\321\356E2\247%\353"
 259      A2C29BCF 
 259      36FF5AD1 
 259      EE4532A7 
 259      25EB
 260 093e 3AD22882 		.ascii	":\322(\202g\331\026\347\245?\352\205\027\267\206\271"
 260      67D916E7 
 260      A53FEA85 
 260      17B786B9 
 261 094e 9A5A9CDD 		.ascii	"\232Z\234\335\177\300\357\330\276\304V\003\342\243N"
 261      7FC0EFD8 
 261      BEC45603 
 261      E2A34E
 262 095d E25F8D42 		.ascii	"\342_\215B<\3273\221\023\215\276\304\243:qJ0\361\325"
 262      3CD73391 
 262      138DBEC4 
 262      A33A714A 
 262      30F1D5
ARM GAS  /tmp/ccQ3u45G.s 			page 21


 263 0970 6845BC9D 		.ascii	"hE\274\235\023\303}\211\317\351\304*N4\371\0227\351"
 263      13C37D89 
 263      CFE9C42A 
 263      4E34F912 
 263      37E9
 264 0982 C4699CA8 		.ascii	"\304i\234\250\371\022\257G(b5'\232}\211Gt\203j\202\015"
 264      F912AF47 
 264      28623527 
 264      9A7D8947 
 264      74836A82 
 265 0997 FA4627CE 		.ascii	"\372F'\316\345D\213/\261S':\202%\217\350\006\325\007"
 265      E5448B2F 
 265      B153273A 
 265      82258FE8 
 265      06D507
 266 09aa BBB24197 		.ascii	"\273\262A\227l\340D\253/\361e]rQ\260\237\355:q\211\217"
 266      6CE044AB 
 266      2FF1655D 
 266      7251B09F 
 266      ED3A7189 
 267 09bf 9FA28C4D 		.ascii	"\237\242\214MX\005)\327?\354\300\326\021\236JC2Vr\034"
 267      580529D7 
 267      3FECC0D6 
 267      119E4A43 
 267      3256721C 
 268 09d3 D650CA11 		.ascii	"\326P\312\021\334\225\261\204\212%T\201|;\247\\\372"
 268      DC95B184 
 268      8A255481 
 268      7C3BA75C 
 268      FA
 269 09e4 106BF9DE 		.ascii	"\020k\371\336\324\216\231\022\221|\376^\312y:\033ax"
 269      D48E9912 
 269      917CFE5E 
 269      CA793A1B 
 269      6178
 270 09f6 8B359945 		.ascii	"\2135\231E\276y\270xK\371\363WzK\251\016\245\245\340"
 270      BE79B878 
 270      4BF9F357 
 270      7A4BA90E 
 270      A5A5E0
 271 0a09 EEA90EBD 		.ascii	"\356\251\016\275\245\324\004\264\224\271\276-\245:\250"
 271      A5D404B4 
 271      94B9BE2D 
 271      A53AA8
 272 0a18 A52C547C 		.ascii	"\245,T|vd\365U/\2734\306\311(\316F\335\307\317\330\034"
 272      7664F555 
 272      2FBB34C6 
 272      C928CE46 
 272      DDC7CFD8 
 273 0a2d 902CCEA5 		.ascii	"\220,\316\245\370#UarQ\273\252\363\214\000\237\255\322"
 273      F8235561 
 273      7251BBAA 
 273      F38C009F 
 273      ADD2
 274 0a3f E78F7B34 		.ascii	"\347\217{4\265\320\203\241\370\374\020\362\205\356\363"
 274      B5D083A1 
 274      F8FC10F2 
ARM GAS  /tmp/ccQ3u45G.s 			page 22


 274      85EEF3
 275 0a4e 43F21DB3 		.ascii	"C\362\035\263T\211\317\323\235\016\223\212R\364\266"
 275      5489CFD3 
 275      9D0E938A 
 275      52F4B6
 276 0a5d 80E731BD 		.ascii	"\200\3471\275-\314\363:!\177S!\223\231\361S\"\013\035"
 276      2DCCF33A 
 276      217F5321 
 276      9399F153 
 276      220B1D
 277 0a70 E12D6973 		.ascii	"\341-is\224bV\275\313[)6\324\220q\366\253%\024\240v"
 277      946256BD 
 277      CB5B2936 
 277      D49071F6 
 277      AB2514A0 
 278 0a85 67F733E7 		.ascii	"g\3673\347\260\036S3\330jx\326\331>\336\201\233\036"
 278      B01E5333 
 278      D86A78D6 
 278      D93EDE81 
 278      9B1E
 279 0a97 7F99470C 		.ascii	"\177\231G\014\244\265\037KC\255\331\250\225\004SQ[\226"
 279      A4B51F4B 
 279      43ADD9A8 
 279      95045351 
 279      5B96
 280 0aa9 F802F078 		.ascii	"\370\002\360x\200\365\273\376\225xA\345\260\323a\242"
 280      80F5BBFE 
 280      957841E5 
 280      B0D361A2 
 281 0ab9 257DBCF9 		.ascii	"%}\274\371>\265\356B;\230\003ZR.\363\204\211F\370\222"
 281      3EB5EE42 
 281      3B98035A 
 281      522EF384 
 281      8946F892 
 282 0acd 5E4BF345 		.ascii	"^K\363E\0374J\3560\335a\354\203\372\011i~\320\267\211"
 282      1F344AEE 
 282      30DD61EC 
 282      83FA0969 
 282      7ED0B789 
 283 0ae1 D90EB6EC 		.ascii	"\331\016\266\354\317\2606\026\346|\026\341fivH\315\306"
 283      CFB03616 
 283      E67C16E1 
 283      66697648 
 283      CDC6
 284 0af3 0A5F90F3 		.ascii	"\012_\220\363\231\221V\312c\037s\213\274\357\212\005"
 284      999156CA 
 284      631F738B 
 284      BCEF8A05 
 285 0b03 76489396 		.ascii	"vH\223\226\313\037\254\340\313|\252\233\262  R\244("
 285      CB1FACE0 
 285      CB7CAA9B 
 285      B2202052 
 285      A428
 286 0b15 3FA0328C 		.ascii	"?\2402\214\302\264\236\256'\"\225X\201<\372\372\212"
 286      C2B49EAE 
 286      27229558 
 286      813CFAFA 
ARM GAS  /tmp/ccQ3u45G.s 			page 23


 286      8A
 287 0b26 1560DC78 		.ascii	"\025`\334x\005}\356=\2755\204RA\370\372j\010\275\202"
 287      057DEE3D 
 287      BD358452 
 287      41F8FA6A 
 287      08BD82
 288 0b39 1A034F29 		.ascii	"\032\003O)\213\365\0122IE\351~v\025J\273\336\364\036"
 288      8BF50A32 
 288      4945E97E 
 288      76154ABB 
 288      DEF41E
 289 0b4c C51E0EC5 		.ascii	"\305\036\016\305\254%\310\027\272YK\0026\363R\337\315"
 289      AC25C817 
 289      BA594B02 
 289      36F352DF 
 289      CD
 290 0b5d FCB0EF66 		.ascii	"\374\260\357f\026V\025\211\252\375\244\347\2027\252"
 290      16561589 
 290      AAFDA4E7 
 290      8237AA
 291 0b6c 45C466F2 		.ascii	"E\304f\362My\021\272W\340\372\026\217\203K\013;\026"
 291      4D7911BA 
 291      57E0FA16 
 291      8F834B0B 
 291      3B16
 292 0b7e 915C318B 		.ascii	"\221\\1\213&o\216\264_V\275\311\373\271\253\266\177"
 292      266F8EB4 
 292      5F56BDC9 
 292      FBB9ABB6 
 292      7F
 293 0b8f A7B5F7DD 		.ascii	"\247\265\367\335\317\273h\177\341\315\356\346\303\317"
 293      CFBB687F 
 293      E1CDEEE6 
 293      C3CF
 294 0b9d EA2FE6E5 		.ascii	"\352/\346\345\270\2662\254\004\015{\207=\372Q{\265\274"
 294      B8B632AC 
 294      040D7B87 
 294      3DFA517B 
 294      B5BC
 295 0baf 13509703 		.ascii	"\023P\227\003\316\256g\361-)D\252\305\347\243\035N\000"
 295      CEAE67F1 
 295      2D2944AA 
 295      C5E7A31D 
 295      4E00
 296 0bc1 ADD94A7E 		.ascii	"\255\331J~fT\003v\216\253\342\245`\007\213\035\212i"
 296      66540376 
 296      8EABE2A5 
 296      60078B1D 
 296      8A69
 297 0bd3 C1282B93 		.ascii	"\301(+\223n9p\303r\257,\275\332Y\264D\242\335\347\""
 297      6E3970C3 
 297      72AF2CBD 
 297      DA59B444 
 297      A2DDE722 
 298 0be7 11AFC7CF 		.ascii	"\021\257\307\317\362\343M\315\306\255\220\237\240\305"
 298      F2E34DCD 
 298      C6AD909F 
ARM GAS  /tmp/ccQ3u45G.s 			page 24


 298      A0C5
 299 0bf5 67BFC563 		.ascii	"g\277\305cK1\272R\204\273by\361y\036\257\322\200b\266"
 299      4B31BA52 
 299      84BB6279 
 299      F1791EAF 
 299      D28062B6 
 300 0c09 8836F7DD 		.ascii	"\2106\367\335\337\335z\233[\021J58Q\347\012^\016&A:"
 300      DFDD7A9B 
 300      5B114A35 
 300      3851E70A 
 300      5E0E2641 
 301 0c1e A6939A80 		.ascii	"\246\223\232\200\310\334\236\357p\217E\007\212\256\004"
 301      C8DC9EEF 
 301      708F4507 
 301      8AAE04
 302 0c2d E2E1B2E6 		.ascii	"\342\341\262\346PJi%\004\324R\013\350\301\210T\252\262"
 302      504A6925 
 302      04D4520B 
 302      E8C18854 
 302      AAB2
 303 0c3f 7423F1C4 		.ascii	"t#\361\304\250\177\353\255\002\342\346\275\363\223\236"
 303      A87FEBAD 
 303      02E2E6BD 
 303      F3939E
 304 0c4e 6BDECA5A 		.ascii	"k\336\312Z\205]\365)'\255\356\220g\001\225\356\376\262"
 304      855DF529 
 304      27ADEE90 
 304      670195EE 
 304      FEB2
 305 0c60 9E8E7CF1 		.ascii	"\236\216|\361\337\326\323\017\336zj\005ZR-Q\206)\340"
 305      DFD6D30F 
 305      DE7A6A05 
 305      5A522D51 
 305      8629E0
 306 0c73 666E7F4E 		.ascii	"fn\177N\377^}\0149J\205\365z\234V#.\205.$\036\351NV"
 306      FF5E7D0C 
 306      394A85F5 
 306      7A9C5623 
 306      2E852E24 
 307 0c8b 3897B7BE 		.ascii	"8\227\267\276\372U\313Fe\007\253P\260\032\327\317\026"
 307      FA55CB46 
 307      6507AB50 
 307      B01AD7CF 
 307      16
 308 0c9c 2565EDD5 		.ascii	"%e\355\325\324RUR?\374g%\325\377\322U,\251Rr\246\264"
 308      D4525552 
 308      3FFC6725 
 308      D5FFD255 
 308      2CA95272 
 309 0cb2 F36A0D39 		.ascii	"\363j\0159\326\377\312\325Zr\252<\240\256L\312\333\001"
 309      D6FFCAD5 
 309      5A72AA3C 
 309      A0AE4CCA 
 309      DB01
 310 0cc4 01847045 		.ascii	"\001\204pE\030\310v\203\037ES}u\355\217\366U7\213\347"
 310      18C87683 
 310      1F45537D 
ARM GAS  /tmp/ccQ3u45G.s 			page 25


 310      75ED8FF6 
 310      55378BE7 
 311 0cd8 418E6169 		.ascii	"A\216ai\227\256\325\360\251\225\225oX\306gf6\340\374"
 311      97AED5F0 
 311      A995956F 
 311      58C66766 
 311      36E0FC
 312 0ceb 32D23C88 		.ascii	"2\322<\210\235g\242\365~\357m\275\353 \224\262n\003"
 312      9D67A2F5 
 312      7EEF6DBD 
 312      EB2094B2 
 312      6E03
 313 0cfd E20CBDCD 		.ascii	"\342\014\275\315\265\005\326\346zom2\245*\307\2676\365"
 313      B505D6E6 
 313      7A6F6D32 
 313      A52AC7B7 
 313      36F5
 314 0d0f 3EBD0188 		.ascii	">\275\001\210[Ec\260\262\371\003\037\2337\206d\363&"
 314      5B4563B0 
 314      B2F9031F 
 314      9B378664 
 314      F326
 315 0d21 20CED06D 		.ascii	" \316\320m\336\024hs\273\327\346(\245*\267W\233\237"
 315      DE146873 
 315      BBD7E628 
 315      A52AB757 
 315      9B9F
 316 0d33 02E25636 		.ascii	"\002\342V6\017\241\014r\206}[\364J~\032Y\342\251j{k"
 316      0FA10C72 
 316      867D5BF4 
 316      4A7E1A59 
 316      E2A96A7B 
 317 0d48 99FBB604 		.ascii	"\231\373\266\004\267\314\223\201-s\255\306[f\257\025"
 317      B7CC9381 
 317      2D73ADC6 
 317      5B66AF15 
 318 0d58 6C87125A 		.ascii	"l\207\022Z\"\260\203\226P8\007\271\376YK&\016\356XN"
 318      22B08396 
 318      503807B9 
 318      FE594B26 
 318      0EEE584E 
 319 0d6c D60D0D28 		.ascii	"\326\015\015(\2740\356\314\357?\370\341O\376\033;\264"
 319      BC30EECC 
 319      EF3FF8E1 
 319      4FFE1B3B 
 319      B4
 320 0d7d 73629C72 		.ascii	"sb\234rz\230\274B\273\334\374\211\356\363s\350s\204"
 320      7A98BC42 
 320      BBDCFC89 
 320      EEF373E8 
 320      7384
 321 0d8f 3896EA59 		.ascii	"8\226\352Y\331\202\270H\236\251\307\232\365\253\266"
 321      D982B848 
 321      9EA9C79A 
 321      F5ABB6
 322 0d9e AD2098B7 		.ascii	"\255 \230\267\200\244\\\336R\250h\333\350\262\204XD"
 322      80A45CDE 
ARM GAS  /tmp/ccQ3u45G.s 			page 26


 322      52A868DB 
 322      E8B28458 
 322      44
 323 0daf BBF25EBD 		.ascii	"\273\362^\275m\203\200C\211\233EH\203\333\316\331z\333"
 323      6D838043 
 323      899B4548 
 323      83DBCED9 
 323      7ADB
 324 0dc1 C7C10DCA 		.ascii	"\307\301\015\312o\033\247\267\340I\310\234\007\364\272"
 324      6F1BA7B7 
 324      E049C89C 
 324      07F4BA
 325 0dd0 2AF96611 		.ascii	"*\371f\021u\225\262\226_Q&\206\034\\.U\\\212\376\017"
 325      7595B296 
 325      5F512686 
 325      1C5C2E55 
 325      5C8AFE0F 
 326 0de4 140FFD0B 		.ascii	"\024\017\375\013\2769\315\271\370\205\021)\005^\367"
 326      BE39CDB9 
 326      F8851129 
 326      055EF7
 327 0df3 1348C733 		.ascii	"\023H\3073\204-\017\004\215:\252\227T\262\2447lY\257"
 327      842D0F04 
 327      8D3AAA97 
 327      54B2A437 
 327      6C59AF
 328 0e06 D821BD62 		.ascii	"\330!\275b\207\222rZ;Q^\026\246_\377\343\0229\315;\210"
 328      8792725A 
 328      3B515E16 
 328      A65FFFE3 
 328      1239CD3B 
 329 0e1b 1E2794A0 		.ascii	"\036'\224\240\307\011e4\014\241a(H*\325\372T\030\316"
 329      C7096534 
 329      0CA16128 
 329      482AD5FA 
 329      5418CE
 330 0e2e AED14DFC 		.ascii	"\256\321M\374\010qc\200}\350\332Z\375\306\2400\250\017"
 330      08716380 
 330      7DE8DA5A 
 330      FDC6A030 
 330      A80F
 331 0e40 65505E86 		.ascii	"eP^\206\355\365lU\311\031\336\351\341\327{#\331\237"
 331      EDF56C55 
 331      C919DEE9 
 331      E1D77B23 
 331      D99F
 332 0e52 F8A6D8DD 		.ascii	"\370\246\330\335\374\255^\037\333q\271\014U@\243\344"
 332      FCAD5E1F 
 332      DB71B90C 
 332      5540A3E4 
 333 0e62 95C4273D 		.ascii	"\225\304'=\377\364.\220\031\224\342L\024\031\001$;\362"
 333      FFF42E90 
 333      1994E24C 
 333      14190124 
 333      3BF2
 334 0e74 92D03C9A 		.ascii	"\222\320<\232\014\344g=\317\026\275\242:@?<G\372\037"
 334      0CE4673D 
ARM GAS  /tmp/ccQ3u45G.s 			page 27


 334      CF16BDA2 
 334      3A403F3C 
 334      47FA1F
 335 0e87 9E7DBF16 		.ascii	"\236}\277\026:\240\227\353\3441,\233\177(4\315Pl\211"
 335      3AA097EB 
 335      E4312C9B 
 335      7F2834CD 
 335      506C89
 336 0e9a 0197BCC4 		.ascii	"\001\227\274\304U\301\214\242\227>\177F\357K;\340\347"
 336      55C18CA2 
 336      973E7F46 
 336      EF4B3BE0 
 336      E7
 337 0eab 5EBEEF84 		.ascii	"^\276\357\204\240\333\367\035\320\333\365\273_g{\001"
 337      A0DBF71D 
 337      D0DBF5BB 
 337      5F677B01 
 338 0ebb A457FC03 		.ascii	"\244W\374\003\302\357f~'\310\253\371\016\360\336\315"
 338      C2EF667E 
 338      27C8ABF9 
 338      0EF0DECD 
 339 0ecb EFEAD0AF 		.ascii	"\357\352\320\257\226\367\200\357\345<\247\356\316U\304"
 339      96F780EF 
 339      E53CA7EE 
 339      CE55C4
 340 0eda BD40FB2C 		.ascii	"\275@\373,\370S@x<\226\342L)X\206\253\217&\023\306\000"
 340      F8534078 
 340      3C96E24C 
 340      295886AB 
 340      8F2613C6 
 341 0eef D952E16A 		.ascii	"\331R\341j\233\343f\365$:z\263'\215\340\030\256\254"
 341      9BE366F5 
 341      243A7AB3 
 341      278DE018 
 341      AEAC
 342 0f01 626F9BC3 		.ascii	"bo\233\303\315\3520\213\304\235I\334\231\025X\210\016"
 342      CDEA308B 
 342      C49D49DC 
 342      99155888 
 342      0E
 343 0f12 34813039 		.ascii	"4\20109\204\331\003\025\033\332\370\247\3228\366\206"
 343      84D90315 
 343      1BDAF8A7 
 343      D238F686 
 344 0f22 1528A447 		.ascii	"\025(\244G\266{C\372\342\317\016\351K\301!}\261\327"
 344      B67B43FA 
 344      E2CF0EE9 
 344      4BC1217D 
 344      B1D7
 345 0f34 90FAC5ED 		.ascii	"\220\372\305\355%\025\267Do\330\216y\303\3662Z\232\353"
 345      2515B744 
 345      6FD88E79 
 345      C3F6325A 
 345      9AEB
 346 0f46 1FB6AE0E 		.ascii	"\037\266\256\016\223\242\276\202\324,\235J\233\004\274"
 346      93A2BE82 
 346      D42C9D4A 
ARM GAS  /tmp/ccQ3u45G.s 			page 28


 346      9B04BC
 347 0f55 A4A00AC6 		.ascii	"\244\240\012\306w\311\262\261(\0215\031c\221d\207zz"
 347      77C9B2B1 
 347      28113519 
 347      63916487 
 347      7A7A
 348 0f67 48A2872C 		.ascii	"H\242\207,;\324\321\303+0\031\371r\355\340\240\247\227"
 348      3BD4D1C3 
 348      2B3019F9 
 348      72EDE0A0 
 348      A797
 349 0f79 61F29536 		.ascii	"a\362\2256\007m\305\311\354\254\005\252`\274\372[\300"
 349      076DC5C9 
 349      ECAC05AA 
 349      60BCFA5B 
 349      C0
 350 0f8a 5AD2328E 		.ascii	"Z\3222\21621\012\245\237 5\343x\012Ga\036\334l\015W"
 350      32310AA5 
 350      9F2035E3 
 350      780A4761 
 350      1EDC6C0D 
 351 0f9f 35       		.ascii	"5"
 352 0fa0 EE1B7A79 		.ascii	"\356\033zyg\022\307#\\\3338\324\206\301\037\305\203"
 352      6712C723 
 352      5CDB38D4 
 352      86C11FC5 
 352      83
 353 0fb1 5EA92ED3 		.ascii	"^\251.\323?\3309J\331|\340g\307\374`p\314\017\374t\031"
 353      3FD8394A 
 353      D97CE067 
 353      C7FC6070 
 353      CC0FFC74 
 354 0fc6 BF8AE644 		.ascii	"\277\212\346D\373\335)\353\257\336\303\336\355\033\355"
 354      FBDD29EB 
 354      AFDEC3DE 
 354      ED1BED
 355 0fd5 BB7DFD72 		.ascii	"\273}\375rvP\345\354\260O\255\177\321\241\377\035\352"
 355      7650E5EC 
 355      B04FAD7F 
 355      D1A1FF1D 
 355      EA
 356 0fe6 35D49FA7 		.ascii	"5\324\237\247\247E\024\361\004\326Z\000\342V\272C?\207"
 356      A74514F1 
 356      04D65A00 
 356      E256BA43 
 356      3F87
 357 0ff8 EE47C6BE 		.ascii	"\356G\306\276?\361\005\274"
 357      3FF105BC 
 358 1000 3F3891D1 		.ascii	"?8\221\321vX\013\343\201\034\251\334\273>\335\315\372"
 358      76580BE3 
 358      811CA9DC 
 358      BB3EDDCD 
 358      FA
 359 1011 DAE1098E 		.ascii	"\332\341\011\216\330\017\225\233\327\317s\263~vX\303"
 359      D80F959B 
 359      D7CF73B3 
 359      7E7658C3 
ARM GAS  /tmp/ccQ3u45G.s 			page 29


 360 1021 11FD2A31 		.ascii	"\021\375*1\374yvx\204?\275\006\225\235\353g\22197\250"
 360      FC797678 
 360      843FBD06 
 360      959DEB67 
 360      913937A8 
 361 1035 543E4F4C 		.ascii	"T>OL\023\220i3\031=\201\347f\242\312\315w\273\364\334"
 361      13906933 
 361      193D81E7 
 361      66A2CACD 
 361      77BBF4DC 
 362 1049 1CFDD9B9 		.ascii	"\034\375\331\2719\026\234\233\243?\275\037\216\365\262"
 362      39169C9B 
 362      A33FBD1F 
 362      8EF5B2
 363 1058 1FB6EFD0 		.ascii	"\037\266\357\320C{\034\255\314\367\337\017\273v\244"
 363      437B1CAD 
 363      CCF7DF0F 
 363      BB76A4
 364 1067 29EAEB48 		.ascii	")\352\353H\315\376\26162\2112\300_$\307\377O?\320f\007"
 364      CDFEB136 
 364      328932C0 
 364      5F24C7FF 
 364      4F3FD066 
 365 107c 0537DB0E 		.ascii	"\0057\333\016\317\303\015@\312&n\336\270\300\315\362"
 365      CFC30D40 
 365      CA266EDE 
 365      B8C0CDF2 
 366 108c EDB09923 		.ascii	"\355\260\231#\216\303D\327\306Y\264\037\200]\344\377"
 366      8EC344D7 
 366      C659B41F 
 366      805DE4FF 
 367 109c 1C3AB8FC 		.ascii	"\034:\270\374\201\372ys\312\253\353k~U^3gqy\365\003"
 367      81FA7973 
 367      CAABEB6B 
 367      7E555E33 
 367      677179F5 
 368 10b1 8ED98EFA 		.ascii	"\216\331\216\372\206\362\306\205\213\352\036*\307\311"
 368      86F2C685 
 368      8BEA1E2A 
 368      C7C9
 369 10bf E2590B1D 		.ascii	"\342Y\013\035\365\213\032\2200\177\241\243\256qnY5\213"
 369      F58B1A90 
 369      307FA1A3 
 369      AE716E59 
 369      358B
 370 10d1 98BF704E 		.ascii	"\230\277pN\265\243\301Q_W6\3340\277ldXC\331\300\001"
 370      B5A3C151 
 370      5F5736DC 
 370      30BF6C64 
 370      5843D9C0 
 371 10e6 301F1AA0 		.ascii	"0\037\032\240:|\256\243\266v\316BpXt\036\343\303\216"
 371      3A7CAEA3 
 371      B676CE42 
 371      7058741E 
 371      E3C38E
 372 10f9 9AC607A0 		.ascii	"\232\306\007\240\316\344h\230Y[_g\267\326\316\231\333"
 372      CEE46898 
ARM GAS  /tmp/ccQ3u45G.s 			page 30


 372      595B5F67 
 372      B7D6CE99 
 372      DB
 373 110a 387356AD 		.ascii	"8sV\255\303^\007\26507\274q\336\374\331\213\346\232"
 373      C35E07B5 
 373      3037BC71 
 373      DEFCD98B 
 373      E69A
 374 111c 0AEB16D5 		.ascii	"\012\353\026\325\326\026\261\177\003\235_\276h"
 374      D616B17F 
 374      039D5FBE 
 374      68
 375              		.text
 376              		.section	.gnu.lto_chsnprintf.568cc5e0f3a44ede,"",%progbits
 377 0000 789C8D53 		.ascii	"x\234\215S\315KTQ\024?\347\276\217\321\031\3071\251"
 377      CD4B5451 
 377      143FE7BE 
 377      8FD119C7 
 377      31A9
 378 0012 452D4224 		.ascii	"E-B$\220\012z\213> \350\017\010\202V\012\265\222\347"
 378      900A7A8B 
 378      3E20E80F 
 378      0882560A 
 378      B592E7
 379 0025 731A2F7E 		.ascii	"s\032/~\214\314Wd\013\357\350T\003e\014N\020\025\246"
 379      8CCC5764 
 379      0BEFE854 
 379      03650C4E 
 379      1015A6
 380 0038 222281D0 		.ascii	"\"\"\201\320\242\215D\213W\270\220D%\222@!\032\022\333"
 380      A28D448B 
 380      57B89044 
 380      25924021 
 380      1A12DB
 381 004b 4C0BA155 		.ascii	"L\013\241U\021\275\316}o\336\214fP\027\336\271\367\236"
 381      11BDCE7D 
 381      6FDE8C66 
 381      5017DEB9 
 381      F79E
 382 005d 7B7EBFF3 		.ascii	"{~\277\363;\347\360\0300\370s]\242oU\001\270L;\006\000"
 382      3BE7F018 
 382      30F8735D 
 382      A26F5501 
 382      B84C3B06 
 383 0072 59611520 		.ascii	"Ya\025 [\307\230\222o\003\021T\245mPP\365\334*\323\326"
 383      5BC79892 
 383      6F031154 
 383      A56D5050 
 383      F5DC2AD3 
 384 0087 0D72EBAF 		.ascii	"\015r\353\257\216\222[C\335s\353\210\362\000\010\303"
 384      8E925B43 
 384      DD73EB88 
 384      F20008C3 
 385 0097 4C51351D 		.ascii	"LQ5\035\207\257\242$W[aZ\330\205\322\366\313M|$\354"
 385      87AFA224 
 385      575B615A 
 385      D885D2F6 
ARM GAS  /tmp/ccQ3u45G.s 			page 31


 385      CB4D7C24 
 386 00ac DC94F8E9 		.ascii	"\334\224\370\3518\210\034I\3109\004\013\341\012]\260"
 386      38881C49 
 386      C839040B 
 386      E10A5DB0 
 387 00bc C5DD98BA 		.ascii	"\305\335\230\272W\231\207\2657\212\017PL\215\024\304"
 387      579987B5 
 387      378A0F50 
 387      4C8D14C4 
 388 00cc 2F827254 		.ascii	"/\202rT\030\234\257!\247\274\235\035\334\017\025\343"
 388      189CAF21 
 388      A7BC9D1D 
 388      DC0F15E3 
 389 00dc F6C7E2D8 		.ascii	"\366\307\342\330\341]P\225\301\205\377I*\012\366\247"
 389      E15D5095 
 389      C185FF49 
 389      2A0AF6A7 
 390 00ec F7CB28C6 		.ascii	"\367\313(\306Ev\307q\"\0345\006\027\377\005|\316\354"
 390      4576C771 
 390      221C3506 
 390      17FF057C 
 390      CEEC
 391 00fe CF8E333F 		.ascii	"\317\2163?\361}\353)\036jF0q\026[A\301~\004\265r\321"
 391      F17DEB29 
 391      1E6A4630 
 391      71165B41 
 391      C17E04B5 
 392 0114 E982F564 		.ascii	"\351\202\365dX\210<s\344\011\003G\275\221L\200\0304"
 392      58883C73 
 392      E4090347 
 392      BD914C80 
 392      1834
 393 0126 C851EA16 		.ascii	"\310Q\352\026\023\247\351\305\304\031\327\316\272V\306"
 393      13A7E9C5 
 393      C419D7CE 
 393      BA56C6
 394 0135 821440AB 		.ascii	"\202\024@\253\235\254lv\0072\271+K\220\373\372\372["
 394      9DAC6C76 
 394      0732B92B 
 394      4B90FBFA 
 394      FA5B
 395 0147 5131F119 		.ascii	"Q1\361\031j\020CE\252\333#\256\003\025\310\267)+0\232"
 395      6A104345 
 395      AADB23AE 
 395      0315C8B7 
 395      292B309A 
 396 015b 1F2DCF1D 		.ascii	"\037-\317\035\367\003U?\326\241\025\251\306\252.\353"
 396      F703553F 
 396      D6A115A9 
 396      C6AA2EEB 
 397 016b 1ADC29E5 		.ascii	"\032\334)\345\313\001/\026\340&\374\020y\321\304\261"
 397      CB012F16 
 397      E026FC10 
 397      79D1C4B1 
 398 017b CE425705 		.ascii	"\316BW\005y\2068\326\3732\335\250\030\3521\304Jz\216"
 398      798638D6 
 398      FB32DDA8 
ARM GAS  /tmp/ccQ3u45G.s 			page 32


 398      18EA31C4 
 398      4A7A8E
 399 018e 418035B8 		.ascii	"A\2005\270U\272\327\273\217$d!\253\2214\370\025\273"
 399      55BAD7BB 
 399      8F246421 
 399      AB9134F8 
 399      15BB
 400 01a0 5112AE49 		.ascii	"Q\022\256IxX\302o\227\306\226u_p\250J\320hQIP\241\024"
 400      7858C26F 
 400      97C69675 
 400      5F70A84A 
 400      D0685149 
 401 01b7 C27EF8E1 		.ascii	"\302~\370\341XU\014H!\365\036'\307\210d\311\225\356"
 401      58550C48 
 401      21F51E27 
 401      C78864C9 
 401      95EE
 402 01c9 EF17D164 		.ascii	"\357\027\321dU\272\364\027\021\034\017\000\254\300\310"
 402      55BAF417 
 402      111C0F00 
 402      ACC0C8
 403 01d8 E6C297B7 		.ascii	"\346\302\227\267\350\247\017\237\204\023T\232\227\245"
 403      E8A70F9F 
 403      8413549A 
 403      97A5
 404 01e6 0BFDEE2E 		.ascii	"\013\375\356.\301\342v6\\\015\212U\224\321\332\000\244"
 404      C1E27636 
 404      5C0D8A55 
 404      94D1DA00 
 404      A4
 405 01f7 2E2BF393 		.ascii	".+\363\223\263~S\330\342$\312\036k\260n\310y\334\035"
 405      B37E53D8 
 405      E224CA1E 
 405      6BB06EC8 
 405      79DC1D
 406 020a 2DCF1FF1 		.ascii	"-\317\037\361\241\215n\377\302n\342\205\235\240\347"
 406      A18D6EFF 
 406      C26EE285 
 406      9DA0E7
 407 0219 7E028FB3 		.ascii	"~\002\217\263T\341Y\216\315\024!i\002.\267<5\327\006"
 407      54E1598E 
 407      CD142169 
 407      022EB73C 
 407      35D706
 408 022c ACBB435B 		.ascii	"\254\273C[\2017e\346\341\274r\316\300\013\221\227\277"
 408      813765E6 
 408      E1BC72CE 
 408      C00B9197 
 408      BF
 409 023d 1B48D65D 		.ascii	"\033H\326]\2173\273\036\245\336w\220-M\364V\033\355"
 409      8F33BB1E 
 409      A5DE7790 
 409      2D4DF456 
 409      1BED
 410 024f D1B6D3A8 		.ascii	"\321\266\323\250\211V\216\352\264\321\023\357\217\032"
 410      89568EEA 
 410      B4D113EF 
ARM GAS  /tmp/ccQ3u45G.s 			page 33


 410      8F1A
 411 025d 56BCFB86 		.ascii	"V\274\373\206\321\035\315\030V\017\357\342\361\244\221"
 411      D11DCD18 
 411      560FEFE2 
 411      F1A491
 412 026c 4AA4077A 		.ascii	"J\244\007z\015:d\314\004\217\247\223\3640\230\340\003"
 412      0D3A64CC 
 412      048FA793 
 412      F43098E0 
 412      03
 413 027d A96BA72C 		.ascii	"\251k\247,`\346 \353O\206\222|(\332y=\3369\220\356\323"
 413      60E620EB 
 413      4F86927C 
 413      28DA793D 
 413      DE3990EE 
 414 0292 13D154C6 		.ascii	"\023\321T\306\354\373\015.n\006\015"
 414      ECFB0D2E 
 414      6E060D
 415              		.text
 416              		.section	.gnu.lto_.symbol_nodes.568cc5e0f3a44ede,"",%progbits
 417 0000 789C458D 		.ascii	"x\234E\215=\012\302@\020F\277\331\331M\216\341\331<"
 417      3D0AC240 
 417      1046BFD9 
 417      D94D8EE1 
 417      D93C
 418 0012 86D58454 		.ascii	"\206\325\204T\301B\204\264j\241 \250\2470\202X\245\261"
 418      C14284B4 
 418      6AA120A8 
 418      A7308258 
 418      A5B1
 419 0024 512B25F8 		.ascii	"Q+%\370\033\033\265\021\213\340n\014f\2327\357\233a"
 419      1B1BB511 
 419      8BE06E0C 
 419      669A37EF 
 419      9B61
 420 0036 46412143 		.ascii	"FA!CU*#\001\272) \322\217\232\352DB\265\232#A\013\253"
 420      552A2301 
 420      BA2920D2 
 420      8F9AEA44 
 420      42B59A23 
 421 004d 3389AAD2 		.ascii	"3\211\252\322AD\352B\302\225v\"\242\234D\3774\010\210"
 421      4144EA42 
 421      C2957622 
 421      A29C44FF 
 421      340888
 422 0060 6E24A6B6 		.ascii	"n$\246\266+\211\3677& 9\024%\303\366\275\301l\231\277"
 422      2B89F737 
 422      26203914 
 422      25C3F6BD 
 422      C16C99BF 
 423 0074 7BCC3649 		.ascii	"{\3146I\236ec7>\253\215\257\031\3612\235\260\345k\370"
 423      9E656337 
 423      3EAB8DAF 
 423      19F1329D 
 423      B0E56BF8 
 424 0088 F09C8EB7 		.ascii	"\360\234\216\267E\313q:\337\305n\276\236\271\206\265"
 424      45CB713A 
ARM GAS  /tmp/ccQ3u45G.s 			page 34


 424      DFC56EBE 
 424      9EB986B5 
 425 0098 8FC5DEDE 		.ascii	"\217\305\336\336\324\036\262\222\214\320\375\320\006"
 425      D41EB292 
 425      8CD0FDD0 
 425      06
 426 00a5 234B7C01 		.ascii	"#K|\001\220xL\323"
 426      90784CD3 
 427              		.text
 428              		.section	.gnu.lto_.refs.568cc5e0f3a44ede,"",%progbits
 429 0000 789C6362 		.ascii	"x\234cb`b`e\200\000FF \007\000\000\237\000\016"
 429      60626065 
 429      80004646 
 429      20070000 
 429      9F000E
 430              		.text
 431              		.section	.gnu.lto_.decls.568cc5e0f3a44ede,"",%progbits
 432 0000 789CBD59 		.ascii	"x\234\275Y}\220\024\305\025\357\236\375\272=\266\360"
 432      7D9014C5 
 432      15EF9EFD 
 432      BA3DB6F0 
 433 0010 0483184D 		.ascii	"\004\203\030Mn\261 \177\230\202\005\305\362\3760h\274"
 433      6EB1207F 
 433      988205C5 
 433      F2FE3068 
 433      BC
 434 0021 04B01220 		.ascii	"\004\260\022 \021I\362\337\326\334\356\334\335\230\333"
 434      1149F2DF 
 434      D6DCEEDC 
 434      DD98DB
 435 0030 DD7377F6 		.ascii	"\335sw\366\220T\252h\371\270\234!\206\343+\234&\300"
 435      9054AA68 
 435      F9B89C21 
 435      86E32B9C 
 435      26C0
 436 0042 9D728851 		.ascii	"\235r\210Q\022\017\004\004\013X\011w\200\012\334\005"
 436      120F0404 
 436      0B580977 
 436      800ADC05 
 437 0052 340986CA 		.ascii	"4\011\206\312\205P\021\371P\022R\011D\360\362\272\247"
 437      855011F9 
 437      50125209 
 437      44F0F2BA 
 437      A7
 438 0063 6776676E 		.ascii	"gvgnzw\366\254\312\324\276\371\350\351\367\336\257\337"
 438      7A77F6AC 
 438      CAD4BEF9 
 438      E8E9F7DE 
 438      AFDF
 439 0075 7BDDFDDE 		.ascii	"{\335\375\336\254\204$\324!!4\004Gm\030\241\273<\010"
 439      AC8424D4 
 439      21213404 
 439      476D18A1 
 439      BB3C08
 440 0088 F9104233 		.ascii	"\371\020B3\200\274H\277\367\363\373.\244\037\001\240"
 440      80BC48BF 
 440      F7F3FB2E 
ARM GAS  /tmp/ccQ3u45G.s 			page 35


 440      A41F01A0 
 441 0098 6EA03D40 		.ascii	"n\240=@\207\200\306b\204\252\201\302@\023\200\340\207"
 441      8780C662 
 441      84AA81C2 
 441      401380E0 
 441      87
 442 00a9 1EC2C872 		.ascii	"\036\302\310rts>J\243\201B\\\346K@[\271\016z`\336\227"
 442      74733E4A 
 442      A381425C 
 442      E64B405B 
 442      B90E7A60 
 443 00bf BE7B0D68 		.ascii	"\276{\015h;\320.\240\327\255\342\230\356\020\3473\344"
 443      3BD02EA0 
 443      D7ADE298 
 443      EE10E733 
 443      E4
 444 00d0 51D953B9 		.ascii	"Q\331S\271\314\207A\3207\200\276\211\3651l\341z\350"
 444      CC8741D0 
 444      3780BE89 
 444      F5316CE1 
 444      7AE8
 445 00e2 21717E43 		.ascii	"!q~C\317[@9\240\003\016\270\351\370&\025\301=\023\353"
 445      CF5B4039 
 445      A0030EB8 
 445      E9F82615 
 445      C13D13EB 
 446 00f6 18A6003D 		.ascii	"\030\246\000=\012\367\307\341z\221\312\341X\250n\214"
 446      0AF7C7E1 
 446      7A91CAE1 
 446      58A86E8C 
 447 0106 F581D1CB 		.ascii	"\365\201\321\313\021\240\303@\337\202\207\023p\275\004"
 447      11A0C340 
 447      DF828713 
 447      70BD04
 448 0115 F420B7F7 		.ascii	"\364 \267\367\267\241m\016\320\\\240y@\337\345\370)"
 448      B7A16D0E 
 448      D05CA079 
 448      40DFE5F8 
 448      29
 449 0126 F61AA0C7 		.ascii	"\366\032\240\307\340~/\\\347\303\365q p\025:\006t\001"
 449      E07E2F5C 
 449      E7C3F571 
 449      2070153A 
 449      067401
 450 0139 6816C745 		.ascii	"h\026\307E\361.\300y\377\214\242\270\3419\004\024\005"
 450      F12EC079 
 450      FF8CA2B8 
 450      E1390414 
 450      05
 451 014a AA029281 		.ascii	"\252\002\222\201\352\200b@q \005\250\036\250\3016v\352"
 451      EA806240 
 451      712005A8 
 451      1EA8C136 
 451      76EA
 452 015c D7B170F5 		.ascii	"\327\261p\365\340\374\330'a=\016\214\330\240vh\204\266"
 452      E0FCD827 
 452      613D0E8C 
ARM GAS  /tmp/ccQ3u45G.s 			page 36


 452      D8A07668 
 452      84B6
 453 016e 89407703 		.ascii	"\211@w\003\251@\011\240'\200\222@\275\360>\005\327f"
 453      A94009A0 
 453      27809240 
 453      BDF03E05 
 453      D766
 454 0180 ACDB8BAA 		.ascii	"\254\333\213\252x\200\373d,\217\027\0327\024w5\037\323"
 454      7880FB64 
 454      2C8F171A 
 454      37147735 
 454      1FD3
 455 0192 9D70BD03 		.ascii	"\235p\275\003\350K6<A\324F\310\022\322\331Jf\037\001"
 455      E84B363C 
 455      41D446C8 
 455      12D2D94A 
 455      661F01
 456 01a5 3C3FC032 		.ascii	"<?\3002\036\035Dav\023\0122H\223\320fB\332\007\227_"
 456      1E1D4461 
 456      76130A32 
 456      4893D066 
 456      42DA0797 
 457 01ba BC2E1152 		.ascii	"\274.\021R!\343.\034\004w\337\217\321=\350e\002o\200"
 457      21E32E1C 
 457      0477DF8F 
 457      D13DE865 
 457      026F80
 458 01cd BF1A0D3F 		.ascii	"\277\032\015?d\354\013\016{\226\361f|\017\322\365\260"
 458      64EC0B0E 
 458      7B96F166 
 458      7C0FD2F5 
 458      B0
 459 01de D7FC864E 		.ascii	"\327\374\206N\225[\000-\332HrW\006\327\367m\371\362"
 459      955B002D 
 459      DA487257 
 459      06D7F76D 
 459      F9F2
 460 01f0 7324B78C 		.ascii	"s$\267\214\014\015-F\343\320:\320B\021\022\254\215B"
 460      0C0D2D46 
 460      E3D03AD0 
 460      421112AC 
 460      8D42
 461 0202 3FCDC3E5 		.ascii	"?\315\303\345\330\007\273\311\370\361&\364\012\003:"
 461      D807BBC9 
 461      F8F126F4 
 461      0A033A
 462 0211 36A05384 		.ascii	"6\240S\204\222\214\2672\330\013\261\003T\206\216\276"
 462      928CB732 
 462      D80BB103 
 462      54868EBE 
 463 0221 471C917E 		.ascii	"G\034\221~o\334\015ag\303P\256\227\360(C\204\250\313"
 463      6FDC0D61 
 463      67C350AE 
 463      97F02843 
 463      84A8CB
 464 0234 163C8EDD 		.ascii	"\026<\216\335y\330$\341<\346\203?hy\347\263>\352oe\274"
 464      79D824E1 
ARM GAS  /tmp/ccQ3u45G.s 			page 37


 464      3CE6833F 
 464      6879E7B3 
 464      3EEA6F65 
 465 0249 C0632295 		.ascii	"\300c\"\225\320\217\261iGzLD/\022\262\232\014(\263u"
 465      D08FB169 
 465      477A4C44 
 465      2F12B29A 
 465      0C28B375 
 466 025d D1B0F860 		.ascii	"\321\260\370`\332\243\033W;b\342\240\031[{n\303\315"
 466      DAA31B57 
 466      3B62E2A0 
 466      195B7B6E 
 466      C3CD
 467 026f B73119C3 		.ascii	"\2671\031\3034I\350\371\022\214\024\216\256.\267i\333"
 467      3449E8F9 
 467      128C148E 
 467      AE2EB769 
 467      DB
 468 0280 3B8CCF47 		.ascii	";\214\317G\3716\226\340\363\005M}=\205\3726\273\320"
 468      F93696E0 
 468      F3054D7D 
 468      3D85FA36 
 468      BBD0
 469 0292 87D05750 		.ascii	"\207\320WP7\3709\367\313\353G\272\030\253ns1\037\267"
 469      37F839F7 
 469      CBEB47BA 
 469      18AB6E73 
 469      311FB7
 470 02a5 FB6FB154 		.ascii	"\373o\261T\350a=\266r\373\373B\355O\017\016\015U[\342"
 470      E8613DB6 
 470      72FBFB42 
 470      ED4F0F0E 
 470      0D555BE2 
 471 02b9 4A172AF2 		.ascii	"J\027*\362\340\336\242\036\234Ziy\027pr\331\253\330"
 471      E0DEA21E 
 471      9C5A6979 
 471      177072D9 
 471      ABD8
 472 02cb D16757E3 		.ascii	"\321gW\343\334g2\356\001\2642\336\343\306gd\375\000"
 472      DC6732EE 
 472      01B432DE 
 472      E3C66764 
 472      FD00
 473 02dd 6EF330C5 		.ascii	"n\3630\3052\336a\347{\330\340\2530\321qmgh\204\004\250"
 473      32DE61E7 
 473      7BD8E0AB 
 473      30D1716D 
 473      67688404 
 474 02f2 DD7B181C 		.ascii	"\335{\030\034\261\262@\201\335\311\276s\337\231\235"
 474      B1B24081 
 474      DDC9BE73 
 474      DF999D
 475 0301 37BA8889 		.ascii	"7\272\210\211\233j\377p\243\017^\311\375\34308}5\271"
 475      9B6AFF70 
 475      A30F5EC9 
 475      FDE33038 
 475      7D35B9
ARM GAS  /tmp/ccQ3u45G.s 			page 38


 476 0314 3134E441 		.ascii	"14\344A6\273{\203B\263\367Z\315n\231\373c\320*&\305"
 476      36BB7B83 
 476      42B3F75A 
 476      CD6E99FB 
 476      63D02A26 
 477 0329 5F62D5FA 		.ascii	"_b\325\372\317\212\023\323\330\252u\004\217\0011Wm~"
 477      CF8A13D3 
 477      D8AA7504 
 477      8F013157 
 477      6D7E
 478 033b 282986E2 		.ascii	"()\206\342x\007Xu&}=\311\355\354\013\021\257\336\216"
 478      78075875 
 478      267D3DC9 
 478      EDEC0B11 
 478      AFDE8E
 479 034e 2CE22CC7 		.ascii	",\342,\307\004\324I\303vO\337\253w\220\316\203\330\021"
 479      04D449C3 
 479      764FDFAB 
 479      7790CE83 
 479      D811
 480 0360 3ED8A040 		.ascii	">\330\240@3\301\206\352*\0265m\0226\020\206\205\335"
 480      33C186EA 
 480      2A16356D 
 480      12361086 
 480      85DD
 481 0372 64DCCF42 		.ascii	"d\334\317B`\300\216rM+C9\340\012\345\272\276\243\340"
 481      60C08E72 
 481      4D2B4339 
 481      E00AE5BA 
 481      BEA3E0
 482 0385 A19005A4 		.ascii	"\241\220\005\244\315St\335\027\231\350=\373\014yh\224"
 482      CD5374DD 
 482      1799E83D 
 482      FB0C7968 
 482      94
 483 0396 A3DBCC25 		.ascii	"\243\333\314%;7\276ct\2215\273}p\325\232m_\005\307\025"
 483      3B37BE63 
 483      749135BB 
 483      7D70D59A 
 483      6D5F05C7 
 484 03ab ACF12206 		.ascii	"\254\361\"\006\031\237\306\223\340\214\255\333\213\271"
 484      199FC693 
 484      E08CADDB 
 484      8BB9
 485 03b9 84F3155C 		.ascii	"\204\363\025\\B\275\222\325\371.ds0o\376bc\015\213\242"
 485      42BD92D5 
 485      F92E6473 
 485      306FFE62 
 485      630D8BA2 
 486 03cd 336C1359 		.ascii	"3l\023Y\342\261\012\342\312\314\243$\226r\372\212L\376"
 486      E2B10AE2 
 486      CACCA324 
 486      9672FA8A 
 486      4CFE
 487 03df C7FCCE53 		.ascii	"\307\374\316Sh\370.<|\375\021\2118\225\027!\241\237"
 487      68F82E3C 
 487      7CFD1189 
ARM GAS  /tmp/ccQ3u45G.s 			page 39


 487      38951721 
 487      A19F
 488 03f1 B141D168 		.ascii	"\261A\321hq\352\316o-\362,\021\0043\255w\032\335\264"
 488      71EACE6F 
 488      2DF22C11 
 488      0433AD77 
 488      1ADDB4
 489 0404 3D238DA1 		.ascii	"=#\215\241s.cH\306\037\024\221\362\341\3477\313\337"
 489      732E6348 
 489      C61F1491 
 489      F2E1E737 
 489      CBDF
 490 0416 0ACDB2BA 		.ascii	"\012\315\262\272l\263\204\013\315B\266\023\022\364\213"
 490      6CB3840B 
 490      CD42B613 
 490      12F48B
 491 0425 4DC26290 		.ascii	"M\302b\220\270\311\277\376\362\374\211\001\274\024x"
 491      B8C9BFFE 
 491      F2FC8901 
 491      BC1478
 492 0434 647C9945 		.ascii	"d|\231E\341\240\307!\234]\211Zu\362P\017^\302D]a\242"
 492      E1A0C721 
 492      9C5D895A 
 492      75F2500F 
 492      5EC2445D 
 493 044a FE3E6251 		.ascii	"\376>bQo\276\277[\237\031W\231\240\217\207\315\014\277"
 493      6FBEBF5B 
 493      9F195799 
 493      A08F87CD 
 493      0CBF
 494 045c 6D66F8AD 		.ascii	"mf\370\255\321\016\217T\3235\232\000\342\305\274\205"
 494      D10E8F54 
 494      D3359A00 
 494      E2C5BC85 
 495 046c 3E04D0FF 		.ascii	">\004\320\377\235O\024\017\227\304\201\251\307\242\333"
 495      9D4F140F 
 495      97C481A9 
 495      C7A2DB
 496 047b C0BA5818 		.ascii	"\300\272X\030X\327\334\004VE\241<T\030X\356\346\333"
 496      58D7DC04 
 496      5645A13C 
 496      541858EE 
 496      E6DB
 497 048d E52233E5 		.ascii	"\345\"3\345S\207a\271\032\306\177Y\302b:YB7\312\036"
 497      538761B9 
 497      1AC67F59 
 497      C2623A59 
 497      4237CA1E 
 498 04a1 4A18590F 		.ascii	"J\030Y\017C\234\214O\342\011p>\313\316\027\330\371:"
 498      439C8C4F 
 498      E209703E 
 498      CBCE17D8 
 498      F93A
 499 04b3 9C4B623A 		.ascii	"\234Kb:^hZ\342\305|\333.s)s:\012\367\177\031\277\313"
 499      5E685AE2 
 499      C57CDB2E 
 499      7329733A 
ARM GAS  /tmp/ccQ3u45G.s 			page 40


 499      0AF77F19 
 500 04c9 B69A636E 		.ascii	"\266\232cn \035\316C\032\341V(\343\227\231\272\221\225"
 500      201DCE43 
 500      1AE15628 
 500      E39799BA 
 500      9195
 501 04db 26447258 		.ascii	"&DrX\011\335\346M\317\235\355\277\353\015B\252d\274"
 501      09DDE64D 
 501      CF9DEDBF 
 501      EB0D42AA 
 501      64BC
 502 04ed 54A289D3 		.ascii	"T\242\211\323no\231\211\223.'\327s\031\207e\334\312"
 502      6E6F9989 
 502      932E27D7 
 502      73198765 
 502      DCCA
 503 04ff 641CF0DA 		.ascii	"d\034\360\332\027\207\231c\254\226\236iMa\006\367\325"
 503      17879963 
 503      AC969E69 
 503      4D6106F7 
 503      D5
 504 0510 93F60AD6 		.ascii	"\223\366\012\326,\241\323^a\3516k\202\340\305\314\274"
 504      2CA1D35E 
 504      61E9366B 
 504      82E0C5CC 
 504      BC
 505 0521 E39E9126 		.ascii	"\343\236\221&\015\357i\313\322\317y\235\262\364\301"
 505      0DEF69CB 
 505      D2CF799D 
 505      B2F4C1
 506 0530 F5AD3706 		.ascii	"\365\2557\006\360\332\245d\266\356SX\345X\277C\302\364"
 506      F0DAA564 
 506      B6EE5358 
 506      E558BF43 
 506      C2F4
 507 0542 F9B099AB 		.ascii	"\371\260\231\253\363\244\233\272BB\377,\301\306\034"
 507      F3A49BBA 
 507      4242FF2C 
 507      C1C61C
 508 0551 66A4F850 		.ascii	"f\244\370P\246`\303\370\377.\301H{!\236\257\023\362"
 508      A660C3F8 
 508      FF2EC148 
 508      7B219EAF 
 508      13F2
 509 0563 4AEBF22A 		.ascii	"J\353\362*/K\254Q\021.>\376\025\322\260|\275s0w\352"
 509      2F4BAC51 
 509      112E3EFE 
 509      15D2B07C 
 509      BD733077 
 510 0578 A45E246D 		.ascii	"\244^$m\012\273\317\326\327J\305\212$\276\377\232\317"
 510      0ABBCFD6 
 510      D74AC58A 
 510      24BEFF9A 
 510      CF
 511 0589 D6E084D6 		.ascii	"\326\340\204\326\353\216\266'g\342fU\273\314G{\254\221"
 511      EB8EB627 
 511      67E26655 
ARM GAS  /tmp/ccQ3u45G.s 			page 41


 511      BBCC477B 
 511      AC91
 512 059b 4A5748AB 		.ascii	"JWH\253\311:ju\375CE[\0116\206\214\263\375\311p\226"
 512      C93A6A75 
 512      FD43455B 
 512      0936868C 
 512      B3FDC970 
 513 05b0 8C574A52 		.ascii	"\214WJRQ6>\000G\233\213\270\270\245:\2546\377>\366\254"
 513      51363E00 
 513      479B8BB8 
 513      B8A53AAC 
 513      36FF3EF6 
 514 05c5 F7D27387 		.ascii	"\367\322s\207W\257\227`W\275p\355\213\035\333\311\262"
 514      57AF9760 
 514      57BD70ED 
 514      8B1DDBC9 
 514      B2
 515 05d6 67C86743 		.ascii	"g\310gC\213\261\315\0073\276 \364\301\013R\311\212\251"
 515      8BB1CD07 
 515      33BE20F4 
 515      C10B52C9 
 515      8AA9
 516 05e8 B090E834 		.ascii	"\260\220\3504\013\211\333\2209cw\366\321\031\333\315"
 516      0B89DB90 
 516      396377F6 
 516      D119DBCD 
 517 05f8 02EF773E 		.ascii	"\002\357w>\307Y/\226\301>\244H\266Bd\203^.m\225\334"
 517      C7592F96 
 517      C13EA448 
 517      B6426483 
 517      5E2E6D95 
 518 060d 14223DAD 		.ascii	"\024\"=\255\233FZ.\365\373\\\225K\333\230g\177cG\371"
 518      9B465A2E 
 518      F5FB5C95 
 518      4BDB9867 
 518      7F6347F9 
 519 0621 A91CD65B 		.ascii	"\251\034\326[Kc\274y,\324.\353\351\263\214\377\212\015"
 519      4B63BC79 
 519      2CD42EEB 
 519      E9B38CFF 
 519      8A0D
 520 0633 7123CA9B 		.ascii	"q#\312\233\365\004QO:e\374Q\331\302\302N\302.2a\327"
 520      F504514F 
 520      3A65FC51 
 520      D9C2C24E 
 520      C22E3261 
 521 0648 DC081367 		.ascii	"\334\010\023g\030\2060}\273\277Y\266\260\260\315x\371"
 521      1886307D 
 521      BBBF59B6 
 521      B0B0CD78 
 521      F9
 522 0659 3DFE3589 		.ascii	"=\3765\211\356\353=\354\274\235\235wH.6\324W\362k\206"
 522      EEEB3DEC 
 522      BC9D9D77 
 522      482E36D4 
 522      57F26B86 
 523 066d 8C3F6378 		.ascii	"\214?cx\266\216\324\354\271\355}\314\207\037\262\245"
ARM GAS  /tmp/ccQ3u45G.s 			page 42


 523      B68ED4EC 
 523      B9ED7DCC 
 523      871FB2A5 
 524 067d E50C8BF3 		.ascii	"\345\014\213\363r\2049\232\275\213\225r\277\222\\ +"
 524      7284399A 
 524      BD8B9572 
 524      BF925C20 
 524      2B
 525 068e 6D767DF5 		.ascii	"mv}\365:\347\006\231\223\331\235\204\235w#\254\312\001"
 525      3AE70699 
 525      93D99D84 
 525      9D7723AC 
 525      CA01
 526 06a0 99D35138 		.ascii	"\231\323Q8\321!Qa\333\353\257\2313_g\347]\354\274\233"
 526      D1215161 
 526      DBEBAF99 
 526      335F67E7 
 526      5DECBC9B 
 527 06b4 9DF7B871 		.ascii	"\235\367\270q\357f\311\236/\231\325\234p\033q*\353$"
 527      EF66C99E 
 527      2F99D59C 
 527      701B712A 
 527      EB24
 528 06c6 F4896DD9 		.ascii	"\364\211m\3312\000\357\267.\274w\243.\222\353\207\355"
 528      3200EFB7 
 528      2EBC77A3 
 528      2E92EB87 
 528      ED
 529 06d7 FDF80086 		.ascii	"\375\370\000\206U\343\010,\002P\024T\337\212\332\371"
 529      55E3082C 
 529      02501454 
 529      DF8ADAF9 
 530 06e7 12C28A03 		.ascii	"\022\302\212\003c\235\223\014\274\023\271\264\234t+"
 530      639D930C 
 530      BC13B9B4 
 530      9C742B
 531 06f6 BBB3144B 		.ascii	"\273\263\024K\254\207h\204oI\371<.\024D6\377\261L\332"
 531      AC876884 
 531      6F49F93C 
 531      2E144436 
 531      FFB14CDA 
 532 070a 442E547B 		.ascii	"D.T{\220\017b:\332A\332r\355\036\035\210\351/^\322T"
 532      900F623A 
 532      DA41DA72 
 532      ED1E1D88 
 532      E92F5ED2 
 533 071f 1A2DD868 		.ascii	"\032-\330h\211\033-\222\321r>`4y\214\246\366\271F\223"
 533      891B2D92 
 533      D1723E60 
 533      34798CA6 
 533      F6B94693 
 534 0733 D768EA7C 		.ascii	"\327h\352|\326o\264\371\214\266\334\262\257\031m~\263"
 534      D66FB4F9 
 534      8CB6DCB2 
 534      AF196D7E 
 534      B3
 535 0744 ACDA76D6 		.ascii	"\254\332v\326k4\006\314\306\203\177\210XS[\332\270\366"
ARM GAS  /tmp/ccQ3u45G.s 			page 43


 535      6B3406CC 
 535      C6837F88 
 535      58535BDA 
 535      B8F6
 536 0756 E29FA9BB 		.ascii	"\342\237\251\273lU}\3010\206Y\356P>6l\\\364\353\272"
 536      6C557DC1 
 536      308659EE 
 536      503E366C 
 536      5CF4EBBA 
 537 076a 88AB37CF 		.ascii	"\210\2537\317U\201~\302\262\355\345\344i\374d\221o="
 537      55817EC2 
 537      B2EDE5E4 
 537      69FC6491 
 537      6F3D
 538 077c FCCF823E 		.ascii	"\374\317\202>\251\202~\347\361\013SN\332\301p\245~o"
 538      A9827EE7 
 538      F10B534E 
 538      DAC170A5 
 538      7E6F
 539 078e DC018B11 		.ascii	"\334\001\213\021A\035\243\365,\235k{\303\334\210n\347"
 539      411DA3F5 
 539      2C9D6B7B 
 539      C3DC886E 
 539      E7
 540 079f 528E961D 		.ascii	"R\216\226\035Bo\013Bh\234\335:9&\351R\021\353\024T\243"
 540      426F0B42 
 540      689CDD3A 
 540      3926E952 
 540      11EB1454 
 541 07b4 369B1E2D 		.ascii	"6\233\036-\342\211w\205\236(\366\005\375\230\200K`\251"
 541      E2897785 
 541      9E28F605 
 541      FD98804B 
 541      60A9
 542 07c6 1A833FC0 		.ascii	"\032\203?\300\371O\224m\250~"
 542      F94F946D 
 542      A87E
 543 07d0 81A18C3F 		.ascii	"\201\241\214?EE|\307\205\343\363\213\225\015\010\231"
 543      45457CC7 
 543      85E3F38B 
 543      950D0899 
 544 07e0 F61671C0 		.ascii	"\366\026q\300\357\205\\\001\261\252\223B&\237\230\351"
 544      EF855C01 
 544      B1AA9342 
 544      269F98E9 
 545 07f0 549E89FF 		.ascii	"T\236\211\377\015\262\241u%\244YK`\301;\000\371Q\031"
 545      0DB2A175 
 545      25A4594B 
 545      60C13B00 
 545      F95119
 546 0803 FF85BC5F 		.ascii	"\377\205\274_4\315w\3747\313\266:\267\371\335\375\027"
 546      34CD77FC 
 546      37CBB63A 
 546      B7F9DDFD 
 546      17
 547 0814 F29E8B4C 		.ascii	"\362\236\213L\277\235\254\241);\373\310\263\243\004"
 547      BF9DACA1 
ARM GAS  /tmp/ccQ3u45G.s 			page 44


 547      293BFBC8 
 547      B3A304
 548 0823 57FECF2B 		.ascii	"W\376\317+r\2002\261\277#w\226`\362\211\377\011\021"
 548      728032B1 
 548      BF237796 
 548      60F289FF 
 548      0911
 549 0835 3171439D 		.ascii	"1qC\235\266n6a\264\211f\327\373\346\205Y\006/\241g\375"
 549      B66E3661 
 549      B48966D7 
 549      FBE68559 
 549      062FA167 
 550 084a 46516770 		.ascii	"FQgpTb\263\333\007'\226tb\275'\262\364\312K\332\365"
 550      5462B3DB 
 550      07279674 
 550      62BD27B2 
 550      F4CA4BDA 
 551 085f 73522915 		.ascii	"sR)\025\357\261\262T\217\215%{\334XQ\252\307\277J\342"
 551      EFB1B254 
 551      8F8D257B 
 551      DC5851AA 
 551      C7BF4AE2 
 552 0873 582BEE61 		.ascii	"X+\356a\013aZ\277\210\002\357\274 \360\335WG\027\254"
 552      0B615ABF 
 552      8802EFBC 
 552      20F0DD57 
 552      4717AC
 553 0886 A11B422B 		.ascii	"\241\033B+\012u\317t\316\212\330\007@)\204l\207\250"
 553      0A75CF74 
 553      CE8AD807 
 553      4029846C 
 553      87A8
 554 0898 EB47C2E9 		.ascii	"\353G\302\351\271T\220vQ\256\313B\256\336\"\353\307"
 554      B9549076 
 554      51AECB42 
 554      AEDE22EB 
 554      C7
 555 08a9 C79FDB22 		.ascii	"\307\237\333\"W\354\223\231\216\324\3257\300O\012\352"
 555      57EC9399 
 555      8ED4D537 
 555      C04F0AEA 
 556 08b9 F77B23D9 		.ascii	"\367{#\331L:\322\244\326E\032b\261\210\234NLN\246\222"
 556      4C3AD2A4 
 556      D6451A62 
 556      B1889C4E 
 556      4C4EA692 
 557 08cd CA6445AE 		.ascii	"\312dE\256S#\323\247\324L\231\036Q\223\261\246l\\\211"
 557      5323D3A7 
 557      D44C991E 
 557      5193B1A6 
 557      6C5C89
 558 08e0 64B4785C 		.ascii	"d\264x\\\251\237\322\210\374\031\365GJT\363\317\232"
 558      A99FD288 
 558      FC19F547 
 558      4A54F3CF 
 558      9A
 559 08f1 BB205C8B 		.ascii	"\273 \\\213\356\2134\246\022J$\226\212/\212\304\225"
ARM GAS  /tmp/ccQ3u45G.s 			page 45


 559      EE8B34A6 
 559      124A2496 
 559      8A2F8AC4 
 559      95
 560 0902 9648AC51 		.ascii	"\226H\254Q\255SS\231\210\226\316&\177\030\201\233\026"
 560      AD535399 
 560      8896CE26 
 560      7F18819B 
 560      16
 561 0913 39ADA6B2 		.ascii	"9\255\246\262\031x\321\234V\223Z\375\224\030\362\306"
 561      1978D19C 
 561      56935AFD 
 561      9418F2C6 
 562 0923 1AE5F49D 		.ascii	"\032\345\364\235M\251dCTKE3\032\2647D\027\252Zc4\256"
 562      4DA96443 
 562      544B4533 
 562      1AB43744 
 562      17AA5A63 
 563 0939 B6A89954 		.ascii	"\266\250\231T\0327{\222\331\204/-\307\325\247\002\274"
 563      1A377B92 
 563      D9842F2D 
 563      C7D5A702 
 563      BC
 564 094a CD5BAFA5 		.ascii	"\315[\257\245\344`sZ\211\251\0315\225|\240\224\336\264"
 564      E460735A 
 564      89A91935 
 564      957CA094 
 564      DEB4
 565 095c 66428F35 		.ascii	"fB\2175\202\016ENd\000\375m\217\310\031e\276\362dVI"
 565      820E454E 
 565      6400FD6D 
 565      8FC81965 
 565      BEF26456 
 566 0971 6AAADC34 		.ascii	"j\252\3344\237\275\270\335\251\361{s\036\237\310\254"
 566      9FBDB8DD 
 566      A9F17B73 
 566      1E9FC8AC 
 567 0981 63B54A81 		.ascii	"c\265J\201=`8 1\220\205kMT\233^\244sB\006|I%\022\005"
 567      3D603820 
 567      3190856B 
 567      4D549B5E 
 567      A4734206 
 568 099a 13CAD926 		.ascii	"\023\312\331&-\252-jV(\234`4\312\331}\013\323\252\246"
 568      2DAA2D6A 
 568      56289C60 
 568      34CAD97D 
 568      0BD3AAA6 
 569 09ae 7841737C 		.ascii	"xAs|\266\213\2615\247\322Z&\362\365\307\346\324\316"
 569      B68BB135 
 569      A7D25A26 
 569      F2F5C7E6 
 569      D4CE
 570 09c0 790A7A26 		.ascii	"y\012z&\232\325&%\235\211\314\252\255\205\356\206t_"
 570      9AD52625 
 570      9D89CCAA 
 570      AD85EE86 
 570      745F
ARM GAS  /tmp/ccQ3u45G.s 			page 46


 571 09d2 2203260E 		.ascii	"\"\003&\016\200\202\373\356\215j\240\213\337y\232\263"
 571      8082FBEE 
 571      8D6AA08B 
 571      DF799AB3 
 572 09e2 9AA741D1 		.ascii	"\232\247A\321<-\011\255\254\010\220\323\015t\304-r\264"
 572      3C2D09AD 
 572      AC0890D3 
 572      0D74C42D 
 572      72B4
 573 09f4 49CD68A3 		.ascii	"I\315h\243\243\321\206d6\026\345\217\243\036\254\313"
 573      A3D18664 
 573      3616E58F 
 573      A31EACCB 
 574 0a04 AA4DDA64 		.ascii	"\252M\332d59\203\216\213\267\006c\215-\272\347=\020"
 574      3539838E 
 574      8BB70663 
 574      8D2DBAE7 
 574      3D10
 575 0a16 029EFA84 		.ascii	"\002\236\372\204&\311\315\225\340\222$o\005\337xiH\335"
 575      26C9CD95 
 575      E092246F 
 575      05DF7869 
 575      48DD
 576 0a28 EF369212 		.ascii	"\3576\222\022J\"\357\317\320\034%\221J/\322]F\037L\347"
 576      4A22EFCF 
 576      D01C2591 
 576      4A2FD25D 
 576      461F4CE7 
 577 0a3c F9EBB2F5 		.ascii	"\371\353\262\365\365J\332\243\2442\376T}}F\321B\211"
 577      F54ADAA3 
 577      A432FE54 
 577      7D7D46D1 
 577      4289
 578 0a4e CCBCBA27 		.ascii	"\314\274\272'\224\230\366hR\325|\315\251\205\323\246"
 578      9498F668 
 578      52D57CCD 
 578      A985D3A6 
 579 0a5e FAA28FA4 		.ascii	"\372\242\217\244RM\336&\210\255[\262\311\214\332\220"
 579      524DDE26 
 579      88AD5BB2 
 579      C98CDA90 
 580 0a6e 54E25130 		.ascii	"T\342Q0g\"\225\374\037\006~\334c"
 580      672295FC 
 580      1F067EDC 
 580      63
 581              		.text
 582              		.section	.gnu.lto_.symtab.568cc5e0f3a44ede,"",%progbits
 583 0000 63687670 		.ascii	"chvprintf\000\000\000\000\000\000\000\000\000\000\000"
 583      72696E74 
 583      66000000 
 583      00000000 
 583      00000000 
 584 0014 00C40000 		.ascii	"\000\304\000\000\000chsnprintf\000\000\000\000\000\000"
 584      00636873 
 584      6E707269 
 584      6E746600 
 584      00000000 
ARM GAS  /tmp/ccQ3u45G.s 			page 47


 585 0029 00000000 		.ascii	"\000\000\000\000\000\000\023\001\000\000msObjectIni"
 585      00001301 
 585      00006D73 
 585      4F626A65 
 585      6374496E 
 586 003e 74000002 		.ascii	"t\000\000\002\000\000\000\000\000\000\000\000\000!\001"
 586      00000000 
 586      00000000 
 586      002101
 587 004d 0000     		.ascii	"\000\000"
 588              		.text
 589              		.section	.gnu.lto_.opts,"",%progbits
 590 0000 272D6D63 		.ascii	"'-mcpu=cortex-m4' '-mfloat-abi=hard' '-mfpu=fpv4-sp"
 590      70753D63 
 590      6F727465 
 590      782D6D34 
 590      2720272D 
 591 0033 2D643136 		.ascii	"-d16' '-mno-thumb-interwork' '-mthumb' '-O2' '-fomi"
 591      2720272D 
 591      6D6E6F2D 
 591      7468756D 
 591      622D696E 
 592 0066 742D6672 		.ascii	"t-frame-pointer' '-falign-functions=16' '-ffunction"
 592      616D652D 
 592      706F696E 
 592      74657227 
 592      20272D66 
 593 0099 2D736563 		.ascii	"-sections' '-fdata-sections' '-fno-common' '-flto' "
 593      74696F6E 
 593      73272027 
 593      2D666461 
 593      74612D73 
 594 00cc 272D6673 		.ascii	"'-fsingle-precision-constant'\000"
 594      696E676C 
 594      652D7072 
 594      65636973 
 594      696F6E2D 
 595              		.text
 596              		.section	.text.long_to_string_with_divisor,"ax",%progbits
 597              		.align	2
 598              		.p2align 4,,15
 599              		.thumb
 600              		.thumb_func
 601              		.type	long_to_string_with_divisor, %function
 602              	long_to_string_with_divisor:
 603              		@ args = 0, pretend = 0, frame = 0
 604              		@ frame_needed = 0, uses_anonymous_args = 0
 605              		@ link register save eliminated.
 606 0000 F0B4     		push	{r4, r5, r6, r7}
 607 0002 002B     		cmp	r3, #0
 608 0004 08BF     		it	eq
 609 0006 0B46     		moveq	r3, r1
 610 0008 00F10B07 		add	r7, r0, #11
 611 000c 00F10A05 		add	r5, r0, #10
 612              	.L5:
 613 0010 B1FBF2F6 		udiv	r6, r1, r2
 614 0014 02FB1611 		mls	r1, r2, r6, r1
ARM GAS  /tmp/ccQ3u45G.s 			page 48


 615 0018 01F13004 		add	r4, r1, #48
 616 001c 392C     		cmp	r4, #57
 617 001e C8BF     		it	gt
 618 0020 01F13704 		addgt	r4, r1, #55
 619 0024 E4B2     		uxtb	r4, r4
 620 0026 B3FBF2F3 		udiv	r3, r3, r2
 621 002a 3146     		mov	r1, r6
 622 002c 2E46     		mov	r6, r5
 623 002e 05F80149 		strb	r4, [r5], #-1
 624 0032 002B     		cmp	r3, #0
 625 0034 ECD1     		bne	.L5
 626 0036 BA1B     		subs	r2, r7, r6
 627 0038 3346     		mov	r3, r6
 628 003a 0244     		add	r2, r2, r0
 629 003c 01E0     		b	.L7
 630              	.L11:
 631 003e 13F8014F 		ldrb	r4, [r3, #1]!	@ zero_extendqisi2
 632              	.L7:
 633 0042 00F8014B 		strb	r4, [r0], #1
 634 0046 9042     		cmp	r0, r2
 635 0048 F9D1     		bne	.L11
 636 004a F0BC     		pop	{r4, r5, r6, r7}
 637 004c 7047     		bx	lr
 638              		.size	long_to_string_with_divisor, .-long_to_string_with_divisor
 639              		.global	__aeabi_d2f
 640              		.global	__aeabi_f2d
 641              		.global	__aeabi_i2d
 642              		.global	__aeabi_dsub
 643              		.global	__aeabi_ui2d
 644              		.global	__aeabi_dmul
 645              		.global	__aeabi_d2iz
 646 004e 00BF     		.section	.text.chvprintf,"ax",%progbits
 647              		.align	2
 648              		.p2align 4,,15
 649              		.global	chvprintf
 650              		.thumb
 651              		.thumb_func
 652              		.type	chvprintf, %function
 653              	chvprintf:
 654              		@ args = 0, pretend = 0, frame = 48
 655              		@ frame_needed = 0, uses_anonymous_args = 0
 656 0000 2DE9F04F 		push	{r4, r5, r6, r7, r8, r9, r10, fp, lr}
 657 0004 2DED028B 		fstmfdd	sp!, {d8}
 658 0008 8DB0     		sub	sp, sp, #52
 659 000a 06AB     		add	r3, sp, #24
 660 000c 0493     		str	r3, [sp, #16]
 661 000e 0646     		mov	r6, r0
 662 0010 0498     		ldr	r0, [sp, #16]
 663 0012 0DF11903 		add	r3, sp, #25
 664 0016 181A     		subs	r0, r3, r0
 665 0018 0193     		str	r3, [sp, #4]
 666 001a 0C46     		mov	r4, r1
 667 001c 1746     		mov	r7, r2
 668 001e 0590     		str	r0, [sp, #20]
 669 0020 4FF00008 		mov	r8, #0
 670              	.L13:
 671 0024 2178     		ldrb	r1, [r4]	@ zero_extendqisi2
ARM GAS  /tmp/ccQ3u45G.s 			page 49


 672 0026 631C     		adds	r3, r4, #1
 673 0028 61B1     		cbz	r1, .L75
 674              	.L80:
 675 002a 2529     		cmp	r1, #37
 676 002c 10D0     		beq	.L15
 677 002e 3268     		ldr	r2, [r6]
 678 0030 1C46     		mov	r4, r3
 679 0032 9268     		ldr	r2, [r2, #8]
 680 0034 3046     		mov	r0, r6
 681 0036 9047     		blx	r2
 682 0038 2178     		ldrb	r1, [r4]	@ zero_extendqisi2
 683 003a 08F10108 		add	r8, r8, #1
 684 003e 631C     		adds	r3, r4, #1
 685 0040 0029     		cmp	r1, #0
 686 0042 F2D1     		bne	.L80
 687              	.L75:
 688 0044 4046     		mov	r0, r8
 689 0046 0DB0     		add	sp, sp, #52
 690              		@ sp needed
 691 0048 BDEC028B 		fldmfdd	sp!, {d8}
 692 004c BDE8F08F 		pop	{r4, r5, r6, r7, r8, r9, r10, fp, pc}
 693              	.L15:
 694 0050 6278     		ldrb	r2, [r4, #1]	@ zero_extendqisi2
 695 0052 2D2A     		cmp	r2, #45
 696 0054 03BF     		ittte	eq
 697 0056 A278     		ldrbeq	r2, [r4, #2]	@ zero_extendqisi2
 698 0058 A31C     		addeq	r3, r4, #2
 699 005a 4FF0010C 		moveq	ip, #1
 700 005e 4FF0000C 		movne	ip, #0
 701 0062 302A     		cmp	r2, #48
 702 0064 03BF     		ittte	eq
 703 0066 5A78     		ldrbeq	r2, [r3, #1]	@ zero_extendqisi2
 704 0068 0133     		addeq	r3, r3, #1
 705 006a 3025     		moveq	r5, #48
 706 006c 2025     		movne	r5, #32
 707 006e 1C46     		mov	r4, r3
 708 0070 4FF00009 		mov	r9, #0
 709 0074 06E0     		b	.L21
 710              	.L81:
 711 0076 3B78     		ldrb	r3, [r7]	@ zero_extendqisi2
 712 0078 0437     		adds	r7, r7, #4
 713              	.L19:
 714 007a 09EB8909 		add	r9, r9, r9, lsl #2
 715 007e 2278     		ldrb	r2, [r4]	@ zero_extendqisi2
 716 0080 03EB4909 		add	r9, r3, r9, lsl #1
 717              	.L21:
 718 0084 A2F13003 		sub	r3, r2, #48
 719 0088 DBB2     		uxtb	r3, r3
 720 008a 092B     		cmp	r3, #9
 721 008c 04F10104 		add	r4, r4, #1
 722 0090 F3D9     		bls	.L19
 723 0092 2A2A     		cmp	r2, #42
 724 0094 EFD0     		beq	.L81
 725 0096 2E2A     		cmp	r2, #46
 726 0098 4FF0000B 		mov	fp, #0
 727 009c 45D0     		beq	.L24
 728 009e 02F0DF03 		and	r3, r2, #223
ARM GAS  /tmp/ccQ3u45G.s 			page 50


 729 00a2 4C2B     		cmp	r3, #76
 730 00a4 4ED0     		beq	.L82
 731              	.L26:
 732 00a6 A2F14403 		sub	r3, r2, #68
 733 00aa 342B     		cmp	r3, #52
 734 00ac 00F23B81 		bhi	.L27
 735 00b0 DFE813F0 		tbh	[pc, r3, lsl #1]
 736              	.L29:
 737 00b4 2401     		.2byte	(.L28-.L29)/2
 738 00b6 3901     		.2byte	(.L27-.L29)/2
 739 00b8 3901     		.2byte	(.L27-.L29)/2
 740 00ba 3901     		.2byte	(.L27-.L29)/2
 741 00bc 3901     		.2byte	(.L27-.L29)/2
 742 00be 2401     		.2byte	(.L28-.L29)/2
 743 00c0 3901     		.2byte	(.L27-.L29)/2
 744 00c2 3901     		.2byte	(.L27-.L29)/2
 745 00c4 3901     		.2byte	(.L27-.L29)/2
 746 00c6 3901     		.2byte	(.L27-.L29)/2
 747 00c8 3901     		.2byte	(.L27-.L29)/2
 748 00ca 2201     		.2byte	(.L30-.L29)/2
 749 00cc 3901     		.2byte	(.L27-.L29)/2
 750 00ce 3901     		.2byte	(.L27-.L29)/2
 751 00d0 3901     		.2byte	(.L27-.L29)/2
 752 00d2 3901     		.2byte	(.L27-.L29)/2
 753 00d4 3901     		.2byte	(.L27-.L29)/2
 754 00d6 4E00     		.2byte	(.L62-.L29)/2
 755 00d8 3901     		.2byte	(.L27-.L29)/2
 756 00da 3901     		.2byte	(.L27-.L29)/2
 757 00dc C100     		.2byte	(.L32-.L29)/2
 758 00de 3901     		.2byte	(.L27-.L29)/2
 759 00e0 3901     		.2byte	(.L27-.L29)/2
 760 00e2 3901     		.2byte	(.L27-.L29)/2
 761 00e4 3901     		.2byte	(.L27-.L29)/2
 762 00e6 3901     		.2byte	(.L27-.L29)/2
 763 00e8 3901     		.2byte	(.L27-.L29)/2
 764 00ea 3901     		.2byte	(.L27-.L29)/2
 765 00ec 3901     		.2byte	(.L27-.L29)/2
 766 00ee 3901     		.2byte	(.L27-.L29)/2
 767 00f0 3901     		.2byte	(.L27-.L29)/2
 768 00f2 1701     		.2byte	(.L33-.L29)/2
 769 00f4 2401     		.2byte	(.L28-.L29)/2
 770 00f6 3901     		.2byte	(.L27-.L29)/2
 771 00f8 C300     		.2byte	(.L34-.L29)/2
 772 00fa 3901     		.2byte	(.L27-.L29)/2
 773 00fc 3901     		.2byte	(.L27-.L29)/2
 774 00fe 2401     		.2byte	(.L28-.L29)/2
 775 0100 3901     		.2byte	(.L27-.L29)/2
 776 0102 3901     		.2byte	(.L27-.L29)/2
 777 0104 3901     		.2byte	(.L27-.L29)/2
 778 0106 3901     		.2byte	(.L27-.L29)/2
 779 0108 3901     		.2byte	(.L27-.L29)/2
 780 010a 2201     		.2byte	(.L30-.L29)/2
 781 010c 3901     		.2byte	(.L27-.L29)/2
 782 010e 3901     		.2byte	(.L27-.L29)/2
 783 0110 3901     		.2byte	(.L27-.L29)/2
 784 0112 9D00     		.2byte	(.L35-.L29)/2
 785 0114 3901     		.2byte	(.L27-.L29)/2
ARM GAS  /tmp/ccQ3u45G.s 			page 51


 786 0116 4E00     		.2byte	(.L62-.L29)/2
 787 0118 3901     		.2byte	(.L27-.L29)/2
 788 011a 3901     		.2byte	(.L27-.L29)/2
 789 011c C100     		.2byte	(.L32-.L29)/2
 790              		.p2align 1
 791              	.L83:
 792 011e 3B78     		ldrb	r3, [r7]	@ zero_extendqisi2
 793 0120 0437     		adds	r7, r7, #4
 794              	.L23:
 795 0122 0BEB8B0B 		add	fp, fp, fp, lsl #2
 796 0126 03EB4B0B 		add	fp, r3, fp, lsl #1
 797              	.L24:
 798 012a 14F8012B 		ldrb	r2, [r4], #1	@ zero_extendqisi2
 799 012e A2F13003 		sub	r3, r2, #48
 800 0132 DBB2     		uxtb	r3, r3
 801 0134 092B     		cmp	r3, #9
 802 0136 F4D9     		bls	.L23
 803 0138 2A2A     		cmp	r2, #42
 804 013a F0D0     		beq	.L83
 805 013c 02F0DF03 		and	r3, r2, #223
 806 0140 4C2B     		cmp	r3, #76
 807 0142 B0D1     		bne	.L26
 808              	.L82:
 809 0144 2378     		ldrb	r3, [r4]	@ zero_extendqisi2
 810 0146 002B     		cmp	r3, #0
 811 0148 ADD0     		beq	.L26
 812 014a 0134     		adds	r4, r4, #1
 813 014c 1A46     		mov	r2, r3
 814 014e AAE7     		b	.L26
 815              	.L62:
 816 0150 0A22     		movs	r2, #10
 817              	.L31:
 818 0152 3968     		ldr	r1, [r7]
 819 0154 CDF800C0 		str	ip, [sp]
 820 0158 0437     		adds	r7, r7, #4
 821 015a 06A8     		add	r0, sp, #24
 822 015c 0023     		movs	r3, #0
 823              	.L78:
 824 015e FFF7FEFF 		bl	long_to_string_with_divisor
 825 0162 049A     		ldr	r2, [sp, #16]
 826 0164 DDF800C0 		ldr	ip, [sp]
 827 0168 801A     		subs	r0, r0, r2
 828 016a 431E     		subs	r3, r0, #1
 829 016c 0293     		str	r3, [sp, #8]
 830 016e 0DF1180A 		add	r10, sp, #24
 831              	.L36:
 832 0172 C0EB0909 		rsb	r9, r0, r9
 833 0176 29EAE979 		bic	r9, r9, r9, asr #31
 834 017a BCF1000F 		cmp	ip, #0
 835 017e 15D1     		bne	.L49
 836 0180 C9F10009 		rsb	r9, r9, #0
 837 0184 B9F1000F 		cmp	r9, #0
 838 0188 10D0     		beq	.L49
 839 018a 9AF80010 		ldrb	r1, [r10]	@ zero_extendqisi2
 840 018e 2D29     		cmp	r1, #45
 841 0190 00F0D180 		beq	.L84
 842              	.L50:
ARM GAS  /tmp/ccQ3u45G.s 			page 52


 843 0194 CB46     		mov	fp, r9
 844              	.L52:
 845 0196 3368     		ldr	r3, [r6]
 846 0198 3046     		mov	r0, r6
 847 019a 9B68     		ldr	r3, [r3, #8]
 848 019c 2946     		mov	r1, r5
 849 019e 9847     		blx	r3
 850 01a0 1BF1010B 		adds	fp, fp, #1
 851 01a4 F7D1     		bne	.L52
 852 01a6 C9EB0808 		rsb	r8, r9, r8
 853 01aa D946     		mov	r9, fp
 854              	.L49:
 855 01ac 029B     		ldr	r3, [sp, #8]
 856 01ae 002B     		cmp	r3, #0
 857 01b0 0EDB     		blt	.L53
 858 01b2 0AF1FF3B 		add	fp, r10, #-1
 859 01b6 9A44     		add	r10, r10, r3
 860              	.L55:
 861 01b8 3368     		ldr	r3, [r6]
 862 01ba 1BF8011F 		ldrb	r1, [fp, #1]!	@ zero_extendqisi2
 863 01be 9B68     		ldr	r3, [r3, #8]
 864 01c0 3046     		mov	r0, r6
 865 01c2 9847     		blx	r3
 866 01c4 D345     		cmp	fp, r10
 867 01c6 F7D1     		bne	.L55
 868 01c8 029A     		ldr	r2, [sp, #8]
 869 01ca 08F10108 		add	r8, r8, #1
 870 01ce 9044     		add	r8, r8, r2
 871              	.L53:
 872 01d0 B9F1000F 		cmp	r9, #0
 873 01d4 3FF426AF 		beq	.L13
 874 01d8 CA46     		mov	r10, r9
 875              	.L57:
 876 01da 3368     		ldr	r3, [r6]
 877 01dc 3046     		mov	r0, r6
 878 01de 9B68     		ldr	r3, [r3, #8]
 879 01e0 2946     		mov	r1, r5
 880 01e2 9847     		blx	r3
 881 01e4 BAF1010A 		subs	r10, r10, #1
 882 01e8 F7D1     		bne	.L57
 883 01ea C844     		add	r8, r8, r9
 884 01ec 1AE7     		b	.L13
 885              	.L35:
 886 01ee D7F800A0 		ldr	r10, [r7]
 887 01f2 654B     		ldr	r3, .L88
 888 01f4 BAF1000F 		cmp	r10, #0
 889 01f8 08BF     		it	eq
 890 01fa 9A46     		moveq	r10, r3
 891 01fc 47F6FF73 		movw	r3, #32767
 892 0200 9AF80000 		ldrb	r0, [r10]	@ zero_extendqisi2
 893 0204 0437     		adds	r7, r7, #4
 894 0206 BBF1000F 		cmp	fp, #0
 895 020a 08BF     		it	eq
 896 020c 9B46     		moveq	fp, r3
 897 020e 0028     		cmp	r0, #0
 898 0210 00F0B580 		beq	.L65
 899 0214 0BEB0A00 		add	r0, fp, r10
ARM GAS  /tmp/ccQ3u45G.s 			page 53


 900 0218 5346     		mov	r3, r10
 901 021a 02E0     		b	.L41
 902              	.L39:
 903 021c 9842     		cmp	r0, r3
 904 021e 00F09980 		beq	.L85
 905              	.L41:
 906 0222 5A78     		ldrb	r2, [r3, #1]	@ zero_extendqisi2
 907 0224 0133     		adds	r3, r3, #1
 908 0226 002A     		cmp	r2, #0
 909 0228 F8D1     		bne	.L39
 910 022a CAEB0300 		rsb	r0, r10, r3
 911 022e 431E     		subs	r3, r0, #1
 912 0230 0293     		str	r3, [sp, #8]
 913 0232 2025     		movs	r5, #32
 914 0234 9DE7     		b	.L36
 915              	.L32:
 916 0236 1022     		movs	r2, #16
 917 0238 8BE7     		b	.L31
 918              	.L34:
 919 023a 0737     		adds	r7, r7, #7
 920 023c 27F00707 		bic	r7, r7, #7
 921 0240 D7E90001 		ldrd	r0, [r7]
 922 0244 CDF800C0 		str	ip, [sp]
 923 0248 FFF7FEFF 		bl	__aeabi_d2f
 924 024c 08EE100A 		fmsr	s16, r0
 925 0250 B5EEC08A 		fcmpezs	s16
 926 0254 F1EE10FA 		fmstat
 927 0258 07F10807 		add	r7, r7, #8
 928 025c DDF800C0 		ldr	ip, [sp]
 929 0260 00F18580 		bmi	.L86
 930 0264 06A8     		add	r0, sp, #24
 931              	.L45:
 932 0266 FDEEC88A 		ftosizs	s17, s16
 933 026a 0BF1FF3B 		add	fp, fp, #-1
 934 026e DFF820E1 		ldr	lr, .L88+8
 935 0272 CDF800C0 		str	ip, [sp]
 936 0276 BBF1080F 		cmp	fp, #8
 937 027a 28BF     		it	cs
 938 027c 4FF0080B 		movcs	fp, #8
 939 0280 0A22     		movs	r2, #10
 940 0282 18EE901A 		fmrs	r1, s17	@ int
 941 0286 0023     		movs	r3, #0
 942 0288 5EF82BB0 		ldr	fp, [lr, fp, lsl #2]
 943 028c FFF7FEFF 		bl	long_to_string_with_divisor
 944 0290 8246     		mov	r10, r0
 945 0292 2E23     		movs	r3, #46
 946 0294 0AF8013B 		strb	r3, [r10], #1
 947 0298 18EE100A 		fmrs	r0, s16
 948 029c FFF7FEFF 		bl	__aeabi_f2d
 949 02a0 CDE90201 		strd	r0, [sp, #8]
 950 02a4 18EE900A 		fmrs	r0, s17	@ int
 951 02a8 FFF7FEFF 		bl	__aeabi_i2d
 952 02ac 0246     		mov	r2, r0
 953 02ae 0B46     		mov	r3, r1
 954 02b0 DDE90201 		ldrd	r0, [sp, #8]
 955 02b4 FFF7FEFF 		bl	__aeabi_dsub
 956 02b8 CDE90201 		strd	r0, [sp, #8]
ARM GAS  /tmp/ccQ3u45G.s 			page 54


 957 02bc 5846     		mov	r0, fp
 958 02be FFF7FEFF 		bl	__aeabi_ui2d
 959 02c2 0246     		mov	r2, r0
 960 02c4 0B46     		mov	r3, r1
 961 02c6 DDE90201 		ldrd	r0, [sp, #8]
 962 02ca FFF7FEFF 		bl	__aeabi_dmul
 963 02ce FFF7FEFF 		bl	__aeabi_d2iz
 964 02d2 2E4B     		ldr	r3, .L88+4
 965 02d4 0146     		mov	r1, r0
 966 02d6 A3FB0B03 		umull	r0, r3, r3, fp
 967 02da DB08     		lsrs	r3, r3, #3
 968 02dc 5046     		mov	r0, r10
 969 02de 0A22     		movs	r2, #10
 970 02e0 3DE7     		b	.L78
 971              	.L33:
 972 02e2 0598     		ldr	r0, [sp, #20]
 973 02e4 3B68     		ldr	r3, [r7]
 974 02e6 8DF81830 		strb	r3, [sp, #24]
 975 02ea 421E     		subs	r2, r0, #1
 976 02ec 0437     		adds	r7, r7, #4
 977 02ee 0292     		str	r2, [sp, #8]
 978 02f0 2025     		movs	r5, #32
 979 02f2 0DF1180A 		add	r10, sp, #24
 980 02f6 3CE7     		b	.L36
 981              	.L30:
 982 02f8 0822     		movs	r2, #8
 983 02fa 2AE7     		b	.L31
 984              	.L28:
 985 02fc 3968     		ldr	r1, [r7]
 986 02fe 0029     		cmp	r1, #0
 987 0300 07F10407 		add	r7, r7, #4
 988 0304 2CDB     		blt	.L87
 989 0306 06A8     		add	r0, sp, #24
 990              	.L44:
 991 0308 0A22     		movs	r2, #10
 992 030a 0023     		movs	r3, #0
 993 030c CDF800C0 		str	ip, [sp]
 994 0310 FFF7FEFF 		bl	long_to_string_with_divisor
 995 0314 049B     		ldr	r3, [sp, #16]
 996 0316 DDF800C0 		ldr	ip, [sp]
 997 031a C01A     		subs	r0, r0, r3
 998 031c 421E     		subs	r2, r0, #1
 999 031e 0292     		str	r2, [sp, #8]
 1000 0320 0DF1180A 		add	r10, sp, #24
 1001 0324 25E7     		b	.L36
 1002              	.L27:
 1003 0326 0598     		ldr	r0, [sp, #20]
 1004 0328 8DF81820 		strb	r2, [sp, #24]
 1005 032c 421E     		subs	r2, r0, #1
 1006 032e 0292     		str	r2, [sp, #8]
 1007 0330 0DF1180A 		add	r10, sp, #24
 1008 0334 1DE7     		b	.L36
 1009              	.L84:
 1010 0336 302D     		cmp	r5, #48
 1011 0338 7FF42CAF 		bne	.L50
 1012 033c 3368     		ldr	r3, [r6]
 1013 033e 3046     		mov	r0, r6
ARM GAS  /tmp/ccQ3u45G.s 			page 55


 1014 0340 9B68     		ldr	r3, [r3, #8]
 1015 0342 9847     		blx	r3
 1016 0344 029A     		ldr	r2, [sp, #8]
 1017 0346 013A     		subs	r2, r2, #1
 1018 0348 0AF1010A 		add	r10, r10, #1
 1019 034c 08F10108 		add	r8, r8, #1
 1020 0350 0292     		str	r2, [sp, #8]
 1021 0352 1FE7     		b	.L50
 1022              	.L85:
 1023 0354 CAEB0000 		rsb	r0, r10, r0
 1024 0358 421E     		subs	r2, r0, #1
 1025 035a 0292     		str	r2, [sp, #8]
 1026 035c 2025     		movs	r5, #32
 1027 035e 08E7     		b	.L36
 1028              	.L87:
 1029 0360 2D23     		movs	r3, #45
 1030 0362 4942     		negs	r1, r1
 1031 0364 8DF81830 		strb	r3, [sp, #24]
 1032 0368 0DF11900 		add	r0, sp, #25
 1033 036c CCE7     		b	.L44
 1034              	.L86:
 1035 036e 2D23     		movs	r3, #45
 1036 0370 B1EE488A 		fnegs	s16, s16
 1037 0374 8DF81830 		strb	r3, [sp, #24]
 1038 0378 0DF11900 		add	r0, sp, #25
 1039 037c 73E7     		b	.L45
 1040              	.L65:
 1041 037e 4FF0FF33 		mov	r3, #-1
 1042 0382 0293     		str	r3, [sp, #8]
 1043 0384 2025     		movs	r5, #32
 1044 0386 F4E6     		b	.L36
 1045              	.L89:
 1046              		.align	2
 1047              	.L88:
 1048 0388 00000000 		.word	.LC0
 1049 038c CDCCCCCC 		.word	-858993459
 1050 0390 00000000 		.word	.LANCHOR0
 1051              		.size	chvprintf, .-chvprintf
 1052 0394 AFF30080 		.section	.text.chsnprintf,"ax",%progbits
 1052      AFF30080 
 1052      AFF30080 
 1053              		.align	2
 1054              		.p2align 4,,15
 1055              		.global	chsnprintf
 1056              		.thumb
 1057              		.thumb_func
 1058              		.type	chsnprintf, %function
 1059              	chsnprintf:
 1060              		@ args = 4, pretend = 8, frame = 24
 1061              		@ frame_needed = 0, uses_anonymous_args = 1
 1062 0000 0CB4     		push	{r2, r3}
 1063 0002 70B5     		push	{r4, r5, r6, lr}
 1064 0004 86B0     		sub	sp, sp, #24
 1065 0006 0C46     		mov	r4, r1
 1066 0008 0546     		mov	r5, r0
 1067 000a 0A9E     		ldr	r6, [sp, #40]
 1068 000c B1B1     		cbz	r1, .L91
ARM GAS  /tmp/ccQ3u45G.s 			page 56


 1069 000e 01A8     		add	r0, sp, #4
 1070 0010 2946     		mov	r1, r5
 1071 0012 621E     		subs	r2, r4, #1
 1072 0014 0023     		movs	r3, #0
 1073 0016 FFF7FEFF 		bl	msObjectInit
 1074 001a 0BAB     		add	r3, sp, #44
 1075 001c 1A46     		mov	r2, r3
 1076 001e 01A8     		add	r0, sp, #4
 1077 0020 3146     		mov	r1, r6
 1078 0022 0093     		str	r3, [sp]
 1079 0024 FFF7FEFF 		bl	chvprintf
 1080 0028 049B     		ldr	r3, [sp, #16]
 1081 002a 9C42     		cmp	r4, r3
 1082 002c 01D9     		bls	.L93
 1083 002e 0022     		movs	r2, #0
 1084 0030 EA54     		strb	r2, [r5, r3]
 1085              	.L93:
 1086 0032 06B0     		add	sp, sp, #24
 1087              		@ sp needed
 1088 0034 BDE87040 		pop	{r4, r5, r6, lr}
 1089 0038 02B0     		add	sp, sp, #8
 1090 003a 7047     		bx	lr
 1091              	.L91:
 1092 003c 0A46     		mov	r2, r1
 1093 003e 2346     		mov	r3, r4
 1094 0040 0146     		mov	r1, r0
 1095 0042 01A8     		add	r0, sp, #4
 1096 0044 FFF7FEFF 		bl	msObjectInit
 1097 0048 0BAB     		add	r3, sp, #44
 1098 004a 01A8     		add	r0, sp, #4
 1099 004c 3146     		mov	r1, r6
 1100 004e 1A46     		mov	r2, r3
 1101 0050 0093     		str	r3, [sp]
 1102 0052 FFF7FEFF 		bl	chvprintf
 1103 0056 06B0     		add	sp, sp, #24
 1104              		@ sp needed
 1105 0058 BDE87040 		pop	{r4, r5, r6, lr}
 1106 005c 02B0     		add	sp, sp, #8
 1107 005e 7047     		bx	lr
 1108              		.size	chsnprintf, .-chsnprintf
 1109              		.section	.rodata.str1.4,"aMS",%progbits,1
 1110              		.align	2
 1111              	.LC0:
 1112 0000 286E756C 		.ascii	"(null)\000"
 1112      6C2900
 1113 0007 00       		.section	.rodata.pow10,"a",%progbits
 1114              		.align	2
 1115              		.set	.LANCHOR0,. + 0
 1116              		.type	pow10, %object
 1117              		.size	pow10, 36
 1118              	pow10:
 1119 0000 0A000000 		.word	10
 1120 0004 64000000 		.word	100
 1121 0008 E8030000 		.word	1000
 1122 000c 10270000 		.word	10000
 1123 0010 A0860100 		.word	100000
 1124 0014 40420F00 		.word	1000000
ARM GAS  /tmp/ccQ3u45G.s 			page 57


 1125 0018 80969800 		.word	10000000
 1126 001c 00E1F505 		.word	100000000
 1127 0020 00CA9A3B 		.word	1000000000
 1128              		.comm	__gnu_lto_v1,1,1
 1129              		.ident	"GCC: (GNU Tools for ARM Embedded Processors) 4.8.4 20140526 (release) [ARM/embedded-4_8-br
ARM GAS  /tmp/ccQ3u45G.s 			page 58


DEFINED SYMBOLS
                            *ABS*:0000000000000000 chprintf.c
     /tmp/ccQ3u45G.s:597    .text.long_to_string_with_divisor:0000000000000000 $t
     /tmp/ccQ3u45G.s:602    .text.long_to_string_with_divisor:0000000000000000 long_to_string_with_divisor
     /tmp/ccQ3u45G.s:647    .text.chvprintf:0000000000000000 $t
     /tmp/ccQ3u45G.s:653    .text.chvprintf:0000000000000000 chvprintf
     /tmp/ccQ3u45G.s:737    .text.chvprintf:00000000000000b4 $d
     /tmp/ccQ3u45G.s:790    .text.chvprintf:000000000000011e $t
     /tmp/ccQ3u45G.s:1048   .text.chvprintf:0000000000000388 $d
     /tmp/ccQ3u45G.s:1053   .text.chsnprintf:0000000000000000 $t
     /tmp/ccQ3u45G.s:1059   .text.chsnprintf:0000000000000000 chsnprintf
     /tmp/ccQ3u45G.s:1110   .rodata.str1.4:0000000000000000 $d
     /tmp/ccQ3u45G.s:1114   .rodata.pow10:0000000000000000 $d
     /tmp/ccQ3u45G.s:1118   .rodata.pow10:0000000000000000 pow10
                            *COM*:0000000000000001 __gnu_lto_v1
     /tmp/ccQ3u45G.s:1052   .text.chvprintf:0000000000000394 $t

UNDEFINED SYMBOLS
__aeabi_d2f
__aeabi_f2d
__aeabi_i2d
__aeabi_dsub
__aeabi_ui2d
__aeabi_dmul
__aeabi_d2iz
msObjectInit
