ARM GAS  /tmp/ccwtmY2Z.s 			page 1


   1              		.syntax unified
   2              		.cpu cortex-m4
   3              		.eabi_attribute 27, 3
   4              		.eabi_attribute 28, 1
   5              		.fpu fpv4-sp-d16
   6              		.eabi_attribute 20, 1
   7              		.eabi_attribute 21, 1
   8              		.eabi_attribute 23, 3
   9              		.eabi_attribute 24, 1
  10              		.eabi_attribute 25, 1
  11              		.eabi_attribute 26, 1
  12              		.eabi_attribute 30, 2
  13              		.eabi_attribute 34, 1
  14              		.eabi_attribute 18, 4
  15              		.thumb
  16              		.file	"chsys.c"
  17              		.section	.gnu.lto_.jmpfuncs.5b708cecc495d2be,"",%progbits
  18 0000 789C6362 		.ascii	"x\234cb`b\300\006\272\2414\017\003\003#\0033\020\203"
  18      6062C006 
  18      BAA1340F 
  18      03032303 
  18      331083
  19 0013 68867A06 		.ascii	"h\206z\006\006\026\006V\006\0066\006V\246j\206_\015"
  19      06160656 
  19      06063606 
  19      56A66A86 
  19      5F0D
  20 0025 1D0D0299 		.ascii	"\035\015\002\231\214\014\271\214`\245L\021\214\231\214"
  20      8C0CB98C 
  20      60A54C11 
  20      8C998C
  21 0034 8C0F98A0 		.ascii	"\214\017\230\240,&\240(B\021s2\222\"\026\020\003!\307"
  21      2C26A028 
  21      42117332 
  21      92221610 
  21      0321C7
  22 0047 9ACBC808 		.ascii	"\232\313\310\010\227cr\2009\201\213\221\033l?/#\003"
  22      97637280 
  22      39818B91 
  22      1B6C3F2F 
  22      2303
  23 0059 1F3B3F23 		.ascii	"\037;?#\003\0007~\021\200"
  23      0300377E 
  23      1180
  24              		.text
  25              		.section	.gnu.lto_.inline.5b708cecc495d2be,"",%progbits
  26 0000 789C758F 		.ascii	"x\234u\217\261\015\3020\020E\3779\216\023\022\207D("
  26      B10DC230 
  26      1045FF39 
  26      8E131287 
  26      4428
  27 0012 05501006 		.ascii	"\005P\020\006@\214\222\232\206\032X\201\001\250\020"
  27      408C929A 
  27      861A5881 
  27      01A810
  28 0021 CA081982 		.ascii	"\312\010\031\202-h\250\221\2202\0025\025>'\030\020\340"
  28      2D68A891 
ARM GAS  /tmp/ccwtmY2Z.s 			page 2


  28      90320235 
  28      153E2718 
  28      10E0
  29 0033 C2FEFAF7 		.ascii	"\302\376\372\367\316\377N@\340\327\331R\373j K\011b"
  29      CEFF4E40 
  29      E0D7D952 
  29      FB6A204B 
  29      0962
  30 0045 5C9D08AA 		.ascii	"\\\235\010\252.,M\220\302x\262. \333~\017\323\013[\263"
  30      2E2C4D90 
  30      C278B22E 
  30      20DB7E0F 
  30      D30B5BB3 
  31 0059 E33D7798 		.ascii	"\343=w\230\210\015Z\225\024\031-3b-\321\013\014\246"
  31      880D5A95 
  31      14192D33 
  31      622DD10B 
  31      0CA6
  32 006b ABD2513E 		.ascii	"\253\322Q>\242\230\255\303\313\262\035\012\243\006\\"
  32      A298ADC3 
  32      CBB21D0A 
  32      A3065C
  33 007a 6896AEA0 		.ascii	"h\226\256\240R\346\371\310\004\234l\311\277W\3645g\014"
  33      52E6F9C8 
  33      049C6CC9 
  33      BF57F435 
  33      670C
  34 008c A9C9CA8F 		.ascii	"\251\311\312\217,\215\200gP\267\371\247\237@E\344a\265"
  34      2C8D8067 
  34      50B7F9A7 
  34      9F4045E4 
  34      61B5
  35 009e A00D2976 		.ascii	"\240\015)v\327N\221\335\272\373\307$d]\223\004\372H"
  35      D74E91DD 
  35      BAFBC724 
  35      645D9304 
  35      FA48
  36 00b0 02F20413 		.ascii	"\002\362\004\023DO\326\177c5\302\272\030\"<\2479\227"
  36      444FD67F 
  36      6335C2BA 
  36      18223CA7 
  36      3997
  37 00c2 530CAEBC 		.ascii	"S\014\256\274\351d\267\217]>\036gI\0376"
  37      E964B78F 
  37      5D3E1E67 
  37      491F36
  38              		.text
  39              		.section	.gnu.lto_.pureconst.5b708cecc495d2be,"",%progbits
  40 0000 789C6362 		.ascii	"x\234cb`b\220d\200\000\036\006)F3f+\026+V+6+.3n\011"
  40      60629064 
  40      80001E06 
  40      29463366 
  40      2B162B56 
  41 001b 1E2B5E09 		.ascii	"\036+^\011>\006~)\000\"\330\002z"
  41      3E067E29 
  41      0022D802 
  41      7A
ARM GAS  /tmp/ccwtmY2Z.s 			page 3


  42              		.text
  43              		.section	.gnu.lto_port_init.5b708cecc495d2be,"",%progbits
  44 0000 789CAD93 		.ascii	"x\234\255\223Oh\023A\024\306\337\333?\3156\311\226\340"
  44      4F681341 
  44      14C6DFDB 
  44      3FCD36C9 
  44      96E0
  45 0012 4111148A 		.ascii	"A\021\024\212\327\252\213 x\020A\351)`.\266B=\225t\263"
  45      D7AA8B20 
  45      781041E9 
  45      29602EB6 
  45      423D9574 
  46 0027 6C169B46 		.ascii	"l\026\233F\322$\324S'$\352\245H\360R\255\036Rc\255T"
  46      D224D453 
  46      2724EAA5 
  46      48F052AD 
  46      1E5263AD 
  47 003c 316011A2 		.ascii	"1`\021\242^\202\340\301\203b=\326\202AA\304^\352\245"
  47      5E82E0C1 
  47      83623DD6 
  47      824141C4 
  47      5EEAA5
  48 004f 7808C679 		.ascii	"x\010\306y;\273\261\255\332\366\340\300\316\333\235"
  48      3BBBB1AD 
  48      DAF6E0C0 
  48      CEDB9D
  49 005e 79F37DBF 		.ascii	"y\363}\277\231y+\201\004[\333~\376D\025\200k<\242\014"
  49      99792B81 
  49      045BDB7E 
  49      FE441580 
  49      6B3CA20C 
  50 0072 2895DF02 		.ascii	"(\225\337\002\0244\011\221^\000aR\302\311\013H\251x"
  50      14340991 
  50      5E006152 
  50      C2C90B48 
  50      A978
  51 0084 086619BB 		.ascii	"\010f\031\273\321\234\253M\037\270\305\032\245\012k"
  51      D19CAB4D 
  51      1FB8C51A 
  51      A50A6B
  52 0093 B5DB880E 		.ascii	"\265\333\210\016r\331\323\010&\302\020\377\300^7H\312"
  52      72D9D308 
  52      26C210FF 
  52      C05E3748 
  52      CA
  53 00a4 669F9AD4 		.ascii	"f\237\232\324h\266\333\217\027\353\265\263\255%u\217"
  53      68B6DB8F 
  53      17EBB5B3 
  53      AD25758F 
  54 00b4 020ECA2A 		.ascii	"\002\016\312*u\001\3524\352\302\020\307Yn\242{\261\307"
  54      7501EA34 
  54      EAC210C7 
  54      596EA27B 
  54      B1C7
  55 00c6 8BBCA950 		.ascii	"\213\274\251Pb\254\334\013d\302\333 \357\011\357<J\024"
  55      62ACDC0B 
  55      64C2DB20 
ARM GAS  /tmp/ccwtmY2Z.s 			page 4


  55      EF09EF3C 
  55      4A14
  56 00d8 E537F0B2 		.ascii	"\3457\360\262^\377\371\015\343XE\025\372`\201\225\012"
  56      5EFFF90D 
  56      E3584515 
  56      FA608195 
  56      0A
  57 00e9 4C7750B9 		.ascii	"LwP\271\0153\234E%\240.\266\\d=.[\227K4\202\202\214"
  57      0D339C45 
  57      25A02EB6 
  57      5C643D2E 
  57      5B974B34 
  58 0100 465C58AE 		.ascii	"F\\X\256\262\274RY\377${n\276\273\370l\254N\265B'\001"
  58      B2BC5259 
  58      FF247B6E 
  58      BEBBF86C 
  58      AC4EB542 
  59 0116 848789EE 		.ascii	"\204\207\211\356j\033\303\302\255y\345\311\364aaX(\263"
  59      6A1BC3C2 
  59      AD79E5C9 
  59      F4616158 
  59      28B3
  60 0128 C8BF3D91 		.ascii	"\310\277=\221\024\346\271\202kX|Q\234_\177/\307\361"
  60      14E6B982 
  60      6B587C51 
  60      9C5F7F2F 
  60      C7F1
  61 013a 3E1FB151 		.ascii	">\037\261Q\347z\224,\267\277\313b\376Y\361!\007\362"
  61      E77A942C 
  61      B7BFCB62 
  61      FE59F121 
  61      07F2
  62 014c E77B788A 		.ascii	"\347{x\212;\317\256~5\004\361\353\007\213\373\304\364"
  62      3BCFAE7E 
  62      3504F1EB 
  62      078BFBC4 
  62      F4
  63 015d E66DEF96 		.ascii	"\346m\357\226\202\213z;\377\362\343\343\220\330\234"
  63      828B7A3B 
  63      FFF2E3E3 
  63      90D89C
  64 016c 8D8A108B 		.ascii	"\215\212\020\213t\2160@\253\265\265\017\276\220\346"
  64      748E3040 
  64      ABB5B50F 
  64      BE90E6
  65 017b 09F90545 		.ascii	"\011\371\005E\250\262\277Z\345\002\002\2231M`F7^\315"
  65      A8B2BF5A 
  65      E5020293 
  65      314D6046 
  65      375ECD
  66 018e 6E656D02 		.ascii	"nem\002$\266\233wW\321\027\017l\325\350\246\205AVa\236"
  66      24B69B77 
  66      57D1170F 
  66      6CD5E8A6 
  66      85415661 
  67 01a3 46D0D390 		.ascii	"F\320\323\220\377\206\246\331\302S\306m\271\266\327"
  67      FF86A6D9 
ARM GAS  /tmp/ccwtmY2Z.s 			page 5


  67      C253C66D 
  67      B9B6D7
  68 01b2 B48993CE 		.ascii	"\264\211\223\316~\345\336\253j\250S\233\235:\231\322"
  68      7EE5DEAB 
  68      6AA8539B 
  68      9D3A99D2 
  69 01c2 FB7ED789 		.ascii	"\373~\327\211\273\225#\360\210\212dn\341\316A\007C\336"
  69      BB9523F0 
  69      888A646E 
  69      E1CE4107 
  69      43DE
  70 01d4 4D1D7330 		.ascii	"M\035s0\274\343M)\244\364\224\016\302\305\016\270\303"
  70      BCE34D29 
  70      A4F4940E 
  70      C2C50EB8 
  70      C3
  71 01e5 1B46F488 		.ascii	"\033F\364\210W\007\357\366\376\011r\375\177\203<\357"
  71      5707EFF6 
  71      FE0972FD 
  71      7F833CEF 
  72 01f5 80043D90 		.ascii	"\200\004=\220\316\210\316\215a\011\012k3\237\253!\341"
  72      CE88CE8D 
  72      61090A6B 
  72      339FAB21 
  72      E1
  73 0206 E9B7415E 		.ascii	"\351\267A^o\3747%\200SF2\235\262\0143\235\270l$\254"
  73      6FFC3725 
  73      80534632 
  73      9DB20C33 
  73      9DB86C24 
  74 021b BC61269D 		.ascii	"\274a&\235\021'=nd3\271\261\213\006\177\261&\262F\177"
  74      11273D6E 
  74      6433B9B1 
  74      8B067FB1 
  74      26B2467F 
  75 022f 6C203A60 		.ascii	"l :`8c\346h.A\271\031k\330L\035?\232\204\356\214e\017"
  75      3863E668 
  75      2E41B919 
  75      6BD84C1D 
  75      3F9A84EE 
  76 0246 E7E3A339 		.ascii	"\347\343\2439kG\235L\326\270\224\316d\307\2153\347b"
  76      6B479D4C 
  76      D6B894CE 
  76      64C78D33 
  76      E762
  77 0258 FDB1099E 		.ascii	"\375\261\011\236\340\352\344O\244\270\316/\272Q;\034"
  77      E0EAE44F 
  77      A4B8CE2F 
  77      BA513B1C 
  78              		.text
  79              		.section	.gnu.lto__idle_thread.5b708cecc495d2be,"",%progbits
  80 0000 789C5D90 		.ascii	"x\234]\220\261J\003A\020\206\347\237\335SK\313Tb\255"
  80      B14A0341 
  80      1086E79F 
  80      DD534BCB 
  80      5462AD
  81 0013 C48534B6 		.ascii	"\304\2054\266\372\016'hi\366\016\263h<\270\213B\260"
ARM GAS  /tmp/ccwtmY2Z.s 			page 6


  81      FA0E2768 
  81      69F60EB3 
  81      683CB88B 
  81      42B0
  82 0025 C8462C2C 		.ascii	"\310F,,S\206\250\205\205\255\202O`\225N\037\300*\235"
  82      5386A885 
  82      85AD824F 
  82      60954E1F 
  82      C02A9D
  83 0038 8D4F9026 		.ascii	"\215O\220&\316\355\032\004\027f\347\337a\346\373\231"
  83      CEED1A04 
  83      1766E7DF 
  83      61E6FB99 
  84 0048 6562FA7F 		.ascii	"eb\372\177\232\022\337\022\273\022H\010<\372 \032\256"
  84      9A12DF12 
  84      BB124808 
  84      3CFA201A 
  84      AE
  85 0059 3154140A 		.ascii	"1T\024\012:\012\035+\373\240\001+\215\301\021\302\374"
  85      3A0A1D2B 
  85      FBA0012B 
  85      8DC111C2 
  85      FC
  86 006a 0BBFCD16 		.ascii	"\013\277\315\026\213\347\327\351\323=&\254\231\\\250"
  86      8BE7D7E9 
  86      D33D26AC 
  86      995CA8
  87 0079 2774E3FD 		.ascii	"'t\343\375h\223\310\206g*7\350\000LP\357t\3759\376j"
  87      6893C886 
  87      672A37E8 
  87      004C50EF 
  87      74FD39FE 
  88 008e 1CE351FC 		.ascii	"\034\343Q\374N\300\333\264%3\341\306\035M\206\336\257"
  88      4EC0DBB4 
  88      2533E1C6 
  88      1D4D86DE 
  88      AF
  89 009f 3BF015CD 		.ascii	";\360\025\315\375m\255T7\020\016!28\266\243\261\344"
  89      FD6DAD54 
  89      37100E21 
  89      3238B6A3 
  89      B1E4
  90 00b1 5F41429C 		.ascii	"_AB\234\253\310\013\030-\030iO\004^\217-\333\343\362"
  90      ABC80B18 
  90      2D18694F 
  90      045E8F2D 
  90      DBE3F2
  91 00c4 35B8E1B0 		.ascii	"5\270\341\260\262A\255\007?\336sX\375\373\214T,dI\225"
  91      B241AD07 
  91      3FDE7358 
  91      FDFB8C54 
  91      2C644995 
  92 00d8 42D719E9 		.ascii	"B\327\031\351\322\302\230N\321\315\215-\262\276\311"
  92      D2C2984E 
  92      D1CD8D2D 
  92      B2BEC9
  93 00e7 F24B633B 		.ascii	"\362Kc;\256\355\212\312\364\312\213\363S#\242\354\231"
ARM GAS  /tmp/ccwtmY2Z.s 			page 7


  93      AEED8ACA 
  93      F4CA8BF3 
  93      5323A2EC 
  93      99
  94 00f8 AAB452AF 		.ascii	"\252\264R\257\372\325\216\245\304eg9\375\000\3468H\317"
  94      FAD58EA5 
  94      C4656739 
  94      FD00E638 
  94      48CF
  95              		.text
  96              		.section	.gnu.lto_chVTDoTickI.5b708cecc495d2be,"",%progbits
  97 0000 789CAD54 		.ascii	"x\234\255T]l\024U\024>gfwfv\273\266\013V\2515\201M\023"
  97      5D6C1455 
  97      143E6766 
  97      776676BB 
  97      B60B56A9 
  98 0018 5FC03002 		.ascii	"_\3000\002!\206\007\003\246\306\244I\367\205m\243>\030"
  98      21860703 
  98      A6C6A449 
  98      F7856DA3 
  98      3E18
  99 002a 32DD5D77 		.ascii	"2\335]w'\356v\233\355\356\006\302\003w\273\253\326H"
  99      27EE769B 
  99      EDEE06C2 
  99      0377BBAB 
  99      D648
 100 003c 6AE34FAC 		.ascii	"j\343O\254\020\0254\004\361E\342Sy(.\006\371I(\204\370"
 100      10153404 
 100      F145E253 
 100      79282E06 
 100      F9492884 
 101 0051 A07437D8 		.ascii	"\240t7\330@\002\004\315Z%\030\203\304z\356\334\231\331"
 101      400204CD 
 101      5A251883 
 101      C47AEEDC 
 101      99D9
 102 0063 6D69D2FA 		.ascii	"mi\322\372s\223\231{\347\316|\337\371\316w\356\034\011"
 102      7393997B 
 102      E7CE7CDF 
 102      F9CE77EE 
 102      1C09
 103 0075 24583C0C 		.ascii	"$X<\014\272\206T\200.\004@\037\2404~\021\240\250I\350"
 103      BA865480 
 103      2E04401F 
 103      A0347E11 
 103      A0A849E8 
 104 0089 110B592C 		.ascii	"\021\013Y,Ni\036I\336\177\026\200\371\275e\025X\300"
 104      4E691E49 
 104      DE7F1680 
 104      F9BD6515 
 104      58C0
 105 009b 2B29BFD3 		.ascii	"+)\277\323\354W\017\234\241\315\200\202\232\370^u\026"
 105      EC570F9C 
 105      A1CD8082 
 105      9AF85E75 
 105      16
 106 00ac 1A225F00 		.ascii	"\032\"_\000\302>I\366x\025U\303}/!\017)w\301a\306\336"
ARM GAS  /tmp/ccwtmY2Z.s 			page 8


 106      C23E49F6 
 106      781555C3 
 106      7D2F210F 
 106      2977C161 
 107 00c2 99FDF6F6 		.ascii	"\231\375\366\366u\351CV)\037b\367\347\347\021M$y[\021"
 107      75E94356 
 107      291F62F7 
 107      E7E7114D 
 107      24795B11 
 108 00d6 A2082FD2 		.ascii	"\242\010/\322\003\206\254I\362,\324+\260\225+W\307\036"
 108      0386AC49 
 108      F22CD42B 
 108      B0952B57 
 108      C71E
 109 00e8 638746C6 		.ascii	"c\207F\306\331_\0045Q\226`\333\012\221w>~\273\031\351"
 109      D95F0435 
 109      519660DB 
 109      0A91773E 
 109      7EBB19E9 
 110 00fc 9160FB72 		.ascii	"\221`\373r\310/\245\312\354\374|\355\307\023\327\252"
 110      C82FA5CA 
 110      ECFC7CED 
 110      C713D7AA 
 111 010c B8661D82 		.ascii	"\270f\035\202\201\237a\027(`\242W\265\0374\232\017\323"
 111      819F6117 
 111      2860A257 
 111      B51F349A 
 111      0FD3
 112 011e ECE39B7E 		.ascii	"\354\343\233~{\263\205?\004\370\255\225v\216\320N\220"
 112      7BB3853F 
 112      04F8AD95 
 112      768ED04E 
 112      90
 113 012f 1EA09D6E 		.ascii	"\036\240\235nJ\007\337\356\244\233L\001\274Pfl<$(\004"
 113      4A07DFEE 
 113      A49B4C01 
 113      BC50666C 
 113      3C242804 
 114 0143 16B8261A 		.ascii	"\026\270&\032}t'\303\373Q\242I\236\206ofj\327*\237+"
 114      7D7427C3 
 114      FB51A249 
 114      9E866F66 
 114      6AD72A9F 
 115 0158 36C28156 		.ascii	"6\302\201VN\274W#\"\003\217\242\227\200\0262\201\235"
 115      4EBC5723 
 115      22038FA2 
 115      97801632 
 115      819D
 116 016a 1BE00B56 		.ascii	"\033\340\013V.\316\276\377\372\351O\271\277\352A8P\034"
 116      2ECEBEFF 
 116      FAE94FB9 
 116      BFEA4138 
 116      501C
 117 017c 67411335 		.ascii	"gA\0235\236\246\217\321\360X\031\373\254<\0078\316\300"
 117      9EA68FD1 
 117      F05819FB 
 117      AC3C0738 
ARM GAS  /tmp/ccwtmY2Z.s 			page 9


 117      CEC0
 118 018e 63C44163 		.ascii	"c\304Ac\032Ffj\307\247z\005i\002\225\015\260\236\344"
 118      1A46666A 
 118      C7A77A05 
 118      6902950D 
 118      B09EE4
 119 01a1 724E1A7B 		.ascii	"rN\032{M\364s:\306\351Z\366\302=6\312W\201\264\025\233"
 119      4DF4733A 
 119      C6E95AF6 
 119      C23D36CA 
 119      5781B415 
 120 01b6 73066C4E 		.ascii	"s\006lN\264g\347\354MC\351\315R\301aUI&q\213W\375\344"
 120      B467E7EC 
 120      4D43E9CD 
 120      52C16155 
 120      4926718B 
 121 01cd 061D32D9 		.ascii	"\006\0352\331\372\344\353\251\307]_\216X\216\010\214"
 121      FAE4EBA9 
 121      C75D5F8E 
 121      588E088C 
 122 01dd 959A3F81 		.ascii	"\225\232?\201\230\340\262\271\312\211zU6\360\270\305"
 122      98E0B2B9 
 122      CA897A55 
 122      36F0B8C5 
 123 01ed D722F405 		.ascii	"\327\"\364\005]\245\301\377\"t\324\345\015P4b\267\002"
 123      5DA5C1FF 
 123      2274D4E5 
 123      0D503462 
 123      B702
 124 01ff F688CDFF 		.ascii	"\366\210\315\377+R\202\357\363<&\353w\320\211\327j\373"
 124      2B5282EF 
 124      F33C26EB 
 124      77D089D7 
 124      6AFB
 125 0211 FC321D51 		.ascii	"\3742\035Q\"%\360C\011Q6\260\301\262+sd\362\207\372"
 125      2225F043 
 125      095136B0 
 125      C1B22B73 
 125      64F287FA 
 126 0225 7752B328 		.ascii	"wR\263(\266i\031\030\337iu\252|\253\356\246\031\264"
 126      B6691918 
 126      DF6975AA 
 126      7CABEEA6 
 126      19B4
 127 0237 8A0C4B43 		.ascii	"\212\014KC=\215\210\367Ju\\\0200\322\214\0126\243\254"
 127      3D8D88F7 
 127      4A755C10 
 127      30D28C0A 
 127      36A3AC
 128 024a 8A81B083 		.ascii	"\212\201\260\203]\246\027m6\344{Z\373\311\034\307\017"
 128      5DA6176D 
 128      36E47B5A 
 128      FBC91CC7 
 128      0F
 129 025b 87FBFCC4 		.ascii	"\207\373\374\304/\177.\314\346\031b\263\227m\377\330"
 129      2F7F2ECC 
 129      E61962B3 
ARM GAS  /tmp/ccwtmY2Z.s 			page 10


 129      976DFFD8 
 130 026b 64C53639 		.ascii	"d\30569\010p\021F~\035;\373\325~\331\375}D\030\340m"
 130      08701146 
 130      7E1D3BFB 
 130      D57ED9FD 
 130      7D4418E0 
 131 0280 0AE10D49 		.ascii	"\012\341\015I\346\035R\026mr-LH\037\261\211\035&G\012"
 131      E61D5216 
 131      6D722D4C 
 131      481FB189 
 131      1D26470A 
 132 0294 EA551695 		.ascii	"\352U\026\225\373\376\240\375~\265+}\246\366\307\224"
 132      FBFEA0FD 
 132      7EB52B7D 
 132      A6F6C794 
 133 02a4 EA78D96E 		.ascii	"\352x\331ny\251\010\265\354\351\007\375T\355\234/A\271"
 133      79A908B5 
 133      ECE907FD 
 133      54ED9C2F 
 133      41B9
 134 02b6 A23A4A12 		.ascii	"\242:J\022\274.\0046\361\341\225\0126\360<\225\325\022"
 134      BC2E0436 
 134      F1E1950A 
 134      36F03C95 
 134      D512
 135 02c8 186A1268 		.ascii	"\030j\022h\340\005\\\333p\266\237\352G\035Y\266dNN\255"
 135      E0055CDB 
 135      70B69FEA 
 135      471D59B6 
 135      644E4EAD 
 136 02dc 73FE40CD 		.ascii	"s\376@\315v6\3370\371\205\177i\262\360`n\265C\355\023"
 136      7636DF30 
 136      F9857F69 
 136      B2F0606E 
 136      B543ED13 
 137 02f0 2D63E9D3 		.ascii	"-c\351\323\244\331\220sP\276Q\334\342B\022\215\323p"
 137      A4D99073 
 137      50BE51DC 
 137      E242128D 
 137      D370
 138 0302 05E81F57 		.ascii	"\005\350\037W\245\013w\363\364\303\313\367\357\246y"
 138      A50B77F3 
 138      F4C3CBF7 
 138      EFA679
 139 0311 125EDE07 		.ascii	"\022^\336\007\317\301\351\233\247\336\375Dvs\260\217"
 139      CFC1E99B 
 139      A7DEFD44 
 139      7673B08F 
 140 0321 575BE374 		.ascii	"W[\343tm]\342p5\254P\240\012\362%(\315\215\275\366\323"
 140      6D5DE270 
 140      35AC50A0 
 140      0AF22528 
 140      CD8DBDF6 
 141 0336 1C2EEEA6 		.ascii	"\034.\356\246o\3358\2526\272\251\335\017\\\033\332\243"
 141      6FDD38AA 
 141      36BAA9DD 
 141      0F5C1BDA 
ARM GAS  /tmp/ccwtmY2Z.s 			page 11


 141      A3
 142 0347 4881ABA2 		.ascii	"H\201\253\242\014&>\342p\252pL\341\255k\264t\375\344"
 142      0C263EE2 
 142      70AA704C 
 142      E1AD6BB4 
 142      74FDE4
 143 035a 36475987 		.ascii	"6GY\207\225R\247Ud\012\366\333\255\007\203\375\374A"
 143      9552A755 
 143      640AF6DB 
 143      AD0783FD 
 143      FC41
 144 036c 5330CFA2 		.ascii	"S0\317\242`\217F\321k\340U\247\357u\230\270\306\211"
 144      608F46D1 
 144      6BE055A7 
 144      EF7598B8 
 144      C689
 145 037e A771272E 		.ascii	"\247q'.Cq\266\252\273\235\321\032}\224sY\345\2627\353"
 145      4371B6AA 
 145      BB9DD11A 
 145      7D947359 
 145      E5B237EB 
 146 0392 C94C3AAE 		.ascii	"\311L:\256G3\261=z,^\320\243Is\300\314\014\353\271l"
 146      4733B13D 
 146      7A2C5ED0 
 146      A34973C0 
 146      CC0CEBB9 
 147 03a7 7EF0559D 		.ascii	"~\360U\235\026\331\234n\016FS\371\030}\224,\3446&A."
 147      16D99C6E 
 147      0E4653F9 
 147      187D942C 
 147      E4362641 
 148 03bc E486BCB1 		.ascii	"\344\206\274\261x*gH\257\014v/\207O\032)}(\223\315\015"
 148      782A6748 
 148      AF0C762F 
 148      874F1A29 
 148      7D2893CD 
 149 03d1 EB91BEF0 		.ascii	"\353\221\276\360\226\315zo\357sz_O\270\260I\037\316"
 149      96CD7A6F 
 149      EF737A5F 
 149      4FB8B049 
 149      1FCE
 150 03e3 ED4AA562 		.ascii	"\355J\245bD\270}\005\032\004\305\263;\303\335\341\335"
 150      44B87D05 
 150      1A04C5B3 
 150      3BC3DDE1 
 150      DD
 151 03f4 F4413493 		.ascii	"\364A4\223\215\357\312\231\351x\226\360;\226\303\307"
 151      8DEFCA99 
 151      E97896F0 
 151      3B96C3C7 
 152 0404 77E7F4EE 		.ascii	"w\347\364\356p\244'\322H\205\343\243\351\347\363\203"
 152      70A427D2 
 152      4885E3A3 
 152      E9E7F383 
 153 0414 51220886 		.ascii	"Q\"\010\206#;C\003\306p|(k>\031z\342)\220\262\240\246"
 153      233B4303 
 153      C6707C28 
ARM GAS  /tmp/ccwtmY2Z.s 			page 12


 153      6B3E197A 
 153      E22990B2 
 154 042a E3E94C76 		.ascii	"\343\351Lv\017\374\015/\016\026\312"
 154      0FFC0D2F 
 154      0E16CA
 155              		.text
 156              		.section	.gnu.lto_chSysGetStatusAndLockX.part.0.5b708cecc495d2be,"",%progbits
 157 0000 789C9553 		.ascii	"x\234\225SOh\323P\030\377\276\244I\2538\364\272K\015"
 157      4F68D350 
 157      18FFBEA4 
 157      49AB38F4 
 157      BA4B0D
 158 0013 036F63CF 		.ascii	"\003oc\317\233\247\301\244\"x\350\245\355@O\222\245"
 158      9BA7C1A4 
 158      2278E8A5 
 158      ED404F92 
 158      A5
 159 0024 610DAE7F 		.ascii	"a\015\256\177H\322\261\235\366\326\366\354\272^\334"
 159      48D2B19D 
 159      F6D6F6EC 
 159      BA5EDC
 160 0033 04615594 		.ascii	"\004aU\224\211\240\010\016\004\013\026\007u\010V\204"
 160      89A0080E 
 160      040B1607 
 160      75085684 
 161 0043 DDAD4304 		.ascii	"\335\255C\004q\036*(\010b\374^\332uu\023W_H\276\357"
 161      711E2A28 
 161      0862FC5E 
 161      DA757513 
 161      575F48BE 
 162 0058 7DDFFBFD 		.ascii	"}\337\373\375\311{\211\004\022\034\034\027\350\036\226"
 162      C97B8904 
 162      121C1C17 
 162      E81E96
 163 0067 013E51C4 		.ascii	"\001>Q\304 \240ZnR\242\242\344GI\222ka\340\307\003\333"
 163      20A05A6E 
 163      52A2A2E4 
 163      4749926B 
 163      61E0C703 
 164 007c 0CF80919 		.ascii	"\014\370\011\031\025Q]\014\005\366\022\005Q$\200\260"
 164      15515D0C 
 164      05F61205 
 164      512480B0 
 165 008c A04A7240 		.ascii	"\240Jr@\301\205+(X\325\021\250r^i\335\365vp\225\327"
 165      C1852B28 
 165      58D511A8 
 165      725E69DD 
 165      F5767095 
 166 00a1 4B6BFCA7 		.ascii	"Kk\374\247\347!ZH\016\"\010\006\302e\232\240\346\007"
 166      E7215A48 
 166      0E220806 
 166      C2659AA0 
 166      E607
 167 00b3 29F0A725 		.ascii	")\360\247%\037{\263\265\321\370p\007\333/\012+\274T"
 167      1F7BB3B5 
 167      D1F87007 
 167      DB2F0A2B 
ARM GAS  /tmp/ccwtmY2Z.s 			page 13


 167      BC54
 168 00c5 27F0690B 		.ascii	"'\360i\013\311\346\0362\324A\342\337\220\374\341:\227"
 168      C9E61E32 
 168      D441E2DF 
 168      90FCE13A 
 168      97
 169 00d6 7D457950 		.ascii	"}EyPL\245\365\355\345\233\006.\027\371VO\215\254>\305"
 169      4CA5F5ED 
 169      E59B062E 
 169      17F9564F 
 169      8DAC3EC5 
 170 00ea FFF1BABC 		.ascii	"\377\361\272\274Y\330G\007`\020d\245~c\351\3720_+\224"
 170      59D84707 
 170      601064A5 
 170      7E63E9FA 
 170      305F2B94 
 171 00fe F92FC211 		.ascii	"\371/\302\021L\307{(\035\001}$\361\226\347\375\370~"
 171      4CC77B28 
 171      1D017D24 
 171      F196E7FD 
 171      F87E
 172 0110 2C88A063 		.ascii	",\210\240c\025G\310\252\205\012u\024(q^\326t\\\247\242"
 172      1547C8AA 
 172      850A7514 
 172      28715ED6 
 172      745CA7A2 
 173 0124 EF804682 		.ascii	"\357\200F\202\236\342\224\022\250\212(O\222\200\210"
 173      9EE29412 
 173      A88A284F 
 173      928088
 174 0133 4D586C7F 		.ascii	"MXl\177}>\324\303T}Lw\012\304|\337\347\364\007Q\324"
 174      7D3ED4C3 
 174      547D4C77 
 174      0AC47CDF 
 174      E7F40751 
 175 0148 682FE9FB 		.ascii	"h/\351\373\221;\037Q\030^\341-\2762a\021)\215i\354l"
 175      913B1F51 
 175      185EE12D 
 175      BE326111 
 175      298D69EC 
 176 015d EB6B283E 		.ascii	"\353k(>\333\374\274\264\373\345\244\216\017\010>\215"
 176      DBFCBCB4 
 176      FBE5A48E 
 176      0F083E8D 
 177 016d 12B5C44B 		.ascii	"\022\265\304K(\036\035\005lAi\367\375F\343cQ\356\320"
 177      281E1D05 
 177      6C4169F7 
 177      FD46E363 
 177      51EED0
 178 0180 53DF6FF6 		.ascii	"S\337o\366\277\336$\011\325\302d\257\320\276\275\332"
 178      BFDE2409 
 178      D5C264AF 
 178      D0BEBDDA 
 179 0190 C0C38690 		.ascii	"\300\303\206\220\256\346\0017\357\272n\202b*(A\023Y"
 179      AEE60137 
 179      EFBA6E82 
 179      622A2841 
ARM GAS  /tmp/ccwtmY2Z.s 			page 14


 179      1359
 180 01a2 AFBFD3ED 		.ascii	"\257\277\323\355\207\372u\002\260\315\204\316\2775t"
 180      87FA7502 
 180      B0CD84CE 
 180      BF3574
 181 01b1 7C4CC921 		.ascii	"|L\311!N\035\237`\270\237M\361w\365-\375\026\373\325"
 181      4E1D9F60 
 181      B89F4DF1 
 181      77F52DFD 
 181      16FBD5
 182 01c4 04ED0B55 		.ascii	"\004\355\013U\005`\202\245\262i\223\031\331\344<K\232"
 182      056082A5 
 182      B2699319 
 182      D9E43C4B 
 182      9A
 183 01d5 B3CC4859 		.ascii	"\263\314HYSV\326a\256\235\317\\c\224\230s.\213D\343"
 183      5356D661 
 183      AE9DCF5C 
 183      63949873 
 183      2E8B44E3 
 184 01e9 97E2CCCA 		.ascii	"\227\342\314\312\0303\371\244Xk\233W\215\364\305|\306"
 184      1833F9A4 
 184      586B9B57 
 184      8DF4C57C 
 184      C6
 185 01fa 184B816A 		.ascii	"\030K\201j\233N~\306eG\361\330.sl\203\352\316\2743f"
 185      9B4E7EC6 
 185      6547F1D8 
 185      2E736C83 
 185      EACEBC33 
 186 020f C0F800EB 		.ascii	"\300\370\000\353sY\333u\330\371X4\022\235\243\005\276"
 186      7359DB75 
 186      D8F95834 
 186      129DA305 
 186      BE
 187 0220 EEECB934 		.ascii	"\356\354\2714\211\312\216\353\014Ecq\355\314\331Q\315"
 187      89CA8EEB 
 187      0C456371 
 187      EDCCD951 
 187      CD
 188 0231 CA3936C8 		.ascii	"\31296\310\3436\234\212\306c\332\224\356\2309\333\032"
 188      E3369C8A 
 188      C663DA94 
 188      EE9839DB 
 188      1A
 189 0242 A5164836 		.ascii	"\245\026H6\004\323f:k\317\303o{\013\005{"
 189      04D3663A 
 189      6BCFC36F 
 189      7B0B057B 
 190              		.text
 191              		.section	.gnu.lto_chSysRestoreStatusX.part.1.5b708cecc495d2be,"",%progbits
 192 0000 789C8D52 		.ascii	"x\234\215RMh\023Q\020\236yo7\211A\2617\025$\204\202"
 192      4D681351 
 192      109E796F 
 192      378941B1 
 192      37152484 
 193 0015 B7D2275E 		.ascii	"\267\322'^<\025*\025\301C.I\013z\222\355fi\026\233\037"
ARM GAS  /tmp/ccwtmY2Z.s 			page 15


 193      3C152A15 
 193      C1432E49 
 193      0B7A92ED 
 193      6669169B 
 194 002a 7637B541 		.ascii	"v7\265A\260\257i\016\"\036\242(XAh\015\242^\014z\254"
 194      B0AF690E 
 194      221EA228 
 194      5841680D 
 194      A25E0C7A 
 195 003f 1EFC41F0 		.ascii	"\036\374A\360b\304K=\211QOB-\355\301\213J\326y\233\244"
 195      62C44B3D 
 195      89514F42 
 195      2DEDC18B 
 195      4AD6799B 
 196 0054 2456306F 		.ascii	"$V0o\331\235y\363\315\367\315\314{\313\200\301\337\353"
 196      D99D79F3 
 196      CDF7CDCC 
 196      7BCB80C1 
 196      DFEB
 197 0066 24BD0D0A 		.ascii	"$\275\015\012\177#\213a\300P\265AN\010Y`\031\343\353"
 197      7F238B61 
 197      C050B541 
 197      4E085960 
 197      19E3EB
 198 0079 0264545B 		.ascii	"\002dT[\213\201\334\313QW\321\305\210\326utD\345\000"
 198      8B81DCCB 
 198      5157D1C5 
 198      88D67574 
 198      44E500
 199 008c C2428871 		.ascii	"\302B\210qM\307\205\263\250T\265aX\225\362z\363\365"
 199      4DC785B3 
 199      A854B561 
 199      5895F27A 
 199      F3F5
 200 009e AFC787E4 		.ascii	"\257\307\207\344J\271*[\276\2176R\375c\010&\302\031"
 200      4AB92A5B 
 200      BE8F3652 
 200      FD630826 
 200      C219
 201 00b0 DA603C30 		.ascii	"\332`<0L\353o\250\303\374\370\243~xY>\257\254\310\337"
 201      4CEB6FA8 
 201      C3FCF8A3 
 201      7E78593E 
 201      AFACC8DF 
 202 00c4 44A53CCE 		.ascii	"D\245<\316\340\302@\334\333\252\352\201+M\331\255JI"
 202      E0C240DC 
 202      DBAAEA81 
 202      2B4DD9AD 
 202      4A49
 203 00d6 5D5AA44D 		.ascii	"]Z\244M\303\177\321\344\243\007\222\007\345\370\000"
 203      C37FD1E4 
 203      A3079207 
 203      E5F800
 204 00e5 9C3A934D 		.ascii	"\234:\223M\337_\276\033\215 \030X\303a\232\315F\235"
 204      DF5FBE1B 
 204      8D201858 
 204      C3619ACD 
ARM GAS  /tmp/ccwtmY2Z.s 			page 16


 204      469D
 205 00f7 101D2A52 		.ascii	"\020\035*RV\343\006\256R0\220\2415I_uR\223\030R\226"
 205      56E306AE 
 205      523090A1 
 205      35495F75 
 205      52931852 
 206 010c 4F210B6C 		.ascii	"O!\013l\003\026\2677[\037p\207T\013H\235-\220\364\375"
 206      0316B737 
 206      5B1F7087 
 206      540B489D 
 206      2D90F4FD 
 207 0120 403458A4 		.ascii	"@4X\244q\211\253;\344\355\213\214\301U\274#o\215\333"
 207      7189AB3B 
 207      E4ED8B8C 
 207      C155BC23 
 207      6F8DDB
 208 0133 244A6B06 		.ascii	"$Jk\006\333=\276\205\245\247\257j77\276\3577\360!\261"
 208      DB3DBE85 
 208      A5A7AF6A 
 208      3737BEEF 
 208      37F021B1 
 209 0147 679011A4 		.ascii	"g\220\021\244\206\320}N\370\033\250l|\276\327z\201m"
 209      86D07D4E 
 209      F81BA86C 
 209      7CBED77A 
 209      816D
 210 0159 718203AC 		.ascii	"q\202\003\254w\272)\344\260.\250\273\362\366\346\215"
 210      77BA29E4 
 210      B02EA8BB 
 210      F2F6E68D 
 211 0169 AF0777B7 		.ascii	"\257\007w\267\203\3644\260\277\231O\235f\302j\253$y"
 211      83F434B0 
 211      BF994F9D 
 211      66C26AAB 
 211      2479
 212 017b A0B5837F 		.ascii	"\240\265\203\177\351\340\221\336:\032\254\305\370;X"
 212      E9E091DE 
 212      3A1AACC5 
 212      F83B58
 213 018a DA7AE93F 		.ascii	"\332z\351?\303\256\374E\370)/\313!\033\367\230\235\231"
 213      C3AEFC45 
 213      F8292FCB 
 213      211BF798 
 213      9D99
 214 019c 6C8CD27F 		.ascii	"l\214\322\177:H;\006\326\311\331U\336\300'\030\353-"
 214      3A483B06 
 214      D6C9D955 
 214      DEC02718 
 214      EB2D
 215 01ae AC07E7FF 		.ascii	"\254\007\347\377\036\026\267\312\327\364\276c\246KB"
 215      1E16B7CA 
 215      D7F4BE63 
 215      A64B42
 216 01bd 052A9E10 		.ascii	"\005*\236\020\231|\326\022f>]\022ikN\230\031{\332\316"
 216      997CD612 
 216      663E5D12 
 216      696B4E98 
ARM GAS  /tmp/ccwtmY2Z.s 			page 17


 216      197BDACE 
 217 01d1 BBC2738A 		.ascii	"\273\302s\212\271\363\202\034\307\023\256cR\334-\271"
 217      B9F3821C 
 217      C713AE63 
 217      52DC2DB9 
 218 01e1 A32670D7 		.ascii	"\243&p\327s\307\377\307\261\346=1\221H\235N\011;g\316"
 218      73C7FFC7 
 218      B1E63D31 
 218      91489D4E 
 218      093B67CE 
 219 01f5 16D32AD7 		.ascii	"\026\323*\327\261\316\231\331S\305\2349\232\201\220"
 219      B1CE99D9 
 219      53C59C39 
 219      9A8190
 220 0204 63B9C559 		.ascii	"c\271\305Yo_\"\231\212\0379:\022\267\013\256\003|\314"
 220      6F5F2299 
 220      8A1F393A 
 220      12B70BAE 
 220      037CCC
 221 0217 81B101BA 		.ascii	"\201\261\001\272)\344\035\317\025'\222\211\211\304<"
 221      29E41DCF 
 221      15279289 
 221      89C43C
 222 0226 2504CA73 		.ascii	"%\004\312s\307\263$;\224H%\343\323\206k\025\034{\204"
 222      C7B3243B 
 222      944825E3 
 222      D3866B15 
 222      1C7B84
 223 0239 84813910 		.ascii	"\204\2019\020\316Z\331\274S\202?\347\265\365\351"
 223      CE5AD9BC 
 223      53823FE7 
 223      B5F5E9
 224              		.text
 225              		.section	.gnu.lto_chSysInit.5b708cecc495d2be,"",%progbits
 226 0000 789CA593 		.ascii	"x\234\245\223\317k\023A\024\307\337\233i\222\335\326"
 226      CF6B1341 
 226      14C7DF9B 
 226      6992DDD6 
 227 0010 68AC15EA 		.ascii	"h\254\025\352Es\351E\245k\377\203@A\350\241\027\243"
 227      4573E945 
 227      A56BFF83 
 227      4041E8A1 
 227      17A3
 228 0022 A0789066 		.ascii	"\240x\220f\262\230A7)\273\211\030<t\323V*\"\330\203"
 228      B2984137 
 228      29BB8918 
 228      3C74D356 
 228      2A22D883 
 229 0036 D060512C 		.ascii	"\320`Q,\275)\250\307\034\013^5\245\007/\265J\240'\305"
 229      BD29A8C7 
 229      1C0B5E35 
 229      A5072FB5 
 229      4AA027C5 
 230 004a 8BD722C4 		.ascii	"\213\327\"\3047\373\213M\273\342\301\201\235\231}\363"
 230      37FB8B4D 
 230      BBE2C181 
 230      9D997DF3 
ARM GAS  /tmp/ccwtmY2Z.s 			page 18


 231 005a 7D9F99FD 		.ascii	"}\237\231\375\316[\006\014\016\2673\364\274\344\000"
 231      CE5B060C 
 231      0EB733F4 
 231      BCE400
 232 0069 6B342207 		.ascii	"k4\"\007d\253]\200\226\306\020\325\004\020\026\030."
 232      64AB5D80 
 232      96C610D5 
 232      04101618 
 232      2E
 233 007a DC402545 		.ascii	"\334@%E\013\341\035\333\352\365\373o\333+kO\360\015"
 233      0BE11DDB 
 233      EAF5FB6F 
 233      DB2B6B4F 
 233      F00D
 234 008c 1BD54122 		.ascii	"\033\325A\"dUG-\005\313\256\273\232\267\324\213\360"
 234      6455472D 
 234      05CBAEBB 
 234      9AB7D48B 
 234      F0
 235 009d 2257A957 		.ascii	"\"W\251W\230k\310\324\310\267a\251\267\273\224\231\303"
 235      986BC8D4 
 235      C8B761A9 
 235      B7BB9499 
 235      C3
 236 00ae 0D4CD1F2 		.ascii	"\015L\321\362\0038p\037\2719\211(\320\323\023\210N\250"
 236      0338701F 
 236      B9398928 
 236      D0D31388 
 236      4EA8
 237 00c0 545F3E0C 		.ascii	"T_>\014'\251\330\240jo?\235\244\342\003\252W\337x\222"
 237      27A9D8A0 
 237      6A6F3F9D 
 237      A4E203AA 
 237      57DF7892 
 238 00d4 686810F5 		.ascii	"hh\020\365}3\361X\251A\324\317DT:.z\330\353\013_t\033"
 238      7D33F158 
 238      A941D4CF 
 238      44543A2E 
 238      7AD8EB0B 
 239 00eb F548C505 		.ascii	"\365H\305\005f<\225\212h\344\027\271\024\240\256\243"
 239      663C958A 
 239      68E417B9 
 239      14A0AEA3 
 240 00fb C4A102A5 		.ascii	"\304\241\002\245\323\374\023,\316\370\341\013p\236T"
 240      D3FC132C 
 240      CEF8E10B 
 240      709E54
 241 010a 5E9F5E87 		.ascii	"^\237^\207\347-WQ2\021O\263<\307T\256\346qK\276\201"
 241      E72D5751 
 241      32114FB3 
 241      3CC754AE 
 241      E6714BBE 
 242 011f 34FA13DA 		.ascii	"4\372\023\332\334\303u:\233;,D\276v\251MI\324\211H\231"
 242      DCC3753A 
 242      9B3B2C44 
 242      BE76A94D 
 242      49D48948 
ARM GAS  /tmp/ccwtmY2Z.s 			page 19


 243 0134 C3245284 		.ascii	"\303$R\2040\323wWEt\025\353\302\342\257\037\317\366"
 243      30D37757 
 243      457415EB 
 243      C2E2AF1F 
 243      CFF6
 244 0146 C7837B85 		.ascii	"\307\203{\205\360\300\252*\020\034\256\252\211\373%"
 244      F0C0AA2A 
 244      101CAEAA 
 244      89FB25
 245 0155 751696F1 		.ascii	"u\026\226\361\205\333.H\034\011\021\307<X\264\276\022"
 245      85DB2E48 
 245      1C0911C7 
 245      3C58B4BE 
 245      12
 246 0166 AC67FDCD 		.ascii	"\254g\375\315\272\320\332X\0379JV\354\247\370\267,\372"
 246      BAD0DA58 
 246      1F394A56 
 246      ECA7F8B7 
 246      2CFA
 247 0178 9EDD8FBF 		.ascii	"\236\335\217\277\307B{\263\377k\222G<\3401\307\217G"
 247      C7427BB3 
 247      FF6B9247 
 247      3CE031C7 
 247      8F47
 248 018a CE64E3CE 		.ascii	"\316d\343\316\360\350\356\306%\236\260\002\247\266\241"
 248      F0E8EEC6 
 248      259EB002 
 248      A7B6A1
 249 0199 EDEE7D7E 		.ascii	"\355\356}~\217Gj\"'\202\015\375\210{S\342I\013y\354"
 249      8F476A22 
 249      27820DFD 
 249      887B53E2 
 249      490B79EC 
 250 01ad C2477BCC 		.ascii	"\302G{\314\277x\0144[_\037\237\223xJ\240\036S\215\251"
 250      BF780C34 
 250      5B5F1F9F 
 250      93784AA0 
 250      1E538DA9 
 251 01c1 AA3A0DB0 		.ascii	"\252:\015\260\003\255^g\"f\222\367o\241\372\247\324"
 251      03AD5E67 
 251      226692F7 
 251      6FA1FAA7 
 251      D4
 252 01d2 490CA352 		.ascii	"I\014\243R\263LC\324\312M\243l\3363DE\226d\3151\352"
 252      B34C43D4 
 252      CA4DA36C 
 252      DE334445 
 252      9664CD31 
 253 01e7 76A37AC7 		.ascii	"v\243z\307\240\211]7\034[P\334i:\223\002\012\377\322"
 253      A0895D37 
 253      1C5B50DC 
 253      693A9302 
 253      0AFFD2
 254 01fa 9BF7EBC6 		.ascii	"\233\367\353\306\364lq\246h\310\252\270\333(+\255m\336"
 254      F46C71A6 
 254      68C8AAB8 
 254      DB282BAD 
ARM GAS  /tmp/ccwtmY2Z.s 			page 20


 254      6DDE
 255 020c 12D6E546 		.ascii	"\022\326\345FULV 7[\274\222/\3159\346\274-/\346'.\001"
 255      554C5620 
 255      375BBC92 
 255      2FCD39E6 
 255      BC2D2FE6 
 256 0223 B3216399 		.ascii	"\263!c\231V\315n\202&\346\035i\346%\374\001\332\253"
 256      56CD6E82 
 256      26E61D69 
 256      E625FC01 
 256      DAAB
 257 0235 F901     		.ascii	"\371\001"
 258              		.text
 259              		.section	.gnu.lto_chSysHalt.5b708cecc495d2be,"",%progbits
 260 0000 789C858F 		.ascii	"x\234\205\217\277J\304@\020\306gvsz`\343\023\310\365"
 260      BF4AC440 
 260      10C66776 
 260      737A60E3 
 260      13C8F5
 261 0013 EA6DE10B 		.ascii	"\352m\341\013\234\010\202\205\325E\320J\314&\230E\223"
 261      9C088285 
 261      D545D04A 
 261      CC269845 
 261      93
 262 0024 48721183 		.ascii	"Hr\021\203\302m\360\012\301\346*\021\377\0246\026\026"
 262      C26DF00A 
 262      C1E62A11 
 262      FF143616 
 262      16
 263 0035 E72B88AD 		.ascii	"\347+\210\255z\245\325\025\226bg+\3029\311\006\013\033"
 263      7AA5D515 
 263      9662672B 
 263      C239C906 
 263      0B1B
 264 0047 07BEDDDF 		.ascii	"\007\276\335\337||;\3142`\360\267\346I\357\244c\022"
 264      7C7C3BCC 
 264      3260F0B7 
 264      E649EFA4 
 264      6312
 265 0059 D600597F 		.ascii	"\326\000Y\177\010\220\327\031r\003\034-\003\226q\026"
 265      0890D719 
 265      72031C2D 
 265      03967116 
 266 0069 11BA8C5B 		.ascii	"\021\272\214[\330\335\300\362\375={x\033\217\007W\247"
 266      D8DDC0F2 
 266      FD3D7B78 
 266      1B8F0757 
 266      A7
 267 007a B7CF3860 		.ascii	"\267\3178`\023\034\203\322\257AO\353~\003@\226\255M"
 267      131C83D2 
 267      AF414FEB 
 267      7E034096 
 267      AD4D
 268 008c 27C21A32 		.ascii	"'\302\0322@>\204\374\363c\364\212\277\221-\274\241\246"
 268      403E84FC 
 268      F363F48A 
 268      BF912DBC 
ARM GAS  /tmp/ccwtmY2Z.s 			page 21


 268      A1A6
 269 009e 2C84849B 		.ascii	",\204\204\233%g\340\350Z\237\267\024V{\276\300\343\323"
 269      2567E0E8 
 269      5A9FB714 
 269      567BBEC0 
 269      E3D3
 270 00b0 E8FB6CCE 		.ascii	"\350\373l\316\204g\341N\367r\275\240\020\013\244\232"
 270      8467E14E 
 270      F772BDA0 
 270      100BA49A 
 271 00c0 52C82EE1 		.ascii	"R\310.\341\"\327zZ!?\204/}R\220\025`1a\035\011\3139"
 271      22D77A5A 
 271      213F842F 
 271      7D529015 
 271      6031611D 
 272 00d7 4E35D041 		.ascii	"N5\320A\003\333\310\215a\023\320\007\271MA\272\321\256"
 272      03DBC88D 
 272      6113D007 
 272      B94D41BA 
 272      D1AE
 273 00e9 0220841F 		.ascii	"\002 \204\037\005\236\220\221\233\011\327\333\027\322"
 273      059E9091 
 273      9B09D7DB 
 273      17D2
 274 00f7 578E8A12 		.ascii	"W\216\212\022\321\211\323pG\020\304\035\221\304\222"
 274      D189D370 
 274      4710C41D 
 274      91C492
 275 0106 FC244B9A 		.ascii	"\374$K\232\022Z\377\345\275\203\216XZm\257\264\205\012"
 275      125AFFE5 
 275      BD838E58 
 275      5A6DAFB4 
 275      850A
 276 0118 E56EEA16 		.ascii	"\345n\352\026\331\330\333\224\301r\032\312\246\017u"
 276      D9D8DB94 
 276      C1721ACA 
 276      A60F75
 277 0127 B99728B7 		.ascii	"\271\227(\267\241`2\360\202(\316\340\0072\016i\223"
 277      A16032F0 
 277      8228CEE0 
 277      07320E69 
 277      93
 278              		.text
 279              		.section	.gnu.lto_chSysTimerHandlerI.5b708cecc495d2be,"",%progbits
 280 0000 789C6362 		.ascii	"x\234cb`b@\007\222@\\\003\304\206@\314\310\314\300\310"
 280      60624007 
 280      92405C03 
 280      C48640CC 
 280      C8CCC0C8 
 281 0014 34E11C03 		.ascii	"4\341\034\003C#\007\023##\210\301\300\310P\317\304X"
 281      43230713 
 281      232388C1 
 281      C0C850CF 
 281      C458
 282 0026 1FC90856 		.ascii	"\037\311\010V\273\236\351\300\203\377\377\327M:7\177"
 282      BB9EE9C0 
 282      83FFFFD7 
ARM GAS  /tmp/ccwtmY2Z.s 			page 22


 282      4D3A377F 
 283 0036 0DE32E26 		.ascii	"\015\343.&f\240\010+CKC\303\004\005\006\206d\260\212"
 283      66A0082B 
 283      434B43C3 
 283      04050686 
 283      64B08A
 284 0049 102009D2 		.ascii	"\020 \011\322\026\312\310\004\242\231\31734?\230w\234"
 284      16CAC804 
 284      A299CF33 
 284      343F9877 
 284      9C
 285 005a 3D917121 		.ascii	"=\221q!#+P\272\232\341WCG\203@&#P9\304\304L\020}\221"
 285      232B50BA 
 285      9AE15743 
 285      47834026 
 285      235039C4 
 286 0073 A1F1C12A 		.ascii	"\241\361\301*u\230\"\010\010\001J\000M\000\271W_?#?"
 286      75982208 
 286      08014A00 
 286      4D00B957 
 286      5F3F233F 
 287 0087 37553F39 		.ascii	"7U?9?\245R?%\265L?9#3)3\277X\277\244\2504/[\037\310"
 287      3FA5523F 
 287      25B54C3F 
 287      39233329 
 287      33BF58BF 
 288 00a2 282AD12F 		.ascii	"(*\321/.J\006\212\027W\026\353%3\000\000K\3443\345"
 288      2E4A068A 
 288      175716EB 
 288      25330000 
 288      4BE433E5 
 289              		.text
 290              		.section	.gnu.lto_chSysGetStatusAndLockX.5b708cecc495d2be,"",%progbits
 291 0000 789C854F 		.ascii	"x\234\205O1KBQ\024>\347\336\247X4\00454\211\004m\341"
 291      314B4251 
 291      143EE7DE 
 291      A7583404 
 291      35348904 
 292 0016 CDC62010 		.ascii	"\315\306 \020\202\240\301%\025j\022\275>\364Qj\274\247"
 292      82A0C125 
 292      156A12BD 
 292      3EF4516A 
 292      BCA7
 293 0028 A5347425 		.ascii	"\2454t%\203\206 i*(H\372\001\375\001\007\207\206&#p"
 293      83862069 
 293      2A2848FA 
 293      01FD0107 
 293      87862623 
 294 003d B2458568 		.ascii	"\262E\205h\013\252\251\010^\367>5\260\245\013\367~\367"
 294      0BAAA908 
 294      5EF73E35 
 294      B0A50BF7 
 294      7EF7
 295 004f 9CF39DEF 		.ascii	"\234\363\235\357|\207\000\201\277' \357\022\002\234"
 295      7C870081 
 295      BF2720EF 
 295      12029C
ARM GAS  /tmp/ccwtmY2Z.s 			page 23


 296 005e 4A441720 		.ascii	"JD\027 \2516\001\312\036Bh\213\201\030\327\352^\020"
 296      A93601CA 
 296      1E42688B 
 296      8118D7EA 
 296      5E10
 297 0070 13143595 		.ascii	"\023\0245\225F\015Q! \034\020\252\341\301&*\011\234"
 297      460D5121 
 297      201C10AA 
 297      E1C1262A 
 297      099C
 298 0082 859A1067 		.ascii	"\205\232\020g\235\347\367.^\210F\345Z|\3336\242\201"
 298      9DE7F72E 
 298      5E8846E5 
 298      5A7CDB36 
 298      A281
 299 0094 72DC2202 		.ascii	"r\334\"\002G\330\220\001\372\034 \332\350\374[\322\350"
 299      47D89001 
 299      FA1C20DA 
 299      E8FC5BD2 
 299      E8
 300 00a5 D8F6E567 		.ascii	"\330\366\345g\275\367\204Scn\210cM\352\311\343\202\212"
 300      BDF78453 
 300      636E8863 
 300      4DEAC9E3 
 300      828A
 301 00b7 1055DF30 		.ascii	"\020U\3370\346\316\250\210|\225\203(\022\205\264\011"
 301      E6CEA888 
 301      7C958328 
 301      1285B409 
 302 00c7 E5B7D776 		.ascii	"\345\267\327vof@\006\331~#\267p\\\001\354Q\2650\355"
 302      6F664006 
 302      D97E23B7 
 302      705C01EC 
 302      51B530ED 
 303 00db 6FED8513 		.ascii	"o\355\205\023\274\022\347A\003\251\012S\350vh\367p\367"
 303      BC12E741 
 303      03A90A53 
 303      E87668F7 
 303      70F7
 304 00ed D23DFA08 		.ascii	"\322=\372\010\364\033eV\231\034\361\030\225\015-F\037"
 304      F41B6556 
 304      991CF118 
 304      950D2D46 
 304      1F
 305 00fe E0D03354 		.ascii	"\340\3203T\337\207/q,&\015tqt|\2011\220\223l\315q\366"
 305      DF872F71 
 305      2C260D74 
 305      71747C81 
 305      3190936C 
 306 0115 08E54E3B 		.ascii	"\010\345N;\365\253\332/F$[\026\225\037\306\322\271\214"
 306      F5ABDA2F 
 306      46245B16 
 306      951FC6D2 
 306      B98C
 307 0127 CE782E59 		.ascii	"\316x.YbI}\227\361\264\2210r\026\313\233\205\354\026"
 307      62497D97 
 307      F1B49130 
ARM GAS  /tmp/ccwtmY2Z.s 			page 24


 307      7216CB9B 
 307      85EC16
 308 013a 931F33CF 		.ascii	"\223\0373\317,\223\313\274U\262\374\034\250\225\267"
 308      2C93CBBC 
 308      55B2FC1C 
 308      A895B7
 309 0149 82FFF5E8 		.ascii	"\202\377\365\350\305<[\011\205\327\302\314\310\362\355"
 309      C53C5B09 
 309      85D7C2CC 
 309      C8F2ED
 310 0158 4252714D 		.ascii	"BRqM=\3063\253\205,\367\247a:\264\036\366\315-\314\373"
 310      3DC633AB 
 310      852CF7A7 
 310      613AB41E 
 310      F6CD2DCC 
 311 016d 12714BDF 		.ascii	"\022qK\3371\215X&^\004\272l\302\017I\326~\373"
 311      318D5826 
 311      5E04BA6C 
 311      C20F49D6 
 311      7EFB
 312              		.text
 313              		.section	.gnu.lto_chSysRestoreStatusX.5b708cecc495d2be,"",%progbits
 314 0000 789C6362 		.ascii	"x\234cb`b@\007\206@\274\031J3\262202M8\307\300\320\310"
 314      60624007 
 314      8640BC19 
 314      4A33B232 
 314      30324D38 
 315 0018 C1C4C47C 		.ascii	"\301\304\304|E\237\241\201\213e\217\034C\003\0173#\013"
 315      459FA181 
 315      8B658F1C 
 315      43030F33 
 315      230B
 316 002a 48989185 		.ascii	"H\230\221\205\221\021D302\32431\2630\326G2\202\315X"
 316      91114433 
 316      3032D433 
 316      31B330D6 
 316      473282CD 
 317 003f CF74E0C1 		.ascii	"\317t\340\301\377\377\353\356\364\257\351a<\301\304"
 317      FFFFEBEE 
 317      F4AFE961 
 317      3CC1C4
 318 004e C1C8980B 		.ascii	"\301\310\230\013\026gehih\230\240\300\300\220\014\346"
 318      16676568 
 318      696898A0 
 318      C0C0900C 
 318      E6
 319 005f 86004990 		.ascii	"\206\000I\220\356PF&\020\315|\202\341\310\363\203\037"
 319      EE504626 
 319      10CD7C82 
 319      E1C8F383 
 319      1F
 320 0070 FB991319 		.ascii	"\373\231\023\031\027\002-Ngd\214`\314dDq[(#3\303\025"
 320      17022D4E 
 320      67648C60 
 320      CC644471 
 320      5B282333 
 321 0086 7DE6F30C 		.ascii	"}\346\363\014\315\034\020E\014\014\325\014\277\032:"
ARM GAS  /tmp/ccwtmY2Z.s 			page 25


 321      CD1C1045 
 321      0C0CD50C 
 321      BF1A3A
 322 0095 1A043219 		.ascii	"\032\0042\031\031\223\031!\2123\031\231`\252Y\300\346"
 322      19931921 
 322      8A331999 
 322      60AA59C0 
 322      E6
 323 00a6 5E64687C 		.ascii	"^dh|\320\241\011\323\000\001!@\305@9\220J}\375\214\374"
 323      D0A109D3 
 323      00012140 
 323      C5403990 
 323      4A7DFD8C 
 324 00bb DC54FDE4 		.ascii	"\334T\375\344\374\224J\375\224\3242\375\344\214\314"
 324      FC944AFD 
 324      94D432FD 
 324      E48CCC
 325 00ca A4CCFC62 		.ascii	"\244\314\374b\375\222\242\322\274l} \243\250D\277\270"
 325      FD92A2D2 
 325      BC6C7D20 
 325      A3A844BF 
 325      B8
 326 00db 2819285E 		.ascii	"(\031(^\\Y\254\227\314\000\000\277\361@\303"
 326      5C59AC97 
 326      CC0000BF 
 326      F140C3
 327              		.text
 328              		.section	.gnu.lto_chSysIsCounterWithinX.5b708cecc495d2be,"",%progbits
 329 0000 789C8552 		.ascii	"x\234\205R=h\024Q\020\236\357\275\375y\273\027\033\355"
 329      3D681451 
 329      109EEFBD 
 329      FD79BB17 
 329      1BED
 330 0012 35A44997 		.ascii	"5\244I\227\305X\0106\202\235\235E\016by\331\304\313"
 330      C5580836 
 330      829D9D45 
 330      0E6279D9 
 330      C4CB
 331 0024 229793BB 		.ascii	"\"\227\223\273SHu\273z\305\025W\034AI\023\210A\202E"
 331      534875BB 
 331      7AC51557 
 331      1C414913 
 331      88418245 
 332 0038 8A542922 		.ascii	"\212T)\"\212\027H\021\020\005\305F\020<\204S+\011V\026"
 332      8A174811 
 332      1005C546 
 332      103C8453 
 332      2B095616 
 333 004c C23AEFED 		.ascii	"\302:\357\355n\214A\311\300\31673|3\363\315c\005\011"
 333      6E8C41C9 
 333      C0CE3733 
 333      7C33F3CD 
 333      630509
 334 005f 3A693DFE 		.ascii	":i=\376\332\\\276\316\2101\202\350\277!J\224\020\262"
 334      DA5CBECE 
 334      883182E8 
 334      BF214A94 
ARM GAS  /tmp/ccwtmY2Z.s 			page 26


 334      10B2
 335 0071 3B49B1EF 		.ascii	";I\261\357j?&\205e2\333d\226p\236\237\327\331\373\200"
 335      6A3F2685 
 335      6532DB64 
 335      96709E9F 
 335      D7D9FB80 
 336 0085 331B4ED6 		.ascii	"3\033N\326\342\240\224\005\256\360\015[\031\266\312"
 336      E2A09405 
 336      AEF00D5B 
 336      19B6CA
 337 0094 33CF641E 		.ascii	"3\317d\036\374\214\344\027\354\022\240\003\002\313\220"
 337      FC8CE417 
 337      EC12A003 
 337      02CB90
 338 00a3 96EDB8CA 		.ascii	"\226\355\270\312\363Kh\337\204V''h#\216W\206\243\255"
 338      F34B68DF 
 338      84562727 
 338      68238E57 
 338      86A3AD
 339 00b6 1FCEEAC3 		.ascii	"\037\316\352\303A\3628\376\225\246@\004\276d\032\024"
 339      41F238FE 
 339      95A64004 
 339      BE641A14 
 340 00c6 82663981 		.ascii	"\202f9\2012 \360\367i\246\267\037\257\217n\034\304\235"
 340      3220F0F7 
 340      69A6B71F 
 340      AF8F6E1C 
 340      C49D
 341 00d8 419A5E8D 		.ascii	"A\232^\215 \005]\371\3236\236\265Y\377j\033\034\276"
 341      20055DF9 
 341      D3369EB5 
 341      59FF6A1B 
 341      1CBE
 342 00ea EBF9FDA4 		.ascii	"\353\371\375\244\033\247i\333\364];\255o[\014\206i\372"
 342      1BA769DB 
 342      F45D3BAD 
 342      6F5B0C86 
 342      69FA
 343 00fc F1D14E6F 		.ascii	"\361\321No\015\257\204\017\252`\003\023,\264\202'\214"
 343      0DAF840F 
 343      AA600313 
 343      2CB48227 
 343      8C
 344 010d 927193D1 		.ascii	"\222q\223\321B\015d\263\203\303N\2709M\345\310fS\207"
 344      420D64B3 
 344      83C34EB8 
 344      394DE5C8 
 344      665387
 345 0120 058C93DE 		.ascii	"\005\214\223\336\3076\303^\277P\031B\243<\240\375/{"
 345      C736C35E 
 345      BF501942 
 345      A33CA0FD 
 345      2F7B
 346 0132 9F562E57 		.ascii	"\237V.W\360\0246UaU\031\216\254\014I\335I&u\276&\353"
 346      F0143655 
 346      6155198E 
 346      AC0C49DD 
ARM GAS  /tmp/ccwtmY2Z.s 			page 27


 346      492675BE 
 347 0148 2838CE09 		.ascii	"(8\316\011\216E\373\347\364\240\321q\306\261{f\270\266"
 347      8E45FBE7 
 347      F4A0D171 
 347      C6B17B66 
 347      B8B6
 348 015a 7B4196E1 		.ascii	"{A\226\341\350a\257\351\376\367\007\317dAu\2530\377"
 348      E861AFE9 
 348      FEF707CF 
 348      644175AB 
 348      30FF
 349 016c D10712FA 		.ascii	"\321\007\022\372\035$\310\372\351\231Hk\327\343\335"
 349      1D24C8FA 
 349      E999486B 
 349      D7E3DD
 350 017b 42C2DEE1 		.ascii	"B\302\336\341\331\377IP\247J\360\350\263\307\022\374"
 350      D9FF4950 
 350      A74AF0E8 
 350      B3C712FC 
 351 018b 23092F37 		.ascii	"#\011/7\227\012\256\252\352mZ\203\3145\250\336\352\013"
 351      970AAEAA 
 351      EA6D5A83 
 351      CC35A8DE 
 351      EA0B
 352 019d 91ABF028 		.ascii	"\221\253\360(/\272fU\311\274\333[J\206\333Q1\000Y7\370"
 352      2FBA6655 
 352      C9BCDB5B 
 352      4A86DB51 
 352      31005937 
 353 01b2 1CE7DB19 		.ascii	"\034\347\333\031\036\350\233\235\320T}]\020,\326k\013"
 353      1EE89B9D 
 353      D0547D5D 
 353      102CD66B 
 353      0B
 354 01c3 41589F5F 		.ascii	"AX\237_\016\346\027\356\005\341b4\027\325\233A\253q"
 354      0EE617EE 
 354      05E16234 
 354      17D59B41 
 354      AB71
 355 01d5 77E976C0 		.ascii	"w\351v\300A\243\0254\033!\327\233\313\315\251\220\334"
 355      41A31534 
 355      1B21D79B 
 355      CBCDA990 
 355      DC
 356 01e6 E856AB76 		.ascii	"\350V\253vg\352b\216\3239^\372\015\000b\264\373"
 356      67EA628E 
 356      D3395EFA 
 356      0D0062B4 
 356      FB
 357              		.text
 358              		.section	.gnu.lto_chSysPolledDelayX.5b708cecc495d2be,"",%progbits
 359 0000 789C9D54 		.ascii	"x\234\235TOH\024Q\030\377\27673;\177w\213\352P\007A"
 359      4F481451 
 359      18FFBE37 
 359      333B7F77 
 359      8BEA5007 
 360 0015 BC48040E 		.ascii	"\274H\004\016\031\324\251B\202nB\204B\235b]\267u\210"
ARM GAS  /tmp/ccwtmY2Z.s 			page 28


 360      19D4A942 
 360      826E4284 
 360      429D625D 
 360      B77588
 361 0028 75657793 		.ascii	"uew\223<9\253[,\265\207E\210\262\016)aR\036\204\222"
 361      3C39AB5B 
 361      2CB58745 
 361      88B20E29 
 361      61521E84 
 362 003d A0405A4B 		.ascii	"\240@ZKH\010\203\354\244f\254BzY\242\242C\007q\372\346"
 362      480883EC 
 362      A466AC42 
 362      7A59A2A2 
 362      430771FA 
 363 0052 CDECA646 		.ascii	"\315\354\246F%=\230\367{\337{\277\337\367~\337\2747"
 363      253D98F7 
 363      7BDF7BBF 
 363      DFF77EDF 
 363      BC37
 364 0064 C380C1F6 		.ascii	"\303\200\301\3666N\317\206\000p\203\020w\001\262\302"
 364      364ECF86 
 364      00708310 
 364      7701B2C2 
 365 0074 5B808CC2 		.ascii	"[\200\214\302P\360\006\002\023s\365`k\212\333\033\""
 365      50F00602 
 365      1373F560 
 365      6B8ADB1B 
 365      22
 366 0085 937814E0 		.ascii	"\223x\024\340\221\304\344MQ\000eO\"\243\341\015\024"
 366      91C4E44D 
 366      5100654F 
 366      22A3E10D 
 366      14
 367 0096 A6F37595 		.ascii	"\246\363u\225\257\253~\244\361HC\335#\351\025\266\301"
 367      AFAB7EA4 
 367      F14843DD 
 367      23E915B6 
 367      C1
 368 00a7 42F9D740 		.ascii	"B\371\327@\204`V&B\310s\320\024Dt\021\020z\231 J\001"
 368      84605626 
 368      42C873D0 
 368      14447411 
 368      107A9920 
 369 00bd 595135DD 		.ascii	"YQ5\335\010\005\261\367<\272\005\210u0l\333\003\245"
 369      0805B1F7 
 369      3CBA0588 
 369      75306CDB 
 369      03A5
 370 00cf AB4F1770 		.ascii	"\253O\027p\320.f\207\354u\307A\264\220\212mD\210 \234"
 370      D02E6687 
 370      EC75C741 
 370      B4908A6D 
 370      4488209C 
 371 00e3 A3006B39 		.ascii	"\243\000k90qk\365\\[(~\235\033=p}\250\257`o\220\324"
 371      30716BF5 
 371      5C5B287E 
 371      9D1B3D70 
ARM GAS  /tmp/ccwtmY2Z.s 			page 29


 371      7DA8AF60 
 372 00fa 4281C1D1 		.ascii	"B\201\301\321\035*?\316\345\265B&g;N/\327\235\330\221"
 372      1D2A3FCE 
 372      E5B54226 
 372      673B4E2F 
 372      D79DD891 
 373 010e 6EC05E5A 		.ascii	"n\300^Z:s\333\316\026\035\347\244\205\"\203\323\277"
 373      3A73DBCE 
 373      161DE7A4 
 373      852283D3 
 373      BF
 374 011f 648A27C3 		.ascii	"d\212'\303m\307\304\212%\307)\017.\257,\342\276\220"
 374      6DC7C48A 
 374      25C7290F 
 374      2EAF2CE2 
 374      BE90
 375 0131 88710409 		.ascii	"\210q\004\011\3028\214u \003\325\252\270\235J3#4\243"
 375      C2388C75 
 375      2003D5AA 
 375      B89D4A33 
 375      2334A3
 376 0144 118E12EA 		.ascii	"\021\216\022\352\204\367\011\015?\016\372HM\202,\331"
 376      84F7090D 
 376      3F0EFA48 
 376      4D822CD9 
 377 0154 AFF53280 		.ascii	"\257\3652\200\2739\265\026\352\351\335\267\"#\020f\341"
 377      BB39B516 
 377      EAE9DDB7 
 377      22231066 
 377      E1
 378 0165 E5C287B5 		.ascii	"\345\302\207\265R>\342s+\242\342\233\265\011\2720a|"
 378      523EE273 
 378      2BA2E29B 
 378      B509BA30 
 378      617C
 379 0177 881209B9 		.ascii	"\210\022\011\2712\206\362!xdg3\245\311k\253\373k,\224"
 379      3286F221 
 379      78646733 
 379      A5C96BAB 
 379      FB6B2C94 
 380 018b EEC29D4C 		.ascii	"\356\302\235L\301\336ma\300-G\266\207l;\304+\223y=m"
 380      C1DE6D61 
 380      C02D47B6 
 380      876C3BC4 
 380      2B93793D 
 381 01a0 AE2C8C63 		.ascii	"\256,\214c\224\202\332,\364\347^\335(O\010^\322\030"
 381      9482DA2C 
 381      F4E75EDD 
 381      284F085E 
 381      D218
 382 01b2 4A311463 		.ascii	"J1\024c>\225\374\010@W\340/\206\312\337\345\337\014"
 382      3E95FC08 
 382      4057E02F 
 382      86CADFE5 
 382      DF0C
 383 01c4 29FF6568 		.ascii	")\377eh\33434\003\323\253\313\237\306\276\005\252[y"
 383      DC333403 
ARM GAS  /tmp/ccwtmY2Z.s 			page 30


 383      D3ABCB9F 
 383      C6BE05AA 
 383      5B79
 384 01d6 D97966A9 		.ascii	"\331yf\251\352\314s'B\256^\230\201\354j\346\036\206"
 384      EACC7327 
 384      42AE5E98 
 384      81EC6AE6 
 384      1E86
 385 01e8 F1312F40 		.ascii	"\3611/@&\003\2339\022L\357\025\334\254U\206\264\205"
 385      26039B39 
 385      124CEF15 
 385      DCAC5586 
 385      B485
 386 01fa D1820178 		.ascii	"\321\202\001xP#\264RfJ6\013}\237\373\237\013\025\252"
 386      5023B452 
 386      664A360B 
 386      7D9FFB9F 
 386      0B15AA
 387 020d 1643D525 		.ascii	"\026C\325%\315\203\352\032\026\350\354\177x#\200\000"
 387      CD83EA1A 
 387      16E8EC7F 
 387      78238000 
 388 021d 4FAF542C 		.ascii	"O\257T,L}\331\363'\013\352?-h\260\242\222\005\275j\341"
 388      4C7DD9F3 
 388      270BEA3F 
 388      2D68B0A2 
 388      9205BD6A 
 389 0232 C5486785 		.ascii	"\305Hg\205k\304h\236{\320}\017J\376\326$\363\307*\370"
 389      6BC4689E 
 389      7BD07D0F 
 389      4AFED624 
 389      F3C72AF8 
 390 0246 7634BE95 		.ascii	"v4\276\225\301\317\213\374\224\247\236\2747*\207\032"
 390      C1CF8BFC 
 390      94A79EBC 
 390      372A871A 
 391 0256 74399B3E 		.ascii	"t9\233>\207y\010Rm\362\372\315g\002\345\327\271\205"
 391      87790852 
 391      6DF2FACD 
 391      6702E5D7 
 391      B985
 392 0268 10D03F00 		.ascii	"\020\320?\000[1\350\336\300w\220)-\036\254\276y\337"
 392      5B31E8DE 
 392      C0779029 
 392      2D1EACBE 
 392      79DF
 393 027a 25D292FB 		.ascii	"%\322\222\373\0373\315\216D<jF\022\355=f{\264\333\214"
 393      1F33CD8E 
 393      443C6A46 
 393      12ED3D66 
 393      7BB4DB8C 
 394 028e 74586D56 		.ascii	"tXmV\"e\246\223\227;/\2314H\246\315T2B\363\251\236T"
 394      2265A693 
 394      973B2F99 
 394      3448A6CD 
 394      543242F3 
 395 02a5 43048468 		.ascii	"C\004\204hg\273l]L\307\273\032\216\370\330\350\343\341"
ARM GAS  /tmp/ccwtmY2Z.s 			page 31


 395      67BB6C5D 
 395      4CC7BB1A 
 395      8EF8D8E8 
 395      E3E1
 396 02b7 E33BC8D5 		.ascii	"\343;\310\325\225H\246Sf\323\331\346S\315W\210\020I"
 396      9548A653 
 396      66D3D9E6 
 396      53CD5788 
 396      1049
 397 02c9 24A317BA 		.ascii	"$\243\027\272\217\305\033:\340']s4\202"
 397      8FC51B3A 
 397      E0275D73 
 397      3482
 398              		.text
 399              		.section	.gnu.lto_.symbol_nodes.5b708cecc495d2be,"",%progbits
 400 0000 789C4DCC 		.ascii	"x\234M\3149N\003A\020\205\341\367\272\247\315b\033\274"
 400      394E0341 
 400      1085E1F7 
 400      BAA7CD62 
 400      1BBC
 401 0012 B2247009 		.ascii	"\262$p\011\016\3011\340$\317\362\004X\"\341\000@\300"
 401      0EC131E0 
 401      24CFF204 
 401      5822E100 
 401      40C0
 402 0024 24644484 		.ascii	"$dD\204$X\010!$'p\000\300\330l\006\314\236\001\303\330"
 402      24580821 
 402      24277000 
 402      C0D86C06 
 402      CC9E01C3 
 403 0039 B8A7925F 		.ascii	"\270\247\222_\237TU\006\006\347\304`L\037\"6Z\200\264"
 403      9F545506 
 403      06E7C460 
 403      4C1F2236 
 403      5A80B4
 404 004c D558356D 		.ascii	"\325X5m\012Cn\236\254\270W\032\010f\2172\251\245\272"
 404      0A436E9E 
 404      ACB8571A 
 404      08668F32 
 404      A9A5BA
 405 005f 911D9126 		.ascii	"\221\035\221&4\012R\274\246\334\220\333\015\272\027"
 405      340A52BC 
 405      A6DC90DB 
 405      0DBA17
 406 006e 3290756F 		.ascii	"2\220uo\264\361'wE\3042\035*\363\277\263l\272\324\230"
 406      B4F12777 
 406      45C4321D 
 406      2AF3BFB3 
 406      6CBAD498 
 407 0082 BF3037D4 		.ascii	"\27707\324x\212\267\324D\212w\324d\212\367T\326\223"
 407      788AB7D4 
 407      448A77D4 
 407      648AF754 
 407      D693
 408 0094 9F546EC0 		.ascii	"\237Tn\300Z\215\374\240\362^_\324\224\327;5\355\325"
 408      5A8DFCA0 
 408      F25E5FD4 
ARM GAS  /tmp/ccwtmY2Z.s 			page 32


 408      94D73B35 
 408      EDD5
 409 00a6 A70A5ECF 		.ascii	"\247\012^\317T\321\353\211*y=Re\257\036U\361z\240\252"
 409      54D1EB89 
 409      2A793D52 
 409      65AF1E55 
 409      F17AA0AA 
 410 00ba 23595B44 		.ascii	"#Y[Dx\332\215[@s\375h!\2608;\3769p\326\225\020\356/"
 410      78DA8D5B 
 410      4073FD68 
 410      21B0383B 
 410      FE3970D6 
 411 00d2 D90C50BF 		.ascii	"\331\014P\277\370\246\315\314#J:\207f\322Y\264\223\316"
 411      F8A6CDCC 
 411      234A3A87 
 411      66D259B4 
 411      93CE
 412 00e4 20BCFC6B 		.ascii	" \274\374k\025Q\322\012\232I\313\210\326z\2136k\007"
 412      1551D20A 
 412      9A49CB88 
 412      D67A8B36 
 412      6B07
 413 00f6 F7B90087 		.ascii	"\367\271\000\207\273-\332\274\303N\\\374\002\270P\223"
 413      BB2DDABC 
 413      C34E5CFC 
 413      02B85093 
 414 0106 3A       		.ascii	":"
 415              		.text
 416              		.section	.gnu.lto_.refs.5b708cecc495d2be,"",%progbits
 417 0000 789C2588 		.ascii	"x\234%\210\201\011\000 \014\303\332\010\233\372\210"
 417      81090020 
 417      0CC3DA08 
 417      9BFA88
 418 000f FF7F68D1 		.ascii	"\377\177h\321BB(BG\177\266\350\221\003CP\\E\277\232"
 418      42422842 
 418      477FB6E8 
 418      91034350 
 418      5C45BF9A 
 419 0023 2CEC9DBE 		.ascii	",\354\235\276\016\321\000\216"
 419      0ED1008E 
 420              		.text
 421              		.section	.gnu.lto_.decls.5b708cecc495d2be,"",%progbits
 422 0000 789CC55C 		.ascii	"x\234\305\\\011|\024U\232\257\252\356N'$\234*\342\310"
 422      097C1455 
 422      9AAFAAEE 
 422      4E27249C 
 422      2AE2C8
 423 0013 0C71AE75 		.ascii	"\014q\256u\235\035s\241\342\314\354\010v8\262c4\223"
 423      9D1D73A1 
 423      E2CCEC08 
 423      7638B263 
 423      3493
 424 0025 04646776 		.ascii	"\004dgv\177m\2214$\232\2443\335\035\224\331\235\265"
 424      7F6D9134 
 424      249AA433 
 424      DD1D94D9 
 424      9DB5
ARM GAS  /tmp/ccwtmY2Z.s 			page 33


 425 0037 124E4520 		.ascii	"\022NE $\210\200\234\"\207\242B\000\0117\215\312\215"
 425      2488809C 
 425      2287A242 
 425      0009378D 
 425      CA8D
 426 0049 DC027219 		.ascii	"\334\002r\031\017\004<\011 \267d\277\367\325\365^uU"
 426      0F043C09 
 426      20B764BF 
 426      F7D5F55E 
 426      7555
 427 005b A78A7176 		.ascii	"\247\212qv\363\313\373\352\325\367\336\373\277\357}"
 427      F3CBFBEA 
 427      D5F7DEFB 
 427      BFEF7D
 428 006a DFF78E7A 		.ascii	"\337\367\216z\365\252\005N\340n\365p\\\013\374U\204"
 428      F5AA054E 
 428      E06EF570 
 428      5C0BFC55 
 428      84
 429 007b 39AE5347 		.ascii	"9\256SG\216k\313q\334\357!x!\314\201\000\311\334[\020"
 429      8E6BCB71 
 429      DCEF2178 
 429      21CC8100 
 429      C9DC5B10 
 430 008f 1A213C04 		.ascii	"\032!<\004a\265\222F\376:Cx\222\347\270 \2040\204\241"
 430      61B59246 
 430      FE3A4378 
 430      92E7B820 
 430      843084A1 
 431 00a3 10FE06A1 		.ascii	"\020\376\006\241\032\302\010\010c!\214\207P\007a*\204"
 431      1AC20808 
 431      63218C87 
 431      5007612A 
 431      84
 432 00b4 37202C83 		.ascii	"7 ,\203\260\032\302Z\010\353!\354\206p\000\302A\010"
 432      B01AC25A 
 432      08EB21EC 
 432      867000C2 
 432      4108
 433 00c6 87211C81 		.ascii	"\207!\034\201p\014\202\033\260O\300\265\011\302\247"
 433      700C821B 
 433      B04FC0B5 
 433      09C2A7
 434 00d5 10BA0B1C 		.ascii	"\020\272\013\034\363G\352l\007\327\006N\276\246(r\225"
 434      F347EA6C 
 434      07D7064E 
 434      BEA62872 
 434      95
 435 00e6 40BE5208 		.ascii	"@\276R\010\363 \314\207\260\014\302r\010\247!\374\015"
 435      F320CC87 
 435      B00CC272 
 435      08A721FC 
 435      0D
 436 00f7 C27F43E0 		.ascii	"\302\177C\340\225v\205!^\005\241\001\302*\010\377\005"
 436      95768521 
 436      5E05A101 
 436      C22A08FF 
ARM GAS  /tmp/ccwtmY2Z.s 			page 34


 436      05
 437 0108 C1A5609F 		.ascii	"\301\245`\237\201\370YC\235\234\322\336DE\017_B\374"
 437      81F85943 
 437      9D9CD2DE 
 437      44450F5F 
 437      42FC
 438 011a 3308CF42 		.ascii	"3\010\317B\241\024\270\256\001\236\004\361j\227\214"
 438      A114B8AE 
 438      019E04F1 
 438      6A978C
 439 0129 F305F0AE 		.ascii	"\363\005\360\256AH\346\345:\237T\256\244=\364\037\321"
 439      4148E6E5 
 439      3A9F54AE 
 439      A43DF41F 
 439      D1
 440 013a 5D17B826 		.ascii	"]\027\270&\010z[V\000\357VAn\323CJ\273j\000t\011\204"
 440      087A5B56 
 440      00EF5641 
 440      6ED3434A 
 440      BB6A0074 
 441 0150 16AA5EAF 		.ascii	"\026\252^\257 \333\246\001\342K]\262>\226\301u%\\\337"
 441      20DBA601 
 441      E24B5DB2 
 441      3E96C175 
 441      255CDF
 442 0163 866B25E4 		.ascii	"\206k%\344[\001\327\345pM\002\336T\210\337\200xW(w\013"
 442      5B01D7E5 
 442      704D02DE 
 442      5488DF80 
 442      78572877 
 443 0178 84B610DA 		.ascii	"\204\266\020\332C\360@\350\002\241#\204\004E\246F\310"
 443      43F040E8 
 443      02A12384 
 443      0445A646 
 443      C8
 444 0189 BBC625DB 		.ascii	"\273\306%\333k\275K\266\235\231\374C\025l\332\026/\003"
 444      6BBD4BB6 
 444      9D99FC43 
 444      156CDA16 
 444      2F03
 445 019b EF195E96 		.ascii	"\357\031^\226\377]E6\"\027\371\343\2252\306?\342;\311"
 445      FF5D4536 
 445      2217F9E3 
 445      9532C63F 
 445      E23BC9
 446 01ae 9C5C4EC5 		.ascii	"\234\\N\305iP\260\2148j\333\310\237\240\224]k\202I|"
 446      6950B08C 
 446      386ADBC8 
 446      9FA0945D 
 446      6B82497C 
 447 01c2 B1B3622F 		.ascii	"\261\263b/\265\314&\227\354\323{x\326\206\267(6\244"
 447      B5CC2697 
 447      ECD37B78 
 447      D686B728 
 447      36A4
 448 01d4 F548ECBA 		.ascii	"\365H\354\272\031\256[\\z\177P\373\302\006\305OU;wR"
 448      19AE5B5C 
ARM GAS  /tmp/ccwtmY2Z.s 			page 35


 448      7A7F50FB 
 448      C206C54F 
 448      553B7752 
 449 01e8 6CDD46A9 		.ascii	"l\335F\2517\250\370\362\021\305\267\017*\276\276[\361"
 449      37A8F8F2 
 449      11C5B70F 
 449      2ABEBE5B 
 449      F1
 450 01f9 FD2795F2 		.ascii	"\375'\225\362\264\217\2370\264\201\364#\217\"\313?A"
 450      B48F9F30 
 450      B481F423 
 450      8F22CB3F 
 450      41
 451 020a 7AAAA0CB 		.ascii	"z\252\240\313K\332\335\015\310/\025\237&y\011o\014\037"
 451      4BDADD0D 
 451      C82F159F 
 451      2679096F 
 451      0C1F
 452 021c 6BA3B14A 		.ascii	"k\243\261J\232Qoc\225\276k\374\033\257\350\234\266\005"
 452      9A516F63 
 452      95BE6BFC 
 452      1BAFE89C 
 452      B605
 453 022e D13FE16D 		.ascii	"\321?\341m\205\353\323\024\306x\336\334\236\244\337"
 453      85EBD314 
 453      C678DEDC 
 453      9EA4DF
 454 023d 13939332 		.ascii	"\023\223\2232\333 \362?T\231:e\254 \254\311\206\262"
 454      DB20F23F 
 454      54993A65 
 454      AC20ACC9 
 454      86B2
 455 024f 5315BDBC 		.ascii	"S\025\275\274L\325\355V\322x%\235\340\276\006\327\005"
 455      4CD5ED56 
 455      D278259D 
 455      E0BE06D7 
 455      05
 456 0260 10E619CA 		.ascii	"\020\346\031\312\277\241\364\321Y\206\362\004\257\204"
 456      BFA1F4D1 
 456      5986F204 
 456      AF84
 457 026e 1A0F48B1 		.ascii	"\032\017H\2615\202,\017)\263\335%\363\226\030\360\222"
 457      35822C0F 
 457      29B3DD25 
 457      F39618F0 
 457      92
 458 027f B9E725A9 		.ascii	"\271\347%\251F\232=J\352\267\265]G\256V\202\277\324"
 458      469A3D4A 
 458      EAB7B55D 
 458      47AE5682 
 458      BFD4
 459 0291 319FF249 		.ascii	"1\237\362I\334\030\302\217\216\222\306\360\325\015]"
 459      DC18C28F 
 459      8E92C6F0 
 459      D50D5D
 460 02a0 396E202F 		.ascii	"9n /\362\355\222\270\236\030IIB!~\301\275*I\265M\233"
 460      F2ED92B8 
ARM GAS  /tmp/ccwtmY2Z.s 			page 36


 460      9E184949 
 460      42217EC1 
 460      BD2A49B5 
 461 02b6 16EC1524 		.ascii	"\026\354\025$)Q\344\347B1\201\373\035\317\335\303\275"
 461      2951E4E7 
 461      423181FB 
 461      1DCFDDC3 
 461      BD
 462 02c7 063800F6 		.ascii	"\0068\000\366\311\317Lt\3079\001_7j\367F\276F\222 a"
 462      C9CF4C74 
 462      C739015F 
 462      376AF746 
 462      BE469220 
 463 02dc 01C28345 		.ascii	"\001\302\203EE~>\177\217s\254\331W\266t\225\334\"\377"
 463      457E3E7F 
 463      8F73ACD9 
 463      57B67495 
 463      DC22FF
 464 02ef 3AE234F0 		.ascii	":\3424\360,\220\310'%\321B\342\275\232\201`a\262\022"
 464      2C90C827 
 464      25D142E2 
 464      BD9A8160 
 464      61B212
 465 0302 6951FFD8 		.ascii	"iQ\377\330\346\375C\313(\015\223:\253-k\022\024\200"
 465      E6FD43CB 
 465      280D933A 
 465      AB2D6B12 
 465      1480
 466 0314 57F88EBA 		.ascii	"W\370\216\272.$\305\230\230E)\223\252\026q+%\336\344"
 466      2E24C598 
 466      98452993 
 466      AA16712B 
 466      25DEE4
 467 0327 E5B62A6C 		.ascii	"\345\266*l-\362+E(\253rs\370d\203\021\345\312\314K("
 467      2DF22B45 
 467      28AB7273 
 467      F8648311 
 467      E5CACC4B 
 468 033c 26BCB263 		.ascii	"&\274\262c\327^~8\232\360-T\375H\301\324\2066\240\326"
 468      D75E7E38 
 468      9AF02D54 
 468      FD48C1D4 
 468      8636A0D6 
 469 0350 8DDAA47A 		.ascii	"\215\332\244zC\003B\215\273i\250+\243\327>\210^\273"
 469      4303428D 
 469      BB69A82B 
 469      A3D73E88 
 469      5EBB
 470 0362 1C81260B 		.ascii	"\034\201&\013Fw\360\032\334\301\313\232\311\233\244"
 470      4677F01A 
 470      DCC1CB9A 
 470      C99BA4
 471 0371 478885DA 		.ascii	"G\210\205\332s\377\340\354LW\355\314\275\250\230Z\342"
 471      73FFE0EC 
 471      4C57EDCC 
 471      BDA8985A 
 471      E2
ARM GAS  /tmp/ccwtmY2Z.s 			page 37


 472 0382 2322FFFB 		.ascii	"#\"\377\373\333,M\266\222\357\2141\027\216\005\300x"
 472      DB2C4DB6 
 472      92EF8C31 
 472      178E05C0 
 472      78
 473 0393 2819487F 		.ascii	"(\031H\177\227V\267U\301F>\231\326\010S}'n\"\216\024"
 473      9756B755 
 473      C1463E99 
 473      D608537D 
 473      276E228E 
 474 03a8 948E67BB 		.ascii	"\224\216g\273U\200l]\311\365\365\357\315QL\277\206\357"
 474      55806C5D 
 474      C9F5F5EF 
 474      CD514CBF 
 474      86EF
 475 03ba 04121C31 		.ascii	"\004\022\0341\250\271U \201\373\024\213\254\207\342"
 475      A8B95520 
 475      81FB148B 
 475      AC87E2
 476 03c9 72418496 		.ascii	"rA\204\226\232\326\274t\242\232\257Fh\222\3061\260\314"
 476      9AD6BC74 
 476      A29AAF46 
 476      6892C631 
 476      B0CC
 477 03db DF5DDC6C 		.ascii	"\337]\334l\220<zm\324\214;\244\331\357@\376\325\320"
 477      903C7A6D 
 477      D48C3BA4 
 477      D9EF40FE 
 477      D5D0
 478 03ed 32817BC5 		.ascii	"2\201{\305\245\342\232i@\353\031\224\212X\274\033\233"
 478      A5E29A69 
 478      40EB1994 
 478      8A58BC1B 
 478      9B
 479 03fe 536A4515 		.ascii	"SjE\025\3545\307`\251\014X\375\226\351\212pr\027Yb\007"
 479      EC35C760 
 479      A90C58FD 
 479      96E98A70 
 479      72175962 
 480 0413 2FD14A38 		.ascii	"/\321J8):i\013\010\247(wv\202UW\020`\035D\352\331jT"
 480      293A690B 
 480      08A72877 
 480      76825557 
 480      10601D44 
 481 042b EEA6151B 		.ascii	"\356\246\025\033y\354\034[m\251\266q\307K(}\253>\222"
 481      79EC1C5B 
 481      6DA9B671 
 481      C74B287D 
 481      AB3E92
 482 043e A0D65E8C 		.ascii	"\240\326^\214\265o\300\332\3377\326\336x\342\342p\305"
 482      B56FC0DA 
 482      DF37D6DE 
 482      78E2E270 
 482      C5
 483 044f B4EFDBAA 		.ascii	"\264\357\333\252\377\243\335\223b\353\267\354\025\352"
 483      FFA3DD93 
 483      62EBB7EC 
ARM GAS  /tmp/ccwtmY2Z.s 			page 38


 483      15EA
 484 045d B435F78A 		.ascii	"\2645\367\212\334\306\275h\301\347\334\306\001\340\241"
 484      DCC6BD68 
 484      C1E7DCC6 
 484      01E0A1
 485 046c 64BA2AA5 		.ascii	"d\272*\245\343h\031\004\256\316\255J\177S\016\324\324"
 485      E3681904 
 485      AECEAD4A 
 485      7F530ED4 
 485      D4
 486 047d 38F37A3D 		.ascii	"8\363z=_7\\\332\232\256\3120\3311\"\353E\347v\243K\312"
 486      5F375CDA 
 486      9AAECA30 
 486      D93122EB 
 486      45E776A3 
 487 0493 60D3EC80 		.ascii	"`\323\354\200Y\272PM\364\002\0156\3231\030+\331E\032"
 487      59BA504D 
 487      F4020D36 
 487      D331182B 
 487      D9451A
 488 04a6 EC153B60 		.ascii	"\354\025;`\035\254%\273L\203\315w\014\306Jv\225\006"
 488      1DAC25BB 
 488      4C83CD77 
 488      0CC64A76 
 488      9506
 489 04b8 7BDD0E58 		.ascii	"{\335\016X\027k\311\256\323`o9\006c%\273A\203-\265\003"
 489      176BC9AE 
 489      D3606F39 
 489      066325BB 
 489      41832DB5 
 490 04cd 966A2D59 		.ascii	"\226j-Y\355>\012l\205c0V\262:\032l\265\035\260\273\255"
 490      ED3E0A6C 
 490      85633056 
 490      B23A1A6C 
 490      B51DB0BB 
 491 04e2 259B4483 		.ascii	"%\233D\203\255w\014\306J6\231\006{\307\016X\272\265"
 491      AD770CC6 
 491      4A369906 
 491      7BC70E58 
 491      BAB5
 492 04f4 645368B0 		.ascii	"dSh\260\315\216\301X\311\246\321`\333\355\200\365\260"
 492      CD8EC158 
 492      C9A6D160 
 492      DBED80F5 
 492      B0
 493 0505 966C3A0D 		.ascii	"\226l:\015\266\3131\030+\331\022\032l\237\035\260\236"
 493      B6CB3118 
 493      2BD9121A 
 493      6C9F1DB0 
 493      9E
 494 0516 D6922DA5 		.ascii	"\326\222-\245\301>p\014\306J\266\234\006;l\007\254\237"
 494      C13E700C 
 494      C64AB69C 
 494      063B6C07 
 494      AC9F
 495 0528 B5642B68 		.ascii	"\265d+h\260\243\216\301X\311V\322`'\354\200\345YK\266"
 495      B0A38EC1 
ARM GAS  /tmp/ccwtmY2Z.s 			page 39


 495      58C956D2 
 495      6027EC80 
 495      E5594BB6 
 496 053c 9A06FBD8 		.ascii	"\232\006\373\3301\030+\331Z\032\3543;`\003\255%[O\203"
 496      31182BD9 
 496      5A1AEC33 
 496      3B6003AD 
 496      255B4F83 
 497 0550 9D760CC6 		.ascii	"\235v\014\306J\266\207\006\373\312\016\330\023&\222"
 497      4AB68706 
 497      FBCA0ED8 
 497      132692
 498 055f 697F56EB 		.ascii	"i\177V\353\326\235\3723\212\300}\353V\3277\016\347h"
 498      D69DFA33 
 498      8AC07DEB 
 498      56D7370E 
 498      E768
 499 0571 4EC738EF 		.ascii	"N\3078\357v\272\026c\332\015+\325\317\347\360\365\362"
 499      76BA1663 
 499      DA0D2BD5 
 499      CFE7F0F5 
 499      F2
 500 0582 3C2FAF16 		.ascii	"</\257\026\257\330A\2143\001N\333B-=\253=N\301\014\256"
 500      AFD8418C 
 500      33014EDB 
 500      422D3DAB 
 500      3D4EC10C 
 501 0597 4CC09895 		.ascii	"L\300\230\225\223\362\020\3254/\332e\212\276xKT\261"
 501      93F210D5 
 501      342FDA65 
 501      8ABE784B 
 501      54B1
 502 05a9 C8F3ABBC 		.ascii	"\310\363\253\274R\203'|A\313,u\351b\236W\344\307\013"
 502      5283277C 
 502      41CB2C75 
 502      E9629E57 
 502      E4C70B
 503 05bc BF003A41 		.ascii	"\277\000:A\320\037:\345\270\032k\301\035\234\347<f\233"
 503      D01F3AE5 
 503      B81A6BC1 
 503      1D9CE73C 
 503      669B
 504 05ce 050810BF 		.ascii	"\005\010\020\277\250\225'\274 P\2360\336\216\232\342"
 504      A89527BC 
 504      20509E30 
 504      DE8E9AE2 
 505 05de 4CED1F6D 		.ascii	"L\355\037m\231~\273\324\024\345\251\366\306U\016<a\216"
 505      997EBBD4 
 505      14E5A9F6 
 505      C6550E3C 
 505      618E
 506 05f0 7D5F7DEE 		.ascii	"}_}\356\255\027\310\242\376E\217\351\303\252\015\250"
 506      AD17C8A2 
 506      FE458FE9 
 506      C3AA0DA8 
 507 0600 75A3DEFC 		.ascii	"u\243\336\374\025\256U'#\320\314\233\006\2722zf\017"
 507      15AE5527 
ARM GAS  /tmp/ccwtmY2Z.s 			page 40


 507      23D0CC9B 
 507      06BA327A 
 507      660F
 508 0612 049A8A40 		.ascii	"\004\232\212@\363\015@\"\317\033\236zy\366\271\224O"
 508      F30D4022 
 508      CF1B9E7A 
 508      79F6B994 
 508      4F
 509 0623 D223311B 		.ascii	"\322#1\033\031?`^x\0022\332\213iN\253\253\247\2465\207"
 509      193F605E 
 509      780232DA 
 509      8B694EAB 
 509      ABA7A635 
 510 0638 BE9FC89F 		.ascii	"\276\237\310\237\257\221\246\244;\320\316\216\235\252"
 510      AF91A6A4 
 510      3BD0CE8E 
 510      9DAA
 511 0646 C566A27E 		.ascii	"\305f\242~V\306\350g\262\340LA\002\027u\334\220\273"
 511      56C6E867 
 511      B2E04C41 
 511      021775DC 
 511      90BB
 512 0658 D986BCF4 		.ascii	"\331\206\274\364^\235\363\206h\2567\027\033\262\365"
 512      5E9DF386 
 512      68AE3717 
 512      1BB2F5
 513 0667 0768C81E 		.ascii	"\007h\310\036\307\015I\247\032B\236\330\277\253\223"
 513      C70D49A7 
 513      1A429ED8 
 513      BFAB93
 514 0676 C7C15BB8 		.ascii	"\307\301[\270\272\370\017\246D\236\205\302-\314ca\364"
 514      BAF80FA6 
 514      449E85C2 
 514      2DCC6361 
 514      F4
 515 0687 C3ED7CAA 		.ascii	"\303\355|\252\314n\355\211P\212^\332.?O3[b\346ui\275"
 515      CC6EED89 
 515      508A5EDA 
 515      2E3F4F33 
 515      5B62E675 
 516 069d 75B7AAB2 		.ascii	"u\267\252\262E\250\262Cf\235\314\026\324\272\315\357"
 516      45A8B243 
 516      669DCC16 
 516      D4BACDEF 
 517 06ad 3528BB54 		.ascii	"5(\273To!\324\361\233\206\272\262\245Q\356\257\015\010"
 517      6F21D4F1 
 517      9B86BAB2 
 517      A551EEAF 
 517      0D08
 518 06bf 7432C68C 		.ascii	"t2\306\214\011\006+&\260V\204[R\323e\334C|V\341\220"
 518      09062B26 
 518      B056845B 
 518      52D365DC 
 518      437C56E1 
 519 06d4 1B2FF77F 		.ascii	"\033/\367\177^\016fc\024\237X\320\341l\254y\320\311"
 519      5E0E6663 
 519      149F58D0 
ARM GAS  /tmp/ccwtmY2Z.s 			page 41


 519      E16CAC79 
 519      D0C9
 520 06e6 3A752695 		.ascii	":u&\225\215t\361\357B\254\211.\033\253n\012=D\346\322"
 520      8D74F1EF 
 520      42AC892E 
 520      1BAB6E0A 
 520      3D44E6D2 
 521 06fa 96BF136E 		.ascii	"\226\277\023n\357\016\312\355\354mC\216=\240\272\335"
 521      EF0ECAED 
 521      EC6D438E 
 521      3DA0BADD 
 522 070a 6A6CD1A8 		.ascii	"jl\321\250\004\243\211\033\214cr\353{\205\002W\227p"
 522      04A3891B 
 522      8C6372EB 
 522      7B850257 
 522      9770
 523 071c 932DD1FE 		.ascii	"\223-\321\376\004nj\202\215)35\216\271\016]R\314\325"
 523      046E6A82 
 523      8D293335 
 523      8EB90E5D 
 523      52CCD5
 524 072f EA4E94BA 		.ascii	"\352N\224\272_\270\177s5?\002\265\021\025\310~\341\014"
 524      5FB87F73 
 524      353F02B5 
 524      1115C87E 
 524      E10C
 525 0741 83366C6C 		.ascii	"\2036lli\275\201E\336\025b\366\013\337W\367\013I\232"
 525      69BD8145 
 525      DE1562F6 
 525      0BDF57F7 
 525      0B499A
 526 0754 8D4D2D66 		.ascii	"\215M-f\277P\344\337\341\005\005\367f5\312\030Q\027"
 526      BF50E4DF 
 526      E10505F7 
 526      6635CA18 
 526      5117
 527 0766 50E437E1 		.ascii	"P\3447\341\372h\263p\027\255\375\265\216\265\237Jk?"
 527      FA68B370 
 527      17ADFDB5 
 527      8EB59F4A 
 527      6B3F
 528 0778 7A6DC774 		.ascii	"zm\307t\236\310o\262\017\327\223^\265j[\265\273&*\252"
 528      9EC86FB2 
 528      0FD7935E 
 528      B56A5BB5 
 528      BB262AAA 
 529 078c DF86AADF 		.ascii	"\337\206\252\337l\241\372\236V@\002w\020\213\354\214"
 529      6CA1FA9E 
 529      56400277 
 529      108BEC8C 
 530 079c 51FDA103 		.ascii	"Q\375\241\003\252\352w\332R\375\007\246\252\337\351"
 530      AAEA77DA 
 530      52FD07A6 
 530      AADFE9
 531 07ab 5CF50ADE 		.ascii	"\\\365\012\336A}\253V\344\337s\014\226\032\317\216;"
 531      417DAB56 
 531      E4DF730C 
ARM GAS  /tmp/ccwtmY2Z.s 			page 42


 531      961ACF8E 
 531      3B
 532 07bc 293BEE42 		.ascii	");\356B;\356\006;\212\374\036\326\232\247\214\326dT"
 532      3BEE063B 
 532      8AFC1ED6 
 532      9AA78CD6 
 532      6454
 533 07ce A744     		.ascii	"\247D"
 534 07d0 2D7749A4 		.ascii	"-wI\244h\375.u\203X\036\370\316\331\361\2168{\0333w"
 534      68FD2E75 
 534      83581EF8 
 534      CED9F18E 
 534      387B1B33 
 535 07e5 C92A41B0 		.ascii	"\311*A\260\313\216\301R\031\260u\343g\330\332\377\225"
 535      CB8EC152 
 535      19B075E3 
 535      67D8DAFF 
 535      95
 536 07f6 78FA7944 		.ascii	"x\372yD\340\206{I\275\207\215\376\262\354\352\236\321"
 536      E0867B49 
 536      BD878DFE 
 536      B2ECEA9E 
 536      D1
 537 0807 8ABF1CB6 		.ascii	"\212\277\034\266\341/0\333\237L\222\352RT\307]\247\241"
 537      E12F30DB 
 537      9F4C92EA 
 537      5254C75D 
 537      A7A1
 538 0819 C651751C 		.ascii	"\306Qu\034o\271vf\033\217p\362\363\325&#\\\253\217\177"
 538      6FB97666 
 538      1B8F70F2 
 538      F3D52623 
 538      5CAB8F7F 
 539 082d 2CDC8DC0 		.ascii	",\334\215\300\326tg\212\221{d\364\350*\262\336\371\030"
 539      D674678A 
 539      917B64F4 
 539      E82AB2DE 
 539      F918
 540 083f DBF4BED7 		.ascii	"\333\364\276\3278+\310\232\241\034\3610\345\210G\320"
 540      382BC89A 
 540      A11CF130 
 540      E58847D0 
 541 084f 118FA223 		.ascii	"\021\217\242#\036G\372\021\355\216VK\256&\372\201\351"
 541      1E47FA11 
 541      ED8E564B 
 541      AE26FA81 
 541      E9
 542 0860 03C7ED4E 		.ascii	"\003\307\355N5X\307\252\232Ct5\307\2746|\317z+\014\306"
 542      3558C7AA 
 542      9A437435 
 542      C7BC367C 
 542      CF7A2B0C 
 543 0875 F50FEAD5 		.ascii	"\365\017\352\3255\201\374\356\344s\307\210\25477\217"
 543      3581FCEE 
 543      E473C788 
 543      AC37378F 
 544 0885 67D604CD 		.ascii	"g\326\004\315v\340z\232\010h\366G\277\310\2029\216'"
ARM GAS  /tmp/ccwtmY2Z.s 			page 43


 544      76E07A9A 
 544      0868F647 
 544      BFC88239 
 544      8E27
 545 0897 66DAC813 		.ascii	"f\332\310\023\003\275\213t\023\322-HG\243\341\236C:"
 545      03BD8B74 
 545      13D22D48 
 545      47A3E19E 
 545      433A
 546 08a9 16691DD2 		.ascii	"\026i\035\322\031H_A\272\000\351\006\244[\221\356Cz"
 546      19485F41 
 546      BA00E906 
 546      A45B91EE 
 546      437A
 547 08bb 00E941A4 		.ascii	"\000\351A\244\237#=m\307\001V\263\357\374\272q3\245"
 547      9F233D6D 
 547      C70156B3 
 547      EFFCBA71 
 547      33A5
 548 08cd 6873D3F9 		.ascii	"hs\323\371\226\255w\314X*I\317I7Z\236\345\345W\212\002"
 548      96AD77CC 
 548      582A49CF 
 548      49375A9E 
 548      E5E5578A 
 549 08e2 F75A22EB 		.ascii	"\367Z\"\353\222?\347\346JR\23541\320OQ\334\012\314\360"
 549      923FE7E6 
 549      4A529D34 
 549      31D04F51 
 549      DC0ACCF0 
 550 08f6 85D0CDB4 		.ascii	"\205\320\315\264:\365\375\312/\271y\2447\254\221\362"
 550      3AF5FDCA 
 550      2FB979A4 
 550      37AC91F2 
 551 0906 BAE01B1B 		.ascii	"\272\340\033\033N)\303(\355K\2019\257\204r\235mj\234"
 551      4E29C328 
 551      ED4B8139 
 551      AF84729D 
 551      6D6A9C
 552 0919 796913BE 		.ascii	"yi\023\276@\221\316\302\252GJ\264\377R\364\254\320Y"
 552      4091CEC2 
 552      AA474AB4 
 552      FF52F4AC 
 552      D059
 553 092b 89A92F42 		.ascii	"\211\251/B\341Y\317\320\036M4i\241\344\322D\373\326"
 553      E159CFD0 
 553      1E4D3469 
 553      A1E4D244 
 553      FBD6
 554 093d 285AB3A9 		.ascii	"(Z\263\251h\223\346\237\011N\225\242#\244\226\226gS"
 554      6893E69F 
 554      094E95A2 
 554      23A49696 
 554      6753
 555 094f E5FA04EE 		.ascii	"\345\372\004\356;[5\2347\326p\301\244\206&b\224\337"
 555      3B5B359C 
 555      37D670C1 
 555      A4862662 
ARM GAS  /tmp/ccwtmY2Z.s 			page 44


 555      94DF
 556 0961 4D5B3A5B 		.ascii	"M[:[1\012\323t'\253O\355\201\3672\316\004\325I?\300"
 556      310AD374 
 556      27AB4FED 
 556      81F732CE 
 556      04D5493F 
 557 0976 EAD34AEB 		.ascii	"\352\323J\353\227L\264\376|\222\251N\352\224\366-\224"
 557      974CB4FE 
 557      7C92A94E 
 557      EA94F62D 
 557      94
 558 0987 9264D148 		.ascii	"\222d\321H\251\213\026\256\244\200^3\323S\364\370\204"
 558      A98B16AE 
 558      A4805E33 
 558      D353F4F8 
 558      84
 559 0998 1DD5309C 		.ascii	"\035\3250\234K\327[Z\\\234}\017\271a\"\353BsYkY\373"
 559      4BD75B5A 
 559      5C9C7D0F 
 559      B96122EB 
 559      4273596B 
 560 09ae 7D6FB45F 		.ascii	"}o\264_K\254\\\263\233\242S\266\244\324V7\265\264tS"
 560      4BAC5CB3 
 560      9BA253B6 
 560      A4D45637 
 560      B5B47453 
 561 09c2 BDE35D73 		.ascii	"\275\343]st\203wT\273\014\3505\256\030\364\246\346\350"
 561      74837754 
 561      BB0CE835 
 561      AE18F4A6 
 561      E6E8
 562 09d4 F41D0ABA 		.ascii	"\364\035\012\272\375\026\217t\031\016\012\220\3553\346"
 562      FD168F74 
 562      190E0A90 
 562      ED33E6
 563 09e3 A4004C43 		.ascii	"\244\000LCI\246}\376Jq?9;<5c\216\021.\253N\257\354\311"
 563      49A67DFE 
 563      4A713F39 
 563      3B3C3563 
 563      8E112EAB 
 564 09fb 294D1B27 		.ascii	")M\033'\215\354\300km\033al\333\350\330\266\201\346"
 564      8DECC06B 
 564      6D1B616C 
 564      DBE8D8B6 
 564      81E6
 565 0a0d EA761934 		.ascii	"\352v\0314w\302\226\346\306\032\321_0E\257\2370\016"
 565      77C296E6 
 565      C61AD15F 
 565      3045AF9F 
 565      300E
 566 0a1f 46FF9A68 		.ascii	"F\377\232hK\313\006\230\225\015\352#\236h\245\277\011"
 566      4BCB0698 
 566      950DEA23 
 566      9E68A5BF 
 566      09
 567 0a30 AE588F69 		.ascii	"\256X\217i6\227\254Fb\035{\274\205\272\024\274ZSA\301"
 567      3697AC46 
ARM GAS  /tmp/ccwtmY2Z.s 			page 45


 567      621D7BBC 
 567      85BA14BC 
 567      5A5341C1 
 568 0a44 B115BF1E 		.ascii	"\261\025\277\036\236\350\300\261\353\215f&B\030\314"
 568      9EE8C0B1 
 568      EB8D6626 
 568      4218CC
 569 0a53 3CA68DA9 		.ascii	"<\246\215\251\231_\"C\273<NL\307\034u\226f\226[fn\346"
 569      995F2243 
 569      BB3C4E4C 
 569      C71C7596 
 569      66965B66 
 570 0a69 3AA3215E 		.ascii	":\243!^\214m\337\331\263\321#\373d3\317\352\3114.\221"
 570      8C6DDFD9 
 570      B3D123FB 
 570      6433CFEA 
 570      C9342E91 
 571 0a7d 1B8D9B60 		.ascii	"\033\215\233`#\245j\376/q6\301psZ\344_v%\202\270\263"
 571      23A56AFE 
 571      2F7136C1 
 571      70735AE4 
 571      5F762582 
 572 0a93 DB586E2D 		.ascii	"\333Xn-\223\014\344\217\224\227\343j,\316\316\3624V"
 572      930CE48F 
 572      9497E36A 
 572      2CCECEF2 
 572      3456
 573 0aa5 894E06DC 		.ascii	"\211N\006\334-\352\200;\313\205;\260m~\200\001W\263"
 573      2DEA803B 
 573      CB853BB0 
 573      6D7E8001 
 573      57B3
 574 0ab7 25C1E462 		.ascii	"%\301\344b\357\015\346}\313\324\2740\342\236\376\267"
 574      EF0DE67D 
 574      CBD4BC30 
 574      E29EFEB7 
 575 0ac7 9D30CD27 		.ascii	"\2350\315'\251\262\275\207\371\246Z\032\031\321\025"
 575      A9B2BD87 
 575      F9A65A1A 
 575      19D115
 576 0ad6 DFD84F7C 		.ascii	"\337\330O|C.\266\325A\261\211\360d\246\351b\227\235"
 576      432EB6D5 
 576      41B189F0 
 576      64A6E962 
 576      979D
 577 0ae8 825A17FA 		.ascii	"\202Z\027\372z$:\225l3\246\030\343\014\212\022_5\355"
 577      7A243A95 
 577      6C33A618 
 577      E30C8A12 
 577      5F35ED
 578 0afb 43D3F73B 		.ascii	"C\323\367;\036&\3374\366\037\"\225A\301\373\314\373"
 578      1E26DF34 
 578      F61F2295 
 578      41C1FBCC 
 578      FB
 579 0b0c CF445D47 		.ascii	"\317D]G\237a\2167l5\325\330\177\3360\366\237\305&S@"
 579      9F618E37 
ARM GAS  /tmp/ccwtmY2Z.s 			page 46


 579      6C35D5D8 
 579      7FDE30F6 
 579      9FC52653 
 580 0b21 6D5363E3 		.ascii	"mSc\343\231;\247,\225F\230,\020\3426p\371\315\372v}"
 580      993BA72C 
 580      9546982C 
 580      10E23670 
 580      F9CDFA76 
 581 0b36 FD8A7B70 		.ascii	"\375\212{p\257r\0056qF\362\017\340\331\006\305.H6\216"
 581      AF720536 
 581      7146F20F 
 581      E0D906C5 
 581      2E48368E 
 582 0b4a A732D02A 		.ascii	"\2472\320*\013\015|Li@\235-\226Z`\2541\305X}hW\302T"
 582      0B0D7C4C 
 582      69409D2D 
 582      965A60AC 
 582      31C5587D 
 583 0b62 E91D5CC8 		.ascii	"\351\035\\\310q*\304z\013\210u\246\020\033\326o\374"
 583      712AC47A 
 583      0B8875A6 
 583      101BD66F 
 583      FC
 584 0b73 FD0C2B43 		.ascii	"\375\014+C\220\025\267\225%6\030]\015V\314\216\2552"
 584      9015B795 
 584      2536185D 
 584      0D56CC8E 
 584      AD32
 585 0b85 EB938F7F 		.ascii	"\353\223\217\177\263X\222:\210\374;h\226\325)F\263x"
 585      B358923A 
 585      88FC3B68 
 585      96D52946 
 585      B378
 586 0b97 0C56F1B0 		.ascii	"\014V\361\260V\361$\351\021\375\344\242&\323[<=\344"
 586      56F124E9 
 586      11FDE4A2 
 586      26D35B3C 
 586      3DE4
 587 0ba9 C43BA4B8 		.ascii	"\304;\244\270(\316\344\271\325\244\251\255\236RTZ\010"
 587      28CEE4B9 
 587      D5A4A9AD 
 587      9E52545A 
 587      08
 588 0bba FAFDF16B 		.ascii	"\372\375\361k\330\302-.\262\004\331hh\241\341T\030\251"
 588      D8C22D2E 
 588      B204D968 
 588      68A1E154 
 588      18A9
 589 0bcc CA4A8C9D 		.ascii	"\312J\214\235\256d\023\303Z\245\321\302r1\276\272-\305"
 589      AE6413C3 
 589      5AA5D1C2 
 589      7231BEBA 
 589      2DC5
 590 0bde DC497699 		.ascii	"\334Iv\2319I\364\355\011\023\356\220\346\220e\307C\306"
 590      3949F4ED 
 590      0913EE90 
 590      E69065C7 
ARM GAS  /tmp/ccwtmY2Z.s 			page 47


 590      43C6
 591 0bf0 C93C9E8B 		.ascii	"\311<\236\213\3541\352\215d6\332\306 \330Q\013\301\366"
 591      EC31EA8D 
 591      6436DAC6 
 591      20D8510B 
 591      C1F6
 592 0c02 9B7A6FC3 		.ascii	"\233zo\303\251\346\256\261\235hF[s\214\017L1\226|\271"
 592      A9E6AEB1 
 592      9D68465B 
 592      738C0F4C 
 592      31967CB9 
 593 0c16 B76B4C27 		.ascii	"\267kL'j\262\2008d\012\261\342\333\217\357\214\201\230"
 593      6AB28038 
 593      640AB1E2 
 593      DB8FEF8C 
 593      8198
 594 0c28 D9CE1CE2 		.ascii	"\331\316\034\342CS\210I\363\367\246\305@,\260\2008j"
 594      43538849 
 594      F3F7A6C5 
 594      402CB080 
 594      386A
 595 0c3a 3E1ABCB4 		.ascii	">\032\274\2643v4Xb\001q\234\205\370)7G\212\356i:\327"
 595      33763458 
 595      6201719C 
 595      85F82937 
 595      478AEE69 
 596 0c50 7239A15A 		.ascii	"r9\241Z\212N\221$\2605\337M>\275-pQ\015D\335\022\212"
 596      8A4E9124 
 596      B035DF4D 
 596      3EBD2D70 
 596      510D44DD 
 597 0c66 3DE7FD91 		.ascii	"=\347\375\221\016(\203E_\336\362\"\017\213\325Z\260"
 597      0E288345 
 597      5FDEF222 
 597      0F8BD55A 
 597      B0
 598 0c77 4D0BAF9E 		.ascii	"M\013\257\236\261\335\203P\325\372\334\302\236\250E"
 598      B1DD8350 
 598      D5FADCC2 
 598      9EA845
 599 0c86 1768C7D3 		.ascii	"\027h\307\323H\320\2625\207Z\340YZ\232\275U\221\313"
 599      48D0B235 
 599      875AE059 
 599      5A9ABD55 
 599      91CB
 600 0c98 ECF4A64B 		.ascii	"\354\364\246K\205\351\316Q\203\3767\352\011\337\317"
 600      85E9CE51 
 600      83FE37EA 
 600      09DFCF
 601 0ca7 5CA4F62F 		.ascii	"\\\244\366/\015\332h\025H\340.a\221S\256\230\035\373"
 601      0DDA6815 
 601      48E02E61 
 601      9153AE98 
 601      1DFB
 602 0cb9 4D23956D 		.ascii	"M#\225m@\222\326\3726\340\214\203\226;\336M\332\006"
 602      4092D6FA 
 602      36E08C83 
ARM GAS  /tmp/ccwtmY2Z.s 			page 48


 602      963BDE4D 
 602      DA06
 603 0ccb 5B574AF6 		.ascii	"[WJ\366\375\037|\254\310\376%\312^\335\276U\331Y \201"
 603      FD1F7CAC 
 603      C8FE25CA 
 603      5EDDBE55 
 603      D9592081 
 604 0cdf 1B8F45BE 		.ascii	"\033\217E\276\211\225\375\300\010E\366ol\311\276\177"
 604      8995FDC0 
 604      0845F66F 
 604      6CC9BE7F 
 605 0cef 9F2CBBBA 		.ascii	"\237,\273\272\2119]\303\275\271M\314\003\362a\033yG"
 605      89395DC3 
 605      BDB94DCC 
 605      03F2611B 
 605      7947
 606 0d01 EC552398 		.ascii	"\354U#\230\243-L)zX\006\333\212\356\265\3101X*#\331"
 606      A32D4C29 
 606      7A5806DB 
 606      8AEEB5C8 
 606      31582A23 
 607 0d16 4775EC39 		.ascii	"Gu\3549\354\006;xq\016\303\234\335G\035\206Y\345\030"
 607      EC063B78 
 607      710EC39C 
 607      DD471D86 
 607      59E518
 608 0d29 8C15EE22 		.ascii	"\214\025\356\"\015\266\321\016\230\331\221\021\263?"
 608      0DB6D10E 
 608      98D99111 
 608      B33F
 609 0d37 DA4960E4 		.ascii	"\332I`\344p\221\235\277f\027\331\231;\217\364;\244\227"
 609      70919DBF 
 609      6617D999 
 609      3B8FF43B 
 609      A497
 610 0d49 905E417A 		.ascii	"\220^Az\315\305\274A\330\321^\355%\246\256\330\232K"
 610      CDC5BC41 
 610      D8D15EED 
 610      25A6AED8 
 610      9A4B
 611 0d5b 48D1B7AD 		.ascii	"H\321\267\255\273\207\331\3763t\355\223\325\374H\364"
 611      BB87D9FE 
 611      3374ED93 
 611      D5FC48F4 
 612 0d6b E116EC1E 		.ascii	"\341\026\354\036{[\357\036\306\035\376SX\244\306\035"
 612      7B5BEF1E 
 612      C61DFE53 
 612      58A4C61D 
 613 0d7b F346E87B 		.ascii	"\363F\350{\365\2047Ik\375\215\320\225\011\366\3360\314"
 613      F5843749 
 613      6BFD8DD0 
 613      9509F6DE 
 613      30CC
 614 0d8d D6EABF95 		.ascii	"\326\352\277\225j\310\376\023\352\253\255\321n\322\220"
 614      6AC8FE13 
 614      EAABADD1 
 614      6ED290
ARM GAS  /tmp/ccwtmY2Z.s 			page 49


 615 0d9c 1BAD3784 		.ascii	"\033\2557\204\005\202~\336\201\024y>\266!_\253\015y"
 615      05827EDE 
 615      8114793E 
 615      B6215FAB 
 615      0D79
 616 0dae DE564356 		.ascii	"\336VCVMP\275\177\224\233\370\330,\0157\216\217Y\032"
 616      4D50BD7F 
 616      949BF8D8 
 616      2C0D378E 
 616      8F591A
 617 0dc1 B526BA5A 		.ascii	"\265&\272Z>$,\203-p\014\306z\377\272\335\352K&y\011"
 617      3E242C83 
 617      2D700CC6 
 617      7AFFBADD 
 617      EA4B2679 
 618 0dd6 BFD80E5E 		.ascii	"\277\330\016^\234W\037\353w\033\217\226\311\233\307"
 618      9C571FEB 
 618      771B8F96 
 618      C99BC7
 619 0de5 711F228E 		.ascii	"q\037\"\216U+g'&a\233Vv0\256W\033y\303\301|\303\227"
 619      552B6727 
 619      26619B56 
 619      7630AE57 
 619      1B79C3C1 
 620 0dfc 2AD0711D 		.ascii	"*\320q\035\313\315\350\001\254za\256\372N\001\267\262"
 620      CBCDE801 
 620      AC7A61AE 
 620      FA4E01B7 
 620      B2
 621 0e0d B7D90134 		.ascii	"\267\331\0014\033\243\314\376h7\022\371\027\334d$\030"
 621      1BA3CCFE 
 621      683712F9 
 621      17DC6424 
 621      18
 622 0e1e E7263D7E 		.ascii	"\347&=~\002\322\211H\353\221Nq\333\330\265'\306\327"
 622      02D28948 
 622      EB914E71 
 622      DBD8B527 
 622      C6D7
 623 0e30 B0C7BB05 		.ascii	"\260\307\273\005\245\307\335\234C]\327\035J\344k\035"
 623      A5C7DD9C 
 623      435DD71D 
 623      4AE46B1D 
 624 0e40 83B10E35 		.ascii	"\203\261\0165q\037\355P\"_g\007/\216C)G\225e\357\334"
 624      711FED50 
 624      225F6707 
 624      2F8E4329 
 624      479565EF 
 625 0e55 D3817708 		.ascii	"\323\201w\010\226\032\317(5\224QF\240QF\242\011\246"
 625      961ACF28 
 625      35945146 
 625      A05146A2 
 625      09A6
 626 0e67 217D19E9 		.ascii	"!}\031\351t73$\037\353`\030\222\331\341\317l\206\240"
 626      74373324 
 626      1FEB6018 
 626      92D9E1CF 
ARM GAS  /tmp/ccwtmY2Z.s 			page 50


 626      6C86A0
 627 0e7a F52345D7 		.ascii	"\365#E\327\036\264\363\231\2166\214\235R\017G\314\306"
 627      1EB4F399 
 627      8E368C9D 
 627      520F47CC 
 627      C6
 628 0e8b 61ECD30E 		.ascii	"a\354\323\016\246\303X\274\303\021\347\260\310\334\230"
 628      A6C358BC 
 628      C311E7B0 
 628      C8DC98
 629 0e9a 61ECA593 		.ascii	"a\354\245\223\352ren\353\303\330\210\341\321\267\353"
 629      EA72656E 
 629      EBC3D888 
 629      E1D1B7EB 
 630 0eaa E7EBE3F1 		.ascii	"\347\353\343\361p\255s\217\213\363\210\307\234\306\254"
 630      70AD738F 
 630      8BF388C7 
 630      9CC6AC
 631 0eb9 E9A8CAE1 		.ascii	"\351\250\312\341\320K\315m7\227\262\335<\264\335|\326"
 631      D04BCD6D 
 631      3797B2DD 
 631      3CB4DD7C 
 631      D6
 632 0eca 522F7434 		.ascii	"R/t4X\312\254>\313\357\012\244\350\241\203\262#\333"
 632      58CAAC3E 
 632      CBEF0AA4 
 632      E8A183B2 
 632      23DB
 633 0edc B555E3B7 		.ascii	"\265U\343\267\315\017\340^\310\"\264TmG\207\226\302"
 633      CD0FE05E 
 633      C822B454 
 633      6D478796 
 633      C2
 634 0eed A7378395 		.ascii	"\2477\203\225\242\347\003\2512\267\365i\346\332I\345"
 634      A2E703A9 
 634      32B7F569 
 634      E6DA49E5 
 635 0efd 1DB6BCDD 		.ascii	"\035\266\274\3354\007\353\177\353\207R\367[\224\272"
 635      3407EB7F 
 635      EB8752F7 
 635      5B94BA
 636 0f0c 17A3BA97 		.ascii	"\027\243\272\227\260\352^hG\335f\247\023\314\353;E\255"
 636      B0EA5E68 
 636      47DD66A7 
 636      13CCEB3B 
 636      45AD
 637 0f1e 9CCEE0CA 		.ascii	"\234\316\340\312\351\013\\!\335@:\013\273\346\353\254"
 637      E90B5C21 
 637      DD403A0B 
 637      BBE6EBAC 
 638 0f2e 048B348D 		.ascii	"\004\2134\215\233>t\020\324en\346q\352lm\323\272E\373"
 638      9B3E7410 
 638      D4656EE6 
 638      71EA6C6D 
 638      D3BA45FB 
 639 0f42 EE5E5723 		.ascii	"\356^W#\215\030IN\260\341\242G6\023t\214\205\272\241"
 639      8D18494E 
ARM GAS  /tmp/ccwtmY2Z.s 			page 51


 639      B0E1A247 
 639      3613748C 
 639      85BAA1
 640 0f55 96689DBC 		.ascii	"\226h\235\274\263f\360\350\333\233\371Tu\031a\231\027"
 640      B366F0E8 
 640      DB9BF954 
 640      75196199 
 640      17
 641 0f66 462ED056 		.ascii	"F.\320V\253\331H\306\225F\343\037%\306_i\303\370R\364"
 641      ABD948C6 
 641      9546E31F 
 641      25C65F69 
 641      C3F852F4 
 642 0f7a F87789D2 		.ascii	"\370w\211\322\250\024\345k\356\331=\247\264\223\217"
 642      A814E56B 
 642      EED93DA7 
 642      B4938F
 643 0f89 4A5BF9D9 		.ascii	"J[\371\331\032\267\323\317\207\327\272\315?\037Vw\031"
 643      1AB7D3CF 
 643      87D7BACD 
 643      3F1F5677 
 643      19
 644 0f9a 60DD87EA 		.ascii	"`\335\207\352_y"
 644      5F79
 645 0fa0 D3B3D089 		.ascii	"\323\263\320\211\377\234\222\256\236v\376\316\210ev"
 645      FF9C92AE 
 645      9E76FECE 
 645      886576
 646 0faf EE94C14A 		.ascii	"\356\224\301Je\260\316RX\337;\306b\016\343F\317\211"
 646      65B0CE52 
 646      58DF3BC6 
 646      620EE346 
 646      CF89
 647 0fc1 0BD563B8 		.ascii	"\013\325c\270\322(\351n\312\204\035\324\322\002G\035"
 647      D228E96E 
 647      CA841DD4 
 647      D202471D 
 648 0fd1 DB6EFC17 		.ascii	"\333n\374\027\034\005\336u\343w\317\235\330Q\300>\320"
 648      1C05DE75 
 648      E377CF9D 
 648      D851C03E 
 648      D0
 649 0fe2 95D10BE4 		.ascii	"\225\321\013\344\217\2257#\320\370N\3065\221\313\260"
 649      8F953723 
 649      D0F84EC6 
 649      3591CBB0 
 650 0ff2 87E762F7 		.ascii	"\207\347b\367\360\\Iz\204\274\007u\226Y"
 650      F05C497A 
 650      84BC0775 
 650      9659
 651 1000 E0A67632 		.ascii	"\340\246v2\250\215\021\322Lm\364\321\337\032\322\261"
 651      A88D11D2 
 651      4C6DF4D1 
 651      DF1AD2B1 
 652 1010 0EF1CDE4 		.ascii	"\016\361\315\344\014\263j\210W\215\210f\206\210\263"
 652      0CB36A88 
 652      578D8866 
ARM GAS  /tmp/ccwtmY2Z.s 			page 52


 652      8688B3
 653 101f 12B84819 		.ascii	"\022\270H\031u\261c\254D\006\3532\205\265\3061V\007"
 653      75B163AC 
 653      4406EB32 
 653      85B5C631 
 653      5607
 654 1031 06EB2A85 		.ascii	"\006\353*\205\265\3151V\027\006\353:\205\365\201c,\266"
 654      B5CD3156 
 654      1706EB3A 
 654      85F58163 
 654      2CB6
 655 1043 13DCA0B0 		.ascii	"\023\334\240\260\232\034c\261\235\240vs\362\222'T\260"
 655      9A1C63B1 
 655      9DA07673 
 655      F2922754 
 655      B0
 656 1054 AF1D8331 		.ascii	"\257\035\2031\256\021\255\243\301\256:\006\353\301\200"
 656      AE11ADA3 
 656      C1AE3A06 
 656      EBC180
 657 1063 4DA2C146 		.ascii	"M\242\301F\335b\003,\316\306\302\024\032l\262c0\326"
 657      DD62032C 
 657      CEC6C214 
 657      1A6CB263 
 657      30D6
 658 1075 C7A6D160 		.ascii	"\307\246\321`s\035\203\261N6\235\006[\342\030\214\365"
 658      731D83B1 
 658      4E369D06 
 658      5BE2188C 
 658      F5
 659 1086 B29934D8 		.ascii	"\262\2314\330Z\307`\254\233-\245\301v8\006\273\233c"
 659      5AC760AC 
 659      9B2DA5C1 
 659      763806BB 
 659      9B63
 660 1098 FFD4497F 		.ascii	"\377\324I\177\025.2V\343D\277\036i\024\351;H\267#\335"
 660      152E3256 
 660      E344BF1E 
 660      6914E93B 
 660      48B723DD 
 661 10ac 897417D2 		.ascii	"\211t\027\322=H\367!=\200\364 \322\303H\217 =\206\364"
 661      3D48F721 
 661      3D80F420 
 661      D2C3488F 
 661      203D86F4 
 662 10c0 04D226A4 		.ascii	"\004\322&\244\237 \375\214]H\034\272\3058\326\312\223"
 662      9F20FD8C 
 662      5D481CBA 
 662      C538D6CA 
 662      93
 663 10d1 3025A33E 		.ascii	"0%\243>Ws\377_R~\254Ii\271\2428\245/wp\342\031\036\367"
 663      5773FF5F 
 663      527EAC49 
 663      69B9A238 
 663      A52F7770 
 664 10e9 ED91C82F 		.ascii	"\355\221\310/\305\303i\255\277\2423\333$\325\014\375"
 664      C5C369AD 
ARM GAS  /tmp/ccwtmY2Z.s 			page 53


 664      BFA233DB 
 664      24D50CFD 
 665 10f9 82F63EBE 		.ascii	"\202\366>\276\266\351\355\015WK\344\335\3263\270(^x"
 665      B6E9ED0D 
 665      574BE4DD 
 665      D633B828 
 665      5E78
 666 110b 6BEBBBAD 		.ascii	"k\353\273\255,\020\021\353+\343\302h\357\241\024\362"
 666      2C1011EB 
 666      2BE3C268 
 666      EFA114F2 
 667 111b AB2E5FB5 		.ascii	"\253._\265\2764\2324<\372\301\241I\372\001}\242\201"
 667      BE349A34 
 667      3CFAC1A1 
 667      49FA017D 
 667      A281
 668 112d E80FA001 		.ascii	"\350\017\240\001\201k\300\246|us\313\035x\234:x\010"
 668      816BC0A6 
 668      7C7573CB 
 668      1D789C3A 
 668      7808
 669 113f 9F6B4FE3 		.ascii	"\237kO\343\354\336\350\030,\225\001;L\203\255\265\003"
 669      ECDEE818 
 669      2C95013B 
 669      4C83ADB5 
 669      03
 670 1150 6635CF02 		.ascii	"f5\317\002\330\021\032l\243c0V\262c4\330\026;`V\303"
 670      D8111A6C 
 670      A3633056 
 670      B26334D8 
 670      163B6056 
 671 1165 33809DA0 		.ascii	"3\200\235\240\301v8\006\243%\253\216\236}|\311\023\352"
 671      C1763806 
 671      A325AB8E 
 671      9E7D7CC9 
 671      13EA
 672 1177 CF1F4D69 		.ascii	"\317\037Mi\247xG\274\017\255D\376%<c\333\312WSJ\321"
 672      A77847BC 
 672      0FAD44FE 
 672      253C63DB 
 672      CA57534A 
 673 118c 27D4A229 		.ascii	"'\324\242)X\251^\223<T\232\347\202\347\033\307+\363"
 673      58A95E93 
 673      3C549AE7 
 673      82E71BC7 
 673      2BF3
 674 119e 168B9539 		.ascii	"\026\213\2259\275c\246\347\002\305\3556*\216\021B\211"
 674      BD63A6E7 
 674      02C5ED36 
 674      2A8E1142 
 674      89
 675 11af 5A7D1609 		.ascii	"Z}\026\011V8G[a\277\035+\244Z\373\307\005\032\354C;"
 675      5638475B 
 675      61BF1D2B 
 675      A45AFBC7 
 675      051AEC43 
 676 11c4 605627E6 		.ascii	"`V'\346\001\354\"\015v\3021\030+\331e\032\354S;`Vg\357"
ARM GAS  /tmp/ccwtmY2Z.s 			page 54


 676      01EC220D 
 676      76C23118 
 676      2BD9651A 
 676      EC533B60 
 677 11db 01EC2A0D 		.ascii	"\001\354*\015v\3321\030+\331u\032\354\033;`V\207\251"
 677      76DA3118 
 677      2BD9751A 
 677      EC1B3B60 
 677      5687A9
 678 11ee 01EC060D 		.ascii	"\001\354\006\015v\3361\030%\331\244\352h\355\237jE\355"
 678      76DE3118 
 678      25D9A4EA 
 678      68ED9F6A 
 678      45ED
 679 1200 2194F8ED 		.ascii	"!\224\370\355\267n\315q{\262\243\005\223\215\034\023"
 679      B76ECD71 
 679      7BB2A305 
 679      938D1C13 
 680 1210 31CF26F2 		.ascii	"1\317&\362\023=N{D\235\307\274G\320\007\302\364\\\320"
 680      133D4E7B 
 680      449DC7BC 
 680      47D007C2 
 680      F45CD0
 681 1223 ECCBC666 		.ascii	"\354\313\306f3B(\321\236\026:\204)\246\356\010\352\360"
 681      334228D1 
 681      9E163A84 
 681      29A6EE08 
 681      EAF0
 682 1235 5BD4E175 		.ascii	"[\324\341u;:\264\372\321\002\000\233D\203I\2679\005"
 682      3B3AB4FA 
 682      D102009B 
 682      448349B7 
 682      3905
 683 1247 630D3259 		.ascii	"c\0152Y7H\252\301\036\354\306\245>B\031\354a\314&\362"
 683      3748AAC1 
 683      1EECC6A5 
 683      3E4219EC 
 683      61CC26F2 
 684 125b D31483E8 		.ascii	"\323\024\203\350\233\002\306[\201\033a\224\333t\233"
 684      9B02C65B 
 684      811B6194 
 684      DB749B
 685 126a D4EA0712 		.ascii	"\324\352\007\022@\360)\326\202\263\357i,\0057f\023\371"
 685      40F029D6 
 685      82B3EF69 
 685      2C053766 
 685      13F9
 686 127c 998E3D69 		.ascii	"\231\216=i\226\205'i'5\231\\\320\356\347\214\355f\245"
 686      96852769 
 686      2735995C 
 686      D0EEE78C 
 686      ED66A5
 687 128f 50A24F58 		.ascii	"P\242OX\264\033\2266\323\376D\214O$\205g~[`\225\026"
 687      B41B9636 
 687      D3FE448C 
 687      4F248567 
 687      7E5B6095 
ARM GAS  /tmp/ccwtmY2Z.s 			page 55


 688 12a4 D687BE3D 		.ascii	"\326\207\276=\375\010\325\267\247\330q\2451\274\211"
 688      FD08D5B7 
 688      A7D871A5 
 688      31BC89
 689 12b3 68667FF4 		.ascii	"hf\177\364\252L\344\277\306\305\3727\270LmFz\036\351"
 689      AA4CE4BF 
 689      C6C5FA37 
 689      B84C6D46 
 689      7A1EE9
 690 12c6 77482F21 		.ascii	"wH/!\275\202\364\032\322j\017\241\303\221\216D:\032"
 690      BD82F41A 
 690      D26A0FA1 
 690      C3918E44 
 690      3A1A
 691 12d8 E97348C7 		.ascii	"\351sH\307\"\035\207t\002\322IH'#\235\202t:\3229H\347"
 691      221D8774 
 691      02D24948 
 691      27239D82 
 691      743AD239 
 692 12ee 7AA885B1 		.ascii	"z\250\205\261\341\335\323\031\213\366\222\026\314\363"
 692      E1DDD319 
 692      8BF69216 
 692      CCF3
 693 12fc 6873A4DD 		.ascii	"hs\244\335\017t\256-\276\203\254<\347{\310jv\346m\016"
 693      0F74AE2D 
 693      BE83AC3C 
 693      E77BC86A 
 693      76E66D0E 
 694 1310 5F8E924A 		.ascii	"_\216\222J_\363\030\026\263\037-\336&\377(\025Ii}\033"
 694      5FF31816 
 694      B31F2DDE 
 694      26FF2815 
 694      49697D1B 
 695 1324 FEFCE26D 		.ascii	"\376\374\342m\002\371\314\300\245\332\365M\224\202\024"
 695      02F9CCC0 
 695      A5DAF54D 
 695      948214
 696 1333 BEB985E8 		.ascii	"\276\271\205\350\205\305\312\276\261\014\267\3141\034"
 696      85C5CABE 
 696      B10CB7CC 
 696      311C
 697 1341 EB731759 		.ascii	"\353s\027Y\270Uv\340\342,F/\263p\033\034\303\245\306"
 697      B85576E0 
 697      E22C462F 
 697      B3701B1C 
 697      C3A5C6
 698 1354 F361DD18 		.ascii	"\363a\335\030\"\377\272\207\370\360\"\364\2507\221."
 698      22FFBA87 
 698      F8F022F4 
 698      A837912E 
 699 1364 46DA10C7 		.ascii	"F\332\020\307\273\346[\010\202{\315q\275\253\311\243"
 699      BBE65B08 
 699      827BCD71 
 699      BDABC9A3 
 700 1374 E6FF0FDD 		.ascii	"\346\377\017\335\273Z\316u!\336\265\034\275kS\353\336"
 700      BB5ACE75 
 700      21DEB51C 
ARM GAS  /tmp/ccwtmY2Z.s 			page 56


 700      BD6B53EB 
 700      DE
 701 1385 C582E07B 		.ascii	"\305\202\340{Q\243w\3158\267U\366\256F[\336\325pn+\353"
 701      51A377CD 
 701      38B755F6 
 701      AE465BDE 
 701      D5706E2B 
 702 139a 5DBB508A 		.ascii	"]\273P\212\306\233\366\256\245\244~\335~\373\035\303"
 702      C69BF6AE 
 702      A5A47EDD 
 702      7EFB1DC3 
 703 13aa B1DEB59C 		.ascii	"\261\336\265\234\205;b\007.\216w\255`\341>v\014\307"
 703      853B6207 
 703      2E8E77AD 
 703      60E13E76 
 703      0CC7
 704 13bc 4AB79285 		.ascii	"J\267\222\205;m\007.\316\343\316j\026\256\3311\034+"
 704      3B6D072E 
 704      CEE3CE6A 
 704      16AED931 
 704      1C2B
 705 13ce DD5A16EE 		.ascii	"\335Z\026\356\262\0358\253\307\000X\247\254W\341\224"
 705      B21D38AB 
 705      C70058A7 
 705      AC57E194 
 706 13de 954A67A7 		.ascii	"\225Jg\247p\254t{X\351F\332\201K\265\326\335>\026n\254"
 706      70AC747B 
 706      58E946DA 
 706      814BB5D6 
 706      DD3E166E 
 707 13f3 633856BA 		.ascii	"c8V\272\003,\334D;pq>\355=(\303\251k\340\004\303\322"
 707      032CDC44 
 707      3B70713E 
 707      ED3D28C3 
 707      A96BE004 
 708 1409 25662CD9 		.ascii	"%f,\331\343x\345\262\327b\345\242\376\211\374+\036\301"
 708      E378E5B2 
 708      D762E5A2 
 708      FE89FC2B 
 708      1EC1
 709 141b 611B5895 		.ascii	"a\033X\225\034fU\362\262\035\225\304yB:\302\302\315"
 709      1C6655F2 
 709      B21D95C4 
 709      79423AC2 
 709      C2CD
 710 142d 710CC74A 		.ascii	"q\014\307Jw\214\205[`\007\316\362\223S)zB\205\333\203"
 710      778C855B 
 710      6007CEF2 
 710      9353297A 
 710      4285DB83 
 711 1441 2BB306C7 		.ascii	"+\263\006\307p\254tgY\351\326\330\201\353i\255\273s"
 711      70AC7467 
 711      59E9D6D8 
 711      81EB69AD 
 711      BB73
 712 1453 2CDC46C7 		.ascii	",\334F\307p\254t\027X\270-v\340,\177\205M\212^du\267"
 712      70AC7417 
ARM GAS  /tmp/ccwtmY2Z.s 			page 57


 712      58B82D76 
 712      E02C7F85 
 712      4D8A5E64 
 713 1469 D7311C2B 		.ascii	"\3271\034+\335eV\272\243v\340\254\0364\310\223\271a"
 713      DD6556BA 
 713      A376E0AC 
 713      1E34C893 
 713      B961
 714 147b 0A700CC7 		.ascii	"\012p\014\307Jw\235\205;e\007\316\354\327\330\314\376"
 714      4A779D85 
 714      3B6507CE 
 714      ECD7D8CC 
 714      FE
 715 148c E8E95DE4 		.ascii	"\350\351]\344W\342ze\025\256Q\326 ]\207t\003\322\215"
 715      57E27A65 
 715      15AE51D6 
 715      205D8774 
 715      03D28D
 716 149f 48DF45BA 		.ascii	"H\337E\272\011\351\026\244\333\220\356@\372>\322\335"
 716      09E916A4 
 716      DB90EE40 
 716      FA3ED2DD 
 717 14af 48F7213D 		.ascii	"H\367!=\200\364 \322\303H\217 =\206\364\004\322&\244"
 717      80F420D2 
 717      C3488F20 
 717      3D86F404 
 717      D226A4
 718 14c2 9F20FD0C 		.ascii	"\237 \375\014\351\347qVH\313\343\254\220N\353+$\371"
 718      E9E77156 
 718      48CBE3AC 
 718      904EEB2B 
 718      24F9
 719 14d4 1BDAE8A5 		.ascii	"\033\332\350\245\325\315\202\372\015\355]\366\277_\371"
 719      D5CD82FA 
 719      0DED5DF6 
 719      BF5FF9
 720 14e3 C2633812 		.ascii	"\302c8\022\337\300\307|\240\323\334\231]N)\037\3504"
 720      DFC0C77C 
 720      A0D3DC99 
 720      5D4E291F 
 720      E834
 721 14f5 930F74E4 		.ascii	"\223\017t\344\037\226~\376v\222\343\214\307\352\003"
 721      1F967EFE 
 721      7692E38C 
 721      C7EA03
 722 1504 1DE55B16 		.ascii	"\035\345[\026\345\003\235\343\364\327\313\244\020c\250"
 722      E5039DE3 
 722      F4D7CBA4 
 722      1063A8
 723 1513 AF3C269F 		.ascii	"\257<&\237\010G\327~\262M\375~o\214\340\340\003\276"
 723      0847D77E 
 723      B24DFD7E 
 723      6F8CE0E0 
 723      03BE
 724 1525 66B67D5E 		.ascii	"f\266}^n\024)\3304\262\246\265\037\205j\276\272\375"
 724      6E1429D8 
 724      34B2A6B5 
ARM GAS  /tmp/ccwtmY2Z.s 			page 58


 724      1F856ABE 
 724      BAFD
 725 1537 57F2FEFB 		.ascii	"W\362\376\373y\217\027\012\037\270\235U\202\015$R\377"
 725      798F170A 
 725      1FB89D55 
 725      820D2452 
 725      FF
 726 1548 4528CCAC 		.ascii	"E(\314\254*\217\367I\225\271qV\224(\254\300\235\270"
 726      2A8FF749 
 726      95B97156 
 726      9428ACC0 
 726      9DB8
 727 155a 5D7E0482 		.ascii	"]~\004\202\356pN\373i\363g\225\304sz\342\005=Q/<\246"
 727      EE704EFB 
 727      69F36795 
 727      C4737AE2 
 727      053D512F 
 728 1570 8B96FE9D 		.ascii	"\213\226\376\235Y\372d=\375\242Y\372|=\375\232Y\372"
 728      59FA643D 
 728      FDA259FA 
 728      7C3DFD9A 
 728      59FA
 729 1582 523DFDBA 		.ascii	"R=\375\272Y\372{z\372\015\263\364=zz\213Y\372q=\235"
 729      59FA7B7A 
 729      FA0DB3F4 
 729      3D7A7A8B 
 729      59FA713D 
 730 1597 D6C9299D 		.ascii	"\326\311)\235\315S\354\263:[\240\330\322\035\032\333"
 730      CD53ECB3 
 730      3A5BA0D8 
 730      D21D1ADB 
 731 15a7 45B1C7EB 		.ascii	"E\261\307\353l7\305\236\252\263=\024\373\025\235\235"
 731      6C37C59E 
 731      AAB33D14 
 731      FB159D9D 
 732 15b7 40B1DFD4 		.ascii	"@\261\337\324\331^\212\275Rg'R\354wuv\022\305\336\245"
 732      D95E8ABD 
 732      52672752 
 732      EC777576 
 732      12C5DEA5 
 733 15cb B3DB50EC 		.ascii	"\263\333P\354\017uv2\305\376Rg\247P\354\357uv[\212="
 733      0F757632 
 733      C5FE5267 
 733      A750ECEF 
 733      75765B8A 
 734 15e0 E1471ABB 		.ascii	"\341G\032\273\035\305\236\243\263\333S\354e:\273\003"
 734      1DC59EA3 
 734      B3DB53EC 
 734      653ABB03 
 735 15f0 C5DEA4B3 		.ascii	"\305\336\244\263;R\354C:\273\023\305n\322\331\267S\354"
 735      3B52EC43 
 735      3ABB13C5 
 735      6ED2D9B7 
 735      53EC
 736 1602 AF757617 		.ascii	"\257uv\027\332:wj\354;(v\275\316\376\021\305^\244\263"
 736      DA3A776A 
 736      EC3B2876 
ARM GAS  /tmp/ccwtmY2Z.s 			page 59


 736      BDCEFE11 
 736      C55EA4B3 
 737 1616 EFA4F5AD 		.ascii	"\357\244\365\255\263\273R\354wt\366\217)\366N\235\375"
 737      B3BB52EC 
 737      7774F68F 
 737      29F64E9D 
 737      FD
 738 1627 138A7D50 		.ascii	"\023\212}Pgw\243\330\237\352\354T\332\331t\366]\264"
 738      6777A3D8 
 738      9FEAEC54 
 738      DAD974F6 
 738      5DB4
 739 1639 1974F64F 		.ascii	"\031t\366O)\366\363]5\366\317(\366$\235\375s\212=Sg"
 739      29F6F35D 
 739      35F6CF28 
 739      F6249DFD 
 739      738A3D53 
 740 164e FF8262BF 		.ascii	"\377\202b\277\256\263\177I\261W\350\354\273i\243\351"
 740      AEB37F49 
 740      B157E8EC 
 740      BB69A3E9 
 741 165e EC7FA6D8 		.ascii	"\354\177\246\330\007t\366=\024\373\244\316N\243\330"
 741      0774F63D 
 741      14FBA4CE 
 741      4EA3D8
 742 166d 97747606 		.ascii	"\227tv\006\305\256\376\261\306\316\244\330cuv\026\305"
 742      C5AEFEB1 
 742      C6CEA4D8 
 742      63757616 
 742      C5
 743 167e 7E5167F7 		.ascii	"~Qg\367\240\330\013t\366\203\024{\225\316\376\015\305"
 743      A0D80B74 
 743      F683147B 
 743      95CEFE0D 
 743      C5
 744 168f DEA1B37F 		.ascii	"\336\241\263\177K\261\217\353\354\337Q\354ou\266\217"
 744      4BB18FEB 
 744      ECDF51EC 
 744      6F75B68F 
 745 169f 625FD3D9 		.ascii	"b_\323\331\331\024{\334O4vo\212=Kg\367\241\330\015:"
 745      D9147BDC 
 745      4F34766F 
 745      8A3D4B67 
 745      F7A1D80D 
 746 16b4 BB2FC55E 		.ascii	"\273/\305^\247\263\373Q\354\355:;\207\356;:\373\217"
 746      A7B3FB51 
 746      ECED3A3B 
 746      87EE3B3A 
 746      FB8F
 747 16c6 74DFD1D9 		.ascii	"t\337\321\331\205\312<@na\270\220\364\361Q\341<\313"
 747      85CA3C40 
 747      6E61B890 
 747      F4F151E1 
 747      3CCB
 748 16d8 D17FF42C 		.ascii	"\321\177\364,#\362\227pqs\331\343\212[\234\231\357\271"
 748      23F29770 
 748      7173D9E3 
ARM GAS  /tmp/ccwtmY2Z.s 			page 60


 748      8A5B9C99 
 748      EFB9
 749 16ea 98AFDEBE 		.ascii	"\230\257\336\276\370\211\311\224O^J\237{\216\257\377"
 749      F889C994 
 749      4F5E4A9F 
 749      7B8EAFFF 
 750 16fa 7AA494AE 		.ascii	"z\244\224\256N\213\3270\343Y\217\371\347\304r.\303\347"
 750      4E8BD730 
 750      E3598FF9 
 750      E7C4722E 
 750      C3E7
 751 170c CBF29241 		.ascii	"\313\362\222A\352f(h\177\311p\326\270d\270\222\300,"
 751      EA662868 
 751      7FC970D6 
 751      B864B892 
 751      C02C
 752 171e 190CEBA8 		.ascii	"\031\014\353\250\317,\016V\342\273\275\204d\323R\364"
 752      CF2C0E56 
 752      E2BBBD84 
 752      64D352F4 
 753 172e 3B47EA34 		.ascii	";G\3524\340\335jy\217R\276\332\253n\350k;\331VUI\336"
 753      E0DD6A79 
 753      8F52BEDA 
 753      AB6EE86B 
 753      3BD95655 
 754 1744 B85BA6DA 		.ascii	"\270[\246\332\217\375?\301ik\220eW\217V\310k\220\032"
 754      8FFD3FC1 
 754      696B9065 
 754      578F56C8 
 754      6B901A
 755 1757 2F7EABD6 		.ascii	"/~\253\326\255\365]S\006\207\324;\322k\330\327\372\376"
 755      ADF55D53 
 755      0687D43B 
 755      D26BD8D7 
 755      FAFE
 756 1769 081E0120 		.ascii	"\010\036\001 \374\326w\265Z\216\250g\322\345U\3711\024"
 756      FCD677B5 
 756      5A8EA867 
 756      D2E555F9 
 756      3114
 757 177b 81948DB3 		.ascii	"\201\224\215\263*g\024\301\342\325\036\245\366\325\233"
 757      2A6714C1 
 757      E2D51EA5 
 757      F6D59B
 758 178a 1C83A532 		.ascii	"\034\203\2452`u4\330gv\300\342lhM\242\301\3168\006c"
 758      607534D8 
 758      6776C0E2 
 758      6C684DA2 
 758      C1CE3806 
 759 179f 259B4C83 		.ascii	"%\233L\203}c\007,\316f\326\024\032\254\3311\030+\331"
 759      7D63072C 
 759      CE66D614 
 759      1AACD931 
 759      182BD9
 760 17b2 341AEC3B 		.ascii	"4\032\354;;`q\336gO\247\301\2569\006c%\233I\203U\247"
 760      3B6071DE 
 760      674FA7C1 
ARM GAS  /tmp/ccwtmY2Z.s 			page 61


 760      AE390663 
 760      259B4983 
 761 17c8 DA004BB5 		.ascii	"\332\000K\265\226l\011\015"
 761      966C090D 
 762 17d0 36CA3118 		.ascii	"6\3121\030+\331R\032\354y;`q\336\264/\247\301\306;\006"
 762      2BD9521A 
 762      EC793B60 
 762      71DEB42F 
 762      A7C1C63B 
 763 17e5 63255B41 		.ascii	"c%[A\203\325\331\001\263\334G\252\216\256\3743\373\342"
 763      83D5D901 
 763      B3DC47AA 
 763      8EAEFC33 
 763      FBE2
 764 17f7 F0B4F51B 		.ascii	"\360\264\365\033O\323W\231\"\177\025\277X\241$0}w\031"
 764      4FD35799 
 764      227F15BF 
 764      58A12430 
 764      7D7719
 765 180a 67EF6935 		.ascii	"g\357i5\335\236\311v\332\323\323\032l-\015\366\262\035"
 765      DD9EC976 
 765      DAD3D31A 
 765      6C2D0DF6 
 765      B21D
 766 181c 30ABAD18 		.ascii	"0\253\255\030\000[O\203\315r\014\306J\266\207\006{\325"
 766      005B4F83 
 766      CD720CC6 
 766      4AB68706 
 766      7BD5
 767 182e 0E589C6D 		.ascii	"\016X\234m\230}4\330\002\307`\264d\325\321\003\1776"
 767      987D34D8 
 767      02C760B4 
 767      64D5D103 
 767      7F36
 768 1840 1C43A09C 		.ascii	"\034C\240\234\240';\360\351\347\013\230\023\001o\032"
 768      A0273BF0 
 768      E9E70B98 
 768      13016F1A 
 769 1850 25608A29 		.ascii	"%`\212)Q\373\3736\372\364%\362\243\274di3\332\213\357"
 769      51FBFB36 
 769      FAF425F2 
 769      A3BC6469 
 769      33DA8BEF 
 770 1864 3B918E45 		.ascii	";\221\216E:\016\351\004\244\023\221\326#}\021\351KH"
 770      3A0EE904 
 770      A41391D6 
 770      237D11E9 
 770      4B48
 771 1876 A7227D19 		.ascii	"\247\"}\031\351\014\244\263\220\316A:\027\351<\244\013"
 771      E90CA4B3 
 771      90CE413A 
 771      17E93CA4 
 771      0B
 772 1887 90BE8674 		.ascii	"\220\276\206t\021\3227\275\326\27345\026\252&\262/\361"
 772      11D237BD 
 772      D6BB3435 
 772      16AA26B2 
ARM GAS  /tmp/ccwtmY2Z.s 			page 62


 772      2FF1
 773 1899 9AAF2EE4 		.ascii	"\232\257.\344OD\255J5\350\245\254\276J`\016\224\343"
 773      4F44AD4A 
 773      35E8A5AC 
 773      BE4A600E 
 773      94E3
 774 18ab E13B6F8C 		.ascii	"\341;o\214%,\2260=\324\242^\245\3002\257\323\015\362"
 774      252C9630 
 774      3DD4A25E 
 774      A5C032AF 
 774      D30DF2
 775 18be E55EF30D 		.ascii	"\345^\363\015\362\004\363\266\222\357\376\255\240\336"
 775      F204F3B6 
 775      92EFFEAD 
 775      A0DE
 776 18cc B6D4D0F2 		.ascii	"\266\324\320\3628?<\261\302k\330\375j:0\367\205\033"
 776      383F3CB1 
 776      C26BD8FD 
 776      6A3A30F7 
 776      851B
 777 18de FC44F5C7 		.ascii	"\374D\365\307\355f\033\177\334\216|\002g\005\266\322"
 777      ED661B7F 
 777      DC8E7C02 
 777      6705B6D2 
 778 18ee 1BFB4B54 		.ascii	"\033\373KT\027S\331\205\226\341\227\250V\270\344_\242"
 778      1753D985 
 778      96E197A8 
 778      56B8E45F 
 778      A2
 779 18ff 6AF4C6FD 		.ascii	"j\364\306\375%\252U^\263\037\273[\366\372\013\257\363"
 779      25AA555E 
 779      B31FBB5B 
 779      F6FA0BAF 
 779      F3
 780 1910 1BE78D92 		.ascii	"\033\347\215\222\310o\351<;+\332A\375e\204mw\231V*\261"
 780      C86FE93C 
 780      3B2BDA41 
 780      FD65846D 
 780      7799562A 
 781 1925 3FCCB5C6 		.ascii	"?\314\265\306kX\374\2565\253%z}\263\362{P\004\237\350"
 781      6B58FCAE 
 781      35AB257A 
 781      7DB3F27B 
 781      50049FE8 
 782 1939 52E03E32 		.ascii	"R\340>2\340+\253\362Cd\033O\376F\360\002\346Xo\321*"
 782      E02BABF2 
 782      43641B4F 
 782      FE46F002 
 782      E6586FD1 
 783 194e B5DDAA58 		.ascii	"\265\335\252X\037\322k\362\365F\2616\260bYxc\027\265"
 783      1FD26BF2 
 783      F546B136 
 783      B0625978 
 783      6317B5
 784 1961 029752EC 		.ascii	"\002\227R\354]\307\336\370\236\2057\252\325\033\374"
 784      5DC7DEF8 
 784      9E8537AA 
ARM GAS  /tmp/ccwtmY2Z.s 			page 63


 784      D51BFC
 785 1970 6A4F1CBF 		.ascii	"jO\034\277\332d\351\215o\3079\013\261\331\262\324\206"
 785      DA64E98D 
 785      6FC7390B 
 785      B1D9B2D4 
 785      86
 786 1981 38756DB1 		.ascii	"8um\261,u)N\177\331jY\352F\234R\333b\372K\343\314\223"
 786      2C75294E 
 786      7FD96A59 
 786      EA469C52 
 786      DB62FA4B 
 787 1998 5D16AB3F 		.ascii	"]\026\253?RY=\302\370;;\263\342\364\227\035&\375\345"
 787      52593DC2 
 787      F83B3BB3 
 787      E2F4971D 
 787      26FDE5
 788 19ab 8AB9EBAA 		.ascii	"\212\271\353\252\375e\226\322_\266\307\357/;Y\227\341"
 788      FD6596D2 
 788      5FB6C7EF 
 788      2F3B5997 
 788      E1
 789 19bc 1E4C2B09 		.ascii	"\036L+\011\226\007\322\212\202\305\303\322\212\003C"
 789      9607D28A 
 789      82C5C3D2 
 789      8A0343
 790 19cb D38A4A4A 		.ascii	"\323\212JJ\007\225\006\303i\221PU\305Si\020\011E\322"
 790      079506C3 
 790      69915055 
 790      C5536910 
 790      0945D2
 791 19de 2A83A148 		.ascii	"*\203\241H8\255W~\256/\367\031\310P\024\014\005\356"
 791      38AD577E 
 791      AE2FF719 
 791      C850140C 
 791      05EE
 792 19f0 2DE1DA84 		.ascii	"-\341\332\204#O\211e\245C*\374\221\204\276\217\366O"
 792      234F8965 
 792      A5432AFC 
 792      9184BE8F 
 792      F64F
 793 1a02 F5713F4F 		.ascii	"\365q?O\253\012\207\322\304P\371\257+\202\025\201_\007"
 793      AB0A87D2 
 793      C450F9AF 
 793      2B821581 
 793      5F07
 794 1a14 C441A569 		.ascii	"\304A\245i\245\025EeU\305\201\264p\244\270\264\"\002"
 794      A5154565 
 794      55C581B4 
 794      70A4B8B4 
 794      2202
 795 1a26 C512ABE0 		.ascii	"\305\022\253\340z\177w\177\244{\234\334\345\"\310Q\021"
 795      7A7F777F 
 795      A47B9CDC 
 795      E522C851 
 795      11
 796 1a37 48F31707 		.ascii	"H\363\027\007\006\213Ue\021\177dXe L*\365\373\325\362"
 796      068B5565 
ARM GAS  /tmp/ccwtmY2Z.s 			page 64


 796      117F6458 
 796      65204C2A 
 796      F5FBD5F2 
 797 1a4b FD1C4B1E 		.ascii	"\375\034K\036,\257,-\013\204\302i}}>\310\256bz#\225"
 797      2CAF2C2D 
 797      0B84C269 
 797      7D7D3EC8 
 797      AE627A23 
 798 1a60 A1D2A03F 		.ascii	"\241\322\240?\202\222ee\372#J%$\332\303F%\252\320E%"
 798      82926565 
 798      FA234A25 
 798      24DAC346 
 798      25AAD045 
 799 1a75 E1616115 		.ascii	"\341aa\02541R\022\012\210\305\376HRQ\211_\216ww\206"
 799      34315212 
 799      0A88C5FE 
 799      48525189 
 799      5F8E7777 
 800 1a8a 5554520C 		.ascii	"UTR\0148\011\225\376\212\3003\021\270T\206\002C\361"
 800      380995FE 
 800      8AC03311 
 800      B8548602 
 800      43F1
 801 1a9c 521AF416 		.ascii	"R\032\364\026\005+\"\300M&\355\363\203\250E\221g\376"
 801      052B22C0 
 801      4D26EDF3 
 801      83A84591 
 801      67FE
 802 1aae F5E60CE9 		.ascii	"\365\346\014\351\037\372@9\0217\024\030\002\246\360"
 802      1FFA4039 
 802      11371418 
 802      02A6F0
 803 1abd 475CE18C 		.ascii	"G\\\341\214\373!<\000\241\007\204\007]\341\314t\010"
 803      FB213C00 
 803      A1078407 
 803      5DE1CC74 
 803      08
 804 1ace 19103221 		.ascii	"\031\0202!dA\350\016\341>\010\220/\023\362eB\276L\310"
 804      6441E80E 
 804      E13E0890 
 804      2F13F265 
 804      42BE4CC8 
 805 1ae2 9705F9B2 		.ascii	"\227\005\371\2622\204Pw!t\237\020\272_\010= \204z\010"
 805      32845077 
 805      21749F10 
 805      BA5F083D 
 805      20847A08 
 806 1af6 A1075DA1 		.ascii	"\241\007]\241\214t\010\031BY\010.Y\236J?H\353%\315z"
 806      8C740819 
 806      4259082E 
 806      599E4A3F 
 806      48EB25CD 
 807 1b0b 3A10826B 		.ascii	":\020\202k\260\2548\020r\027\225\210!\322V\261<\220"
 807      B0AC3810 
 807      72179588 
 807      21D256B1 
 807      3C90
ARM GAS  /tmp/ccwtmY2Z.s 			page 65


 808 1b1d 180947C4 		.ascii	"\030\011G\304H\300\037\361\022+\364\000\025\312\366"
 808      48C01FF1 
 808      122BF400 
 808      15CAF6
 809 1b2c 801864C7 		.ascii	"\200\030d\3074o\244<X\034\300\373\301e\342\220\2607"
 809      346FA43C 
 809      581CC0FB 
 809      C165E290 
 809      B037
 810 1b3e 120A0C0E 		.ascii	"\022\012\014\016\373\211\232H\304S\036\036\002\211\212"
 810      FB899A48 
 810      C4531E1E 
 810      02898A
 811 1b4d 0DA1B812 		.ascii	"\015\241\270\022K\010\025\017\203\244\304\3003\245\021"
 811      4B08150F 
 811      83A4C4C0 
 811      33A511
 812 1b5c 505420E1 		.ascii	"PT \341\351Hp\320\223\225\311\201\241\201\212H\271\030"
 812      E94870D0 
 812      9395C981 
 812      A1818A48 
 812      B918
 813 1b6e 7E0AB204 		.ascii	"~\012\262\004\236&\021W\245\277\252\235l\266\260\277"
 813      9E261157 
 813      A5BFAA9D 
 813      6CB6B0BF 
 814 1b7e AC340C1E 		.ascii	"\2544\014\036\330^3\244\314I\252\364?-\226FJ+\206\264"
 814      D85E33A4 
 814      CC49AAF4 
 814      3F2D9646 
 814      4A2B86B4 
 815 1b92 57D97FA9 		.ascii	"W\331\177\251\012T\201T\035\250\234\310jS\351\207j1"
 815      0A548154 
 815      1DA89CC8 
 815      6A53E987 
 815      6A31
 816 1ba4 EAC12830 		.ascii	"\352\301(0\002\225\201\012\350\022C<\345U`\312,G\276"
 816      0295810A 
 816      E812433C 
 816      E55560CA 
 816      2C47BE
 817 1bb7 511E7986 		.ascii	"Q\036y\206\370m\271\214\016\327\340\323\025\240KD\202"
 817      F86DB98C 
 817      0ED7E0D3 
 817      15A04B44 
 817      82
 818 1bc8 2694A3CB 		.ascii	"&\224\243\313\200|\220\217H\332\206hE,C\317\001fe0X"
 818      807C908F 
 818      48DA8668 
 818      452C43CF 
 818      01666530 
 819 1bdd 9666A3BE 		.ascii	"\226f\243\276p\250H\366\351{\213\270\024\177iqY@i\025"
 819      70A848F6 
 819      E97B8BB8 
 819      147F6971 
 819      59406915 
 820 1bf1 5F99A438 		.ascii	"_\231\2448^i$\323\221\340C\311\010\220\\T2\2400;XXZ"
ARM GAS  /tmp/ccwtmY2Z.s 			page 66


 820      5E6924D3 
 820      91E043C9 
 820      08905C54 
 820      32A0303B 
 821 1c08 F4544E22 		.ascii	"\364TN\"\300\207#`\271\037\027\225\024\014\013\367\015"
 821      C0872360 
 821      B91F1795 
 821      140C0BF7 
 821      0D
 822 1c19 440AC0BE 		.ascii	"D\012\300\276U\341^\025\305\217\004\213\236\032xo\245"
 822      55E15E15 
 822      C58F048B 
 822      9E1A786F 
 822      A5
 823 1c2a 188ADC9B 		.ascii	"\030\212\334\233\376#L\315\017\204#\340\262r\016%)#"
 823      FE234CCD 
 823      0F8423E0 
 823      B2720E25 
 823      2923
 824 1c3c 09937240 		.ascii	"\011\223r@\0249\326O,\003;\007\304p\260\242\0232\012"
 824      1439D64F 
 824      2C033B07 
 824      C470B0A2 
 824      13320A
 825 1c4f 4BCB03A1 		.ascii	"K\313\003\241~b\005\310\037\312\351l^\315-&\370.\220"
 825      7E6205C8 
 825      1FCAE96C 
 825      5ECD2D26 
 825      F82E90
 826 1c62 CBE37F18 		.ascii	"\313\343\177\030\224\345\015E\212*\300\003n\223\253"
 826      94E50D45 
 826      8A2AC003 
 826      6E93AB
 827 1c71 0AFB8255 		.ascii	"\012\373\202U\320\375B\217\227F`\220\032\350\2024\017"
 827      D0FD428F 
 827      97466090 
 827      1AE88234 
 827      0F
 828 1c82 786528E2 		.ascii	"xe(\342\002\213v\304<y\301\262\262@qv\240L\03460\241"
 828      028B76C4 
 828      3C79C1B2 
 828      B2407176 
 828      A04C1C36 
 829 1c98 68585159 		.ascii	"hXQY \234\321\232\242J\3042j\264\004=%\221\341\004\204"
 829      209CD19A 
 829      A24AC432 
 829      6AB4043D 
 829      2591E104 
 830 1cad 8701291C 		.ascii	"\207\001)\034)\010Dz\225A\017M\206h$X\211q\360\263\202"
 830      2908447A 
 830      95410F4D 
 830      86682458 
 830      8971F0B3 
 831 1cc2 A21290BA 		.ascii	"\242\022\220\272\250$P\\U\026(x\300\2211\024\027\205"
 831      A824505C 
 831      55162878 
 831      C0913114 
ARM GAS  /tmp/ccwtmY2Z.s 			page 67


 831      1785
 832 1cd4 9A327128 		.ascii	"\2322q(.+\035\2246\244\250\3100$w\277\267\307\275\335"
 832      2E2B1D94 
 832      36A4A8C8 
 832      302477BF 
 832      B7C7BDDD 
 833 1ce8 E9611C86 		.ascii	"\351a\034\206d2.\205K\377J:`dpUE\221?\002\315.,)\366"
 833      64322E85 
 833      4BFF4A3A 
 833      60647055 
 833      45913F02 
 834 1d01 016004F5 		.ascii	"\001`\004\365WZ\224\2428\013z\211\263\241\257$ V\342"
 834      575A94A2 
 834      380B7A89 
 834      B3A1AF24 
 834      2056E2
 835 1d14 584F2258 		.ascii	"XO\"X\336Y\303\312\003\345\352\034\345\3071\316\271"
 835      DE59C3CA 
 835      03E5EA1C 
 835      E5C731CE 
 835      B9
 836 1d25 A3467050 		.ascii	"\243FpP\364G\312\261l\242\177\250\354\355\355\375\252"
 836      F447CAB1 
 836      6CA27FA8 
 836      ECEDEDFD 
 836      AA
 837 1d36 AE43CA3D 		.ascii	"\256C\312=\325-`8hS.\302P\203w\355\365\350\275\367g"
 837      D52D6038 
 837      68532EC2 
 837      508377ED 
 837      F5E8BDF7 
 838 1d4b 65A683D7 		.ascii	"e\246\203\327\373\211A\003\345\362\234 \307SH\3720e"
 838      FB894103 
 838      E5F29C20 
 838      C75348FA 
 838      3065
 839 1d5d 84690B6C 		.ascii	"\204i\013l\375\336\033\222\273wB\010\307|O\010\307\315"
 839      FDDE1B92 
 839      BB774208 
 839      C77C4F08 
 839      C7CD
 840 1d6f 90326E86 		.ascii	"\2202n\206\344q3\011\270U\241\020\014_\236\020)t\333"
 840      E4713309 
 840      B855A110 
 840      0C5F9E10 
 840      2974DB
 841 1d82 D0D250A4 		.ascii	"\320\322P\244J,\363\023\307\011\251C\027x\275\337$\241"
 841      4A2CF313 
 841      C709A943 
 841      1778BDDF 
 841      24A1
 842 1d94 3DC393C7 		.ascii	"=\303\223\307-\206\345\205f\223\241\204\\\311\364\223"
 842      2D86E585 
 842      6693A184 
 842      5CC9F493 
 843 1da4 08D7E240 		.ascii	"\010\327\342@YD\204\210lw\222Bb\011$\207\030J\206K\231"
 843      59448488 
ARM GAS  /tmp/ccwtmY2Z.s 			page 68


 843      6C779242 
 843      62092487 
 843      184A864B 
 844 1db9 188E90D2 		.ascii	"\030\216\220\322\300\"\225\264S\032]\034\030T5D\036"
 844      C02295B4 
 844      531A5D1C 
 844      18543544 
 844      1E
 845 1dca 45694E52 		.ascii	"EiNR\245XQZD\306DW\361\240!\035@\341E\260\250\030\024"
 845      A558515A 
 845      44C64457 
 845      F1A0211D 
 845      40E145B0 
 846 1de1 02170A92 		.ascii	"\002\027\012\222\225Ep\360\340p \"D\312\205\242\022"
 846      954570F0 
 846      E0702022 
 846      44CA85A2 
 846      12
 847 1df2 679331CC 		.ascii	"g\2231\314hP}h\030\030\222(\266\264\030\224T:\270\024"
 847      68507D68 
 847      18189228 
 847      B6B41894 
 847      543AB814 
 848 1e06 5A05777F 		.ascii	"Z\005w\177\015\204\202\344J\274\030\347\375\214\373"
 848      0D8482E4 
 848      4ABC18E7 
 848      FD8CFB
 849 1e15 B5791FA3 		.ascii	"\265y\037\243D\025\240'\020\202D+#!\222\223\330\220"
 849      4415A027 
 849      1082442B 
 849      23219293 
 849      D890
 850 1e27 348DC4DB 		.ascii	"4\215\304\333\352\203<\246\014\366\203\250h\2516J\034"
 850      EA833CA6 
 850      0CF683A8 
 850      68A9364A 
 850      1C
 851 1e38 CC95A244 		.ascii	"\314\225\242D\321f\352\015\032N-@&\274\366J\034\026"
 851      D166EA0D 
 851      1A4E2D40 
 851      26BCF64A 
 851      1C16
 852 1e4a 5465A5E5 		.ascii	"Te\245\345\245\221\024\355\036z\223z\203\363\234Z\212"
 852      A59114ED 
 852      1E7A937A 
 852      83F39C5A 
 852      8A
 853 1e5b 4C72EDB4 		.ascii	"Lr\355\264*\003\201\362\312\210\232D\344\003\377R\324"
 853      2A0381F2 
 853      CA889A44 
 853      E403FF52 
 853      D4
 854 1e6c 9D085262 		.ascii	"\235\010Rb\264\325\345\001\2309\315\227[\220S\240\253"
 854      B4D5E501 
 854      9839CD97 
 854      5B9053A0 
 854      AB
ARM GAS  /tmp/ccwtmY2Z.s 			page 69


 855 1e7d 90749DA2 		.ascii	"\220t\235\242\362\356\244'\024\370\036\366\027\302\322"
 855      F2EEA427 
 855      14F81EF6 
 855      17C2D2
 856 1e8c C6E3CBEB 		.ascii	"\306\343\313\353\237\223\355\316\361\025\344\273\007"
 856      9F93EDCE 
 856      F115E4BB 
 856      07
 857 1e99 143E96EF 		.ascii	"\024>\226\357\351\225\223\357\313w\025@\360\221k\277"
 857      E99593EF 
 857      CB771540 
 857      F0916BBF 
 858 1ea9 3C4F413F 		.ascii	"<OA?\222\350\353\003\244\037!\331@<\271\271}z\345\273"
 858      92E8EB03 
 858      A41F21D9 
 858      403CB9B9 
 858      7D7AE5BB 
 859 1ebd 1F26A417 		.ascii	"\037&\244\027\334\273\362\372\344\273\262!\364\312\316"
 859      DCBBF2FA 
 859      E4BBB221 
 859      F4CACE
 860 1ecc 77435ABE 		.ascii	"wCZ\276;\247\240W~R~\357\202\336\371\003zg\247C5\275"
 860      3BA7A057 
 860      7E527EEF 
 860      82DEF903 
 860      7A67A743 
 861 1ee2 7CF9ED7C 		.ascii	"|\371\355| A66\004\353\316&\310\236l_\276L\263\201\366"
 861      20413636 
 861      04EBCE26 
 861      C89E6C5F 
 861      BE4CB381 
 862 1ef7 CEF5E527 		.ascii	"\316\365\345'f?^\210\031\334\276\302\374G\022|\377\356"
 862      663F5E88 
 862      19DCBEC2 
 862      FC47127C 
 862      FFEE
 863 1f09 F33D5A98 		.ascii	"\363=Z\230\340\313\313!\227\336\003\311]b\301#\275{"
 863      E0CBCB21 
 863      97DE03C9 
 863      5D62C123 
 863      BD7B
 864 1f1b E791FB47 		.ascii	"\347\221\373G\012\372\303\305\333\347\261G\262\341\352"
 864      0AFAC3C5 
 864      DBE7B147 
 864      B2E1EA
 865 1f2a CE2388BE 		.ascii	"\316#\210\276\307r\363\322=\271\275\012\376\220\236"
 865      C772F3D2 
 865      3DB9BD0A 
 865      FE909E
 866 1f39 D4A7FFA3 		.ascii	"\324\247\377\243\276\302\234\307\036MGn\006r34n\206"
 866      BEC29CC7 
 866      1E4D476E 
 866      06723334 
 866      6E86
 867 1f4b 266206A6 		.ascii	"&b\006\246gbz\246\226\236\251\245gbz\026\246gi\351Y"
 867      67627AA6 
 867      969EA9A5 
ARM GAS  /tmp/ccwtmY2Z.s 			page 70


 867      67627A16 
 867      A66769E9 
 868 1f60 5D1E1D90 		.ascii	"]\036\035\220\343\363\303`\236\007\216\022*\215\014"
 868      E3F3C360 
 868      9E078E12 
 868      2A8D0C
 869 1f6f EB1B0A56 		.ascii	"\353\033\012VU\3022\240-\303\370\255}k\025\024\302\240"
 869      55C232A0 
 869      2DC3F8AD 
 869      7D6B1514 
 869      C2A0
 870 1f81 5C9E9539 		.ascii	"\\\236\2259\270{z\3063Ed\332\310\311\377c\005\352\343"
 870      B87B7AC6 
 870      334564DA 
 870      C8C9FF63 
 870      05EAE3
 871 1f94 96478315 		.ascii	"\226G\203\025\271\260\230\021\007\225\005r"
 871      B9B09811 
 871      07950572 
 872 1fa0 60022309 		.ascii	"`\002#\011\267\345\006\312\203\241a\271b\2058$P\036"
 872      B7E506CA 
 872      83A161B9 
 872      62853824 
 872      501E
 873 1fb2 50B86D1F 		.ascii	"P\270m\037\256\012\367\301\2056\271k\337?\014\211\372"
 873      AE0AF7C1 
 873      8536B96B 
 873      DF3F0C89 
 873      FA
 874 1fc3 7D72C100 		.ascii	"}r\301\000\237XV\206\361\216h\217\334 \014~\301\220"
 874      9F585686 
 874      F18E688F 
 874      DC200C7E 
 874      C190
 875 1fd5 9C9A07D3 		.ascii	"\234\232\007\323^\301\000\214\247\340|[\364\024\336"
 875      5EC1008C 
 875      A7E07C5B 
 875      F414DE
 876 1fe4 243DFE78 		.ascii	"$=\376xv_\214%\346\015\310\226\221\013{\345\346\371"
 876      765F8C25 
 876      E60DC896 
 876      910B7BE5 
 876      E6F9
 877 1ff6 0B9062BD 		.ascii	"\013\220b\275\371\205>\377\343\177"
 877      F9853EFF 
 877      E37F
 878 2000 E82FDFB5 		.ascii	"\350/\337\265\351\363H\257\202~r\211|\237O\346\365\036"
 878      E9F348AF 
 878      827E7289 
 878      7C9F4FE6 
 878      F51E
 879 2012 589893AE 		.ascii	"X\230\223\256G3\364h\246\036\315\322\243\335\0251s{"
 879      4733F468 
 879      A61ECDD2 
 879      A3DD1531 
 879      737B
 880 2024 65F80B60 		.ascii	"e\370\013`Y(\226\247\307p2b8\2311\234\254\030N,\362"
ARM GAS  /tmp/ccwtmY2Z.s 			page 71


 880      592896A7 
 880      C7703262 
 880      3899319C 
 880      AC184E2C 
 881 2039 7D319CFB 		.ascii	"}1\234\373e\351{e\313\322\247\020\211\036\364\313\371"
 881      65E97B65 
 881      CBD2A710 
 881      891EF4CB 
 881      F9
 882 204a 3A15E6E4 		.ascii	":\025\346\344f\370\037\316\377\203\037\"\017R,h>\271"
 882      66F81FCE 
 882      FF831F22 
 882      0F522C68 
 882      3EB9
 883 205c CA72DE8E 		.ascii	"\312r\336\216\254\302\374\276~p \344\313\322\246 _\321"
 883      ACC2FCBE 
 883      7E7020E4 
 883      CBD2A620 
 883      5FD1
 884 206e 4A12DC64 		.ascii	"J\022\334dj\261,-&\213\230\222\223\351\313\360\367\036"
 884      6AB12C2D 
 884      268B9892 
 884      93E9CBF0 
 884      F71E
 885 2080 40DFE46B 		.ascii	"@\337\344k7\231tJ\246\232\222T\220\247\350\226\304d"
 885      3799744A 
 885      A69A9254 
 885      90A7E896 
 885      C464
 886 2092 ECE4FED0 		.ascii	"\354\344\376\320)\0133\250\270\314o\207\206\270\317"
 886      290B33A8 
 886      B8CC6F87 
 886      86B8CF
 887 20a1 AF48DC8E 		.ascii	"\257H\334\216\030\021\027$x\333\341\261\302\276\376"
 887      18111724 
 887      78DBE1B1 
 887      C2BEFE
 888 20b0 3E05BA59 		.ascii	">\005\272Yi\375<\240T\221\235\363\230&\364}Z\265\272"
 888      69FD3CA0 
 888      54919DF3 
 888      9826F47D 
 888      5AB5BA
 889 20c3 CE33636C 		.ascii	"\3163cl\227\031c\273\314\030\333e\306\330.\223\261]"
 889      971963BB 
 889      CC18DB65 
 889      C6D82E93 
 889      B15D
 890 20d5 B2229A31 		.ascii	"\262\"\2321\365\276\030\316\3751\234\007(5\334\257\351"
 890      F5BE18CE 
 890      FD319C07 
 890      2835DCAF 
 890      E9
 891 20e6 2F8B5666 		.ascii	"/\213Vf\226\252\314\304>y\375\265F\311Uw0v|7f\254T\356"
 891      96AACCC4 
 891      3E79FDB5 
 891      46C95577 
 891      30767C37 
ARM GAS  /tmp/ccwtmY2Z.s 			page 72


 892 20fe FAD8591D 		.ascii	"\372\330Y\035\312\217o\005\205\271Y\231i\217<\222\235"
 892      CA8F6F05 
 892      85B95999 
 892      698F3C92 
 892      9D
 893 210f 06BA1B9A 		.ascii	"\006\272\033\232!\367~2\354\223\245\265v\003Or\276\374"
 893      21F77E32 
 893      EC93A5B5 
 893      76034F72 
 893      BEFC
 894 2121 0C0899EE 		.ascii	"\014\010\231\356\002\030#\335\3319\275\363\005\030x"
 894      021823DD 
 894      D939BDF3 
 894      051878
 895 2130 7BF785F1 		.ascii	"{\367\205\361\316\227\233\237\2014\323\355\363\365\206"
 895      CE979B9F 
 895      8134D3ED 
 895      F3F586
 896 213f A1FBD142 		.ascii	"\241\373\321BW^\201\317\325+?\337\005\303\271\373\341"
 896      575E81CF 
 896      D52B3FDF 
 896      05C3B9FB 
 896      E1
 897 2150 EC42189E 		.ascii	"\354B\030\236I\251\334^\371\302cr\211,\310;0\337\367"
 897      49A9DC5E 
 897      F9C26372 
 897      892CC83B 
 897      30DFF7
 898 2163 F708EA2F 		.ascii	"\367\010\352/+#\317\264\235\344\230\177H \002\3533\\"
 898      2B23CFB4 
 898      9DE4987F 
 898      482002EB 
 898      335C
 899 2175 4B3F7493 		.ascii	"K?t\223O\257\270L\001\310\333\360\201D^\307\300\"\276"
 899      4FAFB84C 
 899      01C8DBF0 
 899      81445EC7 
 899      C022BE
 900 2188 D22F127F 		.ascii	"\322/\022\177\274\225\346Be\310t\223\373;0\005\376)"
 900      BC95E642 
 900      65C87493 
 900      FB3B3005 
 900      FE29
 901 219a 19FC43C5 		.ascii	"\031\374C\305\262\252\300\377\002g\352\273\001"
 901      B2AAC0FF 
 901      0267EABB 
 901      01
 902              		.text
 903              		.section	.gnu.lto_.symtab.5b708cecc495d2be,"",%progbits
 904 0000 63685379 		.ascii	"chSysInit\000\000\000\000\000\000\000\000\000\000\000"
 904      73496E69 
 904      74000000 
 904      00000000 
 904      00000000 
 905 0014 00810100 		.ascii	"\000\201\001\000\000chSysHalt\000\000\000\000\000\000"
 905      00636853 
 905      79734861 
ARM GAS  /tmp/ccwtmY2Z.s 			page 73


 905      6C740000 
 905      00000000 
 906 0028 00000000 		.ascii	"\000\000\000\000\000\000\204\001\000\000chSysTimerH"
 906      00008401 
 906      00006368 
 906      53797354 
 906      696D6572 
 907 003d 616E646C 		.ascii	"andlerI\000\000\000\000\000\000\000\000\000\000\000"
 907      65724900 
 907      00000000 
 907      00000000 
 907      0000
 908 004f 008B0100 		.ascii	"\000\213\001\000\000chSysGetStatusAndLockX\000\000\000"
 908      00636853 
 908      79734765 
 908      74537461 
 908      74757341 
 909 006d 00000000 		.ascii	"\000\000\000\000\000\000\000\000\000\216\001\000\000"
 909      00000000 
 909      008E0100 
 909      00
 910 007a 63685379 		.ascii	"chSysRestoreStatusX\000\000\000\000\000\000\000\000"
 910      73526573 
 910      746F7265 
 910      53746174 
 910      75735800 
 911 0095 00000000 		.ascii	"\000\000\000\000\222\001\000\000chSysIsCounterWithi"
 911      92010000 
 911      63685379 
 911      73497343 
 911      6F756E74 
 912 00b0 6E580000 		.ascii	"nX\000\000\000\000\000\000\000\000\000\000\000\000\231"
 912      00000000 
 912      00000000 
 912      000099
 913 00bf 01000063 		.ascii	"\001\000\000chSysPolledDelayX\000\000\000\000\000\000"
 913      68537973 
 913      506F6C6C 
 913      65644465 
 913      6C617958 
 914 00d9 00000000 		.ascii	"\000\000\000\000\000\000\254\001\000\000ch\000\000\002"
 914      0000AC01 
 914      00006368 
 914      000002
 915 00e8 00000000 		.ascii	"\000\000\000\000\000\000\000\000\000\343\001\000\000"
 915      00000000 
 915      00E30100 
 915      00
 916 00f5 63685F64 		.ascii	"ch_debug\000\000\002\000\000\000\000\000\000\000\000"
 916      65627567 
 916      00000200 
 916      00000000 
 916      000000
 917 0108 00340200 		.ascii	"\0004\002\000\000stSetAlarm\000\000\002\000\000\000"
 917      00737453 
 917      6574416C 
 917      61726D00 
ARM GAS  /tmp/ccwtmY2Z.s 			page 74


 917      00020000 
 918 011d 00000000 		.ascii	"\000\000\000\000\000\000\263\001\000\000stStopAlarm"
 918      0000B301 
 918      00007374 
 918      53746F70 
 918      416C6172 
 919 0132 00000200 		.ascii	"\000\000\002\000\000\000\000\000\000\000\000\000\272"
 919      00000000 
 919      00000000 
 919      BA
 920 013f 01000063 		.ascii	"\001\000\000chSchRescheduleS\000\000\002\000\000\000"
 920      68536368 
 920      52657363 
 920      68656475 
 920      6C655300 
 921 0158 00000000 		.ascii	"\000\000\000\000\000\000\274\001\000\000chThdCreate"
 921      0000BC01 
 921      00006368 
 921      54686443 
 921      72656174 
 922 016d 53746174 		.ascii	"Static\000\000\002\000\000\000\000\000\000\000\000\000"
 922      69630000 
 922      02000000 
 922      00000000 
 922      0000
 923 017f BE010000 		.ascii	"\276\001\000\000_thread_init\000\000\002\000\000\000"
 923      5F746872 
 923      6561645F 
 923      696E6974 
 923      00000200 
 924 0195 00000000 		.ascii	"\000\000\000\000\000\000\317\001\000\000_heap_init\000"
 924      0000CF01 
 924      00005F68 
 924      6561705F 
 924      696E6974 
 925 01aa 00020000 		.ascii	"\000\002\000\000\000\000\000\000\000\000\000\324\001"
 925      00000000 
 925      000000D4 
 925      01
 926 01b7 00005F63 		.ascii	"\000\000_core_init\000\000\002\000\000\000\000\000\000"
 926      6F72655F 
 926      696E6974 
 926      00000200 
 926      00000000 
 927 01cc 000000D6 		.ascii	"\000\000\000\326\001\000\000_tm_init\000\000\002\000"
 927      0100005F 
 927      746D5F69 
 927      6E697400 
 927      000200
 928 01df 00000000 		.ascii	"\000\000\000\000\000\000\000\000\330\001\000\000_vt"
 928      00000000 
 928      D8010000 
 928      5F7674
 929 01ee 5F696E69 		.ascii	"_init\000\000\002\000\000\000\000\000\000\000\000\000"
 929      74000002 
 929      00000000 
 929      00000000 
ARM GAS  /tmp/ccwtmY2Z.s 			page 75


 929      00
 930 01ff DA010000 		.ascii	"\332\001\000\000_scheduler_init\000\000\002\000\000"
 930      5F736368 
 930      6564756C 
 930      65725F69 
 930      6E697400 
 931 0217 00000000 		.ascii	"\000\000\000\000\000\000\000\334\001\000\000"
 931      000000DC 
 931      010000
 932              		.text
 933              		.section	.gnu.lto_.opts,"",%progbits
 934 0000 272D6D63 		.ascii	"'-mcpu=cortex-m4' '-mfloat-abi=hard' '-mfpu=fpv4-sp"
 934      70753D63 
 934      6F727465 
 934      782D6D34 
 934      2720272D 
 935 0033 2D643136 		.ascii	"-d16' '-mno-thumb-interwork' '-mthumb' '-O2' '-fomi"
 935      2720272D 
 935      6D6E6F2D 
 935      7468756D 
 935      622D696E 
 936 0066 742D6672 		.ascii	"t-frame-pointer' '-falign-functions=16' '-ffunction"
 936      616D652D 
 936      706F696E 
 936      74657227 
 936      20272D66 
 937 0099 2D736563 		.ascii	"-sections' '-fdata-sections' '-fno-common' '-flto' "
 937      74696F6E 
 937      73272027 
 937      2D666461 
 937      74612D73 
 938 00cc 272D6673 		.ascii	"'-fsingle-precision-constant'\000"
 938      696E676C 
 938      652D7072 
 938      65636973 
 938      696F6E2D 
 939              		.text
 940              		.section	.text._idle_thread,"ax",%progbits
 941              		.align	2
 942              		.p2align 4,,15
 943              		.thumb
 944              		.thumb_func
 945              		.type	_idle_thread, %function
 946              	_idle_thread:
 947              		@ Volatile: function does not return.
 948              		@ args = 0, pretend = 0, frame = 0
 949              		@ frame_needed = 0, uses_anonymous_args = 0
 950              		@ link register save eliminated.
 951 0000 024B     		ldr	r3, .L4
 952 0002 034A     		ldr	r2, .L4+4
 953 0004 9B69     		ldr	r3, [r3, #24]
 954 0006 9A61     		str	r2, [r3, #24]
 955              	.L2:
 956 0008 FEE7     		b	.L2
 957              	.L5:
 958 000a 00BF     		.align	2
 959              	.L4:
ARM GAS  /tmp/ccwtmY2Z.s 			page 76


 960 000c 00000000 		.word	ch
 961 0010 00000000 		.word	.LC0
 962              		.size	_idle_thread, .-_idle_thread
 963 0014 AFF30080 		.section	.text.chSysInit,"ax",%progbits
 963      AFF30080 
 963      AFF30080 
 964              		.align	2
 965              		.p2align 4,,15
 966              		.global	chSysInit
 967              		.thumb
 968              		.thumb_func
 969              		.type	chSysInit, %function
 970              	chSysInit:
 971              		@ args = 0, pretend = 0, frame = 0
 972              		@ frame_needed = 0, uses_anonymous_args = 0
 973 0000 1D4B     		ldr	r3, .L7
 974 0002 1E4A     		ldr	r2, .L7+4
 975 0004 1E48     		ldr	r0, .L7+8
 976 0006 1F49     		ldr	r1, .L7+12
 977 0008 70B5     		push	{r4, r5, r6, lr}
 978 000a 0024     		movs	r4, #0
 979 000c 9C60     		str	r4, [r3, #8]
 980 000e DE68     		ldr	r6, [r3, #12]
 981 0010 4FF6FF05 		movw	r5, #63743
 982 0014 3540     		ands	r5, r5, r6
 983 0016 2A43     		orrs	r2, r2, r5
 984 0018 DA60     		str	r2, [r3, #12]
 985 001a C268     		ldr	r2, [r0, #12]
 986 001c 42F08072 		orr	r2, r2, #16777216
 987 0020 C260     		str	r2, [r0, #12]
 988 0022 0D68     		ldr	r5, [r1]
 989 0024 2022     		movs	r2, #32
 990 0026 1020     		movs	r0, #16
 991 0028 45F00105 		orr	r5, r5, #1
 992 002c 0D60     		str	r5, [r1]
 993 002e 82B0     		sub	sp, sp, #8
 994 0030 D877     		strb	r0, [r3, #31]
 995 0032 83F82220 		strb	r2, [r3, #34]
 996 0036 FFF7FEFF 		bl	_scheduler_init
 997 003a FFF7FEFF 		bl	_vt_init
 998 003e FFF7FEFF 		bl	_tm_init
 999 0042 FFF7FEFF 		bl	_core_init
 1000 0046 FFF7FEFF 		bl	_heap_init
 1001 004a 4021     		movs	r1, #64
 1002 004c 0E48     		ldr	r0, .L7+16
 1003 004e FFF7FEFF 		bl	_thread_init
 1004 0052 0E4B     		ldr	r3, .L7+20
 1005 0054 0122     		movs	r2, #1
 1006 0056 9861     		str	r0, [r3, #24]
 1007 0058 0277     		strb	r2, [r0, #28]
 1008              	@ 546 "/home/cody/dev/chibios/trunk/os/ext/CMSIS/include/core_cmFunc.h" 1
 1009 005a 84F31188 		MSR basepri, r4
 1010              	@ 0 "" 2
 1011              	@ 331 "/home/cody/dev/chibios/trunk/os/ext/CMSIS/include/core_cmFunc.h" 1
 1012 005e 62B6     		cpsie i
 1013              	@ 0 "" 2
 1014              		.thumb
ARM GAS  /tmp/ccwtmY2Z.s 			page 77


 1015 0060 9B69     		ldr	r3, [r3, #24]
 1016 0062 0B49     		ldr	r1, .L7+24
 1017 0064 9961     		str	r1, [r3, #24]
 1018 0066 0B48     		ldr	r0, .L7+28
 1019 0068 0094     		str	r4, [sp]
 1020 006a 0B4B     		ldr	r3, .L7+32
 1021 006c 4FF4B071 		mov	r1, #352
 1022 0070 FFF7FEFF 		bl	chThdCreateStatic
 1023 0074 02B0     		add	sp, sp, #8
 1024              		@ sp needed
 1025 0076 70BD     		pop	{r4, r5, r6, pc}
 1026              	.L8:
 1027              		.align	2
 1028              	.L7:
 1029 0078 00ED00E0 		.word	-536810240
 1030 007c 0003FA05 		.word	100270848
 1031 0080 F0ED00E0 		.word	-536810000
 1032 0084 001000E0 		.word	-536866816
 1033 0088 00000000 		.word	.LANCHOR0
 1034 008c 00000000 		.word	ch
 1035 0090 00000000 		.word	ch_debug
 1036 0094 00000000 		.word	.LANCHOR1
 1037 0098 00000000 		.word	_idle_thread
 1038              		.size	chSysInit, .-chSysInit
 1039 009c AFF30080 		.section	.text.chSysHalt,"ax",%progbits
 1040              		.align	2
 1041              		.p2align 4,,15
 1042              		.global	chSysHalt
 1043              		.thumb
 1044              		.thumb_func
 1045              		.type	chSysHalt, %function
 1046              	chSysHalt:
 1047              		@ Volatile: function does not return.
 1048              		@ args = 0, pretend = 0, frame = 0
 1049              		@ frame_needed = 0, uses_anonymous_args = 0
 1050              		@ link register save eliminated.
 1051              	@ 342 "/home/cody/dev/chibios/trunk/os/ext/CMSIS/include/core_cmFunc.h" 1
 1052 0000 72B6     		cpsid i
 1053              	@ 0 "" 2
 1054              		.thumb
 1055 0002 014B     		ldr	r3, .L11
 1056 0004 D862     		str	r0, [r3, #44]
 1057              	.L10:
 1058 0006 FEE7     		b	.L10
 1059              	.L12:
 1060              		.align	2
 1061              	.L11:
 1062 0008 00000000 		.word	ch
 1063              		.size	chSysHalt, .-chSysHalt
 1064 000c AFF30080 		.section	.text.chSysTimerHandlerI,"ax",%progbits
 1065              		.align	2
 1066              		.p2align 4,,15
 1067              		.global	chSysTimerHandlerI
 1068              		.thumb
 1069              		.thumb_func
 1070              		.type	chSysTimerHandlerI, %function
 1071              	chSysTimerHandlerI:
ARM GAS  /tmp/ccwtmY2Z.s 			page 78


 1072              		@ args = 0, pretend = 0, frame = 0
 1073              		@ frame_needed = 0, uses_anonymous_args = 0
 1074 0000 2DE9F047 		push	{r4, r5, r6, r7, r8, r9, r10, lr}
 1075 0004 1A4C     		ldr	r4, .L21
 1076 0006 4FF08042 		mov	r2, #1073741824
 1077 000a E369     		ldr	r3, [r4, #28]
 1078 000c D2F82490 		ldr	r9, [r2, #36]
 1079 0010 A06A     		ldr	r0, [r4, #40]
 1080 0012 9A68     		ldr	r2, [r3, #8]
 1081 0014 C0EB0905 		rsb	r5, r0, r9
 1082 0018 9542     		cmp	r5, r2
 1083 001a 04F11C06 		add	r6, r4, #28
 1084 001e 1AD3     		bcc	.L14
 1085 0020 A046     		mov	r8, r4
 1086 0022 4FF0000A 		mov	r10, #0
 1087 0026 2027     		movs	r7, #32
 1088 0028 01E0     		b	.L15
 1089              	.L19:
 1090 002a D8F82800 		ldr	r0, [r8, #40]
 1091              	.L15:
 1092 002e 1968     		ldr	r1, [r3]
 1093 0030 D3F80CC0 		ldr	ip, [r3, #12]
 1094 0034 1044     		add	r0, r0, r2
 1095 0036 A062     		str	r0, [r4, #40]
 1096 0038 AD1A     		subs	r5, r5, r2
 1097 003a C3F80CA0 		str	r10, [r3, #12]
 1098 003e 4E60     		str	r6, [r1, #4]
 1099 0040 E161     		str	r1, [r4, #28]
 1100              	@ 546 "/home/cody/dev/chibios/trunk/os/ext/CMSIS/include/core_cmFunc.h" 1
 1101 0042 8AF31188 		MSR basepri, r10
 1102              	@ 0 "" 2
 1103              		.thumb
 1104 0046 1869     		ldr	r0, [r3, #16]
 1105 0048 E047     		blx	ip
 1106              	@ 546 "/home/cody/dev/chibios/trunk/os/ext/CMSIS/include/core_cmFunc.h" 1
 1107 004a 87F31188 		MSR basepri, r7
 1108              	@ 0 "" 2
 1109              		.thumb
 1110 004e E369     		ldr	r3, [r4, #28]
 1111 0050 9A68     		ldr	r2, [r3, #8]
 1112 0052 AA42     		cmp	r2, r5
 1113 0054 E9D9     		bls	.L19
 1114              	.L14:
 1115 0056 B342     		cmp	r3, r6
 1116 0058 05D0     		beq	.L20
 1117 005a 02EB0900 		add	r0, r2, r9
 1118 005e BDE8F047 		pop	{r4, r5, r6, r7, r8, r9, r10, lr}
 1119 0062 FFF7FEBF 		b	stSetAlarm
 1120              	.L20:
 1121 0066 BDE8F047 		pop	{r4, r5, r6, r7, r8, r9, r10, lr}
 1122 006a FFF7FEBF 		b	stStopAlarm
 1123              	.L22:
 1124 006e 00BF     		.align	2
 1125              	.L21:
 1126 0070 00000000 		.word	ch
 1127              		.size	chSysTimerHandlerI, .-chSysTimerHandlerI
 1128 0074 AFF30080 		.section	.text.chSysGetStatusAndLockX,"ax",%progbits
ARM GAS  /tmp/ccwtmY2Z.s 			page 79


 1128      AFF30080 
 1128      AFF30080 
 1129              		.align	2
 1130              		.p2align 4,,15
 1131              		.global	chSysGetStatusAndLockX
 1132              		.thumb
 1133              		.thumb_func
 1134              		.type	chSysGetStatusAndLockX, %function
 1135              	chSysGetStatusAndLockX:
 1136              		@ args = 0, pretend = 0, frame = 0
 1137              		@ frame_needed = 0, uses_anonymous_args = 0
 1138              		@ link register save eliminated.
 1139              	@ 533 "/home/cody/dev/chibios/trunk/os/ext/CMSIS/include/core_cmFunc.h" 1
 1140 0000 EFF31280 		MRS r0, basepri_max
 1141              	@ 0 "" 2
 1142              		.thumb
 1143 0004 20B9     		cbnz	r0, .L24
 1144              	@ 383 "/home/cody/dev/chibios/trunk/os/ext/CMSIS/include/core_cmFunc.h" 1
 1145 0006 EFF30583 		MRS r3, ipsr
 1146              	@ 0 "" 2
 1147              		.thumb
 1148 000a 2023     		movs	r3, #32
 1149              	@ 546 "/home/cody/dev/chibios/trunk/os/ext/CMSIS/include/core_cmFunc.h" 1
 1150 000c 83F31188 		MSR basepri, r3
 1151              	@ 0 "" 2
 1152              		.thumb
 1153              	.L24:
 1154 0010 7047     		bx	lr
 1155              		.size	chSysGetStatusAndLockX, .-chSysGetStatusAndLockX
 1156 0012 00BFAFF3 		.section	.text.chSysRestoreStatusX,"ax",%progbits
 1156      0080AFF3 
 1156      0080AFF3 
 1156      0080
 1157              		.align	2
 1158              		.p2align 4,,15
 1159              		.global	chSysRestoreStatusX
 1160              		.thumb
 1161              		.thumb_func
 1162              		.type	chSysRestoreStatusX, %function
 1163              	chSysRestoreStatusX:
 1164              		@ args = 0, pretend = 0, frame = 0
 1165              		@ frame_needed = 0, uses_anonymous_args = 0
 1166 0000 10B5     		push	{r4, lr}
 1167 0002 58B9     		cbnz	r0, .L26
 1168              	@ 383 "/home/cody/dev/chibios/trunk/os/ext/CMSIS/include/core_cmFunc.h" 1
 1169 0004 EFF30584 		MRS r4, ipsr
 1170              	@ 0 "" 2
 1171              		.thumb
 1172 0008 C4F30804 		ubfx	r4, r4, #0, #9
 1173 000c 14B1     		cbz	r4, .L28
 1174              	@ 546 "/home/cody/dev/chibios/trunk/os/ext/CMSIS/include/core_cmFunc.h" 1
 1175 000e 80F31188 		MSR basepri, r0
 1176              	@ 0 "" 2
 1177              		.thumb
 1178 0012 10BD     		pop	{r4, pc}
 1179              	.L28:
 1180 0014 FFF7FEFF 		bl	chSchRescheduleS
ARM GAS  /tmp/ccwtmY2Z.s 			page 80


 1181              	@ 546 "/home/cody/dev/chibios/trunk/os/ext/CMSIS/include/core_cmFunc.h" 1
 1182 0018 84F31188 		MSR basepri, r4
 1183              	@ 0 "" 2
 1184              		.thumb
 1185              	.L26:
 1186 001c 10BD     		pop	{r4, pc}
 1187              		.size	chSysRestoreStatusX, .-chSysRestoreStatusX
 1188 001e 00BF     		.section	.text.chSysIsCounterWithinX,"ax",%progbits
 1189              		.align	2
 1190              		.p2align 4,,15
 1191              		.global	chSysIsCounterWithinX
 1192              		.thumb
 1193              		.thumb_func
 1194              		.type	chSysIsCounterWithinX, %function
 1195              	chSysIsCounterWithinX:
 1196              		@ args = 0, pretend = 0, frame = 0
 1197              		@ frame_needed = 0, uses_anonymous_args = 0
 1198              		@ link register save eliminated.
 1199 0000 8A42     		cmp	r2, r1
 1200 0002 06D9     		bls	.L30
 1201 0004 8142     		cmp	r1, r0
 1202 0006 08D8     		bhi	.L34
 1203              	.L36:
 1204 0008 8242     		cmp	r2, r0
 1205 000a 94BF     		ite	ls
 1206 000c 0020     		movls	r0, #0
 1207 000e 0120     		movhi	r0, #1
 1208 0010 7047     		bx	lr
 1209              	.L30:
 1210 0012 8142     		cmp	r1, r0
 1211 0014 F8D8     		bhi	.L36
 1212 0016 0120     		movs	r0, #1
 1213 0018 7047     		bx	lr
 1214              	.L34:
 1215 001a 0020     		movs	r0, #0
 1216 001c 7047     		bx	lr
 1217              		.size	chSysIsCounterWithinX, .-chSysIsCounterWithinX
 1218 001e 00BF     		.section	.text.chSysPolledDelayX,"ax",%progbits
 1219              		.align	2
 1220              		.p2align 4,,15
 1221              		.global	chSysPolledDelayX
 1222              		.thumb
 1223              		.thumb_func
 1224              		.type	chSysPolledDelayX, %function
 1225              	chSysPolledDelayX:
 1226              		@ args = 0, pretend = 0, frame = 0
 1227              		@ frame_needed = 0, uses_anonymous_args = 0
 1228              		@ link register save eliminated.
 1229 0000 0C49     		ldr	r1, .L48
 1230 0002 4A68     		ldr	r2, [r1, #4]
 1231 0004 1044     		add	r0, r0, r2
 1232              	.L43:
 1233 0006 9042     		cmp	r0, r2
 1234 0008 4B68     		ldr	r3, [r1, #4]
 1235 000a 0CD9     		bls	.L38
 1236 000c 9A42     		cmp	r2, r3
 1237 000e 03D9     		bls	.L46
ARM GAS  /tmp/ccwtmY2Z.s 			page 81


 1238 0010 0023     		movs	r3, #0
 1239 0012 002B     		cmp	r3, #0
 1240 0014 F7D1     		bne	.L43
 1241              	.L47:
 1242 0016 7047     		bx	lr
 1243              	.L46:
 1244 0018 9842     		cmp	r0, r3
 1245 001a 94BF     		ite	ls
 1246 001c 0023     		movls	r3, #0
 1247 001e 0123     		movhi	r3, #1
 1248 0020 002B     		cmp	r3, #0
 1249 0022 F0D1     		bne	.L43
 1250 0024 F7E7     		b	.L47
 1251              	.L38:
 1252 0026 9A42     		cmp	r2, r3
 1253 0028 F6D8     		bhi	.L46
 1254 002a 0123     		movs	r3, #1
 1255 002c 002B     		cmp	r3, #0
 1256 002e EAD1     		bne	.L43
 1257 0030 F1E7     		b	.L47
 1258              	.L49:
 1259 0032 00BF     		.align	2
 1260              	.L48:
 1261 0034 001000E0 		.word	-536866816
 1262              		.size	chSysPolledDelayX, .-chSysPolledDelayX
 1263 0038 AFF30080 		.section	.bss.mainthread.6320,"aw",%nobits
 1263      AFF30080 
 1264              		.align	2
 1265              		.set	.LANCHOR0,. + 0
 1266              		.type	mainthread.6320, %object
 1267              		.size	mainthread.6320, 68
 1268              	mainthread.6320:
 1269 0000 00000000 		.space	68
 1269      00000000 
 1269      00000000 
 1269      00000000 
 1269      00000000 
 1270              		.section	.rodata.str1.4,"aMS",%progbits,1
 1271              		.align	2
 1272              	.LC0:
 1273 0000 69646C65 		.ascii	"idle\000"
 1273      00
 1274 0005 000000   		.section	.bss._idle_thread_wa,"aw",%nobits
 1275              		.align	3
 1276              		.set	.LANCHOR1,. + 0
 1277              		.type	_idle_thread_wa, %object
 1278              		.size	_idle_thread_wa, 352
 1279              	_idle_thread_wa:
 1280 0000 00000000 		.space	352
 1280      00000000 
 1280      00000000 
 1280      00000000 
 1280      00000000 
 1281              		.comm	__gnu_lto_v1,1,1
 1282              		.ident	"GCC: (GNU Tools for ARM Embedded Processors) 4.8.4 20140526 (release) [ARM/embedded-4_8-br
ARM GAS  /tmp/ccwtmY2Z.s 			page 82


DEFINED SYMBOLS
                            *ABS*:0000000000000000 chsys.c
     /tmp/ccwtmY2Z.s:941    .text._idle_thread:0000000000000000 $t
     /tmp/ccwtmY2Z.s:946    .text._idle_thread:0000000000000000 _idle_thread
     /tmp/ccwtmY2Z.s:960    .text._idle_thread:000000000000000c $d
     /tmp/ccwtmY2Z.s:964    .text.chSysInit:0000000000000000 $t
     /tmp/ccwtmY2Z.s:970    .text.chSysInit:0000000000000000 chSysInit
     /tmp/ccwtmY2Z.s:1029   .text.chSysInit:0000000000000078 $d
     /tmp/ccwtmY2Z.s:1040   .text.chSysHalt:0000000000000000 $t
     /tmp/ccwtmY2Z.s:1046   .text.chSysHalt:0000000000000000 chSysHalt
     /tmp/ccwtmY2Z.s:1062   .text.chSysHalt:0000000000000008 $d
     /tmp/ccwtmY2Z.s:1065   .text.chSysTimerHandlerI:0000000000000000 $t
     /tmp/ccwtmY2Z.s:1071   .text.chSysTimerHandlerI:0000000000000000 chSysTimerHandlerI
     /tmp/ccwtmY2Z.s:1126   .text.chSysTimerHandlerI:0000000000000070 $d
     /tmp/ccwtmY2Z.s:1129   .text.chSysGetStatusAndLockX:0000000000000000 $t
     /tmp/ccwtmY2Z.s:1135   .text.chSysGetStatusAndLockX:0000000000000000 chSysGetStatusAndLockX
     /tmp/ccwtmY2Z.s:1157   .text.chSysRestoreStatusX:0000000000000000 $t
     /tmp/ccwtmY2Z.s:1163   .text.chSysRestoreStatusX:0000000000000000 chSysRestoreStatusX
     /tmp/ccwtmY2Z.s:1189   .text.chSysIsCounterWithinX:0000000000000000 $t
     /tmp/ccwtmY2Z.s:1195   .text.chSysIsCounterWithinX:0000000000000000 chSysIsCounterWithinX
     /tmp/ccwtmY2Z.s:1219   .text.chSysPolledDelayX:0000000000000000 $t
     /tmp/ccwtmY2Z.s:1225   .text.chSysPolledDelayX:0000000000000000 chSysPolledDelayX
     /tmp/ccwtmY2Z.s:1261   .text.chSysPolledDelayX:0000000000000034 $d
     /tmp/ccwtmY2Z.s:1264   .bss.mainthread.6320:0000000000000000 $d
     /tmp/ccwtmY2Z.s:1268   .bss.mainthread.6320:0000000000000000 mainthread.6320
     /tmp/ccwtmY2Z.s:1271   .rodata.str1.4:0000000000000000 $d
     /tmp/ccwtmY2Z.s:1275   .bss._idle_thread_wa:0000000000000000 $d
     /tmp/ccwtmY2Z.s:1279   .bss._idle_thread_wa:0000000000000000 _idle_thread_wa
                            *COM*:0000000000000001 __gnu_lto_v1
     /tmp/ccwtmY2Z.s:963    .text._idle_thread:0000000000000014 $t
     /tmp/ccwtmY2Z.s:1039   .text.chSysInit:000000000000009c $t
     /tmp/ccwtmY2Z.s:1064   .text.chSysHalt:000000000000000c $t
     /tmp/ccwtmY2Z.s:1128   .text.chSysTimerHandlerI:0000000000000074 $t
     /tmp/ccwtmY2Z.s:1263   .text.chSysPolledDelayX:0000000000000038 $t

UNDEFINED SYMBOLS
ch
_scheduler_init
_vt_init
_tm_init
_core_init
_heap_init
_thread_init
chThdCreateStatic
ch_debug
stSetAlarm
stStopAlarm
chSchRescheduleS
