ARM GAS  /tmp/ccEbaEuu.s 			page 1


   1              		.syntax unified
   2              		.cpu cortex-m4
   3              		.eabi_attribute 27, 3
   4              		.eabi_attribute 28, 1
   5              		.fpu fpv4-sp-d16
   6              		.eabi_attribute 20, 1
   7              		.eabi_attribute 21, 1
   8              		.eabi_attribute 23, 3
   9              		.eabi_attribute 24, 1
  10              		.eabi_attribute 25, 1
  11              		.eabi_attribute 26, 1
  12              		.eabi_attribute 30, 2
  13              		.eabi_attribute 34, 1
  14              		.eabi_attribute 18, 4
  15              		.thumb
  16              		.file	"datasample.c"
  17              		.section	.gnu.lto_.jmpfuncs.6ab4b878b8c93de3,"",%progbits
  18 0000 789C6362 		.ascii	"x\234cb`b\300\006L\031\031\030\232\2004\013\003#P\001"
  18      6062C006 
  18      4C191918 
  18      9A80340B 
  18      03235001 
  19 0014 5335C3AF 		.ascii	"S5\303\257\206\031\015\002\231\214\014r\014\214s\033"
  19      86190D02 
  19      998C0C72 
  19      0C8C731B 
  20 0024 66386432 		.ascii	"f8d22\202\325\241J&2.b\224\243\\\234I\216\201\005b\011"
  20      3282D5A1 
  20      4A26322E 
  20      6294A35C 
  20      9C498E81 
  21 003b 33589291 		.ascii	"3X\222\221\231\005\310`,\203\252\351\000\251a\311e\204"
  21      9905C860 
  21      2C83AAE9 
  21      00A961C9 
  21      6584
  22 004d 3A952982 		.ascii	":\225)\2021\223\221\025\310\220\305\224\005\313\261"
  22      31939115 
  22      C890C594 
  22      05CBB1
  23 005c 35A098CE 		.ascii	"5\240\230\316.\307\300\0151\235\003\253\327\211\001"
  23      2EC7C00D 
  23      319D03AB 
  23      D78901
  24 006b CCCC4C50 		.ascii	"\314\314LPWc\020@\2472\3512\260\351Z\001!C\271j\212"
  24      57631040 
  24      A732E932 
  24      B0E95A01 
  24      2143B96A 
  25 0080 8E6A312A 		.ascii	"\216j1*\3223J\203\021\206i(\\lb\306p\002M\235\031n\202"
  25      D2334A83 
  25      11866928 
  25      5C6C62C6 
  25      70024D9D 
  26 0097 8B010061 		.ascii	"\213\001\000a\177G\234"
  26      7F479C
  27              		.text
ARM GAS  /tmp/ccEbaEuu.s 			page 2


  28              		.section	.gnu.lto_.inline.6ab4b878b8c93de3,"",%progbits
  29 0000 789CE593 		.ascii	"x\234\345\2231J\004A\020E\253\272\333\231Y\020\\dQ\020"
  29      314A0441 
  29      1045ABBA 
  29      DB995910 
  29      5C645110 
  30 0014 C48D1456 		.ascii	"\304\215\024V3S\221=\301\2027\252\320p\017`\320\307"
  30      3353913D 
  30      C18237AA 
  30      D0700F60 
  30      D0C7
  31 0026 104CFA0C 		.ascii	"\020L\372\014z\201\011\014<\206\335\365\253\206\011"
  31      7A81090C 
  31      3C86DDF5 
  31      AB8609
  32 0035 16D4D8D9 		.ascii	"\026\324\330\331\245^Uw\317\377A\377\011\024\350\320"
  32      A55E5577 
  32      CFFF41FF 
  32      0914E8D0 
  33 0045 F394C08A 		.ascii	"\363\224\300\212\353wb&\256CX\345\027\246\213\362\306"
  33      EB776226 
  33      AE4358E5 
  33      17A68BF2 
  33      C6
  34 0056 FA523CAE 		.ascii	"\372R<\256K\373\335\217d\372\240O\342\263\246\021I\225"
  34      4BFBDD8F 
  34      64FAA04F 
  34      E2B3A611 
  34      4995
  35 0068 B4CD3D70 		.ascii	"\264\315=p\244\020\240$\305h\260E;\202\027\306\016\023"
  35      A410A024 
  35      C568B045 
  35      3B8217C6 
  35      0E13
  36 007a 908162B0 		.ascii	"\220\201b\260#\200\0148\002\024`\004d\201\275\305\035"
  36      23800C38 
  36      02146004 
  36      6481BDC5 
  36      1D
  37 008b 7FF5D43F 		.ascii	"\177\365\324?\337\004\252M\012\024_\317Sk\227\272\260"
  37      DF04AA4D 
  37      0A145FCF 
  37      536B97BA 
  37      B0
  38 009c 6C65ADED 		.ascii	"le\255\355\272\225\255\266\333V\204\003\2405`@M\006"
  38      BA95ADB6 
  38      DB568403 
  38      A0356040 
  38      4D06
  39 00ae AD038641 		.ascii	"\255\003\206A+TEe\005\272\242\302\002e\201\264k\233"
  39      2B544565 
  39      05BAA2C2 
  39      026581B4 
  39      6B9B
  40 00c0 B8AB9BBC 		.ascii	"\270\253\233\274\353\233\201;\230\205{\230\211\273\230"
  40      EB9B813B 
  40      98857B98 
ARM GAS  /tmp/ccEbaEuu.s 			page 3


  40      89BB98
  41 00cf 8DFBB8D1 		.ascii	"\215\373\270\321\344\344V\223\227\233Mn\242\241\350"
  41      E4E45693 
  41      979B4D6E 
  41      A2A1E8
  42 00de 4E6A2CEA 		.ascii	"Nj,\352\265\326\377\375\003\321e]\332\357\376\376\213"
  42      B5D6FFFD 
  42      03D1655D 
  42      DAEFFEFE 
  42      8B
  43 00ef 74FAC881 		.ascii	"t\372\310\201=\015\232\303._\315\223U\017\375\242It"
  43      3D0D9AC3 
  43      2E5FCD93 
  43      550FFDA2 
  43      4974
  44 0101 BBE115EE 		.ascii	"\273\341\025\3564\340N\001\211\270oL\005S\006\012c\017"
  44      34E04E01 
  44      89B86F4C 
  44      0553060A 
  44      630F
  45 0113 28F68285 		.ascii	"(\366\202\205\016G\004{\231\347I\314\351@J-\272\331"
  45      0E47047B 
  45      99E749CC 
  45      E9404A2D 
  45      BAD9
  46 0125 C3BA997D 		.ascii	"\303\272\231}'\310T\253\255\340\242\206\177\032\257"
  46      27C854AB 
  46      ADE0A286 
  46      7F1AAF
  47 0134 F67C038A 		.ascii	"\366|\003\212\352\331\002"
  47      EAD902
  48              		.text
  49              		.section	.gnu.lto_.pureconst.6ab4b878b8c93de3,"",%progbits
  50 0000 789C6362 		.ascii	"x\234cb`b\340d\200\000\026\006)F)f\011\026)\000\002"
  50      6062E064 
  50      80001606 
  50      29462966 
  50      09162900 
  51 0015 D60080   		.ascii	"\326\000\200"
  52              		.text
  53              		.section	.gnu.lto_datasample_init.6ab4b878b8c93de3,"",%progbits
  54 0000 789CA596 		.ascii	"x\234\245\226?o\323@\030\207\337\3379\216\343\270\211"
  54      3F6FD340 
  54      1887DFDF 
  54      398EE3B8 
  54      89
  55 0011 03B4A032 		.ascii	"\003\264\2402D0\243\260V\352\324\257\200TD\031M@\325"
  55      4430A3B0 
  55      56EAD4AF 
  55      80544419 
  55      4D40D5
  56 0024 49544282 		.ascii	"ITB\202\211\016\275B\221P\221\332\216\201\212\241[\205"
  56      890EBD42 
  56      915091DA 
  56      8E818AA1 
  56      5B85
  57 0036 AA82C4D2 		.ascii	"\252\202\304\322n\371\002m\370\263t\354\314\302\320"
ARM GAS  /tmp/ccEbaEuu.s 			page 4


  57      6EF9026D 
  57      F8B374EC 
  57      CCC2D0
  58 0045 A15518C2 		.ascii	"\241U\030\302\371\316\310\004\345-\227\346\"\337\033"
  58      F9CEC804 
  58      E52D97E6 
  58      22DF1B
  59 0054 3B7E1F3F 		.ascii	";~\037?\376\331:E\220\240\177\307\244\336\212\241\255"
  59      FED93A45 
  59      90A07FC7 
  59      A4DE8AA1 
  59      AD
  60 0065 F00862E3 		.ascii	"\360\010b\343\220h\271$\200\364\013\201\226\004\226"
  60      9068B924 
  60      80F40B81 
  60      960496
  61 0074 EEC39CFB 		.ascii	"\356\303\234\373Q\264\217{\275\335O+?\0127\201\005h"
  61      51B48F7B 
  61      BDDD4F2B 
  61      3F0A3781 
  61      0568
  62 0086 9C04F97A 		.ascii	"\234\004\371zB\220N\241\236D\224\036\323\303\247\025"
  62      42904EA1 
  62      9E44941E 
  62      D3C3A715 
  63 0096 A5366E10 		.ascii	"\2456n\0205\315\356\254\236S\342]\210\264z\007\364\242"
  63      35CDEEAC 
  63      9E53E25D 
  63      88B47A07 
  63      F4A2
  64 00a8 FBF2E717 		.ascii	"\373\362\347\027$\330\202O\363\020\213\364\\7\336\242"
  64      24D8824F 
  64      F3108BF4 
  64      5C37DEA2 
  65 00b8 0F4A8F29 		.ascii	"\017J\217)\011o\223\336A\2420\017\314\351\352\033\203"
  65      096F93DE 
  65      41A2300F 
  65      CCE9EA1B 
  65      83
  66 00c9 07F84BBD 		.ascii	"\007\370K\275C\257\332\223\266\237h\221\272\352\265"
  66      43AFDA93 
  66      B69F6891 
  66      BAEAB5
  67 00d8 AA49149B 		.ascii	"\252I\024\233\260'\031fW\265\224\272'\021\324\251\366"
  67      B0271966 
  67      57B594BA 
  67      2711D4A9 
  67      F6
  68 00e9 5EB56624 		.ascii	"^\265f$J\224\265H\355KF\343$\327\360\215\0062\215;\022"
  68      4A94B548 
  68      ED4B46E3 
  68      24D7F08D 
  68      06328D3B 
  69 00fe E5DC281A 		.ascii	"\345\334(\032l\204\254\212!\314|k\326\376\274\243Ac"
  69      6C84AC8A 
  69      21CC7C6B 
  69      D6FEBCA3 
ARM GAS  /tmp/ccEbaEuu.s 			page 5


  69      4163
  70 0110 75BA66DD 		.ascii	"u\272f\335*\351\257\271\327i\356\025\\\334\313\033\302"
  70      2AE9AFB9 
  70      D769EE15 
  70      5CDCCB1B 
  70      C2
  71 0121 2BE8F34A 		.ascii	"+\350\363J\260\213z\277\322\257\\)4J\"W\252:+\025\206"
  71      B08B7ABF 
  71      D2AF5C29 
  71      344A2257 
  71      AA3A2B15 
  72 0136 500AFFA7 		.ascii	"P\012\377\247\324\313\225\242\276\227H+y\316J\376\020"
  72      D4CB95A2 
  72      BE97482B 
  72      79CE4AFE 
  72      10
  73 0147 4AD1F94A 		.ascii	"J\321\371J\373\333e\333\235]\274\"\021\017\276x\321"
  73      FBDB65DB 
  73      9D5DBC22 
  73      110FBE78 
  73      D1
  74 0158 D4EBF456 		.ascii	"\324\353\364V\225L\177L\026p\264z\325\221\0200\204\263"
  74      954C7F4C 
  74      1670B47A 
  74      D5911030 
  74      84B3
  75 016a D5AA23A1 		.ascii	"\325\252#\241\304\020Zo&\034\011!C\330s&\224\271\034"
  75      C4105A6F 
  75      261C0921 
  75      43D87326 
  75      94B91C
  76 017d 9C091197 		.ascii	"\234\011\021\227\2033a\214\313\341\320\225P\341rXs}"
  76      8333618C 
  76      CBE1D095 
  76      50E17258 
  76      737D
  77 018f 9A552E87 		.ascii	"\232U.\2075W\207\230\313\301\331\241\306\345\260\356"
  77      35578798 
  77      CBC1D9A1 
  77      C6E5B0EE 
  78 019f 4AB8C4E5 		.ascii	"J\270\304\345\320q\275\213\313\\\016\353\343\216\204"
  78      D071BD8B 
  78      CB5C0EEB 
  78      E38E84
  79 01ae 2B5C0E9D 		.ascii	"+\\\016\235\330\022\032\264\223-\014q\016\253\015\206"
  79      D8121AB4 
  79      932D0C71 
  79      0EAB0D86 
  80 01be 8D9B9A1E 		.ascii	"\215\233\232\036\261\267\306\004\364m44x\364\336\210"
  80      B1B7C604 
  80      F46D3434 
  80      78F4DE88 
  81 01ce 68C1A38F 		.ascii	"h\301\243\217.\202\236p\012\344lD\3649\201\264\276\217"
  81      2E829E70 
  81      0AE46C44 
  81      F43981B4 
  81      BE8F
ARM GAS  /tmp/ccEbaEuu.s 			page 6


  82 01e0 866602F9 		.ascii	"\206f\002\371J\313\307\007\342\317\322o\307\254^\366"
  82      4ACBC707 
  82      E2CFD26F 
  82      C7AC5EF6 
  83 01f0 F51F96B4 		.ascii	"\365\037\226\264\243\3620y\226<M\026\236<~t\273I\305"
  83      A3F23079 
  83      963C4D16 
  83      9E3C7E74 
  83      BB49C5
  84 0203 C6B4FE90 		.ascii	"\306\264\376\220h\320o(\341\337\260"
  84      68D06F28 
  84      E1DFB0
  85              		.text
  86              		.section	.gnu.lto_datasample_writeToLog.6ab4b878b8c93de3,"",%progbits
  87 0000 789C8D96 		.ascii	"x\234\215\226Kh\023A\030\307\277o\363l\322<\232\246"
  87      4B681341 
  87      18C7BF6F 
  87      F36CD23C 
  87      9AA6
  88 0012 E93B7D3F 		.ascii	"\351;}?\323F[\333\2427\257\236\255\250\007\221\330\227"
  88      D3465BDB 
  88      A237AF9E 
  88      ADA80791 
  88      D897
  89 0024 0BAD0815 		.ascii	"\013\255\010\025\012\366\340\326\010\012z(\236\212\""
  89      0AF6E0D6 
  89      080A7A28 
  89      9E8A22
  90 0033 22DEF4D0 		.ascii	"\"\336\364\320\223(x\260\340\301\202\324\307\255\024"
  90      932878B0 
  90      E0C182D4 
  90      C7AD14
  91 0042 D152110F 		.ascii	"\321R\021\017\202\024\274\224*\324\357\233\335\331\315"
  91      8214BC94 
  91      2AD4EF9B 
  91      DDD9CD
  92 0051 86EC364B 		.ascii	"\206\3546K;\363\337\331\371~\337\314\177'3\253\200\002"
  92      3BF3DFD9 
  92      F97EDFCC 
  92      7F2733AB 
  92      8002
  93 0063 C5573DFD 		.ascii	"\305W=\375g\302\000w\251F\017\240\262\374\001`)\250"
  93      67C20077 
  93      A9460FA0 
  93      B2FC0160 
  93      29A8
  94 0075 20B20084 		.ascii	" \262\000\204\033\012\3368\217\334\025\333\341\211\246"
  94      1B0ADE38 
  94      8FDC15DB 
  94      E189A6
  95 0084 2D6FFF78 		.ascii	"-o\377x\360\036\265\373\332\322\356\301ALEb\306\021"
  95      F01EB5FB 
  95      DAD2EEC1 
  95      414C4562 
  95      C611
  96 0096 2610CEA1 		.ascii	"&\020\316\241\212\330**\305kO\262\252\254m\037\034\374"
  96      8AD82A2A 
ARM GAS  /tmp/ccEbaEuu.s 			page 7


  96      C56B4FB2 
  96      AAAC6D1F 
  96      1CFC
  97 00a8 7BBEFC0E 		.ascii	"{\276\374\016O(8\207\340\001\025=^.\374Tx\003T\370\202"
  97      4F283887 
  97      E001153D 
  97      5E2EFC54 
  97      780354F8 
  98 00bd 5C5450E1 		.ascii	"\\TP\341\017q[\230\212@%\025\301\010\253(\253\030\253"
  98      0F715B98 
  98      8A402515 
  98      C108AB28 
  98      AB18AB
  99 00d0 38AB2A56 		.ascii	"8\253*V\011V\325\254\222\254jX\245X\325\262\252cU\317"
  99      0956D5AC 
  99      92AC6A58 
  99      A558D5B2 
  99      AA6355CF 
 100 00e4 AA815523 		.ascii	"\252\201U#\253&V\315\254\322\254ZX\265\262jc\325\316"
 100      AB2656CD 
 100      ACD2AC5A 
 100      58B5B26A 
 100      63D5CE
 101 00f7 AA835527 		.ascii	"\252\203U'\253.V\335\254zX\365\262\352c\325\317*\303"
 101      AB2E56DD 
 101      AC7A58F5 
 101      B2EA63D5 
 101      CF2AC3
 102 010a 6A80D520 		.ascii	"j\200\325 \253,\253#\254\216\262\032b5\314j\004r\370"
 102      AB2CAB23 
 102      AC8EB21A 
 102      6235CC6A 
 102      0472F8
 103 011d 84AC1BA5 		.ascii	"\204\254\033\245\233\2121\232<\036'\025\"W|p\213\354"
 103      9B8A319A 
 103      3C1E2715 
 103      22577C70 
 103      8BEC
 104 012f 6CD51F03 		.ascii	"l\325\037\003[H\3278\225\354\374\031T\270\366l\300\315"
 104      5B48D738 
 104      95ECFC19 
 104      54B8F66C 
 104      C0CD
 105 0141 AD952DCC 		.ascii	"\255\225-\314\341S\364\301\014z2\320\257b\370!< \233"
 105      E153F4C1 
 105      0C7A32D0 
 105      AF62F821 
 105      3C209B
 106 0154 2B675061 		.ascii	"+gPa\273#\302\344K(\355\336\200\374\235|Z\206x)\212"
 106      BB23C2E4 
 106      4B28EDDE 
 106      80FC9D7C 
 106      5A867829 
 107 0169 7B85513C 		.ascii	"{\205Q<\272yJ\177\220\201g\032]\201Ch\024/\242\366\363"
 107      BA794A7F 
 107      9081671A 
 107      5D814368 
ARM GAS  /tmp/ccEbaEuu.s 			page 8


 107      142FA2F6 
 108 017e 2FFF9AA3 		.ascii	"/\377\232\243\360/\302uzE\006\342\264\212\321\322\010"
 108      F02FC275 
 108      7A4506E2 
 108      B48AD1D2 
 108      08
 109 018f B4968040 		.ascii	"\264\226\200@\274\266\020\001\201\360\031\210\013*\306"
 109      BCB61001 
 109      81F01988 
 109      0B2AC6
 110 019e 2C5ABC34 		.ascii	",Z\2744M1jO\021\365\315[ER\2036\352E\213z\346P\252\267"
 110      4D316A4F 
 110      11F5CD5B 
 110      45528336 
 110      EA458B7A 
 111 01b6 88FADDA2 		.ascii	"\210\372\335\242V\010\252\337\242V\225M\365\025Q\177"
 111      5608AADF 
 111      A256954D 
 111      F515517F 
 112 01c6 5AD490CD 		.ascii	"Z\324\220\315D\242F\313\246\372m\324\255\315\257\225"
 112      44A246CB 
 112      A6FA6DD4 
 112      ADCDAF95 
 113 01d6 121A16EB 		.ascii	"\022\032\026\353#P:<`\305\374\316\257\3761GB\375\302"
 113      23503A3C 
 113      60C5FCCE 
 113      AFFE3147 
 113      42FDC2
 114 01e9 3A69CF22 		.ascii	":i\317\"E\334HA\007Rt\206\273\350\244Z\331\030s#U8\220"
 114      45DC4841 
 114      07527486 
 114      BBE8A45A 
 114      D9187323 
 115 0200 E214A793 		.ascii	"\342\024\247\223V\276\231c\252r#\205\034H\011\2123H"
 115      56BE9963 
 115      AA722385 
 115      1C48098A 
 115      3348
 116 0212 8F9B6463 		.ascii	"\217\233dc\265\033)\354@JR\234Nze\215\251\306\215T\351"
 116      B51B29EC 
 116      404A529C 
 116      4E7A658D 
 116      A9C68D54 
 117 0227 404A519C 		.ascii	"@JQ\234$\231>\325\272\221\"\016\244:\2123V\2015\246"
 117      24993ED5 
 117      BA91220E 
 117      A43A8A33 
 117      568135A6 
 118 023b 7A3752D4 		.ascii	"z7R\324\201\324@q\222d\372\324\350F\2129\220\232(\316"
 118      81D44071 
 118      9264FAD4 
 118      E8468A39 
 118      909A28CE 
 119 024f 5805D698 		.ascii	"X\005\326\230\232\335Hq\007R\232\342\014\222\365\356"
 119      9ADD4871 
 119      07529AE2 
 119      0C92F5EE 
ARM GAS  /tmp/ccEbaEuu.s 			page 9


 120 025f 5ADC4855 		.ascii	"Z\334HU\016\244V\2123V\301\316\272\271\013\265\271\241"
 120      0EA4568A 
 120      3356C1CE 
 120      BAB90BB5 
 120      B9A1
 121 0271 120EA876 		.ascii	"\022\016\250v\212\223\250=\263\265\303\015U\355\200"
 121      8A93A83D 
 121      B3B5C30D 
 121      55ED80
 122 0280 EAA43863 		.ascii	"\352\2448c\035\024\214\252\313\015\225t@uS\234h\375"
 122      1D148CAA 
 122      CB0D9574 
 122      4075539C 
 122      68FD
 123 0292 B2B9B36B 		.ascii	"\262\271\263k\242z\006a\200P\306\316rL\305Dij\215\250"
 123      A27A0661 
 123      8050C6CE 
 123      724CC544 
 123      696A8DA8 
 124 02a6 B9050AAE 		.ascii	"\271\005\012\256\342\034\275\004\2249\326<\262\265\317"
 124      E21CBD04 
 124      9439D63C 
 124      B2B5CF
 125 02b5 96E36C39 		.ascii	"\226\343l99\3209G?\001e\216O^\331\232\261\345X,'\207"
 125      39D03947 
 125      3F01658E 
 125      4F5ED99A 
 125      B1E5582C 
 126 02cb E29C6380 		.ascii	"\342\234c\200\200z\216\275\002\257\006\313\364*U\226"
 126      807A8EBD 
 126      02AF06CB 
 126      F42A5596 
 127 02db 575902CA 		.ascii	"WY\002\312\034\226WG\312\364\252 \207\213WG\011(sX^"
 127      1C965747 
 127      CAF4AA20 
 127      878B5747 
 127      09287358 
 128 02f0 0D95E955 		.ascii	"\015\225\351UA\016\027\257\206\011\010\360\021\326\265"
 128      410E17AF 
 128      860908F0 
 128      11D6B5
 129 02ff CBB26964 		.ascii	"\313\262id\021\366\265;Z\\\305\352\011\343\214\327["
 129      11F6B53B 
 129      5A5CC5EA 
 129      09E38CD7 
 129      5B
 130 0310 F8144BCE 		.ascii	"\370\024K\316\241\021+\3205\232\"\036\256h\332\013\272"
 130      A1112BD0 
 130      359A221E 
 130      AE68DA0B 
 130      BA
 131 0321 4DA521F9 		.ascii	"M\245!\371H[9\251\322\256e\364\022_(~\372\"\240\343"
 131      485B39A9 
 131      D2AE65F4 
 131      125F287E 
 131      FA22A0E3 
 132 0335 9BCE5A3A 		.ascii	"\233\316Z:\030\305\211\024\025g@B\354\272)\261\3175"
ARM GAS  /tmp/ccEbaEuu.s 			page 10


 132      18C58914 
 132      15674042 
 132      ECBA29B1 
 132      CF35
 133 0347 889D252D 		.ascii	"\210\235%-~\313\355\342\267\323-\226d\277x\241Ya\307"
 133      7ECBEDE2 
 133      B7D32D96 
 133      64BF78A1 
 133      5961C7
 134 035a B08A7562 		.ascii	"\260\212ub\016\277\362/\357\015\312\001\217\322\230"
 134      0EBFF22F 
 134      EF0DCA01 
 134      8FD298
 135 0369 790EB7D7 		.ascii	"y\016\267\327\314i\0357\347P?a\234\25338fLc\3016\015"
 135      CC691D37 
 135      E7503F61 
 135      9CAB3338 
 135      664C63C1 
 136 037f 8AE79934 		.ascii	"\212\347\2314\000}\267\321\276\366\031\226\0120\272"
 136      007DB7D1 
 136      BEF61996 
 136      0A30BA
 137 038e 69E36403 		.ascii	"i\343d\003}\2551'2\231\273\226\233\317\315]\235\235"
 137      7DAD3127 
 137      3299BB96 
 137      9BCFCD5D 
 137      9D9D
 138 03a0 CA4E8067 		.ascii	"\312N\200gv\352\312B\327\344@\327\274\375/;<-\213\241"
 138      76EACA42 
 138      D7E440D7 
 138      BCFD2F3B 
 138      3C2D8BA1 
 139 03b4 69DB6DA9 		.ascii	"i\333m\251\266cfQ\324o\314\271\010\301\177W\327s\334"
 139      B6636651 
 139      D46FCCB9 
 139      08C17F57 
 139      D773DC
 140              		.text
 141              		.section	.gnu.lto_datasample_gpsToSample.6ab4b878b8c93de3,"",%progbits
 142 0000 789C9D93 		.ascii	"x\234\235\223\277K\303@\024\307\337\367\222\230455\305"
 142      BF4BC340 
 142      14C7DFF7 
 142      92983435 
 142      35C5
 143 0012 A94E82A3 		.ascii	"\251N\202\243\340\177\340\177\340XQ\307X\245\004,\010"
 143      E07FE07F 
 143      E05851C7 
 143      58A5042C 
 143      08
 144 0023 75B24353 		.ascii	"u\262CS\177\200\203BA\\tQ\034\004-v\027\207Nn*\376\007"
 144      7F808342 
 144      415C7451 
 144      1C042D76 
 144      17874E6E 
 145 003a FD3B3A58 		.ascii	"\375;:X\337]\322\246)\015\264\036\344\356\005\336}\336"
 145      DF5DD2A6 
 145      290DB41E 
ARM GAS  /tmp/ccEbaEuu.s 			page 11


 145      E4EE05DE 
 145      7DDE
 146 004c FBE42E82 		.ascii	"\373\344.\202\004\215\217\002?\033:\321\002\257\320"
 146      048D8F02 
 146      3F1B3AD1 
 146      02AFD0
 147 005b 08A2F945 		.ascii	"\010\242\371E\324\260\004 \003\002\325\005\352;P\271"
 147      D4B00420 
 147      0302D505 
 147      EA3B50B9 
 148 006b 6DD1E9F6 		.ascii	"m\321\351\366\373\257\357\037\367-`\021\250\200\201"
 148      FBAFEF1F 
 148      F72D6011 
 148      A88081
 149 007a 3E48E308 		.ascii	">H\343\010:G0\345d\361$l\031ee\344\360\244\345\344\253"
 149      3A4730E5 
 149      64F1246C 
 149      196565E4 
 149      F0A4E5E4 
 150 008f 2B93F332 		.ascii	"+\223\3632b\230AgA\320\\&*)x\221gYq\023B\256\332'\235"
 150      62984167 
 150      41D05C26 
 150      2A297891 
 150      67597113 
 151 00a8 F44EFB97 		.ascii	"\364N\373\227K\036\036`P\031\242F\307\274{\225\236\003"
 151      4B1E1E60 
 151      5019A246 
 151      C7BC7B95 
 151      9E03
 152 00ba 1EEB3EF4 		.ascii	"\036\353>\364;\272\205\017\243\014l\363:\247:\334\305"
 152      3BBA850F 
 152      A30C6CF3 
 152      3AA73ADC 
 152      C5
 153 00cb 889A42BC 		.ascii	"\210\232B\274a@\320\025\001\021\241\352\303\014\011"
 153      6140D015 
 153      0111A1EA 
 153      C30C09
 154 00da 56199A24 		.ascii	"V\031\232$d\"\302\010\342\233\316;\205p?Q\215z\301E"
 154      6422C208 
 154      E29BCE3B 
 154      85703F51 
 154      8D7AC145 
 155 00ee E0FAB04B 		.ascii	"\340\372\260KQ\016w\305X\2375\303Z\217W\303v\315D\261"
 155      510E77C5 
 155      589F35C3 
 155      5A8F57C3 
 155      76CD44B1 
 156 0102 2D2E1677 		.ascii	"-.\026w>?\271s\021\255\332\230Aoh`)\250\210H\327\274"
 156      3E3FB973 
 156      11ADDA98 
 156      416F6860 
 156      29A88848 
 157 0118 D799ACA0 		.ascii	"\327\231\254\240\317\240`27Vx\212\025\354\377+\030c"
 157      CFA06032 
 157      3756788A 
 157      15ECFF2B 
ARM GAS  /tmp/ccEbaEuu.s 			page 12


 157      1863
 158 012a 0ABF4385 		.ascii	"\012\277C\205lB\341&]an\006\005\233\271\261\302K\254"
 158      6C42E126 
 158      5D616E06 
 158      059BB9B1 
 158      C24BAC
 159 013d E0A86A5A 		.ascii	"\340\250jZ\254\220\233Z\301L=\205\\\342\273\310SH\271"
 159      AC909B5A 
 159      C14C3D85 
 159      5CE2BBC8 
 159      5348B9
 160 0150 48D60C0A 		.ascii	"H\326\014\012\016sc\205v\254\340&\356=+\350S+dR\025"
 160      0E736385 
 160      76ACE026 
 160      EE3D2BE8 
 160      532B6452 
 161 0165 F2D32AD8 		.ascii	"\362\323*\3303(\270\314U\012?\324\350\266V\006\251\341"
 161      3328B8CC 
 161      550A3FD4 
 161      E8B65606 
 161      A9E1
 162 0177 28721AFF 		.ascii	"(r\032\377\326\2625g\317;\362\252^\345\360`\177\255"
 162      D6B23567 
 162      CF3BF2AA 
 162      5EE5F060 
 162      7FAD
 163 0189 447F7FFF 		.ascii	"D\177\177\377\346\346"
 163      E6E6
 164              		.text
 165              		.section	.gnu.lto_datasample_sensorsToSample.6ab4b878b8c93de3,"",%progbits
 166 0000 789CAD96 		.ascii	"x\234\255\226\301k\023Q\020\306g\336&\351v\233\244i"
 166      C16B1351 
 166      10C667DE 
 166      26E9769B 
 166      A469
 167 0012 8C318D31 		.ascii	"\2141\2151\256i\010!U\257\376#\025\364\030\253\204\202"
 167      AE690821 
 167      55AFFE23 
 167      15F418AB 
 167      8482
 168 0024 0541EF4D 		.ascii	"\005A\357M\213\177@\216\245^\332\253H\275\366\330\223"
 168      8B7F408E 
 168      A55EDAAB 
 168      48BDF6D8 
 168      93
 169 0035 B407456F 		.ascii	"\264\007Eo\245 \344\330\236\"-\304\342\245\276\311N"
 169      A520E4D8 
 169      9E222DC4 
 169      E2A5BEC9 
 169      4E
 170 0046 F63DA40C 		.ascii	"\366=\244\014\341\231\007\371\336&\354\354\357\233\367"
 170      E19907F9 
 170      DE26ECEC 
 170      EF9BF7
 171 0055 0D611528 		.ascii	"\015a\025(\370w-\352\317\317Y\200y\275\243\007\250z"
 171      F8772DEA 
 171      CFCF5980 
ARM GAS  /tmp/ccEbaEuu.s 			page 13


 171      79BDA307 
 171      A87A
 172 0067 DF00367D 		.ascii	"\337\0006}\205H\027\200\260\241p\3439\216\356\375\254"
 172      85481780 
 172      B0A170E3 
 172      398EEEFD 
 172      AC
 173 0078 0EFBD7D7 		.ascii	"\016\373\327\327\373W_v\317\021\037*\\G\360`\015!\241"
 173      FB575F76 
 173      CF111F2A 
 173      5C47F060 
 173      0D21A1
 174 008b AF304557 		.ascii	"\2570EW>I@\222&\311\222\344H\362$\005\222\"I\211\244"
 174      3E494092 
 174      26C992E4 
 174      48F22405 
 174      92224989 
 175 00a0 4C5221A9 		.ascii	"LR!\251\222\204$5\222:I\203\244I\322\"\321+\011\357"
 175      92842435 
 175      923A4983 
 175      A449D222 
 175      D12B09EF 
 176 00b4 BBDD5E08 		.ascii	"\273\335^\010\260:\372\272\242\225<>EE\273\367\025\266"
 176      B03AFABA 
 176      A2953C3E 
 176      4545BBF7 
 176      15B6
 177 00c6 4E0F067D 		.ascii	"N\017\006}\257\215{\230\204\016z\313\320\322\205\037"
 177      AF8D7B98 
 177      840E7ACB 
 177      D0D2851F 
 178 00d6 6007D710 		.ascii	"`\007\327\020;\250\236\351=:\200\0278n_\027\035\377"
 178      3BA89EE9 
 178      3D3A8017 
 178      386E5F17 
 178      1DFF
 179 00e8 0AA29265 		.ascii	"\012\242\222e\370\330\325+\023\027y\035LPQ\202\213\242"
 179      F8D8D52B 
 179      1317791D 
 179      4C505182 
 179      8BA2
 180 00fa 2AFDE451 		.ascii	"*\375\344Q\335\351\311\340,\206\245$\230\262`\275\271"
 180      DDE9C9E0 
 180      2C86A524 
 180      98B260BD 
 180      B9
 181 010b 09611EC3 		.ascii	"\011a\036\303R\021\354jp\022\303|\011\226\260`\337'"
 181      5211EC6A 
 181      7012C37C 
 181      0996B060 
 181      DF27
 182 011d ED2CC930 		.ascii	"\355,\3110?\202m_\030X \301R.\260\031\206\005\021\354"
 182      3F826D5F 
 182      185820C1 
 182      522EB019 
 182      860511EC 
 183 0131 C082A525 		.ascii	"\300\202\245%\230\357\002\233eX\2323\263`Y\011\026\270"
ARM GAS  /tmp/ccEbaEuu.s 			page 14


 183      98EF029B 
 183      65589A33 
 183      B3605909 
 183      16B8
 184 0143 C0E61896 		.ascii	"\300\346\030\226\345\314.\3144\346$X\332e\0323\014\313"
 184      E5CC2ECC 
 184      34E62458 
 184      DA651A33 
 184      0CCB
 185 0155 71669766 		.ascii	"qf\227f\032\363\022,\3532\215\363\014\313sf\227\346"
 185      1AF3122C 
 185      EB328DF3 
 185      0CCB7366 
 185      97E6
 186 0167 180B122C 		.ascii	"\030\013\022,\347r\214\013\014+pfVgE\011\226w\351\354"
 186      E7728C0B 
 186      0C2B7066 
 186      56674509 
 186      9677E9EC 
 187 017b 16C38A9C 		.ascii	"\026\303\212\234\231\005+I\260\202\013\3546\303J\234"
 187      99052B49 
 187      B0820BEC 
 187      36C34A9C 
 188 018b D9D00C48 		.ascii	"\331\320\014HY\202\025]\006\344\016\303\312\234\331"
 188      5982155D 
 188      06E40EC3 
 188      CA9CD9
 189 019a F0288655 		.ascii	"\360(\206U$X\311\356lR\330\"\303*\234\331\360L\215a"
 189      2458C9EE 
 189      6C52D822 
 189      C32A9CD9 
 189      F04C8D61 
 190 01ae 550956B6 		.ascii	"U\011V\266a3\023\302\3562\254\312\231\015\017\343\316"
 190      613313C2 
 190      EE32ACCA 
 190      990D0FE3 
 190      CE
 191 01bf 420956B1 		.ascii	"B\011V\261\217\221a\217\340\023\301\236\350\"\303M\336"
 191      8F91618F 
 191      E013C19E 
 191      E822C34D 
 191      DE
 192 01d0 CCBD37DA 		.ascii	"\314\2757\332\351\227\361\037\037\271\0109\314\337\306"
 192      E997F11F 
 192      1FB90839 
 192      CCDFC6
 193 01df 454D7251 		.ascii	"EMrQ\235\236\0134.j\234\262\345\242.\271\270?=\027\312"
 193      9D9E0B34 
 193      2E6A9CB2 
 193      E5A22EB9 
 193      B83F3D17 
 194 01f4 B8A873FC 		.ascii	"\270\250s\374\226\213\206\344\"\374O\027\017nL\244\301"
 194      968B86E4 
 194      22FC4F17 
 194      0F6E4CA4 
 194      C1
 195 0205 7361B968 		.ascii	"sa\271hJ.j\323sa%\322\344\271\370c\\\264$\027K\323s"
ARM GAS  /tmp/ccEbaEuu.s 			page 15


 195      4A2E6AD3 
 195      736125D2 
 195      E4B9F863 
 195      5CB42417 
 196 021c 6125D202 		.ascii	"a%\322\002\370\001\233\375\363\245\350\201\343\265\242"
 196      F8019BFD 
 196      F3A5E881 
 196      E3B5A2
 197 022b DF66F45B 		.ascii	"\337f\364[\023\335\230y\331~\327~\333^\177\363\372\325"
 197      13DD9879 
 197      D97ED77E 
 197      DB5E7FF3 
 197      FAD5
 198 023d E355F80B 		.ascii	"\343U\370\013\024\201\356g"
 198      1481EE67 
 199              		.text
 200              		.section	.gnu.lto_.symbol_nodes.6ab4b878b8c93de3,"",%progbits
 201 0000 789C4DCA 		.ascii	"x\234M\3121\022\3020\014D\321\325*\016\307\310Q\025"
 201      3112C230 
 201      0C44D1D5 
 201      2A0EC7C8 
 201      5115
 202 0012 303829A9 		.ascii	"08)\251)h|\024\367p\005\230\2649\003\003&\032\214\232"
 202      29687C14 
 202      F7700598 
 202      B4390303 
 202      261A8C9A 
 203 0026 375FB304 		.ascii	"7_\263\004q\207\037\3674\340|\003\314\256\2630\322\244"
 203      71871FF7 
 203      34E07C03 
 203      CCAEB330 
 203      D2A4
 204 0038 6538109D 		.ascii	"e8\020\235)\2174\376\215N4m)\211\326m9\216\"3-\264\232"
 204      298F34FE 
 204      8D4E346D 
 204      2989D66D 
 204      398E2233 
 205 004f 68FDAF14 		.ascii	"h\375\257\024\001\371\361\372\272\270\371\351\355\346"
 205      01F9F1FA 
 205      BAB8F9E9 
 205      EDE6
 206 005d B40E2A3B 		.ascii	"\264\016*;\304K\265G\251j@\251{\365\375\307\230\266"
 206      C44BB547 
 206      A96A40A9 
 206      7BF5FDC7 
 206      98B6
 207 006f FFE29669 		.ascii	"\377\342\226i\035\360\006\272\200=\226"
 207      1DF006BA 
 207      803D96
 208              		.text
 209              		.section	.gnu.lto_.refs.6ab4b878b8c93de3,"",%progbits
 210 0000 789C6362 		.ascii	"x\234cb`b`g\200\000&F& `\000\000\000\364\000\027"
 210      60626067 
 210      80002646 
 210      26206000 
 210      0000F400 
 211              		.text
ARM GAS  /tmp/ccEbaEuu.s 			page 16


 212              		.section	.gnu.lto_.decls.6ab4b878b8c93de3,"",%progbits
 213 0000 789CBD7D 		.ascii	"x\234\275}\011tT\307\225\366[z\221\220\014\330Nb \316"
 213      097454C7 
 213      95F65B7A 
 213      91900CD8 
 213      4E6220CE 
 214 0014 A43393CC 		.ascii	"\2443\223\314\370\317\237X\002\023\033\317\374\023/"
 214      F8CF9F58 
 214      02131BCF 
 214      FC132F
 215 0023 026CCE80 		.ascii	"\002l\316\200\341\0102\261\347\374\3474\217\356\026"
 215      E10832B1 
 215      E7FCE734 
 215      8FEE16
 216 0032 EA44526B 		.ascii	"\352DRk\272\233\355\377sN\036\302\0261`\263\033\314"
 216      BA9BEDFF 
 216      734E1EC2 
 216      163160B3 
 216      1BCC
 217 0044 2204180C 		.ascii	"\"\004\030\014\306\020v\314\352\006l\004\310\200Xl\263"
 217      C61076CC 
 217      EA066C04 
 217      C880586C 
 217      B3
 218 0055 23C00E8B 		.ascii	"#\300\016\213\215\315\016\002\214\346\326\255\367\272"
 218      8DCD0E02 
 218      8CE6D6AD 
 218      F7BA
 219 0063 AB9EFA75 		.ascii	"\253\236\372u\327\223\347L\237S\367UW\277\372\352\336"
 219      D793E74C 
 219      9F53F755 
 219      57BFFAEA 
 219      DE
 220 0074 5BB76EDD 		.ascii	"[\267n\335\252\267\264\")\322\"U\222\232\341\363d\225"
 220      AAB7B422 
 220      29D22255 
 220      929AE1F3 
 220      6495
 221 0086 247DF180 		.ascii	"$}\361\200$\271%I\372-\244\\Hs!\315\203\264\010\322"
 221      24B92549 
 221      FA2DA45C 
 221      487321CD 
 221      83B408D2 
 222 009a 62484B20 		.ascii	"bHK -\203\264\002\322jHk$\372\361BZ\007\311-KR\020\360"
 222      2D83B402 
 222      D26A486B 
 222      24FAF142 
 222      5A07C92D 
 223 00b2 FE04692D 		.ascii	"\376\004i-\244\215\220\266A\202bi\247*q\037r\376C\220"
 223      A48D90B6 
 223      41826269 
 223      A72A711F 
 223      72FE4390 
 224 00c6 7643793D 		.ascii	"vCy=\244O \355\202\357\033!m\200\264GM\265\273\016\362"
 224      A44F20ED 
 224      82EF1B21 
 224      6D80B447 
ARM GAS  /tmp/ccEbaEuu.s 			page 17


 224      4DB5BB0E 
 225 00db 074919C3 		.ascii	"\007I\031\303\323\021H\217C\272\007\311\005\351G\244"
 225      D311488F 
 225      43BA07C9 
 225      05E947A4 
 226 00eb 0D489F40 		.ascii	"\015H\237@:\000\3513H\207!\035\207t\012\322iHM\220\316"
 226      3A00E933 
 226      4887211D 
 226      87740AD2 
 226      69484D90 
 227 0100 42FA12D2 		.ascii	"B\372\022\3229H\027 }\005\351\022\244o!]\201t\015\322"
 227      39481720 
 227      7D05E912 
 227      A46F215D 
 227      81740DD2 
 228 0114 0D48B720 		.ascii	"\015H\267 \335\205\324\014I1\370]k\310\242\310\274,"
 228      DD85D40C 
 228      4931F85D 
 228      6BC8A2C8 
 228      BC2C
 229 0126 44EE470D 		.ascii	"D\356G\015>\332B\3127t\302\312Fx-\204D\324\340\205\363"
 229      3EDA42CA 
 229      3774C2CA 
 229      46782D84 
 229      44D4E085 
 230 013b B732B212 		.ascii	"\2672\262\022\271M\371\216\0302\355U\251\276Y]o\207"
 230      B94DF98E 
 230      1832ED55 
 230      A9BE595D 
 230      6F87
 231 014d B27D2AED 		.ascii	"\262}*\355\203Mp|\004\216\211\014r\3370d=\313\350\340"
 231      834D707C 
 231      048E890C 
 231      72DF3064 
 231      3DCBE8E0 
 232 0161 8221FB35 		.ascii	"\202!\3735C^V\376[\206\216L\271UC\266mF_\222\357\003"
 232      435E56FE 
 232      5B868E4C 
 232      B95543B6 
 232      6D465F92 
 233 0177 81686ACB 		.ascii	"\201hj\313\376$\375\336\216\221\271!M\237\022\031K\241"
 233      FE24FDDE 
 233      8E91B921 
 233      4D9F1219 
 233      4BA1
 234 0189 6CB04AFB 		.ascii	"l\260J\373\227\364+\221\271R\245r\347\031\262T\250)"
 234      97F42B91 
 234      B952A572 
 234      E719B254 
 234      A829
 235 019b 79222A95 		.ascii	"y\"*\225)\252R\271b*\225-\256\322~\011\032\266F\362"
 235      29AA52B9 
 235      622A952D 
 235      AED27E09 
 235      1AB646F2 
 236 01af 23E038CC 		.ascii	"#\3408\314\302\027\261E\322\027D\377:\344\377\254\246"
 236      C217B145 
ARM GAS  /tmp/ccEbaEuu.s 			page 18


 236      D21744FF 
 236      3AE4FFAC 
 236      A6
 237 01c0 F8316DE7 		.ascii	"\3701m\347\347\220\306\253TG\023U\252\247i*\325\335"
 237      E790C6AB 
 237      54471355 
 237      AAA7692A 
 237      D5DD
 238 01d2 5495EA6F 		.ascii	"T\225\352o\246Ju\367\266J\3657V\245\272{C\245\372\233"
 238      A64A75F7 
 238      B64AF537 
 238      56A5BA7B 
 238      43A5FA9B 
 239 01e6 AC521DCE 		.ascii	"\254R\035\316Q\251ng\253T\277\243U\332\017\257\253T"
 239      51A96E67 
 239      AB54BFA3 
 239      55DA0FAF 
 239      AB54
 240 01f8 BF4B55AA 		.ascii	"\277KU\252\343\271*\325\363|8.\200\364\256Ju\276\230"
 240      E3B92AD5 
 240      F37C382E 
 240      80F4AE4A 
 240      75BE98
 241 020b F4BB6167 		.ascii	"\364\273ag\1772\344Z\011\307\325\026\271\362\2441\272"
 241      7F32E45A 
 241      09C7D516 
 241      B9F2A431 
 241      BA
 242 021c 5EA5D756 		.ascii	"^\245\327V\353/\356l\373\2404A\207O\355\263\323\333"
 242      EB2FEE6C 
 242      FBA03441 
 242      874FEDB3 
 242      D3DB
 243 022e E64A7F21 		.ascii	"\346J\177!\345\215\013\364\016\035$\351eY\223\241(\007"
 243      E58D0BF4 
 243      0E1D24E9 
 243      655993A1 
 243      2807
 244 0240 33F9B988 		.ascii	"3\371\271\210\372\013\351\0358\027*(\232<_\316\205\026"
 244      FA0BE91D 
 244      38172A28 
 244      9A3C5FCE 
 244      8516
 245 0252 ACF66C7E 		.ascii	"\254\366l~\350\357\277\224\026\323\363\317XO#\240\344"
 245      E8EFBF94 
 245      16D3F3CF 
 245      584F23A0 
 245      E4
 246 0263 8C54AE59 		.ascii	"\214T\256YN\266\331\336lS1\260\346\311\017b\0169\324"
 246      4EB6D9DE 
 246      6C5331B0 
 246      E6C90F62 
 246      0E39D4
 247 0276 0DCEF10C 		.ascii	"\015\316\361\014\243\206\317\254\3412j\274\213\330\222"
 247      A386CFAC 
 247      E1326ABC 
 247      8BD892
ARM GAS  /tmp/ccEbaEuu.s 			page 19


 248 0285 592CB152 		.ascii	"Y,\261R\230\345\351\352\315\225\3632\251\3117\275-\345"
 248      98E5E9EA 
 248      CD95F332 
 248      A9C937BD 
 248      2DE5
 249 0297 D6A85F68 		.ascii	"\326\250_h\326\367\030\365\027;\346\364=\033N\335Y8"
 249      D6F718F5 
 249      173BE6F4 
 249      3D1B4EDD 
 249      5938
 250 02a9 5DE48C53 		.ascii	"]\344\214S=\311\252n\362\372\276c^\227\332\360\332\234"
 250      3DC9AA6E 
 250      F2FABE63 
 250      5E97DAF0 
 250      DA9C
 251 02bb 8DD92529 		.ascii	"\215\331%)fs\244\321he\257\351#\345\377\314nf\313\344"
 251      6673A4D1 
 251      6865AFE9 
 251      23E5FFCC 
 251      6E66CBE4 
 252 02cf 1C3083B6 		.ascii	"\0340\203\266\266fF~7[\246y3'\033\222\231\212I\317\035"
 252      B666467E 
 252      375BA679 
 252      33271B92 
 252      998A49CF 
 253 02e4 B635A1F1 		.ascii	"\2665\241\361\310\362\331\005\272\236\243\311+\320\254"
 253      C8F2D905 
 253      BA9EA3C9 
 253      2BD0AC
 254 02f3 5F90017A 		.ascii	"_\220\001z\241\374\313d3\356\\\276Y\370n\236@\300\334"
 254      A1FCCB64 
 254      33EE5CBE 
 254      59F86E9E 
 254      40C0DC
 255 0306 B9A90C99 		.ascii	"\271\251\014\231\022\333\211u\312\007^\223\225a\006"
 255      12DB8975 
 255      CA075E93 
 255      956106
 256 0315 EE1AC77D 		.ascii	"\356\032\307}\262\326\246O\206f\351\222\325\251.\371"
 256      B2D6A64F 
 256      8666E992 
 256      D5A92EF9 
 257 0325 A954A3D7 		.ascii	"\251T\243\32766n\336\261\252\243^[\225hn~\006\346\304"
 257      36366EDE 
 257      B1AAA35E 
 257      5B95686E 
 257      7E06E6C4 
 258 0339 A946FBBA 		.ascii	"\251F\373\272\034\327\344\337\376\320\026\347\003\371"
 258      1CD7E4DF 
 258      FED016E7 
 258      03F9
 259 0347 479853E9 		.ascii	"G\230S\351h\345\304~H\232\210b3\312O\344\232\000\323"
 259      68E5C47E 
 259      489A8862 
 259      33CA4FE4 
 259      9A00D3
 260 035a 935D3DA1 		.ascii	"\223]=\241\261\251z\357\317P\375\033\345\207\000\347"
ARM GAS  /tmp/ccEbaEuu.s 			page 20


 260      B1A97AEF 
 260      CF50FD1B 
 260      E58700E7 
 261 036a 0FBCFAB3 		.ascii	"\017\274\372\263\303\020F\266@UZ\213\332O\342T\310G"
 261      C31046B6 
 261      40555A8B 
 261      DA4FE254 
 261      C847
 262 037c 4B250E8D 		.ascii	"K%\016\215\373\374L\252\005v\023\327\232v\312\372\244"
 262      FBFC4CAA 
 262      057613D7 
 262      9A76CAFA 
 262      A4
 263 038d 7C717B39 		.ascii	"|q{95\372\343\255r\025(G\223\267\242\305\314\222y\236"
 263      35FAE3AD 
 263      72152847 
 263      93B7A2C5 
 263      CC92799E 
 264 03a1 C5A1668E 		.ascii	"\305\241f\216\335\3644\312\376\021\002\035\225\255\266"
 264      DDF434CA 
 264      FE11021D 
 264      95ADB6
 265 03b0 E7B5D89E 		.ascii	"\347\265\330\236\227\267=on*c\330\236\303\323\025\351"
 265      97B73D6F 
 265      6E2A63D8 
 265      9EC3D315 
 265      E9
 266 03c1 4B6C94E8 		.ascii	"Kl\224\350*\035\243I\323b\354\211\325\237\016\375\267"
 266      2A1DA349 
 266      D362EC89 
 266      D59F0EFD 
 266      B7
 267 03d2 B9D3483D 		.ascii	"\271\323H=1R5\015\275\003g\347\375L\2106\006O\273\034"
 267      3152350D 
 267      BD0367E7 
 267      FD4C8836 
 267      064FBB1C 
 268 03e6 9BF96E1B 		.ascii	"\233\371n\033379Q\244\363V\031\270V\323\311\340ceH\334"
 268      33373951 
 268      A4F35619 
 268      B856D3C9 
 268      E0636548 
 269 03fb 5A90AB57 		.ascii	"Z\220\253W\347\233\2666=\325i\020\257\030\265\237N\366"
 269      E79BB636 
 269      3DD56910 
 269      AF18B59F 
 269      4EF6
 270 040d 5AE2F31C 		.ascii	"Z\342\363\034pN{\320Z/\311\351\315\325\026\202\310\323"
 270      704E7BD0 
 270      5A2FC9E9 
 270      CDD51682 
 270      C8D3
 271 041f 60B5D68D 		.ascii	"`\265\326\215A\037-\315f\255z\342\303\3639\300izU\353"
 271      411F2DCD 
 271      66AD7AE2 
 271      C3F339C0 
 271      697A55EB 
ARM GAS  /tmp/ccEbaEuu.s 			page 21


 272 0433 B2D9527B 		.ascii	"\262\331R{\243\245\203\216u}\310F\327\246e)R\023\212"
 272      A3A5838E 
 272      757DC846 
 272      D7A66529 
 272      52138A
 273 0446 DC90D235 		.ascii	"\334\220\3225\337lV\203I4\270\246\027R\326\024\251J"
 273      DF6C5683 
 273      4934B8A6 
 273      1752D614 
 273      A94A
 274 0458 11016B6F 		.ascii	"\021\001ko\017v\000\300\322kc8\317\272&\037q\254\214"
 274      0F7600C0 
 274      D26B6338 
 274      CFBA261F 
 274      71AC8C
 275 046b A336CA68 		.ascii	"\2436\312h\233T\3068+\377\\\253F\326g\317\376!\324\305"
 275      9B54C638 
 275      2BFF5CAB 
 275      46D667CF 
 275      FE21D4C5 
 276 047f 2ED4C554 		.ascii	".\324\305T+V:#~\214\305\352\226\316P\244\026V\246\311"
 276      2B563A23 
 276      7E8CC5EA 
 276      96CE50A4 
 276      1656A6C9 
 277 0493 FBE55F00 		.ascii	"\373\345_\000= \377\014\350gH\017#=\0164\371Q\244\032"
 277      3D20FF0C 
 277      E867480F 
 277      233D0E34 
 277      F951A41A 
 278 04a7 C5328C78 		.ascii	"\3052\214x\3335\262\251I\027\243 V\234\246K\323U\360"
 278      DB35B2A9 
 278      4917A320 
 278      569CA64B 
 278      D355F0
 279 04ba A59AFC78 		.ascii	"\245\232\374x\033\200\233g\205K\347Y^\264W\316\235="
 279      1B809B67 
 279      854BE759 
 279      5EB457CE 
 279      9D3D
 280 04cc F2CE4203 		.ascii	"\362\316B\003k\251c,\037\207u\217\301Z/\202\325\317"
 280      6BA9632C 
 280      1F87758F 
 280      C15A2F82 
 280      D5CF
 281 04de 9EAFFB0C 		.ascii	"\236\257\373\014\326v\307X<_\023vt\234\240\031X{D\260"
 281      D676C758 
 281      3C5F1376 
 281      749CA019 
 281      587B44B0 
 282 04f2 5EB6E76B 		.ascii	"^\266\347k\022\203\365\271c,\236\257)\014\326i\021\254"
 282      1283F5B9 
 282      632C9EAF 
 282      290CD669 
 282      11AC
 283 0504 81F67CBD 		.ascii	"\201\366|\275\305`}\355\030\213\347k:\203u[\004\253"
 283      C5607DED 
ARM GAS  /tmp/ccEbaEuu.s 			page 22


 283      188BE76B 
 283      3A83755B 
 283      04AB
 284 0516 D49EAF19 		.ascii	"\324\236\257\031\014V\225\352\024\213\347k\026\203\365"
 284      0C5695EA 
 284      148BE76B 
 284      1683F5
 285 0525 A60856A5 		.ascii	"\246\010V\245=_5\014\326\014\307X<_\313\031\254\005"
 285      3D5F350C 
 285      D60CC758 
 285      3C5FCB19 
 285      AC05
 286 0537 2258C3ED 		.ascii	"\"X\303\355\371Z\311`-u\214\305\363\265\272\347\004"
 286      F95AC960 
 286      2D758CC5 
 286      F3B5BAE7 
 286      04
 287 0548 CDF4DBC4 		.ascii	"\315\364\333\304\013\003\250q\336@\263v>\236\257\311"
 287      0B03A871 
 287      DE40B376 
 287      3E9EAFC9 
 288 0558 F71CFBED 		.ascii	"\367\034\373\355\357l\374\266b\310\243H+\254\354s\255"
 288      EF6CFCB6 
 288      62C8A348 
 288      2BACEC73 
 288      AD
 289 0569 1A595DB6 		.ascii	"\032Y]\266\327\305\332\236D\025\367\320q\257\021\001"
 289      D7C5DA9E 
 289      4415F7D0 
 289      71AF1101 
 290 0579 FB0B07E6 		.ascii	"\373\013\007\346\223l?l4\253\311\037\242\347N\240\267"
 290      936C3F6C 
 290      34ABC91F 
 290      A2E74EA0 
 290      B7
 291 058a DE89F413 		.ascii	"\336\211\364\023\244\247\220\236Fz\026\351\227H\317"
 291      A4A7909E 
 291      467A16E9 
 291      9748CF
 292 0599 21BD80F4 		.ascii	"!\275\200\364+\244\227\220~\213\364\012\322kHo \275"
 292      2BA49790 
 292      7E8BF40A 
 292      D26B486F 
 292      20BD
 293 05ab 85B409E9 		.ascii	"\205\264\011\351]\244\315\354\234`\247\341\015\251\025"
 293      5DA4CDEC 
 293      9C60A7E1 
 293      0DA915
 294 05ba 8426FF2E 		.ascii	"\204&\377.\265\311\000\316U\345#\242\237K\363u}\022"
 294      B5C900CE 
 294      55E523A2 
 294      9F4BF375 
 294      7D12
 295 05cc 2C30CEBA 		.ascii	",0\316\272\336\326\023.ZU\221v\341i\353\344\237\246"
 295      DED6132E 
 295      5A559176 
 295      E169EBE4 
ARM GAS  /tmp/ccEbaEuu.s 			page 23


 295      9FA6
 296 05de 6D22D9C0 		.ascii	"m\"\331\300?J\013H\237\277\241\277\326^\306\245\210"
 296      3F4A0B48 
 296      9FBFA1BF 
 296      D65EC6A5 
 296      88
 297 05ef 64D4E214 		.ascii	"d\324\342\0246RQ\330\002\272\246Il>M\002{\375^s\263"
 297      365251D8 
 297      02BAA649 
 297      6C3E4D02 
 297      7BFD5E73 
 298 0604 CAAF690C 		.ascii	"\312\257i\014C\"\233\035L\234\326r\031\012\241~\335"
 298      43229B1D 
 298      4C9CD672 
 298      190AA17E 
 298      DD
 299 0615 FBBFC4F8 		.ascii	"\373\277\304\370|\264B\254\247\336\"\2338\320\314zc"
 299      7CB442AC 
 299      A7DE229B 
 299      38D0CC7A 
 299      63
 300 0626 8D390681 		.ascii	"\2159\006\201\016X\2004Y\262\004\372\022\037\271\303"
 300      0E588034 
 300      59B204FA 
 300      121FB9C3 
 301 0636 57BDD9F8 		.ascii	"W\275\331\370\310\1776J\376,\265\252\216]\237V+\334"
 301      C87F364A 
 301      FE2CB5AA 
 301      8E5D9F56 
 301      2BDC
 302 0648 6A8EF681 		.ascii	"j\216\366\201\350\322.\031\266uH\011}\253fu7\024z\202"
 302      E8D22E19 
 302      B6754809 
 302      7DAB6675 
 302      37147A82 
 303 065c 4262E50B 		.ascii	"Bb\345\013\026\241\263\302(\3225\2542Y\261\304\313s"
 303      16A1B3C2 
 303      28D235AC 
 303      3259B1C4 
 303      CB73
 304 066e 341F2DCD 		.ascii	"4\037-\315\276\272[\325\224\220\3651\346\352N\257\326"
 304      BEBA5BD5 
 304      9490F531 
 304      E6EA4EAF 
 304      D6
 305 067f 1F5B946A 		.ascii	"\037[\224j\216\333lJ\256\356\326\375\012\231\236\206"
 305      8EDB6C4A 
 305      AEEED6FD 
 305      0A999E86 
 306 068f 3D75375D 		.ascii	"=u7]\227\013\001\315\034\373.]\333\315@\240W]\326.W"
 306      970B01CD 
 306      1CFB2E5D 
 306      DBCD40A0 
 306      575DD62E 
 307 06a4 2D5DAEF2 		.ascii	"-]\256\362\335\247\346\2462\304\204\235\235\254H\343"
 307      DDA7E6A6 
 307      32C4849D 
ARM GAS  /tmp/ccEbaEuu.s 			page 24


 307      9DAC48E3 
 308 06b4 5DA6EED2 		.ascii	"]\246\356\3221\231-L\257\202\336[\372c\030\261\257\252"
 308      31992D4C 
 308      AF82DE5B 
 308      FA6318B1 
 308      AFAA
 309 06c6 5CDF7321 		.ascii	"\\\337s!v\013\023\232\243$\335\202\"M\2622\220ua\351"
 309      760B139A 
 309      A324DD82 
 309      224DB232 
 309      907561E9 
 310 06da E3BA6EDD 		.ascii	"\343\272n\335\322]da\236\315\364\370\025\203\261D\233"
 310      D25D6461 
 310      9ECDF4F8 
 310      1583B144 
 310      9B
 311 06eb 7A490613 		.ascii	"zI\006\023\231\217v7\315\225\325\356x\014Ez\207V\261"
 311      998F7637 
 311      CD95D5EE 
 311      780C457A 
 311      8756B1
 312 06fe DADDB581 		.ascii	"\332\335\265\201>Z\232\335\356n]\337\331Z\346k?<{YA"
 312      3E5A9ADD 
 312      EE6E5DDF 
 312      D95AE66B 
 312      3F3C7B59 
 313 0713 CB5982FC 		.ascii	"\313Y\202\374oq\316\377\016\254\262\314\312\377\247"
 313      6F71CEFF 
 313      0EACB2CC 
 313      CAFFA7
 314 0722 84FF6542 		.ascii	"\204\377eB\374\037\251\025R~mr\201\3205e\371\353\377"
 314      FC1FA915 
 314      527E6D72 
 314      81D03565 
 314      F9EBFF
 315 0735 96786C14 		.ascii	"\226xl\024\356\217\254B\001F\271\263\012\300\343\340"
 315      EE8FAC42 
 315      0146B9B3 
 315      0AC0E3E0 
 316 0745 DE560BE6 		.ascii	"\336V\013\346\353\362u\027-\317\316\376\211\321s:\352"
 316      EBF27517 
 316      2DCFCEFE 
 316      89D1733A 
 316      EA
 317 0756 B5DBE474 		.ascii	"\265\333\344t\374\303\0112\253;\205]\247)\322\033\300"
 317      FCC30932 
 317      AB3B855D 
 317      A729D21B 
 317      C0
 318 0767 6D3A1573 		.ascii	"m:\025s\247i\362F\230s4y\223\225\313U\243\221\313MB"
 318      A769F246 
 318      98733479 
 318      9395CB55 
 318      A391CB4D 
 319 077c 5CAEA96B 		.ascii	"\\\256\251k\251d\313\356\033\331\315\264\033m\011\253"
 319      A964CBEE 
 319      1BD9CDB4 
ARM GAS  /tmp/ccEbaEuu.s 			page 25


 319      1B6D09AB 
 320 078c C37E268F 		.ascii	"\303~&\217\237\215\355*~\310\016\323\031\330;\233\034"
 320      9F8DED2A 
 320      7EC80ED3 
 320      19D83B9B 
 320      1C
 321 079d 0C534E08 		.ascii	"\014SN\010}\245\256\347z(\246\"-t\014\346\263\007[%"
 321      7DA5AEE7 
 321      7A28A622 
 321      2D740CE6 
 321      B3075B25 
 322 07b1 029623C8 		.ascii	"\002\226#\310\331F\307`i8kmO\325\247\351\251d~+\215"
 322      D946C760 
 322      69386B6D 
 322      4FD5A7E9 
 322      A9647E2B 
 323 07c6 56D3CDB4 		.ascii	"V\323\315\264\314e\231l\221\312"
 323      CC65996C 
 323      91CA
 324 07d0 E8A5FF1B 		.ascii	"\350\245\377\033}F\003\3166;\334i\247-\221Hel\015\235"
 324      7D4603CE 
 324      363BDC69 
 324      A72D9148 
 324      656C0D9D 
 325 07e4 B40F22D0 		.ascii	"\264\017\"\320^\267u\332\222-\323\226\314\317D\311\013"
 325      5EB775DA 
 325      922DD396 
 325      CCCF44C9 
 325      0B
 326 07f5 3BC6751D 		.ascii	";\306u\035'\347\332\251o_\312^Y%\032\212\0232\371\335"
 326      27E7DAA9 
 326      6F5FCA5E 
 326      59251A8A 
 326      1332F9DD 
 327 0809 ACC91F16 		.ascii	"\254\311\037\026\261\005\333M\247*pp\015?\231<J\337"
 327      B105DB4D 
 327      A72A7070 
 327      0D3F993C 
 327      4ADF
 328 081b 59D85A7B 		.ascii	"Y\330Z{8\372}\355!a\333\215\232\274_\371E\353U}\362"
 328      38FA7DED 
 328      2161DB8D 
 328      9ABC5FF9 
 328      45EB557D 
 329 0830 FBABFA08 		.ascii	"\373\253\372\010\253\352\023\216U\355cU\315\217\341"
 329      ABEA138E 
 329      55ED6355 
 329      CD8FE1
 330 083f B322601D 		.ascii	"\263\"`\035l\373\355\373\215\341\277\331\367Y\332Y\346"
 330      6CFBEDFB 
 330      8DE1BFD9 
 330      F759DA59 
 330      E6
 331 0850 5966F278 		.ascii	"Yf\362x\226u0\306@[\376\355e/\016\264\2138I\316\367"
 331      967530C6 
 331      405BFEED 
 331      652F0EB4 
ARM GAS  /tmp/ccEbaEuu.s 			page 26


 331      8B3849CE 
 332 0865 A49D24ED 		.ascii	"\244\235$\355a\010\013\227\254\323\317-r\335\343\222"
 332      61080B97 
 332      ACD3CF2D 
 332      72DDE392 
 333 0875 D0E4D3B4 		.ascii	"\320\344\323\264\000'\037\363\"\306*l\377Rk\247\201"
 333      00271FF3 
 333      22C62A6C 
 333      FF526BA7 
 333      81
 334 0886 C49D10D9 		.ascii	"\304\235\020\331\023\243X\233\034c\371\3221*\265\220"
 334      13A3589B 
 334      1C63F9D2 
 334      312AB590 
 335 0896 5293BF41 		.ascii	"R\223\277A\343\376V\301\325\254\"\260R\275\300\031\264"
 335      E3FE56C1 
 335      D5AC22B0 
 335      52BDC019 
 335      B4
 336 08a7 90017FC9 		.ascii	"\220\001\177\311\032\360G\036\2476g\225\305\354\010"
 336      1AF0471E 
 336      A7366795 
 336      C5EC08
 337 08b6 58D823DB 		.ascii	"X\330#\333\333\221~\214\264\016\351.\244\207\221\236"
 337      DB917E8C 
 337      B40EE92E 
 337      A487919E 
 338 08c6 41FA8588 		.ascii	"A\372\205\210h\353Y>\367 \237k[\333\177\340\323n\377"
 338      68EB593E 
 338      F7209F6B 
 338      5BDB7FE0 
 338      D36EFF
 339 08d9 DDB52A7D 		.ascii	"\335\265*}z\241W\252\246\027i\253\262M\025`\301\036"
 339      7AA157AA 
 339      A61769AB 
 339      B24D1560 
 339      C11E
 340 08eb B4E09B8A 		.ascii	"\264\340\233\212\0278\330o\261`\001 \"E\023T\346lx\375"
 340      1738D86F 
 340      B1600120 
 340      22451354 
 340      E66C78FD 
 341 08ff 081F2DCD 		.ascii	"\010\037-\315`\3038\360\024\351\270\207\006\276\256"
 341      60C338F0 
 341      14E9B887 
 341      06BEAE
 342 090e DC54D9B9 		.ascii	"\334T\331\271T\231\314\234z9U\2540\305wS\305*S<\306"
 342      5499CC9C 
 342      7A3955AC 
 342      30C57753 
 342      C52A533C 
 343 0923 9B2C7631 		.ascii	"\233,v1\305\263R\305n\246xa\252\330\303\024\257L\025"
 343      C5B352C5 
 343      6EA67861 
 343      AAD8C314 
 343      AF4C15
 344 0936 7B99E22D 		.ascii	"{\231\342-\251\342\034\246G2N\234)%i\362\035\034\002"
ARM GAS  /tmp/ccEbaEuu.s 			page 27


 344      A9E21CA6 
 344      47324E9C 
 344      292569F2 
 344      1D1C02
 345 0949 7715356D 		.ascii	"w\0255m5E\332\355\265X\002\247\362l1\230\216\2260Y\207"
 345      3545DAED 
 345      B55802A7 
 345      F26C3198 
 345      8E963059 
 346 095e D98DDD9F 		.ascii	"\331\215\335\237\333\232\3512\323x\325\351\016\335\004"
 346      DB9AE932 
 346      D378D5E9 
 346      0EDD04
 347 096d 35FD0E9D 		.ascii	"5\375\016\23598\025\251\301*E\332+C\266\321\037.\322"
 347      393815A9 
 347      C12A45DA 
 347      2B43B6D1 
 347      1F2ED2
 348 0980 C9CC4178 		.ascii	"\311\314AxS\244CBh\331\246\016\323\277\035\266\242\245"
 348      53A44342 
 348      68D9A60E 
 348      D3BF1DB6 
 348      A2A5
 349 0992 1B6B8FD9 		.ascii	"\033k\217\331\202%n\215\236-\272:\341\266\022\215\305"
 349      82256E8D 
 349      9E2DBA3A 
 349      E1B6128D 
 349      C5
 350 09a3 6DD30ED9 		.ascii	"m\323\016\331\227f\205\302\235\252\311o\253\277H\267"
 350      976685C2 
 350      9DAAC96F 
 350      ABBF48B7 
 351 09b3 8EE1CE22 		.ascii	"\216\341\316\"\347\315T-s\310\207;p\011C\312\263\317"
 351      E7CD542D 
 351      73C8873B 
 351      700943CA 
 351      B3CF
 352 09c5 229F57DB 		.ascii	"\"\237W\333\213\302-\237\222\013\274\302\244 \215\223"
 352      8BC22D9F 
 352      920BBCC2 
 352      A4208D93 
 353 09d5 9A2FFF01 		.ascii	"\232/\377\001\035\310\034\225L\201\013s\262/t9\030M"
 353      1DC81C95 
 353      4C810B73 
 353      B22F7439 
 353      184D
 354 09e7 9EAB9255 		.ascii	"\236\253\222U\330<\253\0107f\242\010\363\204D\370\356"
 354      D83CAB08 
 354      3766A208 
 354      F38444F8 
 354      EE
 355 09f8 58CD237A 		.ascii	"X\315#zcB\026w|\373\347o\355D\027\270\013T\342\371\316"
 355      63421677 
 355      7CFBE76F 
 355      ED4417B8 
 355      0B54E2F9 
 356 0a0d E6B4CAF3 		.ascii	"\346\264\312\363-R-\236oMu;\3026)\317\356\373\276\311"
ARM GAS  /tmp/ccEbaEuu.s 			page 28


 356      2D522D9E 
 356      6F4D753B 
 356      C23629CF 
 356      EEFBBEC9 
 357 0a21 69E9FB9A 		.ascii	"i\351\373\232r\322\372\276\252\334\264\276o\\nZ\337"
 357      72D2FABE 
 357      AADCB4BE 
 357      6F5C6E5A 
 357      DF
 358 0a32 372D97F7 		.ascii	"7-\227\367}\222\200\177J\211\242\311\213U\342\237\336"
 358      7D92807F 
 358      4A89A2C9 
 358      8B55E29F 
 358      DE
 359 0a43 53D3FB27 		.ascii	"S\323\373'M~#\331g\242\376\211\353\257\306\311\315\015"
 359      4D7E23D9 
 359      67A2FE89 
 359      EBAFC6C9 
 359      CD0D
 360 0a55 C3B7C078 		.ascii	"\303\267\300x|\335\323\312\361s\354\230\310\370Y'8~"
 360      7CDDD3CA 
 360      F173EC98 
 360      C8F85927 
 360      387E
 361 0a67 D65B8D6F 		.ascii	"\326[\215o\33214\276\365B\3067\347XM\313\361#~\007\316"
 361      DA3134BE 
 361      F542C637 
 361      E7584DCB 
 361      F1237E07 
 362 0a7c 66D51294 		.ascii	"f\325\022\224\326\250\002{\000\206\036\276\233\361\003"
 362      D6A8027B 
 362      00861EBE 
 362      9BF103
 363 0a8b DCAB5049 		.ascii	"\334\253PIl\375N.o\303\226]?\322\220\035\023[\261\315"
 363      6CFD4E2E 
 363      6FC3965D 
 363      3FD2901D 
 363      135BB1CD 
 364 0a9f 7472B6F8 		.ascii	"tr\266\370\015&Elg\275\332\3328s}:\205\245\351\247\306"
 364      0D26456C 
 364      67BDDADA 
 364      38737D3A 
 364      85A5E9A7 
 365 0ab4 E47ECDAF 		.ascii	"\344~\315\257\222\0227^[r\272\200\016\334\217\321\343"
 365      9212375E 
 365      5B72BA80 
 365      0EDC8FD1 
 365      E3
 366 0ac5 34E766F5 		.ascii	"4\347f\3658<\016\021i\247\265\303W\325c\207\357\314"
 366      383C0E11 
 366      69A7B5C3 
 366      57D56387 
 366      EFCC
 367 0ad7 DEE1AF8E 		.ascii	"\336\341\257\216J\254\253\237\205\374\343\\9*\343MB"
 367      4AACAB9F 
 367      85FCE35C 
 367      392AE34D 
ARM GAS  /tmp/ccEbaEuu.s 			page 29


 367      42
 368 0ae8 9ABC0DAF 		.ascii	"\232\274\015\257\376\210\334\3053\256\215l\260\326\012"
 368      FE88DCC5 
 368      33AE8D6C 
 368      B0D60A
 369 0af7 B5025B1F 		.ascii	"\265\002[\037\324\347\223\013Z\365*q\021\223\034\203"
 369      D4E7930B 
 369      5AF52A71 
 369      11931C83 
 370 0b07 F938B00D 		.ascii	"\3718\260\015,\330\333\"`v\3638\200mb\301\346:\006\343"
 370      2CD8DB22 
 370      6076F338 
 370      806D62C1 
 370      E63A06E3 
 371 0b1b 39DBC282 		.ascii	"9\333\302\202\275+\002f\267\015\000`\015,\330\022\307"
 371      BD2B0266 
 371      B70D0060 
 371      0D2CD812 
 371      C7
 372 0b2c 602C6723 		.ascii	"`,g#\023\247\352w\223\345\330\303\322$]\037\251\327"
 372      13A7EA77 
 372      93E5D8C3 
 372      D2245D1F 
 372      A9D7
 373 0b3e 7AEC8C42 		.ascii	"z\354\214B\222\360\024=\343)\260\010W\037\346\215\364"
 373      92F0143D 
 373      E329B008 
 373      571FE68D 
 373      F4
 374 0b4f E0D8B6C4 		.ascii	"\340\330\266\304HIyv\257\364\251a\244f\300\363W\024"
 374      48497976 
 374      AFF4A961 
 374      A466C0F3 
 374      5714
 375 0b61 8ED46DCD 		.ascii	"\216\324m\315\240\325\023'\352\363\3641\371\311%\355"
 375      A0D51327 
 375      EAF3F431 
 375      F9C925ED 
 376 0b71 A20C8C9F 		.ascii	"\242\014\214\237\264\216\256\317\353\025\037-\026\330"
 376      B48EAECF 
 376      EB151F2D 
 376      16D8
 377 0b7f B5AE9FD5 		.ascii	"\265\256\237\325A\257\335*\233WoV \337'\325V^\003I\034"
 377      41AFDD2A 
 377      9B576F56 
 377      20DF27D5 
 377      565E0349 
 378 0b94 1D9BDF30 		.ascii	"\035\233\3370\320\004[\343\030\254\275\205KE\332\330"
 378      D0045BE3 
 378      18ACBD85 
 378      4B45DAD8 
 379 0ba4 5A45263F 		.ascii	"ZE&?\251\325\3441\225\254\024O\250\334-<\233E\314\320"
 379      A9D5E431 
 379      95AC144F 
 379      A8DC2D3C 
 379      9B45CCD0 
 380 0bb8 2ECE059B 		.ascii	".\316\005\233\276\314\332\3646\307`>\016\354*\013V'"
ARM GAS  /tmp/ccEbaEuu.s 			page 30


 380      BECCDAF4 
 380      36C7603E 
 380      0EEC2A0B 
 380      5627
 381 0bca 02E6B3E7 		.ascii	"\002\346\263\347\354:\013\366\211c0\236\263\233,\330"
 381      EC3A0BF6 
 381      8963309E 
 381      B39B2CD8 
 382 0bda 7E11B074 		.ascii	"~\021\260t\341|\272\017;?\300\312\036c\241\335\330S"
 382      E17CBA0F 
 382      3B3FC0CA 
 382      1E63A1DD 
 382      D853
 383 0bec 7B90EE43 		.ascii	"{\220\356C\272\037\351A\244\237\"\375\034\351\337\220"
 383      BA1FE941 
 383      A49F22FD 
 383      1CE9DF90 
 384 0bfc 9E477A11 		.ascii	"\236Gz\021\351\327l\377f\230\314oMz\224\214\357\217"
 384      E9D76CFF 
 384      6698CC6F 
 384      4D7A948C 
 384      EF8F
 385 0c0e 7032FFB4 		.ascii	"p2\377\264M\306\311\374c\033Q\011\367\2273L\346\227"
 385      4DC6C9FC 
 385      631B5109 
 385      F797334C 
 385      E697
 386 0c20 AD937963 		.ascii	"\255\223yc\033\247\2239\323\015\030\312%*6/\327\365"
 386      1BA79339 
 386      D30D18CA 
 386      252A362F 
 386      D7F5
 387 0c32 D73CE620 		.ascii	"\327<\346 ;gEL7\310\354\367\374\023\207g2#\366\222c"
 387      3B67454C 
 387      37C8ECF7 
 387      FC138767 
 387      3223F692 
 388 0c47 30EB8835 		.ascii	"0\353\2105\373q\003\366\343F\354\221\355H\257\"\275"
 388      FB7103F6 
 388      E346EC91 
 388      ED48AF22 
 388      BD
 389 0c58 CE8FBE2B 		.ascii	"\316\217\276+\026\275\233Q \203\227\012\027\245\354"
 389      16BD9B51 
 389      2083970A 
 389      17A5EC
 390 0c67 88769DB4 		.ascii	"\210v\235\264Fev~\356b\243\363Z\333\011\211\232\223"
 390      4665767E 
 390      EE62A3F3 
 390      5ADB0989 
 390      9A93
 391 0c79 3016B25E 		.ascii	"0\026\262^\350s\231H\335\2236\3278u\303\326\016\033"
 391      E8739948 
 391      DD9336D7 
 391      3875C3D6 
 391      0E1B
 392 0c8b 74BDBD26 		.ascii	"t\275\275&\337\301pjc^\366\013}\034\216\"}\204U\276"
ARM GAS  /tmp/ccEbaEuu.s 			page 31


 392      DFC1706A 
 392      635EF60B 
 392      7D1C8E22 
 392      7D8455BE 
 393 0c9f B338FDC6 		.ascii	"\2638\375\306\315[N\377x:\"\177'\344\370\357\246[\206"
 393      CD5B4EFF 
 393      783A227F 
 393      27E4F8EF 
 393      A65B86
 394 0cb2 52B6EC74 		.ascii	"R\266\354t8\322e1\346Q\371&+\255\213L\357\357@\237B"
 394      38D26531 
 394      E651F926 
 394      2BAD8B4C 
 394      EFEF409F 
 395 0cc7 7015698C 		.ascii	"p\025i\214c0\276S&\3271a\242\320\275\344\007\317\\\350"
 395      6330BE53 
 395      26D73161 
 395      A2D0BDE4 
 395      07CF5CE8 
 396 0cdb B8195556 		.ascii	"\270\031UV\215\353\274\243\371V[\334j\275t#\022X\236"
 396      8DEBBCA3 
 396      F9565BDC 
 396      6ABD7423 
 396      12589E
 397 0cee 1111C47E 		.ascii	"\021\021\304~\033\006zr\377\243\353q\265fN\377\266q"
 397      1B067A72 
 397      FFA3EB71 
 397      B5664EFF 
 397      B671
 398 0d00 8B225DC0 		.ascii	"\213\"]\300\306\306\272,\326p\360\334\376_Sk ?e\267"
 398      C6C6BA2C 
 398      D670F0DC 
 398      FE5F536B 
 398      203F65B7 
 399 0d14 8675F5D3 		.ascii	"\206u\365\323\204\326\010\265\036\263\371 6\277\344"
 399      84D608B5 
 399      1EB3F920 
 399      36BFE4
 400 0d23 01D2FC04 		.ascii	"\001\322\374\004k\363\247\276\272\360[\332\374\004\241"
 400      6BF3A7BE 
 400      BAF05BDA 
 400      FC04A1
 401 0d32 E64FED9B 		.ascii	"\346O\355\233\222\316\030m\226qf\367\235\273\362\330"
 401      92CE186D 
 401      967166F7 
 401      9DBBF2D8 
 402 0d42 1C6C640A 		.ascii	"\034ld\012\032\320\215\007\254\335\367\014\273\221-"
 402      1AD08D07 
 402      ACDDF70C 
 402      BB912D
 403 0d51 19577B19 		.ascii	"\031W{\031\373\275\237\344\276U\366\013bn}f1\366\224"
 403      FBBD9FE4 
 403      BE55F60B 
 403      626E7D66 
 403      31F694
 404 0d64 C943555B 		.ascii	"\311CU[\247\210\274\021_\335\207#\202\202U\213\200e"
 404      A788BC11 
ARM GAS  /tmp/ccEbaEuu.s 			page 32


 404      5FDD8723 
 404      8282558B 
 404      8065
 405 0d76 F0ECD759 		.ascii	"\360\354\327Y\2601\216\301x\316n\262`o\212\200\331_"
 405      B0318EC1 
 405      78CE6EB2 
 405      606F8A80 
 405      D95F
 406 0d88 0E4CDC66 		.ascii	"\016L\334f\301&9\006\3439\273\303\202\275%\002f\277"
 406      C1263906 
 406      E339BBC3 
 406      82BD2502 
 406      66BF
 407 0d9a 6B99B8C7 		.ascii	"k\231\270\307\202\315p\014\306sv\237\005\253\021\001"
 407      82CD700C 
 407      C673769F 
 407      05AB1101 
 408 0daa F3D97336 		.ascii	"\363\331s6\341\000\0036\3171\030\317\331$\026l\241\010"
 408      E1000336 
 408      CF3118CF 
 408      D924166C 
 408      A108
 409 0dbc 5886CDD9 		.ascii	"X\206\315\331),\330{\216\301x\316\336b\301\226\211\200"
 409      292CD87B 
 409      8EC178CE 
 409      DE62C196 
 409      8980
 410 0dce 15DA7336 		.ascii	"\025\332s6\235\005[\351\030\214\347l\006\013\266V\004"
 410      9D055BE9 
 410      188CE76C 
 410      060BB656 
 410      04
 411 0ddf AC9B3D67 		.ascii	"\254\233=g\263X\260\015\216\301x\316\226\263`[D\300"
 411      B358B00D 
 411      8EC178CE 
 411      96B3605B 
 411      44C0
 412 0df1 9EB5E76C 		.ascii	"\236\265\347l%\013\266\3251\030\317\331j\026\354#\021"
 412      250BB6D5 
 412      3118CFD9 
 412      6A16EC23 
 412      11
 413 0e02 30DBA71B 		.ascii	"0\333\247\033\252\022kY\260:\307`<g\037\260`\273E\300"
 413      AA126B59 
 413      B03AC760 
 413      3C671FB0 
 413      60BB45C0 
 414 0e16 6C9F6FA8 		.ascii	"l\237o\250Jl`\301\3668\006\3439\333\304\2025\210\200"
 414      4A6C60C1 
 414      F63806E3 
 414      39DBC482 
 414      358880
 415 0e29 D93EE150 		.ascii	"\331>\341P\225\330\302\202\035r\014\306s\326\300\202"
 415      95D8C282 
 415      1D720CC6 
 415      73D6C082 
 416 0e39 1D16011B 		.ascii	"\035\026\001\033\230\206\263\344\307.\316\034\357bb"
ARM GAS  /tmp/ccEbaEuu.s 			page 33


 416      9886B3E4 
 416      C72ECE1C 
 416      EF6262
 417 0e48 F5636DCD 		.ascii	"\365cm\315\000\307\341\034-\2450N\265u\032\221qr\223"
 417      00C7E11C 
 417      2DA5304E 
 417      B5751A91 
 417      717293
 418 0e5b D8FAD10D 		.ascii	"\330\372\321\015\306<O\203\325/E\0203L\2003\352\230"
 418      C63C4F83 
 418      D52F4510 
 418      334C8033 
 418      EA98
 419 0e6d C8F79263 		.ascii	"\310\367\222c0\213)\327Y\227#Bw\275\274\203[\245\363"
 419      308B29D7 
 419      59972342 
 419      77BDBC83 
 419      5BA5F3
 420 0e80 2DB7BDD8 		.ascii	"-\267\275\330>g\336\242\233\366\261\335tCD\206\014\363"
 420      3E67DEA2 
 420      9BF6B1DD 
 420      74434486 
 420      0CF3
 421 0e92 EEA9BA59 		.ascii	"\356\251\272YxII\374\266\253\203g\366\033\321\373A\214"
 421      784949FC 
 421      B6AB8367 
 421      F61BD1FB 
 421      418C
 422 0ea4 DEEFB5B5 		.ascii	"\336\357\265\265\206\177\344\306.\346\223\365\016\037"
 422      867FE4C6 
 422      2EE693F5 
 422      0E1F
 423 0eb2 457AAD9D 		.ascii	"Ez\255\235E\212t\027Z\354'|0\224#?]\277L\327Gy\234\310"
 423      458A7417 
 423      5AEC277C 
 423      3094233F 
 423      5DBF4CD7 
 424 0eca B1CB90E3 		.ascii	"\261\313\220\3430\312\361F\273\357/\307T\307r<f\221"
 424      30CAF146 
 424      BBEF2FC7 
 424      54C7723C 
 424      6691
 425 0edc 63EB63CE 		.ascii	"c\353c\316\3458b\310q\002\345\230\375\337 \307\002\307"
 425      E53862C8 
 425      7102E598 
 425      FDDF20C7 
 425      02C7
 426 0eee 72704FD7 		.ascii	"rpO\327\221\245\324\343t)%\264\005|\306e\331\002>\262"
 426      91A5D4E3 
 426      742925B4 
 426      057CC665 
 426      D9023EB2 
 427 0f02 9BDC144D 		.ascii	"\233\334\024M\212\263?gzk7\263\376\324\305\326\237W"
 427      8AB33F67 
 427      7A6B37B3 
 427      FED4C5D6 
 427      9F57
ARM GAS  /tmp/ccEbaEuu.s 			page 34


 428 0f14 0C8D7D89 		.ascii	"\014\215}\211\032{\337\2421q\244Su\037\2550\036\260"
 428      1A7BDFA2 
 428      3171A453 
 428      751FAD30 
 428      1EB0
 429 0f26 3E8F502B 		.ascii	">\217P+[\0155\263~\035\275\233\361+\004\332\320\242"
 429      5B0D35B3 
 429      7E1DBD9B 
 429      F12B04DA 
 429      D0A2
 430 0f38 173D964E 		.ascii	"\027=\226N\364\360\235\010_IK\267S\317Px\350\332\330"
 430      F4F09D08 
 430      5F494BB7 
 430      53CF5078 
 430      E8DAD8
 431 0f4b 2BFD8FD7 		.ascii	"+\375\217\327\203\220\003\331'\035\350p\366H\031\320"
 431      839003D9 
 431      271DE870 
 431      F64819D0 
 432 0f5b AFD61B9E 		.ascii	"\257\326\033\236\237vR\375\367B\254J\254\032;\333\270"
 432      9F7652FD 
 432      F742AC4A 
 432      AC1A3BDB 
 432      B8
 433 0f6c 50F00C4E 		.ascii	"P\360\014N\311\337\023n\177\275\363]\217\255\235\250"
 433      C9DF136E 
 433      7FBDF35D 
 433      8FAD9DA8 
 434 0f7c D55D4781 		.ascii	"\325]G\201\216\265\350\341V\355z\234k\255 \311\217\""
 434      8EB5E8E1 
 434      56ED7A9C 
 434      6BAD20C9 
 434      8F22
 435 0f8e 7D631DEE 		.ascii	"}c\035\356\216\226H\244\267\232\036\027\3349I\356\307"
 435      8E9648A4 
 435      B79A1E17 
 435      DC3949EE 
 435      C7
 436 0f9f 5D       		.ascii	"]"
 437 0fa0 E8B093EE 		.ascii	"\350\260\223\356\307\271\310~\334U\2132\004v`F\266G"
 437      C7B9C87E 
 437      DC558B32 
 437      04766046 
 437      B647
 438 0fb2 A6AD5B20 		.ascii	"\246\255[ `9\035\215\3758\261\035\230j\323.\3506[\225"
 438      60391D8D 
 438      FD38B11D 
 438      986AD32E 
 438      E8365B95 
 439 0fc6 4B31605B 		.ascii	"K1`[\253O\256\013S\374ir\263\213L\374\272\233\333\210"
 439      AB4FAE0B 
 439      53FC6972 
 439      B38B4CFC 
 439      BA9BDB88 
 440 0fda 9DD8DEA9 		.ascii	"\235\330\336\251\356}\254\356\023w\353g\311\204\377"
 440      EE7DACEE 
 440      1377EB67 
ARM GAS  /tmp/ccEbaEuu.s 			page 35


 440      C984FF
 441 0fe9 349B46CF 		.ascii	"4\233F\317\262!VR\361\247;\356B\365\214r\023\305\317"
 441      B2215652 
 441      F1A73BEE 
 441      42F58C72 
 441      13C5CF
 442 0ffc 6CEFF066 		.ascii	"l\357\360f"
 443 1000 4E455A82 		.ascii	"NEZ\202U\252\335-\024\277\253\023U<\371I\340\312]Z\305"
 443      55AADD2D 
 443      14BFAB13 
 443      553CF949 
 443      E0CA5D5A 
 444 1015 93BAAD1B 		.ascii	"\223\272\255\033\221\237\245655\371U\307`\276L\275\230"
 444      919FA536 
 444      3535F955 
 444      C760BE4C 
 444      BD98
 445 1027 125693FF 		.ascii	"\022V\223\377\342&\275\370\272\233l\201\217\341\373"
 445      E226BDF8 
 445      BA9B6C81 
 445      8FE1FB
 446 1036 7293B52F 		.ascii	"r\223\265/9\315\031Y\333\005\275\236\230\274\327\274"
 446      39CD1959 
 446      DB05BD9E 
 446      98BCD7BC 
 447 1046 98497D5E 		.ascii	"\230I}^\235\210mdX\206\327\354E\225P\177\263\3071\230"
 447      9D886D64 
 447      5886D7EC 
 447      4595507F 
 447      B3C73198 
 448 105a 8F03DBFC 		.ascii	"\217\003\333\374\246\340\375S\226'|\016c\273\223\254"
 448      A6E0FD53 
 448      96277C0E 
 448      63BB93AC 
 449 106a E6F2DDC2 		.ascii	"\346\362\335\302\003\243\345\2218uN\022\260\027\230"
 449      03A3E591 
 449      38754E12 
 449      B01798
 450 1079 E7BFCCC5 		.ascii	"\347\277\314\305\233\200\251\335Nz\320D\315\240\352"
 450      9B80A9DD 
 450      4E7AD044 
 450      CDA0EA
 451 1088 0CD672F7 		.ascii	"\014\326r\367\202qO1]\012\314\260\302e]\251\360p\367"
 451      82714F31 
 451      5D0ACCB0 
 451      C2655DA9 
 451      F070F7
 452 109b 43965BEC 		.ascii	"C\226[\354E\037\377:\266\236D:3Q\246y\017Zg\004\252"
 452      451FFF3A 
 452      B69E443A 
 452      3351A679 
 452      0F5A6704 
 453 10b0 19C61027 		.ascii	"\031\306\020'1\2068\005\015q*\032\3424\244o\263\346"
 453      31863805 
 453      0D712A1A 
 453      E234A46F 
 453      B3E6
ARM GAS  /tmp/ccEbaEuu.s 			page 36


 454 10c2 68176CCD 		.ascii	"h\027l\315p3\313\207\367\034\313\355\263\364\216]3\023"
 454      7033CB87 
 454      F71CCBED 
 454      B3F48E5D 
 454      3313
 455 10d4 D966563C 		.ascii	"\331fV<(`{\366\2736\304\251\377\263\031\016\320k\006"
 455      28607BF6 
 455      BB36C4A9 
 455      FFB3190E 
 455      D06B06
 456 10e7 1B1D23F2 		.ascii	"\033\035#\362\326|\345M.\034\330!\002\367l\032\006\323"
 456      D67CE54D 
 456      2E1CD821 
 456      02F76C1A 
 456      06D3
 457 10f9 7DD8AB44 		.ascii	"}\330\253D\340\365\361\202\234\356\"\0354\012\351kH"
 457      E0F5F182 
 457      9CEE221D 
 457      340AE96B 
 457      48
 458 110a C720DD8D 		.ascii	"\307 \335\215\364\023\244{\221\036@\3729\322\343HO#"
 458      F413A47B 
 458      911E40FA 
 458      39D2E348 
 458      4F23
 459 111c 6D425A85 		.ascii	"mBZ\205\035=\016\351\233H' \255E:/\233\001\030\263\300"
 459      1D3D0EE9 
 459      9B482720 
 459      AD453A2F 
 459      9B0118B3 
 460 1131 E665471F 		.ascii	"\346eG\037}\037}u\023^\205\255~\310jy#]\226=\374\026"
 460      7D1F7D75 
 460      135E85AD 
 460      7EC86A79 
 460      235D963D 
 461 1147 17A1DE7E 		.ascii	"\027\241\336~H\340b^\206\313-\223\233\317\217\330\\"
 461      48E0625E 
 461      86CB2D93 
 461      9BCF8FD8 
 461      5C
 462 1158 45FB7426 		.ascii	"E\373t&\232\365d\267\345v\273\3547\322\362\235z\242"
 462      9AF564B7 
 462      E576BBEC 
 462      37D2F29D 
 462      7AA2
 463 116a C6FE593A 		.ascii	"\306\376Y:\356jJ\362N\251\237\247t2q\325\321?\321;\256"
 463      EE6A4AF2 
 463      4EA99FA7 
 463      743271D5 
 463      D13FD13B 
 464 117f DEC3D178 		.ascii	"\336\303\321x\334\242\223\2548DKK-n.q\345$\336q\265"
 464      DCA293AC 
 464      38444B4B 
 464      2D6E2E71 
 464      E524DE71 
 465 1194 34BB8B7B 		.ascii	"4\273\213{uT\342\306\311)\206Q\322\313\375\347\221\205"
 465      7554E2C6 
ARM GAS  /tmp/ccEbaEuu.s 			page 37


 465      C9298651 
 465      D2CBFDE7 
 465      9185
 466 11a6 A5AD9B12 		.ascii	"\245\255\233\022\311\275\003'\231{\007\276v\014\346"
 466      C9BD0327 
 466      997B07BE 
 466      760CE6
 467 11b5 E3C06EB3 		.ascii	"\343\300n\263`\227E\3002\334*u\207\005\273\346\030\214"
 467      609745C0 
 467      32DC2A75 
 467      8705BBE6 
 467      188C
 468 11c7 E7EC1E0B 		.ascii	"\347\354\036\013vS\004,\303\255R\367Y\260{\216\301x"
 468      7653042C 
 468      C3AD52F7 
 468      59B07B8E 
 468      C178
 469 11d9 CE269C62 		.ascii	"\316&\234b\300F=,\000\226\341\206\227I,\330\030\307"
 469      C0463D2C 
 469      0096E186 
 469      97492CD8 
 469      18C7
 470 11eb 603C6753 		.ascii	"`<gSX\260I\"`\2764\234\245\373\260\203@\223\227\341"
 470      58B04922 
 470      60BE349C 
 470      A5FBB083 
 470      409397E1 
 471 11ff 24F557F4 		.ascii	"$\365W\364N+\220\256B\272\006\351:\244\353\221nD\272"
 471      4E2B90AE 
 471      42BA06E9 
 471      3AA4EB91 
 471      6E44BA
 472 1212 19E98722 		.ascii	"\031\351\207\"\023\331bv\206\231\376\260\2007\312\260"
 472      13D96276 
 472      8699FEB0 
 472      8037CAB0 
 473 1222 8334B9B9 		.ascii	"\2034\271\271\341\377\177\237[u\033\2336\354\376?\304"
 473      E1FF7F9F 
 473      5B751B9B 
 473      36ECFE3F 
 473      C4
 474 1233 7D64BF5D 		.ascii	"}d\277]\367c\267\330\355\272uV_rc/\372\222:\241\360"
 474      F763B7D8 
 474      EDBA7556 
 474      5F72632F 
 474      FA923AA1 
 475 1248 FA9660B8 		.ascii	"\372\226`\270\226\366}\010\023W\355\376-\365\205\365"
 475      96F67D08 
 475      1357EDFE 
 475      2DF585F5 
 476 1258 E80BCF3E 		.ascii	"\350\013\317>\234\325\027\3628\204\277\275V\376W\355"
 476      9CD517F2 
 476      3884BFBD 
 476      56FE57ED 
 477 1268 43FEF70A 		.ascii	"C\376\367\012\371\302u\373x_x\023Y\330\333j_\370\301"
 477      F9C275FB 
 477      785F7813 
ARM GAS  /tmp/ccEbaEuu.s 			page 38


 477      59D8DB6A 
 477      5FF8C1
 478 127b 3EC6E09B 		.ascii	">\306\340\233\034\203\3718\260\015,\330}\021\260L\267"
 478      1C83F938 
 478      B00D2CD8 
 478      7D11B04C 
 478      B7
 479 128c 8DB26055 		.ascii	"\215\262`U?p\012\306s\266\205\005\033-\002\226\351\266"
 479      3F700AC6 
 479      73B68505 
 479      1B2D0296 
 479      E9B6
 480 129e 51166C9C 		.ascii	"Q\026l\234c0_\272\356\225ZX\207&\357C'\321\200C\377"
 480      63305FBA 
 480      EE955A58 
 480      8726EF43 
 480      27D18043 
 481 12b3 00D24348 		.ascii	"\000\322CH?Cz\030\351Q\021\227\260\233u\011\023\220"
 481      3F437A18 
 481      E9511197 
 481      B09B7509 
 481      1390
 482 12c5 E1BAD62E 		.ascii	"\341\272\326.(aD\237\371\227\015-]\002\325\207\035\007"
 482      2861449F 
 482      F9970D2D 
 482      5D02D587 
 482      1D07
 483 12d7 27590EA6 		.ascii	"'Y\016\2469\346\300\307r\220\270\273\227n\316\233\317"
 483      39E6C0C7 
 483      7290B8BB 
 483      976ECE9B 
 483      CF
 484 12e8 4ACFB2E2 		.ascii	"J\317\262\342\245\333\226\315\264J\331\233\267|\240"
 484      A5DB96CD 
 484      B44AD99B 
 484      B77CA0
 485 12f7 0936DF31 		.ascii	"\0116\3371X\016\0076a\037\003\266\3241\230\335\375k"
 485      580E0736 
 485      611F03B6 
 485      D43198DD 
 485      FD6B
 486 1309 3BD11676 		.ascii	";\321\026va\237\237@\332\210\364\014\322/\370\005\367"
 486      619F9F40 
 486      DA88F40C 
 486      D22FF805 
 486      F7
 487 131a EA1F58E3 		.ascii	"\352\037X\343\326:\353\212)\345E%Q\\\273\276\335\316"
 487      D63AEB8A 
 487      29E54525 
 487      515CBBBE 
 487      DDCE
 488 132c F66DDD0F 		.ascii	"\366m\335\017\004&\034\237\275uMn\276lL8\024\030\026"
 488      04261C9F 
 488      BD754D6E 
 488      BE6C4C38 
 488      141816
 489 133f E88E1179 		.ascii	"\350\216\021yk\231z\252\206\273\025\372\240\010^\206"
ARM GAS  /tmp/ccEbaEuu.s 			page 39


 489      6B997AAA 
 489      86BB15FA 
 489      A0085E86 
 490 134f DB0B66D1 		.ascii	"\333\013f\321\020\201\202\235p\014\346\223l?\354sP\232"
 490      1081829D 
 490      700CE693 
 490      6C3FEC73 
 490      509A
 491 1361 3C1F1748 		.ascii	"<\037\027H\357\340=\205\253\221\336F\372.\366\314\""
 491      EFE03D85 
 491      AB91DE46 
 491      FA2EF6CC 
 491      22
 492 1372 A4DB909E 		.ascii	"\244\333\220\236Gz\021\351\327\"=V\303\336}x\016E\230"
 492      477A11E9 
 492      D7223D56 
 492      C3DE7D78 
 492      0E4598
 493 1385 D9DABBE6 		.ascii	"\331\332\273\346\310\323\206\235\314\253\221kp\331\364"
 493      C8D3869D 
 493      CCAB916B 
 493      70D9F4
 494 1394 B56344BE 		.ascii	"\265cD\276\307n\322-+\012vU\004,\335\340f\324J\025:"
 494      C76ED22D 
 494      2B0A7655 
 494      042CDDE0 
 494      66D44A15 
 495 13a9 0B153A1B 		.ascii	"\013\025:\033\225\370-*\353\012?ln\267\03063\2557\177"
 495      95F82D2A 
 495      EB0A3F6C 
 495      6EB71836 
 495      33AD377F 
 496 13bd A69EB593 		.ascii	"\246\236\265\2232a\331)~\232\312\274u\353\026>F\345"
 496      3261D929 
 496      7E9ACABC 
 496      75EB163E 
 496      46E5
 497 13cf E421445E 		.ascii	"\344!D^M\315u\246\033\244\357Y\256\372\241,e}l4\335"
 497      4DCD75A6 
 497      1BA4EF59 
 497      AEFAA12C 
 497      657D6C34 
 498 13e4 B658BA0F 		.ascii	"\266X\272\017\373\376\026\010H\361\211\325\017\360\311"
 498      FBFE1608 
 498      48F189D5 
 498      0FF0C9
 499 13f3 E61B48DF 		.ascii	"\346\033H\337D\321'!\235\202\364-z\367\253\210\032V"
 499      44D12721 
 499      9D82F42D 
 499      7AF7AB88 
 499      1A56
 500 1405 726F1942 		.ascii	"ro\031B\266\227\265\372\271\347\017\317\236\257\222"
 500      B697B5FA 
 500      B9E70FCF 
 500      9EAF92
 501 1414 27919739 		.ascii	"'\221\2279P\303\206\371\3051\"\257\330\023\227\305^"
 501      50C386F9 
ARM GAS  /tmp/ccEbaEuu.s 			page 40


 501      C53122AF 
 501      D81397C5 
 501      5E
 502 1425 FDF30F26 		.ascii	"\375\363\017&\326rf\017\241\351\342\321\237\320\030"
 502      D672660F 
 502      A1E9E2D1 
 502      9FD018
 503 1434 F12EC688 		.ascii	"\361.\306\210\015?\314\032#Z\200\210\206\356[\203\304"
 503      0D3FCC1A 
 503      235A8088 
 503      86EE5B83 
 503      C4
 504 1445 8DF499CE 		.ascii	"\215\364\231\316\373BA\356\346\035\033e\275:_\374b\351"
 504      FB4241EE 
 504      E61D1B65 
 504      BD3A5FFC 
 504      62E9
 505 1457 896FB65D 		.ascii	"\211o\266]5.\330\215\364\020\2776\376G\326\241\340\360"
 505      352ED88D 
 505      F410BF36 
 505      FE47D6A1 
 505      E0F0
 506 1469 AD218A34 		.ascii	"\255!\2124\005!\356g\236\3732\364k\323\305;\035o\221"
 506      0521EE67 
 506      9EFB32F4 
 506      6BD3C53B 
 506      1D6F91
 507 147c E7D94D9E 		.ascii	"\347\331M\236f9\006\344g\346\206\03583S\260Z\307`\355"
 507      663906E4 
 507      67E6861D 
 507      383353B0 
 507      5AC760ED 
 508 1490 39B0032C 		.ascii	"9\260\003,\330B\307`\0358\260C,\330R\307`\274\365~\306"
 508      D842C760 
 508      1D38B043 
 508      2CD852C7 
 508      60BCF57E 
 509 14a5 82AD720C 		.ascii	"\202\255r\014\306]yO\034\256\316o\030(\376\312\264\023"
 509      C65D794F 
 509      1CAECE6F 
 509      1828FECA 
 509      B413
 510 14b7 DF9CA992 		.ascii	"\337\234\251\222\251\365O\300\3667\265\260#\247/M\003"
 510      A9F54FC0 
 510      F637B5B0 
 510      23A72F4D 
 510      03
 511 14c8 2F8B2F6A 		.ascii	"/\213/jbd\310\372\330\016{\325\235\030\322\305N\243"
 511      6264C8FA 
 511      D80E7BD5 
 511      9D18D2C5 
 511      4EA3
 512 14da 47E98B0A 		.ascii	"G\351\213\012M\246\266Z\225\342\360\021\205\273\325"
 512      4DA6B65A 
 512      95E2F011 
 512      85BBD5
 513 14e9 E31C5EE4 		.ascii	"\343\034^\344<\361\315\305k\306\370z\013Y\250o\241\027"
ARM GAS  /tmp/ccEbaEuu.s 			page 41


 513      3CF1CDC5 
 513      6BC6F87A 
 513      0B59A86F 
 513      A117
 514 14fb E72F0A57 		.ascii	"\347/\012W\244\375VA\234\254\212P3W\177<\335\230\272"
 514      A4FD5641 
 514      9CAC8A50 
 514      33577F3C 
 514      DD98BA
 515 150e 295FC745 		.ascii	")_\307E\0203\334H\364\026\275\221\210\202\235s\014\306"
 515      1033DC48 
 515      F416BD91 
 515      88829D73 
 515      0CC6
 516 1520 5BF27416 		.ascii	"[\362t\026\354\262\010X\206;zf\260`7\035\203\361\234"
 516      ECB20858 
 516      863B7A66 
 516      B060371D 
 516      83F19C
 517 1533 CD62C1EE 		.ascii	"\315b\301\356\213\200\371\3549\253a\301\252\037q\012"
 517      8B80F9EC 
 517      39AB61C1 
 517      AA1F710A 
 518 1543 C673B69C 		.ascii	"\306s\266\234\005{S\004,C\250\273\222\005\233\346\030"
 518      057B5304 
 518      2C43A8BB 
 518      92059BE6 
 518      18
 519 1554 8CE54C4F 		.ascii	"\214\345LO\254\251\313c^|N\376L\201\270(s\012L\202\351"
 519      ACA9CB63 
 519      5E7C4EFE 
 519      4C81B828 
 519      730A4C82 
 520 1569 E614B8C4 		.ascii	"\346\024\270\304\343\364\235\024\357\033\367\202$]\202"
 520      E3F49D14 
 520      EF1BF782 
 520      245D82
 521 1578 91694EBD 		.ascii	"\221iN\275\224b\216U\010K\303\216\243\244\373\314z\275"
 521      94628E55 
 521      084BC38E 
 521      A3A4FBCC 
 521      7ABD
 522 158a 19D768BA 		.ascii	"\031\327h\272\007/f \035\215\364u\244c\221\276\201t"
 522      072F6620 
 522      1D8DF475 
 522      A46391BE 
 522      8174
 523 159c 3CD2C948 		.ascii	"<\322\311H\247\"\235\201t\026\322\032\244\265H\347!"
 523      A7229D81 
 523      7416D21A 
 523      A4B548E7 
 523      21
 524 15ad 7D07E942 		.ascii	"}\007\351B\244\213\220\276\347\021\210\263\356\260+"
 524      A48B90BE 
 524      E71188B3 
 524      EEB02B
 525 15bc B3F98F08 		.ascii	"\263\371\217\010DE\366^\017\342\254\333\363\344+tB\246"
ARM GAS  /tmp/ccEbaEuu.s 			page 42


 525      4445F65E 
 525      0FE2ACDB 
 525      F3E42B74 
 525      42A6
 526 15ce 01E7122B 		.ascii	"\001\347\022+b\326\325-o\253\227\377o\012k\265c\254"
 526      62D6D52D 
 526      6FAB97FF 
 526      6F0A6BB5 
 526      63AC
 527 15e0 C73275CB 		.ascii	"\3072u\3132&x]\216\301\353\012\014[oa\254\336\204\364"
 527      3226785D 
 527      8EC1EB0A 
 527      0C5B6F61 
 527      ACDE84F4 
 528 15f4 AFA8C815 		.ascii	"\257\250\310\025\"\212|\217\015X7!\253\013[\035\260"
 528      228A7C8F 
 528      0D583721 
 528      AB0B5B1D 
 528      B0
 529 1605 DEAAA9A1 		.ascii	"\336\252\251\241\357\345\244\035\004\314z\024\207\200"
 529      EFE5A41D 
 529      04CC7A14 
 529      8780
 530 1613 BC1EEF9E 		.ascii	"\274\036\357\236\337I/\332\316\301\227l%D\370\3130\275"
 530      DF492FDA 
 530      CEC1976C 
 530      2544F8CB 
 530      30BD
 531 1625 7DF7C507 		.ascii	"}\367\305\007$z4{f\247\025\316a/O\274\201/p5\037\351"
 531      247A347B 
 531      66A715CE 
 531      612F4FBC 
 531      812F7035 
 532 163b FBD40A97 		.ascii	"\373\324\012\227u\362-\314\324\321\013\231\216^\204"
 532      75F22DCC 
 532      D4D10B99 
 532      8E5E84
 533 164a 1DBD183B 		.ascii	"\035\275\030;z5v\356\032\244\353\220\256\027\351\350"
 533      7A3576EE 
 533      1AA4EB90 
 533      AE17E9E8 
 534 165a 796C471F 		.ascii	"ylG\037GV\263\274\3774\203\"\327_\020ZG\324\376\275"
 534      4756B3BC 
 534      FF348322 
 534      D75F105A 
 534      47D4FEBD 
 535 166e 89F50EB7 		.ascii	"\211\365\016\267\216\330\366\277h$\265\305\203{\315"
 535      8ED8F6BF 
 535      6824B5C5 
 535      837BCD
 536 167d 8F64BFEE 		.ascii	"\217d\277\356\306\003\341\275S\036\313:\342 }\011')"
 536      C603E1BD 
 536      531ECB3A 
 536      E2207D09 
 536      2729
 537 168f CFBE8E38 		.ascii	"\317\276\2168D\375\377\035\334\2079\207\014\220\212"
 537      44FDFF1D 
ARM GAS  /tmp/ccEbaEuu.s 			page 43


 537      DC873987 
 537      0C908A
 538 169e AD32FBC4 		.ascii	"\2552\373\304\347u\333\251\035L\300[\346hT\307\300e"
 538      E775DBA9 
 538      1D4CC05B 
 538      E66854C7 
 538      C065
 539 16b0 8DEA78B3 		.ascii	"\215\352x\263:\\\307\204\271\027\255\274e\015s\271\020"
 539      3A5CC784 
 539      B917ADBC 
 539      650D73B9 
 539      10
 540 16c1 31719405 		.ascii	"1q\224\005\373\3261X7\016\354\304\350q\306\206\023\235"
 540      FBD63158 
 540      370EECC4 
 540      E871C686 
 540      139D
 541 16d3 38AF8928 		.ascii	"8\257\211(.\203\031\235L\315\3020\304=\212C0^m\227\331"
 541      2E83199D 
 541      4CCDC230 
 541      C43D8A43 
 541      305E6D97 
 542 16e8 29FDB608 		.ascii	")\375\266\010g\031\242\275\253,X\263c0\236\263\353,"
 542      6719A2BD 
 542      AB2C58B3 
 542      63309EB3 
 542      EB2C
 543 16fa D86B1D04 		.ascii	"\330k\035\004\3002D{\267Y\260\261\216\301x\316\356\264"
 543      C032447B 
 543      B759B0B1 
 543      8EC178CE 
 543      EEB4
 544 170c B8A19D8B 		.ascii	"\270\241\235\213]Z8\221\317<\214\023\231\"\322\270\317"
 544      5D5A3891 
 544      CF3C8C13 
 544      9922D2B8 
 544      CF
 545 171d 4E123D31 		.ascii	"N\022=1{w\036:c\022\016\301\032\330\212\226>~\361\245"
 545      7B771E3A 
 545      63120EC1 
 545      1AD88A96 
 545      3E7EF1A5 
 546 1731 1126DD87 		.ascii	"\021&\335\207u\020\232\274\315C\374\347v\364\226\037"
 546      75109ABC 
 546      CD43FCE7 
 546      76F4961F 
 547 1741 23DD8174 		.ascii	"#\335\201t'\322\335H?A\272\007\351>\244\373\221\036"
 547      27D2DD48 
 547      3F41BA07 
 547      E93EA4FB 
 547      911E
 548 1753 44FA29D2 		.ascii	"D\372)\322\303\"\236v3\253\244\332\016N=-\327C\215\267"
 548      C3229E76 
 548      33ABA4DA 
 548      0E4E3D2D 
 548      D7438DB7 
 549 1767 4E2EFB3B 		.ascii	"N.\373;cJ\245\373\262\013D\0003X\366\346\013\334\034"
ARM GAS  /tmp/ccEbaEuu.s 			page 44


 549      634AA5FB 
 549      B20B4400 
 549      3358F6E6 
 549      0BDC1C
 550 177a B8D40A97 		.ascii	"\270\324\012\227\316%\210_\344\231\314LZSq\322z\013"
 550      CE25885F 
 550      E499CC4C 
 550      5A5371D2 
 550      7A0B
 551 178c 27AD1AA4 		.ascii	"'\255\032\244s\221nBU\036CzBD\241\343\355\337\223\250"
 551      73916E42 
 551      551E437A 
 551      4244A1E3 
 551      EDDF93A8 
 552 17a0 482B3BF0 		.ascii	"H+;\360\263\007}\251\177\355\346\352e\340\252\024\372"
 552      B3077DA9 
 552      7FEDE6EA 
 552      65E0AA14 
 552      FA
 553 17b1 A6784D1E 		.ascii	"\246xM\036\205>\3715%\343;\375iU\375F\350E\332&D\010"
 553      853EF935 
 553      25E33BFD 
 553      6955FD46 
 553      E845DA26 
 554 17c7 086E5FCD 		.ascii	"\010n_\315\340\314\370+\200"
 554      E0CCF82B 
 554      80
 555 17d0 15C7FB75 		.ascii	"\025\307\373u\240\357\343\227\370Z\226\327k\341\317"
 555      A0EFE397 
 555      F85A96D7 
 555      6BE1CF
 556 17df A73CE9FE 		.ascii	"\247<\351\376\030`cu}\372?\006\310\370\252\245/=\331"
 556      18606375 
 556      7DFA3F06 
 556      C8F8AAA5 
 556      2F3DD9
 557 17f2 FFEC8CD9 		.ascii	"\377\354\214\331'\323\223\317\026\017\224Ro\306^x\355"
 557      27D393CF 
 557      160F9452 
 557      6FC65E78 
 557      ED
 558 1803 96B1C171 		.ascii	"\226\261\301q\036\247\345\203\026\305f\005R\244\323"
 558      1EA7E583 
 558      16C56605 
 558      52A4D3
 559 1812 58E52BEB 		.ascii	"X\345+\353\314|B\363\321\322\354\367\374]\271\220\203"
 559      CC7C42F3 
 559      D1D2ECF7 
 559      FC5DB990 
 559      83
 560 1823 C649FE82 		.ascii	"\306I\376\202I\223\353e\305\3003\033t\370\177NW\335"
 560      4993EB65 
 560      C5C0331B 
 560      74F87F4E 
 560      57DD
 561 1835 A9BF60B2 		.ascii	"\251\277`\262\374\311]\313\313\327\227\035/\313\256"
 561      FCC95DCB 
ARM GAS  /tmp/ccEbaEuu.s 			page 45


 561      CBD7971D 
 561      2FCBAE
 562 1844 D82CCB1E 		.ascii	"\330,\313\036I\366\362\247V\011\370f\263\015W=q\335"
 562      49F6F2A7 
 562      5609F866 
 562      B30D573D 
 562      71DD
 563 1856 4D561284 		.ascii	"MV\022\2045M\376\\\010,\303\355\2467\335\346\337[\301"
 563      354DFE5C 
 563      082CC3ED 
 563      A637DDE6 
 563      DF5BC1
 564 1869 F813D2ED 		.ascii	"\370\023\322\355\263\366`\267\031\260\023B`\351\236"
 564      B3F660B7 
 564      19B01342 
 564      60E99E
 565 1878 EB4BF761 		.ascii	"\353K\367aMH\223/\241\357\376\006\335\305\267H\257\""
 565      4D48932F 
 565      A1EFFE06 
 565      DDC5B748 
 565      AF22
 566 188a BD86F4BA 		.ascii	"\275\206\364\272\210\0039\227\362\310\334?HH-\274\311"
 566      88033997 
 566      F2C8DC3F 
 566      48482DBC 
 566      C9
 567 189b E5B4DEA4 		.ascii	"\345\264\336\244q\363\216\275[\345\251\243\364\027)"
 567      71F38EBD 
 567      5BE5A9A3 
 567      F41729
 568 18aa 96228DEE 		.ascii	"\226\"\215\356H\316\373\302c\347\030\260E\303\2374\023"
 568      48CEFBC2 
 568      63E718B0 
 568      45C39F34 
 568      13
 569 18bb 7F42FF5A 		.ascii	"\177B\377Zdl\226j\231\376Z\204\324\342\224t3\255\007"
 569      646C966A 
 569      99FE5A84 
 569      D4E29474 
 569      33AD07
 570 18ce 21979846 		.ascii	"!\227\230F667\377T\334}|'\340>l_M`\276w\360\275\355"
 570      363637FF 
 570      54DC7D7C 
 570      27E03E6C 
 570      5F4D60BE 
 571 18e6 FF844FB3 		.ascii	"\377\204O\263\350^\342<\346v\314\036\323s0\204\217Q"
 571      E85EE23C 
 571      E676CC1E 
 571      D3733084 
 571      8F51
 572 18f8 5E8BE398 		.ascii	"^\213\343\230H^\031LJ\263;\216\2517rp\241Ho\254]\206"
 572      485E194C 
 572      4AB33B8E 
 572      A9377270 
 572      A1486FAC 
 573 190e CD939AAD 		.ascii	"\315\223\232\255t\034\323\270\177\013[i\205s4\347\352"
 573      741CD3B8 
ARM GAS  /tmp/ccEbaEuu.s 			page 46


 573      7F0B5B69 
 573      857334E7 
 573      EA
 574 191f 89E9CCBF 		.ascii	"\211\351\314\277rmp\214\345\343\260f0X\333D\260lcI="
 574      726D708C 
 574      E5E3B066 
 574      3058DB44 
 574      B06C6349 
 575 1934 318BC1DA 		.ascii	"1\213\301\332\343\030\213\347\253\206\301:\"\202\345"
 575      E3188BE7 
 575      AB86C13A 
 575      2282E5
 576 1943 B3E76B39 		.ascii	"\263\347k9\203u\3321\026\317\327J\006\353\242\010V\006"
 576      8375DA31 
 576      16CFD74A 
 576      06EBA208 
 576      5606
 577 1955 FFB99AC1 		.ascii	"\377\271\232\301\272\356\030\213\347k-\203\245w\022"
 577      BAEE188B 
 577      E76B2D83 
 577      A57712
 578 1964 C0B2BDED 		.ascii	"\300\262\275\355_O|\300`\215s\214\305\363\265\201\301"
 578      5F4F7CC0 
 578      608D738C 
 578      C5F3B581 
 578      C1
 579 1975 9A2E8265 		.ascii	"\232.\202e{\027\267\236\330\304`\275\343\030\213\347"
 579      7B17B79E 
 579      D8C460BD 
 579      E3188BE7 
 580 1985 6B0BFB8F 		.ascii	"k\013\373\217{\"X\317\332\363\325\300`\255u\214\305"
 580      7B2258CF 
 580      DAF3D5C0 
 580      60AD758C 
 580      C5
 581 1996 F37580C1 		.ascii	"\363u\200\301\332(\202\225\341_\005\0171X\011\307X<"
 581      DA288295 
 581      E15F050F 
 581      315809C7 
 581      583C
 582 19a8 5F9F3158 		.ascii	"_\2371X\037\213`e\370W\301\303\014\326n\307X<_G\031"
 582      1F8B6065 
 582      F857C1C3 
 582      0CD66EC7 
 582      583C5F47 
 583 19bd AC7D2258 		.ascii	"\254}\"X\031\376U\360x\022K\223\357`\010\342\004\213"
 583      19FE55F0 
 583      78124B93 
 583      EF6008E2 
 583      048B
 584 19cf E7EB24C3 		.ascii	"\347\353$\303\327!\021\276\006\246\341+\335\207\235"
 584      D72111BE 
 584      06A6E12B 
 584      DD879D
 585 19de D734F955 		.ascii	"\3274\371U/\211f^\363\342\036:\322\327\221\216E\372"
 585      2F89665E 
 585      F3E21E3A 
ARM GAS  /tmp/ccEbaEuu.s 			page 47


 585      D2D7918E 
 585      45FA
 586 19f0 06D2F148 		.ascii	"\006\322\361H'\"\235\214t*\322iH\337F:\023\351l\244"
 586      27229D8C 
 586      742AD269 
 586      48DF463A 
 586      13E96CA4 
 587 1a04 7390CE45 		.ascii	"s\220\316E:\037\351\002\244\357\"]\214t\011\322\245"
 587      3A1FE902 
 587      A4EF225D 
 587      8C7409D2 
 587      A5
 588 1a15 48977905 		.ascii	"H\227y\005b\246f\341\230\351H'\233\230\351\304\025#"
 588      62A666E1 
 588      98E94827 
 588      9B98E9C4 
 588      1523
 589 1a27 666AC698 		.ascii	"fj\306\230\351:\236w\3176\370ifb\246\331\020\305\310"
 589      E93A9E77 
 589      CF36F869 
 589      6662A6D9 
 589      10C5C8
 590 1a3a E6E2ED0E 		.ascii	"\346\342\355\016\356\014\331W\314\0245\335\263FM+\274"
 590      EE0CD957 
 590      CC1435DD 
 590      B3464D2B 
 590      BC
 591 1a4b 2DA2A6C6 		.ascii	"-\242\246\306\011\215\267\327}%\277\255o{Uon\376\263"
 591      098DB7D7 
 591      7D25BFAD 
 591      6F7B556F 
 591      6EFEB3
 592 1a5e 8385D73A 		.ascii	"\203\205\327:\257\345\035\267d\237:\371\305xn\337\242"
 592      AFE51DB7 
 592      649F3AF9 
 592      C5786EDF 
 592      A2
 593 1a6f AE577FCC 		.ascii	"\256W\177\314\253\313dlCZ\306n\325\354\030)O\034U\273"
 593      ABCB646C 
 593      435AC66E 
 593      D5EC1829 
 593      4F1C55BB 
 594 1a83 53BF4C2E 		.ascii	"S\277L.\215ZX#kM;\3366Yy\033\317\362f\374\035V\362\373"
 594      8D5A5823 
 594      6B4D3BDE 
 594      3659791B 
 594      CFF266FC 
 595 1a9b 34FAC878 		.ascii	"4\372\310x\362\273\361\007\346\026\336\307\331\360\276"
 595      F2BBF107 
 595      E616DEC7 
 595      D9F0BE
 596 1aaa 352DEFD7 		.ascii	"5-\357\3276\324\017\261S\252\313\236\361\355\031\225"
 596      36D40FB1 
 596      53AACB9E 
 596      F1ED1995 
 597 1aba BA42E619 		.ascii	"\272B\346\031\335\307?\267\002\201\214\015\217u<\217"
 597      DDC73FB7 
ARM GAS  /tmp/ccEbaEuu.s 			page 48


 597      02818C0D 
 597      8F753C8F 
 598 1aca 7F2FCD85 		.ascii	"\177/\315\205\211\000\254t\331OF\352\211Wu\262\346\226"
 598      8900AC74 
 598      D94F46EA 
 598      895775B2 
 598      E696
 599 1adc 65FAF7F3 		.ascii	"e\372\367\363\212t8\011b\006\220-\377\250~W\012\320"
 599      8A743809 
 599      6206902D 
 599      FFA87E57 
 599      0AD0
 600 1aee B28546FE 		.ascii	"\262\205F\3764\327N\272\335\336<\233Z\0073\324\252\267"
 600      34D74EBA 
 600      DDDE3C9B 
 600      5A0733D4 
 600      AAB7
 601 1b00 AD752443 		.ascii	"\255u$C\255Olk\021\303\265\253\265\307\266\326\366\014"
 601      AD4F6C6B 
 601      11C3B5AB 
 601      B5C7B6D6 
 601      F60C
 602 1b12 B5F6DAD6 		.ascii	"\265\366\332\326\332\224\241\326>\333Zd\311kW\253!U"
 602      DA94A1D6 
 602      3EDB5A64 
 602      C96B57AB 
 602      2155
 603 1b24 4B72054A 		.ascii	"Kr\005J\265\250\347\205\227~\347+\222\334\376\347#\221"
 603      B5A8E785 
 603      977EE72B 
 603      92DCFEE7 
 603      2391
 604 1b36 B22E0543 		.ascii	"\262.\005Cb\321\202\262\360\240\202\301\201@\201\026"
 604      62D182B2 
 604      F0A082C1 
 604      81408116 
 605 1b46 2DFF7545 		.ascii	"-\377uE\244\"\364\353\2206(\\\320\365\361n\217w-\010"
 605      A422F4EB 
 605      9036285C 
 605      D0F5F16E 
 605      8F772D08 
 606 1b5a 5704CA86 		.ascii	"W\004\312\206\004C\005\261x0\030*y\274T\362\304\302"
 606      044305B1 
 606      7830182A 
 606      79BC54F2 
 606      C4C2
 607 1b6c FF2FE48F 		.ascii	"\377/\344\217?\020\324\342ZL+\257,\013=\036\220\330"
 607      3F10D4E2 
 607      5A4C2BAF 
 607      2C0B3D1E 
 607      90D8
 608 1b7e 6FA5523E 		.ascii	"o\245R>\371\326\037\277\371\343?\307&xh\0064\\\021\207"
 608      F9D61FBF 
 608      F9E33FC7 
 608      26786806 
 608      345C1187 
 609 1b92 1A3943E0 		.ascii	"\0329C\340\370D\027\177\274k\206\263\313\265@i\270\""
ARM GAS  /tmp/ccEbaEuu.s 			page 49


 609      F844177F 
 609      BC6B86B3 
 609      CBB54069 
 609      B822
 610 1ba4 54E00746 		.ascii	"T\340\007F\264!eq\177|De(\006\265\333\370\375f}%V\341"
 610      B4216571 
 610      7F7C4465 
 610      2806B5DB 
 610      F8FD667D 
 611 1bbb 8A87CB43 		.ascii	"\212\207\313Cy\203+c&\0079eZ<\034\007\204\334\262H\305"
 611      79832B63 
 611      26073965 
 611      5A3C1C07 
 611      84DCB248 
 612 1bd0 60CCE568 		.ascii	"`\314\345he\264('\246\305\213\"C*\342*Th3\250\274\262"
 612      65B42827 
 612      A6C58B22 
 612      432AE22A 
 612      546833A8 
 613 1be6 4BB7C201 		.ascii	"K\267\302\001\241\362\312<\232\355\027\015\305b\271"
 613      A1F2CA3C 
 613      9AED170D 
 613      C562B9
 614 1bf5 E1A70ABB 		.ascii	"\341\247\012\273\024\2768\244<Hs\344\367\334P\262,d"
 614      14BE38A4 
 614      3C4873E4 
 614      F7DC50B2 
 614      2C64
 615 1c07 96B5298F 		.ascii	"\226\265)\217\375\346\311\302\247\260:\315\322\352\345"
 615      FDE6C9C2 
 615      A7B03ACD 
 615      D2EAE5
 616 1c16 95C3CB31 		.ascii	"\225\303\3131\227W\032.}\262\360\011\254f\346\261b\034"
 616      97571A2E 
 616      7DB2F009 
 616      AC66E6B1 
 616      621C
 617 1c28 1A7BEA37 		.ascii	"\032{\3527$\353\215\306\203\344\250\016\015W\250Z \240"
 617      24EB8DC6 
 617      83E4A80E 
 617      0D57A85A 
 617      20A0
 618 1c3a 966B83DB 		.ascii	"\226k\203\333\245\224\353\017W\204\343r\314\003\322"
 618      A594EB0F 
 618      5784E372 
 618      CC03D2
 619 1c49 7603C1FC 		.ascii	"v\003\301\374~\232A\365\227E\006\017\016EA\035 \346"
 619      7E9A41F5 
 619      9745060F 
 619      0E45411D 
 619      20E6
 620 1c5b E0923091 		.ascii	"\340\2220\221\334k\344P\275\235\237\364\307\015M\221"
 620      DC6BE450 
 620      BD9D9FF4 
 620      C70D4D91 
 621 1c6b AC120EBA 		.ascii	"\254\022\016\272*\264\362P~\252.\374\236\372\3226\026"
 621      2AB4F250 
ARM GAS  /tmp/ccEbaEuu.s 			page 50


 621      7EAA2EFC 
 621      9EFAD236 
 621      16
 622 1c7c 2C2F0FC4 		.ascii	",/\017\304\302F\237z\361\253?\356\306\343\223\005\245"
 622      C2469F7A 
 622      F1AB3FEE 
 622      C6E39305 
 622      A5
 623 1c8d 91F25041 		.ascii	"\221\362PA \022\034Q\020\014\015-\200\216\031\024\216"
 623      20121C51 
 623      100C0D2D 
 623      808E1914 
 623      8E
 624 1c9e C40AE2D1 		.ascii	"\304\012\342\321!\025\177,\200L\251V\226\3527\250\027"
 624      21157F2C 
 624      804CA956 
 624      96EA37A8 
 624      17
 625 1caf AB0C13CE 		.ascii	"\253\014\023\316\372\364)\352\036\015\017\015E\363\223"
 625      FAF429EA 
 625      1E0D0F0D 
 625      45F393
 626 1cbe B97FEF33 		.ascii	"\271\177\3573 /\034\003Ab\241h<\024\314\207|e4\022\017"
 626      202F1C03 
 626      4162A168 
 626      3C14CC87 
 626      7C653412 
 627 1cd3 05E08B37 		.ascii	"\005\340\2137\020\251\250\200\\\233`8fd\275C\250\310"
 627      10A9A880 
 627      5C9B6038 
 627      6664BD43 
 627      A8C8
 628 1ce5 B95412C8 		.ascii	"\271T\022\310\271\242!-\350\036\026\015\307C\256\330"
 628      B9A2212D 
 628      E81E160D 
 628      C743AED8 
 629 1cf5 888AC03F 		.ascii	"\210\212\300?;\341\015\362\376pdPY$\360G\340\257\335"
 629      3BE10DF2 
 629      FE706450 
 629      5924F047 
 629      E0AFDD
 630 1d08 F324D33D 		.ascii	"\363$\323=44\034\010\365\252(\211\344\014*\373\243\237"
 630      34341C08 
 630      F5AA2889 
 630      E40C2AFB 
 630      A39F
 631 1d1a D8BB9764 		.ascii	"\330\273\227d*\206\224\347\014\016\305\201\325\222\210"
 631      2A8694E7 
 631      0C0EC581 
 631      D59288
 632 1d29 3AB43CDE 		.ascii	":\264<\336\006\012cq-\016\212n\363|\357\177\363\377"
 632      060A6371 
 632      2D0E8A6E 
 632      F37CEF7F 
 632      F3FF
 633 1d3b EEA55E2F 		.ascii	"\356\245^/\365\032\220C\262\375\007\364\355\207e\317"
 633      F51A9043 
ARM GAS  /tmp/ccEbaEuu.s 			page 51


 633      B2FD07F4 
 633      ED8765CF 
 634 1d4b 150DE8F5 		.ascii	"\025\015\350\365\357=\332\222lQ\337\227^\352\001__z"
 634      EF3DDA92 
 634      6C51DF97 
 634      5EEA015F 
 634      5F7A
 635 1d5d E141F2B5 		.ascii	"\341A\362\265{\257\376\251\222\\RR\334\343\271\356\257"
 635      7BAFFEA9 
 635      925C5252 
 635      DCE3B9EE 
 635      AF
 636 1d6e E4993928 		.ascii	"\344\2319(\305\374\357\213{\0150\363\375_y\251\010\362"
 636      C5FCEF8B 
 636      7B0D30F3 
 636      FD5F79A9 
 636      08F2
 637 1d80 6E6C550D 		.ascii	"nlU\015\204\203j \026\314\011h\225Z \034\037\321]D\360"
 637      84836A20 
 637      16CC0968 
 637      955A201C 
 637      1FD15D44 
 638 1d95 CA48341E 		.ascii	"\312H4\036+\350?\240\317\023]\012z\367\356^\320\277"
 638      2BE83FA0 
 638      CF135D0A 
 638      7AF7EE5E 
 638      D0BF
 639 1da7 5FAFA19D 		.ascii	"_\257\241\235\013\240{\374eeA\322EP@;\246\213\023=\322"
 639      0BA07BFC 
 639      656541D2 
 639      4550403B 
 639      A68B133D 
 640 1dbc FE6D0307 		.ascii	"\376m\003\007S#\200cj\204d\211F\0106\225\022\177\245"
 640      53238063 
 640      6A846489 
 640      46083695 
 640      127FA5
 641 1dcf BAC927D9 		.ascii	"\272\311'\331\242\276}\372\365\3561\240\307\003\000"
 641      A2BE7DFA 
 641      F5EE31A0 
 641      C70300
 642 1dde 10D0CACA 		.ascii	"\020\320\312\312\006i\201?\372\343\236PE\320\037\030"
 642      0669813F 
 642      FAE39E50 
 642      45D01F18 
 643 1dee D4A33572 		.ascii	"\324\2435r\275\320\257W\337\241]\012*\241\177\251`\371"
 643      BDD0AF57 
 643      DFA15D0A 
 643      2AA17FA9 
 643      60F9
 644 1e00 B1783978 		.ascii	"\261x9x\210\301\225\341\010Xq\237\276\335{\024{\372"
 644      88C195E1 
 644      0858719F 
 644      BEDD7B14 
 644      7BFA
 645 1e12 0E78A55F 		.ascii	"\016x\245_\217bo\337\376\375z\364\350^\354\356\367\273"
 645      8F626FDF 
ARM GAS  /tmp/ccEbaEuu.s 			page 52


 645      FEFD7AF4 
 645      E85EECEE 
 645      F7BB
 646 1e24 7EDD8BD5 		.ascii	"~\335\213\325^\220\372v/\226\177\257\306Bqw\240,\244"
 646      5E90FA76 
 646      2F967FAF 
 646      C6427177 
 646      A02CA4
 647 1e37 45E5175D 		.ascii	"E\345\027]\317\367/.v\365.\372\267b\327s=\213{\023\362"
 647      CFF72F2E 
 647      76F52EFA 
 647      B762D773 
 647      3D8B7B13 
 648 1e4c A2FA7C71 		.ascii	"\242\372|qq\233p\204\264\034\016\002\267\261\030\311"
 648      719B7084 
 648      B41C0E02 
 648      B7B118C9 
 649 1e5c BAE1A041 		.ascii	"\272\341\240A\307D;\023q\213\"\025%\341\301\236\000"
 649      C7443B13 
 649      718B2215 
 649      25E1C19E 
 649      00
 650 1e6d 1EBA6513 		.ascii	"\036\272e\023$\032O*4P\032\033\0213\035\\N\274\224\030"
 650      241A4F2A 
 650      34501A1B 
 650      11331D5C 
 650      4EBC9418 
 651 1e81 39587DA0 		.ascii	"9X}\240\324O\363]\235a\005J\211\016<\225\376\212\320"
 651      D44FF35D 
 651      9D61054A 
 651      890E3C95 
 651      FE8AD0
 652 1e94 F0381C2A 		.ascii	"\3608\034*\243\241\241/\012@P\265>W\334\247\250\317"
 652      A3A1A12F 
 652      0A4050B5 
 652      3E57DCA7 
 652      A8CF
 653 1ea6 7038B3BC 		.ascii	"p8\263\274\022\274I4V\360BQ\021\234n\262\347\215WF\211"
 653      12BC4934 
 653      56F04251 
 653      119C6EB2 
 653      E78D5746 
 654 1ebb 5611371C 		.ascii	"V\0217\034!\2436\016\315<\355\030\2774\020\211\022g"
 654      21A3360E 
 654      CD3CED18 
 654      BF341089 
 654      1267
 655 1ecd 93478A89 		.ascii	"\223G\212\211o\013\304\207\377k\353P\374C\237*'\232"
 655      6F0BC487 
 655      FF6BEB50 
 655      FC439F2A 
 655      279A
 656 1edf 8B8606C3 		.ascii	"\213\206\006\303l\342\217\253\261\316OBz\012R7HO\253"
 656      6CE28FAB 
 656      B1CE4F42 
 656      7A0A5237 
 656      484FAB
ARM GAS  /tmp/ccEbaEuu.s 			page 53


 657 1ef2 B12E8590 		.ascii	"\261.\205\220:C\352\002\351\011H]!\375\006\022\234\327"
 657      3A43EA02 
 657      E909485D 
 657      21FD0612 
 657      9CD7
 658 1f04 05CEEB02 		.ascii	"\005\316\353\002\347u\201\363\236\200\363\236\350\254"
 658      E77581F3 
 658      9E80F39E 
 658      E8AC
 659 1f12 44BB2AD1 		.ascii	"D\273*\321\337(\321'\225\350SJ\264\233\022}Z\215v.\204"
 659      DF28D127 
 659      95E8534A 
 659      B49B127D 
 659      5A8D762E 
 660 1f27 D459298B 		.ascii	"\324Y)\213\302\341\011w\245\037\270\365\022\015\017"
 660      C2E10977 
 660      A51FB8F5 
 660      120D0F
 661 1f36 0B45E118 		.ascii	"\013E\341\030)\013\206\242D\343\340ds\342\306\260\200"
 661      290B86A2 
 661      44E3E064 
 661      73E2C6B0 
 661      80
 662 1f47 72CC79E3 		.ascii	"r\314y\343\345\221 \375^R\246\015\216y\343\321PI\014"
 662      E59120FD 
 662      5E52A60D 
 662      8E79E3D1 
 662      50490C
 663 1f5a 554832EE 		.ascii	"UH2\356\362\330`\370\321\230\324r\321\317\223\234'\032"
 663      F2D860F8 
 663      D198D472 
 663      D1CF939C 
 663      271A
 664 1f6c 1C013FE5 		.ascii	"\034\001?\345\204\206\207\343\240\221\220gX<2\350\017"
 664      848687E3 
 664      A0919067 
 664      583C32E8 
 664      0F
 665 1f7d 9579A1A1 		.ascii	"\225y\241\241\241\212x\271\026\303A3\214d\324J\377\220"
 665      A18A78B9 
 665      16C34133 
 665      8C64D44A 
 665      FF90
 666 1f8f B6D45462 		.ascii	"\266\324Tb\3762\030\225\376x\273\244\361\320\222\334"
 666      FE321895 
 666      FE78BBA4 
 666      F1D092DC 
 667 1f9f 4A       		.ascii	"J"
 668 1fa0 FF302D1C 		.ascii	"\3770-\034\017W\014ng\026\377\347\220\320\020\340\252"
 668      0F570C6E 
 668      6716FFE7 
 668      90D010E0 
 668      AA
 669 1fb1 3D732616 		.ascii	"=s&\026\265\251\364C\263\230uc\026\012B\2250<\241\262"
 669      B5A9F443 
 669      B3987563 
 669      160A4295 
ARM GAS  /tmp/ccEbaEuu.s 			page 54


 669      303CA1B2 
 670 1fc5 BB7C08F4 		.ascii	"\273|\010\364\366\023\216\354\261<>\234\330M9E\207c"
 670      F6138EEC 
 670      B13C3E9C 
 670      D84D3945 
 670      8763
 671 1fd7 64580528 		.ascii	"dX\005(\015\221@\204r4S\340\017\316#\234\266!Z\321\312"
 671      0D914084 
 671      723453E0 
 671      0FCE239C 
 671      B6215AD1 
 672 1fec D0B8A0B0 		.ascii	"\320\270\240\260\022\"\227\247\034\265g\010\003m>d\014"
 672      122297A7 
 672      1CB56708 
 672      036D3E64 
 672      0C
 673 1ffd 25D072   		.ascii	"%\320r"
 674 2000 281AAA08 		.ascii	"(\032\252\010\200\264\036Z\364/\331\020\201\245\202"
 674      80B41E5A 
 674      F42FD910 
 674      81A582
 675 200f A23EFD7B 		.ascii	"\242>\375{\365\0077S\200\336\244\244ka\347\341\001b"
 675      F5073753 
 675      80DEA4A4 
 675      6B61E7E1 
 675      0162
 676 2021 B0C4890D 		.ascii	"\260\304\211\015\200\341\320=T\242\026\025w\206\324"
 676      80E1D03D 
 676      54A21615 
 676      7786D4
 677 2030 45E95FAC 		.ascii	"E\351_\254\200S)*.\352W\354)~\031\216\305\236\001x\360"
 677      8053292A 
 677      2EEA57EC 
 677      297E198E 
 677      C59E0178 
 678 2045 F6EAD2BF 		.ascii	"\366\352\322\277\250\347\013\305n8\366+V\301\347\365"
 678      A8E70BC5 
 678      6E38F62B 
 678      56C1E7F5 
 679 2055 74EAE290 		.ascii	"t\352\342\220\366\354:|8e\304\037,\327\210p\335\373"
 679      F6EC3A7C 
 679      3865C41F 
 679      2CD78870 
 679      DDFB
 680 2067 3CE7EF0F 		.ascii	"<\347\357\017\246\244\225\233\334(E\305\256\227\272"
 680      A6A4959B 
 680      DC2845C5 
 680      AE97BA
 681 2076 0F2856FB 		.ascii	"\017(V\373=W\354\352SHH\347\347\212\325\236\300L\014"
 681      3D57ECEA 
 681      534848E7 
 681      E78AD59E 
 681      C04C0C
 682 2089 4F74854B 		.ascii	"Ot\205K\002QO8V\032.\211\347\306Be%\341\212`h\270g("
 682      02514F38 
 682      561A2E89 
 682      E7C64265 
ARM GAS  /tmp/ccEbaEuu.s 			page 55


 682      25E18A60 
 683 20a1 CCB591E8 		.ascii	"\314\265\221\350CIt?=\033\\'|\211\016'4><7:\034\216"
 683      4349743F 
 683      3D1B5C27 
 683      7C890E27 
 683      343E3C37 
 684 20b8 C49273E3 		.ascii	"\304\222s\343f\316\005\342T\272\313b\201\222\301\356"
 684      66CE05E2 
 684      54BACB62 
 684      8192C1EE 
 685 20c8 5242C9A4 		.ascii	"RB\311\244O\335`;\234g\375Z0H\242\241P\314\005\221A"
 685      4FDD603B 
 685      9C67FD5A 
 685      3048A2A1 
 685      50CC0591 
 686 20dd 909C1FCC 		.ascii	"\220\234\037\314j=D\367%Z\274$V\020\213\006\012JH \352"
 686      6A3D44F7 
 686      255ABC24 
 686      56108B06 
 686      0A4A4820 
 687 20f2 EEF9DC80 		.ascii	"\356\371\334\200\236\375\263\372T\276&\214\243\020\215"
 687      9EFDB3FA 
 687      54BE268C 
 687      A3108D
 688 2101 925CCFBF 		.ascii	"\222\\\317\2772\240\207\227\2149P\224\032\214\016u\007"
 688      32A08797 
 688      8C395094 
 688      1A8C0E75 
 688      07
 689 2112 C84CEFA9 		.ascii	"\310L\357\251\360\303\3311\36702,sJba\034\237\256\337"
 689      F0C3D931 
 689      F730322C 
 689      734A6261 
 689      1C9FAEDF 
 690 2126 F72DEE9E 		.ascii	"\367-\356\236[\341\217F\"\020\262F\335\335\311\3676"
 690      5BE18F46 
 690      2210B246 
 690      DDDDC9F7 
 690      36
 691 2137 651A0C2B 		.ascii	"e\032\014+010\320\222h(D\2639\010\000\303\321]\202\221"
 691      303130D0 
 691      92682844 
 691      B3390800 
 691      C3D15D82 
 692 214c C3D008CC 		.ascii	"\303\320\010\314f\261\220\027\012\361\010\325\3111\207"
 692      66B19017 
 692      0AF108D5 
 692      C93187
 693 215b 445A5830 		.ascii	"DZX0\214\204>\201\270\012G/\011\326\300\357\347\200"
 693      8C843E81 
 693      B80A472F 
 693      09D6C0EF 
 693      E780
 694 216d 628AC124 		.ascii	"b\212\301$G\000\177xTc\301\000\011\346\372i\361\322"
 694      47007F78 
 694      5463C100 
 694      09E6FA69 
ARM GAS  /tmp/ccEbaEuu.s 			page 56


 694      F1D2
 695 217f FC20999E 		.ascii	"\374 \231\236\373\220\2405\024\364T`\025\017\215\331"
 695      FB90A035 
 695      14F45460 
 695      150F8DD9 
 696 218f D49EBD7A 		.ascii	"\324\236\275z+%1\027aY\015E\243\256\222\312x\324\023"
 696      2B253117 
 696      61590D45 
 696      A3AE92CA 
 696      78D413
 697 21a2 43BEDC94 		.ascii	"C\276\334\224\006I[9\300\204\237d\0107~8G\0354\244\304"
 697      06495B39 
 697      C0849F64 
 697      08377E38 
 697      471D34A4 
 698 21b7 4590BCC3 		.ascii	"E\220\274\303\242\030\016\273\"0\272\177\310\004\236"
 698      A2180EBB 
 698      2230BA7F 
 698      C8049E
 699 21c6 185F0D88 		.ascii	"\030_\015\210\364\216\014V\241-\017D\313\240\303\007"
 699      F48E0C56 
 699      A12D0F44 
 699      CBA0C307 
 700 21d6 E0D03B12 		.ascii	"\340\320;\022\200\360:R\341\217\267e\276\201\021\376"
 700      80F03A52 
 700      E18FB765 
 700      BE8111FE 
 701 21e6 88A90DBF 		.ascii	"\210\251\015\277\014\210\320x\034\252\007\\\244\270"
 701      0C88D078 
 701      1CAA075C 
 701      A4B8
 702 21f4 7D2C5411 		.ascii	"},T\021\213D\015G\20334\026t\207j\340\257a\350{\343"
 702      8B440D47 
 702      83333416 
 702      74876AE0 
 702      AF61E87B 
 703 2209 210C8CF1 		.ascii	"!\014\214\361X\034\017\266!\307>\030Y\347U\022\023\242"
 703      581C0FB6 
 703      21C73E18 
 703      59E75512 
 703      13A2
 704 221b 79FCF9F9 		.ascii	"y\374\371\371\362\312\034,\203L.\375\021\302\356\274"
 704      F2CA1C2C 
 704      834C2EFD 
 704      11C2EEBC 
 705 222b 5208B549 		.ascii	"R\010\265I|\336\253\"\236GN3\363fy\217\341\251r\310"
 705      7CDEAB22 
 705      9E474E33 
 705      F366798F 
 705      E1A972C8 
 706 223f E7907212 		.ascii	"\347\220r\022\226\347\220B\222qA\020\3762!\257\020\362"
 706      96E79042 
 706      92714110 
 706      FE3221AF 
 706      10F2
 707 2251 1F2E88C7 		.ascii	"\037.\210\307_&\344\025B\376\3035\024\374H'FP*BRX\257"
 707      5F26E415 
ARM GAS  /tmp/ccEbaEuu.s 			page 57


 707      42FEC335 
 707      14FC4827 
 707      46502A42 
 708 2268 F1DD0BAA 		.ascii	"\361\335\013\252'F\347\035\002\212)\252\034\221o\004"
 708      2746E71D 
 708      028A29AA 
 708      1C916F04 
 709 2278 E6BF275A 		.ascii	"\346\277'Z\315j\374C5p|Cb\360\003x\300\21281\37660\247"
 709      CD6AFC43 
 709      35707C43 
 709      62F00378 
 709      C08A3831 
 710 2290 57D06F18 		.ascii	"W\320o\030\300\367#\331\347\207\224\374\027\247\216"
 710      C0F723D9 
 710      E78794FC 
 710      17A78E
 711 229f 8883     		.ascii	"\210\203"
 712              		.text
 713              		.section	.gnu.lto_.symtab.6ab4b878b8c93de3,"",%progbits
 714 0000 64617461 		.ascii	"datasample_init\000\000\000\000\000\000\000\000\000"
 714      73616D70 
 714      6C655F69 
 714      6E697400 
 714      00000000 
 715 0018 000000B7 		.ascii	"\000\000\000\267\000\000\000datasample_writeToLog\000"
 715      00000064 
 715      61746173 
 715      616D706C 
 715      655F7772 
 716 0035 00000000 		.ascii	"\000\000\000\000\000\000\000\000\000\000\000\005\001"
 716      00000000 
 716      00000005 
 716      01
 717 0042 00006461 		.ascii	"\000\000datasample_gpsToSample\000\000\000\000\000\000"
 717      74617361 
 717      6D706C65 
 717      5F677073 
 717      546F5361 
 718 0060 00000000 		.ascii	"\000\000\000\000\000\000d\003\000\000datasample_sen"
 718      00006403 
 718      00006461 
 718      74617361 
 718      6D706C65 
 719 0078 736F7273 		.ascii	"sorsToSample\000\000\000\000\000\000\000\000\000\000"
 719      546F5361 
 719      6D706C65 
 719      00000000 
 719      00000000 
 720 008e 00007C03 		.ascii	"\000\000|\003\000\000uStrCpy\000\000\002\000\000\000"
 720      00007553 
 720      74724370 
 720      79000002 
 720      000000
 721 00a1 00000000 		.ascii	"\000\000\000\000\000\000\266\003\000\000logfileWrit"
 721      0000B603 
 721      00006C6F 
 721      6766696C 
ARM GAS  /tmp/ccEbaEuu.s 			page 58


 721      65577269 
 722 00b6 65000002 		.ascii	"e\000\000\002\000\000\000\000\000\000\000\000\000\273"
 722      00000000 
 722      00000000 
 722      00BB
 723 00c4 03000063 		.ascii	"\003\000\000chsnprintf\000\000\002\000\000\000\000\000"
 723      68736E70 
 723      72696E74 
 723      66000002 
 723      00000000 
 724 00d9 00000000 		.ascii	"\000\000\000\000\302\003\000\000"
 724      C2030000 
 725              		.text
 726              		.section	.gnu.lto_.opts,"",%progbits
 727 0000 272D6D63 		.ascii	"'-mcpu=cortex-m4' '-mfloat-abi=hard' '-mfpu=fpv4-sp"
 727      70753D63 
 727      6F727465 
 727      782D6D34 
 727      2720272D 
 728 0033 2D643136 		.ascii	"-d16' '-mno-thumb-interwork' '-mthumb' '-O2' '-fomi"
 728      2720272D 
 728      6D6E6F2D 
 728      7468756D 
 728      622D696E 
 729 0066 742D6672 		.ascii	"t-frame-pointer' '-falign-functions=16' '-ffunction"
 729      616D652D 
 729      706F696E 
 729      74657227 
 729      20272D66 
 730 0099 2D736563 		.ascii	"-sections' '-fdata-sections' '-fno-common' '-flto' "
 730      74696F6E 
 730      73272027 
 730      2D666461 
 730      74612D73 
 731 00cc 272D6673 		.ascii	"'-fsingle-precision-constant'\000"
 731      696E676C 
 731      652D7072 
 731      65636973 
 731      696F6E2D 
 732              		.text
 733              		.section	.text.datasample_init,"ax",%progbits
 734              		.align	2
 735              		.p2align 4,,15
 736              		.global	datasample_init
 737              		.thumb
 738              		.thumb_func
 739              		.type	datasample_init, %function
 740              	datasample_init:
 741              		@ args = 0, pretend = 0, frame = 0
 742              		@ frame_needed = 0, uses_anonymous_args = 0
 743 0000 38B5     		push	{r3, r4, r5, lr}
 744 0002 1B4D     		ldr	r5, .L2
 745 0004 1B49     		ldr	r1, .L2+4
 746 0006 0446     		mov	r4, r0
 747 0008 0430     		adds	r0, r0, #4
 748 000a FFF7FEFF 		bl	uStrCpy
 749 000e 04F10E00 		add	r0, r4, #14
ARM GAS  /tmp/ccEbaEuu.s 			page 59


 750 0012 2946     		mov	r1, r5
 751 0014 FFF7FEFF 		bl	uStrCpy
 752 0018 04F11E00 		add	r0, r4, #30
 753 001c 2946     		mov	r1, r5
 754 001e FFF7FEFF 		bl	uStrCpy
 755 0022 04F12E00 		add	r0, r4, #46
 756 0026 2946     		mov	r1, r5
 757 0028 FFF7FEFF 		bl	uStrCpy
 758 002c 2946     		mov	r1, r5
 759 002e 04F13D00 		add	r0, r4, #61
 760 0032 FFF7FEFF 		bl	uStrCpy
 761 0036 0023     		movs	r3, #0
 762 0038 A364     		str	r3, [r4, #72]	@ float
 763 003a E364     		str	r3, [r4, #76]	@ float
 764 003c E367     		str	r3, [r4, #124]	@ float
 765 003e 2365     		str	r3, [r4, #80]	@ float
 766 0040 6365     		str	r3, [r4, #84]	@ float
 767 0042 A365     		str	r3, [r4, #88]	@ float
 768 0044 E365     		str	r3, [r4, #92]	@ float
 769 0046 2366     		str	r3, [r4, #96]	@ float
 770 0048 6366     		str	r3, [r4, #100]	@ float
 771 004a A366     		str	r3, [r4, #104]	@ float
 772 004c E366     		str	r3, [r4, #108]	@ float
 773 004e 2367     		str	r3, [r4, #112]	@ float
 774 0050 6367     		str	r3, [r4, #116]	@ float
 775 0052 A367     		str	r3, [r4, #120]	@ float
 776 0054 C4F88030 		str	r3, [r4, #128]	@ float
 777 0058 C4F88430 		str	r3, [r4, #132]	@ float
 778 005c C4F88830 		str	r3, [r4, #136]	@ float
 779 0060 C4F88C30 		str	r3, [r4, #140]	@ float
 780 0064 C4F89030 		str	r3, [r4, #144]	@ float
 781 0068 C4F89430 		str	r3, [r4, #148]	@ float
 782 006c 38BD     		pop	{r3, r4, r5, pc}
 783              	.L3:
 784 006e 00BF     		.align	2
 785              	.L2:
 786 0070 08000000 		.word	.LC1
 787 0074 00000000 		.word	.LC0
 788              		.size	datasample_init, .-datasample_init
 789              		.global	__aeabi_f2d
 790 0078 AFF30080 		.section	.text.datasample_writeToLog,"ax",%progbits
 790      AFF30080 
 791              		.align	2
 792              		.p2align 4,,15
 793              		.global	datasample_writeToLog
 794              		.thumb
 795              		.thumb_func
 796              		.type	datasample_writeToLog, %function
 797              	datasample_writeToLog:
 798              		@ args = 0, pretend = 0, frame = 0
 799              		@ frame_needed = 0, uses_anonymous_args = 0
 800 0000 2DE9F041 		push	{r4, r5, r6, r7, r8, lr}
 801 0004 0668     		ldr	r6, [r0]
 802 0006 464D     		ldr	r5, .L5
 803 0008 0246     		mov	r2, r0
 804 000a 0136     		adds	r6, r6, #1
 805 000c AEB0     		sub	sp, sp, #184
ARM GAS  /tmp/ccEbaEuu.s 			page 60


 806 000e 0446     		mov	r4, r0
 807 0010 406F     		ldr	r0, [r0, #116]	@ float
 808 0012 42F8046B 		str	r6, [r2], #4
 809 0016 04F11E0C 		add	ip, r4, #30
 810 001a 04F12E0E 		add	lr, r4, #46
 811 001e 04F13D03 		add	r3, r4, #61
 812 0022 04F10E08 		add	r8, r4, #14
 813 0026 8DE80451 		stmia	sp, {r2, r8, ip, lr}
 814 002a 0493     		str	r3, [sp, #16]
 815 002c 0F46     		mov	r7, r1
 816 002e FFF7FEFF 		bl	__aeabi_f2d
 817 0032 CDE90601 		strd	r0, [sp, #24]
 818 0036 606D     		ldr	r0, [r4, #84]	@ float
 819 0038 FFF7FEFF 		bl	__aeabi_f2d
 820 003c CDE90801 		strd	r0, [sp, #32]
 821 0040 206D     		ldr	r0, [r4, #80]	@ float
 822 0042 FFF7FEFF 		bl	__aeabi_f2d
 823 0046 CDE90A01 		strd	r0, [sp, #40]
 824 004a A06C     		ldr	r0, [r4, #72]	@ float
 825 004c FFF7FEFF 		bl	__aeabi_f2d
 826 0050 CDE90C01 		strd	r0, [sp, #48]
 827 0054 E06C     		ldr	r0, [r4, #76]	@ float
 828 0056 FFF7FEFF 		bl	__aeabi_f2d
 829 005a CDE90E01 		strd	r0, [sp, #56]
 830 005e E06D     		ldr	r0, [r4, #92]	@ float
 831 0060 FFF7FEFF 		bl	__aeabi_f2d
 832 0064 CDE91001 		strd	r0, [sp, #64]
 833 0068 A06D     		ldr	r0, [r4, #88]	@ float
 834 006a FFF7FEFF 		bl	__aeabi_f2d
 835 006e CDE91201 		strd	r0, [sp, #72]
 836 0072 206F     		ldr	r0, [r4, #112]	@ float
 837 0074 FFF7FEFF 		bl	__aeabi_f2d
 838 0078 CDE91401 		strd	r0, [sp, #80]
 839 007c E06E     		ldr	r0, [r4, #108]	@ float
 840 007e FFF7FEFF 		bl	__aeabi_f2d
 841 0082 CDE91601 		strd	r0, [sp, #88]
 842 0086 206E     		ldr	r0, [r4, #96]	@ float
 843 0088 FFF7FEFF 		bl	__aeabi_f2d
 844 008c CDE91801 		strd	r0, [sp, #96]
 845 0090 606E     		ldr	r0, [r4, #100]	@ float
 846 0092 FFF7FEFF 		bl	__aeabi_f2d
 847 0096 CDE91A01 		strd	r0, [sp, #104]
 848 009a A06E     		ldr	r0, [r4, #104]	@ float
 849 009c FFF7FEFF 		bl	__aeabi_f2d
 850 00a0 CDE91C01 		strd	r0, [sp, #112]
 851 00a4 A06F     		ldr	r0, [r4, #120]	@ float
 852 00a6 FFF7FEFF 		bl	__aeabi_f2d
 853 00aa CDE91E01 		strd	r0, [sp, #120]
 854 00ae E06F     		ldr	r0, [r4, #124]	@ float
 855 00b0 FFF7FEFF 		bl	__aeabi_f2d
 856 00b4 CDE92001 		strd	r0, [sp, #128]
 857 00b8 D4F88000 		ldr	r0, [r4, #128]	@ float
 858 00bc FFF7FEFF 		bl	__aeabi_f2d
 859 00c0 CDE92201 		strd	r0, [sp, #136]
 860 00c4 D4F88400 		ldr	r0, [r4, #132]	@ float
 861 00c8 FFF7FEFF 		bl	__aeabi_f2d
 862 00cc CDE92401 		strd	r0, [sp, #144]
ARM GAS  /tmp/ccEbaEuu.s 			page 61


 863 00d0 D4F88800 		ldr	r0, [r4, #136]	@ float
 864 00d4 FFF7FEFF 		bl	__aeabi_f2d
 865 00d8 CDE92601 		strd	r0, [sp, #152]
 866 00dc D4F88C00 		ldr	r0, [r4, #140]	@ float
 867 00e0 FFF7FEFF 		bl	__aeabi_f2d
 868 00e4 CDE92801 		strd	r0, [sp, #160]
 869 00e8 D4F89000 		ldr	r0, [r4, #144]	@ float
 870 00ec FFF7FEFF 		bl	__aeabi_f2d
 871 00f0 CDE92A01 		strd	r0, [sp, #168]
 872 00f4 D4F89400 		ldr	r0, [r4, #148]	@ float
 873 00f8 FFF7FEFF 		bl	__aeabi_f2d
 874 00fc 3346     		mov	r3, r6
 875 00fe CDE92C01 		strd	r0, [sp, #176]
 876 0102 084A     		ldr	r2, .L5+4
 877 0104 2846     		mov	r0, r5
 878 0106 4FF48071 		mov	r1, #256
 879 010a FFF7FEFF 		bl	chsnprintf
 880 010e 2946     		mov	r1, r5
 881 0110 82B2     		uxth	r2, r0
 882 0112 0023     		movs	r3, #0
 883 0114 3846     		mov	r0, r7
 884 0116 2EB0     		add	sp, sp, #184
 885              		@ sp needed
 886 0118 BDE8F041 		pop	{r4, r5, r6, r7, r8, lr}
 887 011c FFF7FEBF 		b	logfileWrite
 888              	.L6:
 889              		.align	2
 890              	.L5:
 891 0120 00000000 		.word	.LANCHOR0
 892 0124 0C000000 		.word	.LC2
 893              		.size	datasample_writeToLog, .-datasample_writeToLog
 894 0128 AFF30080 		.section	.text.datasample_gpsToSample,"ax",%progbits
 894      AFF30080 
 895              		.align	2
 896              		.p2align 4,,15
 897              		.global	datasample_gpsToSample
 898              		.thumb
 899              		.thumb_func
 900              		.type	datasample_gpsToSample, %function
 901              	datasample_gpsToSample:
 902              		@ args = 0, pretend = 0, frame = 0
 903              		@ frame_needed = 0, uses_anonymous_args = 0
 904 0000 38B5     		push	{r3, r4, r5, lr}
 905 0002 0446     		mov	r4, r0
 906 0004 0D46     		mov	r5, r1
 907 0006 081D     		adds	r0, r1, #4
 908 0008 2146     		mov	r1, r4
 909 000a FFF7FEFF 		bl	uStrCpy
 910 000e 05F10E00 		add	r0, r5, #14
 911 0012 04F11001 		add	r1, r4, #16
 912 0016 FFF7FEFF 		bl	uStrCpy
 913 001a 05F11E00 		add	r0, r5, #30
 914 001e 04F12801 		add	r1, r4, #40
 915 0022 FFF7FEFF 		bl	uStrCpy
 916 0026 05F12E00 		add	r0, r5, #46
 917 002a 04F14001 		add	r1, r4, #64
 918 002e FFF7FEFF 		bl	uStrCpy
ARM GAS  /tmp/ccEbaEuu.s 			page 62


 919 0032 05F13D00 		add	r0, r5, #61
 920 0036 04F15001 		add	r1, r4, #80
 921 003a BDE83840 		pop	{r3, r4, r5, lr}
 922 003e FFF7FEBF 		b	uStrCpy
 923              		.size	datasample_gpsToSample, .-datasample_gpsToSample
 924 0042 00BFAFF3 		.section	.text.datasample_sensorsToSample,"ax",%progbits
 924      0080AFF3 
 924      0080AFF3 
 924      0080
 925              		.align	2
 926              		.p2align 4,,15
 927              		.global	datasample_sensorsToSample
 928              		.thumb
 929              		.thumb_func
 930              		.type	datasample_sensorsToSample, %function
 931              	datasample_sensorsToSample:
 932              		@ args = 0, pretend = 0, frame = 0
 933              		@ frame_needed = 0, uses_anonymous_args = 0
 934              		@ link register save eliminated.
 935 0000 2DE9F00F 		push	{r4, r5, r6, r7, r8, r9, r10, fp}
 936 0004 90ED087A 		flds	s14, [r0, #32]
 937 0008 D0F830B0 		ldr	fp, [r0, #48]	@ float
 938 000c D0F82CA0 		ldr	r10, [r0, #44]	@ float
 939 0010 D0F83890 		ldr	r9, [r0, #56]	@ float
 940 0014 D0ED097A 		flds	s15, [r0, #36]
 941 0018 D0F83480 		ldr	r8, [r0, #52]	@ float
 942 001c C769     		ldr	r7, [r0, #28]	@ float
 943 001e 866A     		ldr	r6, [r0, #40]	@ float
 944 0020 056C     		ldr	r5, [r0, #64]	@ float
 945 0022 C46B     		ldr	r4, [r0, #60]	@ float
 946 0024 0269     		ldr	r2, [r0, #16]	@ float
 947 0026 4369     		ldr	r3, [r0, #20]	@ float
 948 0028 D0F818C0 		ldr	ip, [r0, #24]	@ float
 949 002c C1F854B0 		str	fp, [r1, #84]	@ float
 950 0030 D0F85CB0 		ldr	fp, [r0, #92]	@ float
 951 0034 C1F850A0 		str	r10, [r1, #80]	@ float
 952 0038 D0F844A0 		ldr	r10, [r0, #68]	@ float
 953 003c C1F85C90 		str	r9, [r1, #92]	@ float
 954 0040 D0F84890 		ldr	r9, [r0, #72]	@ float
 955 0044 81ED127A 		fsts	s14, [r1, #72]
 956 0048 C1F85880 		str	r8, [r1, #88]	@ float
 957 004c C1ED137A 		fsts	s15, [r1, #76]
 958 0050 D0F84C80 		ldr	r8, [r0, #76]	@ float
 959 0054 4F66     		str	r7, [r1, #100]	@ float
 960 0056 8E66     		str	r6, [r1, #104]	@ float
 961 0058 0D67     		str	r5, [r1, #112]	@ float
 962 005a CC66     		str	r4, [r1, #108]	@ float
 963 005c 4A67     		str	r2, [r1, #116]	@ float
 964 005e 8B67     		str	r3, [r1, #120]	@ float
 965 0060 C1F87CB0 		str	fp, [r1, #124]	@ float
 966 0064 C1F880A0 		str	r10, [r1, #128]	@ float
 967 0068 C1F860C0 		str	ip, [r1, #96]	@ float
 968 006c C1F88490 		str	r9, [r1, #132]	@ float
 969 0070 046D     		ldr	r4, [r0, #80]	@ float
 970 0072 426D     		ldr	r2, [r0, #84]	@ float
 971 0074 836D     		ldr	r3, [r0, #88]	@ float
 972 0076 C1F88880 		str	r8, [r1, #136]	@ float
ARM GAS  /tmp/ccEbaEuu.s 			page 63


 973 007a C1F88C40 		str	r4, [r1, #140]	@ float
 974 007e C1F89020 		str	r2, [r1, #144]	@ float
 975 0082 C1F89430 		str	r3, [r1, #148]	@ float
 976 0086 BDE8F00F 		pop	{r4, r5, r6, r7, r8, r9, r10, fp}
 977 008a 7047     		bx	lr
 978              		.size	datasample_sensorsToSample, .-datasample_sensorsToSample
 979 008c AFF30080 		.section	.bss.dataPrintBuf,"aw",%nobits
 980              		.align	2
 981              		.set	.LANCHOR0,. + 0
 982              		.type	dataPrintBuf, %object
 983              		.size	dataPrintBuf, 768
 984              	dataPrintBuf:
 985 0000 00000000 		.space	768
 985      00000000 
 985      00000000 
 985      00000000 
 985      00000000 
 986              		.section	.rodata.str1.4,"aMS",%progbits,1
 987              		.align	2
 988              	.LC0:
 989 0000 2D3A2D3A 		.ascii	"-:-:-\000"
 989      2D00
 990 0006 0000     		.space	2
 991              	.LC1:
 992 0008 2D00     		.ascii	"-\000"
 993 000a 0000     		.space	2
 994              	.LC2:
 995 000c 25642C25 		.ascii	"%d,%s,%s,%s,%s,%s,%.2f,%.2f,%.1f,%.2f,%.2f,%.2f,%.1"
 995      732C2573 
 995      2C25732C 
 995      25732C25 
 995      732C252E 
 996 003f 662C252E 		.ascii	"f,%.2f,%.2f,%.3f,%.3f,%.2f,%.2f,%.2f,%.6f,%.6f,%.6f"
 996      32662C25 
 996      2E32662C 
 996      252E3366 
 996      2C252E33 
 997 0072 2C252E36 		.ascii	",%.6f,%.6f,%.6f\012\000"
 997      662C252E 
 997      36662C25 
 997      2E36660A 
 997      00
 998              		.comm	__gnu_lto_v1,1,1
 999 0083 00       		.ident	"GCC: (GNU Tools for ARM Embedded Processors) 4.8.4 20140526 (release) [ARM/embedded-4_8-br
ARM GAS  /tmp/ccEbaEuu.s 			page 64


DEFINED SYMBOLS
                            *ABS*:0000000000000000 datasample.c
     /tmp/ccEbaEuu.s:734    .text.datasample_init:0000000000000000 $t
     /tmp/ccEbaEuu.s:740    .text.datasample_init:0000000000000000 datasample_init
     /tmp/ccEbaEuu.s:786    .text.datasample_init:0000000000000070 $d
     /tmp/ccEbaEuu.s:791    .text.datasample_writeToLog:0000000000000000 $t
     /tmp/ccEbaEuu.s:797    .text.datasample_writeToLog:0000000000000000 datasample_writeToLog
     /tmp/ccEbaEuu.s:891    .text.datasample_writeToLog:0000000000000120 $d
     /tmp/ccEbaEuu.s:895    .text.datasample_gpsToSample:0000000000000000 $t
     /tmp/ccEbaEuu.s:901    .text.datasample_gpsToSample:0000000000000000 datasample_gpsToSample
     /tmp/ccEbaEuu.s:925    .text.datasample_sensorsToSample:0000000000000000 $t
     /tmp/ccEbaEuu.s:931    .text.datasample_sensorsToSample:0000000000000000 datasample_sensorsToSample
     /tmp/ccEbaEuu.s:980    .bss.dataPrintBuf:0000000000000000 $d
     /tmp/ccEbaEuu.s:984    .bss.dataPrintBuf:0000000000000000 dataPrintBuf
     /tmp/ccEbaEuu.s:987    .rodata.str1.4:0000000000000000 $d
                            *COM*:0000000000000001 __gnu_lto_v1
     /tmp/ccEbaEuu.s:790    .text.datasample_init:0000000000000078 $t
     /tmp/ccEbaEuu.s:894    .text.datasample_writeToLog:0000000000000128 $t

UNDEFINED SYMBOLS
uStrCpy
__aeabi_f2d
chsnprintf
logfileWrite
