ARM GAS  /tmp/cc12Qys9.s 			page 1


   1              		.syntax unified
   2              		.cpu cortex-m4
   3              		.eabi_attribute 27, 3
   4              		.eabi_attribute 28, 1
   5              		.fpu fpv4-sp-d16
   6              		.eabi_attribute 20, 1
   7              		.eabi_attribute 21, 1
   8              		.eabi_attribute 23, 3
   9              		.eabi_attribute 24, 1
  10              		.eabi_attribute 25, 1
  11              		.eabi_attribute 26, 1
  12              		.eabi_attribute 30, 2
  13              		.eabi_attribute 34, 1
  14              		.eabi_attribute 18, 4
  15              		.thumb
  16              		.file	"datalogger.c"
  17              		.section	.gnu.lto_.jmpfuncs.def1571aafd2a860,"",%progbits
  18 0000 789C7D91 		.ascii	"x\234}\221ON\302@\024\306\337\353\360\267\240\0307\356"
  18      4F4EC240 
  18      14C6DFEB 
  18      F0B7A018 
  18      37EE
  19 0012 9A89093B 		.ascii	"\232\211\011;\214\204\245+\011\024b\202`\320\205\333"
  19      8C84A52B 
  19      09146282 
  19      60D085DB 
  20 0022 466BD304 		.ascii	"Fk\323\004(\231\326\022\343\206C\270`\343\001\274\206"
  20      2899D612 
  20      E38643B8 
  20      60E301BC 
  20      86
  21 0033 C7F0049E 		.ascii	"\307\360\004\236\301\215\276)S2\255\306\246\351L\347"
  21      C18DBE29 
  21      5332ADC6 
  21      A6E94CE7 
  22 0043 FDBEEF7B 		.ascii	"\375\276\357{3c\200\001\177=o\010\360Mc\035\030\315"
  22      33638001 
  22      7F3D6F08 
  22      F04D631D 
  22      18CD
  23 0055 18A3694C 		.ascii	"\030\243iL#\000\306\262L\"\343\026}\224sL\376\236\341"
  23      2300C6B2 
  23      4C22E316 
  23      7D94734C 
  23      FE9EE1
  24 0068 6BBD591F 		.ascii	"k\275Y\037\370\210\026\340\353zs\356\343\326\231!Q\205"
  24      F88816E0 
  24      EB7A73EE 
  24      E3D69921 
  24      5185
  25 007a 469E39CE 		.ascii	"F\2369\3160z\221Y\320\333\026\013\252\031\226D\312\274"
  25      307A9159 
  25      D0DB160B 
  25      AA199644 
  25      CABC
  26 008c 2279A1A4 		.ascii	"\"y\241\244\251\213\"\262d\255\224\026\313;Ju\250\347"
  26      A98B22B2 
ARM GAS  /tmp/cc12Qys9.s 			page 2


  26      64AD9416 
  26      CB3B4A75 
  26      A8E7
  27 009e 857A5EA9 		.ascii	"\205z^\251\221I\254X\360\242z\256\252HL\214\314\317"
  27      9149AC58 
  27      F0A27AAE 
  27      AA484C8C 
  27      CCCF
  28 00b0 72CEA966 		.ascii	"r\316\251f\301\273B\353io\362\215\323h3\243\315\356"
  28      C1BB42EB 
  28      696FF28D 
  28      D36833A3 
  28      CDEE
  29 00c2 6CCF820F 		.ascii	"l\317\202\017%\336\337\211IY\206\012T\321\224\007U\223"
  29      25DEDF89 
  29      4959860A 
  29      54D19407 
  29      5593
  30 00d4 1F23B7E9 		.ascii	"\037#\267\351C\272\207\006\252;(h\327\260=\014\271\012"
  30      43BA8706 
  30      AA3B2868 
  30      D7B03D0C 
  30      B90A
  31 00e6 BCDFBDE9 		.ascii	"\274\337\275\351\216&\303\241==\343}\341\307\256\340"
  31      8E26C3A1 
  31      3D3DE37D 
  31      E1C7AEE0 
  32 00f6 8B20E2F3 		.ascii	"\213 \342\363\340q\021\271\367f\016p\"g\026x\036A\327"
  32      E07111B9 
  32      F7660E70 
  32      22671678 
  32      1E41D7
  33 0109 912312E0 		.ascii	"\221#\022\340T\007l!\002\301/\245\330_x|\340\317\334"
  33      54076C21 
  33      02C12FA5 
  33      D85F787C 
  33      E0CFDC
  34 011c F0298CDC 		.ascii	"\360)\214\334y\313\236N\233\235\366\277\206\301r)\015"
  34      79CB9E4E 
  34      9B9DF6BF 
  34      86C17229 
  34      0D
  35 012d 4F7E1BDE 		.ascii	"O~\033\336\011\327I\014G\201\367@\236-.\355\332\035"
  35      09D7490C 
  35      4781F740 
  35      9E2D2EED 
  35      DA1D
  36 013f A28F747A 		.ascii	"\242\217tzp1\262\371\344\312\036\233\320\324\327{\251"
  36      7031B2F9 
  36      E4CA1E9B 
  36      D0D4D77B 
  36      A9
  37 0150 7EECAE52 		.ascii	"~\354\256R\017\336\014M\370\001*!\212-"
  37      0FDE0C4D 
  37      F8012A21 
  37      8A2D
  38              		.text
ARM GAS  /tmp/cc12Qys9.s 			page 3


  39              		.section	.gnu.lto_.inline.def1571aafd2a860,"",%progbits
  40 0000 789C7552 		.ascii	"x\234uR\261N\3030\020}g_\023\207\244M[\011\025\244\226"
  40      B14EC330 
  40      107D675F 
  40      1387A44D 
  40      5B0915A4 
  41 0015 1621D42E 		.ascii	"\026!\324.\214l]\231\22023\262\265\314\374@\006\206"
  41      8C6C5D99 
  41      903233B2 
  41      B5CCFC40 
  41      0686
  42 0027 8EF90024 		.ascii	"\216\371\000$*\276\001\011\006>\2423\254\035\330Y\031"
  42      2ABE0109 
  42      063EA233 
  42      AC1DD859 
  42      19
  43 0038 38DB7568 		.ascii	"8\333uh\005$\312\345\345\374\316y\357\316\012\012\177"
  43      0524CAE5 
  43      E5FCCE79 
  43      EFCE0A0A 
  43      7F
  44 0049 5D8F9B74 		.ascii	"]\217\233t\006N\373p\244h9\254\271\204F\013\320Uao\235"
  44      064EFB70 
  44      A46839AC 
  44      B984460B 
  44      D055616F 
  45 005e 390221CE 		.ascii	"9\002!\316\011J\255\362\232\352V\252\002\232\223\016"
  45      094AADF2 
  45      9AEA56AA 
  45      029A930E 
  46 006e 9130A0AF 		.ascii	"\2210\240\257\231\227CO\240\217\230}\014\\\252\012\306"
  46      9997434F 
  46      A08F987D 
  46      0C5CAA0A 
  46      C6
  47 007f F119256A 		.ascii	"\361\031%jvE7\224KZ\315\003\202\313\265-\232\007D.\327"
  47      76453794 
  47      4B5ACD03 
  47      82CBB52D 
  47      9A07442E 
  48 0094 B1681E90 		.ascii	"\261h\036\220\"\257P\036\033\342 ]\376[J\\\364K6h=]"
  48      22AF501E 
  48      1BE2205D 
  48      FE5B4A5C 
  48      F44B3668 
  49 00aa 8E0CF8FE 		.ascii	"\216\014\370\376\2604\366\375u02A\261|[\315\334\264"
  49      B034F6FD 
  49      75303241 
  49      B17C5BCD 
  49      DCB4
  50 00bc 482CA22A 		.ascii	"H,\242*\304\254\307\326\213c\210\322\006\262\201\370"
  50      C4ACC7D6 
  50      8B6388D2 
  50      06B281F8 
  51 00cc D52F3DC4 		.ascii	"\325/=\304\213\261\253\226\032\350-\337\021\306S\241"
  51      8BB1AB96 
  51      1AE82DDF 
ARM GAS  /tmp/cc12Qys9.s 			page 4


  51      11C653A1 
  52 00dc EC7FDEA2 		.ascii	"\354\177\336\242\371~\361Cq\233\252\324\252\014\324"
  52      F97EF143 
  52      719BAAD4 
  52      AA0CD4
  53 00eb BA9FF079 		.ascii	"\272\237\360y\033\267\3101\264\370\332\036\203\371\225"
  53      1BB7C831 
  53      B4F8DA1E 
  53      83F995
  54 00fa 49C07AD3 		.ascii	"I\300z\323\345\2228,\354vy\017i\267\236D\264\236\300"
  54      E592382C 
  54      EC76790F 
  54      69B79E44 
  54      B49EC0
  55 010d AC27FF4C 		.ascii	"\254'\377L\"E\257O\312S]\034E\331\3339\314\353\311N"
  55      2245AF4F 
  55      CA535D1C 
  55      45D9DB39 
  55      CCEBC94E 
  56 0121 8104E3A0 		.ascii	"\201\004\343\240\261\265N\274L\261\351\\\271\316mle"
  56      B1B54EBC 
  56      4CB1E95C 
  56      B9CE6D6C 
  56      65
  57 0132 7C3420D6 		.ascii	"|4 \326nL]\373\227Y\215(L\215\363\207)\222gQd\356N\333"
  57      6E4C5DFB 
  57      97598D28 
  57      4C8DF387 
  57      29926751 
  58 014a E0551E04 		.ascii	"\340U\036\004\261\3355\222c\300\376\314\3259|\003`\374"
  58      B1DD3592 
  58      63C0FECC 
  58      D5397C03 
  58      60FC
  59 015c 4E27     		.ascii	"N'"
  60              		.text
  61              		.section	.gnu.lto_.pureconst.def1571aafd2a860,"",%progbits
  62 0000 789C6362 		.ascii	"x\234cb`b\220d\200\000\036\006\011F\011fI\026)V)6)v"
  62      60629064 
  62      80001E06 
  62      09460966 
  62      49162956 
  63 0018 060E064E 		.ascii	"\006\016\006NV.)nI\036)\000\023[\001_"
  63      562E296E 
  63      491E2900 
  63      135B015F 
  64              		.text
  65              		.section	.gnu.lto_chprintf.def1571aafd2a860,"",%progbits
  66 0000 789C8550 		.ascii	"x\234\205P\315J\002Q\024>\337\0355uc\333v\342\0034\213"
  66      CD4A0251 
  66      143EDF1D 
  66      357563DB 
  66      76E20334 
  67 0015 22E80D7A 		.ascii	"\"\350\015z\000\203Z\3058\216z\011\035\321Q\260\026"
  67      00835AC5 
  67      388E7A09 
  67      1DD151B0 
ARM GAS  /tmp/cc12Qys9.s 			page 5


  67      16
  68 0026 5EC1C245 		.ascii	"^\301\302E\013ig\021)\321:\244\027\030\202\332DI\273"
  68      0B696711 
  68      29D13AA4 
  68      171882DA 
  68      4449BB
  69 0039 162D2497 		.ascii	"\026-$\227\265h\321*\202\351\336\031\024\372\201\016"
  69      B568D12A 
  69      82E9DE19 
  69      14FA810E 
  70 0049 DC7B7EBE 		.ascii	"\334{~\276s\276\363\303\210\321OY\220o\010\2425\251"
  70      73BEF3C3 
  70      88D14F59 
  70      906F08A2 
  70      35A9
  71 005b A11158F7 		.ascii	"\241\021X\367\236\250\025e\2002\010\324dhnB\245\262"
  71      9EA81565 
  71      803208D4 
  71      64686E42 
  71      A5B2
  72 006d 140D84DB 		.ascii	"\024\015\204\333\035_O\036\321\023n\273/>=\017\340\220"
  72      1D5F4F1E 
  72      D1136EBB 
  72      2F3E3D0F 
  72      E090
  73 007f B42B2013 		.ascii	"\264+ \023\264!\035$}\305B\337\373\250Z\321uOon!\016"
  73      B4211D24 
  73      7DC542DF 
  73      FBA85AD1 
  73      754F6F6E 
  74 0095 45EBCDF3 		.ascii	"E\353\315\363\022\034\032\243\325\377\012/\230\373\354"
  74      121C1AA3 
  74      D5FF0A2F 
  74      98FBEC
  75 00a4 794FC3F7 		.ascii	"yO\303\367\203W\364XLC\021\024\222\037\"d\340\014)\225"
  75      8357F458 
  75      4C431114 
  75      921F2264 
  75      E00C2995 
  76 00b8 13A6B624 		.ascii	"\023\246\266$O\032\030H\177\0325\375\241\323\362W\233"
  76      4F1A1848 
  76      7F1A35FD 
  76      A1D3F257 
  76      9B
  77 00c9 AC8329AD 		.ascii	"\254\203)\255\215ho\3343\015\234#,\321]\372\020\035"
  77      8D686FDC 
  77      330D9C23 
  77      2CD15DFA 
  77      101D
  78 00db 31CF1132 		.ascii	"1\317\0212\341\247\313\310\016Gx\312\344g\251\2514\""
  78      E1A7CBC8 
  78      0E4778CA 
  78      E467A9A9 
  78      3422
  79 00ed 2E3BD288 		.ascii	".;\322\210\366\307G\223x\200\344\021\231\021\314\231"
  79      F6C74793 
  79      7880E411 
ARM GAS  /tmp/cc12Qys9.s 			page 6


  79      9911CC99 
  80 00fd 088E9B87 		.ascii	"\010\216\233\207\226G( \340\210\252\222\366\370\370"
  80      96472820 
  80      E088AA92 
  80      F6F8F8
  81 010c 77C798A9 		.ascii	"w\307\230\251H\377\356\310\021'\272\243\253\027\026"
  81      48FFEEC8 
  81      1127BAA3 
  81      AB1716
  82 011b 04027099 		.ascii	"\004\002p\231.EG\235[\312\003\265\372'\332l\214\340"
  82      2E45479D 
  82      5BCA03B5 
  82      FA27DA6C 
  82      8CE0
  83 012d 5469B983 		.ascii	"Ti\271\203\334Q\315\261\244\027\354\242\245\233v\266"
  83      DC51CDB1 
  83      A417ECA2 
  83      A59B76B6 
  84 013d A167ADBA 		.ascii	"\241g\255\272n\026x\206\333U\335\251\324J\333\2724\352"
  84      6E167886 
  84      DB55DDA9 
  84      D44ADBBA 
  84      34EA
  85 014f 4685DBB5 		.ascii	"F\205\333\265\252\004\312\025^rr\213\005bF9\221\263"
  85      AA04CA15 
  85      5E72728B 
  85      05624639 
  85      91B3
  86 0161 2B45C371 		.ascii	"+E\303q\254\354V\246\341X\325/\251H\201#"
  86      ACEC56A6 
  86      E158D52F 
  86      A9488123 
  87              		.text
  88              		.section	.gnu.lto_logfileNew.part.0.def1571aafd2a860,"",%progbits
  89 0000 789C9D92 		.ascii	"x\234\235\222?H\\A\020\306\347\333}\357\274\363\017"
  89      3F485C41 
  89      10C6E7DB 
  89      7DEFBCF3 
  89      0F
  90 0011 B1080111 		.ascii	"\261\010\001\021\344q\205\205\001\013\3134\211\341\344"
  90      E4718585 
  90      010BCB34 
  90      89E1E4
  91 0020 9A4044EE 		.ascii	"\232@D\356@\313\307\371<\026\274;8/iR8'\022R\2448RI"
  91      40CBC7F9 
  91      3C16BC3B 
  91      382F6952 
  91      38271252 
  92 0038 24441109 		.ascii	"$D\021\011A\202\220\312\322FH\012\025\261\262\263\021"
  92      418290CA 
  92      D246480A 
  92      15B1B2B3 
  92      11
  93 0049 9B144248 		.ascii	"\233\024BH\023B6\263\373DI\010$\270\260\363\315\316"
  93      134236B3 
  93      FB444908 
  93      24B8B0F3 
ARM GAS  /tmp/cc12Qys9.s 			page 7


  93      CDCE
  94 005b EE6F66DE 		.ascii	"\356of\336\333U\244\350\317qWf,\341)Q\204\204\240s "
  94      DB55A4E8 
  94      CF715766 
  94      2CE12951 
  94      8484A073 
  95 0070 4E00E555 		.ascii	"N\000\345UA;mg5\340\034\002-\006Jcq\006\016\316\344"
  95      413B6D67 
  95      35E01C02 
  95      2D064A63 
  95      71060ECE 
  96 0085 699DF9D5 		.ascii	"i\235\371\325\351\336\352\313\001^[\352\360Oka e\372"
  96      E9DEEACB 
  96      015E5BEA 
  96      F04F6B61 
  96      2065FA
  97 0098 4115D0B4 		.ascii	"A\025\320\264,\020yQ\301\357uS\222?2\347\326\370\207"
  97      2C107951 
  97      C1EF7553 
  97      923F32E7 
  97      D6F887
  98 00ab B5DA402B 		.ascii	"\265\332@+\272s\003,P4x\003,T\224\377?l\367\353\267"
  98      BA73032C 
  98      50347803 
  98      2C5494FF 
  98      3F6CF7EB 
  99 00c0 1DF0736E 		.ascii	"\035\360sn_X{\313 \243h\370\032\314\246 \376\012^\234"
  99      5F587BCB 
  99      20A368F8 
  99      1ACCA620 
  99      FE0A5E9C 
 100 00d4 4D7EE2E5 		.ascii	"M~\342\345]k\357\033t)\032\371W\275m\305\247\326\236"
 100      5D6BEF1B 
 100      74291AF9 
 100      57BD6DC5 
 100      A7D69E
 101 00e7 9C674350 		.ascii	"\234gCP\214-\344\345O\032)A\024\3222s'\212\361^\202"
 101      8C2DE4E5 
 101      4F1A2941 
 101      14D23273 
 101      278AF15E 
 102 00fc 31D6BDDD 		.ascii	"1\326\275\335\360v\323\333wb\311\245\227Q\022\353n\253"
 102      F076D3DB 
 102      7762C9A5 
 102      975112EB 
 102      6EAB
 103 010e 84C0A92E 		.ascii	"\204\300\251.Cy\335\247\245\317;oo\307\370 7]\005V\351"
 103      4379DDA7 
 103      A5CF3B6F 
 103      6FC7F820 
 103      375D0556 
 104 0123 759BB95F 		.ascii	"u\233\271_z{F\337\371\205\363r5\237\3015\227\273l\352"
 104      7A7B46DF 
 104      F985F372 
 104      359FC135 
 104      97BB6CEA 
 105 0137 90C29420 		.ascii	"\220\302\224 \272:\326]A\372\305\222\305\005W\230\217"
ARM GAS  /tmp/cc12Qys9.s 			page 8


 105      BA3AD65D 
 105      41FAC592 
 105      C5055798 
 105      8F
 106 0148 05E919A2 		.ascii	"\005\351\031\242\2617\274\362\300\240\227.\031\203\276"
 106      B137BCF2 
 106      C0A0972E 
 106      1983BE
 107 0157 344D19DA 		.ascii	"4M\031\3327q$\257\311q\376)\236\220r\245$\240\276l\303"
 107      377124AF 
 107      C971FE29 
 107      9E9072A5 
 107      24A0BE6C 
 108 016c 750C77C8 		.ascii	"u\014w\310\355\365\315\306\255x\276Q\255&\315\321\012"
 108      EDF5CDC6 
 108      AD78BE51 
 108      AD26CDD1 
 108      0A
 109 017d 8573F5B8 		.ascii	"\205s\365\270\226\004sf>\311\244A-\242\233\311BWa\342"
 109      96047366 
 109      3EC9A441 
 109      2DA29BC9 
 109      425761E2 
 110 0191 61B9383A 		.ascii	"a\2718:\026\025\306K\343\217\036\027\213\023S\367\242"
 110      1615C64B 
 110      E38F1E17 
 110      8B1353F7 
 110      A2
 111 01a2 42D33C4D 		.ascii	"B\323<M\232Q\275\321\212j\215'\365V2\333M\277\000Z2"
 111      9A51BDD1 
 111      8A6A8D27 
 111      F55632DB 
 111      4DBF005A 
 112 01b7 A53A     		.ascii	"\245:"
 113              		.text
 114              		.section	.gnu.lto_logfileWrite.part.1.def1571aafd2a860,"",%progbits
 115 0000 789C8D52 		.ascii	"x\234\215R\277k\024Q\020\236\231\267os\033O\270\" I"
 115      BF6B1451 
 115      109E99B7 
 115      6F731B4F 
 115      B8222049 
 116 0014 213160A3 		.ascii	"!1`\243\230 \261\262\365_H \226\233s\335,\234wr9\261"
 116      9820B1B2 
 116      F55F4820 
 116      969B73DD 
 116      2C9C7772 
 117 002a B0C85C72 		.ascii	"\260\310\\r\222\020B8\322(Q0AD,D\321J\242\260*\004\033"
 117      92104238 
 117      D2285130 
 117      41442C44 
 117      D14AA2B0 
 118 0041 1521855A 		.ascii	"\025!\205Z]o\320R\210?\326\231\335\273\213Q\301<\330"
 118      5D6FD052 
 118      883FD699 
 118      DDBB8B51 
 118      C13CD8
 119 0054 99F7E3FB 		.ascii	"\231\367\343\373\346\373\346\355# \370s\234\226\357"
ARM GAS  /tmp/cc12Qys9.s 			page 9


 119      E6FBE6ED 
 119      2320F873 
 119      9C96EF
 120 0063 2565195D 		.ascii	"%e\031]@\333|#\023\213\224f\"\2635\002\334\353<=\014"
 120      40DB7C23 
 120      138B9466 
 120      22B33502 
 120      DCEB3C3D 
 121 0078 9C37E8E8 		.ascii	"\2347\350\350n=\347 \352\004\020f,\031\007g\316\242"
 121      6E3DE720 
 121      EA041066 
 121      2C190767 
 121      CEA2
 122 008a D6728760 		.ascii	"\326r\207`\235y\245u\365K\214\3278\256\257\361\367$"
 122      9D79A575 
 122      F54B8CD7 
 122      38AEAFF1 
 122      F724
 123 009c 418C5074 		.ascii	"A\214Pt\013\010E\204\011Y`.M\204{\215d\\~\310lS\236"
 123      0B084584 
 123      0959602E 
 123      4D847B8D 
 123      645C7EC8 
 124 00b3 89D0100C 		.ascii	"\211\320\020\014\354\322\012\031\215\376I{\304\354u"
 124      ECD20A19 
 124      8DFE497B 
 124      C4EC75
 125 00c2 680EC191 		.ascii	"h\016\301\221]\332`Fs\376\246\305\3158\331\\\352\347"
 125      5DDA6046 
 125      73FEA6C5 
 125      CD38D95C 
 125      EAE7
 126 00d4 B5D926FF 		.ascii	"\265\331&\377\024\243\021Z\202\243\373a\362J\374cs\371"
 126      14A3115A 
 126      82A3FB61 
 126      F24AFC63 
 126      73F9
 127 00e6 10B7B8C3 		.ascii	"\020\267\270\303t\011N\354\253\303f|k\376f\377\342\036"
 127      74094EEC 
 127      ABC3667C 
 127      6BFE66FF 
 127      E21E
 128 00f8 CD93FFD3 		.ascii	"\315\223\377\323|@\334J\222';9\017\361\202\336f\204"
 128      7C40DC4A 
 128      92273B39 
 128      0FF182DE 
 128      6684
 129 010a 3D067CBC 		.ascii	"=\006|\274\207C\340\310\"g5\010\320BC$\006\263\023\037"
 129      8743E0C8 
 129      22673508 
 129      D0424324 
 129      06B3131F 
 130 011e EFA6713D 		.ascii	"\357\246q=\215\267\323xG\"\250\232\2141\211\372\033"
 130      8DB7D378 
 130      4722A89A 
 130      8C3189FA 
 130      1B
ARM GAS  /tmp/cc12Qys9.s 			page 10


 131 012f C7D06A36 		.ascii	"\307\320j6\343Hi~\015\263\037\257\177}O>\336\227\223"
 131      E348697E 
 131      0DB31FAF 
 131      7F7D4F3E 
 131      DE9793
 132 0142 10E9381C 		.ascii	"\020\3518\034\023\301\033\260Zg.D\350\205\210\352\262"
 132      13C11BB0 
 132      5A672E44 
 132      E88588EA 
 132      B2
 133 0153 37F536D9 		.ascii	"7\3656\331\355\362-4\342\201\016\311\\\201\035^P\370"
 133      EDF22D34 
 133      E2810EC9 
 133      5C811D5E 
 133      50F8
 134 0165 81226610 		.ascii	"\201\"f\020\251\024a\036\340\0254\266\237o\314\347\273"
 134      A914611E 
 134      E01534B6 
 134      9F6FCCE7 
 134      BB
 135 0176 502DE6FE 		.ascii	"P-\346\376\336\3578\032\330\032Q#\237\347\276-wk:\202"
 135      DEEF381A 
 135      D81A5123 
 135      9FE7BE2D 
 135      776B3A82 
 136 018a ED009CB6 		.ascii	"\355\000\234\266\325\027\237\332>\263nO\301c^\320[\025"
 136      D5179FDA 
 136      3EB36E4F 
 136      C1635ED0 
 136      5B15
 137 019c D03B79A9 		.ascii	"\320;y\251\252\252s\370\000Ved\203\226\236\365I-\263"
 137      AAAA73F8 
 137      00566564 
 137      83969EF5 
 137      492DB3
 138 01af BD31A5BD 		.ascii	"\2751\245\275\243\026\322Gu\360\234_\363K\2250\014\252"
 138      A316D247 
 138      75F09C5F 
 138      F34B9530 
 138      0CAA
 139 01c1 C345F02A 		.ascii	"\303E\360*\027\203\362\231Re:pKA9\254M\231\311K\347"
 139      1783F299 
 139      52653A70 
 139      4B4139AC 
 139      4D99C94B 
 140 01d6 7B2E57A3 		.ascii	"{.W\243Z-(\233j0\355\265\347\303\243\277\000\015-\270"
 140      5A2D289B 
 140      6A30EDB5 
 140      E7C3A3BF 
 140      000D2DB8 
 141 01ea B8       		.ascii	"\270"
 142              		.text
 143              		.section	.gnu.lto_dataLoggerInitialize.def1571aafd2a860,"",%progbits
 144 0000 789C8D54 		.ascii	"x\234\215TMh\023Q\020\236y\273\233\315\246i\233\326"
 144      4D681351 
 144      109E79BB 
 144      9BCDA669 
ARM GAS  /tmp/cc12Qys9.s 			page 11


 144      9BD6
 145 0012 FE420DA1 		.ascii	"\376B\015\241\320\223RK/\202\010Zi\354\305\037\250\015"
 145      D093524B 
 145      2F82085A 
 145      69ECC51F 
 145      A80D
 146 0024 EA31A621 		.ascii	"\3521\246!,4-\244\021\021\205\276\224RD\205\206\236"
 146      2C342DA4 
 146      111185BE 
 146      94524485 
 146      869E
 147 0036 4A45B06A 		.ascii	"JE\260j\016JA\017\036\202\"\266*\332\032\264\376\\,"
 147      0E4A410F 
 147      1E8222B6 
 147      2ADA1AB4 
 147      FE5C2C
 148 0049 2AE4E6A5 		.ascii	"*\344\346\245\210\007Q\361`\234\331\315\246I(\322\007"
 148      880751F1 
 148      609CD9CD 
 148      A64928D2 
 148      07
 149 005a 79EFCDBC 		.ascii	"y\357\315\274\371\346\373f\336\333\010\020P=\316\321"
 149      F9E6FB66 
 149      DEDB0810 
 149      503DCED1 
 150 006a EFA60A30 		.ascii	"\357\246\0120J+z\000E\372\015@\312-\204\361S\007\351"
 150      4A2B7A00 
 150      45FA0D40 
 150      CA2D84F1 
 150      5307E9
 151 007d 51E65F00 		.ascii	"Q\346_\000H\257R4U\333T\205\366\271\206L\327\203\247"
 151      48AF5234 
 151      55DB5485 
 151      F6B9864C 
 151      D783A7
 152 0090 6C6AE8B2 		.ascii	"lj\350\262Q.\241\247\025\362\273e\216\375:\032\266\337"
 152      512EA1A7 
 152      15F2BB65 
 152      8EFD3A1A 
 152      B6DF
 153 00a2 ED6C0C44 		.ascii	"\355l\014D\336\000\302\204PT\315\245\223g\3424\262\020"
 153      DE00C284 
 153      5054CDA5 
 153      9367E234 
 153      B210
 154 00b4 D1090B52 		.ascii	"\321\011\013R\316\346333\355\227oL\246\345\337B\001"
 154      CEE63333 
 154      33ED976F 
 154      4CA6E5DF 
 154      4201
 155 00c6 4D24C93E 		.ascii	"M$\311>\204\010\302)20`-B\255\254\301F.}\371\221E9-"
 155      8408C229 
 155      3230602D 
 155      42ADACC1 
 155      462E7DF9 
 156 00de 53DF0B85 		.ascii	"S\337\013\205z\023\025\001m\233@\267\015\304J\340=\261"
 156      7A131501 
ARM GAS  /tmp/cc12Qys9.s 			page 12


 156      6D9B40B7 
 156      0DC44AE0 
 156      3DB1
 157 00f0 942F14AE 		.ascii	"\224/\024\256f\336v\265\"\304\231\313DU\3058\242F\223"
 157      66DE76B5 
 157      22C499CB 
 157      4455C538 
 157      A24693
 158 0103 D069520C 		.ascii	"\320iR\014\232\300K\007\232\017\302x\013;\241\201\326"
 158      9AC04B07 
 158      9A0FC278 
 158      0B3BA181 
 158      D6
 159 0114 055A1BC9 		.ascii	"\005Z\033\311\351j.\03244\230\2222\035\260\203\200\251"
 159      E96A2E1A 
 159      34349892 
 159      321DB083 
 159      80A9
 160 0126 690CD1CC 		.ascii	"i\014\321\314%\207P\360\252\254\300\363\257\313\037"
 160      258750F0 
 160      AAACC0F3 
 160      AFCB1F
 161 0135 3AC29841 		.ascii	":\302\230A\015b\250\262,\275\\S\010\025\240.[\201\251"
 161      0D62A8B2 
 161      2CBD5C53 
 161      0815A02E 
 161      5B81A9
 162 0148 934E9CC6 		.ascii	"\223N\234\306q\356\3128\025\256\034P^\303d\356\367\253"
 162      71EECA38 
 162      15AE1C50 
 162      5EC364EE 
 162      F7AB
 163 015a 5A3BEE1A 		.ascii	"Z;\356\032\314\247\244\364Q\327.\300\037y\211wF\034"
 163      CCA7A4F4 
 163      51D72EC0 
 163      1F798977 
 163      461C
 164 016c B95B0C37 		.ascii	"\271[\0147,\\\214\351,\025\353%\025\006\037{\312\263"
 164      2C5C8CE9 
 164      2C15EB25 
 164      15061F7B 
 164      CAB3
 165 017e 0F91FF91 		.ascii	"\017\221\377\221\241\204\320U\"\3115\331\341\273\340"
 165      A184D055 
 165      22C935D9 
 165      E1BBE0
 166 018d AEA4B197 		.ascii	"\256\244\261\227t\023\037\001k*\344\235)\3668\306\274"
 166      74131F01 
 166      6B2AE49D 
 166      29F638C6 
 166      BC
 167 019e 6B3095CF 		.ascii	"k0\225\317\316\242\303\343-\311\362F\020\2350\023k\001"
 167      CEA2C3E3 
 167      2DC9F246 
 167      109D3013 
 167      6B01
 168 01b0 8862F57E 		.ascii	"\210b\365~M5\203\2665\203\003\365Z\270\\\366MK5\320"
ARM GAS  /tmp/cc12Qys9.s 			page 13


 168      4D3583B6 
 168      358303F5 
 168      5AB85CF6 
 168      4D4B35D0 
 169 01c4 B3355014 		.ascii	"\2635P\024\201\310\322\246\363\017{\035e\276\222\262"
 169      81C8D2A6 
 169      F30F7B1D 
 169      65BE92B2 
 170 01d4 BA4829CA 		.ascii	"\272H)\312K\201\214\256G\272i\037wmjc\371W\251k>>S6"
 170      4B818CAE 
 170      47BA691F 
 170      776D6A63 
 170      F957A96B 
 171 01ec 7BB60E48 		.ascii	"{\266\016H\255T\221S\315\311\245O\027Ml\360C\307u9w"
 171      AD549153 
 171      CDC9A54F 
 171      174D6CF0 
 171      43C77539 
 172 0201 D0C446EB 		.ascii	"\320\304F\353\205|T\370\342tx&\270\247\253\331\231z"
 172      857C54F8 
 172      E2747826 
 172      B8A7ABD9 
 172      997A
 173 0213 2759C376 		.ascii	"'Y\303v\356\316*\367\233\342`\032c\254j\015\\\266\003"
 173      EECE2AF7 
 173      9BE2601A 
 173      63AC6A0D 
 173      5CB603
 174 0226 36913B22 		.ascii	"6\221;\"Ea\224\330\226#\237P\226&?\370m9\374l-\014e"
 174      456194D8 
 174      96239F50 
 174      96263FF8 
 174      6D39FC6C 
 175 023d 31B1C579 		.ascii	"1\261\305yRnX\331\317\312\262s\263;\253[\332\272uKm"
 175      526E58D9 
 175      CFCAB273 
 175      B33BAB5B 
 175      DABA754B 
 176 0252 1EF6B4A2 		.ascii	"\036\366\264\242-p5\373\276\316\221\330\274\275\262"
 176      2D7035FB 
 176      BECE91D8 
 176      BCBDB2
 177 0261 D640FB5F 		.ascii	"\326@\373_\015\315\305\032\036\023\244\315\017\307\354"
 177      0DCDC51A 
 177      1E13A4CD 
 177      0FC7EC
 178 0270 1ADA9D1A 		.ascii	"\032\332\235\032\312\0120\254\217\354\035\375\3250N"
 178      CA0A30AC 
 178      8FEC1DFD 
 178      D5304E
 179 027f D8D72298 		.ascii	"\330\327\"\230\212(\225\305\214u\237j\301\0318\241o"
 179      8A2895C5 
 179      8C759F6A 
 179      C11938A1 
 179      6F
 180 0290 BCC4E2B1 		.ascii	"\274\304\342\261{\361\216\263\025\2675\376\006\220\263"
 180      7BF18EB3 
ARM GAS  /tmp/cc12Qys9.s 			page 14


 180      15B735FE 
 180      0690B3
 181 029f 7192DAE1 		.ascii	"q\222\332\341p2<2\026\213E\023\335\021\320\373\203\207"
 181      70323C32 
 181      168B4513 
 181      DD11D0FB 
 181      8387
 182 02b1 4203DD3D 		.ascii	"B\003\335=J4\221@\330\323\3377\324w\344\370\300@pp_"
 182      4A349140 
 182      D8D3DF37 
 182      D477E4F8 
 182      C0407070 
 183 02c6 2098488C 		.ascii	" \230H\214%\002G\307\316\216&\315\321X\340\2609\022"
 183      250247C7 
 183      CE8E26CD 
 183      D158E0B0 
 183      3912
 184 02d8 1D3F3F9E 		.ascii	"\035??\236\214\306w\007\007\007\273z{\206=\020(\217"
 184      8CC67707 
 184      0707BB7A 
 184      7B863D10 
 184      288F
 185 02ea EF2FE50D 		.ascii	"\357/\345\015\234H\206\023\311(\005\374\003\002\031"
 185      9C488613 
 185      C92805FC 
 185      030219
 186 02f9 3C56     		.ascii	"<V"
 187              		.text
 188              		.section	.gnu.lto_dataLoggerStop.def1571aafd2a860,"",%progbits
 189 0000 789C6550 		.ascii	"x\234eP\277KBQ\024\376\316}\2764Ks\314\241x\264\006"
 189      BF4B4251 
 189      14FECE7D 
 189      BE344B73 
 189      CCA178B4 
 190 0015 4210244D 		.ascii	"B\020$M\031\212K\020\224B\215\257\247<\036$J\2705x\225"
 190      198A4B10 
 190      94428DAF 
 190      A73C1E24 
 190      4AB83578 
 191 002a 88681069 		.ascii	"\210h\020iI\212 \211\226\032Z\035\012Z\033\3725\271"
 191      498A2089 
 191      961A5A1D 
 191      0A5A1BFA 
 191      35B9
 192 003c C51BFB13 		.ascii	"\305\033\373\023\242!\273\347=+\252\003\367~\347^\276"
 192      A221BBE7 
 192      3D2BAA03 
 192      F77EE75E 
 192      BE
 193 004d 1F872320 		.ascii	"\037\207# \360\267\342\3524\011H*$\015$Z\017@=$\210"
 193      F0B7E2EA 
 193      3409482A 
 193      240D245A 
 193      0F403D24 
 194 0062 B801A126 		.ascii	"\270\001\241&\250\266NL\245)t\244<p\317{\315\370\376"
 194      A8B64E4C 
 194      A52974A4 
ARM GAS  /tmp/cc12Qys9.s 			page 15


 194      3C70CF7B 
 194      CDF8FE
 195 0075 69A3253F 		.ascii	"i\243%?\372}rH\231\306\010\026aM=\310\360@\004~\247"
 195      FA7D7248 
 195      99C60816 
 195      614D3DC8 
 195      F040047E 
 196 008a 5C895BB7 		.ascii	"\\\211[\267\337\277\276|\232\015\012\230\324QV:\225"
 196      DFBFBE7C 
 196      9A0D0A98 
 196      D451563A 
 196      95
 197 009b 3C571D3B 		.ascii	"<W\035;R\266\014\260\203\252\234\27299O\202Q\273G\343"
 197      52B60CB0 
 197      83AA9CBA 
 197      39394F82 
 197      51BB47E3 
 198 00af AEDB8B9A 		.ascii	"\256\333\213\232tF:l\022\3078\252K\031S\261\333x\227"
 198      74463A6C 
 198      12C738AA 
 198      4B1953B1 
 198      DB7897
 199 00c2 7BDC6925 		.ascii	"{\334i%b)\347j\203\274G\350\276\002?\264\200\345\321"
 199      6229E76A 
 199      83BC47E8 
 199      BE023FB4 
 199      80E5D1
 200 00d5 C02EFCD9 		.ascii	"\300.\374\331\226\362FI\364I\214\237\310\366\202CC\030"
 200      96F24649 
 200      F4498C9F 
 200      C8F68243 
 200      4318
 201 00e7 681C0AB2 		.ascii	"h\034\012\262\305\256\373\222\374\347\022\262\310_\""
 201      C5AEFB92 
 201      FCE712B2 
 201      C85F22
 202 00f6 C70DFB10 		.ascii	"\307\015\373\020\366a\204\225\243\200\032\271\373v8"
 202      F6618495 
 202      A3801AB9 
 202      FB7638
 203 0105 E14BA771 		.ascii	"\341K\247q!U\3159\024Q\243+V\324&\235\331c\236\313\206"
 203      2155CD39 
 203      1451A32B 
 203      56D4269D 
 203      D9639ECB 
 204 011a 3F92A78F 		.ascii	"?\222\247\217p\363\214\272\373\032\366\265\374\031\373"
 204      70F38CBA 
 204      FB1AF6B5 
 204      FC19FB
 205 0129 5A614E4D 		.ascii	"ZaNM\257\026\302\341\221\202Y57\313\266]\334JX\010\246"
 205      AF16C2E1 
 205      91825935 
 205      37CBB65D 
 205      DC4A5808 
 206 013e 338BF96C 		.ascii	"3\213\371lb\306H\247r\251\245\345l6\2632o\244\277\031"
 206      62C648A7 
 206      72A9A5E5 
ARM GAS  /tmp/cc12Qys9.s 			page 16


 206      6C36B332 
 206      6FA4BF19 
 207 0152 C66AB55C 		.ascii	"\306j\265\\\251\024\013a|\002\353Tl\247"
 207      A9140B61 
 207      7C02EB54 
 207      6CA7
 208              		.text
 209              		.section	.gnu.lto_logfileNew.def1571aafd2a860,"",%progbits
 210 0000 789C8D54 		.ascii	"x\234\215TMHTQ\024>\347\276y\357\315L\216N\343L\316"
 210      4D485451 
 210      143EE7BE 
 210      79EFCD4C 
 210      8E4EE34C 
 211 0015 343A3C84 		.ascii	"4:<\204\331di\271\014\2424'\011DC\024\372\241\3054N"
 211      D96469B9 
 211      0CA23427 
 211      09444314 
 211      FAA1C534 
 212 002a C380268C 		.ascii	"\303\200&\214B\213\026\276Q\373\301B\244MC\321\217H"
 212      428B16BE 
 212      51FBC142 
 212      A44D43D1 
 212      8F48
 213 003c 9B285AB8 		.ascii	"\233(Z\270\231\205\321\264\011E\312\002\027\026!\242"
 213      9985D1B4 
 213      0945CA02 
 213      171621A2 
 214 004c 544261D1 		.ascii	"TBa\321\312\"\232\316}\177\376\226>x\367\336w\356\371"
 214      CA229ACE 
 214      7D7FFE96 
 214      3E78F7DE 
 214      77EEF9
 215 005f CE39DFF7 		.ascii	"\3169\337\367\316\275\014\030\254\177Z\350\035\020\001"
 215      CEBD0C18 
 215      AC7F5AE8 
 215      1D1001
 216 006e AED28C76 		.ascii	"\256\322\214v@6\364\032 mgL\030\013\201Z`\233\256\002"
 216      4036F41A 
 216      206D674C 
 216      180B815A 
 216      609BAE02 
 217 0082 D529A0CC 		.ascii	"\325)\240\314\315hc\342-7}K?\017\321\236\250[\323v\311"
 217      CD6863E2 
 217      2D377D4B 
 217      3F0FD19E 
 217      A85BD376 
 218 0097 5CC8887C 		.ascii	"\\\310\210|\001\010=L\260\211\222\214=\247\220ga\345"
 218      01083D4C 
 218      B089928C 
 218      3DA79067 
 218      61E5
 219 00a9 30ACAA37 		.ascii	"0\254\2527\347.\317\016\006\006\036\364\016\251\177"
 219      E72ECF0E 
 219      06061EF4 
 219      0EA97F
 220 00b8 F2794C22 		.ascii	"\362yL\"\325\343F\210!\234\244\017T\264\211\331\326"
 220      D5E34688 
ARM GAS  /tmp/cc12Qys9.s 			page 17


 220      219CA40F 
 220      54B489D9 
 220      D6
 221 00c9 16A82373 		.ascii	"\026\250#s?\316f\324\376\\>\1778\211\002\003\377\012"
 221      3FCE66D4 
 221      FE5C3E7F 
 221      38890203 
 221      FF0A
 222 00db CAAEA370 		.ascii	"\312\256\243p-\352)\313\315\345\363\277\237\014Ma\031"
 222      2DEA29CB 
 222      CDE5F3BF 
 222      9F0C4D61 
 222      19
 223 00ec 42922AE7 		.ascii	"B\222*\347\203\015\2428\214\345 b\007\202L\003:h`N\332"
 223      830DA238 
 223      8CE52062 
 223      07824C03 
 223      3A68604E 
 224 0101 135DB412 		.ascii	"\023]\264\022<\264\222\274\3445B^>\303\333o\314\001"
 224      3CB492BC 
 224      E435425E 
 224      3EC3DB6F 
 224      CC01
 225 0113 DA94833C 		.ascii	"\332\224\203<\016%\020\241_U\207\024\335\023x5\\L\032"
 225      0E2510A1 
 225      5F558714 
 225      DD137835 
 225      5C4C1A
 226 0126 B900ADC8 		.ascii	"\271\000\255\310\370,\274\202\336\211\314la\024\037"
 226      F82CBC82 
 226      DE89CC6C 
 226      61141F
 227 0135 A20809B4 		.ascii	"\242\010\011\264\335\201\333iUu\023\361K\360K\275\306"
 227      DD81DB69 
 227      557513F1 
 227      4BF04BBD 
 227      C6
 228 0146 57F60E2D 		.ascii	"W\366\016-\034\347`7j\237\002IG\300\212\233#\206:C\212"
 228      1CE76037 
 228      6A9F0249 
 228      47C08A9B 
 228      23863A43 
 229 015b C28D1955 		.ascii	"\302\215\031U}F\020g\010J\357\252\231#I\334\001\006"
 229      7D461067 
 229      084AEFAA 
 229      992349DC 
 229      0106
 230 016d 26816212 		.ascii	"&\201b\022\013\000(wvf\266H\267V\300#\225\236\003\304"
 230      0B002877 
 230      7666B648 
 230      B756C023 
 230      959E03C4 
 231 0181 936A20A0 		.ascii	"\223j \240+\2012\317Y\250\005=g\250\307-<-\007\277_"
 231      2B8132CF 
 231      59A8053D 
 231      67A8C72D 
 231      3C2D07BF 
ARM GAS  /tmp/cc12Qys9.s 			page 18


 232 0196 BEE7350B 		.ascii	"\276\3475\013wV\300\036\013Z\224@\007wt\033PS\371q\350"
 232      7756C01E 
 232      0B5A9440 
 232      0777741B 
 232      5053F971 
 233 01ab FF9A2EB2 		.ascii	"\377\232.\262 V,\363iE\001\306B\302\024\364\331M'f\361"
 233      20562CF3 
 233      694501C6 
 233      42C214F4 
 233      D94D2766 
 234 01c0 DB1943BD 		.ascii	"\333\031C\2757\223\3501\335m0]\305%\234\314\314/\343"
 234      3793E831 
 234      DD6D305D 
 234      C5259CCC 
 234      CC2FE3
 235 01d3 7A1ED2E6 		.ascii	"z\036\322\346<\230!\222K\027 ;\377\206\255G\026o\216"
 235      3C982192 
 235      4B17203B 
 235      FF86AD47 
 235      166F8E
 236 01e6 142C058A 		.ascii	"\024,\005\212\015\005&g6\311\353\335\034m3\362\212\374"
 236      0D052667 
 236      36C9EBDD 
 236      1C6D33F2 
 236      8AFC
 237 01f8 F7F5CF5D 		.ascii	"\367\365\317]\037\301\015\277\320\027[\225c\327\242"
 237      1FC10DBF 
 237      D0175B95 
 237      63D7A2
 238 0207 4C544B74 		.ascii	"LTKt\2453\013\343\314\224\304\243I-\351\235\242\236"
 238      A5330BE3 
 238      CC94C4A3 
 238      492DE99D 
 238      A29E
 239 0219 F917439E 		.ascii	"\371\027C\236\346J.`\242\274V\026\177\314\252\305C\345"
 239      E64A2E60 
 239      A2BC5616 
 239      7FCCAAC5 
 239      43E5
 240 022b 706480F7 		.ascii	"pd\200\367\367n-\325Dva\021M\220o\273\355(\376\257\035"
 240      F76E2DD5 
 240      44766111 
 240      4D906FBB 
 240      ED28FEAF 
 241 0240 7DABDA31 		.ascii	"}\253\3321\030\202Z\275\035K\315v\324z\221K2\270mIx"
 241      18825ABD 
 241      1D4BCD76 
 241      D47A914B 
 241      32B86D49 
 242 0255 23BDB8FF 		.ascii	"#\275\270\377R\260\310\361]am+\211\360\315\241\035\257"
 242      52B0C8F1 
 242      5D616D2B 
 242      89F0CDA1 
 242      1DAF
 243 0267 ECA7EF16 		.ascii	"\354\247\357\026!\377\366\010\021l\311\012\036\240\370"
 243      21FFF608 
 243      116CC90A 
ARM GAS  /tmp/cc12Qys9.s 			page 19


 243      1EA0F8
 244 0276 5B1E39BF 		.ascii	"[\0369\277\301\3619E)\013\301i\235ch\345\310\005\314"
 244      C1F13945 
 244      290BC169 
 244      9D6368E5 
 244      C805CC
 245 0289 23B7D4F7 		.ascii	"#\267\324\367\345\206d\306\016j\261\365\202%\370\030"
 245      E58664C6 
 245      0E6AB1F5 
 245      8225F818 
 246 0299 E6056733 		.ascii	"\346\005g3\23776\325\326\207\022-\346\262v\263\274\245"
 246      9F3736D5 
 246      D687122D 
 246      E6B276B3 
 246      BCA5
 247 02ab DB9627D6 		.ascii	"\333\226'\326\354\357\000\351,\0114\004\305\307\243"
 247      ECEF00E9 
 247      2C093404 
 247      C5C7A3
 248 02ba 7E0E20CE 		.ascii	"~\016 \316\322\207Q/\277\222\220\003x\327\270\332\242"
 248      D287512F 
 248      BF929003 
 248      78D7B8DA 
 248      A2
 249 02cb DDD1F6CE 		.ascii	"\335\321\366\316D\"\236\252\214\201\\\027\251m\255\257"
 249      44229EAA 
 249      8C815C17 
 249      A96DADAF 
 250 02db AC1652F1 		.ascii	"\254\026R\361\256p]MKMCS}}\244\371\240r4\025\217v'/"
 250      AE705D4D 
 250      4B4D4353 
 250      7D7DA4F9 
 250      A0723415 
 251 02f3 2494C6F8 		.ascii	"$\224\306\370E\245\2413q>\331\036W\302]N(Y\355u\354"
 251      45A5A133 
 251      713ED91E 
 251      57C25D4E 
 251      2859ED75 
 252 0308 78434469 		.ascii	"xCDi:\021it\302\276\325\366H*\325\231Rbf\014\003\277"
 252      3A116974 
 252      C2BED5F6 
 252      482AD599 
 252      5262660C 
 253 031e 57893437 		.ascii	"W\21147\207\367W\2679\341/\325\340e\311"
 253      87F757B7 
 253      39E12FD5 
 253      E065C9
 254              		.text
 255              		.section	.gnu.lto_logfileSize.def1571aafd2a860,"",%progbits
 256 0000 789C6362 		.ascii	"x\234cb`b@\007\222@\034\015\304\374@\314\310\314\300"
 256      60624007 
 256      92401C0D 
 256      C4FC40CC 
 256      C8CCC0
 257 0013 C834E11C 		.ascii	"\3104\341\034\003C#\007\023##\210\301\300\310P\317\304"
 257      03432307 
 257      13232388 
ARM GAS  /tmp/cc12Qys9.s 			page 20


 257      C1C0C850 
 257      CFC4
 258 0025 581FC908 		.ascii	"X\037\311\010V\273\236\351\300\203\377\377\327\3358"
 258      56BB9EE9 
 258      C083FFFF 
 258      D7DD38
 259 0034 B6603D23 		.ascii	"\266`=##\310(V\206\226\206\206\011\012\014\014\311`"
 259      23C82856 
 259      86968686 
 259      090A0C0C 
 259      C960
 260 0046 05214012 		.ascii	"\005!@\022\244+\024(\011\244\231/24>X\267\2301\221q"
 260      A42B1428 
 260      09A4992F 
 260      32343E58 
 260      B7983191 
 261 005b 21232B43 		.ascii	"!#+C\004c&#\334\326\020FF\220\012\220\031\274)\211%"
 261      04632623 
 261      DCD61046 
 261      46900A90 
 261      19BC2989 
 262 0070 8939F9E9 		.ascii	"\2119\371\351\351\251Ez\311\014\000&\226\036\351"
 262      E9A9457A 
 262      C90C0026 
 262      961EE9
 263              		.text
 264              		.section	.gnu.lto_logfileWriteCsv.def1571aafd2a860,"",%progbits
 265 0000 789C6362 		.ascii	"x\234cb`b@\007\222@\234\005\304\374@\314\310\314\300"
 265      60624007 
 265      92409C05 
 265      C4FC40CC 
 265      C8CCC0
 266 0013 C834E11C 		.ascii	"\3104\341\034\003C#\007\023##\210\301\300\310P\317\304"
 266      03432307 
 266      13232388 
 266      C1C0C850 
 266      CFC4
 267 0025 581FC908 		.ascii	"X\037\311\010V\273\236\351\300\203\377\377\327};\276"
 267      56BB9EE9 
 267      C083FFFF 
 267      D77D3BBE 
 268 0035 60052313 		.ascii	"`\005#\023+\023c.#\0033\220`d\001\022 \223Y\031Z\032"
 268      2B13632E 
 268      23033390 
 268      60640112 
 268      20935919 
 269 004b 1A262830 		.ascii	"\032&(00$\203\325\207\000I\220!\241@I \315|\221\241"
 269      302483D5 
 269      87004990 
 269      21A14049 
 269      20CD7C91 
 270 0060 F1C1FCA5 		.ascii	"\361\301\374\245\214\211\214\013\031Y\031\"\0303\031"
 270      8C898C0B 
 270      19591922 
 270      183319
 271 006f E18E0861 		.ascii	"\341\216\010ad\004\251\000\231\301\233\222X\222\230"
 271      6404A900 
ARM GAS  /tmp/cc12Qys9.s 			page 21


 271      99C19B92 
 271      589298
 272 007e 939F9E9E 		.ascii	"\223\237\236\236Z\244\227\314\000\000{B `"
 272      5AA497CC 
 272      00007B42 
 272      2060
 273              		.text
 274              		.section	.gnu.lto_logfileGetWrCount.def1571aafd2a860,"",%progbits
 275 0000 789C6362 		.ascii	"x\234cb`b@\007\222@<\003\210\371\201\230\221\231\201"
 275      60624007 
 275      92403C03 
 275      88F98198 
 275      919981
 276 0013 9169C239 		.ascii	"\221i\3029\006\206F\016&FF\020\203\201\221\241\236\211"
 276      0686460E 
 276      26464610 
 276      838191A1 
 276      9E89
 277 0025 B13E9211 		.ascii	"\261>\222\021\254v=\323\201\007\377\377\257\273sj\301"
 277      AC763DD3 
 277      8107FFFF 
 277      AFBB736A 
 277      C1
 278 0036 0E462616 		.ascii	"\016F&\026&\306\\F\006f\206L\260\034+CKC\303\004\005"
 278      26C65C46 
 278      0666864C 
 278      B01C2B43 
 278      4B43C304 
 279 004b 06866430 		.ascii	"\006\206d07\004H\202\364\20722\201h\346\263\014M\267"
 279      37044882 
 279      F4873232 
 279      8168E6B3 
 279      0C4DB7
 280 005e 7EACD64C 		.ascii	"~\254\326Ld\\\310\310\312\220\316\310\254\315\260\252"
 280      645CC8C8 
 280      CA90CEC8 
 280      ACCDB0AA 
 281 006e 0108EC81 		.ascii	"\001\010\354\201\232g3\314b\314ddLgd\212\000\322\020"
 281      9A6733CC 
 281      62CC6464 
 281      4C67648A 
 281      00D210
 282 0081 072631C2 		.ascii	"\007&1\302\234w\221\241\361\000+\\\033D,\204\221\021"
 282      9C7791A1 
 282      F1002B5C 
 282      1B442C84 
 282      9111
 283 0093 64284829 		.ascii	"d(H)oJbIbN~zzj\221^2\003\000\325\337*m"
 283      6F4A6249 
 283      624E7E7A 
 283      7A6A915E 
 283      320300D5 
 284              		.text
 285              		.section	.gnu.lto_logfileClose.def1571aafd2a860,"",%progbits
 286 0000 789C6D50 		.ascii	"x\234mP\273J\003A\024=gf\326<Pbaa\245\326\006\014\350"
 286      BB4A0341 
 286      143D6766 
ARM GAS  /tmp/cc12Qys9.s 			page 22


 286      D63C5062 
 286      6161A5D6 
 287 0017 AF18D432 		.ascii	"\257\030\3242FY\026\024A\354,2\221\0246BJ\321F[\013"
 287      46591614 
 287      41EC2C32 
 287      91143642 
 287      4AD1465B 
 288 002c 85D8A4B0 		.ascii	"\205\330\244\260\210\235 *B\012W,\374\000?@E\210\367"
 288      889D202A 
 288      420A572C 
 288      FC003F40 
 288      4588F7
 289 003f EE9228C6 		.ascii	"\356\222(\306\205\231\271\314\236\327\034\003\203\277"
 289      8599B9CC 
 289      9ED71C03 
 289      83BF
 290 004d DFBCAC03 		.ascii	"\337\274\254\003\002\0059\031\200\246y\017\324\263\306"
 290      02053919 
 290      80A6790F 
 290      D4B3C6
 291 005c D86E093E 		.ascii	"\330n\011>\357\256\246\340G-]z\355H\035@\324\214u\254"
 291      EFAEA6E0 
 291      472D5D7A 
 291      ED481D40 
 291      D48C75AC 
 292 0070 AD3011B9 		.ascii	"\2550\021\2710\235\327^\357\274y{\362D\223'\"\302q\223"
 292      309DD75E 
 292      EFBC797B 
 292      F2449327 
 292      22C27193 
 293 0084 08646246 		.ascii	"\010dbF6\365\015\320\360\2769\003T\023\322\242\354\252"
 293      36F50DD0 
 293      F0BE3903 
 293      5413D2A2 
 293      ECAA
 294 0096 55969F72 		.ascii	"U\226\237r\332;\354=\267[\037\254\360Tr\204\014\212"
 294      DA3BEC3D 
 294      B75B1FAC 
 294      F0547284 
 294      0C8A
 295 00a8 9815F631 		.ascii	"\230\025\3661\216\352\336\373\245\2106\244[fD\227X\256"
 295      8EEADEFB 
 295      A58836A4 
 295      5B664497 
 295      58AE
 296 00ba B2FF8207 		.ascii	"\262\377\202\0074:\323}Vf\027\237~\337\217G\014\252"
 296      343AD37D 
 296      5666179F 
 296      7EDF8F47 
 296      0CAA
 297 00cc 4C212215 		.ascii	"L!\"\025q\004\270A\343\255^\030\000U*\363\273\2112-"
 297      7104B841 
 297      E3AD5E18 
 297      00552AF3 
 297      BB89322D 
 298 00e0 BA25CDD1 		.ascii	"\272%\315\321~o\305&\005\026q&\356~!bV\222p8E\352\241"
 298      7E6FC526 
ARM GAS  /tmp/cc12Qys9.s 			page 23


 298      05167126 
 298      EE7E2162 
 298      56927038 
 299 00f7 37591D94 		.ascii	"7Y\035\224}xy=\304\316\375\3176\003v\356'\206K\372x"
 299      7D78793D 
 299      C4CEFDCF 
 299      360376EE 
 299      27864BFA 
 300 010c 94BA357C 		.ascii	"\224\2725|b\020\203\012\222\336\355K<\231\214\200\371"
 300      6210830A 
 300      92DEED4B 
 300      3C998C80 
 300      F9
 301 011d 8A27B447 		.ascii	"\212'\264G*^\225\306\326*;\225\215\2550\\\337\236\253"
 301      2A5E95C6 
 301      D62A3B95 
 301      8DAD305C 
 301      DF9EAB
 302 0130 E21B7434 		.ascii	"\342\033t4^\377"
 302      5EFF
 303              		.text
 304              		.section	.gnu.lto_logfileOpenAppend.def1571aafd2a860,"",%progbits
 305 0000 789C8D52 		.ascii	"x\234\215R=k\024Q\024\275\347}\254\263\223Yw\215U,\202"
 305      3D6B1451 
 305      14BDE77D 
 305      ACB39359 
 305      778D552C 
 306 0015 D8A9607E 		.ascii	"\330\251`~\203\377\301@$\325:\011\223\001%\020\355,"
 306      83FFC140 
 306      24D53A09 
 306      93012510 
 306      ED2C
 307 0027 F6ADAE22 		.ascii	"\366\255\256\"h\261\330\004\264I\010\351\004\333\260"
 307      68B1D804 
 307      B44908E9 
 307      04DBB0
 308 0036 69269022 		.ascii	"i&\220\"\"\032L\021?p!]\010\370U\252\010\353\275\263"
 308      221A4C11 
 308      3F70215D 
 308      08F855AA 
 308      08EBBDB3 
 309 004a 33CF4453 		.ascii	"3\317DS\370`\356\235\271\357\236s\317yo\024)\372{]\346"
 309      F860EE9D 
 309      B9EF9E73 
 309      CF796F14 
 309      29FA7B5D 
 310 005f E733974F 		.ascii	"\3473\227OsF\205\240\272\257\211\332\201R\2727N.\264"
 310      734685A0 
 310      BAAF89DA 
 310      8152BA37 
 310      4E2EB4
 311 0072 BB13E422 		.ascii	"\273\023\344\"\255\314\241/\003;l\262\200\274\020\250"
 311      ADCCA12F 
 311      033B6CB2 
 311      80BC10A8 
 312 0082 A5B4B168 		.ascii	"\245\264\261h]\205P\342\034-;\367xo\265w\200E\227\265"
 312      5D8550E2 
ARM GAS  /tmp/cc12Qys9.s 			page 24


 312      1C2D3BF7 
 312      786FB577 
 312      804597B5 
 313 0096 97DCAFC1 		.ascii	"\227\334\257\301\000H\301\343\033\240\0304\305\037\010"
 313      0048C1E3 
 313      1BA01834 
 313      C51F08
 314 00a5 F2A47054 		.ascii	"\362\244pT\317s\225\355\015\006\217\372\235\235\011"
 314      CF7395ED 
 314      0D068FFA 
 314      9D9D09
 315 00b4 EE6D6299 		.ascii	"\356mb\231\331\014n\200,\245\320\025\016&(\312U\251"
 315      D90C6E80 
 315      2CA5D015 
 315      0E2628CA 
 315      55A9
 316 00c6 841C6C54 		.ascii	"\204\034lTTjR\251s\2500\223\245\216s\335\263\303\035"
 316      546A52A9 
 316      73A83093 
 316      A58E73DD 
 316      B3C31D
 317 00d9 92B1BCAE 		.ascii	"\222\261\274\256p\024\315\223P\222\365+\272\363\341"
 317      7014CD93 
 317      5092F52B 
 317      BAF3E1
 318 00e8 5DEF856A 		.ascii	"]\357\205jb\005\226\022\330\213t\2019\236\322\223\266"
 318      62059612 
 318      D88B7481 
 318      399ED293 
 318      B6
 319 00f9 736E3AC5 		.ascii	"sn:\305\211\004Ft\006\271\272k^\255\000\273\243%\254"
 319      89044674 
 319      06B9BA6B 
 319      5EAD00BB 
 319      A325AC
 320 010c 92C30CC3 		.ascii	"\222\303\014\303\360/\244\304l\323\375l\254D\004\267"
 320      F02FA4C4 
 320      6CD3FD6C 
 320      AC4404B7 
 321 011c E9A77BE0 		.ascii	"\351\247{\340\032)\252q\321\301\323\231I\220\341({\030"
 321      1A29AA71 
 321      D1C1D399 
 321      4990E128 
 321      7B18
 322 012e 21DAA2CD 		.ascii	"!\332\242\315\375\215\267/\265\007\311\346\221\343\232"
 322      FD8DB72F 
 322      B507C9E6 
 322      91E39A
 323 013d 84A6DE78 		.ascii	"\204\246\336xncm\375\207o\254z\033\307\3509l\341[XB"
 323      6E636DFD 
 323      876FAC7A 
 323      1BC7E839 
 323      6CE15B58 
 324 0152 C21C1215 		.ascii	"\302\034\022\025\316[)jL#0]\300\224\267q/;S\242\"o\343"
 324      CE5B296A 
 324      4C23305D 
 324      C094B771 
ARM GAS  /tmp/cc12Qys9.s 			page 25


 324      2F3B53A2 
 325 0169 645C7430 		.ascii	"d\\t0\214\331R\324E\177\347\323F\377a\344\273\217\321"
 325      8CD952D4 
 325      457FE7D3 
 325      46FF61E4 
 325      BB8FD1
 326 017c 6FE8EB48 		.ascii	"o\350\353H\256\377\373\372\237k\250\375\3575lS';?D\021"
 326      AEFFFBFA 
 326      9F6BA8FD 
 326      EF356C53 
 326      273B3F44 
 327 0191 792D8DB8 		.ascii	"y-\215\270P\315L)N\225\243ly\345_\356\356/\332rV=\221"
 327      50CD4C29 
 327      4E95A36C 
 327      79E55FEE 
 327      EE2FDA72 
 328 01a8 F37F43F0 		.ascii	"\363\177C\360\005\351~O\340\363V\317\3723,[\177\354"
 328      05E97E4F 
 328      E0F356CF 
 328      FA332C5B 
 328      7FEC
 329 01ba CF7132F9 		.ascii	"\317q2\371\017\004a\021\253\265\231\346\255\346\365"
 329      0F046111 
 329      ABB599E6 
 329      ADE6F5
 330 01c9 F924995D 		.ascii	"\371$\231]\270\024\223^\230\275\371\0336\004\253~"
 330      B814935E 
 330      98BDF91B 
 330      3604AB7E 
 331              		.text
 332              		.section	.gnu.lto_logfileWrite.def1571aafd2a860,"",%progbits
 333 0000 789C8554 		.ascii	"x\234\205TMh\023A\030\375\276\231\375K\2324?\025\264"
 333      4D681341 
 333      18FDBE99 
 333      FD4B9A34 
 333      3F15B4
 334 0013 82A51434 		.ascii	"\202\245\0244`\241*z\021\321\273w\013z\360\020cYW\254"
 334      60A12A7A 
 334      11D1BB77 
 334      0B7AF010 
 334      635957AC 
 335 0027 420D78F0 		.ascii	"B\015x\360\320I\273\320\034\212D\021D=\330RT\350A\017"
 335      D049BBD0 
 335      1C8A4411 
 335      443DD852 
 335      54E8410F 
 336 003b 22F5EFB0 		.ascii	"\"\365\357\260\365P\245X\253PD\305C\020<)\036,x\020"
 336      F550A558 
 336      AB5044C5 
 336      43103C29 
 336      1E2C7810 
 337 004f 357EDF64 		.ascii	"5~\337dw\233Z\261\003\231\3317\363\275yo\337\314F\200"
 337      779B5AB1 
 337      0399D937 
 337      F3BD796F 
 337      DFCC4680 
 338 0063 80BFDB20 		.ascii	"\200\277\333 \375\012\006\300V\0321\001(j/\001*\216"
ARM GAS  /tmp/cc12Qys9.s 			page 26


 338      FD0A06C0 
 338      561A3101 
 338      286A2F01 
 338      2A8E
 339 0075 10B25A00 		.ascii	"\020\262Z\000\2254\270OI\341<\351b\264\264\203\220\021"
 339      9534B84F 
 339      49E13CE9 
 339      62B4B483 
 339      9011
 340 0087 22532353 		.ascii	"\"S#S8\363;\011Ys[\010Y\302~\304k\316\033^\263\321\341"
 340      38F33B09 
 340      59735B08 
 340      59C27EC4 
 340      6BCE1B5E 
 341 009e EDD041E4 		.ascii	"\355\320A\344\021\020\206\2054L\313vp\370\010\262\274"
 341      11108685 
 341      344CCB76 
 341      70F808B2 
 341      BC
 342 00af EC8149A5 		.ascii	"\354\201I\245j\365O\313\201\274z9\360'\324\317F\003"
 342      6AF54FCB 
 342      81BC7A39 
 342      F027D4CF 
 342      4603
 343 00c1 D143B29A 		.ascii	"\321C\262\232E(!\034&\200\335z\020\306j\357\232{)\370"
 343      4528211C 
 343      2680DD7A 
 343      10C66AEF 
 343      9A7B29F8 
 344 00d5 357761A3 		.ascii	"5wa\243\252\253\232\372MT\017\245\200\315+L\247\311"
 344      AAAB9AFA 
 344      4D540FA5 
 344      80CD2B4C 
 344      A7C9
 345 00e7 C4B5CCA0 		.ascii	"\304\265\314\240\0264\346\306;\325\304H\304$\315\256"
 345      1634E6C6 
 345      3BD5C448 
 345      C424CDAE 
 346 00f7 F534EF8A 		.ascii	"\3654\357\212\240\336h|\230\361\347\2736!xhH\356\014"
 346      A0DE687C 
 346      98F1E7BB 
 346      36217868 
 346      48EE0C
 347 010a 1C44B0A8 		.ascii	"\034D\260\250#=\017\315\004\024q\012{ I\300j\243i\221"
 347      233D0FCD 
 347      0414710A 
 347      7B2049C0 
 347      6AA36991 
 348 011e A2273B4D 		.ascii	"\242';MO2\023\256ei\006r\004&\011\344\0118\035\334\221"
 348      4F3213AE 
 348      65690672 
 348      042609E4 
 348      09381DDC 
 349 0133 84093E45 		.ascii	"\204\011>E\322\335,+\342M\352\201]Q;D='\331\217\202"
 349      D2DD2C2B 
 349      E24DEA81 
 349      5D513B44 
ARM GAS  /tmp/cc12Qys9.s 			page 27


 349      3D27D98F 
 350 0148 47F91CFC 		.ascii	"G\371\034\374/\263\027\237\311\"\336F\023\\4\330r\242"
 350      2FB3179F 
 350      C922DE46 
 350      135C34D8 
 350      72A2
 351 015a D56F3F4A 		.ascii	"\325o?J\250\026\344\"\370\365\371\251LT\347\234\207"
 351      A816E422 
 351      F8F5F9A9 
 351      4C54E79C 
 351      87
 352 016b 1FAAAAB2 		.ascii	"\037\252\252\262\036&K\330\314\306E\313\3036\200\005"
 352      1E264BD8 
 352      CCC645CB 
 352      C3368005 
 353 017b 18F93A7A 		.ascii	"\030\371:z2*L\270lI\313\\\031K\305\263,#W\313\030\360"
 353      322A4CB8 
 353      6C49CB5C 
 353      194BC5B3 
 353      2C2357CB 
 354 0191 ED8024F2 		.ascii	"\355\200$\362\373\267\313\257DT\230\354\205\355\024"
 354      FBB7CBAF 
 354      445498EC 
 354      85ED14
 355 01a0 C175B856 		.ascii	"\301u\270VQJ\035\3650E2LNk\326\261\370X\264\3524F<*"
 355      514A1DF5 
 355      3045324C 
 355      4E6BD6B1 
 355      F858B4EA 
 356 01b8 232B8B30 		.ascii	"#+\2130\026tFS\231\330r{\011Eh9\351b\232\252y\211\332"
 356      16744653 
 356      99D8727B 
 356      09456839 
 356      E9629AAA 
 357 01cf 0C6D9C69 		.ascii	"\014m\234i\006\326dQ\240\331\320\375\215\225\2202\377"
 357      06D66451 
 357      A0D9D0FD 
 357      8D959032 
 357      FF
 358 01e0 706FC29D 		.ascii	"po\302\235mR\233\370\030\233\310\272a\036\007\243\231"
 358      6D529BF8 
 358      189BC8BA 
 358      611E07A3 
 358      99
 359 01f1 5C741ABC 		.ascii	"\\t\032\274eeoKa\256u3\013f\333u\024\017\276\007\361"
 359      65656F4B 
 359      61AE7533 
 359      0B66DB75 
 359      140FBE07 
 360 0206 6E791D45 		.ascii	"ny\035E\216\242\300\2651`\034\303hu\364V\314\351 \032"
 360      8EA2C0B5 
 360      31601CC3 
 360      6875F456 
 360      CCE9201A 
 361 021a 97E5105A 		.ascii	"\227\345\020Z\215\364\3024\277\356\256u\266#~\370\362"
 361      8DF4C234 
 361      BFEEAE75 
ARM GAS  /tmp/cc12Qys9.s 			page 28


 361      B6237EF8 
 361      F2
 362 022b F7FF7F43 		.ascii	"\367\377\177ClX2\371\2068Q\221\214\263\316\227\302\244"
 362      6C5832F9 
 362      86385191 
 362      8CB3CE97 
 362      C2A4
 363 023d F4F5E888 		.ascii	"\364\365\350\210\030\216\276}\013\360\364sx\324\315"
 363      188EBE7D 
 363      0BF0F473 
 363      78D4CD
 364 024c 60F6C03D 		.ascii	"`\366\300=U\345\017\211\332k\372\027a\232\006\357\000"
 364      55E50F89 
 364      DA6BFA17 
 364      619A06EF 
 364      00
 365 025d E922C917 		.ascii	"\351\"\311\027\017O\260\274\201`\216?\336@:6j\014`\371"
 365      0F4FB0BC 
 365      81608E3F 
 365      DE403A36 
 365      6A0C60F9 
 366 0271 FBC315C3 		.ascii	"\373\303\025\303\337\307\367\034Y\201\2179}\274X.\236"
 366      DFC7F71C 
 366      59818F39 
 366      7DBC582E 
 366      9E
 367 0282 3AE3BA03 		.ascii	":\343\272\003C}%H\234\033\362\312\345\201\323}\273\345"
 367      437D2548 
 367      9C1BF2CA 
 367      E581D37D 
 367      BBE5
 368 0294 D0C0593B 		.ascii	"\320\300Y;D\177\000\367\316\376\017"
 368      447F00F7 
 368      CEFE0F
 369              		.text
 370              		.section	.gnu.lto_.symbol_nodes.def1571aafd2a860,"",%progbits
 371 0000 789C4DCE 		.ascii	"x\234M\316=N\3030\030\306\361\307\217\223\000M\322\357"
 371      3D4EC330 
 371      18C6F1C7 
 371      8F93004D 
 371      D2EF
 372 0012 222175E4 		.ascii	"\"!u\344\010\3359\013'yK\003M)\024\312\327\010C{\001"
 372      08DD390B 
 372      27794B03 
 372      4D2914CA 
 372      D708437B 
 373 0027 16060616 		.ascii	"\026\006\006\026*\265K\305\312\212\212\200[P\234&\302"
 373      2AB54BC5 
 373      CA8A8A80 
 373      5B509C26 
 373      C2
 374 0038 CEF2D7EF 		.ascii	"\316\362\327\357\265c\233 b\"\377\270V\002\214\337\000"
 374      B5639B20 
 374      6222FFB8 
 374      56028CDF 
 374      00
 375 0049 91D1E090 		.ascii	"\221\321\340\220\267\024U\360~\240\374.\341\211\346"
ARM GAS  /tmp/cc12Qys9.s 			page 29


 375      B71455F0 
 375      7EA0FC2E 
 375      E189E6
 376 0058 1D8576CA 		.ascii	"\035\205v\312#\212.\370`\330\243x\016\023\212\357\360"
 376      238A2EF8 
 376      60D8A378 
 376      0E138AEF 
 376      F0
 377 0069 981238EC 		.ascii	"\230\0228\354S\266\034\246\224m\207\003\312\216\303"
 377      53B61CA6 
 377      946D8703 
 377      CA8EC3
 378 0078 534AC9E1 		.ascii	"SJ\311\341\011%\264T\027\224(g\267\253\324\210\022["
 378      0925B454 
 378      17942867 
 378      B7ABD488 
 378      125B
 379 008a 9D53CA56 		.ascii	"\235S\312V\327\224\212\325\031\245j5\244\324\254.)u"
 379      D7948AD5 
 379      19A56A35 
 379      A4D4AC2E 
 379      2975
 380 009c AB31A561 		.ascii	"\2531\245auCiZ]QZ\377\322\250 \371\3705-c\272i\214Y"
 380      7543695A 
 380      5D515AFF 
 380      D2A820F9 
 380      F8352D63 
 381 00b4 56054CB2 		.ascii	"V\005L\262\352j>\367\352\230\276|\233\326\220\314\177"
 381      EA6A3EF7 
 381      EA98BE7C 
 381      9BD690CC 
 381      7F
 382 00c5 DADA037A 		.ascii	"\332\332\003z\351~\226\325b\321\326~\261\335\257\345"
 382      E97E96D5 
 382      62D1D67E 
 382      B1DDAFE5 
 383 00d5 BF078503 		.ascii	"\277\007\205\003\205\311sG\007\015L\373_{:h\342sS\263"
 383      85C97347 
 383      070D4CFB 
 383      5F7B3A68 
 383      E27353B3 
 384 00e9 9C666D60 		.ascii	"\234fm`\226\346~\035\256\225.\025\267\205\315\374\230"
 384      96E67E1D 
 384      AE952E15 
 384      B785CDFC 
 384      98
 385 00fa B085D953 		.ascii	"\260\205\331SG\207f<\177\247\216BL\036\017t\264k\246"
 385      4787663C 
 385      7FA78E42 
 385      4C1E0F74 
 385      B46BA6
 386 010d E62D91C6 		.ascii	"\346-\221\306*]*\374\001\326\276\233C"
 386      2A5D2AFC 
 386      01D6BE9B 
 386      43
 387              		.text
 388              		.section	.gnu.lto_.refs.def1571aafd2a860,"",%progbits
ARM GAS  /tmp/cc12Qys9.s 			page 30


 389 0000 789C6362 		.ascii	"x\234cb`b\220d\200\000FF\006&f\026F&\240\020\023#+\220"
 389      60629064 
 389      80004646 
 389      06266616 
 389      4626A010 
 390 0018 CDC60066 		.ascii	"\315\306\000f3\000\000\006\015\000G"
 390      33000006 
 390      0D0047
 391              		.text
 392              		.section	.gnu.lto_.decls.def1571aafd2a860,"",%progbits
 393 0000 789CBD7D 		.ascii	"x\234\275}\011\224\024E\326nf\326\332t\313\3462\310"
 393      09941445 
 393      D66E66D6 
 393      DA74CBE6 
 393      32C8
 394 0012 3052FC6F 		.ascii	"0R\374o|?g~\245\001\235\031\235\3377\012\335\315\362"
 394      7C3F677E 
 394      A5019D19 
 394      9DDF370A 
 394      DDCDF2
 395 0025 04BA5F77 		.ascii	"\004\272_w;\216\347\274w\312\242\273\032\372\2677\253"
 395      3B8EE7BC 
 395      77CAA2BB 
 395      1AFAB737 
 395      AB
 396 0036 8AC5F7DE 		.ascii	"\212\305\367\3369\223\015\330\010*\262\210\266\354 "
 396      39930DD8 
 396      082AB288 
 396      B6EC20
 397 0045 C82648D3 		.ascii	"\310&H\323 4\233\205\013\215\240\310&\310\322\320\262"
 397      20349B85 
 397      0B8DA0C8 
 397      26C8D2D0 
 397      B2
 398 0056 C9228220 		.ascii	"\311\"\202 \373\322\357\306\215\314\252\310\254\314"
 398      FBD2EFC6 
 398      8DCCAAC8 
 398      ACCC
 399 0064 ACC872FE 		.ascii	"\254\310r\376W\347DdTT\306\0277\356\275q\343\306\222"
 399      57E74464 
 399      5454C617 
 399      37EEBD71 
 399      E3C692
 400 0077 59922009 		.ascii	"Y\222 \011\235\334\202\320\002\237\217\346\010\302\311"
 400      9DDC82D0 
 400      029F8FE6 
 400      08C2C9
 401 0086 B682708F 		.ascii	"\266\202p\217 \010\177\205p/\004'\204\271\020\346AX"
 401      20087F85 
 401      702F0427 
 401      84B910E6 
 401      4158
 402 0098 04613184 		.ascii	"\004a1\204\245\020\226Ch\206p\022\302)\010\036\010\247"
 402      A5109643 
 402      68867012 
 402      C229081E 
 402      08A7
ARM GAS  /tmp/cc12Qys9.s 			page 31


 403 00aa 219C8170 		.ascii	"!\234\201p\016\302\217\020~\202\260[\022\204&\010.Q"
 403      0EC28F10 
 403      7E82B05B 
 403      12842608 
 403      2E51
 404 00bc C0CF0310 		.ascii	"\300\317\003\020\216\303\367{\035\202\360;\010\005\020"
 404      8EC3F77B 
 404      1D82F03B 
 404      080510
 405 00cb AE43B80B 		.ascii	"\256C\270\013!\035*k\007\241\013\204\177\205\360(\204"
 405      211D2A6B 
 405      07A10B84 
 405      7F85F028 
 405      84
 406 00dc 1E109E86 		.ascii	"\036\020\236\206\360\014\204A\020r!\310\020j \214\207"
 406      F00C8441 
 406      107221C8 
 406      106A208C 
 406      87
 407 00ed 3001C2DB 		.ascii	"0\001\302\333\020\336\203@\252\230\357\0244\037RW:\\"
 407      10DE8340 
 407      AA98EF14 
 407      341F5257 
 407      3A5C
 408 00ff 7320BF35 		.ascii	"s \2775\\3\2246}\000\321\022\010\013!,\205\320\013\302"
 408      5C339436 
 408      7D00D112 
 408      080B212C 
 408      85D00BC2 
 409 0113 87109629 		.ascii	"\207\020\226)\345\235J\331AJ\335\204\006\370*\264\006"
 409      E59D4AD9 
 409      414ADD84 
 409      06F82AB4 
 409      06
 410 0124 3ADB3AB4 		.ascii	":\333:\264u\220\266\020l\322N\265\216G\035\264\355>"
 410      7590B610 
 410      6CD24EB5 
 410      8E471DB4 
 410      ED3E
 411 0136 B8FE0F28 		.ascii	"\270\376\017(\373\002\\\357\207\360\021\244W8\343<="
 411      FB025CEF 
 411      87F011A4 
 411      5738E33C 
 411      3D
 412 0147 21510C49 		.ascii	"!Q\014I\301!u\032\265\203\360\212\310\205\360Q\255c"
 412      C121751A 
 412      B583F08A 
 412      C885F051 
 412      AD63
 413 0159 B948EB24 		.ascii	"\271H\353$\267\222:\036U\352\350\342\240\365\326A^\236"
 413      B7923A1E 
 413      55EAE8E2 
 413      A0F5D641 
 413      5E9E
 414 016b C297471C 		.ascii	"\302\227G\034\264\016\202\223\253\344\345\351\332Ad"
 414      B40E8293 
 414      ABE4E5E9 
ARM GAS  /tmp/cc12Qys9.s 			page 32


 414      DA4164
 415 017a D151A0B4 		.ascii	"\321Q\240\264\252u\020\\\202\271\\\341\211*S\322\016"
 415      AA75105C 
 415      82B95CE1 
 415      892A53D2 
 415      0E
 416 018b 52F71E08 		.ascii	"R\367\036\010+!=\026B\275\223\352F5\\WAX\255\264U\325"
 416      2B213D16 
 416      42BD93EA 
 416      46355C57 
 416      4158ADB4 
 417 01a1 9B138A1E 		.ascii	"\233\023\212\036\250m'x\007 \357\020\204\303\020\216"
 417      A86D2778 
 417      0720EF10 
 417      84C3108E 
 418 01b1 2A6D2174 		.ascii	"*m!t\324(r&\374pA\336%\310\273\014\341g\010W\034\211"
 418      D4287226 
 418      FC7041DE 
 418      25C8BB0C 
 418      E1670857 
 419 01c7 FC213AD4 		.ascii	"\374!:\324NG\273\021\257\011\215\252\356\252\264\022"
 419      4E47BB11 
 419      AF098DAA 
 419      EEAAB412 
 420 01d7 9A483B48 		.ascii	"\232H;H\273H[\011o\010-\016\005\227\320 +\362\277mP"
 420      BB485B09 
 420      6F082D0E 
 420      0597D020 
 420      2BF2BF6D 
 421 01ec 37D1DDCE 		.ascii	"7\321\335\316&|#\330D.N\206\036\265\177\020zTY\251\365"
 421      267C23D8 
 421      442E4E86 
 421      1EB57F10 
 421      7A5459A9 
 422 0201 AF81DFEF 		.ascii	"\257\201\337\357#rTd\273\326I\373\326\353pmP\370\373"
 422      23725464 
 422      BBD649FB 
 422      D6EB706D 
 422      50F8FB
 423 0214 9633DED7 		.ascii	"\2263\336\327\324\376Gx4\320A\351&\262~\026BW\007\315"
 423      D4FE4778 
 423      34D041E9 
 423      26B27E16 
 423      425707CD 
 424 0228 BFEB88F7 		.ascii	"\277\353\210\3679\265\317\220|/\271Bp\223:\234\211\355"
 424      39B5CF90 
 424      7C2FB942 
 424      70933A9C 
 424      89ED
 425 023a 4A57F4E4 		.ascii	"JW\364\344\212\242\243\242\222\247\377\264S\356\273"
 425      8AA2A3A2 
 425      92A7FFB4 
 425      53EEBB
 426 0249 DF11BF8F 		.ascii	"\337\021\277\217\344\221\257\017\301\265#\204N\272r"
 426      E491AF0F 
 426      C1B52384 
 426      4EBA72
ARM GAS  /tmp/cc12Qys9.s 			page 33


 427 0258 5D94DF49 		.ascii	"]\224\337I;U\036\220r\317*\327.\012\346\303\272r\304"
 427      3B551E90 
 427      72CF2AD7 
 427      2E0AE6C3 
 427      BA72C4
 428 026b 2EB452EA 		.ascii	".\264R\352\"|-t&\352;\362^\244\274'u\250\374\030\250"
 428      227C2D74 
 428      26EA3BF2 
 428      5EA4BC27 
 428      75A8FC18 
 429 0280 F4817F75 		.ascii	"\364\201\177u\306\373\300\277\351\360\211\315i\257\310"
 429      C6FBC0BF 
 429      E9F089CD 
 429      69AFC8
 430 028f 8FEDCB44 		.ascii	"\217\355\313D\026\036A\333\277Xyl\205k7\310[\007\351"
 430      161E41DB 
 430      BF58796C 
 430      856B37C8 
 430      5B07E9
 431 02a2 A9CE382D 		.ascii	"\251\3168-j\375D\026O)z\360(c\267T:2ut\020\273w\237"
 431      6AFD4416 
 431      4F297AF0 
 431      2863B754 
 431      3A327574 
 432 02ba 40EFD7EB 		.ascii	"@\357\327\353\224\240\320DdHh\"\355\\\017\277uex\261"
 432      94A0D044 
 432      64486822 
 432      ED5C0FBF 
 432      756578B1 
 433 02ce 01D24FC1 		.ascii	"\001\322O\301o\323\024^l\204\353CJ\373U~8\225z\036U"
 433      6FD3145E 
 433      6C84EB43 
 433      4AFB557E 
 433      38957A1E 
 434 02e3 ECE7EF94 		.ascii	"\354\347\357\224\274\247 z\002\302_ <\251\327\011a\274"
 434      BCA7207A 
 434      02C25F20 
 434      3CA9D709 
 434      61BC
 435 02f5 2C8F92E7 		.ascii	",\217\222\347\324\310\375\266\266n'L\224\341\343\253"
 435      D4C8FDB6 
 435      B66E274C 
 435      94E1E3AB 
 436 0305 6D9D26BC 		.ascii	"m\235&\274F\262\233\027\310\035:\010\302\337\305\200"
 436      46B29B17 
 436      C81D3A08 
 436      C2DFC580 
 437 0315 08595E4C 		.ascii	"\010Y^Ld\244QA\012\363\341V\270_\012\210\357\213i@\210"
 437      64A45141 
 437      0AF3E156 
 437      B85F0A88 
 437      EF8B6940 
 438 032a 2426AA12 		.ascii	"$&\252\022\371\320\337\377 ,\246\367\037\323\337F@\311"
 438      F9D0DFFF 
 438      202CA6F7 
 438      1FD3DF46 
 438      40C9
ARM GAS  /tmp/cc12Qys9.s 			page 34


 439 033c 1DF1548B 		.ascii	"\035\361T\213\030\253S\226\324J}\012\330<\261\035\246"
 439      18AB5396 
 439      D44A7D0A 
 439      D83CB11D 
 439      A6
 440 034d 904459A1 		.ascii	"\220DY\241\034\357P\212\370\324\022N\245\304B\004\027"
 440      1CEF508A 
 440      F8D4124E 
 440      A5C44204 
 440      17
 441 035e D4EC58A2 		.ascii	"\324\354X\2423C\200Q\271\271bz\0226Qr\225\362\327c\244"
 441      33438051 
 441      B9B9627A 
 441      12365172 
 441      95F2D763 
 442 0373 662A008B 		.ascii	"f*\000\213m\223\272\304\204\324nIH]\024'\225\021]mk"
 442      6D93BAC4 
 442      84D46E49 
 442      485D1427 
 442      95115D6D 
 443 0388 0BD94D6C 		.ascii	"\013\331Ml\3368\347\206$\313\336\200\270\024\345\327"
 443      DE38E786 
 443      24CBDE80 
 443      B814E5D7 
 444 0398 5704A00F 		.ascii	"W\004\240\017\304?\304\304\246\320\302~Wo `1\221)\022"
 444      C43FC4C4 
 444      A6D0C27E 
 444      576F2060 
 444      31912912 
 445 03ac D3F0A8BD 		.ascii	"\323\360\250\2750\011y\2645N\202\374_T\032\210\321T"
 445      300979B4 
 445      354E82FC 
 445      5F541A88 
 445      D154
 446 03be 8968D872 		.ascii	"\211h\330r\276\007\022\361\221\330\036\210\220E-\025"
 446      BE0712F1 
 446      91D81E88 
 446      90452D15 
 447 03ce C9710865 		.ascii	"\311q\010e+\241,-E\3252\272~K\206\354\244\371\202\006"
 447      2BA12C2D 
 447      45D532BA 
 447      7E4B86EC 
 447      A4F98206 
 448 03e2 4FF3E922 		.ascii	"O\363\351\"\314\001\212\243\033\267\254\027\345\232"
 448      CC018AA3 
 448      1BB7AC17 
 448      E59A
 449 03f0 0C950F35 		.ascii	"\014\225\0175H\002)j\304\273\230d\030qh\3416mI_\361"
 449      4802296A 
 449      C4BB9864 
 449      187168E1 
 449      366D495F 
 450 0405 A20A36C1 		.ascii	"\242\0126\3016\230W\003\266\223\005\233l\033\254\255"
 450      36985703 
 450      B693059B 
 450      6C1BACAD 
 451 0415 066C370B 		.ascii	"\006l7\013Vk\033\254\203\006l/\0136\3336\230O\003\266"
ARM GAS  /tmp/cc12Qys9.s 			page 35


 451      566B1BAC 
 451      83066C2F 
 451      0B36DB36 
 451      984F03B6 
 452 0429 8F055B60 		.ascii	"\217\005[`\033\254\253\006\354\273\232\214\235/*\335"
 452      1BACAB06 
 452      ECBB9A8C 
 452      9D2F2ADD 
 453 0439 40AE91BB 		.ascii	"@\256\221\273.j\315\360C).1\335`\305f\007j\340f\254"
 453      2E6ACDF0 
 453      43292E31 
 453      DD60C566 
 453      076AE066 
 454 044e 7DB9A8EF 		.ascii	"}\271\250\357\007\016]?ph\373\201#-\236hiA\233\\\257"
 454      070E5D3F 
 454      7068FB81 
 454      232D9E68 
 454      69419B5C 
 455 0463 6F81A65E 		.ascii	"o\201\246^\243\026tg[\000\235b\337\313\265rt\224C%\352"
 455      A3167467 
 455      5B009D62 
 455      DFCBB572 
 455      74944325 
 456 0478 631E40AF 		.ascii	"c\036@\257\271N\336\252y\343Ay\316\247\242\302\025\332"
 456      B94EDEAA 
 456      79E34179 
 456      CEA7A2C2 
 456      15DA
 457 048a 478DCD89 		.ascii	"G\215\315\211\312\225_\024\343\260\025\011\210&p\305"
 457      CA955F14 
 457      E3B01509 
 457      882670C5 
 458 049a A3E38A47 		.ascii	"\243\343\212G\313\025OZ<A&#m\010_\266\350\233\241\251"
 458      CB154F5A 
 458      3C412623 
 458      6D085FB6 
 458      E89BA1A9 
 459 04ae D9A8191A 		.ascii	"\331\250\031\0325in\2509Z-N\032-o\355\256\322\265\213"
 459      35696EA8 
 459      395A2D4E 
 459      1A2D6FED 
 459      AED2B58B 
 460 04c2 07B1AD39 		.ascii	"\007\261\2559c\336i\314\230\030P\301\016\333\006\323"
 460      63DE69CC 
 460      981850C1 
 460      0EDB06D3 
 461 04d2 6A712D0B 		.ascii	"jq-\013v\222\007\254\2039e\323X\260s\266\301\264\224"
 461      769207AC 
 461      833965D3 
 461      58B073B6 
 461      C1B494
 462 04e5 CD60C12E 		.ascii	"\315`\301.\363\200\371\314)\233\305\202\335\262\015"
 462      F380F9CC 
 462      299BC582 
 462      DDB20D
 463 04f4 A6A56C05 		.ascii	"\246\245l\005\0136Z\342\000\353jN\331J\026\354\015\333"
 463      0B365AE2 
ARM GAS  /tmp/cc12Qys9.s 			page 36


 463      00EB6A4E 
 463      D94A16EC 
 463      0DDB
 464 0506 602C6572 		.ascii	"`,ertuc:\214\012\354`\2774>\330\31310Y\035\204\232l"
 464      7475633A 
 464      8C0AEC60 
 464      BF343ED8 
 464      CB313059 
 465 051e 8FF6474C 		.ascii	"\217\366GLF\373\026u\"'\011o\353\033\241\253XIw7\340"
 465      46FB1675 
 465      2227096F 
 465      EB1BA1AB 
 465      58497737 
 466 0533 89D1871D 		.ascii	"\211\321\207\035*\003b\275\3700\304\253\304.\020\177"
 466      2A0362BD 
 466      F830C4AB 
 466      C42E107F 
 467 0543 8CF15A8C 		.ascii	"\214\361Z\214\327a\274\001\343M\030G1\376\002\343F\214"
 467      D761BC01 
 467      E34D1847 
 467      31FE02E3 
 467      468C
 468 0555 BFC27807 		.ascii	"\277\302x\007\306;1\336\215\361^\214\367a\374\035\306"
 468      C63B31DE 
 468      8DF15E8C 
 468      F761FC1D 
 468      C6
 469 0566 07313E0C 		.ascii	"\0071>\014q\354c\306\220\345&\036W\314\247\211&\361"
 469      71EC63C6 
 469      90E5261E 
 469      57CCA789 
 469      26F1
 470 0578 69A2536B 		.ascii	"i\242Sk\332\310N\016\027( \036\303\306\277\257sj\022"
 470      DAC84E0E 
 470      1728201E 
 470      C3C6BFAF 
 470      736A12
 471 058b 1D511829 		.ascii	"\035Q\030)%\275\355{_\357\032%\2071kr\263='\363t\314"
 471      25BDED7B 
 471      5FEF1A25 
 471      87316B72 
 471      B33D27F3 
 472 05a1 C97C5401 		.ascii	"\311|T\0018e[\355~0Q\273G\222H\347\244=R\327\212*\300"
 472      38655BED 
 472      7E3051BB 
 472      479248E7 
 472      A43D52D7 
 473 05b8 6F148033 		.ascii	"o\024\2003\266I=kB\352\003IH=m\217\324E1\256>\254\000"
 473      B6493D6B 
 473      42EA0349 
 473      483D6D8F 
 473      D44531AE 
 474 05cf FC689BD4 		.ascii	"\374h\233\324\363&\244\376>\011\251\347LH5\362|c\034"
 474      F326A4FE 
 474      3E09A9E7 
 474      4C4835F2 
 474      7C631C
ARM GAS  /tmp/cc12Qys9.s 			page 37


 475 05e2 6D1BD3F8 		.ascii	"m\033\323\370\346;\273gv\303\201\372\002:\320\313t\312"
 475      E63BBB67 
 475      76C381FA 
 475      023AD0CB 
 475      74CA
 476 05f4 9A144612 		.ascii	"\232\024F\022Vc\221Kz\037\372\333\027}47\271\007}`\316"
 476      5663914B 
 476      7A1FFADB 
 476      177D3437 
 476      B9077D60 
 477 0609 97A23C39 		.ascii	"\227\242<9#\031\375s\034j\305\217\307\351\2776\345\363"
 477      2319FD73 
 477      1C6AC58F 
 477      C7E9BF36 
 477      E5F3
 478 061b 9E48FF35 		.ascii	"\236H\3775\244\377Rr\372\2650\204\272\233\011\2647\242"
 478      A4FF5272 
 478      FAB53084 
 478      BA9B09B4 
 478      37A2
 479 062d FF7F938B 		.ascii	"\377\177\223\213\372\246\261\263\32192\"\037n\020Y\326"
 479      FAA6B1B3 
 479      D1393222 
 479      1F6E1059 
 479      D6
 480 063e 69A6A392 		.ascii	"i\246\243\222p\033\2505\342\260\346\266\200\330\"J\020"
 480      701BA835 
 480      E2B0E6B6 
 480      80D8224A 
 480      10
 481 064f CB928ECA 		.ascii	"\313\222\216\312\372\261H%\311ON\345\352\306D\036? "
 481      FAB14825 
 481      C94F4EE5 
 481      EAC6441E 
 481      3F20
 482 0661 4C55B453 		.ascii	"LU\264S\026#^a,Z\275W\345j\361\345\344\223\366W%/4`"
 482      16235E61 
 482      2C5ABD57 
 482      E56AF1E5 
 482      E493F657 
 483 0679 9CC374D6 		.ascii	"\234\303t\326NnP\025\227\246\325\224\2059\033#\321\256"
 483      4E6E5015 
 483      97A6D594 
 483      85391B23 
 483      D1AE
 484 068b E940C714 		.ascii	"\351@\307\0242\236N\207\350\271\370\312\244Y\301\321"
 484      329E4E87 
 484      E8B9F8CA 
 484      A459C1D1 
 485 069b 52AC1B48 		.ascii	"R\254\033H\302[\016Q\341\227\305\320\255\301\323\360"
 485      C25B0E51 
 485      E197C5D0 
 485      ADC1D3F0 
 486 06ab 4A5E29CB 		.ascii	"J^)\313in\212)\011\323m\203\371\314\301\026\361\200"
 486      696E8A29 
 486      09D36D83 
 486      F9CCC116 
ARM GAS  /tmp/cc12Qys9.s 			page 38


 486      F180
 487 06bd 993BE25A 		.ascii	"\231;\342Z\260\025\266\301\014(3W\010*,3\206O6\220\224"
 487      B015B6C1 
 487      0C283357 
 487      082A2C33 
 487      864F3690 
 488 06d2 92E69F25 		.ascii	"\222\346\237%\\\233\376\305f\021fY\360\303T\2118]\315"
 488      5C9BFEC5 
 488      66116659 
 488      F0C35489 
 488      385DCD
 489 06e5 0E6DF7E5 		.ascii	"\016m\367\345\207\252\237\275\341I\264\003\265\0104"
 489      87AA9FBD 
 489      E149B403 
 489      B50834
 490 06f4 CBF9EB27 		.ascii	"\313\371\353'\034\366oW\030`\354|$]P\2716}\331\277a"
 490      1CF66F57 
 490      1860EC7C 
 490      245D50B9 
 490      367DD9BF 
 491 0709 13666213 		.ascii	"\023fb\023\026;\015y\301\001T?{\326\023\0104\007\201"
 491      163B0D79 
 491      C101543F 
 491      7BD61308 
 491      340781
 492 071c EA127861 		.ascii	"\352\022xasi\306\316\275f\3722#\336AY\255!b\307\004"
 492      7369C6CE 
 492      BD66FA32 
 492      23DE4159 
 492      AD2162C7 
 493 0731 471F9FC4 		.ascii	"G\037\237\304\366\361\365N\016\3457\237\271\301\270"
 493      F6F1F54E 
 493      0EE5379F 
 493      B9C1B8
 494 0740 71BEC77B 		.ascii	"q\276\307{rt\214#\325\016\260\320\274\003\304\232e\251"
 494      72748C23 
 494      D50EB0D0 
 494      BC03C49A 
 494      65A9
 495 0752 0FE6CE68 		.ascii	"\017\346\316h@\234%=\234:\253\227\376zV\177\300\262"
 495      409C253D 
 495      9C3AAB97 
 495      FE7A567F 
 495      C0B2
 496 0764 3A6A9BD5 		.ascii	":j\233\325>\226\325Z\243\265\205\007\314|^\373\353\214"
 496      3E96D55A 
 496      A3B58507 
 496      CC7C5EFB 
 496      EB8C
 497 0776 56BDB9CC 		.ascii	"V\275\271\314\014G\357g\030\243\363\014kQ\225\216\366"
 497      0C47EF67 
 497      18A3F30C 
 497      6B51958E 
 497      F6
 498 0787 F1A98B1E 		.ascii	"\361\251\213\036\354hk$\342|\324\270\014\235\017s\030"
 498      EC686B24 
 498      E27CD4B8 
ARM GAS  /tmp/cc12Qys9.s 			page 39


 498      0C9D0F73 
 498      18
 499 0798 42C23AFD 		.ascii	"B\302:\375\260~-\350\243\271\311\007\365\033\013pPW"
 499      B07E2DE8 
 499      A3B9C907 
 499      F51B0B70 
 499      5057
 500 07aa ADE73B58 		.ascii	"\255\347;X\377\272T\307\275\350\315 Y\031\241X\263m"
 500      FFBA54C7 
 500      BDE8CD20 
 500      5919A158 
 500      B36D
 501 07bc 63F98C08 		.ascii	"c\371\214\010\025\022Z\031\020\327\243ro\220p~(q\314"
 501      15125A19 
 501      10D7A372 
 501      6F90707E 
 501      2871CC
 502 07cf EB       		.ascii	"\353"
 503 07d0 3ED62834 		.ascii	">\326(4\227\002\257d\025x\241\313\256\316\351\333\242"
 503      9702AF64 
 503      1578A1CB 
 503      AECEE9DB 
 503      A2
 504 07e1 0A22208E 		.ascii	"\012\" \216B\262\307c\374\006\306\0230\236\210\361\002"
 504      42B2C763 
 504      FC06C613 
 504      309E88F1 
 504      02
 505 07f2 8C3FC2B8 		.ascii	"\214?\302\270\216\247iwD\206\316\025H\347M\353%\007"
 505      8EA76977 
 505      4486CE15 
 505      48E74DEB 
 505      2507
 506 0804 73F9355F 		.ascii	"s\3715_\333s\255\307\273r\264\332\341\021j\250/7*\331"
 506      DB73ADC7 
 506      BB72B4DA 
 506      E1116AA8 
 506      2F372AD9 
 507 0818 50011AEC 		.ascii	"P\001\032\354F\015\376L\362\000\005\253t\032\314\001"
 507      460DFE4C 
 507      F20005AB 
 507      741ACC01 
 508 0828 445AB105 		.ascii	"DZ\261\005\012kt\270\341\025\037\315\265\320a\354x\222"
 508      0A6B74B8 
 508      E1151FCD 
 508      B5D061EC 
 508      7892
 509 083a F0898BCE 		.ascii	"\360\211\213\316'\234i\361\274m\361<\221\271uO<[b\262"
 509      279C69F1 
 509      BC6DF13C 
 509      91B9754F 
 509      3C5B62B2 
 510 084e 8FC4B31D 		.ascii	"\217\304\263\035L\366\371x\266\223\311n\211g\273\230"
 510      4CF6F978 
 510      B693C96E 
 510      8967BB98 
 511 085e EC71EE58 		.ascii	"\354q\356X\266\233\311\236\032\317\3660\331s\343\331"
ARM GAS  /tmp/cc12Qys9.s 			page 40


 511      B69BC99E 
 511      1ACFF630 
 511      D973E3D9 
 512 086e 5E462296 		.ascii	"^F\"\226\003g\234I\001\261\021\273\300V\311aX\014\246"
 512      03679C49 
 512      01B111BB 
 512      C056C961 
 512      580CA6
 513 0881 616E9D26 		.ascii	"an\235&\330Z\020\227Q\023\252\311\350\246\316X\311\354"
 513      D85A1097 
 513      5113AAC9 
 513      E8A6CE58 
 513      C9EC
 514 0893 93746CC3 		.ascii	"\223tl\3039\034\241\356\260dw\306\332$\031\317X\343"
 514      391CA1EE 
 514      B06477C6 
 514      DA2419CF 
 514      58E3
 515 08a5 AB4FF5FA 		.ascii	"\253O\365\372Vh\253M\346\356\342\002<\0319\010m\222"
 515      5668AB4D 
 515      E6EEE202 
 515      3C193908 
 515      6D92
 516 08b7 B0860B2D 		.ascii	"\260\206\013-\331\320\241\332\267\365z4\243\276f\261"
 516      D9D0A1DA 
 516      B7F57A34 
 516      A3BE66B1 
 517 08c7 56786DEC 		.ascii	"Vxm\354L\336Y\337\213*\\F\254\337Eol\021}\0063?\315"
 517      4CDE59DF 
 517      8B2A5C46 
 517      ACDF456F 
 517      6C117D06 
 518 08de AD01F114 		.ascii	"\255\001\361\024\250I\262\273p\275B?\206|B7\260Ns\215"
 518      A849B2BB 
 518      70BD423F 
 518      867C4237 
 518      B04E738D 
 519 08f2 22FB6BCC 		.ascii	"\"\373k\314\233\242\231\226\306&\316\335c\015i\256\275"
 519      9BA29996 
 519      C626CEDD 
 519      630D69AE 
 519      BD
 520 0903 7AF13FD0 		.ascii	"z\361?\320\200\374\210C\3408O\362\365\003\015L@\374"
 520      80FC8843 
 520      E0384FF2 
 520      F5030D4C 
 520      40FC
 521 0915 4922B3DB 		.ascii	"I\"\263\333\013\372&\\\231\216M\270\300\325\204;\207"
 521      0BFA265C 
 521      998E4DB8 
 521      C0D5843B 
 521      87
 522 0926 66FD466E 		.ascii	"f\375Fn\216\212\374\206o\377\315h\307\3218\363\270\204"
 522      8E8AFC86 
 522      6FFFCD68 
 522      C7D138F3 
 522      B884
ARM GAS  /tmp/cc12Qys9.s 			page 41


 523 0938 966F8B27 		.ascii	"\226o\213'%\313wEo\371V\223\025D\232\237\334\366\355"
 523      25CB7745 
 523      6FF95693 
 523      15449A9F 
 523      DCF6ED
 524 094b F224DABE 		.ascii	"\362$\332\276\303\036C\333w\322ch\373.x\014m\337M\217"
 524      C31E43DB 
 524      77D26368 
 524      FB2E780C 
 524      6DDF4D8F 
 525 095f D6F6091C 		.ascii	"\326\366\011\034\366\351\012c\237\256\242}\272fb\237"
 525      F6E90A63 
 525      9FAEA27D 
 525      BA66629F 
 526 096f 02E2C198 		.ascii	"\002\342\301\230\314x\355\223F^\315\357]\3359r\023\364"
 526      CC78ED93 
 526      465ECDEF 
 526      5DDD3972 
 526      13F4
 527 0981 C771EE14 		.ascii	"\307q\356\024\373\317\241C<\375g\214\203\257\377\324"
 527      FBCFA143 
 527      3CFD678C 
 527      83AFFFD4 
 528 0991 3874CAF7 		.ascii	"8t\312\367\356!T>\222\237\\\371f\037\232\225\330\177"
 528      EE21543E 
 528      929F5CF9 
 528      661F9A95 
 528      D87F
 529 09a3 745EE95F 		.ascii	"t^\351_\3577\265\243\343\035:\247\364\234\304\261\350"
 529      EF37B5A3 
 529      E31D3AA7 
 529      F49CC4B1 
 529      E8
 530 09b4 A1F0E1CE 		.ascii	"\241\360\341\316\264\373\010\241\343\034\304\267\036"
 530      B4FB08A1 
 530      E31CC4B7 
 530      1E
 531 09c1 EBD5EAB0 		.ascii	"\353\325\352\260\206 Z\221\031\021\023\034\351&\355"
 531      86205A91 
 531      1911131C 
 531      E926ED
 532 09d0 4CF80D06 		.ascii	"L\370\015\006E\254\2070'5?\263\301\210a\006rj\216\255"
 532      45AC8730 
 532      27353FB3 
 532      C1886106 
 532      726A8EAD 
 533 09e4 833D126B 		.ascii	"\203=\022kq\363\215y\337g\322\216;\331A,\3161oR\213"
 533      71F38D79 
 533      DF67D28E 
 533      3BD9412C 
 533      CE316F52 
 534 09f9 A3C5C1B9 		.ascii	"\243\305\301\271\220^\340\365\333Q\340S\223\013|\314"
 534      905EE0F5 
 534      DB51E053 
 534      930B7CCC 
 535 0a09 E8E89AED 		.ascii	"\350\350\232\3553\342\333\241\243-W'\002\342;\330\225"
 535      33E2DBA1 
ARM GAS  /tmp/cc12Qys9.s 			page 42


 535      A32D5727 
 535      02E23BD8 
 535      95
 536 0a1a 78B6372F 		.ascii	"x\2667/`K\246\246\306V k\355v\334\276\252u\020\023q"
 536      604BA6A6 
 536      C656206B 
 536      ED76DCBE 
 536      AA751013 
 537 0a2f C536984F 		.ascii	"\3056\230O\003\266\216\005\273\315\003f6\216\003\330"
 537      03B68E05 
 537      BBCD0366 
 537      368E03D8 
 538 0a3f 06166C4C 		.ascii	"\006\026lL\232]0-e\233X\260\361<`f\313\000\000\266\223"
 538      9A5D302D 
 538      659B58B0 
 538      F13C6066 
 538      CB0000B6 
 539 0a54 059B601B 		.ascii	"\005\233`\033\214\245\254:zt\37362\035\273W\230,\313"
 539      8CA5AC3A 
 539      7A74FB36 
 539      321DBB57 
 539      982CCB
 540 0a67 D5F21CB7 		.ascii	"\325\362\034\267\231R\220\263\264\223\321:X\334\002"
 540      995290B3 
 540      B493D13A 
 540      58DC02
 541 0a76 EAE2B857 		.ascii	"\352\342\270W\253\244{^oM\224\224\344'\267J\337*J\252"
 541      ABA47B5E 
 541      6F4D9494 
 541      E427B74A 
 541      DF2A4AAA 
 542 0a8a 3A3C93B1 		.ascii	":<\223\261q\244l*\235V\2166mO\227\307g\304\246\264\213"
 542      71A46C2A 
 542      9D568E36 
 542      6D4F97C7 
 542      67C4A6B4 
 543 0a9f 2C085FAA 		.ascii	",\010_\252\357]\373\267K>\232\315\261\031\260}F\007"
 543      EF5DFBB7 
 543      4B3E9ACD 
 543      B119B07D 
 543      4607
 544 0ab1 79CE6691 		.ascii	"y\316f\221\377\004\306\265\351k\036A\027d9J\361\355"
 544      FF04C6B5 
 544      E96B1E41 
 544      1764394A 
 544      F1ED
 545 0ac3 34C37533 		.ascii	"4\303u3\016\240\372\331\013\351\032b\035\002\315\324"
 545      0EA0FAD9 
 545      0BE91A62 
 545      1D02CDD4 
 546 0ad3 01D93FCA 		.ascii	"\001\331?\312a\353fIX\204\025.\215\353_\322s\037\032"
 546      61EB6649 
 546      5884152E 
 546      8DEB5FD2 
 546      731F1A
 547 0ae6 D6355F9F 		.ascii	"\3265_\237w\246\233r\356\203\262\342C\333\200muB\221"
 547      77A69B72 
ARM GAS  /tmp/cc12Qys9.s 			page 43


 547      EE83B2E2 
 547      43DB806D 
 547      754291
 548 0af9 8495A9EA 		.ascii	"\204\225\251\352\015\323tu\362\274\310A&\306K\034]\330"
 548      0DD37475 
 548      F2BCC841 
 548      26C64B1C 
 548      5DD8
 549 0b0b 0A56F1F4 		.ascii	"\012V\361\364:3\267\036\272\360E\266\0137\330\006\363"
 549      3A33B71E 
 549      BAF045B6 
 549      0B37D806 
 549      F3
 550 0b1c 69C02EB1 		.ascii	"i\300.\261`\233x\300|\346\224\375\302\202}f\033LK\331"
 550      609B78C0 
 550      7CE694FD 
 550      C2827D66 
 550      1B4C4BD9 
 551 0b30 55166C2B 		.ascii	"U\026l+\017\230\321\354\305\350\303\016\2070^9\310x"
 551      0F98D1EC 
 551      C5E8C30E 
 551      87305E39 
 551      C878
 552 0b42 F52E4A6A 		.ascii	"\365.Jj\032\30630\236\205\361\034\214\347a<\037\343"
 552      1AC63330 
 552      9E85F11C 
 552      8CE7613C 
 552      1FE3
 553 0b54 068CD763 		.ascii	"\006\214\327c\274\021\343OX\371Z\370.\327&w\"\346l\022"
 553      BC11E34F 
 553      58F95AF8 
 553      2ED72677 
 553      22E66C12 
 554 0b68 FA2E5FA5 		.ascii	"\372._\245Y\372.\223M\232J\250\377\314\302w\371L\357"
 554      59FA2E93 
 554      4D9A4AA8 
 554      FFCCC277 
 554      F94CEF
 555 0b7b BBEC4FB3 		.ascii	"\273\354O\263\353\2730b@\3175Z\261q\205,\277\352V;\331"
 555      EBBB3062 
 555      40CF355A 
 555      B171852C 
 555      BFEA563B 
 556 0b90 113DA2CD 		.ascii	"\021=\242\315\303U\337M\317\330\371\242\012v\3026\230"
 556      C355DF4D 
 556      CFD8F9A2 
 556      0A76C236 
 556      98
 557 0ba1 BEC7AA72 		.ascii	"\276\307\252r\034\213r|\015%2\021\343/0n\324\366\276"
 557      1C8B727C 
 557      0D253211 
 557      E32F306E 
 557      D4F6BE
 558 0bb4 D309468E 		.ascii	"\323\011F\216:\275\014^\334;\026\222#\232\011i\224\203"
 558      3ABD0C5E 
 558      DC3B1692 
 558      239A0969 
ARM GAS  /tmp/cc12Qys9.s 			page 44


 558      9483
 559 0bc6 59E8BA84 		.ascii	"Y\350\272\204\225^HuO-:\353\010\364\205\244\333\305"
 559      955E4875 
 559      4F2D3AEB 
 559      08F485A4 
 559      DBC5
 560 0bd8 4E15293B 		.ascii	"N\025);\246s\315\227?\332\334a\235,\267\015\210_\243"
 560      A673CD97 
 560      3FDADC61 
 560      9D2CB70D 
 560      885FA3
 561 0beb F7B8B255 		.ascii	"\367\270\262U\362\375b\015\216$\254\307\";uc\\\363\364"
 561      F2FD620D 
 561      8E24ACC7 
 561      223B7563 
 561      5CF3F4
 562 0bfe 8FBFFF6D 		.ascii	"\217\277\377m-\"\357\344\032\347n\031\315\272)Yf<\334"
 562      2D22EFE4 
 562      1AE76E19 
 562      CDBA2959 
 562      663CDC
 563 0c11 AB57E69B 		.ascii	"\253W\346\2331RRs\304\357nA\233\262\027{`u\272]0\255"
 563      31525273 
 563      C4EF6E41 
 563      9BB2177B 
 563      6075BA5D 
 564 0c27 50A634CE 		.ascii	"P\2464\316\260yH\260n\335\231\0077\"\313\016\240\362"
 564      B07948B0 
 564      6EDD9907 
 564      3722CB0E 
 564      A0F2
 565 0c39 EF4AD7EB 		.ascii	"\357J\327\353\242\262g\021\327E\036?\372\000OC\314W"
 565      A2B26711 
 565      D7451E3F 
 565      FA004F43 
 565      CC57
 566 0c4b 9D4092BB 		.ascii	"\235@\222\273:5\340\344T\365vL\3354Ih\306\312\216\350"
 566      3A35E0E4 
 566      54F5764C 
 566      DD344968 
 566      C6CA8EE8 
 567 0c5f B5A1EE93 		.ascii	"\265\241\356\223]\217Rm8\302\245\015k\266\277\3135%"
 567      5D8F526D 
 567      38C2A50D 
 567      6BB6BFCB 
 567      3525
 568 0c71 9AE356AB 		.ascii	"\232\343V\253/\306\352\347e\220\352\217\353\253\337"
 568      2FC6EAE7 
 568      6590EA8F 
 568      EBABDF
 569 0c80 78FCCC5F 		.ascii	"x\374\314_i\365\307\271\252?\372\315\333F\312h2kU\305"
 569      69F5C7B9 
 569      AA3FFACD 
 569      DB46CA68 
 569      326B55C5 
 570 0c94 F7C9CF5D 		.ascii	"\367\311\317]gc%?\240\002\375\230\241\027\337\323\354"
 570      6763253F 
ARM GAS  /tmp/cc12Qys9.s 			page 45


 570      A002FD98 
 570      A117DFD3 
 570      EC
 571 0ca5 BABDA0EC 		.ascii	"\272\275\240\354\3463\372{%F}J\372\013\315\334\374\364"
 571      E633FA7B 
 571      25467D4A 
 571      FA0BCDDC 
 571      FCF4
 572 0cb7 6294944A 		.ascii	"b\224\224J\303\015\333\210Z%\276\364\015\366\010\012"
 572      C30DDB88 
 572      5A25BEF4 
 572      0DF6080A 
 573 0cc7 768707CC 		.ascii	"v\207\007\314\302\262\377\302\202U\337c\027LK\331U\026"
 573      C2B2FFC2 
 573      8255DF63 
 573      174C4BD9 
 573      5516
 574 0cd9 EC551E30 		.ascii	"\354U\0360\213s\253\327Y\260q\266\301\264\224\335d\301"
 574      8B73ABD7 
 574      59B071B6 
 574      C1B494DD 
 574      64C1
 575 0ceb DEE401B3 		.ascii	"\336\344\001\2638\267z\233\005\233d\033LK\331]\026l"
 575      38B77A9B 
 575      059B641B 
 575      4C4BD95D 
 575      166C
 576 0cfd 2A0F98CF 		.ascii	"*\017\230\317\234\262\211\273\031\260\367l\203i)\233"
 576      9CB289BB 
 576      19B0F76C 
 576      8369299B 
 577 0d0d CC82CDE4 		.ascii	"\314\202\315\344\001\263X\213~\233\005\233k\033LK\331"
 577      01B3588B 
 577      7E9B059B 
 577      6B1B4C4B 
 577      D9
 578 0d1e 3B2CD802 		.ascii	";,\330\002\0360\243\323\243\352\221f\026l\261m0-e\323"
 578      1E30A3D3 
 578      A3EA9166 
 578      166CB16D 
 578      302D65D3 
 579 0d32 58B0653C 		.ascii	"X\260e<`O\230S6\203\005\253\263\015\246\245l\005\013"
 579      604F9853 
 579      368305AB 
 579      B30DA6A5 
 579      6C050B
 580 0d45 B69A07EC 		.ascii	"\266\232\007\354\031s\312V\262`km\203i)[\305\202\255"
 580      1973CA56 
 580      B2606B6D 
 580      8369295B 
 580      C582AD
 581 0d58 E701EB67 		.ascii	"\347\001\353gN\331\307,\330&\333`Z\312\326\262`\233"
 581      4ED9C72C 
 581      D826DB60 
 581      5ACAD6B2 
 581      609B
 582 0d6a 79C0F2CC 		.ascii	"y\300\362\314)[\307\202}n\033LK\331\006\026\254\221"
ARM GAS  /tmp/cc12Qys9.s 			page 46


 582      295BC782 
 582      7D6E1B4C 
 582      4BD90616 
 582      AC91
 583 0d7c 07ECEFE6 		.ascii	"\007\354\357\346\224mb\301\266\333\006\323R\266\223"
 583      946D62C1 
 583      B6DB06D3 
 583      52B693
 584 0d8b 05FB8607 		.ascii	"\005\373\206\007\354E\003\312b\0373?\363\030\353\253"
 584      EC4503CA 
 584      621F333F 
 584      F318EBAB 
 585 0d9b EFBE4775 		.ascii	"\357\276Gupl\216\321B\034c\337=v=2M\273\211o\335i\235"
 585      706C8ED1 
 585      421C63DF 
 585      3D763D32 
 585      4DBB896F 
 586 0db2 32CE5367 		.ascii	"2\316Sg\3650\017\242\305\000\250<\036A\301N\330\006"
 586      F5300FA2 
 586      C500A83C 
 586      1E41C14E 
 586      D806
 587 0dc4 D3A972A3 		.ascii	"\323\251r\243~:\302u\310g>\347\021r31\315s2b\372\221"
 587      7E3AC275 
 587      C8673EE7 
 587      11723331 
 587      CD733262 
 588 0dda A70D16E3 		.ascii	"\247\015\026\343\356\321\306\031\270\203\306\177\312"
 588      EED1C619 
 588      B883C67F 
 588      CA
 589 0de7 AC6EDD2E 		.ascii	"\254n\335.\305{\377\0007\245.\337\243w\377f\352\275"
 589      C57BFF00 
 589      37A52EDF 
 589      A377FF66 
 589      EABD
 590 0df9 F724079A 		.ascii	"\367$\007\232$\341\266\276\025F\373J\346\003>(\312\201"
 590      24E1B6BE 
 590      1546FB4A 
 590      E6033E28 
 590      CA81
 591 0e0b CE0DCB65 		.ascii	"\316\015\313ey\264\333N;\276T\332\261\024\3331\246\365"
 591      79B4DB4E 
 591      3BBE54DA 
 591      B114DB31 
 591      A6F5
 592 0e1d AF6FC71B 		.ascii	"\257o\307\033\255\355\266\243\253\256\035\233\273\332"
 592      ADEDB6A3 
 592      ABAE1D9B 
 592      BBDA
 593 0e2b 6FC701A5 		.ascii	"o\307\001\245\035+\260\035o\377\023\3321\303v;\330'"
 593      1D2BB01D 
 593      6FFF13DA 
 593      31C3763B 
 593      D827
 594 0e3d D1702AD5 		.ascii	"\321p*\325\215N\245\270V\274W;u+\336\007\266\211>\232"
 594      8D4EA5B8 
ARM GAS  /tmp/cc12Qys9.s 			page 47


 594      56BC573B 
 594      752BDE07 
 594      B6893E9A 
 595 0e51 9D6C0E23 		.ascii	"\235l\016#G\257mc\346\2372\337\374\363g\205ck\221c\357"
 595      47AF6D63 
 595      E69F32DF 
 595      FCF36785 
 595      636B9163 
 596 0e66 EB38C68F 		.ascii	"\3538\306\217t\355\320\347u\312A\326\365\010\2658e\250"
 596      74EDD0E7 
 596      75CA41D6 
 596      F508B538 
 596      65A8
 597 0e78 FAA36BE8 		.ascii	"\372\243k\350\341\315M\010T\227 E\267N\210n\255\020"
 597      E1CD4D08 
 597      54972045 
 597      B74E886E 
 597      AD10
 598 0e8a E12BA9E9 		.ascii	"\341+\251\351:\231\016\213\377Pr\310\027\217\360\377"
 598      3A990E8B 
 598      FF5072C8 
 598      178FF0FF 
 599 0e9a BD1CB81C 		.ascii	"\275\034\270\034H>\021\240\315\321#\256@\2174(\226\237"
 599      483E11A0 
 599      CDD123AE 
 599      408F3428 
 599      969F
 600 0eac 0AE9D35F 		.ascii	"\012\351\323_\2058*Z\377\372Le_\344i\034\222\177%\334"
 600      85382A5A 
 600      FFFA4C65 
 600      5FE4691C 
 600      927F25DC 
 601 0ec0 AEEDF657 		.ascii	"\256\355\366W=6w\244Z\327\210\015\332\235 \341\224V"
 601      3D3677A4 
 601      5AD7880D 
 601      DA9D20E1 
 601      9456
 602 0ed2 3D8EA4DA 		.ascii	"=\216\244\332\220\330G\022N\352\273\273\255)\022\221"
 602      90D84712 
 602      4EEABBBB 
 602      AD291291 
 603 0ee2 D68D6E9C 		.ascii	"\326\215n\234+'\261\365\2703\035\266\322\3658'Y\217"
 603      2B27B1F5 
 603      B8331DB6 
 603      D2F53827 
 603      598F
 604 0ef4 3BA36306 		.ascii	";\243c\006\307\012\314uJ\2643a=n\327\203\312z\234\223"
 604      C70ACC75 
 604      4AB43361 
 604      3D6ED783 
 604      CA7A9C93 
 605 0f08 6B05A646 		.ascii	"k\005\246F\325\013\272\314\366\255CR`S\345\247F\204"
 605      D50BBACC 
 605      F6AD4352 
 605      6053E5A7 
 605      4684
 606 0f1a 71FA02E2 		.ascii	"q\372\002\342n'\031\370\36785\013\261\257\265\261\313"
ARM GAS  /tmp/cc12Qys9.s 			page 48


 606      6E2719F8 
 606      F738350B 
 606      B1AFB5B1 
 606      CB
 607 0f2b 7B1FCBFB 		.ascii	"{\037\313\373\350\255\3553DB\277\301\242\3213\254\213"
 607      E8ADED33 
 607      4442BFC1 
 607      A2D133AC 
 607      8B
 608 0f3c 1563FCF7 		.ascii	"\025c\374\367\017~\211\354\331\207\214\237\334\306\346"
 608      0F7E89EC 
 608      D9878C9F 
 608      DCC6E6
 609 0f4b D9554998 		.ascii	"\331UI\230\207E\016$2\376\313\216\224\361\007\270\030"
 609      87450E24 
 609      32FECB8E 
 609      94F107B8 
 609      18
 610 0f5c FFAD21E3 		.ascii	"\377\255!\343\017\330g|\027\365a\360\230k\027\020\367"
 610      0FD8677C 
 610      17F561F0 
 610      986B1710 
 610      F7
 611 0f6d DB06F359 		.ascii	"\333\006\363YI\361\000#\305C(\305\303N\262\004\336\244"
 611      49F10023 
 611      C54328C5 
 611      C34EB204 
 611      DEA4
 612 0f7f 9565BD5E 		.ascii	"\225e\275^\226\032\316)I\323\011\275\034\235\262C\335"
 612      961ACE29 
 612      49D309BD 
 612      1C9DB243 
 612      DD
 613 0f90 BBA5366F 		.ascii	"\273\2456o\023\217nXL\303g\355@\226P{"
 613      138F6E58 
 613      4CC367ED 
 613      4096507B 
 614 0fa0 F3B96D30 		.ascii	"\363\271m0\237\006l\343\004\316\343b\272\347\304\276"
 614      9F066CE3 
 614      04CEE362 
 614      BAE7C4BE 
 615 0fb0 C17A4FEA 		.ascii	"\301zO\352\325\345\320\335]c\305j\034:Or\350\013\214"
 615      D5E5D0DD 
 615      5D63C56A 
 615      1C3A4F72 
 615      E80B8C
 616 0fc3 F327D3F0 		.ascii	"\363'\323\360\3143\325\333qmUT\013V[h\313\2553\312\021"
 616      CC33D5DB 
 616      716D5554 
 616      0B565B68 
 616      CBAD33CA 
 617 0fd8 6A3A1598 		.ascii	"j:\025\230\244\207K:S\321\302\335\015n\355\236\312s"
 617      A4874B3A 
 617      53D1C2DD 
 617      0D6EED9E 
 617      CA73
 618 0fea 78D1430D 		.ascii	"x\321C\015\304\323\371\011\333\364^[\375\210@9\303("
ARM GAS  /tmp/cc12Qys9.s 			page 49


 618      C4D3F909 
 618      DBF45E5B 
 618      FD884039 
 618      C328
 619 0ffc E2494611 		.ascii	"\342IF\021"
 620 1000 7F40453C 		.ascii	"\177@E<\215\212x\026\343\037Yu4s\266\316\263\323\207"
 620      8D8A7816 
 620      E31F5975 
 620      3473B6CE 
 620      B3D387
 621 1013 B9B6DBED 		.ascii	"\271\266\333\355\323I\307\254\232\023l5\213\332r\350"
 621      D349C7AC 
 621      9A136C35 
 621      8BDA72E8 
 622 1023 9EF9AA0D 		.ascii	"\236\371\252\0151\352\177Q\335\001\272g\260\3226\242"
 622      31EA7F51 
 622      DD01BA67 
 622      B0D236A2 
 623 1033 569B7F9E 		.ascii	"V\233\177\236\240q\0076\362\300=c@\240\321\207\335%"
 623      A0710736 
 623      F2C03D63 
 623      40A0D187 
 623      DD25
 624 1045 02AB8F1B 		.ascii	"\002\253\217\033r{p\313l\037\306\337a\334\204\361L\024"
 624      727B70CB 
 624      6C1FC6DF 
 624      61DC84F1 
 624      4C14
 625 1057 DC6C8CE7 		.ascii	"\334l\214\347b\274\000\343%\030\177\204\361*\214\277"
 625      62BC00E3 
 625      25187F84 
 625      F12A8CBF 
 626 1067 C2F85B8C 		.ascii	"\302\370[\214\217b\374=\306\3071\276\214\361\225d\012"
 626      8F62FC3D 
 626      C6C731BE 
 626      8CF19564 
 626      0A
 627 1078 A08C02D3 		.ascii	"\240\214\002\323?8\330\351C\264\325_\321\025\357\004"
 627      3F38D8E9 
 627      43B4D55F 
 627      D115EF04 
 628 1088 CDDBEBD0 		.ascii	"\315\333\353\320\255\341'lBMl\307\261\231g\261\335\362"
 628      ADE1276C 
 628      424D6CC7 
 628      B19967B1 
 628      DDF2
 629 109a DED5D3AF 		.ascii	"\336\325\323\257l\034Ee\372\023\252\365)\247\356ta\362"
 629      6C1C4565 
 629      FA13AAF5 
 629      29A7EE74 
 629      61F2
 630 10ac 73C35AA1 		.ascii	"s\303Z\2416\3152\177$S\263\233\022;\030\366\3738O\216"
 630      36CD327F 
 630      2453B39B 
 630      123B18F6 
 630      FB384F8E 
 631 10c0 2E39F87F 		.ascii	".9\370\177\351\001\263;\330\033\367\264K\276E\250\301"
ARM GAS  /tmp/cc12Qys9.s 			page 50


 631      E901B33B 
 631      D81BF7B4 
 631      4BBE45A8 
 631      C1
 632 10d1 215C925D 		.ascii	"!\\\222]\272#0?\037\241\017k\272x\016\230]9\362\266"
 632      BA23303F 
 632      1FA10F6B 
 632      BA780E98 
 632      5D39F2B6 
 633 10e5 A29474BB 		.ascii	"\242\224t\273\377(\222@\312\2460$\222\263\003G\230\263"
 633      FF289240 
 633      CAA63024 
 633      92B30347 
 633      98B3
 634 10f7 03C76D83 		.ascii	"\003\307m\203\3714`\327Y\260\037x\300,N\206\335d\301"
 634      F93460D7 
 634      59B01F78 
 634      C02C4E86 
 634      DD64C1
 635 110a CEDA06D3 		.ascii	"\316\332\006\323Rv\233\005;\317\003fq2\354.\013v\331"
 635      52769B05 
 635      3BCF0366 
 635      7132EC2E 
 635      0B76D9
 636 111d 369896B2 		.ascii	"6\230\226\262\211G\031\260\233<`\026\007^&\263`\325"
 636      894719B0 
 636      9B3C6016 
 636      075E26B3 
 636      60D5
 637 112f EDED8269 		.ascii	"\355\355\202i){\233\005\033\307\003\3463\240\314\350"
 637      297B9B05 
 637      1BC703E6 
 637      33A0CCE8 
 638 113f C3768280 		.ascii	"\303v\202\200X\355\"\326o\224\213X\2471\030\327`\374"
 638      58ED22D6 
 638      6F948B58 
 638      A73118D7 
 638      60FC
 639 1151 1AC6E331 		.ascii	"\032\306\3431~\003\343\011\030O\304x\262\213c \273\315"
 639      7E03E309 
 639      184FC478 
 639      B28B6320 
 639      BBCD
 640 1163 8E306FB5 		.ascii	"\2160o\265\347\260F\026+H\357]\335\371\177~\315\311"
 640      E7B04616 
 640      2B48EF5D 
 640      DDF97F7E 
 640      CDC9
 641 1175 E4E6FD2B 		.ascii	"\344\346\375+\267=E\314G\362\323\311\265.\276\323\311"
 641      B73D45CC 
 641      47F2D3C9 
 641      B52EBED3 
 641      C9
 642 1186 D3F4B6E4 		.ascii	"\323\364\266\344\312\016\264%\323\222\333\022\260\205"
 642      CA0EB425 
 642      D392DB12 
 642      B085
ARM GAS  /tmp/cc12Qys9.s 			page 51


 643 1194 D738DDB5 		.ascii	"\3278\335\265\250\310r'f\013\267\375\225\332\302Y.b"
 643      A8C87227 
 643      660BB7FD 
 643      95DAC259 
 643      2E62
 644 11a6 0B0FB64F 		.ascii	"\013\017\266Oj\013\2658\204\276\271z\372\353\277A\372"
 644      6A0BB538 
 644      84BEB97A 
 644      FAEBBF41 
 644      FA
 645 11b7 E772D9C2 		.ascii	"\347r\331\3025\337hm\341y$an\312\266p\3557\214\302_"
 645      35DF686D 
 645      E1792461 
 645      6ECAB670 
 645      ED378CC2 
 646 11cc B40DE6D3 		.ascii	"\264\015\346\323\200\255c\301\256\360\200Y\235\222e"
 646      80AD63C1 
 646      AEF08059 
 646      9D9265
 647 11db C16ED806 		.ascii	"\301n\330\006\323R\266\211\005\273\313\003fuJ\226\005"
 647      D352B689 
 647      05BBCB03 
 647      66754A96 
 647      05
 648 11ec 1B7DAF5D 		.ascii	"\033}\257]0\237\221x\205\004\355\010\210\363\320H\274"
 648      309F9178 
 648      8504ED08 
 648      88F3D048 
 648      BC
 649 11fd 8F5D7F01 		.ascii	"\217]\177\001\306\0131^\214\361R\214\227\361\230\204"
 649      C60B315E 
 649      8CF1528C 
 649      97F19884 
 650 120d 992EC624 		.ascii	"\231.\306$\214E\202\247\245\2461`\022\366\257<\366\357"
 650      8C4582A7 
 650      A5A63160 
 650      12F6AF3C 
 650      F6EF
 651 121f EB124D02 		.ascii	"\353\022M\002\345\207\031\005u,\005\023lS\340c)\210"
 651      E5871905 
 651      752C0513 
 651      6C53E063 
 651      2988
 652 1231 DEDA4117 		.ascii	"\336\332A\027\347\325G\303\247\350\361\214\226e\255"
 652      E7D547C3 
 652      A7E8F18C 
 652      9665AD
 653 1240 66293BF0 		.ascii	"f);\360}i\024l\232m0\355;\346&~\303\200\315\267\015"
 653      7D69146C 
 653      9A6D30ED 
 653      3BE6267E 
 653      C380CDB7 
 654 1255 66767E6D 		.ascii	"fv~m:\352\302\014\224\371\012\214\3531^\215\361\032"
 654      3AEAC20C 
 654      94F90A8C 
 654      EB315E8D 
 654      F11A
ARM GAS  /tmp/cc12Qys9.s 			page 52


 655 1267 560B2461 		.ascii	"V\013$a\351\275z\277\225\032G\0065nE\005^\\3\331\276"
 655      E9BD7ABF 
 655      951A4706 
 655      356E4505 
 655      5E5C33D9 
 656 127c C3CA76D3 		.ascii	"\303\312v\323\275\034\003\216\317\\\273\336\273zQ\031"
 656      BD1C038E 
 656      CF5CBBDE 
 656      BB7A5119 
 657 128c 7028304C 		.ascii	"p(0L\320m#j\265e\352\321Y\232\223\337\333x\360,\216"
 657      D06D236A 
 657      B565EAD1 
 657      599A93DF 
 657      DB78F02C 
 658 12a1 17CCA02E 		.ascii	"\027\314\240.\002\005\333k\033\314'\230~\330\307\276"
 658      0205DB6B 
 658      1BCC2798 
 658      7ED8C7BE 
 659 12b1 02E2457C 		.ascii	"\002\342E|R\342g|x\266\032'E\3331\276\211S\232[\030"
 659      52E2677C 
 659      78B61A27 
 659      45DB31BE 
 659      89539A5B 
 660 12c6 4F4529AD 		.ascii	"OE)\255\307x#\306\237\360H\354\034\3738\360\021l\302"
 660      C77823C6 
 660      9FF048EC 
 660      1CFB38F0 
 660      116CC2
 661 12d9 E9541F93 		.ascii	"\351T\037\223n\276\266g\377\\q\012}\215\334(\2346\035"
 661      6EBEB667 
 661      FF5C710A 
 661      7D8DDC28 
 661      9C361D
 662 12ec B78DA895 		.ascii	"\267\215\250\225\330U\272dE\301\316\360\200\031un\206"
 662      D855BA64 
 662      45C1CEF0 
 662      8019756E 
 662      86
 663 12fd AD94A167 		.ascii	"\255\224\241g\220\241g\221\241\237\"\263>\327v\233\013"
 663      90A16791 
 663      A19F22B3 
 663      3ED7769B 
 663      0B
 664 130e 09DD863E 		.ascii	"\011\335\206>1\310 \305\037-\024\254\260\314\030\177"
 664      31C820C5 
 664      1F2D14AC 
 664      B0CC187F 
 665 131e 22CEF880 		.ascii	"\"\316\370\200\270\015\027\343\354<s\251eSK\243j\006"
 665      B80D17E3 
 665      EC3C73A9 
 665      65534BA3 
 665      6A06
 666 1330 E9DB676E 		.ascii	"\351\333gn \371I\236\222\345\177\267\331M\346\335f\267"
 666      20F9499E 
 666      92E57FB7 
 666      D94DE6DD 
 666      66B7
ARM GAS  /tmp/cc12Qys9.s 			page 53


 667 1342 706FF636 		.ascii	"po\3666\276{\354Sl\364!\214\217b\374=\306\3071n\344"
 667      BE7BEC53 
 667      6CF4218C 
 667      8F62FC3D 
 667      C6C7316E 
 668 1357 61C355F6 		.ascii	"a\303U\3661\357q\367\021\262/\245\374\230\367\235\335"
 668      31EF71F7 
 668      11B22FA5 
 668      FC98F79D 
 668      DD
 669 1368 EF74C557 		.ascii	"\357t\305WWP\275\206\341\3056\240\226\257M\027\267\322"
 669      5750BD86 
 669      E1C536A0 
 669      96AF4D17 
 669      B7D2
 670 137a 3530F202 		.ascii	"50\362\0025\030]x\340,F\227\243\247\327\322\027\242"
 670      35185D78 
 670      E02C4697 
 670      A3A7D7D2 
 670      17A2
 671 138c 52294DD7 		.ascii	"R)M\327\303%\035\022\264\324]\374\237\265\335U\254\371"
 671      C3251D12 
 671      B4D45DFC 
 671      9FB5DD55 
 671      ACF9
 672 139e B6B1BA5A 		.ascii	"\266\261\272ZI\374\022#\361_P\342WP\342\333P\301\277"
 672      49FC1223 
 672      F15F50E2 
 672      5750E2DB 
 672      50C1BF
 673 13b1 C27807C6 		.ascii	"\302x\007\306;y\244\374\323\257|\027W\303\361\335\253"
 673      3B79A4FC 
 673      D3AF7C17 
 673      57C3F1DD 
 673      AB
 674 13c2 44EA6EEF 		.ascii	"D\352n\357Aw{\335}I\335m\375*k#\026\331\247w\271/\277"
 674      41777BDD 
 674      7D49DD6D 
 674      FD2A6B23 
 674      16D9A777 
 675 13d9 E8A3B91C 		.ascii	"\350\243\271\034\023\206_\024m\370\011\265aw\0140%m"
 675      13865F14 
 675      6DF809B5 
 675      61770C30 
 675      256D
 676 13eb 8DDEF891 		.ascii	"\215\336\370\221Q\256\200\370\265K\262\011\247\325\206"
 676      51AE80F8 
 676      B54BB209 
 676      A7D586
 677 13fa 5BA7B726 		.ascii	"[\247\267&\274\307J\3632\266\004\2514\261\243\365>\236"
 677      BCC74AF3 
 677      32B604A9 
 677      34B1A3F5 
 677      3E9E
 678 140c D658E8F6 		.ascii	"\326X\350\366\235\023\032\335>\242\207\263\251\333\223"
 678      9D131ADD 
 678      3EA287B3 
ARM GAS  /tmp/cc12Qys9.s 			page 54


 678      A9DB93
 679 141b AE444579 		.ascii	"\256DEy|\206z\372\377\234\036.\351\351\377\356V\352"
 679      7C867AFA 
 679      FF9C1E2E 
 679      E9E9FFEE 
 679      56EA
 680 142d BD8F71AD 		.ascii	"\275\217q\255\277Cw\352\000*\363!\214\017c|\024\343"
 680      BF4377EA 
 680      002AF321 
 680      8C0F637C 
 680      14E3
 681 143f EF79D47B 		.ascii	"\357y\324{w\234\221\235\205Yr\364b\363\267?\234\355"
 681      779C919D 
 681      855972F4 
 681      62F3B73F 
 681      9CED
 682 1451 B094F82E 		.ascii	"\260\224\370.\362\335\226\177T\217\022u\017\275:\315"
 682      F2DD967F 
 682      548F1275 
 682      0FBD3ACD 
 683 1461 8572C2A5 		.ascii	"\205r\302\245y\350\325p\256\235l\357p\346\271K\017\322"
 683      79E8D570 
 683      AE9D6CEF 
 683      70E6B94B 
 683      0FD2
 684 1473 DEF203F6 		.ascii	"\336\362\003\366\226#\367\033oaY\03698\253\357)\253"
 684      9623F71B 
 684      6F61591E 
 684      3938ABEF 
 684      29AB
 685 1485 E9A3F367 		.ascii	"\351\243\363g\271\372J\303\226\017\271\337\375\246\353"
 685      B9FA4AC3 
 685      960FB9DF 
 685      FDA6EB
 686 1494 A897EF37 		.ascii	"\250\227\3577~\367\233\3466p\220\260\277\\\324S9\245"
 686      7EF79BE6 
 686      367090B0 
 686      BF5CD453 
 686      39A5
 687 14a6 06A9BCC8 		.ascii	"\006\251\274\310E\345\324-I\336\375\306\277y\275\346"
 687      45E5D42D 
 687      49DEFDC6 
 687      BF79BDE6 
 688 14b6 D2B1BF7C 		.ascii	"\322\261\277|\204\013\306W\\\2703\365\200\336\203p\351"
 688      840BC657 
 688      5CB833F5 
 688      80DE8370 
 688      E9
 689 14c7 F6AE5DDA 		.ascii	"\366\256]\332\275kWZ<\241\354]\233\211\346\027\227\305"
 689      BD6B575A 
 689      3CA1EC5D 
 689      9B89E617 
 689      97C5
 690 14d9 1B969497 		.ascii	"\033\226\224\227\034\305\276_\241\365r\275\034\346\262"
 690      1CC5BE5F 
 690      A1F572BD 
 690      1CE6B2
ARM GAS  /tmp/cc12Qys9.s 			page 55


 691 14e8 8B714A96 		.ascii	"\213qJ\226K*\203S\033\215g\236\333\335\001\235A\253"
 691      4B2A8353 
 691      1B8D679E 
 691      DBDD019D 
 691      41AB
 692 14fa C7BF0975 		.ascii	"\307\277\011uf\324\334\261j\346\214_\321\314\333l3\347"
 692      66D4DCB1 
 692      6AE68C5F 
 692      D1CCDB6C 
 692      33E7
 693 150c DB6EA68F 		.ascii	"\333n\246\217mf\362\367.\255\265\350\355\243\335\026"
 693      6D66F2F7 
 693      2EADB5E8 
 693      EDA3DD16 
 694 151c 4D9C69E3 		.ascii	"M\234i\343\275T\243\334\214-\377\002u/I\223\222\275"
 694      BD54A3DC 
 694      8C2DFF02 
 694      752F4993 
 694      92BD
 695 152e 4C2FD526 		.ascii	"L/\325&\2153h\022W\023^s\353\366O\276\264\335\014\237"
 695      8D336812 
 695      57135E73 
 695      EBF64FBE 
 695      B4DD0C9F 
 696 1542 A0FDC4FD 		.ascii	"\240\375\304\375\363Kh\315oa\\\355&\361X7\317V \253"
 696      F34B68CD 
 696      6F615CED 
 696      26F15837 
 696      CF5620AB 
 697 1556 299B5153 		.ascii	")\233QS\316\332\357\020F\037\326\300\202\273\212\203"
 697      CEDAEF10 
 697      461FD6C0 
 697      82BB8A83 
 698 1566 D08F3C83 		.ascii	"\320\217<\203\315\2518I1\0263\007\036)\353\276\326Y"
 698      CDA93849 
 698      31163307 
 698      1E29EBBE 
 698      D659
 699 1578 9FDF0BEF 		.ascii	"\237\337\013\357\313\362d\034\226\316\022\351R\030\030"
 699      CBF2641C 
 699      96CE12E9 
 699      521818
 700 1587 F5F1BEE3 		.ascii	"\365\361\276\343\256\316\206\325)\225\321\302\362\273"
 700      AECE86D5 
 700      2995D1C2 
 700      F2BB
 701 1595 30171369 		.ascii	"0\027\023i]\222p0IA\205\242\377*, z\263\377D^?\345e"
 701      5D927030 
 701      494185A2 
 701      FF2A2C20 
 701      7AB3FF44 
 702 15ad 1EE68594 		.ascii	"\036\346\205\224\366\275\351\226\330\266\340\200\332"
 702      F6BDE996 
 702      D8B6E080 
 702      DA
 703 15ba DC7CE7EA 		.ascii	"\334|\347\352\245\032q\322\350Q[\345\213\3044&\032i"
 703      A51A71D2 
ARM GAS  /tmp/cc12Qys9.s 			page 56


 703      E8515BE5 
 703      8BC43426 
 703      1A69
 704 15cc 99EB4582 		.ascii	"\231\353E\202\207>\374\003\036!\233\352&6\372G\035\227"
 704      873EFC03 
 704      1E219BEA 
 704      2636FA47 
 704      1D97
 705 15de F881EA8F 		.ascii	"\370\201\352\217\316\314\244/UD\240\313\011\306^\320"
 705      CECCA42F 
 705      5544A0CB 
 705      09C65ED0 
 706 15ee 197B416B 		.ascii	"\031{Ak\354\341\253\334\242|\350\3310\310\371\207\220"
 706      ECE1ABDC 
 706      A27CE8D9 
 706      30C8F987 
 706      90
 707 15ff 52193345 		.ascii	"R\0313Ey[\351\210\361\316'\011\267u\204*\022\232H\371"
 707      795BE988 
 707      F1CE2709 
 707      B775842A 
 707      129A48F9 
 708 1613 FBF3A7A3 		.ascii	"\373\363\247\243:P\336\220RS\334\235\015Y\240\200N7"
 708      3A50DE90 
 708      5253DC9D 
 708      0D59A080 
 708      4E37
 709 1625 9253F4FA 		.ascii	"\222S\364\372\2267\274\023\253\233[Z:\353L\006A5\243"
 709      9637BC13 
 709      AB9B5B5A 
 709      3AEB4C06 
 709      4135A3
 710 1638 74963BA9 		.ascii	"t\226;\251\317\223tA\276\341\370\2475\312\024a\256\233"
 710      CF937441 
 710      BEE1F8A7 
 710      35CA1461 
 710      AE9B
 711 164a 383D137E 		.ascii	"8=\023~csE^\022j\261\310|\267\316\245\230\035\360\321"
 711      6373455E 
 711      126AB1C8 
 711      7CB7CEA5 
 711      981DF0D1 
 712 165e DCE40E45 		.ascii	"\334\344\016E\375\015\306m\015\210\237\343\373iIQ\013"
 712      FD0DC66D 
 712      0D889FE3 
 712      FB694951 
 712      0B
 713 166f B7957E0C 		.ascii	"\267\225~\014\235\352\325\347\225)B\023\366\32691\372"
 713      9DEAD5E7 
 713      95294213 
 713      F6D63931 
 713      FA
 714 1680 529B22AC 		.ascii	"R\233\"\254Y\246\034\351\330\215p\013x\340,\\\376\206"
 714      59A61CE9 
 714      D88D700B 
 714      78E02C5C 
 714      FE86
ARM GAS  /tmp/cc12Qys9.s 			page 57


 715 1692 3389330E 		.ascii	"3\2113\016\243=\340\177Q\261\3463\376RC\315W\364\365"
 715      A33DE07F 
 715      51B1E633 
 715      FE5243CD 
 715      57F4F5
 716 16a5 C4CB515A 		.ascii	"\304\313QZ\037&\227\226\016\007\327\222\365\242\332"
 716      1F269796 
 716      0E07D792 
 716      F5A2DA
 717 16b4 43DF4F5C 		.ascii	"C\337O\\\307%\254\275\364\250;\235\333\257@\002\352"
 717      C725ACBD 
 717      F4A83B9D 
 717      DBAF4002 
 717      EA
 718 16c5 6CF0560B 		.ascii	"l\360V\013\266\277\3613*\371\315b\\\362u6$\257\025\325"
 718      B6BFF133 
 718      2AF9CD62 
 718      5CF27536 
 718      24AF15D5 
 719 16d9 778DCC1F 		.ascii	"w\215\314\037w\324\353iK\372R!\315\337^D\017\262`km"
 719      77D4EB69 
 719      4BFA5221 
 719      CDDF5E44 
 719      0FB2606B 
 720 16ee 833DA101 		.ascii	"\203=\241\001k\032\373\206\262\210J\377\016`\003\017"
 720      6B1AFB86 
 720      B2884AFF 
 720      0E60030F 
 721 16fe E32CB4E8 		.ascii	"\343,\264\350H\374\277\005\002\342.=\333x\207|uI\204"
 721      48FCBF05 
 721      02E22E3D 
 721      DB78877C 
 721      754984
 722 1711 FDA382CD 		.ascii	"\375\243\202\315<\224Y<\012q\211\005\333j\033LK\331"
 722      3C94593C 
 722      0A718905 
 722      DB6A1B4C 
 722      4BD9
 723 1723 2F2CD80E 		.ascii	"/,\330\016\0360\213g\022\256\263`{m\203i)\273\231\360"
 723      1E308B67 
 723      12AEB360 
 723      7B6D8369 
 723      29BB99F0 
 724 1737 9086E61F 		.ascii	"\220\206\346\037\031\022\254\365\026\326\325l\342\251"
 724      1912ACF5 
 724      16D6D56C 
 724      E2A9
 725 1745 DC67D612 		.ascii	"\334g\326\0229:s[:\256\032\220?y\220\204\223z49\006"
 725      393A735B 
 725      3AAE1A90 
 725      3F799084 
 725      937A3439 
 726 175a 272759E2 		.ascii	"''Y\3427\372\260\006\" \256t\023\037\253\036\235\277"
 726      37FAB006 
 726      2220AE74 
 726      131FAB1E 
 726      9DBF
ARM GAS  /tmp/cc12Qys9.s 			page 58


 727 176c D5187F8C 		.ascii	"\325\030\177\214\361Z\214\327a\274\001\343\215\030\177"
 727      F15A8CD7 
 727      61BC01E3 
 727      8D187F
 728 177b 82F1668C 		.ascii	"\202\361f\214?\303\370\013\214\267\3628\216\313X&\235"
 728      3FC3F80B 
 728      8CB7F238 
 728      8ECB5826 
 728      9D
 729 178c B16D6835 		.ascii	"\261mh5\022\202\261\355\354I\365\357Y\350f\303O<\210"
 729      1282B1ED 
 729      EC49F5EF 
 729      59E866C3 
 729      4F3C88
 730 179f 16AABDF1 		.ascii	"\026\252\275\361\214f\265\346\252\036\316\310&\360\357"
 730      8C66B5E6 
 730      AA1ECEC8 
 730      26F0EF
 731 17ae 5CCE67B8 		.ascii	"\\\316g\270\376\001r}!rn\021\306K0\376\020\343\355\030"
 731      FE01727D 
 731      21726E11 
 731      C64B30FE 
 731      10E3ED18 
 732 17c2 7FCDC3D1 		.ascii	"\177\315\303\3219n\306\025g\246\023\222pK"
 732      396EC615 
 732      67A61392 
 732      704B
 733 17d0 377628CE 		.ascii	"7v(\316\356\235\253\307~\273\225:\273\244\254$\274\325"
 733      EE9DABC7 
 733      7EBB953A 
 733      BBA4AC24 
 733      BCD5
 734 17e2 81DC37D3 		.ascii	"\201\3347\323m\346\263*5P\217H\256;\234\3078C3\255\235"
 734      6DE6B32A 
 734      35508F48 
 734      AE3B9CC7 
 734      384333AD 
 735 17f7 A16F129D 		.ascii	"\241o\022\235\2419\315\321M\305\324]\265\341\012\355"
 735      A139CDD1 
 735      4DC5D45D 
 735      B5E10AED 
 736 1807 D5CF9EC8 		.ascii	"\325\317\236\310P\035\373\242\254\330\305\276+\353\252"
 736      501DFBA2 
 736      ACD8C5BE 
 736      2BEBAA
 737 1816 BC7E538E 		.ascii	"\274~S\216Z\333w\314y\347\375\363\366t\242\247\356\017"
 737      5ADB77CC 
 737      79E7FDF3 
 737      F674A2A7 
 737      EE0F
 738 1828 E248FC65 		.ascii	"\342H\374e\207\344~\223\026( \036v\023\263\335\244\037"
 738      87E47E93 
 738      1628201E 
 738      7613B3DD 
 738      A41F
 739 183a 8D6FD0F7 		.ascii	"\215o\320\367\3607q\215\306w\032\347\247\372o\001\373"
 739      F037718D 
ARM GAS  /tmp/cc12Qys9.s 			page 59


 739      C6771AE7 
 739      A7FA6F01 
 739      FB
 740 184b 3A70FD5B 		.ascii	":p\375[\3001\244\362x\202\317@\251<\316E\345\267\215"
 740      C031A4F2 
 740      7882CF40 
 740      A93CCE45 
 740      E5B78D
 741 185e 8A0B4596 		.ascii	"\212\013E\226J\3245\222\343\251z\015\352\2337o#\330"
 741      4AD43592 
 741      E3A97A0D 
 741      EA9B376F 
 741      23D8
 742 1870 7CDB603E 		.ascii	"|\333`>#\260Q8\217\256qs\200%\177\241>\235\224\277n"
 742      23B05138 
 742      8FAE7173 
 742      80257FA1 
 742      3E9D94BF 
 743 1885 1BCC80B2 		.ascii	"\033\314\200\262T\027\024\316q\254\221\330~\301\376"
 743      541714CE 
 743      71AC91D8 
 743      7EC1FE
 744 1894 E58FBEFF 		.ascii	"\345\217\276\377@y.\351\002N\341N\351\324>\245\207M"
 744      40792EE9 
 744      024EE14E 
 744      E9D43EA5 
 744      874D
 745 18a6 04CED59A 		.ascii	"\004\316\325\232\263\354\350p\021kN\302\\\213\027\266"
 745      B3ECE870 
 745      116B4EC2 
 745      5C8B17B6 
 746 18b6 43077E28 		.ascii	"C\007~(\351:\233\025\203\257X1\370\202\233\177\021\352"
 746      E93A9B15 
 746      83AF5831 
 746      F8829B7F 
 746      11EA
 747 18c8 17B65957 		.ascii	"\027\266YWl7\313\246\316X-\035\336\262j\222\311\012"
 747      6C37CBA6 
 747      CE582D1D 
 747      DEB26A92 
 747      C90A
 748 18da 694A4DBE 		.ascii	"iJM\276\3116\371&O\223\177\315+\334\255\232<\332c\177"
 748      C936F926 
 748      4F937FCD 
 748      2BDCAD9A 
 748      3CDA637F 
 749 18ee B534A526 		.ascii	"\2654\245&\217\3620M\256~\320n\223}\202\366\023_\243"
 749      8FF2304D 
 749      AE7ED06E 
 749      937D82F6 
 749      135FA3
 750 1901 3B89CEC0 		.ascii	";\211\316\300)\214\177\300\3704\306g0\276\214\361\015"
 750      298C7FC0 
 750      F834C667 
 750      30BE8CF1 
 750      0D
 751 1912 8CAB3D1C 		.ascii	"\214\253=\034\016C\263;a\355\256)EC-G\357\022'\231w"
ARM GAS  /tmp/cc12Qys9.s 			page 60


 751      0E43B33B 
 751      61EDAE29 
 751      45432D47 
 751      EF122799 
 752 1927 FF65D692 		.ascii	"\377e\326\222[\017\342\334v\274\207\214\250\233\036"
 752      5B0FE2DC 
 752      76BC878C 
 752      A89B1E
 753 1936 B4B9FD22 		.ascii	"\264\271\375\"\011_c\2217=\272\241jM\015\276\324\224"
 753      095F6391 
 753      373DBAA1 
 753      6A4D0DBE 
 753      D494
 754 1948 E4736CC1 		.ascii	"\344sl\301p\276\275xNl\025\344>!\376\324\305\035\321"
 754      70BEBD78 
 754      4E6C15E4 
 754      3E21FED4 
 754      C51DD1
 755 195b 17102723 		.ascii	"\027\020'#\375\007\215\3517\307\220\204sXd\252\236\376"
 755      FD078DE9 
 755      37C79084 
 755      735864AA 
 755      9EFE
 756 196d 2B642565 		.ascii	"+d%e*\027\365\327\324\307O&y\210\357v3\006\230\322@"
 756      2A17F5D7 
 756      D4C74F26 
 756      7988EF76 
 756      330698D2 
 757 1982 1BBD8D6F 		.ascii	"\033\275\215o\360\247\217\262\214\352h\027\313\247\301"
 757      F0A78FB2 
 757      8CEA6817 
 757      CBA7C1
 758 1991 9AB4457D 		.ascii	"\232\264E}\010\211>74\201\007\317b\006\37469\344b\347"
 758      08893E37 
 758      348107CF 
 758      6206FC36 
 758      39E462E7 
 759 19a5 31C92F95 		.ascii	"1\311/\225\307$g{\360\017G;\376\023F.IX`\273\025\032"
 759      C724677B 
 759      F00F473B 
 759      FE13462E 
 759      495860BB 
 760 19bb AE34CF5E 		.ascii	"\2564\317^r\274\203\372\004\012%l9\017\242\321\300f"
 760      72BC83FA 
 760      040A256C 
 760      390FA2D1 
 760      C066
 761 19cd F461B529 		.ascii	"\364a\265) \276\353!\263\212Z\0171\006\3230\236\201"
 761      20BEEB21 
 761      B38A5A0F 
 761      3106D330 
 761      9E81
 762 19df F12C8CDF 		.ascii	"\361,\214\337\3471\017\223X3\266\266\243\332\337l\252"
 762      E7310F93 
 762      5833B6B6 
 762      A3DADF6C 
 762      AA
ARM GAS  /tmp/cc12Qys9.s 			page 61


 763 19f0 9731A96F 		.ascii	"\2271\251o2\244\276\205\244NdI\222\204(\326g\307\034"
 763      32A4BE85 
 763      A44E6449 
 763      928428D6 
 763      67C71C
 764 1a03 6999BD7F 		.ascii	"i\231\275\177\336\255\316\227G\311\265\335\271\337\353"
 764      DEADCE97 
 764      47C9B5DD 
 764      B9DFEB
 765 1a12 1DBDE996 		.ascii	"\035\275\351\226`\006\346\301Wz\3534\206\363\225\336"
 765      6006E6C1 
 765      577AEB34 
 765      86F395DE 
 766 1a22 4B3DBA57 		.ascii	"K=\272Wz_\246\257\364&\371\026\035Zy\363\366\316\216"
 766      7A5FA6AF 
 766      F426F916 
 766      1D5A79F3 
 766      F6CE8E
 767 1a35 89AFF43E 		.ascii	"\211\257\364>\330\321\360\225\336\307:j_\351\255p\301"
 767      D8D1F095 
 767      DEC73A6A 
 767      5FE9AD70 
 767      C1
 768 1a46 F225DD71 		.ascii	"\362%\335q\342`n\211,_\346\261~Iw\223\365t\327\374\301"
 768      E2606E89 
 768      2C5FE6B1 
 768      7E497793 
 768      F574D7FC 
 769 1a5b 9C684B23 		.ascii	"\234hK#y\320\216\367\261\2315k\316)\217\022\255Bs:\357"
 769      79D08EF7 
 769      B199356B 
 769      CE298F12 
 769      AD42733A 
 770 1a70 B7C9CDA9 		.ascii	"\267\311\315\251\001\016\230\035|+\344\032\004Ya\027"
 770      010E981D 
 770      7C2BE41A 
 770      04596117 
 771 1a80 4412D663 		.ascii	"D\022\326c\221uz\233\274\221n\230\257\343\260\312\344"
 771      91757A9B 
 771      BC916E98 
 771      AFE3B0CA 
 771      E4
 772 1a91 F5F9F459 		.ascii	"\365\371\364YZ\365!\303\317c\230J\245\317\260\354Kn"
 772      5AF521C3 
 772      CF63984A 
 772      A5CFB0EC 
 772      4B6E
 773 1aa3 9677D2F3 		.ascii	"\226w\322\363}t\313|\207\036\314\246\035\335\023{^v"
 773      7D74CB7C 
 773      871ECCA6 
 773      1DDD137B 
 773      5E76
 774 1ab5 069EFEFA 		.ascii	"\006\236\376\372\3166\236\246\223E\367R\342(\330\367"
 774      CE369EA6 
 774      9345F752 
 774      E228D8F7 
 775 1ac5 3C60162B 		.ascii	"<`\026+.\337\261`?\330\006\323Rv\220\005\273\300\003"
ARM GAS  /tmp/cc12Qys9.s 			page 62


 775      2EDFB160 
 775      3FD806D3 
 775      52769005 
 775      BBC003
 776 1ad8 66B198D8 		.ascii	"f\261\230\330\244\014g)\276\245}\273\307|\363\206j\253"
 776      A40C6729 
 776      BEA57DBB 
 776      C77CF386 
 776      6AAB
 777 1aea 59C9AF3D 		.ascii	"Y\311\257=\306+:\346c_\364]\352\000mC\237\340\232\256"
 777      C62B3AE6 
 777      635FF45D 
 777      EA006D43 
 777      9FE09AAE 
 778 1afe 0FE8AA26 		.ascii	"\017\350\252&\204\231U\275\323c\376fT\335o\340\343v"
 778      849955BD 
 778      D363FE66 
 778      54DD6FE0 
 778      E376
 779 1b10 B2CB60AD 		.ascii	"\262\313`\255\264\216\326h\236\244\034\317\003\3473"
 779      B48ED668 
 779      9EA41CCF 
 779      03E733
 780 1b1f 9097D187 		.ascii	"\220\227\321\207\355\320\001q\003\032\276\2158\010~"
 780      EDD00171 
 780      031ABE8D 
 780      38087E
 781 1b2e 82F1668C 		.ascii	"\202\361f\214?\303\370\013\214\0331\376\022\343\335"
 781      3FC3F80B 
 781      8C1B31FE 
 781      12E3DD
 782 1b3d ECA8F49F 		.ascii	"\354\250\364\237\203*\011\223:\351\306:\255aJ\326\017"
 782      832A0993 
 782      3AE9C63A 
 782      AD614AD6 
 782      0F
 783 1b4e 651CECA6 		.ascii	"e\034\354\246\3100\301\345\267\270{\036\242\026w\037"
 783      C830C1E5 
 783      B7B87B1E 
 783      A216771F 
 784 1b5e 1ACBDA4E 		.ascii	"\032\313\332Nz\017i\215Gw\232\367\237\330\336\205\\"
 784      7A0F698D 
 784      47779AF7 
 784      9FD8DE85 
 784      5C
 785 1b6f ED357D28 		.ascii	"\3555}(=\326\336\332\356\354\277\252\316\224\254\376"
 785      3DD6DEDA 
 785      EEECBFAA 
 785      CE94ACFE 
 786 1b7f 23F990A7 		.ascii	"#\371\220\247\235\222R\377\373\230\370_zB\214W\323M"
 786      9D9252FF 
 786      FB98F85F 
 786      7A428C57 
 786      D34D
 787 1b91 5FF8453A 		.ascii	"_\370E:\223\354pStI\250\343\203\333\3514\3033\232\340"
 787      93EC7053 
 787      7449A8E3 
ARM GAS  /tmp/cc12Qys9.s 			page 63


 787      83DBE934 
 787      C3339AE0 
 788 1ba5 1AFD2941 		.ascii	"\032\375)Al.\321).\322#Kn\216S\036\206\377\036e\272"
 788      6C2ED129 
 788      2ED2234B 
 788      6E8E531E 
 788      86FF1E65 
 789 1bba 4A27D3A4 		.ascii	"J'\323\244@x\270N?\370\315<\266U\304\231\332\211\344"
 789      4078B84E 
 789      3FF8CD3C 
 789      B655C499 
 789      DA89E4
 790 1bcd C3DF98D1 		.ascii	"\303\337\230\321\321\272c[%\345\200q-n\360\216\305C"
 790      D1BA635B 
 790      25E58071 
 790      2D6EF08E 
 790      C543
 791 1bdf 6827529B 		.ascii	"h'R\233\226\000\340\312c\312\006/\205\033g\033\316\247"
 791      9600E0CA 
 791      63CA062F 
 791      851B671B 
 791      CEA7
 792 1bf1 815BA585 		.ascii	"\201[\245\205\213:8\340,\236\273\372X\0137\232\207:"
 792      8B3A38E0 
 792      2C9EBBFA 
 792      580B379A 
 792      873A
 793 1c03 8B27AFD6 		.ascii	"\213'\257\326j\341^\345\201\263x\366j\035\013'\011\237"
 793      6AE15EE5 
 793      81B378F6 
 793      6A1D0B27 
 793      099F
 794 1c15 A242D881 		.ascii	"\242B\330\201\323R\267A\013\267\205\007\316hT5\372\260"
 794      D352B741 
 794      0BB78507 
 794      CE685435 
 794      FAB0
 795 1c27 9A17104F 		.ascii	"\232\027\020O\242}9\205\266\343\007\214Oc|\006\343\263"
 795      A27D3985 
 795      B6E3078C 
 795      4F637C06 
 795      E3B3
 796 1c39 189FC3F8 		.ascii	"\030\237\303\370<\327:\007;\221\331\256\357\244Fd\357"
 796      3CD73A07 
 796      3B91D9AE 
 796      EFA44664 
 796      EF
 797 1c4a B43C34A5 		.ascii	"\264<4\245\241\273\211\331\3129\202[9Gq\005f\034\322"
 797      A1BB89D9 
 797      CA39825B 
 797      39477105 
 797      661CD2
 798 1c5d B710E37A 		.ascii	"\267\020\343z\214\277\305\370 \306M\030\037\345\241"
 798      8CBFC5F8 
 798      20C64D18 
 798      1FE5A1
 799 1c6c FE803B5D 		.ascii	"\376\200;]S\241fgg\227\256\223\307vvn\326\211SG\313"
ARM GAS  /tmp/cc12Qys9.s 			page 64


 799      53A16667 
 799      6797AE93 
 799      C776766E 
 799      D6895347 
 800 1c81 FDE8F608 		.ascii	"\375\350\366\0108\377\270>\275\307tgg7s\214\351r\260"
 800      38FFB83E 
 800      BDC77467 
 800      6737738C 
 800      E972B0
 801 1c94 1FDD4881 		.ascii	"\037\335H\201\006\271\254\21351\305\326\320\323O\364"
 801      06B9AC8B 
 801      3531C5D6 
 801      D0D34FF4 
 802 1ca4 E8F729A4 		.ascii	"\350\367)\244\313\274 \356\313(\005o\321\202\007p\013"
 802      CBBC20EE 
 802      CB28056F 
 802      D1820770 
 802      0B
 803 1cb5 EA4C9282 		.ascii	"\352L\222\202\007\334\354\261)\355\026\324\036\353-"
 803      07DCECB1 
 803      29ED16D4 
 803      1EEB2D
 804 1cc4 A88B1EA3 		.ascii	"\250\213\036\243-\250UA\333[P7\364\013\211\224\307\032"
 804      2DA85541 
 804      DB5B5037 
 804      F40B8994 
 804      C71A
 805 1cd6 C19C3714 		.ascii	"\301\2347\024\214<=\250\023\311u\217\245HLZ\312\224"
 805      8C3C3DA8 
 805      13C9758F 
 805      A5484C5A 
 805      CA94
 806 1ce8 326AE92D 		.ascii	"2j\351-\303\226\036\246-}\313g\243\251-\372\246\222"
 806      C3961EA6 
 806      2D7DCB67 
 806      A3A92DFA 
 806      A692
 807 1cfa 2D404DBB 		.ascii	"-@M\273\331\037\225=]\375n\234\2165\267\215Ys\247\270"
 807      D91F953D 
 807      5DFD6E9C 
 807      8E35B78D 
 807      5973A7B8 
 808 1d0e 1F850F88 		.ascii	"\037\205\017\210\273\2205wMY\203\373\220J\261=z\216"
 808      BB903577 
 808      4D5983FB 
 808      904AB13D 
 808      7A8E
 809 1d20 9A176395 		.ascii	"\232\027c\225\374\016)\266\014k\333\226\244\3302\246"
 809      FC0E29B6 
 809      0C6BDB96 
 809      A4D832A6 
 810 1d30 B6D55457 		.ascii	"\266\325TW\351i\243\261\277\023-\0136YH\360\256\265"
 810      E969A3B1 
 810      BF132D0B 
 810      365948F0 
 810      AEB5
 811 1d42 04C77813 		.ascii	"\004\307x\023$\270\242\031\337Odtt\314j\325\373\015"
ARM GAS  /tmp/cc12Qys9.s 			page 65


 811      24B8A219 
 811      DF4F6474 
 811      74CC6AD5 
 811      FB0D
 812 1d54 AF810475 		.ascii	"\257\201\004u\022y\363w\006\022\031%\267\350%\362\272"
 812      1279F377 
 812      06121925 
 812      B7E825F2 
 812      BA
 813 1d65 97676778 		.ascii	"\227ggx\224\\\207\247\031\351\022\272y)\205\300\011"
 813      945C87A7 
 813      19E912BA 
 813      792985C0 
 813      09
 814 1d76 864D25A7 		.ascii	"\206M%\247A\354\236\222\233l\324T\343Y\027\021\215\031"
 814      41EC9E92 
 814      9B6CD454 
 814      E3591711 
 814      8D19
 815 1d88 CC54AFE1 		.ascii	"\314T\257\341\237\340\322\267k\306\277/w$\356\010H\302"
 815      9FE0D2B7 
 815      6BC6BF2F 
 815      7724EE08 
 815      48C2
 816 1d9a 7BC6AC7C 		.ascii	"{\306\254|7\250c\345$kV*\352\366\011)F\350\221\204\305"
 816      37A863E5 
 816      246B562A 
 816      EAF60929 
 816      46E89184 
 817 1daf 086C5E0C 		.ascii	"\010l^\014\251V\212]\373_\035(\275\222\360\221\276\230"
 817      A9568A5D 
 817      FB5F1D28 
 817      BD92F091 
 817      BE98
 818 1dc1 EE4DA2D8 		.ascii	"\356M\242\330*\265\266\232\214<\365y\222\006}9\315\361"
 818      2AB5B69A 
 818      8C3CF579 
 818      92067D39 
 818      CDF1
 819 1dd3 AC58EB0D 		.ascii	"\254X\353\015u\333\2546\205\277\265\211\002\007\353"
 819      75DBAC36 
 819      85BFB589 
 819      0207EB
 820 1de2 7468FC9B 		.ascii	"th\374\2330\007\034\025miy\332\253\227\271d.\363y\034"
 820      30071C15 
 820      6D6979DA 
 820      AB97B964 
 820      2EF3791C 
 821 1df6 EA1D3592 		.ascii	"\352\0355\222\311dy\266^&s9\325{5\2527]C6/\245\0208"
 821      C96479B6 
 821      5E267339 
 821      D57B35AA 
 821      375D4336 
 822 1e0e DFB0B52D 		.ascii	"\337\260\265-\343\337P[+\330\320\360E\034\255\335m\334"
 822      E3DF505B 
 822      2BD8D0F0 
 822      451CADDD 
ARM GAS  /tmp/cc12Qys9.s 			page 66


 822      6DDC
 823 1e20 DA49FAD6 		.ascii	"\332I\372\326.\344j\255^\266\013\255e\273$\261\265\315"
 823      2EE46AAD 
 823      5EB60BAD 
 823      65BB24B1 
 823      B5CD
 824 1e32 17F17FB7 		.ascii	"\027\361\177\267\2603\323\026H\302Qc\032\247\353i\\"
 824      B033D316 
 824      48C25163 
 824      1AA7EB69 
 824      5C
 825 1e43 96128DCB 		.ascii	"\226\022\215\313\254i\\n(\221\353\212m\235\375\214\015"
 825      AC695C6E 
 825      2891EB8A 
 825      6D9DFD8C 
 825      0D
 826 1e54 79ACB4B0 		.ascii	"y\254\264\2608\211\207Q\224>\023\373N\216\026\011\011"
 826      38898751 
 826      943E13FB 
 826      4E8E1609 
 826      09
 827 1e65 16E4674E 		.ascii	"\026\344gN\371\325qY\2205qg\356\313$\305Xg\356r\240"
 827      F9D57159 
 827      90357167 
 827      EECB24C5 
 827      5867EE72 
 828 1e7a AB6A09EE 		.ascii	"\253j\011\356\"=u\326\226@)6sKz\354\201\313W\037\322"
 828      223D75D6 
 828      96402936 
 828      734B7AEC 
 828      81CB571F 
 829 1e8f 95D3591E 		.ascii	"\225\323Y\036\245\365\206\0224+\245\260}\215V\202\317"
 829      A5F58612 
 829      342BA5B0 
 829      7D8D5682 
 829      CF
 830 1ea0 8B8E779D 		.ascii	"\213\216w\235T\327&6\177\373\303\247\303\336\223?\035"
 830      54D72636 
 830      7FFBC3A7 
 830      C3DE933F 
 830      1D
 831 1eb1 23B7B4FC 		.ascii	"#\267\264\374C\337\265,\266\3707\353%y\212=V\244\034"
 831      43DFB52C 
 831      B6F837EB 
 831      25798A3D 
 831      56A41C
 832 1ec4 D657BEF3 		.ascii	"\326W\276\363\356r~riO\247\265\270\312\362\205\227\314"
 832      EE727E72 
 832      694FA7B5 
 832      B8CAF285 
 832      97CC
 833 1ed6 C83F7DC8 		.ascii	"\310?}\310\3466\247\262\246Ww\236l5nE\214m:\214\200"
 833      E636A7B2 
 833      A657779E 
 833      6C356E45 
 833      8C6D3A8C 
 834 1eeb D847B750 		.ascii	"\330G\267P\323G\367\226\274\313W\035\362D/\346K\302"
ARM GAS  /tmp/cc12Qys9.s 			page 67


 834      D347F796 
 834      BCCB571D 
 834      F2442FE6 
 834      4BC2
 835 1efd C987B4DB 		.ascii	"\311\207\264\333\002L\271\276f+]}\342\023\234\355\336"
 835      024CB9BE 
 835      662B5D7D 
 835      E2139CED 
 835      DE
 836 1f0e 8713EFD4 		.ascii	"\207\023\357\324\351\357\005\035\205\352M_'\010\255"
 836      E9EF051D 
 836      85EA4D5F 
 836      2708AD
 837 1f1d 3626B486 		.ascii	"6&\264\206-{\247\210\223F\3171zx\201\177\003\247~\007"
 837      2D7BA788 
 837      9346CF31 
 837      7A78817F 
 837      03A77E07 
 838 1f31 E1D32E2F 		.ascii	"\341\323./\331\301\271\241\243\202s\007g\257W\267\203"
 838      D9C1B9A1 
 838      A3827307 
 838      67AF57B7 
 838      83
 839 1f42 73E075DC 		.ascii	"s\340u\334\301!\371\311wp\252;'\356\340\214\355l\270"
 839      C121F9C9 
 839      7770AA3B 
 839      27EEE08C 
 839      ED6CB8
 840 1f55 8333A5B3 		.ascii	"\2033\245\263\341\237\262\316\352l\370\247\254K;k\377"
 840      E19FB2CE 
 840      EA6CF8A7 
 840      AC4B3B6B 
 840      FF
 841 1f66 9455C9FE 		.ascii	"\224U\311\3768\236\315\376!\365\346x6\373\207\324\273"
 841      389ECDFE 
 841      21F5E678 
 841      36FB87D4 
 841      BB
 842 1f77 E2D9EC1F 		.ascii	"\342\331\354\037R\037\212g{\231\354\023\361\3544&\373"
 842      521F8A67 
 842      7B99EC13 
 842      F1EC3426 
 842      FB
 843 1f88 6A3CBB15 		.ascii	"j<\273\025\223=\316\027\313Ng\262\247\305\2633\230\354"
 843      933DCE17 
 843      CB4E67B2 
 843      A7C5B333 
 843      98EC
 844 1f9a C5F1EC7B 		.ascii	"\305\361\354{\230\354"
 844      98EC
 845 1fa0 75F1ECD6 		.ascii	"u\361\354\326L\366\266xv\033&\373\333xv[&\373h<\273"
 845      4CF6B678 
 845      761B26FB 
 845      DB78765B 
 845      26FB683C 
 846 1fb5 1D937D29 		.ascii	"\035\223})\236\335\236\245\273K,\373^E\226\344\253\345"
 846      9EDD9EA5 
ARM GAS  /tmp/cc12Qys9.s 			page 68


 846      BB4B2CFB 
 846      5E4596E4 
 846      ABE5
 847 1fc7 465A5C47 		.ascii	"FZ\\G`N\217\035b\237\327x#\315\314\330\354\324\033\233"
 847      604E8F1D 
 847      629FD778 
 847      23CDCCD8 
 847      ECD41B9B 
 848 1fdb 6589C3F8 		.ascii	"e\211\303\370\254.\306\335\250\305`\204\235\030\235"
 848      AC2EC6DD 
 848      A8C56084 
 848      9D189D
 849 1fea FD0DF813 		.ascii	"\375\015\370\023s\015\375\011\322\037\314\010\251N\323"
 849      730DFD09 
 849      D21FCC08 
 849      A94ED3
 850 1ff9 11428EFA 		.ascii	"\021B\216\372\307\2764"
 850      C7BE34
 851 2000 8BDAF16B 		.ascii	"\213\332\361k\251h\344\361~`B\350\253i\006\2046\337"
 851      A968E4F1 
 851      7E6042E8 
 851      AB690684 
 851      36DF
 852 2012 DE3DDF8C 		.ascii	"\336=\337\214PR\267\031\241c\365\204\376$&pl\271\011"
 852      5052B719 
 852      A163F584 
 852      FE242670 
 852      6CB909
 853 2025 21E30C09 		.ascii	"!\343\014\011\231\376\301\331\247kW\312c\360\001d\375"
 853      99FEC1D9 
 853      A76B57CA 
 853      63F00164 
 853      FD
 854 2036 E3C716BB 		.ascii	"\343\307\026\2739\257\353)\271\200o\265\326P\322`B\311"
 854      39AFEB29 
 854      B9806FB5 
 854      D650D260 
 854      42C9
 855 2048 9B869434 		.ascii	"\233\206\2244\324\230\033?k\361\275\245\247e\231\333"
 855      D4981B3F 
 855      6BF1BDA5 
 855      A76599DB 
 856 2058 B6F83E37 		.ascii	"\266\370>7\241u\212\021\255\321\203;\336\220E\303\211"
 856      A1758A11 
 856      ADD1833B 
 856      DE9045C3 
 856      89
 857 2069 99159D53 		.ascii	"\231\025\235S-\351\334jH\327v\023\272j\015\351\332\227"
 857      2DE9DC6A 
 857      48D77613 
 857      BA6A0DE9 
 857      DA97
 858 207b 125DD32C 		.ascii	"\022]\323,\351\352\305\262\217\377\364\311\306\023?"
 858      E9EAC5B2 
 858      8FFFF4C9 
 858      C6133F
 859 208a 4BB8623E 		.ascii	"K\270b>+\215\330\366=]\364\003\266\375\307\234\343d"
ARM GAS  /tmp/cc12Qys9.s 			page 69


 859      2B8DD8F6 
 859      3D5DF403 
 859      B6FDC79C 
 859      E364
 860 209c E8A6B1A4 		.ascii	"\350\246\261\244\012\323\231Q\232\305\272\341w&\334"
 860      0AD39951 
 860      9AC5BAE1 
 860      7726DC
 861 20ab 7D5FCBDD 		.ascii	"}_\313\335\177\021\346\312\362\356\346\333W\227\220"
 861      7F11E6CA 
 861      F2EEE6DB 
 861      579790
 862 20ba D98A0C5D 		.ascii	"\331\212\014]\245%\266R\327\034\2030\243`A\034,\305"
 862      A525B652 
 862      D71C8330 
 862      A360411C 
 862      2CC5
 863 20cc ADD3855A 		.ascii	"\255\323\205Z\001e\010\257\263\255\357c\276s\2728-C"
 863      016508AF 
 863      B3ADEF63 
 863      BE73BA38 
 863      2D43
 864 20de D07DCC6E 		.ascii	"\320}\314n\375 \316'\035w\211\327fVj\211i)\342I\232"
 864      FD20CE27 
 864      1D7789D7 
 864      66566A89 
 864      6929E249 
 865 20f3 955A6A52 		.ascii	"\225ZjR\212\237#\313\364*KZ\312u*\361CS\212\211<\315"
 865      8A9F23CB 
 865      F42A4B5A 
 865      CA752AF1 
 865      43538A89 
 866 2109 4A7D645A 		.ascii	"J}dZ\212\274\207\301\254\324\012\323R;-\270SgZ\212\230"
 866      8ABC87C1 
 866      ACD40AD3 
 866      523B2DB8 
 866      53675A8A 
 867 211e 7FD33998 		.ascii	"\177\3239\230i\251j\213R\365&\245\224\035\305fW\255"
 867      69A96A8B 
 867      52F526A5 
 867      941DC566 
 867      57AD
 868 2130 F6DD2009 		.ascii	"\366\335 \011\236\342\3524\272\241\250\371{\006\274"
 868      9EE2EA34 
 868      BAA1A8F9 
 868      7B06BC
 869 213f C3ACCA8F 		.ascii	"\303\254\312\217\323\322b\002\312Hc\023\326\202[e\332"
 869      D3D26202 
 869      CA486313 
 869      D6825B65 
 869      DA
 870 2150 40F200AB 		.ascii	"@\362\000\253Y\2515\246\245^\267`\313Z\323RoY\224j0"
 870      59A935A6 
 870      A55EB760 
 870      CB5AD352 
 870      6F59946A 
 871 2165 2D35D5A2 		.ascii	"-5\325\242\324:\323R\213,\224d\275i\251i\026um0-5\313"
ARM GAS  /tmp/cc12Qys9.s 			page 70


 871      D43AD352 
 871      8B2C9464 
 871      BD69A969 
 871      16756D30 
 872 217c 82871B19 		.ascii	"\202\207\033\031\023\352,\032\032\010\271\373\016z\316"
 872      13EA2C1A 
 872      1A08B9FB 
 872      0E7ACE
 873 218b 97253C91 		.ascii	"\227%<\2219\264\262<\230YTY\374Jfqpxf\321\320\322\301"
 873      39B4B23C 
 873      98595459 
 873      FC4A6671 
 873      707866D1 
 874 21a2 A595E1CC 		.ascii	"\245\225\341\314HhX\305K\231\220\010\216\214d\226\004"
 874      486858C5 
 874      4B999008 
 874      8E8C6496 
 874      04
 875 21b3 2225E1CC 		.ascii	"\"%\341\314p\250(\263\264\"\022\034\022\014u\033*8{"
 875      70A828B3 
 875      B422121C 
 875      120C751B 
 875      2A387B
 876 21c6 BF5098F3 		.ascii	"\277P\230\363\230\275\322%%P\320\325\247Wa\237\002O"
 876      98BDD225 
 876      2550D0D5 
 876      A757619F 
 876      024F
 877 21d8 49D81F79 		.ascii	"I\330\037y\245*\350(\016\015w\025\205K\377w\320]\341"
 877      A52AE828 
 877      0E0D7715 
 877      854BFF77 
 877      D05DE1
 878 21eb 873BC3AE 		.ascii	"\207;\303\256\021%e\201!\336\222p\251\237$\234\317\347"
 878      11256581 
 878      21DE9270 
 878      A99F249C 
 878      CFE7
 879 21fd E6674BA5 		.ascii	"\346gK\245\305i\025\376Pee\244\2704\344\312&Y\255\312"
 879      C56915FE 
 879      506565A4 
 879      B834E4CA 
 879      2659ADCA 
 880 2211 02E188BF 		.ascii	"\002\341\210\277\250lX8\322\252$\024\014\322\244\027"
 880      A86C5838 
 880      D2AA2414 
 880      0CD2A417 
 881 2221 31821511 		.ascii	"1\202\025\021W\011\201\364\014\257,\033\034\010\007"
 881      570981F4 
 881      0CAF2C1B 
 881      1C0807
 882 2230 3D908957 		.ascii	"=\220\211W(N\256\336\342@$\200\031#J+\302\301\242\210"
 882      284EAEDE 
 882      E2402480 
 882      19234A2B 
 882      C2C1A288 
 883 2244 03AEAEC2 		.ascii	"\003\256\256\302\254~\275\362[\207\213\313\313\201\236"
ARM GAS  /tmp/cc12Qys9.s 			page 71


 883      AC7EBDF2 
 883      5B878BCB 
 883      CB819E
 884 2253 F2AAB220 		.ascii	"\362\252\262 \020\353\301\257\376\210\013\257\177J\326"
 884      10EBC1AF 
 884      FE880BAF 
 884      7F4AD6
 885 2262 DCA18132 		.ascii	"\334\241\2012`\021\220R\034\314$\345\302U\245\000\222"
 885      60119052 
 885      1CCC24E5 
 885      C255A500 
 885      92
 886 2273 36706056 		.ascii	"6p`Vv\250tx0\224\021K\375m`\241\313\337\273\262\262"
 886      76A87478 
 886      3094114B 
 886      FD6D60A1 
 886      CBDFBBB2 
 887 2288 2CBD34EC 		.ascii	",\2754\354'D\204\"\301\342\014HW\205*#@Q\260\330STY"
 887      27448422 
 887      C1E20C48 
 887      57852A23 
 887      4051B0D8 
 888 229f 5101A956 		.ascii	"Q\001\251V\305\245a%\371\373\314a\341Pf T\376hEeE\360"
 888      C5A56125 
 888      F9FBCC61 
 888      E1506620 
 888      54FE6845 
 889 22b6 D1606070 		.ascii	"\321``pi\254\2720\360\246\"\002\265y\207\301\365\261"
 889      69ACBA30 
 889      F0A62202 
 889      B57987C1 
 889      F5B1
 890 22c8 9EFEC8E3 		.ascii	"\236\376\310\343\026w\227\007\200\366\212`\246\2778"
 890      16779707 
 890      80F68A60 
 890      A6BF38
 891 22d7 58121856 		.ascii	"X\022\030V\026AY\204\241t+\277_-\357!\211'\374\2214"
 891      16415984 
 891      A1742BBF 
 891      5F2DEF21 
 891      8927FC91 
 892 22ec 9A052967 		.ascii	"\232\005)g(\030(v\215\010\225F\202\316\360+\025E\177"
 892      28182876 
 892      8D089546 
 892      82CEF02B 
 892      15457F
 893 22ff B1C30F48 		.ascii	"\261\303\017H\373K+\007\227U\026\275\004\365\264\351"
 893      FB4B2B07 
 893      975516BD 
 893      04F5B4E9 
 894 230f 4D12D9C1 		.ascii	"M\022\331\301\341\245E\301\376\025%\225\336\301e/\371"
 894      E1A545C1 
 894      FE152595 
 894      DEC1652F 
 894      F9
 895 2320 51662451 		.ascii	"Qf$Q1\254\334;$\030\001\306\224T:\206\227GZAf8\002\222"
 895      31ACDC3B 
ARM GAS  /tmp/cc12Qys9.s 			page 72


 895      241801C6 
 895      94543A86 
 895      97475A41 
 896 2338 F5475AF5 		.ascii	"\365GZ\365\036\360\254\377\271A\375\007\365/\364\222"
 896      1EF0ACFF 
 896      B941FD07 
 896      F52FF492 
 897 2348 6441616E 		.ascii	"dAan\036\346\365\312*\354\377\267\234\326$\231\225;"
 897      1EE6F5CA 
 897      2AECFFB7 
 897      9CD62499 
 897      953B
 898 235a 68500E7C 		.ascii	"hP\016|\035\324\267\035\371\232\335\277 \236\223Fr\362"
 898      1DD4B71D 
 898      F99ADDBF 
 898      209E9346 
 898      72F2
 899 236c 737A65BF 		.ascii	"sze\277\220\256\246 \027\323\317\347\367/T\323\005/"
 899      90AEA620 
 899      17D3CFE7 
 899      F72F54D3 
 899      052F
 900 237e 0CCA82B4 		.ascii	"\014\312\202\264\013ku\024\225\026;\212\302\305\336"
 900      0B6B7514 
 900      95163B8A 
 900      C2C5DE
 901 238d A24055A0 		.ascii	"\242@U\240\2504\362J6O\303\253*C\221pfA\341\300\307"
 901      A834F24A 
 901      364FC3AB 
 901      2A439170 
 901      6641E1C0 
 902 23a2 7A660E18 		.ascii	"zf\016\030\220\235Y\220\327\177x\217LP\011\177YY1Q\013"
 902      909D5990 
 902      D77F788F 
 902      4C50097F 
 902      59593151 
 903 23b7 C8A0CAD0 		.ascii	"\310\240\312\320\323\016\037\251N\265\202\213\312\021"
 903      D30E1FA9 
 903      4EB5828B 
 903      CA11
 904 23c5 C0513942 		.ascii	"\300Q9B\222\204#\004\233\266\022\177\245\274\311 \311"
 904      92842304 
 904      9BB6127F 
 904      A5BCC920 
 904      C9
 905 23d6 ACDC8179 		.ascii	"\254\334\201y\003r\012s\356\001\200\242@\031\364\217"
 905      03720A73 
 905      EE0180A2 
 905      4019F48F 
 906 23e6 A297FC11 		.ascii	"\242\227\374\021w\260\242\330_48'\225v\365\315\353\237"
 906      77B0A2D8 
 906      5F343827 
 906      9576F5CD 
 906      EB9F
 907 23f8 3BBC6766 		.ascii	";\274gf\025\310\2276,#\034)\007\005\032RUZ\011=g`nv"
 907      15C89736 
 907      2C231C29 
ARM GAS  /tmp/cc12Qys9.s 			page 73


 907      07051A52 
 907      555A093D 
 908 2410 4EBE3BB7 		.ascii	"N\276;\267\360\205\274\234|OnA^NNv\276+\357\271\274"
 908      F085BC9C 
 908      7C4F6E41 
 908      5E4E4E76 
 908      BE2BEFB9 
 909 2425 EC7C477F 		.ascii	"\354|G\177\010\271\331\371\342\363\250\263=\376\004"
 909      08B9D9F9 
 909      E2F3A8B3 
 909      3DFE04
 910 2434 6DA1BA46 		.ascii	"m\241\272F\222\216p0\342**\013\006Bb?g\357\202\374|"
 910      928E7030 
 910      E22A2A0B 
 910      0642623F 
 910      67EF82FC 
 911 2449 E780AC67 		.ascii	"\347\200\254g\363\235\275\372\344\017 Q?G\357\374\374"
 911      F39DBDFA 
 911      E40F2051 
 911      3F47EFFC 
 911      FC
 912 245a 56A59584 		.ascii	"V\245\225\204\232\322bhA8L\222.\270\004@X\241\036\204"
 912      9AD26268 
 912      41384C92 
 912      2EB80440 
 912      58A11E84 
 913 246e 05599515 		.ascii	"\005Y\225\025%\245C\334ExIj\352B\221\030\223\213\206"
 913      25A543DC 
 913      4578496A 
 913      EA429118 
 913      938B86
 914 2481 865F09AB 		.ascii	"\206_\011\253}\302\033\031J\024\037zB\321P?M?n\017\253"
 914      7DC21B19 
 914      4A141F7A 
 914      42D1503F 
 914      4D3F6E0F 
 915 2496 6828E18B 		.ascii	"h(\341\213\273\312_\001\006\021.U\241\340\360~\034\020"
 915      BBCA5F01 
 915      06112E55 
 915      A1E0F07E 
 915      1C10
 916 24a8 94D5BDF2 		.ascii	"\224\325\275\362\007f\015\034\011w\226W\225\226\005"
 916      07660D1C 
 916      09779657 
 916      959605
 917 24b7 43E1CCBE 		.ascii	"C\341\314\276YYp\273J\236'R\025\"\234F\334\322Jb7\""
 917      595970BB 
 917      4A9E2752 
 917      15229C46 
 917      DCD24A62 
 918 24cd 50CD93B6 		.ascii	"P\315\223\266\361\207\026U\206\210\321K'\331\320\367"
 918      F1871655 
 918      8688D14B 
 918      27D9D0F7 
 919 24dd 22459191 		.ascii	"\"E\221\221\377-5\024\377\360?\227\023\316\205\202C"
 919      FF2D3514 
 919      FFF03F97 
ARM GAS  /tmp/cc12Qys9.s 			page 74


 919      13CE8582 
 919      43
 920 24ee C0001161 		.ascii	"\300\000\021a\366\370\023\204?Cx\002\302\223\216p\317"
 920      F6F81384 
 920      3F437802 
 920      C2938E70 
 920      CF
 921 24ff EE107A40 		.ascii	"\356\020z@\350\011\3411\010\217C\370#\004\270\257'\334"
 921      E809E131 
 921      088F43F8 
 921      2304B8AF 
 921      27DC
 922 2511 D713EEEB 		.ascii	"\327\023\356\353\011\367=\006\367=\326C\012=.\205\376"
 922      09F73D06 
 922      F73DD643 
 922      0A3D2E85 
 922      FE
 923 2522 2885FE24 		.ascii	"(\205\376$\205\376,\205\236\220BO:B=\272C\350!\225\205"
 923      85FE2C85 
 923      9E90424F 
 923      3A423DBA 
 923      43E82195 
 924 2537 E0F298AB 		.ascii	"\340\362\230\253\312\017\324z\010\207G\004Cp\255,+\016"
 924      CA0FD47A 
 924      08874704 
 924      4370AD2C 
 924      2B0E
 925 2549 8608C703 		.ascii	"\206\010\307\003\345AoD\351*\220\217)O\244\274\262\230"
 925      E5416F44 
 925      E92A908F 
 925      294FA4BC 
 925      B298
 926 255b 7E27834C 		.ascii	"~'\203L\330\023\011\005\311\200\004\367\223\204\253"
 926      D8130905 
 926      C98004F7 
 926      9384AB
 927 256a 3C3C047E 		.ascii	"<<\004~T\354 \330?%\345\016\025\277\002?y\203#K#\300"
 927      54EC20D8 
 927      3F25E50E 
 927      15BF023F 
 927      7983234B 
 928 2580 91A07B44 		.ascii	"\221\240{D\244r\360\177T\245\007\207\303\220S\036\010"
 928      A472F07F 
 928      54A50787 
 928      C390531E 
 928      08
 929 2591 63471A41 		.ascii	"cG\032A\022\216*\377\260\326TU\302\3762\350\251\376"
 929      128E2AFF 
 929      B0D65455 
 929      C2FE32E8 
 929      A9FE
 930 25a3 489B98F2 		.ascii	"H\233\230\362\320\234\264*\377\210@i\244\264bH\0335"
 930      D09CB42A 
 930      FF884069 
 930      A4B46248 
 930      1B35
 931 25b5 FBE561C1 		.ascii	"\373\345a\301a@U[\346N\314jU\345\207j1\351\302$d\004"
ARM GAS  /tmp/cc12Qys9.s 			page 75


 931      6140555B 
 931      E64ECC6A 
 931      55E5876A 
 931      31E9C224 
 932 25cb ABA0CB42 		.ascii	"\253\240\313BaW\3710\220v\322\201X\243\217\345\221\221"
 932      6157F930 
 932      9076D281 
 932      58A38FE5 
 932      9191
 933 25dd 446FCA29 		.ascii	"Do\312):\\+GT\000\323\020\011\232P\216j\012\364\301"
 933      3A5C2B47 
 933      5400D310 
 933      099A508E 
 933      6A0AF4C1 
 934 25f1 7D84D256 		.ascii	"}\204\322V\204+\2012T.\310\254\202Q\353\317\266\352"
 934      842B8132 
 934      542EC8AC 
 934      8251EBCF 
 934      B6EA
 935 2603 531A0375 		.ascii	"S\032\003u\266W\272\022p9\030\012V\024Ak\3354\353\337"
 935      B657BA12 
 935      7039180A 
 935      5614416B 
 935      DD34EBDF 
 936 2617 795C89AC 		.ascii	"y\\\211\254\201\005\375\013\300\364d\242\205)y\274{"
 936      8105FD0B 
 936      C0F464A2 
 936      852979BC 
 936      7B
 937 2628 8F914544 		.ascii	"\217\221EDa\211a+\204\356\220\035,qd\345\367\200\320"
 937      6189612B 
 937      84EE901D 
 937      2C7164E5 
 937      F780D0
 938 263b 532AC897 		.ascii	"S*\310\227\300\320d\345g\345\345\273\363\377\016\327"
 938      C0D064E5 
 938      67E5E5BB 
 938      F3FF0ED7 
 939 264b 7C77215E 		.ascii	"|w!^<\375{\026d\365\351\233\357\202k^\276\003\354`\037"
 939      3CFD7B16 
 939      64F5E99B 
 939      EF826B5E 
 939      BE03EC60 
 940 2660 BB660FE3 		.ascii	"\273f\017\343>\217\217\034I\011\361\027\227\007H\343"
 940      3E8F8F1C 
 940      4909F117 
 940      970748E3 
 941 2670 B207F6F2 		.ascii	"\262\007\366\362\027\200*\005\312Uj\244\254|\347\240"
 941      17802A05 
 941      CA556AA4 
 941      AC7CE7A0 
 942 2680 ECC27C47 		.ascii	"\354\302|G^\257|\347\300\356$\352\321+\337\321\007\210"
 942      5EAF7CE7 
 942      C0EE24EA 
 942      D12BDFD1 
 942      0788
 943 2692 09E38DCE 		.ascii	"\011\343\215\316\322\222\242\220\2734<\264\264$\222"
ARM GAS  /tmp/cc12Qys9.s 			page 76


 943      D292A290 
 943      BB343CB4 
 943      B42492
 944 26a1 160E9695 		.ascii	"\026\016\226\225\224V\024\007G\272\207\303h_\031j\037"
 944      94561407 
 944      47BA87C3 
 944      685F196A 
 944      1F
 945 26b2 43F7D3BB 		.ascii	"C\367\323\273\301\234\302\227\320H\022GF\246\205F\302"
 945      C19CC297 
 945      D0481247 
 945      46A68546 
 945      C2
 946 26c3 9568725A 		.ascii	"\225hrZDM9\2419U\256\262pQ\311\020\327P\022\023\347"
 946      444D39A1 
 946      3955AEB2 
 946      7051C910 
 946      D7501213 
 947 26d8 839AC136 		.ascii	"\203\232\30168\366\372\003\305\305\241`8\034\014;\301"
 947      38F6FA03 
 947      C5C5A160 
 947      381C0C3B 
 947      C1
 948 26e9 432926F7 		.ascii	"C)&\367\027{J\300\256\200\301\363BN>\310\342\025\360"
 948      177B4AC0 
 948      AE80C1F3 
 948      424E3EC8 
 948      E215F0
 949 26fc CEF07A0F 		.ascii	"\316\360z\017q\224\312*\207P\227/#\376\015,u\374\213"
 949      7194CA2A 
 949      8750972F 
 949      23FE0D2C 
 949      75FC8B
 950 270f 235C5CE4 		.ascii	"#\\\\\344\201d^ 24\243\230\214h\003+\207\201\015*vW"
 950      81645E20 
 950      3234A398 
 950      8C68032B 
 950      87810D2A 
 951 2725 207052E5 		.ascii	" pR\345\034\036\000\325\032\026\206\037@\307*\"\304"
 951      1C1E00D5 
 951      1A16861F 
 951      40C72A22 
 951      C4
 952 2736 4BB4A760 		.ascii	"K\264\247`\224;D\301\356\353\015n]A\020\024\273\"R\032"
 952      943B44C1 
 952      EEEB0D6E 
 952      5D411014 
 952      BB22521A 
 953 274a 28A3D2F8 		.ascii	"(\243\322\370\215Q&x`=\321C*+\035\2349\244\250H\347"
 953      8D512678 
 953      603DD143 
 953      2A2B1D9C 
 953      39A4A848 
 954 275f 293DDEED 		.ascii	")=\336\355\211n\217\263\336\025xJ\304\206\023\037\005"
 954      896E8FB3 
 954      DE15784A 
 954      C486131F 
ARM GAS  /tmp/cc12Qys9.s 			page 77


 954      05
 955 2770 EC59D5B0 		.ascii	"\354Y\325\260\210\003<\024\257J\262\003\022\216\222"
 955      88033C14 
 955      AF4AB203 
 955      128E92
 956 277f F208CBB1 		.ascii	"\362\010\313\261\"\301M\375&/Z\020H\264\203_\010K\006"
 956      22C14DFD 
 956      262F5A10 
 956      48B4835F 
 956      084B06
 957 2792 054774AB 		.ascii	"\005Gt\253\012\204\"\335\272\247)9`n\224\224\223X,\267"
 957      0A8422DD 
 957      BAA72939 
 957      606E9494 
 957      93582CB7 
 958 27a6 C2D93EFD 		.ascii	"\302\331>\375\007H%a'1R\216`(\344,\251\212\204\334a"
 958      07482561 
 958      2731528E 
 958      6028E42C 
 958      A98A84DC 
 959 27bb F4755D34 		.ascii	"\364u]4.&\376\253\027\034[?I\020\017\327\017\3678\006"
 959      2E26FEAB 
 959      171C5B3F 
 959      49100FD7 
 959      0FF73806 
 960 27cf 0F       		.ascii	"\017"
 961 27d0 2B711234 		.ascii	"+q\0224\317\210P\026\021\206\263\022\354\305\275J\025"
 961      CF885016 
 961      1186B312 
 961      ECC5BD4A 
 961      15
 962 27e1 CF130F8E 		.ascii	"\317\023\017\216\022\320\303\001y\177\264\345\177\004"
 962      12D0C301 
 962      797FB4E5 
 962      7F04
 963 27ef 43C043A2 		.ascii	"C\300C\242\016\005\230\242.L\033\366\013\2606\215\214"
 963      0E0598A2 
 963      2E4C1BF6 
 963      0BB0368D 
 963      8C
 964 2800 9FA5E5D0 		.ascii	"\237\245\345\320.'\260*\342\004^E\334\3509F\\\244\273"
 964      2E27B02A 
 964      E2045E45 
 964      DCE83946 
 964      5CA4BB
 965 2813 4792FAD2 		.ascii	"G\222\372\322\032\001\243\205%\362m\215)\177\270rX\210"
 965      1A01A385 
 965      25F26D8D 
 965      297FB872 
 965      5888
 966 2825 188F0CF6 		.ascii	"\030\217\014\366k[\372\205\230\254`\005\321\321\326"
 966      6B5BFA85 
 966      98AC6005 
 966      D1D1D6
 967 2834 DA0C4FB0 		.ascii	"\332\014O\260\014-[:\\\325\2744HSp\012\205\303\001H"
 967      0C2D5B3A 
 967      5CD5BC34 
ARM GAS  /tmp/cc12Qys9.s 			page 78


 967      4853700A 
 967      85C30148 
 968 2848 0CB23149 		.ascii	"\014\2621I~\037A\307\210`\030K\273\360\276\264p\261"
 968      7E1F41C7 
 968      8860184B 
 968      BBF0BEB4 
 968      70B1
 969 285a 32A6A415 		.ascii	"2\246\244\025d+\336\227\007R\304\371\362\302\025}/{"
 969      642BDE97 
 969      0752C4F9 
 969      F2C2157D 
 969      2F7B
 970 286c 6D44634C 		.ascii	"mDcL\332xOi\005\360L\035\015\300\307Q\223^5\231\366"
 970      DA784F69 
 970      05F04C1D 
 970      0DC0C751 
 970      935E3599 
 971 2881 B23A7640 		.ascii	"\262:v@\252\010;[\310\373\262\037\204\016f\325\365\262"
 971      AA083B5B 
 971      C8FBB21F 
 971      840E66D5 
 971      F5B2
 972 2893 3F5259E5 		.ascii	"?RY\345\201[B\240\011p\015\025\3035\355\345\212\312"
 972      815B42A0 
 972      09700D15 
 972      C335EDE5 
 972      8ACA
 973 28a5 4869C92B 		.ascii	"Hi\311+\200\362\262\237&\335/\003\033*^r\227\"f\353"
 973      80F2B29F 
 973      26DD2F03 
 973      1B2A5E72 
 973      972266EB 
 974 28b9 CA6111A6 		.ascii	"\312a\021\246Zw%&\244\322\301R\345\340{\236+\350\225"
 974      5A772526 
 974      A4D2C152 
 974      E5E07B9E 
 974      2BE895
 975 28cc 5FC898D8 		.ascii	"_\310\230\330\307\234}\013\363\362]\303\302\240C\367"
 975      C79C7D0B 
 975      F3F25DC3 
 975      C2A043F7 
 976 28dc 11951F80 		.ascii	"\021\225\037\200\372\332\277\242\224t0\350\"R\270\330"
 976      FADABFA2 
 976      947430E8 
 976      2252B8D8 
 977 28ec 513C7848 		.ascii	"Q<xH\353\370o\005@T\253\270\376\273J\210\236\247+\031"
 977      EBF86F05 
 977      4054ABB8 
 977      FEBB4A88 
 977      9EA72B19 
 978 2900 0550A40D 		.ascii	"\005P\244\015\253\235Y\341\341.\270\224\207\301(\202"
 978      AB9D59E1 
 978      E12EB894 
 978      87C12882 
 979 2910 A206C01A 		.ascii	"\242\006\300\032\272+0C\355C}\203\221\347\251ng(9Ye"
 979      BA2B3043 
 979      ED437D83 
ARM GAS  /tmp/cc12Qys9.s 			page 79


 979      91E7A96E 
 979      67283959 
 980 2925 95E1A0FA 		.ascii	"\225\341\240\372s.\350{\257*2Hf\260\270\356\262`\305"
 980      732EE87B 
 980      AF2A3248 
 980      66B0B8EE 
 980      B260C5
 981 2938 90C8D034 		.ascii	"\220\310\3204\322\035\360~[6 \020\032B\006\316\341\001"
 981      D21DF07E 
 981      5B362010 
 981      1A4206CE 
 981      E101
 982 294a D49FD67E 		.ascii	"\324\237\326~\377\220\212aE~\345k\372S\203\207\225\226"
 982      FF908A61 
 982      457EE56B 
 982      FA538387 
 982      9596
 983 295c 451E2DAD 		.ascii	"E\036-\255\370\253\000>\203\222\013>\343pj\"<}\362s"
 983      F8AB003E 
 983      83920B3E 
 983      E3706A22 
 983      3C7DF273 
 984 2970 0A9E1B50 		.ascii	"\012\236\033P\350\352\223\357\317}6\035b\230\230<\353"
 984      E8EA93EF 
 984      CF7D361D 
 984      6298983C 
 984      EB
 985 2981 CF013716 		.ascii	"\317\0017\026\322\375\007\025\222d\006$\007\345\026"
 985      D2FD0715 
 985      92640624 
 985      07E516
 986 2990 2ABE3B7E 		.ascii	"*\276;~\361\203\021\310Q\222y\275\012\373\265\301\273"
 986      F18311C8 
 986      519279BD 
 986      0AFBB5C1 
 986      BB
 987 29a1 FFD66B40 		.ascii	"\377\326k@\377l\377\240^\003s\322\010R\316\240\3769"
 987      FF6CFFA0 
 987      5E0373D2 
 987      0852CEA0 
 987      FE39
 988 29b3 D95E48E5 		.ascii	"\331^H\345\374\275\177Aa;\346\226\334\336\377\035f>"
 988      FCBD7F41 
 988      613BE696 
 988      DCDEFF1D 
 988      663E
 989 29c5 ED2187CC 		.ascii	"\355!\207\314or\374y\371\271\205\220\221\223\335\226"
 989      6F72FC79 
 989      F9B98590 
 989      9193DD96 
 990 29d5 B9293B9F 		.ascii	"\271);\237\314\235\224\272s\006\365\352=\200\376\256"
 990      CC9D94BA 
 990      7306F5EA 
 990      3D80FEAE 
 991 29e5 D45EF042 		.ascii	"\324^\360BAa\316@R\361\300g\373\024\370{\365\316\315"
 991      4161CE40 
 991      52F1C067 
ARM GAS  /tmp/cc12Qys9.s 			page 80


 991      FB14F87B 
 991      F5CECD
 992 29f8 07004253 		.ascii	"\007\000BSa\377\2019\271\317\025\022\032\006\344f=\233"
 992      61FF8139 
 992      B9CF1512 
 992      1A06E466 
 992      3D9B
 993 2a0a 93DD3E06 		.ascii	"\223\335>\006\222\373\\\337~0\335\310\317y\200\334\227"
 993      92FB5CDF 
 993      7E30DDC8 
 993      CF7980DC 
 993      97
 994 2a1b 9BEB1FD8 		.ascii	"\233\353\037\330k\320\013\376\334\274\234A\024\363>"
 994      6BD00BFE 
 994      DCBC9C41 
 994      14F33E
 995 2a2a A67E181E 		.ascii	"\246~\030\036\241%\2050C(\201\231|%\231\262\373\313"
 995      A1258530 
 995      43288199 
 995      7C2599B2 
 995      FBCB
 996 2a3c 896C5BE1 		.ascii	"\211l[\341\304\033d\335\247\240U\321\320\302\241\305"
 996      C41B64DD 
 996      A7A055D1 
 996      D0C2A1C5 
 997 2a4c 0565C160 		.ascii	"\005e\301`\225\273\304O\004\0107\225\205\203\301\227"
 997      95BBC44F 
 997      04083795 
 997      8583C197 
 998 2a5c 9CCF01F7 		.ascii	"\234\317\001\367\340\013\332\027WvN\357\347\372\376"
 998      E00BDA17 
 998      57764EEF 
 998      E7FAFE
 999 2a6b 3FB12BD1 		.ascii	"?\261+\321\036"
 999      1E
 1000              		.text
 1001              		.section	.gnu.lto_.symtab.def1571aafd2a860,"",%progbits
 1002 0000 64617461 		.ascii	"dataLoggerInitialize\000\000\000\000\000\000\000\000"
 1002      4C6F6767 
 1002      6572496E 
 1002      69746961 
 1002      6C697A65 
 1003 001c 00000000 		.ascii	"\000\000\000\000S\003\000\000dataLoggerStop\000\000"
 1003      53030000 
 1003      64617461 
 1003      4C6F6767 
 1003      65725374 
 1004 0034 00000000 		.ascii	"\000\000\000\000\000\000\000\000\000\000\370\003\000"
 1004      00000000 
 1004      0000F803 
 1004      00
 1005 0041 006C6F67 		.ascii	"\000logfileNew\000\000\000\000\000\000\000\000\000\000"
 1005      66696C65 
 1005      4E657700 
 1005      00000000 
 1005      00000000 
 1006 0056 0000FE03 		.ascii	"\000\000\376\003\000\000logfileSize\000\000\000\000"
ARM GAS  /tmp/cc12Qys9.s 			page 81


 1006      00006C6F 
 1006      6766696C 
 1006      6553697A 
 1006      65000000 
 1007 006b 00000000 		.ascii	"\000\000\000\000\000\000\000\000\013\004\000\000log"
 1007      00000000 
 1007      0B040000 
 1007      6C6F67
 1008 007a 66696C65 		.ascii	"fileWriteCsv\000\000\000\000\000\000\000\000\000\000"
 1008      57726974 
 1008      65437376 
 1008      00000000 
 1008      00000000 
 1009 0090 00001104 		.ascii	"\000\000\021\004\000\000logfileGetWrCount\000\000\000"
 1009      00006C6F 
 1009      6766696C 
 1009      65476574 
 1009      5772436F 
 1010 00aa 00000000 		.ascii	"\000\000\000\000\000\000\000\000\000!\004\000\000lo"
 1010      00000000 
 1010      00210400 
 1010      006C6F
 1011 00b9 6766696C 		.ascii	"gfileClose\000\000\000\000\000\000\000\000\000\000\000"
 1011      65436C6F 
 1011      73650000 
 1011      00000000 
 1011      00000000 
 1012 00ce 00270400 		.ascii	"\000'\004\000\000logfileOpenAppend\000\000\000\000\000"
 1012      006C6F67 
 1012      66696C65 
 1012      4F70656E 
 1012      41707065 
 1013 00e9 00000000 		.ascii	"\000\000\000\000\000\000\000-\004\000\000logfileWri"
 1013      0000002D 
 1013      0400006C 
 1013      6F676669 
 1013      6C655772 
 1014 00fe 74650000 		.ascii	"te\000\000\000\000\000\000\000\000\000\000\000\0001"
 1014      00000000 
 1014      00000000 
 1014      000031
 1015 010d 04000063 		.ascii	"\004\000\000chvprintf\000\000\002\000\000\000\000\000"
 1015      68767072 
 1015      696E7466 
 1015      00000200 
 1015      00000000 
 1016 0121 00000000 		.ascii	"\000\000\000\000@\004\000\000f_close\000\000\002\000"
 1016      40040000 
 1016      665F636C 
 1016      6F736500 
 1016      000200
 1017 0134 00000000 		.ascii	"\000\000\000\000\000\000\000\000O\004\000\000f_moun"
 1017      00000000 
 1017      4F040000 
 1017      665F6D6F 
 1017      756E
 1018 0146 74000002 		.ascii	"t\000\000\002\000\000\000\000\000\000\000\000\000\200"
ARM GAS  /tmp/cc12Qys9.s 			page 82


 1018      00000000 
 1018      00000000 
 1018      0080
 1019 0154 04000073 		.ascii	"\004\000\000sdmmcGetFS\000\000\002\000\000\000\000\000"
 1019      646D6D63 
 1019      47657446 
 1019      53000002 
 1019      00000000 
 1020 0169 00000000 		.ascii	"\000\000\000\000\206\004\000\000chThdSleep\000\000\002"
 1020      86040000 
 1020      63685468 
 1020      64536C65 
 1020      65700000 
 1021 017e 00000000 		.ascii	"\000\000\000\000\000\000\000\000\000\212\004\000\000"
 1021      00000000 
 1021      008A0400 
 1021      00
 1022 018b 665F6F70 		.ascii	"f_open\000\000\002\000\000\000\000\000\000\000\000\000"
 1022      656E0000 
 1022      02000000 
 1022      00000000 
 1022      0000
 1023 019d 8E040000 		.ascii	"\216\004\000\000f_lseek\000\000\002\000\000\000\000"
 1023      665F6C73 
 1023      65656B00 
 1023      00020000 
 1023      0000
 1024 01af 00000000 		.ascii	"\000\000\000\000\000\224\004\000\000f_write\000\000"
 1024      00940400 
 1024      00665F77 
 1024      72697465 
 1024      0000
 1025 01c1 02000000 		.ascii	"\002\000\000\000\000\000\000\000\000\000\231\004\000"
 1025      00000000 
 1025      00009904 
 1025      00
 1026 01ce 00       		.ascii	"\000"
 1027              		.text
 1028              		.section	.gnu.lto_.opts,"",%progbits
 1029 0000 272D6D63 		.ascii	"'-mcpu=cortex-m4' '-mfloat-abi=hard' '-mfpu=fpv4-sp"
 1029      70753D63 
 1029      6F727465 
 1029      782D6D34 
 1029      2720272D 
 1030 0033 2D643136 		.ascii	"-d16' '-mno-thumb-interwork' '-mthumb' '-O2' '-fomi"
 1030      2720272D 
 1030      6D6E6F2D 
 1030      7468756D 
 1030      622D696E 
 1031 0066 742D6672 		.ascii	"t-frame-pointer' '-falign-functions=16' '-ffunction"
 1031      616D652D 
 1031      706F696E 
 1031      74657227 
 1031      20272D66 
 1032 0099 2D736563 		.ascii	"-sections' '-fdata-sections' '-fno-common' '-flto' "
 1032      74696F6E 
 1032      73272027 
ARM GAS  /tmp/cc12Qys9.s 			page 83


 1032      2D666461 
 1032      74612D73 
 1033 00cc 272D6673 		.ascii	"'-fsingle-precision-constant'\000"
 1033      696E676C 
 1033      652D7072 
 1033      65636973 
 1033      696F6E2D 
 1034              		.text
 1035              		.section	.text.chprintf,"ax",%progbits
 1036              		.align	2
 1037              		.p2align 4,,15
 1038              		.thumb
 1039              		.thumb_func
 1040              		.type	chprintf, %function
 1041              	chprintf:
 1042              		@ args = 4, pretend = 12, frame = 8
 1043              		@ frame_needed = 0, uses_anonymous_args = 1
 1044 0000 0EB4     		push	{r1, r2, r3}
 1045 0002 00B5     		push	{lr}
 1046 0004 82B0     		sub	sp, sp, #8
 1047 0006 03AA     		add	r2, sp, #12
 1048 0008 52F8041B 		ldr	r1, [r2], #4
 1049 000c 0192     		str	r2, [sp, #4]
 1050 000e FFF7FEFF 		bl	chvprintf
 1051 0012 02B0     		add	sp, sp, #8
 1052              		@ sp needed
 1053 0014 5DF804EB 		ldr	lr, [sp], #4
 1054 0018 03B0     		add	sp, sp, #12
 1055 001a 7047     		bx	lr
 1056              		.size	chprintf, .-chprintf
 1057 001c AFF30080 		.section	.text.dataLoggerInitialize,"ax",%progbits
 1058              		.align	2
 1059              		.p2align 4,,15
 1060              		.global	dataLoggerInitialize
 1061              		.thumb
 1062              		.thumb_func
 1063              		.type	dataLoggerInitialize, %function
 1064              	dataLoggerInitialize:
 1065              		@ args = 0, pretend = 0, frame = 0
 1066              		@ frame_needed = 0, uses_anonymous_args = 0
 1067 0000 70B5     		push	{r4, r5, r6, lr}
 1068 0002 0446     		mov	r4, r0
 1069 0004 0D46     		mov	r5, r1
 1070 0006 DAB1     		cbz	r2, .L6
 1071 0008 C0B1     		cbz	r0, .L3
 1072 000a 1249     		ldr	r1, .L11
 1073 000c 124E     		ldr	r6, .L11+4
 1074 000e 0260     		str	r2, [r0]
 1075 0010 1046     		mov	r0, r2
 1076 0012 002D     		cmp	r5, #0
 1077 0014 08BF     		it	eq
 1078 0016 0D46     		moveq	r5, r1
 1079 0018 3360     		str	r3, [r6]
 1080 001a FFF7FEFF 		bl	sdmmcGetFS
 1081 001e A560     		str	r5, [r4, #8]
 1082 0020 2946     		mov	r1, r5
 1083 0022 6060     		str	r0, [r4, #4]
ARM GAS  /tmp/cc12Qys9.s 			page 84


 1084 0024 0122     		movs	r2, #1
 1085 0026 FFF7FEFF 		bl	f_mount
 1086 002a 0546     		mov	r5, r0
 1087 002c 58B9     		cbnz	r0, .L10
 1088 002e 0123     		movs	r3, #1
 1089 0030 3068     		ldr	r0, [r6]
 1090 0032 2373     		strb	r3, [r4, #12]
 1091 0034 0949     		ldr	r1, .L11+8
 1092 0036 FFF7FEFF 		bl	chprintf
 1093 003a 2846     		mov	r0, r5
 1094              	.L3:
 1095 003c 40B2     		sxtb	r0, r0
 1096 003e 70BD     		pop	{r4, r5, r6, pc}
 1097              	.L6:
 1098 0040 1046     		mov	r0, r2
 1099 0042 40B2     		sxtb	r0, r0
 1100 0044 70BD     		pop	{r4, r5, r6, pc}
 1101              	.L10:
 1102 0046 3068     		ldr	r0, [r6]
 1103 0048 0549     		ldr	r1, .L11+12
 1104 004a 2A46     		mov	r2, r5
 1105 004c FFF7FEFF 		bl	chprintf
 1106 0050 FF20     		movs	r0, #255
 1107 0052 F3E7     		b	.L3
 1108              	.L12:
 1109              		.align	2
 1110              	.L11:
 1111 0054 00000000 		.word	.LC0
 1112 0058 00000000 		.word	.LANCHOR0
 1113 005c 34000000 		.word	.LC2
 1114 0060 04000000 		.word	.LC1
 1115              		.size	dataLoggerInitialize, .-dataLoggerInitialize
 1116 0064 AFF30080 		.section	.text.dataLoggerStop,"ax",%progbits
 1116      AFF30080 
 1116      AFF30080 
 1117              		.align	2
 1118              		.p2align 4,,15
 1119              		.global	dataLoggerStop
 1120              		.thumb
 1121              		.thumb_func
 1122              		.type	dataLoggerStop, %function
 1123              	dataLoggerStop:
 1124              		@ args = 0, pretend = 0, frame = 0
 1125              		@ frame_needed = 0, uses_anonymous_args = 0
 1126 0000 074B     		ldr	r3, .L14
 1127 0002 0849     		ldr	r1, .L14+4
 1128 0004 10B5     		push	{r4, lr}
 1129 0006 0446     		mov	r4, r0
 1130 0008 1868     		ldr	r0, [r3]
 1131 000a FFF7FEFF 		bl	chprintf
 1132 000e 0020     		movs	r0, #0
 1133 0010 0146     		mov	r1, r0
 1134 0012 0246     		mov	r2, r0
 1135 0014 FFF7FEFF 		bl	f_mount
 1136 0018 0020     		movs	r0, #0
 1137 001a 2073     		strb	r0, [r4, #12]
 1138 001c 10BD     		pop	{r4, pc}
ARM GAS  /tmp/cc12Qys9.s 			page 85


 1139              	.L15:
 1140 001e 00BF     		.align	2
 1141              	.L14:
 1142 0020 00000000 		.word	.LANCHOR0
 1143 0024 54000000 		.word	.LC3
 1144              		.size	dataLoggerStop, .-dataLoggerStop
 1145 0028 AFF30080 		.section	.text.logfileNew,"ax",%progbits
 1145      AFF30080 
 1146              		.align	2
 1147              		.p2align 4,,15
 1148              		.global	logfileNew
 1149              		.thumb
 1150              		.thumb_func
 1151              		.type	logfileNew, %function
 1152              	logfileNew:
 1153              		@ args = 0, pretend = 0, frame = 0
 1154              		@ frame_needed = 0, uses_anonymous_args = 0
 1155 0000 2DE9F041 		push	{r4, r5, r6, r7, r8, lr}
 1156 0004 1D4E     		ldr	r6, .L22
 1157 0006 0F46     		mov	r7, r1
 1158 0008 0446     		mov	r4, r0
 1159 000a 9046     		mov	r8, r2
 1160 000c 3068     		ldr	r0, [r6]
 1161 000e 1C49     		ldr	r1, .L22+4
 1162 0010 1A46     		mov	r2, r3
 1163 0012 1D46     		mov	r5, r3
 1164 0014 FFF7FEFF 		bl	chprintf
 1165 0018 3F7B     		ldrb	r7, [r7, #12]	@ zero_extendqisi2
 1166 001a 0023     		movs	r3, #0
 1167 001c 2375     		strb	r3, [r4, #20]
 1168 001e E7B1     		cbz	r7, .L20
 1169 0020 2361     		str	r3, [r4, #16]
 1170 0022 4FF47A70 		mov	r0, #1000
 1171 0026 C4F80C80 		str	r8, [r4, #12]
 1172 002a 6560     		str	r5, [r4, #4]
 1173 002c FFF7FEFF 		bl	chThdSleep
 1174 0030 2946     		mov	r1, r5
 1175 0032 0A22     		movs	r2, #10
 1176 0034 E068     		ldr	r0, [r4, #12]
 1177 0036 FFF7FEFF 		bl	f_open
 1178 003a 1249     		ldr	r1, .L22+8
 1179 003c 0746     		mov	r7, r0
 1180 003e 3068     		ldr	r0, [r6]
 1181 0040 FFF7FEFF 		bl	chprintf
 1182 0044 4FF47A70 		mov	r0, #1000
 1183 0048 FFF7FEFF 		bl	chThdSleep
 1184 004c 6FB9     		cbnz	r7, .L21
 1185 004e 0123     		movs	r3, #1
 1186 0050 3846     		mov	r0, r7
 1187 0052 2375     		strb	r3, [r4, #20]
 1188 0054 40B2     		sxtb	r0, r0
 1189 0056 BDE8F081 		pop	{r4, r5, r6, r7, r8, pc}
 1190              	.L20:
 1191 005a 3068     		ldr	r0, [r6]
 1192 005c 0A49     		ldr	r1, .L22+12
 1193 005e FFF7FEFF 		bl	chprintf
 1194 0062 3846     		mov	r0, r7
ARM GAS  /tmp/cc12Qys9.s 			page 86


 1195 0064 40B2     		sxtb	r0, r0
 1196 0066 BDE8F081 		pop	{r4, r5, r6, r7, r8, pc}
 1197              	.L21:
 1198 006a 3068     		ldr	r0, [r6]
 1199 006c 0749     		ldr	r1, .L22+16
 1200 006e 3A46     		mov	r2, r7
 1201 0070 FFF7FEFF 		bl	chprintf
 1202 0074 F8B2     		uxtb	r0, r7
 1203 0076 40B2     		sxtb	r0, r0
 1204 0078 BDE8F081 		pop	{r4, r5, r6, r7, r8, pc}
 1205              	.L23:
 1206              		.align	2
 1207              	.L22:
 1208 007c 00000000 		.word	.LANCHOR0
 1209 0080 74000000 		.word	.LC4
 1210 0084 BC000000 		.word	.LC6
 1211 0088 9C000000 		.word	.LC5
 1212 008c D4000000 		.word	.LC7
 1213              		.size	logfileNew, .-logfileNew
 1214              		.section	.text.logfileSize,"ax",%progbits
 1215              		.align	2
 1216              		.p2align 4,,15
 1217              		.global	logfileSize
 1218              		.thumb
 1219              		.thumb_func
 1220              		.type	logfileSize, %function
 1221              	logfileSize:
 1222              		@ args = 0, pretend = 0, frame = 0
 1223              		@ frame_needed = 0, uses_anonymous_args = 0
 1224              		@ link register save eliminated.
 1225 0000 0020     		movs	r0, #0
 1226 0002 7047     		bx	lr
 1227              		.size	logfileSize, .-logfileSize
 1228 0004 AFF30080 		.section	.text.logfileWriteCsv,"ax",%progbits
 1228      AFF30080 
 1228      AFF30080 
 1229              		.align	2
 1230              		.p2align 4,,15
 1231              		.global	logfileWriteCsv
 1232              		.thumb
 1233              		.thumb_func
 1234              		.type	logfileWriteCsv, %function
 1235              	logfileWriteCsv:
 1236              		@ args = 0, pretend = 0, frame = 0
 1237              		@ frame_needed = 0, uses_anonymous_args = 0
 1238              		@ link register save eliminated.
 1239 0000 0020     		movs	r0, #0
 1240 0002 7047     		bx	lr
 1241              		.size	logfileWriteCsv, .-logfileWriteCsv
 1242 0004 AFF30080 		.section	.text.logfileGetWrCount,"ax",%progbits
 1242      AFF30080 
 1242      AFF30080 
 1243              		.align	2
 1244              		.p2align 4,,15
 1245              		.global	logfileGetWrCount
 1246              		.thumb
 1247              		.thumb_func
ARM GAS  /tmp/cc12Qys9.s 			page 87


 1248              		.type	logfileGetWrCount, %function
 1249              	logfileGetWrCount:
 1250              		@ args = 0, pretend = 0, frame = 0
 1251              		@ frame_needed = 0, uses_anonymous_args = 0
 1252              		@ link register save eliminated.
 1253 0000 0069     		ldr	r0, [r0, #16]
 1254 0002 7047     		bx	lr
 1255              		.size	logfileGetWrCount, .-logfileGetWrCount
 1256 0004 AFF30080 		.section	.text.logfileClose,"ax",%progbits
 1256      AFF30080 
 1256      AFF30080 
 1257              		.align	2
 1258              		.p2align 4,,15
 1259              		.global	logfileClose
 1260              		.thumb
 1261              		.thumb_func
 1262              		.type	logfileClose, %function
 1263              	logfileClose:
 1264              		@ args = 0, pretend = 0, frame = 0
 1265              		@ frame_needed = 0, uses_anonymous_args = 0
 1266 0000 10B5     		push	{r4, lr}
 1267 0002 0446     		mov	r4, r0
 1268 0004 C068     		ldr	r0, [r0, #12]
 1269 0006 FFF7FEFF 		bl	f_close
 1270 000a 18B1     		cbz	r0, .L28
 1271 000c 0023     		movs	r3, #0
 1272 000e 2361     		str	r3, [r4, #16]
 1273 0010 2375     		strb	r3, [r4, #20]
 1274 0012 0120     		movs	r0, #1
 1275              	.L28:
 1276 0014 40B2     		sxtb	r0, r0
 1277 0016 10BD     		pop	{r4, pc}
 1278              		.size	logfileClose, .-logfileClose
 1279 0018 AFF30080 		.section	.text.logfileOpenAppend,"ax",%progbits
 1279      AFF30080 
 1280              		.align	2
 1281              		.p2align 4,,15
 1282              		.global	logfileOpenAppend
 1283              		.thumb
 1284              		.thumb_func
 1285              		.type	logfileOpenAppend, %function
 1286              	logfileOpenAppend:
 1287              		@ args = 0, pretend = 0, frame = 0
 1288              		@ frame_needed = 0, uses_anonymous_args = 0
 1289 0000 38B5     		push	{r3, r4, r5, lr}
 1290 0002 0546     		mov	r5, r0
 1291 0004 1222     		movs	r2, #18
 1292 0006 C068     		ldr	r0, [r0, #12]
 1293 0008 6968     		ldr	r1, [r5, #4]
 1294 000a FFF7FEFF 		bl	f_open
 1295 000e 0446     		mov	r4, r0
 1296 0010 08B1     		cbz	r0, .L35
 1297              	.L31:
 1298 0012 60B2     		sxtb	r0, r4
 1299 0014 38BD     		pop	{r3, r4, r5, pc}
 1300              	.L35:
 1301 0016 E868     		ldr	r0, [r5, #12]
ARM GAS  /tmp/cc12Qys9.s 			page 88


 1302 0018 C168     		ldr	r1, [r0, #12]
 1303 001a FFF7FEFF 		bl	f_lseek
 1304 001e 0446     		mov	r4, r0
 1305 0020 0028     		cmp	r0, #0
 1306 0022 F6D0     		beq	.L31
 1307 0024 E868     		ldr	r0, [r5, #12]
 1308 0026 FFF7FEFF 		bl	f_close
 1309 002a 60B2     		sxtb	r0, r4
 1310 002c 38BD     		pop	{r3, r4, r5, pc}
 1311              		.size	logfileOpenAppend, .-logfileOpenAppend
 1312 002e 00BF     		.section	.text.logfileWrite,"ax",%progbits
 1313              		.align	2
 1314              		.p2align 4,,15
 1315              		.global	logfileWrite
 1316              		.thumb
 1317              		.thumb_func
 1318              		.type	logfileWrite, %function
 1319              	logfileWrite:
 1320              		@ args = 0, pretend = 0, frame = 8
 1321              		@ frame_needed = 0, uses_anonymous_args = 0
 1322 0000 F0B5     		push	{r4, r5, r6, r7, lr}
 1323 0002 1C46     		mov	r4, r3
 1324 0004 83B0     		sub	sp, sp, #12
 1325 0006 0F46     		mov	r7, r1
 1326 0008 1546     		mov	r5, r2
 1327 000a 0646     		mov	r6, r0
 1328 000c 23B1     		cbz	r3, .L40
 1329 000e FFF7FEFF 		bl	logfileOpenAppend
 1330 0012 10F0FF0F 		tst	r0, #255
 1331 0016 0AD1     		bne	.L38
 1332              	.L40:
 1333 0018 3946     		mov	r1, r7
 1334 001a F068     		ldr	r0, [r6, #12]
 1335 001c 2A46     		mov	r2, r5
 1336 001e 01AB     		add	r3, sp, #4
 1337 0020 FFF7FEFF 		bl	f_write
 1338 0024 10B9     		cbnz	r0, .L43
 1339 0026 019B     		ldr	r3, [sp, #4]
 1340 0028 9D42     		cmp	r5, r3
 1341 002a 03D0     		beq	.L47
 1342              	.L43:
 1343 002c 0120     		movs	r0, #1
 1344              	.L38:
 1345 002e 40B2     		sxtb	r0, r0
 1346 0030 03B0     		add	sp, sp, #12
 1347              		@ sp needed
 1348 0032 F0BD     		pop	{r4, r5, r6, r7, pc}
 1349              	.L47:
 1350 0034 3369     		ldr	r3, [r6, #16]
 1351 0036 0133     		adds	r3, r3, #1
 1352 0038 3361     		str	r3, [r6, #16]
 1353 003a 1CB9     		cbnz	r4, .L48
 1354 003c 2046     		mov	r0, r4
 1355 003e 40B2     		sxtb	r0, r0
 1356 0040 03B0     		add	sp, sp, #12
 1357              		@ sp needed
 1358 0042 F0BD     		pop	{r4, r5, r6, r7, pc}
ARM GAS  /tmp/cc12Qys9.s 			page 89


 1359              	.L48:
 1360 0044 F068     		ldr	r0, [r6, #12]
 1361 0046 FFF7FEFF 		bl	f_close
 1362 004a 0028     		cmp	r0, #0
 1363 004c EFD0     		beq	.L38
 1364 004e C0B2     		uxtb	r0, r0
 1365 0050 EDE7     		b	.L38
 1366              		.size	logfileWrite, .-logfileWrite
 1367 0052 00BFAFF3 		.section	.bss.DEBUG,"aw",%nobits
 1367      0080AFF3 
 1367      0080AFF3 
 1367      0080
 1368              		.align	2
 1369              		.set	.LANCHOR0,. + 0
 1370              		.type	DEBUG, %object
 1371              		.size	DEBUG, 4
 1372              	DEBUG:
 1373 0000 00000000 		.space	4
 1374              		.section	.rodata.str1.4,"aMS",%progbits,1
 1375              		.align	2
 1376              	.LC0:
 1377 0000 00       		.ascii	"\000"
 1378 0001 000000   		.space	3
 1379              	.LC1:
 1380 0004 44415441 		.ascii	"DATALOGGER: Error Mounting Filesystem,ERR%20d\012\000"
 1380      4C4F4747 
 1380      45523A20 
 1380      4572726F 
 1380      72204D6F 
 1381 0033 00       		.space	1
 1382              	.LC2:
 1383 0034 44415441 		.ascii	"DATALOGGER: Datalogger Started\012\000"
 1383      4C4F4747 
 1383      45523A20 
 1383      44617461 
 1383      6C6F6767 
 1384              	.LC3:
 1385 0054 44415441 		.ascii	"DATALOGGER: Datalogger Stopped\012\000"
 1385      4C4F4747 
 1385      45523A20 
 1385      44617461 
 1385      6C6F6767 
 1386              	.LC4:
 1387 0074 44415441 		.ascii	"DATALOGGER: Creating New Logfile %s\012\000"
 1387      4C4F4747 
 1387      45523A20 
 1387      43726561 
 1387      74696E67 
 1388 0099 000000   		.space	3
 1389              	.LC5:
 1390 009c 44415441 		.ascii	"DATALOGGER: Driver not mounted\012\000"
 1390      4C4F4747 
 1390      45523A20 
 1390      44726976 
 1390      6572206E 
 1391              	.LC6:
 1392 00bc 44415441 		.ascii	"DATALOGGER: FILE OPEN\012\000"
ARM GAS  /tmp/cc12Qys9.s 			page 90


 1392      4C4F4747 
 1392      45523A20 
 1392      46494C45 
 1392      204F5045 
 1393 00d3 00       		.space	1
 1394              	.LC7:
 1395 00d4 44415441 		.ascii	"DATALOGGER: Error creating Logfile, ERR%02d\012\000"
 1395      4C4F4747 
 1395      45523A20 
 1395      4572726F 
 1395      72206372 
 1396              		.comm	__gnu_lto_v1,1,1
 1397 0101 000000   		.ident	"GCC: (GNU Tools for ARM Embedded Processors) 4.8.4 20140526 (release) [ARM/embedded-4_8-br
ARM GAS  /tmp/cc12Qys9.s 			page 91


DEFINED SYMBOLS
                            *ABS*:0000000000000000 datalogger.c
     /tmp/cc12Qys9.s:1036   .text.chprintf:0000000000000000 $t
     /tmp/cc12Qys9.s:1041   .text.chprintf:0000000000000000 chprintf
     /tmp/cc12Qys9.s:1058   .text.dataLoggerInitialize:0000000000000000 $t
     /tmp/cc12Qys9.s:1064   .text.dataLoggerInitialize:0000000000000000 dataLoggerInitialize
     /tmp/cc12Qys9.s:1111   .text.dataLoggerInitialize:0000000000000054 $d
     /tmp/cc12Qys9.s:1117   .text.dataLoggerStop:0000000000000000 $t
     /tmp/cc12Qys9.s:1123   .text.dataLoggerStop:0000000000000000 dataLoggerStop
     /tmp/cc12Qys9.s:1142   .text.dataLoggerStop:0000000000000020 $d
     /tmp/cc12Qys9.s:1146   .text.logfileNew:0000000000000000 $t
     /tmp/cc12Qys9.s:1152   .text.logfileNew:0000000000000000 logfileNew
     /tmp/cc12Qys9.s:1208   .text.logfileNew:000000000000007c $d
     /tmp/cc12Qys9.s:1215   .text.logfileSize:0000000000000000 $t
     /tmp/cc12Qys9.s:1221   .text.logfileSize:0000000000000000 logfileSize
     /tmp/cc12Qys9.s:1229   .text.logfileWriteCsv:0000000000000000 $t
     /tmp/cc12Qys9.s:1235   .text.logfileWriteCsv:0000000000000000 logfileWriteCsv
     /tmp/cc12Qys9.s:1243   .text.logfileGetWrCount:0000000000000000 $t
     /tmp/cc12Qys9.s:1249   .text.logfileGetWrCount:0000000000000000 logfileGetWrCount
     /tmp/cc12Qys9.s:1257   .text.logfileClose:0000000000000000 $t
     /tmp/cc12Qys9.s:1263   .text.logfileClose:0000000000000000 logfileClose
     /tmp/cc12Qys9.s:1280   .text.logfileOpenAppend:0000000000000000 $t
     /tmp/cc12Qys9.s:1286   .text.logfileOpenAppend:0000000000000000 logfileOpenAppend
     /tmp/cc12Qys9.s:1313   .text.logfileWrite:0000000000000000 $t
     /tmp/cc12Qys9.s:1319   .text.logfileWrite:0000000000000000 logfileWrite
     /tmp/cc12Qys9.s:1368   .bss.DEBUG:0000000000000000 $d
     /tmp/cc12Qys9.s:1372   .bss.DEBUG:0000000000000000 DEBUG
     /tmp/cc12Qys9.s:1375   .rodata.str1.4:0000000000000000 $d
                            *COM*:0000000000000001 __gnu_lto_v1
     /tmp/cc12Qys9.s:1116   .text.dataLoggerInitialize:0000000000000064 $t
     /tmp/cc12Qys9.s:1145   .text.dataLoggerStop:0000000000000028 $t

UNDEFINED SYMBOLS
chvprintf
sdmmcGetFS
f_mount
chThdSleep
f_open
f_close
f_lseek
f_write
