ARM GAS  /tmp/ccGgyJ3f.s 			page 1


   1              		.syntax unified
   2              		.cpu cortex-m4
   3              		.eabi_attribute 27, 3
   4              		.eabi_attribute 28, 1
   5              		.fpu fpv4-sp-d16
   6              		.eabi_attribute 20, 1
   7              		.eabi_attribute 21, 1
   8              		.eabi_attribute 23, 3
   9              		.eabi_attribute 24, 1
  10              		.eabi_attribute 25, 1
  11              		.eabi_attribute 26, 1
  12              		.eabi_attribute 30, 2
  13              		.eabi_attribute 34, 1
  14              		.eabi_attribute 18, 4
  15              		.thumb
  16              		.file	"datasample.c"
  17              		.section	.gnu.lto_.jmpfuncs.2719c2f436ef15ab,"",%progbits
  18 0000 789C6362 		.ascii	"x\234cb`b\300\006L\031\031\030\232\2004\013\003#P\001"
  18      6062C006 
  18      4C191918 
  18      9A80340B 
  18      03235001 
  19 0014 5335C3AF 		.ascii	"S5\303\257\206\031\015\002\231\214\014r\014\214s\033"
  19      86190D02 
  19      998C0C72 
  19      0C8C731B 
  20 0024 66386432 		.ascii	"f8d22\202\325\241J&2.b\224\243\\\234I\216\201\005b\011"
  20      3282D5A1 
  20      4A26322E 
  20      6294A35C 
  20      9C498E81 
  21 003b 33589291 		.ascii	"3X\222\221\231\005\310`,\203\252\351\000\251a\311e\204"
  21      9905C860 
  21      2C83AAE9 
  21      00A961C9 
  21      6584
  22 004d 3A952982 		.ascii	":\225)\2021\223\221\025\310\220\305\224\005\313\261"
  22      31939115 
  22      C890C594 
  22      05CBB1
  23 005c 35A098CE 		.ascii	"5\240\230\316.\307\300\0151\235\003\253\327\211\001"
  23      2EC7C00D 
  23      319D03AB 
  23      D78901
  24 006b CCCC4C50 		.ascii	"\314\314LPWc\020@\2472\3512\260\351Z\001!C\271j\212"
  24      57631040 
  24      A732E932 
  24      B0E95A01 
  24      2143B96A 
  25 0080 8E6A312A 		.ascii	"\216j1*\3223J\203\021\206i(\\lb\306p\002M\235\031n\202"
  25      D2334A83 
  25      11866928 
  25      5C6C62C6 
  25      70024D9D 
  26 0097 8B010061 		.ascii	"\213\001\000a\177G\234"
  26      7F479C
  27              		.text
ARM GAS  /tmp/ccGgyJ3f.s 			page 2


  28              		.section	.gnu.lto_.inline.2719c2f436ef15ab,"",%progbits
  29 0000 789CE593 		.ascii	"x\234\345\2231J\004A\020E\253\272\333\231Y\020\\dQ\020"
  29      314A0441 
  29      1045ABBA 
  29      DB995910 
  29      5C645110 
  30 0014 C48D1456 		.ascii	"\304\215\024V3S\221=\301\2027\252\320p\017`\320\307"
  30      3353913D 
  30      C18237AA 
  30      D0700F60 
  30      D0C7
  31 0026 104CFA0C 		.ascii	"\020L\372\014z\201\011\014<\206\335\365\253\206\011"
  31      7A81090C 
  31      3C86DDF5 
  31      AB8609
  32 0035 16D4D8D9 		.ascii	"\026\324\330\331\245^Uw\317\377A\377\011\024\350\320"
  32      A55E5577 
  32      CFFF41FF 
  32      0914E8D0 
  33 0045 F394C08A 		.ascii	"\363\224\300\212\353wb&\256CX\345\027\246\213\362\306"
  33      EB776226 
  33      AE4358E5 
  33      17A68BF2 
  33      C6
  34 0056 FA523CAE 		.ascii	"\372R<\256K\373\335\217d\372\240O\342\263\246\021I\225"
  34      4BFBDD8F 
  34      64FAA04F 
  34      E2B3A611 
  34      4995
  35 0068 B4CD3D70 		.ascii	"\264\315=p\244\020\240$\305h\260E;\202\027\306\016\023"
  35      A410A024 
  35      C568B045 
  35      3B8217C6 
  35      0E13
  36 007a 908162B0 		.ascii	"\220\201b\260#\200\0148\002\024`\004d\201\275\305\035"
  36      23800C38 
  36      02146004 
  36      6481BDC5 
  36      1D
  37 008b 7FF5D43F 		.ascii	"\177\365\324?\337\004\252M\012\024_\317Sk\227\272\260"
  37      DF04AA4D 
  37      0A145FCF 
  37      536B97BA 
  37      B0
  38 009c 6C65ADED 		.ascii	"le\255\355\272\225\255\266\333V\204\003\2405`@M\006"
  38      BA95ADB6 
  38      DB568403 
  38      A0356040 
  38      4D06
  39 00ae AD038641 		.ascii	"\255\003\206A+TEe\005\272\242\302\002e\201\264k\233"
  39      2B544565 
  39      05BAA2C2 
  39      026581B4 
  39      6B9B
  40 00c0 B8AB9BBC 		.ascii	"\270\253\233\274\353\233\201;\230\205{\230\211\273\230"
  40      EB9B813B 
  40      98857B98 
ARM GAS  /tmp/ccGgyJ3f.s 			page 3


  40      89BB98
  41 00cf 8DFBB8D1 		.ascii	"\215\373\270\321\344\344V\223\227\233Mn\242\241\350"
  41      E4E45693 
  41      979B4D6E 
  41      A2A1E8
  42 00de 4E6A2CEA 		.ascii	"Nj,\352\265\326\377\375\003\321e]\332\357\376\376\213"
  42      B5D6FFFD 
  42      03D1655D 
  42      DAEFFEFE 
  42      8B
  43 00ef 74FAC881 		.ascii	"t\372\310\201=\015\232\303._\315\223U\017\375\242It"
  43      3D0D9AC3 
  43      2E5FCD93 
  43      550FFDA2 
  43      4974
  44 0101 BBE115EE 		.ascii	"\273\341\025\3564\340N\001\211\270oL\005S\006\012c\017"
  44      34E04E01 
  44      89B86F4C 
  44      0553060A 
  44      630F
  45 0113 28F68285 		.ascii	"(\366\202\205\016G\004{\231\347I\314\351@J-\272\331"
  45      0E47047B 
  45      99E749CC 
  45      E9404A2D 
  45      BAD9
  46 0125 C3BA997D 		.ascii	"\303\272\231}'\310T\253\255\340\242\206\177\032\257"
  46      27C854AB 
  46      ADE0A286 
  46      7F1AAF
  47 0134 F67C038A 		.ascii	"\366|\003\212\352\331\002"
  47      EAD902
  48              		.text
  49              		.section	.gnu.lto_.pureconst.2719c2f436ef15ab,"",%progbits
  50 0000 789C6362 		.ascii	"x\234cb`b\340d\200\000\026\006)F)f\011\026)\000\002"
  50      6062E064 
  50      80001606 
  50      29462966 
  50      09162900 
  51 0015 D60080   		.ascii	"\326\000\200"
  52              		.text
  53              		.section	.gnu.lto_datasample_init.2719c2f436ef15ab,"",%progbits
  54 0000 789CA596 		.ascii	"x\234\245\226?o\323@\030\207\337\3379\216\343\270\211"
  54      3F6FD340 
  54      1887DFDF 
  54      398EE3B8 
  54      89
  55 0011 03B4A032 		.ascii	"\003\264\2402D0\243\260V\352\324\257\200TD\031M@\325"
  55      4430A3B0 
  55      56EAD4AF 
  55      80544419 
  55      4D40D5
  56 0024 49544282 		.ascii	"ITB\202\211\016\275B\221P\221\332\216\201\212\241[\205"
  56      890EBD42 
  56      915091DA 
  56      8E818AA1 
  56      5B85
  57 0036 AA82C4D2 		.ascii	"\252\202\304\322n\371\002m\370\263t\354\314\302\320"
ARM GAS  /tmp/ccGgyJ3f.s 			page 4


  57      6EF9026D 
  57      F8B374EC 
  57      CCC2D0
  58 0045 A15518C2 		.ascii	"\241U\030\302\371\316\310\004\345-\227\346\"\337\033"
  58      F9CEC804 
  58      E52D97E6 
  58      22DF1B
  59 0054 3B7E1F3F 		.ascii	";~\037?\376\331:E\220\240\177\307\244\336\212\241\255"
  59      FED93A45 
  59      90A07FC7 
  59      A4DE8AA1 
  59      AD
  60 0065 F00862E3 		.ascii	"\360\010b\343\220h\271$\200\364\013\201\226\004\226"
  60      9068B924 
  60      80F40B81 
  60      960496
  61 0074 EEC39CFB 		.ascii	"\356\303\234\373Q\264\217{\275\335O+?\0127\201\005h"
  61      51B48F7B 
  61      BDDD4F2B 
  61      3F0A3781 
  61      0568
  62 0086 9C04F97A 		.ascii	"\234\004\371zB\220N\241\236D\224\036\323\303\247\025"
  62      42904EA1 
  62      9E44941E 
  62      D3C3A715 
  63 0096 A5366E10 		.ascii	"\2456n\0205\315\356\254\236S\342]\210\264z\007\364\242"
  63      35CDEEAC 
  63      9E53E25D 
  63      88B47A07 
  63      F4A2
  64 00a8 FBF2E717 		.ascii	"\373\362\347\027$\330\202O\363\020\213\364\\7\336\242"
  64      24D8824F 
  64      F3108BF4 
  64      5C37DEA2 
  65 00b8 0F4A8F29 		.ascii	"\017J\217)\011o\223\336A\2420\017\314\351\352\033\203"
  65      096F93DE 
  65      41A2300F 
  65      CCE9EA1B 
  65      83
  66 00c9 07F84BBD 		.ascii	"\007\370K\275C\257\332\223\266\237h\221\272\352\265"
  66      43AFDA93 
  66      B69F6891 
  66      BAEAB5
  67 00d8 AA49149B 		.ascii	"\252I\024\233\260'\031fW\265\224\272'\021\324\251\366"
  67      B0271966 
  67      57B594BA 
  67      2711D4A9 
  67      F6
  68 00e9 5EB56624 		.ascii	"^\265f$J\224\265H\355KF\343$\327\360\215\0062\215;\022"
  68      4A94B548 
  68      ED4B46E3 
  68      24D7F08D 
  68      06328D3B 
  69 00fe E5DC281A 		.ascii	"\345\334(\032l\204\254\212!\314|k\326\376\274\243Ac"
  69      6C84AC8A 
  69      21CC7C6B 
  69      D6FEBCA3 
ARM GAS  /tmp/ccGgyJ3f.s 			page 5


  69      4163
  70 0110 75BA66DD 		.ascii	"u\272f\335*\351\257\271\327i\356\025\\\334\313\033\302"
  70      2AE9AFB9 
  70      D769EE15 
  70      5CDCCB1B 
  70      C2
  71 0121 2BE8F34A 		.ascii	"+\350\363J\260\213z\277\322\257\\)4J\"W\252:+\025\206"
  71      B08B7ABF 
  71      D2AF5C29 
  71      344A2257 
  71      AA3A2B15 
  72 0136 500AFFA7 		.ascii	"P\012\377\247\324\313\225\242\276\227H+y\316J\376\020"
  72      D4CB95A2 
  72      BE97482B 
  72      79CE4AFE 
  72      10
  73 0147 4AD1F94A 		.ascii	"J\321\371J\373\333e\333\235]\274\"\021\017\276x\321"
  73      FBDB65DB 
  73      9D5DBC22 
  73      110FBE78 
  73      D1
  74 0158 D4EBF456 		.ascii	"\324\353\364V\225L\177L\026p\264z\325\221\0200\204\263"
  74      954C7F4C 
  74      1670B47A 
  74      D5911030 
  74      84B3
  75 016a D5AA23A1 		.ascii	"\325\252#\241\304\020Zo&\034\011!C\330s&\224\271\034"
  75      C4105A6F 
  75      261C0921 
  75      43D87326 
  75      94B91C
  76 017d 9C091197 		.ascii	"\234\011\021\227\2033a\214\313\341\320\225P\341rXs}"
  76      8333618C 
  76      CBE1D095 
  76      50E17258 
  76      737D
  77 018f 9A552E87 		.ascii	"\232U.\2075W\207\230\313\301\331\241\306\345\260\356"
  77      35578798 
  77      CBC1D9A1 
  77      C6E5B0EE 
  78 019f 4AB8C4E5 		.ascii	"J\270\304\345\320q\275\213\313\\\016\353\343\216\204"
  78      D071BD8B 
  78      CB5C0EEB 
  78      E38E84
  79 01ae 2B5C0E9D 		.ascii	"+\\\016\235\330\022\032\264\223-\014q\016\253\015\206"
  79      D8121AB4 
  79      932D0C71 
  79      0EAB0D86 
  80 01be 8D9B9A1E 		.ascii	"\215\233\232\036\261\267\306\004\364m44x\364\336\210"
  80      B1B7C604 
  80      F46D3434 
  80      78F4DE88 
  81 01ce 68C1A38F 		.ascii	"h\301\243\217.\202\236p\012\344lD\3649\201\264\276\217"
  81      2E829E70 
  81      0AE46C44 
  81      F43981B4 
  81      BE8F
ARM GAS  /tmp/ccGgyJ3f.s 			page 6


  82 01e0 866602F9 		.ascii	"\206f\002\371J\313\307\007\342\317\322o\307\254^\366"
  82      4ACBC707 
  82      E2CFD26F 
  82      C7AC5EF6 
  83 01f0 F51F96B4 		.ascii	"\365\037\226\264\243\3620y\226<M\026\236<~t\273I\305"
  83      A3F23079 
  83      963C4D16 
  83      9E3C7E74 
  83      BB49C5
  84 0203 C6B4FE90 		.ascii	"\306\264\376\220h\320o(\341\337\260"
  84      68D06F28 
  84      E1DFB0
  85              		.text
  86              		.section	.gnu.lto_datasample_writeToLog.2719c2f436ef15ab,"",%progbits
  87 0000 789C8D96 		.ascii	"x\234\215\226Kh\023A\030\307\277o\363l\322<\232\246"
  87      4B681341 
  87      18C7BF6F 
  87      F36CD23C 
  87      9AA6
  88 0012 E93B7D3F 		.ascii	"\351;}?\323F[\333\2427\257\236\255\250\007\221\330\227"
  88      D3465BDB 
  88      A237AF9E 
  88      ADA80791 
  88      D897
  89 0024 0BAD0815 		.ascii	"\013\255\010\025\012\366\340\326\010\012z(\236\212\""
  89      0AF6E0D6 
  89      080A7A28 
  89      9E8A22
  90 0033 22DEF4D0 		.ascii	"\"\336\364\320\223(x\260\340\301\202\324\307\255\024"
  90      932878B0 
  90      E0C182D4 
  90      C7AD14
  91 0042 D152110F 		.ascii	"\321R\021\017\202\024\274\224*\324\357\233\335\331\315"
  91      8214BC94 
  91      2AD4EF9B 
  91      DDD9CD
  92 0051 86EC364B 		.ascii	"\206\3546K;\363\337\331\371~\337\314\177'3\253\200\002"
  92      3BF3DFD9 
  92      F97EDFCC 
  92      7F2733AB 
  92      8002
  93 0063 C5573DFD 		.ascii	"\305W=\375g\302\000w\251F\017\240\262\374\001`)\250"
  93      67C20077 
  93      A9460FA0 
  93      B2FC0160 
  93      29A8
  94 0075 20B20084 		.ascii	" \262\000\204\033\012\3368\217\334\025\333\341\211\246"
  94      1B0ADE38 
  94      8FDC15DB 
  94      E189A6
  95 0084 2D6FFF78 		.ascii	"-o\377x\360\036\265\373\332\322\356\301ALEb\306\021"
  95      F01EB5FB 
  95      DAD2EEC1 
  95      414C4562 
  95      C611
  96 0096 2610CEA1 		.ascii	"&\020\316\241\212\330**\305kO\262\252\254m\037\034\374"
  96      8AD82A2A 
ARM GAS  /tmp/ccGgyJ3f.s 			page 7


  96      C56B4FB2 
  96      AAAC6D1F 
  96      1CFC
  97 00a8 7BBEFC0E 		.ascii	"{\276\374\016O(8\207\340\001\025=^.\374Tx\003T\370\202"
  97      4F283887 
  97      E001153D 
  97      5E2EFC54 
  97      780354F8 
  98 00bd 5C5450E1 		.ascii	"\\TP\341\017q[\230\212@%\025\301\010\253(\253\030\253"
  98      0F715B98 
  98      8A402515 
  98      C108AB28 
  98      AB18AB
  99 00d0 38AB2A56 		.ascii	"8\253*V\011V\325\254\222\254jX\245X\325\262\252cU\317"
  99      0956D5AC 
  99      92AC6A58 
  99      A558D5B2 
  99      AA6355CF 
 100 00e4 AA815523 		.ascii	"\252\201U#\253&V\315\254\322\254ZX\265\262jc\325\316"
 100      AB2656CD 
 100      ACD2AC5A 
 100      58B5B26A 
 100      63D5CE
 101 00f7 AA835527 		.ascii	"\252\203U'\253.V\335\254zX\365\262\352c\325\317*\303"
 101      AB2E56DD 
 101      AC7A58F5 
 101      B2EA63D5 
 101      CF2AC3
 102 010a 6A80D520 		.ascii	"j\200\325 \253,\253#\254\216\262\032b5\314j\004r\370"
 102      AB2CAB23 
 102      AC8EB21A 
 102      6235CC6A 
 102      0472F8
 103 011d 84AC1BA5 		.ascii	"\204\254\033\245\233\2121\232<\036'\025\"W|p\213\354"
 103      9B8A319A 
 103      3C1E2715 
 103      22577C70 
 103      8BEC
 104 012f 6CD51F03 		.ascii	"l\325\037\003[H\3278\225\354\374\031T\270\366l\300\315"
 104      5B48D738 
 104      95ECFC19 
 104      54B8F66C 
 104      C0CD
 105 0141 AD952DCC 		.ascii	"\255\225-\314\341S\364\301\014z2\320\257b\370!< \233"
 105      E153F4C1 
 105      0C7A32D0 
 105      AF62F821 
 105      3C209B
 106 0154 2B675061 		.ascii	"+gPa\273#\302\344K(\355\336\200\374\235|Z\206x)\212"
 106      BB23C2E4 
 106      4B28EDDE 
 106      80FC9D7C 
 106      5A867829 
 107 0169 7B85513C 		.ascii	"{\205Q<\272yJ\177\220\201g\032]\201Ch\024/\242\366\363"
 107      BA794A7F 
 107      9081671A 
 107      5D814368 
ARM GAS  /tmp/ccGgyJ3f.s 			page 8


 107      142FA2F6 
 108 017e 2FFF9AA3 		.ascii	"/\377\232\243\360/\302uzE\006\342\264\212\321\322\010"
 108      F02FC275 
 108      7A4506E2 
 108      B48AD1D2 
 108      08
 109 018f B4968040 		.ascii	"\264\226\200@\274\266\020\001\201\360\031\210\013*\306"
 109      BCB61001 
 109      81F01988 
 109      0B2AC6
 110 019e 2C5ABC34 		.ascii	",Z\2744M1jO\021\365\315[ER\2036\352E\213z\346P\252\267"
 110      4D316A4F 
 110      11F5CD5B 
 110      45528336 
 110      EA458B7A 
 111 01b6 88FADDA2 		.ascii	"\210\372\335\242V\010\252\337\242V\225M\365\025Q\177"
 111      5608AADF 
 111      A256954D 
 111      F515517F 
 112 01c6 5AD490CD 		.ascii	"Z\324\220\315D\242F\313\246\372m\324\255\315\257\225"
 112      44A246CB 
 112      A6FA6DD4 
 112      ADCDAF95 
 113 01d6 121A16EB 		.ascii	"\022\032\026\353#P:<`\305\374\316\257\3761GB\375\302"
 113      23503A3C 
 113      60C5FCCE 
 113      AFFE3147 
 113      42FDC2
 114 01e9 3A69CF22 		.ascii	":i\317\"E\334HA\007Rt\206\273\350\244Z\331\030s#U8\220"
 114      45DC4841 
 114      07527486 
 114      BBE8A45A 
 114      D9187323 
 115 0200 E214A793 		.ascii	"\342\024\247\223V\276\231c\252r#\205\034H\011\2123H"
 115      56BE9963 
 115      AA722385 
 115      1C48098A 
 115      3348
 116 0212 8F9B6463 		.ascii	"\217\233dc\265\033)\354@JR\234Nze\215\251\306\215T\351"
 116      B51B29EC 
 116      404A529C 
 116      4E7A658D 
 116      A9C68D54 
 117 0227 404A519C 		.ascii	"@JQ\234$\231>\325\272\221\"\016\244:\2123V\2015\246"
 117      24993ED5 
 117      BA91220E 
 117      A43A8A33 
 117      568135A6 
 118 023b 7A3752D4 		.ascii	"z7R\324\201\324@q\222d\372\324\350F\2129\220\232(\316"
 118      81D44071 
 118      9264FAD4 
 118      E8468A39 
 118      909A28CE 
 119 024f 5805D698 		.ascii	"X\005\326\230\232\335Hq\007R\232\342\014\222\365\356"
 119      9ADD4871 
 119      07529AE2 
 119      0C92F5EE 
ARM GAS  /tmp/ccGgyJ3f.s 			page 9


 120 025f 5ADC4855 		.ascii	"Z\334HU\016\244V\2123V\301\316\272\271\013\265\271\241"
 120      0EA4568A 
 120      3356C1CE 
 120      BAB90BB5 
 120      B9A1
 121 0271 120EA876 		.ascii	"\022\016\250v\212\223\250=\263\265\303\015U\355\200"
 121      8A93A83D 
 121      B3B5C30D 
 121      55ED80
 122 0280 EAA43863 		.ascii	"\352\2448c\035\024\214\252\313\015\225t@uS\234h\375"
 122      1D148CAA 
 122      CB0D9574 
 122      4075539C 
 122      68FD
 123 0292 B2B9B36B 		.ascii	"\262\271\263k\242z\006a\200P\306\316rL\305Dij\215\250"
 123      A27A0661 
 123      8050C6CE 
 123      724CC544 
 123      696A8DA8 
 124 02a6 B9050AAE 		.ascii	"\271\005\012\256\342\034\275\004\2249\326<\262\265\317"
 124      E21CBD04 
 124      9439D63C 
 124      B2B5CF
 125 02b5 96E36C39 		.ascii	"\226\343l99\3209G?\001e\216O^\331\232\261\345X,'\207"
 125      39D03947 
 125      3F01658E 
 125      4F5ED99A 
 125      B1E5582C 
 126 02cb E29C6380 		.ascii	"\342\234c\200\200z\216\275\002\257\006\313\364*U\226"
 126      807A8EBD 
 126      02AF06CB 
 126      F42A5596 
 127 02db 575902CA 		.ascii	"WY\002\312\034\226WG\312\364\252 \207\213WG\011(sX^"
 127      1C965747 
 127      CAF4AA20 
 127      878B5747 
 127      09287358 
 128 02f0 0D95E955 		.ascii	"\015\225\351UA\016\027\257\206\011\010\360\021\326\265"
 128      410E17AF 
 128      860908F0 
 128      11D6B5
 129 02ff CBB26964 		.ascii	"\313\262id\021\366\265;Z\\\305\352\011\343\214\327["
 129      11F6B53B 
 129      5A5CC5EA 
 129      09E38CD7 
 129      5B
 130 0310 F8144BCE 		.ascii	"\370\024K\316\241\021+\3205\232\"\036\256h\332\013\272"
 130      A1112BD0 
 130      359A221E 
 130      AE68DA0B 
 130      BA
 131 0321 4DA521F9 		.ascii	"M\245!\371H[9\251\322\256e\364\022_(~\372\"\240\343"
 131      485B39A9 
 131      D2AE65F4 
 131      125F287E 
 131      FA22A0E3 
 132 0335 9BCE5A3A 		.ascii	"\233\316Z:\030\305\211\024\025g@B\354\272)\261\3175"
ARM GAS  /tmp/ccGgyJ3f.s 			page 10


 132      18C58914 
 132      15674042 
 132      ECBA29B1 
 132      CF35
 133 0347 889D252D 		.ascii	"\210\235%-~\313\355\342\267\323-\226d\277x\241Ya\307"
 133      7ECBEDE2 
 133      B7D32D96 
 133      64BF78A1 
 133      5961C7
 134 035a B08A7562 		.ascii	"\260\212ub\016\277\362/\357\015\312\001\217\322\230"
 134      0EBFF22F 
 134      EF0DCA01 
 134      8FD298
 135 0369 790EB7D7 		.ascii	"y\016\267\327\314i\0357\347P?a\234\25338fLc\3016\015"
 135      CC691D37 
 135      E7503F61 
 135      9CAB3338 
 135      664C63C1 
 136 037f 8AE79934 		.ascii	"\212\347\2314\000}\267\321\276\366\031\226\0120\272"
 136      007DB7D1 
 136      BEF61996 
 136      0A30BA
 137 038e 69E36403 		.ascii	"i\343d\003}\2551'2\231\273\226\233\317\315]\235\235"
 137      7DAD3127 
 137      3299BB96 
 137      9BCFCD5D 
 137      9D9D
 138 03a0 CA4E8067 		.ascii	"\312N\200gv\352\312B\327\344@\327\274\375/;<-\213\241"
 138      76EACA42 
 138      D7E440D7 
 138      BCFD2F3B 
 138      3C2D8BA1 
 139 03b4 69DB6DA9 		.ascii	"i\333m\251\266cfQ\324o\314\271\010\301\177W\327s\334"
 139      B6636651 
 139      D46FCCB9 
 139      08C17F57 
 139      D773DC
 140              		.text
 141              		.section	.gnu.lto_datasample_gpsToSample.2719c2f436ef15ab,"",%progbits
 142 0000 789C9D93 		.ascii	"x\234\235\223\277K\303@\024\307\337\367\222\230455\305"
 142      BF4BC340 
 142      14C7DFF7 
 142      92983435 
 142      35C5
 143 0012 A94E82A3 		.ascii	"\251N\202\243\340\177\340\177\340XQ\307X\245\004,\010"
 143      E07FE07F 
 143      E05851C7 
 143      58A5042C 
 143      08
 144 0023 75B24353 		.ascii	"u\262CS\177\200\203BA\\tQ\034\004-v\027\207Nn*\376\007"
 144      7F808342 
 144      415C7451 
 144      1C042D76 
 144      17874E6E 
 145 003a FD3B3A58 		.ascii	"\375;:X\337]\322\246)\015\264\036\344\356\005\336}\336"
 145      DF5DD2A6 
 145      290DB41E 
ARM GAS  /tmp/ccGgyJ3f.s 			page 11


 145      E4EE05DE 
 145      7DDE
 146 004c FBE42E82 		.ascii	"\373\344.\202\004\215\217\002?\033:\321\002\257\320"
 146      048D8F02 
 146      3F1B3AD1 
 146      02AFD0
 147 005b 08A2F945 		.ascii	"\010\242\371E\324\260\004 \003\002\325\005\352;P\271"
 147      D4B00420 
 147      0302D505 
 147      EA3B50B9 
 148 006b 6DD1E9F6 		.ascii	"m\321\351\366\373\257\357\037\367-`\021\250\200\201"
 148      FBAFEF1F 
 148      F72D6011 
 148      A88081
 149 007a 3E48E308 		.ascii	">H\343\010:G0\345d\361$l\031ee\344\360\244\345\344\253"
 149      3A4730E5 
 149      64F1246C 
 149      196565E4 
 149      F0A4E5E4 
 150 008f 2B93F332 		.ascii	"+\223\3632b\230AgA\320\\&*)x\221gYq\023B\256\332'\235"
 150      62984167 
 150      41D05C26 
 150      2A297891 
 150      67597113 
 151 00a8 F44EFB97 		.ascii	"\364N\373\227K\036\036`P\031\242F\307\274{\225\236\003"
 151      4B1E1E60 
 151      5019A246 
 151      C7BC7B95 
 151      9E03
 152 00ba 1EEB3EF4 		.ascii	"\036\353>\364;\272\205\017\243\014l\363:\247:\334\305"
 152      3BBA850F 
 152      A30C6CF3 
 152      3AA73ADC 
 152      C5
 153 00cb 889A42BC 		.ascii	"\210\232B\274a@\320\025\001\021\241\352\303\014\011"
 153      6140D015 
 153      0111A1EA 
 153      C30C09
 154 00da 56199A24 		.ascii	"V\031\232$d\"\302\010\342\233\316;\205p?Q\215z\301E"
 154      6422C208 
 154      E29BCE3B 
 154      85703F51 
 154      8D7AC145 
 155 00ee E0FAB04B 		.ascii	"\340\372\260KQ\016w\305X\2375\303Z\217W\303v\315D\261"
 155      510E77C5 
 155      589F35C3 
 155      5A8F57C3 
 155      76CD44B1 
 156 0102 2D2E1677 		.ascii	"-.\026w>?\271s\021\255\332\230Aoh`)\250\210H\327\274"
 156      3E3FB973 
 156      11ADDA98 
 156      416F6860 
 156      29A88848 
 157 0118 D799ACA0 		.ascii	"\327\231\254\240\317\240`27Vx\212\025\354\377+\030c"
 157      CFA06032 
 157      3756788A 
 157      15ECFF2B 
ARM GAS  /tmp/ccGgyJ3f.s 			page 12


 157      1863
 158 012a 0ABF4385 		.ascii	"\012\277C\205lB\341&]an\006\005\233\271\261\302K\254"
 158      6C42E126 
 158      5D616E06 
 158      059BB9B1 
 158      C24BAC
 159 013d E0A86A5A 		.ascii	"\340\250jZ\254\220\233Z\301L=\205\\\342\273\310SH\271"
 159      AC909B5A 
 159      C14C3D85 
 159      5CE2BBC8 
 159      5348B9
 160 0150 48D60C0A 		.ascii	"H\326\014\012\016sc\205v\254\340&\356=+\350S+dR\025"
 160      0E736385 
 160      76ACE026 
 160      EE3D2BE8 
 160      532B6452 
 161 0165 F2D32AD8 		.ascii	"\362\323*\3303(\270\314U\012?\324\350\266V\006\251\341"
 161      3328B8CC 
 161      550A3FD4 
 161      E8B65606 
 161      A9E1
 162 0177 28721AFF 		.ascii	"(r\032\377\326\2625g\317;\362\252^\345\360`\177\255"
 162      D6B23567 
 162      CF3BF2AA 
 162      5EE5F060 
 162      7FAD
 163 0189 447F7FFF 		.ascii	"D\177\177\377\346\346"
 163      E6E6
 164              		.text
 165              		.section	.gnu.lto_datasample_sensorsToSample.2719c2f436ef15ab,"",%progbits
 166 0000 789CAD96 		.ascii	"x\234\255\226\301k\023Q\020\306g\336&\351v\233\244i"
 166      C16B1351 
 166      10C667DE 
 166      26E9769B 
 166      A469
 167 0012 8C318D31 		.ascii	"\2141\2151\256i\010!U\257\376#\025\364\030\253\204\202"
 167      AE690821 
 167      55AFFE23 
 167      15F418AB 
 167      8482
 168 0024 0541EF4D 		.ascii	"\005A\357M\213\177@\216\245^\332\253H\275\366\330\223"
 168      8B7F408E 
 168      A55EDAAB 
 168      48BDF6D8 
 168      93
 169 0035 B407456F 		.ascii	"\264\007Eo\245 \344\330\236\"-\304\342\245\276\311N"
 169      A520E4D8 
 169      9E222DC4 
 169      E2A5BEC9 
 169      4E
 170 0046 F63DA40C 		.ascii	"\366=\244\014\341\231\007\371\336&\354\354\357\233\367"
 170      E19907F9 
 170      DE26ECEC 
 170      EF9BF7
 171 0055 0D611528 		.ascii	"\015a\025(\370w-\352\317\317Y\200y\275\243\007\250z"
 171      F8772DEA 
 171      CFCF5980 
ARM GAS  /tmp/ccGgyJ3f.s 			page 13


 171      79BDA307 
 171      A87A
 172 0067 DF00367D 		.ascii	"\337\0006}\205H\027\200\260\241p\3439\216\356\375\254"
 172      85481780 
 172      B0A170E3 
 172      398EEEFD 
 172      AC
 173 0078 0EFBD7D7 		.ascii	"\016\373\327\327\373W_v\317\021\037*\\G\360`\015!\241"
 173      FB575F76 
 173      CF111F2A 
 173      5C47F060 
 173      0D21A1
 174 008b AF304557 		.ascii	"\2570EW>I@\222&\311\222\344H\362$\005\222\"I\211\244"
 174      3E494092 
 174      26C992E4 
 174      48F22405 
 174      92224989 
 175 00a0 4C5221A9 		.ascii	"LR!\251\222\204$5\222:I\203\244I\322\"\321+\011\357"
 175      92842435 
 175      923A4983 
 175      A449D222 
 175      D12B09EF 
 176 00b4 BBDD5E08 		.ascii	"\273\335^\010\260:\372\272\242\225<>EE\273\367\025\266"
 176      B03AFABA 
 176      A2953C3E 
 176      4545BBF7 
 176      15B6
 177 00c6 4E0F067D 		.ascii	"N\017\006}\257\215{\230\204\016z\313\320\322\205\037"
 177      AF8D7B98 
 177      840E7ACB 
 177      D0D2851F 
 178 00d6 6007D710 		.ascii	"`\007\327\020;\250\236\351=:\200\0278n_\027\035\377"
 178      3BA89EE9 
 178      3D3A8017 
 178      386E5F17 
 178      1DFF
 179 00e8 0AA29265 		.ascii	"\012\242\222e\370\330\325+\023\027y\035LPQ\202\213\242"
 179      F8D8D52B 
 179      1317791D 
 179      4C505182 
 179      8BA2
 180 00fa 2AFDE451 		.ascii	"*\375\344Q\335\351\311\340,\206\245$\230\262`\275\271"
 180      DDE9C9E0 
 180      2C86A524 
 180      98B260BD 
 180      B9
 181 010b 09611EC3 		.ascii	"\011a\036\303R\021\354jp\022\303|\011\226\260`\337'"
 181      5211EC6A 
 181      7012C37C 
 181      0996B060 
 181      DF27
 182 011d ED2CC930 		.ascii	"\355,\3110?\202m_\030X \301R.\260\031\206\005\021\354"
 182      3F826D5F 
 182      185820C1 
 182      522EB019 
 182      860511EC 
 183 0131 C082A525 		.ascii	"\300\202\245%\230\357\002\233eX\2323\263`Y\011\026\270"
ARM GAS  /tmp/ccGgyJ3f.s 			page 14


 183      98EF029B 
 183      65589A33 
 183      B3605909 
 183      16B8
 184 0143 C0E61896 		.ascii	"\300\346\030\226\345\314.\3144\346$X\332e\0323\014\313"
 184      E5CC2ECC 
 184      34E62458 
 184      DA651A33 
 184      0CCB
 185 0155 71669766 		.ascii	"qf\227f\032\363\022,\3532\215\363\014\313sf\227\346"
 185      1AF3122C 
 185      EB328DF3 
 185      0CCB7366 
 185      97E6
 186 0167 180B122C 		.ascii	"\030\013\022,\347r\214\013\014+pfVgE\011\226w\351\354"
 186      E7728C0B 
 186      0C2B7066 
 186      56674509 
 186      9677E9EC 
 187 017b 16C38A9C 		.ascii	"\026\303\212\234\231\005+I\260\202\013\3546\303J\234"
 187      99052B49 
 187      B0820BEC 
 187      36C34A9C 
 188 018b D9D00C48 		.ascii	"\331\320\014HY\202\025]\006\344\016\303\312\234\331"
 188      5982155D 
 188      06E40EC3 
 188      CA9CD9
 189 019a F0288655 		.ascii	"\360(\206U$X\311\356lR\330\"\303*\234\331\360L\215a"
 189      2458C9EE 
 189      6C52D822 
 189      C32A9CD9 
 189      F04C8D61 
 190 01ae 550956B6 		.ascii	"U\011V\266a3\023\302\3562\254\312\231\015\017\343\316"
 190      613313C2 
 190      EE32ACCA 
 190      990D0FE3 
 190      CE
 191 01bf 420956B1 		.ascii	"B\011V\261\217\221a\217\340\023\301\236\350\"\303M\336"
 191      8F91618F 
 191      E013C19E 
 191      E822C34D 
 191      DE
 192 01d0 CCBD37DA 		.ascii	"\314\2757\332\351\227\361\037\037\271\0109\314\337\306"
 192      E997F11F 
 192      1FB90839 
 192      CCDFC6
 193 01df 454D7251 		.ascii	"EMrQ\235\236\0134.j\234\262\345\242.\271\270?=\027\312"
 193      9D9E0B34 
 193      2E6A9CB2 
 193      E5A22EB9 
 193      B83F3D17 
 194 01f4 B8A873FC 		.ascii	"\270\250s\374\226\213\206\344\"\374O\027\017nL\244\301"
 194      968B86E4 
 194      22FC4F17 
 194      0F6E4CA4 
 194      C1
 195 0205 7361B968 		.ascii	"sa\271hJ.j\323sa%\322\344\271\370c\\\264$\027K\323s"
ARM GAS  /tmp/ccGgyJ3f.s 			page 15


 195      4A2E6AD3 
 195      736125D2 
 195      E4B9F863 
 195      5CB42417 
 196 021c 6125D202 		.ascii	"a%\322\002\370\001\233\375\363\245\350\201\343\265\242"
 196      F8019BFD 
 196      F3A5E881 
 196      E3B5A2
 197 022b DF66F45B 		.ascii	"\337f\364[\023\335\230y\331~\327~\333^\177\363\372\325"
 197      13DD9879 
 197      D97ED77E 
 197      DB5E7FF3 
 197      FAD5
 198 023d E355F80B 		.ascii	"\343U\370\013\024\201\356g"
 198      1481EE67 
 199              		.text
 200              		.section	.gnu.lto_.symbol_nodes.2719c2f436ef15ab,"",%progbits
 201 0000 789C4DCA 		.ascii	"x\234M\3121\022\3020\014D\321\325*\016\307\310Q\025"
 201      3112C230 
 201      0C44D1D5 
 201      2A0EC7C8 
 201      5115
 202 0012 303829A9 		.ascii	"08)\251)h|\024\367p\005\230\2649\003\003&\032\214\232"
 202      29687C14 
 202      F7700598 
 202      B4390303 
 202      261A8C9A 
 203 0026 375FB304 		.ascii	"7_\263\004q\207\037\3674\340|\003\314\256\2630\322\244"
 203      71871FF7 
 203      34E07C03 
 203      CCAEB330 
 203      D2A4
 204 0038 6538109D 		.ascii	"e8\020\235)\2174\376\215N4m)\211\326m9\216\"3-\264\232"
 204      298F34FE 
 204      8D4E346D 
 204      2989D66D 
 204      398E2233 
 205 004f 68FDAF14 		.ascii	"h\375\257\024\001\371\361\372\272\270\371\351\355\346"
 205      01F9F1FA 
 205      BAB8F9E9 
 205      EDE6
 206 005d B40E2A3B 		.ascii	"\264\016*;\304K\265G\251j@\251{\365\375\307\230\266"
 206      C44BB547 
 206      A96A40A9 
 206      7BF5FDC7 
 206      98B6
 207 006f FFE29669 		.ascii	"\377\342\226i\035\360\006\272\200=\226"
 207      1DF006BA 
 207      803D96
 208              		.text
 209              		.section	.gnu.lto_.refs.2719c2f436ef15ab,"",%progbits
 210 0000 789C6362 		.ascii	"x\234cb`b`g\200\000&F& `\000\000\000\364\000\027"
 210      60626067 
 210      80002646 
 210      26206000 
 210      0000F400 
 211              		.text
ARM GAS  /tmp/ccGgyJ3f.s 			page 16


 212              		.section	.gnu.lto_.decls.2719c2f436ef15ab,"",%progbits
 213 0000 789CBD7D 		.ascii	"x\234\275}\011tT\307\225\366[z\221\220\014\330Nb \316"
 213      097454C7 
 213      95F65B7A 
 213      91900CD8 
 213      4E6220CE 
 214 0014 A4337F32 		.ascii	"\2443\1772\307\223I,\201\211\215g\211\027\0016g\300"
 214      C793492C 
 214      81898D67 
 214      89170136 
 214      67C0
 215 0026 700499D8 		.ascii	"p\004\231\330s\376s\232Gw\013u\"\2515\335\315\366O\316"
 215      73FE739A 
 215      47770B75 
 215      22A935DD 
 215      CDF64FCE 
 216 003a C943D822 		.ascii	"\311C\330\"\006\333\200\000\203Y\204\000\203\301\030"
 216      06DB8000 
 216      83598400 
 216      83C118
 217 0049 C26A402C 		.ascii	"\302j@,na\033\0012;\266Y\014\010\260\303bc\263\032\004"
 217      6E611B01 
 217      323BB659 
 217      0C08B0C3 
 217      6263B31A 
 218 005e 18CDAD5B 		.ascii	"\030\315\255[\357uW=\365\353\256'\317\371\373\234\272"
 218      EF75573D 
 218      F5EBAE27 
 218      CFF9FB9C 
 218      BA
 219 006f AFBAFAD5 		.ascii	"\257\272\372\325W\367\336\272u\353V\275\245\025I\221"
 219      57F7DEBA 
 219      75EB56BD 
 219      A5154991 
 220 007f 96A892D4 		.ascii	"\226\250\222\324\012\237\317\307J\322\311{$\311-I\322"
 220      0A9FCFC7 
 220      4AD2C97B 
 220      24C92D49 
 220      D2
 221 0090 6F21E542 		.ascii	"o!\345B\232\017i\001\244%\220\226BZ\006i\005\244U\220"
 221      9A0F6901 
 221      A4259096 
 221      425A0669 
 221      05A45590 
 222 00a4 D6425A27 		.ascii	"\326BZ'\321\217\027\322zHnY\222\202\200\367'Hk!m\204"
 222      D18F17D2 
 222      7A486E59 
 222      928280F7 
 222      27486B21 
 223 00ba 948004C5 		.ascii	"\224\200\004\305\322vU\342>\344\374\373 \355\200\362"
 223      D27655E2 
 223      3EE4FCFB 
 223      20ED80F2 
 224 00ca 9D907691 		.ascii	"\235\220v\221#|\337\004\251\036R\223\232jw\035\344\017"
 224      237CDF04 
 224      A91E5293 
 224      9A6A771D 
ARM GAS  /tmp/ccGgyJ3f.s 			page 17


 224      E40F
 225 00dc C27137C3 		.ascii	"\302q7\303\323\021H\017C\272\003\311\005\351G\004\013"
 225      D311480F 
 225      43BA03C9 
 225      05E94704 
 225      0B
 226 00ed D247900E 		.ascii	"\322G\220\016@\372\004\322aH\237A:\011\351\024\244\026"
 226      40FA04D2 
 226      61489F41 
 226      3A09E914 
 226      A416
 227 00ff 4867207D 		.ascii	"Hg }\001\351,\244\363\220\276\204t\021\3227\220.C\272"
 227      01E92CA4 
 227      F390BE84 
 227      7411D237 
 227      902E43BA 
 228 0113 0AE93AA4 		.ascii	"\012\351:\244\033\220nCj\205\244\030\374\2565dQd^\026"
 228      1B906E43 
 228      6A85A418 
 228      FCAE3564 
 228      51645E16 
 229 0127 22F78306 		.ascii	"\"\367\203\006\037\035!\345\033:ae#\274\026B\"j\360"
 229      1F1D21E5 
 229      1B3A6165 
 229      23BC1642 
 229      226AF0
 230 013a C2F90D8C 		.ascii	"\302\371\015\214\254DnS\276#\206L\037\251T\337\254\256"
 230      AC446E53 
 230      BE23864C 
 230      1FA954DF 
 230      ACAE
 231 014c 1BA06CB7 		.ascii	"\033\240l\267J\373\240\036\216\017\3001\221A\356\353"
 231      4AFBA01E 
 231      8E0FC031 
 231      9141EEEB 
 232 015c 86AC6718 		.ascii	"\206\254g\030\035\2347d\277j\310\313\312\177\303\320"
 232      1D9C3764 
 232      BF6AC8CB 
 232      CA7FC3D0 
 233 016c 9129B76A 		.ascii	"\221)\267j\310\2260\372\222|\037\012DS\333\366'\351"
 233      C89630FA 
 233      927C1F0A 
 233      4453DBF6 
 233      27E9
 234 017e F74E8CCC 		.ascii	"\367N\214\314{\322\364)\221\261\024\312\206\253\264"
 234      7BD2F429 
 234      91B114CA 
 234      86ABB4
 235 018d 7F49BF12 		.ascii	"\177I\277\022\231+U*w\236!K\205\232\222'\242R\231\242"
 235      992B552A 
 235      779E214B 
 235      859A9227 
 235      A25299A2 
 236 01a1 2A952BA6 		.ascii	"*\225+\246R\331\342*\355\227\240ak$?\006\216\243,|\021"
 236      52D9E22A 
 236      ED97A061 
 236      6B243F06 
ARM GAS  /tmp/ccGgyJ3f.s 			page 18


 236      8EA32C7C 
 237 01b6 5B247D41 		.ascii	"[$}A\364\257C\376\317j\212\037\323v~\016i\222Ju4E\245"
 237      F4AF43FE 
 237      CF6A8A1F 
 237      D3767E0E 
 237      69924A75 
 238 01cd 7A9AA152 		.ascii	"z\232\241R\335MW\251\376f\253Two\250T\177\023U\252\273"
 238      DD4D57A9 
 238      FE66AB54 
 238      776FA854 
 238      7F1355AA 
 239 01e2 5755AABF 		.ascii	"WU\252\277\251*\325\341<\225\352v\256J\365;^\245\375"
 239      A92AD5E1 
 239      3C95EA76 
 239      AE4AF53B 
 239      5EA5FD
 240 01f5 F0B24AF5 		.ascii	"\360\262J\365\273\\\245:\236\257R=/\204\343\"Ho\251"
 240      BB5CA53A 
 240      9EAF523D 
 240      2F84E322 
 240      486FA9
 241 0208 54E74B49 		.ascii	"T\347KI\277\033v\366'C\256\225p\\m\221+O\232\240\353"
 241      BF1B76F6 
 241      2743AE95 
 241      705C6D91 
 241      2B4F9AA0 
 242 021d 557A5DB5 		.ascii	"Uz]\265\376\354\216\216\367J\223u\370\324=9\263c\256"
 242      FEEC8E8E 
 242      F74A9375 
 242      F8D43D39 
 242      B363AE
 243 0230 F41752DE 		.ascii	"\364\027R\336\274H\357\322E\222\236\2275\031\212r0\223"
 243      BC48EFD2 
 243      45929E97 
 243      35198A72 
 243      3093
 244 0242 9F8BA8BF 		.ascii	"\237\213\250\277\220\336\204s\241\202\242\311\013\345"
 244      90DE8473 
 244      A182A2C9 
 244      0BE5
 245 0250 5C68C16A 		.ascii	"\\h\301j\317\346\207\376\376Ki)=\377\264\3654\002J\316"
 245      CFE687FE 
 245      FE4B6929 
 245      3DFFB4F5 
 245      34024ACE 
 246 0264 48E55AE5 		.ascii	"H\345Z\345d\233\235\3156\025\003k\201|/\346\220C\335"
 246      649B9DCD 
 246      3615036B 
 246      817C2FE6 
 246      9043DD
 247 0277 E01CCF30 		.ascii	"\340\034\3170j\370\314\032.\243\306[\210-\231\305\022"
 247      6AF8CC1A 
 247      2EA3C65B 
 247      882D99C5 
 247      12
 248 0288 2B85599E 		.ascii	"+\205Y\236\256\336|9/\223\232|3;Rn\215\372\205f}\217"
 248      AEDE7C39 
ARM GAS  /tmp/ccGgyJ3f.s 			page 19


 248      2F939A7C 
 248      333B526E 
 248      8DFA8566 
 249 029e 517FA963 		.ascii	"Q\177\251cN\337\266\341\324\235\205\323%\3168\325\223"
 249      4EDFB6E1 
 249      D49D85D3 
 249      25CE38D5 
 249      93
 250 02af ACEA26AF 		.ascii	"\254\352&\257\3578\346u\271\015\257\255\331\230]\226"
 250      EF38E675 
 250      B90DAFAD 
 250      D9985D96 
 251 02bf 6236471A 		.ascii	"b6G\032\217V\366\222>V\376\257\354f\266B\316\0013\350"
 251      8F56F692 
 251      3E56FEAF 
 251      EC66B642 
 251      CE0133E8 
 252 02d3 686B66E4 		.ascii	"hkf\344w\263e\2327s\262!\231\251\230\364\334a[\223\233"
 252      77B3659A 
 252      3773B221 
 252      99A998F4 
 252      DC615B93 
 253 02e8 8FAC9C5B 		.ascii	"\217\254\234[\240\3539\232\274\012\315\372\031\031\240"
 253      A0EB399A 
 253      BC0ACDFA 
 253      1919A0
 254 02f7 17CBBF4C 		.ascii	"\027\313\277L6\343\316\345\233\205\357\346\011\004\314"
 254      36E3CEE5 
 254      9B85EFE6 
 254      0904CC
 255 0306 9D9BCA90 		.ascii	"\235\233\312\220)\261\223X\247l\360\232\254\2142p\327"
 255      29B19358 
 255      A76CF09A 
 255      AC8C3270 
 255      D7
 256 0317 39EE9377 		.ascii	"9\356\223wm\372dd\226.Y\233\352\222\237J\265z]s\363"
 256      6DFA6464 
 256      962E599B 
 256      EA929F4A 
 256      B57A5D73 
 257 032c 96ED6BBA 		.ascii	"\226\355k\272\352uU\211\326\326'`N\234n\264\257\313"
 257      EA755589 
 257      D6D62760 
 257      4E9C6EB4 
 257      AFCB
 258 033e 714DFEED 		.ascii	"qM\376\355\017mq6\310?\302\234JG+'\366}\322\024\024"
 258      0F6D7136 
 258      C83FC29C 
 258      4A472B27 
 258      F67DD214 
 259 0353 9B517E22 		.ascii	"\233Q~\"\327\004\230\231\354\352\311\315-\325{~\206"
 259      D7049899 
 259      ECEAC9CD 
 259      2DD57B7E 
 259      86
 260 0364 EADF24DF 		.ascii	"\352\337$\337\0078\177\340\325\237\035\2060\262\025"
 260      07387FE0 
ARM GAS  /tmp/ccGgyJ3f.s 			page 20


 260      D59F1D86 
 260      30B215
 261 0373 AAD25AD4 		.ascii	"\252\322Z\324~\022'C>Z*qh\334\347gR\035\260\233\270"
 261      7E122743 
 261      3E5A2A71 
 261      68DCE767 
 261      521DB09B 
 262 0388 DAB243D6 		.ascii	"\332\262C\326k\362\305\355\345\344\370\017\033\344*"
 262      6BF2C5ED 
 262      E5E4F80F 
 262      1BE42A
 263 0397 508E2637 		.ascii	"P\216&7\240\305\314\221y\236\305\241fO\334\3748\312"
 263      A0C5CC91 
 263      799EC5A1 
 263      664FDCFC 
 263      38CA
 264 03a9 FE01021D 		.ascii	"\376\001\002\035\225\255\266\347\265\330\236\227\267"
 264      95ADB6E7 
 264      B5D89E97 
 264      B7
 265 03b6 3D6F6E2A 		.ascii	"=on*c\330\236\303\323\025\351\013l\224\350*\035\243"
 265      63D89EC3 
 265      D315E90B 
 265      6C94E82A 
 265      1DA3
 266 03c8 49D362EC 		.ascii	"I\323b\354\211\325\237\016\375\267\245\333X=1V5\015"
 266      89D59F0E 
 266      FDB7A5DB 
 266      583D3156 
 266      350D
 267 03da BD0B67E7 		.ascii	"\275\013g\347\203L\210\016\006O;\035\233\371.\03337"
 267      834C880E 
 267      064F3B1D 
 267      9BF92E1B 
 267      3337
 268 03ec 3951A473 		.ascii	"9Q\244sV\031\270V\323\311\340ceH\334X\224\253W\347\233"
 268      5619B856 
 268      D3C9E063 
 268      6548DC58 
 268      94AB57E7 
 269 0401 B63633D5 		.ascii	"\26663\325i\020\227\030\265\037O\366Z\342\323\034pN"
 269      69109718 
 269      B51F4FF6 
 269      5AE2D31C 
 269      704E
 270 0413 BBD15A2F 		.ascii	"\273\321Z/\312\351\315\325\026\202\310\263\317j\255"
 270      CAE9CDD5 
 270      1682C8B3 
 270      CF6AAD
 271 0422 9B823E5A 		.ascii	"\233\202>Z\232\315Z\365\304{\347r\200\323\364\252\326"
 271      9ACD5AF5 
 271      C47BE772 
 271      80D3F4AA 
 271      D6
 272 0433 65B3A5CE 		.ascii	"e\263\245\316FK\007\035\353\372\220\215\256M\313R\244"
 272      464B071D 
 272      EBFA908D 
ARM GAS  /tmp/ccGgyJ3f.s 			page 21


 272      AE4DCB52 
 272      A4
 273 0444 1614795F 		.ascii	"\026\024y_J\327|\263Y\015&\261\3175\263\220\262\246"
 273      4AD77CB3 
 273      590D26B1 
 273      CF35B390 
 273      B2A6
 274 0456 48558A08 		.ascii	"HU\212\010Xg{\260\003\000\226^\033\243y\3265\371\210"
 274      58677BB0 
 274      0300965E 
 274      1BA379D6 
 274      35F988
 275 0469 63651CB5 		.ascii	"ce\034\265QF\307\2442^\261\362\317\265jd}\366\354\037"
 275      5146C7A4 
 275      325EB1F2 
 275      CFB56A64 
 275      7DF6EC1F 
 276 047d 425DEC44 		.ascii	"B]\354D]L\267b\2453\342\207X\254^\351\014Ejce\232\274"
 276      5D4CB762 
 276      A533E287 
 276      58AC5EE9 
 276      0C456A63 
 277 0494 5FFE05D0 		.ascii	"_\376\005\320\003\362\317\200~\202\3640\322\317\200"
 277      03F2CF80 
 277      7E82F430 
 277      D2CF80
 278 04a3 263F8A54 		.ascii	"&?\212T\253X\206\021o\273F65\351b\024\304\212\323rq"
 278      AB588611 
 278      6FBB4636 
 278      35E96214 
 278      C48AD372 
 279 04b8 A60ABE54 		.ascii	"\246\012\276T\223\037\356\000p\013\254p\351<\313\263"
 279      931FEE00 
 279      700BAC70 
 279      E93CCBB3 
 280 04c8 F6CAB9B5 		.ascii	"\366\312\271\265[\336Qh`-w\214\345\343\260\3560X\033"
 280      5BDE5168 
 280      602D778C 
 280      E5E3B0EE 
 280      30581B
 281 04db 45B006D9 		.ascii	"E\260\006\331\363u\227\301z\3371\026\317\327\344\355"
 281      F37597C1 
 281      7ADF3116 
 281      CFD7E4ED 
 282 04eb 5D276B06 		.ascii	"]'k\006\326n\021\254\347\355\371\252a\260>u\214\305"
 282      D66E11AC 
 282      E7EDF9AA 
 282      61B03E75 
 282      8CC5
 283 04fd F3358DC1 		.ascii	"\3635\215\301:%\2025\324\236\257\327\031\254\257\034"
 283      3A258235 
 283      D49EAFD7 
 283      19ACAF1C 
 284 050d 63F17CCD 		.ascii	"c\361|\315d\260n\212`\225\332\3635\213\301\252R\235"
 284      64B06E8A 
 284      6095DAF3 
 284      358BC1AA 
ARM GAS  /tmp/ccGgyJ3f.s 			page 22


 284      529D
 285 051f 62F17CCD 		.ascii	"b\361|\315a\260^\023\301\252\264\347\253\226\301\232"
 285      61B05E13 
 285      C1AAB4E7 
 285      AB96C19A 
 286 052f E5188BE7 		.ascii	"\345\030\213\347k%\203\265H\004k\264=_\253\031\254\345"
 286      6B2583B5 
 286      48046BB4 
 286      3D5FAB19 
 286      ACE5
 287 0541 8EB178BE 		.ascii	"\216\261x\276\326\366\235\254\231~\233xa\0005\316\033"
 287      D6F69DAC 
 287      997E9B78 
 287      610035CE 
 287      1B
 288 0552 6AD6CEC7 		.ascii	"j\326\316\307\3635\371\216c\277\375\235\215\337V\014"
 288      F335F98E 
 288      63BFFD9D 
 288      8DDF560C 
 289 0562 79146995 		.ascii	"y\024i\225\225}\256U#\253\313\366\272x\267/Q\305\035"
 289      957DAE55 
 289      23ABCBF6 
 289      BA78B72F 
 289      51C51D
 290 0575 74DCEB44 		.ascii	"t\334\353D\300\376\302\201\371$\333\017\033\315j\362"
 290      C0FEC281 
 290      F924DB0F 
 290      1BCD6AF2 
 291 0585 7BE8B913 		.ascii	"{\350\271\023\350\255w \375\010\351I\244\247\220\236"
 291      E8AD7720 
 291      FD08E949 
 291      A4A7909E 
 292 0595 41FA05D2 		.ascii	"A\372\005\322\263H\317#\375\022\351E\244\337 \275\214"
 292      B348CF23 
 292      FD12E945 
 292      A4DF20BD 
 292      8C
 293 05a6 F42AD2EB 		.ascii	"\364*\322\353Ho mAz\033i+;'\330i\270>\265\202\320\344"
 293      486F206D 
 293      417A1B69 
 293      2B3B27D8 
 293      69B83EB5 
 294 05bd DFA53619 		.ascii	"\337\2456\031\300\271\252|D\364si\241\256\327\300\002"
 294      C0B9AA7C 
 294      44F47369 
 294      A1AED7C0 
 294      02
 295 05ce E38CEB0D 		.ascii	"\343\214\353\015=\341\242U\025i'\236\266^\376i\332&"
 295      3DE1A255 
 295      1569279E 
 295      B65EFE69 
 295      DA26
 296 05e0 920DFC83 		.ascii	"\222\015\374\203\264\210\364\371\253\372K\235e\\\212"
 296      B488F4F9 
 296      ABFA4B9D 
 296      655C8A
 297 05ef 48462D4E 		.ascii	"HF-Nac\025\205-\240k\232\304\226S$\260\327\357\264\266"
ARM GAS  /tmp/ccGgyJ3f.s 			page 23


 297      61631585 
 297      2DA06B9A 
 297      C4965324 
 297      B0D7EFB4 
 298 0604 AAFC9AC6 		.ascii	"\252\374\232\3060$\262\331\301\304im\227\241\020\352"
 298      3024B2D9 
 298      C1C4696D 
 298      97A110EA 
 299 0614 37BEF34B 		.ascii	"7\276\363K\214\317\307+\304z\232,\262\211\003\315n2"
 299      8CCFC72B 
 299      C47A9A2C 
 299      B28903CD 
 299      6E32
 300 0626 D6981310 		.ascii	"\326\230\023\020\350\200\005H\223%K\240/\361\221;|\325"
 300      E8800548 
 300      93254BA0 
 300      2FF1913B 
 300      7CD5
 301 0638 5B8D8FFC 		.ascii	"[\215\217\374g\243\344\317R\273\352\330\365i\265\302"
 301      67A3E4CF 
 301      52BBEAD8 
 301      F569B5C2 
 302 0648 ADE6681F 		.ascii	"\255\346h\037\210.\355\222a[\227\224\3207j\327\366B"
 302      882EED92 
 302      615B9794 
 302      D0376AD7 
 302      F642
 303 065a A1272B24 		.ascii	"\241'+$V>o\021:+\214\"]\305*S\025K\274<O\363\321\322"
 303      563E6F11 
 303      3A2B8C22 
 303      5DC52A53 
 303      154BBC3C 
 304 0672 ECABBB35 		.ascii	"\354\253\2735-\011Y\237`\256\356\364j\375\241%\251\346"
 304      2D09599F 
 304      60AEEEF4 
 304      6AFDA125 
 304      A9E6
 305 0684 B8CDA6E4 		.ascii	"\270\315\246\344\352n\375\257\220\351\031\330S\267\323"
 305      EA6EFDAF 
 305      90E919D8 
 305      53B7D3
 306 0693 75B910D0 		.ascii	"u\271\020\320\354\211o\321\265\335,\004z\321e\355r\325"
 306      EC896FD1 
 306      B5DD2C04 
 306      7AD165ED 
 306      72D5
 307 06a5 D2E52ADF 		.ascii	"\322\345*\337}jn*CL\330\331\311\2124\311e\352.\035\223"
 307      7D6A6E2A 
 307      434CD8D9 
 307      C98A34C9 
 307      65EA2E1D 
 308 06ba D9C2F42A 		.ascii	"\331\302\364*\350\275\345?\206\021\373\242\312\365="
 308      E8BDE53F 
 308      8611FBA2 
 308      CAF53D
 309 06c9 1762B731 		.ascii	"\027b\2671\241yJ\322-(R\215\225\201\254\013K\037\327"
 309      A1794AD2 
ARM GAS  /tmp/ccGgyJ3f.s 			page 24


 309      2D28528D 
 309      9581AC0B 
 309      4B1FD7
 310 06dc 75EB97EF 		.ascii	"u\353\227\357$\013\363l\246\307\257\030\214%\332\364"
 310      240BF36C 
 310      A6C7AF18 
 310      8C25DAF4 
 311 06ec 8B3298C8 		.ascii	"\2132\230\310B\264\273\031\256\254v\307c(\322\233\264"
 311      42B4BB19 
 311      AEAC76C7 
 311      6328D29B 
 311      B4
 312 06fd 8AD5EEAE 		.ascii	"\212\325\356\256\016\365\321\322\354vw\343\332\216\366"
 312      0EF5D1D2 
 312      EC7677E3 
 312      DA8EF6
 313 070c 325FF7DE 		.ascii	"2_\367\336\231K\012Z\3162\344\177\253s\376\267c\225"
 313      994B0A5A 
 313      CE32E47F 
 313      AB73FEB7 
 313      6395
 314 071e 1556FE3F 		.ascii	"\025V\376?&\374\257\020\342\377H\235\220\362\353\222"
 314      26FCAF10 
 314      E2FF489D 
 314      90F2EB92 
 315 072e 0B849E29 		.ascii	"\013\204\236)\313\337\370\267\304C\343p\177d\015\012"
 315      CBDFF8B7 
 315      C443E370 
 315      7F640D0A 
 316 073e 30CE9D55 		.ascii	"0\316\235U\000\036\007\367\266\3320\337\230\257\273"
 316      001E07F7 
 316      B6DA30DF 
 316      98AFBB
 317 074d 687976F6 		.ascii	"hyv\366\217\217\237\327U\257\333&\247\343\037N\220Y"
 317      8F8F9FD7 
 317      55AFDB26 
 317      A7E31F4E 
 317      9059
 318 075f DD29EC3A 		.ascii	"\335)\354:M\221^\005n\323\251\230;M\2237\301\234\243"
 318      4D915E05 
 318      6ED3A998 
 318      3B4D9337 
 318      C19CA3
 319 0772 C99BAD5C 		.ascii	"\311\233\255\\\256\031\217\\n\026\342r]c[%[v\337\310"
 319      AE198F5C 
 319      6E16E272 
 319      5D635B25 
 319      5B76DFC8 
 320 0786 6EA6DD68 		.ascii	"n\246\335hKX\035\366\023y\374llW\361=v\230\316\302\336"
 320      4B581DF6 
 320      1379FC6C 
 320      6C57F13D 
 320      7698CEC2 
 321 079b D9EC6098 		.ascii	"\331\354`\230rB\350\253u=\327C1\025i\261c0\237=\330"
 321      7242E8AB 
 321      753DD743 
 321      311569B1 
ARM GAS  /tmp/ccGgyJ3f.s 			page 25


 321      63309F3D 
 322 07b0 1A11B01C 		.ascii	"\032\021\260\034A\31669\006K\303Y{{\252)MO%\363\015"
 322      41CE3639 
 322      064BC359 
 322      7B7BAA29 
 322      4D4F25F3 
 323 07c5 345A4D37 		.ascii	"4ZM7\3232\227e\262E*"
 323      D3329765 
 323      B2452A
 324 07d0 E397FF13 		.ascii	"\343\227\377\023\372\214}8\333lw\247\235\266D\"\225"
 324      FA8C7D38 
 324      DB6C77A7 
 324      9DB64422 
 324      95
 325 07e1 89B574D2 		.ascii	"\211\265t\322>\210@{\334\326iK\266L[2?\023%/\354\030"
 325      3E88407B 
 325      DCD6694B 
 325      B64C5B32 
 325      3F13252F 
 326 07f7 D7759C9C 		.ascii	"\327u\234\234k\247\276\275){e\225h(N\310\344w\261&\177"
 326      6BA7BEBD 
 326      297B6595 
 326      68284EC8 
 326      E477B126 
 327 080c 58C4166C 		.ascii	"X\304\026l7\235\252\300\301\355\373\311\324q\372\216"
 327      379DAAC0 
 327      C1EDFBC9 
 327      D471FA8E 
 328 081c C2F6DAC3 		.ascii	"\302\366\332\303\321\357k\017\011\333n\324\344\375\312"
 328      D1EF6B0F 
 328      09DB6ED4 
 328      E4FDCA
 329 082b 2FDAAFEA 		.ascii	"/\332\257\352\023\337_\325GXU\037w\254j\037\253j~\014"
 329      13DF5FD5 
 329      4758551F 
 329      77AC6A1F 
 329      AB6A7E0C 
 330 083f 9F1101EB 		.ascii	"\237\021\001\353b\333o\337o\014\377\315\276\317\322"
 330      62DB6FDF 
 330      6F0CFFCD 
 330      BECFD2
 331 084e CE324F32 		.ascii	"\3162O2\223\307\223\254\2031\006\332\312o.yq\240]\300"
 331      93C793AC 
 331      833106DA 
 331      CA6F2E79 
 331      71A05DC0 
 332 0862 4972A127 		.ascii	"Ir\241'\355$i\017CX\270h\235~n\220\353\036\027\205&"
 332      ED24690F 
 332      4358B868 
 332      9D7E6E90 
 332      EB1E1785 
 333 0877 9F964538 		.ascii	"\237\226E8\371\230\0271\326`\373\027\333;\015$n\205"
 333      F9981731 
 333      D660FB17 
 333      DB3B0D24 
 333      6E85
 334 0889 C89E18C5 		.ascii	"\310\236\030\305\332\354\030\313\227\216Q\251\215\224"
ARM GAS  /tmp/ccGgyJ3f.s 			page 26


 334      DAEC18CB 
 334      978E51A9 
 334      8D94
 335 0897 9AFC351A 		.ascii	"\232\3745\032\3677\012\256f\025\201\225\352y\316\240"
 335      F7370AAE 
 335      66158195 
 335      EA79CEA0 
 336 08a7 850CF80B 		.ascii	"\205\014\370\013\326\200?\3608\2659\253,fG\300\302\036"
 336      D6803FF0 
 336      38B539AB 
 336      2C6647C0 
 336      C21E
 337 08b9 D97E1FE9 		.ascii	"\331~\037\351\207H\033\221\356Dz\030\351i\244\237\213"
 337      87481B91 
 337      EE447A18 
 337      E969A49F 
 337      8B
 338 08ca 88B691E5 		.ascii	"\210\266\221\345s7\362\371n{\373\017|\332\315\277\273"
 338      7337F2F9 
 338      6E7BFB0F 
 338      7CDACDBF 
 338      BB
 339 08db 5AA5CF2C 		.ascii	"Z\245\317,\364J\325\364\"mU\266\251\002,\330\203\026"
 339      F44AD5F4 
 339      226D55B6 
 339      A9022CD8 
 339      8316
 340 08ed FCADE205 		.ascii	"\374\255\342\005\016\366[,X\000\210H\321\002\2259\033"
 340      0EF65B2C 
 340      58008848 
 340      D1029539 
 340      1B
 341 08fe DE38C647 		.ascii	"\3368\306GK3\3300\016<E\372\314C\003_Wn\252\354l\252"
 341      4B33D830 
 341      0E3C45FA 
 341      CC43035F 
 341      576EAAEC 
 342 0914 4C664EBD 		.ascii	"LfN\275\224*V\230\342\333\251b\225)\236\340M\026\273"
 342      942A5698 
 342      E2DBA962 
 342      95299EE0 
 342      4D16BB
 343 0927 98E239A9 		.ascii	"\230\3429\251b7S\2748U\354a\212W\247\212\275L\361\326"
 343      623753BC 
 343      3855EC61 
 343      8A57A78A 
 343      BD4CF1D6 
 344 093b 54710ED3 		.ascii	"Tq\016\323#\031'\316\224\2224\371\026\016\201\333\212"
 344      231927CE 
 344      949234F9 
 344      160E81DB 
 344      8A
 345 094c 9AB69A22 		.ascii	"\232\266\232\"\355\362Z,\201Sy\266\030LGK\230\252\303"
 345      EDF25A2C 
 345      815379B6 
 345      184C474B 
 345      98AAC3
ARM GAS  /tmp/ccGgyJ3f.s 			page 27


 346 095f ECC6EECF 		.ascii	"\354\306\356\3175d\272\3144Iu\272C7YM\277Cg\016NE\332"
 346      3564BACC 
 346      344975BA 
 346      4337594D 
 346      BF43670E 
 347 0976 679522ED 		.ascii	"g\225\"\355\225!\333\350\017\027\351d\346 \274)\322"
 347      9521DBE8 
 347      0F17E964 
 347      E620BC29 
 347      D2
 348 0987 2121B46C 		.ascii	"!!\264lS\207\351\337\016[\321\322\215\265\207l\301\022"
 348      5387E9DF 
 348      0E5BD1D2 
 348      8DB5876C 
 348      C112
 349 0999 37C6CF15 		.ascii	"7\306\317\025]\235p[\211\306\342\266e\273\354K\263B"
 349      5D9D705B 
 349      89C6E2B6 
 349      65BBEC4B 
 349      B342
 350 09ab E14ED5E4 		.ascii	"\341N\325\3447\324_\244[\307pg\221\363f\253\2269\344"
 350      37D45FA4 
 350      5BC77067 
 350      91F366AB 
 350      9639E4
 351 09be BDEDB884 		.ascii	"\275\355\270\204!\345\331g\221O\253\355E\341\226O\311"
 351      21E5D967 
 351      914FABED 
 351      45E1964F 
 351      C9
 352 09cf 055E6152 		.ascii	"\005^aR\220\346\232\326K\177@\0072O%S\340\342\234\354"
 352      90E69AD6 
 352      4B7F4007 
 352      324F2553 
 352      E0E29CEC 
 353 09e3 0B5D0E46 		.ascii	"\013]\016F\223\347\253d\025\266\300*\302\365\331(\302"
 353      93E7AB64 
 353      15B6C02A 
 353      C2F5D928 
 353      C2
 354 09f4 022111BE 		.ascii	"\002!\021\276;V\373\200\336\234\220\305\035\337\376"
 354      3B56FB80 
 354      DE9C90C5 
 354      1DDFFE
 355 0a03 850DDDE8 		.ascii	"\205\015\335\350\002w\221J<\337\231\234vy\276%\252\305"
 355      0277914A 
 355      3CDF999C 
 355      7679BE25 
 355      AAC5
 356 0a15 F3ADABEE 		.ascii	"\363\255\253\356D\330&\345\331}\337\3279m}_KNZ\337W"
 356      44D826E5 
 356      D97DDFD7 
 356      396D7D5F 
 356      4B4E5ADF 
 357 0a2a 959BD6F7 		.ascii	"\225\233\326\367\275\222\233\326\367\315\310\345}\237"
 357      BD929BD6 
 357      F7CDC8E5 
ARM GAS  /tmp/ccGgyJ3f.s 			page 28


 357      7D9F
 358 0a38 24E09F52 		.ascii	"$\340\237R\242h\362R\225\370\247\267\325\364\376I\223"
 358      A268F252 
 358      95F8A7B7 
 358      D5F4FE49 
 358      93
 359 0a49 5F4DF699 		.ascii	"_M\366\231\250\177\342\372\253yj\353\276\321[a<\276"
 359      A87FE2FA 
 359      AB796AEB 
 359      BED15B61 
 359      3CBE
 360 0a5b EC69E7F8 		.ascii	"\354i\347\3709vLd\374\254\027\034?\033\255\3067\343"
 360      39764C64 
 360      FCAC171C 
 360      3F1BADC6 
 360      37E3
 361 0a6d 181ADF46 		.ascii	"\030\032\337F!\343\233w\254\266\355\370\021\277\003"
 361      21E39B77 
 361      ACB6EDF8 
 361      11BF03
 362 0a7c 678B6A09 		.ascii	"g\213j\011JkU\201=\000C\017\337\315\372\001\356U\250"
 362      4A6B5581 
 362      3D00430F 
 362      DFCDFA01 
 362      EE55A8
 363 0a8f 24B67E33 		.ascii	"$\266~3\227\267a\313\256\037i\310\216\211\006l3\235"
 363      97B761CB 
 363      AE1F69C8 
 363      8E89066C 
 363      339D
 364 0aa1 9C6D7E83 		.ascii	"\234m~\203I\021\333\331\250\2667\316\334\230Nai\372"
 364      4911DBD9 
 364      A8B637CE 
 364      DC984E61 
 364      69FA
 365 0ab3 A939B95F 		.ascii	"\2519\271_\363\253\244\304\315W\227\235*\240\003\367"
 365      F3ABA4C4 
 365      CD57979D 
 365      2AA003F7 
 366 0ac3 43F438AD 		.ascii	"C\3648\255\271Y=\016\217CD\332a\355\3605M\330\341;\262"
 366      B9593D0E 
 366      8F4344DA 
 366      61EDF035 
 366      4DD8E13B 
 367 0ad8 77F88BE3 		.ascii	"w\370\213\343\022\353\233\346 \3778W\216\313x\223\220"
 367      12EB9BE6 
 367      20FF3857 
 367      8ECB7893 
 367      90
 368 0ae9 266FC3AB 		.ascii	"&o\303\253?\"w\361\274\322A6Xk\207Z\201\255\015M\371"
 368      3F2277F1 
 368      BCD24136 
 368      586B875A 
 368      81AD0D4D 
 369 0afe E4825693 		.ascii	"\344\202V\223J\\D\215c0\037\007V\317\202\275!\002f7"
 369      4A5C448D 
 369      63301F07 
ARM GAS  /tmp/ccGgyJ3f.s 			page 29


 369      56CF82BD 
 369      21026637 
 370 0b12 8F03D866 		.ascii	"\217\003\330f\026l\276c0\236\263\255,\330[\"`v\333\000"
 370      166CBE63 
 370      309EB3AD 
 370      2CD85B22 
 370      6076DB00 
 371 0b26 00B68F05 		.ascii	"\000\266\217\005[\346\030\214\345ll\342d\323.\262\034"
 371      5BE6188C 
 371      E56C6CE2 
 371      64D32EB2 
 371      1C
 372 0b37 BB5FAAD1 		.ascii	"\273_\252\321\365\261z\235\307\316($\011O\3213\236\002"
 372      F5B17A9D 
 372      C7CE2824 
 372      094FD133 
 372      9E02
 373 0b49 8B70F57E 		.ascii	"\213p\365~\336H\017N\354H\214\224\224g\367J\037\033"
 373      DE480F4E 
 373      EC488C94 
 373      9467F74A 
 373      1F1B
 374 0b5b 466A063C 		.ascii	"Fj\006<\177E\341H\335\366\014Z=q\274)O\237\220\237\\"
 374      7F45E148 
 374      DDF60C5A 
 374      3D71BC29 
 374      4F9F909F 
 375 0b70 D22EC9C0 		.ascii	"\322.\311\300\370\011\353\350\372\264I\361\321b\201"
 375      F809EBE8 
 375      FAB449F1 
 375      D16281
 376 0b7f 5DEBA639 		.ascii	"]\353\2469]\364\272\006\331\274z\263\012\371>\241\266"
 376      5DF4BA06 
 376      D9BC7AB3 
 376      0AF93EA1 
 376      B6
 377 0b90 F31A48E2 		.ascii	"\363\032H\342\350\304\374}CM\260u\216\301:[\270T\244"
 377      E8C4FC7D 
 377      434DB075 
 377      8EC13A5B 
 377      B854A4
 378 0ba3 4DED5564 		.ascii	"M\355Ud\362\223ZM\036S\311J\361\270\312\335\302\263"
 378      F2935A4D 
 378      1E53C94A 
 378      F1B8CADD 
 378      C2B3
 379 0bb5 45C40CED 		.ascii	"E\304\014\355\342\\\260\351K\254Mos\014\346\343\300"
 379      E25CB0E9 
 379      4BAC4D6F 
 379      730CE6E3 
 379      C0
 380 0bc6 AEB0608D 		.ascii	"\256\260`\215\"`>{\316\256\261`\0379\006\3439\373\226"
 380      22603E7B 
 380      CEAEB160 
 380      1F3906E3 
 380      39FB96
 381 0bd9 05DB2F02 		.ascii	"\005\333/\002\226.\234O\367a\347\007X\331c,\264\013"
ARM GAS  /tmp/ccGgyJ3f.s 			page 30


 381      962E9C4F 
 381      F761E707 
 381      58D9632C 
 381      B40B
 382 0beb 7B6A37D2 		.ascii	"{j7\322\275H\367#=\210\364c\244\237\"\375\033\322sH"
 382      BD48F723 
 382      3D88F463 
 382      A49F22FD 
 382      1BD27348 
 383 0bff 2F20FD8A 		.ascii	"/ \375\212\355\337\014\223\371\215\232\007\311\370\376"
 383      EDDF0C93 
 383      F98D9A07 
 383      C9F8FE
 384 0c0e 0027F38F 		.ascii	"\000'\363\217;d\234\314?\264\021\225p\177)\303d~\311"
 384      3B649CCC 
 384      3FB41195 
 384      707F29C3 
 384      647EC9
 385 0c21 3A993777 		.ascii	":\2317wp:\2313\335\200\241\\\242b\313J]\177\311c\016"
 385      703A9933 
 385      DD80A15C 
 385      A262CB4A 
 385      5D7FC963 
 386 0c36 B2B356C4 		.ascii	"\262\263V\304t\203\314~\317?qx63b/:\006\263\216X\263"
 386      7483CC7E 
 386      CF3F7178 
 386      3633622F 
 386      3A06B38E 
 387 0c4c 1FEBB11F 		.ascii	"\037\353\261\0377a\217\274\217\364\012\322k\374\350"
 387      37618FBC 
 387      8FF40AD2 
 387      6BFCE8
 388 0c5b BB6CD1BB 		.ascii	"\273l\321\273\031\0052x\251pQ\312\216h\327I\353Tf\347"
 388      19053278 
 388      A97051CA 
 388      8E68D749 
 388      EB5466E7 
 389 0c6f E73636BA 		.ascii	"\34766\272\240\275\235\220\250=\001c!\353\205>\227\211"
 389      A0BD9D90 
 389      A83D0163 
 389      21EB853E 
 389      9789
 390 0c81 D43B6973 		.ascii	"\324;is\315\323\353\033\272\324\353zgM\276\205\341\324"
 390      CDD3EB1B 
 390      BAD4EB7A 
 390      674DBE85 
 390      E1D4
 391 0c93 A6BCEC17 		.ascii	"\246\274\354\027\3728\034E\372\000\253|gq\372\315[\266"
 391      FA381C45 
 391      FA00AB7C 
 391      6771FACD 
 391      5BB6
 392 0ca5 9EFAF14C 		.ascii	"\236\372\361LD\376N\310\361\337N\267\014\245l\331\351"
 392      44FE4EC8 
 392      F1DF4EB7 
 392      0CA56CD9 
 392      E9
ARM GAS  /tmp/ccGgyJ3f.s 			page 31


 393 0cb6 70ACCB62 		.ascii	"p\254\313b\314\343\362MV\332\027\231\336\335\216>\205"
 393      CCE3F24D 
 393      56DA1799 
 393      DEDD8E3E 
 393      85
 394 0cc7 E02AD204 		.ascii	"\340*\322\004\307`|\247Lmd\302D\241{\311\017\236>\337"
 394      C7607CA7 
 394      4C6D64C2 
 394      44A17BC9 
 394      0F9E3EDF 
 395 0cdb 750BAAAC 		.ascii	"u\013\252\254\032\327yG\363\255\266\330`\275t#\022X"
 395      1AD77947 
 395      F3ADB6D8 
 395      60BD7423 
 395      1258
 396 0ced 9E1611C4 		.ascii	"\236\026\021\304~\033\006zr\377\203\033q\265fN\377\266"
 396      7E1B067A 
 396      72FF831B 
 396      71B5664E 
 396      FFB6
 397 0cff 718B229D 		.ascii	"q\213\"\235\307\306&\272,\326p\360\354\376_Sk ?e\267"
 397      C7C626BA 
 397      2CD670F0 
 397      ECFE5F53 
 397      6B203F65 
 398 0d14 86F54D33 		.ascii	"\206\365M3\204\326\010u\036\263\371 6\277\354\036\322"
 398      84D60875 
 398      1EB3F920 
 398      36BFEC1E 
 398      D2
 399 0d25 FC646BF3 		.ascii	"\374dk\363'\277<\377[\332\374d\241\346O\356\235\226"
 399      27BF3CFF 
 399      5BDAFC64 
 399      A1E64FEE 
 399      9D96
 400 0d37 CE186D96 		.ascii	"\316\030m\226qf\367\235\275\374\320<ld\032\032\320\365"
 400      7166F79D 
 400      BDFCD03C 
 400      6C641A1A 
 400      D0F5
 401 0d49 7BACDDF7 		.ascii	"{\254\335\367\004\273\221-\031W{\031\373\275\233\344"
 401      04BB912D 
 401      19577B19 
 401      FBBD9BE4 
 402 0d59 BE5DF60B 		.ascii	"\276]\366\013b6<\261\024{\312\344\241\252\243SD\336"
 402      62363CB1 
 402      147BCAE4 
 402      A1AAA353 
 402      44DE
 403 0d6b 88AFECC5 		.ascii	"\210\257\354\305\021A\301\252E\3002x\366k,\330\004\307"
 403      1141C1AA 
 403      45C03278 
 403      F66B2CD8 
 403      04C7
 404 0d7d 603C67DF 		.ascii	"`<g\337\262`\257\211\200\331_\016L\334d\301j\034\203"
 404      B260AF89 
 404      80D95F0E 
ARM GAS  /tmp/ccGgyJ3f.s 			page 32


 404      4CDC64C1 
 404      6A1C83
 405 0d90 F19CDD62 		.ascii	"\361\234\335b\301^\027\001\263\337\265L\334a\301f9\006"
 405      C15E1701 
 405      B3DFB54C 
 405      DC61C166 
 405      3906
 406 0da2 E339BBCB 		.ascii	"\3439\273\313\202\325\212\200\371\3549\233|\200\001"
 406      82D58A80 
 406      F9EC399B 
 406      7C8001
 407 0db1 5BE0188C 		.ascii	"[\340\030\214\347\254\206\005[,\002\226asv\032\013\366"
 407      E7AC8605 
 407      5B2C0296 
 407      6173761A 
 407      0BF6
 408 0dc3 B663309E 		.ascii	"\266c0\236\263\327Y\260\025\"`\205\366\234\315d\301"
 408      B3D759B0 
 408      15226085 
 408      F69CCD64 
 408      C1
 409 0dd4 563B06E3 		.ascii	"V;\006\3439\233\305\202\275+\002\326\313\236\2639,X"
 409      399BC582 
 409      BD2B02D6 
 409      CB9EB339 
 409      2C58
 410 0de6 BD63309E 		.ascii	"\275c0\236\263\225,\330V\021\260'\3559[\315\20258\006"
 410      B3952CD8 
 410      5611B027 
 410      ED395BCD 
 410      82353806 
 411 0dfa E3395BCB 		.ascii	"\3439[\313\202} \002f\373tCU\342]\026\254\3211\030\317"
 411      827D2002 
 411      66FB7443 
 411      55E25D16 
 411      ACD13118 
 412 0e0f D906166C 		.ascii	"\331\006\026l\227\010\230\355\363\015U\211z\026l\267"
 412      970898ED 
 412      F30D5589 
 412      7A166CB7 
 413 0e1f 63309EB3 		.ascii	"c0\236\263\315,\330>\0210\333'\034\252\022[Y\260C\216"
 413      CD2CD83E 
 413      1130DB27 
 413      1CAA125B 
 413      59B0438E 
 414 0e33 C178CEF6 		.ascii	"\301x\316\366\261`\207E\300\206\246\341,\371\261\213"
 414      B1608745 
 414      C086A6E1 
 414      2CF9B18B 
 415 0e43 3327B998 		.ascii	"3'\271\230X\375XG3\300q8GK)\214\223\035\235Fd\234\334"
 415      58FD5847 
 415      33C07138 
 415      474B298C 
 415      931D9D46 
 416 0e5a 24B67EB0 		.ascii	"$\266~\260\336\230\347i\260\372\205\010b\206\011pV#"
 416      DE98E769 
 416      B0FA8508 
ARM GAS  /tmp/ccGgyJ3f.s 			page 33


 416      62860970 
 416      5623
 417 0e6c 13F95E74 		.ascii	"\023\371^t\014f1\345F\353rD\350\256\2277q\253t\241\345"
 417      0C6631E5 
 417      46EB7244 
 417      E8AE9737 
 417      71AB74A1 
 418 0e81 B617DBE7 		.ascii	"\266\027\333\347\314\333t\323^\266\233\256\213\310\220"
 418      CCDB74D3 
 418      5EB69BAE 
 418      8BC890
 419 0e90 61DE3DD9 		.ascii	"a\336=\3318\007/)\211\337vu\360\364~#z?\210\321\373"
 419      38072F29 
 419      89DF7675 
 419      F0F47E23 
 419      7A3F88D1 
 420 0ea5 9D8ED6F0 		.ascii	"\235\216\326\360\217\334\330\305|\262\336\341\243H/"
 420      8FDCD8C5 
 420      7CB2DEE1 
 420      A3482F
 421 0eb4 75B24891 		.ascii	"u\262H\221\356B\213\375\204\017\206r\344\247\033W\350"
 421      EE428BFD 
 421      840F8672 
 421      E4A71B57 
 421      E8
 422 0ec5 FA388F13 		.ascii	"\3728\217\0239v\032r\034F9^\355\364\375\345\230\356"
 422      39761A72 
 422      1C46395E 
 422      EDF4FDE5 
 422      98EE
 423 0ed7 588E872C 		.ascii	"X\216\207,r4<\344\\\216#\206\034\307Q\216\271\377\013"
 423      72343CE4 
 423      5C8E2386 
 423      1CC7518E 
 423      B9FF0B
 424 0eea 722C722C 		.ascii	"r,r,\007\367t\035YJ=L\227RB[\300\247]\226-\340#\273"
 424      07F7741D 
 424      594A3D4C 
 424      9752425B 
 424      C0A75D96 
 425 0f02 C84DD1A4 		.ascii	"\310M\321\2448\373s\2467v1\353O]l\375y\331\320\330\027"
 425      38FB73A6 
 425      377631EB 
 425      4F5D6CFD 
 425      79D9D0D8 
 426 0f17 A8B1772C 		.ascii	"\250\261w,\032\023G:\331\370\301*\343\001\353s\010\265"
 426      1A13473A 
 426      D9F8C12A 
 426      E301EB73 
 426      08B5
 427 0f29 BADD50B3 		.ascii	"\272\335P\263\233\326\323\273\031\277D\240\3726\275"
 427      9BD6D3BB 
 427      19BF44A0 
 427      FA36BD
 428 0f38 E8B174A2 		.ascii	"\350\261t\242\207\357D\370JZ\272\231z\206\302C\327\306"
 428      87EF44F8 
 428      4A5ABA99 
ARM GAS  /tmp/ccGgyJ3f.s 			page 34


 428      7A86C243 
 428      D7C6
 429 0f4a 5EE9FF7B 		.ascii	"^\351\377{=\0109\220}\322\201\016g\217\224\001\375j"
 429      3D083990 
 429      7DD2810E 
 429      678F9401 
 429      FD6A
 430 0f5c A3E1F969 		.ascii	"\243\341\371i'5}/\304\252\304\232\211s\215\013\005O"
 430      27357D2F 
 430      C4AAC49A 
 430      89738D0B 
 430      054F
 431 0f6e E094FC3D 		.ascii	"\340\224\374=\341\36679\337\365h\350F\255\356\032\012"
 431      E1F63739 
 431      DFF568E8 
 431      46ADEE1A 
 431      0A
 432 0f7f 74AC4D0F 		.ascii	"t\254M\017\267k\327\343l{\005I~\024\351k\353pw\264D"
 432      B76BD7E3 
 432      6C7B0549 
 432      7E14E96B 
 432      EB7077B4 
 433 0f94 22BDD5F2 		.ascii	"\"\275\325\362\260\340\316Ir?\356|"
 433      B0E0CE49 
 433      723FEE7C 
 434 0fa0 971D743F 		.ascii	"\227\035t?\316E\366\343\256X\224!\260\0033\26632m\335"
 434      CE45F6E3 
 434      AE589421 
 434      B00333B6 
 434      33326DDD 
 435 0fb4 0201CBE9 		.ascii	"\002\001\313\351j\354\307\211\355\300T\233vA\267\331"
 435      6AECC789 
 435      EDC0549B 
 435      7641B7D9 
 436 0fc4 AA5C8A01 		.ascii	"\252\\\212\001\333^}r]\230\342O\223[]d\342\327\335\334"
 436      DB5E7D72 
 436      5D98E24F 
 436      935B5D64 
 436      E2D7DDDC 
 437 0fd8 46EC94CE 		.ascii	"F\354\224\316Nu\357cu\237\270\3354G&\374\247\3314z\222"
 437      4E75EF63 
 437      759FB8DD 
 437      344726FC 
 437      A7D9347A 
 438 0fed 0DB1928A 		.ascii	"\015\261\222\212?\325u'\252g\234\233(~vg\2077s"
 438      3FD57527 
 438      AA679C9B 
 438      287E7667 
 438      873773
 439 1000 2AD232AC 		.ascii	"*\3222\254R\355n\243\370\235\335\250\342\311O\002W\356"
 439      52ED6EA3 
 439      F89DDDA8 
 439      E2C94F02 
 439      57EE
 440 1012 D22A9ED4 		.ascii	"\322*\236\324m\337\210\374$\265\251\251\311/:\006\363"
 440      6DDF88FC 
 440      24B5A9A9 
ARM GAS  /tmp/ccGgyJ3f.s 			page 35


 440      C92F3A06 
 440      F3
 441 1023 65EAC594 		.ascii	"e\352\305\224\260\232\374\0277\351\305\227\335d\013"
 441      B09AFC17 
 441      37E9C597 
 441      DD640B
 442 1032 7C02DF97 		.ascii	"|\002\337\227\233\255}\311i\316\310\332.\350\365\304"
 442      9BAD7DC9 
 442      69CEC8DA 
 442      2EE8F5C4 
 443 1042 D43DE6C5 		.ascii	"\324=\346\305L\352\363\032El#\3032\274v\017\252\204"
 443      4CEAF31A 
 443      456C23C3 
 443      32BC760F 
 443      AA84
 444 1054 FA9BDD8E 		.ascii	"\372\233\335\216\301|\034\330\226\327\004\357\237\262"
 444      C17C1CD8 
 444      96D704EF 
 444      9FB2
 445 1062 3CE17318 		.ascii	"<\341s\030\333\255\261\232\313w\213\017\214\227\307"
 445      DBADB19A 
 445      CB778B0F 
 445      8C97C7
 446 1071 E2D45923 		.ascii	"\342\324Y#`/0\317\177\221\2137\001S\273\255\271\327"
 446      602F30CF 
 446      7F918B37 
 446      0153BBAD 
 446      B9D7
 447 1083 44CDA0EA 		.ascii	"D\315\240\352\014\326r\373\274qO1]\012\314\262\302e"
 447      0CD672FB 
 447      BC714F31 
 447      5D0ACCB2 
 447      C265
 448 1095 5DA9F070 		.ascii	"]\251\360pwC\226[\354E\037\377:\266\221D:\263Q\246\005"
 448      7743965B 
 448      EC451FFF 
 448      3AB69144 
 448      3AB351A6 
 449 10aa F75A6704 		.ascii	"\367Zg\004\252\031\306\020k\030C\234\206\2068\035\015"
 449      AA19C610 
 449      6B18439C 
 449      8686381D 
 449      0D
 450 10bb 7106D237 		.ascii	"q\006\3227Xs\264\013\266f\271\231\345\303\333\216\345"
 450      5873B40B 
 450      B666B999 
 450      E5C3DB8E 
 450      E5
 451 10cc F6597AC7 		.ascii	"\366Yz\307\256\231)l3\253\356\025\260=\373]\033\342"
 451      AE99296C 
 451      33ABEE15 
 451      B03DFB5D 
 451      1BE2
 452 10de D4FFD90C 		.ascii	"\324\377\331\014\007\3505\203M\216\021yk\276\374\032"
 452      07E83583 
 452      4D8E1179 
 452      6BBEFC1A 
ARM GAS  /tmp/ccGgyJ3f.s 			page 36


 453 10ee 170E6C17 		.ascii	"\027\016l\027\201{2\015\203\351>\354U\"\360\372xANw"
 453      817B320D 
 453      83E93EEC 
 453      5522F0FA 
 453      78414E77 
 454 1102 910E1A87 		.ascii	"\221\016\032\207\364%\244\023\220\356B\372\021\322="
 454      F425A413 
 454      90EE42FA 
 454      11D23D
 455 1111 480F20FD 		.ascii	"H\017 \375\024\351gHO!mAZ\205\035\375\012\322\327\220"
 455      14E96748 
 455      4F216D41 
 455      5A851DFD 
 455      0AD2D790 
 456 1125 4E465A87 		.ascii	"NFZ\207tA6\0030f\201-+\216>\370\016\372\352\026\274"
 456      74413603 
 456      3066812D 
 456      2B8E3EF8 
 456      0EFAEA16 
 457 113a 0A5B7D9F 		.ascii	"\012[}\237\325\362\306\272,{\370m.B\275q\237\300\305"
 457      D5F2C6BA 
 457      2C7BF86D 
 457      2E42BD71 
 457      9FC0C5
 458 114d BC0C975B 		.ascii	"\274\014\227[\246\266\236\033\263\245\212\366\351l4"
 458      A6B69E1B 
 458      B3A58AF6 
 458      E96C34
 459 115c EBA96ECB 		.ascii	"\353\251n\313\355v\331o\244\345;\365x\255\375\263t\334"
 459      ED76D96F 
 459      A4E53BF5 
 459      78ADFDB3 
 459      74DC
 460 116e D594E49D 		.ascii	"\325\224\344\235R?O\351d\312\232\243\177\242w\\\275"
 460      523F4FE9 
 460      64CA9AA3 
 460      7FA2775C 
 460      BD
 461 117f 8DA3F133 		.ascii	"\215\243\3613\213N\262\342\020--\267\270\271\304\345"
 461      8B4EB2E2 
 461      102D2DB7 
 461      B8B9C4E5 
 462 118f 1378C7D5 		.ascii	"\023x\307\325\362\354.\356\305q\211\353'\246\031FI/"
 462      F2EC2EEE 
 462      C57189EB 
 462      27A61946 
 462      492F
 463 11a1 F79F4316 		.ascii	"\367\237C\026\226\267oJ$\367\016\234`\356\035\370\312"
 463      96B76F4A 
 463      24F70E9C 
 463      60EE1DF8 
 463      CA
 464 11b2 31988F03 		.ascii	"1\230\217\003\273\311\202]\022\001\313p\253\324-\026"
 464      BBC9825D 
 464      1201CB70 
 464      ABD42D16 
 465 11c2 ECAA6330 		.ascii	"\354\252c0\236\263;,\330\267\"`\031n\225\272\313\202"
ARM GAS  /tmp/ccGgyJ3f.s 			page 37


 465      9EB33B2C 
 465      D8B72260 
 465      196E95BA 
 465      CB82
 466 11d4 DD710CC6 		.ascii	"\335q\014\306s6\371$\0036\356~\001\260\0147\274\324"
 466      7336F924 
 466      0336EE7E 
 466      01B00C37 
 466      BCD4
 467 11e6 B060131C 		.ascii	"\260`\023\034\203\361\234Mc\301jD\300|i8K\367a\007\201"
 467      83F19C4D 
 467      63C16A44 
 467      C07C6938 
 467      4BF76107 
 468 11fb 26AFC049 		.ascii	"&\257\300I\352\257\350\235V!]\203t\035\322\365H7\"\335"
 468      EAAFE89D 
 468      56215D83 
 468      741DD2F5 
 468      483722DD 
 469 120f 84740BD2 		.ascii	"\204t\013\322\367D&\262\245\354\0143\363~\001o\224a"
 469      F74426B2 
 469      A5EC0C33 
 469      F37E016F 
 469      9461
 470 1221 07696AEB 		.ascii	"\007ij\353\276\377\376>\267\3526\267\324\357\372W\342"
 470      BEFFFE3E 
 470      B7EA36B7 
 470      D4EFFA57 
 470      E2
 471 1232 3EB2DFAE 		.ascii	">\262\337\256\373\241[\354v\335F\253/\271\276\007}I"
 471      FBA15BEC 
 471      76DD46AB 
 471      2FB9BE07 
 471      7D49
 472 1244 A350787D 		.ascii	"\243Px}C0\\K\373>\204)kv\375\226\372\302&\364\205g\356"
 472      43305C4B 
 472      FB3E8429 
 472      6B76FD96 
 472      FAC226F4 
 473 125b CFEA0B79 		.ascii	"\317\352\013y\034\302\337\036+\377k\366\"\377{\204|"
 473      1CC2DF1E 
 473      2BFF6BF6 
 473      22FF7B84 
 473      7C
 474 126c E1FABDBC 		.ascii	"\341\372\275\274/\374\026Y\330\323n_\270a/c\360-\216"
 474      2FFC1659 
 474      D8D36E5F 
 474      B8612F63 
 474      F02D8E
 475 127f C17C1C58 		.ascii	"\301|\034X=\013vW\004,\323m\243,X\325\017\234\202\361"
 475      3D0B7657 
 475      042CD36D 
 475      A32C58D5 
 475      0F9C82F1 
 476 1293 9C6D65C1 		.ascii	"\234me\301\306\213\200e\272m\224\005{\3051\230/]\367"
 476      C68B8065 
 476      BA6D9405 
ARM GAS  /tmp/ccGgyJ3f.s 			page 38


 476      7BC53198 
 476      2F5DF7
 477 12a6 4A6DAC43 		.ascii	"Jm\254C\223\367\242\223\330\207C\377\000\322CH?Az\030"
 477      93F7A293 
 477      D88743FF 
 477      00D24348 
 477      3F417A18 
 478 12ba E9511197 		.ascii	"\351Q\021\227\260\213u\011\223\221\341\306\366.(aD\237"
 478      B08B7509 
 478      9391E1C6 
 478      F62E2861 
 478      449F
 479 12cc FE97FAB6 		.ascii	"\376\227\372\266.\201\352\303\216\203\023,\0073\034"
 479      2E81EAC3 
 479      8E83132C 
 479      07331C
 480 12db 73E06339 		.ascii	"s\340c9H\334\336C7\347\315g\245\347X\361\322m\313fZ"
 480      48DCDE43 
 480      37E7CD67 
 480      A5E758F1 
 480      D26DCB66 
 481 12f0 A5ECC95B 		.ascii	"\245\354\311[9\324\004[\350\030,\207\003\233\274\227"
 481      39D4045B 
 481      E8182C87 
 481      039BBC97 
 482 1300 015BEE18 		.ascii	"\001[\356\030\314\356\376\265\035h\013;\261\317\217"
 482      CCEEFEB5 
 482      1D680B3B 
 482      B1CF8F
 483 130f 236D467A 		.ascii	"#mFz\032\351\347\374\202{\355\017\254qk\243u\305\224"
 483      1AE9E7FC 
 483      827BED0F 
 483      AC716BA3 
 483      75C594
 484 1322 F2A29228 		.ascii	"\362\242\222(\256]\337\276\317\366m\343\017\004&\034"
 484      AE5DDFBE 
 484      CFF66DE3 
 484      0F04261C 
 485 1332 9FBD754D 		.ascii	"\237\275uMm\275dL8\024\030\026\350\216\021yk\231~\262"
 485      6DBD644C 
 485      38141816 
 485      E88E1179 
 485      6B997EB2 
 486 1346 96BB15FA 		.ascii	"\226\273\025\372\240\010^\206\333\013\346\320\020\201"
 486      A0085E86 
 486      DB0BE6D0 
 486      1081
 487 1354 821D770C 		.ascii	"\202\035w\014\346\223l?\354sP\232\274\020\027Ho\342"
 487      E6936C3F 
 487      EC73509A 
 487      BC101748 
 487      6FE2
 488 1366 3D856B91 		.ascii	"=\205k\221\336D\372\026\366\314\022\244\333\220\236"
 488      DE44FA16 
 488      F6CC12A4 
 488      DB909E
 489 1375 437A01E9 		.ascii	"Cz\001\351W\"=V\313\336}x\026E\230\335\336\273\346\310"
ARM GAS  /tmp/ccGgyJ3f.s 			page 39


 489      57223D56 
 489      CBDE7D78 
 489      164598DD 
 489      DEBBE6C8 
 490 1389 D386DDCC 		.ascii	"\323\206\335\314\253\221\353p\331\364\225cD\276\307"
 490      AB91EB70 
 490      D9F49563 
 490      44BEC7
 491 1398 BEA55B56 		.ascii	"\276\245[V\024\354\212\010X\272\301\315\250\225*t\016"
 491      14EC8A08 
 491      58BAC1CD 
 491      A8952A74 
 491      0E
 492 13a9 2A742E2A 		.ascii	"*t.*\361\033T\326e~\330\334l3lf[o\376L=k'e\302\262S"
 492      F11B54D6 
 492      657ED8DC 
 492      6C336C66 
 492      5B6FFE4C 
 493 13c4 FC0C9579 		.ascii	"\374\014\225y\353\326\015|\214\312\311C\210\274\232"
 493      EBD60D7C 
 493      8CCAC943 
 493      88BC9A
 494 13d3 5A1B4D37 		.ascii	"Z\033M7H\337\263\\\365CY\312\372\330h\272m\261t\037"
 494      48DFB35C 
 494      F54359CA 
 494      FAD868BA 
 494      6DB1741F 
 495 13e7 F6FD2D10 		.ascii	"\366\375-\020\220\342\023\253\033\360\311\346\353H_"
 495      90E213AB 
 495      1BF0C9E6 
 495      EB485F
 496 13f6 43D16B90 		.ascii	"C\321k\220NC\372:\275\373UD\015\253\271\267\014!\333"
 496      4E43FA3A 
 496      BDFB5544 
 496      0DABB9B7 
 496      0C21DB
 497 1409 2BDAFDDC 		.ascii	"+\332\375\334\363{g\316U\3115\344e\016\324\260a~q\214"
 497      F37B67CE 
 497      55C935E4 
 497      650ED4B0 
 497      617E718C 
 498 141d C82BF6F8 		.ascii	"\310+\366\370%\261W\377\374\037\023k%\263\207\320r\341"
 498      25B157FF 
 498      FC1F136B 
 498      25B387D0 
 498      72E1
 499 142f E84F688C 		.ascii	"\350Oh\214x\033c\304}?\314\032#Z\200\210\206\356Z\203"
 499      781B63C4 
 499      7D3FCC1A 
 499      235A8088 
 499      86EE5A83 
 500 1443 C44DF499 		.ascii	"\304M\364\231\316\273BA\356\226\355\233d\275:_\374b"
 500      CEBB4241 
 500      EE96ED9B 
 500      64BD3A5F 
 500      FC62
 501 1455 E9F1AFB7 		.ascii	"\351\361\257\267]1.\330\215\365\020\2776\351G\326\241"
ARM GAS  /tmp/ccGgyJ3f.s 			page 40


 501      5D312ED8 
 501      8DF510BF 
 501      36E947D6 
 501      A1
 502 1466 E0F0AD21 		.ascii	"\340\360\255!\2124\015!\356f\236\3732\364k\313\205["
 502      8A340D21 
 502      EE669EFB 
 502      32F46BCB 
 502      855B
 503 1478 5D6F90E7 		.ascii	"]o\220\347\331M\236\3468\006\344g\346}\333qf\246`u\216"
 503      D94D9EE6 
 503      3806E467 
 503      E67DDB71 
 503      66A66075 
 504 148d C13A7360 		.ascii	"\301:s`\007X\260\305\216\301\272p`\207X\260\345\216"
 504      0758B0C5 
 504      8EC1BA70 
 504      608758B0 
 504      E58E
 505 149f C178EBFD 		.ascii	"\301x\353\375\204\005[\343\030\214\273\362\2368\\\235"
 505      84055BE3 
 505      188CBBF2 
 505      9E385C9D 
 506 14af BF6FA8F8 		.ascii	"\277o\250\370+\323\216\177}\272J\246\326?\031\333\337"
 506      2BD38E7F 
 506      7DBA4AA6 
 506      D63F19DB 
 506      DF
 507 14c0 DCC68E9C 		.ascii	"\334\306\216\234\2764\015\274,\276\250\211\221!\353"
 507      BE340DBC 
 507      2CBEA889 
 507      9121EB
 508 14cf 633BEC55 		.ascii	"c;\354UwbH\027\272\215\037\247/)4\231j\260*\305\341"
 508      77624817 
 508      BA8D1FA7 
 508      2F293499 
 508      6AB02AC5 
 509 14e4 230AB7AB 		.ascii	"#\012\267\253_qx\221\363\370\327\027\256\032\343\353"
 509      5F717891 
 509      F3F8D717 
 509      AE1AE3EB 
 510 14f4 7564A1A9 		.ascii	"ud\241\251\215^\234\277(\\\221\366[\005q\262*B\315\\"
 510      8D5E9CBF 
 510      285C91F6 
 510      5B0571B2 
 510      2A42CD5C 
 511 1508 F9F14C63 		.ascii	"\371\361Lc\352\246|}&\202\230\341F\242\327\351\215D"
 511      EAA67C7D 
 511      268298E1 
 511      46A2D7E9 
 511      8D44
 512 151a 14ECAC63 		.ascii	"\024\354\254c0\336\222g\262`\227D\3002\334\3213\213"
 512      30DE9267 
 512      B2609744 
 512      C032DCD1 
 512      338B
 513 152c 05FBD631 		.ascii	"\005\373\3261\030\317\331\034\026\354\256\010\230\317"
ARM GAS  /tmp/ccGgyJ3f.s 			page 41


 513      18CFD91C 
 513      16ECAE08 
 513      98CF
 514 153a 9EB35A16 		.ascii	"\236\263Z\026\254\372\001\247`<g+Y\260\327D\3002\204"
 514      ACFA01A7 
 514      603C672B 
 514      59B0D744 
 514      C03284
 515 154d BAAB59B0 		.ascii	"\272\253Y\260\031\216\301X\316\364\304\272\306<\346"
 515      198EC158 
 515      CEF4C4BA 
 515      C63CE6
 516 155c C5E7E4CF 		.ascii	"\305\347\344\317\024\210\2132\247\300$\230nN\201\313"
 516      14888B32 
 516      A7C02498 
 516      6E4E81CB 
 517 156c 3C4EDF49 		.ascii	"<N\337I\361\216q/H\322%\030\231\326\324K)\346Y\205\260"
 517      F18E712F 
 517      48D22518 
 517      99D6D44B 
 517      29E65985 
 518 1581 34EC384A 		.ascii	"4\3548J\272\313\254\327[q\215\246{\360b\006\322\361"
 518      BACBACD7 
 518      5B718DA6 
 518      7BF06206 
 518      D2F1
 519 1593 485F463A 		.ascii	"H_F:\021\351\253H'!\235\212t:\322YH\347 \255EZ\207t"
 519      11E9AB48 
 519      27219D8A 
 519      743AD259 
 519      48E720AD 
 520 15ab 01D23791 		.ascii	"\001\3227\221.F\272\004\351\333\036\2018\353\026\273"
 520      2E46BA04 
 520      E9DB1E81 
 520      38EB16BB 
 521 15bb 325BF880 		.ascii	"2[\370\200@Td\357\365 \316\272\271@\276L'd\032p.\263"
 521      405464EF 
 521      F520CEBA 
 521      B940BE4C 
 521      27641A70 
 522 15d1 22665DDD 		.ascii	"\"f]\335\362\266z\351\377\246\260\326:\306z(S\267\254"
 522      F2B67AE9 
 522      FFA6B0D6 
 522      3AC67A28 
 522      53B7AC
 523 15e4 6082D795 		.ascii	"`\202\327\225\030\274\256\302\260\365\006\306\352-H"
 523      18BCAEC2 
 523      B0F506C6 
 523      EA2D48
 524 15f3 FF8A8A5C 		.ascii	"\377\212\212\\%\242\310\267\331\200u3\262\272\270\335"
 524      25A2C8B7 
 524      D9807533 
 524      B2BAB8DD 
 525 1603 01EB8DDA 		.ascii	"\001\353\215\332Z\372^N\332A\300\254Gq\010\310\353\361"
 525      5AFA5E4E 
 525      DA41C0AC 
 525      477108C8 
ARM GAS  /tmp/ccGgyJ3f.s 			page 42


 525      EBF1
 526 1615 F6B91DF4 		.ascii	"\366\271\035\364\242\355<|\311VB\204\277\014\323\333"
 526      A2ED3C7C 
 526      C9564284 
 526      BF0CD3DB 
 527 1625 779F6F20 		.ascii	"w\237o \321\243\3313;\254p\016{y\312u|\201\253\371H"
 527      D1A3D933 
 527      3BAC700E 
 527      7B79CA75 
 527      7C81ABF9 
 528 163a DFC756B8 		.ascii	"\337\307V\270\254\223oa\246\216^\314t\364\022\354\350"
 528      AC936F61 
 528      A68E5ECC 
 528      74F412EC 
 528      E8
 529 164b A5D8D16B 		.ascii	"\245\330\321k\261s\327!]\217t\243HG/`;\3723d5\313\373"
 529      B173D721 
 529      5D8F74A3 
 529      48472F60 
 529      3BFA3364 
 530 1662 4F332872 		.ascii	"O3(r\343y\241uD\335\337\233Xor\353\210m\377H#\251\255"
 530      E379A175 
 530      44DDDF9B 
 530      586F72EB 
 530      886DFF48 
 531 1679 1EDC6B7E 		.ascii	"\036\334k~ \373u7\036\010\357\235\362X\326\021\007\351"
 531      20FB7537 
 531      1E08EF9D 
 531      F258D611 
 531      07E9
 532 168b 4B384979 		.ascii	"K8Iy\366u\304!\352\377o\341>\314Yd\200Tl\227\331'>m"
 532      F675C421 
 532      EAFF6FE1 
 532      3ECC5964 
 532      80546C97 
 533 16a3 7C9FDAC1 		.ascii	"|\237\332\301d\274e\216Fu\014\\\326\250\2167\253\303"
 533      64BC658E 
 533      46750C5C 
 533      D6A88E37 
 533      ABC3
 534 16b5 8D4C987B 		.ascii	"\215L\230{\301\312[\3260\227\013\021\023GY\260o\034"
 534      C1CA5BD6 
 534      30970B11 
 534      134759B0 
 534      6F1C
 535 16c7 83F5E2C0 		.ascii	"\203\365\342\300\216\217\177\305\330p\242\023\347U\021"
 535      8E8F7FC5 
 535      D870A213 
 535      E75511
 536 16d6 C56530A3 		.ascii	"\305e0\243\023\251Y\030\206\270Gq\010\306\253\355\022"
 536      13A95918 
 536      86B84771 
 536      08C6ABED 
 536      12
 537 16e7 3BA5DF14 		.ascii	";\245\337\024\341,C\264w\205\005ku\014\306sv\215\005"
 537      E12C43B4 
 537      7785056B 
ARM GAS  /tmp/ccGgyJ3f.s 			page 43


 537      750CC673 
 537      768D05
 538 16fa 7BA98B00 		.ascii	"{\251\213\000X\206h\357&\0136\3211\030\317\331\2556"
 538      588668EF 
 538      260B36D1 
 538      3118CFD9 
 538      AD36
 539 170c 37B473B1 		.ascii	"7\264s\261K\033'\362\211\207q\"\323D\032\367\331I\242"
 539      4B1B27F2 
 539      89877122 
 539      D3441AF7 
 539      D949A2
 540 171f 27E6EECA 		.ascii	"'\346\356\312CgL\302!X\003[\321\322\307/\2764\302\244"
 540      43674CC2 
 540      2158035B 
 540      D1D2C72F 
 540      BE34C2A4 
 541 1733 FBB00E42 		.ascii	"\373\260\016B\223\267y\210\377|\037\275\345\207H\267"
 541      93B77988 
 541      FF7C1FBD 
 541      E58748B7 
 542 1743 23DD8174 		.ascii	"#\335\201t\027\322\217\220\356F\272\027\351~\244\007"
 542      17D28F90 
 542      EE46BA17 
 542      E97EA407 
 543 1753 917E8CF4 		.ascii	"\221~\214\364\260\210\247\335\302*\251\256\213SO\313"
 543      B088A7DD 
 543      C22AA9AE 
 543      8B534FCB 
 544 1763 F550F38D 		.ascii	"\365P\363\215\023+\376\316\230R\351\276\354\"\021\300"
 544      132BFECE 
 544      9852E9BE 
 544      EC2211C0 
 545 1773 0C96BDE5 		.ascii	"\014\226\275\345<7\007.\267\302\245s\011\342\027y\246"
 545      3C37072E 
 545      B7C2A573 
 545      09E21779 
 545      A6
 546 1784 3293D674 		.ascii	"2\223\326t\234\264^\307I\253\026\351|\244\233Q\225\307"
 546      9CB45EC7 
 546      49AB16E9 
 546      7CA49B51 
 546      95C7
 547 1796 901E1751 		.ascii	"\220\036\027Q\350$\373\367$*\322\352.\374\354A_\352"
 547      E824FBF7 
 547      242AD2EA 
 547      2EFCEC41 
 547      5FEA
 548 17a8 5FB7A57A 		.ascii	"_\267\245z\005\270*\205\276)^\223\307\241O~I\311\370"
 548      05B82A85 
 548      BE295E93 
 548      C7A14F7E 
 548      49C9F8
 549 17bb 4E7F5A55 		.ascii	"N\177ZU\277\036z\226\266\011\021\002\202\333W383\376"
 549      BF1E7A96 
 549      B6091102 
 549      82DB5733 
ARM GAS  /tmp/ccGgyJ3f.s 			page 44


 549      3833FE
 550 17ce 0A60     		.ascii	"\012`"
 551 17d0 D56783BA 		.ascii	"\325g\203\272\320\367\361K|-\313\353\265\360\347\223"
 551      D0F7F14B 
 551      7C2DCBEB 
 551      B5F0E793 
 552 17e0 9E747F0C 		.ascii	"\236t\177\014\260\251\272)\375\037\003d|\325\322\027"
 552      B0A9BA29 
 552      FD1F0364 
 552      7CD5D217 
 553 17f0 9EEC7F76 		.ascii	"\236\354\177v\306\354\223\351\311g\213\207J\2517c/\276"
 553      C6EC93E9 
 553      C9678B87 
 553      4AA93763 
 553      2FBE
 554 1802 7AC3D8E0 		.ascii	"z\303\330\3408\207\323\362A\213b\263\002)\322)\254\362"
 554      3887D3F2 
 554      418B62B3 
 554      0229D229 
 554      ACF2
 555 1814 A575663E 		.ascii	"\245uf>\256\371hi\366{\376.\237\317A\343$\177\301\244"
 555      AEF96869 
 555      F67BFE2E 
 555      9FCF41E3 
 555      247FC1A4 
 556 1828 C94DB262 		.ascii	"\311M\262b\340\231\015:\374?\247+\356\324_0Y\376\344"
 556      E0990D3A 
 556      FC3FA72B 
 556      EED45F30 
 556      59FEE4
 557 183b AEEDE5EB 		.ascii	"\256\355\345\353K\216\227e\227m\226e\017${\371c\253"
 557      4B8E9765 
 557      976D9665 
 557      0F247BF9 
 557      63AB
 558 184d 047CB3D9 		.ascii	"\004|\263\331\206\253\236\270\346&+\011\302\232&\177"
 558      86AB9EB8 
 558      E6262B09 
 558      C29A267F 
 559 185d 2A0496E1 		.ascii	"*\004\226\341v\323o\335\346\337[\301\370\023\322\355"
 559      76D36FDD 
 559      E6DF5BC1 
 559      F813D2ED 
 560 186d 93F66037 		.ascii	"\223\366`7\031\260\343B`\351\236\353K\367aMH\223/\242"
 560      19B0E342 
 560      60E99EEB 
 560      4BF7614D 
 560      48932FA2 
 561 1881 EFFE1ADD 		.ascii	"\357\376\032\335\3057H\257 \275\212\364\232\210\003"
 561      C53748AF 
 561      20BD8AF4 
 561      9A8803
 562 1890 399BF2C8 		.ascii	"9\233\362\310\334?HHm\274\311\245\264\336\244y\313\366"
 562      DC3F4848 
 562      6DBCC9A5 
 562      B4DEA479 
 562      CBF6
ARM GAS  /tmp/ccGgyJ3f.s 			page 45


 563 18a2 3D0DF2F4 		.ascii	"=\015\362\364q\372\263\024K\221\306w%\347}\356\261s"
 563      71FAB314 
 563      4B91C677 
 563      25E77DEE 
 563      B173
 564 18b4 0CD8A2E1 		.ascii	"\014\330\242\341OZ\211?\241\177-21K\265L\177-BjqJ\372"
 564      4F5A893F 
 564      A17F2D32 
 564      314BB54C 
 564      7F2D426A 
 565 18cb 36AD0721 		.ascii	"6\255\007!\227\230\3066\267\266\376T\334}|'\340>vdq"
 565      9798C636 
 565      B7B6FE54 
 565      DC7D7C27 
 565      E03E7664 
 566 18e0 1FFBDF3E 		.ascii	"\037\373\337>\363\017\3704\213\356%\316c~\327\354\327"
 566      F30FF834 
 566      8BEE25CE 
 566      637ED7EC 
 566      D7
 567 18f1 063818C2 		.ascii	"\0068\030\302\3078\257\305q\334&\177>GJ\263;\216\326"
 567      C738AFC5 
 567      71DC267F 
 567      3E474AB3 
 567      3B8ED6
 568 1904 6B39B850 		.ascii	"k9\270P\2447\326\256\300\346I\315v:\216)\334\277\205"
 568      A437D6AE 
 568      C0E649CD 
 568      763A8E29 
 568      DCBF85
 569 1917 ADB6C239 		.ascii	"\255\266\3029\232s\365D\015\363\257\\\365\216\261|\034"
 569      9A73F544 
 569      0DF3AF5C 
 569      F58EB17C 
 569      1C
 570 1928 D634066B 		.ascii	"\3264\006k\233\010\226m,\251'^g\260v;\306\342\371\232"
 570      9B08966D 
 570      2CA9275E 
 570      67B0763B 
 570      C6E2F99A 
 571 193c C9601D11 		.ascii	"\311`\035\021\301\362\331\3635\213\301:\345\030\213"
 571      C1F2D9F3 
 571      358BC13A 
 571      E5188B
 572 194b E76B0E83 		.ascii	"\347k\016\203uA\004+\203\377\254e\260\2569\306\342\371"
 572      7541042B 
 572      83FFAC65 
 572      B0AE39C6 
 572      E2F9
 573 195d 5AC960E9 		.ascii	"Z\311`\351\335\004\260lo\373\327\023\253\031\254W\034"
 573      DD04B06C 
 573      6FFBD713 
 573      AB19AC57 
 573      1C
 574 196e 63F17CAD 		.ascii	"c\361|\255e\260f\212`\331\336\305\255'\336e\260\336"
 574      65B0668A 
 574      60D9DEC5 
ARM GAS  /tmp/ccGgyJ3f.s 			page 46


 574      AD27DE65 
 574      B0DE
 575 1980 748CC5F3 		.ascii	"t\214\305\363\265\201\375\307=\021\254'\355\371\252"
 575      B581FDC7 
 575      3D11AC27 
 575      EDF9AA
 576 198f 67B0DE75 		.ascii	"g\260\336u\214\305\363\265\231\301\332$\202\225\341"
 576      8CC5F3B5 
 576      99C1DA24 
 576      8295E1
 577 199e 5F05B732 		.ascii	"_\005\2672X\011\307X<_\373\030\254\017E\2602\374\253"
 577      5809C758 
 577      3C5FFB18 
 577      AC0F45B0 
 577      32FCAB
 578 19b1 E001066B 		.ascii	"\340\001\006k\227c,\236\257C\014\326^\021\254\014\377"
 578      97632C9E 
 578      AF430CD6 
 578      5E11AC0C 
 578      FF
 579 19c2 2AF84912 		.ascii	"*\370I\022K\223oa\010\342\004\313'\331~\330\271H\223"
 579      4B936F61 
 579      08E204CB 
 579      27D97ED8 
 579      B94893
 580 19d5 5FF49208 		.ascii	"_\364\222\010\344%/\356{#}\031\351D\244\257\"\235\204"
 580      E4252FEE 
 580      7B237D19 
 580      E944A4AF 
 580      229D84
 581 19e8 740AD2A9 		.ascii	"t\012\322\251H\247#\235\201\364\015\244\263\221\316"
 581      48A7239D 
 581      81F40DA4 
 581      B391CE
 582 19f7 453A0FE9 		.ascii	"E:\017\351|\244\013\221.B\372\026\322\245H\227!]\356"
 582      7CA40B91 
 582      2E42FA16 
 582      D2A54897 
 582      215DEE
 583 1a0a 1588705A 		.ascii	"\025\210pZ\205#\234C\335l\"\234\343\227\215\010\247"
 583      85239C43 
 583      DD6C229C 
 583      E3978D08 
 583      A7
 584 1a1b 15239C6F 		.ascii	"\025#\234o\360\274;\266\241J+\023\341\314\205\230C6"
 584      F0BC3BB6 
 584      A14A2B13 
 584      E1CC8598 
 584      4336
 585 1a2d 975AB770 		.ascii	"\227Z\267p\037\307\276b\246\030\347\2165\306\371\253"
 585      1FC7BE62 
 585      A618E78E 
 585      35C6F9AB 
 586 1a3d B74D8CD3 		.ascii	"\267M\214\323<\271\371\304\372/\3457\364m/\352\255\255"
 586      3CB9F9C4 
 586      FA2FE537 
 586      F46D2FEA 
ARM GAS  /tmp/ccGgyJ3f.s 			page 47


 586      ADAD
 587 1a4f 7F76B04C 		.ascii	"\177v\260LZ\347\265\274\221\226\354*'\277\030O\331["
 587      5AE7B5BC 
 587      9196EC2A 
 587      27BF184F 
 587      D95B
 588 1a61 D4D56A51 		.ascii	"\324\325jQ\227\311\330\206\264\214\335\250\335>V\236"
 588      97C9D886 
 588      B48CDDA8 
 588      DD3E569E 
 589 1a71 32AE6E87 		.ascii	"2\256n\207~\211\\\310\264\260FV\206v\274\325[y\233\304"
 589      7E895CC8 
 589      B4B04656 
 589      8676BCD5 
 589      5B799BC4 
 590 1a85 F266FC79 		.ascii	"\362f\374yU\362\373\014\372\200w\362\273\361w\343\026"
 590      55F2FB0C 
 590      FA8077F2 
 590      BBF177E3 
 590      16
 591 1a96 DEC7FF38 		.ascii	"\336\307\3778=\357\357\245\345\375H}\323\010;\245\272"
 591      3DEFEFA5 
 591      E5FD487D 
 591      D3083BA5 
 591      BA
 592 1aa7 EC196FC8 		.ascii	"\354\031o\310\250\324U2\317\350^\376)\023Xa\333\360"
 592      A8D45532 
 592      CFE85EFE 
 592      29135861 
 592      DBF0
 593 1ab9 F821CFE3 		.ascii	"\370!\317\343\337K\363\301\245\201\225\256\370\311X"
 593      DF4BF3C1 
 593      A58195AE 
 593      F8C958
 594 1ac8 3DF1A24E 		.ascii	"=\361\242NV\310\262L\377,\036\226\252I\0203\334k\373"
 594      56C8B24C 
 594      FF2C1E96 
 594      AA491033 
 594      DC6BFB
 595 1adb B7F28D29 		.ascii	"\267\362\215)@\313\206\027\371\213[;\351vx\323\377\235"
 595      40CB8617 
 595      F98B5B3B 
 595      E97678D3 
 595      FF9D
 596 1aed 3D5DF8D8 		.ascii	"=]\370\330\325\332i[\353H\206Z\273lk\021\303\265\253"
 596      D5DA695B 
 596      EB48865A 
 596      BB6C6B11 
 596      C3B5AB
 597 1b00 D5645BAB 		.ascii	"\325d[\253!C\255\217lk\325g\250\265\333\266\026Y\240"
 597      2143AD8F 
 597      6C6BD567 
 597      A8B5DBB6 
 597      1659A0
 598 1b13 DAD5DA93 		.ascii	"\332\325\332\223\252%\271\002\245Z\324\363\314s\277"
 598      AA25B902 
 598      A55AD4F3 
ARM GAS  /tmp/ccGgyJ3f.s 			page 48


 598      CC73BF
 599 1b22 F315496E 		.ascii	"\363\025In\377\323\221HY\217\202\021\261hAYxX\301\360"
 599      FFD39148 
 599      598F8211 
 599      B1684159 
 599      7858C1F0 
 600 1b36 40A0408B 		.ascii	"@\240@\213\226\377\272\"R\021\372uH\033\026.\350\371"
 600      96FFBA22 
 600      5211FA75 
 600      481B162E 
 600      E8F9
 601 1b48 70AF877B 		.ascii	"p\257\207{\026\204+\002e#\202\241\202X<\030\014\225"
 601      16842B02 
 601      652382A1 
 601      82583C18 
 601      0C95
 602 1b5a 3C5C2A79 		.ascii	"<\\*yb\341\377\027\362\307\357\011jq-\246\225W\226\205"
 602      62E1FF17 
 602      F2C7EF09 
 602      6A712DA6 
 602      95579685 
 603 1b6e 1E0E48EC 		.ascii	"\036\016H\354\267R)\237|\033\214\337\374\361\237c\023"
 603      B752299F 
 603      7C1B8CDF 
 603      FCF19F63 
 603      13
 604 1b7f 3C34031A 		.ascii	"<4\003\032\256\210C\215\234\021p|\244\207?\3363\303"
 604      AE88438D 
 604      9C11707C 
 604      A4873FDE 
 604      33C3
 605 1b91 D9E55AA0 		.ascii	"\331\345Z\2404\\\021*\360\003#\332\210\262\270?>\246"
 605      345C112A 
 605      F00323DA 
 605      88B2B83F 
 605      3EA6
 606 1ba3 321483DA 		.ascii	"2\024\203\332\035\374~\263\276\022\253p\305\303\345"
 606      1DFC7EB3 
 606      BE12AB70 
 606      C5C3E5
 607 1bb2 A1BCE195 		.ascii	"\241\274\341\2251\223\203\2342-\036\216\003BnY\244b"
 607      3193839C 
 607      322D1E8E 
 607      03426E59 
 607      A462
 608 1bc4 38E672B4 		.ascii	"8\346r\2642Z\224\023\323\342E\221\021\025q\025*t\030"
 608      325A9413 
 608      D3E24591 
 608      11157115 
 608      2A7418
 609 1bd7 565ED9A3 		.ascii	"V^\331\243W\341\220Pye\036\315\016\212\206b\261\334"
 609      57E19050 
 609      79651ECD 
 609      0E8A8662 
 609      B1DC
 610 1be9 F063853D 		.ascii	"\360c\205=\012\237\035Q\036\2449\362{n(Y\0262\313:\224"
 610      0A9F1D51 
ARM GAS  /tmp/ccGgyJ3f.s 			page 49


 610      1EA439F2 
 610      7B6E2859 
 610      1632CB3A 
 611 1bfe C77EF368 		.ascii	"\307~\363h\341cX\235fi\365\362\312\321\345\230\313+"
 611      E163589D 
 611      6669F5F2 
 611      CAD1E598 
 611      CB2B
 612 1c10 0D973E5A 		.ascii	"\015\227>Z\370\010V3\363X1\016\215=\366\033\222\365"
 612      F8085633 
 612      F358310E 
 612      8D3DF61B 
 612      92F5
 613 1c22 46E34172 		.ascii	"F\343ArTG\206+T-\020P\313\265\341\235R\312\365\207+"
 613      5447862B 
 613      542D1050 
 613      CBB5E19D 
 613      52CAF587 
 614 1c37 C27139E6 		.ascii	"\302q9\346\001i{\201`~?\315\240\372\313\"\303\207\207"
 614      01697B81 
 614      607E3FCD 
 614      A0FACB22 
 614      C38787
 615 1c4a A2A00E10 		.ascii	"\242\240\016\020sxI\230H\3565r\250\336\356\217\372\343"
 615      73784998 
 615      48EE3572 
 615      A8DEEE8F 
 615      FAE3
 616 1c5c 86A64856 		.ascii	"\206\246HV\011\007]\025Zy(?U\027~O}\351\030\013\226"
 616      09075D15 
 616      5A79283F 
 616      55177E4F 
 616      7DE9180B 
 617 1c71 97076261 		.ascii	"\227\007ba\243O\275\370\325\037w\343\361\321\202\322"
 617      A34FBDF8 
 617      D51F77E3 
 617      F1D182D2 
 618 1c81 4879A820 		.ascii	"Hy\250 \020\011\216)\010\206F\026@\307\014\013Gb\005"
 618      10098E29 
 618      08864616 
 618      40C70C0B 
 618      476205
 619 1c94 F1E8888A 		.ascii	"\361\350\210\212?\026@\246T+K\365\033\324\213U\206\011"
 619      3F1640A6 
 619      542B4BF5 
 619      1BD48B55 
 619      8609
 620 1ca6 67030614 		.ascii	"g\003\006\024\365\216\206G\206\242\371\311\334\177\014"
 620      F58E8647 
 620      86A2F9C9 
 620      DC7F0C
 621 1cb5 1892178E 		.ascii	"\030\222\027\216\201 \261P4\036\012\346C\2762\032\211"
 621      8120B150 
 621      341E0AE6 
 621      43BE321A 
 621      89
 622 1cc6 8702F0C5 		.ascii	"\207\002\360\305\033\210TT@\256C0\0343\262\336\021T"
ARM GAS  /tmp/ccGgyJ3f.s 			page 50


 622      1B885454 
 622      40AE4330 
 622      1C33B2DE 
 622      1154
 623 1cd8 E45C2A09 		.ascii	"\344\\*\011\344\\\321\220\026t\217\212\206\343!WlLE"
 623      E45CD190 
 623      16748F8A 
 623      86E32157 
 623      6C4C45
 624 1ceb E09F9DF0 		.ascii	"\340\237\235\360\006y\17782\254,\022\370#\360\327\351"
 624      06797F38 
 624      32AC2C12 
 624      F823F0D7 
 624      E9
 625 1cfc 6992E91D 		.ascii	"i\222\351\035\032\031\016\204\372U\224Dr\206\225\375"
 625      1A190E84 
 625      FA559444 
 625      728695FD 
 626 1d0c D14FECDD 		.ascii	"\321O\354\335K2\025#\312s\206\207\342\300jID\035Y\036"
 626      4B321523 
 626      CA738687 
 626      E2C06A49 
 626      441D591E 
 627 1d20 EF0085B1 		.ascii	"\357\000\205\261\270\026\007Ewx\272\377\277\373\177"
 627      B8160745 
 627      7778BAFF 
 627      BFFB7F
 628 1d2f F75CBFE7 		.ascii	"\367\\\277\347\372\015\311!\331\301C\006\016\302\262"
 628      FA0DC921 
 628      D9C14306 
 628      0EC2B2
 629 1d3e A78A86F4 		.ascii	"\247\212\206\364\373\217>\035I\266h\340s\317\365\201"
 629      FB8F3E1D 
 629      49B668E0 
 629      73CFF581 
 630 1d4e AFCF3D73 		.ascii	"\257\317=s/\371\332\273\337\340TI.))\356\363T\357\027"
 630      2FF9DABB 
 630      DFE05449 
 630      2E2929EE 
 630      F354EF17 
 631 1d62 F2CC1C94 		.ascii	"\362\314\034\224b\376\367\305\375\206\230\371\301/<"
 631      62FEF7C5 
 631      FD8698F9 
 631      C12F3C
 632 1d71 57047937 		.ascii	"W\004y7\266\252\006\302A5\020\013\346\004\264J-\020"
 632      B6AA06C2 
 632      4135100B 
 632      E604B44A 
 632      2D10
 633 1d83 8E8FE92D 		.ascii	"\216\217\351-\"xe$\032\217\025\014\0362\340\221\036"
 633      22786524 
 633      1A8F150C 
 633      1E32E091 
 633      1E
 634 1d94 05FDFBF7 		.ascii	"\005\375\373\367.\030<\250\337\310\356\005\320=\376"
 634      2E183CA8 
 634      DFC8EE05 
ARM GAS  /tmp/ccGgyJ3f.s 			page 51


 634      D03DFE
 635 1da3 B2B220E9 		.ascii	"\262\262 \351\"(\240\035\323\303\211\036i\377v\200\203"
 635      2228A01D 
 635      D3C3891E 
 635      69FF7680 
 635      83
 636 1db4 A911C031 		.ascii	"\251\021\30015B\262D#\004\233J\211\277R\335\344\223"
 636      3542B244 
 636      23049B4A 
 636      89BF52DD 
 636      E493
 637 1dc6 6CD1C001 		.ascii	"l\321\300\001\203\372\367\031\322\347\036\000\010he"
 637      83FAF719 
 637      D2E71E00 
 637      086865
 638 1dd5 65C3B4C0 		.ascii	"e\303\264\300\037\375qO\250\"\350\017\014\353\323\036"
 638      1FFD714F 
 638      A822E80F 
 638      0CEBD31E 
 639 1de5 B99E19D4 		.ascii	"\271\236\031\324o\340\310\036\005\225\320\277T\260\374"
 639      6FE0C81E 
 639      0595D0BF 
 639      54B0FC
 640 1df4 58BC1C3C 		.ascii	"X\274\034<\304\360\312p\004\254x\300\300\336}\212=\003"
 640      C4F0CA70 
 640      04AC78C0 
 640      C0DE7D8A 
 640      3D03
 641 1e06 87BC30A8 		.ascii	"\207\2740\250O\261w\340\340A}\372\364.v\017\372\335"
 641      4FB177E0 
 641      E0417DFA 
 641      F42E760F 
 641      FADD
 642 1e18 A0DEC56A 		.ascii	"\240\336\305j?H\003{\027\313\277Wc\241\270;P\026\322"
 642      3F48037B 
 642      17CBBF57 
 642      63A1B83B 
 642      5016D2
 643 1e2b A2F2B3AE 		.ascii	"\242\362\263\256\247\007\027\027\273\372\027\375{\261"
 643      A7071717 
 643      BBFA17FD 
 643      7BB1
 644 1e39 EBA9BEC5 		.ascii	"\353\251\276\305\375\011yV}\272\270\270C8BZ\016\007"
 644      FD097956 
 644      7DBAB8B8 
 644      4338425A 
 644      0E07
 645 1e4b 81DB588C 		.ascii	"\201\333X\214d\335p\320\240c\242\335\211\270E\221\212"
 645      64DD70D0 
 645      A063A2DD 
 645      89B84591 
 645      8A
 646 1e5c 92F0704F 		.ascii	"\222\360pO\000\017\275\262\011\022\215'\025\032(\215"
 646      000FBDB2 
 646      09128D27 
 646      151A288D 
 647 1e6c 8D89990E 		.ascii	"\215\211\231\016.'^J\214\034\254>P\352\247\371\236\316"
ARM GAS  /tmp/ccGgyJ3f.s 			page 52


 647      2E275E4A 
 647      8C1CAC3E 
 647      50EAA7F9 
 647      9ECE
 648 1e7e B002A544 		.ascii	"\260\002\245D\007\236J\177Eht\034\016\225\321\320\310"
 648      079E4A7F 
 648      4568741C 
 648      0E95D1D0 
 648      C8
 649 1e8f 670520A8 		.ascii	"g\005 \250Z\237*\036P4`4\234Y^\011\336$\032+x\246\250"
 649      5A9F2A1E 
 649      50346034 
 649      9C595E09 
 649      DE241A2B 
 650 1ea6 084E37D9 		.ascii	"\010N7\331\363\306+\243D\253\210\033\216\220Q\033\207"
 650      F3C62BA3 
 650      44AB881B 
 650      8E90511B 
 650      87
 651 1eb7 661E778C 		.ascii	"f\036w\214_\032\210D\211\263\311#\305\304\267\005\342"
 651      5F1A8844 
 651      89B3C923 
 651      C5C4B705 
 651      E2
 652 1ec8 A3FFAD7D 		.ascii	"\243\377\255}(\376\221\217\225\023\315EC\303a6\361\307"
 652      28FE918F 
 652      9513CD45 
 652      43C36136 
 652      F1C7
 653 1eda D558F747 		.ascii	"\325X\367G!=\006\251\027\244\307\325X\217BH\335!\365"
 653      213D06A9 
 653      17A4C7D5 
 653      588F4248 
 653      DD21F5
 654 1eed 80F408A4 		.ascii	"\200\364\010\244\236\220~\003\011\316\353\001\347\365"
 654      9E907E03 
 654      09CEEB01 
 654      E7F5
 655 1efb 80F37AC0 		.ascii	"\200\363z\300y\217\300y\217tW\242=\225\350o\224\350"
 655      798FC079 
 655      8F7457A2 
 655      3D95E86F 
 655      94E8
 656 1f0d A34AF431 		.ascii	"\243J\3641%\332K\211>\256F\273\027B\352\256\224E\341"
 656      25DA4B89 
 656      3EAE46BB 
 656      1742EAAE 
 656      9445E1
 657 1f20 F088BBD2 		.ascii	"\360\210\273\322\017\334z\211\206G\205\242p\214\224"
 657      0FDC7A89 
 657      864785A2 
 657      708C94
 658 1f2f 054351A2 		.ascii	"\005CQ\242qp\2629qcX@9\346\274\361\362H\220~/)\323\206"
 658      7170B239 
 658      71635840 
 658      39E6BCF1 
 658      F248907E 
ARM GAS  /tmp/ccGgyJ3f.s 			page 53


 659 1f47 C7BCF168 		.ascii	"\307\274\361h\250$\206*$\031wyl8\374hLj\271\350\347"
 659      A824862A 
 659      24197779 
 659      6C38FC68 
 659      4C6AB9E8 
 660 1f5c 49CE130D 		.ascii	"I\316\023\015\216\201\237rB\243\303q\320H\3103*\036"
 660      8E819F72 
 660      42A3C371 
 660      D048C833 
 660      2A1E
 661 1f6e 19F687CA 		.ascii	"\031\366\207\312\274\320\310PE\274\\\213\341\240\031"
 661      BCD0C850 
 661      45BC5C8B 
 661      E1A019
 662 1f7d 45326AA5 		.ascii	"E2j\245\177DGj*1\177\031\214J\177\274S\322xhIn\245\177"
 662      7F44476A 
 662      2A317F19 
 662      8C4A7FBC 
 662      53D27868 
 663 1f95 94168E87 		.ascii	"\224\026\216\207+\206w2\213\377k"
 663      2B867732 
 663      8BFF6B
 664 1fa0 44680470 		.ascii	"Dh\004p\325\2319\023\213:T\372\241Y\314\2721\013\005"
 664      D5993913 
 664      8B3A54FA 
 664      A159CCBA 
 664      310B05
 665 1fb3 A14A189E 		.ascii	"\241J\030\236P\331]>\002z\373\021G\366X\036\037M\354"
 665      50D95D3E 
 665      027AFB11 
 665      47F6581E 
 665      1F4DEC
 666 1fc6 A69CA2C3 		.ascii	"\246\234\242\30312\252\002\224\206H B9\232)\360\007"
 666      3132AA02 
 666      94864820 
 666      42399A29 
 666      F007
 667 1fd8 E7114E3B 		.ascii	"\347\021N;\020\255heh\\PX\011\221\313c\216\3323\204"
 667      10AD6865 
 667      685C5058 
 667      0991CB63 
 667      8EDA3384 
 668 1fec 8136EF33 		.ascii	"\2016\3573\206\022h9\024\015U\004@Z\017-\372\227l\210"
 668      86126839 
 668      140D5504 
 668      405A0F2D 
 668      FA976C88 
 669 2000 C05241D1 		.ascii	"\300RA\321\200\301\375\006\203\233)@oR\322\263\260\373"
 669      80C1FD06 
 669      839B2940 
 669      6F52D2B3 
 669      B0FB
 670 2012 E8003158 		.ascii	"\350\0001X\342\304\206\300p\350\035*Q\213\212\273C\352"
 670      E2C486C0 
 670      70E81D2A 
 670      518B8ABB 
 670      43EA
ARM GAS  /tmp/ccGgyJ3f.s 			page 54


 671 2024 A10C2E56 		.ascii	"\241\014.V\300\251\024\025\027\015*\366\024?\017\307"
 671      C0A91415 
 671      170D2AF6 
 671      143F0FC7 
 672 2034 62CF103C 		.ascii	"b\317\020<x\373\365\030\\\324\367\231b7\034\007\025"
 672      78FBF518 
 672      5CD4F799 
 672      62371C07 
 672      15
 673 2045 ABE0F3FA 		.ascii	"\253\340\363\372:uqH\373\366\034=\2322\342\017\226k"
 673      3A757148 
 673      FBF61C3D 
 673      9A32E20F 
 673      966B
 674 2057 44B8DE03 		.ascii	"D\270\336\003\236\362\017\006S\322\312Mn\224\242b\327"
 674      9EF20F06 
 674      53D2CA4D 
 674      6E94A262 
 674      D7
 675 2068 73BD8714 		.ascii	"s\275\207\024\253\203\236*v\015($\244\373S\305j_`&\206"
 675      AB839E2A 
 675      760D2824 
 675      A4FB53C5 
 675      6A5F6026 
 676 207d 27BAC225 		.ascii	"'\272\302%\201\250'\034+\015\227\304sc\241\262\222p"
 676      81A8271C 
 676      2B0D97C4 
 676      7363A1B2 
 676      9270
 677 208f 453034DA 		.ascii	"E04\3323\022\346\332H\364\276$\272\237\236\015\256\023"
 677      3312E6DA 
 677      48F4BE24 
 677      BA9F9E0D 
 677      AE13
 678 20a1 BE444713 		.ascii	"\276DG\023\032\037\235\033\035\015Gb\311\271q3\347\002"
 678      1A1F9D1B 
 678      1D0D4762 
 678      C9B97133 
 678      E702
 679 20b3 712ADD65 		.ascii	"q*\335e\261@\311pw)\241d\322\247n\260\023\316\263~-"
 679      B140C970 
 679      7729A164 
 679      D2A76EB0 
 679      13CEB37E 
 680 20c8 1824D150 		.ascii	"\030$\321P(\346\202\310 H\316\017f\265\036\242\373\022"
 680      28E682C8 
 680      2048CE0F 
 680      66B51EA2 
 680      FB12
 681 20da 2D5E122B 		.ascii	"-^\022+\210E\003\005%$\020u\367}jH\337\301Y}*_\023\306"
 681      88450305 
 681      25241075 
 681      F77D6A48 
 681      DFC1597D 
 682 20f2 51884649 		.ascii	"Q\210FI\256\247_\030\322\307K\306\034(J\015FG\272\003"
 682      AEA75F18 
 682      D2C74BC6 
ARM GAS  /tmp/ccGgyJ3f.s 			page 55


 682      1C284A0D 
 682      4647BA03 
 683 2106 64A6F754 		.ascii	"d\246\367T\370\341\354\230{\024\031\2269%\2610\216O"
 683      F8E1EC98 
 683      7B141996 
 683      3925B130 
 683      8E4F
 684 2118 D7EF0716 		.ascii	"\327\357\007\026\367\316\255\360G#\021\010Y\243\356"
 684      F7CEADF0 
 684      47231108 
 684      59A3EE
 685 2127 DEE47B87 		.ascii	"\336\344{\2072\015\206\025\230\030\030hI4\024\242\331"
 685      320D8615 
 685      98181868 
 685      493414A2 
 685      D9
 686 2138 1C0480E1 		.ascii	"\034\004\200\341\350.\301\310ad\004f\263X\310\013\205"
 686      E82EC1C8 
 686      61640466 
 686      B358C80B 
 686      85
 687 2149 7884EAE4 		.ascii	"x\204\352\344\230C\"-,\030EB\237@\\\205\243\227\004"
 687      9843222D 
 687      2C184542 
 687      9F405C85 
 687      A39704
 688 215c 6BE0F773 		.ascii	"k\340\367s@1\305`\222c\200?<\252\261`\200\004s\203\264"
 688      4031C560 
 688      9263803F 
 688      3CAAB160 
 688      80047383 
 689 2171 78697E90 		.ascii	"xi~\220L\317\003H\320\032\012z*\260\212\207\306lj\337"
 689      4CCF0348 
 689      D01A0A7A 
 689      2AB08A87 
 689      C66C6ADF 
 690 2185 7EFD9592 		.ascii	"~\375\225\222\230\213\260\254\206\242QWIe<\352\211!"
 690      988BB0AC 
 690      86A25157 
 690      49653CEA 
 690      8921
 691 2197 5F6E4A83 		.ascii	"_nJ\203\244\255\034`\302O2\204\033?\234\243\016\033"
 691      A4AD1C60 
 691      C24F3284 
 691      1B3F9CA3 
 691      0E1B
 692 21a9 51E22248 		.ascii	"Q\342\"H\336QQ\014\207]\021\030\335?d\002O\214\257\206"
 692      DE51510C 
 692      875D1118 
 692      DD3F6402 
 692      4F8CAF86 
 693 21bd 44FA4786 		.ascii	"D\372G\206\253\320\226\007\242e\320\341=p\350\037\011"
 693      ABD09607 
 693      A265D0E1 
 693      3D70E81F 
 693      09
 694 21ce 40781DA9 		.ascii	"@x\035\251\360\307;2\337\300\010\177\304\324\206_\206"
ARM GAS  /tmp/ccGgyJ3f.s 			page 56


 694      F0C73B32 
 694      DFC0087F 
 694      C4D4865F 
 694      86
 695 21df 44683C0E 		.ascii	"Dh<\016\325\003.R\3349\026\252\210E\242\206\243\301"
 695      D5032E52 
 695      DC3916AA 
 695      8845A286 
 695      A3C1
 696 21f1 191A0B7A 		.ascii	"\031\032\013zC5\360\3270\364\275\361\020\006\306x,\216"
 696      4335F0D7 
 696      30F4BDF1 
 696      1006C678 
 696      2C8E
 697 2203 073B90E3 		.ascii	"\007;\220\343\000\214\254\363*\211\011\321<\376\374"
 697      008CACF3 
 697      2A8909D1 
 697      3CFEFC
 698 2212 7479650E 		.ascii	"tye\016\226A&\227\376\010aw^)\204\332$>\357W\021\317"
 698      96412697 
 698      FE086177 
 698      5E2984DA 
 698      243EEF57 
 699 2228 23A79979 		.ascii	"#\247\231y\263\274\317\350T9\344sH9\011\313sH!\311\270"
 699      B3BCCFE8 
 699      5439E473 
 699      483909CB 
 699      734821C9 
 700 223d 20087F9E 		.ascii	" \010\177\236\220\027\010\371O\027\304\343\317\023\362"
 700      901708F9 
 700      4F17C4E3 
 700      CF13F2
 701 224c 0221FFD9 		.ascii	"\002!\377\331\215\221\221r\237\224\323k|\367\202\326"
 701      8D919172 
 701      9F94D36B 
 701      7CF782D6 
 702 225c 89BD7947 		.ascii	"\211\275yG\200N\212*\307\344\0331\371\357\211B\263\332"
 702      804E8A2A 
 702      C7E41B31 
 702      F9EF8942 
 702      B3DA
 703 226e FD480D7C 		.ascii	"\375H\015|\336\210\030\374\000\316\257\"N\354\276\003"
 703      DE8818FC 
 703      00CEAF22 
 703      4EECBE03 
 704 227e 4CE715F4 		.ascii	"L\347\025\364\033\306\356\203H\366\351\021%\377\003"
 704      1BC6EE83 
 704      48F6E911 
 704      25FF03
 705 228d 5D5579E6 		.ascii	"]Uy\346"
 706              		.text
 707              		.section	.gnu.lto_.symtab.2719c2f436ef15ab,"",%progbits
 708 0000 64617461 		.ascii	"datasample_init\000\000\000\000\000\000\000\000\000"
 708      73616D70 
 708      6C655F69 
 708      6E697400 
 708      00000000 
ARM GAS  /tmp/ccGgyJ3f.s 			page 57


 709 0018 000000B7 		.ascii	"\000\000\000\267\000\000\000datasample_writeToLog\000"
 709      00000064 
 709      61746173 
 709      616D706C 
 709      655F7772 
 710 0035 00000000 		.ascii	"\000\000\000\000\000\000\000\000\000\000\000\005\001"
 710      00000000 
 710      00000005 
 710      01
 711 0042 00006461 		.ascii	"\000\000datasample_gpsToSample\000\000\000\000\000\000"
 711      74617361 
 711      6D706C65 
 711      5F677073 
 711      546F5361 
 712 0060 00000000 		.ascii	"\000\000\000\000\000\000d\003\000\000datasample_sen"
 712      00006403 
 712      00006461 
 712      74617361 
 712      6D706C65 
 713 0078 736F7273 		.ascii	"sorsToSample\000\000\000\000\000\000\000\000\000\000"
 713      546F5361 
 713      6D706C65 
 713      00000000 
 713      00000000 
 714 008e 00007C03 		.ascii	"\000\000|\003\000\000uStrCpy\000\000\002\000\000\000"
 714      00007553 
 714      74724370 
 714      79000002 
 714      000000
 715 00a1 00000000 		.ascii	"\000\000\000\000\000\000\264\003\000\000logfileWrit"
 715      0000B403 
 715      00006C6F 
 715      6766696C 
 715      65577269 
 716 00b6 65000002 		.ascii	"e\000\000\002\000\000\000\000\000\000\000\000\000\271"
 716      00000000 
 716      00000000 
 716      00B9
 717 00c4 03000063 		.ascii	"\003\000\000chsnprintf\000\000\002\000\000\000\000\000"
 717      68736E70 
 717      72696E74 
 717      66000002 
 717      00000000 
 718 00d9 00000000 		.ascii	"\000\000\000\000\300\003\000\000"
 718      C0030000 
 719              		.text
 720              		.section	.gnu.lto_.opts,"",%progbits
 721 0000 272D6D63 		.ascii	"'-mcpu=cortex-m4' '-mfloat-abi=hard' '-mfpu=fpv4-sp"
 721      70753D63 
 721      6F727465 
 721      782D6D34 
 721      2720272D 
 722 0033 2D643136 		.ascii	"-d16' '-mno-thumb-interwork' '-mthumb' '-O2' '-fomi"
 722      2720272D 
 722      6D6E6F2D 
 722      7468756D 
 722      622D696E 
ARM GAS  /tmp/ccGgyJ3f.s 			page 58


 723 0066 742D6672 		.ascii	"t-frame-pointer' '-falign-functions=16' '-ffunction"
 723      616D652D 
 723      706F696E 
 723      74657227 
 723      20272D66 
 724 0099 2D736563 		.ascii	"-sections' '-fdata-sections' '-fno-common' '-flto' "
 724      74696F6E 
 724      73272027 
 724      2D666461 
 724      74612D73 
 725 00cc 272D6673 		.ascii	"'-fsingle-precision-constant'\000"
 725      696E676C 
 725      652D7072 
 725      65636973 
 725      696F6E2D 
 726              		.text
 727              		.section	.text.datasample_init,"ax",%progbits
 728              		.align	2
 729              		.p2align 4,,15
 730              		.global	datasample_init
 731              		.thumb
 732              		.thumb_func
 733              		.type	datasample_init, %function
 734              	datasample_init:
 735              		@ args = 0, pretend = 0, frame = 0
 736              		@ frame_needed = 0, uses_anonymous_args = 0
 737 0000 38B5     		push	{r3, r4, r5, lr}
 738 0002 1B4D     		ldr	r5, .L2
 739 0004 1B49     		ldr	r1, .L2+4
 740 0006 0446     		mov	r4, r0
 741 0008 0430     		adds	r0, r0, #4
 742 000a FFF7FEFF 		bl	uStrCpy
 743 000e 04F10E00 		add	r0, r4, #14
 744 0012 2946     		mov	r1, r5
 745 0014 FFF7FEFF 		bl	uStrCpy
 746 0018 04F11E00 		add	r0, r4, #30
 747 001c 2946     		mov	r1, r5
 748 001e FFF7FEFF 		bl	uStrCpy
 749 0022 04F12E00 		add	r0, r4, #46
 750 0026 2946     		mov	r1, r5
 751 0028 FFF7FEFF 		bl	uStrCpy
 752 002c 2946     		mov	r1, r5
 753 002e 04F13D00 		add	r0, r4, #61
 754 0032 FFF7FEFF 		bl	uStrCpy
 755 0036 0023     		movs	r3, #0
 756 0038 A364     		str	r3, [r4, #72]	@ float
 757 003a E364     		str	r3, [r4, #76]	@ float
 758 003c E367     		str	r3, [r4, #124]	@ float
 759 003e 2365     		str	r3, [r4, #80]	@ float
 760 0040 6365     		str	r3, [r4, #84]	@ float
 761 0042 A365     		str	r3, [r4, #88]	@ float
 762 0044 E365     		str	r3, [r4, #92]	@ float
 763 0046 2366     		str	r3, [r4, #96]	@ float
 764 0048 6366     		str	r3, [r4, #100]	@ float
 765 004a A366     		str	r3, [r4, #104]	@ float
 766 004c E366     		str	r3, [r4, #108]	@ float
 767 004e 2367     		str	r3, [r4, #112]	@ float
ARM GAS  /tmp/ccGgyJ3f.s 			page 59


 768 0050 6367     		str	r3, [r4, #116]	@ float
 769 0052 A367     		str	r3, [r4, #120]	@ float
 770 0054 C4F88030 		str	r3, [r4, #128]	@ float
 771 0058 C4F88430 		str	r3, [r4, #132]	@ float
 772 005c C4F88830 		str	r3, [r4, #136]	@ float
 773 0060 C4F88C30 		str	r3, [r4, #140]	@ float
 774 0064 C4F89030 		str	r3, [r4, #144]	@ float
 775 0068 C4F89430 		str	r3, [r4, #148]	@ float
 776 006c 38BD     		pop	{r3, r4, r5, pc}
 777              	.L3:
 778 006e 00BF     		.align	2
 779              	.L2:
 780 0070 08000000 		.word	.LC1
 781 0074 00000000 		.word	.LC0
 782              		.size	datasample_init, .-datasample_init
 783              		.global	__aeabi_f2d
 784 0078 AFF30080 		.section	.text.datasample_writeToLog,"ax",%progbits
 784      AFF30080 
 785              		.align	2
 786              		.p2align 4,,15
 787              		.global	datasample_writeToLog
 788              		.thumb
 789              		.thumb_func
 790              		.type	datasample_writeToLog, %function
 791              	datasample_writeToLog:
 792              		@ args = 0, pretend = 0, frame = 0
 793              		@ frame_needed = 0, uses_anonymous_args = 0
 794 0000 2DE9F041 		push	{r4, r5, r6, r7, r8, lr}
 795 0004 0668     		ldr	r6, [r0]
 796 0006 464D     		ldr	r5, .L5
 797 0008 0246     		mov	r2, r0
 798 000a 0136     		adds	r6, r6, #1
 799 000c AEB0     		sub	sp, sp, #184
 800 000e 0446     		mov	r4, r0
 801 0010 406F     		ldr	r0, [r0, #116]	@ float
 802 0012 42F8046B 		str	r6, [r2], #4
 803 0016 04F11E0C 		add	ip, r4, #30
 804 001a 04F12E0E 		add	lr, r4, #46
 805 001e 04F13D03 		add	r3, r4, #61
 806 0022 04F10E08 		add	r8, r4, #14
 807 0026 8DE80451 		stmia	sp, {r2, r8, ip, lr}
 808 002a 0493     		str	r3, [sp, #16]
 809 002c 0F46     		mov	r7, r1
 810 002e FFF7FEFF 		bl	__aeabi_f2d
 811 0032 CDE90601 		strd	r0, [sp, #24]
 812 0036 606D     		ldr	r0, [r4, #84]	@ float
 813 0038 FFF7FEFF 		bl	__aeabi_f2d
 814 003c CDE90801 		strd	r0, [sp, #32]
 815 0040 206D     		ldr	r0, [r4, #80]	@ float
 816 0042 FFF7FEFF 		bl	__aeabi_f2d
 817 0046 CDE90A01 		strd	r0, [sp, #40]
 818 004a A06C     		ldr	r0, [r4, #72]	@ float
 819 004c FFF7FEFF 		bl	__aeabi_f2d
 820 0050 CDE90C01 		strd	r0, [sp, #48]
 821 0054 E06C     		ldr	r0, [r4, #76]	@ float
 822 0056 FFF7FEFF 		bl	__aeabi_f2d
 823 005a CDE90E01 		strd	r0, [sp, #56]
ARM GAS  /tmp/ccGgyJ3f.s 			page 60


 824 005e E06D     		ldr	r0, [r4, #92]	@ float
 825 0060 FFF7FEFF 		bl	__aeabi_f2d
 826 0064 CDE91001 		strd	r0, [sp, #64]
 827 0068 A06D     		ldr	r0, [r4, #88]	@ float
 828 006a FFF7FEFF 		bl	__aeabi_f2d
 829 006e CDE91201 		strd	r0, [sp, #72]
 830 0072 206F     		ldr	r0, [r4, #112]	@ float
 831 0074 FFF7FEFF 		bl	__aeabi_f2d
 832 0078 CDE91401 		strd	r0, [sp, #80]
 833 007c E06E     		ldr	r0, [r4, #108]	@ float
 834 007e FFF7FEFF 		bl	__aeabi_f2d
 835 0082 CDE91601 		strd	r0, [sp, #88]
 836 0086 206E     		ldr	r0, [r4, #96]	@ float
 837 0088 FFF7FEFF 		bl	__aeabi_f2d
 838 008c CDE91801 		strd	r0, [sp, #96]
 839 0090 606E     		ldr	r0, [r4, #100]	@ float
 840 0092 FFF7FEFF 		bl	__aeabi_f2d
 841 0096 CDE91A01 		strd	r0, [sp, #104]
 842 009a A06E     		ldr	r0, [r4, #104]	@ float
 843 009c FFF7FEFF 		bl	__aeabi_f2d
 844 00a0 CDE91C01 		strd	r0, [sp, #112]
 845 00a4 A06F     		ldr	r0, [r4, #120]	@ float
 846 00a6 FFF7FEFF 		bl	__aeabi_f2d
 847 00aa CDE91E01 		strd	r0, [sp, #120]
 848 00ae E06F     		ldr	r0, [r4, #124]	@ float
 849 00b0 FFF7FEFF 		bl	__aeabi_f2d
 850 00b4 CDE92001 		strd	r0, [sp, #128]
 851 00b8 D4F88000 		ldr	r0, [r4, #128]	@ float
 852 00bc FFF7FEFF 		bl	__aeabi_f2d
 853 00c0 CDE92201 		strd	r0, [sp, #136]
 854 00c4 D4F88400 		ldr	r0, [r4, #132]	@ float
 855 00c8 FFF7FEFF 		bl	__aeabi_f2d
 856 00cc CDE92401 		strd	r0, [sp, #144]
 857 00d0 D4F88800 		ldr	r0, [r4, #136]	@ float
 858 00d4 FFF7FEFF 		bl	__aeabi_f2d
 859 00d8 CDE92601 		strd	r0, [sp, #152]
 860 00dc D4F88C00 		ldr	r0, [r4, #140]	@ float
 861 00e0 FFF7FEFF 		bl	__aeabi_f2d
 862 00e4 CDE92801 		strd	r0, [sp, #160]
 863 00e8 D4F89000 		ldr	r0, [r4, #144]	@ float
 864 00ec FFF7FEFF 		bl	__aeabi_f2d
 865 00f0 CDE92A01 		strd	r0, [sp, #168]
 866 00f4 D4F89400 		ldr	r0, [r4, #148]	@ float
 867 00f8 FFF7FEFF 		bl	__aeabi_f2d
 868 00fc 3346     		mov	r3, r6
 869 00fe CDE92C01 		strd	r0, [sp, #176]
 870 0102 084A     		ldr	r2, .L5+4
 871 0104 2846     		mov	r0, r5
 872 0106 4FF48071 		mov	r1, #256
 873 010a FFF7FEFF 		bl	chsnprintf
 874 010e 2946     		mov	r1, r5
 875 0110 82B2     		uxth	r2, r0
 876 0112 0023     		movs	r3, #0
 877 0114 3846     		mov	r0, r7
 878 0116 2EB0     		add	sp, sp, #184
 879              		@ sp needed
 880 0118 BDE8F041 		pop	{r4, r5, r6, r7, r8, lr}
ARM GAS  /tmp/ccGgyJ3f.s 			page 61


 881 011c FFF7FEBF 		b	logfileWrite
 882              	.L6:
 883              		.align	2
 884              	.L5:
 885 0120 00000000 		.word	.LANCHOR0
 886 0124 0C000000 		.word	.LC2
 887              		.size	datasample_writeToLog, .-datasample_writeToLog
 888 0128 AFF30080 		.section	.text.datasample_gpsToSample,"ax",%progbits
 888      AFF30080 
 889              		.align	2
 890              		.p2align 4,,15
 891              		.global	datasample_gpsToSample
 892              		.thumb
 893              		.thumb_func
 894              		.type	datasample_gpsToSample, %function
 895              	datasample_gpsToSample:
 896              		@ args = 0, pretend = 0, frame = 0
 897              		@ frame_needed = 0, uses_anonymous_args = 0
 898 0000 38B5     		push	{r3, r4, r5, lr}
 899 0002 0446     		mov	r4, r0
 900 0004 0D46     		mov	r5, r1
 901 0006 081D     		adds	r0, r1, #4
 902 0008 2146     		mov	r1, r4
 903 000a FFF7FEFF 		bl	uStrCpy
 904 000e 05F10E00 		add	r0, r5, #14
 905 0012 04F11001 		add	r1, r4, #16
 906 0016 FFF7FEFF 		bl	uStrCpy
 907 001a 05F11E00 		add	r0, r5, #30
 908 001e 04F12801 		add	r1, r4, #40
 909 0022 FFF7FEFF 		bl	uStrCpy
 910 0026 05F12E00 		add	r0, r5, #46
 911 002a 04F14001 		add	r1, r4, #64
 912 002e FFF7FEFF 		bl	uStrCpy
 913 0032 05F13D00 		add	r0, r5, #61
 914 0036 04F15001 		add	r1, r4, #80
 915 003a BDE83840 		pop	{r3, r4, r5, lr}
 916 003e FFF7FEBF 		b	uStrCpy
 917              		.size	datasample_gpsToSample, .-datasample_gpsToSample
 918 0042 00BFAFF3 		.section	.text.datasample_sensorsToSample,"ax",%progbits
 918      0080AFF3 
 918      0080AFF3 
 918      0080
 919              		.align	2
 920              		.p2align 4,,15
 921              		.global	datasample_sensorsToSample
 922              		.thumb
 923              		.thumb_func
 924              		.type	datasample_sensorsToSample, %function
 925              	datasample_sensorsToSample:
 926              		@ args = 0, pretend = 0, frame = 0
 927              		@ frame_needed = 0, uses_anonymous_args = 0
 928              		@ link register save eliminated.
 929 0000 2DE9F00F 		push	{r4, r5, r6, r7, r8, r9, r10, fp}
 930 0004 90ED087A 		flds	s14, [r0, #32]
 931 0008 D0F830B0 		ldr	fp, [r0, #48]	@ float
 932 000c D0F82CA0 		ldr	r10, [r0, #44]	@ float
 933 0010 D0F83890 		ldr	r9, [r0, #56]	@ float
ARM GAS  /tmp/ccGgyJ3f.s 			page 62


 934 0014 D0ED097A 		flds	s15, [r0, #36]
 935 0018 D0F83480 		ldr	r8, [r0, #52]	@ float
 936 001c C769     		ldr	r7, [r0, #28]	@ float
 937 001e 866A     		ldr	r6, [r0, #40]	@ float
 938 0020 056C     		ldr	r5, [r0, #64]	@ float
 939 0022 C46B     		ldr	r4, [r0, #60]	@ float
 940 0024 0269     		ldr	r2, [r0, #16]	@ float
 941 0026 4369     		ldr	r3, [r0, #20]	@ float
 942 0028 D0F818C0 		ldr	ip, [r0, #24]	@ float
 943 002c C1F854B0 		str	fp, [r1, #84]	@ float
 944 0030 D0F85CB0 		ldr	fp, [r0, #92]	@ float
 945 0034 C1F850A0 		str	r10, [r1, #80]	@ float
 946 0038 D0F844A0 		ldr	r10, [r0, #68]	@ float
 947 003c C1F85C90 		str	r9, [r1, #92]	@ float
 948 0040 D0F84890 		ldr	r9, [r0, #72]	@ float
 949 0044 81ED127A 		fsts	s14, [r1, #72]
 950 0048 C1F85880 		str	r8, [r1, #88]	@ float
 951 004c C1ED137A 		fsts	s15, [r1, #76]
 952 0050 D0F84C80 		ldr	r8, [r0, #76]	@ float
 953 0054 4F66     		str	r7, [r1, #100]	@ float
 954 0056 8E66     		str	r6, [r1, #104]	@ float
 955 0058 0D67     		str	r5, [r1, #112]	@ float
 956 005a CC66     		str	r4, [r1, #108]	@ float
 957 005c 4A67     		str	r2, [r1, #116]	@ float
 958 005e 8B67     		str	r3, [r1, #120]	@ float
 959 0060 C1F87CB0 		str	fp, [r1, #124]	@ float
 960 0064 C1F880A0 		str	r10, [r1, #128]	@ float
 961 0068 C1F860C0 		str	ip, [r1, #96]	@ float
 962 006c C1F88490 		str	r9, [r1, #132]	@ float
 963 0070 046D     		ldr	r4, [r0, #80]	@ float
 964 0072 426D     		ldr	r2, [r0, #84]	@ float
 965 0074 836D     		ldr	r3, [r0, #88]	@ float
 966 0076 C1F88880 		str	r8, [r1, #136]	@ float
 967 007a C1F88C40 		str	r4, [r1, #140]	@ float
 968 007e C1F89020 		str	r2, [r1, #144]	@ float
 969 0082 C1F89430 		str	r3, [r1, #148]	@ float
 970 0086 BDE8F00F 		pop	{r4, r5, r6, r7, r8, r9, r10, fp}
 971 008a 7047     		bx	lr
 972              		.size	datasample_sensorsToSample, .-datasample_sensorsToSample
 973 008c AFF30080 		.section	.bss.dataPrintBuf,"aw",%nobits
 974              		.align	2
 975              		.set	.LANCHOR0,. + 0
 976              		.type	dataPrintBuf, %object
 977              		.size	dataPrintBuf, 768
 978              	dataPrintBuf:
 979 0000 00000000 		.space	768
 979      00000000 
 979      00000000 
 979      00000000 
 979      00000000 
 980              		.section	.rodata.str1.4,"aMS",%progbits,1
 981              		.align	2
 982              	.LC0:
 983 0000 2D3A2D3A 		.ascii	"-:-:-\000"
 983      2D00
 984 0006 0000     		.space	2
 985              	.LC1:
ARM GAS  /tmp/ccGgyJ3f.s 			page 63


 986 0008 2D00     		.ascii	"-\000"
 987 000a 0000     		.space	2
 988              	.LC2:
 989 000c 25642C25 		.ascii	"%d,%s,%s,%s,%s,%s,%.2f,%.2f,%.1f,%.2f,%.2f,%.2f,%.1"
 989      732C2573 
 989      2C25732C 
 989      25732C25 
 989      732C252E 
 990 003f 662C252E 		.ascii	"f,%.2f,%.2f,%.3f,%.3f,%.2f,%.2f,%.2f,%.6f,%.6f,%.6f"
 990      32662C25 
 990      2E32662C 
 990      252E3366 
 990      2C252E33 
 991 0072 2C252E36 		.ascii	",%.6f,%.6f,%.6f\012\000"
 991      662C252E 
 991      36662C25 
 991      2E36660A 
 991      00
 992              		.comm	__gnu_lto_v1,1,1
 993 0083 00       		.ident	"GCC: (GNU Tools for ARM Embedded Processors) 4.8.4 20140526 (release) [ARM/embedded-4_8-br
ARM GAS  /tmp/ccGgyJ3f.s 			page 64


DEFINED SYMBOLS
                            *ABS*:0000000000000000 datasample.c
     /tmp/ccGgyJ3f.s:728    .text.datasample_init:0000000000000000 $t
     /tmp/ccGgyJ3f.s:734    .text.datasample_init:0000000000000000 datasample_init
     /tmp/ccGgyJ3f.s:780    .text.datasample_init:0000000000000070 $d
     /tmp/ccGgyJ3f.s:785    .text.datasample_writeToLog:0000000000000000 $t
     /tmp/ccGgyJ3f.s:791    .text.datasample_writeToLog:0000000000000000 datasample_writeToLog
     /tmp/ccGgyJ3f.s:885    .text.datasample_writeToLog:0000000000000120 $d
     /tmp/ccGgyJ3f.s:889    .text.datasample_gpsToSample:0000000000000000 $t
     /tmp/ccGgyJ3f.s:895    .text.datasample_gpsToSample:0000000000000000 datasample_gpsToSample
     /tmp/ccGgyJ3f.s:919    .text.datasample_sensorsToSample:0000000000000000 $t
     /tmp/ccGgyJ3f.s:925    .text.datasample_sensorsToSample:0000000000000000 datasample_sensorsToSample
     /tmp/ccGgyJ3f.s:974    .bss.dataPrintBuf:0000000000000000 $d
     /tmp/ccGgyJ3f.s:978    .bss.dataPrintBuf:0000000000000000 dataPrintBuf
     /tmp/ccGgyJ3f.s:981    .rodata.str1.4:0000000000000000 $d
                            *COM*:0000000000000001 __gnu_lto_v1
     /tmp/ccGgyJ3f.s:784    .text.datasample_init:0000000000000078 $t
     /tmp/ccGgyJ3f.s:888    .text.datasample_writeToLog:0000000000000128 $t

UNDEFINED SYMBOLS
uStrCpy
__aeabi_f2d
chsnprintf
logfileWrite
