ARM GAS  /tmp/ccodA23C.s 			page 1


   1              		.syntax unified
   2              		.cpu cortex-m4
   3              		.eabi_attribute 27, 3
   4              		.eabi_attribute 28, 1
   5              		.fpu fpv4-sp-d16
   6              		.eabi_attribute 20, 1
   7              		.eabi_attribute 21, 1
   8              		.eabi_attribute 23, 3
   9              		.eabi_attribute 24, 1
  10              		.eabi_attribute 25, 1
  11              		.eabi_attribute 26, 1
  12              		.eabi_attribute 30, 2
  13              		.eabi_attribute 34, 1
  14              		.eabi_attribute 18, 4
  15              		.thumb
  16              		.file	"datasample.c"
  17              		.section	.gnu.lto_.jmpfuncs.33d77dab653359e0,"",%progbits
  18 0000 789C6362 		.ascii	"x\234cb`b\300\006L\031\031\030J\2014\013\003#P\001S"
  18      6062C006 
  18      4C191918 
  18      4A81340B 
  18      03235001 
  19 0015 35C3AF86 		.ascii	"5\303\257\206\031\015\002\231\214\014r\014\214s\033"
  19      190D0299 
  19      8C0C720C 
  19      8C731B
  20 0024 66386432 		.ascii	"f8d22\202\325\241J&2.b\224\243\\\234I\216\201\005b\011"
  20      3282D5A1 
  20      4A26322E 
  20      6294A35C 
  20      9C498E81 
  21 003b 33589291 		.ascii	"3X\222\221\231\005\310`,\203\252\351\000\251a\311e\204"
  21      9905C860 
  21      2C83AAE9 
  21      00A961C9 
  21      6584
  22 004d 3A952982 		.ascii	":\225)\2021\223\221\025\310\220\305\224\005\313\261"
  22      31939115 
  22      C890C594 
  22      05CBB1
  23 005c 35A098CE 		.ascii	"5\240\230\316.\307\300\0151\235\003\253\327\211\001"
  23      2EC7C00D 
  23      319D03AB 
  23      D78901
  24 006b CCCC4C50 		.ascii	"\314\314LPWc\020@\2472\3512\260\351Z\001!C\226j\212"
  24      57631040 
  24      A732E932 
  24      B0E95A01 
  24      2143966A 
  25 0080 8E6A3112 		.ascii	"\216j1\022\3223L\003\022FX\010l\022\306p\002\3145\303"
  25      D2334C03 
  25      12465808 
  25      6C12C670 
  25      02CC35C3 
  26 0094 4D703100 		.ascii	"Mp1\000\000\2471D\220"
  26      00A73144 
  26      90
ARM GAS  /tmp/ccodA23C.s 			page 2


  27              		.text
  28              		.section	.gnu.lto_.inline.33d77dab653359e0,"",%progbits
  29 0000 789CE593 		.ascii	"x\234\345\2231J\004A\020E\253\272\333\231Y\020\\dQ\020"
  29      314A0441 
  29      1045ABBA 
  29      DB995910 
  29      5C645110 
  30 0014 C48D1456 		.ascii	"\304\215\024V3S\221=\301\2027\252\320p\017`\320\307"
  30      3353913D 
  30      C18237AA 
  30      D0700F60 
  30      D0C7
  31 0026 104CFA0C 		.ascii	"\020L\372\014z\201\011\014<\206\335\365\253\206\011"
  31      7A81090C 
  31      3C86DDF5 
  31      AB8609
  32 0035 16D4D8D9 		.ascii	"\026\324\330\331\245^Uw\317\377A\377\011\024\350\320"
  32      A55E5577 
  32      CFFF41FF 
  32      0914E8D0 
  33 0045 F394C08A 		.ascii	"\363\224\300\212\353wb&\256CX\345\027\246\213\362\306"
  33      EB776226 
  33      AE4358E5 
  33      17A68BF2 
  33      C6
  34 0056 FA523CAE 		.ascii	"\372R<\256K\373\335\217d\372\240O\342\263\246\021I\225"
  34      4BFBDD8F 
  34      64FAA04F 
  34      E2B3A611 
  34      4995
  35 0068 B4CD3D70 		.ascii	"\264\315=p\244\020\240$\305h\260E;\202\027\306\016\023"
  35      A410A024 
  35      C568B045 
  35      3B8217C6 
  35      0E13
  36 007a 908162B0 		.ascii	"\220\201b\260#\200\0148\002\024`\004d\201\275\305\035"
  36      23800C38 
  36      02146004 
  36      6481BDC5 
  36      1D
  37 008b 7FF5D43F 		.ascii	"\177\365\324?\337\004\252M\012\024_\317Sk\227\272\260"
  37      DF04AA4D 
  37      0A145FCF 
  37      536B97BA 
  37      B0
  38 009c 6C65ADED 		.ascii	"le\255\355\272\225\255\266\333V\204\003\2405`@M\006"
  38      BA95ADB6 
  38      DB568403 
  38      A0356040 
  38      4D06
  39 00ae AD038641 		.ascii	"\255\003\206A+TEe\005\272\242\302\002e\201\264k\233"
  39      2B544565 
  39      05BAA2C2 
  39      026581B4 
  39      6B9B
  40 00c0 B8AB9BBC 		.ascii	"\270\253\233\274\353\233\201;\230\205{\230\211\273\230"
  40      EB9B813B 
ARM GAS  /tmp/ccodA23C.s 			page 3


  40      98857B98 
  40      89BB98
  41 00cf 8DFBB8D1 		.ascii	"\215\373\270\321\344\344V\223\227\233Mn\242\241\350"
  41      E4E45693 
  41      979B4D6E 
  41      A2A1E8
  42 00de 4E6A2CEA 		.ascii	"Nj,\352\265\326\377\375\003\321e]\332\357\376\376\213"
  42      B5D6FFFD 
  42      03D1655D 
  42      DAEFFEFE 
  42      8B
  43 00ef 74FAC881 		.ascii	"t\372\310\201=\015\232\303._\315\223U\017\375\242It"
  43      3D0D9AC3 
  43      2E5FCD93 
  43      550FFDA2 
  43      4974
  44 0101 BBE115EE 		.ascii	"\273\341\025\3564\340N\001\211\270oL\005S\006\012c\017"
  44      34E04E01 
  44      89B86F4C 
  44      0553060A 
  44      630F
  45 0113 28F68285 		.ascii	"(\366\202\205\016G\004{\231\347I\314\351@J-\272\331"
  45      0E47047B 
  45      99E749CC 
  45      E9404A2D 
  45      BAD9
  46 0125 C3BA997D 		.ascii	"\303\272\231}'\310T\253\255\340\242\206\177\032\257"
  46      27C854AB 
  46      ADE0A286 
  46      7F1AAF
  47 0134 F67C038A 		.ascii	"\366|\003\212\352\331\002"
  47      EAD902
  48              		.text
  49              		.section	.gnu.lto_.pureconst.33d77dab653359e0,"",%progbits
  50 0000 789C6362 		.ascii	"x\234cb`b\340d\200\000\026\006)F)f\011\026)\000\002"
  50      6062E064 
  50      80001606 
  50      29462966 
  50      09162900 
  51 0015 D60080   		.ascii	"\326\000\200"
  52              		.text
  53              		.section	.gnu.lto_datasample_init.33d77dab653359e0,"",%progbits
  54 0000 789CA596 		.ascii	"x\234\245\226?o\323@\030\207\337\3379\216\343\270\211"
  54      3F6FD340 
  54      1887DFDF 
  54      398EE3B8 
  54      89
  55 0011 03B4A032 		.ascii	"\003\264\2402D0\243\260V\352\324\257\200TD\031M@\325"
  55      4430A3B0 
  55      56EAD4AF 
  55      80544419 
  55      4D40D5
  56 0024 49544282 		.ascii	"ITB\202\211\016\275B\221P\221\332\216\201\212\241[\205"
  56      890EBD42 
  56      915091DA 
  56      8E818AA1 
  56      5B85
ARM GAS  /tmp/ccodA23C.s 			page 4


  57 0036 AA82C4D2 		.ascii	"\252\202\304\322n\371\002m\370\263t\354\314\302\320"
  57      6EF9026D 
  57      F8B374EC 
  57      CCC2D0
  58 0045 A15518C2 		.ascii	"\241U\030\302\371\316\310\004\345-\227\346\"\337\033"
  58      F9CEC804 
  58      E52D97E6 
  58      22DF1B
  59 0054 3B7E1F3F 		.ascii	";~\037?\376\331:E\220\240\177\307\244\336\212\241\255"
  59      FED93A45 
  59      90A07FC7 
  59      A4DE8AA1 
  59      AD
  60 0065 F00862E3 		.ascii	"\360\010b\343\220h\271$\200\364\013\201\226\004\226"
  60      9068B924 
  60      80F40B81 
  60      960496
  61 0074 EEC39CFB 		.ascii	"\356\303\234\373Q\264\217{\275\335O+?\0127\201\005h"
  61      51B48F7B 
  61      BDDD4F2B 
  61      3F0A3781 
  61      0568
  62 0086 9C04F97A 		.ascii	"\234\004\371zB\220N\241\236D\224\036\323\303\247\025"
  62      42904EA1 
  62      9E44941E 
  62      D3C3A715 
  63 0096 A5366E10 		.ascii	"\2456n\0205\315\356\254\236S\342]\210\264z\007\364\242"
  63      35CDEEAC 
  63      9E53E25D 
  63      88B47A07 
  63      F4A2
  64 00a8 FBF2E717 		.ascii	"\373\362\347\027$\330\202O\363\020\213\364\\7\336\242"
  64      24D8824F 
  64      F3108BF4 
  64      5C37DEA2 
  65 00b8 0F4A8F29 		.ascii	"\017J\217)\011o\223\336A\2420\017\314\351\352\033\203"
  65      096F93DE 
  65      41A2300F 
  65      CCE9EA1B 
  65      83
  66 00c9 07F84BBD 		.ascii	"\007\370K\275C\257\332\223\266\237h\221\272\352\265"
  66      43AFDA93 
  66      B69F6891 
  66      BAEAB5
  67 00d8 AA49149B 		.ascii	"\252I\024\233\260'\031fW\265\224\272'\021\324\251\366"
  67      B0271966 
  67      57B594BA 
  67      2711D4A9 
  67      F6
  68 00e9 5EB56624 		.ascii	"^\265f$J\224\265H\355KF\343$\327\360\215\0062\215;\022"
  68      4A94B548 
  68      ED4B46E3 
  68      24D7F08D 
  68      06328D3B 
  69 00fe E5DC281A 		.ascii	"\345\334(\032l\204\254\212!\314|k\326\376\274\243Ac"
  69      6C84AC8A 
  69      21CC7C6B 
ARM GAS  /tmp/ccodA23C.s 			page 5


  69      D6FEBCA3 
  69      4163
  70 0110 75BA66DD 		.ascii	"u\272f\335*\351\257\271\327i\356\025\\\334\313\033\302"
  70      2AE9AFB9 
  70      D769EE15 
  70      5CDCCB1B 
  70      C2
  71 0121 2BE8F34A 		.ascii	"+\350\363J\260\213z\277\322\257\\)4J\"W\252:+\025\206"
  71      B08B7ABF 
  71      D2AF5C29 
  71      344A2257 
  71      AA3A2B15 
  72 0136 500AFFA7 		.ascii	"P\012\377\247\324\313\225\242\276\227H+y\316J\376\020"
  72      D4CB95A2 
  72      BE97482B 
  72      79CE4AFE 
  72      10
  73 0147 4AD1F94A 		.ascii	"J\321\371J\373\333e\333\235]\274\"\021\017\276x\321"
  73      FBDB65DB 
  73      9D5DBC22 
  73      110FBE78 
  73      D1
  74 0158 D4EBF456 		.ascii	"\324\353\364V\225L\177L\026p\264z\325\221\0200\204\263"
  74      954C7F4C 
  74      1670B47A 
  74      D5911030 
  74      84B3
  75 016a D5AA23A1 		.ascii	"\325\252#\241\304\020Zo&\034\011!C\330s&\224\271\034"
  75      C4105A6F 
  75      261C0921 
  75      43D87326 
  75      94B91C
  76 017d 9C091197 		.ascii	"\234\011\021\227\2033a\214\313\341\320\225P\341rXs}"
  76      8333618C 
  76      CBE1D095 
  76      50E17258 
  76      737D
  77 018f 9A552E87 		.ascii	"\232U.\2075W\207\230\313\301\331\241\306\345\260\356"
  77      35578798 
  77      CBC1D9A1 
  77      C6E5B0EE 
  78 019f 4AB8C4E5 		.ascii	"J\270\304\345\320q\275\213\313\\\016\353\343\216\204"
  78      D071BD8B 
  78      CB5C0EEB 
  78      E38E84
  79 01ae 2B5C0E9D 		.ascii	"+\\\016\235\330\022\032\264\223-\014q\016\253\015\206"
  79      D8121AB4 
  79      932D0C71 
  79      0EAB0D86 
  80 01be 8D9B9A1E 		.ascii	"\215\233\232\036\261\267\306\004\364m44x\364\336\210"
  80      B1B7C604 
  80      F46D3434 
  80      78F4DE88 
  81 01ce 68C1A38F 		.ascii	"h\301\243\217.\202\236p\012\344lD\3649\201\264\276\217"
  81      2E829E70 
  81      0AE46C44 
  81      F43981B4 
ARM GAS  /tmp/ccodA23C.s 			page 6


  81      BE8F
  82 01e0 866602F9 		.ascii	"\206f\002\371J\313\307\007\342\317\322o\307\254^\366"
  82      4ACBC707 
  82      E2CFD26F 
  82      C7AC5EF6 
  83 01f0 F51F96B4 		.ascii	"\365\037\226\264\243\3620y\226<M\026\236<~t\273I\305"
  83      A3F23079 
  83      963C4D16 
  83      9E3C7E74 
  83      BB49C5
  84 0203 C6B4FE90 		.ascii	"\306\264\376\220h\320o(\341\337\260"
  84      68D06F28 
  84      E1DFB0
  85              		.text
  86              		.section	.gnu.lto_datasample_writeToLog.33d77dab653359e0,"",%progbits
  87 0000 789C8D96 		.ascii	"x\234\215\226Kh\023Q\024\206\317\231<\2334\217\246i"
  87      4B681351 
  87      1486CF99 
  87      3C9B348F 
  87      A669
  88 0012 FA344DDF 		.ascii	"\3724M\337\217\264\261o\352\316\255k-\352B$\266\265"
  88      8FB4B16F 
  88      EACEAD6B 
  88      2DEA4224 
  88      B6B5
  89 0024 8EB42254 		.ascii	"\216\264\"T\020,\350\324\010\272pQ\\\225\212Hq\247\213"
  89      102CE8D4 
  89      08BA7051 
  89      5C958A48 
  89      71A78B
  90 0037 AEA4820B 		.ascii	"\256\244\202\013\013.,H}\354J\021\025E\\\010RpS\252"
  90      0B2E2C48 
  90      7DEC4A11 
  90      15455C08 
  90      527053AA 
  91 004b 50CFB933 		.ascii	"P\317\2713w&\011\231i\206\366\314?w\346|\347\336\177"
  91      77260999 
  91      6986F6CC 
  91      3F77E67C 
  91      E7DE7F
  92 005e 6EEE1D05 		.ascii	"n\356\035\005\024(>\352\351?\035\004\270Igt\001*K\357"
  92      14283EEA 
  92      E93F1D04 
  92      B8496774 
  92      012A4BEF 
  93 0072 0016FD0A 		.ascii	"\000\026\375\012\"\013@\270\245\340\255\263\310\217"
  93      220B40B8 
  93      A5E0ADB3 
  93      C88F
  94 0080 622BAC6A 		.ascii	"b+\254j\332\322\327\037+oQ{\240-\356\036\034DT$f\024"
  94      DAD2D71F 
  94      2B6F517B 
  94      A02DEE1E 
  94      1C445424 
  95 0096 6112E10C 		.ascii	"a\022\341\014\252\210)qR\334\205E\326\224\215\257\007"
  95      AA882971 
  95      52DC8545 
ARM GAS  /tmp/ccodA23C.s 			page 7


  95      D6948DAF 
  95      07
  96 00a7 07FF9E2D 		.ascii	"\007\377\236-\275\301c\012\316!\270@E\227\233\203\227"
  96      BDC1630A 
  96      CE21B840 
  96      45979B83 
  96      97
  97 00b8 82DB47C1 		.ascii	"\202\333G\301\343\347PA\301\033\340\266 \005_%\005\177"
  97      E3E75041 
  97      C11BE0B6 
  97      20055F25 
  97      057F
  98 00ca 88559855 		.ascii	"\210U\230U\204U\224U\025\253\030\253jVqV5\254\022\254"
  98      84559455 
  98      15AB18AB 
  98      6A567156 
  98      35AC12AC 
  99 00de 6A59D5B1 		.ascii	"jY\325\261\252g\325\300\252\221U\023\253#\254\222\254"
  99      AA67D5C0 
  99      AA915513 
  99      AB23AC92 
  99      AC
 100 00ef 9A59A558 		.ascii	"\232Y\245X\265\260je\325\306\252\235U\007\253NV]\254"
 100      B5B06A65 
 100      D5C6AA9D 
 100      5507AB4E 
 100      565DAC
 101 0102 BA59F5B0 		.ascii	"\272Y\365\260\352e\225f\325\307\252\237U\206\325QV\003"
 101      EA659566 
 101      D5C7AA9F 
 101      5586D551 
 101      5603
 102 0114 AC06590D 		.ascii	"\254\006Y\015\261\032\201,\256\222u\243tQ1F\203\307"
 102      B11A812C 
 102      AE9275A3 
 102      74513146 
 102      83C7
 103 0126 71520172 		.ascii	"qR\001r\305\003w\310\316\224~\033\330B:NQd\347'P\341"
 103      C50377C8 
 103      CE947E1B 
 103      D8423A4E 
 103      5164E727 
 104 013c B36B0B6E 		.ascii	"\263k\013n\357,\357`\026\237\240\007f\320\225\206^\025"
 104      EF2CEF60 
 104      169FA007 
 104      66D09586 
 104      5E15
 105 014e 830F6185 		.ascii	"\203\017a\205l\256\234A\205\355\016\011\223/\240\264"
 105      6CAE9C41 
 105      85ED0E09 
 105      932FA0B4 
 106 015e 7B0B72F7 		.ascii	"{\013r\367rI\231\342\246,~*\210\342\326\355\023\372"
 106      724999E2 
 106      A62C7E2A 
 106      88E2D6ED 
 106      13FA
 107 0170 8D343CD5 		.ascii	"\2154<\325\350\360\035B\243|\221\265\237[\377k\366\302"
ARM GAS  /tmp/ccodA23C.s 			page 8


 107      E8F01D42 
 107      A37C91B5 
 107      9F5BFF6B 
 107      F6C2
 108 0182 BB0037E8 		.ascii	"\273\0007\350\025\031\210\223*\206K#\320\232\002\002"
 108      15198893 
 108      2A864B23 
 108      D09A0202 
 109 0192 F1D242F8 		.ascii	"\361\322B\370\004\302c \316\251\030\261h\321\3224\305"
 109      04C26320 
 109      CEA918B1 
 109      68D1D234 
 109      C5
 110 01a3 38BB8AA8 		.ascii	"8\273\212\250\257^+\222\352/\240\236\267\250\023\207"
 110      AF5E2B92 
 110      EA2FA09E 
 110      B7A81387 
 111 01b3 52DD45D4 		.ascii	"R\335E\324\357\026\265BP\275\026\265\252l\252\247\210"
 111      EF16B542 
 111      50BD16B5 
 111      AA6CAAA7 
 111      88
 112 01c4 FAD3A206 		.ascii	"\372\323\242\006\012L$j\270l\252\267\200\272\263\375"
 112      0A4C246A 
 112      B86CAAB7 
 112      80BAB3FD 
 113 01d4 B9524283 		.ascii	"\271RB\203b~\370J\247\373\254\234\337\271\265?fO\350"
 113      627EF84A 
 113      A7FBAC9C 
 113      DFB9B53F 
 113      664FE8
 114 01e7 B9A04EDA 		.ascii	"\271\240N\332\263H!'\222\337\206\024\236\341GtR\255"
 114      B3482127 
 114      92DF8614 
 114      9EE14774 
 114      52AD
 115 01f9 6C8C3891 		.ascii	"l\2148\221*lHQ\312\323I\313_\314>U9\221\0026\244\030"
 115      2A6C4851 
 115      CAD349CB 
 115      5FCC3E55 
 115      39910236 
 116 020f E519A4C7 		.ascii	"\345\031\244\307M\262\261\332\211\024\264!\305)O'\275"
 116      4DB2B1DA 
 116      8914B421 
 116      C5294F27 
 116      BD
 117 0220 B0FA54E3 		.ascii	"\260\372T\343D\252\264!%(O\222L\237j\235H!\033R\035"
 117      44AAB421 
 117      25284F92 
 117      4C9F6A9D 
 117      48211B52 
 118 0235 E519B3C0 		.ascii	"\345\031\263\300\352S\275\023)lCj\240<I2}jt\"ElHM\224"
 118      EA53BD13 
 118      296C436A 
 118      A03C4932 
 118      7D6A7422 
 119 024e 67CC02AB 		.ascii	"g\314\002\253OG\234HQ\033R\222\362\014\222\365\356\232"
ARM GAS  /tmp/ccodA23C.s 			page 9


 119      4F479C48 
 119      511B5292 
 119      F20C92F5 
 119      EE9A
 120 0260 9D485536 		.ascii	"\235HU6\244\024\345\031\263\340\333\246\271\012\265"
 120      A414E519 
 120      B3E0DBA6 
 120      B90AB5
 121 026f 38A16236 		.ascii	"8\241b6\250V\312\223\250=\263\265\315\011Um\203j\247"
 121      A856CA93 
 121      A83DB3B5 
 121      CD09556D 
 121      836AA7
 122 0282 3C631EE4 		.ascii	"<c\036\344\365\252\303\011\025\267AuR\236h\375\264\375"
 122      F5AAC309 
 122      15B74175 
 122      529E68FD 
 122      B4FD
 123 0294 6DD74475 		.ascii	"m\327Du\365C\037\241\214\225eX\305Xij\2158s\013\344"
 123      F5431FA1 
 123      8C956558 
 123      C558696A 
 123      8D38730B 
 124 02a9 1DC535BA 		.ascii	"\035\3055\272\011(kl\270dkOA\215\323\345\324@\373\032"
 124      09286B6C 
 124      B8646B4F 
 124      418DD3E5 
 124      D440FB1A 
 125 02bd BD049435 		.ascii	"\275\004\2245>\270ek\272\240\306B95\024\373\032}\004"
 125      3EB8656B 
 125      BAA0C642 
 125      393514FB 
 125      1A7D04
 126 02d0 D46BECE5 		.ascii	"\324k\354\345y\325_\246W\211\262\274\312\020P\326\260"
 126      79D55FA6 
 126      5789B2BC 
 126      CA1050D6 
 126      B0
 127 02e1 BC3A5AA6 		.ascii	"\274:Z\246Wy5\034\274\032 \240\254ay5X\246Wy5\034\274"
 127      5779351C 
 127      BC1A20A0 
 127      AC617935 
 127      58A65779 
 128 02f8 1A2220C0 		.ascii	"\032\" \300{\330\324.\311\246\221\005\330\327\356iQ"
 128      7BD8D42E 
 128      C9A69105 
 128      D8D7EE69 
 128      51
 129 0309 15AB278D 		.ascii	"\025\253'\215=^o\341],>\207F\256@\327h\212\270\271\254"
 129      3D5E6FE1 
 129      5D2C3E87 
 129      46AE40D7 
 129      688AB8B9 
 130 031e 69CFE932 		.ascii	"i\317\3512\221\204\370#m\371\270J\253\226\361\224\370"
 130      9184F823 
 130      6DF9B84A 
 130      AB96F194 
ARM GAS  /tmp/ccodA23C.s 			page 10


 130      F8
 131 032f 42F1D217 		.ascii	"B\361\322\027\001m\337\264\327\322\306(v\244\260\330"
 131      016DDFB4 
 131      D7D2C628 
 131      76A4B0D8 
 132 033f 036262D5 		.ascii	"\003bb\325M\210u\256A\254,I\361[n\025\277\235N1%{\305"
 132      4D8875AE 
 132      41AC2C49 
 132      F15B6E15 
 132      BF9D4E31 
 133 0356 0BCD083B 		.ascii	"\013\315\010;\206T\254\023c\370\225[\277\337/;<J}\346"
 133      8654AC13 
 133      63F8955B 
 133      BFDF2F3B 
 133      3C4A7DE6 
 134 036a 31DCDD30 		.ascii	"1\334\3350\2075n\216\241~\322\330Wgp\314\030\306\365"
 134      87356E8E 
 134      A17ED2D8 
 134      576770CC 
 134      18C6F5
 135 037d 8261503E 		.ascii	"\202aP>\217\244\001\350\273\215\326\265\217\260\230"
 135      8FA401E8 
 135      BB8DD6B5 
 135      8FB098
 136 038c 87D14D3B 		.ascii	"\207\321M;E6\320\327\032sBS\331k\331\371\354\334\325"
 136      4536D0D7 
 136      1A734253 
 136      D96BD9F9 
 136      ECDCD5
 137 039f D9E9CC24 		.ascii	"\331\351\314$\270f\247\257\\\356\230\352\353\230\317"
 137      B866A7AF 
 137      5CEE98EA 
 137      EB98CF
 138 03ae FBCB0C5E 		.ascii	"\373\313\014^\2440T\"\224\2721l\006q9f\037\002\360\037"
 138      A4305422 
 138      94BA316C 
 138      06713966 
 138      1F02F01F 
 139 03c2 DAE470D0 		.ascii	"\332\344p\320"
 140              		.text
 141              		.section	.gnu.lto_datasample_gpsToSample.33d77dab653359e0,"",%progbits
 142 0000 789C9D93 		.ascii	"x\234\235\223\277K\303@\024\307\337\367\222\230455\305"
 142      BF4BC340 
 142      14C7DFF7 
 142      92983435 
 142      35C5
 143 0012 A94E82A3 		.ascii	"\251N\202\243\340\177\340\177\340XQ\307X\245\004,\010"
 143      E07FE07F 
 143      E05851C7 
 143      58A5042C 
 143      08
 144 0023 75B24353 		.ascii	"u\262CS\177\200\203BA\\tQ\034\004-v\027\207Nn*\376\007"
 144      7F808342 
 144      415C7451 
 144      1C042D76 
 144      17874E6E 
 145 003a FD3B3A58 		.ascii	"\375;:X\337]\322\246)\015\264\036\344\356\005\336}\336"
ARM GAS  /tmp/ccodA23C.s 			page 11


 145      DF5DD2A6 
 145      290DB41E 
 145      E4EE05DE 
 145      7DDE
 146 004c FBE42E82 		.ascii	"\373\344.\202\004\215\217\002?\033:\321\002\257\320"
 146      048D8F02 
 146      3F1B3AD1 
 146      02AFD0
 147 005b 08A2F945 		.ascii	"\010\242\371E\324\260\004 \003\002\325\005\352;P\271"
 147      D4B00420 
 147      0302D505 
 147      EA3B50B9 
 148 006b 6DD1E9F6 		.ascii	"m\321\351\366\373\257\357\037\367-`\021\250\200\201"
 148      FBAFEF1F 
 148      F72D6011 
 148      A88081
 149 007a 3E48E308 		.ascii	">H\343\010:G0\345d\361$l\031ee\344\360\244\345\344\253"
 149      3A4730E5 
 149      64F1246C 
 149      196565E4 
 149      F0A4E5E4 
 150 008f 2B93F332 		.ascii	"+\223\3632b\230AgA\320\\&*)x\221gYq\023B\256\332'\235"
 150      62984167 
 150      41D05C26 
 150      2A297891 
 150      67597113 
 151 00a8 F44EFB97 		.ascii	"\364N\373\227K\036\036`P\031\242F\307\274{\225\236\003"
 151      4B1E1E60 
 151      5019A246 
 151      C7BC7B95 
 151      9E03
 152 00ba 1EEB3EF4 		.ascii	"\036\353>\364;\272\205\017\243\014l\363:\247:\334\305"
 152      3BBA850F 
 152      A30C6CF3 
 152      3AA73ADC 
 152      C5
 153 00cb 889A42BC 		.ascii	"\210\232B\274a@\320\025\001\021\241\352\303\014\011"
 153      6140D015 
 153      0111A1EA 
 153      C30C09
 154 00da 56199A24 		.ascii	"V\031\232$d\"\302\010\342\233\316;\205p?Q\215z\301E"
 154      6422C208 
 154      E29BCE3B 
 154      85703F51 
 154      8D7AC145 
 155 00ee E0FAB04B 		.ascii	"\340\372\260KQ\016w\305X\2375\303Z\217W\303v\315D\261"
 155      510E77C5 
 155      589F35C3 
 155      5A8F57C3 
 155      76CD44B1 
 156 0102 2D2E1677 		.ascii	"-.\026w>?\271s\021\255\332\230Aoh`)\250\210H\327\274"
 156      3E3FB973 
 156      11ADDA98 
 156      416F6860 
 156      29A88848 
 157 0118 D799ACA0 		.ascii	"\327\231\254\240\317\240`27Vx\212\025\354\377+\030c"
 157      CFA06032 
ARM GAS  /tmp/ccodA23C.s 			page 12


 157      3756788A 
 157      15ECFF2B 
 157      1863
 158 012a 0ABF4385 		.ascii	"\012\277C\205lB\341&]an\006\005\233\271\261\302K\254"
 158      6C42E126 
 158      5D616E06 
 158      059BB9B1 
 158      C24BAC
 159 013d E0A86A5A 		.ascii	"\340\250jZ\254\220\233Z\301L=\205\\\342\273\310SH\271"
 159      AC909B5A 
 159      C14C3D85 
 159      5CE2BBC8 
 159      5348B9
 160 0150 48D60C0A 		.ascii	"H\326\014\012\016sc\205v\254\340&\356=+\350S+dR\025"
 160      0E736385 
 160      76ACE026 
 160      EE3D2BE8 
 160      532B6452 
 161 0165 F2D32AD8 		.ascii	"\362\323*\3303(\270\314U\012?\324\350\266V\006\251\341"
 161      3328B8CC 
 161      550A3FD4 
 161      E8B65606 
 161      A9E1
 162 0177 28721AFF 		.ascii	"(r\032\377\326\2625g\317;\362\252^\345\360`\177\255"
 162      D6B23567 
 162      CF3BF2AA 
 162      5EE5F060 
 162      7FAD
 163 0189 447F7FFF 		.ascii	"D\177\177\377\346\346"
 163      E6E6
 164              		.text
 165              		.section	.gnu.lto_datasample_sensorsToSample.33d77dab653359e0,"",%progbits
 166 0000 789CAD96 		.ascii	"x\234\255\226\301k\023Q\020\306g\336&\351v\233\244i"
 166      C16B1351 
 166      10C667DE 
 166      26E9769B 
 166      A469
 167 0012 8C318D31 		.ascii	"\2141\2151\256i\010!U\257\376#\025\364\030\253\204\202"
 167      AE690821 
 167      55AFFE23 
 167      15F418AB 
 167      8482
 168 0024 0541EF4D 		.ascii	"\005A\357M\213\177@\216\245^\332\253H\275\366\330\223"
 168      8B7F408E 
 168      A55EDAAB 
 168      48BDF6D8 
 168      93
 169 0035 B407456F 		.ascii	"\264\007Eo\245 \344\330\236\"-\304\342\245\276\311N"
 169      A520E4D8 
 169      9E222DC4 
 169      E2A5BEC9 
 169      4E
 170 0046 F63DA40C 		.ascii	"\366=\244\014\341\231\007\371\336&\354\354\357\233\367"
 170      E19907F9 
 170      DE26ECEC 
 170      EF9BF7
 171 0055 0D611528 		.ascii	"\015a\025(\370w-\352\317\317Y\200y\275\243\007\250z"
ARM GAS  /tmp/ccodA23C.s 			page 13


 171      F8772DEA 
 171      CFCF5980 
 171      79BDA307 
 171      A87A
 172 0067 DF00367D 		.ascii	"\337\0006}\205H\027\200\260\241p\3439\216\356\375\254"
 172      85481780 
 172      B0A170E3 
 172      398EEEFD 
 172      AC
 173 0078 0EFBD7D7 		.ascii	"\016\373\327\327\373W_v\317\021\037*\\G\360`\015!\241"
 173      FB575F76 
 173      CF111F2A 
 173      5C47F060 
 173      0D21A1
 174 008b AF304557 		.ascii	"\2570EW>I@\222&\311\222\344H\362$\005\222\"I\211\244"
 174      3E494092 
 174      26C992E4 
 174      48F22405 
 174      92224989 
 175 00a0 4C5221A9 		.ascii	"LR!\251\222\204$5\222:I\203\244I\322\"\321+\011\357"
 175      92842435 
 175      923A4983 
 175      A449D222 
 175      D12B09EF 
 176 00b4 BBDD5E08 		.ascii	"\273\335^\010\260:\372\272\242\225<>EE\273\367\025\266"
 176      B03AFABA 
 176      A2953C3E 
 176      4545BBF7 
 176      15B6
 177 00c6 4E0F067D 		.ascii	"N\017\006}\257\215{\230\204\016z\313\320\322\205\037"
 177      AF8D7B98 
 177      840E7ACB 
 177      D0D2851F 
 178 00d6 6007D710 		.ascii	"`\007\327\020;\250\236\351=:\200\0278n_\027\035\377"
 178      3BA89EE9 
 178      3D3A8017 
 178      386E5F17 
 178      1DFF
 179 00e8 0AA29265 		.ascii	"\012\242\222e\370\330\325+\023\027y\035LPQ\202\213\242"
 179      F8D8D52B 
 179      1317791D 
 179      4C505182 
 179      8BA2
 180 00fa 2AFDE451 		.ascii	"*\375\344Q\335\351\311\340,\206\245$\230\262`\275\271"
 180      DDE9C9E0 
 180      2C86A524 
 180      98B260BD 
 180      B9
 181 010b 09611EC3 		.ascii	"\011a\036\303R\021\354jp\022\303|\011\226\260`\337'"
 181      5211EC6A 
 181      7012C37C 
 181      0996B060 
 181      DF27
 182 011d ED2CC930 		.ascii	"\355,\3110?\202m_\030X \301R.\260\031\206\005\021\354"
 182      3F826D5F 
 182      185820C1 
 182      522EB019 
ARM GAS  /tmp/ccodA23C.s 			page 14


 182      860511EC 
 183 0131 C082A525 		.ascii	"\300\202\245%\230\357\002\233eX\2323\263`Y\011\026\270"
 183      98EF029B 
 183      65589A33 
 183      B3605909 
 183      16B8
 184 0143 C0E61896 		.ascii	"\300\346\030\226\345\314.\3144\346$X\332e\0323\014\313"
 184      E5CC2ECC 
 184      34E62458 
 184      DA651A33 
 184      0CCB
 185 0155 71669766 		.ascii	"qf\227f\032\363\022,\3532\215\363\014\313sf\227\346"
 185      1AF3122C 
 185      EB328DF3 
 185      0CCB7366 
 185      97E6
 186 0167 180B122C 		.ascii	"\030\013\022,\347r\214\013\014+pfVgE\011\226w\351\354"
 186      E7728C0B 
 186      0C2B7066 
 186      56674509 
 186      9677E9EC 
 187 017b 16C38A9C 		.ascii	"\026\303\212\234\231\005+I\260\202\013\3546\303J\234"
 187      99052B49 
 187      B0820BEC 
 187      36C34A9C 
 188 018b D9D00C48 		.ascii	"\331\320\014HY\202\025]\006\344\016\303\312\234\331"
 188      5982155D 
 188      06E40EC3 
 188      CA9CD9
 189 019a F0288655 		.ascii	"\360(\206U$X\311\356lR\330\"\303*\234\331\360L\215a"
 189      2458C9EE 
 189      6C52D822 
 189      C32A9CD9 
 189      F04C8D61 
 190 01ae 550956B6 		.ascii	"U\011V\266a3\023\302\3562\254\312\231\015\017\343\316"
 190      613313C2 
 190      EE32ACCA 
 190      990D0FE3 
 190      CE
 191 01bf 420956B1 		.ascii	"B\011V\261\217\221a\217\340\023\301\236\350\"\303M\336"
 191      8F91618F 
 191      E013C19E 
 191      E822C34D 
 191      DE
 192 01d0 CCBD37DA 		.ascii	"\314\2757\332\351\227\361\037\037\271\0109\314\337\306"
 192      E997F11F 
 192      1FB90839 
 192      CCDFC6
 193 01df 454D7251 		.ascii	"EMrQ\235\236\0134.j\234\262\345\242.\271\270?=\027\312"
 193      9D9E0B34 
 193      2E6A9CB2 
 193      E5A22EB9 
 193      B83F3D17 
 194 01f4 B8A873FC 		.ascii	"\270\250s\374\226\213\206\344\"\374O\027\017nL\244\301"
 194      968B86E4 
 194      22FC4F17 
 194      0F6E4CA4 
ARM GAS  /tmp/ccodA23C.s 			page 15


 194      C1
 195 0205 7361B968 		.ascii	"sa\271hJ.j\323sa%\322\344\271\370c\\\264$\027K\323s"
 195      4A2E6AD3 
 195      736125D2 
 195      E4B9F863 
 195      5CB42417 
 196 021c 6125D202 		.ascii	"a%\322\002\370\001\233\375\363\245\350\201\343\265\242"
 196      F8019BFD 
 196      F3A5E881 
 196      E3B5A2
 197 022b DF66F45B 		.ascii	"\337f\364[\023\335\230y\331~\327~\333^\177\363\372\325"
 197      13DD9879 
 197      D97ED77E 
 197      DB5E7FF3 
 197      FAD5
 198 023d E355F80B 		.ascii	"\343U\370\013\024\201\356g"
 198      1481EE67 
 199              		.text
 200              		.section	.gnu.lto_.symbol_nodes.33d77dab653359e0,"",%progbits
 201 0000 789C4DCA 		.ascii	"x\234M\3121\022\3020\014D\321\325*\016\307\310Q\025"
 201      3112C230 
 201      0C44D1D5 
 201      2A0EC7C8 
 201      5115
 202 0012 303829A9 		.ascii	"08)\251)h|\024\367p\005\230\2649\003\003&\032\214\232"
 202      29687C14 
 202      F7700598 
 202      B4390303 
 202      261A8C9A 
 203 0026 375FB304 		.ascii	"7_\263\004q\207\037\3674\340|\003\314\256\2630\322\244"
 203      71871FF7 
 203      34E07C03 
 203      CCAEB330 
 203      D2A4
 204 0038 6538109D 		.ascii	"e8\020\235)\2174\376\215N4m)\211\326m9\216\"3-\264\232"
 204      298F34FE 
 204      8D4E346D 
 204      2989D66D 
 204      398E2233 
 205 004f 68FDAF14 		.ascii	"h\375\257\024\001\371\361\372\272\270\371\351\355\346"
 205      01F9F1FA 
 205      BAB8F9E9 
 205      EDE6
 206 005d B40E2A3B 		.ascii	"\264\016*;\304K\265G\251j@\251{\365\375\307\230\266"
 206      C44BB547 
 206      A96A40A9 
 206      7BF5FDC7 
 206      98B6
 207 006f FFE29669 		.ascii	"\377\342\226i\035\360\006\272\200=\226"
 207      1DF006BA 
 207      803D96
 208              		.text
 209              		.section	.gnu.lto_.refs.33d77dab653359e0,"",%progbits
 210 0000 789C6362 		.ascii	"x\234cb`b`g\200\000&F& `\000\000\000\364\000\027"
 210      60626067 
 210      80002646 
 210      26206000 
ARM GAS  /tmp/ccodA23C.s 			page 16


 210      0000F400 
 211              		.text
 212              		.section	.gnu.lto_.decls.33d77dab653359e0,"",%progbits
 213 0000 789CBD7D 		.ascii	"x\234\275}\011p\024G\226v\035}\3502`{f\014\214g\247"
 213      09701447 
 213      96761D7D 
 213      E832607B 
 213      660C8C67 
 214 0015 67FF990D 		.ascii	"g\377\231\015\357\354\214%0c\343=\306\207\0046\261`"
 214      EFEC8C25 
 214      3063E33D 
 214      C6870436 
 214      B160
 215 0027 08C1ECD8 		.ascii	"\010\301\354\330\033\177DSt\267P\317H\335\332\356\026"
 215      1B7F4453 
 215      74B750CF 
 215      48DDDAEE 
 215      16
 216 0038 C7BF1331 		.ascii	"\307\277\0231\205\260\305\030l#\004\030\314!\004\030"
 216      85B0C518 
 216      6C230418 
 216      CC210418 
 217 0048 0CC6309C 		.ascii	"\014\3060\234\306\210\303-l#@\006\304a\233\303\200\000"
 217      C688C32D 
 217      6C234006 
 217      C4619BC3 
 217      8000
 218 005a 7B386C6C 		.ascii	"{8lln!\300h_\276\254\352\316,uuW\311\033\177G\344\253"
 218      6E21C068 
 218      5FBEACEA 
 218      CE2C7575 
 218      57C91B7F 
 219 0071 ECECCA2F 		.ascii	"\354\354\312/\337{\371\362\345\313\254\243%A\022\226"
 219      DF7BF9F2 
 219      E5CBACA3 
 219      25411296 
 220 0081 C982D001 		.ascii	"\311\202\320\001\237/&\010\302\311{\004\301)\010\302"
 220      9F2F2608 
 220      C2C97B04 
 220      C12908C2 
 221 0091 6F216543 		.ascii	"o!eCZ\010i\021\244e\220\226CZ\001i\025\2445\220\326"
 221      5A086911 
 221      A4659096 
 221      435A0169 
 221      15A43590 
 222 00a6 43DA20D0 		.ascii	"C\332 \320\217\033\322FHNQ\020\374\200\367'H\353!m\202"
 222      8F1BD246 
 222      484E5110 
 222      FC80F727 
 222      48EB216D 
 223 00bb 148704C5 		.ascii	"\024\207\004\305\302\016Y\340>\344\374\373 \355\204"
 223      C20E59E0 
 223      3EE4FCFB 
 223      20ED84
 224 00ca F25D9076 		.ascii	"\362]\220v\223#|\337\014\251\001R\263\234lw\003\344"
 224      93237CDF 
 224      0CA90152 
ARM GAS  /tmp/ccodA23C.s 			page 17


 224      B39C6C77 
 224      03E4
 225 00dc 0FC2710F 		.ascii	"\017\302q\017\303\323\021H\017C\272\003\311\001\351"
 225      C3D31148 
 225      0F43BA03 
 225      C901E9
 226 00eb 47040BD2 		.ascii	"G\004\013\322\307\220\016@\372\024\322aH\237C:\011\351"
 226      C7900E40 
 226      FA14D261 
 226      489F433A 
 226      09E9
 227 00fd 14A47648 		.ascii	"\024\244vHg }\011\351,\244\363\220\276\202t\021\322"
 227      67207D09 
 227      E92CA4F3 
 227      90BE8274 
 227      11D2
 228 010f B7902E43 		.ascii	"\267\220.C\272\012\351:\2446H\267!u@\2224~\327k\262"
 228      BA0AE93A 
 228      A43648B7 
 228      21754092 
 228      347ED76B 
 229 0124 48222F0B 		.ascii	"H\"/\013\221\373A\215\217n\220\3624\235\260\262\021"
 229      91FB418D 
 229      8F6E90F2 
 229      349DB0B2 
 229      11
 230 0135 5E0B2011 		.ascii	"^\013 \0215\270\341\374FFV\"\267.\337\021M\246\217e"
 230      35B8E1FC 
 230      46465622 
 230      B72EDF11 
 230      4DA68F65 
 231 0149 AA6F56D7 		.ascii	"\252oV\327\215P\266G\246}\320\000\307\007\340\030O#"
 231      8D50B647 
 231      A67DD000 
 231      C707E018 
 231      4F23
 232 015b F7754DD6 		.ascii	"\367uM\3263\214\016\316k\262_\325\344e\345o\323t\244"
 232      338C0ECE 
 232      6BB25FD5 
 232      E465E56F 
 232      D374A4
 233 016e CB2D6BB2 		.ascii	"\313-k\262\305\265\276$\337G\002Q\344\316\375I\372\275"
 233      C5B5BE24 
 233      DF470251 
 233      E4CEFD49 
 233      FABD
 234 0180 3B23F3DE 		.ascii	";#\363\336\024}Jd,\205\262\3212\355_\322\257D\346\012"
 234      147D4A64 
 234      2C85B2D1 
 234      32ED5FD2 
 234      AF44E60A 
 235 0194 99CA9DAB 		.ascii	"\231\312\235\253\311\022\222\223\362\204e*SD\246rEe"
 235      C9129293 
 235      F284652A 
 235      5344A672 
 235      4565
 236 01a6 2A5B4CA6 		.ascii	"*[L\246\375\342\327l\215\344\307\303q\254\201/b\213"
ARM GAS  /tmp/ccodA23C.s 			page 18


 236      FDE2D76C 
 236      8DE4C7C3 
 236      71AC812F 
 236      628B
 237 01b8 A42F88FE 		.ascii	"\244/\210\376U\310\377YN\362\243\333\316\317!M\225\251"
 237      55C8FF59 
 237      4EF2A3DB 
 237      CECF214D 
 237      95A9
 238 01ca 8EA6C954 		.ascii	"\216\246\311TO\263d\252\273\2312\325\337\\\231\352\356"
 238      4FB364AA 
 238      BB9932D5 
 238      DF5C99EA 
 238      EE
 239 01db 0D99EA6F 		.ascii	"\015\231\352o\212Lu\367\252L\3657]\246:\\ S\335\316"
 239      8A4C75F7 
 239      AA4CF537 
 239      5DA63A5C 
 239      2053DDCE 
 240 01ef 97A97E27 		.ascii	"\227\251~'\311\264\037^\226\251~W\312T\307\013e\252"
 240      C9B41F5E 
 240      96A97E57 
 240      CA54C70B 
 240      65AA
 241 0201 E7C5705C 		.ascii	"\347\305p\\\002\351-\231\352|9\351w\315\316\376\244"
 241      02E92D99 
 241      EA7C39E9 
 241      77CDCEFE 
 241      A4
 242 0212 C9B51A8E 		.ascii	"\311\265\032\216k\015r\345\012\223U\265J\255\257V\237"
 242      6B0D72E5 
 242      0A9355B5 
 242      4AADAF56 
 242      9F
 243 0223 DDD9ED5E 		.ascii	"\335\331\355^\241F\205O\375\223\263\273e\013\177!\345"
 243      A146854F 
 243      FD93B3BB 
 243      650B7F21 
 243      E5
 244 0234 AD4BD49E 		.ascii	"\255K\324\236=\005\341yQ\021\241(\0133y\331\210\372"
 244      3D05E179 
 244      5111A128 
 244      0B3379D9 
 244      88FA
 245 0246 0BE14D38 		.ascii	"\013\341M8\027*H\212\270X\314\206\026\214\366\254\177"
 245      172A488A 
 245      B858CC86 
 245      168CF6AC 
 245      7F
 246 0257 E8EFBF14 		.ascii	"\350\357\277\024\226\323\363O\033O#\240\344\214d\256"
 246      96D3F34F 
 246      1B4F23A0 
 246      E48C64AE 
 247 0267 434CB4D9 		.ascii	"CL\264\331CoS\322\260\026\211\367b\0169T5\316\361\014"
 247      436F53D2 
 247      B01689F7 
 247      620E3954 
ARM GAS  /tmp/ccodA23C.s 			page 19


 247      35CEF10C 
 248 027b AD8647AF 		.ascii	"\255\206G\257\341\320j\274\205\330\202^,\260R\350\345"
 248      E1D06ABC 
 248      85D8825E 
 248      2CB052E8 
 248      E5
 249 028c A9EA2D14 		.ascii	"\251\352-\024s\323\251\3113\273\033\345V\253_\240\327"
 249      73D3A9C9 
 249      33BB1BE5 
 249      56AB5FA0 
 249      D7
 250 029d 7769F597 		.ascii	"wi\365\227\333\346\364m\023N\235\0318]f\217S5\301\252"
 250      DBE6F46D 
 250      134E9D19 
 250      385D668F 
 250      5335C1AA 
 251 02b1 AAF3FA8E 		.ascii	"\252\363\372\216m^W\232\360\332\221\211\331\025If\263"
 251      6D5E579A 
 251      F0DA9189 
 251      D9154966 
 251      B3
 252 02c2 84496865 		.ascii	"\204Ihe/\251\023\304\377\312lf\253\304,0\203n\246fF"
 252      2FA913C4 
 252      FFCA6C66 
 252      ABC42C30 
 252      836EA666 
 253 02d7 7ED75BA6 		.ascii	"~\327[\246y='j\222\351\212I\315\035\266U\323zd\365\374"
 253      793D276A 
 253      92E98A49 
 253      CD1DB655 
 253      D37A64F5 
 254 02ec 7C55CD52 		.ascii	"|U\315R\3045h\326\317\210\000\275T\374e\242\031g6\337"
 254      C43568D6 
 254      CF8800BD 
 254      54FC65A2 
 254      196736DF 
 255 0300 2C7CD74F 		.ascii	",|\327O `\316\354d\206L\211\335\255uJ\213Kg\345\017"
 255      2060CEEC 
 255      64864C89 
 255      DDAD754A 
 255      8B4B67E5 
 256 0315 1AEE06DB 		.ascii	"\032\356\006\333}\362\256I\237\0043t\311\372d\227\374"
 256      7DF2AE49 
 256      9F043374 
 256      C9FA6497 
 256      FC
 257 0326 54A853EB 		.ascii	"T\250S\353[[\267\356X\327K\255\257\212wt<\001s\342L"
 257      5B5BB7EE 
 257      58D74BAD 
 257      AF8A7774 
 257      3C0173E2 
 258 033b AD7D558C 		.ascii	"\255}U\214)\342o\177h\212\363\236\370#\314\311t\264"
 258      29E26F7F 
 258      688AF39E 
 258      F823CCC9 
 258      74B4
 259 034d 7262DF27 		.ascii	"rb\337'LC\261\031\345\307\263u\200\331\211\256\256i"
ARM GAS  /tmp/ccodA23C.s 			page 20


 259      4C43B119 
 259      E5C7B375 
 259      80D989AE 
 259      AE69
 260 035f 6DAFDEFB 		.ascii	"m\257\336\3733T\377f\361>\300\371\003\257\376\3140\204"
 260      3354FF66 
 260      F13EC0F9 
 260      03AFFECC 
 260      3084
 261 0371 916D5095 		.ascii	"\221mP\225\326\242\366\023?\031\360\320R\201C\343>?"
 261      D6A2F613 
 261      3F19F0D0 
 261      528143E3 
 261      3E3F
 262 0383 13EA81DD 		.ascii	"\023\352\201\335\370\325\366\235\242Z\233g\335^NN\372"
 262      F8D5F69D 
 262      A25A9B67 
 262      DD5E4E4E 
 262      FA
 263 0394 A851AC02 		.ascii	"\250Q\254\002\345(b#Z\314<\221\347\331:\324\334)[\036"
 263      E5286223 
 263      5ACC3C91 
 263      E7D93AD4 
 263      DC295B1E 
 264 03a8 47D93F44 		.ascii	"G\331?D\240\243\242\321\366\334\006\333s\363\266\347"
 264      A0A3A2D1 
 264      F6DC06DB 
 264      73F3B6E7 
 265 03b8 CE4E6634 		.ascii	"\316Nf4\333\263y\272$|\211\215\022]\245b4aZ\214=\261"
 265      DBB379BA 
 265      247C898D 
 265      125DA562 
 265      34615A8C 
 266 03ce FA53A1FF 		.ascii	"\372S\241\377\266\366\236\240\306'\310\272\241\367\344"
 266      B6F69EA0 
 266      C627C8BA 
 266      A1F7E4
 267 03dd EC7C980E 		.ascii	"\354|\230\016\221\243\361\264\313\266\231\35761s\235"
 267      91A3F1B4 
 267      CBB699EF 
 267      3631739D 
 268 03ed 13493867 		.ascii	"\023I8g\224\201k5\225\014\036V\206x\333\222l\265:O\267"
 268      94816B35 
 268      950C1E56 
 268      8678DB92 
 268      6CB53A4F 
 269 0402 B5D9C94E 		.ascii	"\265\331\311N\203\270D\253\375x\242\327\342\237e\201"
 269      83B844AB 
 269      FD78A2D7 
 269      E29F6581 
 270 0412 73DA83D6 		.ascii	"s\332\203\326zQLm\256\246\020D\236\026\243\265n\366"
 270      7A514C6D 
 270      AEA61044 
 270      9E16A3B5 
 270      6EF6
 271 0424 7B686926 		.ascii	"{hi&kU\343\357\237\313\002NS\253Z\025\365\226zh-\035"
 271      6B55E3EF 
ARM GAS  /tmp/ccodA23C.s 			page 21


 271      9FCB024E 
 271      53AB5A15 
 271      F5967A68 
 272 043a B4ADEB43 		.ascii	"\264\255\353C&\272\326-K\022\332Q\344\226\244\256\371"
 272      26BAD62D 
 272      4B12DA51 
 272      E496A4AE 
 272      F9
 273 044b 66331A4C 		.ascii	"f3\032L\274\3051\273\200\262&\011U\222\025\260\036\346"
 273      BCC531BB 
 273      80B22609 
 273      559215B0 
 273      1EE6
 274 045d 6007002C 		.ascii	"`\007\000,\2656\306\361\254+\342\021\333\3128j\242\214"
 274      B536C6F1 
 274      AC2BE211 
 274      DBCA386A 
 274      A28C
 275 046f 6E0965BC 		.ascii	"n\011e\274b\344\237kU\313z\314\331?\204\272\330\205"
 275      62E49F6B 
 275      55CB7ACC 
 275      D93F84BA 
 275      D885
 276 0481 BA9869C4 		.ascii	"\272\230i\304Je\304\017\261X\375S\031\212\320\311\312"
 276      4A65C40F 
 276      B158FD53 
 276      198AD0C9 
 276      CA
 277 0492 1471BFF8 		.ascii	"\024q\277\370\013\240\007\304\237\001\375\024\351a\244"
 277      0BA007C4 
 277      9F01FD14 
 277      E961A4
 278 04a1 9F034D7C 		.ascii	"\237\003M|$\241N2\014#\336v\265lr\322\305(\210\025\247"
 278      24A14E32 
 278      0C23DE76 
 278      B56C72D2 
 278      C5288815 
 279 04b6 FDE26C19 		.ascii	"\375\342l\031|\251\">\234\003p\213\214p\251<\313\263"
 279      7CA9223E 
 279      9C03708B 
 279      8C70A93C 
 279      CBB3
 280 04c8 E6CAB9B5 		.ascii	"\346\312\271\265G\334Y\240a\255\264\215\345\341\260"
 280      47DC59A0 
 280      61ADB48D 
 280      E5E1B0
 281 04d7 EE30589B 		.ascii	"\3560X\233\254`\0153\347\353.\203\365\201m,\236\257"
 281      AC600D33 
 281      E7EB2E83 
 281      F5816D2C 
 281      9EAF
 282 04e9 9A1DBD6A 		.ascii	"\232\035\275j\024\015k\217\025\254\347\315\371\252e"
 282      140D6B8F 
 282      15ACE7CD 
 282      F9AA65
 283 04f8 B03EB38D 		.ascii	"\260>\263\215\305\3635\203\301:e\005k\2449_\2573X_\333"
 283      C5F33583 
ARM GAS  /tmp/ccodA23C.s 			page 22


 283      C13A6505 
 283      6BA4395F 
 283      AF33585F 
 284 050d C6E2F99A 		.ascii	"\306\342\371\232\315`\335\264\202Uj\316\327\034\006"
 284      CD60DDB4 
 284      82556ACE 
 284      D71C06
 285 051c AB4AB68B 		.ascii	"\253J\266\213\305\3635\217\301z\315\012V\2059_u\014"
 285      C5F3358F 
 285      C17ACD0A 
 285      5685395F 
 285      750C
 286 052e D61CDB58 		.ascii	"\326\034\333X<_\253\031\254%V\260\306\231\363\265\226"
 286      3C5FAB19 
 286      AC2556B0 
 286      C699F3B5 
 286      96
 287 053f C15A691B 		.ascii	"\301Zi\033\213\347k\375\300\032E\367\333\304\013\003"
 287      8BE76BFD 
 287      C01A45F7 
 287      DBC40B03 
 288 054f A876DE48 		.ascii	"\250v\336H\275v\036\236\257\210wl\373\355\357L\374\266"
 288      BD761E9E 
 288      AF88776C 
 288      FBEDEF4C 
 288      FCB6
 289 0561 A4C92309 		.ascii	"\244\311#\011k\214\354s\255jYU4\327\305\273\003\211"
 289      6B8CEC73 
 289      AD6A5955 
 289      34D7C5BB 
 289      0389
 290 0573 2AEEA0E3 		.ascii	"*\356\240\343\336`\005\354/\034\230G0\375\260\321\254"
 290      DE6005EC 
 290      2F1C9847 
 290      30FDB0D1 
 290      AC
 291 0584 22BE8F9E 		.ascii	"\"\276\217\236;\216\336z'\322\217\221\236Dz\012\351"
 291      3B8EDE7A 
 291      27D28F91 
 291      9E447A0A 
 291      E9
 292 0595 19A45F22 		.ascii	"\031\244_\"=\213\364<\322\257\220^D\372-\322\313H\257"
 292      3D8BF43C 
 292      D2AF905E 
 292      44FA2DD2 
 292      CB48AF
 293 05a8 22BD8EB4 		.ascii	"\"\275\216\264\015i;\322\333H;\3309\301L\303\015\311"
 293      0D693BD2 
 293      DB483BD8 
 293      39C14CC3 
 293      0DC9
 294 05ba 158422FE 		.ascii	"\025\204\"\376.\271\311\000\316U\346#\242\237\013\213"
 294      2EB9C900 
 294      CE55E623 
 294      A29F0B8B 
 295 05ca 55B51616 		.ascii	"U\265\026\026\030g\034o\250q\007\255*\011\273\360\264"
 295      18671C6F 
ARM GAS  /tmp/ccodA23C.s 			page 23


 295      A87107AD 
 295      2A09BBF0 
 295      B4
 296 05db 8DE24F53 		.ascii	"\215\342OS6\221h\340\037\204%\244\317_U_\352!\342RD"
 296      369168E0 
 296      1F8425A4 
 296      CF5F555F 
 296      EA21E252 
 297 05f0 D06A710A 		.ascii	"\320jq\012\233 Il\001]\323\304\267\236\"\201\275z\247"
 297      9B20496C 
 297      015DD3C4 
 297      B79E2281 
 297      BD7AA7
 298 0603 A343E6D7 		.ascii	"\243C\346\3274\232!\221\315\016&N\353\274\014\205P\277"
 298      349A2191 
 298      CD0E264E 
 298      EBBC0C85 
 298      50BF
 299 0615 E99D5F62 		.ascii	"\351\235_b|>I\"\326\323l\220\315:\320\334fm\2159\031"
 299      7C3E4922 
 299      D6D36C90 
 299      CD3AD0DC 
 299      666D8D39 
 300 062a 810E1880 		.ascii	"\201\016\030\200\024Q0\004\372\002\037\271\303W\265"
 300      14513004 
 300      FA021FB9 
 300      C357B5
 301 0639 43FB887F 		.ascii	"C\373\210\177\326J\376,t\251\216Y\237VK\334j\216\366"
 301      D64AFE2C 
 301      74A98E59 
 301      9F564BDC 
 301      6A8EF6
 302 064c 81D5A55D 		.ascii	"\201\325\245]\"l\353\231\024\272\255n}\177\024\272F"
 302      226CEB99 
 302      14BAAD6E 
 302      7D7F14BA 
 302      46
 303 065d 22B1F279 		.ascii	"\"\261\362y\203\320\031a$\341*V\231.\031\342\345\005"
 303      83D01961 
 303      24E12A56 
 303      992E19E2 
 303      E505
 304 066f 8A879666 		.ascii	"\212\207\226f^\335\255k\217\213\352d}u\247V\253\017"
 304      5EDDAD6B 
 304      8F8BEA64 
 304      7D75A756 
 304      AB0F
 305 0681 2D4B36C7 		.ascii	"-K6\307m6%Vw\033\177\205L\317\302\236\272\235\252\313"
 305      6D362556 
 305      771B7F85 
 305      4CCFC29E 
 305      BA9DAACB 
 306 0695 2D01CD9D 		.ascii	"-\001\315\235\362\026]\333\315A\240\027\035\306.\227"
 306      F2165DDB 
 306      CD41A017 
 306      1DC62E97 
 307 06a5 0D5D2EF3 		.ascii	"\015].\363\335'g'3\304\204\355\235,\011S\035\272\356"
ARM GAS  /tmp/ccodA23C.s 			page 24


 307      DD276727 
 307      33C484ED 
 307      9D2C0953 
 307      1DBAEE
 308 06b8 52319929 		.ascii	"R1\231)L\257\202\336[\371c\030\261/\312\\\337s!v'\023"
 308      4CAF82DE 
 308      5BF96318 
 308      B12FCA5C 
 308      DF732176 
 309 06ce 5A2025DC 		.ascii	"Z %\334\202$\324\032\031\310\270\260\364p]\267q\345"
 309      8224D41A 
 309      19C8B8B0 
 309      F4705DB7 
 309      71E5
 310 06e0 2EB230CF 		.ascii	".\2620\317dz\374\212A[\242\315\274(\202\211,F\273\233"
 310      647AFC8A 
 310      415BA2CD 
 310      BC288289 
 310      2C46BB9B 
 311 06f4 E5C86877 		.ascii	"\345\310hw<\206$\274I\253\030\355\356\352H\017-\315"
 311      3C8624BC 
 311      49AB18ED 
 311      EEEA480F 
 311      2DCD
 312 0706 6C776DD7 		.ascii	"lwm\327vv\225\371\372\367\317\\\222\320rV \377\333\354"
 312      767695F9 
 312      FAF7CF5C 
 312      92D07256 
 312      20FFDBEC 
 313 071a F3BF03AB 		.ascii	"\363\277\003\253\2542\362\377\011\341\177\225%\376\217"
 313      AC32F2FF 
 313      09E17F95 
 313      25FE8F
 314 0729 D45B527E 		.ascii	"\324[R~}b\201\320/i\371\233\376\026\177h\"\356\217\254"
 314      7D6281D0 
 314      2F69F99B 
 314      FE167F68 
 314      22EE8FAC 
 315 073d 4301263A 		.ascii	"C\001&:3\012\300\343\340\336V'\346\233\362T\007-\317"
 315      330AC0E3 
 315      E0DE5627 
 315      E69BF254 
 315      072DCF
 316 0750 CCFEF149 		.ascii	"\314\376\361I\013z\251\365\333\305T\374\303\011\"\253"
 316      0B7AA9F5 
 316      DBC554FC 
 316      C30922AB 
 317 0760 3B895DA7 		.ascii	";\211]\247I\302\253\300m*\025s\247)\342f\230s\024q\213"
 317      49C2ABC0 
 317      6D2A1573 
 317      A729E266 
 317      98731471 
 318 0775 91CB7593 		.ascii	"\221\313u\223\220\313-\226\270\334\320\324Y\311\206"
 318      90CB2D96 
 318      B8DCD0D4 
 318      59C986
 319 0784 DD37B29B 		.ascii	"\3357\262\233i6\332\342F\207\375D.?\033\233U|\237\035"
ARM GAS  /tmp/ccodA23C.s 			page 25


 319      6936DAE2 
 319      4687FD44 
 319      2E3F1B9B 
 319      557C9F1D 
 320 0798 A673B077 		.ascii	"\246s\260w\266\330\030\246\234\020\352ZU\315vQLIXj\033"
 320      B6D818A6 
 320      9C10EA5A 
 320      55CD7651 
 320      4C49586A 
 321 07ad CC630EB6 		.ascii	"\314c\016\266\316\012X\226E\3166\333\006K\301YW{\252"
 321      CE0A5896 
 321      45CE36DB 
 321      064BC159 
 321      577BAA
 322 07c0 39454F25 		.ascii	"9EO%\362\2154ZM5\3232\227e2E"
 322      F28D345A 
 322      4D35D332 
 322      97653245 
 323 07d0 2A9356FE 		.ascii	"*\223V\376\023\372\214\026\234mv8SN[V\"\225)ut\322>"
 323      13FA8C16 
 323      9C6D7638 
 323      534E5B56 
 323      22952975 
 324 07e7 88407B9D 		.ascii	"\210@{\235\306iK4L[\"?\023%.\354h\327u\354\234k\246"
 324      C6694B34 
 324      4C5B223F 
 324      13252EEC 
 324      68D775EC 
 325 07fe BE7D497B 		.ascii	"\276}I{e\225\250)\316\222\311\357fM\376\260\025[0\335"
 325      6595A829 
 325      CE92C9EF 
 325      664DFEB0 
 325      155B30DD 
 326 0812 74AA0207 		.ascii	"t\252\002\007\327\362\223\351\023\325\235\005]\265\207"
 326      D7F293E9 
 326      13D59D05 
 326      5DB587
 327 0821 A3DFD71E 		.ascii	"\243\337\327\036\342\246\335\250\210\373\245_t]\325"
 327      E2A6DDA8 
 327      88FBA55F 
 327      745DD5
 328 0830 27BEBFAA 		.ascii	"'\276\277\252\217\260\252>n[\325\036V\325\374\030>c"
 328      8FB0AA3E 
 328      6E5BD51E 
 328      56D5FC18 
 328      3E63
 329 0842 05ACA769 		.ascii	"\005\254\247i\277}\2771\3747\363>K9\313<\311L\036O\262"
 329      BF7DBF31 
 329      FC37F33E 
 329      4B39CB3C 
 329      C94C1E4F 
 330 0857 0E461B68 		.ascii	"\016F\033h\253\277\275\344\306\201v\001'\311\305\256"
 330      ABBFBDE4 
 330      C6817601 
 330      27C9C5AE 
 331 0867 9493A439 		.ascii	"\224\223\2449\014a\341\242q\372i#\327=.Z\232|\332\227"
 331      0C61E1A2 
ARM GAS  /tmp/ccodA23C.s 			page 26


 331      71FA6923 
 331      D73D2E5A 
 331      9A7CDA97 
 332 087b E0E4A35F 		.ascii	"\340\344\243_\304X\207\355_\354\3524\020\277\025 {b"
 332      C45887ED 
 332      5FECEA34 
 332      10BF1520 
 332      7B62
 333 088d 146B8B6D 		.ascii	"\024k\213m,O*F\205NR*\3427h\334\337J\270\232\225,\254"
 333      2C4F2A46 
 333      854E522A 
 333      E23768DC 
 333      DF4AB89A 
 334 08a4 54CF7306 		.ascii	"T\317s\006m\311\200\277d\015\370C\227]\2333\312\242"
 334      6DC980BF 
 334      640DF843 
 334      975D9B33 
 334      CAA2
 335 08b6 77042CEC 		.ascii	"w\004,\354\221\355\017\220~\204\264\011\351.\244\207"
 335      91ED0F90 
 335      7E84B409 
 335      E92EA487 
 336 08c6 919E46FA 		.ascii	"\221\236F\372\205\025\3216\261|\356A>\337\355j\377\201"
 336      8515D136 
 336      B17CEE41 
 336      3EDFED6A 
 336      FF81
 337 08d8 4FBBF977 		.ascii	"O\273\371wW\253\324\331\005n\241\232^\244\255\3124U"
 337      57ABD4D9 
 337      056EA19A 
 337      5EA4ADCA 
 337      3455
 338 08ea 8005BBD0 		.ascii	"\200\005\273\320\202oHn\340`\277\301\202-\000\021)\332"
 338      826F486E 
 338      E060BFC1 
 338      822D0011 
 338      29DA
 339 08fc A13267C3 		.ascii	"\2412g\303\233\306{hi\032\033\306\201'\011\237\273h"
 339      9BC67B68 
 339      691A1BC6 
 339      8127099F 
 339      BB68
 340 090e E0EBC84E 		.ascii	"\340\353\310N\226\235M\226\211\314\251\227\222\305\022"
 340      969D4D96 
 340      89CCA997 
 340      92C512
 341 091d 537C3B59 		.ascii	"S|;Y,3\305\223\335\211b\007S</Y\354d\212\227&\213]L"
 341      2C33C593 
 341      DD896207 
 341      533C2F59 
 341      EC648A97 
 342 0935 F1DA64B1 		.ascii	"\361\332d\261\233)\336\226,\316bz$\355\304\231T\222"
 342      9B29DE96 
 342      2CCE627A 
 342      24EDC499 
 342      5492
 343 0947 22DEC221 		.ascii	"\"\336\302!p[\222SV\223\204\335n\203%p*\317\024\203"
ARM GAS  /tmp/ccodA23C.s 			page 27


 343      705B9253 
 343      569384DD 
 343      6E832570 
 343      2ACF1483 
 344 095b A96809D3 		.ascii	"\251h\011\323U\230\335\330\375\271\306t\227\231\246"
 344      5598DDD8 
 344      FDB9C674 
 344      9799A6
 345 096a CA7677E8 		.ascii	"\312vw\350j\344\324;t\372\340\224\204\026\243\024)\257"
 345      6AE4D43B 
 345      74FAE094 
 345      8416A314 
 345      29AF
 346 097c 0C99467F 		.ascii	"\014\231F\177\270H'3\007\341M\022\016YB\3134u\350\376"
 346      B8482733 
 346      07E14D12 
 346      0E5942CB 
 346      3475E8FE 
 347 0990 EDB0112D 		.ascii	"\355\260\021-\325X{\310\024,\3366i\276\325\325\011\267"
 347      D5587BC8 
 347      142CDE36 
 347      69BED5D5 
 347      09B7
 348 09a2 95A82D6E 		.ascii	"\225\250-n\333w\210\236\024+\024\356TE|C\376E\252u\014"
 348      DB77889E 
 348      142B14EE 
 348      54457C43 
 348      FE45AA75 
 349 09b7 7716396F 		.ascii	"w\0269o\256l\230C\336\337\201K\030R\236y\026\371\254"
 349      AE6C9843 
 349      DEDF814B 
 349      18529E79 
 349      16F9AC
 350 09ca DA5C146E 		.ascii	"\332\\\024n\371\224X\340\025$\004i\255\355\270\364\007"
 350      F99458E0 
 350      15240469 
 350      ADEDB8F4 
 350      07
 351 09db 74200B64 		.ascii	"t \013d2\005.\315\312\274\320\345`\024q\241LVa\213\214"
 351      32052ECD 
 351      CABCD0E5 
 351      601471A1 
 351      4C56618B 
 352 09f0 225C9F8B 		.ascii	"\"\\\237\213\",\262$\302w\307\352\036P[\343\242u\307"
 352      222CB224 
 352      C277C7EA 
 352      1E505BE3 
 352      A275C7
 353 0a03 B77F7163 		.ascii	"\267\177qco\272\300]\"\023\317w&\253K\236o\231l\360"
 353      6FBAC05D 
 353      2213CF77 
 353      26AB4B9E 
 353      6F996CF0 
 354 0a17 7C1BAABB 		.ascii	"|\033\252\273\023\266Iyf\337\367MVg\337\327\236\225"
 354      13B64979 
 354      66DFF74D 
 354      5667DFD7 
ARM GAS  /tmp/ccodA23C.s 			page 28


 354      9E95
 355 0a29 D2F75565 		.ascii	"\322\367Ue\247\364}\257d\247\364}\263\262y\337'X\360"
 355      A7F47DAF 
 355      64A7F47D 
 355      B3B279DF 
 355      2758F0
 356 0a3c 4F495114 		.ascii	"OIQ\024q\271L\374\323\333rj\377\244\210\257&\372\314"
 356      71B94CFC 
 356      D3DB726A 
 356      FFA488AF 
 356      26FACC
 357 0a4f AA7FE2FA 		.ascii	"\252\177\342\372\253uzG\313\270m0\036_vuq\374\034;f"
 357      AB757A47 
 357      CBB86D30 
 357      1E5F7675 
 357      71FC1C3B 
 358 0a64 65FC6CB4 		.ascii	"e\374l\2648~6\031\215o\32614\276M\226\214o\301\261\272"
 358      387E3619 
 358      8D6FD631 
 358      34BE4D96 
 358      8C6FC1B1 
 359 0a79 CEE3C7FA 		.ascii	"\316\343\307\372\0358[eCPZ'[\330\003\320\364\360\335"
 359      1D385B65 
 359      43505A27 
 359      5BD803D0 
 359      F4F0DD
 360 0a8c 9C1FE05E 		.ascii	"\234\037\340^\205Lb\3537\263y\0336\354\372\221\206\314"
 360      854C62EB 
 360      37B3791B 
 360      36ECFA91 
 360      86CC
 361 0a9e 9868C436 		.ascii	"\230h\3046S\311\331\3517\230\024\261\235MrW\343\314"
 361      53C9D9E9 
 361      379814B1 
 361      9D4D7257 
 361      E3CC
 362 0ab0 4DA91496 		.ascii	"M\251\024\226\242\237Z\023\3735\277JH\334zu\305\251"
 362      A29F5A13 
 362      FB35BF4A 
 362      48DC7A75 
 362      C5A9
 363 0ac2 7C3A703F 		.ascii	"|:p?B\217\323\221\235\321\343\3608D\244\235\306\016"
 363      428FD391 
 363      9DD1E3F0 
 363      3844A49D 
 363      C60E
 364 0ad4 5FD78C1D 		.ascii	"_\327\214\035\2763s\207\27781\276\261y\036\362\217s"
 364      BE337387 
 364      BF3831BE 
 364      B1791EF2 
 364      8F73
 365 0ae6 E5C4B437 		.ascii	"\345\304\2647\011)\342v\274\372c\345.\236WrD\215\265"
 365      0929E276 
 365      BCFA63E5 
 365      2E9E5772 
 365      448DB5
 366 0af9 2EA815D8 		.ascii	".\250\025\330z\2579\217\\\320j\226\211\213\250\265\015"
ARM GAS  /tmp/ccodA23C.s 			page 29


 366      7AAF398F 
 366      5CD06A96 
 366      898BA8B5 
 366      0D
 367 0b0a E6E1C01A 		.ascii	"\346\341\300\032X\2607\254\200\231\315\343\000\266\205"
 367      58B037AC 
 367      8099CDE3 
 367      00B685
 368 0b19 055B681B 		.ascii	"\005[h\033\214\347l\033\013\366\226\0250\263m\000\000"
 368      8CE76C1B 
 368      0BF69615 
 368      30B36D00 
 368      00
 369 0b2a 6B61C156 		.ascii	"ka\301V\330\006c9\233\020?\331\274\233,\307\356\027"
 369      D8066339 
 369      9B103FD9 
 369      BC9B2CC7 
 369      EE17
 370 0b3c 6A557582 		.ascii	"jUu\202Z\35723\012A\300S\324\264\247\300\"\\\276\237"
 370      5AEF3233 
 370      0A41C053 
 370      D4B4A7C0 
 370      225CBE9F 
 371 0b50 37D28353 		.ascii	"7\322\203S\272\021#%\345\231\275\322'\232\221\352\001"
 371      BA112325 
 371      E599BDD2 
 371      279A91EA 
 371      01
 372 0b61 CF5F5138 		.ascii	"\317_Q8R\267+\203V\215\037o\316U'\347%\226\264\313\322"
 372      52B72B83 
 372      568D1F6F 
 372      CE5527E7 
 372      2596B4CB 
 373 0b76 307EC238 		.ascii	"0~\3028\272>k\226<\264\330\302\256u\363\274\236j}\243"
 373      BA3E6B96 
 373      3CB4D8C2 
 373      AE75F3BC 
 373      9E6A7DA3 
 374 0b8a A85FBD59 		.ascii	"\250_\275Y\203|\237\220\273x\015$~tJ^\313H\035l\203"
 374      837C9F90 
 374      BB780D24 
 374      7E744A5E 
 374      CB481D6C 
 375 0b9f 6DB01E06 		.ascii	"m\260\036\006.%asW\025\231\370$W\223\307d\262R<.s\267"
 375      2E256173 
 375      571599F8 
 375      245793C7 
 375      64B2523C 
 376 0bb6 F06CB562 		.ascii	"\360l\265b\206fq.\330\364%\326\246\267\333\006\363p"
 376      8666712E 
 376      D8F425D6 
 376      A6B7DB06 
 376      F370
 377 0bc8 605758B0 		.ascii	"`WX\260&+`\036s\316\256\261`\037\333\006\3439\273\301"
 377      262B601E 
 377      73CEAEB1 
 377      601FDB06 
ARM GAS  /tmp/ccodA23C.s 			page 30


 377      E339BBC1 
 378 0bdc 82EDB702 		.ascii	"\202\355\267\002\226*\234O\365a\347\007X\331c,\264\033"
 378      962A9C4F 
 378      F561E707 
 378      58D9632C 
 378      B41B
 379 0bee 7B6A0FD2 		.ascii	"{j\017\322}H\367#=\210\364\023\244\237!\375\033\322"
 379      7D48F723 
 379      3D88F413 
 379      A49F21FD 
 379      1BD2
 380 0c00 73482F20 		.ascii	"sH/ \375\232\355\3374\223y[\355\203d|\177\210\223\371"
 380      FD9AEDDF 
 380      3493795B 
 380      ED83647C 
 380      7F8893F9 
 381 0c14 27396927 		.ascii	"'9i'\363\217LD%\334_J3\231_2N\346\2559v's\246\0330\224"
 381      F38F4C44 
 381      25DC5F4A 
 381      33995F32 
 381      4EE6AD39 
 382 0c2f 8B87B6AE 		.ascii	"\213\207\266\256V\325\227\\\372 ;kDL5\310\314\367\374"
 382      56D5975C 
 382      FA203B6B 
 382      444C35C8 
 382      CCF7FC
 383 0c42 E387E732 		.ascii	"\343\207\3472#\366\242m0\343\210\325\373\261\001\373"
 383      23F6A26D 
 383      30E388D5 
 383      FBB101FB 
 384 0c52 7133F6C8 		.ascii	"q3\366\310\007H\257 \275\306\217\276\313\006\275\353"
 384      0748AF20 
 384      BDC68FBE 
 384      CB06BDEB 
 385 0c62 51208397 		.ascii	"Q \203\227\014\027\205\314\210f\235\264Afv~nc\243\213"
 385      0C1785CC 
 385      88669DB4 
 385      4166767E 
 385      6E63A38B 
 386 0c76 BADA09F1 		.ascii	"\272\332\011\361\272\0230\0262^\350s\350HE\011\233k"
 386      BA133016 
 386      325EE873 
 386      E8484509 
 386      9B6B
 387 0c88 9DD9D0D8 		.ascii	"\235\331\320\330\263AU{(\342-\014\2476\347f\276\320"
 387      B341557B 
 387      28E22D0C 
 387      A736E766 
 387      BED0
 388 0c9a C7E148C2 		.ascii	"\307\341H\302\207X\345;\203\323o\335\272\355\324\217"
 388      8758E53B 
 388      83D36FDD 
 388      BAEDD48F 
 389 0caa 6723F277 		.ascii	"g#\362w\226\034\377\355T\313P\312\226\231\016'8\014"
 389      961CFFED 
 389      54CB50CA 
 389      96990E27 
ARM GAS  /tmp/ccodA23C.s 			page 31


 389      380C
 390 0cbc C63C314F 		.ascii	"\306<1Og\245k\221\351\335\035\350S\010\256$L\266\015"
 390      67A56B91 
 390      E9DD1DE8 
 390      5308AE24 
 390      4CB60D
 391 0ccf C677CAF4 		.ascii	"\306w\312\364&&L\264t/\371\301\323\347{mE\225U\343:"
 391      26264CB4 
 391      742FF9C1 
 391      D3E77B6D 
 391      459555E3 
 392 0ce4 EF689ED1 		.ascii	"\357h\236\321\026\033\215\227n\254\004\226\247\255\010"
 392      161B8D97 
 392      6EAC0496 
 392      A7AD08
 393 0cf3 62BE0D03 		.ascii	"b\276\015\003=\271\377\301M\270Z\323\247\177\323\270"
 393      3DB9FFC1 
 393      4DB85AD3 
 393      A77FD3B8 
 394 0d03 4512CE63 		.ascii	"E\022\316ccS\034\006k8xv\377\257\2515\220\2372[\303"
 394      63531C06 
 394      6B387876 
 394      FFAFA935 
 394      909F325B 
 395 0d18 C6E65996 		.ascii	"\306\346Y\226\326\010\365\211g0\374\330\374\212{H\363"
 395      D608F589 
 395      6730FCD8 
 395      FC8A7B48 
 395      F3
 396 0d29 35C6E64F 		.ascii	"5\306\346O~u\376\267\264\371\032K\315\237\3347#\225"
 396      7E75FEB7 
 396      B4F91A4B 
 396      CD9FDC37 
 396      2395
 397 0d3b 319A2CE3 		.ascii	"1\232,\343\364\356;{\371\241\005\330\310\0144\240\353"
 397      F4EE3B7B 
 397      F9A105D8 
 397      C80C34A0 
 397      EB
 398 0d4c F718BBEF 		.ascii	"\367\030\273\357\011v#[\320\256\3662\366{7\301}\227"
 398      0976235B 
 398      D0AEF632 
 398      F67B37C1 
 398      7D97
 399 0d5e EC17C46C 		.ascii	"\354\027\304l|b9\366\224\316CU7\273\210\274\021_\331"
 399      7C6239F6 
 399      94CE4355 
 399      37BB88BC 
 399      115FD9
 400 0d71 87238282 		.ascii	"\207#\202\202U[\001K\343\331\257\261`\223m\203\361\234"
 400      555B014B 
 400      E3D9AFB1 
 400      60936D83 
 400      F19C
 401 0d83 DD60C15E 		.ascii	"\335`\301^\263\002f~90~\223\005\253\265\015\306sv\213"
 401      B302667E 
 401      39307E93 
ARM GAS  /tmp/ccodA23C.s 			page 32


 401      05ABB50D 
 401      C673768B 
 402 0d97 057BDD0A 		.ascii	"\005{\335\012\230\371\256e\374\016\0136\3076\030\317"
 402      98F9AE65 
 402      FC0E0B36 
 402      C73618CF 
 403 0da7 D95D16AC 		.ascii	"\331]\026\254\316\012\230\307\234\263\232\003\014\330"
 403      CE0A98C7 
 403      9CB39A03 
 403      0CD8
 404 0db5 22DB603C 		.ascii	"\"\333`<g\265,\330R+`i6gg\260`o\333\006\3439{\235\005"
 404      67B52CD8 
 404      522B6069 
 404      366767B0 
 404      606FDB06 
 405 0dce 5B6505AC 		.ascii	"[e\005\254\300\234\263\331,\330Z\333`<gsX\260w\255\200"
 405      C09CB3D9 
 405      2CD85ADB 
 405      603C6773 
 405      58B077AD 
 406 0de3 F537E76C 		.ascii	"\3657\347l\036\013\326`\033\214\347l5\013\266\315\012"
 406      1E0BD660 
 406      1B8CE76C 
 406      350BB6CD 
 406      0A
 407 0df4 D893E69C 		.ascii	"\330\223\346\234\255e\301\032m\203\361\234\255g\301"
 407      AD65C11A 
 407      6D83F19C 
 407      AD67C1
 408 0e03 3EB40266 		.ascii	">\264\002f\372tCU\374]\026\254\3116\030\317\331{,\330"
 408      FA744355 
 408      FC5D16AC 
 408      C93618CF 
 408      D97B2CD8 
 409 0e17 6E2B60A6 		.ascii	"n+`\246\3177T\305\033X\260=\266\301x\316\266\260`-V"
 409      CF3754C5 
 409      1B58B03D 
 409      B6C178CE 
 409      B6B0602D 
 410 0e2c C04C9F70 		.ascii	"\300L\237p\250\212oc\301\016\331\006\3439ka\301\016"
 410      A88A6F63 
 410      C10ED906 
 410      E3396B61 
 410      C10E
 411 0e3e 5B011B99 		.ascii	"[\001\033\231\202\263\304\307,\316\234\352`b\365c\335"
 411      82B3C4C7 
 411      2CCE9CEA 
 411      6062F563 
 411      DD
 412 0e4f F400C7E6 		.ascii	"\364\000\307\346\034-$1Nv\263\033\221qr\223\330\372"
 412      1C2D2431 
 412      4E76B31B 
 412      91717293 
 412      D8FA
 413 0e61 C1066D9E 		.ascii	"\301\006m\236\247\301\352\227V\020\323L\200s\232\230"
 413      A7C1EA97 
 413      5610D34C 
ARM GAS  /tmp/ccodA23C.s 			page 33


 413      80739A98 
 414 0e71 C8F7A26D 		.ascii	"\310\367\242m0\203)7\031\227#\226\356zy\023\267J\027"
 414      30832937 
 414      19972396 
 414      EE7A7913 
 414      B74A17
 415 0e84 1B6E7B31 		.ascii	"\033n{1}\316\274S7\355c\273\351\272\025\031\322\314"
 415      7DCEBC53 
 415      37ED63BB 
 415      E9BA1519 
 415      D2CC
 416 0e96 BB279BE6 		.ascii	"\273'\233\346\341%%\353\267]\035<\275_\213\336\017b"
 416      E12525EB 
 416      B75D1D3C 
 416      BD5F8BDE 
 416      0F62
 417 0ea8 F47EA79B 		.ascii	"\364~\247\2331\374#7v1\237\214w\370H\302K\335\015R\244"
 417      31FC2337 
 417      76319F8C 
 417      77F848C2 
 417      4BDD0D52 
 418 0ebd BAD0623E 		.ascii	"\272\320b>\341\203\241\034\371\351\246U\252:\321eG\216"
 418      E183A11C 
 418      F9E9A655 
 418      AA3AD165 
 418      478E
 419 0ecf 5D9A1C87 		.ascii	"]\232\034\207Q\216W\273\177\1779f\332\226\343!\203\034"
 419      518E57BB 
 419      7F7F3966 
 419      DA96E321 
 419      831C
 420 0ee1 8D0FD997 		.ascii	"\215\017\331\227\343\210&\307q\224c\376\377\202\034"
 420      E38826C7 
 420      719463FE 
 420      FF821C
 421 0ef0 4B6CCBC1 		.ascii	"Kl\313\301=]G\226R\017\323\245\224\245-\340\323\016"
 421      3D5D4796 
 421      520FD3A5 
 421      94A52DE0 
 421      D30E
 422 0f02 C316F091 		.ascii	"\303\026\360\221\335\344\246hR\234\3719\323\266\335"
 422      DDE4A668 
 422      529CF939 
 422      D3B6DD
 423 0f11 CCFA53B5 		.ascii	"\314\372S\265\266\376\274\254i\354K\324\330;\006\215"
 423      B6FEBCAC 
 423      69EC4BD4 
 423      D83B068D 
 424 0f21 59473AD9 		.ascii	"YG:\331\364\341\032\355\001\353s\010\265\266\313Ps\233"
 424      F4E11AED 
 424      01EB7308 
 424      B5B6CB50 
 424      739B
 425 0f33 37D2BB19 		.ascii	"7\322\273\031\277B\240\206N\275\3502t\242\213\357D\370"
 425      BF42A086 
 425      4EBDE832 
 425      74A28BEF 
ARM GAS  /tmp/ccodA23C.s 			page 34


 425      44F8
 426 0f45 4A5ABA99 		.ascii	"JZ\272\231|\206\302E\327\306n\341\377{=\0109\220}\322"
 426      7C86C245 
 426      D7C66EE1 
 426      FF7B3D08 
 426      39907DD2 
 427 0f59 8136678F 		.ascii	"\2016g\217\244\001\375j\223\346\371i'5\177/\304\252"
 427      A401FD6A 
 427      93E6F969 
 427      27357F2F 
 427      C4AA
 428 0f6b F8BA29F3 		.ascii	"\370\272)\363\265\013\005O\340\224\374=\341\3667\333"
 428      B50B054F 
 428      E094FC3D 
 428      E1F637DB 
 429 0f7b DFF568EC 		.ascii	"\337\365h\354M\255\356\032\012t\254S\017wi\327\343l"
 429      4DADEE1A 
 429      0A74AC53 
 429      0F7769D7 
 429      E36C
 430 0f8d 5705497C 		.ascii	"W\005I|$\341\033\343p\267\265D\"\275\325\376\260\305"
 430      24E11BE3 
 430      70B7B544 
 430      22BDD5FE 
 430      B0C5
 431 0f9f 9D       		.ascii	"\235"
 432 0fa0 93C47EDC 		.ascii	"\223\304~\334\371\236;\351~\234\203\354\307]1(\303\302"
 432      F99E3BE9 
 432      7E9C83EC 
 432      C75D3128 
 432      C3C2
 433 0fb2 0ECC841E 		.ascii	"\016\314\204\036\310\264q\013\004,\247\227\266\037g"
 433      C8B4710B 
 433      042CA797 
 433      B61F67
 434 0fc1 6D07A65A 		.ascii	"m\007\246Z\267\013\272\315V\345\2204\330\256\352\223"
 434      B70BBACD 
 434      56E59034 
 434      D8AEEA93 
 435 0fd1 EBC2247F 		.ascii	"\353\302$\177\212\330\341 \023\277\352\3446b\247\365"
 435      8AD8E120 
 435      13BFEAE4 
 435      3662A7F5 
 436 0fe1 B0AB7B0F 		.ascii	"\260\253{\017\253\373\370\355\346y\"\341?\305\246\321"
 436      ABFBF8ED 
 436      E67922E1 
 436      3FC5A6D1 
 437 0ff1 936C8895 		.ascii	"\223l\210\225P\374\251^\273P=\023\235D\361"
 437      50FCA95E 
 437      BB503D13 
 437      9D44F1
 438 1000 737BD8BC 		.ascii	"s{\330\274\231S\022V`\225jg'\305\357\352M\025O~\262"
 438      99531256 
 438      60956A67 
 438      27C5EFEA 
 438      4D154F7E 
 439 1015 70E52EA5 		.ascii	"p\345.\245\342I\335\256\215\310O\223\233\232\212\370"
ARM GAS  /tmp/ccodA23C.s 			page 35


 439      E249DDAE 
 439      8DC84F93 
 439      9B9A8AF8 
 440 1025 A26D304F 		.ascii	"\242m0O\272^L\012\253\210\177q\222^|\331I\266\300'\363"
 440      BA5E4C0A 
 440      AB887F71 
 440      925E7CD9 
 440      49B6C027 
 441 103a 7DB9C5D8 		.ascii	"}\271\305\330\227\234\346\264\254\351\202^\215O\337"
 441      979CE6B4 
 441      ACE9825E 
 441      8D4FDF
 442 1049 AB5FCCA4 		.ascii	"\253_\314\244>\257\311\212m\244Y\206\327\355E\225P\177"
 442      3EAFC98A 
 442      6DA45986 
 442      D7ED4595 
 442      507F
 443 105b B3C73698 		.ascii	"\263\3076\230\207\003\333\372\232\305\373\247\014O\370"
 443      8703DBFA 
 443      9AC5FBA7 
 443      0C4FF8
 444 106a 1CC6766B 		.ascii	"\034\306vk\215\346\362\335\322\003\223\304\0118u\326"
 444      8DE6F2DD 
 444      D20393C4 
 444      093875D6 
 445 107a 5AB01798 		.ascii	"Z\260\027\230\347\277\314\306\233\200\251\335\326\336"
 445      E7BFCCC6 
 445      9B80A9DD 
 445      D6DE
 446 1088 ABA3A651 		.ascii	"\253\243\246Qu\032k\271}^\273\247\230.\005\346\030\341"
 446      751A6BB9 
 446      7D5EBBA7 
 446      982E05E6 
 446      18E1
 447 109a 32AE5478 		.ascii	"2\256Tx\270\273\001\303-\366V\037\377:\266\211D:sQ\246"
 447      B8BB01C3 
 447      2DF6561F 
 447      FF3AB689 
 447      443A7351 
 448 10af 45F71A67 		.ascii	"E\367\032g\004\252\031\306\020k\031C\234\201\2068\023"
 448      04AA19C6 
 448      106B1943 
 448      9C818638 
 448      13
 449 10c0 0D7116D2 		.ascii	"\015q\026\3227Xs4\013\266\3468\231\345\303\333\266\345"
 449      37587334 
 449      0BB6E638 
 449      99E5C3DB 
 449      B6E5
 450 10d2 F6187AC7 		.ascii	"\366\030z\307\254\231il3k\356\265`{\346\2736\304\251"
 450      AC99696C 
 450      336BEEB5 
 450      607BE6BB 
 450      36C4A9
 451 10e5 FFB31E0E 		.ascii	"\377\263\036\016\320k\006\233m#\362\326|\3715.\034\330"
 451      D06B069B 
 451      6D23F2D6 
ARM GAS  /tmp/ccodA23C.s 			page 36


 451      7CF9352E 
 451      1CD8
 452 10f7 6105EEC9 		.ascii	"a\005\356\311\024\014\246\372\260W\211\300\353\343\005"
 452      140CA6FA 
 452      B05789C0 
 452      EBE305
 453 1106 39D5413A 		.ascii	"9\325A:h\"\322\227\220NF\272\033\351\307H\367\"=\200"
 453      6822D297 
 453      904E46BA 
 453      1BE9C748 
 453      F7223D80 
 454 111a F433A49F 		.ascii	"\3643\244\237#=\205\264\035i\025v\364+H_CZ\203\264\036"
 454      233D85B4 
 454      1D691576 
 454      F42B485F 
 454      435A83B4 
 455 112f E9A24C06 		.ascii	"\351\242L\006\240\315\002[W\035}\360\035\364\325\355"
 455      A0CD025B 
 455      571D7DF0 
 455      1DF4D5ED 
 456 113f 7815B6FA 		.ascii	"x\025\266\372>\243\345Mp\030\366\360;]\204z\343>\013"
 456      3EA3E54D 
 456      7018F6F0 
 456      3B5D847A 
 456      E33E0B
 457 1152 17F3D25C 		.ascii	"\027\363\322\\n\231\336qn\374\326*\332\247s\321\254"
 457      6E99DE71 
 457      6EFCD62A 
 457      DAA773D1 
 457      AC
 458 1163 A73B0DB7 		.ascii	"\247;\015\267\333e\276\221\226\357\324\343u\346\317"
 458      DB65BE91 
 458      96EFD4E3 
 458      75E6CF
 459 1172 D2715753 		.ascii	"\322qWS\022wJ\375<\251\223i\353\216\376\211\336q\365"
 459      12774AFD 
 459      3CA99369 
 459      EB8EFE89 
 459      DE71F5
 460 1185 368EC6CF 		.ascii	"6\216\306\317\015:\311\210C\264\264\322\340\346\342"
 460      0D3AC988 
 460      43B4B4D2 
 460      E0E6E2
 461 1194 974FE01D 		.ascii	"\227O\340\035W+3\273\270\027'\306\257\237\230\241\031"
 461      572B33BB 
 461      B81727C6 
 461      AF9F98A1 
 461      19
 462 11a5 25BDDC7F 		.ascii	"%\275\334\177\016YX\331\265)\221\334;p\202\271w\340"
 462      0E5958D9 
 462      B52991DC 
 462      3B7082B9 
 462      77E0
 463 11b7 6BDB601E 		.ascii	"k\333`\036\016\354&\013v\311\012X\232[\245n\261`Wm\203"
 463      0EEC260B 
 463      76C90A58 
 463      9A5BA56E 
ARM GAS  /tmp/ccodA23C.s 			page 37


 463      B160576D 
 464 11cc F19CDD61 		.ascii	"\361\234\335a\301nX\001Ks\253\324]\026\354\216m0\236"
 464      C16E5801 
 464      4B73ABD4 
 464      5D16EC8E 
 464      6D309E
 465 11df B39A930C 		.ascii	"\263\232\223\014\330\304\373-\200\245\271\341\245\226"
 465      D8C4FB2D 
 465      80A5B9E1 
 465      A596
 466 11ed 059B6C1B 		.ascii	"\005\233l\033\214\347l\006\013Vk\005\314\223\202\263"
 466      8CE76C06 
 466      0B566B05 
 466      CC9382B3 
 467 11fd 541F7610 		.ascii	"T\037v\020(\342*\234\244\376\212\336i\015\322uH7 \335"
 467      28E22A9C 
 467      A4FE8ADE 
 467      690DD275 
 467      483720DD 
 468 1211 887413D2 		.ascii	"\210t\023\322\315H\267\"}\337\312D\266\234\235af\337"
 468      CD48B722 
 468      7DDFCA44 
 468      B69C9D61 
 468      66DF
 469 1223 6FC11BA5 		.ascii	"o\301\033\245\331A\232\336\321\362\337\337\347V\335"
 469      D9419ADE 
 469      D1F2DFDF 
 469      E756DD
 470 1232 D6F686DD 		.ascii	"\326\366\206\335\377J\334G\346\333u?rZ\273]\267\311"
 470      FF4ADC47 
 470      E6DB753F 
 470      725ABB5D 
 470      B7C9
 471 1244 E84BAEEF 		.ascii	"\350K\256\357E_\322d)\274n\263\030\256\245|\037\302"
 471      455FD264 
 471      29BC6EB3 
 471      18AEA57C 
 471      1FC2
 472 1256 B475BB7F 		.ascii	"\264u\273\177K}a3\372\3023\367g\364\205<\016\341o\257"
 472      4B7D6133 
 472      FAC233F7 
 472      67F4853C 
 472      0EE16FAF 
 473 126a 91FF75FB 		.ascii	"\221\377u\373\220\377\275\226|\341\306}\274/\274\201"
 473      90FFBD96 
 473      7CE1C67D 
 473      BC2FBC81 
 474 127a 2CECEDB2 		.ascii	",\354\355\262/|o\037c\360\355\266\301<\034X\003\013"
 474      2F7C6F1F 
 474      63F0EDB6 
 474      C13C1C58 
 474      030B
 475 128c 76D70A58 		.ascii	"v\327\012X\272\333FY\260\252\037\330\005\3439\333\306"
 475      BADB4659 
 475      B0AA1FD8 
 475      05E339DB 
 475      C6
ARM GAS  /tmp/ccodA23C.s 			page 38


 476 129d 824DB202 		.ascii	"\202M\262\002\226\356\266Q\026\354\025\333`\236T\335"
 476      96EEB651 
 476      16EC15DB 
 476      609E54DD 
 477 12ad 2B74B20E 		.ascii	"+t\262\016E\334\207N\242\005\207\376\001\244\207\220"
 477      45DC874E 
 477      A20587FE 
 477      01A48790 
 478 12bd 7E8AF430 		.ascii	"~\212\3640\322\243V\\\302n\326%\324 \303M]]P\302\210"
 478      D2A3565C 
 478      C26ED625 
 478      D420C34D 
 478      5D5D50C2 
 479 12d2 3EFD2F0D 		.ascii	">\375/\015\235]\002\325\207\031\007'X\016f\331\346\300"
 479      9D5D02D5 
 479      87190727 
 479      580E66D9 
 479      E6C0
 480 12e4 C37210BF 		.ascii	"\303r\020\277\275\227n\316\353\317J\3173\342\245\332"
 480      BD976ECE 
 480      EBCF4ACF 
 480      33E2A5DA 
 481 12f4 964DB74A 		.ascii	"\226M\267J\331\233\273z\244\016\266\3306X\026\007V\263"
 481      D99BBB7A 
 481      A40EB6D8 
 481      36581607 
 481      56B3
 482 1306 8F015B69 		.ascii	"\217\001[i\033\314\354\376\265\235h\013\273\260\317"
 482      1BCCECFE 
 482      B59D680B 
 482      BBB0CF
 483 1315 8F236D45 		.ascii	"\217#mEz\032\351\027\374\202{\375\017\214qk\223q\305"
 483      7A1AE917 
 483      FC827BFD 
 483      0F8C716B 
 483      9371C5
 484 1328 94F4A282 		.ascii	"\224\364\242\202U\\\263\276\375\200\355\333\246\037"
 484      555CB3BE 
 484      FD80EDDB 
 484      A61F
 485 1336 5898703C 		.ascii	"X\230p<\346\3265\275\343\2226\341P`X\240\333F\344\255"
 485      E6D635BD 
 485      E39236E1 
 485      506058A0 
 485      DB46E4AD 
 486 134a 65E6C93A 		.ascii	"e\346\311:\356V\350\203V\360\322\334^0\217\206\010\024"
 486      EE56E883 
 486      56F0D2DC 
 486      5E308F86 
 486      0814
 487 135c ECB86D30 		.ascii	"\354\270m0\217`\372a\237\203R\304\305\270@z\023\357"
 487      8F60FA61 
 487      9F8352C4 
 487      C5B8407A 
 487      13EF
 488 136e 295C8FF4 		.ascii	")\\\217\364&\322\267\260g\226!\335\216\364\034\322\013"
 488      26D2B7B0 
ARM GAS  /tmp/ccodA23C.s 			page 39


 488      679621DD 
 488      8EF41CD2 
 488      0B
 489 137f 48BFB6D2 		.ascii	"H\277\266\322cu\354\335\207gQ\204\271]\275k\216<m\330"
 489      6375ECDD 
 489      87675184 
 489      B95DBD6B 
 489      8E3C6DD8 
 490 1393 5BBF1AB9 		.ascii	"[\277\032\271\001\227M_\333F\344{\354\006\335\262\242"
 490      01974D5F 
 490      DB46E47B 
 490      EC06DDB2 
 490      A2
 491 13a4 6057AC80 		.ascii	"`W\254\200\245\032\334\214Z\251B\347\241B\347\243\022"
 491      A51ADC8C 
 491      5AA942E7 
 491      A142E7A3 
 491      12
 492 13b5 BF45655D 		.ascii	"\277Ee]\346\207\315\315N\303f\256\361\346\317\344\263"
 492      E687CDCD 
 492      4EC366AE 
 492      F1E6CFE4 
 492      B3
 493 13c6 76423A2C 		.ascii	"vB:,3\305\317\222\231\267n\265\341cTv\036B\344\325\324"
 493      33C5CF92 
 493      99B76EB5 
 493      E1635476 
 493      1E42E4D5 
 494 13db D1A4BB41 		.ascii	"\321\244\273A\372\236\345\252\037\212B\306\307FSm\213"
 494      FA9EE5AA 
 494      1F8A42C6 
 494      C746536D 
 494      8B
 495 13ec A5FAB0EF 		.ascii	"\245\372\260\357o\201\200\024\237X}\017\237l\276\216"
 495      6F818014 
 495      9F587D0F 
 495      9F6CBE8E 
 496 13fc F43514BD 		.ascii	"\3645\024\275\026\351\014\244\257\323\273_\255\250a"
 496      16E90CA4 
 496      AFD3BB5F 
 496      ADA861
 497 140b 2DF79621 		.ascii	"-\367\226!d{U\227\237{~\377\314\271*\261\226\274\314"
 497      647B5597 
 497      9F7B7EFF 
 497      CCB92AB1 
 497      96BCCC
 498 141e 811A36CC 		.ascii	"\201\0326\314/\266\021y\305\036\277d\355\325?\377G\307"
 498      2FB61179 
 498      C51EBF64 
 498      EDD53FFF 
 498      47C7
 499 1430 5ACDEC21 		.ascii	"Z\315\354!\264_8\372\023\032#\336\306\030\261\345\207"
 499      B45F38FA 
 499      131A23DE 
 499      C618B1E5 
 499      87
 500 1441 19634403 		.ascii	"\031cD\003\020\321\320]c\220\270\231>\323y\327R\220"
ARM GAS  /tmp/ccodA23C.s 			page 40


 500      10D1D05D 
 500      6390B899 
 500      3ED379D7 
 500      5290
 501 1453 BB75C766 		.ascii	"\273u\307fQ\255\316\263~\261\364\3707\333\257h\027\354"
 501      51ADCEB3 
 501      7EB1F4F8 
 501      37DBAF68 
 501      17EC
 502 1465 26B8885F 		.ascii	"&\270\210_\233\372#\343P\260\371\326\020I\230\201\020"
 502      9BFA23E3 
 502      50B0F9D6 
 502      10499881 
 502      10
 503 1476 77D3CF7D 		.ascii	"w\323\317}i\372\265\375\302\255^m\344yv\235\247y\266"
 503      69FAB5FD 
 503      C2AD5E6D 
 503      E479769D 
 503      A779B6
 504 1489 01F999B9 		.ascii	"\001\371\231\271e\007\316\314\024\254\3366X\017\016"
 504      6507CECC 
 504      14ACDE36 
 504      580F0E
 505 1498 EC000BB6 		.ascii	"\354\000\013\266\3246XO\016\354\020\013\266\3226\030"
 505      D436584F 
 505      0EEC100B 
 505      B6D23618 
 506 14a8 6FBD9FB2 		.ascii	"o\275\237\262`\353l\203qW\336\343\207\253\363ZFZ\177"
 506      60EB6C83 
 506      7157DEE3 
 506      87ABF35A 
 506      465A7F
 507 14bb 65DAF16F 		.ascii	"e\332\361oNW\211\324\372k\260\375-\235\354\310\356K"
 507      4E5789D4 
 507      FA6BB0FD 
 507      2D9DECC8 
 507      EE4B
 508 14cd D3C0CBE2 		.ascii	"\323\300\313\342\213\232\030\0312>\266\303^u'\206t\241"
 508      8B9A1819 
 508      323EB6C3 
 508      5E752786 
 508      74A1
 509 14df F7A489EA 		.ascii	"\367\244\211\352\262\002\235\251F\243Rl>\242p\273\372"
 509      B2029DA9 
 509      46A3526C 
 509      3EA270BB 
 509      FA
 510 14f0 159B1739 		.ascii	"\025\233\0279\217\177s\341\2526\276^G\026\232;\351\305"
 510      8F7F73E1 
 510      AA36BE5E 
 510      47169A3B 
 510      E9C5
 511 1502 FE8BC225 		.ascii	"\376\213\302%a\277Q\020;\253\"\324\314\225\037\317\326"
 511      61BF5110 
 511      3BAB22D4 
 511      CC951FCF 
 511      D6
ARM GAS  /tmp/ccodA23C.s 			page 41


 512 1513 A66ECAD7 		.ascii	"\246n\312\327\347V\020\323\334H\364:\275\221\210\202"
 512      E75610D3 
 512      DC48F43A 
 512      BD918882 
 513 1523 9DB50DC6 		.ascii	"\235\265\015\306[\362l\026\354\222\025\2604w\364\314"
 513      5BF26C16 
 513      EC9215B0 
 513      3477F4CC 
 514 1533 61C16ED8 		.ascii	"a\301n\330\006\3439\233\307\202\335\265\002\3461\347"
 514      06E3399B 
 514      C782DDB5 
 514      02E631E7 
 515 1543 AC8E05AB 		.ascii	"\254\216\005\253~\300.\030\317\331j\026\3545+`iB\335"
 515      7EC02E18 
 515      CFD96A16 
 515      EC352B60 
 515      6942DD
 516 1556 B52CD82C 		.ascii	"\265,\330,\333`,gj|CS.\363\342s\362g\012\304E\351S`"
 516      DB602C67 
 516      6A7C4353 
 516      2EF3E273 
 516      F2670AC4 
 517 156e 024CD5A7 		.ascii	"\002L\325\247\300\025.\273\357\244xG\273\027$\341\022"
 517      C0152EBB 
 517      EFA47847 
 517      BB1724E1 
 517      12
 518 157f B44C47F2 		.ascii	"\264LG\362\245\024\013\214B\030\032\266\035%\335e\326"
 518      A5140B8C 
 518      42181AB6 
 518      1D25DD65 
 518      D6
 519 1590 EB1DB846 		.ascii	"\353\035\270FS]x1\003\351$\244/#\235\202\364U\244S\221"
 519      535D7831 
 519      03E924A4 
 519      2F239D82 
 519      F455A453 
 520 15a5 4E473A13 		.ascii	"NG:\023\351\034\244\363\220\326!\255G\272\010\351\233"
 520      E91CA4F3 
 520      90D621AD 
 520      47BA08E9 
 520      9B
 521 15b6 4897225D 		.ascii	"H\227\"]\206\364m\227\2058\353\026\2732[\374\200\205"
 521      86F46D97 
 521      8538EB16 
 521      BB325BFC 
 521      8085
 522 15c8 A8C8DCEB 		.ascii	"\250\310\334\353A\234us\221x\231N\3104\340\\aD\314\270"
 522      419C7573 
 522      9178994E 
 522      C834E05C 
 522      6144CCB8 
 523 15dc BAE56DF5 		.ascii	"\272\345m\365\322\377Mb\255\267\215\365P\272nY\305\004"
 523      D2FF4D62 
 523      ADB78DF5 
 523      50BA6E59 
 523      C504
ARM GAS  /tmp/ccodA23C.s 			page 42


 524 15ee AFAB3178 		.ascii	"\257\2531x]\203ak\033\306\352\355H\377\212\212\\cE\221"
 524      5D83616B 
 524      1BC6EAED 
 524      48FF8A8A 
 524      5C634591 
 525 1602 6FB301EB 		.ascii	"o\263\001\353\026dui\227\003\326\266\272:\372^N\332"
 525      16647569 
 525      9703D6B6 
 525      BA3AFA5E 
 525      4EDA
 526 1614 41C0AC4B 		.ascii	"A\300\254K\262\011\310\353\361\366\271\235\364\242\355"
 526      B209C8EB 
 526      F1F6B99D 
 526      F4A2ED
 527 1623 027CC956 		.ascii	"\002|\311V\334\012\177i\246\267\357\276x\217D\217z\317"
 527      DC0A7F69 
 527      A6B7EFBE 
 527      788F448F 
 527      7ACF
 528 1635 EC34C2D9 		.ascii	"\3544\302\331\354\345i\327\361\005\256\372#}\237\030"
 528      ECE569D7 
 528      F105AEFA 
 528      237D9F18 
 529 1645 E1324EBE 		.ascii	"\3412N\276\005\351:z)\323\321\313\260\243\227cG\257"
 529      05E93A7A 
 529      29D3D1CB 
 529      B0A39763 
 529      47AF
 530 1657 C7CEDD80 		.ascii	"\307\316\335\200t#\322MV:z\021\333\321\237#\253\031"
 530      7423D24D 
 530      563A7A11 
 530      DBD19F23 
 530      AB19
 531 1669 DE7F9A46 		.ascii	"\336\177\232F\221\233\316[ZG\324\377\275\216\365&\267"
 531      919BCE5B 
 531      5A47D4FF 
 531      BD8EF526 
 531      B7
 532 167a 8ED8FE8F 		.ascii	"\216\330\376\2174\222\332\346\302\275\346\0072_w\343"
 532      3492DAE6 
 532      C2BDE607 
 532      325F77E3 
 533 168a 81F0DE29 		.ascii	"\201\360\336)\227a\035q\220\276\204\223\224g^G\034\242"
 533      97611D71 
 533      90BE8493 
 533      94675E47 
 533      1CA2
 534 169c FEFF16EE 		.ascii	"\376\377\026\356\303\234E\006H\305.\231}\374\263\246"
 534      C39C4506 
 534      48C52E99 
 534      7DFCB3A6 
 535 16ac 0FA81DD4 		.ascii	"\017\250\035\324\340-s4\252c\3402Fu\274Y\035nb\302\334"
 535      E02D7334 
 535      AA63E032 
 535      4675BC59 
 535      1D6E62C2 
 536 16c1 0B46DE32 		.ascii	"\013F\3362\206\271\\\210\030?\312\202}k\033\254?\007"
ARM GAS  /tmp/ccodA23C.s 			page 43


 536      86B95C88 
 536      183FCA82 
 536      7D6B1BAC 
 536      3F07
 537 16d3 767CD22B 		.ascii	"v|\322+\332\206\023\2358\257ZQ\\\0323:\221\234\205a"
 537      DA86139D 
 537      38AF5A51 
 537      5C1A333A 
 537      919C8561 
 538 16e7 88BB249B 		.ascii	"\210\273$\233`\274\332.\261S\372M+\234\245\211\366\256"
 538      60BCDA2E 
 538      B153FA4D 
 538      2B9CA589 
 538      F6AE
 539 16f9 B0601DB6 		.ascii	"\260`\035\266\301x\316\256\261`/\365\264\000\226&\332"
 539      C178CEAE 
 539      B1602FF5 
 539      B4009626 
 539      DA
 540 170a BBC9824D 		.ascii	"\273\311\202M\261\015\306sv\253\323\015\355\\\354\322"
 540      B10DC673 
 540      76ABD30D 
 540      ED5CECD2 
 541 171a C9897CEA 		.ascii	"\311\211|\352b\234\310\014+\215{\314$Q\343\363w\347"
 541      629CC80C 
 541      2B8D7BCC 
 541      2451E3F3 
 541      77E7
 542 172c A23326E1 		.ascii	"\2423&\341\020\254\201\215h\251\343\027O\012aR}X\007"
 542      10AC818D 
 542      68A9E317 
 542      4F0A6152 
 542      7D5807
 543 173f A188DB5D 		.ascii	"\241\210\333]\304\177~\200\336\362#\244;\220\356D\272"
 543      C47F7E80 
 543      DEF223A4 
 543      3B90EE44 
 543      BA
 544 1750 1BE9C748 		.ascii	"\033\351\307H\367 \335\207t?\322\203H?Az\330\212\247"
 544      F720DD87 
 544      743FD283 
 544      483F417A 
 544      D88AA7
 545 1763 DDCA2AA9 		.ascii	"\335\312*\251\276\247]O\313\365Pk\333\211U\177\247M"
 545      BEA75D4F 
 545      CBF5506B 
 545      DB89557F 
 545      A74D
 546 1775 A9745F76 		.ascii	"\251t_v\211\025\3004\226\275\365<7\007\2564\302\245"
 546      8915C034 
 546      96BDF53C 
 546      3707AE34 
 546      C2A5
 547 1787 7209D62F 		.ascii	"r\011\326/\362Lg&\255\2318i\275\216\223V\035\322\205"
 547      F24C6726 
 547      AD993869 
 547      BD8E9356 
ARM GAS  /tmp/ccodA23C.s 			page 44


 547      1DD285
 548 179a 48B7A02A 		.ascii	"H\267\240*\217!=nE\241S\315\337\223(\011k{\362\263\007"
 548      8F213D6E 
 548      45A153CD 
 548      DF932809 
 548      6B7BF2B3 
 549 17af 7DA97FFD 		.ascii	"}\251\177\375\326\352U\340\252$\372\246xE\234\210>\371"
 549      D6EA55E0 
 549      AA24FAA6 
 549      78459C88 
 549      3EF9
 550 17c1 2529ED3B 		.ascii	"%)\355;\375iU\365z\340Y\332&D\010"
 550      FD6955F5 
 550      7AE059DA 
 550      264408
 551 17d0 086E5E4D 		.ascii	"\010n^M\343L\373+\2005\237\017\353I\337\307/\360\265"
 551      E34CFB2B 
 551      80359F0F 
 551      EB49DFC7 
 551      2FF0B5
 552 17e3 0CAFD7C2 		.ascii	"\014\257\327\302\237O\272R\3751\300\346\352\346\324"
 552      9F4FBA52 
 552      FD31C0E6 
 552      EAE6D4
 553 17f2 7F0C90F6 		.ascii	"\177\014\220\366UK_\2722\377\331\031\263O\246&\236-"
 553      554B5FBA 
 553      32FFD919 
 553      B34FA626 
 553      9E2D
 554 1804 1E2924DF 		.ascii	"\036)$\337\214\275\364j\233\266\301q\016\247\345\203"
 554      8CBDF46A 
 554      9BB6C171 
 554      0EA7E583 
 555 1814 06C56604 		.ascii	"\006\305f\004\222\204SX\345+\343\314|\\\361\320\322"
 555      92845358 
 555      E52BE3CC 
 555      7C5CF1D0 
 555      D2
 556 1825 CCF7FC5D 		.ascii	"\314\367\374]>\237\205\306I\376\202I\021\233EI\303\323"
 556      3E9F85C6 
 556      49FE8249 
 556      119B4549 
 556      C3D3
 557 1837 1BB4F97F 		.ascii	"\033\264\371\177NW\234\311\277`2\374\311]\347\313\327"
 557      4E579CC9 
 557      BF6032FC 
 557      C95DE7CB 
 557      D7
 558 1848 976C2FCB 		.ascii	"\227l/\313.\233,\313\036H\364\362'F\011\370f3\015W5"
 558      2E9B2CCB 
 558      1E48F4F2 
 558      274609F8 
 558      66330D57 
 559 185d 7ECD4956 		.ascii	"~\315IV\022\2045E\374\314\022X\232\333Mo8\365\277\267"
 559      12843545 
 559      FCCC1258 
 559      9ADB4D6F 
ARM GAS  /tmp/ccodA23C.s 			page 45


 559      38F5BFB7 
 560 1871 82F16749 		.ascii	"\202\361gI\267O\232\203\335d\300\216[\002K\365\\_\252"
 560      B74F9A83 
 560      DD64C08E 
 560      5B024BF5 
 560      5C5FAA
 561 1884 0F6B428A 		.ascii	"\017kB\212x\021}\3677\350.\276Ez\005\351U\244\327\254"
 561      78117DF7 
 561      37E82EBE 
 561      457A05E9 
 561      55A4D7AC 
 562 1898 3890B349 		.ascii	"8\220\263I\217\314\375\203\204\320\311\233\\J\351MZ"
 562      8FCCFD83 
 562      84D0C99B 
 562      5C4AE94D 
 562      5A
 563 18a9 B7EED8DB 		.ascii	"\267\356\330\333(\316\234\250>K\261$aR/r\336\027.3\307"
 563      28CE9CA8 
 563      3E4BB124 
 563      61522F72 
 563      DE172E33 
 564 18be 802D6AFE 		.ascii	"\200-j\376\244\203\370\023\372\327\"S2TK\367\327\"\244"
 564      A483F813 
 564      FAD72253 
 564      32544BF7 
 564      D722A4
 565 18d1 16A7A41B 		.ascii	"\026\247\244\033)=\010\271\3044\241\265\243\343\247"
 565      293D08B9 
 565      C434A1B5 
 565      A3E3A7
 566 18e0 D6DDC777 		.ascii	"\326\335\307w\026\334\307\316\014\356c\377\333g\376"
 566      16DCC7CE 
 566      0CEE63FF 
 566      DB67FE
 567 18ef 019F6651 		.ascii	"\001\237fQ\335\304y,\354\225\371\332\000\007C\370\230"
 567      DDC4792C 
 567      EC95F9DA 
 567      000743F8 
 567      98
 568 1900 E836388E 		.ascii	"\35068\216\333\344\317\347Hif\307\321q-\013\027\212"
 568      DBE4CFE7 
 568      486966C7 
 568      D1712D0B 
 568      178A
 569 1912 F4C6DA55 		.ascii	"\364\306\332U\330<\251\331E\3071\215\373\267\260\265"
 569      D83CA9D9 
 569      45C7318D 
 569      FBB7B0B5 
 570 1922 46385B73 		.ascii	"F8[s\256\032\257e\376\225\253\3016\226\207\303\232\301"
 570      AE1AAF65 
 570      FE95ABC1 
 570      369687C3 
 570      9AC1
 571 1934 606DB782 		.ascii	"`m\267\202e\032K\252\361\327\031\254=\266\261x\276f"
 571      651A4BAA 
 571      F1D719AC 
 571      3DB6B178 
ARM GAS  /tmp/ccodA23C.s 			page 46


 571      BE66
 572 1946 335847AC 		.ascii	"3XG\254`y\314\371\232\303`\235\262\215\305\3635\217"
 572      6079CCF9 
 572      9AC3609D 
 572      B28DC5F3 
 572      358F
 573 1958 C1BA6005 		.ascii	"\301\272`\005+\215\377\254c\260\256\331\306\342\371"
 573      2B8DFFAC 
 573      63B0AED9 
 573      C6E2F9
 574 1967 5ACD60A9 		.ascii	"Z\315`\251\275-`\231\336\366\257\306\3272X\257\330\306"
 574      BD2D6099 
 574      DEF6AFC6 
 574      D73258AF 
 574      D8C6
 575 1979 E2F95ACF 		.ascii	"\342\371Z\317`\315\266\202ez\027\267\032\177\227\301"
 575      60CDB682 
 575      657A17B7 
 575      1A7F97C1 
 576 1989 7AD33616 		.ascii	"z\3236\026\317\327{\354?\356Y\301z\322\234\257\006\006"
 576      CFD77BEC 
 576      3FEE59C1 
 576      7AD29CAF 
 576      0606
 577 199b EB5DDB58 		.ascii	"\353]\333X<_[\030\254\315V\260\322\374\253\3406\006"
 577      3C5F5B18 
 577      ACCD56B0 
 577      D2FCABE0 
 577      3606
 578 19ad 2B6E1B8B 		.ascii	"+n\033\213\347\253\205\301\372\310\012V\232\177\025"
 578      E7AB85C1 
 578      FAC80A56 
 578      9A7F15
 579 19bc 3CC060ED 		.ascii	"<\300`\355\266\215\305\363u\210\301\332g\005+\315\277"
 579      B68DC5F3 
 579      7588C1DA 
 579      67052BCD 
 579      BF
 580 19cd 0A7E9AC0 		.ascii	"\012~\232\300R\304[\030\202\330\301\362\010\246\037"
 580      52C45B18 
 580      82D8C1F2 
 580      08A61F
 581 19dc 762E52C4 		.ascii	"v.R\304\027\335$\002y\311\215\373\336H_F:\005\351\253"
 581      17DD2402 
 581      79C98DFB 
 581      DE485F46 
 581      3A05E9AB 
 582 19f0 48A7229D 		.ascii	"H\247\"\235\206t:\322\231Hg!}\003\351\\\244\363\221"
 582      86743AD2 
 582      99486721 
 582      7D03E95C 
 582      A4F391
 583 1a03 2E40BA10 		.ascii	".@\272\020\351b\244K\220\276\205t9\322\025HW\272-D8"
 583      E962A44B 
 583      90BE8574 
 583      39D21548 
 583      57BA2D44 
ARM GAS  /tmp/ccodA23C.s 			page 47


 584 1a18 1D96239C 		.ascii	"\035\226#\234C\275M\"\234\343\227\265\010\247\003#\234"
 584      43BD4D22 
 584      9CE397B5 
 584      08A70323 
 584      9C
 585 1a29 6FF1BC3B 		.ascii	"o\361\274;\246\241J\007\023\341\314\207\230C\324\227"
 585      A6A14A07 
 585      13E1CC87 
 585      9843D497 
 586 1a39 5AB7701F 		.ascii	"Z\267p\037\307\274b\272\030\347\2161\306\371\253\273"
 586      C7BC62BA 
 586      18E78E31 
 586      C6F9ABBB 
 587 1a49 538CD35A 		.ascii	"S\214\323Z\323zb\343W\342\033\352\366\027\325\216\216"
 587      D37A62E3 
 587      57E21BEA 
 587      F617D58E 
 587      8E
 588 1a5a 3FDB5826 		.ascii	"?\333X&mp\033\336HKv\225\023_\264\247\354\015\352\352"
 588      6D701BDE 
 588      484B7695 
 588      135FB4A7 
 588      EC0DEAEA 
 589 1a6e 30A84B67 		.ascii	"0\250Kg\354\275\224\214\265\325\355\230 N\233X\277S"
 589      ECBD948C 
 589      B5D5ED98 
 589      204E9B58 
 589      BF53
 590 1a80 BD442E64 		.ascii	"\275D.d\032X#+C3\336\032\214\274Mey\323\376\274*\361"
 590      1A58232B 
 590      4333DE1A 
 590      8CBC4D65 
 590      79D3FEBC 
 591 1a96 7D167DC0 		.ascii	"}\026}\300;\361]\373\273q\003\357\223~\234\232\367\367"
 591      3BF15DFB 
 591      BB7103EF 
 591      937E9C9A 
 591      F7F7
 592 1aa8 53F27EA4 		.ascii	"S\362~\244\241\271\322L\251\016s\306\033\323*u\215\310"
 592      A1B9D24C 
 592      A90E73C6 
 592      1BD32A75 
 592      8DC8
 593 1aba 33BA8F7F 		.ascii	"3\272\217\177\312\004V\330&<~\304\363\370\367\302Bp"
 593      CA0456D8 
 593      263C7EC4 
 593      F3F8F7C2 
 593      4270
 594 1acc 6960A5AB 		.ascii	"i`\245\253~2A\215\277\250\222\025\262(\322?\213\207"
 594      7E32418D 
 594      BFA89215 
 594      B228D23F 
 594      8B87
 595 1ade A56A0244 		.ascii	"\245j\002D\017\367:\377\255|S\022\320\260\341E\376\342"
 595      0FF73AFF 
 595      AD7C5312 
 595      D0B0E145 
ARM GAS  /tmp/ccodA23C.s 			page 48


 595      FEE2
 596 1af0 D64CBA9D 		.ascii	"\326L\272\235\356\324\177gO\027>f\265v\231\326:\222"
 596      EED47F67 
 596      4F173E66 
 596      B57699D6 
 596      3A92
 597 1b02 A6D66ED3 		.ascii	"\246\326n\323Z\304p\315j5\233\326jLS\353c\323Z\015i"
 597      5AC470CD 
 597      6A359BD6 
 597      6A4C53EB 
 597      63D35A0D 
 598 1b17 6AED31AD 		.ascii	"j\3551\255E\026\250f\265\366&k\011\016_\251\022q=\363"
 598      4516A866 
 598      B5F6266B 
 598      090E5FA9 
 598      12713DF3 
 599 1b2b DCEF3C85 		.ascii	"\334\357<\205\202\323\373t8\\\3267\2772\032\311/\013"
 599      82D3FB74 
 599      385CD637 
 599      BF321AC9 
 599      2F0B
 600 1b3d 8ECA1FED 		.ascii	"\216\312\037\355\363\345+\221\362_\207\302\241\300\257"
 600      F3E52B91 
 600      F25F87C2 
 600      A1C0AF
 601 1b4c 03CAA860 		.ascii	"\003\312\250`~\277\207\373?\334/?\030\362\225U\372\003"
 601      7EBF87FB 
 601      3FDC2F3F 
 601      18F29555 
 601      FA03
 602 1b5e F9D198DF 		.ascii	"\371\321\230\337\037(y\270TpE\203\377/\340\215\335\343"
 602      1F2879B8 
 602      54704583 
 602      FF2FE08D 
 602      DDE3
 603 1b70 57624A54 		.ascii	"WbJT)\257(\013<\354\023\330o\245B\036\3716\034\277y"
 603      29AF280B 
 603      3CEC13D8 
 603      6FA5421E 
 603      F9361CBF 
 604 1b85 633FC726 		.ascii	"c?\307&xh\0064\030\212A\215\254J8>\322\327\033\353\227"
 604      78680634 
 604      188A418D 
 604      AC4A383E 
 604      D2D71BEB 
 605 1b9a E6EC72C5 		.ascii	"\346\354r\305W\032\014\005\362\275\300\210RY\026\363"
 605      571A0C05 
 605      F2BDC088 
 605      525916F3 
 606 1baa C6C65704 		.ascii	"\306\306W\004\242P;\307\353\325\353K\321\220#\026,\017"
 606      A2503BC7 
 606      EBD5EB4B 
 606      D1902316 
 606      2C0F
 607 1bbc E48EAE88 		.ascii	"\344\216\256\210\352\034d\225)\261`\014\020\262\313"
 607      EA1C6495 
 607      29B1600C 
ARM GAS  /tmp/ccodA23C.s 			page 49


 607      10B2CB
 608 1bcb C2A1D198 		.ascii	"\302\241\321\230\313R\312hQVT\211\025\206+C1\031*\344"
 608      CB52CA68 
 608      51565489 
 608      15862B43 
 608      31192AE4 
 609 1bdf 8C2AAFE8 		.ascii	"\214*\257\350\333\277`D\240\274\"\227f\207E\002\321"
 609      DBBF6044 
 609      A0BC2297 
 609      66874502 
 609      D1
 610 1bf0 6876F0B1 		.ascii	"hv\360\261\202\276\005\317V\226\373i\216\374\236\035"
 610      82BE05CF 
 610      5696FB69 
 610      8EFC9E1D 
 611 1c00 489405F4 		.ascii	"H\224\005\364\262\234\362\350o\036-x\014\253\323,\255"
 611      B29CF2E8 
 611      6F1E2D78 
 611      0CABD32C 
 611      AD
 612 1c11 5E5E31AE 		.ascii	"^^1\256\034s\271\245\301\322G\013\036\301jz\036+\306"
 612      1C73B9A5 
 612      C1D2470B 
 612      1EC16A7A 
 612      1E2BC6
 613 1c24 A0B1C77E 		.ascii	"\240\261\307~C\262\356H\314O\216\362\230`HV|>\271\\"
 613      43B2EE48 
 613      CC4F8EF2 
 613      98604856 
 613      7C3EB95C 
 614 1c38 19DD3DA9 		.ascii	"\031\335=\251\\o0\024\214\211Q\027H\333\037\004\363"
 614      5C6F3014 
 614      8C895117 
 614      48DB1F04 
 614      F3
 615 1c49 7A6906D5 		.ascii	"zi\006\325_\026\036=:\020\001u\200\230\243K\202Dr\267"
 615      5F161E3D 
 615      3A100175 
 615      8098A34B 
 615      824472B7 
 616 1c5d 9643F5F6 		.ascii	"\226C\365\366y\324\033\3234E\262R\320\357\010)\345\201"
 616      79D41BD3 
 616      3445B252 
 616      D0EF0829 
 616      E581
 617 1c6f BC645DF8 		.ascii	"\274d]\370=\371\245[\324_^\356\213\006\265>u\343Wo\314"
 617      3DF9A55B 
 617      D45F5EEE 
 617      8B06B53E 
 617      75E3576F 
 618 1c84 89C747F3 		.ascii	"\211\307G\363K\303\345\201|_\330?>\337\037\030\223\017"
 618      4BC3E581 
 618      7C5FD83F 
 618      3EDF1F18 
 618      930F
 619 1c96 1D332A18 		.ascii	"\0353*\030\216\346\307\"\225\241?\346C\246T)K\366\033"
 619      8EE6C722 
ARM GAS  /tmp/ccodA23C.s 			page 50


 619      95A13FE6 
 619      43A65429 
 619      4BF61B
 620 1ca9 D48B5604 		.ascii	"\324\213V\004\011gC\206\024\026E\202c\002\221\274D\356"
 620      09674386 
 620      14164582 
 620      630291BC 
 620      44EE
 621 1cbb 3F868CC8 		.ascii	"?\206\214\310\015FA\220h \022\013\370\363 _\021\011"
 621      0D464190 
 621      6820120B 
 621      F8F3205F 
 621      1109
 622 1ccd C7023EF8 		.ascii	"\307\002>\370\342\366\205C!\310\345\370\203Q-\353\256"
 622      E2F68543 
 622      21C8E5F8 
 622      83512DEB 
 622      AE
 623 1cde A4226753 		.ascii	"\244\"gSI \347\210\004\024\277sl$\030\0138\242\343C"
 623      4920E788 
 623      0414BF73 
 623      6C24180B 
 623      38A2E343 
 624 1cf2 BE7FB6C3 		.ascii	"\276\177\266\303\033\344\275\301\360\250\262\260\357"
 624      1BE4BDC1 
 624      F0A8B2B0 
 624      EF
 625 1cff 8FC05FF7 		.ascii	"\217\300_\367\247I\246(0&\350\013\014\012\225\204\263"
 625      A749A628 
 625      3026E80B 
 625      0C0A9584 
 625      B3
 626 1d10 4695FDD1 		.ascii	"F\225\375\321K\354\335M2\241\312\362\254\321\201\030"
 626      4BECDD4D 
 626      32A1CAF2 
 626      ACD18118 
 627 1d20 B05A1296 		.ascii	"\260Z\022\226\307\224\307r\2400\032Sb\240\350\234\247"
 627      C794C772 
 627      A0301A53 
 627      62A0E89C 
 627      A7
 628 1d31 07FFBBF7 		.ascii	"\007\377\273\367w\317\015zn\320\210,\222\035>b\3500"
 628      77CF0D7A 
 628      6ED0882C 
 628      921D3E62 
 628      E830
 629 1d43 2C7BAA70 		.ascii	",{\252p\304\240\377\030\320\215d\013\207>\367\334\000"
 629      C4A0FF18 
 629      D08D640B 
 629      873EF7DC 
 629      00
 630 1d54 F8FADC33 		.ascii	"\370\372\3343\367\222\257E\203\206'K\262II\361\200\247"
 630      F792AF45 
 630      8386274B 
 630      B24949F1 
 630      80A7
 631 1d66 8A5EC8D5 		.ascii	"\212^\310\325sP\212\371\337\027\017\032\241\347\207"
ARM GAS  /tmp/ccodA23C.s 			page 51


 631      73508AF9 
 631      DF170F1A 
 631      A1E787
 632 1d75 BFF05C21 		.ascii	"\277\360\\!\344\235\330\252\354\013\372e_\324\237\345"
 632      E49DD8AA 
 632      EC0BFA65 
 632      5FD49FE5 
 633 1d85 532A145F 		.ascii	"S*\024_06\276\310\212\340\025\341H,\232?|\304\220G\372"
 633      3036BEC8 
 633      8AE015E1 
 633      482C9A3F 
 633      7CC49047 
 634 1d9a E60F1E5C 		.ascii	"\346\017\036\\\224?|\330\2401}\362\241{\274ee~\322E"
 634      943F7CD8 
 634      A0317DF2 
 634      A17BBC65 
 634      657ED245 
 635 1dae 50403BA6 		.ascii	"P@;\246\257\035=\322\376\315\201\203\256\021\300\321"
 635      AF1D3DD2 
 635      FECD8183 
 635      AE11C0D1 
 636 1dbe 3542B244 		.ascii	"5B\262D#\004\233J\211\277R\335\344\221l\341\320!\303"
 636      23049B4A 
 636      89BF52DD 
 636      E4916CE1 
 636      D021C3
 637 1dd1 060F1831 		.ascii	"\006\017\0301\340\036\000\360)ee\243\024\337\037\275"
 637      E01E00F0 
 637      296565A3 
 637      14DF1FBD 
 638 1de1 315720E4 		.ascii	"1W \344\367\372F\015\350\212\\\317\014\0334tL\337\374"
 638      F7FA460D 
 638      E88A5CCF 
 638      0C1B3474 
 638      4CDFFC
 639 1df4 0AE85F2A 		.ascii	"\012\350_*X^4V\016\036btE0\014V<dh\321\200b\327\320"
 639      585E3456 
 639      0E1E6274 
 639      45300C56 
 639      3C6468D1 
 640 1e0c 112F0C1B 		.ascii	"\021/\014\033P\354\036:|\330\200\001E\305\316a\277\033"
 640      50EC1E3A 
 640      7CD88001 
 640      45C5CE61 
 640      BF1B
 641 1e1e 56542C0F 		.ascii	"VT,\017\2024\264\250X\374\275\034\015\304\234\276\262"
 641      8234B4A8 
 641      58FCBD1C 
 641      0DC49CBE 
 641      B2
 642 1e2f 8012119F 		.ascii	"\200\022\021\237u<=\274\270\3301\270\360\337\213\035"
 642      753C3DBC 
 642      B8D831B8 
 642      F0DF8B1D 
 643 1e3f 4F0D2C1E 		.ascii	"O\015,\036L\310\263\362\323\305\3059\3010i9\350\007"
 643      4CC8B3F2 
 643      D3C5C539 
ARM GAS  /tmp/ccodA23C.s 			page 52


 643      C1306939 
 643      E807
 644 1e51 6EA35192 		.ascii	"n\243Q\222u\302A\201\216\211\364!\342\026\206C%\301"
 644      75C24181 
 644      8E89F421 
 644      E2168643 
 644      25C1
 645 1e63 D12E1F1E 		.ascii	"\321.\037\036\372g\022$\022K(\324W\032\035\037\325\035"
 645      FA671224 
 645      124B28D4 
 645      571A1D1F 
 645      D51D
 646 1e75 5C56AC94 		.ascii	"\\V\254\224\0309X\275\257\324K\363\375\354a\371J\211"
 646      183958BD 
 646      AFD44BF3 
 646      FDEC61F9 
 646      4A89
 647 1e87 0E5C15DE 		.ascii	"\016\\\025\336P`\\\014\016\025\221\300\230g-@P\265>"
 647      50605C0C 
 647      0E1591C0 
 647      98672D40 
 647      50B53E
 648 1e9a 553CA470 		.ascii	"U<\244p\31088\263\274\002\274I$\232\377La!\234\256\263"
 648      C83838B3 
 648      BC02BC49 
 648      249AFF4C 
 648      61219CAE 
 649 1eaf E78E5544 		.ascii	"\347\216UD\210V\0217\030&\2436\006\315<n\033\277\324"
 649      88561137 
 649      1826A336 
 649      06CD3C6E 
 649      1BBFD4
 650 1ec2 178E1067 		.ascii	"\027\216\020g\223K\212\211o\363\305\306\375[\327P\274"
 650      934B8A89 
 650      6FF3C5C6 
 650      FD5BD750 
 650      BC
 651 1ed3 631E2B27 		.ascii	"c\036+'\232\213\004F\303l\342\215\311\321>\217Bz\014"
 651      9A8B0446 
 651      C36CE28D 
 651      C9D13E8F 
 651      427A0C
 652 1ee6 527F488F 		.ascii	"R\177H\217\313\321\276\005\220\372@\352\013\351\021"
 652      CBD1BE05 
 652      90FA40EA 
 652      0BE911
 653 1ef5 48FD20FD 		.ascii	"H\375 \375\006\022\234\327\027\316\353\013\347\365\205"
 653      06129CD7 
 653      17CEEB0B 
 653      E7F585
 654 1f04 F31E81F3 		.ascii	"\363\036\201\363\036\351#E\372I\221\337H\221G\245\310"
 654      1EE92345 
 654      FA4991DF 
 654      489147A5 
 654      C8
 655 1f15 6352A4BF 		.ascii	"cR\244\277\024y\\\216\364)\200\324G*\213\300\341\021"
 655      14795C8E 
ARM GAS  /tmp/ccodA23C.s 			page 53


 655      F42980D4 
 655      472A8BC0 
 655      E111
 656 1f27 678517B8 		.ascii	"g\205\027\270u\023\015\217\015D\340\030.\363\007\"D"
 656      75130D8F 
 656      0D44E018 
 656      2EF30722 
 656      44
 657 1f38 E3E064B3 		.ascii	"\343\340d\263b\332\260\200r\314\271c\345a?\375^R\246"
 657      62DAB080 
 657      72CCB963 
 657      E5613FFD 
 657      5E52A6
 658 1f4b 8C8EBA63 		.ascii	"\214\216\272c\221@I\024UH2\316\362\350h\370Q\233\324"
 658      91404914 
 658      554832CE 
 658      F2E868F8 
 658      519BD4
 659 1f5e B2D1CF93 		.ascii	"\262\321\317\223\234+\342\037\017?e\005\306\005c\240"
 659      9C2BE21F 
 659      0F3F6505 
 659      C60563A0 
 660 1f6e 91806B6C 		.ascii	"\221\200kl,<\352\017\025\271\2011\201P\254\\\211\342"
 660      2C3CEA0F 
 660      15B98131 
 660      8150AC5C 
 660      89E2
 661 1f80 A0194B32 		.ascii	"\240\031K2r\205\267\262\0335\225\250\267\014F\2457\326"
 661      7285B7B2 
 661      1B3595A8 
 661      B70C46A5 
 661      37D6
 662 1f92 3D613CB4 		.ascii	"=a<\264$\273\302;V\011\306\202\241\321"
 662      24BBC23B 
 662      5609C682 
 662      A1D1
 663 1fa0 DDF5E2FF 		.ascii	"\335\365\342\377\252\014T\002W=\2303\261(\247\302\013"
 663      AA0C5402 
 663      573D9833 
 663      B128A7C2 
 663      0B
 664 1fb1 CD62D689 		.ascii	"\315b\326\211Y(\010T\300\360\204\312\316\362J\350\355"
 664      59280854 
 664      C0F084CA 
 664      CEF24AE8 
 664      ED
 665 1fc2 476CD963 		.ascii	"Gl\331cyl\034\261\233r\212\016\307\360\330\020(\015"
 665      796C1CB1 
 665      9B728A0E 
 665      C7F0D810 
 665      280D
 666 1fd4 91408472 		.ascii	"\221@\204r4S\340\017\316#\234\346\020\255(eh\\PX\001"
 666      3453E00F 
 666      CE239CE6 
 666      10AD2865 
 666      685C5058 
 667 1fe9 91CB63B6 		.ascii	"\221\313c\266\332\323\204\2016\357\323\206\022h9\020"
ARM GAS  /tmp/ccodA23C.s 			page 54


 667      DAD38481 
 667      36EFD386 
 667      12683910 
 668 1ff9 09847C20 		.ascii	"\011\204| \255\213\026"
 668      AD8B16
 669 2000 FD4B2644 		.ascii	"\375K&D`)\277p\310\360A\303\301\315\344\2437)\351W\320"
 669      6029BF70 
 669      C8F041C3 
 669      C1CDE4A3 
 669      3729E957 
 670 2015 679C8F18 		.ascii	"g\234\217\030,qb#`8\024\005J\344\302\342>\220\372J\303"
 670      2C716223 
 670      60381405 
 670      4AE4C2E2 
 670      3E90FA4A 
 671 202a 8B25702A 		.ascii	"\213%p*\205\305\205\303\212]\305\317\303\261\3305\002"
 671      85C585C3 
 671      8A5DC5CF 
 671      C3B1D835 
 671      02
 672 203b 0FEE417D 		.ascii	"\017\356A}\207\027\016|\246\330\011\307a\3052\370\274"
 672      87170E7C 
 672      A6D809C7 
 672      61C532F8 
 672      BC
 673 204c 81765D1C 		.ascii	"\201v]\034\322\201\375\306\215\243\214x\375\345\012"
 673      D281FDC6 
 673      8DA38C78 
 673      FDE50A
 674 205b 11AE68C8 		.ascii	"\021\256h\310S\336\341`JJ\271\316\215TX\354x\256hD\261"
 674      53DEE160 
 674      4A4AB9CE 
 674      8D5458EC 
 674      78AE6844 
 675 2070 3CECA962 		.ascii	"<\354\251b\307\220\002B\372<U,\017\004f\242x\242#X\342"
 675      C7900242 
 675      FA3C552C 
 675      0F0466A2 
 675      78A22358 
 676 2085 8BB882D1 		.ascii	"\213\270\202\321\322`I,;\032(+\011\206\374\201q\256"
 676      D260492C 
 676      3B1A282B 
 676      0986FC81 
 676      71AE
 677 2097 3130D786 		.ascii	"10\327\206#\367%\320\275\364lp\235\360%2\216\320\330"
 677      23F725D0 
 677      BDF46C70 
 677      9DF02532 
 677      8ED0D8
 678 20aa B8ECC838 		.ascii	"\270\354\31088\022K\316\216\3519\007\210S\341,\213\372"
 678      38124BCE 
 678      8EE93907 
 678      8853E12C 
 678      8BFA
 679 20bc 4A463B4B 		.ascii	"JF;K\011%\223>u\203\335q\236\365*~?\211\206\002Q\007"
 679      0925933E 
 679      7583DD71 
ARM GAS  /tmp/ccodA23C.s 			page 55


 679      9EF52A7E 
 679      3F898602 
 680 20d2 44067E72 		.ascii	"D\006~r\276?\243\365\020\335\227(\261\222h~4\342\313"
 680      BE3FA3F5 
 680      10DD9728 
 680      B192687E 
 680      34E2CB
 681 20e5 2F2181A8 		.ascii	"/!\201\250s\340S#\006\016\317\350S\371\2320\216\002"
 681      73E05323 
 681      060ECFE8 
 681      53F99A30 
 681      8E02
 682 20f7 344A723C 		.ascii	"4Jr<\375\302\210\001n2\346@Q\262?2\306\351#3\275+\344"
 682      FDC28801 
 682      6E32E640 
 682      51B23F32 
 682      C6E92333 
 683 210e 85B3A3CE 		.ascii	"\205\263\243\316\261dXf\225D\2038>\035\277\037Z\\\224"
 683      B1645866 
 683      95448338 
 683      3E1DBF1F 
 683      5A5C94
 684 2121 1DF246C2 		.ascii	"\035\362F\302a\010Y#\316\"\362=\247L\201a\005&\006\006"
 684      61085923 
 684      CE22F23D 
 684      A74C8161 
 684      05260606 
 685 2135 5A120904 		.ascii	"Z\022\011\004h6\013\001`8:K0r\030\023\206\331,\032p"
 685      68360B01 
 685      60383A4B 
 685      30721813 
 685      86D92C1A 
 686 214a 43211EA1 		.ascii	"C!\036\241:9f\221H\013\013\306\222\320\307\027\223\341"
 686      3A396691 
 686      480B0BC6 
 686      92D0C717 
 686      93E1
 687 215c E826C11A 		.ascii	"\350&\301\032\370\375,PL1\230\344x\340\017\217r\324"
 687      F8FD2C50 
 687      4C3198E4 
 687      78E00F8F 
 687      72D4
 688 216e EF23C1DC 		.ascii	"\357#\301\3340%V\232\347'\323\363\020\022\264\006\374"
 688      3025569A 
 688      E727D3F3 
 688      1012B406 
 688      FC
 689 217f AE105671 		.ascii	"\256\020Vq\321\230M\0368h\260T\022u\020\226\345@$\342"
 689      D1984D1E 
 689      3868B054 
 689      12751096 
 689      E54024E2 
 690 2193 28A98845 		.ascii	"(\251\210E\\Q\344\313I\251\237\264\225\005LxI\206p\343"
 690      5C51E4CB 
 690      49A99FB4 
 690      95054C78 
 690      498670E3 
ARM GAS  /tmp/ccodA23C.s 			page 56


 691 21a7 8573E451 		.ascii	"\205s\344Q\225%\016\202\344\036\033\301p\330\021\206"
 691      95250E82 
 691      E41E1BC1 
 691      70D81186 
 692 21b7 D1FD4326 		.ascii	"\321\375C&\360\304\370jDxpx\264\014m\271 Z\006\035\336"
 692      F0C4F86A 
 692      44787078 
 692      B40C6DB9 
 692      205A061D 
 693 21cc 0387C161 		.ascii	"\003\207\301a\037\204\327\341\2207\326\215\371\006F"
 693      1F84D7E1 
 693      9037D68D 
 693      F90646
 694 21db F823A636 		.ascii	"\370#\2466\3742\"L\343q\250\356s\220\342\036\321@(\032"
 694      FC32224C 
 694      E371A8EE 
 694      7390E21E 
 694      D140281A 
 695 21ef 8E688E06 		.ascii	"\216h\216\006gh,(\202j\340\257a\350\273c\001\014\214"
 695      67682C28 
 695      826AE0AF 
 695      61E8BB63 
 695      010C8C
 696 2202 F1581CF3 		.ascii	"\361X\034\363\347\220\343\020\214\254s+\210\011\321"
 696      E790E310 
 696      8CAC732B 
 696      8809D1
 697 2211 3CFEFC74 		.ascii	"<\376\374tyE\026\226A&\233\376\010awn)\204\332$>\037"
 697      79451696 
 697      41269BFE 
 697      0861776E 
 697      2984DA24 
 698 2227 148AE592 		.ascii	"\024\212\345\222\323\364\274^>`\\\262\034\362Y\244\234"
 698      D3F4BC5E 
 698      3E605CB2 
 698      1CF259A4 
 698      9C
 699 2238 84E559A4 		.ascii	"\204\345Y\244\220d\034\020\204?O\310\013\204\374\247"
 699      90641C10 
 699      843F4FC8 
 699      0B84FCA7 
 700 2248 03E2F1E7 		.ascii	"\003\342\361\347\011y\201\220\377\354\315\310H\271O"
 700      09798190 
 700      FFECCDC8 
 700      48B94F
 701 2257 C8E9D6BE 		.ascii	"\310\351\326\276\273A\353\304\336\334\225\240\223\302"
 701      BB41EBC4 
 701      DEDC95A0 
 701      93C2
 702 2265 8AF1795A 		.ascii	"\212\361yZL\376{\242\320\214v?F\001\237W\031\205\037"
 702      4CFE7BA2 
 702      D08C763F 
 702      46019F57 
 702      19851F
 703 2278 C0F98562 		.ascii	"\300\371\205b\304\356s`:\017\321o\030\273\017#\331\247"
 703      C4EE7360 
 703      3A0FD16F 
ARM GAS  /tmp/ccodA23C.s 			page 57


 703      18BB0F23 
 703      D9A7
 704 228a 2B4BFE07 		.ascii	"+K\376\007\275\273y\343"
 704      BDBB79E3 
 705              		.text
 706              		.section	.gnu.lto_.symtab.33d77dab653359e0,"",%progbits
 707 0000 64617461 		.ascii	"datasample_init\000\000\000\000\000\000\000\000\000"
 707      73616D70 
 707      6C655F69 
 707      6E697400 
 707      00000000 
 708 0018 000000B7 		.ascii	"\000\000\000\267\000\000\000datasample_writeToLog\000"
 708      00000064 
 708      61746173 
 708      616D706C 
 708      655F7772 
 709 0035 00000000 		.ascii	"\000\000\000\000\000\000\000\000\000\000\000\005\001"
 709      00000000 
 709      00000005 
 709      01
 710 0042 00006461 		.ascii	"\000\000datasample_gpsToSample\000\000\000\000\000\000"
 710      74617361 
 710      6D706C65 
 710      5F677073 
 710      546F5361 
 711 0060 00000000 		.ascii	"\000\000\000\000\000\000d\003\000\000datasample_sen"
 711      00006403 
 711      00006461 
 711      74617361 
 711      6D706C65 
 712 0078 736F7273 		.ascii	"sorsToSample\000\000\000\000\000\000\000\000\000\000"
 712      546F5361 
 712      6D706C65 
 712      00000000 
 712      00000000 
 713 008e 00007C03 		.ascii	"\000\000|\003\000\000uStrCpy\000\000\002\000\000\000"
 713      00007553 
 713      74724370 
 713      79000002 
 713      000000
 714 00a1 00000000 		.ascii	"\000\000\000\000\000\000\264\003\000\000logfileWrit"
 714      0000B403 
 714      00006C6F 
 714      6766696C 
 714      65577269 
 715 00b6 65000002 		.ascii	"e\000\000\002\000\000\000\000\000\000\000\000\000\271"
 715      00000000 
 715      00000000 
 715      00B9
 716 00c4 03000063 		.ascii	"\003\000\000chsnprintf\000\000\002\000\000\000\000\000"
 716      68736E70 
 716      72696E74 
 716      66000002 
 716      00000000 
 717 00d9 00000000 		.ascii	"\000\000\000\000\300\003\000\000"
 717      C0030000 
 718              		.text
ARM GAS  /tmp/ccodA23C.s 			page 58


 719              		.section	.gnu.lto_.opts,"",%progbits
 720 0000 272D6D63 		.ascii	"'-mcpu=cortex-m4' '-mfloat-abi=hard' '-mfpu=fpv4-sp"
 720      70753D63 
 720      6F727465 
 720      782D6D34 
 720      2720272D 
 721 0033 2D643136 		.ascii	"-d16' '-mno-thumb-interwork' '-mthumb' '-O2' '-fomi"
 721      2720272D 
 721      6D6E6F2D 
 721      7468756D 
 721      622D696E 
 722 0066 742D6672 		.ascii	"t-frame-pointer' '-falign-functions=16' '-ffunction"
 722      616D652D 
 722      706F696E 
 722      74657227 
 722      20272D66 
 723 0099 2D736563 		.ascii	"-sections' '-fdata-sections' '-fno-common' '-flto' "
 723      74696F6E 
 723      73272027 
 723      2D666461 
 723      74612D73 
 724 00cc 272D6673 		.ascii	"'-fsingle-precision-constant'\000"
 724      696E676C 
 724      652D7072 
 724      65636973 
 724      696F6E2D 
 725              		.text
 726              		.section	.text.datasample_init,"ax",%progbits
 727              		.align	2
 728              		.p2align 4,,15
 729              		.global	datasample_init
 730              		.thumb
 731              		.thumb_func
 732              		.type	datasample_init, %function
 733              	datasample_init:
 734              		@ args = 0, pretend = 0, frame = 0
 735              		@ frame_needed = 0, uses_anonymous_args = 0
 736 0000 38B5     		push	{r3, r4, r5, lr}
 737 0002 1B4D     		ldr	r5, .L2
 738 0004 1B49     		ldr	r1, .L2+4
 739 0006 0446     		mov	r4, r0
 740 0008 0430     		adds	r0, r0, #4
 741 000a FFF7FEFF 		bl	uStrCpy
 742 000e 04F10E00 		add	r0, r4, #14
 743 0012 2946     		mov	r1, r5
 744 0014 FFF7FEFF 		bl	uStrCpy
 745 0018 04F11E00 		add	r0, r4, #30
 746 001c 2946     		mov	r1, r5
 747 001e FFF7FEFF 		bl	uStrCpy
 748 0022 04F12E00 		add	r0, r4, #46
 749 0026 2946     		mov	r1, r5
 750 0028 FFF7FEFF 		bl	uStrCpy
 751 002c 2946     		mov	r1, r5
 752 002e 04F13D00 		add	r0, r4, #61
 753 0032 FFF7FEFF 		bl	uStrCpy
 754 0036 0023     		movs	r3, #0
 755 0038 A364     		str	r3, [r4, #72]	@ float
ARM GAS  /tmp/ccodA23C.s 			page 59


 756 003a E364     		str	r3, [r4, #76]	@ float
 757 003c E367     		str	r3, [r4, #124]	@ float
 758 003e 2365     		str	r3, [r4, #80]	@ float
 759 0040 6365     		str	r3, [r4, #84]	@ float
 760 0042 A365     		str	r3, [r4, #88]	@ float
 761 0044 E365     		str	r3, [r4, #92]	@ float
 762 0046 2366     		str	r3, [r4, #96]	@ float
 763 0048 6366     		str	r3, [r4, #100]	@ float
 764 004a A366     		str	r3, [r4, #104]	@ float
 765 004c E366     		str	r3, [r4, #108]	@ float
 766 004e 2367     		str	r3, [r4, #112]	@ float
 767 0050 6367     		str	r3, [r4, #116]	@ float
 768 0052 A367     		str	r3, [r4, #120]	@ float
 769 0054 C4F88030 		str	r3, [r4, #128]	@ float
 770 0058 C4F88430 		str	r3, [r4, #132]	@ float
 771 005c C4F88830 		str	r3, [r4, #136]	@ float
 772 0060 C4F88C30 		str	r3, [r4, #140]	@ float
 773 0064 C4F89030 		str	r3, [r4, #144]	@ float
 774 0068 C4F89430 		str	r3, [r4, #148]	@ float
 775 006c 38BD     		pop	{r3, r4, r5, pc}
 776              	.L3:
 777 006e 00BF     		.align	2
 778              	.L2:
 779 0070 08000000 		.word	.LC1
 780 0074 00000000 		.word	.LC0
 781              		.size	datasample_init, .-datasample_init
 782              		.global	__aeabi_f2d
 783 0078 AFF30080 		.section	.text.datasample_writeToLog,"ax",%progbits
 783      AFF30080 
 784              		.align	2
 785              		.p2align 4,,15
 786              		.global	datasample_writeToLog
 787              		.thumb
 788              		.thumb_func
 789              		.type	datasample_writeToLog, %function
 790              	datasample_writeToLog:
 791              		@ args = 0, pretend = 0, frame = 0
 792              		@ frame_needed = 0, uses_anonymous_args = 0
 793 0000 2DE9F041 		push	{r4, r5, r6, r7, r8, lr}
 794 0004 0668     		ldr	r6, [r0]
 795 0006 464D     		ldr	r5, .L5
 796 0008 0246     		mov	r2, r0
 797 000a 0136     		adds	r6, r6, #1
 798 000c AEB0     		sub	sp, sp, #184
 799 000e 0446     		mov	r4, r0
 800 0010 406F     		ldr	r0, [r0, #116]	@ float
 801 0012 42F8046B 		str	r6, [r2], #4
 802 0016 04F11E0C 		add	ip, r4, #30
 803 001a 04F12E0E 		add	lr, r4, #46
 804 001e 04F13D03 		add	r3, r4, #61
 805 0022 04F10E08 		add	r8, r4, #14
 806 0026 8DE80451 		stmia	sp, {r2, r8, ip, lr}
 807 002a 0493     		str	r3, [sp, #16]
 808 002c 0F46     		mov	r7, r1
 809 002e FFF7FEFF 		bl	__aeabi_f2d
 810 0032 CDE90601 		strd	r0, [sp, #24]
 811 0036 606D     		ldr	r0, [r4, #84]	@ float
ARM GAS  /tmp/ccodA23C.s 			page 60


 812 0038 FFF7FEFF 		bl	__aeabi_f2d
 813 003c CDE90801 		strd	r0, [sp, #32]
 814 0040 206D     		ldr	r0, [r4, #80]	@ float
 815 0042 FFF7FEFF 		bl	__aeabi_f2d
 816 0046 CDE90A01 		strd	r0, [sp, #40]
 817 004a A06C     		ldr	r0, [r4, #72]	@ float
 818 004c FFF7FEFF 		bl	__aeabi_f2d
 819 0050 CDE90C01 		strd	r0, [sp, #48]
 820 0054 E06C     		ldr	r0, [r4, #76]	@ float
 821 0056 FFF7FEFF 		bl	__aeabi_f2d
 822 005a CDE90E01 		strd	r0, [sp, #56]
 823 005e E06D     		ldr	r0, [r4, #92]	@ float
 824 0060 FFF7FEFF 		bl	__aeabi_f2d
 825 0064 CDE91001 		strd	r0, [sp, #64]
 826 0068 A06D     		ldr	r0, [r4, #88]	@ float
 827 006a FFF7FEFF 		bl	__aeabi_f2d
 828 006e CDE91201 		strd	r0, [sp, #72]
 829 0072 206F     		ldr	r0, [r4, #112]	@ float
 830 0074 FFF7FEFF 		bl	__aeabi_f2d
 831 0078 CDE91401 		strd	r0, [sp, #80]
 832 007c E06E     		ldr	r0, [r4, #108]	@ float
 833 007e FFF7FEFF 		bl	__aeabi_f2d
 834 0082 CDE91601 		strd	r0, [sp, #88]
 835 0086 206E     		ldr	r0, [r4, #96]	@ float
 836 0088 FFF7FEFF 		bl	__aeabi_f2d
 837 008c CDE91801 		strd	r0, [sp, #96]
 838 0090 606E     		ldr	r0, [r4, #100]	@ float
 839 0092 FFF7FEFF 		bl	__aeabi_f2d
 840 0096 CDE91A01 		strd	r0, [sp, #104]
 841 009a A06E     		ldr	r0, [r4, #104]	@ float
 842 009c FFF7FEFF 		bl	__aeabi_f2d
 843 00a0 CDE91C01 		strd	r0, [sp, #112]
 844 00a4 A06F     		ldr	r0, [r4, #120]	@ float
 845 00a6 FFF7FEFF 		bl	__aeabi_f2d
 846 00aa CDE91E01 		strd	r0, [sp, #120]
 847 00ae E06F     		ldr	r0, [r4, #124]	@ float
 848 00b0 FFF7FEFF 		bl	__aeabi_f2d
 849 00b4 CDE92001 		strd	r0, [sp, #128]
 850 00b8 D4F88000 		ldr	r0, [r4, #128]	@ float
 851 00bc FFF7FEFF 		bl	__aeabi_f2d
 852 00c0 CDE92201 		strd	r0, [sp, #136]
 853 00c4 D4F88400 		ldr	r0, [r4, #132]	@ float
 854 00c8 FFF7FEFF 		bl	__aeabi_f2d
 855 00cc CDE92401 		strd	r0, [sp, #144]
 856 00d0 D4F88800 		ldr	r0, [r4, #136]	@ float
 857 00d4 FFF7FEFF 		bl	__aeabi_f2d
 858 00d8 CDE92601 		strd	r0, [sp, #152]
 859 00dc D4F88C00 		ldr	r0, [r4, #140]	@ float
 860 00e0 FFF7FEFF 		bl	__aeabi_f2d
 861 00e4 CDE92801 		strd	r0, [sp, #160]
 862 00e8 D4F89000 		ldr	r0, [r4, #144]	@ float
 863 00ec FFF7FEFF 		bl	__aeabi_f2d
 864 00f0 CDE92A01 		strd	r0, [sp, #168]
 865 00f4 D4F89400 		ldr	r0, [r4, #148]	@ float
 866 00f8 FFF7FEFF 		bl	__aeabi_f2d
 867 00fc 3346     		mov	r3, r6
 868 00fe CDE92C01 		strd	r0, [sp, #176]
ARM GAS  /tmp/ccodA23C.s 			page 61


 869 0102 084A     		ldr	r2, .L5+4
 870 0104 2846     		mov	r0, r5
 871 0106 4FF48071 		mov	r1, #256
 872 010a FFF7FEFF 		bl	chsnprintf
 873 010e 2946     		mov	r1, r5
 874 0110 82B2     		uxth	r2, r0
 875 0112 0023     		movs	r3, #0
 876 0114 3846     		mov	r0, r7
 877 0116 2EB0     		add	sp, sp, #184
 878              		@ sp needed
 879 0118 BDE8F041 		pop	{r4, r5, r6, r7, r8, lr}
 880 011c FFF7FEBF 		b	logfileWrite
 881              	.L6:
 882              		.align	2
 883              	.L5:
 884 0120 00000000 		.word	.LANCHOR0
 885 0124 0C000000 		.word	.LC2
 886              		.size	datasample_writeToLog, .-datasample_writeToLog
 887 0128 AFF30080 		.section	.text.datasample_gpsToSample,"ax",%progbits
 887      AFF30080 
 888              		.align	2
 889              		.p2align 4,,15
 890              		.global	datasample_gpsToSample
 891              		.thumb
 892              		.thumb_func
 893              		.type	datasample_gpsToSample, %function
 894              	datasample_gpsToSample:
 895              		@ args = 0, pretend = 0, frame = 0
 896              		@ frame_needed = 0, uses_anonymous_args = 0
 897 0000 38B5     		push	{r3, r4, r5, lr}
 898 0002 0446     		mov	r4, r0
 899 0004 0D46     		mov	r5, r1
 900 0006 081D     		adds	r0, r1, #4
 901 0008 2146     		mov	r1, r4
 902 000a FFF7FEFF 		bl	uStrCpy
 903 000e 05F10E00 		add	r0, r5, #14
 904 0012 04F11001 		add	r1, r4, #16
 905 0016 FFF7FEFF 		bl	uStrCpy
 906 001a 05F11E00 		add	r0, r5, #30
 907 001e 04F12801 		add	r1, r4, #40
 908 0022 FFF7FEFF 		bl	uStrCpy
 909 0026 05F12E00 		add	r0, r5, #46
 910 002a 04F14001 		add	r1, r4, #64
 911 002e FFF7FEFF 		bl	uStrCpy
 912 0032 05F13D00 		add	r0, r5, #61
 913 0036 04F15001 		add	r1, r4, #80
 914 003a BDE83840 		pop	{r3, r4, r5, lr}
 915 003e FFF7FEBF 		b	uStrCpy
 916              		.size	datasample_gpsToSample, .-datasample_gpsToSample
 917 0042 00BFAFF3 		.section	.text.datasample_sensorsToSample,"ax",%progbits
 917      0080AFF3 
 917      0080AFF3 
 917      0080
 918              		.align	2
 919              		.p2align 4,,15
 920              		.global	datasample_sensorsToSample
 921              		.thumb
ARM GAS  /tmp/ccodA23C.s 			page 62


 922              		.thumb_func
 923              		.type	datasample_sensorsToSample, %function
 924              	datasample_sensorsToSample:
 925              		@ args = 0, pretend = 0, frame = 0
 926              		@ frame_needed = 0, uses_anonymous_args = 0
 927              		@ link register save eliminated.
 928 0000 2DE9F00F 		push	{r4, r5, r6, r7, r8, r9, r10, fp}
 929 0004 90ED087A 		flds	s14, [r0, #32]
 930 0008 D0F830B0 		ldr	fp, [r0, #48]	@ float
 931 000c D0F82CA0 		ldr	r10, [r0, #44]	@ float
 932 0010 D0F83890 		ldr	r9, [r0, #56]	@ float
 933 0014 D0ED097A 		flds	s15, [r0, #36]
 934 0018 D0F83480 		ldr	r8, [r0, #52]	@ float
 935 001c C769     		ldr	r7, [r0, #28]	@ float
 936 001e 866A     		ldr	r6, [r0, #40]	@ float
 937 0020 056C     		ldr	r5, [r0, #64]	@ float
 938 0022 C46B     		ldr	r4, [r0, #60]	@ float
 939 0024 0269     		ldr	r2, [r0, #16]	@ float
 940 0026 4369     		ldr	r3, [r0, #20]	@ float
 941 0028 D0F818C0 		ldr	ip, [r0, #24]	@ float
 942 002c C1F854B0 		str	fp, [r1, #84]	@ float
 943 0030 D0F85CB0 		ldr	fp, [r0, #92]	@ float
 944 0034 C1F850A0 		str	r10, [r1, #80]	@ float
 945 0038 D0F844A0 		ldr	r10, [r0, #68]	@ float
 946 003c C1F85C90 		str	r9, [r1, #92]	@ float
 947 0040 D0F84890 		ldr	r9, [r0, #72]	@ float
 948 0044 81ED127A 		fsts	s14, [r1, #72]
 949 0048 C1F85880 		str	r8, [r1, #88]	@ float
 950 004c C1ED137A 		fsts	s15, [r1, #76]
 951 0050 D0F84C80 		ldr	r8, [r0, #76]	@ float
 952 0054 4F66     		str	r7, [r1, #100]	@ float
 953 0056 8E66     		str	r6, [r1, #104]	@ float
 954 0058 0D67     		str	r5, [r1, #112]	@ float
 955 005a CC66     		str	r4, [r1, #108]	@ float
 956 005c 4A67     		str	r2, [r1, #116]	@ float
 957 005e 8B67     		str	r3, [r1, #120]	@ float
 958 0060 C1F87CB0 		str	fp, [r1, #124]	@ float
 959 0064 C1F880A0 		str	r10, [r1, #128]	@ float
 960 0068 C1F860C0 		str	ip, [r1, #96]	@ float
 961 006c C1F88490 		str	r9, [r1, #132]	@ float
 962 0070 046D     		ldr	r4, [r0, #80]	@ float
 963 0072 426D     		ldr	r2, [r0, #84]	@ float
 964 0074 836D     		ldr	r3, [r0, #88]	@ float
 965 0076 C1F88880 		str	r8, [r1, #136]	@ float
 966 007a C1F88C40 		str	r4, [r1, #140]	@ float
 967 007e C1F89020 		str	r2, [r1, #144]	@ float
 968 0082 C1F89430 		str	r3, [r1, #148]	@ float
 969 0086 BDE8F00F 		pop	{r4, r5, r6, r7, r8, r9, r10, fp}
 970 008a 7047     		bx	lr
 971              		.size	datasample_sensorsToSample, .-datasample_sensorsToSample
 972 008c AFF30080 		.section	.bss.dataPrintBuf,"aw",%nobits
 973              		.align	2
 974              		.set	.LANCHOR0,. + 0
 975              		.type	dataPrintBuf, %object
 976              		.size	dataPrintBuf, 768
 977              	dataPrintBuf:
 978 0000 00000000 		.space	768
ARM GAS  /tmp/ccodA23C.s 			page 63


 978      00000000 
 978      00000000 
 978      00000000 
 978      00000000 
 979              		.section	.rodata.str1.4,"aMS",%progbits,1
 980              		.align	2
 981              	.LC0:
 982 0000 2D3A2D3A 		.ascii	"-:-:-\000"
 982      2D00
 983 0006 0000     		.space	2
 984              	.LC1:
 985 0008 2D00     		.ascii	"-\000"
 986 000a 0000     		.space	2
 987              	.LC2:
 988 000c 25642C25 		.ascii	"%d,%s,%s,%s,%s,%.1f,%.2f,%.2f,%.2f,%.2f,%.1f,%.2f,%"
 988      732C2573 
 988      2C25732C 
 988      25732C25 
 988      2E31662C 
 989 003f 2E32662C 		.ascii	".2f,%.2f,%.3f,%.3f,%.2f,%.6f,%.6f,%.6f,%.6f,%.6f,%."
 989      252E3266 
 989      2C252E33 
 989      662C252E 
 989      33662C25 
 990 0072 36660A00 		.ascii	"6f\012\000"
 991              		.comm	__gnu_lto_v1,1,1
 992 0076 0000     		.ident	"GCC: (GNU Tools for ARM Embedded Processors) 4.8.4 20140526 (release) [ARM/embedded-4_8-br
ARM GAS  /tmp/ccodA23C.s 			page 64


DEFINED SYMBOLS
                            *ABS*:0000000000000000 datasample.c
     /tmp/ccodA23C.s:727    .text.datasample_init:0000000000000000 $t
     /tmp/ccodA23C.s:733    .text.datasample_init:0000000000000000 datasample_init
     /tmp/ccodA23C.s:779    .text.datasample_init:0000000000000070 $d
     /tmp/ccodA23C.s:784    .text.datasample_writeToLog:0000000000000000 $t
     /tmp/ccodA23C.s:790    .text.datasample_writeToLog:0000000000000000 datasample_writeToLog
     /tmp/ccodA23C.s:884    .text.datasample_writeToLog:0000000000000120 $d
     /tmp/ccodA23C.s:888    .text.datasample_gpsToSample:0000000000000000 $t
     /tmp/ccodA23C.s:894    .text.datasample_gpsToSample:0000000000000000 datasample_gpsToSample
     /tmp/ccodA23C.s:918    .text.datasample_sensorsToSample:0000000000000000 $t
     /tmp/ccodA23C.s:924    .text.datasample_sensorsToSample:0000000000000000 datasample_sensorsToSample
     /tmp/ccodA23C.s:973    .bss.dataPrintBuf:0000000000000000 $d
     /tmp/ccodA23C.s:977    .bss.dataPrintBuf:0000000000000000 dataPrintBuf
     /tmp/ccodA23C.s:980    .rodata.str1.4:0000000000000000 $d
                            *COM*:0000000000000001 __gnu_lto_v1
     /tmp/ccodA23C.s:783    .text.datasample_init:0000000000000078 $t
     /tmp/ccodA23C.s:887    .text.datasample_writeToLog:0000000000000128 $t

UNDEFINED SYMBOLS
uStrCpy
__aeabi_f2d
chsnprintf
logfileWrite
