ARM GAS  /tmp/ccUjHtTp.s 			page 1


   1              		.syntax unified
   2              		.cpu cortex-m4
   3              		.eabi_attribute 27, 3
   4              		.eabi_attribute 28, 1
   5              		.fpu fpv4-sp-d16
   6              		.eabi_attribute 20, 1
   7              		.eabi_attribute 21, 1
   8              		.eabi_attribute 23, 3
   9              		.eabi_attribute 24, 1
  10              		.eabi_attribute 25, 1
  11              		.eabi_attribute 26, 1
  12              		.eabi_attribute 30, 2
  13              		.eabi_attribute 34, 1
  14              		.eabi_attribute 18, 4
  15              		.thumb
  16              		.file	"datasample.c"
  17              		.section	.gnu.lto_.jmpfuncs.5e6bed6f9754ddc4,"",%progbits
  18 0000 789C6362 		.ascii	"x\234cb`b\300\006\376\000\205\327\000iV\006fF\006\006"
  18      6062C006 
  18      FE0085D7 
  18      00695606 
  18      66460606 
  19 0014 666620B3 		.ascii	"ff \263\014H300\226\201\244\201\262L\021\214\231\214"
  19      0C483330 
  19      309681A4 
  19      81B24C11 
  19      8C998C
  20 0027 20362323 		.ascii	" 6##\210W\315\360\253aF\203@&#\243\034\003\343\334\206"
  20      8857CDF0 
  20      AB614683 
  20      402623A3 
  20      1C03E3DC 
  21 003c 190E998C 		.ascii	"\031\016\231\214\020\223Q%\023\031\027\001\025\214\212"
  21      10935125 
  21      13191701 
  21      158C8A
  22 004b 0F117166 		.ascii	"\017\021qf9\006\026Hd\262@$\231Y\240i\000\254\246\003"
  22      39061648 
  22      64B24024 
  22      9959A069 
  22      00ACA603 
  23 005f A4863597 		.ascii	"\244\2065\227\021\232h\300I\202\015\310\220\300\224"
  23      119A68C0 
  23      49820DC8 
  23      90C094
  24 006e 05CBB137 		.ascii	"\005\313\2617\240\230\316!\307\300\0151\235\023k\"\304"
  24      A098CE21 
  24      C7C00D31 
  24      9D136B22 
  24      C4
  25 007f 0D589899 		.ascii	"\015X\230\231\240n\305 X\031\371\021\266s\3452\202\255"
  25      A06EC520 
  25      5819F911 
  25      B673E532 
  25      82AD
  26 0091 47D8C92D 		.ascii	"G\330\311-\307\340\011\261\223\207\220%L\272\014l\272"
  26      C7E009B1 
ARM GAS  /tmp/ccUjHtTp.s 			page 2


  26      93879025 
  26      4CBA0C6C 
  26      BA
  27 00a2 5640C860 		.ascii	"V@\310`\253\232\242\243ZL\036\342bH\016\361\364\265"
  27      AB9AA2A3 
  27      5A4C1EE2 
  27      62480EF1 
  27      F4B5
  28 00b4 02B2157C 		.ascii	"\002\262\025|\034C \264\237;\230v\364\201\360\203\241"
  28      1C4320B4 
  28      9F3B9876 
  28      F481F083 
  28      A1
  29 00c5 E221BE01 		.ascii	"\342!\276\001\2360\206+\230\021\020\024\014\246=B}="
  29      9E30862B 
  29      98111014 
  29      0CA63D42 
  29      7D3D
  30 00d7 610C888C 		.ascii	"a\014\210\214\243\263\263\006\314\012M.\006\000g\346"
  30      A3B3B306 
  30      CC0A4D2E 
  30      060067E6 
  31 00e7 A8A9     		.ascii	"\250\251"
  32              		.text
  33              		.section	.gnu.lto_.inline.5e6bed6f9754ddc4,"",%progbits
  34 0000 789C6362 		.ascii	"x\234cb`b\300\006N3BhV\006\026n\031\006\260\"\266\005"
  34      6062C006 
  34      4E334268 
  34      5606166E 
  34      1906B022 
  35 0016 F270B58C 		.ascii	"\362p\265\214\014\254|\014\014\314\023\374@\220\231"
  35      0CAC7C0C 
  35      0CCC13FC 
  35      409099
  36 0025 07AC8091 		.ascii	"\007\254\200\221\301\376\023###\003H'\262z\260\364\004"
  36      C1FE1323 
  36      23230348 
  36      27B27AB0 
  36      F404
  37 0037 BF414B33 		.ascii	"\277AK31\250\23132\201\234\315\314\000v<\013\343\013"
  37      31A89933 
  37      32819CCD 
  37      CC00763C 
  37      0BE30B
  38 004a 7606F60E 		.ascii	"v\006\366\016u\240\330\013v\026&\006\346\035\342, \217"
  38      75A0D80B 
  38      76162606 
  38      E61DE22C 
  38      208F
  39 005c B0F103E5 		.ascii	"\260\361\003\345\200\032\200HJ\231\201A\002(\004\011"
  39      801A8048 
  39      4A998141 
  39      02280409 
  40 006c 0062200B 		.ascii	"\000b \013\203\220\035#\023##$\364\260\206\0204$\011"
  40      83901D23 
  40      13232324 
  40      F4B08610 
ARM GAS  /tmp/ccUjHtTp.s 			page 3


  40      342409
  41 007f 30581984 		.ascii	"0X\031\204\245\261\204\262\200$\003\003?>\0071\000\000"
  41      A5B184B2 
  41      80240303 
  41      3F3E0731 
  41      0000
  42 0091 3DDD4817 		.ascii	"=\335H\027"
  43              		.text
  44              		.section	.gnu.lto_.pureconst.5e6bed6f9754ddc4,"",%progbits
  45 0000 789C6362 		.ascii	"x\234cb`b\340f\200\000V\006\011F\011&)\026\011V\011"
  45      6062E066 
  45      80005606 
  45      09460926 
  45      29160956 
  46 0015 00040700 		.ascii	"\000\004\007\000\233"
  46      9B
  47              		.text
  48              		.section	.gnu.lto_chprintf.5e6bed6f9754ddc4,"",%progbits
  49 0000 789C8550 		.ascii	"x\234\205P\315J\002Q\024>\337\0355uc\333v\342\0034\213"
  49      CD4A0251 
  49      143EDF1D 
  49      357563DB 
  49      76E20334 
  50 0015 22E80D7A 		.ascii	"\"\350\015z\000\203Z\3058\216z\011\035\321Q\260\026"
  50      00835AC5 
  50      388E7A09 
  50      1DD151B0 
  50      16
  51 0026 5EC1C245 		.ascii	"^\301\302E\013ig\021)\321:\244\027\030\202\332DI\273"
  51      0B696711 
  51      29D13AA4 
  51      171882DA 
  51      4449BB
  52 0039 162D2497 		.ascii	"\026-$\227\265h\321*\202\351\336\031\024\372\201\016"
  52      B568D12A 
  52      82E9DE19 
  52      14FA810E 
  53 0049 DC7B7EBE 		.ascii	"\334{~\276s\276\363\303\210\321OY\220o\010\2425\251"
  53      73BEF3C3 
  53      88D14F59 
  53      906F08A2 
  53      35A9
  54 005b A11158F7 		.ascii	"\241\021X\367\236\250\025e\2002\010\324dhnB\245\262"
  54      9EA81565 
  54      803208D4 
  54      64686E42 
  54      A5B2
  55 006d 140D84DB 		.ascii	"\024\015\204\333\035_O\036\321\023n\273/>=\017\340\220"
  55      1D5F4F1E 
  55      D1136EBB 
  55      2F3E3D0F 
  55      E090
  56 007f B42B2013 		.ascii	"\264+ \023\264!\035$}\305B\337\373\250Z\321uOon!\016"
  56      B4211D24 
  56      7DC542DF 
  56      FBA85AD1 
  56      754F6F6E 
ARM GAS  /tmp/ccUjHtTp.s 			page 4


  57 0095 45EBCDF3 		.ascii	"E\353\315\363\022\034\032\243\325\377\012/\230\373\354"
  57      121C1AA3 
  57      D5FF0A2F 
  57      98FBEC
  58 00a4 794FC3F7 		.ascii	"yO\303\367\203W\364XLC\021\024\222\037\"d\340\014)\225"
  58      8357F458 
  58      4C431114 
  58      921F2264 
  58      E00C2995 
  59 00b8 13A6B624 		.ascii	"\023\246\266$O\032\030H\177\0325\375\241\323\362W\233"
  59      4F1A1848 
  59      7F1A35FD 
  59      A1D3F257 
  59      9B
  60 00c9 AC8329AD 		.ascii	"\254\203)\255\215ho\3343\015\234#,\321]\372\020\035"
  60      8D686FDC 
  60      330D9C23 
  60      2CD15DFA 
  60      101D
  61 00db 31CF1132 		.ascii	"1\317\0212\341\247\313\310\016Gx\312\344g\251\2514\""
  61      E1A7CBC8 
  61      0E4778CA 
  61      E467A9A9 
  61      3422
  62 00ed 2E3BD288 		.ascii	".;\322\210\366\307G\223x\200\344\021\231\021\314\231"
  62      F6C74793 
  62      7880E411 
  62      9911CC99 
  63 00fd 088E9B87 		.ascii	"\010\216\233\207\226G( \340\210\252\222\366\370\370"
  63      96472820 
  63      E088AA92 
  63      F6F8F8
  64 010c 77C798A9 		.ascii	"w\307\230\251H\377\356\310\021'\272\243\253\027\026"
  64      48FFEEC8 
  64      1127BAA3 
  64      AB1716
  65 011b 04027099 		.ascii	"\004\002p\231.EG\235[\312\003\265\372'\332l\214\340"
  65      2E45479D 
  65      5BCA03B5 
  65      FA27DA6C 
  65      8CE0
  66 012d 5469B983 		.ascii	"Ti\271\203\334Q\315\261\244\027\354\242\245\233v\266"
  66      DC51CDB1 
  66      A417ECA2 
  66      A59B76B6 
  67 013d A167ADBA 		.ascii	"\241g\255\272n\026x\206\333U\335\251\324J\333\2724\352"
  67      6E167886 
  67      DB55DDA9 
  67      D44ADBBA 
  67      34EA
  68 014f 4685DBB5 		.ascii	"F\205\333\265\252\004\312\025^rr\213\005bF9\221\263"
  68      AA04CA15 
  68      5E72728B 
  68      05624639 
  68      91B3
  69 0161 2B45C371 		.ascii	"+E\303q\254\354V\246\341X\325/\251H\201#"
  69      ACEC56A6 
ARM GAS  /tmp/ccUjHtTp.s 			page 5


  69      E158D52F 
  69      A9488123 
  70              		.text
  71              		.section	.gnu.lto_datasample_init.5e6bed6f9754ddc4,"",%progbits
  72 0000 789C9DD6 		.ascii	"x\234\235\326Ak\323`\030\300\361\347y\3234\315\262,"
  72      416BD360 
  72      18C0F1E7 
  72      79D334CD 
  72      B22C
  73 0012 CD4229A5 		.ascii	"\315B)\245\266\265\224R\312\230\037@\020\374\020\023"
  73      B6B59452 
  73      CA981F40 
  73      10FC1013 
  74 0022 F5E02156 		.ascii	"\365\340!V\031\001\007\202\236\334a\231N\361\270\343"
  74      19010782 
  74      9EDC6199 
  74      4EF1B8E3 
  75 0032 70EC201E 		.ascii	"p\354 \036\004\205M\330A\301\303\372\005T\374\006\003"
  75      04854DD8 
  75      41C1C3FA 
  75      0554FC06 
  75      03
  76 0043 0F2A1E76 		.ascii	"\017*\036v\330aP\017\365}\222\352c\245\370\346MJ\237"
  76      D861500F 
  76      F57D92EA 
  76      63A5F8E6 
  76      4D4A9F
  77 0056 B7B44DFE 		.ascii	"\267\264M\376\2776\245D\200\200\177\267\232\274?q\322"
  77      BF36A544 
  77      80807FB7 
  77      9ABC3F71 
  77      D2
  78 0067 150D40B1 		.ascii	"\025\015@\261\375\021`\263$\020\351\001 l\010\334\270"
  78      FD1160B3 
  78      2410E901 
  78      206C08DC 
  78      B8
  79 0078 8EC97B0F 		.ascii	"\216\311{\017\304\360x<\336\177\26352\226\020\327P\036"
  79      C4F0783C 
  79      DE7FB335 
  79      329610D7 
  79      501E
  80 008a 2E4230E5 		.ascii	".B0\345@\213\206-\207p\3509W\016\303\243\341\323\010"
  80      408B862D 
  80      8770E839 
  80      570EC3A3 
  80      E1D308
  81 009d 68546854 		.ascii	"hThTi\324h\324i4h\264\344(\264ithti\364h\364i\310\256"
  81      69D468D4 
  81      693468B4 
  81      E428B469 
  81      74687469 
  82 00b7 095B71BC 		.ascii	"\011[q\274}\036`\2208V\344$\334\025\024\264\032\037"
  82      7D1E6090 
  82      3856E424 
  82      DC1514B4 
  82      1A1F
ARM GAS  /tmp/ccUjHtTp.s 			page 6


  83 00c9 E0E1E8D1 		.ascii	"\340\341\350\321\3117\014\3619\232\260\212b\035\036"
  83      C9370CF1 
  83      399AB08A 
  83      621D1E
  84 00d8 48C312BC 		.ascii	"H\303\022\274\212\345v)Bs\027\236a\204\305U\304kr\265"
  84      8AE57629 
  84      4273179E 
  84      6184C555 
  84      C46B72B5 
  85 00ec 920F7313 		.ascii	"\222\017s\023\377\372\026>\301\343\341\271t\177\200"
  85      FFFA163E 
  85      C1E3E1B9 
  85      747F80
  86 00fb 7518C54F 		.ascii	"u\030\305O\343r\204\245\001\246oJ\2169\212w\342\370"
  86      E37284A5 
  86      01A66F4A 
  86      8E398A77 
  86      E2F8
  87 010d 46847613 		.ascii	"F\204v\023\312{\361\316\345\010\347`\262K\204\362\033"
  87      CA7BF1CE 
  87      E508E760 
  87      B24B84F2 
  87      1B
  88 011e 4C18A7CC 		.ascii	"L\030\247\3140\023\006N\030W#\234g\221;[\204\223Uh\310"
  88      3013064E 
  88      1857239C 
  88      67913B5B 
  88      84935568 
  89 0133 CC54363C 		.ascii	"\314T6<|'\017\264\320\204jj\363\350Uv\235\261\313\312"
  89      7C270FB4 
  89      D0846A6A 
  89      F3E85576 
  89      9DB1CBCA 
  90 0147 EF32345C 		.ascii	"\35724\\\326\224+\304}lN\223~2\311NH\202I\345\314\244"
  90      D6942BC4 
  90      7D6C4E93 
  90      7E32C94E 
  90      488249E5 
  91 015d 8206C956 		.ascii	"\202\006\311V\221\306Lr\246~D\222df&\231\032$GEz\361"
  91      91C64C72 
  91      A67E4492 
  91      64662699 
  91      1A244745 
  92 0173 FD0FC94D 		.ascii	"\375\017\311MH\006;\374\331\216\242F\337U\365_r\337"
  92      48063BFC 
  92      D98EA246 
  92      DF55F55F 
  92      72DF
  93 0185 CBD8B734 		.ascii	"\313\330\2674\372\236\252\377\232\373~\306~I\243\357"
  93      FA9EAAFF 
  93      9AFB7EC6 
  93      7E49A3EF 
  94 0195 ABFA07DC 		.ascii	"\253\372\007\334\0172\366m\215~\240\352\037r\277\222"
  94      0F32F66D 
  94      8D7EA0EA 
  94      1F72BF92 
  95 01a5 B13FA7D1 		.ascii	"\261?\247\321\257\250\372o\271_\315\330w4\372UU\377"
ARM GAS  /tmp/ccUjHtTp.s 			page 7


  95      AFA8FA6F 
  95      B95FCDD8 
  95      7734FA55 
  95      55FF
  96 01b7 3DF76B19 		.ascii	"=\367k\031\373\363\032\375\232\252\177\304\375z\306"
  96      FBF31AFD 
  96      9AAA7FC4 
  96      FD7AC6
  97 01c6 BEABD1AF 		.ascii	"\276\253\321\257\253\372_\270\337\310\330_\320\3507"
  97      ABFA5FB8 
  97      DFC8D85F 
  97      D0E837
  98 01d5 54FDAFDC 		.ascii	"T\375\257\334o%\375\002\377%.2%\230M\361&kY\203\324"
  98      6F25FD02 
  98      FF252E32 
  98      25984DF1 
  98      266B5983 
  99 01ea 52917E30 		.ascii	"R\221~0\251\235\237\344k\220\332*\322\011\223:\371I"
  99      A99D9FE4 
  99      6B90DA2A 
  99      D209933A 
  99      F949
 100 01fc 8B1AA48E 		.ascii	"\213\032\244\216\212t\312\244\256>)\310q\342\272*\322"
 100      8A74CAA4 
 100      AE3E29C8 
 100      71E2BA2A 
 100      D2
 101 020d 19937AF9 		.ascii	"\031\223z\371I:'\256\247\274\010aR??I\347\304\365\377"
 101      493A27AE 
 101      A7BC0861 
 101      523F3F49 
 101      E7C4F5FF 
 102 0221 43FA0C9B 		.ascii	"C\372\014\233\307G\342\367\336\351\266\"\367\224W\271"
 102      C747E2F7 
 102      DEE9B622 
 102      F79457B9 
 103 0231 7449E8DE 		.ascii	"tI\350\336\012\357\207\367\302\265\273wn_\030@q\371"
 103      0AEF87F7 
 103      C2B5BB77 
 103      6E5F1840 
 103      71F9
 104 0243 A2BC8158 		.ascii	"\242\274\201X\206_\3459\234\372"
 104      865FE539 
 104      9CFA
 105              		.text
 106              		.section	.gnu.lto_datasample_writeToLog.5e6bed6f9754ddc4,"",%progbits
 107 0000 789C9DD5 		.ascii	"x\234\235\325=L\024A\024\007\360\367f\357\366\366>\366"
 107      3D4C1441 
 107      1407F0F7 
 107      66EFF6F6 
 107      3EF6
 108 0012 BE0F38E1 		.ascii	"\276\0178\341\204\230\320\210\261\2661\332Z\232`\"\345"
 108      8498D088 
 108      B1B631DA 
 108      5A9A6022 
 108      E5
 109 0023 7990CB1A 		.ascii	"y\220\313\0320\032\260\221\030\006N#\305\025W\031\202"
ARM GAS  /tmp/ccUjHtTp.s 			page 8


 109      301AB091 
 109      18064E23 
 109      C5155719 
 109      82
 110 0034 9A482848 		.ascii	"\232H(H\244\240\260\260\240\220\312J4V\032+\022\013"
 110      A4A0B0B0 
 110      A090CA4A 
 110      34561A2B 
 110      120B
 111 0046 13294CB4 		.ascii	"\023)L\2640\201\304\363\275\271]\006&g\\o\003\377\331"
 111      3081C4F3 
 111      BDB95D06 
 111      26675C6F 
 111      03FFD9
 112 0059 CFDFCDCC 		.ascii	"\317\337\315\314\316\316\010\020`ne\372_u\000\256R\211"
 112      CECE0810 
 112      606E65FA 
 112      5F7500AE 
 112      5289
 113 006b 16A068BD 		.ascii	"\026\240h\275\003Xt\004\"\357\000\302\202\300\205\011"
 113      03587404 
 113      22EF00C2 
 113      82C08509 
 114 007b E45BF10C 		.ascii	"\344[\361\014\254I\331\332{\370\261Y\226\317\227Z\362"
 114      AC49D9DA 
 114      7BF8B159 
 114      96CF975A 
 114      F2
 115 008c 77BB8D1E 		.ascii	"w\273\215\036\022\232E\250!\\\247\003\034Q\205\210\234"
 115      129A45A8 
 115      215CA703 
 115      1C518588 
 115      9C
 116 009d FC952DB1 		.ascii	"\374\225-\261\263\327n?\335l\275\301\021\2013\010\026"
 116      B3D76E3F 
 116      DD6CBDC1 
 116      11813308 
 116      16
 117 00ae 78684538 		.ascii	"xhE8l\212H\214\"\352p\304)\354\004\237KR\304R\034.G"
 117      6C8A488C 
 117      22EA70C4 
 117      29EC049F 
 117      4B52C452 
 118 00c5 9A23C391 		.ascii	"\232#\303\221\345\310q\3449\012\034E\012\247\304\321"
 118      E5C871E4 
 118      390A1C45 
 118      0AA7C4D1 
 119 00d5 C7D1CF31 		.ascii	"\307\321\3171\300Q\346\030\204*\256Q\365\207\350 ^\241"
 119      C051E618 
 119      842AAE51 
 119      F587E820 
 119      5EA1
 120 00e7 DFC761DA 		.ascii	"\337\307a\332KP\305\242\360\200\2324\322\271\014\334"
 120      4B50C5A2 
 120      F0809A34 
 120      D2B90CDC 
 121 00f7 0ADAC629 		.ascii	"\012\332\306)\271\365\327Ppi\355\302\322\347O\217\255"
ARM GAS  /tmp/ccUjHtTp.s 			page 9


 121      B9F5D750 
 121      7069EDC2 
 121      D2E74F8F 
 121      AD
 122 0108 2AAE6314 		.ascii	"*\256c\024\352h\215\301Y\017\223O`\225Z\232\252\243"
 122      EA688DC1 
 122      590F934F 
 122      60955A9A 
 122      AAA3
 123 011a E016BBAA 		.ascii	"\340\026\273\252\23570h\361.4\226\0337\203G\"\364\024"
 123      9D373068 
 123      F12E3496 
 123      1B378347 
 123      22F414
 124 012d DF954475 		.ascii	"\337\225Dui\351J\347\302\030\274\220\264\271\377\320"
 124      69E94AE7 
 124      C218BC90 
 124      B4B9FFD0 
 125 013d E879F5D4 		.ascii	"\350y\365\324A\343\360\207\010H{\036\356Q/\371\304\035"
 125      41E3F087 
 125      08487B1E 
 125      EE512FF9 
 125      C41D
 126 014f 0FD3DD09 		.ascii	"\017\323\335\011\324oA\021\355o\030\0201ED}b\302\303"
 126      D46F4111 
 126      ED6F1810 
 126      3145447D 
 126      62C2C3
 127 0162 8CBF7BC9 		.ascii	"\214\277{\311\303lwM\370\245e\250\353\373G\252\323\273"
 127      C36C774D 
 127      F8A565A8 
 127      EBFB47AA 
 127      D3BB
 128 0174 1A31D40D 		.ascii	"\0321\324\015\255\306\225jk5\027Z\215\032\352\246V\023"
 128      ADC6956A 
 128      6B35175A 
 128      8D1AEAA6 
 128      5613
 129 0186 273A91D4 		.ascii	"':\221\324th\3256\324-\255&\225\032\323T\276;\0253\210"
 129      7468D536 
 129      D42DAD26 
 129      951AD354 
 129      BE3B1533 
 130 019b 979A4885 		.ascii	"\227\232H\205$\034\203x\245\0117$\0217\210mM\244C\022"
 130      241C8378 
 130      A5093724 
 130      1137886D 
 130      4DA44312 
 131 01af 098378AD 		.ascii	"\011\203x\255\211LH\"i\020_4\221\015I\244\014\342\253"
 131      894C4822 
 131      69105F34 
 131      910D49A4 
 131      0CE2AB
 132 01c2 26722109 		.ascii	"&r!\011\327 \3665\221\017I\244\015\342\273&\012!\211"
 132      D720F635 
 132      910F49A4 
 132      0DE2BB26 
ARM GAS  /tmp/ccUjHtTp.s 			page 10


 132      0A2189
 133 01d5 8C41FCD4 		.ascii	"\214A\374\324DQ\021\216\036\260\005\255\025\273kY\277"
 133      4451118E 
 133      1EB005AD 
 133      15BB6B59 
 133      BF
 134 01e6 CC19EA2F 		.ascii	"\314\031\352/\255\226zW\363\206z\250\325\276\336\325"
 134      AD967A57 
 134      F3867AA8 
 134      D5BEDED5 
 135 01f6 82A1B6B5 		.ascii	"\202\241\266\265\332\377\377j\361/=\260\336\254\004"
 135      DAFFFF6A 
 135      F12F3DB0 
 135      DEAC04
 136 0205 EA40EFAA 		.ascii	"\352@\357\252\331\003\033Z-\367\256\036\353\201\367"
 136      D9031B5A 
 136      2DF7AE1E 
 136      EB81F7
 137 0214 B02DDF6E 		.ascii	"\260-\337n\332\001:8\017\007rYf=,\325\374\331\275sF"
 137      DA013A38 
 137      0F077259 
 137      663D2CD5 
 137      FCD9BD73 
 138 0229 DEF5B06F 		.ascii	"\336\365\260o\006\375\025B\255\303\375R\250\213+Rn\323"
 138      06FD1542 
 138      ADC3FD52 
 138      A88B2B52 
 138      6ED3
 139 023b E1C06928 		.ascii	"\341\300i(>\223+\227=,\203\177\227Z\233lZ\013h\342\246"
 139      3E932B97 
 139      3D2C837F 
 139      975A9B6C 
 139      5A0B68E2 
 140 0250 5996A644 		.ascii	"Y\226\246D\232\277\352\\-\227\276\177\372~\351\373\243"
 140      9ABFEA5C 
 140      2D97BE7F 
 140      FA7EE9FB 
 140      A3
 141 0261 EF87C63F 		.ascii	"\357\207\306?\215_\032\1774X\350\315\322k\240>\243\006"
 141      8D5F1A7F 
 141      3458E8CD 
 141      D26BA03E 
 141      A306
 142 0273 7A784A35 		.ascii	"zxJ5{\277\261\325\274\020\324p\210*\311\325~\264\023"
 142      7BBFB1D5 
 142      BC10D470 
 142      882AC9D5 
 142      7EB413
 143 0286 0D4E0D1F 		.ascii	"\015N\015\037Uz\260\346O\241u\254\370\365\276\177\242"
 143      557AB0E6 
 143      4FA175AC 
 143      F8F5BE7F 
 143      A2
 144 0297 DEF43C57 		.ascii	"\336\364<W}\010h\211\256\000|\200\305cL\247G\306\251"
 144      7D086889 
 144      AE007C80 
 144      C5634CA7 
ARM GAS  /tmp/ccUjHtTp.s 			page 11


 144      47C6A9
 145 02aa DDB430B3 		.ascii	"\335\2640\263\343NV\347\252\263\325\231\333\323S\347"
 145      E34E56E7 
 145      AAB3D599 
 145      DBD353E7 
 146 02ba 6B604D4F 		.ascii	"k`MO\335\2728:ynt\266\267\277\004\374\001\021\215\343"
 146      DDBA383A 
 146      796E74B6 
 146      B7BF04FC 
 146      01118DE3 
 147 02ce 73       		.ascii	"s"
 148              		.text
 149              		.section	.gnu.lto_datasample_gpsToSample.5e6bed6f9754ddc4,"",%progbits
 150 0000 789C9D93 		.ascii	"x\234\235\223\277K\303@\024\307\337\367\2224ijj\212"
 150      BF4BC340 
 150      14C7DFF7 
 150      9234696A 
 150      6A8A
 151 0012 93A02038 		.ascii	"\223\240 8\012\376%nV\320\301!V)\001\013\202.\332\241"
 151      0AFE256E 
 151      56D0C121 
 151      5629010B 
 151      822EDAA1 
 152 0026 A93FC041 		.ascii	"\251?\300A\241\253vQ\004\205\014\272:vrS\361?\350\344"
 152      A1AB7651 
 152      04850CBA 
 152      3A767253 
 152      F13FE8E4 
 153 003a BF20D4A1 		.ascii	"\277 \324\241\276K\322\246)\0154\036\344\356\005\336"
 153      BE4BD2A6 
 153      290D341E 
 153      E4EE05DE 
 154 004a 7DDEFBE4 		.ascii	"}\336\373\344.\202\004\215\217y~\326T\242Y^\241\020"
 154      2E82048D 
 154      8F797ED6 
 154      54A2595E 
 154      A110
 155 005c 44EB83A8 		.ascii	"D\353\203\250i\010@\006\004j\0104\266\020\344\276\210"
 155      69084006 
 155      046A0834 
 155      B610E4BE 
 155      88
 156 006d 4EB7DF7F 		.ascii	"N\267\337\177~}\273\363\2019\240\006\006\272 \205#\250"
 156      7E7DBBF3 
 156      8139A006 
 156      06BA2085 
 156      23A8
 157 007f 1C419793 		.ascii	"\034A\227\223\301\2230eT\220\221\305\223R\224\257\266"
 157      C1933065 
 157      549091C5 
 157      935294AF 
 157      B6
 158 0090 4C2EC988 		.ascii	"L.\311\210a\032\235{^k\211\250\022\300\313<\313\212"
 158      611A9D7B 
 158      5E6B89A8 
 158      12C0CB3C 
 158      CB8A
ARM GAS  /tmp/ccUjHtTp.s 			page 12


 159 00a2 1B107255 		.ascii	"\033\020rU\336\351\264w\366s\265\350\340\036\032U!\352"
 159      DEE9B477 
 159      F673B5E8 
 159      E01E1A55 
 159      21EA
 160 00b4 74C2BB57 		.ascii	"t\302\273W\310\367x\254\273P\333t\013\027Z\025\330\344"
 160      C8F778AC 
 160      BB50DB74 
 160      0B175A15 
 160      D8E4
 161 00c6 351774B8 		.ascii	"5\027t\270\203\021\265\000\361\215\001A\015\010\210"
 161      8311B500 
 161      F18D0141 
 161      0D0888
 162 00d5 08C72EF4 		.ascii	"\010\307.\364\220`T\241HB>\"\214 >\351\242\263\020\356"
 162      906054A1 
 162      48423E22 
 162      8C203EE9 
 162      A2B310EE 
 163 00e9 27AA53CF 		.ascii	"'\252S\317\273\364l\027f%\312\341\256\030\353\262fX"
 163      BBF46C17 
 163      6625CAE1 
 163      AE18EBB2 
 163      6658
 164 00fb EB376E57 		.ascii	"\3537nWO\024\333\346bq\3473\223;\027\321\252\214\031"
 164      4F14DBE6 
 164      6271E733 
 164      933B17D1 
 164      AA8C19
 165 010e 3C8A01D4 		.ascii	"<\212\001\324\010\240\"\"\335\360^k\262\202\232AAgn"
 165      08A02222 
 165      DDF05E6B 
 165      B2829A41 
 165      41676E
 166 0121 ACD08F15 		.ascii	"\254\320\217\025\314\377+hc\012\376P\241\220Ph\247+"
 166      CCFF2B68 
 166      630AFE50 
 166      A1905068 
 166      A72B
 167 0133 E4322898 		.ascii	"\3442(\230\314\215\025\036\256\207\012VPM\211\025\212"
 167      CC8D151E 
 167      AE870A56 
 167      504D8915 
 167      8A
 168 0144 532BE8A9 		.ascii	"S+\350\251\247PL|\027y\012)\027\311\310\240`17Vx\212"
 168      A7504C7C 
 168      17790A29 
 168      17C9C8A0 
 168      60313756 
 169 015a 15ECC4BD 		.ascii	"\025\354\304\275g\005uj\205|\252BiZ\0053\203\202\315"
 169      6705756A 
 169      857CAA42 
 169      695A0533 
 169      8382CD
 170 016d DC40E18B 		.ascii	"\334@\341\213\232]\177y\220\032\2162\247\361o-[\263"
 170      9A5D7F79 
 170      901A8E32 
ARM GAS  /tmp/ccUjHtTp.s 			page 13


 170      A7F16F2D 
 170      5BB3
 171 017f 769D23E7 		.ascii	"v\235#\347\320\251\035\354\357\255V\350\017'\336\347"
 171      D0A91DEC 
 171      EFAD56E8 
 171      0F27DEE7 
 172 018f 16       		.ascii	"\026"
 173              		.text
 174              		.section	.gnu.lto_printDataSample.5e6bed6f9754ddc4,"",%progbits
 175 0000 789C9DD4 		.ascii	"x\234\235\324\277K\033a\030\007\360\347y\357.w\271\344"
 175      BF4B1B61 
 175      1807F0E7 
 175      79EF2E77 
 175      B9E4
 176 0012 62747391 		.ascii	"bts\221@\021ZZ\372\007tj\020\261\001#\242'\352\030\323"
 176      40115A5A 
 176      FA07746A 
 176      10B10123 
 176      A227EA18 
 177 0027 120E1AB0 		.ascii	"\022\016\032\260\244S\035|\3751\270X\034\245EP\034\204"
 177      A4531D7C 
 177      FD31B858 
 177      1CA54550 
 177      1C84
 178 0039 5674E890 		.ascii	"Vt\350\220\241C;u\253\322I\334\374\017\004\035\004;"
 178      A1433B75 
 178      ABD249DC 
 178      FC0F041D 
 178      043B
 179 004b A4CFFBDE 		.ascii	"\244\317\373\336\245O\373\222\341\310\221|\2377\357"
 179      A54FFB92 
 179      E1C8917C 
 179      9F37EF
 180 005a 5D3EEFDD 		.ascii	"]>\357\335\275\367\236\000\001\3466L_\317\001hQE\013"
 180      BDF79E00 
 180      01E6364C 
 180      5FCF0168 
 180      51450B
 181 006d 50EC9C01 		.ascii	"P\354\234\001\254y\002Q5\000aU\340\352\"\352cO\305\367"
 181      AC790251 
 181      35006155 
 181      E0EA22EA 
 181      634FC5F7 
 182 0081 AB4EE7E4 		.ascii	"\253N\347\344\346\307\376%\342 b\023\011\214\020,\012"
 182      E6C7FE25 
 182      E2206213 
 182      098C102C 
 182      0A
 183 0092 B4553814 		.ascii	"\264U8\024\"\243\372\\\012\313S\221U\341\253\310\251"
 183      22A3FA5C 
 183      0ACB5391 
 183      55E1ABC8 
 183      A9
 184 00a3 C853D881 		.ascii	"\310S\330\201\212\202\012b\035\330\224r\247\004P\327"
 184      8A820A62 
 184      1DD89472 
 184      A70450D7 
ARM GAS  /tmp/ccUjHtTp.s 			page 14


 185 00b3 C384946A 		.ascii	"\303\204\224j\3549\024\252Z?a\375~\343z{\244\206\007"
 185      EC3914AA 
 185      5A3F61FD 
 185      7EE37A7B 
 185      A48607
 186 00c6 E43750AC 		.ascii	"\3447P\254\300;\032\3401|\222\264\315G\350|\204\017"
 186      C03B1AE0 
 186      317C92B4 
 186      CD47E87C 
 186      840F
 187 00d8 1861A681 		.ascii	"\030a\246\201\270@\325\325\347\272\204\377\\\244&n\231"
 187      B840D5D5 
 187      E7BA84FF 
 187      5CA4266E 
 187      99
 188 00e9 B0348109 		.ascii	"\2604\201\011\361&B\217\265lo\015\223*\014\365\216U"
 188      F126428F 
 188      B56C6F0D 
 188      932A0CF5 
 188      8E55
 189 00fb BB7FD532 		.ascii	"\273\177\3252\324\337\254:Z\025\254\372\251U\333P;\254"
 189      D4DFAC3A 
 189      5A15ACFA 
 189      A955DB50 
 189      3BAC
 190 010d 66FEBB89 		.ascii	"f\376\273\211\244:\251U\307P\017\337\377U]\255ZL\345"
 190      A43AA955 
 190      C7500FDF 
 190      FF555DAD 
 190      5A4CE5
 191 0120 7A531983 		.ascii	"zS\031\2038b\302KI\270\006\361\231\211lJ\3023\210S&"
 191      3862C24B 
 191      49B806F1 
 191      99896C4A 
 191      C2338853 
 192 0135 FC9444D6 		.ascii	"\374\224D\326 \2760\221KI\370\006\321f\"\257\011\233"
 192      20BE3091 
 192      4B49F806 
 192      D16622AF 
 192      099B
 193 0147 2729CF5A 		.ascii	"')\317Z\320[\313%5o\250_Y\015\372W\003C\375\306j\241"
 193      D05BCB25 
 193      356FA85F 
 193      590DFA57 
 193      0343FDC6 
 194 015d 7FB5C0EA 		.ascii	"\177\265\300\3529\375\347\270\275\034\243\000+p/\267"
 194      39FDE7B8 
 194      BD1CA300 
 194      2B702FB7 
 195 016d 6431C242 		.ascii	"d1\302B=y\374\342\036\271G\314@\02319P\365\356JyA\275"
 195      3D79FCE2 
 195      1EB947CC 
 195      40133139 
 195      50F5EE4A 
 196 0184 C51128EE 		.ascii	"\305\021(\356\311\335\347\021\016B\262\227^\031\264"
 196      C9DDE711 
 196      0E42B297 
ARM GAS  /tmp/ccUjHtTp.s 			page 15


 196      5E19B4
 197 0193 E4697DD2 		.ascii	"\344i}\322bj\250\263p\3511\243\307\204\246\231\246\211"
 197      626AA8B3 
 197      70E931A3 
 197      C784A699 
 197      A689
 198 01a5 6E33DD13 		.ascii	"n3\335\023\272\200\010\207\000~\301\332\325\345\203"
 198      BA800887 
 198      007EC1DA 
 198      D5E583
 199 01b4 EEF8F116 		.ascii	"\356\370\361\026\322\330\364\"R+?xY{[k\325\232\313\257"
 199      D2D8F422 
 199      522B3F78 
 199      597B5B6B 
 199      D59ACBAF 
 200 01c8 5F3DAD43 		.ascii	"_=\255C=\254T\237\215\266\236\224&\313a\\\247&t-O\306"
 200      3DAC549F 
 200      8DB69E94 
 200      26CB615C 
 200      A726742D 
 201 01de BF6793FE 		.ascii	"\277g\223\376\260:]\3516\306uczfV\327\027s\325J\267"
 201      B03A5DE9 
 201      36C67563 
 201      7A6656D7 
 201      1773D54A 
 202 01f3 11EF298F 		.ascii	"\021\357)\217\215=\244\252?\217|\370\003\356\017.-"
 202      8D3DA4AA 
 202      3F8F7CF8 
 202      03EE0F2E 
 202      2D
 203              		.text
 204              		.section	.gnu.lto_.symbol_nodes.5e6bed6f9754ddc4,"",%progbits
 205 0000 789C4DCE 		.ascii	"x\234M\316MR\302@\020\305\3617/\211@\360\016\236\315"
 205      4D52C240 
 205      10C5F137 
 205      2F8940F0 
 205      0E9ECD
 206 0013 93743490 		.ascii	"\223t4\220D\220\217\202\275\013{\341A\330{\006\255l"
 206      44908F82 
 206      BD0B7BE1 
 206      41D87B06 
 206      AD6C
 207 0025 390345C2 		.ascii	"9\003E\302<\035f\363\257_W\327T\023\304W@|\254h\300"
 207      3C1D66F3 
 207      AF5F57D7 
 207      5413C457 
 207      407CAC68 
 208 003a FE1B30DB 		.ascii	"\376\0330\333t\317|\241\005\361\243\013\254iL,^\211"
 208      74CF7CA1 
 208      05F1A30B 
 208      AC694C2C 
 208      5E89
 209 004c DC322E68 		.ascii	"\3342.h\331\335\322\222\226\337-\2751\300\020\336iE"
 209      D9DDD292 
 209      96DF2DBD 
 209      31C010DE 
 209      6945
ARM GAS  /tmp/ccUjHtTp.s 			page 16


 210 005e 9C565508 		.ascii	"\234VU\010k\332C\322\2126Ijh\323\244\2166Kji\345\277"
 210      6BDA43D2 
 210      8A36496A 
 210      68D3A48E 
 210      364B6A69 
 211 0074 32CC50FF 		.ascii	"2\314P\377\\\206N\341\267Np\032\033\312\350\241\375"
 211      5C864EE1 
 211      B74E701A 
 211      1BCAE8A1 
 211      FD
 212 0085 9F7F65D5 		.ascii	"\237\177e\325\233\363\323\315\252\267\262\352+Y\365"
 212      9BF3D3CD 
 212      AAB7B2EA 
 212      2B59F5
 213 0094 B5ACFA56 		.ascii	"\265\254\372VV}'\253~\220U?\312c\371\030\377\341<\376"
 213      567D27AB 
 213      7E90553F 
 213      CA63F918 
 213      FFE13CFE 
 214 00a8 9397F1EE 		.ascii	"\223\227\361\356\\w\016\255\2338\357\325\323xW\001|"
 214      5C770EAD 
 214      9B38EFD5 
 214      D3785701 
 214      7C
 215 00b9 0EC515B3 		.ascii	"\016\305\025\263\002}\315"
 215      027DCD
 216              		.text
 217              		.section	.gnu.lto_.refs.5e6bed6f9754ddc4,"",%progbits
 218 0000 789C6362 		.ascii	"x\234cb`b\340f\200\000&&&f&fFV&6\006\000\001\337\000"
 218      6062E066 
 218      80002626 
 218      26662666 
 218      46562636 
 219 0019 2C       		.ascii	","
 220              		.text
 221              		.section	.gnu.lto_.decls.5e6bed6f9754ddc4,"",%progbits
 222 0000 789CBD7D 		.ascii	"x\234\275}\011\230\024E\266nf\326\332t\013\270\243\343"
 222      09981445 
 222      B66E66D6 
 222      DA740BB8 
 222      A3E3
 223 0012 8C35F78D 		.ascii	"\2145\367\215\367\363\316\275c\263\270\340\334\031\225"
 223      F7F3CEBD 
 223      63B3B8E0 
 223      DC1995
 224 0021 55B803DA 		.ascii	"U\270\003\332\257\273\275\216\357\276\367\312\244\272"
 224      AFBBBD8E 
 224      EFBEF7CA 
 224      A4BA
 225 002f 1A6AECCD 		.ascii	"\032j\354\315\252j\226\271\367=\223E\020Qd\247\331\021"
 225      AA6A96B9 
 225      F73D9345 
 225      105164A7 
 225      D911
 226 0041 451011D9 		.ascii	"E\020\021\331\233\255\261\020l\300\226\035\004A\240"
 226      9BADB110 
 226      6CC0961D 
ARM GAS  /tmp/ccUjHtTp.s 			page 17


 226      0441A0
 227 0050 45419611 		.ascii	"EA\226\021\331\233\275\337\211\023\231U\221\331\231"
 227      D99BBDDF 
 227      89139955 
 227      91D999
 228 005f 599185F3 		.ascii	"Y\221\205\363\352\373\342TTt\306\237\347\2348q\342D"
 228      EAFBE254 
 228      5474C69F 
 228      E79C3871 
 228      E244
 229 0071 6464B424 		.ascii	"dd\264$HBK\267 4\302g\365tA\010\265\024\004\257 \010"
 229      48424BB7 
 229      2034C267 
 229      F5744108 
 229      B51404AF 
 230 0087 4F41BA0D 		.ascii	"OA\272\015\022\374Ix\027\322,Hs!}\010\351#H\013 -\202"
 230      12FC4978 
 230      17D22C48 
 230      73217D08 
 230      E923480B 
 231 009e B414D232 		.ascii	"\264\024\3222H\325\220\036\222\004\341\037!\221O6\244"
 231      48D5901E 
 231      9204E11F 
 231      21914F36 
 231      A4
 232 00af 8721DF11 		.ascii	"\207!\337\021\322\333\220\036\001\240\256\220\376\015"
 232      D2DB901E 
 232      01A0AE90 
 232      FE0D
 233 00bd D29F20BD 		.ascii	"\322\237 \275\004\351\177@\012B*\206D\252\225\300w\231"
 233      04E97F40 
 233      0A422A86 
 233      44AA95C0 
 233      7799
 234 00cf 5BD07D08 		.ascii	"[\320}\010\006\301\312\203\362\346\360\235\243\362T"
 234      06C1CA83 
 234      F2E6F09D 
 234      A3F254
 235 00de 01240EE9 		.ascii	"\001$\016\351UH\225\220z@\352\013\251\237Z\337\255\326"
 235      55489590 
 235      7A40EA0B 
 235      A99F5ADF 
 235      ADD6
 236 00f0 7D49BDDF 		.ascii	"}I\275\337\277\251\367\370#\220\247%\375=\010\217w\301"
 236      BFA9F7F8 
 236      2390A725 
 236      FD3D088F 
 236      77C1
 237 0102 F700B8E6 		.ascii	"\367\000\270\346\257\220\376\023\322\177A\372?\220\236"
 237      AF90FE13 
 237      D27F41FA 
 237      3F909E
 238 0111 83BF7585 		.ascii	"\203\277u\205\324\005\322\377u\247t\360\037\220\377"
 238      D405D2FF 
 238      75A774F0 
 238      1F90FF
 239 0120 3394E54B 		.ascii	"3\224\345K)\375\374o\310\207!\275\006i\200\212\331\023"
ARM GAS  /tmp/ccUjHtTp.s 			page 18


 239      29FDFC6F 
 239      C88721BD 
 239      0669808A 
 239      D913
 240 0132 BEFF3BA4 		.ascii	"\276\377;\244\027!\375\007\244\377\005I\206T\004)\016"
 240      1721FD07 
 240      A4FF0549 
 240      86540429 
 240      0E
 241 0143 A92FA43E 		.ascii	"\251/\244>\220J \225A\372\013\244(\244\012H\375\311"
 241      904A2095 
 241      41FA0BA4 
 241      28A40A48 
 241      FDC9
 242 0155 3D210D82 		.ascii	"=!\015\2024\004\3220\211\312@\370%\272\023!\377\246"
 242      3404D230 
 242      89CA40F8 
 242      25BA1321 
 242      FFA6
 243 0167 4116A2EB 		.ascii	"A\026\242\353_\251\362k\372\362Y\310\346\202\362w\340"
 243      5FA9F26B 
 243      FAF259C8 
 243      E682F277 
 243      E0
 244 0178 FA062125 		.ascii	"\372\006!%#\221W\223\313(\317kn\332\366l\273\367\206"
 244      23915793 
 244      CB28CF6B 
 244      6EDAF66C 
 244      BBF786
 245 018b 32C54DED 		.ascii	"2\305M\355\341e\370\276\033\276\377$\375\374r\273T\331"
 245      E165F8BE 
 245      1BBEFF24 
 245      FDFC72BB 
 245      54D9
 246 019d 8A559B21 		.ascii	"\212U\233!\277\177\013\337\377\354\246v\303~\210\255"
 246      BF7F0BDF 
 246      FFECA676 
 246      C37E88AD 
 247 01ad B560641E 		.ascii	"\265`d\036\250\312\315\266%\221\261-\224\265q\323v%"
 247      A8CACDB6 
 247      2591B12D 
 247      94B571D3 
 247      7625
 248 01bf ED4964FE 		.ascii	"\355Id\376\275\233\312\235\255\266]{wJ\216'\335T\226"
 248      BD9BCA9D 
 248      ADB65D7B 
 248      774A8E27 
 248      DD5496
 249 01d2 3FB8A93C 		.ascii	"?\270\251<\177tS\231\236Rm\353\021\325\246I\276\023"
 249      7F745399 
 249      9E526DEB 
 249      11D5A649 
 249      BE13
 250 01e4 7C7730F0 		.ascii	"|w0\360E\354\377N\016;\263\322\377 \267\276\237\375"
 250      45ECFF4E 
 250      0E3BB3D2 
 250      FF20B7BE 
ARM GAS  /tmp/ccUjHtTp.s 			page 19


 250      9FFD
 251 01f6 9344E54C 		.ascii	"\223D\345L\247\353\022F\277F\335J*_\017\253\371n&}0"
 251      A7EB1246 
 251      BF46DD4A 
 251      2A5F0FAB 
 251      F96E267D 
 252 020b 5B785351 		.ascii	"[xSQ\006)3\207*\33565\277]\030\245\300g\3463U\315\263"
 252      06293387 
 252      2ADD3635 
 252      BF5D18A5 
 252      C067E633 
 253 0222 84374879 		.ascii	"\2047Hy\375l\245U+\340Z\224E(\362c&'\013\255\363!\341"
 253      FD6CA555 
 253      2BE05A94 
 253      4528F263 
 253      26270BAD 
 254 0239 7DB8162A 		.ascii	"}\270\026*H\262\370\236\230\005w\220D\301\364C\377\376"
 254      48B2F89E 
 254      98057790 
 254      44C1F443 
 254      FFFE
 255 024b 5BE1437A 		.ascii	"[\341Cz\375\021\343e\004\224\\\221\3125\212\311{\266"
 255      FD11E365 
 255      04945C91 
 255      CA358AC9 
 255      7BB6
 256 025d D4EE29A9 		.ascii	"\324\356)\251X\263\304\3331\207\034**\347x\205Z#\240"
 256      58B3C4DB 
 256      31871C2A 
 256      2AE77885 
 256      5A23A0
 257 0270 D570AB35 		.ascii	"\325p\2535\346 \266\240\025\013\254\024Z\271Y\275w\305"
 257      E620B6A0 
 257      150BAC14 
 257      5AB959BD 
 257      77C5
 258 0282 6C3B3505 		.ascii	"l;5\005\252\232Sn\325\372\255\265\372^\265\376\207\216"
 258      AA9A536E 
 258      D5FAADB5 
 258      FA5EB5FE 
 258      878E
 259 0294 399D67C1 		.ascii	"9\235g\301\251'\015\247s\235q\252\264\322\000\024\227"
 259      A9270DA7 
 259      739D71AA 
 259      B4D20014 
 259      97
 260 02a5 8A30DF31 		.ascii	"\2120\3371\257\037[\360\332(\245a\366\243\024\263~a"
 260      AF1F5BF0 
 260      DA28A561 
 260      F6A314B3 
 260      7E61
 261 02b7 185AD9EB 		.ascii	"\030Z\331\353\312@\361\325\364f\266@\364\203\0314\267"
 261      CA40F1D5 
 261      F466B640 
 261      F4831934 
 261      B7
 262 02c8 3433F277 		.ascii	"43\362w\355\3164\257\345DU2M1\346\334\341\275F\325\177"
ARM GAS  /tmp/ccUjHtTp.s 			page 20


 262      EDCE34AF 
 262      E5445532 
 262      4D31E6DC 
 262      E1BD46D5 
 263 02dd BD705AAE 		.ascii	"\275pZ\256\242\370eq\021\232\365\263\"@\177 \3766y\033"
 263      A2F86571 
 263      119AF5B3 
 263      22407F20 
 263      FE36791B 
 264 02f1 4F96FEB6 		.ascii	"O\226\376\266\360[\273\200\200y\262R\0312\364\266\340"
 264      F05BBB80 
 264      8079B252 
 264      1932F4B6 
 264      E0
 265 0302 6B94E32E 		.ascii	"k\224\343.\215\225?\252\270\313\034\267\311r\2136\371"
 265      8D953FAA 
 265      B8CB1CB7 
 265      C9728B36 
 265      F9
 266 0313 439A2659 		.ascii	"C\232&Yja?w\010\243\221UFa\211.Z\345}\376\224\312j\206"
 266      6A613F77 
 266      08A39155 
 266      4661892E 
 266      5AE57DFE 
 267 032b 1EDD210E 		.ascii	"\036\335!\016V\024\370\313\012\361\016P\332\020Q\257"
 267      5614F8CB 
 267      0AF10E50 
 267      DA1051AF 
 268 033b B5F448B2 		.ascii	"\265\364H\262\270J\224\200\256\206\372\264&m\372\304"
 268      B84A9480 
 268      AE86FAB4 
 268      266DFAC4 
 269 034b 9561398A 		.ascii	"\225a9\212\233\226\013:L\335\347\327\302L\340;qc\343"
 269      9B960B3A 
 269      4CDDE7D7 
 269      C24CE03B 
 269      7163E3
 270 035e FBF72933 		.ascii	"\373\367)3?\023\315\304\200\013D\346\376\212\244\335"
 270      3F13CDC4 
 270      800B44E6 
 270      FE8AA4DD 
 271 036e 3F201007 		.ascii	"? \020\0079\032X6aS\177\231,&\220\313uF.wQ.\327qq\271"
 271      391A5836 
 271      61537F99 
 271      2C2690CB 
 271      75462E77 
 272 0388 67E36651 		.ascii	"g\343fQ\031\223\243c\362\036a\274\332\312\212\030\247"
 272      1993A363 
 272      F21E61BC 
 272      DACA8A18 
 272      A7
 273 0399 B667D55C 		.ascii	"\266g\325\\\237\213\367`\316E\235\242,>\235\255\345"
 273      9F8BF760 
 273      CE459DA2 
 273      2C3E9DAD 
 273      E5
 274 03aa 75904927 		.ascii	"u\220I'\236hU\325\334\246{\215\252\037;\342\343\177"
ARM GAS  /tmp/ccUjHtTp.s 			page 21


 274      9E6855D5 
 274      DCA67B8D 
 274      AA1F3BE2 
 274      E37F
 275 03bc 069367BC 		.ascii	"\006\223g\274\276U\005Y\374B|\010\250\2507\372\244\373"
 275      BE550559 
 275      FC427C08 
 275      A8A837FA 
 275      A4FB
 276 03ce 56BDB724 		.ascii	"V\275\267$\324\032,\200\003[3\246\221\323\333c\377\333"
 276      D41A2C80 
 276      035B33A6 
 276      91D3DB63 
 276      FFDB
 277 03e0 82FD6FB0 		.ascii	"\202\375o\260d\354\200\242\241\003\246\341\305\311\265"
 277      64EC80A2 
 277      A103A6E1 
 277      C5C9B5
 278 03ef 562ADF94 		.ascii	"V*\337\224\352!\254\342\027QVd\361\005W\362\217V\020"
 278      EA21ACE2 
 278      17515664 
 278      F10557F2 
 278      8F5610
 279 0402 1B521012 		.ascii	"\033R\020\022\304;\242jEf\227'\373/\203\247\263 \350"
 279      C43BA26A 
 279      45669727 
 279      FB2F83A7 
 279      B320E8
 280 0415 7017DB4C 		.ascii	"p\027\333LR\022C\\\231\332\320nN\033\222\305:\033\224"
 280      5212435C 
 280      99DAD06E 
 280      4E1B92C5 
 280      3A1B94
 281 0428 BDB7AE96 		.ascii	"\275\267\256\226]\254Z\306:VK\200U\213\262XQ\262\274"
 281      5DAC5AC6 
 281      3A564B80 
 281      558BB258 
 281      51B2BC
 282 043b D62AD179 		.ascii	"\326*\321yR\3331\340\354\230m\232C;\210V\370\255db\316"
 282      52DB31E0 
 282      EC986D9A 
 282      433B8856 
 282      F8AD6462 
 283 0450 5C5063EB 		.ascii	"\\Pc\3536,\022\007!T=B\375\2201T\315\326j\3323\276C"
 283      362C1207 
 283      21543D42 
 283      FD903154 
 283      CDD66ADA 
 284 0467 A09F9AF4 		.ascii	"\240\237\232\364\014\257\241gx\365\326\016?\311\235"
 284      0CAFA167 
 284      78F5D60E 
 284      3FC99D
 285 0476 2E936149 		.ascii	".\223aI|M-!?|\302\377\367zV\366\360\215\265aR[\3445"
 285      7C4D2D21 
 285      3F7CC2FF 
 285      F77A56F6 
 285      F08DB561 
ARM GAS  /tmp/ccUjHtTp.s 			page 22


 286 048e AC03AC61 		.ascii	"\254\003\254a]\3411,?\213'\260\206\305\327\337\016\332"
 286      5DE1312C 
 286      3F8B27B0 
 286      86C5D7DF 
 286      0EDA
 287 04a0 F4945326 		.ascii	"\364\224S&bq\211qR\314f\033Y\022n8\026\305Q\037\261"
 287      62718971 
 287      52CC661B 
 287      59126E38 
 287      16C5511F 
 288 04b5 17E30C47 		.ascii	"\027\343\014G\353\250\277\371\003\256\261\223\227\377"
 288      EBA8BFF9 
 288      03AEB193 
 288      97FF
 289 04c3 16CDFA02 		.ascii	"\026\315\372\002\232\365*\227\351\310\301\0034\342\363"
 289      9AF52A97 
 289      E9C8C103 
 289      34E2F3
 290 04d2 756A576B 		.ascii	"ujWk@\250\015\031C\325\214\\\363$\362t\025\201\266\270"
 290      40A80D19 
 290      43D58C5C 
 290      F324F274 
 290      1581B6B8 
 291 04e6 8C5DCD67 		.ascii	"\214]\315g\350j>\275\351\373\262R\0315\012\374\273_"
 291      E86A3EBD 
 291      E9FBB252 
 291      19350AFC 
 291      BB5F
 292 04f8 CE654F3F 		.ascii	"\316eO?\261\335b\237\213\303\226Z\262x\002kK\267\336"
 292      B1DD629F 
 292      8BC3965A 
 292      B278026B 
 292      4BB7DE
 293 050b 2D14C9C6 		.ascii	"-\024\311\306\236.8\350\355\215\254X\007\035\213\025"
 293      9E2E38E8 
 293      ED8DAC58 
 293      071D8B15 
 294 051b 60C54ADF 		.ascii	"`\305J\337E\354F\326\241v\"\251q\204q\244\314H\344\327"
 294      45EC46D6 
 294      A17622A9 
 294      718471A4 
 294      CC48E4D7 
 295 052f 2546E423 		.ascii	"%F\344#<\"\267\262l\311[\023y\244\235\310{\177F\221"
 295      3C22B7B2 
 295      6CC95B13 
 295      79A49DC8 
 295      7B7F4691 
 296 0543 DF66453E 		.ascii	"\337fE>\341X\344\200\240\377h]J\026\327\213\277\006"
 296      E158E480 
 296      A0FF685D 
 296      4A16D78B 
 296      BF06
 297 0555 BA13E97E 		.ascii	"\272\023\351~\244'\220\236Fz\023\351\020\211\320\267"
 297      A427909E 
 297      467A13E9 
 297      1089D0B7 
 298 0565 80A6E573 		.ascii	"\200\246\345s-k\215?!\237\2533\214\365\224\304\315\215"
ARM GAS  /tmp/ccUjHtTp.s 			page 23


 298      2D6B8D3F 
 298      219FAB33 
 298      8CF594C4 
 298      CD8D
 299 0577 39A3646D 		.ascii	"9\243dm\016\343M\343\267\276:\274MD\2775A\"\363\260"
 299      0EE34DE3 
 299      B7BE3ABC 
 299      4D44BF35 
 299      4122F3B0 
 300 058b 796ED379 		.ascii	"yn\323y\2305\214$\254\304*\223$\303\004\247z\350]d\202"
 300      98358C24 
 300      ACC42A93 
 300      24C304A7 
 300      7AE85D64 
 301 05a0 43CAD34F 		.ascii	"C\312\323OpV\016\235f9\015c'W3E\355\336w%EH\034\270"
 301      70560E9D 
 301      66390D63 
 301      27573345 
 301      EDDE7725 
 302 05b8 21066471 		.ascii	"!\006dq:\362_k\316\2775\206$\354\305*\357\032\371\277"
 302      3AF25F6B 
 302      CEBF3586 
 302      24ECC52A 
 302      EF1AF9BF 
 303 05cc 28076869 		.ascii	"(\007hiz\356\033N\340\364L\026\247\201\271I\302\261"
 303      7AEE1B4E 
 303      E0F44C16 
 303      A781B949 
 303      C2B1
 304 05de 246046B1 		.ascii	"$`F\261z\342zxS\353\264\212pk@\235Sm9f\362\006\332\226"
 304      7AE27A78 
 304      53EBB48A 
 304      706B409D 
 304      536D3966 
 305 05f6 735117A7 		.ascii	"sQ\027\2479t\241\203\221\204\006\254\362\221A\027\365"
 305      3974A183 
 305      918406AC 
 305      F2914117 
 305      F5
 306 0607 634FD6FF 		.ascii	"cO\326\377\242JQZ\322?\245W\3105\2659eq\016jd\271G\203"
 306      A24A515A 
 306      D23FA557 
 306      C835B539 
 306      65710E6A 
 307 061f CD4C2337 		.ascii	"\315L#7k\301\2425\260\032\307`\001\035\330\330\215S"
 307      6BC1A235 
 307      B01AC760 
 307      011DD8D8 
 307      8D53
 308 0631 9139FEB1 		.ascii	"\2219\376\261\375\354\316\255Zp\277D\3020\301c\034\335"
 308      FDECCEAD 
 308      5A70BF44 
 308      C230C163 
 308      1CDD
 309 0643 1B8C73CC 		.ascii	"\033\214s\314\364\003\260$|\311#\211e\220I\232e\373"
 309      F403B024 
 309      7CC92389 
ARM GAS  /tmp/ccUjHtTp.s 			page 24


 309      6590499A 
 309      65FB
 310 0655 032BC111 		.ascii	"\003+\301\021\017\367rt\323]x\263\025\306\246m8\275"
 310      0FF77274 
 310      D35D78B3 
 310      15C6A66D 
 310      38BD
 311 0667 FD77B469 		.ascii	"\375w\264iWp5mu\335D\276\236\352\325n_\204\267\037\357"
 311      5770356D 
 311      75DD44BE 
 311      9EEAD56E 
 311      5F84B71F 
 312 067c 25B7AF69 		.ascii	"%\267\257ibY\347\217?Eo_\303u\373\303\333\3065\275\275"
 312      6259E78F 
 312      3F456F5F 
 312      C375FBC3 
 312      DBC635BD 
 313 0691 2C3E75B7 		.ascii	",>u\267]\3735\234>\363\360\014\274\311:\264\240\303"
 313      5DFB359C 
 313      3EF3F00C 
 313      BCC93AB4 
 313      A0C3
 314 06a3 5E63F33D 		.ascii	"^c\363=\315NK\265`\233\211\241\217'\271\317\310\200"
 314      CD4E4BB5 
 314      609B89A1 
 314      8F27B9CF 
 314      C880
 315 06b5 41CCC4D3 		.ascii	"A\314\304\323\037bKi<\374\3151\242\336\212\317m\303"
 315      1F624B69 
 315      3CFCCD31 
 315      A2DE8ACF 
 315      6DC3
 316 06c7 2E41C1CE 		.ascii	".A\301\316\360\200Y\317V\022\027X\260\013\216\301\364"
 316      F08059CF 
 316      56121758 
 316      B00B8EC1 
 316      F4
 317 06d8 9C5D62C1 		.ascii	"\234]b\301.\363\200Y\007\214\211\313,\330u\307`z\316"
 317      2EF38059 
 317      078C89CB 
 317      2CD875C7 
 317      607ACE
 318 06eb AEB2608A 		.ascii	"\256\262`\212\217\003\314:\000J\\g\301\2068\006\323"
 318      8F03CC3A 
 318      004A5C67 
 318      C1863806 
 318      D3
 319 06fc 73769305 		.ascii	"sv\223\005{\203\007,`\315\331\250\235\014\330[\216\301"
 319      7B83072C 
 319      60CDD9A8 
 319      9D0CD85B 
 319      8EC1
 320 070e F49C8D61 		.ascii	"\364\234\215a\301F\361\200=l\315\3318\026l\234c0=g\023"
 320      C146F180 
 320      3D6CCDD9 
 320      38166C9C 
 320      63303D67 
ARM GAS  /tmp/ccUjHtTp.s 			page 25


 321 0723 58B02A1E 		.ascii	"X\260*\036\260\326\326\234U\261`S\035\203\3519\233\314"
 321      B0D6D69C 
 321      55B16053 
 321      1D83E939 
 321      9BCC
 322 0735 82CDE401 		.ascii	"\202\315\344\001ko\315\331T\026\354}\307`z\316\026\262"
 322      6B6FCDD9 
 322      5416EC7D 
 322      C7607ACE 
 322      16B2
 323 0747 607379C0 		.ascii	"`sy\300\236\261\346l1\013\366\221c0=gKY\260\005<`\335"
 323      9EB1E66C 
 323      310BF691 
 323      63303D67 
 323      4B59B005 
 324 075e AC395BCE 		.ascii	"\2549[\316\202-r\014\246\347l\005\013\266\224\007,\317"
 324      822D720C 
 324      A6E76C05 
 324      0BB69407 
 324      2CCF
 325 0770 9AB3552C 		.ascii	"\232\263U,X\265c0=gkX\260U<`\177\266\346l-\013\266\326"
 325      58B56330 
 325      3D676B58 
 325      B0553C60 
 325      7FB6E66C 
 326 0788 31989EB3 		.ascii	"1\230\236\263\355,\330g<`/\233p\226\374\230\325#\303"
 326      ED2CD867 
 326      3C602F9B 
 326      7096FC98 
 326      D523C3
 327 079b F41A767A 		.ascii	"\364\032vz\367\271O\013p\034\216\321B\012c\263\317i"
 327      F7B94F0B 
 327      701C8ED1 
 327      420A63B3 
 327      CF69
 328 07ad 44A6939B 		.ascii	"D\246\223\233\004\312\017\254R\307y\032\255n\343A\264"
 328      04CA0FAC 
 328      52C7791A 
 328      AD6EE341 
 328      B4
 329 07be 1900276F 		.ascii	"\031\000'odB\337\275\216\301\014\246L\300\234>\362\221"
 329      6442DFBD 
 329      8EC10CA6 
 329      4CC09C3E 
 329      F291
 330 07d0 C5F7F109 		.ascii	"\305\367\361\011\316{\206G!\226\217\340\2334\323u\266"
 330      CE7B8647 
 330      21968FE0 
 330      9B34D375 
 330      B6
 331 07e1 990EF3C8 		.ascii	"\231\016\363\310`3\356\036\3368\365^\245>!\362?\037"
 331      6033EE1E 
 331      DE38F55E 
 331      A53E21F2 
 331      3F1F
 332 07f3 3A3B668B 		.ascii	":;f\213\026\276+.\022\276\037\363\031\343\277:\207\217"
 332      16BE2B2E 
ARM GAS  /tmp/ccUjHtTp.s 			page 26


 332      12BE1FF3 
 332      19E3BF3A 
 332      878F
 333 0805 8860926E 		.ascii	"\210`\222n\024Cw\347\264#>X\312\276\007W.P\224\301^"
 333      144377E7 
 333      B4233E58 
 333      CABE0757 
 333      2E5094C1 
 334 081a 0782ECFC 		.ascii	"\007\202\354\374R\023\344u\024\244\341g\020\244\321"
 334      5213E475 
 334      14A4E167 
 334      10A4D1
 335 0829 B1200F1B 		.ascii	"\261 \017\033\004I<\354\\\220d\213\274\211\202\014\363"
 335      04493CEC 
 335      5C90648B 
 335      BC89820C 
 335      F3
 336 083a DFBA20EF 		.ascii	"\337\272 \357\370\235\012\322\232\021\004gS\217\320"
 336      F89D0AD2 
 336      9A110467 
 336      538FD0
 337 0849 D9D49DC2 		.ascii	"\331\324\235\302\030\373\331\024\341\347\035\327\235"
 337      18FBD914 
 337      E1E71DD7 
 337      9D
 338 0856 FA0583AF 		.ascii	"\372\005\203\257\277 \313\020\2448\3354FI4|1U\235 \323"
 338      BF20CB10 
 338      A438DD34 
 338      4649347C 
 338      31559D20 
 339 086b A7451390 		.ascii	"\247E\023\220wR\327\241\357R\361\306\325\241\227\240"
 339      7752D7A1 
 339      EF52F1C6 
 339      D5A197A0 
 340 087b 60D36E09 		.ascii	"`\323n\011lPb\311\010m\366\3764q:\037\334\"\334\216"
 340      6C5062C9 
 340      086DF6FE 
 340      34713A1F 
 340      DC22DC8E 
 341 088f 3AC7F3ED 		.ascii	":\307\363\3551\2735\363\250B\363\370\270\211yd4\337"
 341      31BB35F3 
 341      A842F3F8 
 341      B8897964 
 341      34DF
 342 08a1 5E99A924 		.ascii	"^\231\251$\311\217$$\214V\346(8'Vv\371\021\3169\273"
 342      C98F2424 
 342      8C56E628 
 342      38275676 
 342      F911CE39 
 343 08b6 F690627F 		.ascii	"\366\220b\177\355@q\010jc\272\213\254\353l0h\203g\362"
 343      ED407108 
 343      6A63BA8B 
 343      ACEB6C30 
 343      688367F2 
 344 08ca 8F55DE75 		.ascii	"\217U\336u5Y\327\331~\037\235}\223?qL\376u\353:\262"
 344      3559D7D9 
 344      7E1F9D7D 
ARM GAS  /tmp/ccUjHtTp.s 			page 27


 344      933F714C 
 344      FE75EB3A 
 345 08df F88924A9 		.ascii	"\370\211$\251\260\231*T\327\206)\376`Lq\2211\347}\027"
 345      B0992A54 
 345      D78629FE 
 345      604C7191 
 345      31E77D17 
 346 08f3 B3782A09 		.ascii	"\263x*\011\3379V~\200U~\342Z\335T\221\360o\262^\361"
 346      DF39567E 
 346      80557EE2 
 346      5ADD5491 
 346      F06FB25E 
 347 0908 0C3BBA27 		.ascii	"\014;\272'\2373m\035\255j~\016j\376G\013\315?c\005$"
 347      9F336D1D 
 347      AD6A7E0E 
 347      6AFE470B 
 347      CD3F6305 
 348 091d 0937B0CA 		.ascii	"\0117\260\312\274\246\232\337t?\325\374<.\315\3571\325"
 348      BCA69ADF 
 348      743FD5FC 
 348      3C2ECDEF 
 348      31D5
 349 092f FC3CE79A 		.ascii	"\374<\347\232W\361\276J\255\250\311\342\"\307`\001\273"
 349      57F1BE4A 
 349      ADA8C9E2 
 349      22C76001 
 349      BB
 350 0940 669CC734 		.ascii	"f\234\3074\343|l\306\217]d%|\201\2761Gf\031\032S\247"
 350      E37C6CC6 
 350      8F5D6425 
 350      7C81BE31 
 350      4766191A 
 351 0956 39356B39 		.ascii	"95k9\231T\022c\267\352}\350$#\236\303)\340\364\255\250"
 351      99541263 
 351      B7EA7DE8 
 351      24239EC3 
 351      29E0F4AD 
 352 096b 12EA7166 		.ascii	"\022\352qf8\006\013\350\300jF\362-h+\311\305\350\226"
 352      38060BE8 
 352      C06A46F2 
 352      2D682BC9 
 352      C5E896
 353 097e A8947978 		.ascii	"\250\224yx\337\345Fs\331\361\321\216a\342@\264\304\345"
 353      DFE54673 
 353      D9F1D18E 
 353      61E240B4 
 353      C4E5
 354 0990 1CF60203 		.ascii	"\034\366\002\003\314\321,\\\221\246v\373}\022\325F\325"
 354      CCD12C5C 
 354      91A676FB 
 354      7D12D546 
 354      D5
 355 09a1 36D6724D 		.ascii	"6\326rM[\340\246a\350\337\214pi\243d=\334M\216\005n"
 355      5BE0A661 
 355      E8DF8C70 
 355      69A3643D 
 355      DC4D8E05 
ARM GAS  /tmp/ccUjHtTp.s 			page 28


 356 09b6 BD62B495 		.ascii	"\275b\264\225\376\225d\210\375\024e\272\220e\034\023"
 356      FE956488 
 356      FD1465BA 
 356      90651C13 
 357 09c6 A8661843 		.ascii	"\250f\030C\\\316\030\342\0124\304\225h\210\253\221\326"
 357      5CCE18E2 
 357      0A34C495 
 357      6888AB91 
 357      D6
 358 09d7 B0E66835 		.ascii	"\260\346h5\312\257u1\241\353u\307r\007\014\255cu\233"
 358      CAAF7531 
 358      A1EB75C7 
 358      72070CAD 
 358      63759B
 359 09ea 65EC6D06 		.ascii	"e\354m\0067\343\260=\353\025\003\342\325\177\277R\235"
 359      37E3B03D 
 359      EB1503E2 
 359      D57FBF52 
 359      9D
 360 09fb 84D0F5EA 		.ascii	"\204\320\365\352\267\035#\352\255\371\354H]DP\305\003"
 360      B71D23EA 
 360      ADF9EC48 
 360      5D4450C5 
 360      03
 361 0a0c F78C0983 		.ascii	"\367\214\011\203f\037\366q\003x\012\2114\323\002|r\266"
 361      661FF671 
 361      03780A89 
 361      34D3027C 
 361      72B6
 362 0a1e 10E962A4 		.ascii	"\020\351b\244\325H\033\220^Az\015i#\322!\330\240\303"
 362      D5481B90 
 362      5E417A0D 
 362      6923D221 
 362      D8A0C3
 363 0a31 918E443A 		.ascii	"\221\216D:\015\351\007H\027\"]\214t)\322\015Hky\014"
 363      0DE90748 
 363      17225D8C 
 363      7429D20D 
 363      486B790C 
 364 0a45 807A4866 		.ascii	"\200zHf)xf3\247Owt\272\254\337;c\303hq\354`eSk\315\327"
 364      29786633 
 364      A74F7774 
 364      BAACDF3B 
 364      63C36871 
 365 0a60 CCE741B4 		.ascii	"\314\347A\264\351N\343\210/w\3624#\031]}\211\367_\336"
 365      E94EE388 
 365      2F77F234 
 365      23195D7D 
 365      89F75FDE 
 366 0a74 EC6789AE 		.ascii	"\354g\211\256\326;\026\303\250\230\332\244b(c_\362 "
 366      D63B16C3 
 366      A898DAA4 
 366      6228635F 
 366      F220
 367 0a86 9ACD9DCD 		.ascii	"\232\315\235\315\355\354]\306\316\336C;{\037\255\347"
 367      EDEC5DC6 
 367      CEDE433B 
ARM GAS  /tmp/ccUjHtTp.s 			page 29


 367      7B1FADE7 
 368 0a96 03A49BD1 		.ascii	"\003\244\233\321&\352\220n\347\261\214i\354\254\366"
 368      26EA906E 
 368      E7B18C69 
 368      ECACF6
 369 0aa5 AB66DA43 		.ascii	"\253f\332C\320\237%\022\232\304\260:\005Y\235*\351\006"
 369      D09F2512 
 369      9AC4B03A 
 369      05599D2A 
 369      E906
 370 0ab7 CF43CD9C 		.ascii	"\317C\315\234>#\326+\273\246\266\261\315D%1\320\345"
 370      3E23D62B 
 370      BBA6B6B1 
 370      CD442531 
 370      D0E5
 371 0ac9 1386D22D 		.ascii	"\023\206\322-\325\203\322L\332\022W\275\222,\356\201"
 371      D583D24C 
 371      DA1257BD 
 371      922CEE81 
 372 0ad9 0A309E18 		.ascii	"\0120\236\030,\206\003\204H\265\017*\353\246L\347\207"
 372      2C860384 
 372      48B50F2A 
 372      EBA64CE7 
 372      87
 373 0aea B620CF88 		.ascii	"\266 \317\210I\271\315\220\206O\376%\341t3:$\270\263"
 373      49B9CD90 
 373      864FFE25 
 373      E174333A 
 373      24B8B3
 374 0afd 52659753 		.ascii	"Re\227Se\"s\251\222\235,fw\227\333n\364L1'\213_\343"
 374      652273A9 
 374      929D2C66 
 374      7797DB6E 
 374      F44C3127 
 375 0b14 60B1DFE5 		.ascii	"`\261\337\3452\255&\011\303\263\015\3327\233jZ?\270"
 375      32AD2609 
 375      C3B30DDA 
 375      379B6A5A 
 375      3FB8
 376 0b26 4B346E24 		.ascii	"K4n$\243\263\331S\263\344\346\341\337$\025_\377\351"
 376      A3B3D953 
 376      B3E4E6E1 
 376      DF24155F 
 376      FFE9
 377 0b38 AA130FCC 		.ascii	"\252\023\017\314\307X\361\010\216|\265\331\351\237\353"
 377      C758F108 
 377      8E7CB5D9 
 377      E99FEB
 378 0b47 9AE02446 		.ascii	"\232\340$F\327>@\264}\024Av;\005\221\204\303X\345\270"
 378      D73E40B4 
 378      7D144176 
 378      3B059184 
 378      C358E5B8 
 379 0b5b 213649D4 		.ascii	"!6I\324\014\305\235\314\307\271\342\222Oki\004\256E"
 379      0CC59DCC 
 379      C7B9E292 
 379      4F6B6904 
ARM GAS  /tmp/ccUjHtTp.s 			page 30


 379      AE45
 380 0b6d 26C79398 		.ascii	"&\307\223\230\231E&\333i\034Kw\336\2373\2029t\244\273"
 380      994526DB 
 380      691C4B77 
 380      DE9F3382 
 380      3974A4BB 
 381 0b81 924136D9 		.ascii	"\222A6\331\203\002\343\275c<]'K\354\246\314Q\260\327"
 381      8302E3BD 
 381      633C5D27 
 381      4BECA6CC 
 381      51B0D7
 382 0b94 7338C06C 		.ascii	"s8\300l\026\002\367\261`#\034\203\3519\333\317\202\215"
 382      1602F7B1 
 382      60231C83 
 382      E939DBCF 
 382      828D
 383 0ba6 E501B359 		.ascii	"\345\001\263Y\221;X;\265i\254k\330\015d\361\200\226"
 383      913B583B 
 383      B569AC6B 
 383      D80D64F1 
 383      8096
 384 0bb8 18CC1597 		.ascii	"\030\314\025\227n3\220\341\311\356Q\013\266H\315k\251"
 384      6E3390E1 
 384      C9EE510B 
 384      B648CD6B 
 384      A9
 385 0bc9 A829ED6E 		.ascii	"\250)\355n \265\017L\244\273R.\273\210\340Sr\364}\300"
 385      20B50F4C 
 385      A4BB522E 
 385      BB88E053 
 385      72F47DC0 
 386 0bdd 706BC298 		.ascii	"pk\302\230\325\255o\272\262-l\275\311\337$a\266c\005"
 386      D5AD6FBA 
 386      B22D6CBD 
 386      C9DF2461 
 386      B66305
 387 0bf0 EB5BEBF0 		.ascii	"\353[\353\360P]\370\265\200\007.`\322^f\037\266C\313"
 387      505DF8B5 
 387      80072E60 
 387      D25E661F 
 387      B643CB
 388 0c03 E249747C 		.ascii	"\342It|\247p\020\374\021\351OH\317\"=\217\364\"\322"
 388      A77010FC 
 388      11E94F48 
 388      CF223D8F 
 388      F422D2
 389 0c16 06A48AFB 		.ascii	"\006\244\212\373\327\177oTIX\226c\360\266z\307\224\256"
 389      D77F6F54 
 389      49589663 
 389      F0B67AC7 
 389      94AE
 390 0c28 1F2A38D8 		.ascii	"\037*8\330\015$\273\016\371=\356\216_Q\217;\304M\274"
 390      0D24BB0E 
 390      F93DEE8E 
 390      5F518F3B 
 390      C44DBC
 391 0c3b D41A83A1 		.ascii	"\324\032\203\241P\263\374{\311[\307%\257\345L6)\357"
ARM GAS  /tmp/ccUjHtTp.s 			page 31


 391      50B3FC7B 
 391      C95BC725 
 391      AFE54C36 
 391      29EF
 392 0c4d 4017FBEA 		.ascii	"@\027\373\352\020\263-_I\032\214\242\331\363p\267\323"
 392      10B32D5F 
 392      491A8CA2 
 392      D9F370B7 
 392      D3
 393 0c5e 7787DE74 		.ascii	"w\207\336t[\274\317\345J\012\262\323(\210\341\306j\336"
 393      5BBCCFE5 
 393      4A0AB2D3 
 393      2888E1C6 
 393      6ADE
 394 0c70 F20917E9 		.ascii	"\362\011\027\351\214\212\313K\271\223\204=|p\333\335"
 394      8C8ACB4B 
 394      B993843D 
 394      7C70DBDD 
 395 0c80 567866BB 		.ascii	"Vxf\273\026ML\242>9\365| e\022g\216]\031\256\316\300"
 395      164D4CA2 
 395      3E39F57C 
 395      20651267 
 395      8E5D19AE 
 396 0c96 47A14D8C 		.ascii	"G\241M\214\273-\355\000\252\007\"J\033\3536\014\236"
 396      BB2DED00 
 396      AA07224A 
 396      1BEB360C 
 396      9E
 397 0ca7 D38E6CA2 		.ascii	"\323\216l\242[\266\310_\322\014\237C\006'\026\035\331"
 397      5BB6C85F 
 397      D20C9F43 
 397      0627161D 
 397      D9
 398 0cb8 24E1FE59 		.ascii	"$\341\376Yl\247\301\266\341>x9|n\303\023\273\317Ba\010"
 398      6CA7C1B6 
 398      E13E7839 
 398      7C6EC313 
 398      BBCF4261 
 399 0ccd 0F0EC357 		.ascii	"\017\016\303W\225\257\305D\014\262@0\001C\256\331\216"
 399      95AFC544 
 399      0CB24030 
 399      0143AED9 
 399      8E
 400 0cde E1023AB8 		.ascii	"\341\002:\270\245z\270\271<pV\343:\300-\327\303\315"
 400      A57AB8B9 
 400      3C7056E3 
 400      3AC02DD7 
 400      C3CD
 401 0cf0 770CA7E7 		.ascii	"w\014\247\347n\205\036n!\017\234\325\300\016p\253\364"
 401      6E851E6E 
 401      210F9CD5 
 401      C00E70AB 
 401      F4
 402 0d01 704B1DC3 		.ascii	"pK\035\303\351\271[\243\207[\301\003g6\270\233}X\003"
 402      E9B95BA3 
 402      875BC103 
 402      6736B89B 
ARM GAS  /tmp/ccUjHtTp.s 			page 32


 402      7D5803
 403 0d14 96C5716E 		.ascii	"\226\305qnb^\343\335\304\205U!\235\214t*\322\351Hg\""
 403      625EE3DD 
 403      C4855521 
 403      9D8C742A 
 403      D2E94867 
 404 0d29 9DC53A38 		.ascii	"\235\305:8+\207\362\216\233\231O\325\334\3061\277\331"
 404      2B87F28E 
 404      9B994FD5 
 404      DCC631BF 
 404      D9
 405 0d3a 6EBBD6A2 		.ascii	"n\273\326\242\343;\365\226\240,\256\301nQ\203{t\307"
 405      E33BF596 
 405      A02CAEC1 
 405      6E51837B 
 405      74C7
 406 0d4c E3DC6F37 		.ascii	"\343\334o7\272\341o\221\016F\216\337@\372\026\322\221"
 406      BAE16F91 
 406      0E468EDF 
 406      40FA16D2 
 406      91
 407 0d5d 3CDC573B 		.ascii	"<\334W;{\245\266*\271=.\244\002|\340\330\003\317\261"
 407      7BA5B62A 
 407      B93D2EA4 
 407      027CE0D8 
 407      03CFB1
 408 0d70 F0C0BDD2 		.ascii	"\360\300\275\322\260:;\245\350\007\205\351J\342L\375"
 408      B03A3BA5 
 408      E80785E9 
 408      4AE24CFD 
 409 0d80 C4D3275A 		.ascii	"\304\323'Z}DV\214\224\233\215\257\015\034$\032\2027"
 409      7D44568C 
 409      949B8DAF 
 409      0D1C241A 
 409      8237
 410 0d92 B7350F1F 		.ascii	"\2675\017\037\272\255\2037\336\007\034\207\177:{\037"
 410      BAAD8337 
 410      DE071C87 
 410      7F3A7B1F 
 411 0da2 5D8F988F 		.ascii	"]\217\230\217\236\365\223\346\016\237o\020F>1z\326e"
 411      9EF593E6 
 411      0E9F6F10 
 411      463E317A 
 411      D665
 412 0db4 B5382DF9 		.ascii	"\2658-\371$\275_\205\010ke\355|\356\327@\015+\266\033"
 412      24BD5F85 
 412      086B65ED 
 412      7CEED740 
 412      0D2BB61B 
 413 0dc8 9A9BBF06 		.ascii	"\232\233\277\006\252\273L\026\227\272\311\032\3732#"
 413      AABB4C16 
 413      97BAC91A 
 413      FB3223
 414 0dd7 9763E9E4 		.ascii	"\227c\351\344i\031\027\227\343k\325e\330\015\370\216"
 414      69191797 
 414      E36BD565 
 414      D80DF88E 
ARM GAS  /tmp/ccUjHtTp.s 			page 33


 415 0de7 CF0E5183 		.ascii	"\317\016Q\203\314\300ik\203!}\241\016\246\274\216\301"
 415      CCC0696B 
 415      83217DA1 
 415      0EA6BC8E 
 415      C1
 416 0df8 02666007 		.ascii	"\002f`\007\020\3548\017\230\365DL\003\243\2572\375\350"
 416      10EC380F 
 416      98F5444C 
 416      03A3AF32 
 416      FDE8
 417 0e0a 182C6050 		.ascii	"\030,`P_j\333~5v\350\025HW\"]\305\323\271\027\273\231"
 417      5F6ADB7E 
 417      3576E815 
 417      4857225D 
 417      C5D3B917 
 418 0e20 89C6387C 		.ascii	"\211\3068|Z\362\211s\265\233}X\303\225\305\205\350Q"
 418      5AF28973 
 418      B59B7D58 
 418      C395C585 
 418      E851
 419 0e32 17F1B0F4 		.ascii	"\027\361\260\364Q\212\245\344\233\021\314>\013\362\221"
 419      518AA5E4 
 419      9B11CC3E 
 419      0BF291
 420 0e41 846F0C3D 		.ascii	"\204o\014=\3517\302{\2122\006\273\373I\242c\012#\011"
 420      E937C27B 
 420      8A3206BB 
 420      FB49A263 
 420      0A2309
 421 0e54 47F1BAB9 		.ascii	"G\361\272\271\356\007-\002\011\274\031\255\254L\204"
 421      EE072D02 
 421      09BC19AD 
 421      AC4C84
 422 0e63 A9A348EF 		.ascii	"\251\243H\357%\011'\322TT9\372Ga6\351\037{\277\317\353"
 422      250927D2 
 422      545439FA 
 422      476136E9 
 422      1F7BBFCF 
 423 0e78 A6AEDF58 		.ascii	"\246\256\337XWR\345[\343\326\235fB\034\325\314\372\372"
 423      5752E55B 
 423      E3D69D66 
 423      421CD5CC 
 423      FAFA
 424 0e8a D50D2BBD 		.ascii	"\325\015+\275$\376Q\032\033_\023\370\247\230\353\323"
 424      24FE511A 
 424      1B5F13F8 
 424      A798EBD3 
 425 0e9a 7B29DD9C 		.ascii	"{)\335\234\240\271\006\360=\263i\241\241\341\304C\030"
 425      A0B906F0 
 425      3DB369A1 
 425      A1E1C443 
 425      18
 426 0eab AAD5A297 		.ascii	"\252\325\242\227\032\336\"\375\002\212\036\207p\262"
 426      1ADE22FD 
 426      028A1E87 
 426      70B2
 427 0eb9 D9E800AE 		.ascii	"\331\350\000\256\025\005hi\372\356\337xY\035\331\351"
ARM GAS  /tmp/ccUjHtTp.s 			page 34


 427      15056869 
 427      FAEEDF78 
 427      591DD9E9 
 428 0ec9 BB6A1390 		.ascii	"\273j\023\220\201\315\031v\177%1\372\204_\031\232\243"
 428      81CD1976 
 428      7F2531FA 
 428      845F199A 
 428      A3
 429 0eda 8D4FAD74 		.ascii	"\215O\255t\303S\236V\277\231\312\367V\307\243\3236\213"
 429      C3539E56 
 429      BF99CAF7 
 429      56C7A3D3 
 429      368B
 430 0eec D1496343 		.ascii	"\321IcC\022&\031\005\320\3355\235\313\001\3379;\013"
 430      12261905 
 430      D0DD359D 
 430      CB01DF39 
 430      3B0B
 431 0efe 04D0F4CE 		.ascii	"\004\320\364\316,<nJ\036\215\360d\262\371\022{\374\222"
 431      2C3C6E4A 
 431      1E8DF064 
 431      B2F9127B 
 431      FC92
 432 0f10 2CEEC4A6 		.ascii	",\356\304\246\233n\321t\226\020D\236=\306\226[IZn\017"
 432      9B6ED174 
 432      9610449E 
 432      3DC6965B 
 432      495A6E0F 
 433 0f24 47CB2989 		.ascii	"G\313)\211\232\343\326\252\326\017\024\270\022\351X"
 433      9AE3D6AA 
 433      D60F14B8 
 433      12E958
 434 0f33 D75F5BE8 		.ascii	"\327_[\350Z{+P\022\346\241\310{R\272\326\3376\275\265"
 434      5A7B2B50 
 434      12E6A1C8 
 434      7B52BAD6 
 434      DF36BDB5 
 435 0f47 AC7557B5 		.ascii	"\254uW\265\246\254I\302\022.0\313\265,%\261\035\300"
 435      A6AC49C2 
 435      122E30CB 
 435      B52C25B1 
 435      1DC0
 436 0f59 CCB5D15F 		.ascii	"\314\265\321_\317\272,\036r\254\214\303\026\312h\236"
 436      CFBA2C1E 
 436      72AC8CC3 
 436      16CA689E 
 437 0f69 54468D91 		.ascii	"TF\215\221\177\335]\325l\300\232\375\235\250\213\255"
 437      7FDD5DD5 
 437      6CC09AFD 
 437      9DA88BAD 
 438 0f79 A88B5A23 		.ascii	"\250\213Z#\226\231\021\353\236b\26773\024\241\211\225"
 438      969911EB 
 438      9E62B737 
 438      3314A189 
 438      95
 439 0f8a C9E25738 		.ascii	"\311\342W8\032\354\305a\352\000\322\203H\277\325/\027"
 439      1AECC561 
ARM GAS  /tmp/ccUjHtTp.s 			page 35


 439      EA00D283 
 439      48BFD52F 
 439      17
 440 0f9b 6C337623 		.ascii	"l3v#\275"
 440      BD
 441 0fa0 ED9A0D90 		.ascii	"\355\232\015\220\272\215O\211q\236dk\314|F\337\034\317"
 441      BA8D4F89 
 441      719E646B 
 441      CC7C46DF 
 441      1CCF
 442 0fb2 E8ABCBE2 		.ascii	"\350\253\313\342Q\307\315q\314\2429|I\001v\031\005\320"
 442      51C7CD71 
 442      CCA2397C 
 442      49017619 
 442      05D0
 443 0fc4 DD55CD3E 		.ascii	"\335U\315>c\242B\225\377\011\036\322\034G\2619\016\360"
 443      63A24295 
 443      FF091ED2 
 443      1C47B139 
 443      0EF0
 444 0fd6 6075B3C6 		.ascii	"`u\263\306\252b\260\276\347\301\312\263\306\232\314"
 444      AA62B0BE 
 444      E7C1CAB3 
 444      C69ACC
 445 0fe5 609DE1C1 		.ascii	"`\235\341\301\372\2635\326T\006\353*\017\326\313\326"
 445      FAB335D6 
 445      5406EB2A 
 445      0FD6CBD6 
 446 0ff5 58D319AC 		.ascii	"X\323\031\254\241-9\260\372Xc"
 446      A12D39B0 
 446      FA5863
 447 1000 2D64B046 		.ascii	"-d\260F\363`UXc-f\260\246\361`\365\267\306Z\312`\315"
 447      F3605558 
 447      632D66B0 
 447      A6F160F5 
 447      B7C65ACA 
 448 1016 E5C15244 		.ascii	"\345\301RDk\260\352e\026\003\315\366\344\302\034\361"
 448      6BB0EA65 
 448      1603CDF6 
 448      E4C21CF1 
 449 1026 FEEA4073 		.ascii	"\376\352@s\221\0144Wp\240Y\3222\355@\243\207\300\230"
 449      910C3457 
 449      70A059D2 
 449      32ED40A3 
 449      87C098
 450 1039 C938D01C 		.ascii	"\3118\320\034 \003\315u\256\201\346\260\315@S\241w\204"
 450      2003CD75 
 450      AE81E6B0 
 450      CD4053A1 
 450      7784
 451 104b B2D8E8B8 		.ascii	"\262\330\350\270/+\036\363\276|[\262/\257G\211\257\247"
 451      2F2B1EF3 
 451      BE7C5BB2 
 451      2FAF4789 
 451      AFA7
 452 105d 74ADBB6B 		.ascii	"t\255\273k\372a\346\014\272\326Fl\267\317y\260l\374"
 452      FA61E60C 
ARM GAS  /tmp/ccUjHtTp.s 			page 36


 452      BAD6466C 
 452      B7CF79B0 
 452      6CFC
 453 106f DA39066B 		.ascii	"\3329\006k#\017\226\355\273\277\314\207m#Y\274\201n"
 453      230F96ED 
 453      BBBFCC87 
 453      6D2359BC 
 453      816E
 454 1081 FA26BAE6 		.ascii	"\372&\272\346A\036\334\216\340\3219\350\315F\373\323"
 454      411EDC8E 
 454      E0D139E8 
 454      CD46FBD3 
 455 1091 B7B99A7D 		.ascii	"\267\271\232}\303\306\000W\242\001jV\265\205\013o\205"
 455      C3C60057 
 455      A2016A56 
 455      B5850B6F 
 455      85
 456 10a2 0ECF6F27 		.ascii	"\016\317o'\315fF\232/P\232:\224f\013\322\035H\277Gz"
 456      CD66469A 
 456      2F509A3A 
 456      94660BD2 
 456      1D48BF47 
 457 10b7 1CE949A4 		.ascii	"\034\351I\244\177Cz\032\351\031\244\347\220^@z\011\351"
 457      7F437A1A 
 457      E919A4E7 
 457      905E407A 
 457      09E9
 458 10c9 65A4C33C 		.ascii	"e\244\303<\034\023\232\317\335\346\017s$a\207\241\027"
 458      1C139ACF 
 458      DDE60F73 
 458      246187A1 
 458      17
 459 10da A9B31898 		.ascii	"\251\263\030\230\013\364\200\271\200\233V\225\204o\361"
 459      0BF480B9 
 459      809B5695 
 459      846FF1
 460 10e9 B2CF2CE7 		.ascii	"\262\317,\347\"\352\015\324\271\310\333\312\353-E\234"
 460      22EA0DD4 
 460      B9C8DBCA 
 460      EB2D459C 
 461 10f9 34086A2D 		.ascii	"4\010j-\235J\206{L\246\037\211E\337\222\010\\\271\336"
 461      9D4A867B 
 461      4CA61F89 
 461      45DF9208 
 461      5CB9DE
 462 110c D8E812CC 		.ascii	"\330\350\022\314\016\212\341\330\372<\266n>=\273\342"
 462      0E8AE1D8 
 462      FA3CB66E 
 462      3E3DBBE2 
 463 111c 1D0F09E2 		.ascii	"\035\017\011\342\2773\310\306\017T\263U=ul\014\002\235"
 463      BF33C8C6 
 463      0F54B355 
 463      3D756C0C 
 463      029D
 464 112e 3400C9A2 		.ascii	"4\000\311\242\220\245\027I\320\257\003\303O\245Q\375"
 464      90A51749 
 464      D0AF03C3 
ARM GAS  /tmp/ccUjHtTp.s 			page 37


 464      4FA551FD 
 465 113e D0B356A0 		.ascii	"\320\263V\240\3445!\243:Vm:\322cx\317\237\264\001\347"
 465      E43521A3 
 465      3A566D3A 
 465      D26378CF 
 465      9FB401E7 
 466 1152 242C21B2 		.ascii	"$,!\262\335R\025z\357\234\317\206j;\203=\244/\014\274"
 466      DD52157A 
 466      EF9CCF86 
 466      6A3B833D 
 466      A42F0CBC 
 467 1166 3DED2C4C 		.ascii	"=\355,L\017$\011#\260\312\024\217\301\313\316 \357{"
 467      0F240923 
 467      B0CA148F 
 467      C1CBCE20 
 467      EF7B
 468 1178 93D2F413 		.ascii	"\223\322\364\023\261%W\022\242\362f\216\272\345F\031"
 468      B1255712 
 468      A2F2668E 
 468      BAE54619 
 469 1188 AA3C3C37 		.ascii	"\252<<7u;\335\001\204\311sF\252\377\005\333j\006\266"
 469      753BDD01 
 469      84C97346 
 469      AAFF05DB 
 469      6A06B6
 470 119b D5D8DB4D 		.ascii	"\325\330\333M\032\235\013\250f\344\034z\312\310,\004"
 470      1A9D0BA8 
 470      66E41C7A 
 470      CAC82C04 
 471 11ab 9A7ABBB1 		.ascii	"\232z\273\261\321]\206Fw\351\033\320\225\225\31246\272"
 471      D15D8646 
 471      77E91BD0 
 471      9595CA34 
 471      36BA
 472 11bd 0467174B 		.ascii	"\004g\027K\302\234\244\356\314\230L\347\336\007A\373"
 472      C29CA4EE 
 472      CC984CE7 
 472      DE0741FB 
 473 11cd ED5C268E 		.ascii	"\355\\&\216&{|\014\317Z\231q\252\351:\247\207Y\030\236"
 473      267B7C0C 
 473      CF5A9971 
 473      AAE93AA7 
 473      8759189E 
 474 11e1 67E4C0D9 		.ascii	"g\344\300\331:U\242\372\343\246G\251\361n?\034\377#"
 474      3A55A2FA 
 474      E3A647A9 
 474      F16E3F1C 
 474      FF23
 475 11f3 D97EF811 		.ascii	"\331~\370\021\032\336'\351\015\317\270R\270\006\253"
 475      1ADE27E9 
 475      0DCFB852 
 475      B806AB
 476 1202 2C301ADE 		.ascii	",0\032\336\371\227\003\264\224\343\240\201\013\2332"
 476      F99703B4 
 476      94E3A081 
 476      0B9B32
 477 1211 657EE68C 		.ascii	"e~\346\214\005\347$4\235%\310\377W\316\371?\204U\226"
ARM GAS  /tmp/ccUjHtTp.s 			page 38


 477      05E72434 
 477      9D25C8FF 
 477      57CEF93F 
 477      845596
 478 1224 1BF9DF43 		.ascii	"\033\371\337C\370_\316\305\377\3273\271\224?39\201y"
 478      F85FCEC5 
 478      FFD733B9 
 478      943F3339 
 478      8179
 479 1236 3465FA93 		.ascii	"4e\372\223>\371\354a\332\363W\243\000S\356H\277\376"
 479      3EF9EC61 
 479      DAF357A3 
 479      0053EE48 
 479      BFFE
 480 1248 A2C3C1ED 		.ascii	"\242\303\301\355\234M\230\337\210\353\257k\271\330?"
 480      9C4D98DF 
 480      88EBAF6B 
 480      B9D83F
 481 1257 386C46A6 		.ascii	"8lF\246\207\005\316\276\203\353\260\300\365\036\262"
 481      8705CEBE 
 481      83EBB0C0 
 481      F51EB2
 482 1266 B6B8C1C8 		.ascii	"\266\270\301\310\345\022zX\340\006..\227\245?,\220\034"
 482      E5127A58 
 482      E0062E2E 
 482      97A53F2C 
 482      901C
 483 1278 7169D5DB 		.ascii	"qi\325\3336\031}6\357\301S\033\331n\272\030[g\203\203"
 483      36197D36 
 483      EFC1531B 
 483      D96EBA18 
 483      5B678383 
 484 128c 6EAA1342 		.ascii	"n\252\023B[\001&\230\222\260\3261X\300\032\254\216\007"
 484      5B012698 
 484      92B0D631 
 484      58C01AAC 
 484      8E07
 485 129e 2CFDDA34 		.ascii	",\375\3324\005\333\345\030\314\204\263L[j\227IK%\363"
 485      05DBE518 
 485      CC84B34C 
 485      5B6A9749 
 485      4B25F3
 486 12b1 0D865373 		.ascii	"\015\206Ss\214\247\352488Eg\247\207\011\315\350\203"
 486      8CA7EA34 
 486      38384567 
 486      A78709CD 
 486      E883
 487 12c3 8234225B 		.ascii	"\2024\"[\357c\2725\221\367;\021\331xv\222\023\221\277"
 487      EF63BA35 
 487      91F73B11 
 487      D9787692 
 487      1391BF
 488 12d6 6645DEE1 		.ascii	"fE\336\341Xd\033\373;\304c2\267r\360\222\235\376\276"
 488      58641BFB 
 488      3BC46332 
 488      B772F092 
 488      9DFEBE
ARM GAS  /tmp/ccUjHtTp.s 			page 39


 489 12e9 B3D69FA9 		.ascii	"\263\326\237\251S\263|\261Eu\312\023\252\317\371pP\371"
 489      53B37CB1 
 489      4575CA13 
 489      AACFF970 
 489      50F9
 490 12fb 017DF2F4 		.ascii	"\001}\362\364;\315\237\334Y\302\020\026N\032\275]C8"
 490      3BCD9FDC 
 490      59C21016 
 490      4E1ABD5D 
 490      4338
 491 130d 404BD3FB 		.ascii	"@K\323\373\272+\2637\263K\342\013\360\376'3\365:\211"
 491      BA2BB337 
 491      B34BE20B 
 491      F0FE2733 
 491      F53A89
 492 1320 AB61B2F9 		.ascii	"\253a\262\371\230bU;\306\012\2301\252\331PJJY<\345!"
 492      9862553B 
 492      C60A9831 
 492      AAD9504A 
 492      4A593CE5 
 493 1335 73ACBFE1 		.ascii	"s\254\277\341\\\3614\317\334\350\230'[\007\306a\300"
 493      5CF134CF 
 493      DCE89827 
 493      5B07C661 
 493      C0
 494 1346 47586FFC 		.ascii	"GXo\374\351\235Nm\316(K\352\021Z-\262]\207t\013\322"
 494      E99D4E6D 
 494      CE284BEA 
 494      115A2DB2 
 494      5D87740B 
 495 135b 6D487720 		.ascii	"mHw \335\207\3640\322oyD[\347i\362hmm\246\355\0071\302"
 495      DD87F430 
 495      D26F7944 
 495      5BE769F2 
 495      686D6DA6 
 496 1373 D55F9D1F 		.ascii	"\325_\235\037\244T\265\346\336\325L,\330\213\026|\316"
 496      A454B5E6 
 496      DED54C2C 
 496      D88B167C 
 496      CE
 497 1384 4376366F 		.ascii	"Cv6o2X0\347\316\346\213\036\303\316\346\225\003\002"
 497      325830E7 
 497      CEE68B1E 
 497      C3CEE695 
 497      0302
 498 1396 B434FDBE 		.ascii	"\2644\375\276\346]w6\335\327|\350N\323}\315?\334\251"
 498      E65D7736 
 498      DDD77CE8 
 498      4ED37DCD 
 498      3FDCA9
 499 13a9 DFD7AC16 		.ascii	"\337\327\254\026\237K\025\273\230\342\201w%\213\335"
 499      9F4B15BB 
 499      98E28177 
 499      258BDD
 500 13b8 4CF1D854 		.ascii	"L\361\330T\261\207)\236\226*\3662\305\037\246\212}L"
 500      B187299E 
 500      962AF632 
ARM GAS  /tmp/ccUjHtTp.s 			page 40


 500      C51FA68A 
 500      7D4C
 501 13ca F1B254B1 		.ascii	"\361\262T\261\266\264@~\332\356\260N)I\026/a\027h\360"
 501      B6B4407E 
 501      DAEEB04E 
 501      2949162F 
 501      611768F0 
 502 13de 98EFB096 		.ascii	"\230\357\260\226\305z\227\301\022\314vX\033,+e\011\012"
 502      C57A97C1 
 502      12CC7658 
 502      1B2C2B65 
 502      090A
 503 13f0 5AC25805 		.ascii	"Z\302X\005\346\031\332Z\030\231d4\330=uy\323\353t5l"
 503      E619DA5A 
 503      18996434 
 503      D83D7579 
 503      D3EB7435 
 504 1405 84D77C35 		.ascii	"\204\327|5,\265\001n\335]\242^\012\323\007%\326\033"
 504      2CB5016E 
 504      DD5DA25E 
 504      0AD30725 
 504      D61B
 505 1417 C5C9A490 		.ascii	"\305\311\244\220\214\034\2047I\370\234\013-\335\320"
 505      8C1C8437 
 505      49F89C0B 
 505      2DDDD0
 506 1426 A1F9B7CD 		.ascii	"\241\371\267\315F4\263\276fs\226K\3030\3537\334\014"
 506      4634B3BE 
 506      6673964B 
 506      C330EB37 
 506      DC0C
 507 1438 C1F0CB1A 		.ascii	"\301\360\313\032\\N\262\337%\256\324\212\001\223\200"
 507      5C4EB2DF 
 507      25AED48A 
 507      019380
 508 1447 58772938 		.ascii	"Xw)8\004\357Cfa\263\356*r\335\004\257a\014\371\224\356"
 508      04EF4366 
 508      61B3EE2A 
 508      72DD04AF 
 508      610CF994 
 509 145c FE20E5E9 		.ascii	"\376 \345\351G\221\275\234\247\317)\311\371D\353\244"
 509      4791BD9C 
 509      A7CF29C9 
 509      F944EBA4 
 510 146c 20F5BB8F 		.ascii	" \365\273\217\235\373\013:\220\311^2\004N\274;\375\274"
 510      9DFB0B3A 
 510      90C95E32 
 510      044EBC3B 
 510      FDBC
 511 147e 4A07238B 		.ascii	"J\007#\213S\275\304\326\247\031E\2708\005E\230\306%"
 511      53BDC4D6 
 511      A71945B8 
 511      38054598 
 511      C625
 512 1490 C28D03D3 		.ascii	"\302\215\003\323\361T\004~\3077\366\324g\367\323\371"
 512      F154047E 
 512      C737F6D4 
ARM GAS  /tmp/ccUjHtTp.s 			page 41


 512      67F7D3F9 
 513 14a0 D44C2FF1 		.ascii	"\324L/\361|\273\357\316\310\363\275\3475x\276e\364\235"
 513      7CBBEFCE 
 513      C8F3BDE7 
 513      3578BE65 
 513      F49D
 514 14b2 0E529EDE 		.ascii	"\016R\236\336\367\035\276\273\251\357;y\267\251\357"
 514      F71DBEBB 
 514      A9EF3B79 
 514      B7A9EF
 515 14c1 3B7FB7A9 		.ascii	";\177\267\251\357\273q\267\251\357{\343\036\275\357"
 515      EFBB71B7 
 515      A9EF7BE3 
 515      1EBDEF
 516 14d0 1338FC53 		.ascii	"\0238\374SJ\024Y|\337K\374\323l\257\275\177\"m\303\353"
 516      4A14597C 
 516      DF4BFCD3 
 516      6CAFBD7F 
 516      226DC3EB 
 517 14e4 9F74ED55 		.ascii	"\237t\355U\277\347\330\316\376k\361\035\275\014\373"
 517      BFE7D8CE 
 517      FE6BF11D 
 517      BD0CFB
 518 14f3 CF81033C 		.ascii	"\317\201\003<\375g1g\377Yj4\276\211\007\320\370\226"
 518      FD673167 
 518      FF596A34 
 518      BE8907D0 
 518      F896
 519 1505 7219DF8C 		.ascii	"r\031\337\214\003\323o\345\005\200\025^CP:\311\3131"
 519      03D36FE5 
 519      0580155E 
 519      43503AC9 
 519      CB31
 520 1517 E554F570 		.ascii	"\345T\365pc2n\350\257\366\222\330z\374=z\0336,2\221"
 520      63326EE8 
 520      AFF692D8 
 520      7AFC3D7A 
 520      1B362C32 
 521 152c 1B5931B1 		.ascii	"\033Y1\261\306k\275\241\337\3607Ix\017\357\263\324\233"
 521      C66BBDA1 
 521      DFF03749 
 521      780FEFB3 
 521      D49B
 522 153e 699CB9D2 		.ascii	"i\234\271\322Laf\033\210\223\313\003\377\222\224\270"
 522      4C61661B 
 522      8893CB03 
 522      FF9294B8 
 523 154e 7ED9F923 		.ascii	"~\331\371#\271\264\343&\320\343\234\271'\255\307\321"
 523      B9B4E326 
 523      D0E39CB9 
 523      27ADC7D1 
 524 155e E3E04283 		.ascii	"\343\340B\203\261\301\227\324a\203\257O\337\340C\006"
 524      B1C197D4 
 524      6183AF4F 
 524      DFE04306 
 525 156e 27AAEBB4 		.ascii	"'\252\353\264W\257\351&\323\033\310\302\372\314\364"
 525      57AFE926 
ARM GAS  /tmp/ccUjHtTp.s 			page 42


 525      D31BC8C2 
 525      FACCF4
 526 157d 4176D4D2 		.ascii	"Av\324\322\343+(\330\340{\235\202\005t`\253X\2607y\300"
 526      E32B28D8 
 526      E07B9D82 
 526      057460AB 
 526      58B03779 
 527 1592 6CB60EAF 		.ascii	"l\266\016\257a\301\3068\006\323s\266\226\005\253\342"
 527      61C1C638 
 527      06D373B6 
 527      9605ABE2 
 528 15a2 01B3D936 		.ascii	"\001\263\3316\274\235\005\233\352\030\214\345l`\342"
 528      BC9D059B 
 528      EA188CE5 
 528      6C60E2
 529 15b1 70DD1764 		.ascii	"p\335\027d\036\205\007\237\014\264\335i\311u6\312.\257"
 529      1E85079F 
 529      0CB4DD69 
 529      C97536CA 
 529      2EAF
 530 15c3 E16C945D 		.ascii	"\341l\224]#\232\023\353\"\345\351\335\311\236\244u\321"
 530      239A13EB 
 530      22E5E9DD 
 530      C99EA475 
 530      D1
 531 15d4 4865260A 		.ascii	"He&\012G\352f\322\333\224\304\301\272l\345\315\234\344"
 531      47EA66D2 
 531      DB94C4C1 
 531      BA6CE5CD 
 531      9CE4
 532 15e6 5C74AE0D 		.ascii	"\\t\256\015\343\373\214\335bo\235\024\240\305\034\253"
 532      E3FB8CDD 
 532      626F9D14 
 532      A0C51CAB 
 533 15f6 9B75535B 		.ascii	"\233uS[)3\327\211\3322\377,\344{\2377\303\305\362\304"
 533      2933D789 
 533      DA32FF2C 
 533      E47B9F37 
 533      C3C5F2C4 
 534 160a FE1139DB 		.ascii	"\376\0219\333_\326\300>p\014\326\322\300\245$\314\317"
 534      5FD6C03E 
 534      700CD6D2 
 534      C0A524CC 
 534      CF
 535 161b 5491C94F 		.ascii	"T\221\311Oj\032\270\307K\246x{\275\272'\235\013x\314"
 535      6A1AB8C7 
 535      4BA6787B 
 535      BDBA279D 
 535      0B78CC
 536 162e D02A4005 		.ascii	"\320*@\005\233>\303\332\364\022\307`\001\035\3309\026"
 536      9B3EC3DA 
 536      F412C760 
 536      011DD839 
 536      16
 537 163f 6C050F58 		.ascii	"l\005\017X\300\232\263\013,X\215c0=g\227R`\2628\005"
 537      C09AB30B 
 537      2C588D63 
ARM GAS  /tmp/ccUjHtTp.s 			page 43


 537      303D6797 
 537      5260B238 
 538 1654 3706A701 		.ascii	"7\006\247\0013\213\303\315>\254c\207\011?\0061\237c"
 538      338BC3CD 
 538      3EAC6387 
 538      093F0631 
 538      9F63
 539 1666 4B6D44BA 		.ascii	"KmD\272\031i\035\322-H\267!\335\201\264\036\351\021"
 539      19691DD2 
 539      2D48B721 
 539      DD81B41E 
 539      E911
 540 1678 A4DF233D 		.ascii	"\244\337#=\306\266\257\315(\3340\006_-\375\024G\341"
 540      C6B6AFCD 
 540      28DC3006 
 540      5F2DFD14 
 540      47E1
 541 168a CFEEB51D 		.ascii	"\317\356\265\035\205\023\026\242\022\356O\330\214\302"
 541      851316A2 
 541      12EE4FD8 
 541      8CC2
 542 1698 278CA3F0 		.ascii	"'\214\243\360\226{\235\216\302L3`\014\366YY\315BEy\335"
 542      967B9D8E 
 542      C24C3360 
 542      0CF65959 
 542      CD424579 
 543 16ad AB75B2DD 		.ascii	"\253u\262\335FD\263Nf\363\002\351\276)L\217\335\357"
 543      4644B34E 
 543      66F302E9 
 543      BE294C8F 
 543      DDEF
 544 16bf 18CCD863 		.ascii	"\030\314\330c\265v\\\206\355\270\034[d-\322SH\177\324"
 544      B5765C86 
 544      EDB81C5B 
 544      642DD253 
 544      487FD4
 545 16d2 F7BE4306 		.ascii	"\367\276C\006\275k\341\033\203\227\212\363\204\364\210"
 545      BD6BE11B 
 545      83978AF3 
 545      84F488
 546 16e1 568DB4D0 		.ascii	"V\215\264\320\313,-\035\307\233N\313\264\021\022\323"
 546      CB2C2D1D 
 546      C79B4ECB 
 546      B41112D3 
 547 16f1 0F198FA4 		.ascii	"\017\031\217\244\243\307W[\033[\375\247\215\373\325"
 547      A3C7575B 
 547      1B5BFDA7 
 547      8DFBD5
 548 1700 F7A1CFA1 		.ascii	"\367\241\317\241\275\315ie\224{\216d8\317\267\311)\016"
 548      BDCD6965 
 548      947B8E64 
 548      38CFB7C9 
 548      290E
 549 1712 AB5A71B0 		.ascii	"\253Zq\260ms\364\362\236c'\007\324\014\242gl|\212\257"
 549      6D73F4F2 
 549      9E632707 
 549      D40CA267 
ARM GAS  /tmp/ccUjHtTp.s 			page 44


 549      6C7C8AAF 
 550 1726 FE551B67 		.ascii	"\376U\033g\004\351\347\372zM\034\234n\375t)\355\033"
 550      04E9E7FA 
 550      7A4D1C9C 
 550      6EFD7429 
 550      ED1B
 551 1738 8B678F7D 		.ascii	"\213g\217}\375_4(\274\202A\341:\203N\322\342\340\256"
 551      FD5F3428 
 551      BC8241E1 
 551      3A834ED2 
 551      E2E0AE
 552 174b 16E3E877 		.ascii	"\026\343\350w\366\020\006\205\327\271\202\302\213\207"
 552      F6100685 
 552      D7B982C2 
 552      8B87
 553 1759 C6314121 		.ascii	"\3061A!\250\002\035\333\365\214\203\302K\207\030/9\303"
 553      A8021DDB 
 553      F58C83C2 
 553      4B87182F 
 553      39C3
 554 176b 31584007 		.ascii	"1X@\007v\231\005\233\310\003f\023\024^e\301&9\006\323"
 554      7699059B 
 554      C8036613 
 554      145E65C1 
 554      263906D3 
 555 177f 7376FD10 		.ascii	"sv\375\0203\262l\301fK\003f\023\024\336d\301v9\006\323"
 555      33B26CC1 
 555      664B0366 
 555      1314DE64 
 555      C1763906 
 556 1794 7336EA30 		.ascii	"s6\3520\003\266\237\007\314fh\037\303\202}\353\030L"
 556      03B69F07 
 556      CC66681F 
 556      C3827DEB 
 556      184C
 557 17a6 CFD93816 		.ascii	"\317\3318\026\354\004\017X\300\2043\263\017\333\011"
 557      EC040F58 
 557      C08433B3 
 557      0FDB09
 558 17b5 64F1063A 		.ascii	"d\361\006:\336\233\350\032\033\221*>B\007\"\035\204"
 558      DE9BE81A 
 558      1B912A3E 
 558      4207221D 
 558      84
 559 17c6 7408D2A1 		.ascii	"t\010\322\241H\337@\372\246\217"
 559      48DF40FA 
 559      A68F
 560 17d0 C3895E66 		.ascii	"\303\211^f\235\350O<\336\310\3460\311=\307v\376\347"
 560      9DE84F3C 
 560      DEC8E630 
 560      C93DC776 
 560      FEE7
 561 17e2 ADAC26D4 		.ascii	"\255\254&\324\357\235S\367\007\342>\322\257(\214\362"
 561      EF9D53F7 
 561      07E23ED2 
 561      AF288CF2 
 562 17f2 F1AD288C 		.ascii	"\361\255(\214\361\031\227\263\266\242/!\345\034\033"
ARM GAS  /tmp/ccUjHtTp.s 			page 45


 562      F11997B3 
 562      B6A22F21 
 562      E51C1B
 563 1801 1D388FCF 		.ascii	"\0358\217\3172\335$t\366\330\346\247\250/\234\340#\276"
 563      32DD2474 
 563      F6D8E6A7 
 563      A82F9CE0 
 563      23BE
 564 1813 70D57D0E 		.ascii	"p\325}\016\367\010\341\032\204\221\377%\333\220\377"
 564      F708E11A 
 564      8491FF25 
 564      DB90FF
 565 1822 49E9F927 		.ascii	"I\351\371'\023\344m\343t\023\344-\310\002\251\233\231"
 565      13E46DE3 
 565      7413E42D 
 565      C802A99B 
 565      99
 566 1833 2F5CB18D 		.ascii	"/\\\261\2151\370\355\216\301\002:\260U,\330\036\036"
 566      31F8ED8E 
 566      C1023AB0 
 566      552CD81E 
 566      1E
 567 1844 30BB0932 		.ascii	"0\273\0112\013\366\265c0=gkY\260C<`v\023d\026\354;\307"
 567      0BF6B563 
 567      303D676B 
 567      59B0433C 
 567      60761364 
 568 185c 6001B3E6 		.ascii	"`\001\263\346\025\232X\207,N\366\021'1\005\273\3764"
 568      159A5887 
 568      2C4EF611 
 568      273105BB 
 568      FE34
 569 186e A43390BE 		.ascii	"\2443\220\276\213\364=\244\263y\\\302x\037\343\022~"
 569      8BF43DA4 
 569      B3795CC2 
 569      781FE312 
 569      7E
 570 187f 4086C764 		.ascii	"@\206\307df1\270\323\352\273\177]\325\324%P}Xq\360!"
 570      6631B8D3 
 570      EABB7F5D 
 570      D5D42550 
 570      7D5871F0 
 571 1894 CBC169C7 		.ascii	"\313\301i\307\034\004X\016\022\327\266\322\203z\351"
 571      1C04580E 
 571      12D7B6D2 
 571      837AE9
 572 18a3 D1039270 		.ascii	"\321\003\222p\336\210\347\350\320\234A\211\233[\263"
 572      DE88E7E8 
 572      D09C4189 
 572      9B5BB3
 573 18b2 17BEAC81 		.ascii	"\027\276\254\201]u\014\346\327\201\215\332\306\200\015"
 573      5D750CE6 
 573      D7818DDA 
 573      C6800D
 574 18c1 B9DF2998 		.ascii	"\271\337)\230U\244>\026ma\034\266\371\\\244\037!\375"
 574      55A43E16 
 574      6D611CB6 
ARM GAS  /tmp/ccUjHtTp.s 			page 46


 574      F95CA41F 
 574      21FD
 575 18d3 18E927AC 		.ascii	"\030\351'\254\025H\302\210\373\215q+u\216\014j\312\213"
 575      1548C288 
 575      FB8D712B 
 575      758E0C6A 
 575      CA8B
 576 18e5 0ABCB856 		.ascii	"\012\274\270Vm;\222m\333\351\367s\0148\001k\353\332"
 576      6D3B926D 
 576      DBE9F773 
 576      0C38016B 
 576      EBDA
 577 18f7 73EC9C3A 		.ascii	"s\354\234:\340P`Ix\3371\242\336Z\306\037\236\256[\364"
 577      E0506049 
 577      78DF31A2 
 577      DE5AC61F 
 577      9EAE5BF4 
 578 190b 99C78367 		.ascii	"\231\307\203g\363xj*\015\021(\330R\307`\001\301\362"
 578      F3786A2A 
 578      0D1128D8 
 578      52C76001 
 578      C1F2
 579 191d C33EAA91 		.ascii	"\303>\252\221\305\351\030\"\314\300\340\340\023\244"
 579      C5E91822 
 579      CCC0E0E0 
 579      13A4
 580 192b 67915E42 		.ascii	"g\221^B\332\200\364ml\245%H\227!\255\346i\261Il\210"
 580      DA80F46D 
 580      6CA52548 
 580      9721ADE6 
 580      69B1496C 
 581 1940 B0164598 		.ascii	"\260\026E\230\220\351\2223y z\277v2\371B\2346\255w\214"
 581      90E99233 
 581      79207ABF 
 581      7632F942 
 581      9C36AD77 
 582 1955 A86FB14B 		.ascii	"\250o\261K\364\014!\012\266\231\007\314\254s3j\245\012"
 582      F40C210A 
 582      B69907CC 
 582      AC73336A 
 582      A50A
 583 1967 9D880AAD 		.ascii	"\235\210\012\255B\305\255Be\255\321w\233mM\272\315\004"
 583      42C5AD42 
 583      65ADD177 
 583      9B6D4DBA 
 583      CD04
 584 1979 E3347782 		.ascii	"\3434w\202n\232k\211e\245\3701^fO\302\031/\307\236\004"
 584      6E9A6B89 
 584      65A5F831 
 584      5E664FC2 
 584      192FC79E 
 585 198e 9B7F53D1 		.ascii	"\233\177S\321\270Qs\203\364\337Q\177}\277\341\271\253"
 585      B8517383 
 585      F4DF517F 
 585      7DBFE1B9 
 585      AB
 586 199f 99B3313B 		.ascii	"\231\2631;\334\305\354\303\356h\204\211(>TO\340\346"
ARM GAS  /tmp/ccUjHtTp.s 			page 47


 586      DCC5ECC3 
 586      EE688489 
 586      283E544F 
 586      E0E6
 587 19b1 8BB34887 		.ascii	"\213\263H\207S\373C\372\016\322\321H?\345Q\303*v\013"
 587      53FB43FA 
 587      0ED2D148 
 587      3FE551C3 
 587      2A760B
 588 19c4 C909647B 		.ascii	"\311\011d{y\306[3f,89H\034CO\367\233\204&s\3321\242"
 588      79C65B33 
 588      662C3839 
 588      481C434F 
 588      F79B8426 
 589 19dc 5EB107CF 		.ascii	"^\261\007\317\360m\206\375o\032\326Bf\015ao\365\201"
 589      F06D86FD 
 589      6F1AD642 
 589      660D616F 
 589      F581
 590 19ee 5FD218B1 		.ascii	"_\322\030\261\026c\3049\277H\377\330V\017\204/N\030"
 590      1663C439 
 590      BF48FFD8 
 590      560F842F 
 590      4E18
 591 1a00 83C4D5F4 		.ascii	"\203\304\325\364\261\363f\256 \267\246v\265\250\014"
 591      B1F366AE 
 591      20B7A676 
 591      B5A80C
 592 1a0f CDE13F36 		.ascii	"\315\341?6}\365\352\365\347\324\177W\371\245\017\017"
 592      7DF5EAF5 
 592      E7D47F57 
 592      F9A50F0F 
 593 1a1f B2FF85B1 		.ascii	"\262\377\205\261+8>5\375\024Bl\266\037\373l\332uo\365"
 593      2B383E35 
 593      FD14426C 
 593      B61FFB6C 
 593      DA756FF5 
 594 1a33 B5FB1AC8 		.ascii	"\265\373\032\310\226\033\215\247\363\216\001\365#\363"
 594      961B8DA7 
 594      F38E01F5 
 594      23F3
 595 1a41 F65A1C99 		.ascii	"\366Z\034\231)X\203c\260\226:\260\235,\330\015\307`"
 595      29588363 
 595      B0963AB0 
 595      9D2CD80D 
 595      C760
 596 1a53 AD7460BB 		.ascii	"\255t`\273Y\260!\0178\005\323[\357W,\330\233\216\301"
 596      59B0210F 
 596      3805D35B 
 596      EF572CD8 
 596      9B8EC1
 597 1a66 7467F027 		.ascii	"tg\360'\366\015\315\331\3762\377[\004\253W\1777H}\213"
 597      F60DCDD9 
 597      FE32FF5B 
 597      04AB577F 
 597      37487D8B 
 598 1a7a E200DE7F 		.ascii	"\342\000\336\177\354\003F;r\372\036\001\204\270\270"
ARM GAS  /tmp/ccUjHtTp.s 			page 48


 598      EC03463B 
 598      72FA1E01 
 598      84B8B8
 599 1a89 75999121 		.ascii	"u\231\221!\355\003\012\366m-bH\247\356\0376X\231\333"
 599      ED030AF6 
 599      6D2D6248 
 599      A7EE1F36 
 599      5899DB
 600 1a9c 5A63AACA 		.ascii	"Zc\252\312\250\024\207\213\261\327\206\276\345\360\334"
 600      A814878B 
 600      B1D786BE 
 600      E5F0DC
 601 1aab F9D5AB4F 		.ascii	"\371\325\253O\235W\373\327\267\310\302\254&zq\376_\\"
 601      9D57FBD7 
 601      B7C8C2AC 
 601      267A71FE 
 601      5F5C
 602 1abd 2561AE51 		.ascii	"%a\256Q\020'\263\"\324\314\371_T\251C7\345k\011\017"
 602      1027B322 
 602      D4CCF95F 
 602      54A94337 
 602      E56B090F 
 603 1ad1 A2CD5982 		.ascii	"\242\315Y\202\023\350?\025\241`k\035\203\351-\271\212"
 603      13E83F15 
 603      A1606B1D 
 603      83E92DB9 
 603      8A
 604 1ae2 05DBC803 		.ascii	"\005\333\310\003fs\226\340d\026l\213c0=gSY\260=<`\001"
 604      667396E0 
 604      64166C8B 
 604      63303D67 
 604      5359B03D 
 605 1af9 6BCEA6B3 		.ascii	"k\316\246\263`\007\035\203\3519[\310\202\035\345\001"
 605      60071D83 
 605      E9395BC8 
 605      821DE501 
 606 1b09 B3097517 		.ascii	"\263\011u\027\263`\247\035\203\261\234)\211e\033\263"
 606      B360A71D 
 606      83B19C29 
 606      89651BB3 
 607 1b19 993748C9 		.ascii	"\2317H\311\251E\304EiC`\022L\321\206\300K\276\333\325"
 607      A945C445 
 607      69436012 
 607      4CD186C0 
 607      4BBEDBD5 
 608 1b2d 9C76201C 		.ascii	"\234v \0340q\311\310\204\241\242\343(g33\337\376\002"
 608      3071C9C8 
 608      84A1A2E3 
 608      28673333 
 608      DFFE02
 609 1b40 E7587518 		.ascii	"\347Xu\030\316mG\272\023\351n\244_!\335\207t?\322CH"
 609      CE6D47BA 
 609      13E96EA4 
 609      5F21DD87 
 609      743FD243 
 610 1b55 EB911E45 		.ascii	"\353\221\036E\372\003\322\023HO!\375\021\351OH\317\""
 610      FA03D213 
ARM GAS  /tmp/ccUjHtTp.s 			page 49


 610      484F21FD 
 610      11E94F48 
 610      CF22
 611 1b67 3D8FF422 		.ascii	"=\217\364\"O\234\3649;\263\272\372\000GTc\363\217\303"
 611      4F9CF439 
 611      3BB3BAFA 
 611      00475463 
 611      F38FC3
 612 1b7a 672CB83A 		.ascii	"g,\270:K<K\007T\0320\016\372\245\0011\355\354Tokg\376"
 612      4B3C4B07 
 612      541A300E 
 612      FAA50131 
 612      EDEC546F 
 613 1b91 670A6B84 		.ascii	"g\012k\204c\254\207\355\232e9\023|\256\300\340s%\206"
 613      63AC87ED 
 613      9A653913 
 613      7CAEC0E0 
 613      732586
 614 1ba4 9D9FA1F2 		.ascii	"\235\237\241\3626 \275\202\364\032\217\"\027\263\001"
 614      3620BD82 
 614      F41A8F22 
 614      17B301
 615 1bb3 E7586475 		.ascii	"\347XduA\306\001\347\3369G\226\320W\315h\013\311\342"
 615      41C601E7 
 615      DE394796 
 615      D057CD68 
 615      0BC9E2
 616 1bc6 659FE410 		.ascii	"e\237\344\020Q\257\310k\307\325\363W\346\340F\376\211"
 616      51AFC86B 
 616      C7D5F357 
 616      E6E046FE 
 616      89
 617 1bd7 3C0CDA8C 		.ascii	"<\014\332\214O7\276_!\342[\275\264if\030\341\0346\363"
 617      4F37BE5F 
 617      21E25BBD 
 617      B4696618 
 617      E11C36F3 
 618 1beb E88BF852 		.ascii	"\350\213\370R\242\366\364q\276\021.\355\350\331\332"
 618      A2F6F471 
 618      BE112EED 
 618      E8D9DA
 619 1bfa AEA51730 		.ascii	"\256\245\0270-\275\020[z\021\266\364Ml\335F\272*\356"
 619      2DBD105B 
 619      7A11B6F4 
 619      4D6CDD46 
 619      BA2AEE
 620 1c0d 2774B09F 		.ascii	"'t\260\237\243\245\347\261-\275\004YM\363J\237\215\""
 620      A3A5E7B1 
 620      2DBD0459 
 620      4DF34A9F 
 620      8D22
 621 1c1f 579EE09A 		.ascii	"W\236\340\232\010\314\374\007\015\353}\335D`\375?\321"
 621      08CCFC07 
 621      0DEB7DDD 
 621      4460FD3F 
 621      D1
 622 1c30 50E80D3F 		.ascii	"P\350\015?.\026\3772\375\2033=\020n\005\366\033&\002"
ARM GAS  /tmp/ccUjHtTp.s 			page 50


 622      2E16FF32 
 622      FD83333D 
 622      106E05F6 
 622      1B2602
 623 1c43 BBE87B65 		.ascii	"\273\350{e\244<\375D`7u\340\237\343B\312Zd\200T\314"
 623      A43CFD44 
 623      603775E0 
 623      9FE342CA 
 623      5A648054 
 624 1c58 C8EE137B 		.ascii	"\310\356\023{7\256\247vp\000c\023\032\2261pi\3032\275"
 624      37AEA776 
 624      70006313 
 624      1A963170 
 624      69C332BD 
 625 1c6c 59EDDBC8 		.ascii	"Y\355\333\310\304\251\353\214\274\245\215Su1^b?\013"
 625      C4A9EB8C 
 625      BCA58D53 
 625      75315E62 
 625      3F0B
 626 1c7e 56EB18AC 		.ascii	"V\353\030\254\275\016\354\340\260\267\324\025#:\362"
 626      BD0EECE0 
 626      B0B7D415 
 626      233AF2
 627 1c8d 7DC1A338 		.ascii	"}\301\2438\0333:\224\032Fe\361\244Or\010\246W\333\031"
 627      1B333A94 
 627      1A4665F1 
 627      A44F7208 
 627      A657DB19 
 628 1ca1 764CDEC6 		.ascii	"vL\336\306\303\231M\270v\216\005\373\3121\230\236\263"
 628      C3994DB8 
 628      768E05FB 
 628      CA31989E 
 628      B3
 629 1cb2 0B2CD837 		.ascii	"\013,\3307<`6\341\332e\026\354\210c0=gW\233\374w:]\360"
 629      3C6036E1 
 629      DA6516EC 
 629      8863303D 
 629      67579BFC 
 630 1cca D1C489CC 		.ascii	"\321\304\211\314\3643N\344\024\317\315\003V\222(\211"
 630      F4334EE4 
 630      14CFCD03 
 630      56922889 
 631 1cda 695F64A3 		.ascii	"i_d\2433&\361\014Lb\215h\346\001L\300D\030\263\017\353"
 631      3326F10C 
 631      4C628D68 
 631      E6014CC0 
 631      4418B30F 
 632 1cef 2064F12D 		.ascii	" d\361-?\361\237o\243\267|\007\351(\244c\220\216C:\001"
 632      3FF19F6F 
 632      A3B77C07 
 632      E928A463 
 632      908E433A 
 633 1d04 E944A493 		.ascii	"\351D\244\223\220NA:\015\351\014\244\263x<\3550VI\015"
 633      904E413A 
 633      0DE90CA4 
 633      B3783CED 
 633      3056490D 
ARM GAS  /tmp/ccUjHtTp.s 			page 51


 634 1d18 8E3DADAE 		.ascii	"\216=\255\256\205`L=yT\033S\351\312\352u\036D\033\323"
 634      85604C3D 
 634      79541B53 
 634      E9CAEA75 
 634      1E441BD3 
 635 1d2c AE39A11B 		.ascii	"\2569\241\033\004\207\374\312\000g\346\023\370\037\323"
 635      0487FCCA 
 635      0067E613 
 635      F81FD3
 636 1d3b 4C6146AD 		.ascii	"LaF\255i8jM\307Q\353\003\244\037\"\035\212\272\234\215"
 636      69386A4D 
 636      C751EB03 
 636      A41F221D 
 636      8ABA9C8D 
 637 1d4f 740E8F46 		.ascii	"t\016\217F'Z\277\214%\011\303\177\245\037>\222gU\254"
 637      275ABF8C 
 637      2509C37F 
 637      A51F3E92 
 637      6755AC
 638 1d62 FB5C1C3F 		.ascii	"\373\\\034?X\351F\217@\000{@\267\374\266\307\366\260"
 638      58E9468F 
 638      40007B40 
 638      B7FCB6C7 
 638      F6B0
 639 1d74 0AF5C4BD 		.ascii	"\012\365\304\275\213\341n\364\256\020$ \274u5\2257\365"
 639      8BE16EF4 
 639      AE102420 
 639      BC753595 
 639      37F5
 640 1d86 8C8B45DF 		.ascii	"\214\213E\337\344\265\242\007M\010\372Z\206]\374\370"
 640      E4B5A207 
 640      4D08FA5A 
 640      865DFCF8 
 641 1d96 E70FFD66 		.ascii	"\347\017\375f'^T\017\2553?\361\302vG\367'\376\364\347"
 641      275E540F 
 641      AD333FF1 
 641      C27647F7 
 641      27FEF4E7 
 642 1daa ED316B5D 		.ascii	"\3551k]J\3620\324\227\205\344\300<\361\374\371\006u"
 642      4AF230D4 
 642      9785E4C0 
 642      3CF1FCF9 
 642      0675
 643 1dbc 9162318E 		.ascii	"\221b1\216\314\363\014\252M\013$\011+\260\3122\343\340"
 643      CCF30CAA 
 643      4D0B2409 
 643      2BB0CA32 
 643      E3E0
 644 1dce 7C500ED0 		.ascii	"|P\016\320\322tC\263\2228\213\207\344\321\203\317`\272"
 644      D27443B3 
 644      92388B87 
 644      E4D183CF 
 644      60BA
 645 1de0 410FF164 		.ascii	"A\017\361d\334\202\303S\324\316\245\216\3322\236\010"
 645      DC82C353 
 645      D4CEA58E 
 645      DA329E08 
ARM GAS  /tmp/ccUjHtTp.s 			page 52


 646 1df0 DBF411F4 		.ascii	"\333\364\021\364*\277\3237\222V\373\315\337H\2727\331"
 646      2ABFD337 
 646      9256FBCD 
 646      DF48BA37 
 646      D9
 647 1e01 CAFB8D12 		.ascii	"\312\373\215\022\350o\233\256\303*\211\013x\260\022"
 647      E86F9BAE 
 647      C32A890B 
 647      78B012
 648 1e10 614D16BF 		.ascii	"aM\026\277\341\002\263\371\027^\227<\332\241r0A\343"
 648      E102B3F9 
 648      175E973C 
 648      DAA17230 
 648      41E3
 649 1e22 D2ED33D6 		.ascii	"\322\3553\326`\227\031\260#\\`f\377\247\327\354\303"
 649      609719B0 
 649      235C6066 
 649      FFA7D7EC 
 649      C3
 650 1e33 9A902C56 		.ascii	"\232\220,V\243\373^\201\016c%\3225Hk\220\256\345q!\213"
 650      A3FB5E81 
 650      0E6325D2 
 650      35486B90 
 650      AEE57121 
 651 1e48 FC4D0FEF 		.ascii	"\374M\017\357T\217\2471\370\223\215V\376\344\353\373"
 651      548FA731 
 651      F8938D56 
 651      FEE4EBFB 
 652 1e58 BEA12778 		.ascii	"\276\241'x\022,I8\204\327-\360[9\006\274\243\352O\032"
 652      122C4938 
 652      84D72DF0 
 652      5B3906BC 
 652      A3EA4F1A 
 653 1e6c C3DDB433 		.ascii	"\303\335\2643s\216\244\251fwf\016\251\245SR\302\324"
 653      738EA4A9 
 653      6677660E 
 653      A9A55352 
 653      C2D4
 654 1e7e 839CA9CD 		.ascii	"\203\234\251\315\0315\260\276\261\361Az\014\247$\374"
 654      1935B0BE 
 654      B1F1417A 
 654      0CA724FC 
 655 1e8e 602A9232 		.ascii	"`*\2222)\234t\216\033\374\244\365j3\342\252\326\310"
 655      299C748E 
 655      1BFCA4F5 
 655      6A33E2AA 
 655      D6C8
 656 1ea0 D5463D57 		.ascii	"\325F=W/\212\256\211n\344\255\036|\314\351u\225\223"
 656      2F8AAE89 
 656      6EE4AD1E 
 656      7CCCE975 
 656      9593
 657 1eb2 94CF4C8F 		.ascii	"\224\317L\217\023\265yL\376\245\337\360\302\312Gn\346"
 657      13B5794C 
 657      FEA5DFF0 
 657      C2CA476E 
 657      E6
ARM GAS  /tmp/ccUjHtTp.s 			page 53


 658 1ec3 3574F5CC 		.ascii	"5t\365\314S\3657\367!\310\015\273\036X\201\233\032\267"
 658      53F537F7 
 658      21C80DBB 
 658      1E58819B 
 658      1AB7
 659 1ed5 536FF7A0 		.ascii	"So\367\240\251\267K\207\223X\204g\224\354B\214\305\006"
 659      A9B74B87 
 659      93588467 
 659      94EC428C 
 659      C506
 660 1ee7 0C59EC6A 		.ascii	"\014Y\354jxP\326\325\370o\011o\272\224Q~,\227\204-\017"
 660      7850D6D5 
 660      F86F096F 
 660      BA94517E 
 660      2C97842D 
 661 1efc 8A82E947 		.ascii	"\212\202\351G\026\237\375\265\305\037\272\246\372\311"
 661      169FFDB5 
 661      C51FBAA6 
 661      FAC9
 662 1f0a 57D84F0C 		.ascii	"W\330O\014W\032\314{\257\201C\355\242}M\032\255*\331"
 662      571ACC7B 
 662      AF8143ED 
 662      A27D4D1A 
 662      AD2AD9
 663 1f1d 68631B4F 		.ascii	"hc\033O\311V\215f3&\03506\032\231\305\033\033\315\300"
 663      C9568D66 
 663      33261D30 
 663      361A99C5 
 663      1B1BCDC0 
 664 1f31 DE090BF6 		.ascii	"\336\011\013\366\0165\265\364z\262\211\352H\253\252"
 664      0E35B5F4 
 664      7AB289EA 
 664      48ABAA
 665 1f40 C5CA103C 		.ascii	"\305\312\020<E\333x\2066\031\205\255X\2537\2626\221"
 665      45DB7886 
 665      361985AD 
 665      58AB37B2 
 665      3691
 666 1f52 654D3DFE 		.ascii	"eM=\376&\371{\206G\177\314\001\211\234\232\262~\326"
 666      26F97B86 
 666      477FCC01 
 666      899C9AB2 
 666      7ED6
 667 1f64 82F5A3A6 		.ascii	"\202\365\243\246\254O<\2759\223\216\360\203\255N\027"
 667      AC4F3CBD 
 667      39938EF0 
 667      83AD4E17 
 668 1f74 19CE6368 		.ascii	"\031\316chr<\361M\013\036O\351y\374\007\341]%\261\035"
 668      723CF14D 
 668      0B1E4FE9 
 668      79FC07E1 
 668      5D25B11D 
 669 1f88 7CDE95DD 		.ascii	"|\336\225\335\"t\202M\344\037(5\212\340O\346\213$V\037"
 669      2274824D 
 669      E41F2835 
 669      8AE04FE6 
 669      8B24561F 
ARM GAS  /tmp/ccUjHtTp.s 			page 54


 670 1f9c 1ED05034 		.ascii	"\036\320P4"
 671 1fa0 5FDF2A19 		.ascii	"_\337*\031\253\273T\304\037S\210\004\015$>8\353\255"
 671      ABBB54C4 
 671      1F538804 
 671      0D243E38 
 671      EBAD
 672 1fb2 B5E2EED9 		.ascii	"\265\342\356\331Jb\324@Ei\024\033\237\006\227.\022\253"
 672      4A62D440 
 672      4569141B 
 672      9F06972E 
 672      12AB
 673 1fc4 AF37C225 		.ascii	"\2577\302%\272hp\373\264#\013~J\301e\370\316\333Y\275"
 673      BA6870FB 
 673      B4230B7E 
 673      4AC165F8 
 673      CEDB59BD 
 674 1fd8 E6728411 		.ascii	"\346r\204\021\354\254\247\253\365\016\371\363\376\034"
 674      ECACA7AB 
 674      F50EF9F3 
 674      FE1C
 675 1fe6 C1F0B1BA 		.ascii	"\301\360\261\272\364Lj\2241\314\252\266[L\223H\255\013"
 675      F44C6A94 
 675      31CCAAB6 
 675      5B4C9348 
 675      AD0B
 676 1ff8 96B588DB 		.ascii	"\226\265\210\333\263\252u\321"
 676      B3AA75D1 
 677 2000 A216BF46 		.ascii	"\242\026\277F\032\214\266D$\345:\352\340\222%\307\344"
 677      1A8CB644 
 677      24E53AEA 
 677      E09225C7 
 677      E4
 678 2011 8856AB5A 		.ascii	"\210V\253ZW,k\355\263\251u\325\262\326!\233Z\327,k\035"
 678      572C6BED 
 678      B3A975D5 
 678      B2D6219B 
 678      5AD72C6B 
 679 2026 B5A975DD 		.ascii	"\265\251u\335\262V\243M\255\033\226\265\016\330\264"
 679      B256A34D 
 679      AD1B96B5 
 679      0ED8B4
 680 2035 DF4DCB5A 		.ascii	"\337M\313Z?\330\324j\264\254UoSK\311\262\252E\302J\253"
 680      3FD8D46A 
 680      B4AC556F 
 680      534BC9B2 
 680      AA45C24A 
 681 204a 5A032D6B 		.ascii	"Z\003-k\221\377A`UkP\252\226\340\016\365\221\243\336"
 681      91FF4160 
 681      556B50AA 
 681      96E00EF5 
 681      91A3DE
 682 205d 679F7B21 		.ascii	"g\237{!\320I\360\004;\226\227\227\264\315\255\214Es"
 682      D049F004 
 682      3B969797 
 682      B4CDAD8C 
 682      4573
 683 206f 4B22BD72 		.ascii	"K\"\275r{\207B\271r\264\364we\345e\341\337\205\345^"
ARM GAS  /tmp/ccUjHtTp.s 			page 55


 683      7B8742B9 
 683      72B4F477 
 683      65E565E1 
 683      DF85E55E 
 684 2083 91DC471F 		.ascii	"\221\334G\037i\377\310\243\271\221\262PIeQ87\026/*\012"
 684      69FFC8A3 
 684      B991B250 
 684      49655138 
 684      37162F2A 
 685 2098 173FD247 		.ascii	"\027?\322G\360\306\"\177\015\007\343\217\345\366)/\015"
 685      F0C6227F 
 685      0D07E38F 
 685      E5F6292F 
 685      0D
 686 20a9 E786CA8B 		.ascii	"\347\206\312\213\006\344\026\205\373\346\206\372DzE"
 686      06E41685 
 686      FBE686FA 
 686      447A45
 687 20b8 CA63B9F1 		.ascii	"\312c\271\361he\331+\271\220\351#\227\244*\207\243\021"
 687      6865D92B 
 687      B990E923 
 687      97A42A87 
 687      A311
 688 20ca B9042AE7 		.ascii	"\271\004*\347\024`\256s4\3227\034m\301\376\370\367\236"
 688      1460AE73 
 688      34D2371C 
 688      6DC1FEF8 
 688      F79E
 689 20dc 85BF4166 		.ascii	"\205\277Af\364L0\267\217\224\305\001\301W\011\337\355"
 689      F44C30B7 
 689      8F94C501 
 689      C15709DF 
 689      ED
 690 20ed 83F1476D 		.ascii	"\203\361Gm..\225\201\233\262pn\0208\226+K\342\301\370"
 690      2E2E9581 
 690      9BB2706E 
 690      1038962B 
 690      4BE2C1F8 
 691 2101 808A700C 		.ascii	"\200\212p\014*g\005\203juO\277h$\036vG\303rQ\267t\222"
 691      2A670583 
 691      6A754FBF 
 691      68241E76 
 691      47C37251 
 692 2118 44E3B915 		.ascii	"D\343\271\025\345\321x,\267C~\317N=\373\303\225\245"
 692      E5D1782C 
 692      B7437ECF 
 692      4E3DFBC3 
 692      95A5
 693 212a 15919270 		.ascii	"\025\221\222p4\226\373l\247Np\271\206\356)\215\365\016"
 693      3496FB6C 
 693      A74E70B9 
 693      86EE298D 
 693      F50E
 694 213c C67D7083 		.ascii	"\306}p\203vm\203q\270\227\232sUT\306]\275\303\361\366"
 694      766D8371 
 694      B8979A73 
 694      5554C65D 
ARM GAS  /tmp/ccUjHtTp.s 			page 56


 694      BDC3F1F6 
 695 2150 1C37D244 		.ascii	"\0347\322D\010\365\211\015\210%\331&\371H)h\335_\251"
 695      08F5890D 
 695      8825D926 
 695      F9482968 
 695      DD5FA9
 696 2163 6236A392 		.ascii	"b6\243\222\220\254\033\340\343n\300\217{Q\250\270\207"
 696      90AC1BE0 
 696      E36EC08F 
 696      7B51A8B8 
 696      87
 697 2174 481577F5 		.ascii	"H\025w\365-\215?\356\350\216\341\276\341\2628\271_s"
 697      2D8D3FEE 
 697      E88EE1BE 
 697      E1B238B9 
 697      5F73
 698 2186 CC0563E5 		.ascii	"\314\005c\345\225\321\020\3344\207\375\331\222\376("
 698      95D110DC 
 698      3487FDD9 
 698      92FE28
 699 2195 89C4E2E1 		.ascii	"\211\304\342\341\262p4\030o\256/\360\205K\202e\341\376"
 699      B2703418 
 699      6FAE2FF0 
 699      854B8265 
 699      E1FE
 700 21a7 717FBC0F 		.ascii	"q\177\274\017a\003\364\020\352\023\244\371G\235\311"
 700      6103F410 
 700      EA13A4F9 
 700      479DC9
 701 21b6 1FEA5344 		.ascii	"\037\352SD\314\255\002\341\340\253\"\032\356\353\213"
 701      CCAD02E1 
 701      E0AB221A 
 701      EEEB8B
 702 21c5 574423E5 		.ascii	"WD#\345A\3723R\356\013\225\227\305\341\257O:n\302>\241"
 702      41FA3352 
 702      EE0B9597 
 702      C5E1AF4F 
 702      3A6EC23E 
 703 21da F26818E0 		.ascii	"\362h\030\340\263I1i\250P\274\377\0373C\011\366}\242"
 703      B3493169 
 703      A850BCFF 
 703      1F334309 
 703      F67DA2
 704 21ed 1490FCD1 		.ascii	"\024\220\374\321po0Gh\356X\233\307!=\001\251=\244']"
 704      706F3047 
 704      68EE589B 
 704      C7213D01 
 704      A93DA427 
 705 2202 B1B6AD21 		.ascii	"\261\266\255!\265\201\324\026R;H\217Bz\014\022\\\327"
 705      B581D416 
 705      523B488F 
 705      427A0C12 
 705      5CD7
 706 2214 16AE6B0B 		.ascii	"\026\256k\013\327\265\205\353\332\301u\355\332H\321"
 706      D7B585EB 
 706      DAC175ED 
 706      DA48D1
ARM GAS  /tmp/ccUjHtTp.s 			page 57


 707 2223 47A5E863 		.ascii	"G\245\350cR\364q)\372\204\024m/E\237tE\333\264\206\324"
 707      52F47129 
 707      FA84146D 
 707      2F459F74 
 707      45DBB486 
 708 2238 462A89C2 		.ascii	"F*\211\302W;OE\020\270\365\021\305\364\003\205W\004"
 708      573B4F45 
 708      10B8F511 
 708      C5F40385 
 708      5704
 709 224a CB4B8AC2 		.ascii	"\313K\212\302Q\242(\2714\354\217\307\342r\034Z\015\312"
 709      51A228B9 
 709      34EC8FC7 
 709      E2721C5A 
 709      0DCA
 710 225c 31E78B97 		.ascii	"1\347\213\227\226\027\321\337\305%r\357\230/\036\015"
 710      9617D1DF 
 710      C52572EF 
 710      982F1E0D 
 711 226c 17C75085 		.ascii	"\027\307P\205$\343\215\026\015\000\273\365\207\373G"
 711      24E38D16 
 711      0D00BBF5 
 711      87FB47
 712 227b E22079D8 		.ascii	"\342 y\330\333/^\336\353/\025\331\330\252\245r\354\025"
 712      DB2F5EDE 
 712      EB2F15D9 
 712      D8AAA572 
 712      EC15
 713 228d B832DC8F 		.ascii	"\2702\334\217d\\\025\301\312\346\264%c\330\334\301x"
 713      645C15C1 
 713      CAE6B425 
 713      63D8DCC1 
 713      78
 714 229e 8B64DBD2 		.ascii	"\213d\333\322\222\254\212`?9\022\217\224\365n\241\025"
 714      92AC8A60 
 714      3F39128F 
 714      94F56EA1 
 714      15
 715 22af BF5A19AE 		.ascii	"\277Z\031\256\204\273\267d\256\304\242f\025A\270-f="
 715      84BBB764 
 715      AEC4A266 
 715      1541B82D 
 715      663D
 716 22c1 98858270 		.ascii	"\230\205\202pE\270\014\272yoOi%\264j;G\346R\032\357"
 716      45B80CBA 
 716      796F4F69 
 716      25B46A3B 
 716      47E6521A 
 717 22d6 4FBC4329 		.ascii	"O\274C)E\207\357\362~\304\032\021\011D(E+\002\376\340"
 717      4587EFF2 
 717      7EC41A11 
 717      09442845 
 717      2B02FEE0 
 718 22ea 3AC26933 		.ascii	":\302i3\"\275\\\202F\004\205\025\340\013\263\301r5+"
 718      22BD5C82 
 718      46048515 
 718      E00BB3C1 
ARM GAS  /tmp/ccUjHtTp.s 			page 58


 718      72352B
 719 22fd CE823CED 		.ascii	"\316\202<\355\016\324\370Qs\320\375\240\030\263\344"
 719      0ED4F851 
 719      73D0FDA0 
 719      18B3E4
 720 230c EFFDA83A 		.ascii	"\357\375\250:\3031\204\366\340uY\261\"U\375Y\005\235"
 720      C33184F6 
 720      E07559B1 
 720      2255FD59 
 720      059D
 721 231e 832F3CD7 		.ascii	"\203/<\327\375\271\356\205>\310\025\024>\237\347\207"
 721      FDB9EE85 
 721      3EC81514 
 721      3E9FE787 
 722 232e EFFC2E1D 		.ascii	"\357\374.\035:\277\344\301K\234\365M\224\212\364\315"
 722      3ABFE4C1 
 722      4B9CF54D 
 722      948AF4CD 
 723 233e DB2265D0 		.ascii	"\333\"e\320\3375\2656\203\316\240f\375Z6\353U\255\021"
 723      DF35B536 
 723      83CEA066 
 723      FD5A36EB 
 723      55AD11
 724 2351 20172AAF 		.ascii	" \027*\257\204\036\022\365\277\032\354UY\\\034\216z"
 724      841E12F5 
 724      BF1AEC55 
 724      595C1C8E 
 724      7A
 725 2362 5E0DC6CB 		.ascii	"^\015\306\313+|pI\264\"\036\205\357h\021|g\275ZV\036"
 725      2B7C7049 
 725      B4221E85 
 725      EF68117C 
 725      67BD5A56 
 726 2377 8F140F00 		.ascii	"\217\024\017\000\224W\2034\353}\025\224Q\366\2127\202"
 726      94578334 
 726      EB7D1594 
 726      51F68A37 
 726      82
 727 2388 98CDCB2B 		.ascii	"\230\315\313+\343\314m\275\345\230\221\"\275\244\362"
 727      E3CC6DBD 
 727      E5989122 
 727      BDA4F2
 728 2397 5EFF9A4E 		.ascii	"^\377\232N\020\320Nn\247\236\005\335\013r\013\012\301"
 728      10D04E6E 
 728      A79E05DD 
 728      0B720B0A 
 728      C1
 729 23a8 9197B66B 		.ascii	"\221\227\266k[\374h\3536\375CD\232\027\012:\344\027"
 729      5BFC68EB 
 729      36FD4344 
 729      9A170A3A 
 729      E417
 730 23ba 060BC1D1 		.ascii	"\006\013\301\321u\016\027K\005\371R\347|W\307\374|W"
 730      750E174B 
 730      05F952E7 
 730      7C57C7FC 
 730      7C57
ARM GAS  /tmp/ccUjHtTp.s 			page 59


 731 23cc A7FC3690 		.ascii	"\247\3746\220\332Bj\347~\2660/\337S\031\223\243\361"
 731      DA426AE7 
 731      7EB6302F 
 731      DF531993 
 731      A3F1
 732 23de B426D157 		.ascii	"\264&\321W\206\006\255\214\301\037\240e\241\331\340"
 732      8606AD8C 
 732      C11FA065 
 732      A1D9E0
 733 23ed 164F38F3 		.ascii	"\026O8\363:\320;\344R\242\350\273:\312\261pA\030\004"
 733      3AD03BE4 
 733      52A2E8BB 
 733      3ACAB170 
 733      411804
 734 2400 2D8BC328 		.ascii	"-\213\303(U\200\177\270\327\254\020\206.\277vC\027d"
 734      55807FB8 
 734      D7AC1086 
 734      2EBF7643 
 734      1764
 735 2412 5CC5A5F1 		.ascii	"\\\305\245\361\333\212\344\270\034\223K+J\302\217\204"
 735      DB8AE4B8 
 735      1C934B2B 
 735      4AC28F84 
 736 2422 04F6170C 		.ascii	"\004\366\027\014\202\344W\001\376\012\306\245X\231\233"
 736      82E45701 
 736      FE0AC6A5 
 736      58999B
 737 2431 F8F6ECDE 		.ascii	"\370\366\354\336\0251\255\314_\"\307#q`(\253\244\274"
 737      1531ADCC 
 737      5F22C723 
 737      716028AB 
 737      A4BC
 738 2443 AC37E6FC 		.ascii	"\2547\346\374r\011-\362\307\344x'\322\250.\250\340\213"
 738      72092DF2 
 738      C7E47827 
 738      D2A82EA8 
 738      E08B
 739 2455 874B2B3A 		.ascii	"\207K+:\366\314\363\203o\214\305 \223\015<t\253,\215"
 739      F6CCF383 
 739      6F8CC520 
 739      930D3C74 
 739      AB2C8D
 740 2468 1445E203 		.ascii	"\024E\342\003\262\260\260gE\377\322l\232+x\354\361\326"
 740      B2B0B067 
 740      45FFD26C 
 740      9A2B78EC 
 740      F1D6
 741 247a 4F34EB53 		.ascii	"O4\353SY\332\255{\267\307[\267k\235\015\015\243]\334"
 741      59DAAD7B 
 741      B7C75BB7 
 741      6B9D0D0D 
 741      A35DDC
 742 248d 0CF28500 		.ascii	"\014\362\205\000\326\366\211\307\264l~a\347\026}\303"
 742      D6F689C7 
 742      B46C7E61 
 742      E7167DC3 
 743 249d A17879B4 		.ascii	"\241xy\264\235\306\230\330_\034 \376\325%\207B\256R"
ARM GAS  /tmp/ccUjHtTp.s 			page 60


 743      9DC698D8 
 743      5F1C20FE 
 743      D5258742 
 743      AE52
 744 24af B9778B94 		.ascii	"\271w\213\224T\340A#q1\346\245\203\253\037\207>\310"
 744      54E04123 
 744      7131E6A5 
 744      83AB1F87 
 744      3EC8
 745 24c1 A0DC25E5 		.ascii	"\240\334%\345\275{\207\243d\030\203\\q\204\340\370\324"
 745      BD7B87A3 
 745      6418835C 
 745      7184E0F8 
 745      D4
 746 24d2 1C0E676D 		.ascii	"\034\016gm\036O\016g$+E\212\334\304\221\345\244\352"
 746      1E4F0E67 
 746      242B458A 
 746      DCC491E5 
 746      A4EA
 747 24e4 C2DF533F 		.ascii	"\302\337S?\232\307\212JKC\261\210\252L\037\376\204\001"
 747      9AC78A4A 
 747      4B43B188 
 747      AA4C1FFE 
 747      8401
 748 24f6 1DBFD376 		.ascii	"\035\277\323v*6*!\365b\025\021\302Y\317\236\235h\030"
 748      2A362A21 
 748      F5621511 
 748      C259CF9E 
 748      9D6818
 749 2509 9293CC41 		.ascii	"\222\223\314A\253fGb \010\004/\361pQ\016\344+\242\345"
 749      AB664762 
 749      2008042F 
 749      F170510E 
 749      E42BA2E5 
 750 251d 715048B8 		.ascii	"qPH\270\210\214;e\220kV\024\211\251Ywl@Y\350\367Nn\017"
 750      888C3B65 
 750      906B5614 
 750      89A95977 
 750      6C4059E8 
 751 2535 F960A4BC 		.ascii	"\371`\244\274WIy\350\025`\241EG\222\351\034\356\033"
 751      574979E8 
 751      1560A145 
 751      4792E91C 
 751      EE1B
 752 2547 0985BB97 		.ascii	"\011\205\273\227\025\227\373{\225\274\022$\241\226\217"
 752      1597FB7B 
 752      95BC1224 
 752      A1968F
 753 2556 64CA2A4B 		.ascii	"d\312*K\3750\302\0037\305\345\315\240@u2\315:\366\370"
 753      FD30C203 
 753      37C5E5CD 
 753      A0407532 
 753      CD3AF6F8 
 754 256a 93EA65FC 		.ascii	"\223\352e\374$K\334\014\226u\350T\330\375\337\2734'"
 754      244BDC0C 
 754      9675E854 
 754      D8FDDFBB 
ARM GAS  /tmp/ccUjHtTp.s 			page 61


 754      3427
 755 257c D94ECF3F 		.ascii	"\331N\317?\367\\\027\370\371\334\263\267\223\237\235"
 755      F75C17F8 
 755      F9DCB3B7 
 755      939F9D
 756 258b BB17A44A 		.ascii	"\273\027\244J\262H\011\372\244l-\007\245\230\1771\277"
 756      B24809FA 
 756      A46C2D07 
 756      A5987F31 
 756      BF
 757 259c 7BA1962F 		.ascii	"{\241\226/x\351\271N\220w\205\"E\256P\254\310\037\222"
 757      78E9B94E 
 757      90778522 
 757      45AE50AC 
 757      C81F92
 758 25af 2BE41018 		.ascii	"+\344\020\030Mg\036q\351\210YP\330\263]\333\334\036"
 758      4D671E71 
 758      E9885950 
 758      D8B35DDB 
 758      DC1E
 759 25c1 3D3AE716 		.ascii	"=:\347\026\344u\357\333&\027\364\036,)!\003|\026\024"
 759      E475EFDB 
 759      2617F41E 
 759      2C292103 
 759      7C1614
 760 25d4 508DB775 		.ascii	"P\215\267u\024Rb\3035\203/M\027\200\243\351\202d\211"
 760      145262C3 
 760      35832F4D 
 760      1780A3E9 
 760      826489
 761 25e7 2E083695 		.ascii	".\0106\225\017\377J\265\222C\262\235\236\357\231\327"
 761      0FFF4AB5 
 761      9243B29D 
 761      9EEF99D7 
 762 25f7 A34B6197 		.ascii	"\243Ka\227\333\000 $\227\224\364\222C8\322\225\025\005"
 762      DB002024 
 762      9794F492 
 762      4338D295 
 762      1505
 763 2609 43BDBA64 		.ascii	"C\275\272d\"\327\263y\335\237\357\3336\267\002Z\225"
 763      22D7B379 
 763      DD9FEFDB 
 763      36B7025A 
 763      95
 764 261a 0A9683AE 		.ascii	"\012\226\203\256.\330\273\202\004,\236\236\317w\356"
 764      2ED8BB82 
 764      042C9E9E 
 764      CF77EE
 765 2629 92EF7DBE 		.ascii	"\222\357}\276\360\245\274.\371\276\347\013\362\272t"
 765      F0A5BC2E 
 765      F9BEE70B 
 765      F2BA74
 766 2638 E99CEFC9 		.ascii	"\351\234\357\311{!\017\374]wH\317w\316\027_t\305 x\013"
 766      7B210FFC 
 766      5D7748CF 
 766      77CE175F 
 766      74C52078 
ARM GAS  /tmp/ccUjHtTp.s 			page 62


 767 264d 9584E5A8 		.ascii	"\225\204\345\250\330\315\335\261 ?\337\335\243\323\237"
 767      D8CDDDB1 
 767      203FDFDD 
 767      A3D39F
 768 265c F2DD1DBA 		.ascii	"\362\335\035\272\346\367 \244\033x{r\327\010DU\336X"
 768      E6F720A4 
 768      1B787B72 
 768      D7084455 
 768      DE58
 769 266e 8C643DF0 		.ascii	"\214d=\360%C\243D\333\020Q;\225\227\025Gz{C\370\345"
 769      2543A344 
 769      DB10513B 
 769      95971547 
 769      7A7B43F8 
 770 2683 CCEFA963 		.ascii	"\314\357\251c3\260}\207\032\270Ap\020\216\206\313H\000"
 770      33B07D87 
 770      1AB84170 
 770      108E86CB 
 770      4800
 771 2695 E8A545D9 		.ascii	"\350\245E\331Dq\252\253\366t\312\357\224\227\357\315"
 771      4471AAAB 
 771      F674CAEF 
 771      9497EFCD 
 772 26a5 FF337CE7 		.ascii	"\3773|\347{\013\361\313\327\275mA\247\256\317\346{\340"
 772      7B0BF1CB 
 772      D7BD6D41 
 772      A7AECFE6 
 772      7BE0
 773 26b7 3B2FDF05 		.ascii	";/\337\005\232\355\352T\221H\273>\332\277?\035'\202"
 773      9AEDEA54 
 773      9148BB3E 
 773      DABF3F1D 
 773      2782
 774 26c9 45A53261 		.ascii	"E\2452a\251s\317\016A\352k\223CE\247|\367s\235\013\363"
 774      A973CF0E 
 774      41EA6B93 
 774      4345A77C 
 774      F7739D0B 
 775 26de 5D791DF2 		.ascii	"]y\035\362\335=[\023\322\246C\276\253+0C]\270;R\034"
 775      DD3D5B13 
 775      D2A643BE 
 775      AB2B3043 
 775      5DB83B52 
 776 26f3 8A7A23B1 		.ascii	"\212z#\261>\221b\030\225\303%\305\221\262\242p\177/"
 776      3E916218 
 776      95C325C5 
 776      91B2A270 
 776      7F2F
 777 2705 75687724 		.ascii	"uhw$\321\203\364jh \370\021\355Oh\274\177V\264?|\223"
 777      D183F46A 
 777      6820F811 
 777      ED4F68BC 
 777      7F56B43F 
 778 271b B0292BAE 		.ascii	"\260)+\256\345\334 N\205\247$\026*\356\355\351C(\361"
 778      E5DC204E 
 778      85A72416 
 778      2AEEEDE9 
ARM GAS  /tmp/ccUjHtTp.s 			page 63


 778      4328F1
 779 272e 1954E12D 		.ascii	"\031T\341-\260\017\007\345\242\"\342f\303178\226\"r"
 779      B00F07E5 
 779      A222E266 
 779      C3313738 
 779      962272
 780 2741 7D51DAF1 		.ascii	"}Q\332\361\212\014\215\305r\2748\226\033\213\206r\213"
 780      8A0C8DC5 
 780      72BC3896 
 780      1B8B8672 
 780      8B
 781 2752 C978E5E9 		.ascii	"\311x\345\351\332\241\260kA\332\271\202\276&\370\316"
 781      DAA1B06B 
 781      41DAB982 
 781      BE26F8CE 
 782 2762 3075B2EE 		.ascii	"0u\262\356\216/\025v\361\221\000\017\024\345*\212\366"
 782      8E2F1576 
 782      F191000F 
 782      14E52A8A 
 782      F6
 783 2773 F5848817 		.ascii	"\365\204\210\027\361\226\005\341\352\230\007\203\026"
 783      F19605E1 
 783      EA980783 
 783      16
 784 2780 7F712C82 		.ascii	"\177q,\202q\214\373\305\347\363;g\225\005\243\345\345"
 784      718CFBC5 
 784      E7F33B67 
 784      9505A3E5 
 784      E5
 785 2791 30BF8A7A 		.ascii	"0\277\212z:\223\337\315Jd\210\355\3000 J*\216\206\303"
 785      3A93DFCD 
 785      4A6488ED 
 785      C030204A 
 785      2A8E86C3 
 786 27a5 34EB4700 		.ascii	"4\353G\000\030\366<\305\350\225\372\226C\237\211\205"
 786      18F63CC5 
 786      E895FA96 
 786      439F8985 
 787 27b5 7D5088DF 		.ascii	"}P\210\337P\235|\373\211\243\306\202~\304s\206\342."
 787      509D7CFB 
 787      89A3C682 
 787      7EC47386 
 787      E22E
 788 27c7 F8F6115F 		.ascii	"\370\366\021_\017s\030?("
 788      0F73183F 
 788      28
 789 27d0 261F0C69 		.ascii	"&\037\014i\000\360\207\337\256XQ\210\214\005yr\274O"
 789      00F087DF 
 789      AE585188 
 789      8C057972 
 789      BC4F
 790 27e2 4E117102 		.ascii	"N\021q\002=1^)\362\226a\025/u\371\256\256\335{H\305"
 790      3D315E29 
 790      F2966115 
 790      2F75F9AE 
 790      AEDD7B48 
 791 27f7 313761D9 		.ascii	"17a\331\025\216F\335\305\020\263xc\310\227\207\322\""
ARM GAS  /tmp/ccUjHtTp.s 			page 64


 791      158E46DD 
 791      C510B378 
 791      63C89787 
 791      D222
 792 2809 722F3F30 		.ascii	"r/?0\021$\031\302M\020\256qA\320\343&H\276~Q\0344\335"
 792      112419C2 
 792      4D10AE71 
 792      41D0E326 
 792      48BE7E51 
 793 2820 E51062DE 		.ascii	"\345\020b\336\315\214[8c*,\357Q\336\333\005\367\362"
 793      CD8C5B38 
 793      632A2CEF 
 793      51DEDB05 
 793      F7F2
 794 2832 C2984AA2 		.ascii	"\302\230J\242\022\370\352Q\036\202A\270\274\014&8\314"
 794      12F8EA51 
 794      1E8241B8 
 794      BC0C2638 
 794      CC
 795 2843 2F30C27B 		.ascii	"/0\302{\230\332\360\227\302r:8B\365\220\233\024\267"
 795      98DAF097 
 795      C2723A38 
 795      42F5909B 
 795      14B7
 796 2855 C040A073 		.ascii	"\300@\240sr\210w4\305\226\243\275\311\230\326W\306H"
 796      72887734 
 796      C596A3BD 
 796      C998D657 
 796      C648
 797 2867 B47930D8 		.ascii	"\264y0\330\273\2542\024T\177f\377\241We\244$\376\273"
 797      BBAC3214 
 797      547F66FF 
 797      A15765A4 
 797      24FEBB
 798 287a 48D95364 		.ascii	"H\331Sd&\253\226\302\374\252/\215=|\240\210(N\221\201"
 798      26AB96C2 
 798      FCAA2F8D 
 798      3D7CA088 
 798      284E9181 
 799 288e CD4E1503 		.ascii	"\315N\025\003r\324Q\366E\"c3\210m\312\350u8\262\346"
 799      72D451F6 
 799      45226333 
 799      886DCAE8 
 799      7538B2E6 
 800 28a2 916CC7CA 		.ascii	"\221l\307\312\342\356\231\370:\214\332\210\027\307\011"
 800      E2EE99F8 
 800      3A8CDA88 
 800      17C709
 801 28b1 BCEAEF5C 		.ascii	"\274\352\357\\\005\235\037\377\177H\336-\330"
 801      059D1FFF 
 801      7F48DE2D 
 801      D8
 802              		.text
 803              		.section	.gnu.lto_.symtab.5e6bed6f9754ddc4,"",%progbits
 804 0000 64617461 		.ascii	"datasample_init\000\000\000\000\000\000\000\000\000"
 804      73616D70 
 804      6C655F69 
ARM GAS  /tmp/ccUjHtTp.s 			page 65


 804      6E697400 
 804      00000000 
 805 0018 00000042 		.ascii	"\000\000\000B\002\000\000datasample_writeToLog\000\000"
 805      02000064 
 805      61746173 
 805      616D706C 
 805      655F7772 
 806 0036 00000000 		.ascii	"\000\000\000\000\000\000\000\000\000\000\215\002\000"
 806      00000000 
 806      00008D02 
 806      00
 807 0043 00646174 		.ascii	"\000datasample_gpsToSample\000\000\000\000\000\000\000"
 807      6173616D 
 807      706C655F 
 807      67707354 
 807      6F53616D 
 808 0061 00000000 		.ascii	"\000\000\000\000\000.\004\000\000printDataSample\000"
 808      002E0400 
 808      00707269 
 808      6E744461 
 808      74615361 
 809 007a 00000000 		.ascii	"\000\000\000\000\000\000\000\000\000\000\000F\004\000"
 809      00000000 
 809      00000046 
 809      0400
 810 0088 00534436 		.ascii	"\000SD6\000\000\002\000\000\000\000\000\000\000\000"
 810      00000200 
 810      00000000 
 810      000000
 811 0097 006E0400 		.ascii	"\000n\004\000\000chvprintf\000\000\002\000\000\000\000"
 811      00636876 
 811      7072696E 
 811      74660000 
 811      02000000 
 812 00ac 00000000 		.ascii	"\000\000\000\000\000K\004\000\000uStrCpy\000\000\002"
 812      004B0400 
 812      00755374 
 812      72437079 
 812      000002
 813 00bf 00000000 		.ascii	"\000\000\000\000\000\000\000\000\000Z\004\000\000lo"
 813      00000000 
 813      005A0400 
 813      006C6F
 814 00ce 6766696C 		.ascii	"gfileWrite\000\000\002\000\000\000\000\000\000\000\000"
 814      65577269 
 814      74650000 
 814      02000000 
 814      00000000 
 815 00e3 005F0400 		.ascii	"\000_\004\000\000chsnprintf\000\000\002\000\000\000"
 815      00636873 
 815      6E707269 
 815      6E746600 
 815      00020000 
 816 00f8 00000000 		.ascii	"\000\000\000\000\000\000f\004\000\000"
 816      00006604 
 816      0000
 817              		.text
ARM GAS  /tmp/ccUjHtTp.s 			page 66


 818              		.section	.gnu.lto_.opts,"",%progbits
 819 0000 272D6D63 		.ascii	"'-mcpu=cortex-m4' '-mfloat-abi=hard' '-mfpu=fpv4-sp"
 819      70753D63 
 819      6F727465 
 819      782D6D34 
 819      2720272D 
 820 0033 2D643136 		.ascii	"-d16' '-mno-thumb-interwork' '-mthumb' '-O2' '-fomi"
 820      2720272D 
 820      6D6E6F2D 
 820      7468756D 
 820      622D696E 
 821 0066 742D6672 		.ascii	"t-frame-pointer' '-falign-functions=16' '-ffunction"
 821      616D652D 
 821      706F696E 
 821      74657227 
 821      20272D66 
 822 0099 2D736563 		.ascii	"-sections' '-fdata-sections' '-fno-common' '-flto' "
 822      74696F6E 
 822      73272027 
 822      2D666461 
 822      74612D73 
 823 00cc 272D6673 		.ascii	"'-fsingle-precision-constant'\000"
 823      696E676C 
 823      652D7072 
 823      65636973 
 823      696F6E2D 
 824              		.text
 825              		.section	.text.chprintf.constprop.0,"ax",%progbits
 826              		.align	2
 827              		.p2align 4,,15
 828              		.thumb
 829              		.thumb_func
 830              		.type	chprintf.constprop.0, %function
 831              	chprintf.constprop.0:
 832              		@ args = 4, pretend = 12, frame = 8
 833              		@ frame_needed = 0, uses_anonymous_args = 1
 834 0000 0EB4     		push	{r1, r2, r3}
 835 0002 00B5     		push	{lr}
 836 0004 82B0     		sub	sp, sp, #8
 837 0006 04AB     		add	r3, sp, #16
 838 0008 1A46     		mov	r2, r3
 839 000a 0549     		ldr	r1, .L2
 840 000c 0548     		ldr	r0, .L2+4
 841 000e 0193     		str	r3, [sp, #4]
 842 0010 FFF7FEFF 		bl	chvprintf
 843 0014 02B0     		add	sp, sp, #8
 844              		@ sp needed
 845 0016 5DF804EB 		ldr	lr, [sp], #4
 846 001a 03B0     		add	sp, sp, #12
 847 001c 7047     		bx	lr
 848              	.L3:
 849 001e 00BF     		.align	2
 850              	.L2:
 851 0020 00000000 		.word	.LC0
 852 0024 00000000 		.word	SD6
 853              		.size	chprintf.constprop.0, .-chprintf.constprop.0
 854 0028 AFF30080 		.section	.text.datasample_init,"ax",%progbits
ARM GAS  /tmp/ccUjHtTp.s 			page 67


 854      AFF30080 
 855              		.align	2
 856              		.p2align 4,,15
 857              		.global	datasample_init
 858              		.thumb
 859              		.thumb_func
 860              		.type	datasample_init, %function
 861              	datasample_init:
 862              		@ args = 0, pretend = 0, frame = 0
 863              		@ frame_needed = 0, uses_anonymous_args = 0
 864 0000 38B5     		push	{r3, r4, r5, lr}
 865 0002 334D     		ldr	r5, .L5
 866 0004 3349     		ldr	r1, .L5+4
 867 0006 0446     		mov	r4, r0
 868 0008 0430     		adds	r0, r0, #4
 869 000a FFF7FEFF 		bl	uStrCpy
 870 000e 04F10E00 		add	r0, r4, #14
 871 0012 2946     		mov	r1, r5
 872 0014 FFF7FEFF 		bl	uStrCpy
 873 0018 04F11E00 		add	r0, r4, #30
 874 001c 2946     		mov	r1, r5
 875 001e FFF7FEFF 		bl	uStrCpy
 876 0022 04F12E00 		add	r0, r4, #46
 877 0026 2946     		mov	r1, r5
 878 0028 FFF7FEFF 		bl	uStrCpy
 879 002c 04F13D00 		add	r0, r4, #61
 880 0030 2946     		mov	r1, r5
 881 0032 FFF7FEFF 		bl	uStrCpy
 882 0036 04F14700 		add	r0, r4, #71
 883 003a 2946     		mov	r1, r5
 884 003c FFF7FEFF 		bl	uStrCpy
 885 0040 04F17F00 		add	r0, r4, #127
 886 0044 2946     		mov	r1, r5
 887 0046 FFF7FEFF 		bl	uStrCpy
 888 004a 04F18700 		add	r0, r4, #135
 889 004e 2946     		mov	r1, r5
 890 0050 FFF7FEFF 		bl	uStrCpy
 891 0054 04F14F00 		add	r0, r4, #79
 892 0058 2946     		mov	r1, r5
 893 005a FFF7FEFF 		bl	uStrCpy
 894 005e 04F15F00 		add	r0, r4, #95
 895 0062 2946     		mov	r1, r5
 896 0064 FFF7FEFF 		bl	uStrCpy
 897 0068 04F16700 		add	r0, r4, #103
 898 006c 2946     		mov	r1, r5
 899 006e FFF7FEFF 		bl	uStrCpy
 900 0072 04F15700 		add	r0, r4, #87
 901 0076 2946     		mov	r1, r5
 902 0078 FFF7FEFF 		bl	uStrCpy
 903 007c 04F17700 		add	r0, r4, #119
 904 0080 2946     		mov	r1, r5
 905 0082 FFF7FEFF 		bl	uStrCpy
 906 0086 04F16F00 		add	r0, r4, #111
 907 008a 2946     		mov	r1, r5
 908 008c FFF7FEFF 		bl	uStrCpy
 909 0090 04F18F00 		add	r0, r4, #143
 910 0094 2946     		mov	r1, r5
ARM GAS  /tmp/ccUjHtTp.s 			page 68


 911 0096 FFF7FEFF 		bl	uStrCpy
 912 009a 04F19D00 		add	r0, r4, #157
 913 009e 2946     		mov	r1, r5
 914 00a0 FFF7FEFF 		bl	uStrCpy
 915 00a4 04F1AB00 		add	r0, r4, #171
 916 00a8 2946     		mov	r1, r5
 917 00aa FFF7FEFF 		bl	uStrCpy
 918 00ae 04F1B900 		add	r0, r4, #185
 919 00b2 2946     		mov	r1, r5
 920 00b4 FFF7FEFF 		bl	uStrCpy
 921 00b8 04F1C700 		add	r0, r4, #199
 922 00bc 2946     		mov	r1, r5
 923 00be FFF7FEFF 		bl	uStrCpy
 924 00c2 04F1D500 		add	r0, r4, #213
 925 00c6 2946     		mov	r1, r5
 926 00c8 BDE83840 		pop	{r3, r4, r5, lr}
 927 00cc FFF7FEBF 		b	uStrCpy
 928              	.L6:
 929              		.align	2
 930              	.L5:
 931 00d0 6C000000 		.word	.LC2
 932 00d4 64000000 		.word	.LC1
 933              		.size	datasample_init, .-datasample_init
 934 00d8 AFF30080 		.section	.text.datasample_writeToLog,"ax",%progbits
 934      AFF30080 
 935              		.align	2
 936              		.p2align 4,,15
 937              		.global	datasample_writeToLog
 938              		.thumb
 939              		.thumb_func
 940              		.type	datasample_writeToLog, %function
 941              	datasample_writeToLog:
 942              		@ args = 0, pretend = 0, frame = 0
 943              		@ frame_needed = 0, uses_anonymous_args = 0
 944 0000 2DE9F04F 		push	{r4, r5, r6, r7, r8, r9, r10, fp, lr}
 945 0004 0368     		ldr	r3, [r0]
 946 0006 2D4E     		ldr	r6, .L8
 947 0008 2D4A     		ldr	r2, .L8+4
 948 000a 0546     		mov	r5, r0
 949 000c 95B0     		sub	sp, sp, #84
 950 000e 0446     		mov	r4, r0
 951 0010 0133     		adds	r3, r3, #1
 952 0012 45F8043B 		str	r3, [r5], #4
 953 0016 04F14F07 		add	r7, r4, #79
 954 001a 00F10E0B 		add	fp, r0, #14
 955 001e 00F11E0A 		add	r10, r0, #30
 956 0022 00F12E09 		add	r9, r0, #46
 957 0026 00F13D08 		add	r8, r0, #61
 958 002a 00F1470C 		add	ip, r0, #71
 959 002e 00F17F0E 		add	lr, r0, #127
 960 0032 0897     		str	r7, [sp, #32]
 961 0034 8730     		adds	r0, r0, #135
 962 0036 0F46     		mov	r7, r1
 963 0038 04F15F01 		add	r1, r4, #95
 964 003c 0095     		str	r5, [sp]
 965 003e 0991     		str	r1, [sp, #36]
 966 0040 CDF804B0 		str	fp, [sp, #4]
ARM GAS  /tmp/ccUjHtTp.s 			page 69


 967 0044 04F16705 		add	r5, r4, #103
 968 0048 CDF808A0 		str	r10, [sp, #8]
 969 004c CDF80C90 		str	r9, [sp, #12]
 970 0050 04F1570A 		add	r10, r4, #87
 971 0054 04F17709 		add	r9, r4, #119
 972 0058 CDF81080 		str	r8, [sp, #16]
 973 005c CDF814C0 		str	ip, [sp, #20]
 974 0060 04F16F08 		add	r8, r4, #111
 975 0064 04F18F0C 		add	ip, r4, #143
 976 0068 CDF818E0 		str	lr, [sp, #24]
 977 006c 0790     		str	r0, [sp, #28]
 978 006e 04F19D0E 		add	lr, r4, #157
 979 0072 04F1AB00 		add	r0, r4, #171
 980 0076 04F1B90B 		add	fp, r4, #185
 981 007a 04F1C701 		add	r1, r4, #199
 982 007e D534     		adds	r4, r4, #213
 983 0080 1090     		str	r0, [sp, #64]
 984 0082 1291     		str	r1, [sp, #72]
 985 0084 0A95     		str	r5, [sp, #40]
 986 0086 CDF82CA0 		str	r10, [sp, #44]
 987 008a CDF83090 		str	r9, [sp, #48]
 988 008e CDF83480 		str	r8, [sp, #52]
 989 0092 CDF838C0 		str	ip, [sp, #56]
 990 0096 CDF83CE0 		str	lr, [sp, #60]
 991 009a CDF844B0 		str	fp, [sp, #68]
 992 009e 1394     		str	r4, [sp, #76]
 993 00a0 3046     		mov	r0, r6
 994 00a2 4FF48071 		mov	r1, #256
 995 00a6 FFF7FEFF 		bl	chsnprintf
 996 00aa 3146     		mov	r1, r6
 997 00ac 82B2     		uxth	r2, r0
 998 00ae 0023     		movs	r3, #0
 999 00b0 3846     		mov	r0, r7
 1000 00b2 15B0     		add	sp, sp, #84
 1001              		@ sp needed
 1002 00b4 BDE8F04F 		pop	{r4, r5, r6, r7, r8, r9, r10, fp, lr}
 1003 00b8 FFF7FEBF 		b	logfileWrite
 1004              	.L9:
 1005              		.align	2
 1006              	.L8:
 1007 00bc 00000000 		.word	.LANCHOR0
 1008 00c0 70000000 		.word	.LC3
 1009              		.size	datasample_writeToLog, .-datasample_writeToLog
 1010 00c4 AFF30080 		.section	.text.datasample_gpsToSample,"ax",%progbits
 1010      AFF30080 
 1010      AFF30080 
 1011              		.align	2
 1012              		.p2align 4,,15
 1013              		.global	datasample_gpsToSample
 1014              		.thumb
 1015              		.thumb_func
 1016              		.type	datasample_gpsToSample, %function
 1017              	datasample_gpsToSample:
 1018              		@ args = 0, pretend = 0, frame = 0
 1019              		@ frame_needed = 0, uses_anonymous_args = 0
 1020 0000 38B5     		push	{r3, r4, r5, lr}
 1021 0002 0446     		mov	r4, r0
ARM GAS  /tmp/ccUjHtTp.s 			page 70


 1022 0004 0D46     		mov	r5, r1
 1023 0006 081D     		adds	r0, r1, #4
 1024 0008 2146     		mov	r1, r4
 1025 000a FFF7FEFF 		bl	uStrCpy
 1026 000e 05F10E00 		add	r0, r5, #14
 1027 0012 04F11001 		add	r1, r4, #16
 1028 0016 FFF7FEFF 		bl	uStrCpy
 1029 001a 05F11E00 		add	r0, r5, #30
 1030 001e 04F12801 		add	r1, r4, #40
 1031 0022 FFF7FEFF 		bl	uStrCpy
 1032 0026 05F12E00 		add	r0, r5, #46
 1033 002a 04F14001 		add	r1, r4, #64
 1034 002e FFF7FEFF 		bl	uStrCpy
 1035 0032 05F13D00 		add	r0, r5, #61
 1036 0036 04F15001 		add	r1, r4, #80
 1037 003a BDE83840 		pop	{r3, r4, r5, lr}
 1038 003e FFF7FEBF 		b	uStrCpy
 1039              		.size	datasample_gpsToSample, .-datasample_gpsToSample
 1040 0042 00BFAFF3 		.section	.text.printDataSample,"ax",%progbits
 1040      0080AFF3 
 1040      0080AFF3 
 1040      0080
 1041              		.align	2
 1042              		.p2align 4,,15
 1043              		.global	printDataSample
 1044              		.thumb
 1045              		.thumb_func
 1046              		.type	printDataSample, %function
 1047              	printDataSample:
 1048              		@ args = 0, pretend = 0, frame = 0
 1049              		@ frame_needed = 0, uses_anonymous_args = 0
 1050 0000 2DE9F043 		push	{r4, r5, r6, r7, r8, r9, lr}
 1051 0004 8DB0     		sub	sp, sp, #52
 1052 0006 00F13D0C 		add	ip, r0, #61
 1053 000a 00F1470E 		add	lr, r0, #71
 1054 000e 00F11E09 		add	r9, r0, #30
 1055 0012 00F12E08 		add	r8, r0, #46
 1056 0016 00F17F07 		add	r7, r0, #127
 1057 001a 00F15F06 		add	r6, r0, #95
 1058 001e 00F15705 		add	r5, r0, #87
 1059 0022 00F17704 		add	r4, r0, #119
 1060 0026 00F18F01 		add	r1, r0, #143
 1061 002a 00F19D02 		add	r2, r0, #157
 1062 002e 00F1AB03 		add	r3, r0, #171
 1063 0032 0891     		str	r1, [sp, #32]
 1064 0034 0992     		str	r2, [sp, #36]
 1065 0036 0A93     		str	r3, [sp, #40]
 1066 0038 021D     		adds	r2, r0, #4
 1067 003a 00F10E03 		add	r3, r0, #14
 1068 003e CDF80090 		str	r9, [sp]
 1069 0042 CDF80480 		str	r8, [sp, #4]
 1070 0046 CDF808C0 		str	ip, [sp, #8]
 1071 004a CDF80CE0 		str	lr, [sp, #12]
 1072 004e 0497     		str	r7, [sp, #16]
 1073 0050 0596     		str	r6, [sp, #20]
 1074 0052 0695     		str	r5, [sp, #24]
 1075 0054 0794     		str	r4, [sp, #28]
ARM GAS  /tmp/ccUjHtTp.s 			page 71


 1076 0056 0349     		ldr	r1, .L12
 1077 0058 0348     		ldr	r0, .L12+4
 1078 005a FFF7FEFF 		bl	chprintf.constprop.0
 1079 005e 0DB0     		add	sp, sp, #52
 1080              		@ sp needed
 1081 0060 BDE8F083 		pop	{r4, r5, r6, r7, r8, r9, pc}
 1082              	.L13:
 1083              		.align	2
 1084              	.L12:
 1085 0064 00000000 		.word	.LC0
 1086 0068 00000000 		.word	SD6
 1087              		.size	printDataSample, .-printDataSample
 1088 006c AFF30080 		.section	.bss.dataPrintBuf,"aw",%nobits
 1089              		.align	2
 1090              		.set	.LANCHOR0,. + 0
 1091              		.type	dataPrintBuf, %object
 1092              		.size	dataPrintBuf, 384
 1093              	dataPrintBuf:
 1094 0000 00000000 		.space	384
 1094      00000000 
 1094      00000000 
 1094      00000000 
 1094      00000000 
 1095              		.section	.rodata.str1.4,"aMS",%progbits,1
 1096              		.align	2
 1097              	.LC0:
 1098 0000 54494D3A 		.ascii	"TIM:%s, LAT:%s, LNG:%s, ALT:%s, SAT:%s, TMPI:%s, TM"
 1098      25732C20 
 1098      4C41543A 
 1098      25732C20 
 1098      4C4E473A 
 1099 0033 50453A25 		.ascii	"PE:%s, PRS:%s, HUMI:%s, HUME:%s, ACC(%s,%s,%s)\012\000"
 1099      732C2050 
 1099      52533A25 
 1099      732C2048 
 1099      554D493A 
 1100 0063 00       		.space	1
 1101              	.LC1:
 1102 0064 2D3A2D3A 		.ascii	"-:-:-\000"
 1102      2D00
 1103 006a 0000     		.space	2
 1104              	.LC2:
 1105 006c 2D00     		.ascii	"-\000"
 1106 006e 0000     		.space	2
 1107              	.LC3:
 1108 0070 25642C25 		.ascii	"%d,%s,%s,%s,%s,%s,%s,%s,%s,%s,%s,%s,%s,%s,%s,%s,%s,"
 1108      732C2573 
 1108      2C25732C 
 1108      25732C25 
 1108      732C2573 
 1109 00a3 25732C25 		.ascii	"%s,%s,%s\012\000"
 1109      732C2573 
 1109      0A00
 1110              		.comm	__gnu_lto_v1,1,1
 1111 00ad 000000   		.ident	"GCC: (GNU Tools for ARM Embedded Processors) 4.8.4 20140526 (release) [ARM/embedded-4_8-br
ARM GAS  /tmp/ccUjHtTp.s 			page 72


DEFINED SYMBOLS
                            *ABS*:0000000000000000 datasample.c
     /tmp/ccUjHtTp.s:826    .text.chprintf.constprop.0:0000000000000000 $t
     /tmp/ccUjHtTp.s:831    .text.chprintf.constprop.0:0000000000000000 chprintf.constprop.0
     /tmp/ccUjHtTp.s:851    .text.chprintf.constprop.0:0000000000000020 $d
     /tmp/ccUjHtTp.s:855    .text.datasample_init:0000000000000000 $t
     /tmp/ccUjHtTp.s:861    .text.datasample_init:0000000000000000 datasample_init
     /tmp/ccUjHtTp.s:931    .text.datasample_init:00000000000000d0 $d
     /tmp/ccUjHtTp.s:935    .text.datasample_writeToLog:0000000000000000 $t
     /tmp/ccUjHtTp.s:941    .text.datasample_writeToLog:0000000000000000 datasample_writeToLog
     /tmp/ccUjHtTp.s:1007   .text.datasample_writeToLog:00000000000000bc $d
     /tmp/ccUjHtTp.s:1011   .text.datasample_gpsToSample:0000000000000000 $t
     /tmp/ccUjHtTp.s:1017   .text.datasample_gpsToSample:0000000000000000 datasample_gpsToSample
     /tmp/ccUjHtTp.s:1041   .text.printDataSample:0000000000000000 $t
     /tmp/ccUjHtTp.s:1047   .text.printDataSample:0000000000000000 printDataSample
     /tmp/ccUjHtTp.s:1085   .text.printDataSample:0000000000000064 $d
     /tmp/ccUjHtTp.s:1089   .bss.dataPrintBuf:0000000000000000 $d
     /tmp/ccUjHtTp.s:1093   .bss.dataPrintBuf:0000000000000000 dataPrintBuf
     /tmp/ccUjHtTp.s:1096   .rodata.str1.4:0000000000000000 $d
                            *COM*:0000000000000001 __gnu_lto_v1
     /tmp/ccUjHtTp.s:854    .text.chprintf.constprop.0:0000000000000028 $t
     /tmp/ccUjHtTp.s:934    .text.datasample_init:00000000000000d8 $t
     /tmp/ccUjHtTp.s:1010   .text.datasample_writeToLog:00000000000000c4 $t
     /tmp/ccUjHtTp.s:1088   .text.printDataSample:000000000000006c $t

UNDEFINED SYMBOLS
chvprintf
SD6
uStrCpy
chsnprintf
logfileWrite
