ARM GAS  /tmp/cc385vAD.s 			page 1


   1              		.syntax unified
   2              		.cpu cortex-m4
   3              		.eabi_attribute 27, 3
   4              		.eabi_attribute 28, 1
   5              		.fpu fpv4-sp-d16
   6              		.eabi_attribute 20, 1
   7              		.eabi_attribute 21, 1
   8              		.eabi_attribute 23, 3
   9              		.eabi_attribute 24, 1
  10              		.eabi_attribute 25, 1
  11              		.eabi_attribute 26, 1
  12              		.eabi_attribute 30, 2
  13              		.eabi_attribute 34, 1
  14              		.eabi_attribute 18, 4
  15              		.thumb
  16              		.file	"datalogger.c"
  17              		.section	.gnu.lto_.jmpfuncs.74239137647119ef,"",%progbits
  18 0000 789C7D50 		.ascii	"x\234}P\275N\3030\020\276\263\323\246M\251\202x\200"
  18      BD4EC330 
  18      10BEB3D3 
  18      A64DA982 
  18      7880
  19 0012 C842622B 		.ascii	"\310Bb+j\325\221\211\212\206.\345G\201\2015\002\023"
  19      6AD59189 
  19      8A862EE5 
  19      47818135 
  19      0213
  20 0024 452A4DE4 		.ascii	"E*M\344\206 \304\222\307\350\302\300\263\360VL\370/"
  20      8620C492 
  20      C7E8C2C0 
  20      B3F0564C 
  20      F82F
  21 0036 C82A880C 		.ascii	"\310*\210\014\276\363}?\3679\004\010\374\365\225\010"
  21      BEF37D3F 
  21      F7390408 
  21      FCF59508 
  22 0046 F029EB10 		.ascii	"\360)\353\020\250\354(\225m-+\000\326\012\226\"r\207"
  22      A8EC2895 
  22      6D2D2B00 
  22      D60A9622 
  22      7287
  23 0058 39AA1E7D 		.ascii	"9\252\036}j\347\262\220\332\"\030\230\373\033|5\333"
  23      6AE7B290 
  23      DA221898 
  23      FB1B7C35 
  23      DB
  24 0069 663F4712 		.ascii	"f?G\022\001\2767\333\323\034\251\335AQ\352\275\220\270"
  24      01BE37DB 
  24      D31CA9DD 
  24      4151EABD 
  24      90B8
  25 007b 2C2F82B1 		.ascii	",/\202\261au\014\307\005\273\021\\\033\320o-t\030\275"
  25      61750CC7 
  25      05BB115C 
  25      1BD06F2D 
  25      7418BD
  26 008e 4F7AA10D 		.ascii	"Oz\241\015\320A\252g\275\026\354\377\260lvw_\203\356"
ARM GAS  /tmp/cc385vAD.s 			page 2


  26      D041AA67 
  26      BD16ECFF 
  26      B06C7677 
  26      5F83EE
  27 00a1 C26EE83C 		.ascii	"\302n\350<\226\230B\353\035U\020\301\207U\015\264\312"
  27      969842EB 
  27      1D5510C1 
  27      87550DB4 
  27      CA
  28 00b2 871EF431 		.ascii	"\207\036\3641P\376\003u\220\235p\007\000{!Zc\317\371"
  28      50FE0375 
  28      909D7007 
  28      007B215A 
  28      63CFF9
  29 00c5 9126B49A 		.ascii	"\221&\264\232\016u\270\343\371\354v\266\274Z,\342\344"
  29      0E75B8E3 
  29      F9EC76B6 
  29      BC5A2CE2 
  29      E4
  30 00d6 84C54214 		.ascii	"\204\305B\024\202\335\013\236V\371:c\313\"{\314W|\304"
  30      82DD0B9E 
  30      56F93A63 
  30      CB227BCC 
  30      577CC4
  31 00e9 E224399A 		.ascii	"\342$9\232L\037\002`.{\236V\351\252\3102.\330M\225\212"
  31      4C1F0260 
  31      2E7B9E56 
  31      E9AAC832 
  31      2ED84D95 
  32 00fe 8A4BC2F8 		.ascii	"\212K\302\370\267\335E\361\274\326v\347\322k\363\272"
  32      B7DD45F1 
  32      BCD676E7 
  32      D26BF3BA 
  33 010e A9F8D348 		.ascii	"\251\370\323H\031N'\377\032\026e\251\014\017]\302Y\233"
  33      194E27FF 
  33      1A1665A9 
  33      0C0F5DC2 
  33      599B
  34 0120 EC92BFB4 		.ascii	"\354\222\277\264\351\002\370\006}8iH"
  34      E902F806 
  34      7D386948 
  35              		.text
  36              		.section	.gnu.lto_.inline.74239137647119ef,"",%progbits
  37 0000 789C7551 		.ascii	"x\234uQ=O\3030\020}\347\\\023\247\371h\201\241\255\324"
  37      3D4FC330 
  37      107DE75C 
  37      13A7F968 
  37      81A1ADD4 
  38 0014 D22284E8 		.ascii	"\322\"\204\350\002\033[\205\330\221:3\262\265\374\213"
  38      021B5B85 
  38      D8913A33 
  38      B2B5FC8B 
  39 0024 0C087542 		.ascii	"\014\010uB\375\001Ht\343\017 \301\300\300\302\316\314"
  39      FD014874 
  39      E30F20C1 
  39      C0C0C2CE 
  39      CC
ARM GAS  /tmp/cc385vAD.s 			page 3


  40 0035 DC81B123 		.ascii	"\334\201\261#B\014\234\3558\242\002\022\345\362|~w~"
  40      420C9CED 
  40      38A20212 
  40      E5F27C7E 
  40      777E
  41 0047 F7ACA0F0 		.ascii	"\367\254\240\360\327sW\2463p\322\205%\205\213~\305%"
  41      D77357A6 
  41      3370D285 
  41      25858B7E 
  41      C525
  42 0059 D4722098 		.ascii	"\324r \230\217\315\033\244\226@\330\352\020T\375\372"
  42      8FCD1BA4 
  42      9640D8EA 
  42      1054FDFA 
  43 0069 04F5D5C8 		.ascii	"\004\365\325\310R+\0228\263\010\302\346x\203H\330\010"
  43      522B1238 
  43      B308C2E6 
  43      788348D8 
  43      08
  44 007a CE99177D 		.ascii	"\316\231\027}\327\227\336#v\321\324\231\2164\0373v\016"
  44      D797DE23 
  44      76D1D499 
  44      8E341F33 
  44      760E
  45 008c 28569333 		.ascii	"(V\2233\272 \311@M=\202\315e\006M=\"\233\313\015\232"
  45      BA20C940 
  45      4D3D82CD 
  45      65064D3D 
  45      229BCB0D 
  46 00a1 7AA4C8A9 		.ascii	"z\244\310\251\225\317\204\310\217!\347\026\022g\335"
  46      95CF84C8 
  46      8F21E716 
  46      1267DD
  47 00b0 8235F2FB 		.ascii	"\2025\362\373\323\201\006\337t\012m\376_\355\201V\245"
  47      D38106DF 
  47      740A6DFE 
  47      5FED8156 
  47      A5
  48 00c1 0A592BA7 		.ascii	"\012Y+\247^\220\323/39,+\307\020\2455\244=\231=xl!\232"
  48      5E90D32F 
  48      33392C2B 
  48      C710A535 
  48      A43D993D 
  49 00d9 EDDB6A3B 		.ascii	"\355\333j;q9\213\351\021\242\331\026\212~>\206^\035"
  49      71398BE9 
  49      11A2D916 
  49      8A7E3E86 
  49      5E1D
  50 00eb AEDB537A 		.ascii	"\256\333Sz(\254\010\201h\376i\267\376\225\211\301A\351"
  50      28AC0881 
  50      68FE69B7 
  50      FE9589C1 
  50      41E9
  51 00fd 6041EC37 		.ascii	"`A\3547\326\035\254#\331\254\\\016\227C\350\345\360"
  51      D61DAC23 
  51      D9AC5C0E 
  51      9743E8E5 
ARM GAS  /tmp/cc385vAD.s 			page 4


  51      F0
  52 010e 1F9713B4 		.ascii	"\037\227\023\264\272\244\034\325\306A\230\276\035A?"
  52      BAA41CD5 
  52      C64198BE 
  52      1D413F
  53 011d EDAE1548 		.ascii	"\355\256\025H\320\026jS\253\022wC\231\225m])=Iy\273"
  53      D0166A53 
  53      AB127743 
  53      99956D5D 
  53      293D4979 
  54 0132 471CD82B 		.ascii	"G\034\330+h\230S&\025\"\177#\334\270\035!~\020E\372"
  54      68985326 
  54      15227F23 
  54      DCB81D21 
  54      7E1045FA 
  55 0146 72AF097E 		.ascii	"r\257\011~mxAl\272\206\302f\347K\225\313\220\275\310"
  55      6D78416C 
  55      BA86C266 
  55      E74B95CB 
  55      90BDC8
  56 0159 402AFFFC 		.ascii	"@*\377\374\320\320W/\244\234\0142\233\370\006\336rR"
  56      D0D0572F 
  56      A49C0C32 
  56      9BF806DE 
  56      7252
  57 016b D2       		.ascii	"\322"
  58              		.text
  59              		.section	.gnu.lto_.pureconst.74239137647119ef,"",%progbits
  60 0000 789C6362 		.ascii	"x\234cb`b\220f\200\000^\006\011F)fI\026)V)6)v\006\016"
  60      60629066 
  60      80005E06 
  60      09462966 
  60      49162956 
  61 001a 064E562E 		.ascii	"\006NV.)nI\036)^K\000\026\373\001\252"
  61      296E491E 
  61      295E4B00 
  61      16FB01AA 
  62              		.text
  63              		.section	.gnu.lto_chprintf.74239137647119ef,"",%progbits
  64 0000 789C8550 		.ascii	"x\234\205P\315J\002Q\024>\337\0355uc\333v\342\0034\213"
  64      CD4A0251 
  64      143EDF1D 
  64      357563DB 
  64      76E20334 
  65 0015 22E80D7A 		.ascii	"\"\350\015z\000\203Z\3058\216z\011\035\321Q\260\026"
  65      00835AC5 
  65      388E7A09 
  65      1DD151B0 
  65      16
  66 0026 5EC1C245 		.ascii	"^\301\302E\013ig\021)\321:\244\027\030\202\332DI\273"
  66      0B696711 
  66      29D13AA4 
  66      171882DA 
  66      4449BB
  67 0039 162D2497 		.ascii	"\026-$\227\265h\321*\202\351\336\031\024\372\201\016"
  67      B568D12A 
  67      82E9DE19 
ARM GAS  /tmp/cc385vAD.s 			page 5


  67      14FA810E 
  68 0049 DC7B7EBE 		.ascii	"\334{~\276s\276\363\303\210\321OY\220o\010\2425\251"
  68      73BEF3C3 
  68      88D14F59 
  68      906F08A2 
  68      35A9
  69 005b A11158F7 		.ascii	"\241\021X\367\236\250\025e\2002\010\324dhnB\245\262"
  69      9EA81565 
  69      803208D4 
  69      64686E42 
  69      A5B2
  70 006d 140D84DB 		.ascii	"\024\015\204\333\035_O\036\321\023n\273/>=\017\340\220"
  70      1D5F4F1E 
  70      D1136EBB 
  70      2F3E3D0F 
  70      E090
  71 007f B42B2013 		.ascii	"\264+ \023\264!\035$}\305B\337\373\250Z\321uOon!\016"
  71      B4211D24 
  71      7DC542DF 
  71      FBA85AD1 
  71      754F6F6E 
  72 0095 45EBCDF3 		.ascii	"E\353\315\363\022\034\032\243\325\377\012/\230\373\354"
  72      121C1AA3 
  72      D5FF0A2F 
  72      98FBEC
  73 00a4 794FC3F7 		.ascii	"yO\303\367\203W\364XLC\021\024\222\037\"d\340\014)\225"
  73      8357F458 
  73      4C431114 
  73      921F2264 
  73      E00C2995 
  74 00b8 13A6B624 		.ascii	"\023\246\266$O\032\030H\177\0325\375\241\323\362W\233"
  74      4F1A1848 
  74      7F1A35FD 
  74      A1D3F257 
  74      9B
  75 00c9 AC8329AD 		.ascii	"\254\203)\255\215ho\3343\015\234#,\321]\372\020\035"
  75      8D686FDC 
  75      330D9C23 
  75      2CD15DFA 
  75      101D
  76 00db 31CF1132 		.ascii	"1\317\0212\341\247\313\310\016Gx\312\344g\251\2514\""
  76      E1A7CBC8 
  76      0E4778CA 
  76      E467A9A9 
  76      3422
  77 00ed 2E3BD288 		.ascii	".;\322\210\366\307G\223x\200\344\021\231\021\314\231"
  77      F6C74793 
  77      7880E411 
  77      9911CC99 
  78 00fd 088E9B87 		.ascii	"\010\216\233\207\226G( \340\210\252\222\366\370\370"
  78      96472820 
  78      E088AA92 
  78      F6F8F8
  79 010c 77C798A9 		.ascii	"w\307\230\251H\377\356\310\021'\272\243\253\027\026"
  79      48FFEEC8 
  79      1127BAA3 
  79      AB1716
ARM GAS  /tmp/cc385vAD.s 			page 6


  80 011b 04027099 		.ascii	"\004\002p\231.EG\235[\312\003\265\372'\332l\214\340"
  80      2E45479D 
  80      5BCA03B5 
  80      FA27DA6C 
  80      8CE0
  81 012d 5469B983 		.ascii	"Ti\271\203\334Q\315\261\244\027\354\242\245\233v\266"
  81      DC51CDB1 
  81      A417ECA2 
  81      A59B76B6 
  82 013d A167ADBA 		.ascii	"\241g\255\272n\026x\206\333U\335\251\324J\333\2724\352"
  82      6E167886 
  82      DB55DDA9 
  82      D44ADBBA 
  82      34EA
  83 014f 4685DBB5 		.ascii	"F\205\333\265\252\004\312\025^rr\213\005bF9\221\263"
  83      AA04CA15 
  83      5E72728B 
  83      05624639 
  83      91B3
  84 0161 2B45C371 		.ascii	"+E\303q\254\354V\246\341X\325/\251H\201#"
  84      ACEC56A6 
  84      E158D52F 
  84      A9488123 
  85              		.text
  86              		.section	.gnu.lto_logfileNew.part.0.74239137647119ef,"",%progbits
  87 0000 789C8593 		.ascii	"x\234\205\223Mh\023Q\020\200g\336\333?ckR\215\210\210"
  87      4D681351 
  87      108067DE 
  87      DB3F636B 
  87      528D8888 
  88 0014 B2543CA9 		.ascii	"\262T<\251Es\024\212V\022r)XB\002z\021b\032\227\205"
  88      4573148A 
  88      56127229 
  88      5842027A 
  88      11621A97 
  89 0029 D6C0DA9B 		.ascii	"\326\300\332\233\207\276\324X<\364\020\2744XD\213\210"
  89      87BED458 
  89      3CF410BC 
  89      3458448B 
  89      88
  90 003a A082F464 		.ascii	"\240\202\364d\216\365V\021\377\216\205b\203\305\233"
  90      8EF55611 
  90      FF8E8562 
  90      83C59B
  91 0049 8817A1F5 		.ascii	"\210\027\241\365\320\355\314n\262\325h\360\301\316\314"
  91      D0EDCC6E 
  91      B2D568F0 
  91      C1CECC
  92 0058 CECE3733 		.ascii	"\316\31673o\336[\001\002\272W\232\236\253\022`\2144"
  92      6FDE5B01 
  92      02BA579A 
  92      9EAB1260 
  92      8C34
  93 006a 9A8046FD 		.ascii	"\232\200F\375=\031\006\212@\013!\347\023\240b\332\326"
  93      3D19068A 
  93      400B21E7 
  93      13A062DA 
ARM GAS  /tmp/cc385vAD.s 			page 7


  93      D6
  94 007b 30A83E89 		.ascii	"0\250>\211:{\253\226\3261tD6\000a\332\020R\323q\372"
  94      3A7BAB96 
  94      D6317444 
  94      360061DA 
  94      1052D371 
  95 0090 0A725639 		.ascii	"\012rV9\010\213J\335k\335Y\230;\254\036\315\324\325"
  95      088B4ADD 
  95      6BDD5998 
  95      3BAC1ECD 
  95      D4D5
  96 00a2 B6EFA38B 		.ascii	"\266\357\243\213T?\201PB\270L/h\007Jh\1776\024\222\313"
  96      543F8150 
  96      42B84C2F 
  96      68074A68 
  96      7F361492 
  97 00b7 EB3F9BA8 		.ascii	"\353?\233\250fU\365\207\357\307]\224\002\016\355\202"
  97      6655F587 
  97      EFC75D94 
  97      020EED82 
  98 00c7 5608E23F 		.ascii	"V\010\342?\301\265\257c+\252\266\354\373\347]\324\004"
  98      C1B5AF63 
  98      2BAAB6EC 
  98      FBE75DD4 
  98      04
  99 00d8 1CF95FBD 		.ascii	"\034\371_\275\227B\265|\177u\303\032@\234\244\016I\240"
  99      9742B57C 
  99      7F75C31A 
  99      409CA40E 
  99      49A0
 100 00ea 24417145 		.ascii	"$AqE|\214\203\240\223~B\332\000\027u\223\204a\261 T"
 100      7C8C83A0 
 100      937E42DA 
 100      00177593 
 100      8461B120 
 101 00ff 879A5275 		.ascii	"\207\232Ru;\014+\342\"I\340j\264\362$y2y\012$-\013("
 101      3B0C2BE2 
 101      2249E06A 
 101      B4F22479 
 101      32790A24 
 102 0116 02FD0E66 		.ascii	"\002\375\016f\336n~\216\027\361)\352p\022\236)Zg]4\027"
 102      DE6E7E8E 
 102      17F129EA 
 102      70129E29 
 102      5A675D34 
 103 012b E07E55A9 		.ascii	"\340~U\251\204\213\226\203\202\333\334\0234w\255\275"
 103      848B9683 
 103      82DBDC13 
 103      3477ADBD 
 104 013b 4707C920 		.ascii	"G\007\311 \266\331xx\260\233\215\365dC\230=16\270vs"
 104      B6D97878 
 104      B09B8DF5 
 104      6443983D 
 104      3136B876 
 105 0150 FDAFDA7B 		.ascii	"\375\257\332{{\362\242]\233\256\307\007\230mm\247B\324"
 105      7BF2A25D 
 105      9BAEC707 
ARM GAS  /tmp/cc385vAD.s 			page 8


 105      986D6DA7 
 105      42D4
 106 0162 41ED16FC 		.ascii	"A\355\026\374Rw\031\351+\265\253P\207\024\310t\177\214"
 106      527719E9 
 106      2BB5AB50 
 106      8714C874 
 106      7F8C
 107 0174 C6B30F60 		.ascii	"\306\263\017`\005j\337^\373G#\206\277\311\337'_\240"
 107      056ADF5E 
 107      FB472386 
 107      BFC9DF27 
 107      5FA0
 108 0186 D7F9048F 		.ascii	"\327\371\004\217\344M\363\313G\354\004\352Q?\273e\342"
 108      E44DF3CB 
 108      47EC04EA 
 108      513FBB65 
 108      E2
 109 0197 9301CA29 		.ascii	"\223\001\312)\342m\232\260\357\262\303\030\224\237\233"
 109      E26D9AB0 
 109      EFB2C318 
 109      949F9B
 110 01a6 34420740 		.ascii	"4B\007@D&J\3216tv6\224zEY\006\216\301\361\007\252q\301"
 110      44264AD1 
 110      36747636 
 110      947A4559 
 110      068EC1F1 
 111 01be C5FDD066 		.ascii	"\305\375\320f(\213\213\007\302\304\267\237\317\211N"
 111      288B8B07 
 111      C2C4B79F 
 111      CF894E
 112 01cd 6E33C81D 		.ascii	"n3\310\0356\254\301\326\260\014\316ac\023\273\007\231"
 112      36ACC1D6 
 112      B00CCE61 
 112      6313BB07 
 112      99
 113 01de EC394819 		.ascii	"\3549H\031\035D\022\243\315\353\301\205\370D\177\021"
 113      1D4412A3 
 113      CDEBC185 
 113      F8447F11 
 114 01ee D7B6D8B9 		.ascii	"\327\266\330\271\012D\232\362\305\222\305\261t\305\264"
 114      0A449AF2 
 114      C592C5B1 
 114      74C5B4
 115 01fd B5A5245F 		.ascii	"\265\245$_\"\344X\336G\377xq\2528Qq\234\2627T\002#\264"
 115      22E458DE 
 115      47FF7871 
 115      AA385171 
 115      9CB23754 
 116 0214 A457BE69 		.ascii	"\244W\276i\2463\027\013\331\241\324\351\364H~d\364R"
 116      A633170B 
 116      D9A1D4E9 
 116      F4487E64 
 116      F452
 117 0226 369BC99D 		.ascii	"6\233\311\235\2633\236W\361\354\222W.N\2717\034{\264"
 117      B3339E57 
 117      F1EC9257 
 117      2E4EB937 
ARM GAS  /tmp/cc385vAD.s 			page 9


 117      1C7BB4
 118 0239 E25C7727 		.ascii	"\342\\w'\312\247\354L.w\342Lj<\006;\315\031\337\036"
 118      CAA7EC4C 
 118      2E77E24C 
 118      6A3C063B 
 118      CD19DF1E 
 119              		.text
 120              		.section	.gnu.lto_logfileWrite.part.1.74239137647119ef,"",%progbits
 121 0000 789C8D52 		.ascii	"x\234\215R\275k\024Q\020\237\337{\273\233\333\030\341"
 121      BD6B1451 
 121      109FDF7B 
 121      BB9BDB18 
 121      E1
 122 0011 0A416321 		.ascii	"\012Ac!1`\243\230 Z\331\372/$\240\345\346\\\327\205"
 122      3160A398 
 122      205AD9FA 
 122      2F24A0E5 
 122      E65CD785 
 123 0025 F34E2E27 		.ascii	"\363N.'\026\026\231KN\015\022\302\221F1\026\011\"b!"
 123      1616994B 
 123      4E0D12C2 
 123      91463116 
 123      09226221 
 124 0039 8A562116 		.ascii	"\212V!\026\253B\260Q\021\322(\210\327'\330\010\"\"\256"
 124      AB42B051 
 124      11D22888 
 124      D727D808 
 124      2222AE
 125 004c 33BB7717 		.ascii	"3\273w\027\243\202y\2603\357\343\3671\363\366\0312\364"
 125      A38279B0 
 125      33EFE3F7 
 125      31F3F619 
 125      32F4
 126 005e E73829DF 		.ascii	"\3478)\337K\223gx\004\267\365F&.L\226\215\261\353\243"
 126      4B936778 
 126      04B7F546 
 126      262E4C96 
 126      8DB1EBA3 
 127 0072 C4FDCEB3 		.ascii	"\304\375\316\263\003\304\003\026\216\3566\012\016\240"
 127      03C40316 
 127      8EEE360A 
 127      0EA0
 128 0080 13024DB9 		.ascii	"\023\002M\271\306:\230:\003\325\362\206i\231y\241}u"
 128      C63A983A 
 128      03D5F286 
 128      699979A1 
 128      7D75
 129 0092 23C14D4E 		.ascii	"#\301MN\032K\374#M\201\030\342[\004\225@\247e\201B\226"
 129      1A4BFC23 
 129      4D8118E2 
 129      5B049540 
 129      A7658142 
 130 00a7 0CB61792 		.ascii	"\014\266\027\222s\3711\263\233\361l\014kh\377\026\255"
 130      73F931B3 
 130      9BF16C0C 
 130      6B68FF16 
 130      AD
ARM GAS  /tmp/cc385vAD.s 			page 10


 131 00b8 98D3CC3F 		.ascii	"\230\323\314?iO\230\375.\3151tp\2136\224\323\234\277"
 131      694F98FD 
 131      2ECD3174 
 131      708B3694 
 131      D39CBF
 132 00cb 69492BF9 		.ascii	"iI+\371\26467\310K\323-\376)\205\306p\015\035\332\011"
 132      B43637C8 
 132      4BD32DFE 
 132      2985C670 
 132      0D1DDA09 
 133 00df 9317928F 		.ascii	"\223\027\222\217k\363{\271\315]\246g\350\350\216:l%"
 133      6BF37BB9 
 133      CD5DA667 
 133      E8E88E3A 
 133      6C25
 134 00f1 E9B53B83 		.ascii	"\351\265;\2037\266y\036\373\237\347#\303\3554]\371Z"
 134      37B6791E 
 134      FB9FE723 
 134      C3ED345D 
 134      F95A
 135 0103 F0810B7A 		.ascii	"\360\201\013z\2331\372,\005x\200ardQp5\010\320\245\246"
 135      9B31FA2C 
 135      05788061 
 135      72645170 
 135      3508D0A5 
 136 0118 580CE527 		.ascii	"X\014\345'\001\356gq9\213w\263xO\"\251\233\2141\211"
 136      01EE6771 
 136      398B77B3 
 136      784F22A9 
 136      9B8C3189 
 137 012c FA1BC7E0 		.ascii	"\372\033\307\340j\266\3430Y~M\323\037n}\371\206\000"
 137      6AB6E330 
 137      597E4DD3 
 137      1F6E7DF9 
 137      8600
 138 013e 0FE52482 		.ascii	"\017\345$\2029B\207\305p\221n7\230\2131\374\010\320"
 138      394287C5 
 138      70916E37 
 138      988B31FC 
 138      08D0
 139 0150 2AFBB3DA 		.ascii	"*\373\263\332&z]\276\245f\342uI\366\012}\347Y\205\357"
 139      267A5DBE 
 139      A566E275 
 139      49F60A7D 
 139      E75985EF 
 140 0164 2A218788 		.ascii	"*!\207\210R\214\001\242W\324\334|\276x\335\364\240*"
 140      528C01A2 
 140      57D4DC7C 
 140      BE78DDF4 
 140      A02A
 141 0176 E6FDDEEF 		.ascii	"\346\375\336\3578,\255\217j!\237gV\347{\232\216`\273"
 141      382CAD8F 
 141      6A219F67 
 141      56E77B9A 
 141      8E60BB
 142 0189 00A753EA 		.ascii	"\000\247S\352\213\215\216N\336\355\011z\312\263z\253"
 142      8B8D8E4E 
ARM GAS  /tmp/cc385vAD.s 			page 11


 142      DEED097A 
 142      CAB37AAB 
 143 0199 027A272F 		.ascii	"\002z'/U]uN\357\311U\033\3310s\253{D\313n\256\354\323"
 143      555D754E 
 143      EFC9551B 
 143      D93073AB 
 143      7B44CB6E 
 144 01b0 DEA142FA 		.ascii	"\336\241B\372\250v\237\015\352A\271\032Eam\244D~\365"
 144      A8769F0D 
 144      EA41B91A 
 144      45616DA4 
 144      447EF5
 145 01c3 62583955 		.ascii	"bX9U\256N\206^9\254D\365\363v\342\322\271\276\313\265"
 145      AE4E865E 
 145      39AC44F5 
 145      F376E2D2 
 145      B9BECBB5 
 146 01d7 B85E0F2B 		.ascii	"\270^\017+\266\026N\372\235\371\310\361_\274]\270\004"
 146      B6164EFA 
 146      9DF9C8F1 
 146      5FBC5DB8 
 146      04
 147              		.text
 148              		.section	.gnu.lto_dataLoggerInitialize.74239137647119ef,"",%progbits
 149 0000 789C8D54 		.ascii	"x\234\215TMhSA\020\236\331\367^^^\232\266i\355/\324"
 149      4D685341 
 149      109ED9F7 
 149      5E5E5E9A 
 149      B669ED2F 
 150 0015 100A3D29 		.ascii	"\020\012=)\265\364\"\210\240\225\306^\374\201\332\240"
 150      B5F42288 
 150      A095C65E 
 150      FC81DAA0 
 151 0025 1E631AC2 		.ascii	"\036c\032\302\203\246\2254\"\342\241\233R\212\370\203"
 151      83A69534 
 151      22E2A19B 
 151      528AF883 
 152 0035 A1A75211 		.ascii	"\241\247R\021-R\250R\320\203`P\204VEZ\213\255?\247\242"
 152      2D52A852 
 152      D0836050 
 152      8456455A 
 152      8BAD3FA7 
 153 004a 420E8217 		.ascii	"B\016\202\027\021\017\242\342\3018\363~\322$\024\351"
 153      110FA2E2 
 153      C138F37E 
 153      D22414E9 
 154 005a 42767766 		.ascii	"Bvwf\347\233\357\233\331}\021 \240r\234\247\337-\025"
 154      E79BEF9B 
 154      D97D1120 
 154      A0729CA7 
 154      DF2D15
 155 006d 609856F4 		.ascii	"`\230V\364\001\212\354\032@\306+\204\361S\007\351Sf"
 155      018AEC1A 
 155      40C62B84 
 155      F15307E9 
 155      5366
 156 007f 5E0248BF 		.ascii	"^\002H\277\342\230\252m\252B\373XE\246\347\341365\364"
ARM GAS  /tmp/cc385vAD.s 			page 12


 156      E298AA6D 
 156      AA42FB58 
 156      45A6E7E1 
 156      333635F4 
 157 0093 D8288FD0 		.ascii	"\330(\217\320\263\012\371\275r\225\375:\032\266\337"
 157      B30AF9BD 
 157      7295FD3A 
 157      1AB6DF
 158 00a2 EB6E0C44 		.ascii	"\353n\014D\336\000\302\230PT\315\243\223g\3544\262\020"
 158      DE00C298 
 158      5054CDA3 
 158      9367EC34 
 158      B210
 159 00b4 D10EB352 		.ascii	"\321\016\263RN\345\347\256_k\275|{<+\377\026\012h\""
 159      4EE5E7AE 
 159      5F6BBD7C 
 159      7B3C2BFF 
 159      160A6822 
 160 00c8 490E20C4 		.ascii	"I\016 \304\020N\221\201!k\021jy\0156r\361\323\217\034"
 160      104E9181 
 160      216B116A 
 160      790D3672 
 160      F1D38F1C 
 161 00dc CA4999F9 		.ascii	"\312I\231\371^(\324\232\250\010h\331\004zm \226\003"
 161      5E28D49A 
 161      A80868D9 
 161      047A6D20 
 161      9603
 162 00ee EF8BC57C 		.ascii	"\357\213\305|\241pu\356MG3B\222\271LTUL\"j4\011\235"
 162      A17075EE 
 162      4D473342 
 162      92B94C54 
 162      554C226A 
 163 0105 26C5A009 		.ascii	"&\305\240\011\374t\240\005 \212w\260\035\352h\235\245"
 163      FC74A005 
 163      208A77B0 
 163      1DEA689D 
 163      A5
 164 0116 B59E9C9E 		.ascii	"\265\236\234\236F\307\240\241\301\204\224\331\220\035"
 164      46C7A0A1 
 164      C18494D9 
 164      901D
 165 0124 044C4D63 		.ascii	"\004LMc\200f.9\202\202We\031^|Yz\337\026\3059\324 \201"
 165      80662E39 
 165      82825765 
 165      195E7C59 
 165      7ADF16C5 
 166 013c 2ACBD24B 		.ascii	"*\313\322K5EP\001\352\262\025\2309\351\306i\034\347"
 166      35455001 
 166      EAB21598 
 166      39E9C669 
 166      1CE7
 167 014e 2D8F53E1 		.ascii	"-\217S\341\312\001\3455\214\257\376~Um\307\335\200\231"
 167      CA01E535 
 167      8CAFFE7E 
 167      556DC7DD 
 167      8099
ARM GAS  /tmp/cc385vAD.s 			page 13


 168 0160 8C9401EA 		.ascii	"\214\224\001\352\332E\370#/\361\316H\"w\213\341\206"
 168      DA45F823 
 168      2FF1CE48 
 168      22778BE1 
 168      86
 169 0171 854B309D 		.ascii	"\205K0\235\245b\243\250\302\340c_i\366\001\362?1\224"
 169      A562A3A8 
 169      C2E0635F 
 169      69F601F2 
 169      3F3194
 170 0184 087A8A24 		.ascii	"\010z\212$\253\015v\370.\270'i\354%\335\304G\300\252"
 170      AB0D76F8 
 170      2EB82769 
 170      EC25DDC4 
 170      47C0AA
 171 0197 3279679C 		.ascii	"2yg\234\036'\230w\035&\362\271)ty\374EY\376\030\242"
 171      1E279877 
 171      1D26F2B9 
 171      297479FC 
 171      4559FE18 
 172 01ac 1B666235 		.ascii	"\033fb5\000Q\254<\250\252d\320\266fp\241~\013\267\232"
 172      0051AC3C 
 172      A8AA64D0 
 172      B66670A1 
 172      7E0BB79A 
 173 01c0 5B6BAA04 		.ascii	"[k\252\004\372\266\006\012\007\210,m2\377\270\333U\026"
 173      FAB6060A 
 173      07882C6D 
 173      32FFB8DB 
 173      5516
 174 01d2 282AAB89 		.ascii	"(*\253\211\025\243\374\024\310\350Z\244\233\016p\327"
 174      15A3FC14 
 174      C8E85AA4 
 174      9B0E70D7 
 175 01e2 26BE2EFD 		.ascii	"&\276.\375*v-\300g\312f\3176\000\251\225*r\252i\271"
 175      2A762DC0 
 175      67CA66CF 
 175      3600A995 
 175      2A72AA69 
 176 01f7 F8E1AC89 		.ascii	"\370\341\254\211uAh\273)\247\017\232Xo\275\220y\205"
 176      754168BB 
 176      29A70F9A 
 176      586FBD90 
 176      7985
 177 0209 2F4E87E7 		.ascii	"/N\207\347\202{\2722_\353\346\252\333\316\325Y\325~"
 177      827BBA32 
 177      5FEBE6AA 
 177      DBCED559 
 177      D57E
 178 021b 535C4C7D 		.ascii	"S\\L}\202E\255\203\307v\300&rG\314\321E\211m5\362\021"
 178      8245AD83 
 178      C776C026 
 178      7247CCD1 
 178      45896D35 
 179 0231 65690842 		.ascii	"ei\010B\320V\303\257\326\302P\026\023\233\334\027\345"
 179      D056C3AF 
 179      D6C25016 
ARM GAS  /tmp/cc385vAD.s 			page 14


 179      139BDC17 
 179      E5
 180 0242 85E5FD2C 		.ascii	"\205\345\375,,7=\265\263\262\243\315[w\324\346aO3\332"
 180      2C373DB5 
 180      B3B2A3CD 
 180      5B77D4E6 
 180      614F33DA 
 181 0256 025772EF 		.ascii	"\002Wr\357j\\\211\215\333+k\035\264\377\325\320\350"
 181      6A5C898D 
 181      DB2B6B1D 
 181      B4FFD5D0 
 181      E8
 182 0267 D4F09420 		.ascii	"\324\360\224 -A8f\327\320\352\326PR\200a}co\351\237"
 182      2D413866 
 182      D7D0EAD6 
 182      50528061 
 182      7D636FE9 
 183 027c 8671C2BE 		.ascii	"\206q\302\276\025\301TD\251,\204\255]\301\0358\246\177"
 183      15C15444 
 183      A92C84AD 
 183      5DC11D38 
 183      A67F
 184 028e D69D43EF 		.ascii	"\326\235C\357\302]t\266b!\314\037\000r.NQ=\030MG\207"
 184      C25D74B6 
 184      6221CC1F 
 184      00722E4E 
 184      513D184D 
 185 02a4 46128978 		.ascii	"F\022\211x\2523\006zo\370P\244\257\263K\211\247R\010"
 185      AA33067A 
 185      6FF850A4 
 185      AFB34B89 
 185      A75208
 186 02b7 7B7A7B06 		.ascii	"{z{\006z\216\034\357\353\013\367\357\013\205S\251\221"
 186      7A8E1CEF 
 186      EB0BF7EF 
 186      0B8553A9 
 186      91
 187 02c8 54E8E8C8 		.ascii	"T\350\350\310\271\341\2649\234\010\0356\207\342\243"
 187      B9E1B439 
 187      9C081D36 
 187      87E2A3
 188 02d7 1746D3F1 		.ascii	"\027F\323\361\344\356p\177\177Gw\327\240\017B\245\361"
 188      E4EE707F 
 188      7F4777D7 
 188      A00F42A5 
 188      F1
 189 02e8 BDC5BCA1 		.ascii	"\275\305\274\241\023\351h*\035\247\200\177\250\252:"
 189      13E9682A 
 189      1DA7807F 
 189      A8AA3A
 190 02f7 8C       		.ascii	"\214"
 191              		.text
 192              		.section	.gnu.lto_dataLoggerStop.74239137647119ef,"",%progbits
 193 0000 789C6550 		.ascii	"x\234eP\275KBQ\024\377\235\253/\315\322\034s(\036\255"
 193      BD4B4251 
 193      14FF9DAB 
 193      2FCDD21C 
ARM GAS  /tmp/cc385vAD.s 			page 15


 193      73281EAD 
 194 0014 81D19434 		.ascii	"\201\321\2244e(.AP\0125\276\236\362x\220(\341\326\340"
 194      65282E41 
 194      500A35BE 
 194      9EF27890 
 194      28E1D6E0 
 195 0028 5522A241 		.ascii	"U\"\242A\244%\351\003\222\266\032Z]\202\326\206\276"
 195      A425E903 
 195      92B61A5A 
 195      5D82D686 
 195      BE
 196 0039 16A788B7 		.ascii	"\026\247\210\267\364?DC\257{\336\023\243:p\357\357\334"
 196      F43F4443 
 196      AF7BDE13 
 196      A33A70EF 
 196      EFDC
 197 004b CBEFE370 		.ascii	"\313\357\343p\004\004\376VB\235\026\001)\205\024\000"
 197      0404FE56 
 197      429D1601 
 197      29851400 
 198 005b 89F623D0 		.ascii	"\211\366#\320\010\013\"n@\250\013\252o\022Si\006])\217"
 198      080B226E 
 198      40A80BAA 
 198      6F125369 
 198      065D298F 
 199 006f 9CF77E2B 		.ascii	"\234\367~+qx\321l\313/\327%\233\224i\234`\0226\324\203"
 199      7178D16C 
 199      CB2FD725 
 199      9B94699C 
 199      601236D4 
 200 0084 740F44F0 		.ascii	"t\017D\360w\312\215\270s\\\367\354\372y.$`PWYiT\366"
 200      77CA8DB8 
 200      735CF7EC 
 200      FA792E24 
 200      60505759 
 201 009b 5C35EC49 		.ascii	"\\5\354I\331\326\301\016\252\362\352\346\344\002\011"
 201      D9D6C10E 
 201      AAF2EAE6 
 201      E40209
 202 00aa C6C0039A 		.ascii	"\306\300\003\232\367\037\375\230A\227\244\301\"q\212"
 202      F71FFD98 
 202      4197A4C1 
 202      22718A
 203 00b9 93869471 		.ascii	"\223\206\224q\025\273\213Oy\300]\240L,\345\334\300 "
 203      15BB8B4F 
 203      79C05DA0 
 203      4C2CE5DC 
 203      C020
 204 00cb EF099AAF 		.ascii	"\357\011\232\257\300\017-hz4\260\013\177v\244\274U\022"
 204      C00F2D68 
 204      7A34B00B 
 204      7F76A4BC 
 204      5512
 205 00dd 6D1A93E7 		.ascii	"m\032\223\347\262\263d\323\010\006\032\233Bl\261\357"
 205      B2B364D3 
 205      08061A9B 
 205      426CB1EF 
ARM GAS  /tmp/cc385vAD.s 			page 16


 206 00ed BCA6FEB9 		.ascii	"\274\246\376\271\204M\362\227\310q\243>D|\030c\3458"
 206      844DF297 
 206      C871A33E 
 206      447C1863 
 206      E538
 207 00ff A046EEF5 		.ascii	"\240F\356\365\216\247|\351,\256\244\252\005\233\242"
 207      8EA77CE9 
 207      2CAEA4AA 
 207      059BA2
 208 010e 6A74C58A 		.ascii	"jt\305\212Y\2441{\302s\331\362G\362\364Qn^\320p\336"
 208      59A4317B 
 208      C273D9F2 
 208      47F2F451 
 208      6E5ED070 
 209 0123 22BE76F8 		.ascii	"\"\276v\370\351/\206x!\034\036-\0325c\273bY\245\235"
 209      E92F8678 
 209      211C1E2D 
 209      1A3563BB 
 209      6259A59D 
 210 0137 A4895026 		.ascii	"\244\211P&\273\\\310%\347\365L:\237^Y\315\345\262k\213"
 210      BB5CC825 
 210      E7F54C3A 
 210      9F5E59CD 
 210      E5B26B8B 
 211 014b 7A66C8D0 		.ascii	"zf\310\320\327k\225j\265T\214\340\033E\367l\261"
 211      D76B956A 
 211      B5548CE0 
 211      1B45F76C 
 211      B1
 212              		.text
 213              		.section	.gnu.lto_logfileNew.74239137647119ef,"",%progbits
 214 0000 789C5D52 		.ascii	"x\234]R\317K\024q\024\377|\276\363\235u\334\334]\017"
 214      CF4B1471 
 214      14FF7CBE 
 214      F39D75DC 
 214      DC5D0F
 215 0013 1DEAB20C 		.ascii	"\035\352\262\014\036\025\014;z\312T\366\"\011\341B\035"
 215      1E150C3B 
 215      7ACA54F6 
 215      2209E142 
 215      1D
 216 0024 A7751D06 		.ascii	"\247u\035\0064A\204\016\035\374\256\210\204\007Y<-J"
 216      3441840E 
 216      1DFCAE88 
 216      8407593C 
 216      2D4A
 217 0036 91748BA2 		.ascii	"\221t\213\242\253\010\201\027\251\016%^\2442\304?\240"
 217      AB088117 
 217      A90E255E 
 217      A432C43F 
 217      A0
 218 0047 BFC083DB 		.ascii	"\277\300\203\333{\263\263\033\365`\336\233y\363>?\276"
 218      7BB3B31B 
 218      F560DE9B 
 218      79F33E3F 
 218      BE
 219 0058 6FC6C0E0 		.ascii	"o\306\300\340\377\030\223\253$\355q\251\364A\323\374"
ARM GAS  /tmp/cc385vAD.s 			page 17


 219      FF1893AB 
 219      24ED71A9 
 219      F441D3FC 
 220 0068 06340263 		.ascii	"\0064\002c\354\331\035\270\001\357\260\014\227\367h"
 220      ECD91DB8 
 220      01EFB00C 
 220      97F768
 221 0077 B54D4B6A 		.ascii	"\265MKj\005\261f<\313\265\307T\012\016a\337\271\235"
 221      05B1663C 
 221      CBB5C754 
 221      0A0E61DF 
 221      B99D
 222 0089 CBE3F3ED 		.ascii	"\313\343\363\355\333[\257\327\233\356\272\335fB\021"
 222      DB5BAFD7 
 222      9BEEBADD 
 222      664211
 223 0098 1B246AC4 		.ascii	"\033$j\304#y`\230\026c\377U\377`\216.\333\355_\357\233"
 223      23796098 
 223      1663FF55 
 223      FF608E2E 
 223      DBED5FEF 
 224 00ad 9F582412 		.ascii	"\237X$\022zF\223E\304}a\315q\211\010$\261_\3326/w\246"
 224      7A469345 
 224      C47D61CD 
 224      71890824 
 224      B15FDA36 
 225 00c4 20C913A4 		.ascii	" \311\023\244\217\015\347\232!T@bN\262Z\253\322h\365"
 225      8F0DE79A 
 225      21544062 
 225      4EB25AAB 
 225      D268F5
 226 00d7 BE62FDCB 		.ascii	"\276b\375\313\367\363b\3047r\250\230v\017\273\015\347"
 226      F7F362C4 
 226      3772A898 
 226      760FBB0D 
 226      E7
 227 00e8 06C5D573 		.ascii	"\006\305\325s\\\271\027z\347/Q\335\250-?\263s\002\277"
 227      5CB9177A 
 227      E72F51DD 
 227      A82D3FB3 
 227      7302BF
 228 00fb 83C0DFB1 		.ascii	"\203\300\337\261\\\215\251\202\262h\263\345\334G\201"
 228      5C8DA982 
 228      B268B3E5 
 228      DC4781
 229 010a F49571EB 		.ascii	"\364\225q\353\245k\335K\030 \303$b\023\"|\320\272(u"
 229      A56BDD4B 
 229      1820C324 
 229      6213227C 
 229      D0BA2875 
 230 011e 5A2378EB 		.ascii	"Z#x\353$\306\222\324\200\240\3621s*x#e|\322!N-\244\213"
 230      24C692D4 
 230      80A0F231 
 230      732A7823 
 230      657CD221 
 231 0136 11F0CF83 		.ascii	"\021\360\317\203W7\273\256\373G0\334\203\016\304\014"
 231      5737BBAE 
ARM GAS  /tmp/cc385vAD.s 			page 18


 231      FB4730DC 
 231      830EC40C 
 232 0146 74B09041 		.ascii	"t\260\220A3,>c\343w\243\324\203\364\270\272Q\225u\035"
 232      332C3E63 
 232      E377A3D4 
 232      83F4B8BA 
 232      5195751D 
 233 015a 96BD136C 		.ascii	"\226\275\023l\006\335!\323;\\\261F\223\035.\027\253"
 233      06DD21D3 
 233      3B5CB146 
 233      931D2E17 
 233      AB
 234 016b BB42C252 		.ascii	"\273B\302R\027g\323M\236\312\337\240\357S\275\037\240"
 234      1767D34D 
 234      9ECADFA0 
 234      EF53BD1F 
 234      A0
 235 017c 0AC80730 		.ascii	"\012\310\0070\357f\205\310\243\256\236:\250<\205\371"
 235      EF6685C8 
 235      A3AE9E3A 
 235      A83C85F9 
 236 018c 68355A5C 		.ascii	"h5Z\\\216\343\372\312h\015}S\323\367\253\225\321\273"
 236      8EE3FACA 
 236      680D7D53 
 236      D3F7AB95 
 236      D1BB
 237 019e 43531373 		.ascii	"CS\023s\0233\263\225\312\364\303\361pr\245\036\255&"
 237      1333B395 
 237      CAF4C3F1 
 237      7072A51E 
 237      AD26
 238 01b0 4FE3F041 		.ascii	"O\343\360A\375Y8\263\034/$\213\365<\376\000\207\307"
 238      FD5938B3 
 238      1C2F248B 
 238      F53CFE00 
 238      87C7
 239 01c2 82CC     		.ascii	"\202\314"
 240              		.text
 241              		.section	.gnu.lto_logfileSize.74239137647119ef,"",%progbits
 242 0000 789C6362 		.ascii	"x\234cb`b@\007\222@\034\015\304\374@\314\310\314\300"
 242      60624007 
 242      92401C0D 
 242      C4FC40CC 
 242      C8CCC0
 243 0013 C834E11C 		.ascii	"\3104\341\034\003C#\007\023##\210\301\300\310P\317\304"
 243      03432307 
 243      13232388 
 243      C1C0C850 
 243      CFC4
 244 0025 581FC908 		.ascii	"X\037\311\010V\273\236\351\300\203\377\377\327\3558"
 244      56BB9EE9 
 244      C083FFFF 
 244      D7ED38
 245 0034 B6603E23 		.ascii	"\266`>##\310(V\206\226\206\206\011\012\014\014\311`"
 245      23C82856 
 245      86968686 
 245      090A0C0C 
ARM GAS  /tmp/cc385vAD.s 			page 19


 245      C960
 246 0046 05214012 		.ascii	"\005!@\022\244+\024(\011\244\231/24>\230\267\2301\221"
 246      A42B1428 
 246      09A4992F 
 246      32343E98 
 246      B7983191 
 247 005a 7121232B 		.ascii	"q!#+C\004c&#\334\326\020FF\220\012\220\031\274)\211"
 247      43046326 
 247      23DCD610 
 247      4646900A 
 247      9019BC29 
 248 006f 258939F9 		.ascii	"%\2119\371\351\351\251Ez\311\014\000\022\226\036\251"
 248      E9E9A945 
 248      7AC90C00 
 248      12961EA9 
 249              		.text
 250              		.section	.gnu.lto_logfileWriteCsv.74239137647119ef,"",%progbits
 251 0000 789C6362 		.ascii	"x\234cb`b@\007\222@\234\005\304\374@\314\310\314\300"
 251      60624007 
 251      92409C05 
 251      C4FC40CC 
 251      C8CCC0
 252 0013 C834E11C 		.ascii	"\3104\341\034\003C#\007\023##\210\301\300\310P\317\304"
 252      03432307 
 252      13232388 
 252      C1C0C850 
 252      CFC4
 253 0025 581FC908 		.ascii	"X\037\311\010V\273\236\351\300\203\377\377\327];\276"
 253      56BB9EE9 
 253      C083FFFF 
 253      D75D3BBE 
 254 0035 60062313 		.ascii	"`\006#\023+\023c.#\0033\220`d\001\022 \223Y\031Z\032"
 254      2B13632E 
 254      23033390 
 254      60640112 
 254      20935919 
 255 004b 1A262830 		.ascii	"\032&(00$\203\325\207\000I\220!\241@I \315|\221\241"
 255      302483D5 
 255      87004990 
 255      21A14049 
 255      20CD7C91 
 256 0060 F141FF52 		.ascii	"\361A\377R\306D\306\205\214\254\014\021\214\231\214"
 256      C644C685 
 256      8CAC0C11 
 256      8C998C
 257 006f 70478430 		.ascii	"pG\20402\202T\200\314\340MI,I\314\311OOO-\322Kf\000"
 257      32825480 
 257      CCE04D49 
 257      2C49CCC9 
 257      4F4F4F2D 
 258 0087 00647220 		.ascii	"\000dr  "
 258      20
 259              		.text
 260              		.section	.gnu.lto_logfileGetWrCount.74239137647119ef,"",%progbits
 261 0000 789C6362 		.ascii	"x\234cb`b@\007\222@<\003\210\371\201\230\221\231\201"
 261      60624007 
 261      92403C03 
ARM GAS  /tmp/cc385vAD.s 			page 20


 261      88F98198 
 261      919981
 262 0013 9169C239 		.ascii	"\221i\3029\006\206F\016&FF\020\203\201\221\241\236\211"
 262      0686460E 
 262      26464610 
 262      838191A1 
 262      9E89
 263 0025 B13E9211 		.ascii	"\261>\222\021\254v=\323\201\007\377\377\257\333sj\301"
 263      AC763DD3 
 263      8107FFFF 
 263      AFDB736A 
 263      C1
 264 0036 0A462616 		.ascii	"\012F&\026&\306\\F\006f\206L\260\034+CKC\303\004\005"
 264      26C65C46 
 264      0666864C 
 264      B01C2B43 
 264      4B43C304 
 265 004b 06866430 		.ascii	"\006\206d07\004H\202\364\20722\201h\346\263\014M\267"
 265      37044882 
 265      F4873232 
 265      8168E6B3 
 265      0C4DB7
 266 005e 7E2CD74C 		.ascii	"~,\327Ld\\\310\310\312\220\316\310\254\315\260\252\001"
 266      645CC8C8 
 266      CA90CEC8 
 266      ACCDB0AA 
 266      01
 267 006f 08EC819A 		.ascii	"\010\354\201\232g3\314b\314ddLgd\212\000\322\020\007"
 267      6733CC62 
 267      CC64644C 
 267      67648A00 
 267      D21007
 268 0082 2631C29C 		.ascii	"&1\302\234w\221\241\361\000+\\\033D,\204\221\021d(H"
 268      7791A1F1 
 268      002B5C1B 
 268      442C8491 
 268      11642848 
 269 0096 296F4A62 		.ascii	")oJbIbN~zzj\221^2\003\000\267\333*9"
 269      49624E7E 
 269      7A7A6A91 
 269      5E320300 
 269      B7DB2A39 
 270              		.text
 271              		.section	.gnu.lto_logfileClose.74239137647119ef,"",%progbits
 272 0000 789C6D50 		.ascii	"x\234mP=K\003A\020}ow\317\\\242\022\013k\2656`\300\337"
 272      3D4B0341 
 272      107D6F77 
 272      CF5CA212 
 272      0B6BB536 
 273 0017 6250CB18 		.ascii	"bP\313\030\3458P\004\261\263\310F\256\260\021R\2126"
 273      E5385004 
 273      B1B3C846 
 273      AEB01152 
 273      8A36
 274 0029 DA5A246D 		.ascii	"\332Z$m\012\213\224AP\021\002A\261\320\336\302RE\210"
 274      0A8B9441 
 274      50110241 
ARM GAS  /tmp/cc385vAD.s 			page 21


 274      B1D0DEC2 
 274      524588
 275 003c 331712C5 		.ascii	"3\027\022\305\270\260;\303\356\274\217}\006\006\177"
 275      B8B03BC3 
 275      EEBC8F7D 
 275      06067F
 276 004b D7B2EC63 		.ascii	"\327\262\354c\002y\251\014@S\277\005j\2411\266[\204"
 276      0279A90C 
 276      4053BF05 
 276      6AA131B6 
 276      5B84
 277 005d CFB9AB39 		.ascii	"\317\271\2539\370)K7\270v\2446 \252\306:V\327\231\222"
 277      F8294B37 
 277      B876A436 
 277      20AAC63A 
 277      56D79992 
 278 0071 344DFBB9 		.ascii	"4M\373\271\337o\274]\237whrDL8\356\020\201t\314\310"
 278      DF6FBC5D 
 278      9F776872 
 278      444C38EE 
 278      108174CC 
 279 0086 A1BA0112 		.ascii	"\241\272\001\022\357\353\013@%\005\255\310\251\\%y\224"
 279      EFEB0B40 
 279      2505ADC8 
 279      A95C2579 
 279      94
 280 0097 6A6F70F8 		.ascii	"jop\370\330j|\260\314\013\361\0211(`Q\320g8\255y\357"
 280      D86A7CB0 
 280      CC0BF111 
 280      31286051 
 280      D06738AD 
 281 00ad 5763DA88 		.ascii	"Wc\332\210n\2151]*\271\301\341\017\356\220\264\347\207"
 281      6E8D315D 
 281      2AB9C1E1 
 281      0FEE90B4 
 281      E787
 282 00bf A8CC013E 		.ascii	"\250\314\001>\375\221\237\211\031T8\030\021\252\230"
 282      FD919F89 
 282      19543818 
 282      11AA98
 283 00ce 134007C9 		.ascii	"\023@\007\311k-?\032T\252\314\357$J\264\350\026\325"
 283      6B2D3F1A 
 283      54AACCEF 
 283      244AB4E8 
 283      16D5
 284 00e0 47EB7DE4 		.ascii	"G\353}\344\243\200KQ\367\2231Cq\302q\027\003\015\275"
 284      A3804B51 
 284      F7933143 
 284      71C27117 
 284      030DBD
 285 00f3 09B551F4 		.ascii	"\011\265Q\364I\363e\014\235\375\037mF\350\354\217\015"
 285      49F3650C 
 285      9DFD1F6D 
 285      46E8EC8F 
 285      0D
 286 0104 97E6712F 		.ascii	"\227\346q/q\253\371T\340\001\324!\311\335>\365\302\264"
 286      71ABF954 
ARM GAS  /tmp/cc385vAD.s 			page 22


 286      E001D421 
 286      C9DD3EF5 
 286      C2B4
 287 0116 05CC576F 		.ascii	"\005\314WoVs\244\316+\323\364fy\277\274\275\033E[{K"
 287      5673A4CE 
 287      2BD3F466 
 287      79BFBCBD 
 287      1B455B7B 
 288 012b 157C03DB 		.ascii	"\025|\003\333\017_\034"
 288      0F5F1C
 289              		.text
 290              		.section	.gnu.lto_logfileOpenAppend.74239137647119ef,"",%progbits
 291 0000 789C7552 		.ascii	"x\234uRMk\024A\020\255\327\037\223\331\315\254\273\306"
 291      4D6B1441 
 291      10ADD71F 
 291      93D9CDAC 
 291      BBC6
 292 0012 8B1E0CE2 		.ascii	"\213\036\014\342Q!\376\006\177\203\006\"\236\326I\030"
 292      5121FE06 
 292      7F830622 
 292      9ED64918 
 293 0022 0614210A 		.ascii	"\006\024!\012\036<\244WW\021\364\260x\011\350\305\020"
 293      1E3CA457 
 293      5711F4B0 
 293      7809E8C5 
 293      10
 294 0033 C48BE02D 		.ascii	"\304\213\340-+\001a\002\036\024\321\240\0071\256\207"
 294      2B016102 
 294      1E14D1A0 
 294      0731AE87 
 295 0043 DC24E0D7 		.ascii	"\334$\340\327QDX\253f\247\233\254\306\206\251\236\251"
 295      514458AB 
 295      66A79BAC 
 295      C686A99E 
 295      A9
 296 0054 AEF7EABD 		.ascii	"\256\367\352\275\352Q\244\350\357u\222\237\257\234>"
 296      EA51A4E8 
 296      EF75929F 
 296      AF9C3E
 297 0063 C03B2282 		.ascii	"\300;\"\202\352\275!\352\304J\351\365iru\373\376\004"
 297      EABD21EA 
 297      C44AE9F5 
 297      697275FB 
 297      FE04
 298 0075 B9442BB3 		.ascii	"\271D+\263\353\313\300\216\212, /\004ZR\332X,\235\201"
 298      EBCBC08E 
 298      8A2C202F 
 298      045A52DA 
 298      582C9D81 
 299 0089 50E228AD 		.ascii	"P\342(\2558ww\373\341\332\016\226]\321y\340~\017\207"
 299      387777FB 
 299      E1DA0E96 
 299      5DD179E0 
 299      7E0F87
 300 009c 400E6EDF 		.ascii	"@\016n\337\002\245\2409\376@\\n\012\343z\236\250b{8"
 300      02A5A039 
 300      FE405C6E 
ARM GAS  /tmp/cc385vAD.s 			page 23


 300      0AE37A9E 
 300      A8627B38 
 301 00b0 BC33E8BE 		.ascii	"\2743\350\276\233\341\3326V\230\315\340\002\310R\016"
 301      9BE1DA36 
 301      5698CDE0 
 301      02C8520E 
 302 00c0 1D713071 		.ascii	"\035q0q\225\256I\246\316\301&U\246!\231&\207\210\231"
 302      95AE49A6 
 302      CEC12655 
 302      A6219926 
 302      878899
 303 00d3 2C759DEB 		.ascii	",u\235\353\035\031\235\220\264\345u\232\243h\236\205"
 303      1D199D90 
 303      B4E5759A 
 303      A3689E85 
 304 00e3 925DBFA6 		.ascii	"\222]\277\246k\037?\254\275Tm\254\302R\006{\234\216"
 304      6B1F3FAC 
 304      BD546DAC 
 304      C252067B 
 304      9C8E
 305 00f5 31C77DBA 		.ascii	"1\307}\272\327q\316\235\3151\221\301\210\316\270Tw."
 305      D771CE9D 
 305      CD3191C1 
 305      88CEB854 
 305      772E
 306 0107 A815606F 		.ascii	"\250\025`o\312\303\242\022f\030\206\177!\036\263I7\213"
 306      CAC3A212 
 306      6618867F 
 306      211EB349 
 306      378B
 307 0119 431E115F 		.ascii	"C\036\021_\245_\356\226k\345\250\245U\005wg&A\326\247"
 307      A55FEE96 
 307      6BE5A8A5 
 307      55057767 
 307      2641D6A7 
 308 012d D8C324D1 		.ascii	"\330\303$\321\013z\376y\243\377J\007\220\034\216\215"
 308      0B7AFE79 
 308      A3FF4A07 
 308      901C8E8D 
 309 013d 6B169AD6 		.ascii	"k\026\232\326\247K\033O\373[\241\260\026l\354\241g\267"
 309      A74B1B4F 
 309      FB5BA1B0 
 309      166CECA1 
 309      67B7
 310 014f 851F131E 		.ascii	"\205\037\023\036R/!I\345\374J\216\006\323\010LW0\025"
 310      522F2149 
 310      E5FC4A8E 
 310      06D3084C 
 310      573015
 311 0162 6CDC2822 		.ascii	"l\334(\"\217J\202\215}iU\3010f\313\321\024\375\335/"
 311      8F4A828D 
 311      7D6955C1 
 311      3066CBD1 
 311      14FDDD2F 
 312 0176 1BCF6E87 		.ascii	"\033\317n\207\351&{\3507\364}\262\324\377\263\277\003"
 312      E9267BE8 
 312      37F47DB2 
ARM GAS  /tmp/cc385vAD.s 			page 24


 312      D4FFB3BF 
 312      03
 313 0187 5FD818BB 		.ascii	"_\330\030\273\206S\377\367\260I\335\342\360\010E\024"
 313      8653FFF7 
 313      B049DDE2 
 313      F0084514 
 314 0197 B4B4D24A 		.ascii	"\264\264\322J53\345\330\357[Y\177\345\337\256?Z\266"
 314      3533E5D8 
 314      EF5B597F 
 314      E5DFAE3F 
 314      5AB6
 315 01a9 BE573393 		.ascii	"\276W3\223\371\277\245\320\274)\325[\004\236\267z<\230"
 315      F9BFA5D0 
 315      BC29D55B 
 315      049EB77A 
 315      3C98
 316 01bb 67D9FAD3 		.ascii	"g\331\372\323\340 o\246\374\201 ,b\2651\337\276\334"
 316      E0206FA6 
 316      FC81202C 
 316      62B531DF 
 316      BEDC
 317 01cd 3E7F31CB 		.ascii	">\1771\313\026\026gR\322\213\013\227\376\000Jk\252Y"
 317      16166752 
 317      D28B0B97 
 317      FE004A6B 
 317      AA59
 318              		.text
 319              		.section	.gnu.lto_logfileWrite.74239137647119ef,"",%progbits
 320 0000 789C8554 		.ascii	"x\234\205TOHTA\034\376\375f\336\237\331\325uw5H\005"
 320      4F485441 
 320      1CFEFD66 
 320      DE9FD9D5 
 320      75773548 
 321 0015 45849212 		.ascii	"E\204\222\022\254\250K\227\356\335\023\352\320a\333"
 321      ACA84B97 
 321      EEDD13EA 
 321      D061DB
 322 0024 E4F1200B 		.ascii	"\344\361 \013L\350\320\301Y]j\017\022K\324\241\272("
 322      4CE8D0C1 
 322      595D6A0F 
 322      124BD4A1 
 322      BA28
 323 0036 5281873A 		.ascii	"R\201\207:DX\326\341\331a\013\311,\220\250(Z\202NE\222"
 323      4458D6E1 
 323      D9610BC9 
 323      2C90A828 
 323      5A824E45 
 324 004b 9720A2ED 		.ascii	"\227 \242\355\367\233}\357\271f\344\300\316\274o\346"
 324      F79B7DEF 
 324      B966E4C0 
 324      CEBC6FE6 
 325 005b F7CDF7BD 		.ascii	"\367\315\367\275o\346\255\000\001\177\267a\372\355\262"
 325      6FE6AD00 
 325      017FB761 
 325      FAEDB2
 326 006a 0076D088 		.ascii	"\000v\320\210\011@Q~\001PPB\310R\037\350\244\305}\263"
 326      0940517E 
ARM GAS  /tmp/cc385vAD.s 			page 25


 326      01505042 
 326      C8521FE8 
 326      A4C57DB3 
 327 007e 14EA7137 		.ascii	"\024\352q7\243\225=\204\254\020\331\006\331B-\356%\344"
 327      A3953D84 
 327      AC10D906 
 327      D9422DEE 
 327      25E4
 328 0090 54BA0839 		.ascii	"T\272\0109\302\235\3475\365\232\327\\T\274\035*D\036"
 328      C29DE735 
 328      F59AD75C 
 328      54BC1D2A 
 328      441E
 329 00a2 01614C48 		.ascii	"\001aLH\313v\\\205c\307\220\345e/Lk]\256~^\015\344\265"
 329      CB765C85 
 329      63C790E5 
 329      652F4C6B 
 329      5DAE7E5E 
 330 00b9 2B41714A 		.ascii	"+AqJ\377\252\325\020}$\253\031\204<\302Q\002\330c\006"
 330      FFAAD510 
 330      7D24AB19 
 330      843CC251 
 330      02D86306 
 331 00cd 616DF46E 		.ascii	"am\364n\270\227\203\017\225K\333uU\227\365o\242\372"
 331      B897830F 
 331      954BDB75 
 331      5597F56F 
 331      A2FA
 332 00df 280574AE 		.ascii	"(\005t\2563U\235\211\233\231A9\370X\231\354\320S\343"
 332      33559D89 
 332      9B994139 
 332      F85899EC 
 332      D053E3
 333 00f2 119334BB 		.ascii	"\021\2234\273\267\322\274+\202j\255\366\376~q\261\253"
 333      B7D2BC2B 
 333      826AADF6 
 333      FE7E71B1 
 333      AB
 334 0103 1DC1474B 		.ascii	"\035\301GKrg\3410\202C\035\351\371h' \2073\330\013I"
 334      7267E130 
 334      82431DE9 
 334      F9682720 
 334      8733D80B 
 335 0118 024E134D 		.ascii	"\002N\023M\213fzrS\364$\323\341Z\206f K`\232@+\001\325"
 335      8B667A72 
 335      53F424D3 
 335      E15A8666 
 335      204B609A 
 336 0130 C61D49D8 		.ascii	"\306\035I\330P\244Hz\352e9\274I=\260+jG\250\347$\007"
 336      50A4487A 
 336      EA6539BC 
 336      493DB02B 
 336      6A47A8E7 
 337 0146 51F0289F 		.ascii	"Q\360(\237A\361\353\302\367\212\314\341m\264\301C\213"
 337      41F1EBC2 
 337      F78ACCE1 
 337      6DB4C143 
ARM GAS  /tmp/cc385vAD.s 			page 26


 337      8B
 338 0157 2D271AFD 		.ascii	"-'\032\375\016\242\204R\237\\\206bu~\246%\252S\347\341"
 338      0EA28452 
 338      9F5C8662 
 338      757EA625 
 338      AA53E7E1 
 339 016b A72EE98C 		.ascii	"\247.\351\214\217\311<\326\263\361\320\361\261\011`"
 339      8FC93CD6 
 339      B3F1D0F1 
 339      B10960
 340 017a 09C6BF4D 		.ascii	"\011\306\277MtF\205\011\217-\031\231\037\027D<\3132"
 340      74468509 
 340      8F2D1999 
 340      1F17443C 
 340      CB32
 341 018c 72A38C05 		.ascii	"r\243\214\005k\207$\221\337\275Y}\031\027&\373a7Ep\003"
 341      6B872491 
 341      DFBD597D 
 341      191726FB 
 341      61374570 
 342 01a1 AE17B4D6 		.ascii	"\256\027\264\326\307}l&\031&\247\014\353D|,Fu\026#\036"
 342      C77D6C26 
 342      1926A70C 
 342      EB447C2C 
 342      46751623 
 343 01b6 95919565 		.ascii	"\225\221\225e\270\030tDS\351\330rK\036Eh9\351a\212\252"
 343      B8187444 
 343      53E9D872 
 343      4B1E4568 
 343      39E9618A 
 344 01cb 7989DA1C 		.ascii	"y\211\332\034m\234\256\007VgQ\240\231\320}m=\244\364"
 344      6D9CAE07 
 344      566751A0 
 344      99D07D6D 
 344      3DA4F4
 345 01de 3FDCDB70 		.ascii	"?\334\333pg\2474&>\305&2^\230\307\341h&\033\235\006"
 345      67A73426 
 345      3EC52632 
 345      5E98C7E1 
 345      68261B9D 
 346 01f3 6F5938D8 		.ascii	"oY8\330P\230m\334\314\201\205\026\023\305\203\265 \336"
 346      50986DDC 
 346      CC818516 
 346      13C583B5 
 346      20DE
 347 0205 ADD54491 		.ascii	"\255\325D\221\245(ps\014\030\3070Q\232\270\025s\332"
 347      A5287073 
 347      0C18C730 
 347      519AB815 
 347      73DA
 348 0217 88C66559 		.ascii	"\210\306eY\204F#\3750\313\257\273o\213\355\210\037\276"
 348      844623FD 
 348      30CBAFBB 
 348      6F8BED88 
 348      1FBE
 349 0229 FCD5A7FF 		.ascii	"\374\325\247\377\275!.\254\330|CTT$\343\254[\363aR\346"
 349      BD212EAC 
ARM GAS  /tmp/cc385vAD.s 			page 27


 349      D87C4354 
 349      5424E3AC 
 349      5BF36152 
 350 023e 7AB4450C 		.ascii	"z\264E\014en\337\022<\371\022\036u=\230\003pO\227\370"
 350      656EDF12 
 350      3CF9121E 
 350      753D9803 
 350      704F97F8 
 351 0252 43A2F68A 		.ascii	"C\242\366\212\376E\230f\300[@\272H\362\371\\;\313[\010"
 351      FE459866 
 351      C05B40BA 
 351      48F2F95C 
 351      3BCB5B08 
 352 0266 F6E44345 		.ascii	"\366\344CE:.\032\014\340L>\332\026.Y\264\3047\035Y\203"
 352      3A2E1A0C 
 352      E04C3EDA 
 352      162E59B4 
 352      C4371D59 
 353 027b 0F3A7532 		.ascii	"\017:u27\232;u\306\363\206F\006\362\22087\342\217\216"
 353      379A3B75 
 353      C6F38646 
 353      06F29038 
 353      37E28F8E 
 354 028f 0E9D1ED8 		.ascii	"\016\235\036\330/G\206\316\272!\372\003f\026\377\034"
 354      2F4786CE 
 354      BA21FA03 
 354      6616FF1C 
 355              		.text
 356              		.section	.gnu.lto_dataloggerThread.74239137647119ef,"",%progbits
 357 0000 789C6D52 		.ascii	"x\234mR\273J\003A\024=g\036\331\215\017\242\177`\255"
 357      BB4A0341 
 357      143D671E 
 357      D98D0FA2 
 357      7F60AD
 358 0013 6067E92F 		.ascii	"`g\351/X%\240e\214\262,(\202\330Yd\243[DQH\255\215V"
 358      5825A065 
 358      8CB22C28 
 358      82D85964 
 358      A35B4451 
 359 002b 760A7E80 		.ascii	"v\012~\200\306JE\242\330\211UJ\013++\261\211wf\330\200"
 359      C64A45A2 
 359      D889554A 
 359      0B2B2BB1 
 359      897766D8 
 360 0040 C10B7BEF 		.ascii	"\301\013{\357p\317\271\2173;\012\012\243\266(\3375\201"
 360      70CFB98F 
 360      333B0A0A 
 360      A3B628DF 
 360      3581
 361 0052 8A449640 		.ascii	"\212D\226@\325y\006Z\261\242\011\007\035\016w\261Q\372"
 361      D579065A 
 361      B1A20907 
 361      1D0E77B1 
 361      51FA
 362 0064 E81EC8C6 		.ascii	"\350\036\310\306l\036!\233\260\244\313\203h*m,\233+"
 362      6C1E219B 
 362      B0A4CB83 
ARM GAS  /tmp/cc385vAD.s 			page 28


 362      682A6D2C 
 362      9B2B
 363 0076 F4FDAE54 		.ascii	"\364\375\256T\267?\030\\~=\235\035P\217+n\022\006)a"
 363      B73F185C 
 363      7E3D9D1D 
 363      508F2B6E 
 363      12062961 
 364 008a C5497F71 		.ascii	"\305I\177q\221s\261se\347\244\306\"\317\262\316\014"
 364      9173B173 
 364      65E7A4C6 
 364      22CFB2CE 
 364      0C
 365 009b D0F03DAA 		.ascii	"\320\360=\252\342eF\225J\202\256QC\006\353\036\366\336"
 365      E2654695 
 365      4A82AE51 
 365      4306EB1E 
 365      F6DE
 366 00ad DF6EA7EB 		.ascii	"\337n\247\353<\247EB;\207\331\224\352\024'L\251\023"
 366      3CA74542 
 366      3B87D994 
 366      EA14274C 
 366      A913
 367 00bf AA6589C6 		.ascii	"\252e\211\306\257\260\312B\\\017\373\207\272\250(I\221"
 367      AFB0CA42 
 367      5C0FFB87 
 367      BAA82849 
 367      91
 368 00d0 23B1B314 		.ascii	"#\261\263\024\240\366\020\212\004\365\320@\254\022\320"
 368      A0F6108A 
 368      04F5D040 
 368      AC12D0
 369 00df E3211A0B 		.ascii	"\343!\032\013\301\243\037\321haYP\017\271\221/0!\017"
 369      C1A31FD1 
 369      68615950 
 369      0FB9912F 
 369      30210F
 370 00f2 ECE2276B 		.ascii	"\354\342'kgS)m\203a\033\341\246\242\337[M\026\225\313"
 370      6753296D 
 370      83611BE1 
 370      A6A2DF5B 
 370      4D1695CB 
 371 0106 F392BE6F 		.ascii	"\363\222\276o\036U\321\315xM\370_S!\352\001\371gkaX"
 371      1E55D1CD 
 371      784DF85F 
 371      5321EA01 
 371      F9676B61 
 372 011b E2287F7E 		.ascii	"\342(\177~hM\362rm\257h\365\333\027\014<G\212\012BU"
 372      684DF272 
 372      6DAF68F5 
 372      DB170C3C 
 372      478A0A42 
 373 0130 5AE5917B 		.ascii	"Z\345\221{\011\223k\365\235\372\306V\222\254o\3177\360"
 373      09936BF5 
 373      9DFAC656 
 373      92AC6FCF 
 373      37F0
 374 0142 0B0A7362 		.ascii	"\013\012sb\202"
ARM GAS  /tmp/cc385vAD.s 			page 29


 374      82
 375              		.text
 376              		.section	.gnu.lto_.symbol_nodes.74239137647119ef,"",%progbits
 377 0000 789C4DCD 		.ascii	"x\234M\315\273R\002A\020\005\320;\267wQ\331\345\375"
 377      BB520241 
 377      1005D03B 
 377      B77751D9 
 377      E5FD
 378 0012 30213433 		.ascii	"0!435\367[\374\222FP\301\007\212\317L\003\370\001\023"
 378      35F75BFC 
 378      924650C1 
 378      078ACF4C 
 378      03F80113 
 379 0026 4323AA20 		.ascii	"C#\252 \241LM\255\265JC\277\000u\326\335rf\222[\347"
 379      A14C4DAD 
 379      B54A43BF 
 379      0075D6DD 
 379      7266925B 
 380 003b F6543741 		.ascii	"\366T7A\010\221=\376\030\005\306/\200\352h\270\307["
 380      08913DFE 
 380      1805C62F 
 380      80EA68B8 
 380      C75B
 381 004d AAC9793F 		.ascii	"\252\311y?4a\227\010TxG\245k\271O\225\234\017\226=j"
 381      34619708 
 381      547847A5 
 381      6BB94F95 
 381      9C0F963D 
 382 0062 E0B14F0D 		.ascii	"\340\261O\015=\036P\013\036\217\250k\036\007\324u\217"
 382      3D1E500B 
 382      1E8FA86B 
 382      1E07D475 
 382      8F
 383 0073 43EA86C7 		.ascii	"C\352\206\307cj\321\343!5\362xB\215\035\315\005\265"
 383      636AD1E3 
 383      2135F278 
 383      428D1DCD 
 383      05B5
 384 0085 94B1DB35 		.ascii	"\224\261\3335\346\234Zv\032Q+Ncj\325\351\212Zs:\243"
 384      E69C5A76 
 384      1A512B4E 
 384      636AD5E9 
 384      8A5A733A 
 385 009a D69D4EA9 		.ascii	"\326\235N\251\015\247kj\323\351\222\332r\272\241\266"
 385      0DA76B6A 
 385      D3E992DA 
 385      72BAA1B6 
 386 00aa FF25A8A2 		.ascii	"\377%\250\242\377\366m\263\202\351_\2261K\323\000\311"
 386      FFF66DB3 
 386      82E95F96 
 386      314BD300 
 386      C9
 387 00bb AA23A686 		.ascii	"\252#\246\206\367\224R\317\306A\023\323\347\017\233"
 387      F79452CF 
 387      C64113D3 
 387      E70F9B
 388 00ca 0DF4E79F 		.ascii	"\015\364\347\237\035\011\200\336`+\215d\261\350H\010"
ARM GAS  /tmp/cc385vAD.s 			page 30


 388      1D0980DE 
 388      602B8D64 
 388      B1E84808 
 389 00da 4CD26F61 		.ascii	"L\322oa#\333R\310]0\230<\355H1\337\022\325\262q\324"
 389      23DB52C8 
 389      5D30983C 
 389      ED4831DF 
 389      12D5B271 
 390 00ef C2CCD691 		.ascii	"\302\314\326\221\255\347\257\2248\302\344qW\342\266"
 390      ADE7AF94 
 390      38C2E471 
 390      57E2B6
 391 00fe 6DED8D58 		.ascii	"m\355\215X\220\014\226FJ\233\230\256\276\266\361\013"
 391      900C9646 
 391      4A9B98AE 
 391      BEB6F10B 
 392 010e 50929975 		.ascii	"P\222\231u"
 393              		.text
 394              		.section	.gnu.lto_.refs.74239137647119ef,"",%progbits
 395 0000 789C6362 		.ascii	"x\234cb`b\020e\200\000FF\006&f\026F&\240\020\023#+\020"
 395      60621065 
 395      80004646 
 395      06266616 
 395      4626A010 
 396 0018 B3015900 		.ascii	"\263\001Y\000\004w\000="
 396      0477003D 
 397              		.text
 398              		.section	.gnu.lto_.decls.74239137647119ef,"",%progbits
 399 0000 789CBD7D 		.ascii	"x\234\275}\007t\024G\272nwOF\"\332\273\306\\\337e\274"
 399      07741447 
 399      BA6E774F 
 399      4622DABB 
 399      C65CDF65 
 400 0015 CF7B9FCF 		.ascii	"\317{\237\317\336]\004\230\335\365\206\2736H\"<\023"
 400      DE5D0498 
 400      DDF586BB 
 400      3648223C 
 400      13
 401 0026 7425399D 		.ascii	"t%9\235s\357\031\017\322\010t\255\344\231!\370\275w"
 401      73EF190F 
 401      D20874AD 
 401      E49921F8 
 401      BD77
 402 0038 CE364918 		.ascii	"\3166I\030c\2231\210\014&\031\260A\344`\360\2001I\266"
 402      63933188 
 402      0C2619B0 
 402      41E460F0 
 402      803149B6 
 403 004c 09224701 		.ascii	"\011\"G\001\266\311\013\006\033\221\365\376\372\253"
 403      B6C90B06 
 403      1B91F5FE 
 403      FAAB
 404 005a 7BA6BAA7 		.ascii	"{\246\272\247\273\247Z\336\373\346\234\252\251\256\351"
 404      BBA75ADE 
 404      FBE69CAA 
 404      A9AEE9
 405 0069 FAEAAFFF 		.ascii	"\372\352\257\377\377\353\257\277B\367H\202$\344\270"
ARM GAS  /tmp/cc385vAD.s 			page 31


 405      FFEBAFBF 
 405      42F74882 
 405      24E4B8
 406 0078 05A1013E 		.ascii	"\005\241\001>\337\315\027\204N-\005\241\231 \010\177"
 406      DFCD1784 
 406      4E2D05A1 
 406      9920087F 
 407 0088 85D00282 		.ascii	"\205\320\002\202\023\302\\\010\013 ,\204\260\024\302"
 407      13C25C08 
 407      0B202C84 
 407      B014C2
 408 0097 32089F40 		.ascii	"2\010\237@X\016\241\032\302y\010\027!\\\202p\005\302"
 408      580EA11A 
 408      C2790817 
 408      215C8270 
 408      05C2
 409 00a9 5E49108E 		.ascii	"^I\020\216C\220D\001?O@\250\203\353\026\016A\370w\010"
 409      43904401 
 409      3F4F40A8 
 409      83EB160E 
 409      41F87708 
 410 00bd AF427800 		.ascii	"\257Bx\000A\002\360f\020\036\207\360\014\204_Ch\017"
 410      4102F066 
 410      101E87F0 
 410      0C845F43 
 410      680F
 411 00cf A113842E 		.ascii	"\241\023\204.\020\272A\350\016\341\025\010\257Bx\027"
 411      10BA41E8 
 411      0EE11508 
 411      AF427817 
 412 00df C2180893 		.ascii	"\302\030\010\223 L\2050\023\302b\010\244\232eNA\363"
 412      204C8530 
 412      13C26208 
 412      A49A654E 
 412      41F3
 413 00f1 21F5A5C1 		.ascii	"!\365\245\301w/'mO\272\322\226O Z\011a9\204U\020z@X"
 413      772F276D 
 413      4FBAD296 
 413      4F205A09 
 413      61398455 
 414 0109 0D618D52 		.ascii	"\015a\215R\336\251\224}E\251\233\320\000\227B\032\320"
 414      DEA9947D 
 414      45A99BD0 
 414      0097421A 
 414      D0
 415 011a DBD4A1AD 		.ascii	"\333\324\241\255\203\264\347gJ{\325:^\207\373\377\323"
 415      83B4E767 
 415      4A7BD53A 
 415      5E87FBFF 
 415      D3
 416 012b 41715AC1 		.ascii	"AqZ\301\367\277@h\003\341I\010\255D\312\227uN\312\323"
 416      F7BF4068 
 416      03E14908 
 416      AD44CA97 
 416      754ECAD3 
 417 013f D7E07B3D 		.ascii	"\327\340{=\204\015\316\004\177\317*|#\345\177\005e\262"
 417      840DCE04 
ARM GAS  /tmp/cc385vAD.s 			page 32


 417      7FCF2A7C 
 417      23E57F05 
 417      65B2
 418 0151 203C0DA1 		.ascii	" <\015\241+\004\207R'\341\005\241\221\334\323\013\256"
 418      2B048752 
 418      27E105A1 
 418      91DCD30B 
 418      AE
 419 0162 5F82D0DB 		.ascii	"_\202\320\333\221\314\003\302\353\246\002\305S\351["
 419      91CC03C2 
 419      EBA602C5 
 419      53E95B
 420 0171 AAD0E054 		.ascii	"\252\320\340Th%\364\265bh\334\010y\243\025\236\222\372"
 420      6825F4B5 
 420      6268DC08 
 420      79A3159E 
 420      92FA
 421 0183 2505E75D 		.ascii	"%\005\347]%\357e\035\017\210,\333\010\264\315,\017\010"
 421      25EF651D 
 421      0F882CDB 
 421      08B4CD2C 
 421      0F08
 422 0195 66B5C24F 		.ascii	"f\265\302OU'H[I\335\373 l\202\364d\010\237*\274\030"
 422      5527485B 
 422      49DDFB20 
 422      6C82F464 
 422      089F2ABC 
 423 01aa 0BDF9B21 		.ascii	"\013\337\233!lQ\370\241\352\227\312\017U\357\010\336"
 423      6C51F8A1 
 423      EA97CA0F 
 423      55EF08DE 
 424 01ba 61C83B0A 		.ascii	"a\310;\012\341\030\204\223J[\010\035\223\024\375 \274"
 424      E1188493 
 424      4A5B081D 
 424      9314FD20 
 424      BC
 425 01cb 7141DE6D 		.ascii	"qA\336m\310\253\207\360#\204\273\006\374!:\330BG\273"
 425      C8AB87F0 
 425      2384BB06 
 425      FC213AD8 
 425      4247BB
 426 01de 2A0FB53E 		.ascii	"*\017\265>R?\241Q\325s\225VB\023i\007i\027\341\013\241"
 426      523FA151 
 426      D5739556 
 426      42136907 
 426      6917E10B 
 427 01f3 C3A16092 		.ascii	"\303\241`\222\372\307(zC\210\323\327K\364^_/\341\027"
 427      FAC7287A 
 427      4388D3D7 
 427      4BF45E5F 
 427      2FE117
 428 0206 C154EB57 		.ascii	"\301T\353W\373\023\251_\225\215Z_\014~o\251\310\206"
 428      FB13A95F 
 428      958D5A5F 
 428      0C7E6FA9 
 428      C886
 429 0218 E8855AB7 		.ascii	"\350\205Z\267\344L\3643\322~\037\\7\201\220\006!\335"
ARM GAS  /tmp/cc385vAD.s 			page 33


 429      E44CF433 
 429      D27E1F5C 
 429      37819006 
 429      21DD
 430 022a 808E668A 		.ascii	"\200\216f\212LoJ\364ZT\362\364\237\307\225\373Z9\022"
 430      4C6F4AF4 
 430      5A54F2F4 
 430      9FC795FB 
 430      5A3912
 431 023d F7913C72 		.ascii	"\367\221<r\3714|\3773\204\266\272r\317(\277\023\235"
 431      F9347CFF 
 431      3384B6BA 
 431      72CF28BF 
 431      139D
 432 024f 57E927E5 		.ascii	"W\351'\345\262\224\357g\024\314gu\345\210\015h\"$\372"
 432      B294EF67 
 432      14CC6775 
 432      E5880D68 
 432      2224FA
 433 0262 CE7F3893 		.ascii	"\316\1778\223u\023\365K\244\374\"u\250\375\244\253\302"
 433      7513F54B 
 433      A4FC2275 
 433      A8FDA4AB 
 433      C2
 434 0273 935F3B13 		.ascii	"\223_;\023\372\332N\207O\354K+\201b\250\274'\365\020"
 434      FADA4E87 
 434      4FEC4B2B 
 434      8162A8BC 
 434      27F510
 435 0286 BDF408DA 		.ascii	"\275\364\010\332\276\300\366\323\032\370\376\237\220"
 435      BEC0F6D3 
 435      1AF8FE9F 
 435      90
 436 0293 B715D255 		.ascii	"\267\025\322U\316\004-j\375\244\217\376N\351\367\355"
 436      CE042D6A 
 436      FDA48FFE 
 436      4EE9F7ED 
 437 02a3 157B3595 		.ascii	"\025{5\225\241\243\243\216\016b\343\036\247\352\221"
 437      A1A3A38E 
 437      0E62E31E 
 437      A7EA91
 438 02b2 D46F0485 		.ascii	"\324o\004\205&\"CB\023i\3476\370\355_\031^|\016\351"
 438      26224342 
 438      1369E736 
 438      F8ED5F19 
 438      5E7C0EE9 
 439 02c6 BFC06FB3 		.ascii	"\277\300o\263\024^l\207\357\\\245\375*?\234J=\355\025"
 439      145E6C87 
 439      EF5CA5FD 
 439      2A3F9C4A 
 439      3DED15
 440 02d9 5BF9EF4A 		.ascii	"[\371\357J\336\013\020\375\031\302\277\021\014\035]"
 440      DE0B10FD 
 440      19C2BF11 
 440      0C1D5D
 441 02e8 C4EE7A95 		.ascii	"\304\356z\225:=\212\374\276\200\274#\020\216B\370\010"
 441      3A3D8AFC 
ARM GAS  /tmp/cc385vAD.s 			page 34


 441      BE80BC23 
 441      108E42F8 
 441      08
 442 02f9 C2EF245A 		.ascii	"\302\357$Z\317!H\327*z\336\205\261\305Y:L\237\360\216"
 442      CF2148D7 
 442      2A7ADE85 
 442      B1C5593A 
 442      4C9FF08E 
 443 030d 2C0F95EB 		.ascii	",\017\225\353\026\310\255\247B[_\023\203b3\037\324B"
 443      16C8ADA7 
 443      425B5F13 
 443      8362331F 
 443      D442
 444 031f 12E93E6A 		.ascii	"\022\351>jj\204\371\262<\256n\304\236'dgP\234+\372\000"
 444      6A84F9B2 
 444      3CAE6EC4 
 444      9E276467 
 444      509C2BFA 
 445 0334 F4CFA2F0 		.ascii	"\364\317\242\360k\341#\031\362\241\364/E!\371\023\024"
 445      6BE12319 
 445      F2A1F42F 
 445      4521F913 
 445      14
 446 0345 E146FD75 		.ascii	"\341F\375uP\234/\376Z\240\325\340\317J\242A$#\302\273"
 446      509C2FFE 
 446      5AA0D5E0 
 446      CF4AA241 
 446      2423C2BB 
 447 0359 84923995 		.ascii	"\204\2229\225r\367]\315Z\012\000,\313\376\251\315\030"
 447      72F75DCD 
 447      5A0A002C 
 447      CBFEA9CD 
 447      18
 448 036a 025B5BD0 		.ascii	"\002[[\320G\010\221\202\342\"\244\256\233\021AH\303"
 448      47089182 
 448      E222A4AE 
 448      9B114148 
 448      C3
 449 037b 221D118B 		.ascii	"\"\035\021\213\342T,R\310Pj\270(\251U\374V)\272Pl\231"
 449      E2542C52 
 449      C8506AB8 
 449      28A955FC 
 449      5629BA50 
 450 0391 E098ACD0 		.ascii	"\340\230\254\320\211w(E\374j\011\247Rb\211\302\001%"
 450      89772845 
 450      FC6A09A7 
 450      526289C2 
 450      0125
 451 03a3 3B9EF88D 		.ascii	";\236\370\215B\216Y\271\005b\232J\261\011S(\271Jy9N"
 451      428E59B9 
 451      05629A4A 
 451      B1095328 
 451      B94A7939 
 452 03b8 AA5F0158 		.ascii	"\252_\001Xf\233\324\217MHm\233\202\324\245\366H\275"
 452      669BD48F 
 452      4D486D9B 
 452      82D4A5F6 
ARM GAS  /tmp/cc385vAD.s 			page 35


 452      48BD
 453 03ca 13273543 		.ascii	"\023'5C\001Xn\233\324\025&\244\266KA\352'&\244\266\022"
 453      01586E9B 
 453      D41526A4 
 453      B64B41EA 
 453      2726A4B6 
 454 03df C623A9BB 		.ascii	"\306#\251\273\022\352/\377\017\265\360\012\247\020\357"
 454      12EA2FFF 
 454      0FB5F00A 
 454      A710EF
 455 03ee 001B765C 		.ascii	"\000\033v\\\353 \313\336\240\270Rl\005J&\213b\\\225"
 455      EB20CBDE 
 455      A0B8526C 
 455      054A268B 
 455      625C95
 456 0401 C827350E 		.ascii	"\310'5\016\241b\015\224\245\245\250\332\3066\355H'\335"
 456      A1620D94 
 456      A5A5A8DA 
 456      C636ED48 
 456      27DD
 457 0413 8AE40B1A 		.ascii	"\212\344\013\032<\315\347ia\016P\034\333\274c\223(W"
 457      3CCDE769 
 457      610E501C 
 457      DBBC6393 
 457      2857
 458 0425 A6ABBDB0 		.ascii	"\246\253\275\260\022I E\215\372E\234A\014W\264p[v\244"
 458      12492045 
 458      8DFA459C 
 458      410C57B4 
 458      705B76A4 
 459 0439 AD784305 		.ascii	"\255xC\005\033c\033\314\253\001\333\307\202M\260\015"
 459      1B631BCC 
 459      AB01DBC7 
 459      824DB00D 
 460 0449 D6420376 		.ascii	"\326B\003v\200\005\233j\033\254\265\006\354 \0136\333"
 460      80059B6A 
 460      1BACB506 
 460      EC200B36 
 460      DB
 461 045a 36985F03 		.ascii	"6\230_\003v\230\005[`\033\354Y\015\330\321\312\364}"
 461      7698055B 
 461      601BEC59 
 461      0DD8D1CA 
 461      F47D
 462 046c 6F28164E 		.ascii	"o(\026N\256\224\237]\334\214\341\207R\\Jh\340\210\321"
 462      AE949F5D 
 462      DC8CE187 
 462      525C4A68 
 462      E088D1
 463 047f 4F115DD9 		.ascii	"O\021]\331\216u\177\242\323\277\240\350\320\031\\\207"
 463      8E757FA2 
 463      D3BFA0E8 
 463      D0195C87 
 464 048f D6D6397C 		.ascii	"\326\3269|\211DC\003\216G\253\364\364kj5\242\277=K?"
 464      89444303 
 464      8E47ABF4 
 464      F46B6A35 
ARM GAS  /tmp/cc385vAD.s 			page 36


 464      A2BF3D4B 
 465 04a4 7489C36F 		.ascii	"t\211\303oM\225cC\035*Qky\000\275\346\032y\277\362\275"
 465      4D956343 
 465      1D2A516B 
 465      7900BDE6 
 465      1A79BFF2 
 466 04b9 27E539DB 		.ascii	"'\3459\333D\205'\264\207\032\367i\205'\013\366\342\260"
 466      448527B4 
 466      871AF769 
 466      85270BF6 
 466      E2B0
 467 04cb 5483D5C7 		.ascii	"T\203\325\307\222x\342\321\361\304\243\345\211\307\227"
 467      9278E2D1 
 467      F1C4A3E5 
 467      89C797
 468 04da 48906956 		.ascii	"H\220iVs\302\225\035\372Fh\3525j\204FE\3526T\236\031"
 468      73C2951D 
 468      FA4668EA 
 468      356A8446 
 468      45EA3654 
 469 04f0 228E1F26 		.ascii	"\"\216\037&\357j\257\322\265\237\007\261\2059[>\330"
 469      EF6AAFD2 
 469      B59F07B1 
 469      85395B3E 
 469      D8
 470 0501 993E2EA8 		.ascii	"\231>.\250\202\235\264\015\246\325\340\251,\330\267"
 470      829DB40D 
 470      A6D5E0A9 
 470      2CD8B7
 471 0510 3C60ADCD 		.ascii	"<`\255\315)\233\306\202]\261\015\246\245l\006\013v\213"
 471      299BC682 
 471      5DB10DA6 
 471      A56C060B 
 471      768B
 472 0522 07CC6F4E 		.ascii	"\007\314oN\331,\026\354\276m0-e+X\260a\022\007\330\263"
 472      D92C16EC 
 472      BE6D302D 
 472      652B58B0 
 472      611207D8 
 473 0537 E694AD64 		.ascii	"\346\224\255d\301\336\263\015\306R&\307\326\354L\203"
 473      C1DEB30D 
 473      C65226C7 
 473      D6EC4C83 
 474 0547 11811D6F 		.ascii	"\021\201\035o\3472\256A\034LV\007\240:\333\003\356Y"
 474      E732AE41 
 474      1C4C5607 
 474      A03ADB03 
 474      EE59
 475 0559 9301B741 		.ascii	"\223\001\267A\235nJ\302$}#t\025+\351\366\006<1\372\260"
 475      9D6E4AC2 
 475      247D2374 
 475      152BE9F6 
 475      063C31FA 
 476 056e C364505C 		.ascii	"\303dP\\+\376\012\342u\342\323\020o\300x\023\306\233"
 476      2BFE0AE2 
 476      75E2D310 
 476      6FC07813 
ARM GAS  /tmp/cc385vAD.s 			page 37


 476      C69B
 477 0580 31FE0CE3 		.ascii	"1\376\014\343\255\030\177\216\361.\214\367`\274\027"
 477      AD187F8E 
 477      F12E8CF7 
 477      60BC17
 478 058f E3FD18D7 		.ascii	"\343\375\030\327b|\010\343#\030\037\303\370\004\306"
 478      627C08E3 
 478      23181FC3 
 478      F804C6
 479 059e A7303E03 		.ascii	"\2470>\003q\374c\306\220j\023O\"\356\252\306R\370\322"
 479      71FC63C6 
 479      906A134F 
 479      22EEAAC6 
 479      52F8D2
 480 05b1 B1C995CD 		.ascii	"\261\311\225\315e'\207\353\035\024\277\305\306\247v"
 480      652787EB 
 480      1D14BFC5 
 480      C6A776
 481 05c0 5B619494 		.ascii	"[a\224\224\364\266o\221\336\003\347\366~\223\232|\336"
 481      F4B66F91 
 481      DE03E7F6 
 481      7E939A7C 
 481      DE
 482 05d1 9E9F372E 		.ascii	"\236\2377.\356\347\375R\001\270d[\355.\233\250\235*"
 482      EEE7FD52 
 482      01B8645B 
 482      ED2E9BA8 
 482      9D2A
 483 05e3 20B37217 		.ascii	" \263r\027m\370y\"k.\225\001\345\341\201\231\355\320"
 483      6DF87922 
 483      6B2E9501 
 483      E5E18199 
 483      EDD0
 484 05f5 CDBB8A6E 		.ascii	"\315\273\212n\336\307:\266\246\204\221\2045X\344\272"
 484      DEC73AB6 
 484      A6849184 
 484      3558E4BA 
 485 0605 DED33BF4 		.ascii	"\336\323;\364\206\237\346\246\366\363\216\315\331-\312"
 485      869FE6A6 
 485      F6F38ECD 
 485      D92DCA
 486 0614 13D253D1 		.ascii	"\023\322S\321?\307\241V\334)A\177\375\304\355\035\221"
 486      3FC7A156 
 486      DC29417F 
 486      FDC4ED1D 
 486      91
 487 0625 FE1F90FE 		.ascii	"\376\037\220\376\233\251\351\327\302\020\352\352\223"
 487      9BA9E9D7 
 487      C210EAEA 
 487      93
 488 0632 68DF895E 		.ascii	"h\337\211^j=\027\365\247F\316\306A\334\210|\270AdY\247"
 488      6A3D17F5 
 488      A746CEC6 
 488      41DC887C 
 488      B8416459 
 489 0647 99BB48C2 		.ascii	"\231\273H\302\003\240\326\210\303\232\333\202\342\003"
 489      03A0D688 
ARM GAS  /tmp/cc385vAD.s 			page 38


 489      C39ADB82 
 489      E203
 490 0655 5182F8A1 		.ascii	"Q\202\370\241\236\312U#\221\312\207\\T\256\331\231\314"
 490      9ECA5523 
 490      91CA875C 
 490      54AED999 
 490      CC
 491 0666 E39F0B93 		.ascii	"\343\237\013\223\025\355\224\305\250W\030\211\375s\204"
 491      15ED94C5 
 491      A8571889 
 491      FD7384
 492 0675 3C447C2B 		.ascii	"<D|+\365\324s\250\344\205\006\214r\230\316=\311\015"
 492      F5D473A8 
 492      E485068C 
 492      7298CE3D 
 492      C90D
 493 0687 AAE2D2B4 		.ascii	"\252\342\322\264\232\262\350xC\244\237c\312AW\254\202"
 493      9AB2E878 
 493      43A49F63 
 493      CA4157AC 
 493      82
 494 0698 E20B6910 		.ascii	"\342\013i\0201+}f\005e)\336\015$a\254CT\370e1\310h\360"
 494      312B7D66 
 494      056529DE 
 494      0D2461AC 
 494      4354F865 
 495 06b0 34BC9257 		.ascii	"4\274\222W\312\262\317M1%a\272m0\2779\330b\0360s\207"
 495      CAB2CF4D 
 495      312561BA 
 495      6D30BF39 
 495      D8621E30 
 496 06c6 510BB6C2 		.ascii	"Q\013\266\3026\230\001e\346\012A\205e\306\360\261\006"
 496      36980165 
 496      E60A4185 
 496      65C6F0B1 
 496      06
 497 06d7 9252D2FC 		.ascii	"\222R\322\374\336l\375\364/\266\2120\027\200\037&H\304"
 497      DE6CFDF4 
 497      2FB68A30 
 497      17801F26 
 497      48C4
 498 06e9 3DA87368 		.ascii	"=\250sh\273/?\324\252\331\237\376\021\355\300d\004\232"
 498      BB2F3FD4 
 498      AAD99FFE 
 498      11EDC064 
 498      049A
 499 06fb E5FCE9AE 		.ascii	"\345\374\351\256\261\375\333\025\006\030\017\223)\227"
 499      B1FDDB15 
 499      06180F93 
 499      2997
 500 0709 9CEAA77F 		.ascii	"\234\352\247\177\374\257\330\204i\330\204\217\234\206"
 500      FCAFD884 
 500      69D8848F 
 500      9C86
 501 0717 BCE0005A 		.ascii	"\274\340\000Z5{\326\363\0104\023\201\252\223xas\255"
 501      357BD6F3 
 501      08341381 
ARM GAS  /tmp/cc385vAD.s 			page 39


 501      AA937861 
 501      73AD
 502 0729 CACEBD66 		.ascii	"\312\316\275f\372R\225\350\240\254\326\020\261c\202"
 502      FA5295E8 
 502      A0ACD610 
 502      B16382
 503 0738 A38F8F61 		.ascii	"\243\217\217a\373\370&'\207\362\233\3171`\334\270\326"
 503      FBF82627 
 503      87F29BCF 
 503      3160DCB8 
 503      D6
 504 0749 A14A8E0D 		.ascii	"\241J\216\015w4\266\003\3147\357\000\361fY\352\203\271"
 504      7734B603 
 504      CC37EF00 
 504      F16659EA 
 504      83B9
 505 075b DB1414A7 		.ascii	"\333\024\024\247K\277j<\253\027\377tV\177\310\262:f"
 505      4BBF6A3C 
 505      AB17FF74 
 505      567FC8B2 
 505      3A66
 506 076d 9BD57E96 		.ascii	"\233\325~\226\325Z\243\265\203\007\314|\006\366\323"
 506      D55AA3B5 
 506      8307CC7C 
 506      06F6D3
 507 077c 8CD60A73 		.ascii	"\214\326\012s\231\031\216\336/2F\347E\326\242*\035m"
 507      99198EDE 
 507      2F3246E7 
 507      45D6A22A 
 507      1D6D
 508 078e ED77373C 		.ascii	"\355w7<\330\321VK\304\371\250t\031:\037\3460\204\204"
 508      D8D1564B 
 508      C4F9A874 
 508      193A1FE6 
 508      308484
 509 07a1 75926E58 		.ascii	"u\222nX\257\017\371in\352A\375\356\002\034\324U\353"
 509      AF0FF969 
 509      6EEA41FD 
 509      EE021CD4 
 509      55EB
 510 07b3 F901D64F 		.ascii	"\371\001\326O\2126j\334\213\335\013\2219<\305\232m\033"
 510      8A366ADC 
 510      8BDD0B91 
 510      393CC59A 
 510      6D1B
 511 07c5 CB6F44A8 		.ascii	"\313oD\250\220\324\312\240\270\036\225"
 511      90D4CAA0 
 511      B81E95
 512 07d0 7B838473 		.ascii	"{\203\204s\033\211c\006\262J\243\320\\\012\274\234U"
 512      1B896306 
 512      B24AA3D0 
 512      5C0ABC9C 
 512      55
 513 07e1 E0452EBB 		.ascii	"\340E.\273:\247o\213*\210\240\330\200\023\247\221H\374"
 513      3AA76F8B 
 513      2A88A0D8 
 513      8013A791 
ARM GAS  /tmp/cc385vAD.s 			page 40


 513      48FC
 514 07f3 288C4763 		.ascii	"(\214Gc\374>\306\3630^\206\361'<M\273'2t\256@:\353\033"
 514      FC3EC6F3 
 514      305E86F1 
 514      273C4DBB 
 514      273274AE 
 515 080b EBB7D4D5 		.ascii	"\353\267\324\325\327\326w\230\"\307\2068<B%\365\345"
 515      D7D67798 
 515      22C78638 
 515      3C4225F5 
 515      E5
 516 081c 86A61A2A 		.ascii	"\206\246\032*@\203\335\250\3011\311\003\024\254\326"
 516      4083DDA8 
 516      C131C903 
 516      14ACD6
 517 082b 69300710 		.ascii	"i0\007\020i\305\347PX\243\303\033\336\366\323\\\013"
 517      69C5E750 
 517      58A3C31B 
 517      DEF6D35C 
 517      0B
 518 083c 1DC68E27 		.ascii	"\035\306\216'\011\237\271\350|\302\351K\344\355I\344"
 518      099FB9E8 
 518      7CC2E94B 
 518      E4ED49E4 
 519 084c 89CCADB5 		.ascii	"\211\314\255\265\211l\211\311>\235\310v0\331\327\022"
 519      896C89C9 
 519      3E9DC876 
 519      30D9D712 
 520 085c D94E26BB 		.ascii	"\331N&\273!\221\355b\262G\271\343\331n&{r\"\333\303"
 520      2191ED62 
 520      B247B9E3 
 520      D96E267B 
 520      7222DBC3 
 521 0870 64CF4D64 		.ascii	"d\317Md{\031\211X\016\234\011&\005\305\355\330\005\276"
 521      7B198958 
 521      0E9C0926 
 521      05C5EDD8 
 521      05BE
 522 0882 901C86C5 		.ascii	"\220\034\206\305`\032\346\326i\202\255e[\0315a\010\031"
 522      601AE6D6 
 522      6982AD65 
 522      5B193561 
 522      0819
 523 0894 DDD4192B 		.ascii	"\335\324\031+\231}\222\216m8\207#\324\035\223\354\316"
 523      997D928E 
 523      6D388723 
 523      D41D93EC 
 523      CE
 524 08a5 588F4BC6 		.ascii	"X\217K\3063\326\304:\311*}+\264\325\246rwq\231\230\214"
 524      33D6C43A 
 524      C92A7D2B 
 524      B4D5A672 
 524      77719998 
 525 08ba 1C843649 		.ascii	"\034\2046IX\307\205\226j\350P\355\333&=\232\315U\255"
 525      58C78596 
 525      6AE850ED 
 525      DB263D9A 
ARM GAS  /tmp/cc385vAD.s 			page 41


 525      CD55AD
 526 08cd FA913379 		.ascii	"\372\2213yg}o\250p\351\361~\027\273\273C\364\033\314"
 526      677D6FA8 
 526      70E9F17E 
 526      17BBBB43 
 526      F41BCC
 527 08e0 FC34B706 		.ascii	"\3744\267\006\305\363\240&\251\356\302e\023\375\030"
 527      C5F3A026 
 527      A9EEC265 
 527      13FD18
 528 08ef F219DD66 		.ascii	"\362\031\335f\371\226k\0249Ri\336\024\315\2644>qn\037"
 528      F9966B14 
 528      395269DE 
 528      14CDB434 
 528      3E716E1F 
 529 0903 6F48DDD4 		.ascii	"oH\335\324\3337\376\013\015\310%\034\002GyR\257\037"
 529      DB37FE0B 
 529      0DC8251C 
 529      02477952 
 529      AF1F
 530 0915 686082E2 		.ascii	"h`\202\342\025\211\314n\257\352\233\360\343tl\302U\256"
 530      1589CC6E 
 530      AFEA9BF0 
 530      E3746CC2 
 530      55AE
 531 0927 263C3C31 		.ascii	"&<<1\353\011\271.&\362\033\276#\367bm\206\341\314\343"
 531      EB09B92E 
 531      26F21BBE 
 531      23F7626D 
 531      86E1CCE3 
 532 093b 3A5ABE1D 		.ascii	":Z\276\035\236FY\276\233z\313\267\206\254u\321\374\324"
 532      9E4659BE 
 532      9B7ACBB7 
 532      86AC75D1 
 532      FCD4
 533 094d B66FBF27 		.ascii	"\266o\277'\331\366\235\364\030\332\276o=\206\266\357"
 533      D9F69DF4 
 533      18DABE6F 
 533      3D86B6EF 
 534 095d BAC7D0F6 		.ascii	"\272\307\320\366\335\363hm\237\300a\237n2\366\351\026"
 534      DDF3686D 
 534      9FC0619F 
 534      6E32F6E9 
 534      16
 535 096e DAA71F4C 		.ascii	"\332\247\037L\354SP<\022\227\031\257}\322\310\253\256"
 535      EC53503C 
 535      129719AF 
 535      7DD2C8AB 
 535      AE
 536 097f EAF6BEC1 		.ascii	"\352\366\276\301[\240?\216r7\262\377\2348\301\323\177"
 536      5BA03F8E 
 536      7237B2FF 
 536      9C38C1D3 
 536      7F
 537 0990 8638F8FA 		.ascii	"\2068\370\372\3170\207N\371\246\234@\345#\371\251\225"
 537      CF30874E 
 537      F9A69C40 
ARM GAS  /tmp/cc385vAD.s 			page 42


 537      E523F9A9 
 537      95
 538 09a1 6FF68959 		.ascii	"o\366\211Y\311\375G\347\225\376\365g\246vt\244C\347"
 538      C9FD47E7 
 538      95FEF567 
 538      A67674A4 
 538      43E7
 539 09b3 945E9438 		.ascii	"\224^\2248\026=\024><\234\3668!\264\322A|\353\221^\255"
 539      163D143E 
 539      3C9CF638 
 539      21B4D241 
 539      7CEB915E 
 540 09c8 0E6B08A2 		.ascii	"\016k\010\242\025\231\0211\332\221f\322\316\244\337"
 540      15991131 
 540      DA9166D2 
 540      CEA4DF
 541 09d7 6050C47A 		.ascii	"`P\304z\010s\032\347gn0b\230\201\234\352\342\353`\277"
 541      08731AE7 
 541      676E3062 
 541      98819CEA 
 541      E2EB60BF 
 542 09eb 89B7B8EE 		.ascii	"\211\267\270\356\356\274\263\031\264\343\216u\020\213"
 542      EEBCB319 
 542      B4E38E75 
 542      108B
 543 09f9 73CE9BD2 		.ascii	"s\316\233\322\342hqp.\244\027\370\252\032\024\370\204"
 543      E2687170 
 543      2EA417F8 
 543      AA1A14F8 
 543      84
 544 0a0a D4021F3E 		.ascii	"\324\002\037>,\266\256fFb\333n\230\345\352DP\234\210"
 544      2CB6AE66 
 544      4662DB6E 
 544      98E5EA44 
 544      509C88
 545 0a1d 5D896723 		.ascii	"]\211g#\356:\266dB\343\330\012d\255\257\301\215\226"
 545      EE3AB664 
 545      42E3D80A 
 545      64ADAFC1 
 545      8D96
 546 0a2f C90E6222 		.ascii	"\311\016b\"~\264\015\346\327\200md\301\036\360\200\231"
 546      7EB40DE6 
 546      D7806D64 
 546      C11EF080 
 546      99
 547 0a40 8DE300F6 		.ascii	"\215\343\000\366)\0136\334g\027LK\331\026\026\354]\036"
 547      290B36DC 
 547      67174C4B 
 547      D91616EC 
 547      5D1E
 548 0a52 30B36500 		.ascii	"0\263e\000\000\333\307\202\215\261\015\306R6$v\246f"
 548      00DBC782 
 548      8DB10DC6 
 548      52362476 
 548      A666
 549 0a64 0F998E3D 		.ascii	"\017\231\216=&L\220\345!\362\034\267\231R\010\002\336"
 549      264C90E5 
ARM GAS  /tmp/cc385vAD.s 			page 43


 549      21F21CB7 
 549      99520802 
 549      DE
 550 0a75 225BDE02 		.ascii	"\"[\336\002\223p\307cZ%\255\035\335\214()\311Om\225"
 550      9370C763 
 550      5A25AD1D 
 550      DD8C2829 
 550      C94F6D95 
 551 0a89 0E294AAA 		.ascii	"\016)J\252:<\023\260q\244lc:\255\034;U\223&\277\233"
 551      3A3C13B0 
 551      71A46C63 
 551      3AAD1C3B 
 551      559326BF 
 552 0a9e 1E9FD22E 		.ascii	"\036\237\322.\266 |\261\276w\035\251\221\3744\233c3"
 552      B6207CB1 
 552      BE771DA9 
 552      91FC349B 
 552      6333
 553 0ab0 A066466B 		.ascii	"\240fFky\316V\221\377\234@\375\364u\277A\027d)Jq\222"
 553      79CE5691 
 553      FF9C40FD 
 553      F475BF41 
 553      1764294A 
 554 0ac6 CF70DD8C 		.ascii	"\317p\335\214\003h\325\354Et\015\361\023\004\232\251"
 554      0368D5EC 
 554      45740DF1 
 554      13049AA9 
 555 0ad6 03B27FE4 		.ascii	"\003\262\177\344\300\326\315\222\260\030+\\\234\320"
 555      C0D6CD92 
 555      B0182B5C 
 555      9CD0
 556 0ae4 BF94E713 		.ascii	"\277\224\347\0234\254\253\2733\357R;\345|\002e\3052"
 556      34ACABBB 
 556      33EF523B 
 556      E57C0265 
 556      C532
 557 0af6 DB802D74 		.ascii	"\333\200-tB\221\204\225\215\325\033\246\351\352\344"
 557      42918495 
 557      8DD51BA6 
 557      E9EAE4
 558 0b05 7981834C 		.ascii	"y\201\203L\214\0279\236f+X\315\323\353\314\334z\350"
 558      8C17399E 
 558      662B58CD 
 558      D3EBCCDC 
 558      7AE8
 559 0b17 C237D82E 		.ascii	"\3027\330.\274\3016\230_\003v\223\005\333\302\003\346"
 559      BCC13698 
 559      5F037693 
 559      05DBC203 
 559      E6
 560 0b28 37A7EC07 		.ascii	"7\247\354\007\026\354s\333`Z\312n\263`\273x\300\214"
 560      16EC73DB 
 560      605ACA6E 
 560      B360BB78 
 560      C08C
 561 0b3a 662F461F 		.ascii	"f/F\037v8\204\361\312A\306\253I(\251)\030Wa<\035\343"
 561      763884F1 
ARM GAS  /tmp/cc385vAD.s 			page 44


 561      CA41C6AB 
 561      4928A929 
 561      1857613C 
 562 0b50 9918CFC6 		.ascii	"\231\030\317\306x.\306k1^\217\361F\214?e\345k\341\273"
 562      782EC66B 
 562      315E8FF1 
 562      468C3F65 
 562      E56BE1BB 
 563 0b64 D44FC0F3 		.ascii	"\324O\300\363=c\320w\371\322g\351\273\2145i*\241>f\341"
 563      3D63D077 
 563      F9D267E9 
 563      BB8C3569 
 563      2AA13E66 
 564 0b79 BBC4F4BE 		.ascii	"\273\304\364\276\313\021\237]\337\205\021\003z\256\261"
 564      CB119F5D 
 564      DF851103 
 564      7AAEB1
 565 0b88 B2CD2B64 		.ascii	"\262\315+dy\204[\355d\247\365\2106\017\001\035\235\236"
 565      79845BED 
 565      64A7F588 
 565      360F011D 
 565      9D9E
 566 0b9a BEEF0D15 		.ascii	"\276\357\015\025\354\033\333`\372\036\253\312q8\312"
 566      EC1BDB60 
 566      FA1EABCA 
 566      7138CA
 567 0ba9 71044AE4 		.ascii	"q\004J\344}\214\267a\274]\333\373.&\0319\352\3642x\011"
 567      7D8CB761 
 567      BC5DDBFB 
 567      2E261939 
 567      EAF43278 
 568 0bbe EF58488D 		.ascii	"\357XH\215h&\244\006vA\356&Vz\325\376\342\242z\330\345"
 568      6826A406 
 568      7641EE26 
 568      567AD5FE 
 568      E2A27AD8 
 569 0bd3 34F48594 		.ascii	"4\364\205\224\333\305N\025)+\256su\267\226om\275Q\226"
 569      DBC54E15 
 569      292BAE73 
 569      75B7966F 
 569      6DBD5196 
 570 0be7 5B04C53D 		.ascii	"[\004\305=\350=\256l\222z\277X\203#\011\233\260\310"
 570      E83DAE6C 
 570      927ABF58 
 570      8323099B 
 570      B0C8
 571 0bf9 57BA31AE 		.ascii	"W\2721\256n\372\332\263\3774\025\221\277\342\032\347"
 571      6EFADAB3 
 571      FF341591 
 571      BFE21AE7 
 572 0c09 EE1BCDBA 		.ascii	"\356\033\315\272)Yf<\334\257W\346{qR\032\347\210?\332"
 572      2959663C 
 572      DCAF57E6 
 572      7B71521A 
 572      E7883FDA 
 573 0c1d 8136653F 		.ascii	"\2016e?\366\300!iv\301\264B\231\270s\206\315\303l\325"
 573      F6C02169 
ARM GAS  /tmp/cc385vAD.s 			page 45


 573      76C1B442 
 573      99B87386 
 573      CDC36CD5 
 574 0c31 1B2F3DB9 		.ascii	"\033/=\271\031Yv\030\225\177\177\232^\027\225=\213\204"
 574      19597618 
 574      957F7F9A 
 574      5E17953D 
 574      8B84
 575 0c43 2EF2F8D1 		.ascii	".\362\370\321\307x\032b\276\352\004\222\334\377\324"
 575      C7781A62 
 575      BEEA0492 
 575      DCFFD4
 576 0c52 069C9CAA 		.ascii	"\006\234\234\252\336\216\251\233&\011uX\331\011\275"
 576      DE8EA99B 
 576      26097558 
 576      D909BD
 577 0c61 36547FB6 		.ascii	"6T\177\266\377\267T\033Npi\303\272\232)\\S\2429n\265"
 577      FFB7541B 
 577      4E7069C3 
 577      BA9A295C 
 577      53A2396E 
 578 0c76 FA42AC7E 		.ascii	"\372B\254~^:\251\276N_\375\346\363\227\376J\253\257"
 578      5E3AA9BE 
 578      4E5FFDE6 
 578      F397FE4A 
 578      ABAF
 579 0c88 E3AAFECC 		.ascii	"\343\252\376\314\336IF\312h2kU\305\367\331\367\317\316"
 579      DE4946CA 
 579      68326B55 
 579      C5F7D9F7 
 579      CFCE
 580 0c9a C64ABE41 		.ascii	"\306J\276A\005\272\232\256\027\337\013\354\272\275\240"
 580      05BA9AAE 
 580      17DF0BEC 
 580      BABDA0
 581 0ca9 ECE633FA 		.ascii	"\354\3463\372\373c\234\372F\351/4s\353\013\037\241\244"
 581      FB639CFA 
 581      46E92F34 
 581      73EB0B1F 
 581      A1A4
 582 0cbb 541AEEDA 		.ascii	"T\032\356\332F\324*\361\315\275\330#(\330C\0360\013"
 582      46D42AF1 
 582      CDBDD823 
 582      28D8431E 
 582      300B
 583 0ccd CBFE030B 		.ascii	"\313\376\003\0136\244\251]0-e\267Y\260\021<`\026',\357"
 583      36A4A95D 
 583      302D65B7 
 583      59B0113C 
 583      6016272C 
 584 0ce2 B060A36C 		.ascii	"\260`\243l\203i)\273\307\202\275\317\003fq\302\362\001"
 584      836929BB 
 584      C782BDCF 
 584      036671C2 
 584      F201
 585 0cf4 0B36DE36 		.ascii	"\0136\3366\230\226\262G,\330d\0360\2779e\343\0160`U"
 585      9896B247 
ARM GAS  /tmp/cc385vAD.s 			page 46


 585      2CD8641E 
 585      30BF3965 
 585      E30E3060 
 586 0d09 B6C1B494 		.ascii	"\266\301\264\224M`\301f\362\200Y\254EOb\301\346\332"
 586      4D60C166 
 586      F28059AC 
 586      454F62C1 
 586      E6DA
 587 0d1b 06D352F6 		.ascii	"\006\323R\366\001\013\266\200\007\314\350\234\243z\370"
 587      010BB680 
 587      07CCE89C 
 587      A37AF8
 588 0d2a 9605FBC8 		.ascii	"\226\005\373\3106\230\226\262i,\330\307<`\317\233S6"
 588      369896B2 
 588      692CD8C7 
 588      3C60CF9B 
 588      5336
 589 0d3c 8305ABB6 		.ascii	"\203\005\253\266\015\246\245l\005\013\266\206\007\354"
 589      0DA6A56C 
 589      050BB686 
 589      07EC
 590 0d4a 4573CA56 		.ascii	"Es\312V\262`\353m\203i)[\315\202m\342\001\353nN\331"
 590      B260EB6D 
 590      8369295B 
 590      CD826DE2 
 590      01EB6E4E 
 591 0d5f 5A166C8B 		.ascii	"Z\026l\213m0-e\353Y\260\255<`9\346\224md\301\266\333"
 591      6D302D65 
 591      EB59B0AD 
 591      3C6039E6 
 591      946D64C1 
 592 0d75 06D352F6 		.ascii	"\006\323R\366)\013\266\223\007\3545s\312\266\260`5\266"
 592      290BB693 
 592      07EC3573 
 592      CAB6B060 
 592      35B6
 593 0d87 C1B494ED 		.ascii	"\301\264\224\355c\301\366\362\200\275a@Y\374c\346g\236"
 593      63C1F6F2 
 593      80BD6140 
 593      59FC63E6 
 593      679E
 594 0d99 7130BEFA 		.ascii	"q0\276\372\201\246\252\203cs\214\026\022\030\207\233"
 594      81A6AA83 
 594      63738C16 
 594      1218879B 
 595 0da9 DAF5C834 		.ascii	"\332\365\3104\355&\276\365S\033\225q\236:\253'y\020"
 595      ED26BEF5 
 595      531B9571 
 595      9E3AAB27 
 595      7910
 596 0dbb 2D0640E5 		.ascii	"-\006@\345 ?\005\373\3066\230N\225w\352\247#\\\207|"
 596      203F05FB 
 596      C636984E 
 596      9577EAA7 
 596      235C877C 
 597 0dcf 16731E76 		.ascii	"\026s\036v6\023\323l'#\246\253<m\260\030w\317\354\234"
 597      3613D36C 
ARM GAS  /tmp/cc385vAD.s 			page 47


 597      2723A6AB 
 597      3C6DB018 
 597      77CFEC9C 
 598 0de3 813B68FC 		.ascii	"\201;h\374\247\314\2527\356W\274\367\017qS\352VS\275"
 598      A7CCAA37 
 598      EE57BCF7 
 598      0F7153EA 
 598      5653BD
 599 0df6 FB374DEF 		.ascii	"\3737M\357\275\2478\320$\011\017\364\2550\332W2\037"
 599      BDA738D0 
 599      24090FF4 
 599      AD30DA57 
 599      321F
 600 0e08 F041518E 		.ascii	"\360AQ\216\265\335\360\211,\017s\333i\307n\245\035\213"
 600      B5DDF089 
 600      2C0F73DB 
 600      69C76EA5 
 600      1D8B
 601 0e1a B11DC39B 		.ascii	"\261\035\303\233\375\364v\274\327\314n;\236\325\265"
 601      FDF476BC 
 601      D7CC6E3B 
 601      9ED5B5
 602 0e29 63EBB3F6 		.ascii	"c\353\263\366\333qLi\307\307\330\216I\377\200v\314\260"
 602      DB714C69 
 602      C7C7D88E 
 602      49FF8076 
 602      CCB0
 603 0e3b DD0EF689 		.ascii	"\335\016\366\211)\234J\265\243S)\256\025\357\225N\335"
 603      299C4AB5 
 603      A35329AE 
 603      15EF954E 
 603      DD
 604 0e4c 8AF7B13D 		.ascii	"\212\367\261=\242\237f\247\232\303\310\261\372=\314"
 604      A29F66A7 
 604      9AC3C8B1 
 604      FA3DCC
 605 0e5b FC53E69B 		.ascii	"\374S\346\233\177~\257pl\015r\354C\035\307\370\221\352"
 605      7F7EAF70 
 605      6C0D72EC 
 605      431DC7F8 
 605      91EA
 606 0e6d 4F6CAF56 		.ascii	"Ol\257V\016\262\256G\250\217\032\015\265\352\314:zx"
 606      0EB2AE47 
 606      A88F1A0D 
 606      B5EACC3A 
 606      7A78
 607 0e7f 73130255 		.ascii	"s\023\002U'I\321\255\023\242[+D\270$5\335!\323a\361"
 607      2749D1AD 
 607      13A25B2B 
 607      44B82435 
 607      DD21D361 
 608 0e94 6F4A0EB9 		.ascii	"oJ\016\271\360\010\377\337\313\201\313\201\344\023\001"
 608      F008FFDF 
 608      CB81CB81 
 608      E41301
 609 0ea3 DA1C3D12 		.ascii	"\332\034=\022\012\364\233\015\212\345\247B\332\366\223"
 609      0AF49B0D 
ARM GAS  /tmp/cc385vAD.s 			page 48


 609      8AE5A742 
 609      DAF693
 610 0eb2 1087C656 		.ascii	"\020\207\306V\215\236\251\354\213\274\200C\362O\204"
 610      8D9EA9EC 
 610      8BBC8043 
 610      F24F84
 611 0ec1 DB5F637F 		.ascii	"\333_c\177\325ck\033\252u\333\261A\007\222$\334\250"
 611      D5636B1B 
 611      AA75DBB1 
 611      41079224 
 611      DCA8
 612 0ed3 558FD38D 		.ascii	"U\217\323\215mH\374#\011\337\352\273\273\255)\022\221"
 612      6D48FC23 
 612      09DFEABB 
 612      BBAD2912 
 612      91
 613 0ee4 D6DD769C 		.ascii	"\326\335v\234+'\361\365\270K\255w\321\3658'Y\217\273"
 613      2B27F1F5 
 613      B84BAD77 
 613      D1F53827 
 613      598FBB
 614 0ef7 A46306C7 		.ascii	"\244c\006\307\012\314\035J\2643i=n\377\223\312z\234"
 614      0ACC1D4A 
 614      B433693D 
 614      6EFF93CA 
 614      7A9C
 615 0f09 936B05A6 		.ascii	"\223k\005\246R\325\013\272\314v\300!)\260\215\345\247"
 615      52D50BBA 
 615      CC76C021 
 615      29B08DE5 
 615      A7
 616 0f1a 468409FA 		.ascii	"F\204\011\372\202\342^'\031\370\36795\013\261\3574\267"
 616      82E25E27 
 616      19F8F739 
 616      350BB1EF 
 616      34B7
 617 0f2c CB7B3FCB 		.ascii	"\313{?\313\373\330\375\232\031\"\241\337`\321\350E\326"
 617      FBD8FD9A 
 617      1922A1DF 
 617      60D1E845 
 617      D6
 618 0f3d C58A33FE 		.ascii	"\305\2123\376\354\223\273\221=\265\310\370\011\315m"
 618      EC93BB91 
 618      3DB5C8F8 
 618      09CD6D
 619 0f4c 9E5D9584 		.ascii	"\236]\225\204yX\344p2\343w\267\241\214?\314\305\370"
 619      7958E470 
 619      32E377B7 
 619      A18C3FCC 
 619      C5F8
 620 0f5e 43868C3F 		.ascii	"C\206\214?l\237\361O\253\217,\307]\273\240x\3206\230"
 620      6C9FF14F 
 620      AB8F2CC7 
 620      5DBBA078 
 620      D03698
 621 0f71 DF4A8A87 		.ascii	"\337J\212\207\031)\036E)\036s\222%\360\343ZY\256\322"
 621      19291E45 
ARM GAS  /tmp/cc385vAD.s 			page 49


 621      291E7392 
 621      25F0E35A 
 621      59AED2
 622 0f84 CB52C339 		.ascii	"\313R\3039%i:\241\227c\023\277V\367n\251\315\333\302"
 622      25693AA1 
 622      976313BF 
 622      56F76EA9 
 622      CDDBC2
 623 0f97 A31B16D3 		.ascii	"\243\033\026\323\360Y_#K"
 623      F0595F23 
 623      4B
 624 0fa0 A8BDD96E 		.ascii	"\250\275\331n\033\314\257\001\333<\206\363\270\230\356"
 624      1BCCAF01 
 624      DB3C86F3 
 624      B898EE
 625 0faf 39B1BD58 		.ascii	"9\261\275X\3579\275\272\234x\264\177\2448\004\207\316"
 625      EF39BDBA 
 625      9C78B47F 
 625      A4380487 
 625      CE
 626 0fc0 731CFA02 		.ascii	"s\034\372\002\343\374\267><\363L\365vT\013\025\325\202"
 626      E3FCB73E 
 626      3CF34CF5 
 626      76540B15 
 626      D582
 627 0fd2 D516DA72 		.ascii	"\325\026\332r\377\222r\204\232N\005\306\353\341R\316"
 627      FF927284 
 627      9A4E05C6 
 627      EBE152CE 
 628 0fe2 54B4708F 		.ascii	"T\264p\217B\273\3327\3469\274\330\211\015\304\323\271"
 628      42BBDA37 
 628      E639BCD8 
 628      890DC4D3 
 628      B9
 629 0ff3 826DAA6A 		.ascii	"\202m\252j\241\037\021(g\030E<\307"
 629      A11F1128 
 629      6718453C 
 629      C7
 630 1000 28E237A8 		.ascii	"(\3427\250\210\337\242\"^\300\370\022\253\216f\316\326"
 630      88DFA222 
 630      5EC0F812 
 630      AB8E66CE 
 630      D6
 631 1011 6576FA30 		.ascii	"ev\3720\327v\273\375:\351\230Us\226\255fq\013\016\335"
 631      D776BBFD 
 631      3AE99855 
 631      7396AD66 
 631      710B0EDD 
 632 1025 335FB521 		.ascii	"3_\265!F\375O\252;@\367\014V\332F\324j\363\367c4\356"
 632      46FD4FAA 
 632      3B40F70C 
 632      56DA46D4 
 632      6AF3F763 
 633 103b C0661EB8 		.ascii	"\300f\036\270\027\015\0104\372\260\273D`\365qCn\037"
 633      170D0834 
 633      FAB0BB44 
 633      60F57143 
ARM GAS  /tmp/cc385vAD.s 			page 50


 633      6E1F
 634 104d 6E99D562 		.ascii	"n\231\325b|\010\343\343\030OC\301\315\300x\026\306\363"
 634      7C08E3E3 
 634      184F43C1 
 634      CDC07816 
 634      C6F3
 635 105f 305E84F1 		.ascii	"0^\204\3612\214\2531\336\215\361\001\214Ob|\032\343"
 635      328CAB31 
 635      DE8DF101 
 635      8C4F627C 
 635      1AE3
 636 1071 3A8C6F60 		.ascii	":\214o`|3\225\002(\243\300\364\205\307\237Z\206\266"
 636      7C339502 
 636      28A3C0F4 
 636      85C79F5A 
 636      86B6
 637 1083 7A375DF1 		.ascii	"z7]\361N\322\274\375\016\335\032~\322&\324\270\226\034"
 637      4ED2BCFD 
 637      0EDD1A7E 
 637      D226D4B8 
 637      961C
 638 1095 9B7916DB 		.ascii	"\233y\026\333-U\267/\276\275y(\225\351\025T\353\363"
 638      2D55B72F 
 638      BEBD7928 
 638      95E91554 
 638      EBF3
 639 10a7 4EDDE9C2 		.ascii	"N\335\351\302\324\347\206\265B=5\313\374\221L\315nJ"
 639      D4E786B5 
 639      423D35CB 
 639      FC914CCD 
 639      6E4A
 640 10b9 FC60D833 		.ascii	"\374`\3303\011\236\234Yr\374\377\322\003f\367\2607\326"
 640      099E9C59 
 640      72FCFFD2 
 640      0366F7B0 
 640      37D6
 641 10cb B64CBD45 		.ascii	"\266L\275E\250\301!\\z\2503s\261\357O\323\2075S\233"
 641      A8C1215C 
 641      7AA83373 
 641      B1EF4FD3 
 641      8735539B 
 642 10df B8E1C362 		.ascii	"\270\341\303b?\236\236\244(%\335\356?\203$<l\334\220"
 642      3F9E9EA4 
 642      2825DDEE 
 642      3F83243C 
 642      6CDC90
 643 10f2 48CE0E9C 		.ascii	"H\316\016\234f\316\016\234\267\015\346\327\200\335a"
 643      66CE0E9C 
 643      B70DE6D7 
 643      80DD61
 644 1101 C12EF080 		.ascii	"\301.\360\200Y\234\014\273\307\202]\266\015\246\245"
 644      599C0CBB 
 644      C7825DB6 
 644      0DA6A5
 645 1110 EC010B76 		.ascii	"\354\001\013v\215\007\314\342d\330#\026\354\226m0-e"
 645      8D07CCE2 
 645      64D82316 
ARM GAS  /tmp/cc385vAD.s 			page 51


 645      EC966D30 
 645      2D65
 646 1122 E3CE3060 		.ascii	"\343\3160`\367x\300,\016\274L`\301\206\264\262\013\246"
 646      F778C02C 
 646      0EBC4C60 
 646      C186B4B2 
 646      0BA6
 647 1134 A56C120B 		.ascii	"\245l\022\0136\212\007\314o@\231\321\207\355\004A\361"
 647      368A07CC 
 647      6F4099D1 
 647      87ED0441 
 647      F1
 648 1145 110E520D 		.ascii	"\021\016R\015h\235\206\270H<\014\343\021\030\217\304"
 648      689D86B8 
 648      483C0CE3 
 648      11188FC4 
 649 1155 7814C6A3 		.ascii	"x\024\306\2431~\037\343\261.\216\201\354.;\302\214m"
 649      317E1FE3 
 649      B12E8E81 
 649      EC2E3BC2 
 649      8C6D
 650 1167 C5618D2C 		.ascii	"\305a\215,V\220\252n\357\373??\345dr\335\221\225{\376"
 650      5690AA6E 
 650      EFFB3F3F 
 650      E56472DD 
 650      91957BFE 
 651 117b 42CC47EA 		.ascii	"B\314G\352\323\311\223]|\247\223\247\270\364G\343\277"
 651      D3C9935D 
 651      7CA793A7 
 651      B8F447E3 
 651      BF
 652 118c 465B42F2 		.ascii	"F[B\362S\273\327\365\234\356ZLd\271\023\267\205{\376"
 652      53BBD7F5 
 652      9CEE5A4C 
 652      64B913B7 
 652      857BFE
 653 119f 4A6DE174 		.ascii	"Jm\341t\027\261\205\307[\245\264\205Z\034B\337,=\375"
 653      17B185C7 
 653      5BA5B485 
 653      5A1C42DF 
 653      2C3DFD
 654 11b2 ABF622FD 		.ascii	"\253\366\"\375\263R\323O\016\333\356\325\332\302kH\002"
 654      B352D34F 
 654      0EDBEED5 
 654      DAC26B48 
 654      02
 655 11c3 29DB385B 		.ascii	")\3338[\270~/\243\3607l\203\3715`\033Y\260\037y\300"
 655      B87E2FA3 
 655      F0376C83 
 655      F935601B 
 655      59B01F79 
 656 11d8 AC4EC9B2 		.ascii	"\254N\311\262`wm\203i)\333\302\202=\342\001\263:%\313"
 656      60776D83 
 656      6929DBC2 
 656      823DE201 
 656      B33A25CB 
 657 11ec 820D7BCC 		.ascii	"\202\015{\314.\230\337H\274B\222v\004\305\331.b$\346"
ARM GAS  /tmp/cc385vAD.s 			page 52


 657      2E98DF48 
 657      BC429276 
 657      04C5D92E 
 657      6224E6
 658 11ff 60D79F87 		.ascii	"`\327\237\207\361|\214\027b\274\030\343%<&a\232\213"
 658      F17C8C17 
 658      62BC18E3 
 658      253C2661 
 658      9A8B
 659 1211 31092391 		.ascii	"1\011#\221\340)\215\323\0300\011GV\236\373\363\306d"
 659      E0298DD3 
 659      18300947 
 659      569EFBF3 
 659      C664
 660 1223 9340F961 		.ascii	"\223@\371aF\301',\005clS\340g)\210\335\377\232.\316"
 660      46C1272C 
 660      05636C53 
 660      E0672988 
 660      DDFF9A2E 
 661 1238 AB8F864F 		.ascii	"\253\217\206O\324\343\031-\313Z\315R\276\306\267zQ\260"
 661      D4E3192D 
 661      CB5ACD52 
 661      BEC6B77A 
 661      51B0
 662 124a 69B6C1B4 		.ascii	"i\266\301\264oB\033\267\227\001\233o\033\314\354\374"
 662      6F421BB7 
 662      97019B6F 
 662      1BCCECFC 
 663 125a DA54D485 		.ascii	"\332T\324\205*\224\371\307\030\257\300x%\306\253Y-\220"
 663      2A94F9C7 
 663      18AFC078 
 663      25C6AB59 
 663      2D90
 664 126c 84A58FE9 		.ascii	"\204\245\217\351\375Vj\034\031\324\204\025\025xq\315"
 664      FD566A1C 
 664      19D48415 
 664      157871CD 
 665 127c 643B9195 		.ascii	"d;\221\225\355\226\3078\006\034\277\271vU\335\276\241"
 665      ED96C738 
 665      061CBFB9 
 665      7655DDBE 
 665      A1
 666 128d 0C381418 		.ascii	"\0148\024\030&\350\266\021\265\3322\371\314,\315\311"
 666      26E8B611 
 666      B5DA32F9 
 666      CC2CCDC9 
 667 129d EF3D3C78 		.ascii	"\357=<x\026\307\013fP\027\201\202\035\264\015\346\027"
 667      16C70B66 
 667      50178182 
 667      1DB40DE6 
 667      17
 668 12ae 4C3FEC63 		.ascii	"L?\354c_A\361\032>)\361w|x\366\021\306\273pjT\217N\303"
 668      5F41F11A 
 668      3E29F177 
 668      7C78F611 
 668      C6BB706A 
 669 12c6 1D8C27A0 		.ascii	"\035\214'\240\224\326c\274\021\343Oy$v\221=}x\032\233"
ARM GAS  /tmp/cc385vAD.s 			page 53


 669      94D663BC 
 669      11E34F79 
 669      2476913D 
 669      7D781A9B 
 670 12da F06D631F 		.ascii	"\360mc\037\223\256\253\257=2W\234H_x\326\200\017\265"
 670      93AEABAF 
 670      3D32579C 
 670      485F78D6 
 670      800FB5
 671 12ed 9FB78DA8 		.ascii	"\237\267\215\250\225\330m\272dE\301.\361\200\031un\206"
 671      95D86DBA 
 671      6445C12E 
 671      F1801975 
 671      6E86
 672 12ff AD94A1DF 		.ascii	"\255\224\241\337!C/ +?Cfm\325v\233\353I\335\206>1\310"
 672      21432F20 
 672      2B3F4366 
 672      6DD5769B 
 672      EB49DD86 
 673 1316 20251E2D 		.ascii	" %\036-\024\254\260\314\030\1776\301\370\240\270\023"
 673      14ACB0CC 
 673      187F36C1 
 673      F8A0B813 
 674 1326 17E3EC3C 		.ascii	"\027\343\354<s\251eS\303N\325\014\322\267\317\334E\362"
 674      73A96553 
 674      C34ED50C 
 674      D2B7CFDC 
 674      45F2
 675 1338 533C25CB 		.ascii	"S<%\313\377\026\256z\346-\\wpo\366.}\347\0266\372(\306"
 675      FF16AE7A 
 675      E62D5C77 
 675      706FF62E 
 675      7DE71636 
 676 134f 27313E8D 		.ascii	"'1>\215q\035\306\333y\330p\213}\314{\324\343\204\354"
 676      711DC6DB 
 676      79D8708B 
 676      7DCC7BD4 
 676      E384EC
 677 1362 EB8D7ECC 		.ascii	"\353\215~\314\373\341\201\017\236\305WWP\275\206\341"
 677      FBE1810F 
 677      9EC55757 
 677      50BD86E1 
 678 1372 C536A096 		.ascii	"\3056\240\226\257\247n\354\242k`\344U_0\272\360\300"
 678      AFA76EEC 
 678      A26B60E4 
 678      555F30BA 
 678      F0C0
 679 1384 598C2E67 		.ascii	"Y\214.g.\256\247\257\355\244R\232\256\207K9$h\251\273"
 679      2EAEA7AF 
 679      EDA4529A 
 679      AE874B39 
 679      2468A9BB 
 680 1398 F11F53DB 		.ascii	"\361\037S\333\253X\363mc=k%\361\353\214\304\277G\211"
 680      AB58F36D 
 680      633D6B25 
 680      F1EB8CC4 
 680      BF4789
ARM GAS  /tmp/cc385vAD.s 			page 54


 681 13ab DF4489EF 		.ascii	"\337D\211\357D\005\337\215q\015\306_\361H\371\312O|"
 681      4405DF8D 
 681      710DC65F 
 681      F148F9CA 
 681      4F7C
 682 13bd 17D786F3 		.ascii	"\027\327\206\363\007V\213\324\335\336\207\356\366\306"
 682      07568BD4 
 682      DDDE87EE 
 682      F6C6
 683 13cb C753BADB 		.ascii	"\307S\272\333\372U\326\235X\244V\357r\337z\303Os9&\014"
 683      FA55D69D 
 683      58A456EF 
 683      72DF7AC3 
 683      4F733926 
 684 13e0 3F28DA70 		.ascii	"?(\332p\005\265\341@\034\260Q\332\032\273{\225Q\256"
 684      05B5E140 
 684      1CB051DA 
 684      1ABB7B95 
 684      51AE
 685 13f2 A0B8C725 		.ascii	"\240\270\307%\331\204\323j\303\375\213\273\222\336c"
 685      D984D36A 
 685      C3FD8BBB 
 685      92DE63
 686 1401 A579195B 		.ascii	"\245y\031[\222T\216\263\243\365a\236\326X\350\366\303"
 686      92548EB3 
 686      A3F5619E 
 686      D658E8F6 
 686      C3
 687 1412 6F34BA7D 		.ascii	"o4\272}Z\017gS\267\307\377\030\023\345w\323\325\323"
 687      5A0F6753 
 687      B7C7FF18 
 687      13E577D3 
 687      D5D3
 688 1424 FF57F470 		.ascii	"\377W\364p)O\377\267\267R\357Z\306\265>\204\356\324"
 688      294FFFB7 
 688      B752EF5A 
 688      C6B53E84 
 688      EED4
 689 1436 6154E6A3 		.ascii	"aT\346\243\030\037\303\370$\306\247y\324{o\202\221m"
 689      181FC3F8 
 689      24C6A779 
 689      D47B6F82 
 689      916D
 690 1448 855972EC 		.ascii	"\205Yr\354F\335\241\013\227[/%\276\213\374\250\341o"
 690      46DDA10B 
 690      975B2F25 
 690      BE8BFCA8 
 690      E16F
 691 145a 43868ABA 		.ascii	"C\206\212\272\207^\235\026oYti\036z5\234k\247\332;\234"
 691      875E9D16 
 691      6F597469 
 691      1E7A359C 
 691      6BA7DA3B 
 692 146f 79E5E693 		.ascii	"y\345\346\223\264\267|\203\275\345\364\317\214\267\260"
 692      B4B77C83 
 692      BDE5F4CF 
 692      8CB7B0
ARM GAS  /tmp/cc385vAD.s 			page 55


 693 147e 2C8F1C5C 		.ascii	",\217\034\\\320\367\2245\364\321\371\013\\}e\303\216"
 693      D0F79435 
 693      F4D1F90B 
 693      5C7D65C3 
 693      8E
 694 148f 65DCEF7E 		.ascii	"e\334\357~\323u\324[?3~\367\233\3466p\220\260\277\\"
 694      D375D45B 
 694      3F337EF7 
 694      9BE63670 
 694      90B0BF5C 
 695 14a3 D35339B1 		.ascii	"\323S9\261\022\251\274\306E\345\344\035)\336\375\306"
 695      12A9BCC6 
 695      45E5E41D 
 695      29DEFDC6 
 696 14b3 BF79BDEE 		.ascii	"\277y\275\356\346\271?-\307\005\343\233.\334\231\372"
 696      E6B93F2D 
 696      C705E39B 
 696      2EDC99FA 
 697 14c3 B9DE8370 		.ascii	"\271\336\203p\351\366\256]\332\275k\227/\221P\366\256"
 697      E9F6AE5D 
 697      DABD6B97 
 697      2F9150F6 
 697      AE
 698 14d4 CD44F3BD 		.ascii	"\315D\363\275\313\342\015K\312K\216\342\3277i\275\\"
 698      CBE20D4B 
 698      CA4B8EE2 
 698      D73769BD 
 698      5C
 699 14e5 2F87B9E1 		.ascii	"/\207\271\341b\234\222\245\222\312\340\306\215\3063"
 699      629C92A5 
 699      92CAE0C6 
 699      8DC633
 700 14f4 AF1C688D 		.ascii	"\257\034h\215\316\240\325\343\337\204:3j\356Y5\263\352"
 700      CEA0D5E3 
 700      DF843A33 
 700      6AEE5935 
 700      B3EA
 701 1506 2734F32E 		.ascii	"'4\363.\333\314\271\266\233\351g\233\231\372\275Kk,"
 701      DBCCB9B6 
 701      9BE9679B 
 701      99FABD4B 
 701      6B2C
 702 1518 7ABBECB6 		.ascii	"z\273\354\266h\3424\033\357\245j`m\371\027\250{)\232"
 702      68E2341B 
 702      EFA56A60 
 702      6DF917A8 
 702      7B299A
 703 152b 94EA657A 		.ascii	"\224\352ez\215mR\245A\223\270\2320\302\255\333?\331"
 703      8D6D52A5 
 703      4193B89A 
 703      30C2ADDB 
 703      3FD9
 704 153d 6DBB197E 		.ascii	"m\273\031~A\373I\370\347\327\321\232\337\301\370\021"
 704      41FB49F8 
 704      E7D7D19A 
 704      DFC1F811 
 705 154d C6C3DD3C 		.ascii	"\306\303\335<[\201\254\246lAM\271`\277C\030}X\003\013"
ARM GAS  /tmp/cc385vAD.s 			page 56


 705      5B81ACA6 
 705      6C414DB9 
 705      60BF4318 
 705      7D58030B 
 706 1561 EE2A0E42 		.ascii	"\356*\016B\227x\006\233\363\011\222\342,f\016<R\326"
 706      9778069B 
 706      F30992E2 
 706      2C660E3C 
 706      52D6
 707 1573 7DA5B33E 		.ascii	"}\245\263>\317\010\037\312\362\004\034\226.\023\351"
 707      CF081FCA 
 707      F2041C96 
 707      2E13E9
 708 1582 521818F5 		.ascii	"R\030\030\365\361\276:W[\303\352\224\312hay\012\314"
 708      F1BE3A57 
 708      5BC3EA94 
 708      CA686179 
 708      0ACC
 709 1594 C5445A97 		.ascii	"\305DZ\227$\034OQP\241\350_\204\005Do\216|\223\323]"
 709      241C4F51 
 709      50A1E85F 
 709      8405446F 
 709      8E7C93D3 
 710 15a9 79998779 		.ascii	"y\231\207y!\245}\357\272%\266-8\240\326\325=\274}\256"
 710      21A57DEF 
 710      BA25B62D 
 710      38A0D6D5 
 710      3DBC7DAE 
 711 15bd 521C3F6C 		.ascii	"R\034?l\350.\371\0061\215\311FZ\346z\221\340\211e\277"
 711      E82EF906 
 711      318DC946 
 711      5AE67A91 
 711      E08965BF 
 712 15d1 C6236413 		.ascii	"\306#d\023\334\304F_\325q\211\037h\325\231\231\031\364"
 712      DCC4465F 
 712      D571891F 
 712      68D59999 
 712      19F4
 713 15e3 A58A0874 		.ascii	"\245\212\010t+\311\330\013:c/h\215=\\\312\015\312\207"
 713      2BC9D80B 
 713      3A632F68 
 713      8D3D5CCA 
 713      0DCA87
 714 15f6 9E0D839C 		.ascii	"\236\015\203\234\277\011\215*c\246(\343\335)=\211\224"
 714      BF098D2A 
 714      63A628E3 
 714      DD293D89 
 714      94
 715 1607 CBDC1BCE 		.ascii	"\313\334\033\316o\253T\034\357in\342J<\370yJ\307[\013"
 715      6FAB541C 
 715      EF696EE2 
 715      4A3CF879 
 715      4AC75B0B 
 716 161b 2409954F 		.ascii	"$\011\225O\220\"3\335\272\201zv\320OsS\017\323\253\356"
 716      902233DD 
 716      BA817A76 
 716      D04F7353 
ARM GAS  /tmp/cc385vAD.s 			page 57


 716      0FD3ABEE 
 717 162f 32CE204C 		.ascii	"2\316 LB\360\255\257\244\250\2053\250\351DZ\2705\327"
 717      42F0ADAF 
 717      A4A88533 
 717      A8E9445A 
 717      B835D7
 718 1642 14C7FB38 		.ascii	"\024\307\3738\366\2011q\372\032\347x\257\373X9(\261"
 718      F6813171 
 718      FA1AE778 
 718      AFFB5839 
 718      28B1
 719 1654 17E126F2 		.ascii	"\027\341&\362\300Y8\322\033.%\373\361F;\253\277T\261"
 719      C05938D2 
 719      1B2E25FB 
 719      F1463BAB 
 719      BF54B1
 720 1667 E6335EC8 		.ascii	"\3463^\310\206\312/\351K\177\027\241\264\246=\221z\207"
 720      86CA2FE9 
 720      4B7F17A1 
 720      B4A63D91 
 720      7A87
 721 1679 568B4384 		.ascii	"V\213C\204\261D/\252Z\372\326\337%\\\302:H\017\220\323"
 721      B1442FAA 
 721      5AFAD6DF 
 721      255CC23A 
 721      480F90D3 
 722 168d 19F32C24 		.ascii	"\031\363,$`\211\015\336j\301\216\354\374\234J~\273\230"
 722      60890DDE 
 722      6AC18EEC 
 722      FC9C4A7E 
 722      BB98
 723 169f 90FC121B 		.ascii	"\220\374\022\033\222\327\212\352\350N\346O\033\346\352"
 723      92D78AEA 
 723      E84EE64F 
 723      1BE6EA
 724 16ae 694BF9AA 		.ascii	"iK\371\252\036\315\237\036\304\216\263`\013m\203=\257"
 724      1ECD9F1E 
 724      C48EB360 
 724      0B6D833D 
 724      AF
 725 16bf 013B35F2 		.ascii	"\001;5\362=ei\222\276\016~\011\017\343,\264\350t\342"
 725      3D656992 
 725      BE0E7E09 
 725      0FE32CB4 
 725      E874E2
 726 16d2 DDF241F1 		.ascii	"\335\362A\361\240\236m\274\003\251\272\320\300\276\250"
 726      A09E6DBC 
 726      03A9BAD0 
 726      C0BEA8
 727 16e1 7E390F65 		.ascii	"~9\017e\026\017\030\334d\301\326\332\006\323R\366\003"
 727      160F18DC 
 727      64C1D6DA 
 727      06D352F6 
 727      03
 728 16f2 0BF6290F 		.ascii	"\013\366)\017\230\305I\377;,\3306\333`Z\312\356%=\372"
 728      98C549FF 
 728      3B2CD836 
ARM GAS  /tmp/cc385vAD.s 			page 58


 728      DB605ACA 
 728      EE253DFA 
 729 1706 A079237F 		.ascii	"\240y#\177\222\265\376\314\3158p5<\225\373\315Z\"\307"
 729      92B5FECC 
 729      CD387035 
 729      3C95FBCD 
 729      5A22C7
 730 1719 66EE49C3 		.ascii	"f\356I\303\2718y\311\277$\324\352\321\3448\234\234b"
 730      B93879C9 
 730      BF24D4EA 
 730      D1E4389C 
 730      9C62
 731 172b E1DCE8C3 		.ascii	"\341\334\350\303\032\0100\311n\342\271,s\023\227\352"
 731      1A0830C9 
 731      6EE2B92C 
 731      731397EA 
 732 173b 138C9763 		.ascii	"\023\214\227c\\\215\361*\214\327`\274\026\343\365\030"
 732      5C8DF12A 
 732      8CD760BC 
 732      16E3F518 
 733 174b 6FC4F853 		.ascii	"o\304\370S\214\267`\274\225\307\035[\3102\351\210mC"
 733      8CB760BC 
 733      95C71D5B 
 733      C832E988 
 733      6D43
 734 175d AB91108C 		.ascii	"\253\221\020\214m\227\277U\377\236\203.\341\237\344"
 734      6D97BF55 
 734      FF9E832E 
 734      E19FE4
 735 176c 41B450ED 		.ascii	"A\264P\355\315\2274k \337\350\341\214l\002\377~\340"
 735      CD97346B 
 735      20DFE8E1 
 735      8C6C02FF 
 735      7EE0
 736 177e 4C86EBB3 		.ascii	"L\206\353\263\221\353s\220ss1\376\020\343\005\030o\307"
 736      91EB7390 
 736      737331FE 
 736      10E30518 
 736      6FC7
 737 1790 78070F47 		.ascii	"x\007\017G\253\334\311\336\244\302\345\370\265\262N"
 737      ABDCC9DE 
 737      A4C2E5F8 
 737      B5B24E
 738 179f A471E225 		.ascii	"\244q\342%\341\222nlQ\\Lp\324\276#{\000\335)\266$\334"
 738      E1926E6C 
 738      515C4C70 
 738      D4BE237B 
 738      00DD29B6 
 739 17b5 C7FBC6B9 		.ascii	"\307\373\306\271\315<E\244@q1\037\206\272\323\352\203"
 739      CD3C45A4 
 739      4071311F 
 739      86BAD3EA 
 739      83
 740 17c6 E2E76EC9 		.ascii	"\342\347n\311\262\330B\246\330\032"
 740      B2D842A6 
 740      D81A
 741 17d0 EA99D2E1 		.ascii	"\352\231\322\341\274!E}Jk\3203\035'W\237\314iM\335A"
ARM GAS  /tmp/cc385vAD.s 			page 59


 741      BC21457D 
 741      4A6BD033 
 741      1D27579F 
 741      CC694DDD 
 742 17e5 415B4AF7 		.ascii	"A[J\367B;\374y\217\221k\032;\272\343=\357\270!u\015"
 742      423BFC79 
 742      8F916B1A 
 742      3BBAE33D 
 742      EFB82175 
 743 17fa 0D6D75B3 		.ascii	"\015mu\263$\202j\306\367\003\372YR\225;M\317\341\021"
 743      24826AC6 
 743      F703FA59 
 743      52953B4D 
 743      CFE111
 744 180d AD8D382C 		.ascii	"\255\2158,\217\017uWo\377\022\231\264\337\232\267&m"
 744      8F0F7557 
 744      6FFF1299 
 744      B4DF9AB7 
 744      266D
 745 181f DD6FDDD6 		.ascii	"\335o\335\326\203\311m\235S\027\333RH\035p\033-=\252"
 745      83C96D9D 
 745      5317DB52 
 745      481D701B 
 745      2D3DAA
 746 1832 6F297193 		.ascii	"o)q\223\364\272\025\277VV\212y}\326l\265\266\243\354"
 746      F4BA15BF 
 746      56568A79 
 746      7DD66CB5 
 746      B6A3EC
 747 1845 09EE79B5 		.ascii	"\011\356y\265O\321\347\010N\243\027\264W\307\307\324"
 747      4FD1E708 
 747      4EA317B4 
 747      57C7C7D4 
 748 1855 40603991 		.ascii	"@`9\221\263g\365\236\320]\372\317\002g\271<\241\207"
 748      B367F59E 
 748      D05DFACF 
 748      0267B93C 
 748      A187
 749 1867 3BE737F6 		.ascii	";\3477\366\377\017N\266\346\372\377\203\357\220\312"
 749      FF0F4EB6 
 749      E6FAFF83 
 749      EF90CA
 750 1876 0B49FE1A 		.ascii	"\013I\376\032\245\362\002\027\225\207v*\356+Y\374QW"
 750      A5F20217 
 750      9587762A 
 750      EE2B59FC 
 750      5157
 751 1888 7D2E34D6 		.ascii	"}.4\326cS\337%z\027\301\346\332\006\363\033\2015 \330"
 751      6353DF25 
 751      7A17C1E6 
 751      DA06F31B 
 751      813520D8 
 752 189c 30370758 		.ascii	"07\007X\352\277\010\240\313\014\357\330\0063\240\254"
 752      EABF08A0 
 752      CB0CEFD8 
 752      0633A0AC 
 753 18ac B14B24D7 		.ascii	"\261K$\3279V}l\377e\300\255\345g\027*OZ\335\242\263"
ARM GAS  /tmp/cc385vAD.s 			page 60


 753      39567D6C 
 753      FF65C0AD 
 753      E567172A 
 753      4F5ADDA2 
 754 18c1 5B9DDA37 		.ascii	"[\235\3327\352\361\031\201s\375\351\357\354\310|\033"
 754      EAF11981 
 754      73FDE9EF 
 754      ECC87C1B 
 755 18d1 6B4EC15C 		.ascii	"kN\301\\\213W\320C\007\376E\312\225C+\006\337\265b\360"
 755      8B57D043 
 755      07FE45CA 
 755      95432B06 
 755      DFB562F0 
 756 18e5 2D37FFB2 		.ascii	"-7\377\262\332\035\266Y\367m7\313\246\316X-\2066X5\311"
 756      DA1DB659 
 756      F76D37CB 
 756      A6CE582D 
 756      86365835 
 757 18fa 64CDB751 		.ascii	"d\315\267QM~\3046Y~\222\243\311?\345\245\364VM\036\351"
 757      4D7EC436 
 757      597E92A3 
 757      C93FE5A5 
 757      F4564D1E 
 758 190f B1BFFEDB 		.ascii	"\261\277\376\333\250&Wz\330CQ\266\233\354\027\264\237"
 758      A826577A 
 758      D84351B6 
 758      9BEC17B4 
 758      9F
 759 1920 C4AAE325 		.ascii	"\304\252\343%t\304.c|\005\343\253\030_\303\270\036\343"
 759      74C42E63 
 759      7C05E3AB 
 759      185FC3B8 
 759      1EE3
 760 1932 87188FF0 		.ascii	"\207\030\217\360p8k\337\270\223V#\3176\322P\313\261"
 760      70386BDF 
 760      B8935623 
 760      CF36D250 
 760      CBB1
 761 1944 476482C2 		.ascii	"Gd\202\302\273\243\264q\311\375'q]a\214\207\214\250"
 761      BBA3B471 
 761      C9FD2771 
 761      5D618C87 
 761      8CA8
 762 1956 DB9FB4B9 		.ascii	"\333\237\264\271\241\004\223\020,2\336\243\033\252\326"
 762      A1049310 
 762      2C32DEA3 
 762      1BAAD6
 763 1965 55E26B5A 		.ascii	"U\342kZI>\307\246\022\347\373\230\347\304W\240\036\027"
 763      493EC7A6 
 763      12E7FB98 
 763      E7C457A0 
 763      1E17
 764 1977 12CF913C 		.ascii	"\022\317\221<\024\375A\361\003\244\277\316\230~s\014"
 764      14FD41F1 
 764      03A4BFCE 
 764      987E730C 
 765 1987 49F81E8B 		.ascii	"I\370\036\213T\351\351\377\221\254bUqQ_\257>P3\331C"
ARM GAS  /tmp/cc385vAD.s 			page 61


 765      54E9E9FF 
 765      91AC6255 
 765      71515FAF 
 765      3E5033D9 
 766 199c FC54B98D 		.ascii	"\374T\271\215\012\330\250\2016\366\000\377\223\200>"
 766      0AD8A881 
 766      36F600FF 
 766      93803E
 767 19ab 9CF38E6D 		.ascii	"\234\363\216m,\277\006k\374\016\365\261*\372$\324$\036"
 767      2CBF066B 
 767      FC0EF5B1 
 767      2AFA24D4 
 767      241E
 768 19bd 3C8BD587 		.ascii	"<\213\325\207I\344\330\216\235\007?w+\017~~\350\301"
 768      49E4D88E 
 768      9D073F77 
 768      2B0F7E7E 
 768      E8C1
 769 19cf FFA869F3 		.ascii	"\377\250i\363\017\030\271$a\251\355Vh\270R\267i\311"
 769      0F18B924 
 769      61A9ED56 
 769      68B852B7 
 769      69C9
 770 19e1 F9D6EA33 		.ascii	"\371\326\35235\224\260\325<\210F\003\233\321\207\325"
 770      3594B0D5 
 770      3C884603 
 770      9BD187D5 
 771 19f1 A6A038DD 		.ascii	"\246\2408\335Cft3<\304\030\314\302x\016\306\3630^\304"
 771      43667433 
 771      3CC418CC 
 771      C2780EC6 
 771      F3305EC4 
 772 1a05 631E26B3 		.ascii	"c\036&\263flK\033\265\277\331T/cR\3073\244NDR'\261$"
 772      666C4B1B 
 772      B5BFD954 
 772      2F6352C7 
 772      33A44E44 
 773 1a1d 49C20EAC 		.ascii	"I\302\016\254\317\2169\3222\373\326\274\373mo\015\225"
 773      CF8E39D2 
 773      32FBD6BC 
 773      FB6D6F0D 
 773      95
 774 1a2e A7B6E77E 		.ascii	"\247\266\347~Sy\354\236[\012\212\313<\344%\345_\352"
 774      5379EC9E 
 774      5B0A8ACB 
 774      3CE425E5 
 774      5FEA
 775 1a40 3486F325 		.ascii	"4\206\363%\345\313=\272\227\224\337\242/)'\371\026\035"
 775      E5CB3DBA 
 775      9794DFA2 
 775      2F2927F9 
 775      161D
 776 1a52 5A7997F8 		.ascii	"Zy\227\370\3416\311/)\257kc\370\222\362\213m\264/)W"
 776      E136C92F 
 776      29AF6B63 
 776      F892F28B 
 776      6DB42F29 
ARM GAS  /tmp/cc385vAD.s 			page 62


 777 1a67 B860F9DA 		.ascii	"\270`\371\332\361\004qAq\005\262\274\332c\375\332\361"
 777      F1047141 
 777      7105B2BC 
 777      DA63FDDA 
 777      F1
 778 1a78 B3D64B0D 		.ascii	"\263\326K\015\346\217\032\305\032v\222G\007y\037\004"
 778      E68F1AC5 
 778      1A769247 
 778      07791F04 
 779 1a88 AA5D7745 		.ascii	"\252]wEy8j=\232\323\305\377\224\332\234\032\340\200"
 779      79386A3D 
 779      9AD3C5FF 
 779      94DA9C1A 
 779      E080
 780 1a9a D9C1F75C 		.ascii	"\331\301\367\\nB\220\265vA$a+\026\331\242\267\311\233"
 780      6E4290B5 
 780      76412461 
 780      2B16D9A2 
 780      B7C99B
 781 1aad E911802D 		.ascii	"\351\021\200-\034V\231\374!\000}:X}lrO\034S\251\364"
 781      1C5699FC 
 781      21007D3A 
 781      587D6C72 
 781      4F1C53A9 
 782 1ac2 45967DA9 		.ascii	"E\226}\251\315\362>zb\221\036\0028\250\007\263iGk\343"
 782      CDF23E7A 
 782      62911E02 
 782      38A807B3 
 782      69476BE3 
 783 1ad6 4F0057E1 		.ascii	"O\000W\341y\266\323\266\3614\235,v\220\022G\301.\360"
 783      79B6D3B6 
 783      F1349D2C 
 783      76901247 
 783      C12EF0
 784 1ae9 8059AC76 		.ascii	"\200Y\254v\035e\301\256\331\006\323Rv\234\005\373\221"
 784      1D65C1AE 
 784      D906D352 
 784      769C05FB 
 784      91
 785 1afa 07CC6221 		.ascii	"\007\314b!\367\2242\2345\362\275\363{=\346\033gT[\315"
 785      F794329C 
 785      35F2BDF3 
 785      7B3DE61B 
 785      67545BCD 
 786 1b0e 4AEEF730 		.ascii	"J\356\3670\016\032\337{\352\247P\007\350k\364\011\036"
 786      0E1ADF7B 
 786      EAA75007 
 786      E86BF409 
 786      1E
 787 1b1f EAFA80AE 		.ascii	"\352\372\200\256jB\230Y\325\007=\346\357z\325\375\006"
 787      6A429859 
 787      D5073DE6 
 787      EF7AD5FD 
 787      06
 788 1b30 3EEE5376 		.ascii	">\356Sv\031\254\225\326\231J\315\263\241\343x\340\374"
 788      19AC95D6 
 788      994ACDB3 
ARM GAS  /tmp/cc385vAD.s 			page 63


 788      A1E378E0 
 788      FC
 789 1b41 06F232FA 		.ascii	"\006\3622\372\260\035:(\306\320\360m\305A\360s\214\277"
 789      B01D3A28 
 789      C6D0F06D 
 789      C541F073 
 789      8CBF
 790 1b53 C07827C6 		.ascii	"\300x'\306\2731\256\301\370+\214\017\263\243\322\177"
 790      BB31AEC1 
 790      F82B8C0F 
 790      B3A3D27F 
 791 1b63 0FAA244C 		.ascii	"\017\252$LyJ7\326i\015S\252~(\343`7Q\206\011.\277\305"
 791      794A37D6 
 791      690D53AA 
 791      7E28E360 
 791      37518609 
 792 1b7a ADFD05B5 		.ascii	"\255\375\005\265\270\307\321X\316zJ\357!m\362\350\316"
 792      B8C7D158 
 792      CE7A4AEF 
 792      216DF2E8 
 792      CE
 793 1b8b 27FF03DB 		.ascii	"'\377\003\333\3731W{M\037\263\217\267wj{\366\177b\247"
 793      FB31577B 
 793      4D1FB38F 
 793      B7776A7B 
 793      F67F62A7 
 794 1b9f 4956FF4F 		.ascii	"IV\377O|\306\323RI\251\377;L\374/=!\306;\031\246\257"
 794      7CC6D352 
 794      49A9FF3B 
 794      4CFC2F3D 
 794      21C63B19 
 795 1bb5 30239D49 		.ascii	"0#\235Iv\270)\272$\254\343\203\333\3474\3033\232\340"
 795      76B829BA 
 795      24ACE383 
 795      DBE734C3 
 795      339AE0
 796 1bc8 1AFDCD42 		.ascii	"\032\375\315B|.\361TB\244\247\227\334\033\245<\336\377"
 796      7C2EF154 
 796      42A4A797 
 796      DC1BA53C 
 796      DEFF
 797 1bda 2DCA74A3 		.ascii	"-\312t\243N\246)\201\010s.\352\007\277\231\347v\211"
 797      4EA62981 
 797      08732EEA 
 797      07BF99E7 
 797      7689
 798 1bec 3853BB98 		.ascii	"8S\273\230z\370\033>,V}n\227\244\034\231\236\214\233"
 798      7AF81B3E 
 798      2C567D6E 
 798      97A41C99 
 798      9E8C9B
 799 1bff EBC3F158 		.ascii	"\353\303\361X\335\305\306MK\000p\3459es\235\302U\332"
 799      DDC5C64D 
 799      4B0070E5 
 799      3965739D 
 799      C255DA
 800 1c12 86F36BE0 		.ascii	"\206\363k\340Vk\3416;8\340,\236$[\253\205\223y\250\263"
ARM GAS  /tmp/cc385vAD.s 			page 64


 800      566BE136 
 800      3B38E02C 
 800      9E245BAB 
 800      859379A8 
 801 1c27 78966CBD 		.ascii	"x\226l\275\026n(\017\234\305\323d\033Y8I\330\205\012"
 801      166E280F 
 801      9CC5D364 
 801      1B593849 
 801      D8850A
 802 1c3a 61074E4B 		.ascii	"a\007NK\335\247Z\270/y\340\214FU\243\017\253yA\361\022"
 802      DDA75AB8 
 802      2F79E08C 
 802      4655A30F 
 802      AB7941F1 
 803 1c4f DA97CB68 		.ascii	"\332\227\313h;\256`|\025\343k\030\377\035\343\353\030"
 803      3BAE607C 
 803      15E36B18 
 803      FF1DE3EB 
 803      18
 804 1c60 7FCFB5CE 		.ascii	"\177\317\265\316\301Nd\366\353;\251\021\331\373,\217"
 804      C14E64F6 
 804      EB3BA911 
 804      D9FB2C8F 
 805 1c70 8169E83E 		.ascii	"\201i\350>\313l\243\235\303m\264\363\270\002\363>\322"
 805      CB6CA39D 
 805      C36DB4F3 
 805      B802F33E 
 805      D2
 806 1c81 B714E375 		.ascii	"\267\024\343u\030\037\303\3704\306g1>\317C\375)w\232"
 806      181FC3F8 
 806      34C66731 
 806      3ECF43FD 
 806      29779A
 807 1c94 A642CD9E 		.ascii	"\246B\315\236\316\021]'\217\357\232\335\253\026'\343"
 807      CE115D27 
 807      8FEF9ADD 
 807      AB1627E3 
 808 1ca4 AED95E5C 		.ascii	"\256\331^\\\354\236\217\353\323GLwv\3662\007\263n\221"
 808      EC9E8FEB 
 808      D3474C77 
 808      76F63207 
 808      B36E91
 809 1cb7 0DA1E358 		.ascii	"\015\241\343X\354\204\313\272\330q\246\330:\272kF\017"
 809      EC84CBBA 
 809      D871A6D8 
 809      3ABA6B46 
 809      0F
 810 1cc8 B35F45BA 		.ascii	"\263_E\272\314\013\342\276\214R\360>-x\012\267\367\256"
 810      CC0BE2BE 
 810      8C52F03E 
 810      2D780AB7 
 810      F7AE
 811 1cda A72878CA 		.ascii	"\247(x\312\315\036\004\323nA\035\261\336\202\372\301"
 811      CD1E04D3 
 811      6E411DB1 
 811      DE82FAC1 
 812 1cea 63B40555 		.ascii	"c\264\005U},\335p\267\315\352\357-\037\352W\022)\223"
ARM GAS  /tmp/cc385vAD.s 			page 65


 812      7D2CDD70 
 812      B7CDEAEF 
 812      2D1FEA57 
 812      122993
 813 1cfd 3592B965 		.ascii	"5\222\271e(\031yJH'\223\007\036K\231(M\035*_\0331\242"
 813      2819794A 
 813      48279307 
 813      1E4B9928 
 813      4D1D2A5F 
 814 1d14 85A8FEC3 		.ascii	"\205\250\376\303\263\246\230Q[\033\014\333z\354,\351"
 814      B3A69851 
 814      5B1B0CDB 
 814      7AEC2CE9 
 815 1d24 C1F28386 		.ascii	"\301\362\203\206\206a^\301\306\236\3330\257\301\356"
 815      86615EC1 
 815      C69EDB30 
 815      AFC1EE
 816 1d33 A2A6F182 		.ascii	"\242\246\361\202\355\375\336\241\377l\310\237\207\205"
 816      EDFDDEA1 
 816      FF6CC89F 
 816      8785
 817 1d41 BADDC8A1 		.ascii	"\272\335\310\241^\236\235\336Z=[\315\213\261\252\236"
 817      5E9E9DDE 
 817      5A3D5BCD 
 817      8BB1AA9E 
 818 1d51 B4416C5E 		.ascii	"\264Al^\314d\203\030\360R\024d7\210\365\032\313\224"
 818      CC648318 
 818      F0521464 
 818      3788F51A 
 818      CB94
 819 1d63 3292E23B 		.ascii	"2\222\342;\336$)\256\250\213\255\335a\254\261Vk\337"
 819      DE2429AE 
 819      A88BADDD 
 819      61ACB156 
 819      6BDF
 820 1d75 638D24A8 		.ascii	"c\215$\250\223\310\373F\022\031*7\350%2\306Z\"q\215"
 820      93C8FB46 
 820      12192A37 
 820      E82532C6 
 820      5A22718D 
 821 1d89 ADC6539A 		.ascii	"\255\306S\232t!\335\274\224B\340x\303\246\222\303_v"
 821      7421DDBC 
 821      9442E078 
 821      C3A692C3 
 821      5F76
 822 1d9b B7C2275B 		.ascii	"\267\302'[(\253n\002DDc\0063\325k\370\347\276\364\255"
 822      28AB6E02 
 822      44446306 
 822      33D56BF8 
 822      E7BEF4AD 
 823 1daf A189EBA5 		.ascii	"\241\211\353\245\216\344}\001I\2502f\345\024\375V\373"
 823      8EE47D01 
 823      49A83266 
 823      E514FD56 
 823      FB
 824 1dc0 242EE5FE 		.ascii	"$.\345\376\214\024#\364H\302G\010l^\014\251V\212\325"
 824      8C1423F4 
ARM GAS  /tmp/cc385vAD.s 			page 66


 824      48C24708 
 824      6C5E0CA9 
 824      568AD5
 825 1dd3 FF676B4A 		.ascii	"\377gkJ\257$,\327\027\323\275!\025[\245\326V\231\236"
 825      AF242CD7 
 825      17D3BD21 
 825      155BA5D6 
 825      56999E
 826 1de6 A33E27B3 		.ascii	"\243>'\263A_Ns@.\336zC\3356\253M\341\357\364d\201\203"
 826      415F4E73 
 826      402EDE7A 
 826      43DD36AB 
 826      4DE1EFF4 
 827 1dfd 85DAF4EE 		.ascii	"\205\332\364\356\3730\023\034\032khx\301\253\227\271"
 827      FB30131C 
 827      1A6B6878 
 827      C1AB97B9 
 828 1e0d 642EF305 		.ascii	"d.\363\005\034\352\035368\263\3652\231\317\251\336k"
 828      1CEA1D33 
 828      3638B3F5 
 828      3299CFA9 
 828      DE6B
 829 1e1f 50BDE94A 		.ascii	"P\275\351J\262y)\205\300E\206\255=\363\356{jk\355\230"
 829      B2792985 
 829      C04586AD 
 829      3DF3EE7B 
 829      6A6BED98 
 830 1e33 E3A51CAD 		.ascii	"\343\245\034\255=`\334\332\244\303\036K\270Z\253\227"
 830      3D60DCDA 
 830      A4C31E4B 
 830      B85AAB97 
 831 1e43 ED126BD9 		.ascii	"\355\022k\331~\234\334\332\272\033\261Y5Jg\246-\220"
 831      7E9CDCDA 
 831      BA1BB159 
 831      354A67A6 
 831      2D90
 832 1e55 8433C634 		.ascii	"\2043\3064N\327\323\270\242Q4\256\260\246\261\332P\""
 832      4ED7D3B8 
 832      A25134AE 
 832      B0A6B1DA 
 832      5022
 833 1e67 4715DB3A 		.ascii	"G\025\333:\373E\033\362Xc9<\352\217\244(}&~MGt\275\374"
 833      FB451BF2 
 833      5863393C 
 833      EA8FA428 
 833      7D267E4D 
 834 1e7f BEE794DF 		.ascii	"\276\347\224\337j.\013\262.\341\322mKQ\214u\351n\005"
 834      6A2E0BB2 
 834      2EE1D26D 
 834      4B518C75 
 834      E96E05
 835 1e92 9F552DC1 		.ascii	"\237U-\301#\244g\265\265%P\212\315\334\221\026\177\220"
 835      23A467B5 
 835      B525508A 
 835      CDDC9116 
 835      7F90
 836 1ea4 74C42F74 		.ascii	"t\304/t\345t\226Gi\275\241\004\315J)l\337h(\301\357"
ARM GAS  /tmp/cc385vAD.s 			page 67


 836      E5749647 
 836      69BDA104 
 836      CD4A296C 
 836      DF6828C1 
 837 1eb9 6B6A141F 		.ascii	"kj\024\037\307!\320\247G$a\354/\314}\015\\q\232\203"
 837      C721D0A7 
 837      472461EC 
 837      2FCC7D0D 
 837      5C719A83 
 838 1ecd 376C3365 		.ascii	"7l3e\312\013\254\232-\257\034\321\302I\017\014\010\026"
 838      CA0BAC9A 
 838      2DAF1CD1 
 838      C2490F0C 
 838      0816
 839 1edf A5142A3F 		.ascii	"\245\024*?\327R\371\252\350\230\342\244=b\\\335\301"
 839      D752F9AA 
 839      E898E2A4 
 839      3D625CDD 
 839      C1
 840 1ef0 0BDB5C55 		.ascii	"\013\333\\U\362\266\341rC\303\337\364\006\300\3428\302"
 840      F2B6E172 
 840      43C3DFF4 
 840      06C0E238 
 840      C2
 841 1f01 6EBDBE9D 		.ascii	"n\275\276\235g\217@)\217J(\327\274;\262U\267j\237ZO"
 841      678F4029 
 841      8F4A28D7 
 841      BC3BB255 
 841      B76A9F5A 
 842 1f16 DFE2E925 		.ascii	"\337\342\351%\253\007Gt,\343\304\211U_#\333\242\373"
 842      AB074774 
 842      2CE3C489 
 842      555F23DB 
 842      A2FB
 843 1f28 10E38C0E 		.ascii	"\020\343\214\016#(v\325-*u\325\377\235J\275C\036\347"
 843      232876D5 
 843      2D2A75D5 
 843      FF9D4ABD 
 843      431EE7
 844 1f3b C57C49B8 		.ascii	"\305|I\270\367\013\355\026\006S\256\233\331\252\\\327"
 844      F70BED16 
 844      0653AE9B 
 844      D9AA5CD7 
 845 1f4b C464ACD6 		.ascii	"\304d\254\326\373\253\344;u\275lx[-\205\352M\207\222"
 845      FBABE43B 
 845      75BD6C78 
 845      5B2D85EA 
 845      4D8792
 846 1f5e 8436352E 		.ascii	"\20465.\264\015\225\007'\212\343\207\3151zt\204\177"
 846      B40D9507 
 846      278AE387 
 846      CD317A74 
 846      847F
 847 1f70 B369D5D7 		.ascii	"\263i\325\327\204O\307\274d\267i\214\216\012\316\335"
 847      844FC7BC 
 847      64B7698C 
 847      8E0ACEDD 
ARM GAS  /tmp/cc385vAD.s 			page 68


 848 1f80 A6935EDD 		.ascii	"\246\223^\335n\323\261\321\270\333D\362S\3576}\3206"
 848      6ED3B1D1 
 848      B8DB44F2 
 848      53EF367D 
 848      D036
 849 1f92 79B76946 		.ascii	"y\267iF[\303\335\246\305m\015\377\022w"
 849      5BC3DDA6 
 849      C56D0DFF 
 849      1277
 850 1fa0 555BC3BF 		.ascii	"U[\303\277\304\215\265\325\376%\256\222]\223\310f\377"
 850      C48DB5D5 
 850      FE25AE92 
 850      5D93C866 
 850      FF
 851 1fb1 0EFC7022 		.ascii	"\016\374p\"\233\375;\360\357\022\331\354\337\201\337"
 851      9BFD3BF0 
 851      EF12D9EC 
 851      DF81DF
 852 1fc0 48647B99 		.ascii	"Hd{\231\354\273\211l\037\223=\332\037\317n\302d\317"
 852      ECBB896C 
 852      1F933DDA 
 852      1FCF6EC2 
 852      64CF
 853 1fd2 4A64A731 		.ascii	"Jd\2471\331\313\023\331\351L\366\226DvS&{o\"\273\031"
 853      D9CB13D9 
 853      E94CF696 
 853      44765326 
 853      7B6F22BB 
 854 1fe7 937D2691 		.ascii	"\223}&\221\335\234\311\276\234\310n\301d\377\220\310"
 854      DD9CC9BE 
 854      9CC86EC1 
 854      64FF90C8 
 855 1ff7 6EC9648F 		.ascii	"n\311d\217|:\236\335\212"
 855      7C3A9EDD 
 855      8A
 856 2000 A53B91FD 		.ascii	"\245;\221\375\230\"Kri\271\351\227\320\021\230:c\207"
 856      98224B72 
 856      69B9E997 
 856      D011983A 
 856      6387
 857 2012 38ED35DE 		.ascii	"8\3555\336\364336G\365\306f!;\270\235\027\265\203\333"
 857      F4333336 
 857      47F5C666 
 857      213BB89D 
 857      17B583DB 
 858 2026 5CD1C81D 		.ascii	"\\\321\310\035^\365\264q7\033\345K\366\023\306\305j"
 858      5EF5B471 
 858      371BE54B 
 858      F613C6C5 
 858      6A
 859 2037 BF06AF68 		.ascii	"\277\006\257h\256\241WD\372\213\031\241\243}\006\204"
 859      AEA15744 
 859      FA8B19A1 
 859      A37D0684 
 860 2047 EA08D968 		.ascii	"\352\010\331hB\310\373\206\204\314\332\373\236,\032"
 860      42C8FB86 
 860      84CCDAFB 
ARM GAS  /tmp/cc385vAD.s 			page 69


 860      9E2C1A
 861 2056 CE3FACE8 		.ascii	"\316?\254\350\030\253\247\203<\272b\223a\333L\350\234"
 861      18ABA783 
 861      3CBA6293 
 861      61DB4CE8 
 861      9C
 862 2067 684467DD 		.ascii	"hDg\335\203\003\363\315\030F\3526\235(\351\011\275\""
 862      8303F3CD 
 862      1846EA36 
 862      9D28E909 
 862      BD22
 863 2079 26316C8F 		.ascii	"&1l\217\011!S\014\011Y\277\343\260\303l<\263bY\225\221"
 863      0921530C 
 863      0959BFE3 
 863      B0C36C3C 
 863      B3625995 
 864 208e E8E21735 		.ascii	"\350\342\0275\206,:dB\331\014CQ\036\376\2721\242\234"
 864      862C3A64 
 864      42D90C43 
 864      511EFEBA 
 864      31A29C
 865 20a1 65495767 		.ascii	"eIWgV\222\374\247S\026\214y\202X\351y>bMO=\255\037\""
 865      5692FCA7 
 865      53168C79 
 865      8258E979 
 865      3E624D4F 
 866 20b9 ED3FD69D 		.ascii	"\355?\326\235 B7\275%U\2305m\241\317bU\361\234\011o"
 866      204237BD 
 866      25559835 
 866      6DA1CF62 
 866      55F19C09 
 867 20ce 17194A7D 		.ascii	"\027\031J}\372\302\313/L])\017\307\227\023\350_M`\261"
 867      FAC2CB2F 
 867      4C5D290F 
 867      C79713E8 
 867      5F4D60B1 
 868 20e2 2FFA919E 		.ascii	"/\372\221\236\273\267\360\215\367\032J.\233P\262TK\311"
 868      BBB7F08D 
 868      F71A4A2E 
 868      9B50B254 
 868      4BC9
 869 20f4 2F85B9B2 		.ascii	"/\205\271\262|\240\356\341\355%\355\310\356\203L\334"
 869      7CA0EEE1 
 869      ED25EDC8 
 869      EE834CDC 
 870 2104 3F5154D7 		.ascii	"?QT\327\024\177\214\203\230\221\362q\002\256\221\233"
 870      147F8C83 
 870      9891F271 
 870      02AE919B 
 871 2114 BCCBB58D 		.ascii	"\274\313\265\215I\027F\263\222\350j\276\307[\355K\027"
 871      491746B3 
 871      92E86ABE 
 871      C75BED4B 
 871      17
 872 2125 741FB35B 		.ascii	"t\037\263[?I\310L'i\342\263\231\225ZiZ\212\370\221f"
 872      3F49C84C 
 872      2769E2B3 
ARM GAS  /tmp/cc385vAD.s 			page 70


 872      99955A69 
 872      5A8AF891 
 873 213a A5569994 		.ascii	"\245V\231\224\342\347\310\232$;\010-\345:?\271\332\224"
 873      E2E7C89A 
 873      243B082D 
 873      E53A3FB9 
 873      DA94
 874 214c E2A31614 		.ascii	"\342\243\026\024\2573-E\264\300\254\324z\323R\344\315"
 874      AF332D45 
 874      B4C0ACD4 
 874      7AD352E4 
 874      CD
 875 215d 1966A536 		.ascii	"\031f\2456\230\226\"\243\220Y\251\215\246\245&[\224"
 875      989622A3 
 875      9059A98D 
 875      A6A5265B 
 875      94
 876 216e DA645A6A 		.ascii	"\332dZj\254E\251OMJ);\246u\256\251\332\267\271$y\227"
 876      AC45A94F 
 876      4D4A293B 
 876      A675AEA9 
 876      DAB7B924 
 877 2184 5B7C74C3 		.ascii	"[|t\303T\363\207\032x\207Y\225\237\371|q\261\246\373"
 877      54F3871A 
 877      78875995 
 877      9FF97C71 
 877      B1A6FB
 878 2197 D884B5B8 		.ascii	"\330\204\265\2707\2336\220<rlV*fZ\252\312\202-[MK-\265"
 878      379B3690 
 878      3C726C56 
 878      2A665AAA 
 878      CA822D5B 
 879 21af 50AD6DA6 		.ascii	"P\255m\246\245fY\324\365\271i\251\003\026\355\332\236"
 879      A56659D4 
 879      F5B969A9 
 879      0316EDDA 
 879      9E
 880 21c0 2865B49B 		.ascii	"(e\264\233\337T\275\377`b2Q\267\341\374\236'7\341\344"
 880      DF54BDFF 
 880      60623251 
 880      B7E1FC9E 
 880      2737E1E4 
 881 21d4 ED0B1F99 		.ascii	"\355\013\037\2319\335\177\332p\362f\001$\011\357\374"
 881      39DD7FDA 
 881      70F26601 
 881      2409EFFC 
 882 21e4 9294D9E5 		.ascii	"\222\224\331\3453~\377\011\311\267\230S(\3478\246\354"
 882      337EFF09 
 882      C9B79853 
 882      28E738A6 
 882      EC
 883 21f5 98AC9CE3 		.ascii	"\230\254\234\343`\227\342IY\243\326j\324C\271\201\305"
 883      6097E249 
 883      59A3D66A 
 883      D443B981 
 883      C5
 884 2206 9363553B 		.ascii	"\223cU;\306\342a*u\233\237\360n\032\263\275\236\256"
ARM GAS  /tmp/cc385vAD.s 			page 71


 884      C6E2612A 
 884      759B9FF0 
 884      6E1AB3BD 
 884      9EAE
 885 2218 62C454AD 		.ascii	"b\304T\255\375\312\266\326~m\242\265\352\277\261H\302"
 885      FDCAB6D6 
 885      7E6DA2B5 
 885      EABFB148 
 885      C2
 886 2229 C438678C 		.ascii	"\3048g\214\3535j\207_\323\216\351\225\357\213\344}j"
 886      EB356A87 
 886      5FD38EE9 
 886      95EF8BE4 
 886      7D6A
 887 223b 4A3BE6BC 		.ascii	"J;\346\274H:\037\263\301\364\242\212\341U\210\332\357"
 887      483A1FB3 
 887      C1F4A28A 
 887      E15588DA 
 887      EF
 888 224c 6BA9230F 		.ascii	"k\251#\017\350\230\252\247CSL\313\011\0032\206\306f"
 888      E898AAA7 
 888      43534CCB 
 888      09033286 
 888      C666
 889 225e ECC0278C 		.ascii	"\354\300'\214\351\302\314\207z4\243#~\273,\320fW\216"
 889      E9C2CC87 
 889      7A34A323 
 889      7EBB2CD0 
 889      66578E
 890 2271 D5BCFD70 		.ascii	"\325\274\375p\251\036\320pcU\003h\361aU1(\356\361\221"
 890      A91ED070 
 890      63550368 
 890      F1615531 
 890      28EEF191 
 891 2285 A94B8D8F 		.ascii	"\251K\215\217l\232~\211\361>\214k1>\344c&\371\272\256"
 891      6C9A7E89 
 891      F13E8C6B 
 891      313EE463 
 891      26F9BAAE 
 892 2299 F685093D 		.ascii	"\366\205\011=\244\206#\246\035\364#\213n}\224\361\234"
 892      A48623A6 
 892      1DF4238B 
 892      6E7D94F1 
 892      9C
 893 22aa 9ECFE85F 		.ascii	"\236\317\350_^\032\312((/|;\243040\243\240\177q\337"
 893      5E1ACA28 
 893      282F7C3B 
 893      A3303430 
 893      A3A07F71 
 894 22bf E2F24846 		.ascii	"\342\362HF4<\240\354\315\014H\204\006G3\212\202\321"
 894      343CA0EC 
 894      CD0C4884 
 894      0647338A 
 894      82D1
 895 22d1 A2484624 		.ascii	"\242HF$\\\220Q\\\026\015\365\013\205\333\365\027\234"
 895      5C90515C 
 895      160DF50B 
ARM GAS  /tmp/cc385vAD.s 			page 72


 895      85DBF517 
 895      9C
 896 22e2 5D5ECFCF 		.ascii	"]^\317\317vw\353\375\262?Sp\026\364\017\206\237\263"
 896      7677EBFD 
 896      B23F5370 
 896      16F40F86 
 896      9FB3
 897 22f4 87545404 		.ascii	"\207TT\004 \256\256\235\363\273\346y\212\"\201\350\333"
 897      20AEAE9D 
 897      F3BBE679 
 897      8A2281E8 
 897      DB
 898 2305 15214761 		.ascii	"\025!Gax\240\253 R\374\277C\356\262\000\334\031q\015"
 898      78A0AB20 
 898      52FCBF43 
 898      EEB200DC 
 898      19710D
 899 2318 2A2A09F6 		.ascii	"**\011\366\363\026E\212\003$\341|\265On\226T\\\350+"
 899      F316458A 
 899      0324E17C 
 899      B54F6E96 
 899      545CE82B 
 900 232c 0B84CBCB 		.ascii	"\013\204\313\313\243\205\305aW\026\311jR\022\214D\003"
 900      A385C561 
 900      5716C96A 
 900      52128C44 
 900      03
 901 233d 05250322 		.ascii	"\005%\003\"\321&E\341P\210&\275\210\021*\213\272\212"
 901      D12645E1 
 901      508826BD 
 901      88112A8B 
 901      BA8A
 902 234f 08A46760 		.ascii	"\010\244g`yI\337`$\344\201L\374\206\342\344\333[\030"
 902      7949DF60 
 902      24E4814C 
 902      FC86E2E4 
 902      DB5B18
 903 2362 8C063163 		.ascii	"\214\0061cPqY$T\020u\300\267+?\263{\347\334f\221\302"
 903      50715924 
 903      541075C0 
 903      B72B3FB3 
 903      7BE7DC66 
 904 2378 D252A0A7 		.ascii	"\322R\240\247\264\242$\004\304z\3602\020u\341\367\357"
 904      B4A22404 
 904      C47AF032 
 904      1075E1F7 
 904      EF
 905 2389 5335B77F 		.ascii	"S5\267\177\260\004\330\005\244\024\2062H\271HE1\200"
 905      B004D805 
 905      A4148632 
 905      48B94845 
 905      3180
 906 239b F87AF5CA 		.ascii	"\370z\365\312\314\012\027\017\014\205\323\343\251Wz"
 906      CC0A170F 
 906      0C85D3E3 
 906      A9577A
 907 23aa E5BB025D 		.ascii	"\345\273\002]\312\313K\322\212#\001BD8\032*L\207tE\270"
ARM GAS  /tmp/cc385vAD.s 			page 73


 907      CACB4BD2 
 907      8A230142 
 907      44381A2A 
 907      4C877445 
 908 23bf 3C0A1485 		.ascii	"<\012\024\205\012=\005\345ee\220jRX\034Q\222\317d\014"
 908      0A3D05E5 
 908      6565906A 
 908      52581C51 
 908      92CF640C 
 909 23d3 88843382 		.ascii	"\210\2043\202\341\322\337\226\225\227\205~\033\012\366"
 909      E1D2DF96 
 909      9597857E 
 909      1B0AF6
 910 23e2 2D8E5717 		.ascii	"-\216W\027\001\336\224E\2416\357\000\370~\256c \332"
 910      01DE9445 
 910      A136EF00 
 910      F87EAE63 
 910      20DA
 911 23f4 C9E2EED2 		.ascii	"\311\342\356\322 \320^\026\312\010\024\206\212\202\003"
 911      20D05E16 
 911      CA081486 
 911      8A8203
 912 2403 4AA2288B 		.ascii	"J\242(\213\010\224n\022\010\250\345=$\361| \352\243"
 912      08946E12 
 912      08A8E53D 
 912      24F17C20 
 912      EAA3
 913 2415 59907286 		.ascii	"Y\220r\206C\301B\327\240pq4\344\214\274]V\360';\374"
 913      43C142D7 
 913      A0707134 
 913      E48CBC5D 
 913      56F0273B 
 914 242a 8074A0B8 		.ascii	"\200t\240\270\274oIy\301\233PO\363.$\221\025\032X\\"
 914      BC6F4979 
 914      C19B504F 
 914      F32E2491 
 914      151A585C 
 915 243e 10EA5156 		.ascii	"\020\352QVT\356\355[\362f\000eF\022e\003J\275\375BQ"
 915      54EEED5B 
 915      F2660065 
 915      46126503 
 915      4ABDFD42 
 916 2453 604C51B9 		.ascii	"`LQ\271c`i\264\011dF\242 \331@\264I\227\236/\005^\356"
 916      636069B4 
 916      096446A2 
 916      20D940B4 
 916      49979E2F 
 917 246a DDA3778F 		.ascii	"\335\243w\217|/I\346\345\367\311\301\274\316\231\371"
 917      7C2F49E6 
 917      E5F7C9C1 
 917      BCCE99F9 
 918 247a 3D5EC96E 		.ascii	"=^\311nF\222\231}z\367\316\206\313\336\335Z\222\313"
 918      4692997D 
 918      7AF7CE86 
 918      CBDEDD5A 
 918      92CB
 919 248c AC1E7989 		.ascii	"\254\036y\211\034\037\311\311\315\356\234\365z\232\232"
ARM GAS  /tmp/cc385vAD.s 			page 74


 919      1C1FC9C9 
 919      CDEE9CF5 
 919      7A9A9A
 920 249b 825C4CBF 		.ascii	"\202\\L\277\232\333#_M\347\275\336;\023\322.\254\325"
 920      9ADB235F 
 920      4DE7BDDE 
 920      3B13D22E 
 920      ACD5
 921 24ad 51505CE8 		.ascii	"QP\\\350(\210\024z\013\202\025\301\202\342\350\333Y"
 921      2888147A 
 921      0B8215C1 
 921      82E2E8DB 
 921      59
 922 24be 3C0DAF28 		.ascii	"<\015\257(\017G#\031y\371\275\236\353\230\321\263gV"
 922      0F472319 
 922      79F9BD9E 
 922      EB98D1B3 
 922      6756
 923 24d0 465E4E8F 		.ascii	"F^N\217\201\0352@%\002%%\205D- \203*CG;|\244:\325\004"
 923      811D3240 
 923      25022525 
 923      85442D20 
 923      832A4347 
 924 24ea BE548E00 		.ascii	"\276T\216\000\216\312\021\222$\034!\330\264\225\370"
 924      8ECA1192 
 924      241C21D8 
 924      B495F8
 925 24f9 2BE54D3A 		.ascii	"+\345M:If\366\351\225\3233;?\273)\000\024\004K\240\177"
 925      4966F6E9 
 925      95D3333B 
 925      3FBB2900 
 925      14044BA0 
 926 250e 14BC1988 		.ascii	"\024\274\031\210\272Ce\205\201\202\276\331\215iW\267"
 926      BA436585 
 926      8182BED9 
 926      8D6957B7 
 927 251e 9C1E7D06 		.ascii	"\234\036}\006v\314\250\000\371\322\206\245G\242\245"
 927      76CCA800 
 927      F9D286A5 
 927      47A2A5
 928 252d A040FD2A 		.ascii	"\240@\375*\212\313\241\347\364\352\223\225\235\353\356"
 928      8ACBA1E7 
 928      F4EA9395 
 928      9DEBEE
 929 253c 93FF7A4E 		.ascii	"\223\377zNv\256\247O^NvvV\256+\347\345\234\254\\G\017"
 929      76AEA74F 
 929      5E4E7676 
 929      56AE2BE7 
 929      E59CAC5C 
 930 2552 087DB272 		.ascii	"\010}\262r\305WQg;\374\036\332Bu\215$\035\221P\324U"
 930      C5575167 
 930      3BFC1EDA 
 930      42758D24 
 930      1D9150D4 
 931 2567 50120A86 		.ascii	"P\022\012\206\305\356\316.y\271\271\316\236\231/\345"
 931      C5EECE2E 
 931      79B9B9CE 
ARM GAS  /tmp/cc385vAD.s 			page 75


 931      9E992FE5 
 932 2577 3A3B77CD 		.ascii	":;w\315\355I\242\356\216.\271\271M\212\313\0115\305"
 932      ED49A2EE 
 932      8E2EB9B9 
 932      4D8ACB09 
 932      35C5
 933 2589 85D08248 		.ascii	"\205\320\202H\204$]\360\025\004a\205;\020\026d\226\227"
 933      84245DF0 
 933      15046185 
 933      3B101664 
 933      9697
 934 259b 1515F773 		.ascii	"\025\025\367s\027\340WJ\263\027\216\306\231\\\320?\362"
 934      17E0574A 
 934      B3178EC6 
 934      995CD03F 
 934      F2
 935 25ac 7644ED13 		.ascii	"vD\355\023\336h\177\242\370\320\023\012\372\007h\272"
 935      DE687FA2 
 935      F8D0130A 
 935      FA0768BA 
 936 25bc 933DAC82 		.ascii	"\223=\254\202\376\204/\356\212@\031\030D\370\252\010"
 936      FE842FEE 
 936      8A401918 
 936      44F8AA08 
 937 25cc 870676E7 		.ascii	"\207\006v\347\200\240\254\356\234\333+\263\327`\270"
 937      80A0ACEE 
 937      9CDB2BB3 
 937      D760B8
 938 25db B3B4A2B8 		.ascii	"\263\264\242\270$\024\216dt\313\314\204\333U\362<\321"
 938      24148E64 
 938      74CBCC84 
 938      DB55F23C 
 938      D1
 939 25ec 8A30E134 		.ascii	"\2120\3414\342\026\227\023\273\021\205j\376h\033\277"
 939      E2169713 
 939      BB11856A 
 939      FE681BBF 
 940 25fc 7F417998 		.ascii	"\177Ay\230\030\2754\222\015}/Z\020\035\374o\215C\011"
 940      18BD3492 
 940      0D7D2F5A 
 940      101DFC6F 
 940      8D4309
 941 260f 0CFC4329 		.ascii	"\014\374C)\341\\8\324\017\014\020\021f\207\337C\370"
 941      E15C38D4 
 941      0F0C1011 
 941      6687DF43 
 941      F8
 942 2620 0384E721 		.ascii	"\003\204\347!\374\321\021\351\330\036B\007\010\035!"
 942      FCD111E9 
 942      D81E4207 
 942      081D21
 943 262f 3C07A113 		.ascii	"<\007\241\023\204\337A\200\373:\302}\035\341\276\216"
 943      84DF4180 
 943      FB3AC27D 
 943      1DE1BE8E 
 944 263f 70DF7370 		.ascii	"p\337sp\337s\035\244p')\374;)\374{)\374\007)\374\274"
 944      DF731DA4 
ARM GAS  /tmp/cc385vAD.s 			page 76


 944      702729FC 
 944      3B29FC7B 
 944      29FC0729 
 945 2655 14FEA323 		.ascii	"\024\376\243#\334\241=\204\016RI\030\276\236sU\004\200"
 945      DCA13D84 
 945      0E524918 
 945      BE9E7355 
 945      0480
 946 2667 5A0FE1F0 		.ascii	"Z\017\341\360\240P\030\276\313K\012Ca\302\361`i\310"
 946      A05018BE 
 946      CB4B0A43 
 946      61C2F160 
 946      69C8
 947 2679 1B55BA0A 		.ascii	"\033U\272\012\344c\312\023--/\244\327d\220\211x\242"
 947      E463CA13 
 947      2D2D2FA4 
 947      D7649089 
 947      78A2
 948 268b E1101990 		.ascii	"\341\020\031\220\340~\222p\225F\372\301\217\212\035"
 948      E07E9270 
 948      9546FAC1 
 948      8F8A1D
 949 269a 04FBA7A4 		.ascii	"\004\373\247\244\334\341\302\267\341'ohpq\0248\022r"
 949      DCE1C2B7 
 949      E1276F68 
 949      70711438 
 949      1272
 950 26ac 0F8A96F7 		.ascii	"\017\212\226\367\375\257\212\264\320@\030rJ\203\021"
 950      FDAF8AB4 
 950      D0401872 
 950      4A8311
 951 26bb EC488348 		.ascii	"\354H\203H\302Q\021\030\320\214\252J$P\002=5\020m\036"
 951      C2511118 
 951      D08CAA4A 
 951      2450023D 
 951      35106D1E 
 952 26cf 571E9AE3 		.ascii	"W\036\232\343\253\010\014\012\026G\213\313\3725W\263"
 952      AB080C0A 
 952      16478BCB 
 952      FA3557B3 
 953 26df DF1A101A 		.ascii	"\337\032\020\032\000T\265`\356\304\254&\025\001\250"
 953      0054B560 
 953      EEC4AC26 
 953      1501A8
 954 26ee 16932E4C 		.ascii	"\026\223.LBF\250\002\272,\024v\225\016\000i\247\034"
 954      4246A802 
 954      BA2C1476 
 954      950E0069 
 954      A71C
 955 2700 8835FA58 		.ascii	"\2105\372X\032\035L\364\246\224\242\303w\371\2402`\032"
 955      1A1D4CF4 
 955      A694A2C3 
 955      77F9A032 
 955      601A
 956 2712 2241134A 		.ascii	"\"A\023JQM\201>\270\217P\332\204p%X\202\312\005\231"
 956      514D813E 
 956      B88F50DA 
ARM GAS  /tmp/cc385vAD.s 			page 77


 956      84702558 
 956      82CA0599 
 957 2726 15306AFD 		.ascii	"\0250j\375\301V}Jc\240\316VJW\002.\207\302\241\262\002"
 957      C1567D4A 
 957      63A0CE56 
 957      4A57022E 
 957      87C2A1B2 
 958 273b 68AD9B66 		.ascii	"h\255\233f\375\231\307\225\310\354\225\327#\017LO\006"
 958      FD99C795 
 958      C8EC95D7 
 958      230F4C4F 
 958      06
 959 274c 5A98A24E 		.ascii	"Z\230\242N\355;\014. \012K\014[>t\207\254P\221#3\267"
 959      ED3B0C2E 
 959      200A4B0C 
 959      5B3E7487 
 959      AC509123 
 960 2762 03848E52 		.ascii	"\003\204\216R^\256\004\206&373'\327\235\373\032|\347"
 960      5EAE0486 
 960      26333733 
 960      27D79DFB 
 960      1A7CE7
 961 2775 BAF3F1CB 		.ascii	"\272\363\361\313\323\243c^f\327n\271.\370\316\311u\200"
 961      D3A3635E 
 961      66D76EB9 
 961      2EF8CEC9 
 961      7580
 962 2787 1DEC6AD7 		.ascii	"\035\354j\327\354a\334\265\323\340\301\224\220@ai\220"
 962      EC61DCB5 
 962      D3E0C194 
 962      90406169 
 962      90
 963 2798 342EAB57 		.ascii	"4.\253W\347@\036\250R\260T\245F\312\314u\366\316\312"
 963      E7401EA8 
 963      52B054A5 
 963      46CACC75 
 963      F6CECA
 964 27ab CF75E474 		.ascii	"\317u\344t\316u\366jO\242\016\235s\035]\201\230\010"
 964      CE75F66A 
 964      4FA20E9D 
 964      731D5D81 
 964      9808
 965 27bd DEE82C2E 		.ascii	"\336\350,.*\010\273\213#\375\213\213\242\276H\250\244"
 965      2A08BB8B 
 965      23FD8B8B 
 965      A2BE48A8 
 965      A4
 966 27ce A8B8     		.ascii	"\250\270"
 967 27d0 AC3034D8 		.ascii	"\25404\330=\020F\373\362p\2538z\200\336\015\346\024"
 967      3D1046FB 
 967      F270AB38 
 967      7A80DE0D 
 967      E614
 968 27e2 2EC28349 		.ascii	".\302\203I\034\035\354\013\017\206o\242\311\276\250"
 968      1C1DEC0B 
 968      0F866FA2 
 968      C9BEA8
ARM GAS  /tmp/cc385vAD.s 			page 78


 969 27f1 9A724273 		.ascii	"\232rBs*\\%\221\202\242~\256\376$&\316\0075\203\315"
 969      2A5C2591 
 969      82A27EAE 
 969      FE2426CE 
 969      073583CD 
 970 2805 71EC0D04 		.ascii	"q\354\015\004\013\013\303\241H$\024q\202\207RH\356/"
 970      0B0BC3A1 
 970      48241471 
 970      82875248 
 970      EE2F
 971 2817 F414815D 		.ascii	"\364\024\201]\001\203\347\205\234\\\220\305\333\340"
 971      0183E785 
 971      9C5C90C5 
 971      DBE0
 972 2825 9DE17753 		.ascii	"\235\341wS\342(\225\224\367\243\356_z\342\012,u\342"
 972      E2289594 
 972      F7A3EE5F 
 972      7AE20A2C 
 972      75E2
 973 2837 C211292C 		.ascii	"\302\021),\360@2'\030\355\237^HF\264^\345\003\300\006"
 973      F0403227 
 973      18ED9F5E 
 973      4846B45E 
 973      E503C006 
 974 284b 15BACB10 		.ascii	"\025\272\313\0208\245r\016\014\202j\015\210\300\017"
 974      38A5720E 
 974      0C826A0D 
 974      88C00F
 975 285a A0636551 		.ascii	"\240ceQ\342%\332S0\312\035\242`\217w\001\267./\004\212"
 975      E225DA53 
 975      30CA1DA2 
 975      608F7701 
 975      B72E2F04 
 976 286f 5D162D0E 		.ascii	"]\026-\016\226Pi<a\224\011\036XG\364\220J\212\373f\364"
 976      9650693C 
 976      6194091E 
 976      5847F490 
 976      4A8AFB66 
 977 2884 2B28D079 		.ascii	"+(\320yJ\235\332=\337\256\023\353]\201\247Dl8\361Q\300"
 977      4A9DDA3D 
 977      DFAE13EB 
 977      5D81A744 
 977      6C38F151 
 978 2899 9E550C88 		.ascii	"\236U\014\210:\300C\361\252$; \341(*\215\262\034+\020"
 978      3AC043F1 
 978      AA243B20 
 978      E1282A8D 
 978      B21C2B10 
 979 28ad DCD46FF2 		.ascii	"\334\324o\362\242\005!\256\024\374BX\002\306EI9\211"
 979      A20521AE 
 979      14FC4258 
 979      02C64549 
 979      3989
 980 28bf 7D722B7C 		.ascii	"}r+|\354\332\243\247T\024q\022\223\344\010\205\303\316"
 980      ECDAA3A7 
 980      54147112 
 980      93E40885 
ARM GAS  /tmp/cc385vAD.s 			page 79


 980      C3CE
 981 28d1 A28A68D8 		.ascii	"\242\212h\330\035A\317\326E\343B\342\255z\301\215\015"
 981      1D41CFD6 
 981      45E342E2 
 981      AD7AC18D 
 981      0D
 982 28e2 9004F167 		.ascii	"\220\004\361g\003p\217\243\357\200\"'A\363\014\012g"
 982      03708FA3 
 982      EF802227 
 982      41F30C0A 
 982      67
 983 28f3 12D63BCB 		.ascii	"\022\326;\313\301:\264T\252\350\035\032\324\256\"\030"
 983      C13AB454 
 983      AAE81D1A 
 983      D4AE2218 
 984 2903 8EB66BEF 		.ascii	"\216\266k\357\200\034W\021\251\3611\345\267W\211/G\177"
 984      801C5711 
 984      A9F131E5 
 984      B757892F 
 984      477F
 985 2915 EDF03B5B 		.ascii	"\355\360;[^H(\014\234$J\221\207)\352\3104g/\200\301"
 985      5E48280C 
 985      9C244A91 
 985      8729EAC8 
 985      34672F80 
 986 292a 3E328A16 		.ascii	">2\212\026\227B{\235\300\260\250\0238\026u\243\377\030"
 986      97427B9D 
 986      C0B0A813 
 986      381675A3 
 986      FF18
 987 293c 75914E1F 		.ascii	"u\221N\037M\351Qk\304\214v\226H\271\031\246\002\221"
 987      4DE9516B 
 987      C48C7696 
 987      48B919A6 
 987      0291
 988 294e F2016162 		.ascii	"\362\001abB\322\331\313\026\364\202\030\256P\031\321"
 988      42D2D9CB 
 988      16F48218 
 988      AE5019D1 
 989 295e D466DA0C 		.ascii	"\324f\332\014O\250\004\355[\032|\253y>HSp\012\205\203"
 989      4FA804ED 
 989      5B1A7CAB 
 989      793E4853 
 989      700A8583 
 990 2972 02C80DB2 		.ascii	"\002\310\015\2621I~\037DG\212P\004K\273\360>_\244P\031"
 990      31497E1F 
 990      44478A50 
 990      044BBBF0 
 990      3E5FA450 
 991 2987 597C7959 		.ascii	"Y|yY\212\017\346\201\024q\301\274\360\215\036\230\275"
 991      8A0FE681 
 991      1471C1BC 
 991      F08D1E98 
 991      BD
 992 2998 36A24926 		.ascii	"6\242I&mlZ\\\006<S\307\004\360t\324\244WM\372\336RG"
 992      6D6C5A5C 
 992      063C53C7 
ARM GAS  /tmp/cc385vAD.s 			page 80


 992      04F074D4 
 992      A4574DFA 
 993 29af 10481560 		.ascii	"\020H\025`\227\013{\337\012\2002\200qu\275\025\210\226"
 993      970B7BDF 
 993      0A803280 
 993      7175BD15 
 993      8896
 994 29c1 5778E096 		.ascii	"Wx\340\2260h\010|\207\013\341\333\367VYy\264\270\350"
 994      3068087C 
 994      870BE1DB 
 994      F7565979 
 994      B4B8E8
 995 29d4 6D40792B 		.ascii	"m@y+@\223\356\267\200\015eo\272\213\021\263Y\371\200"
 995      4093EEB7 
 995      800D656F 
 995      BA8B11B3 
 995      59F980
 996 29e7 2853ADBB 		.ascii	"(S\255\273\034\023Rq_\251\274o\323\227\363:\347\346"
 996      1C135271 
 996      5FA9BC6F 
 996      D397F33A 
 996      E7E6
 997 29f9 3386F639 		.ascii	"3\206\3669g\267\374\234\\\327\200\010\350\317\343D\361"
 997      67B7FC9C 
 997      5CD78008 
 997      E8CFE344 
 997      F1
 998 2a0a 7BA21EF7 		.ascii	"{\242\036\367(+&\335\014:\212\024)t\024\366\355\327"
 998      282B26DD 
 998      0C3A8A14 
 998      297414F6 
 998      EDD7
 999 2a1c 2CF15B1E 		.ascii	",\361[\036\020\325$\241\230iJ2\017nn\316\352dfd\240"
 999      10D524A1 
 999      98694A32 
 999      0F6E6ECE 
 999      EA646664 
 1000 2a31 0BBE4A23 		.ascii	"\013\276J#`\024A=\203`\015\335e\230\241\252u\267P\364"
 1000      6014413D 
 1000      83600DDD 
 1000      6598A1AA 
 1000      75B750F4 
 1001 2a45 55AAEDE9 		.ascii	"U\252\355\351JNfIy$\244\376\334\007z@\347\0122H\246"
 1001      4A4E6649 
 1001      7924A4FE 
 1001      DC077A40 
 1001      E70A3248 
 1002 2a5a B3B8EE92 		.ascii	"\263\270\356\222PY\277h\177\037\351 x\177\213D\207\315"
 1002      5059BF68 
 1002      7F1FE920 
 1002      787F8B44 
 1002      87CD
 1003 2a6c C781C811 		.ascii	"\307\201\310\021\014\367\263e\030\340~2\232\016\014"
 1003      0CF7B365 
 1003      18E07E32 
 1003      9A0E0C
 1004 2a7b A23A350B 		.ascii	"\242:5\013\004\372\225\015(\010(\227i\177\351;\240\270"
ARM GAS  /tmp/cc385vAD.s 			page 81


 1004      04FA950D 
 1004      28082897 
 1004      697FE93B 
 1004      A0B8
 1005 2a8d 24FADBE2 		.ascii	"$\372\333\342\262\277\012\340H(\271\340H\016\244v\303"
 1005      B2BF0AE0 
 1005      4828B9E0 
 1005      480EA476 
 1005      C3
 1006 2a9e D335373B 		.ascii	"\32357;\357\345\236\371\256\256\271\201>/\245A\014\263"
 1006      EFE59EF9 
 1006      AEAEB981 
 1006      3E2FA541 
 1006      0CB3
 1007 2ab0 959702D9 		.ascii	"\225\227\002\331\340\333B\272G\357|\222L\207d\357>\371"
 1007      E0DB42BA 
 1007      47EF7C92 
 1007      4C8764EF 
 1007      3EF9
 1008 2ac2 8A438F17 		.ascii	"\212C\217\027\001\260\025\331J2\247s~\367\346x\367+"
 1008      01B015D9 
 1008      4A32A773 
 1008      7EF7E678 
 1008      F72B
 1009 2ad4 9D7BF6C8 		.ascii	"\235{\366\310\012\364\356\334+\333G\220\262{\367\310"
 1009      0AF4EEDC 
 1009      2BDB4790 
 1009      B27BF7C8 
 1010 2ae4 CEF2422A 		.ascii	"\316\362B*\373\265\036y\371-\231[\372t\371_0\035j\005"
 1010      FBB51E79 
 1010      F92D995B 
 1010      FA74F95F 
 1010      301D6A05 
 1011 2af8 3964D293 		.ascii	"9d\322\223\035\310\311\355\223\017\031\331Y-\230\233"
 1011      1DC8C9ED 
 1011      930F19D9 
 1011      592D989B 
 1012 2b08 B272C984 		.ascii	"\262r\311\204J\251;\273w\347.=\351\357J\355y\257\347"
 1012      4AA93BBB 
 1012      77E72E3D 
 1012      E9EF4AED 
 1012      79AFE7
 1013 2b1b E567F722 		.ascii	"\345g\367\"\025\367z\251k^\240s\227>\271\000@h\312\357"
 1013      15F77AA9 
 1013      6B5EA073 
 1013      973EB900 
 1013      4068CAEF 
 1014 2b2f D12BBBCF 		.ascii	"\321+\273\317\313\371\204\206\236}2_\312\316j\025\007"
 1014      CBF98486 
 1014      9E7D325F 
 1014      CACE6A15 
 1014      07
 1015 2b40 E9F372B7 		.ascii	"\351\363r\267\3560\007\311\315\3769\271\257O\237@\257"
 1015      EE3007C9 
 1015      CDFE39B9 
 1015      AF4F9F40 
 1015      AF
ARM GAS  /tmp/cc385vAD.s 			page 82


 1016 2b51 CEBD5F0F 		.ascii	"\316\275_\017\364\311\311\356M1\037g\352\2071\023Z\222"
 1016      F4C9C9EE 
 1016      4D311F67 
 1016      EA873113 
 1016      5A92
 1017 2b63 0FB387A2 		.ascii	"\017\263\207\242\000\221\227\247\010f\371\345d:\037"
 1017      009197A7 
 1017      0866F9E5 
 1017      643A1F
 1018 2b72 2825726F 		.ascii	"(%ro\202\223r\320\003\262\234\020(\211\204Bo:_\006\226"
 1018      829372D0 
 1018      03B29C10 
 1018      28898442 
 1018      6F3A5F06 
 1019 2b87 C105DA98 		.ascii	"\301\005\332\230&\005\375\363\373\027\346\225\204B\025"
 1019      2605FDF3 
 1019      FB17E695 
 1019      844215
 1020 2b96 AEACEC2E 		.ascii	"\256\254\354./w\303\001,_q\346\233$.\234 \377\010\321"
 1020      2F77C301 
 1020      2C5F71E6 
 1020      9B242E9C 
 1020      20FF08D1 
 1021 2baa CA48E782 		.ascii	"\312H\347\202(\230.\017\364\3142\322\255\"\244l>\030"
 1021      28982E0F 
 1021      F4CC32D2 
 1021      AD22A46C 
 1021      3E18
 1022 2bbc B0FF0741 		.ascii	"\260\377\007A@\252#"
 1022      40AA23
 1023              		.text
 1024              		.section	.gnu.lto_.symtab.74239137647119ef,"",%progbits
 1025 0000 64617461 		.ascii	"dataLoggerInitialize\000\000\000\000\000\000\000\000"
 1025      4C6F6767 
 1025      6572496E 
 1025      69746961 
 1025      6C697A65 
 1026 001c 00000000 		.ascii	"\000\000\000\000W\003\000\000dataLoggerStop\000\000"
 1026      57030000 
 1026      64617461 
 1026      4C6F6767 
 1026      65725374 
 1027 0034 00000000 		.ascii	"\000\000\000\000\000\000\000\000\000\000\374\003\000"
 1027      00000000 
 1027      0000FC03 
 1027      00
 1028 0041 006C6F67 		.ascii	"\000logfileNew\000\000\000\000\000\000\000\000\000\000"
 1028      66696C65 
 1028      4E657700 
 1028      00000000 
 1028      00000000 
 1029 0056 00000204 		.ascii	"\000\000\002\004\000\000logfileSize\000\000\000\000"
 1029      00006C6F 
 1029      6766696C 
 1029      6553697A 
 1029      65000000 
 1030 006b 00000000 		.ascii	"\000\000\000\000\000\000\000\000\016\004\000\000log"
ARM GAS  /tmp/cc385vAD.s 			page 83


 1030      00000000 
 1030      0E040000 
 1030      6C6F67
 1031 007a 66696C65 		.ascii	"fileWriteCsv\000\000\000\000\000\000\000\000\000\000"
 1031      57726974 
 1031      65437376 
 1031      00000000 
 1031      00000000 
 1032 0090 00001404 		.ascii	"\000\000\024\004\000\000logfileGetWrCount\000\000\000"
 1032      00006C6F 
 1032      6766696C 
 1032      65476574 
 1032      5772436F 
 1033 00aa 00000000 		.ascii	"\000\000\000\000\000\000\000\000\000$\004\000\000lo"
 1033      00000000 
 1033      00240400 
 1033      006C6F
 1034 00b9 6766696C 		.ascii	"gfileClose\000\000\000\000\000\000\000\000\000\000\000"
 1034      65436C6F 
 1034      73650000 
 1034      00000000 
 1034      00000000 
 1035 00ce 002A0400 		.ascii	"\000*\004\000\000logfileOpenAppend\000\000\000\000\000"
 1035      006C6F67 
 1035      66696C65 
 1035      4F70656E 
 1035      41707065 
 1036 00e9 00000000 		.ascii	"\000\000\000\000\000\000\0000\004\000\000logfileWri"
 1036      00000030 
 1036      0400006C 
 1036      6F676669 
 1036      6C655772 
 1037 00fe 74650000 		.ascii	"te\000\000\000\000\000\000\000\000\000\000\000\0004"
 1037      00000000 
 1037      00000000 
 1037      000034
 1038 010d 04000064 		.ascii	"\004\000\000dataloggerThread\000\000\000\000\000\000"
 1038      6174616C 
 1038      6F676765 
 1038      72546872 
 1038      65616400 
 1039 0126 00000000 		.ascii	"\000\000\000\000\000\000B\004\000\000chvprintf\000\000"
 1039      00004204 
 1039      00006368 
 1039      76707269 
 1039      6E746600 
 1040 013b 02000000 		.ascii	"\002\000\000\000\000\000\000\000\000\000H\004\000\000"
 1040      00000000 
 1040      00004804 
 1040      0000
 1041 0149 665F6F70 		.ascii	"f_open\000\000\002\000\000\000\000\000\000\000\000\000"
 1041      656E0000 
 1041      02000000 
 1041      00000000 
 1041      0000
 1042 015b 57040000 		.ascii	"W\004\000\000f_close\000\000\002\000\000\000\000\000"
 1042      665F636C 
ARM GAS  /tmp/cc385vAD.s 			page 84


 1042      6F736500 
 1042      00020000 
 1042      000000
 1043 016e 00000000 		.ascii	"\000\000\000\000\212\004\000\000f_mount\000\000\002"
 1043      8A040000 
 1043      665F6D6F 
 1043      756E7400 
 1043      0002
 1044 0180 00000000 		.ascii	"\000\000\000\000\000\000\000\000\000\216\004\000\000"
 1044      00000000 
 1044      008E0400 
 1044      00
 1045 018d 73646D6D 		.ascii	"sdmmcGetFS\000\000\002\000\000\000\000\000\000\000\000"
 1045      63476574 
 1045      46530000 
 1045      02000000 
 1045      00000000 
 1046 01a2 00940400 		.ascii	"\000\224\004\000\000f_lseek\000\000\002\000\000\000"
 1046      00665F6C 
 1046      7365656B 
 1046      00000200 
 1046      0000
 1047 01b4 00000000 		.ascii	"\000\000\000\000\000\000\230\004\000\000f_write\000"
 1047      00009804 
 1047      0000665F 
 1047      77726974 
 1047      6500
 1048 01c6 00020000 		.ascii	"\000\002\000\000\000\000\000\000\000\000\000\235\004"
 1048      00000000 
 1048      0000009D 
 1048      04
 1049 01d3 00006368 		.ascii	"\000\000chThdSleep\000\000\002\000\000\000\000\000\000"
 1049      54686453 
 1049      6C656570 
 1049      00000200 
 1049      00000000 
 1050 01e8 000000A8 		.ascii	"\000\000\000\250\004\000\000"
 1050      040000
 1051              		.text
 1052              		.section	.gnu.lto_.opts,"",%progbits
 1053 0000 272D6D63 		.ascii	"'-mcpu=cortex-m4' '-mfloat-abi=hard' '-mfpu=fpv4-sp"
 1053      70753D63 
 1053      6F727465 
 1053      782D6D34 
 1053      2720272D 
 1054 0033 2D643136 		.ascii	"-d16' '-mno-thumb-interwork' '-mthumb' '-O2' '-fomi"
 1054      2720272D 
 1054      6D6E6F2D 
 1054      7468756D 
 1054      622D696E 
 1055 0066 742D6672 		.ascii	"t-frame-pointer' '-falign-functions=16' '-ffunction"
 1055      616D652D 
 1055      706F696E 
 1055      74657227 
 1055      20272D66 
 1056 0099 2D736563 		.ascii	"-sections' '-fdata-sections' '-fno-common' '-flto' "
 1056      74696F6E 
ARM GAS  /tmp/cc385vAD.s 			page 85


 1056      73272027 
 1056      2D666461 
 1056      74612D73 
 1057 00cc 272D6673 		.ascii	"'-fsingle-precision-constant'\000"
 1057      696E676C 
 1057      652D7072 
 1057      65636973 
 1057      696F6E2D 
 1058              		.text
 1059              		.section	.text.chprintf,"ax",%progbits
 1060              		.align	2
 1061              		.p2align 4,,15
 1062              		.thumb
 1063              		.thumb_func
 1064              		.type	chprintf, %function
 1065              	chprintf:
 1066              		@ args = 4, pretend = 12, frame = 8
 1067              		@ frame_needed = 0, uses_anonymous_args = 1
 1068 0000 0EB4     		push	{r1, r2, r3}
 1069 0002 00B5     		push	{lr}
 1070 0004 82B0     		sub	sp, sp, #8
 1071 0006 03AA     		add	r2, sp, #12
 1072 0008 52F8041B 		ldr	r1, [r2], #4
 1073 000c 0192     		str	r2, [sp, #4]
 1074 000e FFF7FEFF 		bl	chvprintf
 1075 0012 02B0     		add	sp, sp, #8
 1076              		@ sp needed
 1077 0014 5DF804EB 		ldr	lr, [sp], #4
 1078 0018 03B0     		add	sp, sp, #12
 1079 001a 7047     		bx	lr
 1080              		.size	chprintf, .-chprintf
 1081 001c AFF30080 		.section	.text.dataLoggerInitialize,"ax",%progbits
 1082              		.align	2
 1083              		.p2align 4,,15
 1084              		.global	dataLoggerInitialize
 1085              		.thumb
 1086              		.thumb_func
 1087              		.type	dataLoggerInitialize, %function
 1088              	dataLoggerInitialize:
 1089              		@ args = 0, pretend = 0, frame = 0
 1090              		@ frame_needed = 0, uses_anonymous_args = 0
 1091 0000 70B5     		push	{r4, r5, r6, lr}
 1092 0002 0446     		mov	r4, r0
 1093 0004 0D46     		mov	r5, r1
 1094 0006 DAB1     		cbz	r2, .L6
 1095 0008 C0B1     		cbz	r0, .L3
 1096 000a 1249     		ldr	r1, .L11
 1097 000c 124E     		ldr	r6, .L11+4
 1098 000e 0260     		str	r2, [r0]
 1099 0010 1046     		mov	r0, r2
 1100 0012 002D     		cmp	r5, #0
 1101 0014 08BF     		it	eq
 1102 0016 0D46     		moveq	r5, r1
 1103 0018 3360     		str	r3, [r6]
 1104 001a FFF7FEFF 		bl	sdmmcGetFS
 1105 001e A560     		str	r5, [r4, #8]
 1106 0020 2946     		mov	r1, r5
ARM GAS  /tmp/cc385vAD.s 			page 86


 1107 0022 6060     		str	r0, [r4, #4]
 1108 0024 0122     		movs	r2, #1
 1109 0026 FFF7FEFF 		bl	f_mount
 1110 002a 0546     		mov	r5, r0
 1111 002c 58B9     		cbnz	r0, .L10
 1112 002e 0123     		movs	r3, #1
 1113 0030 3068     		ldr	r0, [r6]
 1114 0032 2373     		strb	r3, [r4, #12]
 1115 0034 0949     		ldr	r1, .L11+8
 1116 0036 FFF7FEFF 		bl	chprintf
 1117 003a 2846     		mov	r0, r5
 1118              	.L3:
 1119 003c 40B2     		sxtb	r0, r0
 1120 003e 70BD     		pop	{r4, r5, r6, pc}
 1121              	.L6:
 1122 0040 1046     		mov	r0, r2
 1123 0042 40B2     		sxtb	r0, r0
 1124 0044 70BD     		pop	{r4, r5, r6, pc}
 1125              	.L10:
 1126 0046 3068     		ldr	r0, [r6]
 1127 0048 0549     		ldr	r1, .L11+12
 1128 004a 2A46     		mov	r2, r5
 1129 004c FFF7FEFF 		bl	chprintf
 1130 0050 FF20     		movs	r0, #255
 1131 0052 F3E7     		b	.L3
 1132              	.L12:
 1133              		.align	2
 1134              	.L11:
 1135 0054 00000000 		.word	.LC0
 1136 0058 00000000 		.word	.LANCHOR0
 1137 005c 34000000 		.word	.LC2
 1138 0060 04000000 		.word	.LC1
 1139              		.size	dataLoggerInitialize, .-dataLoggerInitialize
 1140 0064 AFF30080 		.section	.text.dataLoggerStop,"ax",%progbits
 1140      AFF30080 
 1140      AFF30080 
 1141              		.align	2
 1142              		.p2align 4,,15
 1143              		.global	dataLoggerStop
 1144              		.thumb
 1145              		.thumb_func
 1146              		.type	dataLoggerStop, %function
 1147              	dataLoggerStop:
 1148              		@ args = 0, pretend = 0, frame = 0
 1149              		@ frame_needed = 0, uses_anonymous_args = 0
 1150 0000 074B     		ldr	r3, .L14
 1151 0002 0849     		ldr	r1, .L14+4
 1152 0004 10B5     		push	{r4, lr}
 1153 0006 0446     		mov	r4, r0
 1154 0008 1868     		ldr	r0, [r3]
 1155 000a FFF7FEFF 		bl	chprintf
 1156 000e 0020     		movs	r0, #0
 1157 0010 0146     		mov	r1, r0
 1158 0012 0246     		mov	r2, r0
 1159 0014 FFF7FEFF 		bl	f_mount
 1160 0018 0020     		movs	r0, #0
 1161 001a 2073     		strb	r0, [r4, #12]
ARM GAS  /tmp/cc385vAD.s 			page 87


 1162 001c 10BD     		pop	{r4, pc}
 1163              	.L15:
 1164 001e 00BF     		.align	2
 1165              	.L14:
 1166 0020 00000000 		.word	.LANCHOR0
 1167 0024 54000000 		.word	.LC3
 1168              		.size	dataLoggerStop, .-dataLoggerStop
 1169 0028 AFF30080 		.section	.text.logfileNew,"ax",%progbits
 1169      AFF30080 
 1170              		.align	2
 1171              		.p2align 4,,15
 1172              		.global	logfileNew
 1173              		.thumb
 1174              		.thumb_func
 1175              		.type	logfileNew, %function
 1176              	logfileNew:
 1177              		@ args = 0, pretend = 0, frame = 0
 1178              		@ frame_needed = 0, uses_anonymous_args = 0
 1179 0000 2DE9F843 		push	{r3, r4, r5, r6, r7, r8, r9, lr}
 1180 0004 144F     		ldr	r7, .L23
 1181 0006 0D46     		mov	r5, r1
 1182 0008 0446     		mov	r4, r0
 1183 000a 1449     		ldr	r1, .L23+4
 1184 000c 3868     		ldr	r0, [r7]
 1185 000e 9146     		mov	r9, r2
 1186 0010 9846     		mov	r8, r3
 1187 0012 FFF7FEFF 		bl	chprintf
 1188 0016 2D7B     		ldrb	r5, [r5, #12]	@ zero_extendqisi2
 1189 0018 0026     		movs	r6, #0
 1190 001a 2675     		strb	r6, [r4, #20]
 1191 001c 1DB9     		cbnz	r5, .L21
 1192 001e 2846     		mov	r0, r5
 1193              	.L17:
 1194 0020 40B2     		sxtb	r0, r0
 1195 0022 BDE8F883 		pop	{r3, r4, r5, r6, r7, r8, r9, pc}
 1196              	.L21:
 1197 0026 C4F80C90 		str	r9, [r4, #12]
 1198 002a 2661     		str	r6, [r4, #16]
 1199 002c C4F80480 		str	r8, [r4, #4]
 1200 0030 4846     		mov	r0, r9
 1201 0032 4146     		mov	r1, r8
 1202 0034 0A22     		movs	r2, #10
 1203 0036 FFF7FEFF 		bl	f_open
 1204 003a 0546     		mov	r5, r0
 1205 003c 20B9     		cbnz	r0, .L22
 1206 003e 0123     		movs	r3, #1
 1207 0040 2375     		strb	r3, [r4, #20]
 1208 0042 40B2     		sxtb	r0, r0
 1209 0044 BDE8F883 		pop	{r3, r4, r5, r6, r7, r8, r9, pc}
 1210              	.L22:
 1211 0048 3868     		ldr	r0, [r7]
 1212 004a 0549     		ldr	r1, .L23+8
 1213 004c 2A46     		mov	r2, r5
 1214 004e FFF7FEFF 		bl	chprintf
 1215 0052 E8B2     		uxtb	r0, r5
 1216 0054 E4E7     		b	.L17
 1217              	.L24:
ARM GAS  /tmp/cc385vAD.s 			page 88


 1218 0056 00BF     		.align	2
 1219              	.L23:
 1220 0058 00000000 		.word	.LANCHOR0
 1221 005c 74000000 		.word	.LC4
 1222 0060 98000000 		.word	.LC5
 1223              		.size	logfileNew, .-logfileNew
 1224 0064 AFF30080 		.section	.text.logfileSize,"ax",%progbits
 1224      AFF30080 
 1224      AFF30080 
 1225              		.align	2
 1226              		.p2align 4,,15
 1227              		.global	logfileSize
 1228              		.thumb
 1229              		.thumb_func
 1230              		.type	logfileSize, %function
 1231              	logfileSize:
 1232              		@ args = 0, pretend = 0, frame = 0
 1233              		@ frame_needed = 0, uses_anonymous_args = 0
 1234              		@ link register save eliminated.
 1235 0000 0020     		movs	r0, #0
 1236 0002 7047     		bx	lr
 1237              		.size	logfileSize, .-logfileSize
 1238 0004 AFF30080 		.section	.text.logfileWriteCsv,"ax",%progbits
 1238      AFF30080 
 1238      AFF30080 
 1239              		.align	2
 1240              		.p2align 4,,15
 1241              		.global	logfileWriteCsv
 1242              		.thumb
 1243              		.thumb_func
 1244              		.type	logfileWriteCsv, %function
 1245              	logfileWriteCsv:
 1246              		@ args = 0, pretend = 0, frame = 0
 1247              		@ frame_needed = 0, uses_anonymous_args = 0
 1248              		@ link register save eliminated.
 1249 0000 0020     		movs	r0, #0
 1250 0002 7047     		bx	lr
 1251              		.size	logfileWriteCsv, .-logfileWriteCsv
 1252 0004 AFF30080 		.section	.text.logfileGetWrCount,"ax",%progbits
 1252      AFF30080 
 1252      AFF30080 
 1253              		.align	2
 1254              		.p2align 4,,15
 1255              		.global	logfileGetWrCount
 1256              		.thumb
 1257              		.thumb_func
 1258              		.type	logfileGetWrCount, %function
 1259              	logfileGetWrCount:
 1260              		@ args = 0, pretend = 0, frame = 0
 1261              		@ frame_needed = 0, uses_anonymous_args = 0
 1262              		@ link register save eliminated.
 1263 0000 0069     		ldr	r0, [r0, #16]
 1264 0002 7047     		bx	lr
 1265              		.size	logfileGetWrCount, .-logfileGetWrCount
 1266 0004 AFF30080 		.section	.text.logfileClose,"ax",%progbits
 1266      AFF30080 
 1266      AFF30080 
ARM GAS  /tmp/cc385vAD.s 			page 89


 1267              		.align	2
 1268              		.p2align 4,,15
 1269              		.global	logfileClose
 1270              		.thumb
 1271              		.thumb_func
 1272              		.type	logfileClose, %function
 1273              	logfileClose:
 1274              		@ args = 0, pretend = 0, frame = 0
 1275              		@ frame_needed = 0, uses_anonymous_args = 0
 1276 0000 10B5     		push	{r4, lr}
 1277 0002 0446     		mov	r4, r0
 1278 0004 C068     		ldr	r0, [r0, #12]
 1279 0006 FFF7FEFF 		bl	f_close
 1280 000a 18B1     		cbz	r0, .L29
 1281 000c 0023     		movs	r3, #0
 1282 000e 2361     		str	r3, [r4, #16]
 1283 0010 2375     		strb	r3, [r4, #20]
 1284 0012 0120     		movs	r0, #1
 1285              	.L29:
 1286 0014 40B2     		sxtb	r0, r0
 1287 0016 10BD     		pop	{r4, pc}
 1288              		.size	logfileClose, .-logfileClose
 1289 0018 AFF30080 		.section	.text.logfileOpenAppend,"ax",%progbits
 1289      AFF30080 
 1290              		.align	2
 1291              		.p2align 4,,15
 1292              		.global	logfileOpenAppend
 1293              		.thumb
 1294              		.thumb_func
 1295              		.type	logfileOpenAppend, %function
 1296              	logfileOpenAppend:
 1297              		@ args = 0, pretend = 0, frame = 0
 1298              		@ frame_needed = 0, uses_anonymous_args = 0
 1299 0000 38B5     		push	{r3, r4, r5, lr}
 1300 0002 0546     		mov	r5, r0
 1301 0004 1222     		movs	r2, #18
 1302 0006 C068     		ldr	r0, [r0, #12]
 1303 0008 6968     		ldr	r1, [r5, #4]
 1304 000a FFF7FEFF 		bl	f_open
 1305 000e 0446     		mov	r4, r0
 1306 0010 08B1     		cbz	r0, .L36
 1307              	.L32:
 1308 0012 60B2     		sxtb	r0, r4
 1309 0014 38BD     		pop	{r3, r4, r5, pc}
 1310              	.L36:
 1311 0016 E868     		ldr	r0, [r5, #12]
 1312 0018 C168     		ldr	r1, [r0, #12]
 1313 001a FFF7FEFF 		bl	f_lseek
 1314 001e 0446     		mov	r4, r0
 1315 0020 0028     		cmp	r0, #0
 1316 0022 F6D0     		beq	.L32
 1317 0024 E868     		ldr	r0, [r5, #12]
 1318 0026 FFF7FEFF 		bl	f_close
 1319 002a 60B2     		sxtb	r0, r4
 1320 002c 38BD     		pop	{r3, r4, r5, pc}
 1321              		.size	logfileOpenAppend, .-logfileOpenAppend
 1322 002e 00BF     		.section	.text.logfileWrite,"ax",%progbits
ARM GAS  /tmp/cc385vAD.s 			page 90


 1323              		.align	2
 1324              		.p2align 4,,15
 1325              		.global	logfileWrite
 1326              		.thumb
 1327              		.thumb_func
 1328              		.type	logfileWrite, %function
 1329              	logfileWrite:
 1330              		@ args = 0, pretend = 0, frame = 8
 1331              		@ frame_needed = 0, uses_anonymous_args = 0
 1332 0000 F0B5     		push	{r4, r5, r6, r7, lr}
 1333 0002 1C46     		mov	r4, r3
 1334 0004 83B0     		sub	sp, sp, #12
 1335 0006 0F46     		mov	r7, r1
 1336 0008 1546     		mov	r5, r2
 1337 000a 0646     		mov	r6, r0
 1338 000c 23B1     		cbz	r3, .L41
 1339 000e FFF7FEFF 		bl	logfileOpenAppend
 1340 0012 10F0FF0F 		tst	r0, #255
 1341 0016 0AD1     		bne	.L39
 1342              	.L41:
 1343 0018 3946     		mov	r1, r7
 1344 001a F068     		ldr	r0, [r6, #12]
 1345 001c 2A46     		mov	r2, r5
 1346 001e 01AB     		add	r3, sp, #4
 1347 0020 FFF7FEFF 		bl	f_write
 1348 0024 10B9     		cbnz	r0, .L44
 1349 0026 019B     		ldr	r3, [sp, #4]
 1350 0028 9D42     		cmp	r5, r3
 1351 002a 03D0     		beq	.L48
 1352              	.L44:
 1353 002c 0120     		movs	r0, #1
 1354              	.L39:
 1355 002e 40B2     		sxtb	r0, r0
 1356 0030 03B0     		add	sp, sp, #12
 1357              		@ sp needed
 1358 0032 F0BD     		pop	{r4, r5, r6, r7, pc}
 1359              	.L48:
 1360 0034 3369     		ldr	r3, [r6, #16]
 1361 0036 0133     		adds	r3, r3, #1
 1362 0038 3361     		str	r3, [r6, #16]
 1363 003a 1CB9     		cbnz	r4, .L49
 1364 003c 2046     		mov	r0, r4
 1365 003e 40B2     		sxtb	r0, r0
 1366 0040 03B0     		add	sp, sp, #12
 1367              		@ sp needed
 1368 0042 F0BD     		pop	{r4, r5, r6, r7, pc}
 1369              	.L49:
 1370 0044 F068     		ldr	r0, [r6, #12]
 1371 0046 FFF7FEFF 		bl	f_close
 1372 004a 0028     		cmp	r0, #0
 1373 004c EFD0     		beq	.L39
 1374 004e C0B2     		uxtb	r0, r0
 1375 0050 EDE7     		b	.L39
 1376              		.size	logfileWrite, .-logfileWrite
 1377 0052 00BFAFF3 		.section	.text.dataloggerThread,"ax",%progbits
 1377      0080AFF3 
 1377      0080AFF3 
ARM GAS  /tmp/cc385vAD.s 			page 91


 1377      0080
 1378              		.align	2
 1379              		.p2align 4,,15
 1380              		.global	dataloggerThread
 1381              		.thumb
 1382              		.thumb_func
 1383              		.type	dataloggerThread, %function
 1384              	dataloggerThread:
 1385              		@ args = 0, pretend = 0, frame = 0
 1386              		@ frame_needed = 0, uses_anonymous_args = 0
 1387 0000 90F8CC30 		ldrb	r3, [r0, #204]	@ zero_extendqisi2
 1388 0004 70B5     		push	{r4, r5, r6, lr}
 1389 0006 0446     		mov	r4, r0
 1390 0008 8BB1     		cbz	r3, .L56
 1391 000a 0A4E     		ldr	r6, .L58
 1392 000c 42F21075 		movw	r5, #10000
 1393              	.L53:
 1394 0010 D4F8D030 		ldr	r3, [r4, #208]
 1395 0014 05FB03F0 		mul	r0, r5, r3
 1396 0018 0138     		subs	r0, r0, #1
 1397 001a A6FB0030 		umull	r3, r0, r6, r0
 1398 001e 8009     		lsrs	r0, r0, #6
 1399 0020 0130     		adds	r0, r0, #1
 1400 0022 FFF7FEFF 		bl	chThdSleep
 1401 0026 94F8CC30 		ldrb	r3, [r4, #204]	@ zero_extendqisi2
 1402 002a 002B     		cmp	r3, #0
 1403 002c F0D1     		bne	.L53
 1404              	.L56:
 1405 002e 0020     		movs	r0, #0
 1406 0030 70BD     		pop	{r4, r5, r6, pc}
 1407              	.L59:
 1408 0032 00BF     		.align	2
 1409              	.L58:
 1410 0034 D34D6210 		.word	274877907
 1411              		.size	dataloggerThread, .-dataloggerThread
 1412 0038 AFF30080 		.section	.bss.DEBUG,"aw",%nobits
 1412      AFF30080 
 1413              		.align	2
 1414              		.set	.LANCHOR0,. + 0
 1415              		.type	DEBUG, %object
 1416              		.size	DEBUG, 4
 1417              	DEBUG:
 1418 0000 00000000 		.space	4
 1419              		.section	.rodata.str1.4,"aMS",%progbits,1
 1420              		.align	2
 1421              	.LC0:
 1422 0000 00       		.ascii	"\000"
 1423 0001 000000   		.space	3
 1424              	.LC1:
 1425 0004 44415441 		.ascii	"DATALOGGER: Error Mounting Filesystem,ERR%20d\012\000"
 1425      4C4F4747 
 1425      45523A20 
 1425      4572726F 
 1425      72204D6F 
 1426 0033 00       		.space	1
 1427              	.LC2:
 1428 0034 44415441 		.ascii	"DATALOGGER: Datalogger Started\012\000"
ARM GAS  /tmp/cc385vAD.s 			page 92


 1428      4C4F4747 
 1428      45523A20 
 1428      44617461 
 1428      6C6F6767 
 1429              	.LC3:
 1430 0054 44415441 		.ascii	"DATALOGGER: Datalogger Stopped\012\000"
 1430      4C4F4747 
 1430      45523A20 
 1430      44617461 
 1430      6C6F6767 
 1431              	.LC4:
 1432 0074 44415441 		.ascii	"DATALOGGER: Creating New Logfile\012\000"
 1432      4C4F4747 
 1432      45523A20 
 1432      43726561 
 1432      74696E67 
 1433 0096 0000     		.space	2
 1434              	.LC5:
 1435 0098 44415441 		.ascii	"DATALOGGER: Error creating Logfile, ERR%02d\012\000"
 1435      4C4F4747 
 1435      45523A20 
 1435      4572726F 
 1435      72206372 
 1436              		.comm	__gnu_lto_v1,1,1
 1437 00c5 000000   		.ident	"GCC: (GNU Tools for ARM Embedded Processors) 4.8.4 20140526 (release) [ARM/embedded-4_8-br
ARM GAS  /tmp/cc385vAD.s 			page 93


DEFINED SYMBOLS
                            *ABS*:0000000000000000 datalogger.c
     /tmp/cc385vAD.s:1060   .text.chprintf:0000000000000000 $t
     /tmp/cc385vAD.s:1065   .text.chprintf:0000000000000000 chprintf
     /tmp/cc385vAD.s:1082   .text.dataLoggerInitialize:0000000000000000 $t
     /tmp/cc385vAD.s:1088   .text.dataLoggerInitialize:0000000000000000 dataLoggerInitialize
     /tmp/cc385vAD.s:1135   .text.dataLoggerInitialize:0000000000000054 $d
     /tmp/cc385vAD.s:1141   .text.dataLoggerStop:0000000000000000 $t
     /tmp/cc385vAD.s:1147   .text.dataLoggerStop:0000000000000000 dataLoggerStop
     /tmp/cc385vAD.s:1166   .text.dataLoggerStop:0000000000000020 $d
     /tmp/cc385vAD.s:1170   .text.logfileNew:0000000000000000 $t
     /tmp/cc385vAD.s:1176   .text.logfileNew:0000000000000000 logfileNew
     /tmp/cc385vAD.s:1220   .text.logfileNew:0000000000000058 $d
     /tmp/cc385vAD.s:1225   .text.logfileSize:0000000000000000 $t
     /tmp/cc385vAD.s:1231   .text.logfileSize:0000000000000000 logfileSize
     /tmp/cc385vAD.s:1239   .text.logfileWriteCsv:0000000000000000 $t
     /tmp/cc385vAD.s:1245   .text.logfileWriteCsv:0000000000000000 logfileWriteCsv
     /tmp/cc385vAD.s:1253   .text.logfileGetWrCount:0000000000000000 $t
     /tmp/cc385vAD.s:1259   .text.logfileGetWrCount:0000000000000000 logfileGetWrCount
     /tmp/cc385vAD.s:1267   .text.logfileClose:0000000000000000 $t
     /tmp/cc385vAD.s:1273   .text.logfileClose:0000000000000000 logfileClose
     /tmp/cc385vAD.s:1290   .text.logfileOpenAppend:0000000000000000 $t
     /tmp/cc385vAD.s:1296   .text.logfileOpenAppend:0000000000000000 logfileOpenAppend
     /tmp/cc385vAD.s:1323   .text.logfileWrite:0000000000000000 $t
     /tmp/cc385vAD.s:1329   .text.logfileWrite:0000000000000000 logfileWrite
     /tmp/cc385vAD.s:1378   .text.dataloggerThread:0000000000000000 $t
     /tmp/cc385vAD.s:1384   .text.dataloggerThread:0000000000000000 dataloggerThread
     /tmp/cc385vAD.s:1410   .text.dataloggerThread:0000000000000034 $d
     /tmp/cc385vAD.s:1413   .bss.DEBUG:0000000000000000 $d
     /tmp/cc385vAD.s:1417   .bss.DEBUG:0000000000000000 DEBUG
     /tmp/cc385vAD.s:1420   .rodata.str1.4:0000000000000000 $d
                            *COM*:0000000000000001 __gnu_lto_v1
     /tmp/cc385vAD.s:1140   .text.dataLoggerInitialize:0000000000000064 $t
     /tmp/cc385vAD.s:1169   .text.dataLoggerStop:0000000000000028 $t
     /tmp/cc385vAD.s:1224   .text.logfileNew:0000000000000064 $t
     /tmp/cc385vAD.s:1412   .text.dataloggerThread:0000000000000038 $t

UNDEFINED SYMBOLS
chvprintf
sdmmcGetFS
f_mount
f_open
f_close
f_lseek
f_write
chThdSleep
