ARM GAS  /tmp/ccPWA4VS.s 			page 1


   1              		.syntax unified
   2              		.cpu cortex-m4
   3              		.eabi_attribute 27, 3
   4              		.eabi_attribute 28, 1
   5              		.fpu fpv4-sp-d16
   6              		.eabi_attribute 20, 1
   7              		.eabi_attribute 21, 1
   8              		.eabi_attribute 23, 3
   9              		.eabi_attribute 24, 1
  10              		.eabi_attribute 25, 1
  11              		.eabi_attribute 26, 1
  12              		.eabi_attribute 30, 2
  13              		.eabi_attribute 34, 1
  14              		.eabi_attribute 18, 4
  15              		.thumb
  16              		.file	"datasample.c"
  17              		.section	.gnu.lto_.jmpfuncs.ee889f05190af199,"",%progbits
  18 0000 789C6362 		.ascii	"x\234cb`b\300\006~\001\205W\002iV\006fF\006\006ff \263"
  18      6062C006 
  18      7E018557 
  18      02695606 
  18      66460606 
  19 0018 0C483330 		.ascii	"\014H300\226\201\244\201\262L\021\214\231\214 6##\210"
  19      309681A4 
  19      81B24C11 
  19      8C998C20 
  19      36232388 
  20 002c 57CDF0AB 		.ascii	"W\315\360\253aF\203@&#\243\034\003\343\334\206\031\016"
  20      61468340 
  20      2623A31C 
  20      03E3DC86 
  20      190E
  21 003e 998C1093 		.ascii	"\231\214\020\223Q%\023\031\027\001\025\214\212\017\021"
  21      51251319 
  21      1701158C 
  21      8A0F11
  22 004d 71663906 		.ascii	"qf9\006\026Hd\262@$\231Y\240i\000\254\246\003\244\206"
  22      164864B2 
  22      40249959 
  22      A06900AC 
  22      A603A486 
  23 0061 3597119A 		.ascii	"5\227\021\232h\300I\202\015\310\020\307\224\005\313"
  23      68C04982 
  23      0DC810C7 
  23      9405CB
  24 0070 B137A098 		.ascii	"\2617\240\230\316!\307\300\0151\235\023k\"\304\005X"
  24      CE21C7C0 
  24      0D319D13 
  24      6B22C405 
  24      58
  25 0081 9899A02E 		.ascii	"\230\231\240.\305 X\031\371\021vs\3452\202-G\330\310"
  25      C5205819 
  25      F9117673 
  25      E532822D 
  25      47D8C8
  26 0094 2DC7E006 		.ascii	"-\307\340\006\261\221\207\220%L\272\014l\272V@\310`"
  26      B1918790 
ARM GAS  /tmp/ccPWA4VS.s 			page 2


  26      254CBA0C 
  26      6CBA5640 
  26      C860
  27 00a6 A55AAC43 		.ascii	"\245Z\254C\026\342bH\016\361\364\005iW\360q\014\201"
  27      16E26248 
  27      0EF1F405 
  27      6957F071 
  27      0C81
  28 00b8 D07EEE60 		.ascii	"\320~\356`\332\321\007\302\017\206\212\207\370\006x"
  28      DAD107C2 
  28      0F868A87 
  28      F80678
  29 00c7 C218AE60 		.ascii	"\302\030\256`F@P0\230\366\010\365\365\2041 2\216\316"
  29      46405030 
  29      98F608F5 
  29      F5843120 
  29      328ECE
  30 00da CE1A302B 		.ascii	"\316\0320+4\271\030\000s\375\247\350"
  30      34B91800 
  30      73FDA7E8 
  31              		.text
  32              		.section	.gnu.lto_.inline.ee889f05190af199,"",%progbits
  33 0000 789C6362 		.ascii	"x\234cb`b\300\006\2663BhV\006\026n\031\006\260\"\266"
  33      6062C006 
  33      B6334268 
  33      5606166E 
  33      1906B022 
  34 0015 05F270B5 		.ascii	"\005\362p\265\214\014\254|\014\014\314\023\374@\220"
  34      8C0CAC7C 
  34      0C0CCC13 
  34      FC4090
  35 0024 9907AC80 		.ascii	"\231\007\254\200\221\301\376\023###\003H'\262z\260\364"
  35      91C1FE13 
  35      23232303 
  35      4827B27A 
  35      B0F4
  36 0036 04BF414B 		.ascii	"\004\277AK31(\032aq6\310\203,@i \222Tb`\020\007\012"
  36      3331281A 
  36      617136C8 
  36      832C4069 
  36      20925462 
  37 004e 41BC4B18 		.ascii	"A\274K\030\2620\010\3311212BB\012kh@C\215\000\203\225"
  37      B23008D9 
  37      31323132 
  37      42420A6B 
  37      6840438D 
  38 0065 41581A8B 		.ascii	"AX\032\213\323\004$\031\030\370\3619\207\001\000@\316"
  38      D3042419 
  38      18F8F139 
  38      87010040 
  38      CE
  39 0076 4462     		.ascii	"Db"
  40              		.text
  41              		.section	.gnu.lto_.pureconst.ee889f05190af199,"",%progbits
  42 0000 789C6362 		.ascii	"x\234cb`b\340f\200\000V\006\011F\011&\011\026\011V\011"
  42      6062E066 
  42      80005606 
ARM GAS  /tmp/ccPWA4VS.s 			page 3


  42      09460926 
  42      09160956 
  43 0015 0003FD00 		.ascii	"\000\003\375\000\231"
  43      99
  44              		.text
  45              		.section	.gnu.lto_chprintf.ee889f05190af199,"",%progbits
  46 0000 789C8550 		.ascii	"x\234\205P\315J\002Q\024>\337\0355uc\333v\342\0034\213"
  46      CD4A0251 
  46      143EDF1D 
  46      357563DB 
  46      76E20334 
  47 0015 22E80D7A 		.ascii	"\"\350\015z\000\203Z\3058\216z\011\035\321Q\260\026"
  47      00835AC5 
  47      388E7A09 
  47      1DD151B0 
  47      16
  48 0026 5EC1C245 		.ascii	"^\301\302E\013ig\021)\321:\244\027\030\202\332DI\273"
  48      0B696711 
  48      29D13AA4 
  48      171882DA 
  48      4449BB
  49 0039 162D2497 		.ascii	"\026-$\227\265h\321*\202\351\336\031\024\372\201\016"
  49      B568D12A 
  49      82E9DE19 
  49      14FA810E 
  50 0049 DC7B7EBE 		.ascii	"\334{~\276s\276\363\303\210\321OY\220o\010\2425\251"
  50      73BEF3C3 
  50      88D14F59 
  50      906F08A2 
  50      35A9
  51 005b A11158F7 		.ascii	"\241\021X\367\236\250\025e\2002\010\324dhnB\245\262"
  51      9EA81565 
  51      803208D4 
  51      64686E42 
  51      A5B2
  52 006d 140D84DB 		.ascii	"\024\015\204\333\035_O\036\321\023n\273/>=\017\340\220"
  52      1D5F4F1E 
  52      D1136EBB 
  52      2F3E3D0F 
  52      E090
  53 007f B42B2013 		.ascii	"\264+ \023\264!\035$}\305B\337\373\250Z\321uOon!\016"
  53      B4211D24 
  53      7DC542DF 
  53      FBA85AD1 
  53      754F6F6E 
  54 0095 45EBCDF3 		.ascii	"E\353\315\363\022\034\032\243\325\377\012/\230\373\354"
  54      121C1AA3 
  54      D5FF0A2F 
  54      98FBEC
  55 00a4 794FC3F7 		.ascii	"yO\303\367\203W\364XLC\021\024\222\037\"d\340\014)\225"
  55      8357F458 
  55      4C431114 
  55      921F2264 
  55      E00C2995 
  56 00b8 13A6B624 		.ascii	"\023\246\266$O\032\030H\177\0325\375\241\323\362W\233"
  56      4F1A1848 
  56      7F1A35FD 
ARM GAS  /tmp/ccPWA4VS.s 			page 4


  56      A1D3F257 
  56      9B
  57 00c9 AC8329AD 		.ascii	"\254\203)\255\215ho\3343\015\234#,\321]\372\020\035"
  57      8D686FDC 
  57      330D9C23 
  57      2CD15DFA 
  57      101D
  58 00db 31CF1132 		.ascii	"1\317\0212\341\247\313\310\016Gx\312\344g\251\2514\""
  58      E1A7CBC8 
  58      0E4778CA 
  58      E467A9A9 
  58      3422
  59 00ed 2E3BD288 		.ascii	".;\322\210\366\307G\223x\200\344\021\231\021\314\231"
  59      F6C74793 
  59      7880E411 
  59      9911CC99 
  60 00fd 088E9B87 		.ascii	"\010\216\233\207\226G( \340\210\252\222\366\370\370"
  60      96472820 
  60      E088AA92 
  60      F6F8F8
  61 010c 77C798A9 		.ascii	"w\307\230\251H\377\356\310\021'\272\243\253\027\026"
  61      48FFEEC8 
  61      1127BAA3 
  61      AB1716
  62 011b 04027099 		.ascii	"\004\002p\231.EG\235[\312\003\265\372'\332l\214\340"
  62      2E45479D 
  62      5BCA03B5 
  62      FA27DA6C 
  62      8CE0
  63 012d 5469B983 		.ascii	"Ti\271\203\334Q\315\261\244\027\354\242\245\233v\266"
  63      DC51CDB1 
  63      A417ECA2 
  63      A59B76B6 
  64 013d A167ADBA 		.ascii	"\241g\255\272n\026x\206\333U\335\251\324J\333\2724\352"
  64      6E167886 
  64      DB55DDA9 
  64      D44ADBBA 
  64      34EA
  65 014f 4685DBB5 		.ascii	"F\205\333\265\252\004\312\025^rr\213\005bF9\221\263"
  65      AA04CA15 
  65      5E72728B 
  65      05624639 
  65      91B3
  66 0161 2B45C371 		.ascii	"+E\303q\254\354V\246\341X\325/\251H\201#"
  66      ACEC56A6 
  66      E158D52F 
  66      A9488123 
  67              		.text
  68              		.section	.gnu.lto_datasample_init.ee889f05190af199,"",%progbits
  69 0000 789C9DD6 		.ascii	"x\234\235\326Ak\323`\030\300\361\347y\3234\315\262,"
  69      416BD360 
  69      18C0F1E7 
  69      79D334CD 
  69      B22C
  70 0012 CD4229A5 		.ascii	"\315B)\245\266\265\224R\312\230\037@\020\374\020\023"
  70      B6B59452 
  70      CA981F40 
ARM GAS  /tmp/ccPWA4VS.s 			page 5


  70      10FC1013 
  71 0022 F5E02156 		.ascii	"\365\340!V\031\001\007\202\236\334a\231N\361\270\343"
  71      19010782 
  71      9EDC6199 
  71      4EF1B8E3 
  72 0032 70EC201E 		.ascii	"p\354 \036\004\205M\330\301\203\302\372\005T\374\006"
  72      04854DD8 
  72      C183C2FA 
  72      0554FC06 
  73 0042 030F2A1E 		.ascii	"\003\017*\036v\330aP\017\365}\222\352c\245\370\346M"
  73      76D86150 
  73      0FF57D92 
  73      EA63A5F8 
  73      E64D
  74 0054 4A9FB7B4 		.ascii	"J\237\267\264M\376\2776\245D\200\200\177\267\232\274"
  74      4DFEBF36 
  74      A5448080 
  74      7FB79ABC 
  75 0064 3F71D215 		.ascii	"?q\322\025\015@\261\375\021`\263$\020\351\001 l\010"
  75      0D40B1FD 
  75      1160B324 
  75      10E90120 
  75      6C08
  76 0076 DCB88EC9 		.ascii	"\334\270\216\311{\017\304\360x<\336\177\26352\226\020"
  76      7B0FC4F0 
  76      783CDE7F 
  76      B3353296 
  76      10
  77 0087 D7501E2E 		.ascii	"\327P\036.B0\345@\213\206-\207p\3509W\016\303\243\341"
  77      4230E540 
  77      8B862D87 
  77      70E83957 
  77      0EC3A3E1 
  78 009b D3086854 		.ascii	"\323\010hThTi\324h\324i4h\264\344(\264ithti\364h\364"
  78      685469D4 
  78      68D46934 
  78      68B4E428 
  78      B4697468 
  79 00b4 69C8AE09 		.ascii	"i\310\256\011[q\274}\036`\2208V\344$\334\025\024\264"
  79      5B71BC7D 
  79      1E609038 
  79      56E424DC 
  79      1514B4
  80 00c7 1A1FE0E1 		.ascii	"\032\037\340\341\350\321\3117\014\3619\232\260\212b"
  80      E8D1C937 
  80      0CF1399A 
  80      B08A62
  81 00d6 1D1E48C3 		.ascii	"\035\036H\303\022\274\212\345v)Bs\027\236a\204\305U"
  81      12BC8AE5 
  81      76294273 
  81      179E6184 
  81      C555
  82 00e8 C46B72B5 		.ascii	"\304kr\265\222\017s\023\377\372\026>\301\343\341\271"
  82      920F7313 
  82      FFFA163E 
  82      C1E3E1B9 
  83 00f8 747F8075 		.ascii	"t\177\200u\030\305O\343r\204\245\001\246oJ\2169\212"
ARM GAS  /tmp/ccPWA4VS.s 			page 6


  83      18C54FE3 
  83      7284A501 
  83      A66F4A8E 
  83      398A
  84 010a 77E2F846 		.ascii	"w\342\370F\204v\023\312{\361\316\345\010\347`\262K\204"
  84      847613CA 
  84      7BF1CEE5 
  84      08E760B2 
  84      4B84
  85 011c F21B4C18 		.ascii	"\362\033L\030\247\3140\023\006N\030W#\234g\221;[\204"
  85      A7CC3013 
  85      064E1857 
  85      239C6791 
  85      3B5B84
  86 012f 935568C8 		.ascii	"\223Uh\310\314T6<|/\017\264\320\204jj\363\350Uv\235"
  86      CC54363C 
  86      7C2F0FB4 
  86      D0846A6A 
  86      F3E85576 
  87 0144 B1CBCAEF 		.ascii	"\261\313\312\35724\\\326\224+\304}lN\223~2\311NH\202"
  87      32345CD6 
  87      942BC47D 
  87      6C4E937E 
  87      32C94E48 
  88 0159 49E5CCA4 		.ascii	"I\345\314\244\202\006\311V\221\306Lr\246~D\222df&\231"
  88      8206C956 
  88      91C64C72 
  88      A67E4492 
  88      64662699 
  89 016d 1A244745 		.ascii	"\032$GEz\361\375\017\311MH\006;\374\331\216\242F\337"
  89      7AF1FD0F 
  89      C94D4806 
  89      3BFCD98E 
  89      A246DF
  90 0180 55F55F72 		.ascii	"U\365_r\337\313\330\2674\372\236\252\377\232\373~\306"
  90      DFCBD8B7 
  90      34FA9EAA 
  90      FF9AFB7E 
  90      C6
  91 0191 7E49A3EF 		.ascii	"~I\243\357\253\372\007\334\0172\366m\215~\240\352\037"
  91      ABFA07DC 
  91      0F32F66D 
  91      8D7EA0EA 
  91      1F
  92 01a2 72BF92B1 		.ascii	"r\277\222\261?\247\321\257\250\372o\271_\315\330w4\372"
  92      3FA7D1AF 
  92      A8FA6FB9 
  92      5FCDD877 
  92      34FA
  93 01b4 5555FF1D 		.ascii	"UU\377\035\367k\031\373\363\032\375\232\252\177\304"
  93      F76B19FB 
  93      F31AFD9A 
  93      AA7FC4
  94 01c3 FD7AC6BE 		.ascii	"\375z\306\276\253\321\257\253\372_\270\337\310\330_"
  94      ABD1AFAB 
  94      FA5FB8DF 
  94      C8D85F
ARM GAS  /tmp/ccPWA4VS.s 			page 7


  95 01d2 D0E83754 		.ascii	"\320\3507T\375\257\334o%\375\002\377%.2%\230M\361&k"
  95      FDAFDC6F 
  95      25FD02FF 
  95      252E3225 
  95      984DF126 
  96 01e7 5983D452 		.ascii	"Y\203\324R\221~0\251\235\237\344k\220\332*\322\011\223"
  96      917E30A9 
  96      9D9FE46B 
  96      90DA2AD2 
  96      0993
  97 01f9 3AF9498B 		.ascii	":\371I\213\032\244\216\212t\312\244\256>)\310q\342\272"
  97      1AA48E8A 
  97      74CAA4AE 
  97      3E29C871 
  97      E2BA
  98 020b 2AD21993 		.ascii	"*\322\031\223z\371I:'\256\247\274\010aR??I\347\304\365"
  98      7AF9493A 
  98      27AEA7BC 
  98      0861523F 
  98      3F49E7C4 
  99 0220 FF43FA0C 		.ascii	"\377C\372\014\233\307G\342\367\336\351\266\"\367\224"
  99      9BC747E2 
  99      F7DEE9B6 
  99      22F794
 100 022f 57B97449 		.ascii	"W\271tI\350\336\012\357\207\367\302\265\273wn_\030@"
 100      E8DE0AEF 
 100      87F7C2B5 
 100      BB776E5F 
 100      1840
 101 0241 71F9A2BC 		.ascii	"q\371\242\274\201X\206_n\307\235F"
 101      8158865F 
 101      6EC79D46 
 102              		.text
 103              		.section	.gnu.lto_datasample_writeToLog.ee889f05190af199,"",%progbits
 104 0000 789C9DD5 		.ascii	"x\234\235\325Kk\023Q\024\007\360s\346\231w&/M\242H\021"
 104      4B6B1351 
 104      1407F073 
 104      E6997726 
 104      2F4DA248 
 105 0015 5C88E207 		.ascii	"\\\210\342\007p\243\237\300U\005\273\222\030K\030hD"
 105      70A39FC0 
 105      5505BB92 
 105      184B1868 
 105      44
 106 0026 A86EECA2 		.ascii	"\250n\354\242\267\255\013\221.\262,>\300\222E\301,\272"
 106      B7AD0B91 
 106      2EB22C3E 
 106      C09245C1 
 106      2CBA
 107 0038 70215841 		.ascii	"p!XA7.}m\\\007D\004\263p\321E\241\005\307s&\223\236"
 107      372E7D6D 
 107      5C074404 
 107      B370D145 
 107      A105C773 
 108 004f E652619C 		.ascii	"\346Ra\234!\375\337Nf\362\233son\3565\300\000\375h\320"
 108      21FDDF4E 
 108      66F29B73 
ARM GAS  /tmp/ccPWA4VS.s 			page 8


 108      6F6EEE35 
 108      C000FD68 
 109 0064 9F9302B8 		.ascii	"\237\223\002\270F-\232\200F\357\023\300J\312@\344\177"
 109      462D9A80 
 109      46EF13C0 
 109      4ACA40E4 
 109      7F
 110 0075 0061D9C0 		.ascii	"\000a\331\300\3459\344[\361,l*\325\033\376\370\266\336"
 110      E539E45B 
 110      F12C6C2A 
 110      D51BFEF8 
 110      B6DE
 111 0087 502F567B 		.ascii	"P/V{\352O\020\240\217\204z\010m\204\033t\2023acX\323"
 111      EA4F10A0 
 111      8F847A08 
 111      6D841B74 
 111      82336163 
 112 009d 4FD936DE 		.ascii	"O\3316\336\017\203\340\331\340\313\007<\215\330\345"
 112      0F83E0D9 
 112      E0CB073C 
 112      8DD8E5
 113 00ac CFF8689A 		.ascii	"\317\370h\232\024\226\305aS\330\016\277\347RP=\024i"
 113      1496C561 
 113      53D80EBF 
 113      E752503D 
 113      1469
 114 00be 8E0C4796 		.ascii	"\216\014G\226#\307\221\347(p\0249<\012\267\304Q\346"
 114      23C791E7 
 114      28701439 
 114      3C0AB7C4 
 114      51E6
 115 00d0 A8705439 		.ascii	"\250pT9j\034uh\341&\025\335\240\223T\223\236\312\275"
 115      6A1C7568 
 115      E12615DD 
 115      A0935493 
 115      9ECABD
 116 00e3 B0E121F5 		.ascii	"\260\341!\365af|\005\270l:f)\271\273\327\321\340\326"
 116      61667C05 
 116      B86C3A66 
 116      29B9BBD7 
 116      D1E0D6
 117 00f6 FC08ABFB 		.ascii	"\374\010\253\373k\273\277\260\205}\264\241\203\306\022"
 117      6BBBBFB0 
 117      857DB4A1 
 117      83C612
 118 0105 3CA0DA2E 		.ascii	"<\240\332.\300KE\307\025\037\323O\341\011u3\323A\344"
 118      C04B45C7 
 118      151FD34F 
 118      E1097533 
 118      D341E4
 119 0118 EE66C34E 		.ascii	"\356f\303N\336\302#=\016\211=!\314\220\260\"b\316\307"
 119      DEC2233D 
 119      0E893D21 
 119      CC90B022 
 119      62CEC7
 120 012b 9C68F9E3 		.ascii	"\234h\371\3435\214ZCS\017D\265\222\253\246\246\006\242"
 120      358C5A43 
ARM GAS  /tmp/ccPWA4VS.s 			page 9


 120      530F44B5 
 120      92ABA6A6 
 120      06A2
 121 013d DAA16A8B 		.ascii	"\332\241j\213Z\210\255Z\232\332\037\035\252\316\324"
 121      5A88AD5A 
 121      9ADA1F1D 
 121      AACED4
 122 014c 20929A8E 		.ascii	" \222\232\216\255\332\232\272%\252\033\252\216P\305"
 122      ADDA9ABA 
 122      25AA1BAA 
 122      8E50C5
 123 015b E3294723 		.ascii	"\343)G#\006B\244b\022\256Fl\013\221\216I\2444\342\225"
 123      0642A462 
 123      12AE466C 
 123      0B918E49 
 123      A434E295 
 124 016f 10999844 		.ascii	"\020\231\230DZ#^\013\221\215Id4bG\210\\L\"\253\021\357"
 124      5A235E0B 
 124      918D4964 
 124      34624788 
 124      5C4C22AB 
 125 0185 84C8C724 		.ascii	"\204\310\307$r\032\361]\210BL\"\257\021?\205(\306$\012"
 125      721AF15D 
 125      88424C22 
 125      AF113F85 
 125      28C6240A 
 126 0199 1A3112C2 		.ascii	"\0321\022\302\013\011W&\254'Z\351x\255\030\265\236\246"
 126      0B095726 
 126      AC275AE9 
 126      78AD18B5 
 126      9EA6
 127 01ab FE16B594 		.ascii	"\376\026\265\224\\-i\352\256\250\345\344jYS\367D\255"
 127      5C2D69EA 
 127      AEA8E5E4 
 127      6A5953F7 
 127      44AD
 128 01bd FCBF5AF9 		.ascii	"\374\277Z\371\307\010\034\210ZM\256\352#\020\210ZK\256"
 128      C7081C88 
 128      5A4DAEEA 
 128      2310885A 
 128      4BAE
 129 01cf 1E1981CF 		.ascii	"\036\031\201\317\360F\275\0358\023\264\276\004\373\352"
 129      F046BD1D 
 129      3813B4BE 
 129      04FBEA
 130 01de 91F27C2C 		.ascii	"\221\362|,\267\243\325h\374\216\272\357c\245\213\306"
 130      B7A3D568 
 130      FC8EBAEF 
 130      63A58BC6 
 131 01ee F8C670CF 		.ascii	"\370\306p\317\253*#\274\270\241\324\016\235\326\316"
 131      AB2A23BC 
 131      B8A1D40E 
 131      9DD6CE
 132 01fd 40F5B9DA 		.ascii	"@\365\271\332\270\352\343\011\210\356\242\215\2046\002"
 132      B8EAE309 
 132      88EEA28D 
 132      843602
ARM GAS  /tmp/ccPWA4VS.s 			page 10


 133 020c 5AB56989 		.ascii	"Z\265i\211\245\365\220\026/Z|h\361\350peY\372\361\321"
 133      A5F59016 
 133      2F5A7C68 
 133      F1E87065 
 133      59FAF1D1 
 134 0220 8F87263F 		.ascii	"\217\207&?M^\232|4S\350k\245\357\200\006\214z\347\343"
 134      4D5E9A7C 
 134      3453E86B 
 134      A5EF8006 
 134      8C7AE7E3 
 135 0234 C9B0CFA3 		.ascii	"\311\260\317\243\265\255\365\363\223\362\032T!\327\354"
 135      B5ADF5F3 
 135      93F21A54 
 135      21D7EC
 136 0243 460F80C3 		.ascii	"F\017\200\303r\353\355h\333\350`3\252\370\346T\305\364"
 136      72EBED68 
 136      DBE86033 
 136      AAF8E654 
 136      C5F4
 137 0255 612E9AB6 		.ascii	"a.\232\266\177\037\233\000_ae\370\270\037\015&_85\031"
 137      7F1F9B00 
 137      5F6165F8 
 137      B81F0D26 
 137      5F383519 
 138 0269 9159EA37 		.ascii	"\221Y\3527\355\211\254\345o\267\356\265\026[\335\273"
 138      ED89ACE5 
 138      6FB7EEB5 
 138      165BDDBB 
 139 0279 0BF397DA 		.ascii	"\013\363\227\332`.\314\337\271|n\361b\242W\006\376\002"
 139      602ECCDF 
 139      B97C6EF1 
 139      62A25706 
 139      FE02
 140 028b 4A9EC6DD 		.ascii	"J\236\306\335"
 141              		.text
 142              		.section	.gnu.lto_datasample_gpsToSample.ee889f05190af199,"",%progbits
 143 0000 789C9D93 		.ascii	"x\234\235\223\277K\303@\024\307\337\367\2224ijj\212"
 143      BF4BC340 
 143      14C7DFF7 
 143      9234696A 
 143      6A8A
 144 0012 93A02038 		.ascii	"\223\240 8\012\376%nV\320\301!V)\001\013\202.\332\241"
 144      0AFE256E 
 144      56D0C121 
 144      5629010B 
 144      822EDAA1 
 145 0026 A93FC041 		.ascii	"\251?\300A\241\253vQ\004\241\035ts\356\344\246\342\177"
 145      A1AB7651 
 145      04A11D74 
 145      73EEE4A6 
 145      E27F
 146 0038 D0C97FC0 		.ascii	"\320\311\177\300A\250C}\227\244MS\032h<\310\335\013"
 146      41A8437D 
 146      97A44D53 
 146      1A683CC8 
 146      DD0B
 147 004a BCFBBCF7 		.ascii	"\274\373\274\367\311]\004\011\032\037\363\374\254\251"
ARM GAS  /tmp/ccPWA4VS.s 			page 11


 147      C95D0409 
 147      1A1FF3FC 
 147      ACA9
 148 0058 44B3BC42 		.ascii	"D\263\274B!\210\306;Q\335\020\200\014\010T\023\250m"
 148      2188C63B 
 148      51DD1080 
 148      0C085413 
 148      A86D
 149 006a C1CF7D16 		.ascii	"\301\317}\026\235n\277\377\364\362z\327\002\346\200"
 149      9D6EBFFF 
 149      F4F27AD7 
 149      02E680
 150 0079 0A18E882 		.ascii	"\012\030\350\202\024\216\240r\004]N\006O\302\224QNF"
 150      148EA072 
 150      045D4E06 
 150      4FC29451 
 150      4E46
 151 008b 164F4A5E 		.ascii	"\026OJ^\276\3322\271 #\206it\356y\215%\242\222\017/"
 151      BEDA32B9 
 151      20238669 
 151      74EE798D 
 151      25A2920F 
 152 00a0 F22C2B6E 		.ascii	"\362,+n@\310Uy\243\323\336\331\367\325\242\203{hT\206"
 152      40C85579 
 152      A3D3DED9 
 152      F7D5A283 
 152      7B685486 
 153 00b4 A8D209EF 		.ascii	"\250\322\011\357^\241\266\307c\335\205\332\244[\270"
 153      5EA1B6C7 
 153      63DD85DA 
 153      A45BB8
 154 00c3 D0CAC026 		.ascii	"\320\312\300&\257\031\277\303\035\214\250\371\210/\014"
 154      AF19BFC3 
 154      1D8CA8F9 
 154      882F0C
 155 00d2 08AA4F40 		.ascii	"\010\252O@H8v\241\007\004\243\014E\022\262!a\004\361"
 155      483876A1 
 155      0704A30C 
 155      4512B221 
 155      6104F1
 156 00e5 41179D85 		.ascii	"A\027\235\205`?Q\225z\336\245g\2730Ka\016w\305X\227"
 156      603F5195 
 156      7ADEA567 
 156      BB304B61 
 156      0E77C558 
 157 00fa 35835A3F 		.ascii	"5\203Z?Q\273z\254\3306\027\213:\237\231\334\271\010"
 157      51BB7AAC 
 157      D836178B 
 157      3A9F99DC 
 157      B908
 158 010c 5765CCE0 		.ascii	"We\314\340Q\014\240\206\017\025!\351\206\367Z\223\025"
 158      510CA086 
 158      0F1521E9 
 158      86F75A93 
 158      15
 159 011d D4140A3A 		.ascii	"\324\024\012:s#\205\337H\301\374\277\2026\246\320\036"
 159      732385DF 
ARM GAS  /tmp/ccPWA4VS.s 			page 12


 159      48C1FCBF 
 159      8236A6D0 
 159      1E
 160 012e 2AE4620A 		.ascii	"*\344b\012\315d\205L\012\005\223\271\221B?R\260\374"
 160      CD64854C 
 160      0A0593B9 
 160      91423F52 
 160      B0FC
 161 0140 6A4AA490 		.ascii	"jJ\244\220\237ZAO<\205|\354\273\310SH\270HF\012\005"
 161      9F5A414F 
 161      3C857CEC 
 161      BBC85348 
 161      B848460A 
 162 0155 8BB991C2 		.ascii	"\213\271\221\302\303\365P\301\216\335{VP\247V\310&*"
 162      C3F550C1 
 162      8EDD7B56 
 162      50A756C8 
 162      262A
 163 0167 14A65530 		.ascii	"\024\246U0S(\330\314\365\025>\251\336m-\017R\203Q\344"
 163      5328D8CC 
 163      F5153EA9 
 163      DE6D2D0F 
 163      528351E4 
 164 017b 34FEAD65 		.ascii	"4\376\255ek\326\256s\344\034:\225\203\375\275\325\022"
 164      6BD6AE73 
 164      E41C3A95 
 164      83FDBDD5 
 164      12
 165 018c FD0189E0 		.ascii	"\375\001\211\340\347]"
 165      E75D
 166              		.text
 167              		.section	.gnu.lto_printDataSample.ee889f05190af199,"",%progbits
 168 0000 789C9DD4 		.ascii	"x\234\235\324\277K\033a\030\007\360\347y\357.w\271\344"
 168      BF4B1B61 
 168      1807F0E7 
 168      79EF2E77 
 168      B9E4
 169 0012 62747391 		.ascii	"bts\221\200\024*\025\377\200N\006\2216`\212\324\023"
 169      80142A15 
 169      FF804E06 
 169      9136608A 
 169      D413
 170 0024 EB98A612 		.ascii	"\353\230\246\022\016\032P\322I\007_\177\014.-\216\322"
 170      0E1A50D2 
 170      49075F7F 
 170      0C2E2D8E 
 170      D2
 171 0035 56A87410 		.ascii	"V\250t\020\024\352\320!C\027'7\225N:\272;\264\320\241"
 171      14EAD021 
 171      43172737 
 171      954E3ABA 
 171      3BB4D0A1 
 172 0049 6087F479 		.ascii	"`\207\364y\337\273\370\264/\031\216\034\311\367y\363"
 172      DFBBF8B4 
 172      2F198E1C 
 172      C9F779F3 
 173 0059 DEE5F3DE 		.ascii	"\336\345\363\336\335{\357\011\020`n\303\364\365\034"
ARM GAS  /tmp/ccPWA4VS.s 			page 13


 173      DD7BEF09 
 173      10606EC3 
 173      F4F51C
 174 0068 801655B4 		.ascii	"\200\026U\264\000\305\356\005\300\206'\020U\003\020"
 174      00C5EE05 
 174      C0862710 
 174      550310
 175 0077 D605AE2F 		.ascii	"\326\005\256/\242>\366D\234\336t:_~\236}\272F\034Dl"
 175      A23EF644 
 175      9CDE743A 
 175      5F7E9E7D 
 175      BA461C44 
 176 008c 22811182 		.ascii	"\"\201\021\202E\201\266\012\207BdT\237Kay*\262*|\025"
 176      4581B60A 
 176      87426454 
 176      9F4B6179 
 176      2AB22A7C 
 177 00a1 3915790A 		.ascii	"9\025y\012;PQPA\254\003\333R\356\226\000\352z\230\220"
 177      3B505150 
 177      41AC03DB 
 177      52EE9600 
 177      EA7A9890 
 178 00b5 528D3D8F 		.ascii	"R\215=\217BU\353\0346\357\266n\337\216\324\360\200\374"
 178      4255EB1C 
 178      36EFB66E 
 178      DF8ED4F0 
 178      80FC
 179 00c7 068A3558 		.ascii	"\006\2125X\245\001\036\301\221\244m!B\347\003\274\307"
 179      A5011EC1 
 179      91A46D21 
 179      42E703BC 
 179      C7
 180 00d8 08330DC4 		.ascii	"\0103\015\304\027T]}\256/\361\237\213\324\304\017&,"
 180      17545D7D 
 180      AE2FF19F 
 180      8BD4C40F 
 180      262C
 181 00ea 4D6042AC 		.ascii	"M`B\254D\350\261\226\355\255aR\205\241\376b\325\356"
 181      44E8B196 
 181      EDAD6152 
 181      85A1FE62 
 181      D5EE
 182 00fc 5FB50CF5 		.ascii	"_\265\014\3657\253\216V\005\253~j\3256\324?\254f\376"
 182      37AB8E56 
 182      05AB7E6A 
 182      D536D43F 
 182      AC66FE
 183 010f BB89A43A 		.ascii	"\273\211\244:\251U\307P;\254\272Z\265\230\312\365\246"
 183      A955C750 
 183      3BACBA5A 
 183      B598CAF5 
 183      A6
 184 0120 3206F1F9 		.ascii	"2\006\361\371\335=\341\245$\\\2038d\"\233\222\360\014"
 184      DD3DE1A5 
 184      245C8338 
 184      64229B92 
 184      F00C
ARM GAS  /tmp/ccPWA4VS.s 			page 14


 185 0132 E298093F 		.ascii	"\342\230\011?%\2215\210\023&r)\011\337 \2762\221\327"
 185      25913588 
 185      13267229 
 185      09DF20BE 
 185      3291D7
 186 0145 84CD9394 		.ascii	"\204\315\223\224g-\350\255\345\222\2327\3246\253A\377"
 186      672DE8AD 
 186      E5929A37 
 186      D436AB41 
 186      FF
 187 0156 6A60A8DF 		.ascii	"j`\250\337X-\364\257\026X\275\244\377|l/\307(\300\032"
 187      582DF4AF 
 187      1658BDA4 
 187      FF7C6C2F 
 187      C728C01A 
 188 016a DCC91D59 		.ascii	"\334\311\035Y\214\260PO\036\277\270G\356\0233\320DL"
 188      8CB0504F 
 188      1EBFB847 
 188      EE1333D0 
 188      444C
 189 017c 0E54BD7B 		.ascii	"\016T\275{R^Qoq\004\212\373ro2\302AH\366\322+\203\226"
 189      525E516F 
 189      71048AFB 
 189      726F32C2 
 189      4148F6D2 
 190 0193 3CAD4F5A 		.ascii	"<\255OZL\015u\026.=f\364\230\3204\3234\321m\246{B\027"
 190      4C0D7516 
 190      2E3D66F4 
 190      98D034D3 
 190      34D16DA6 
 191 01aa 10E110C0 		.ascii	"\020\341\020\300w\330\270\271\036\355\216\037o!\215"
 191      77D8B8B9 
 191      1EED8E1F 
 191      6F218D
 192 01b9 4D2F22B5 		.ascii	"M/\"\265\362\203W\2657\265V\255\271\374zi\242\016\365"
 192      F28357B5 
 192      37B556AD 
 192      B9FC7A69 
 192      A20EF5
 193 01cc B0527DFC 		.ascii	"\260R}\374\2405^\232)\207q}\366D\327\362L\374{.\351"
 193      A0355E9A 
 193      2987717D 
 193      F644D7F2 
 193      4CFC7B2E 
 194 01e1 0FABB395 		.ascii	"\017\253\263\225ncZ7f\237\317\351\372t\276Z\3516\342"
 194      6E635A37 
 194      669FCFE9 
 194      FA74BE5A 
 194      E936E2
 195 01f4 3DE5A9A9 		.ascii	"=\345\251\251\207T\365g\314\207\277g\220.D"
 195      8754F567 
 195      CC87BF67 
 195      902E44
 196              		.text
 197              		.section	.gnu.lto_.symbol_nodes.ee889f05190af199,"",%progbits
 198 0000 789C4DCE 		.ascii	"x\234M\316KN\303@\020\204\341\232\262\215\023\303\035"
 198      4B4EC340 
ARM GAS  /tmp/ccPWA4VS.s 			page 15


 198      1084E19A 
 198      B28D13C3 
 198      1D
 199 0011 381B2769 		.ascii	"8\033'i\203\301q\022\362\020\354\263H/8\210\367\234"
 199      83C17112 
 199      F210ECB3 
 199      482F3888 
 199      F79C
 200 0023 01942D67 		.ascii	"\001\224-g@x2\025&\263\371\365\265Z\243&\210\217\200"
 200      40783215 
 200      26B3F9F5 
 200      B55AA326 
 200      888F80
 201 0036 F4D8D280 		.ascii	"\364\330\322\200\375'`\266\031\036\370H\013\342a\010"
 201      FD2760B6 
 201      191EF848 
 201      0BE26108 
 202 0046 EC68CCAC 		.ascii	"\354h\314\254\236\210\322\012>\323\212\253\245\027Z"
 202      9E88D20A 
 202      3ED38AAB 
 202      A5175A
 203 0055 79B5B464 		.ascii	"y\265\264d\200!\274\322\2524m\333\020\326\264\233\254"
 203      8021BCD2 
 203      AA346DDB 
 203      10D6B49B 
 203      AC
 204 0066 15ADCEEA 		.ascii	"\025\255\316\352i\263\254\2016\317Z\320\232\177\025"
 204      69B3AC81 
 204      36CF5AD0 
 204      9A7F15
 205 0075 98A3FBFA 		.ascii	"\230\243\373\372\235:\203\237[c\214\015M\362\324\323"
 205      9D3A839F 
 205      5B638C0D 
 205      4DF2D4D3 
 206 0085 C5DFB2EA 		.ascii	"\305\337\262\352\375\317\375\331\252/d\325W\262\352"
 206      FDCFFDD9 
 206      AA2F64D5 
 206      57B2EA
 207 0094 6B59F5AD 		.ascii	"kY\365\255\254\372NV\375MV\375]\216\345\035\272\370"
 207      ACFA4E56 
 207      FD4D56FD 
 207      5D8EE51D 
 207      BAF8
 208 00a6 0F6F31C6 		.ascii	"\017o1\306\226M\272\273\324\235S\273>\315O\352\030\357"
 208      964DBABB 
 208      D49D53BB 
 208      3ECD4FEA 
 208      18EF
 209 00b8 AA80E354 		.ascii	"\252\200\343T\374\001\242&}\212"
 209      FC01A226 
 209      7D8A
 210              		.text
 211              		.section	.gnu.lto_.refs.ee889f05190af199,"",%progbits
 212 0000 789C6362 		.ascii	"x\234cb`b\340f\200\000&&&f&fFV&6\006\000\001\337\000"
 212      6062E066 
 212      80002626 
 212      26662666 
ARM GAS  /tmp/ccPWA4VS.s 			page 16


 212      46562636 
 213 0019 2C       		.ascii	","
 214              		.text
 215              		.section	.gnu.lto_.decls.ee889f05190af199,"",%progbits
 216 0000 789CBD7D 		.ascii	"x\234\275}\011\230\024E\266nf\326\332t\013\270\243\343"
 216      09981445 
 216      B66E66D6 
 216      DA740BB8 
 216      A3E3
 217 0012 8C35F78D 		.ascii	"\2145\367\215\367s\346\315\330,.83\327\215\006\341\015"
 217      F773E6CD 
 217      D82C2E38 
 217      33D78D06 
 217      E10D
 218 0024 487FDD38 		.ascii	"H\177\3358\216\337\273\357\225Iu5\224vw\265U\325,s\357"
 218      8EDFBBEF 
 218      95497535 
 218      947677B5 
 218      55D52C73 
 219 0039 7D26BB8A 		.ascii	"}&\273\212b\263\311\276\250 *\210l\315\336P\0026K+4"
 219      62B3C9BE 
 219      A8202A88 
 219      6CCDDE50 
 219      02364B2B 
 220 004e 8B2C22D0 		.ascii	"\213,\"\320\212 \213\262c\263\367;q\"\263*2;3+\262\235"
 220      8A208BB2 
 220      63B3F73B 
 220      7122B32A 
 220      323B332B 
 221 0064 B9F57D79 		.ascii	"\271\365}y**:\343\217sN\2348q\"22Z\022$\301\355\026"
 221      2A2A3AE3 
 221      8F734E9C 
 221      38712232 
 221      325A1224 
 222 007b 8446F8BC 		.ascii	"\204F\370\2744]\020^h-\010^A\020\036\203\353&\270\340"
 222      345D105E 
 222      682D085E 
 222      41101E83 
 222      EB26B8E0 
 223 008f 4FC23B70 		.ascii	"O\302;p\275\013\327\007p}\010\327\\\270\346\303\265"
 223      BD0BD707 
 223      707D08D7 
 223      5CB8E6C3 
 223      B5
 224 00a0 10AE2570 		.ascii	"\020\256%pU\301\265\014\256\373$A\370W\270\310'\033"
 224      55C1B50C 
 224      AEFB2441 
 224      F857B8C8 
 224      271B
 225 00b2 AEFB21FD 		.ascii	"\256\373!\375\024\\#\341\372=\000\345\301\325\025\256"
 225      145C23E1 
 225      FA3D00E5 
 225      C1D515AE 
 226 00c2 6E703D07 		.ascii	"np=\007\327\337\340\372?p\025\301E\212\275\010\337%"
 226      D7DFE0FA 
 226      3F7015C1 
 226      458ABD08 
ARM GAS  /tmp/ccPWA4VS.s 			page 17


 226      DF25
 227 00d4 6E41F721 		.ascii	"nA\367!\030\004\353\031\310o\011\3379*Oe@bpE\341\212"
 227      1804EB19 
 227      C86F09DF 
 227      392A4F65 
 227      40627045 
 228 00ea C3F5BFE0 		.ascii	"\303\365\277\340J\300U\241\226w\253e\237S\353\353\252"
 228      4AC055A1 
 228      9677AB65 
 228      9F53EBEB 
 228      AA
 229 00fb D6F16F40 		.ascii	"\326\361o@\036\227\364u\020\036o\203\357\376p\317\000"
 229      1E97F475 
 229      101E6F83 
 229      EFFE70CF 
 229      00
 230 010c B806C2F5 		.ascii	"\270\006\302\365w\270\376\003\256\356\360\267.pu\206"
 230      77B8FE03 
 230      AEEEF0B7 
 230      2E707586 
 231 011c EB3FDD69 		.ascii	"\353?\335i\035<\017\351\277B^\276\224\326\317\277C:"
 231      1D3C0FE9 
 231      BF425EBE 
 231      94D6CFBF 
 231      433A
 232 012e 04D77FC1 		.ascii	"\004\327\177\301\325_\305\374\013|\367\204\353Y\270"
 232      D55FC5FC 
 232      0B7CF784 
 232      EB59B8
 233 013d 9E87EB7F 		.ascii	"\236\207\353\177\303\025\204\2537\\1\270\022p\025\303"
 233      C31584AB 
 233      375C31B8 
 233      127015C3 
 234 014d F5225C25 		.ascii	"\365\"\\%p\365\205\253\034\2562\270\372\221:\341R\340"
 234      70F585AB 
 234      1CAE32B8 
 234      FA913AE1 
 234      52E0
 235 015f 1A0CD730 		.ascii	"\032\014\3270\211\312@\370%\272\023!\375\252A\026\242"
 235      89CA40F8 
 235      25BA1321 
 235      FDAA4116 
 235      A2
 236 0170 EB7B54F9 		.ascii	"\353{T\3715}\231\311\345\022\364\262i\262\030e\370/"
 236      357D99C9 
 236      E512F4B2 
 236      69B21865 
 236      F82F
 237 0182 376D6FB6 		.ascii	"7mo\266\255\303\220\367\377\334\324\006\376/|\277\371"
 237      ADC390F7 
 237      FFDCD406 
 237      FE2F7CBF 
 237      F9
 238 0193 4F92D5A5 		.ascii	"O\222\325\245\312S\244\332\011\371}?|\377\326Mm\205"
 238      CA53A4DA 
 238      09F97D3F 
 238      7CFFD64D 
ARM GAS  /tmp/ccPWA4VS.s 			page 18


 238      6D85
 239 01a5 FD10FB6A 		.ascii	"\375\020\373j\305\310\372\212*\257Q\306\266\220\227"
 239      C5C8FA8A 
 239      2AAF51C6 
 239      B69097
 240 01b4 EBA66D49 		.ascii	"\353\246mI\332\220\310\334\321M\345\316Vex\330\235\226"
 240      DA90C8DC 
 240      D14DE5CE 
 240      566578D8 
 240      9D96
 241 01c6 E3113795 		.ascii	"\343\0217\225\345\217n*\317\237\334T\246?\253\366\364"
 241      E58F6E2A 
 241      CF9FDC54 
 241      A63FABF6 
 241      F4
 242 01d7 7BD58E49 		.ascii	"{\325\216I\372I\370~\334\300\027\261\371[9l\313J\377"
 242      FA49F87E 
 242      DCC017B1 
 242      F95B396C 
 242      CB4AFF
 243 01ea 8A5BDFB7 		.ascii	"\212[\337\267~+Q93\351\372EF\277F\335J*_\367\253\351"
 243      7E2B5139 
 243      33E9FA45 
 243      46BF46DD 
 243      4A2A5FF7 
 244 0200 2E26FD2E 		.ascii	".&\375.[x]Q\006+3\207+]7\265\274Y\250T\3403\363\211"
 244      5B785D51 
 244      062B3387 
 244      2B5D37B5 
 244      BC59A854 
 245 0218 892DB384 		.ascii	"\211-\263\204WI~\375l\245M\033\220\\\224E\310\362c\""
 245      57497EFD 
 245      6CA54D1B 
 245      905C9445 
 245      C8F26322 
 246 022c 270B2DF2 		.ascii	"'\013-\362>a\026\334\013\005$Y|O\314\202\032$Q0\375"
 246      3E6116DC 
 246      0B052459 
 246      7C4FCC82 
 246      1A245130 
 247 0241 D0BFFF4E 		.ascii	"\320\277\377N\370\220\336\377\255\3616\002J\356H\247"
 247      F890DEFF 
 247      ADF13602 
 247      4AEE48A7 
 248 0251 1AC5549D 		.ascii	"\032\305T\235\255\265:%\025\353]\361fL!\207\212\312"
 248      ADB53A25 
 248      15EB5DF1 
 248      664C2187 
 248      8ACA
 249 0263 39DEA196 		.ascii	"9\336\241\226\010h%\334j\2119\210-h\331\002+\205\226"
 249      086825DC 
 249      6A893988 
 249      2D68D902 
 249      2B8596
 250 0276 6F56EE1D 		.ascii	"oV\356\0351\333NM\201\211-)\267j\371\266Zy\257Z\376"
 250      31DB4E4D 
 250      81892D29 
ARM GAS  /tmp/ccPWA4VS.s 			page 19


 250      B76AF9B6 
 250      5A79AF5A 
 251 028b 43C79C7E 		.ascii	"C\307\234~d\301\251'\003\247\0378\343Ti\243\001(.\025"
 251      64C1A927 
 251      03A71F38 
 251      E35469A3 
 251      01282E15 
 252 029f 619E635E 		.ascii	"a\236c^?\266\340\265Q\312\300\354\3344\263~a\004Z\331"
 252      3FB6E0B5 
 252      51CAC0EC 
 252      DC34B37E 
 252      61045AD9 
 253 02b3 306590F8 		.ascii	"0e\220\370rf3\233/\372\301\014ZZ\232\031\371\273V3M"
 253      7266339B 
 253      2FFAC10C 
 253      5A5A9A19 
 253      F9BB5633 
 254 02c8 6B295195 		.ascii	"k)Q\225LS\2149wXWe\375\276\005\323r\025\305/\213\013"
 254      4C538C39 
 254      77585765 
 254      FDBE05D3 
 254      7215C52F 
 255 02de D1AC9F16 		.ascii	"\321\254\237\026\001\372}\361w\251j<Y\372j\341\267v"
 255      01FA7DF1 
 255      77A96A3C 
 255      59FA6AE1 
 255      B776
 256 02f0 0301F364 		.ascii	"\003\001\363d\245\023d\270m\305\327(u.\215\225?\252"
 256      A51364B8 
 256      6DC5D728 
 256      752E8D95 
 256      3FAA
 257 0302 B8558EDB 		.ascii	"\270U\216\333d\251E\233<\232\241I\226X\330\317-\302"
 257      64A9459B 
 257      3C9AA149 
 257      9658D8CF 
 257      2DC2
 258 0314 68649551 		.ascii	"hd\225QX\262\263Vx\257?\255\262\352\341G\266\213C\024"
 258      58B2B356 
 258      78AF3FAD 
 258      B2EAE147 
 258      B68B4314 
 259 0328 05FEB25C 		.ascii	"\005\376\262\\\274\005\2246T\324k-3\222,\256\024%\240"
 259      BC059436 
 259      54D46B2D 
 259      33922CAE 
 259      1425A0
 260 033b ABA03C2D 		.ascii	"\253\240<-I\233>yyD\216\342\246\371\202\016S\367\371"
 260      499B3E79 
 260      79448EE2 
 260      A6F9820E 
 260      53F7F9
 261 034e B53013F8 		.ascii	"\2650\023\370N^\3378\353.e\346:\321L\014\270Ad\352\007"
 261      4E5EDF38 
 261      EB2E65E6 
 261      3AD14C0C 
 261      B84164EA 
ARM GAS  /tmp/ccPWA4VS.s 			page 20


 262 0363 37A9D61F 		.ascii	"7\251\326\037\020\210\203\034\015,\233\260\251\277M"
 262      1088831C 
 262      0D2C9BB0 
 262      A9BF4D
 263 0372 1693C8E5 		.ascii	"\026\223\310\345\247F.wR.?\345\342\362\313\215\233E"
 263      A7462E77 
 263      522E3FE5 
 263      E2F2CB8D 
 263      9B45
 264 0384 654C8E8E 		.ascii	"eL\216\216\311;\204\361j++b\202\332\236Us}&\336\201"
 264      C93B84F1 
 264      6A2B2B62 
 264      82DA9E55 
 264      737D26DE 
 265 0399 2917758A 		.ascii	")\027u\212\262\370x\266\226\326A\246\234x\262\315\304"
 265      B2F878B6 
 265      96D641A6 
 265      9C78B2CD 
 265      C4
 266 03aa 9636DDAB 		.ascii	"\2266\335\253\262~\354\310\217\377'\230<\343\365\255"
 266      B27EECC8 
 266      8FFF2798 
 266      3CE3F5AD 
 267 03ba 0AC8E216 		.ascii	"\012\310\342\026\361>\240\242\336\350S\356[\365\336"
 267      F13EA0A2 
 267      DEE853EE 
 267      5BF5DE
 268 03c9 925063B0 		.ascii	"\222Pc\260\000\016l\315\230FM\357\210\375\357\013\354"
 268      000E6CCD 
 268      98464DEF 
 268      88FDEF0B 
 268      EC
 269 03da 7F432463 		.ascii	"\177C$c\007\024\015\0350\003/N\356\265R\371\246t\017"
 269      07140D1D 
 269      30032F4E 
 269      EEB552F9 
 269      A6740F
 270 03ed 6115BF90 		.ascii	"a\025\277\220\262\"\213\317\272R\177\264\202\330\220"
 270      B2228BCF 
 270      BA527FB4 
 270      82D890
 271 03fc 86902096 		.ascii	"\206\220 \226\022U+2\273=\325\177\031<\235\005A\207"
 271      12552B32 
 271      BB3DD57F 
 271      193C9D05 
 271      4187
 272 040e BBD86E92 		.ascii	"\273\330n\222\222\034\352j\256\015\355\342\264!Y\254"
 272      921CEA6A 
 272      AE0DEDE2 
 272      B42159AC 
 273 041e B541D9F3 		.ascii	"\265A\331\363\363\325\262\223U\313X\307j\011\260jQ\026"
 273      F3D5B293 
 273      55CB58C7 
 273      6A09B06A 
 273      5116
 274 0430 294A96D7 		.ascii	")J\226\327Z%:Oj;\006\234\035\263Msh\007\320\012\277"
 274      5A253A4F 
ARM GAS  /tmp/ccPWA4VS.s 			page 21


 274      6A3B069C 
 274      1DB34D73 
 274      6807D00A 
 275 0445 914CCC99 		.ascii	"\221L\314\231\013jl\355\206\205\342`\204\252G\250\357"
 275      0B6A6CED 
 275      8685E260 
 275      84AA47A8 
 275      EF
 276 0456 9B0D55BD 		.ascii	"\233\015U\275u\031\355\031\207\021\350t\223\236\341"
 276      7519ED19 
 276      8711E874 
 276      939EE1
 277 0465 35F40CAF 		.ascii	"5\364\014\257\336\332\341'\251\351\022\031\226\304W"
 277      DEDAE127 
 277      A9E91219 
 277      96C457
 278 0474 D41CF2C3 		.ascii	"\324\034\362\303'\374\267\227\263\262\207\257\255\015"
 278      27FCB797 
 278      B3B287AF 
 278      AD0D
 279 0482 93DA22AF 		.ascii	"\223\332\"\257a\355g\015\3532\217a\371Y<\2015,\276\376"
 279      61ED670D 
 279      EB328F61 
 279      F9593C81 
 279      352CBEFE 
 280 0496 76C0A6A7 		.ascii	"v\300\246\247\2344\021\213K\214\023b6\333\310\222p\335"
 280      9C34118B 
 280      4B8C1362 
 280      36DBC892 
 280      70DD
 281 04a8 B1288EFA 		.ascii	"\261(\216\372\210\275\030g8ZG\375\315\037p\215\235\274"
 281      88BD1867 
 281      385A47FD 
 281      CD1F708D 
 281      9DBC
 282 04ba F47768D6 		.ascii	"\364wh\326\027\320\254W\272LG\016\036\240\221\237}\252"
 282      17D0AC57 
 282      BA4C470E 
 282      1EA0919F 
 282      7DAA
 283 04cc 76B50684 		.ascii	"v\265\006\204\332\320l\250\352Q\253\037E\236\256 \320"
 283      DAD06CA8 
 283      EA51AB1F 
 283      459EAE20 
 283      D0
 284 04dd 172E6357 		.ascii	"\027.cW\363\031\272\232Oo\372\276\254tB\215\002\377"
 284      F319BA9A 
 284      4F6FFABE 
 284      AC74428D 
 284      02FF
 285 04ef E9B773D9 		.ascii	"\351\267s\331\323i\266[\354uq\330Rk\026O`m\351\347w"
 285      D369B65B 
 285      EC7571D8 
 285      526B164F 
 285      606DE9E7 
 286 0504 0B45B2B1 		.ascii	"\013E\262\261\247\013\016z{#+\326\001\307b\005X\261"
 286      A70B0E7A 
ARM GAS  /tmp/ccPWA4VS.s 			page 22


 286      7B232BD6 
 286      01C76205 
 286      58B1
 287 0516 327711BB 		.ascii	"2w\021\273\221u\270\235Hj\034a\034)\233%\3620\211\021"
 287      9175B89D 
 287      486A1C61 
 287      1C299B25 
 287      F2308911 
 288 052a F95B1E91 		.ascii	"\371[\036\221\333X\266\344\317\023y\224\235\310{\376"
 288      DB58B6E4 
 288      CF137994 
 288      9DC87BFE 
 289 053a 8122BFC9 		.ascii	"\201\"\277\311\212|\334\261\310\001A\377\321\272\224"
 289      8A7CDCB1 
 289      C80141FF 
 289      D1BA94
 290 0549 2CAE177F 		.ascii	",\256\027\177\015t\007\322\257\220\036Gz\012\351\015"
 290      0D7407D2 
 290      AF901E47 
 290      7A0AE90D 
 291 0559 A4432542 		.ascii	"\244C%B\337\000\232\221\3175\2545\236F>W53\326S\222"
 291      DF009A91 
 291      CF35AC35 
 291      9E463E57 
 291      3533D653 
 292 056e 3736E654 		.ascii	"76\346T\312\332\034\306\233\301o\355>\264MD\277\365"
 292      CADA1CC6 
 292      9BC16FED 
 292      3EB44D44 
 292      BFF5
 293 0580 B644E661 		.ascii	"\266D\346a\037\271M\347a\3260\222\260\002\213L\222\014"
 293      1FB94DE7 
 293      61D63092 
 293      B0028B4C 
 293      920C
 294 0592 139C65C3 		.ascii	"\023\234e\303o#\023\034\222\237y\202\263b\3704\313i"
 294      6F23131C 
 294      929F7982 
 294      B362F834 
 294      CB69
 295 05a4 183BB99A 		.ascii	"\030;\271\232)ju\337\226\022!\271\377\272\030\220\305"
 295      296A75DF 
 295      961221B9 
 295      FFBA1890 
 295      C5
 296 05b5 E9C87F8D 		.ascii	"\351\310\177\2159\377\326\030\222\260\007\213\274c\344"
 296      39FFD618 
 296      92B0078B 
 296      BC63E4
 297 05c4 FFA21CA0 		.ascii	"\377\242\034\240\271\231\271o8\216\3233Y\234\006\346"
 297      B999B96F 
 297      388ED333 
 297      599C06E6 
 298 05d4 26094753 		.ascii	"&\011GS\200\315\212\325\223\327\302\233\332fT\204[\003"
 298      80CD8AD5 
 298      93D7C29B 
 298      DA665484 
ARM GAS  /tmp/ccPWA4VS.s 			page 23


 298      5B03
 299 05e6 CA4BB7E5 		.ascii	"\312K\267\345\230\311\033h[~\200\2728\305\241\013\035"
 299      98C91B68 
 299      5B7E80BA 
 299      38C5A10B 
 299      1D
 300 05f7 8C243460 		.ascii	"\214$4`\221\271\006]\324\217=Q\377\213\211\212\322\232"
 300      91B9065D 
 300      D48F3D51 
 300      FF8B898A 
 300      D29A
 301 0609 FE29B342 		.ascii	"\376)\263B\256\252\315)\213sP#K=\032l\3634r\243\006"
 301      AEAACD29 
 301      8B735023 
 301      4B3D1A6C 
 301      F33472A3 
 302 061e 2C5A03AB 		.ascii	",Z\003\253v\014\026\320\201\215\3358\025\231\343\037"
 302      760C16D0 
 302      818DDD38 
 302      1599E31F 
 303 062e DBCFEED8 		.ascii	"\333\317\356\330\252\005\367\213%\014\023<\306\321\275"
 303      AA05F78B 
 303      250C133C 
 303      C6D1BD
 304 063d C138C7CC 		.ascii	"\3018\307\314<\000K\302\347<\222X\006\231\244Y\352\356"
 304      3C004BC2 
 304      E73C9258 
 304      0699A459 
 304      EAEE
 305 064f 59018EF8 		.ascii	"Y\001\216\3705/G7\335\211\225-76m\303\251\272?\320\246"
 305      352F4737 
 305      DD89952D 
 305      37366DC3 
 305      A9BA3FD0 
 306 0664 5DCED5B4 		.ascii	"]\316\325\264\313j'\360\365T\257V}\021V?\336K\252\257"
 306      CB6A27F0 
 306      F554AF56 
 306      7D11563F 
 306      DE4BAAAF 
 307 0678 6E6259E7 		.ascii	"nbY\347\217=F\253\257\346\252\376\320\266qM\253\227"
 307      8F3D46AB 
 307      AFE6AAFE 
 307      D0B6714D 
 307      AB97
 308 068a C5C76EB7 		.ascii	"\305\307n\267k\277\206Sg\356\237\201\225|\212\026t\310"
 308      6BBF8653 
 308      67EE9F81 
 308      957C8A16 
 308      74C8
 309 069c 6B6CBEC7 		.ascii	"kl\276\307\331i\251\026l31\364\261\024\367\3152`\020"
 309      D969A916 
 309      6C3331F4 
 309      B114F7CD 
 309      326010
 310 06af 33F9F887 		.ascii	"3\371\370\207\330R\032\017?8F\324[\361\271m\330%(\330"
 310      D8521A0F 
 310      3F3846D4 
ARM GAS  /tmp/ccPWA4VS.s 			page 24


 310      5BF1B96D 
 310      D82528D8 
 311 06c3 191E30EB 		.ascii	"\031\0360\353\331J\362\002\013v\3011\230\236\263\237"
 311      D94AF202 
 311      0B76C131 
 311      989EB39F 
 312 06d3 58B04B3C 		.ascii	"X\260K<`\326\001c\362\022\013v\3151\230\236\263+,\230"
 312      60D60163 
 312      F2120B76 
 312      CD31989E 
 312      B32B2C98 
 313 06e7 E2E300B3 		.ascii	"\342\343\000\263\016\200\222\327X\260\241\216\301\364"
 313      0E8092D7 
 313      58B0A18E 
 313      C1F4
 314 06f5 9CDD60C1 		.ascii	"\234\335`\301^\345\001\013XsV\271\203\001{\3031\230"
 314      5EE5010B 
 314      587356B9 
 314      83017BC3 
 314      3198
 315 0707 9EB3312C 		.ascii	"\236\2631,X%\017\330\375\326\234\215c\301\3069\006\323"
 315      58250FD8 
 315      FDD69C8D 
 315      63C1C639 
 315      06D3
 316 0719 73F6360B 		.ascii	"s\3666\0136\221\007\254\2555g\023Y\260\251\216\301\364"
 316      369107AC 
 316      AD356713 
 316      59B0A98E 
 316      C1F4
 317 072b 9C4D66C1 		.ascii	"\234Mf\301f\362\200u\264\346l*\0136\3131\230\236\263"
 317      66F28075 
 317      B4E66C2A 
 317      0B36CB31 
 317      989EB3
 318 073e 052CD807 		.ascii	"\005,\330\007<`OXs\266\210\005\233\353\030L\317\331"
 318      3C604F58 
 318      73B68805 
 318      9BEB184C 
 318      CFD9
 319 0750 12166C3E 		.ascii	"\022\026l>\017XWk\316\226\262`\013\035\203\3519[\316"
 319      0F58576B 
 319      CE96B260 
 319      0B1D83E9 
 319      395BCE
 320 0763 822DE101 		.ascii	"\202-\341\001\313\267\346l%\013\266\3141\230\236\263"
 320      CBB7E66C 
 320      250BB6CC 
 320      31989EB3 
 321 0773 D52CD84A 		.ascii	"\325,\330J\036\260\277Ys\266\206\005[\343\030L\317Y"
 321      1EB0BF59 
 321      73B68605 
 321      5BE3184C 
 321      CF59
 322 0785 1D0BB68E 		.ascii	"\035\013\266\216\007\354\005\023\316R\037\263rd\230"
 322      07EC0513 
 322      CE521FB3 
ARM GAS  /tmp/ccPWA4VS.s 			page 25


 322      726498
 323 0794 5ECD4EEF 		.ascii	"^\315N\357>\363i\001\216\3031ZHcl\3669\215\310tr\223"
 323      3EF36901 
 323      8EC3315A 
 323      48636CF6 
 323      398DC874 
 324 07aa 40F99E95 		.ascii	"@\371\236\225\3528O\243\325m<\2106\003\340\344\215L"
 324      EA384FA3 
 324      D56D3C88 
 324      3603E0E4 
 324      8D4C
 325 07bc E8BBC731 		.ascii	"\350\273\3071\230\301\224\011\230\323G>\2628\013\237"
 325      98C19409 
 325      98D3473E 
 325      B2380B9F 
 326 07cc E0BC6778 		.ascii	"\340\274gx"
 327 07d0 1462F908 		.ascii	"\024b\371\010\276I3]c\233\351\020\217\0146\343\356\241"
 327      BE49335D 
 327      639BE910 
 327      8F0C36E3 
 327      EEA1
 328 07e2 8D53EF54 		.ascii	"\215S\357T\352\223\"\377\363\241\263c\276\320\302w\305"
 328      EA9322FF 
 328      F3A1B363 
 328      BED0C277 
 328      C5
 329 07f3 45C2F7A3 		.ascii	"E\302\367\243>c\374W\353\360\021\021L\322\215b\350j"
 329      3E63FC57 
 329      EBF01111 
 329      4CD28D62 
 329      E86A
 330 0805 CE38E283 		.ascii	"\3168\342\203\245\354\275w\305|E\031\342u \310\216\317"
 330      A5ECBD77 
 330      C57C4519 
 330      E27520C8 
 330      8ECF
 331 0817 354186A1 		.ascii	"5A\206\241 \015\377\000A\032\035\013r\277A\220\344\375"
 331      200DFF00 
 331      411A1D0B 
 331      72BF4190 
 331      E4FD
 332 0829 CE0549B5 		.ascii	"\316\005I\265\310\353(\310\010\377\317\027\344-\277"
 332      C8EB28C8 
 332      08FFCF17 
 332      E42DBF
 333 0838 5341DA32 		.ascii	"SA\3322\202\340l\352\001:\233\272U\030c?\233\"\374\274"
 333      82E06CEA 
 333      013A9BBA 
 333      5518633F 
 333      9B22FCBC 
 334 084c E5BA55BF 		.ascii	"\345\272U\277`\260o\013Y\206 \331\231\2461J\262a\313"
 334      60B06F0B 
 334      598620D9 
 334      99A6314A 
 334      B261CB
 335 085f 5475824C 		.ascii	"Tu\202L\237\026\275\215\274\223\262\016}\227\2127\256"
 335      9F16BD8D 
ARM GAS  /tmp/ccPWA4VS.s 			page 26


 335      BC93B20E 
 335      7D978A37 
 335      AE
 336 0870 16BD0405 		.ascii	"\026\275\004\005\233\366\263\300\006'\027\217\324f\357"
 336      9BF6B3C0 
 336      0627178F 
 336      D466EF
 337 087f 8F13A7F3 		.ascii	"\217\023\247\363\376\317\204\333^\353x\276=f\227f\036"
 337      FECF84DB 
 337      5EEB78BE 
 337      3D669766 
 337      1E
 338 0890 13D13C3E 		.ascii	"\023\321<>nb\036\315\232o\257h\256$\251\217$$\215V\346"
 338      6E621ECD 
 338      9A6FAF68 
 338      AE24A98F 
 338      24248D56 
 339 08a5 28382756 		.ascii	"(8'Vv\351\001\3169\273\366\220\342\253\232A\342P\324"
 339      76E901CE 
 339      39BBF690 
 339      E2AB9A41 
 339      E250D4
 340 08b8 C6741759 		.ascii	"\306t\027Y\327\331`\320\006\317\344\037\213\274\343"
 340      D7D960D0 
 340      06CFE41F 
 340      8BBCE3
 341 08c7 6AB2AE53 		.ascii	"j\262\256Sw\027\235}\223?qL\376u\353:\262\370\211$\251"
 341      77179D7D 
 341      933F714C 
 341      FE75EB3A 
 341      B2F88924 
 342 08dc B0CD55A8 		.ascii	"\260\315U\250\256\015\323\374\301\230\342\"c\316,\027"
 342      AE0DD3FC 
 342      C198E222 
 342      63CE2C17 
 343 08ec B3782A09 		.ascii	"\263x*\011\207\035+?\300*?y\265v\252H\3707Y\257x\202"
 343      871D2B3F 
 343      C02A3F79 
 343      B576AA48 
 343      F83759AF 
 344 0902 1DDD53CF 		.ascii	"\035\335S\317\231\266\216V5?\0075\377\243\205\346\237"
 344      99B68E56 
 344      353F0735 
 344      FFA385E6 
 344      9F
 345 0913 B0029284 		.ascii	"\260\002\222\204\353X\344\243\246\232\337t7\325\374"
 345      EB58E4A3 
 345      A69ADF74 
 345      37D5FC
 346 0922 475C9AFF 		.ascii	"G\\\232\377\322T\363\0379\327\274\212\267;\275\242&"
 346      D254F31F 
 346      39D7BC8A 
 346      B73BBDA2 
 346      26
 347 0933 8B0B1D83 		.ascii	"\213\013\035\203\005\354\232\361#\246\031\347a3~\354"
 347      05EC9AF1 
 347      23A619E7 
ARM GAS  /tmp/ccPWA4VS.s 			page 27


 347      61337EEC 
 348 0943 222BE1F3 		.ascii	"\"+\341\363\365\2159*\313\320\230:\315\251I\313\311"
 348      F58D392A 
 348      CBD0983A 
 348      CDA949CB 
 348      C9
 349 0954 A4921CBB 		.ascii	"\244\222\034\273U\357C'\031\361\034N\001\247oE\225P"
 349      55EF4327 
 349      19F11C4E 
 349      01A76F45 
 349      9550
 350 0966 8F33C331 		.ascii	"\2173\3031X@\007V=\212oA[I-F\267F\245|\204\365.5\232"
 350      58400756 
 350      3D8A6F41 
 350      5B492D46 
 350      B746A57C 
 351 097f CBF6B9DB 		.ascii	"\313\366\271\333G\210\203\320\022\227r\330\013\0140"
 351      478883D0 
 351      129772D8 
 351      0B0C30
 352 098e 47B27045 		.ascii	"G\262pE\232\332\355w)T\033U\333X\313Um\201\233\206\241"
 352      9ADAED77 
 352      29541B55 
 352      DB58CB55 
 352      6D819B86 
 353 09a3 3F18E132 		.ascii	"?\030\3412F\311z\270\033\034\013\334z\305h+\375+\310"
 353      46C97AB8 
 353      1B1C0BDC 
 353      7AC5682B 
 353      FD2BC8
 354 09b6 10BB1665 		.ascii	"\020\273\026e\272\220e\034\023\250f\030C\\\312\030\342"
 354      BA90651C 
 354      13A86618 
 354      435CCA18 
 354      E2
 355 09c7 7234C415 		.ascii	"r4\304\025h\210\253\220V\263\346h5\312\257q1\241\353"
 355      6888AB90 
 355      56B3E668 
 355      35CAAF71 
 355      31A1EB
 356 09da 35C77207 		.ascii	"5\307r\007\014\255cUM\025[\315\220\026\034\266g\275"
 356      0CAD6355 
 356      4D155BCD 
 356      90161CB6 
 356      67BD
 357 09ec 6240BCFA 		.ascii	"b@\274\372\037W\250\223\020\272^\375\246cD\2755\237"
 357      1F57A893 
 357      10BA5EFD 
 357      A66344BD 
 357      359F
 358 09fe 1DA58B08 		.ascii	"\035\245\213\010&\362\300=a\302\240\331\207}\334\000"
 358      26F2C03D 
 358      61C2A0D9 
 358      877DDC00 
 359 0a0e 9E4222CD 		.ascii	"\236B\"\3154\037\237\234-@\272\010\3512\244\015H/#\275"
 359      341F9F9C 
 359      2D40BA08 
ARM GAS  /tmp/ccPWA4VS.s 			page 28


 359      E932A40D 
 359      482F23BD 
 360 0a22 8AB411E9 		.ascii	"\212\264\021\351Pl\320\327\220\216B:\015\351\373H\027"
 360      506CD0D7 
 360      908E423A 
 360      0DE9FB48 
 360      17
 361 0a33 205D8474 		.ascii	" ]\204t\011\322\015Hkx\014\200zHf)xf\013\247Owt\272"
 361      09D20D48 
 361      6B780C80 
 361      7A486629 
 361      78660BA7 
 362 0a4b ACDF3363 		.ascii	"\254\3373c\303hq\354\020eS[\315\327\314\343A\264\351"
 362      C36871EC 
 362      1065535B 
 362      CDD7CCE3 
 362      41B4E9
 363 0a5e 4EE3882F 		.ascii	"N\343\210/w\3624#\025]}\216\365/m\361\017\211\256\326"
 363      77F23423 
 363      155D7D8E 
 363      F52F6DF1 
 363      0F89AED6 
 364 0a72 3B16C3A8 		.ascii	";\026\303\250\230\232\224b(c\237\363 \232\315\235\315"
 364      989A9462 
 364      28639FF3 
 364      209ACD9D 
 364      CD
 365 0a83 EDEC1DC6 		.ascii	"\355\354\035\306\316\336C;\233\205\326\363>\322\315"
 365      CEDE433B 
 365      9B85D6F3 
 365      3ED2CD
 366 0a92 6813B548 		.ascii	"h\023\265H\353x,c\032;\253\335\335B{\010\372\017\211"
 366      EB782C63 
 366      1A3BABDD 
 366      DD427B08 
 366      FA0F89
 367 0aa5 842631AC 		.ascii	"\204&1\254NAV\247J\272\301\363`\013\247\317\210\365"
 367      4E4156A7 
 367      4ABAC1F3 
 367      600BA7CF 
 367      88F5
 368 0ab7 CAAEAE69 		.ascii	"\312\256\256il7AI\016r\371\204\341tK\365\340\014\223"
 368      6C374149 
 368      0E72F984 
 368      E1744BF5 
 368      E00C93
 369 0aca B6E415AF 		.ascii	"\266\344\025\257$\213_B\001\030O\014\026\303\001B\244"
 369      248B5F42 
 369      01184F0C 
 369      16C30142 
 369      A4
 370 0adb DA0B8575 		.ascii	"\332\013\205uS\246\363\303[\221g\304$\337fH\303'\377"
 370      53A6F3C3 
 370      5B9167C4 
 370      24DF6648 
 370      C327FF
 371 0aee 9270AA05 		.ascii	"\222p\252\005\035\022\334Y\351\274K\351<\221\271U\311"
ARM GAS  /tmp/ccPWA4VS.s 			page 29


 371      1D12DC59 
 371      E9BC4BE9 
 371      3C91B955 
 371      C9
 372 0aff 4E65B3BB 		.ascii	"Ne\263\273\313m7z\246\231\223\305}8X|\345r\231\026\223"
 372      CB6D377A 
 372      A69993C5 
 372      7D38587C 
 372      E5729916 
 373 0b14 84D7B20D 		.ascii	"\204\327\262\015\3327\233jZ?\270K6n$\243\263\331S\263"
 373      DA379B6A 
 373      5A3FB84B 
 373      366E24A3 
 373      B3D953B3 
 374 0b28 D4E6E1DF 		.ascii	"\324\346\341\337\244\024_\277v\345\361{\346a\254\370"
 374      A4145FBF 
 374      76E5F17B 
 374      E661ACF8 
 375 0b38 2D8E7C35 		.ascii	"-\216|5\331\231\237\353\232\340$G\327\334C\264}\004"
 375      D9999FEB 
 375      9AE02447 
 375      D7DC43B4 
 375      7D04
 376 0b4a 41763905 		.ascii	"Av9\005\221\204CX\344\230!6IV\017\307\235\314\307\270"
 376      91844358 
 376      E4982136 
 376      49560FC7 
 376      9DCCC7B8 
 377 0b5e E292B535 		.ascii	"\342\222\26554\002\327\"\223c)\314\346E&u4\216\245;"
 377      3402D722 
 377      936329CC 
 377      E6452675 
 377      348EA53B 
 378 0b72 EFCF19C1 		.ascii	"\357\317\031\301\034:\322\235\251 \233\354A\201\361"
 378      1C3AD29D 
 378      A9209BEC 
 378      4181F1
 379 0b81 DE319EAE 		.ascii	"\3361\236\256\223%wQ\346(\330\260\034\0160\233\205\300"
 379      93257751 
 379      E628D8B0 
 379      1C0E309B 
 379      85C0
 380 0b93 BD2CD848 		.ascii	"\275,\330H\307`z\316\276b\301\306\362\200\331\254\310"
 380      C7607ACE 
 380      BE62C1C6 
 380      F280D9AC 
 380      C8
 381 0ba4 1DA899DA 		.ascii	"\035\250\231\3324\3265\354\006\262x@K\014\346\262K\267"
 381      34D635EC 
 381      06B27840 
 381      4B0CE6B2 
 381      4BB7
 382 0bb6 19C8F064 		.ascii	"\031\310\360d\367\210\005[\244\344\325t\324\224q7\220"
 382      F788055B 
 382      A4E4D574 
 382      D4947137 
 382      90
ARM GAS  /tmp/ccPWA4VS.s 			page 30


 383 0bc7 DA0726D0 		.ascii	"\332\007&\320])\227\\D\360)9\372>`\250\2320fU\365\015"
 383      5D29975C 
 383      44F02939 
 383      FA3E60A8 
 383      9A306655 
 384 0bdd 57B685AD 		.ascii	"W\266\205\2557\371\233$\314v\254`}k\035\032\256\013"
 384      37F99B24 
 384      CC76AC60 
 384      7D6B1D1A 
 384      AE0B
 385 0bef BFE6F3C0 		.ascii	"\277\346\363\300\005L\332\313\354\303vhY<\201\216\357"
 385      054CDACB 
 385      ECC37668 
 385      593C818E 
 385      EF
 386 0c00 240E823F 		.ascii	"$\016\202?\"=\215\364,\322\363H/\"m@\252\270\177\375"
 386      223D8DF4 
 386      2CD2F348 
 386      2F226D40 
 386      AAB87FFD 
 387 0c14 CF469584 		.ascii	"\317F\225\204\252\034\203\267\325;\246L\375P\301\301"
 387      AA1C83B7 
 387      D53BA64C 
 387      FD50C1C1 
 388 0c24 6E10D975 		.ascii	"n\020\331u\310\357q\267\377\212z\334\241n\342\245V\033"
 388      C8EF71B7 
 388      FF8A7ADC 
 388      A16EE2A5 
 388      561B
 389 0c36 0C859AE5 		.ascii	"\014\205\232\345?K\336Z.y-g\262)y\007\271\330W\207\230"
 389      3F4BDE5A 
 389      2E792D67 
 389      B2297907 
 389      B9D85787 
 390 0c4b 6DF94ACA 		.ascii	"m\371J\312`\024\315\236_s;}w\350u\267\305\373\\\256"
 390      6014CD9E 
 390      5F733B7D 
 390      77E875B7 
 390      C5FB5CAE 
 391 0c5f 94203B8C 		.ascii	"\224 ;\214\202\030*V\323\226O\270HgT\\^\312\235$|\311"
 391      82182A56 
 391      D3964FB8 
 391      4867545C 
 391      5ECA9D24 
 392 0c75 0757E7B6 		.ascii	"\007W\347\266\3023\333\265hb\022\365\251\251\347=i\223"
 392      C233DBB5 
 392      686212F5 
 392      A9A9E73D 
 392      6993
 393 0c87 3873F4F2 		.ascii	"8s\364\362k\352\014\274\022mb\334M\031\007P=\020Q\332"
 393      6BEA0CBC 
 393      126D62DC 
 393      4D190750 
 393      3D1051DA 
 394 0c9b 58B761F0 		.ascii	"X\267a\360\234\366\355&\272e\213\374%\303\3609tHr\341"
 394      9CF6ED26 
 394      BA658BFC 
ARM GAS  /tmp/ccPWA4VS.s 			page 31


 394      25C3F039 
 394      744872E1 
 395 0caf B79B24DC 		.ascii	"\267\233$\334?\213\3554\3046\334\007/\207\317mxb\367"
 395      3F8BED34 
 395      C436DC07 
 395      2F87CF6D 
 395      7862F7
 396 0cc2 775118C2 		.ascii	"wQ\030\302\203\303\360U\345k\021\021\203,\020\274\215"
 396      83C3F055 
 396      E56B1111 
 396      832C10BC 
 396      8D
 397 0cd3 21D76CC7 		.ascii	"!\327l\307p\001\035\334\022=\334\007<pV\343:\300-\325"
 397      70011DDC 
 397      123DDC07 
 397      3C7056E3 
 397      3AC02DD5 
 398 0ce7 C3CD730C 		.ascii	"\303\315s\014\247\347n\271\036n\001\017\234\325\300"
 398      A7E76EB9 
 398      1E6E010F 
 398      9CD5C0
 399 0cf6 0E702BF5 		.ascii	"\016p+\365pK\034\303\351\271[\255\207[\316\003g6\270"
 399      704B1CC3 
 399      E9B95BAD 
 399      875BCE03 
 399      6736B8
 400 0d09 9B7D5803 		.ascii	"\233}X\003\226\305qnb^\343\335\304\205MD:\031\351T\244"
 400      96C5716E 
 400      625EE3DD 
 400      C4854D44 
 400      3A19E954 
 401 0d1e D391CE44 		.ascii	"\323\221\316D\372.\353\340\254\034\312[nf>U}\023\307"
 401      FA2EEBE0 
 401      AC1CCA5B 
 401      6E663E55 
 401      7D13C7
 402 0d31 FCA6CE76 		.ascii	"\374\246\316v\255E\307w\372-AY\\\215\335\242\032\367"
 402      AD45C777 
 402      FA2D4159 
 402      5C8DDDA2 
 402      1AF7
 403 0d43 E88EC7B9 		.ascii	"\350\216\307\271\337.t\303\337 \035\202\034\277\212"
 403      DF2E74C3 
 403      DF201D82 
 403      1CBF8A
 404 0d52 F40DA4A3 		.ascii	"\364\015\244\243x\270_\346\354\225\332\211\251\355q"
 404      78B85FE6 
 404      EC95DA89 
 404      A9ED71
 405 0d61 2115E07D 		.ascii	"!\025\340}\307\036x\216\205\007\356\235\201\325\331"
 405      C71E788E 
 405      8507EE9D 
 405      81D5D9
 406 0d70 6945DF2B 		.ascii	"iE\337+LW\222g\352'\234:\336f.Y1Rn4\2762h\260h\010\336"
 406      4C579267 
 406      EA279C3A 
 406      DE662E59 
ARM GAS  /tmp/ccPWA4VS.s 			page 32


 406      31526E34 
 407 0d8b DCD63C7C 		.ascii	"\334\326<|\350\266\016\336x\037p\034:}\366.\272\036"
 407      E8B60EDE 
 407      781F701C 
 407      3A7DF62E 
 407      BA1E
 408 0d9d 310F3DEB 		.ascii	"1\017=\353'-\035>\337 \214|b\364\254U58-\371$\263_\205"
 408      272D1D3E 
 408      DF208C7C 
 408      62F4AC55 
 408      35382DF9 
 409 0db5 086B45CD 		.ascii	"\010kE\315<\356\327@\015+\266\033Z\232\277\006\252\273"
 409      3CEED740 
 409      0D2BB61B 
 409      5A9ABF06 
 409      AABB
 410 0dc7 4D1697B8 		.ascii	"M\026\227\270\311\032{\225\221\313\261t\362T\305\305"
 410      C91A7B95 
 410      91CBB174 
 410      F254C5C5 
 411 0dd7 E5F81A75 		.ascii	"\345\370\032u\031v\003\276\343\263]\324 \233\341\264"
 411      197603BE 
 411      E3B35DD4 
 411      209BE1B4 
 412 0de7 B5C190BE 		.ascii	"\265\301\220\276P\007S^\307`\0013\260\375\010v\214\007"
 412      5007535E 
 412      C7600133 
 412      B0FD0876 
 412      8C07
 413 0df9 CC7A22A6 		.ascii	"\314z\"\246\201\321W\231~t\014\0260\250/\275m\177\031"
 413      81D15799 
 413      7E740C16 
 413      30A82FBD 
 413      6D7F19
 414 0e0c 76E8E548 		.ascii	"v\350\345HW ]\311\323\271\027\271\231\211\3068|Z\362"
 414      57205DC9 
 414      D3B917B9 
 414      9989C638 
 414      7C5AF2
 415 0e1f 8973B59B 		.ascii	"\211s\265\233}X\303\225\305\005\350Q\027\362\26047\315"
 415      7D58C395 
 415      C505E851 
 415      17F2B034 
 415      37CD
 416 0e31 52EACD08 		.ascii	"R\352\315\010f\237\005\371H\302\327\206\236\364\033"
 416      669F05F9 
 416      48C2D786 
 416      9EF41B
 417 0e40 E13D4519 		.ascii	"\341=E\031\203\335\375\004\3211\205\221\204#x\337\007"
 417      83DDFD04 
 417      D1318591 
 417      842378DF 
 417      07
 418 0e51 EE7B2D02 		.ascii	"\356{-\002\011\254\214\026V&\300\324Q\244uI\302\361"
 418      09AC8C16 
 418      5626C0D4 
 418      51A47549 
ARM GAS  /tmp/ccPWA4VS.s 			page 33


 418      C2F1
 419 0e63 0C05558E 		.ascii	"\014\005U\216\376U\230M\372\307\236\357\362\273\252"
 419      FE55984D 
 419      FAC79EEF 
 419      F2BBAA
 420 0e72 EB37D685 		.ascii	"\3537\326\205T\371V\273u'\230\020G5\263\276~U\303\012"
 420      54F956BB 
 420      75279810 
 420      4735B3BE 
 420      7E55C30A 
 421 0e86 2F897F94 		.ascii	"/\211\177\224\306\306W\004\376)\346\372\314^*\300,\\"
 421      C6C65704 
 421      FE29E6FA 
 421      CC5E2AC0 
 421      2C5C
 422 0e98 5DBA4903 		.ascii	"]\272I\0038\304lZhh\370\346>\014\325j\320K\275\326\312"
 422      38C46C5A 
 422      6868F8E6 
 422      3E0CD56A 
 422      D04BBDD6 
 423 0ead 3CFEB3C6 		.ascii	"<\376\263\306!\234l6:\200\253E\001\232\233y\355\244"
 423      219C6C36 
 423      3A80AB45 
 423      019A9B79 
 423      EDA4
 424 0ebf F1985F19 		.ascii	"\361\230_\031\236c1\240\344kU\265Pk\372\334\361x\362"
 424      9E6331A0 
 424      E46B55B5 
 424      506BFADC 
 424      F178F2
 425 0ed2 85C578A2 		.ascii	"\205\305x\242\031\260$\274\2152oN\233\276\256\326L\036"
 425      19B024BC 
 425      8D326F4E 
 425      9BBEAED6 
 425      4C1E
 426 0ee4 47498E9E 		.ascii	"GI\216\236\235\005\022\230hjS\3520\203GS\012O~\351\227"
 426      9D051298 
 426      686A53EA 
 426      30834753 
 426      0A4F7EE9 
 427 0ef9 64B10E95 		.ascii	"d\261\016\225=%\263\262\365\020D\236\235F]\257 \272"
 427      3D25B3B2 
 427      F510449E 
 427      9D465DAF 
 427      20BA
 428 0f0b DEC9A5EB 		.ascii	"\336\311\245\353j;]\353};\001\333\355X\331{,\224\255"
 428      6A3B5DEB 
 428      7D3B01DB 
 428      ED58D97B 
 428      2C94AD
 429 0f1e BDC82709 		.ascii	"\275\310'\011sP\346\235ie\353\253\315\254\3555\356\211"
 429      7350E69D 
 429      6965EBAB 
 429      CDACED35 
 429      EE89
 430 0f30 6D296B10 		.ascii	"m)k\020\244r\201Y.?)\311:\000\263P\307\000=\357\262"
 430      A4728159 
ARM GAS  /tmp/ccPWA4VS.s 			page 34


 430      2E3F29C9 
 430      3A00B350 
 430      C7003DEF 
 431 0f45 F8B5636D 		.ascii	"\370\265cm\034\260\320F\313\2246V\032\005\320\325\252"
 431      1CB0D046 
 431      CB943656 
 431      1A05D0D5 
 431      AA
 432 0f56 2603D6FC 		.ascii	"&\003\326\374\357@e|\216\312Xo\30423c\335\223\347\216"
 432      EF40657C 
 432      8ECA586F 
 432      C4323363 
 432      DD93E78E 
 433 0f6a 66A62234 		.ascii	"f\246\"4\2613\210$\321\203\177\211C\313>\244\373\221"
 433      B1338824 
 433      D1837F89 
 433      43CB3EA4 
 433      FB91
 434 0f7c 1ED24FF1 		.ascii	"\036\322O\361?7v$\275\365\232\015j\255u\342\214\361"
 434      3F377624 
 434      BDF59A0D 
 434      6AAD75E2 
 434      8CF1
 435 0f8e A49A831C 		.ascii	"\244\232\203\034\277\243k\217'\364\345e\361\260\343"
 435      BFA36B8F 
 435      27F4E565 
 435      F1B0E3
 436 0f9d F6F8CE   		.ascii	"\366\370\316"
 437 0fa0 A23D7C29 		.ascii	"\242=|)\011\352\214\022\350jU\223O\260\002\264\321\011"
 437      09EA8C12 
 437      E86A5593 
 437      4FB002B4 
 437      D109
 438 0fb2 30CE43DA 		.ascii	"0\316C\332\3430\266\307^\036\254\256\326Xo3X\337\360"
 438      E330B6C7 
 438      5E1EACAE 
 438      D6586F33 
 438      58DFF0
 439 0fc5 60E55B63 		.ascii	"`\345[cMd\260~\344\301\372\2335\326d\006\253\201\007"
 439      4D64B07E 
 439      E4C1FA9B 
 439      35D66406 
 439      AB8107
 440 0fd8 EB056BAC 		.ascii	"\353\005k\254\251\014\326\220\326\034X}\255\261\246"
 440      A90CD690 
 440      D61C587D 
 440      ADB1A6
 441 0fe7 3358A378 		.ascii	"3X\243x\260\312\255\261\0260X\223y\260\006Xc-b\260f"
 441      B0CAADB1 
 441      16305893 
 441      79B00658 
 441      632D62B0 
 442 0ffc F36029A2 		.ascii	"\363`)\242"
 443 1000 35585595 		.ascii	"5XU\225\305XS\227ZM#\003\200:\326\\$cM\003\2165\013"
 443      C5585397 
 443      5A4D2303 
 443      803AD65C 
ARM GAS  /tmp/ccPWA4VS.s 			page 35


 443      24634D03 
 444 1017 5A671C6B 		.ascii	"Zg\034k\364\020\244\303\\1\2165\373\311Xs\205k\2549"
 444      F410A4C3 
 444      5C318E35 
 444      FBC95873 
 444      856BAC39 
 445 102b 6437D694 		.ascii	"d7\326\224\353]\241,^w\334\231oXt\346\233R\2359\211"
 445      EB5DA12C 
 445      5E77DC99 
 445      6F5874E6 
 445      9B529D39 
 446 1040 225F492B 		.ascii	"\"_I+[Wk\346\221\346\014:\327\353\330p\353x\260t\236"
 446      5B576BE6 
 446      91E60C3A 
 446      D7EBD870 
 446      EB78B074 
 447 1055 4DB70D33 		.ascii	"M\267\0153y\216\301\332\300\203e\373\306.\363a\033I"
 447      798EC1DA 
 447      C08365FB 
 447      C62EF361 
 447      1B49
 448 1067 16AFA2A3 		.ascii	"\026\257\242\243\276\206\316Y\361\020:\330\243s\321"
 448      BE86CE59 
 448      F1103AD8 
 448      A373D1
 449 1076 354603D4 		.ascii	"5F\003\3247\272\232|\325\306\002\227\241\005jf\265\205"
 449      37BA9A7C 
 449      D5C60297 
 449      A1056A66 
 449      B585
 450 1088 0B6F810E 		.ascii	"\013o\201\016\357~;i63\322lAijQ\232mH\277Ez\024\351"
 450      EF7E3B69 
 450      3633D26C 
 450      41696A51 
 450      9A6D48BF 
 451 10a0 31A42790 		.ascii	"1\244'\220\376\200\364\024\3223H\317!\275\200\364'\244"
 451      FE80F414 
 451      D23348CF 
 451      21BD80F4 
 451      27A4
 452 10b2 C33C1C13 		.ascii	"\303<\034\023\220\317\334\346\017_$a\253\241\003\251"
 452      90CFDCE6 
 452      0F5F2461 
 452      ABA103A9 
 453 10c2 B30E88DD 		.ascii	"\263\016\210\335\273C\354\356\246E%\341 \336\266\316"
 453      BB43ECEE 
 453      A64525E1 
 453      20DEB6CE 
 454 10d2 72EEA056 		.ascii	"r\356\240V\240\316\035\336T\206\265\0261\310\027\324"
 454      A0CE1DDE 
 454      5486B516 
 454      31C817D4 
 455 10e2 523A658C 		.ascii	"R:e\214\360\230L\027\222\013\277!ka\312\265\306F\227"
 455      F0984C17 
 455      920BBF21 
 455      6B61CAB5 
 455      C64697
ARM GAS  /tmp/ccPWA4VS.s 			page 36


 456 10f5 6076B00B 		.ascii	"`v\260\013\307V\345\261\265\363\350Y\023oz\310rZ\275"
 456      C756E5B1 
 456      B5F3E859 
 456      136F7AC8 
 456      725ABD
 457 1108 41367EA0 		.ascii	"A6~\240\352\255\352)a\225\010\364\275\001H\026\205,"
 457      EAADEA29 
 457      619508F4 
 457      BD014816 
 457      852C
 458 111a BD48827E 		.ascii	"\275H\202~\335\026~*\215\352\207\236\215\0029\257\010"
 458      DD167E2A 
 458      8DEA879E 
 458      8D0239AF 
 458      08
 459 112b CD2A63D5 		.ascii	"\315*c\325\246ox\014\357\345\2236\260\2334\261\307s"
 459      A66F780C 
 459      EFE59336 
 459      B09B34B1 
 459      C773
 460 113d 896C8754 		.ascii	"\211l\207T\205\336>g\335pu\257\311\333\036\322\013n"
 460      85DE3E67 
 460      DD7075AF 
 460      C9DB1ED2 
 460      0B6E
 461 114f 5838574B 		.ascii	"X8WK Ix\365f\334Z\34118\330\031\344\375l\222\233y\335"
 461      204978F5 
 461      66DC5AE1 
 461      3138D819 
 461      E4FD6C92 
 462 1166 64F1E5A4 		.ascii	"d\361\345\244\250\274\236\243n\221Q\206+\367\177\220"
 462      A8BC9EA3 
 462      6E915186 
 462      2BF77F90 
 463 1176 AE4E7760 		.ascii	"\256Nw``\352\\\220e\277\307\266\232\206mUy\263I\243"
 463      60EA5C90 
 463      65BFC7B6 
 463      9A866D55 
 463      79B349A3 
 464 118a 7301558F 		.ascii	"s\001U\217\232CO\005\231\211@\223n66\272\313\320\350"
 464      9A434F05 
 464      99894093 
 464      6E3636BA 
 464      CBD0E8
 465 119d 2E7D03BA 		.ascii	".}\003\272\262\322\211\306F\227\340\354fI\230\225\322"
 465      B2D289C6 
 465      4697E0EC 
 465      66499895 
 465      D2
 466 11ae 9D199399 		.ascii	"\235\031\223\231\034\373`h\277\035U\342h\262'\307\360"
 466      1CFB6068 
 466      BF1D55E2 
 466      68B227C7 
 466      F0
 467 11bf 6C9419A1 		.ascii	"l\224\031\241\232\256/z\230\205\3349F\016\234\255+%"
 467      9AAE2F7A 
 467      9885DC39 
ARM GAS  /tmp/ccPWA4VS.s 			page 37


 467      460E9CAD 
 467      2B25
 468 11d1 977DDCF4 		.ascii	"\227}\334\364\3503\336\355\202\343\177$\333\005?D\303"
 468      E833DEED 
 468      82E37F24 
 468      DB053F44 
 468      C3
 469 11e2 9B777346 		.ascii	"\233wsF\3033\256\354\255\300\"\363\214\206w\376\205"
 469      C333AEEC 
 469      ADC022F3 
 469      8C8677FE 
 469      85
 470 11f3 00CDE538 		.ascii	"\000\315\3458\030\340\302\246\3462?s\322\374s\022=U"
 470      18E0C2A6 
 470      E6323F73 
 470      D2FC7312 
 470      3D55
 471 1205 10F9DFE9 		.ascii	"\020\371\337\351\234\377\375Xd\211\221\377/\011\377"
 471      9CFFFD58 
 471      648991FF 
 471      2F09FF
 472 1214 4BB8F8DF 		.ascii	"K\270\370\3377\223K\3713S\223\227\007\231>\364\311\272"
 472      37934BF9 
 472      33539397 
 472      07993EF4 
 472      C9BA
 473 1226 FB69CF5F 		.ascii	"\373i\317_\201\002L\274%\363\206\023\035\016\256\002"
 473      81024CBC 
 473      25F38613 
 473      1D0EAE02 
 474 1236 35617E23 		.ascii	"5a~#\256\227\256\346b\377\300\210\031\315=\334\357\335"
 474      AE97AEE6 
 474      62FFC088 
 474      19CD3DDC 
 474      EFDD
 475 1248 5BB80EF7 		.ascii	"[\270\016\367\373\324C\326\002\327\031\271\\L\017\367"
 475      FBD443D6 
 475      02D719B9 
 475      5C4C0FF7 
 476 1258 5BC7C565 		.ascii	"[\307\305eU\346\303\375\310\221\224V\275\255\306\350"
 476      55E6C3FD 
 476      C8919456 
 476      BDADC6E8 
 477 1268 B3790F8A 		.ascii	"\263y\017\212\372\214\355\246\237`\353\254s\320MuBh"
 477      FA8CEDA6 
 477      9F60EBAC 
 477      73D04D75 
 477      4268
 478 127a 2BB60453 		.ascii	"+\266\004S\022V9\006\013X\203m\342\001\313\274\226L"
 478      12563906 
 478      0B58836D 
 478      E201CBBC 
 478      964C
 479 128c C1EA1C83 		.ascii	"\301\352\034\203\231p\326\334\226\332n\322R\251t\203"
 479      9970D6DC 
 479      96DA6ED2 
 479      52A97483 
ARM GAS  /tmp/ccPWA4VS.s 			page 38


 480 129c E1941BE3 		.ascii	"\341\224\033\343)8\015\016N\275\251\3630\241\031]\330"
 480      29380D0E 
 480      4EBDA9F3 
 480      30A1195D 
 480      D8
 481 12ad CF20B2F5 		.ascii	"\317 \262\365\276\243\237'\362^'\"\033\317:r\"\362\036"
 481      BEA39F27 
 481      F25E2722 
 481      1BCF3A72 
 481      22F21E
 482 12c0 56E4ED8E 		.ascii	"V\344\355\216E\266\261\277\375<&\363s\016J\262\323\337"
 482      45B6B1BF 
 482      FD3C26F3 
 482      730E4AB2 
 482      D3DF
 483 12d2 37D6FA33 		.ascii	"7\326\3723uj\226/\242\250N\271r\3319\037\016*G\320'"
 483      756A962F 
 483      A2A84EB9 
 483      72D9391F 
 483      0E2A47D0 
 484 12e7 4FB9D5FC 		.ascii	"O\271\325\374I\233%\014\356t1z\273\206p\200\346f\366"
 484      499B250C 
 484      EE74317A 
 484      BB867080 
 484      E666F6
 485 12fa 759767AB 		.ascii	"u\227g\253O\260\350qks\261\376c\315\365:\311+a\262Y"
 485      4FB0E871 
 485      6B73B1FE 
 485      63CDF53A 
 485      C92B61B2 
 486 130f 98622D71 		.ascii	"\230b-q\214\0250cT\263\241\264\224\262x\334CfW'p\226"
 486      8C153063 
 486      54B3A1B4 
 486      94B278DC 
 486      43665727 
 487 1325 F803CFDC 		.ascii	"\370\003\317\334\350;O\266\016\214\303\200\353Yo\274"
 487      E83B4FB6 
 487      0E8CC380 
 487      EB596FBC 
 488 1335 FA56A736 		.ascii	"\372V\2476g\224%\375\310k\003\262\275\031i-\322/\220"
 488      679425FD 
 488      C86B03B2 
 488      BD19692D 
 488      D22F90
 489 1348 6E43BA1B 		.ascii	"nC\272\033\351\001\244\207xD[\353i\362(lus\333\017b"
 489      E901A487 
 489      78445BEB 
 489      69F2286C 
 489      7573DB0F 
 490 135d 842BBF3A 		.ascii	"\204+\277:?X\231\330\226{\0272\261`/Z\360\031\017\331"
 490      3F5899D8 
 490      967B1732 
 490      B1602F5A 
 490      F0190FD9 
 491 1371 89FC99C1 		.ascii	"\211\374\231\301\2029w\"\237\367\030v\"\257\030\030"
 491      82397722 
 491      9FF71876 
ARM GAS  /tmp/ccPWA4VS.s 			page 39


 491      22AF1818 
 492 1381 A0B999F7 		.ascii	"\240\271\231\367!\327\335\332t\037\362\376[M\367!\177"
 492      21D7DDDA 
 492      741FF2FE 
 492      5B4DF721 
 492      7F
 493 1392 77AB7E1F 		.ascii	"w\253~\037\262\232}:\235\355b\262o\244\263\335Lv\345"
 493      B29A7D3A 
 493      9DED62B2 
 493      6FA4B3DD 
 493      4C76E5
 494 13a5 6DA96C0F 		.ascii	"m\251l\017\223=9\235\355e\262\337Og\373\230\354E\351"
 494      933D399D 
 494      ED65B2DF 
 494      4F67FB98 
 494      EC45E9
 495 13b8 6C3FD322 		.ascii	"l?\323\"\266;\242\323J\222\305\013\330\005.z\314wD\203"
 495      B63BA2D3 
 495      4A92C50B 
 495      D8052E7A 
 495      CC774483 
 496 13cc F9BA0C96 		.ascii	"\371\272\014\226`\266#\332`YiKP\320\022\306*0\317\320"
 496      60B623DA 
 496      6059694B 
 496      50D012C6 
 496      2A30CFD0 
 497 13e0 96C1C824 		.ascii	"\226\301\310$\243\301\356\221\313\253^\247\353`\257"
 497      A3C1EE91 
 497      CBAB5EA7 
 497      EB60AF
 498 13ef 79CDD7C1 		.ascii	"y\315\327\301\322\033\326\326\334&\352\2450}Jb\275\261"
 498      D21BD6D6 
 498      DC26EAA5 
 498      307D4A62 
 498      BDB1
 499 1401 9B4C0AC9 		.ascii	"\233L\012\311\310Ax\223\204u\\h\231\206\016\315\277"
 499      C8417893 
 499      84755C68 
 499      99860ECD 
 499      BF
 500 1412 D518D1CC 		.ascii	"\325\030\321\314\372\232\315\331+\015#\254\337H3\004"
 500      FA9ACDD9 
 500      2B0D23AC 
 500      DF483304 
 501 1422 C32F6870 		.ascii	"\303/hp9\251~\227\274\\#\006L\002b\335\255\2628\306"
 501      39A97E97 
 501      BC5C2306 
 501      4C0262DD 
 501      ADB238C6 
 502 1436 7B9F59D8 		.ascii	"{\237Y\330\254\273\013\035\207\3270\206\254\245\273"
 502      ACBB0B1D 
 502      87D73086 
 502      ACA5BB
 503 1445 35487EE6 		.ascii	"5H~\346Qd\017\347iqJj>\3216%H\375\232\243\347^D\007"
 503      51640FE7 
 503      69714A6A 
 503      3ED13625 
ARM GAS  /tmp/ccPWA4VS.s 			page 40


 503      48FD9AA3 
 504 145d 32D18BDB 		.ascii	"2\321\213\333\370n\317<\257\322\301\310\342d/\261\365"
 504      F86ECF3C 
 504      AFD2C1C8 
 504      E2642FB1 
 504      F5
 505 146e 2946112E 		.ascii	")F\021.NA\021\246p\211p}\377t<\305\200\337\361]?\261"
 505      4E4111A6 
 505      7089707D 
 505      FF743CC5 
 505      80DFF15D 
 506 1484 EE6E3A9F 		.ascii	"\356n:\237\232\356%\236o\373\355\315\362|\357x\015\236"
 506      9AEE259E 
 506      6FFBEDCD 
 506      F27CEF78 
 506      0D9E
 507 1496 AF8ABE83 		.ascii	"\257\212\276\203A\3623\373\276\257oo\352\373\276\277"
 507      41F233FB 
 507      BEAF6F6F 
 507      EAFBBEBF 
 508 14a6 DDD4F79D 		.ascii	"\335\324\367\235\271\335\324\367]\271\335\324\367\015"
 508      B9DDD4F7 
 508      5DB9DDD4 
 508      F70D
 509 14b4 BB43EFFB 		.ascii	"\273C\357\373\004\016\377\224\026E\026\337\365\342\021"
 509      040EFF94 
 509      164516DF 
 509      F5E211
 510 14c3 155E7BFF 		.ascii	"\025^{\377D\332\206\327?\351\332\253~\355\321\035\003"
 510      44DA86D7 
 510      3FE9DAAB 
 510      7EEDD11D 
 510      03
 511 14d4 D6E03B75 		.ascii	"\326\340;u\315\354?\373\367\363\364\237\005\234\375"
 511      CDEC3FFB 
 511      F7F3F49F 
 511      059CFD
 512 14e3 6791D1F8 		.ascii	"g\221\321\370&\354G\343[\304e|3\366O\3779\033\366\227"
 512      26EC47E3 
 512      5BC4657C 
 512      33F64FFF 
 512      391BF697 
 513 14f7 7A0D41E9 		.ascii	"z\015A\351\004/\307\224S\325\303\365\311\270\001\277"
 513      042FC794 
 513      53D5C3F5 
 513      C9B801BF 
 514 1507 CA4B62EB 		.ascii	"\312Kb\3531w\350m\330\260\310D*\262bb\245\327z\003\276"
 514      3177E86D 
 514      D8B0C844 
 514      2AB26262 
 514      A5D77A03 
 515 151c E16F9230 		.ascii	"\341o\2220\023\353Y\344mn\234\271\302Laf\033~S\313\003"
 515      13EB59E4 
 515      6D6E9CB9 
 515      C24C6166 
 515      1B7E53CB 
 516 1531 BF4F495C 		.ascii	"\277OI\\?\343\374\267\271\264\343\256A\217\363\343\035"
ARM GAS  /tmp/ccPWA4VS.s 			page 41


 516      3FE3FCB7 
 516      B9B4E3AE 
 516      418FF3E3 
 516      1D
 517 1542 193D8E1E 		.ascii	"\031=\216\036\007\027\032\214\015\276\270\226\376\377"
 517      07171A8C 
 517      0DBEB896 
 517      FEFF
 518 1550 80CC0D3E 		.ascii	"\200\314\015>tHrY\255\366\2524\335\024z\005Y\370\264"
 518      74487259 
 518      ADF6AA34 
 518      DD147A05 
 518      59F8B4
 519 1563 79FA203B 		.ascii	"y\372 ;`\351q\023\024L\271\323)X@\007\266\222\005\033"
 519      60E97113 
 519      144CB9D3 
 519      29584007 
 519      B692051B 
 520 1577 C10366B3 		.ascii	"\301\003f\263\325w5\013\366\226c0=gkX\260\361<`6\333"
 520      D577350B 
 520      F6966330 
 520      3D676B58 
 520      B0F13C60 
 521 158d 7CEB58B0 		.ascii	"|\353X\260I\216\301X\316\006%\017\325n!\363(<\250d\220"
 521      498EC158 
 521      CE06250F 
 521      D56E21F3 
 521      283CA864 
 522 15a2 EDCE48AE 		.ascii	"\355\316H\256\263L\266{\015g\231\354\034\331\222X\027"
 522      B34CB67B 
 522      0D6799EC 
 522      1CD99258 
 522      17
 523 15b3 C9CFEC4E 		.ascii	"\311\317\354N\276LY\027\215T\246\241p\244lsz\233\222"
 523      BE4C5917 
 523      8D54A6A1 
 523      70A46C73 
 523      7A9B92
 524 15c6 3C509BAD 		.ascii	"<P\233\255\274\236\223\232\213~`\303\370nc\267\330S"
 524      BC9E939A 
 524      8B7E60C3 
 524      F86E63B7 
 524      D853
 525 15d8 2B056836 		.ascii	"+\005h6\307\352f\355\3246\312\314OEm\231\177\006\362"
 525      C7EA66ED 
 525      D436CACC 
 525      4F456D99 
 525      7F06F2
 526 15eb BDDBDBCC 		.ascii	"\275\333\333\314\305\362\344W#s\352^\320\300\336s\014"
 526      C5F2E457 
 526      2373EA5E 
 526      D0C0DE73 
 526      0C
 527 15fc D6DAC0A5 		.ascii	"\326\332\300\245$|\330\\E\246>\351i\340N/\231\342}\351"
 527      247CD85C 
 527      45A63EE9 
 527      69E04E2F 
ARM GAS  /tmp/ccPWA4VS.s 			page 42


 527      99E27DE9 
 528 1610 D53DE39C 		.ascii	"\325=\343\234\313c\206V\001*\330\364\031\326\246\027"
 528      CB638656 
 528      012AD8F4 
 528      19D6A617 
 529 1620 38060BE8 		.ascii	"8\006\013\350\300\316\261`U<`\001k\316.\260`+\035\203"
 529      C0CEB160 
 529      553C6001 
 529      6BCE2EB0 
 529      602B1D83 
 530 1634 E939FB29 		.ascii	"\3519\373)\015\0061\004n\344\315\000f\026\207\233}X"
 530      0D063104 
 530      6EE4CD00 
 530      6616879B 
 530      7D58
 531 1646 C70E137E 		.ascii	"\307\016\023~\014b\326cK}\206t#\322\315Hk\221~\201t"
 531      0C62D663 
 531      4B7D8674 
 531      23D2CD48 
 531      6B917E81 
 532 165b 1BD28348 		.ascii	"\033\322\203H\353\221~\213\364;\266}mF\341\2061\370"
 532      EB917E8B 
 532      F43BB67D 
 532      6D46E186 
 532      31F8
 533 166d 2A68358E 		.ascii	"*h5\216\302k\357\264\035\205\327X\210J\270\377\336f"
 533      C26BEFB4 
 533      1D85D758 
 533      884AB8FF 
 533      DE66
 534 167f 14FEDE38 		.ascii	"\024\376\3368\012o\271\323\351(\3144\003\306`\353\312"
 534      0A6FB9D3 
 534      E928CC34 
 534      03C660EB 
 534      CA
 535 1690 AA1728CA 		.ascii	"\252\027(\3120\257\326\311\266\033\021\315:\231\315"
 535      30AFD6C9 
 535      B61B11CD 
 535      3A99CD
 536 169f 0B9F7BA7 		.ascii	"\013\237{\2470=v\217c0c\217\325\332q1\266\343\022l\221"
 536      303D768F 
 536      6330638F 
 536      D5DA7131 
 536      B6E3126C 
 537 16b4 D5488F23 		.ascii	"\325H\217#=\251\357}\373\015z\327\3027\006/\035\347"
 537      3DA9EF7D 
 537      FB0D7AD7 
 537      C237062F 
 537      1DE7
 538 16c6 099911AD 		.ascii	"\011\231\021\255\032i\276\227YZ:\202\225Nin#$\247\037"
 538      1A69BE97 
 538      595A3A82 
 538      954E696E 
 538      2324A71F 
 539 16da 341E2147 		.ascii	"4\036!G\217\233\2666\266\372\025\215_\251\357/\237A"
 539      8F9BB636 
 539      B6FA158D 
ARM GAS  /tmp/ccPWA4VS.s 			page 43


 539      5FA9EF2F 
 539      9F41
 540 16ec 7B9BD5C6 		.ascii	"{\233\325\306(\367\034\311p\376n\223S\027\226\265\341"
 540      28F71CC9 
 540      70FE6E93 
 540      531796B5 
 540      E1
 541 16fd 60DBE6A8 		.ascii	"`\333\346\250\344\265GO\014\254\036L\317\304X\213\257"
 541      E4B5474F 
 541      0CAC1E4C 
 541      CFC4588B 
 541      AF
 542 170e EA2D33CE 		.ascii	"\352-3\316\0102\317\365\365\23280\335\372\351R\3067"
 542      0832CFF5 
 542      F59A3830 
 542      DDFAE952 
 542      C637
 543 1720 0CCF1EDD 		.ascii	"\014\317\036\335\367\2374(l\300\240p\215A'\031qp?\213"
 543      F79F3428 
 543      6CC0A070 
 543      8D412719 
 543      71703F8B 
 544 1734 71F43B7B 		.ascii	"q\364;{\020\203\302+\\A\341\305\203\343\230\240\020"
 544      1083C22B 
 544      5C41E1C5 
 544      83E398A0 
 544      10
 545 1745 7A013AB6 		.ascii	"z\001:\266+\315\016\012\177:\310x\311\031\216\301\002"
 545      2BCD0E0A 
 545      7F3AC878 
 545      C9198EC1 
 545      02
 546 1756 3AB04B2C 		.ascii	":\260K,\330\004\0360\233\240\360\012\0136\3111\230\236"
 546      D8041E30 
 546      9BA0F00A 
 546      0B36C931 
 546      989E
 547 1768 B36B0799 		.ascii	"\263k\007\231\221e\0136[\0060\233\240\360\006\013V\347"
 547      91650B36 
 547      5B06309B 
 547      A0F0060B 
 547      56E7
 548 177a 184CCF59 		.ascii	"\030L\317Y\345!\006l\017\017\230\315\320>\206\005;\350"
 548      E521066C 
 548      0F0F98CD 
 548      D03E8605 
 548      3BE8
 549 178c 184CCFD9 		.ascii	"\030L\317\3318\026\354(\017X\300\2043\263\017\333\011"
 549      3816EC28 
 549      0F58C084 
 549      33B30FDB 
 549      09
 550 179d 64F12A3A 		.ascii	"d\361*:\336k\350\032\257#\275\201\264\021\251\342\303"
 550      DE6BE81A 
 550      AF23BD81 
 550      B411A9E2 
 550      C3
ARM GAS  /tmp/ccPWA4VS.s 			page 44


 551 17ae 6D5E4887 		.ascii	"m^H\207\"\035\216\364U\037\207\023\375\211u\242?\360"
 551      221D8EF4 
 551      551F8713 
 551      FD8975A2 
 551      3FF0
 552 17c0 78239BC3 		.ascii	"x#\233\303\037\327\036\335\361\037?g5\241~\373"
 552      1FD71EDD 
 552      F11F3F67 
 552      35A17EFB 
 553 17d0 9CDA3F13 		.ascii	"\234\332?\023\367\221yEa\224\217oE\241\322g\\\316\332"
 553      F7917945 
 553      61948F6F 
 553      45A1D267 
 553      5CCEDA
 554 17e3 8ABE84E4 		.ascii	"\212\276\204\344slt\340<\356\312t\223\320\331\243\233"
 554      736C74E0 
 554      3CEECA74 
 554      93D0D9A3 
 554      9B
 555 17f4 1FA3BE70 		.ascii	"\037\243\276p\234\217\370\302ew9\334#\204k\020F\376"
 555      9C8FF8C2 
 555      657739DC 
 555      23846B10 
 555      46FE
 556 1806 176F43FE 		.ascii	"\027oC\376'd\346\237L\220\267\215\323M\220\267 \013"
 556      2764E69F 
 556      4C90B78D 
 556      D34D90B7 
 556      200B
 557 1818 A46CF37C 		.ascii	"\244l\363|\341\362m\214\301\177\341\030,\240\003[\311"
 557      E1F26D8C 
 557      C17FE118 
 557      2CA0035B 
 557      C9
 558 1829 82EDE001 		.ascii	"\202\355\340\001\263\233 \263`\273\035\203\3519[\303"
 558      B39B20B3 
 558      60BB1D83 
 558      E9395BC3 
 559 1839 82EDE701 		.ascii	"\202\355\347\001\263\233 \263`\365\216\301\002f\315"
 559      B39B20B3 
 559      60F58EC1 
 559      0266CD
 560 1848 2B34B10E 		.ascii	"+4\261\016Y\234\350#Nb\022v\375)H\247!\235\201\364\035"
 560      599CE823 
 560      4E621276 
 560      FD2948A7 
 560      219D81F4 
 561 185d A4EFF1B8 		.ascii	"\244\357\361\270\204\261>\306%|\207\014W6\317bp\247"
 561      84B13EC6 
 561      257C870C 
 561      5736CF62 
 561      70A7
 562 186f D5E13FAD 		.ascii	"\325\341?\255l\352\022\250>\2548\230\303rp\3221\007"
 562      6CEA12A8 
 562      3EAC3898 
 562      C37270D2 
 562      3107
ARM GAS  /tmp/ccPWA4VS.s 			page 45


 563 1881 019683E4 		.ascii	"\001\226\203\344\325\255\364`]zT\200$\2341\3429:\344"
 563      D5ADF460 
 563      5D7A5480 
 563      249C31E2 
 563      393AE4
 564 1894 6670F2C6 		.ascii	"fp\362\306\326\354\005/h`\015\216\301\374:\260\312m"
 564      D6EC052F 
 564      68600D8E 
 564      C1FC3AB0 
 564      CA6D
 565 18a6 0CD8A0BB 		.ascii	"\014\330\240\273\235\202YE\352\243\321\026\306`\233"
 565      9D825945 
 565      EAA3D116 
 565      C6609B
 566 18b5 BF8FF443 		.ascii	"\277\217\364C\244s\221~\314Z\201$\274z\2671n\245\316"
 566      A473917E 
 566      CC5A8124 
 566      BC7AB731 
 566      6EA5CE
 567 18c8 91414D7B 		.ascii	"\221AM{Q\201\027\327\252m\337`\333v\312\335\034\003"
 567      518117D7 
 567      AA6DDF60 
 567      DB76CADD 
 567      1C03
 568 18da 4EC0DABA 		.ascii	"N\300\332\272\326\036=\247\0168\024X\022\336q\214\250"
 568      D61E3DA7 
 568      0E381458 
 568      12DE718C 
 568      A8
 569 18eb B796F187 		.ascii	"\267\226\361\207\246\353\026}\346\360\340\331<\236\232"
 569      A6EB167D 
 569      E6F0E0D9 
 569      3C9E9A
 570 18fa 4A43040A 		.ascii	"JC\004\012\266\3201X@\260\374\260\217jdq*\206\010\323"
 570      B6D03158 
 570      40B0FCB0 
 570      8F6A6471 
 570      2A8608D3 
 571 190e 3020F818 		.ascii	"0 \370\030\351i\244\027\220^D:\022[i!\322\305H\253x"
 571      E969A417 
 571      905E443A 
 571      125B6921 
 571      D2C548AB 
 572 1923 5A6C021B 		.ascii	"Zl\002\033\"\254B\021\3065w\311\231<\020\275[;I|>N\233"
 572      22AC4211 
 572      C63577C9 
 572      993C10BD 
 572      5B3B497C 
 573 193a 928E11F5 		.ascii	"\222\216\021\365-\366\023=\363\207\202\325\360\200\231"
 573      2DF6133D 
 573      F38782D5 
 573      F08099
 574 1949 756E46AD 		.ascii	"unF\255T\241\343Q\241o\243\342\226\243\262V\352\273"
 574      54A1E351 
 574      A16FA3E2 
 574      96A3B256 
 574      EABB
ARM GAS  /tmp/ccPWA4VS.s 			page 46


 575 195b CDE74DBA 		.ascii	"\315\347M\272\3158\3434w\234n\232k\211e\245\370J/\263"
 575      CD38E334 
 575      779C6E9A 
 575      6B8965A5 
 575      F84A2FB3 
 576 196f 27E19497 		.ascii	"'\341\224\227cO\202\315\277\225h\334\250\271A\372\357"
 576      634F82CD 
 576      BF9568DC 
 576      A8B941FA 
 576      EF
 577 1980 A377DF6D 		.ascii	"\243w\337mx\356j\346l\314\016c1\373\260;\032e\261\032"
 577      78EE6AE6 
 577      6CCC0E63 
 577      31FBB03B 
 577      1A65B11A 
 578 1994 1FAAAFC1 		.ascii	"\037\252\257\301\315\027\247\221\216\240\366\207\364"
 578      CD17A791 
 578      8EA0F687 
 578      F4
 579 19a1 4DA46F21 		.ascii	"M\244o!\255\346Q\303rv\013\311Qd{I\263\267fL\232\177"
 579      ADE651C3 
 579      72760BC9 
 579      51647B49 
 579      B3B7664C 
 580 19b7 62B03886 		.ascii	"b\2608\206\236\3067\001M\346\244cD\275b\017\234\341"
 580      9EC63701 
 580      4DE6A463 
 580      44BD620F 
 580      9CE1
 581 19c9 DB0CFB3F 		.ascii	"\333\014\373?4\254\005\314\032\302\366e\373\177Ic\304"
 581      34AC05CC 
 581      1AC2F665 
 581      FB7F4963 
 581      C4
 582 19da 0D1823CE 		.ascii	"\015\030#\316\372E\346\307\266z \242\241\215\306 q\025"
 582      FA45E6C7 
 582      B67A20A2 
 582      A18DC620 
 582      7115
 583 19ec 7DECBC91 		.ascii	"}\354\274\221+\310\255\256Y%*\303s\370\2179\257Z\265"
 583      2BC8ADAE 
 583      59252AC3 
 583      73F88F39 
 583      AF5AB5
 584 19ff FE9CFAEF 		.ascii	"\376\234\372\357%\267\370\210_;\374\013cWp|\312\371"
 584      25B7F888 
 584      5F3BFC0B 
 584      6357707C 
 584      CAF9
 585 1a11 3184D868 		.ascii	"1\204\330h?\366\331\264\353\366eW\357j [n4\236\3168"
 585      3FF6D9B4 
 585      EBF66557 
 585      EF6A205B 
 585      6E349ECE 
 586 1a26 06D48FCC 		.ascii	"\006\324\217\314u582S\260\013\216\301Z\353\300v\260"
 586      75353832 
 586      53B00B8E 
ARM GAS  /tmp/ccPWA4VS.s 			page 47


 586      C15AEBC0 
 586      76B0
 587 1a38 60571C83 		.ascii	"`W\034\203\265\321\201\355b\301\006\335\343\024Lo\275"
 587      B5D181ED 
 587      62C106DD 
 587      E3144C6F 
 587      BD
 588 1a49 BB59B011 		.ascii	"\273Y\260\021\216\301tg\346'\367\016\317\251{\201\377"
 588      8EC17467 
 588      E627F70E 
 588      CFA97B81 
 588      FF
 589 1a5a 2D82AA55 		.ascii	"-\202\252U\207\007\253oQ\354\303\372+\3571\332\221\323"
 589      8707AB6F 
 589      51ECC3FA 
 589      2BEF31DA 
 589      91D3
 590 1a6c F70820C4 		.ascii	"\367\010 \304\305\255\313\214\014\031\037P\260\357i"
 590      C5ADCB8C 
 590      0C191F50 
 590      B0EF69
 591 1a7b 11433A79 		.ascii	"\021C:y\367\210!\312\007m5\246\306\033\225\342p1\366"
 591      F78821CA 
 591      076D35A6 
 591      C61B95E2 
 591      7031F6
 592 1a8e EAF0371C 		.ascii	"\352\3607\034\236\023_\265\352\344y\265\177\035B\026"
 592      9E135FB5 
 592      EAE479B5 
 592      7F1D4216 
 593 1a9e 6634D18B 		.ascii	"f4\321\213\363\377\272*\011\263\215\2028\231\025\241"
 593      F3FFBA2A 
 593      09B38D82 
 593      389915A1 
 594 1aae 66CEFF62 		.ascii	"f\316\377b\242:tS\276\026\360 \332\234\375\3676\375"
 594      A23A7453 
 594      BE16F020 
 594      DA9CFDF7 
 594      36FD
 595 1ac0 2720146C 		.ascii	"' \024l\225c0\275%Od\3016\360\200\331\234\3757\231\005"
 595      956330BD 
 595      254F64C1 
 595      36F080D9 
 595      9CFD3799 
 596 1ad5 DBE2184C 		.ascii	"\333\342\030L\317\331T\026l\007\017X\300\232\263\351"
 596      CFD95416 
 596      6C070F58 
 596      C09AB3E9 
 597 1ae5 2CD8578E 		.ascii	",\330W\216\301\364\234-`\301\276\345\001\263\011u\027"
 597      C1F49C2D 
 597      60C1BEE5 
 597      01B30975 
 597      17
 598 1af6 B160271D 		.ascii	"\261`'\035\203\261\234)\311\252\215\331\206\227G\211"
 598      83B19C29 
 598      C9AA8DD9 
 598      86974789 
ARM GAS  /tmp/ccPWA4VS.s 			page 48


 599 1b06 8BD286C0 		.ascii	"\213\322\206\300\024\230\242\015\201\027|7\253)\355"
 599      1498A20D 
 599      81177C37 
 599      AB29ED
 600 1b15 003760E2 		.ascii	"\0007`\342\274\221\011CA\307Q\316Ff\276\275\011\347"
 600      BC910943 
 600      41C751CE 
 600      4666BEBD 
 600      09E7
 601 1b27 589B319C 		.ascii	"X\2331\234\333\212\264\016\351\016\244\273\220\356F"
 601      DB8AB40E 
 601      E90EA4BB 
 601      90EE46
 602 1b36 BA17E9D7 		.ascii	"\272\027\351\327H\017\"=\214\364\010\322\357\221\036"
 602      480F223D 
 602      8CF408D2 
 602      EF911E
 603 1b45 477A12E9 		.ascii	"Gz\022\351\217HO#=\213\364<O\234\264\236\235Y5\334\303"
 603      8F484F23 
 603      3D8BF43C 
 603      4F9CB49E 
 603      9D5935DC 
 604 1b5a 11D5D8FC 		.ascii	"\021\325\330\374\243\357I\363\257\274+\236\245\003*"
 604      A3EF49F3 
 604      AFBC2B9E 
 604      A5032A
 605 1b69 0D181B8D 		.ascii	"\015\030\033\215\210\031g\247z[;\363\357i\254W\177\351"
 605      881967A7 
 605      7A5B3BF3 
 605      EF69AC57 
 605      7FE9
 606 1b7b 14CBF695 		.ascii	"\024\313\366\225\321%L\360\271\024\203\317e\030v&Qy"
 606      D1254CF0 
 606      B91483CF 
 606      65187626 
 606      5179
 607 1b8d EB903620 		.ascii	"\353\2206 \275\314\243\310\005l\300Y\211\254\316kv\300"
 607      BDCCA3C8 
 607      056CC059 
 607      89ACCE6B 
 607      76C0
 608 1b9f B97DCEB7 		.ascii	"\271}\316\267\213\351\253f\264\205d\361'\237\344\020"
 608      8BE9AB66 
 608      B48564F1 
 608      279FE410 
 609 1baf 51AFC8AB 		.ascii	"Q\257\310\253\307\324\223\320f\343F\376q<\014\332\214"
 609      C7D493D0 
 609      66E346FE 
 609      713C0CDA 
 609      8C
 610 1bc0 4FD7BF5B 		.ascii	"O\327\277[.\342\373\274\264i\246\032\341\0346\363\350"
 610      2EE2FBBC 
 610      B469A61A 
 610      E11C36F3 
 610      E8
 611 1bd1 8BF852A2 		.ascii	"\213\370R\242\366\364\361C#\\\306\321\263\255]K\317"
 611      F6F4F143 
ARM GAS  /tmp/ccPWA4VS.s 			page 49


 611      235CC6D1 
 611      B3AD5D4B 
 611      CF
 612 1be2 635A7A3E 		.ascii	"cZz>\266\364'\330\322\327\260u\257#mD:\310\317\321\322"
 612      B6F427D8 
 612      D2D7B075 
 612      AF236D44 
 612      3AC8CFD1 
 613 1bf7 1FB02DBD 		.ascii	"\037\260-\275\000Y\315\360J\237\215\"W\034\347\232\010"
 613      0059CDF0 
 613      4A9F8D22 
 613      571CE79A 
 613      08
 614 1c08 CCFC170D 		.ascii	"\314\374\027\015k\226n\"\260\376\2674\024\032\356\307"
 614      6B966E22 
 614      B0FEB734 
 614      141AEEC7 
 615 1c18 C5E25F66 		.ascii	"\305\342_f~p\246\007\302\255\300~\303D`'}\257\214\344"
 615      7E70A607 
 615      C2ADC07E 
 615      C3446027 
 615      7DAF8CE4 
 616 1c2c 679E08EC 		.ascii	"g\236\010\354\242\016|=.\244\254B\006H\301f\331}r\317"
 616      A20E7C3D 
 616      2EA4AC42 
 616      0648C166 
 616      D97D72CF 
 617 1c40 C6F5D40E 		.ascii	"\306\365\324\016\366alB\3032\006.cX\2467\253\275\033"
 617      F6616C42 
 617      C332062E 
 617      6358A637 
 617      ABBD1B
 618 1c53 9938758D 		.ascii	"\2318u\215\221\267\214q\252.\306K~\305\202\255w\014"
 618      91B78C71 
 618      AA2EC64B 
 618      7EC582AD 
 618      770C
 619 1c65 D6510776 		.ascii	"\326Q\007v`\304\033\352\212\021\035\3716\362(\316\306"
 619      60C41BEA 
 619      8A111DF9 
 619      36F228CE 
 619      C6
 620 1c76 8C0EA687 		.ascii	"\214\016\246\207QY<\346\223\034\202\351\325v\206\035"
 620      51593CE6 
 620      931C82E9 
 620      D576861D 
 621 1c86 933FE7E1 		.ascii	"\223?\347\341\314&\\;\307\202\355t\014\246\347\354\002"
 621      CC265C3B 
 621      C782ED74 
 621      0CA6E7EC 
 621      02
 622 1c97 0BB68F07 		.ascii	"\013\266\217\007\314&\\\273\304\202\035r\014\246\347"
 622      CC265CBB 
 622      C4821D72 
 622      0CA6E7
 623 1ca6 EC4A93FF 		.ascii	"\354J\223\377&\247\013>\2328\221\351~\306\211\034\343"
 623      26A70B3E 
ARM GAS  /tmp/ccPWA4VS.s 			page 50


 623      9A3891E9 
 623      7EC6891C 
 623      E3
 624 1cb7 A93C6025 		.ascii	"\251<`%\211\222\234\266%\033\2351\211g`\022kD3\017`"
 624      89929CB6 
 624      251B9D31 
 624      89676012 
 624      6B44330F 
 625 1ccc 0226C298 		.ascii	"\002&\302\230}X\007\001\201\222\237\370\317\221~\\\224"
 625      7D580701 
 625      81929FF8 
 625      CF917E5C 
 625      94
 626 1cdd 413A0A69 		.ascii	"A:\012i%\3221H\307!\035\217t\002\322IH\247 \235\206"
 626      25D23148 
 626      C7211D8F 
 626      7402D249 
 626      48A7209D 
 627 1cf2 74268FA7 		.ascii	"t&\217\247\035\306*\351\202cO\253k!\030SO\034\321\306"
 627      1DC62AE9 
 627      82634FAB 
 627      6B211853 
 627      4F1CD1C6 
 628 1d06 54BAB27A 		.ascii	"T\272\262z\231\007\321\306\264\253\217\353\006\301A"
 628      9907D1C6 
 628      B4AB8FEB 
 628      06C141
 629 1d15 BF32C099 		.ascii	"\2772\300\231\371\004\376\3074\223\230Qk\012\216ZSq"
 629      F904FEC7 
 629      34939851 
 629      6B0A8E5A 
 629      5371
 630 1d27 D49A8574 		.ascii	"\324\232\205t\016\322\241\250\313\367\220\316\346\321"
 630      0ED2A1A8 
 630      CBF790CE 
 630      E6D1
 631 1d35 E878EB97 		.ascii	"\350x\353\227\261$a\370\257\364\303G\352\254\212O?\023"
 631      B12461F8 
 631      AFF4C347 
 631      EAAC8A4F 
 631      3F13
 632 1d47 C70F51BA 		.ascii	"\307\017Q\272\322#\020\300\036\320-\217\364\330\036"
 632      D22310C0 
 632      1ED02D8F 
 632      F4D81E
 633 1d56 56A19E90 		.ascii	"V\241\236\220w1\334\225\326\012A\002\302[\027SyS\317"
 633      7731DC95 
 633      D60A4102 
 633      C25B1753 
 633      7953CF
 634 1d69 B858F875 		.ascii	"\270X\370u~\033z\320\204\240/e\330\305\217\177\236\343"
 634      7E1B7AD0 
 634      84A02F65 
 634      D8C58F7F 
 634      9EE3
 635 1d7b 373BF1A2 		.ascii	"7;\361\242jx\255\371\211\027\266;\272?\366;:\037OI\035"
 635      6A78ADF9 
ARM GAS  /tmp/ccPWA4VS.s 			page 51


 635      8917B63B 
 635      BA3FF63B 
 635      3A1F4F49 
 636 1d90 5EFA8290 		.ascii	"^\372\202\220\032\230G\237?\337\240.R,\300\221y\216"
 636      1A98479F 
 636      3FDFA02E 
 636      522CC091 
 636      798E
 637 1da2 41B51981 		.ascii	"A\265\031\201$\241\012\213,6\016\316\007\344\000\315"
 637      24A10A8B 
 637      2C360ECE 
 637      07E400CD 
 638 1db2 CD34342B 		.ascii	"\31544+\311\263\307\375h\236\344\3243\230n\340^\217"
 638      C9B3C7FD 
 638      689EE4D4 
 638      33986EE0 
 638      5E8F
 639 1dc4 C58C5B70 		.ascii	"\305\214[px\204\3329\217\345\251gM\037A/\367;}#i\205"
 639      7884DA39 
 639      8FE5A967 
 639      4D1F412F 
 639      F73B7D23 
 640 1dda DFFC8DA4 		.ascii	"\337\374\215\244;S\255\274\327(\201\276\332L\035VI^"
 640      3B53ADBC 
 640      D72881BE 
 640      DA4C1D56 
 640      495E
 641 1dec C0339508 		.ascii	"\3003\225\010k\262\370\025\027\230\315\277\334\372\311"
 641      6BB2F815 
 641      1798CDBF 
 641      DCFAC9
 642 1dfb A39D2807 		.ascii	"\243\235(\007\0234.\335>a\015v\211\001\253\347\0023"
 642      13342EDD 
 642      3E610D76 
 642      8901ABE7 
 642      0233
 643 1e0d FBBFBA66 		.ascii	"\373\277\272f\037\326\204d\261\012\335\367Rt\030\313"
 643      1FD68464 
 643      B10ADDF7 
 643      527418CB 
 644 1e1d 90AE44BA 		.ascii	"\220\256D\272\012\351j\036\027\362\211\277\351a\233"
 644      0AE96A1E 
 644      17F289BF 
 644      E9619B
 645 1e2c EAF13406 		.ascii	"\352\3614\006\177\262\301\312\237l\277\353kz\342&\301"
 645      7FB2C1CA 
 645      9F6CBFEB 
 645      6B7AE226 
 645      C1
 646 1e3d 9284FD78 		.ascii	"\222\204\375x\337<\277\225c\300\032U\177\322\030\356"
 646      DF3CBF95 
 646      63C01A55 
 646      7FD218EE 
 647 1e4d AA9D9973 		.ascii	"\252\235\231s(C1\2733sH)\235\222\326\230z\220\20359"
 647      284331BB 
 647      33734829 
 647      9D92D698 
ARM GAS  /tmp/ccPWA4VS.s 			page 52


 647      7A908335 
 648 1e62 9583EA1B 		.ascii	"\225\203\352\033\033\357\245\307fJ\302w\246\")\223\302"
 648      1BEFA5C7 
 648      664AC277 
 648      A6222993 
 648      C2
 649 1e73 29E7B8CE 		.ascii	")\347\270\316OZoC\263\270\332`\344\3523=W\317\211\256"
 649      4F5A6F43 
 649      B3B8DA60 
 649      E4EA333D 
 649      57CF89AE 
 650 1e87 096EE4AD 		.ascii	"\011n\344\255\276\262~\302\251O+&)\353L\217\377\264"
 650      BEB27EC2 
 650      A94F2B26 
 650      29EB4C8F 
 650      FFB4
 651 1e99 794CBEC5 		.ascii	"yL\276\305oxae\256\233y\015]=\243T\375\315{h\361\276"
 651      6F786165 
 651      AE9B790D 
 651      5D3DA354 
 651      FDCD7B68 
 652 1eaf 869DF72C 		.ascii	"\206\235\367,\307M\215[\251\267\273\327\324\333e\302"
 652      C74D8D5B 
 652      A9B7BBD7 
 652      D4DB65C2 
 653 1ebf 492EC433 		.ascii	"I.\3043J\266#\306'\006\014Y\354bxP\326\305\360\177\341"
 653      4AB623C6 
 653      27060C59 
 653      EC627850 
 653      D6C5F07F 
 654 1ed4 AE5F7529 		.ascii	"\256_u)\225~\314\227\204-\367\212\202\351G\026\237\376"
 654      957ECC97 
 654      842DF78A 
 654      82E94716 
 654      9FFE
 655 1ee6 B5C51FBA 		.ascii	"\265\305\037\272\244\373\311.\354'\206;\015\346\275"
 655      A4FBC92E 
 655      EC27863B 
 655      0DE6BD
 656 1ef5 CBC0A176 		.ascii	"\313\300\241v\323\356&\21561\325h\327o\234\224\255\032"
 656      D3EE268D 
 656      3631D568 
 656      D76F9C94 
 656      AD1A
 657 1f07 CD664CDA 		.ascii	"\315fL\332gl42\21376\232\201\275\243\026\354}\335\324"
 657      676C3432 
 657      8B37369A 
 657      81BDA316 
 657      EC7DDDD4 
 658 1f1b D2EBC926 		.ascii	"\322\353\311&\252-wO\\\244\014\305S\257\215g^\223Q\330"
 658      AA2D774F 
 658      5CA40CC5 
 658      53AF8D67 
 658      5E9351D8 
 659 1f2f 8AB58346 		.ascii	"\212\265\203F\326\306\263\254\251\307\337\244~O\363"
 659      D6C6B3AC 
 659      A9C7DFA4 
ARM GAS  /tmp/ccPWA4VS.s 			page 53


 659      7E4FF3
 660 1f3e E88F3920 		.ascii	"\350\2179 \221SS\326OY\260~\330\224\365\011\24767\247"
 660      915353D6 
 660      4F59B07E 
 660      D894F509 
 660      A73637A7 
 661 1f52 231CB1D5 		.ascii	"#\034\261\325\351B\303y\014M\216\023\276j\301\343q="
 661      E942C379 
 661      0C4D8E13 
 661      BE6AC1E3 
 661      713D
 662 1f64 8FFF22BC 		.ascii	"\217\377\"\274\243$\353\300\347]\336%B'\330D\216\256"
 662      A324EBC0 
 662      E75DDE25 
 662      4227D844 
 662      8EAE
 663 1f76 6D14C19F 		.ascii	"m\024\301\237\314\023I\254><\240\241h\276\276M*Vw\251"
 663      CC1349AC 
 663      3E3CA0A1 
 663      68BEBE4D 
 663      2A5677A9 
 664 1f8a 8827D388 		.ascii	"\210'\323\210\004\015$\336\363\356\033k\304]\263\225"
 664      040D24DE 
 664      F3EE1B6B 
 664      C45DB395 
 665 1f9a 64E52045 		.ascii	"d\345 Ei\024"
 665      6914
 666 1fa0 1B1F8741 		.ascii	"\033\037\207AM$V\177\300\010\227\354\254\301\355\325"
 666      4D24567F 
 666      C00897EC 
 666      ACC1EDD5 
 667 1fb0 8E2CF831 		.ascii	"\216,\3701\015\327\314w\336N\3535\227#\214dg=]\254w"
 667      0DD7CC77 
 667      DE4EEB35 
 667      97238C64 
 667      673D5DAC 
 668 1fc5 C89FF5E7 		.ascii	"\310\237\365\347\010\206\217\325\255\247\322\243\214"
 668      08868FD5 
 668      ADA7D2A3 
 668      8C
 669 1fd2 6156B5D5 		.ascii	"aV\265\325b\232DJ\235\263,E\334\236U\251\363\026\245"
 669      629A444A 
 669      9DB32C45 
 669      DC9E55A9 
 669      F316A5
 670 1fe5 F83572D1 		.ascii	"\3705r\321hKDR\256\243\016.XrL\216g\265*\325`Yj\267"
 670      684B4452 
 670      AEA30E2E 
 670      58724C8E 
 670      67B52AD5 
 671 1ffd 4DA94B   		.ascii	"M\251K"
 672 2000 96A5BEB6 		.ascii	"\226\245\276\266)u\331\262\324a\233RW,K]\267)u\325\262"
 672      2975D9B2 
 672      D4619B52 
 672      572C4B5D 
 672      B72975D5 
 673 2015 D43E9BF6 		.ascii	"\324>\233\366\273fY\352\210M\251\353\226\245\016\332"
ARM GAS  /tmp/ccPWA4VS.s 			page 54


 673      BB6659EA 
 673      884DA9EB 
 673      96A50EDA 
 674 2025 94BA6159 		.ascii	"\224\272aY\212\204\225V\245\032-K\221\377\031`UJ\311"
 674      8A849556 
 674      A51A2D4B 
 674      91FF1960 
 674      554AC9
 675 2038 4AFB1C77 		.ascii	"J\373\034w\250\257\034\363>\375\314\263\201N\202'\370"
 675      A8AF1CF3 
 675      3EFDCCB3 
 675      814E8227 
 675      F8
 676 2049 54345AD2 		.ascii	"T4Z\322>\267\"\036\313-\211\364\316\355\023\012\345"
 676      3EB7221E 
 676      CB2D89F4 
 676      CEED130A 
 676      E5
 677 205a CAB1D23F 		.ascii	"\312\261\322?\224E\313\302\177\010\313\275#\271\017"
 677      9445CBC2 
 677      7F08CBBD 
 677      23B90F
 678 2069 3ED0F181 		.ascii	">\320\361\201\007s#e\241\222\212\242pn<QT\024.~\240"
 678      07732365 
 678      A1928AA2 
 678      706E3C51 
 678      54142E7E 
 679 207e AFE08D47 		.ascii	"\257\340\215G\376\036\016&\036\312\355\033-\015\347"
 679      FE1E0E26 
 679      1ECAED1B 
 679      2D0DE7
 680 208d 86A24503 		.ascii	"\206\242E\003s\213\302\375rC}#\275#\321xn\"VQ\366R."
 680      738BC2FD 
 680      72437D23 
 680      BD23D178 
 680      6E225651 
 681 20a4 24FACA25 		.ascii	"$\372\312%\351\302\341XD.\201\3029\205\230\312\213E"
 681      E9C2E158 
 681      442E81C2 
 681      398598CA 
 681      8B45
 682 20b6 FA8563AD 		.ascii	"\372\205c\255\330\037\177\355\321\3537\310\214\236\011"
 682      D81F7FED 
 682      D1EB37C8 
 682      8C9E09
 683 20c5 A6FA4859 		.ascii	"\246\372HY\002\020|\025\360\3351\230x\320\346\346R\031"
 683      02107C15 
 683      F0DD3198 
 683      78D0E6E6 
 683      5219
 684 20d7 B8290BE7 		.ascii	"\270)\013\347\006\201c\271\242$\021L\014,\017\307\241"
 684      068163B9 
 684      A224114C 
 684      0C2C0FC7 
 684      A1
 685 20e8 705630A8 		.ascii	"pV0\250\026\367\364\217E\022aw,,\027u\315$I,\221[\036"
 685      16F7F48F 
ARM GAS  /tmp/ccPWA4VS.s 			page 55


 685      45126177 
 685      2C2C1775 
 685      CD24492C 
 686 20ff 8D25E2B9 		.ascii	"\215%\342\271O\026\364\350\324c\000\334YZ\036)\011\307"
 686      4F16F4E8 
 686      D46300DC 
 686      595A1E29 
 686      09C7
 687 2111 E2B94F77 		.ascii	"\342\271Ow\352\004\267k\350\236\322x\237`\302\007\025"
 687      EA04B76B 
 687      E89ED278 
 687      9F60C207 
 687      15
 688 2122 74681F4C 		.ascii	"th\037L@]j\312U^\221p\365\011':rT\244\211\020\352\033"
 688      405D6ACA 
 688      555E9170 
 688      F509273A 
 688      7254A489 
 689 2139 1F184FB1 		.ascii	"\037\030O\261M\322\221R\320\272\277B\305lA%!I7\300'"
 689      4DD29152 
 689      D0BABF42 
 689      C56C4125 
 689      214937C0 
 690 214e DC809FF0 		.ascii	"\334\200\237\360\242P\011\017\221*\341\352W\232x\330"
 690      A250090F 
 690      912AE1EA 
 690      579A78D8 
 691 215e 518DE17E 		.ascii	"Q\215\341~\341\262\004\251\257%\246\202\361hE,\004\225"
 691      E1B204A9 
 691      AF25A682 
 691      F168452C 
 691      0495
 692 2170 E6B03F5B 		.ascii	"\346\260?[\323\037%\221x\"\\\026\216\005\023-\365\031"
 692      D31F2591 
 692      78225C16 
 692      8E05132D 
 692      F519
 693 2182 BE7049B0 		.ascii	"\276pI\260,< \341O\364%l\200\036B}\2034\375\2403\371"
 693      2C3C20E1 
 693      4FF4256C 
 693      801E427D 
 693      8334FDA0 
 694 2198 437D8B88 		.ascii	"C}\213\210\271\225#\034|\225\307\302\375|\211\362X$"
 694      B995231C 
 694      7C95C7C2 
 694      FD7C89F2 
 694      5824
 695 21aa 1AA43F23 		.ascii	"\032\244?#Q_(Z\226\200\277>\352\270\011\373\206\242"
 695      515F285A 
 695      9680BF3E 
 695      EAB809FB 
 695      86A2
 696 21bc B130C067 		.ascii	"\2610\300g\223l\322P\241\304\200\177k\036J\260\337#"
 696      936CD250 
 696      A1C4807F 
 696      6B1E4AB0 
 696      DF23
ARM GAS  /tmp/ccPWA4VS.s 			page 56


 697 21ce A580E48F 		.ascii	"\245\200\344\217\205\373\2009Bs\307\333=\014\327#pu"
 697      85FB8039 
 697      4273C7DB 
 697      3D0CD723 
 697      7075
 698 21e0 84EB5157 		.ascii	"\204\353QW\274}[\270\332\301\325\036\256\016p=\010\327"
 698      BC7D5BB8 
 698      DAC1D51E 
 698      AE0E703D 
 698      08D7
 699 21f2 4370C17D 		.ascii	"Cp\301}\355\341\276\366p_{\270\257\003\334\327\241\235"
 699      EDE1BEF6 
 699      705F7BB8 
 699      AF03DCD7 
 699      A19D
 700 2204 147B508A 		.ascii	"\024{P\212=$\305\036\226b\217H\261\216R\354QW\254]["
 700      3D24C51E 
 700      96628F48 
 700      B18E52EC 
 700      5157AC5D 
 701 2219 B8DA4925 		.ascii	"\270\332I%1\370\352\340)\017\002\267>\242\230\376\240"
 701      31F8EAE0 
 701      290F02B7 
 701      3EA298FE 
 701      A0
 702 222a F0F260B4 		.ascii	"\360\362`\264\244(\034#\212\222K\303\376D<!'\240\325"
 702      A4281C23 
 702      8A924BC3 
 702      FE443C21 
 702      27A0D5
 703 223d 201F53BE 		.ascii	" \037S\276Di\264\210\376..\221\373\304}\211X\2708\216"
 703      4469B488 
 703      FE2E2E91 
 703      FBC47D89 
 703      58B8388E 
 704 2251 2A24096F 		.ascii	"*$\011o\254h \330\255?< \222\000\311\303\336\376\211"
 704      AC6820D8 
 704      AD3F3C20 
 704      9200C9C3 
 704      DEFE89
 705 2264 68EF17CB 		.ascii	"h\357\027\313\263\261UK\345\370Kpg\270?I\270\312\203"
 705      B3B1554B 
 705      E5F84B70 
 705      67B83F49 
 705      B8CA83
 706 2277 152D694B 		.ascii	"\025-iK\306\261\271\203\211V\251\266\2459Y\345\301\376"
 706      C6B1B983 
 706      8956A9B6 
 706      A53959E5 
 706      C1FE
 707 2289 72241129 		.ascii	"r$\021)\353\323J\313~\271\"\\\001\265\267f\356\304\254"
 707      EBD34ACB 
 707      7EB9225C 
 707      01B5B766 
 707      EEC4AC
 708 229c 16E541A8 		.ascii	"\026\345A\250\026\223\036LBF\270<\\\006\335\274\217"
 708      16931E4C 
ARM GAS  /tmp/ccPWA4VS.s 			page 57


 708      4246B83C 
 708      5C06DDBC 
 708      8F
 709 22ad A7B4025A 		.ascii	"\247\264\002Z\265\203#s)M\014 \336\241\224\242\303w"
 709      B5832373 
 709      294D0C20 
 709      DEA194A2 
 709      C377
 710 22bf B43FB146 		.ascii	"\264?\261FD\002\021J\321\212\200?\270\217p\332\202H"
 710      4402114A 
 710      D18A803F 
 710      B88F70DA 
 710      8248
 711 22d1 2F97A011 		.ascii	"/\227\240\021Af9\370\302l\260\\\315\212\263 M\273\003"
 711      416639F8 
 711      C26CB05C 
 711      CD8AB320 
 711      4DBB03
 712 22e4 357ED41C 		.ascii	"5~\324\034t?\310\306$\371{\177\252\316p\034\241=x_V"
 712      743FC8C6 
 712      24F97B7F 
 712      AACE701C 
 712      A13D785F 
 713 22f9 BC48557F 		.ascii	"\274HU\177Va^\360\331g\272=\323\255\227\017R\205\275"
 713      56615EF0 
 713      D967BA3D 
 713      D3AD970F 
 713      5285BD
 714 230c 7AE6FBE1 		.ascii	"z\346\373\341\273\240\363\223y\317{\360\026g}\023\245"
 714      BBA0F393 
 714      79CF7BF0 
 714      16677D13 
 714      A5
 715 231d 227DF3A6 		.ascii	"\"}\363\246H\031\364wM\255-\2403\250I\277\226\314zY"
 715      4819F477 
 715      4DAD2DA0 
 715      33A849BF 
 715      96CC7A59 
 716 2331 6B044885 		.ascii	"k\004H\205\242\025\320Cb\376\227\203\275+\212\213\303"
 716      A215D043 
 716      62FE9783 
 716      BD2B8A8B 
 716      C3
 717 2342 31CFCBC1 		.ascii	"1\317\313\301D\264\334\007\267\304\312\0231\370\216"
 717      44B4DC07 
 717      B7C4CA13 
 717      31F88E
 718 2351 15C177D6 		.ascii	"\025\301w\326\313e\321D\244x \240\274\034\244I\357\313"
 718      CB65D144 
 718      A47820A0 
 718      BC1CA449 
 718      EFCB
 719 2363 A08CB297 		.ascii	"\240\214\262\227\274\021\304l\031\255H0\325z\243\230"
 719      BC11C46C 
 719      19AD4830 
 719      D57AA398 
 720 2373 9022BDA5 		.ascii	"\220\"\275\245h\357?e\022\004\264\223\333\251Ga\267"
ARM GAS  /tmp/ccPWA4VS.s 			page 58


 720      68EF3F65 
 720      1204B493 
 720      DBA94761 
 720      B7
 721 2384 C2DCC25E 		.ascii	"\302\334\302^\340\310K;\264/~\260m\273\001!\"\315\263"
 721      E0C84B3B 
 721      B42F7EB0 
 721      6DBB0121 
 721      22CDB3
 722 2397 854F16F4 		.ascii	"\205O\026\364\012\366\002G\227\027.\226\012\013\244"
 722      0AF60247 
 722      97172E96 
 722      0A0BA4
 723 23a6 BC02D753 		.ascii	"\274\002\327S\005\005\256N\005\355\340j\017W\007\367"
 723      0505AE4E 
 723      05EDE06A 
 723      0F5707F7 
 724 23b6 D3BDF20B 		.ascii	"\323\275\362\013<\025q9\226\310h\022\375dh\320\2128"
 724      3C157139 
 724      96C86812 
 724      FD6468D0 
 724      8A38
 725 23c8 FC015A16 		.ascii	"\374\001Z\026\232\015\252x\304\231\327\201\336!\227"
 725      9A0DAA78 
 725      C499D781 
 725      DE2197
 726 23d7 1245DFF6 		.ascii	"\022E\337\366\224\034\017\027\206A\320\262\004\214R"
 726      941C0F17 
 726      8641D0B2 
 726      048C52
 727 23e6 85F8873B 		.ascii	"\205\370\207;\3152a\350\362k\025\272 \341*.M\334T$'"
 727      CD3261E8 
 727      F26B15BA 
 727      20E12A2E 
 727      4DDC5424 
 728 23fb E4B85C5A 		.ascii	"\344\270\\Z^\022~ $\260\277`\020$\277\012\361\027xo"
 728      5E127E20 
 728      24B0BF60 
 728      1024BF0A 
 728      F117786F 
 729 240f E2D8B3FB 		.ascii	"\342\330\263\373\224\307\265\014\177\211\234\210$\200"
 729      94C7B50C 
 729      7F899C88 
 729      2480
 730 241d 9BAC9268 		.ascii	"\233\254\222hY\037L\371\345\022\232\345\217\313\211"
 730      591F4CF9 
 730      E5129AE5 
 730      8FCB89
 731 242c 4EA4455D 		.ascii	"N\244E]P\300\227\010\227\226?\325#\337\017\2161\036"
 731      50C09708 
 731      97963FD5 
 731      23DF0F8E 
 731      311E
 732 243e 87443630 		.ascii	"\207D60\320\265\2424R\024I\014\314\302\314\036\345\003"
 732      D0B5A234 
 732      5214490C 
 732      CCC2CC1E 
ARM GAS  /tmp/ccPWA4VS.s 			page 59


 732      E503
 733 2450 4AB369AA 		.ascii	"J\263i\252\360\241\207\333>\322\242oEi\327n]\037n\333"
 733      F0A187DB 
 733      3ED2A26F 
 733      4569D76E 
 733      5D1F6EDB 
 734 2464 A16D36B4 		.ascii	"\241m6\264\212vs\013H\367\002\260\366\217<\244%\013"
 734      8A76730B 
 734      48F702B0 
 734      F68F3CA4 
 734      250B
 735 2476 7AE5B5EA 		.ascii	"z\345\265\352\027\016%\242\261\016\032c\342\000q\240"
 735      170E25A2 
 735      B10E1A63 
 735      E20071A0 
 736 2486 F877971C 		.ascii	"\370w\227\034\012\271J\345>\255\322\"\201\373\214$\304"
 736      0AB94AE5 
 736      3EADD222 
 736      81FB8C24 
 736      C4
 737 2497 B8978EAC 		.ascii	"\270\227\216\254~\034\367 \201B\227D\373\364\011\307"
 737      7E1CF720 
 737      81429744 
 737      FBF409C7 
 738 24a7 C81806A9 		.ascii	"\310\030\006\251\342\010\301\361\251)\034\313\332=\234"
 738      E208C1F1 
 738      A9291CCB 
 738      DA3D9C
 739 24b6 1ACB4852 		.ascii	"\032\313HR\212\024\271\211\027\313I\227\205\277\247"
 739      8A14B989 
 739      17CB4997 
 739      85BFA7
 740 24c5 7FB48C17 		.ascii	"\177\264\214\027\225\226\206\342\021U\223>\374\011\243"
 740      959686E2 
 740      1155933E 
 740      FC09A3
 741 24d4 397E67EC 		.ascii	"9~g\354QlHB\312\305\313#\204\263\036=:\321\030$'\225"
 741      516C4842 
 741      CAC5CB23 
 741      84B31E3D 
 741      3AD11824 
 742 24ea 8226CD8E 		.ascii	"\202&\315\216\304A\020\210\\\022\341\242\034H\227\307"
 742      C4411088 
 742      5C12E1A2 
 742      1C4897C7 
 743 24fa A2095048 		.ascii	"\242\011PH\270\210\014:e\220jQ\024\211\253Iw|`Y\350"
 743      B8880C3A 
 743      65906A51 
 743      1489AB49 
 743      777C6059 
 744 250f 8F4EAA87 		.ascii	"\217N\252\207t0\022\355]\022\015\275\004,\264z\212$"
 744      743012ED 
 744      5D120DBD 
 744      042CB47A 
 744      8A24
 745 2521 F2C2FD22 		.ascii	"\362\302\375\"\241p\267\262\342\250\277w\311KA\022g"
 745      A170B7B2 
ARM GAS  /tmp/ccPWA4VS.s 			page 60


 745      E2A8BF77 
 745      C94B4112 
 745      67
 746 2532 F948A2AC 		.ascii	"\371H\242\254\242\324\017\303;pS\034m\001\031\252\207"
 746      A2D40FC3 
 746      3B70531C 
 746      6D0119AA 
 746      87
 747 2543 69F154F7 		.ascii	"i\361T\367\277\250.\306O\222\304\307`\336\223\235zu"
 747      BFA82EC6 
 747      4F92C4C7 
 747      60DE939D 
 747      7A75
 748 2555 FB6BE796 		.ascii	"\373k\347\226$\331\251\3473\317t\206\237\317<}3\371"
 748      24D9A9E7 
 748      33CF7486 
 748      9FCF3C7D 
 748      33F9
 749 2567 99D7AD30 		.ascii	"\231\327\2550\235\223Er\320!ek)\310\305\364s\005\335"
 749      9D934572 
 749      D021656B 
 749      29C8C5F4 
 749      7305DD
 750 257a 7A69E9C2 		.ascii	"zi\351\302\347\237\351\004iW(R\344\012\305\213\374!"
 750      E79FE904 
 750      69572852 
 750      E40AC58B 
 750      FC21
 751 258c B95C0E81 		.ascii	"\271\\\016\201\321\344\361\210K\207\313\302^=:\264\317"
 751      D1E4F188 
 751      4B87CBC2 
 751      5E3D3AB4 
 751      CF
 752 259d EDDE3D2F 		.ascii	"\355\336=/\2670\277[\277v\271\240\367`I\011\031\335"
 752      B730BF5B 
 752      BF76B9A0 
 752      F7604909 
 752      19DD
 753 25af B320836A 		.ascii	"\263 \203j\274\275\243x\022\033\256\005|i\272\000\034"
 753      BCBDA378 
 753      121BAE05 
 753      7C69BA00 
 753      1C
 754 25c0 4D172449 		.ascii	"M\027$ItA\260\251|\370W\252\225\034\222\354\324\263"
 754      7441B0A9 
 754      7CF857AA 
 754      951C92EC 
 754      D4B3
 755 25d2 477EF7CE 		.ascii	"G~\367\316\275:\337\004\000!\271\244\244\267\034\302"
 755      BD3ADF04 
 755      0021B9A4 
 755      A4B71CC2 
 756 25e2 61AEAC28 		.ascii	"a\256\254(\030\352\335\2719r=\235\337\255g\277\366\271"
 756      18EADDB9 
 756      39723D9D 
 756      DFAD67BF 
 756      F6B9
ARM GAS  /tmp/ccPWA4VS.s 			page 61


 757 25f4 E5D0AA54 		.ascii	"\345\320\252T\260\034\364s\301>\345$Z\361\364\350\231"
 757      B01CF473 
 757      C13EE524 
 757      5AF1F4E8 
 757      99
 758 2605 D7B9C0DB 		.ascii	"\327\271\300\333\263\327\363\371\235\013|=\013\363;"
 758      B3D7F3F9 
 758      9D0B7C3D 
 758      0BF33B
 759 2614 77CE2BF0 		.ascii	"w\316+\360\344?\233\017\316\256\033\\=\363\012\304\347"
 759      E43F9B0F 
 759      CEAE1B5C 
 759      3DF30AC4 
 759      E7
 760 2625 5C7188DC 		.ascii	"\\q\210\334B%a9&vu?UXP\340\356\336\351/\005\356'\273"
 760      42256139 
 760      2676753F 
 760      555850E0 
 760      EEDEE92F 
 761 263d 147427A4 		.ascii	"\024t'\244+\270zRk\004B*o<N\222\036\370\222\241Qb\355"
 761      2BB87A52 
 761      6B04422A 
 761      6F3C4E92 
 761      1EF892A1 
 762 2654 88A89DA2 		.ascii	"\210\250\235\242e\305\221>\336\020~9sz\352\300\014l"
 762      65C5913E 
 762      DE107E39 
 762      737AEAC0 
 762      0C6C
 763 2666 DFA2466D 		.ascii	"\337\242Fm\020\031\204c\3412\022\375yiV6Q\234\352\247"
 763      10198463 
 763      E13212FD 
 763      79695636 
 763      519CEAA7 
 764 267a 3D9D0A3A 		.ascii	"=\235\012:\345\027x\013\376\006\337\005\336^\370\345"
 764      E517780B 
 764      FE06DF05 
 764      DE5EF8E5 
 765 268a EBD6BEB0 		.ascii	"\353\326\276\260S\227\247\013<\360\235_\340\002\315"
 765      5397A70B 
 765      3CF09D5F 
 765      E002CD
 766 2699 7671AA48 		.ascii	"vq\252H\244]\036\0340\200\016\022\301\242R\231\260\224"
 766      A45D1E1C 
 766      30800E12 
 766      C1A25299 
 766      B094
 767 26ab D7E3C920 		.ascii	"\327\343\311 u\264\251q\242S\201\373\231\274^\005\256"
 767      75B4A971 
 767      A25381FB 
 767      99BC5E05 
 767      AE
 768 26bc FC270BDC 		.ascii	"\374'\013\334=\332\022\322\356\311\002W\027`\206\372"
 768      3DDA12D2 
 768      EEC90257 
 768      176086FA 
 769 26cc 6F77A438 		.ascii	"ow\2448\024\363F\342}#\3050$\207K\212#eE\341\001^\352"
ARM GAS  /tmp/ccPWA4VS.s 			page 62


 769      14F346E2 
 769      7D23C530 
 769      24874B8A 
 769      236545E1 
 770 26e3 D06E49A1 		.ascii	"\320nI\241\007\351\335\320@\360#6\200\320\304\200\254"
 770      07E9DDD0 
 770      40F02336 
 770      80D0C480 
 770      AC
 771 26f4 D800F826 		.ascii	"\330\000\370&1SVBK\271A\234rOI<T\334\307\323\227P\342"
 771      31535642 
 771      4BB9419C 
 771      724F493C 
 771      54DCC7D3 
 772 270b 33A8C25B 		.ascii	"3\250\302[a\037\016\312EE\304\315\206\343np,E\344\376"
 772      611F0ECA 
 772      4545C4CD 
 772      86E36E70 
 772      2C45E4FE 
 773 271f A28C8315 		.ascii	"\242\214\203\025\031\027\213\345Dq<7\036\013\345\026"
 773      19178BE5 
 773      44713C37 
 773      1E0BE516 
 774 272f 93C1CAD3 		.ascii	"\223\301\312\323\345\311^]\0123N\024\364%\301w\206\251"
 774      E5C95E5D 
 774      0A334E14 
 774      F425C177 
 774      86A9
 775 2741 93753FF5 		.ascii	"\223u?\365|\257\316>\022\335\201\242\\E\261~\236\020"
 775      7CAFCE3E 
 775      12DD81A2 
 775      5C45B17E 
 775      9E10
 776 2753 F122DEB2 		.ascii	"\361\"\336\262 \334\035\367`\304\342/\216G0\210q?\327"
 776      20DC1DF7 
 776      60C4E22F 
 776      8E473088 
 776      713FD7
 777 2766 B3202FAB 		.ascii	"\263 /\253,\030\213Far\025\363\344\221\337-Jd\010\354"
 777      2C188B46 
 777      617215F3 
 777      E491DF2D 
 777      4A6408EC 
 778 277a C0302044 		.ascii	"\3000 D*\216\205\3034\351G\000\030\363<\305\350\225"
 778      2A8E85C3 
 778      34E94700 
 778      18F33CC5 
 778      E895
 779 278c FA45A1CF 		.ascii	"\372E\241\317\304\303>\310\304o(N\276\375\304QcF\177"
 779      C4C33EC8 
 779      C46F284E 
 779      BEFDC451 
 779      63467F
 780 279f E2394309 		.ascii	"\3429C\011\027|\373\210\257\207\011\214\037\024S\000"
 780      177CFB88 
 780      AF87098C 
 780      1F145300 
ARM GAS  /tmp/ccPWA4VS.s 			page 63


 781 27af 863410F8 		.ascii	"\2064\020\370\303oW\274(D\306\202|9\3217\247\2108\201"
 781      C36F57BC 
 781      2844C682 
 781      7C39D137 
 781      A7883881 
 782 27c3 1E18AC14 		.ascii	"\036\030\254\024y\313\260\210\227\272|W\227"
 782      79CBB088 
 782      97BA7C57 
 782      97
 783 27d0 6EDDA5E2 		.ascii	"n\335\245\342\270\233\260\354\012\307b\356b\010X\274"
 783      B89BB0EC 
 783      0AC762EE 
 783      620858BC 
 784 27e0 71E4CB43 		.ascii	"q\344\313Ci\021\251\313\017L\004I\202p\023\204{\\\020"
 784      6911A9CB 
 784      0F4C0449 
 784      82701384 
 784      7B5C10
 785 27f3 F1B80992 		.ascii	"\361\270\011\222\257\177\014\007Mw\024\342\313\333\231"
 785      AF7F0C07 
 785      4D7714E2 
 785      CBDB99
 786 2802 710BA74B 		.ascii	"q\013\247K\275\242\335\243}\\P\227\027\306T\022\222"
 786      BDA2DDA3 
 786      7D5C5097 
 786      17C65412 
 786      92
 787 2813 C057F768 		.ascii	"\300W\367h\010\006\341h\031\314n\230_`\204w0\245\341"
 787      0806E168 
 787      19CC6E98 
 787      5F608477 
 787      30A5E1
 788 2826 2FBDA274 		.ascii	"/\275\242tp\204\342!7\311n\205Q@^j|w4\277\226c}\310"
 788      7084E221 
 788      37C96E85 
 788      51405E6A 
 788      7C7734BF 
 789 283e 98D64FC6 		.ascii	"\230\326O\3060\264e0\330\247\254\"\024T\177f\377\271"
 789      30B46530 
 789      D8A7AC22 
 789      14547F66 
 789      FFB9
 790 2850 7745A424 		.ascii	"wE\244$\361\207H\331cd\032\253\346\302\344\252\037\015"
 790      F18748D9 
 790      63641AAB 
 790      E6C2E4AA 
 790      1F0D
 791 2862 3C7CA088 		.ascii	"<|\240\210\030\316\217\201\315N\345\003s\324Q\3669\""
 791      18CE8F81 
 791      CD4EE503 
 791      73D451F6 
 791      3922
 792 2874 630B086C 		.ascii	"c\013\010l\312\350}8\262\346\223\344S\025\305\335\232"
 792      CAE87D38 
 792      B2E693E4 
 792      5315C5DD 
 792      9A
ARM GAS  /tmp/ccPWA4VS.s 			page 64


 793 2885 E3EB3064 		.ascii	"\343\3530d#^\034g\357\252\277s\025\346=\374\377\001"
 793      235E1C67 
 793      EFAABF73 
 793      15E63DFC 
 793      FF01
 794 2897 D1E91A69 		.ascii	"\321\351\032i"
 795              		.text
 796              		.section	.gnu.lto_.symtab.ee889f05190af199,"",%progbits
 797 0000 64617461 		.ascii	"datasample_init\000\000\000\000\000\000\000\000\000"
 797      73616D70 
 797      6C655F69 
 797      6E697400 
 797      00000000 
 798 0018 00000042 		.ascii	"\000\000\000B\002\000\000datasample_writeToLog\000\000"
 798      02000064 
 798      61746173 
 798      616D706C 
 798      655F7772 
 799 0036 00000000 		.ascii	"\000\000\000\000\000\000\000\000\000\000\213\002\000"
 799      00000000 
 799      00008B02 
 799      00
 800 0043 00646174 		.ascii	"\000datasample_gpsToSample\000\000\000\000\000\000\000"
 800      6173616D 
 800      706C655F 
 800      67707354 
 800      6F53616D 
 801 0061 00000000 		.ascii	"\000\000\000\000\000,\004\000\000printDataSample\000"
 801      002C0400 
 801      00707269 
 801      6E744461 
 801      74615361 
 802 007a 00000000 		.ascii	"\000\000\000\000\000\000\000\000\000\000\000D\004\000"
 802      00000000 
 802      00000044 
 802      0400
 803 0088 00534436 		.ascii	"\000SD6\000\000\002\000\000\000\000\000\000\000\000"
 803      00000200 
 803      00000000 
 803      000000
 804 0097 006C0400 		.ascii	"\000l\004\000\000chvprintf\000\000\002\000\000\000\000"
 804      00636876 
 804      7072696E 
 804      74660000 
 804      02000000 
 805 00ac 00000000 		.ascii	"\000\000\000\000\000I\004\000\000uStrCpy\000\000\002"
 805      00490400 
 805      00755374 
 805      72437079 
 805      000002
 806 00bf 00000000 		.ascii	"\000\000\000\000\000\000\000\000\000X\004\000\000lo"
 806      00000000 
 806      00580400 
 806      006C6F
 807 00ce 6766696C 		.ascii	"gfileWrite\000\000\002\000\000\000\000\000\000\000\000"
 807      65577269 
 807      74650000 
ARM GAS  /tmp/ccPWA4VS.s 			page 65


 807      02000000 
 807      00000000 
 808 00e3 005D0400 		.ascii	"\000]\004\000\000chsnprintf\000\000\002\000\000\000"
 808      00636873 
 808      6E707269 
 808      6E746600 
 808      00020000 
 809 00f8 00000000 		.ascii	"\000\000\000\000\000\000d\004\000\000"
 809      00006404 
 809      0000
 810              		.text
 811              		.section	.gnu.lto_.opts,"",%progbits
 812 0000 272D6D63 		.ascii	"'-mcpu=cortex-m4' '-mfloat-abi=hard' '-mfpu=fpv4-sp"
 812      70753D63 
 812      6F727465 
 812      782D6D34 
 812      2720272D 
 813 0033 2D643136 		.ascii	"-d16' '-mno-thumb-interwork' '-mthumb' '-O2' '-fomi"
 813      2720272D 
 813      6D6E6F2D 
 813      7468756D 
 813      622D696E 
 814 0066 742D6672 		.ascii	"t-frame-pointer' '-falign-functions=16' '-ffunction"
 814      616D652D 
 814      706F696E 
 814      74657227 
 814      20272D66 
 815 0099 2D736563 		.ascii	"-sections' '-fdata-sections' '-fno-common' '-flto' "
 815      74696F6E 
 815      73272027 
 815      2D666461 
 815      74612D73 
 816 00cc 272D6673 		.ascii	"'-fsingle-precision-constant'\000"
 816      696E676C 
 816      652D7072 
 816      65636973 
 816      696F6E2D 
 817              		.text
 818              		.section	.text.chprintf.constprop.0,"ax",%progbits
 819              		.align	2
 820              		.p2align 4,,15
 821              		.thumb
 822              		.thumb_func
 823              		.type	chprintf.constprop.0, %function
 824              	chprintf.constprop.0:
 825              		@ args = 4, pretend = 12, frame = 8
 826              		@ frame_needed = 0, uses_anonymous_args = 1
 827 0000 0EB4     		push	{r1, r2, r3}
 828 0002 00B5     		push	{lr}
 829 0004 82B0     		sub	sp, sp, #8
 830 0006 04AB     		add	r3, sp, #16
 831 0008 1A46     		mov	r2, r3
 832 000a 0549     		ldr	r1, .L2
 833 000c 0548     		ldr	r0, .L2+4
 834 000e 0193     		str	r3, [sp, #4]
 835 0010 FFF7FEFF 		bl	chvprintf
 836 0014 02B0     		add	sp, sp, #8
ARM GAS  /tmp/ccPWA4VS.s 			page 66


 837              		@ sp needed
 838 0016 5DF804EB 		ldr	lr, [sp], #4
 839 001a 03B0     		add	sp, sp, #12
 840 001c 7047     		bx	lr
 841              	.L3:
 842 001e 00BF     		.align	2
 843              	.L2:
 844 0020 00000000 		.word	.LC0
 845 0024 00000000 		.word	SD6
 846              		.size	chprintf.constprop.0, .-chprintf.constprop.0
 847 0028 AFF30080 		.section	.text.datasample_init,"ax",%progbits
 847      AFF30080 
 848              		.align	2
 849              		.p2align 4,,15
 850              		.global	datasample_init
 851              		.thumb
 852              		.thumb_func
 853              		.type	datasample_init, %function
 854              	datasample_init:
 855              		@ args = 0, pretend = 0, frame = 0
 856              		@ frame_needed = 0, uses_anonymous_args = 0
 857 0000 38B5     		push	{r3, r4, r5, lr}
 858 0002 334C     		ldr	r4, .L5
 859 0004 3349     		ldr	r1, .L5+4
 860 0006 0546     		mov	r5, r0
 861 0008 FFF7FEFF 		bl	uStrCpy
 862 000c 05F10A00 		add	r0, r5, #10
 863 0010 2146     		mov	r1, r4
 864 0012 FFF7FEFF 		bl	uStrCpy
 865 0016 05F11A00 		add	r0, r5, #26
 866 001a 2146     		mov	r1, r4
 867 001c FFF7FEFF 		bl	uStrCpy
 868 0020 05F12A00 		add	r0, r5, #42
 869 0024 2146     		mov	r1, r4
 870 0026 FFF7FEFF 		bl	uStrCpy
 871 002a 05F13900 		add	r0, r5, #57
 872 002e 2146     		mov	r1, r4
 873 0030 FFF7FEFF 		bl	uStrCpy
 874 0034 05F14300 		add	r0, r5, #67
 875 0038 2146     		mov	r1, r4
 876 003a FFF7FEFF 		bl	uStrCpy
 877 003e 05F17B00 		add	r0, r5, #123
 878 0042 2146     		mov	r1, r4
 879 0044 FFF7FEFF 		bl	uStrCpy
 880 0048 05F18300 		add	r0, r5, #131
 881 004c 2146     		mov	r1, r4
 882 004e FFF7FEFF 		bl	uStrCpy
 883 0052 05F14B00 		add	r0, r5, #75
 884 0056 2146     		mov	r1, r4
 885 0058 FFF7FEFF 		bl	uStrCpy
 886 005c 05F15B00 		add	r0, r5, #91
 887 0060 2146     		mov	r1, r4
 888 0062 FFF7FEFF 		bl	uStrCpy
 889 0066 05F16300 		add	r0, r5, #99
 890 006a 2146     		mov	r1, r4
 891 006c FFF7FEFF 		bl	uStrCpy
 892 0070 05F15300 		add	r0, r5, #83
ARM GAS  /tmp/ccPWA4VS.s 			page 67


 893 0074 2146     		mov	r1, r4
 894 0076 FFF7FEFF 		bl	uStrCpy
 895 007a 05F17300 		add	r0, r5, #115
 896 007e 2146     		mov	r1, r4
 897 0080 FFF7FEFF 		bl	uStrCpy
 898 0084 05F16B00 		add	r0, r5, #107
 899 0088 2146     		mov	r1, r4
 900 008a FFF7FEFF 		bl	uStrCpy
 901 008e 05F18B00 		add	r0, r5, #139
 902 0092 2146     		mov	r1, r4
 903 0094 FFF7FEFF 		bl	uStrCpy
 904 0098 05F19900 		add	r0, r5, #153
 905 009c 2146     		mov	r1, r4
 906 009e FFF7FEFF 		bl	uStrCpy
 907 00a2 05F1A700 		add	r0, r5, #167
 908 00a6 2146     		mov	r1, r4
 909 00a8 FFF7FEFF 		bl	uStrCpy
 910 00ac 05F1B500 		add	r0, r5, #181
 911 00b0 2146     		mov	r1, r4
 912 00b2 FFF7FEFF 		bl	uStrCpy
 913 00b6 05F1C300 		add	r0, r5, #195
 914 00ba 2146     		mov	r1, r4
 915 00bc FFF7FEFF 		bl	uStrCpy
 916 00c0 05F1D100 		add	r0, r5, #209
 917 00c4 2146     		mov	r1, r4
 918 00c6 BDE83840 		pop	{r3, r4, r5, lr}
 919 00ca FFF7FEBF 		b	uStrCpy
 920              	.L6:
 921 00ce 00BF     		.align	2
 922              	.L5:
 923 00d0 6C000000 		.word	.LC2
 924 00d4 64000000 		.word	.LC1
 925              		.size	datasample_init, .-datasample_init
 926 00d8 AFF30080 		.section	.text.datasample_writeToLog,"ax",%progbits
 926      AFF30080 
 927              		.align	2
 928              		.p2align 4,,15
 929              		.global	datasample_writeToLog
 930              		.thumb
 931              		.thumb_func
 932              		.type	datasample_writeToLog, %function
 933              	datasample_writeToLog:
 934              		@ args = 0, pretend = 0, frame = 0
 935              		@ frame_needed = 0, uses_anonymous_args = 0
 936 0000 2DE9F04F 		push	{r4, r5, r6, r7, r8, r9, r10, fp, lr}
 937 0004 95B0     		sub	sp, sp, #84
 938 0006 0346     		mov	r3, r0
 939 0008 2A4C     		ldr	r4, .L8
 940 000a 2B4A     		ldr	r2, .L8+4
 941 000c 00F10A0B 		add	fp, r0, #10
 942 0010 00F11A0A 		add	r10, r0, #26
 943 0014 00F12A09 		add	r9, r0, #42
 944 0018 00F13908 		add	r8, r0, #57
 945 001c 00F1430C 		add	ip, r0, #67
 946 0020 00F17B0E 		add	lr, r0, #123
 947 0024 00F18307 		add	r7, r0, #131
 948 0028 00F14B06 		add	r6, r0, #75
ARM GAS  /tmp/ccPWA4VS.s 			page 68


 949 002c 5B30     		adds	r0, r0, #91
 950 002e 03F16305 		add	r5, r3, #99
 951 0032 CDF800B0 		str	fp, [sp]
 952 0036 CDF804A0 		str	r10, [sp, #4]
 953 003a 03F1530B 		add	fp, r3, #83
 954 003e 03F1730A 		add	r10, r3, #115
 955 0042 CDF80890 		str	r9, [sp, #8]
 956 0046 CDF80C80 		str	r8, [sp, #12]
 957 004a 03F16B09 		add	r9, r3, #107
 958 004e 03F18B08 		add	r8, r3, #139
 959 0052 CDF810C0 		str	ip, [sp, #16]
 960 0056 CDF814E0 		str	lr, [sp, #20]
 961 005a 03F1990C 		add	ip, r3, #153
 962 005e 03F1A70E 		add	lr, r3, #167
 963 0062 0697     		str	r7, [sp, #24]
 964 0064 0796     		str	r6, [sp, #28]
 965 0066 03F1B507 		add	r7, r3, #181
 966 006a 03F1C306 		add	r6, r3, #195
 967 006e 0890     		str	r0, [sp, #32]
 968 0070 03F1D100 		add	r0, r3, #209
 969 0074 0995     		str	r5, [sp, #36]
 970 0076 CDF838C0 		str	ip, [sp, #56]
 971 007a 0D46     		mov	r5, r1
 972 007c CDF83CE0 		str	lr, [sp, #60]
 973 0080 1290     		str	r0, [sp, #72]
 974 0082 CDF828B0 		str	fp, [sp, #40]
 975 0086 CDF82CA0 		str	r10, [sp, #44]
 976 008a CDF83090 		str	r9, [sp, #48]
 977 008e CDF83480 		str	r8, [sp, #52]
 978 0092 1097     		str	r7, [sp, #64]
 979 0094 1196     		str	r6, [sp, #68]
 980 0096 2046     		mov	r0, r4
 981 0098 4FF48071 		mov	r1, #256
 982 009c FFF7FEFF 		bl	chsnprintf
 983 00a0 2146     		mov	r1, r4
 984 00a2 82B2     		uxth	r2, r0
 985 00a4 0023     		movs	r3, #0
 986 00a6 2846     		mov	r0, r5
 987 00a8 FFF7FEFF 		bl	logfileWrite
 988 00ac 0020     		movs	r0, #0
 989 00ae 15B0     		add	sp, sp, #84
 990              		@ sp needed
 991 00b0 BDE8F08F 		pop	{r4, r5, r6, r7, r8, r9, r10, fp, pc}
 992              	.L9:
 993              		.align	2
 994              	.L8:
 995 00b4 00000000 		.word	.LANCHOR0
 996 00b8 70000000 		.word	.LC3
 997              		.size	datasample_writeToLog, .-datasample_writeToLog
 998 00bc AFF30080 		.section	.text.datasample_gpsToSample,"ax",%progbits
 999              		.align	2
 1000              		.p2align 4,,15
 1001              		.global	datasample_gpsToSample
 1002              		.thumb
 1003              		.thumb_func
 1004              		.type	datasample_gpsToSample, %function
 1005              	datasample_gpsToSample:
ARM GAS  /tmp/ccPWA4VS.s 			page 69


 1006              		@ args = 0, pretend = 0, frame = 0
 1007              		@ frame_needed = 0, uses_anonymous_args = 0
 1008 0000 38B5     		push	{r3, r4, r5, lr}
 1009 0002 0446     		mov	r4, r0
 1010 0004 0D46     		mov	r5, r1
 1011 0006 0846     		mov	r0, r1
 1012 0008 2146     		mov	r1, r4
 1013 000a FFF7FEFF 		bl	uStrCpy
 1014 000e 05F10A00 		add	r0, r5, #10
 1015 0012 04F11001 		add	r1, r4, #16
 1016 0016 FFF7FEFF 		bl	uStrCpy
 1017 001a 05F11A00 		add	r0, r5, #26
 1018 001e 04F12801 		add	r1, r4, #40
 1019 0022 FFF7FEFF 		bl	uStrCpy
 1020 0026 05F12A00 		add	r0, r5, #42
 1021 002a 04F14001 		add	r1, r4, #64
 1022 002e FFF7FEFF 		bl	uStrCpy
 1023 0032 05F13900 		add	r0, r5, #57
 1024 0036 04F15001 		add	r1, r4, #80
 1025 003a BDE83840 		pop	{r3, r4, r5, lr}
 1026 003e FFF7FEBF 		b	uStrCpy
 1027              		.size	datasample_gpsToSample, .-datasample_gpsToSample
 1028 0042 00BFAFF3 		.section	.text.printDataSample,"ax",%progbits
 1028      0080AFF3 
 1028      0080AFF3 
 1028      0080
 1029              		.align	2
 1030              		.p2align 4,,15
 1031              		.global	printDataSample
 1032              		.thumb
 1033              		.thumb_func
 1034              		.type	printDataSample, %function
 1035              	printDataSample:
 1036              		@ args = 0, pretend = 0, frame = 0
 1037              		@ frame_needed = 0, uses_anonymous_args = 0
 1038 0000 2DE9F043 		push	{r4, r5, r6, r7, r8, r9, lr}
 1039 0004 0246     		mov	r2, r0
 1040 0006 8DB0     		sub	sp, sp, #52
 1041 0008 00F1390C 		add	ip, r0, #57
 1042 000c 00F1430E 		add	lr, r0, #67
 1043 0010 02F19901 		add	r1, r2, #153
 1044 0014 02F1A703 		add	r3, r2, #167
 1045 0018 00F11A09 		add	r9, r0, #26
 1046 001c 00F12A08 		add	r8, r0, #42
 1047 0020 00F17B07 		add	r7, r0, #123
 1048 0024 00F15B06 		add	r6, r0, #91
 1049 0028 00F15305 		add	r5, r0, #83
 1050 002c 00F17304 		add	r4, r0, #115
 1051 0030 8B30     		adds	r0, r0, #139
 1052 0032 0890     		str	r0, [sp, #32]
 1053 0034 0991     		str	r1, [sp, #36]
 1054 0036 0A93     		str	r3, [sp, #40]
 1055 0038 CDF80090 		str	r9, [sp]
 1056 003c CDF80480 		str	r8, [sp, #4]
 1057 0040 CDF808C0 		str	ip, [sp, #8]
 1058 0044 CDF80CE0 		str	lr, [sp, #12]
 1059 0048 0497     		str	r7, [sp, #16]
ARM GAS  /tmp/ccPWA4VS.s 			page 70


 1060 004a 0596     		str	r6, [sp, #20]
 1061 004c 0695     		str	r5, [sp, #24]
 1062 004e 0794     		str	r4, [sp, #28]
 1063 0050 02F10A03 		add	r3, r2, #10
 1064 0054 0349     		ldr	r1, .L12
 1065 0056 0448     		ldr	r0, .L12+4
 1066 0058 FFF7FEFF 		bl	chprintf.constprop.0
 1067 005c 0DB0     		add	sp, sp, #52
 1068              		@ sp needed
 1069 005e BDE8F083 		pop	{r4, r5, r6, r7, r8, r9, pc}
 1070              	.L13:
 1071 0062 00BF     		.align	2
 1072              	.L12:
 1073 0064 00000000 		.word	.LC0
 1074 0068 00000000 		.word	SD6
 1075              		.size	printDataSample, .-printDataSample
 1076 006c AFF30080 		.section	.bss.dataPrintBuf,"aw",%nobits
 1077              		.align	2
 1078              		.set	.LANCHOR0,. + 0
 1079              		.type	dataPrintBuf, %object
 1080              		.size	dataPrintBuf, 384
 1081              	dataPrintBuf:
 1082 0000 00000000 		.space	384
 1082      00000000 
 1082      00000000 
 1082      00000000 
 1082      00000000 
 1083              		.section	.rodata.str1.4,"aMS",%progbits,1
 1084              		.align	2
 1085              	.LC0:
 1086 0000 54494D3A 		.ascii	"TIM:%s, LAT:%s, LNG:%s, ALT:%s, SAT:%s, TMPI:%s, TM"
 1086      25732C20 
 1086      4C41543A 
 1086      25732C20 
 1086      4C4E473A 
 1087 0033 50453A25 		.ascii	"PE:%s, PRS:%s, HUMI:%s, HUME:%s, ACC(%s,%s,%s)\012\000"
 1087      732C2050 
 1087      52533A25 
 1087      732C2048 
 1087      554D493A 
 1088 0063 00       		.space	1
 1089              	.LC1:
 1090 0064 2D3A2D3A 		.ascii	"-:-:-\000"
 1090      2D00
 1091 006a 0000     		.space	2
 1092              	.LC2:
 1093 006c 2D00     		.ascii	"-\000"
 1094 006e 0000     		.space	2
 1095              	.LC3:
 1096 0070 25732C25 		.ascii	"%s,%s,%s,%s,%s,%s,%s,%s,%s,%s,%s,%s,%s,%s,%s,%s,%s,"
 1096      732C2573 
 1096      2C25732C 
 1096      25732C25 
 1096      732C2573 
 1097 00a3 25732C25 		.ascii	"%s,%s\012\000"
 1097      730A00
 1098              		.comm	__gnu_lto_v1,1,1
ARM GAS  /tmp/ccPWA4VS.s 			page 71


 1099 00aa 0000     		.ident	"GCC: (GNU Tools for ARM Embedded Processors) 4.8.4 20140526 (release) [ARM/embedded-4_8-br
ARM GAS  /tmp/ccPWA4VS.s 			page 72


DEFINED SYMBOLS
                            *ABS*:0000000000000000 datasample.c
     /tmp/ccPWA4VS.s:819    .text.chprintf.constprop.0:0000000000000000 $t
     /tmp/ccPWA4VS.s:824    .text.chprintf.constprop.0:0000000000000000 chprintf.constprop.0
     /tmp/ccPWA4VS.s:844    .text.chprintf.constprop.0:0000000000000020 $d
     /tmp/ccPWA4VS.s:848    .text.datasample_init:0000000000000000 $t
     /tmp/ccPWA4VS.s:854    .text.datasample_init:0000000000000000 datasample_init
     /tmp/ccPWA4VS.s:923    .text.datasample_init:00000000000000d0 $d
     /tmp/ccPWA4VS.s:927    .text.datasample_writeToLog:0000000000000000 $t
     /tmp/ccPWA4VS.s:933    .text.datasample_writeToLog:0000000000000000 datasample_writeToLog
     /tmp/ccPWA4VS.s:995    .text.datasample_writeToLog:00000000000000b4 $d
     /tmp/ccPWA4VS.s:999    .text.datasample_gpsToSample:0000000000000000 $t
     /tmp/ccPWA4VS.s:1005   .text.datasample_gpsToSample:0000000000000000 datasample_gpsToSample
     /tmp/ccPWA4VS.s:1029   .text.printDataSample:0000000000000000 $t
     /tmp/ccPWA4VS.s:1035   .text.printDataSample:0000000000000000 printDataSample
     /tmp/ccPWA4VS.s:1073   .text.printDataSample:0000000000000064 $d
     /tmp/ccPWA4VS.s:1077   .bss.dataPrintBuf:0000000000000000 $d
     /tmp/ccPWA4VS.s:1081   .bss.dataPrintBuf:0000000000000000 dataPrintBuf
     /tmp/ccPWA4VS.s:1084   .rodata.str1.4:0000000000000000 $d
                            *COM*:0000000000000001 __gnu_lto_v1
     /tmp/ccPWA4VS.s:847    .text.chprintf.constprop.0:0000000000000028 $t
     /tmp/ccPWA4VS.s:926    .text.datasample_init:00000000000000d8 $t
     /tmp/ccPWA4VS.s:998    .text.datasample_writeToLog:00000000000000bc $t
     /tmp/ccPWA4VS.s:1076   .text.printDataSample:000000000000006c $t

UNDEFINED SYMBOLS
chvprintf
SD6
uStrCpy
chsnprintf
logfileWrite
