ARM GAS  /tmp/ccuN5Dk8.s 			page 1


   1              		.syntax unified
   2              		.cpu cortex-m4
   3              		.eabi_attribute 27, 3
   4              		.eabi_attribute 28, 1
   5              		.fpu fpv4-sp-d16
   6              		.eabi_attribute 20, 1
   7              		.eabi_attribute 21, 1
   8              		.eabi_attribute 23, 3
   9              		.eabi_attribute 24, 1
  10              		.eabi_attribute 25, 1
  11              		.eabi_attribute 26, 1
  12              		.eabi_attribute 30, 2
  13              		.eabi_attribute 34, 1
  14              		.eabi_attribute 18, 4
  15              		.thumb
  16              		.file	"datalogger.c"
  17              		.section	.gnu.lto_.jmpfuncs.b3051b2299b6d9b5,"",%progbits
  18 0000 789C7D50 		.ascii	"x\234}P;N\303@\020\235\361:?\007\311\210\003X\333X4"
  18      3B4EC340 
  18      109DF13A 
  18      3F07C988 
  18      0358DB58 
  19 0015 414429A9 		.ascii	"AD)\251\210H\010E \222\241\240\265`\261,%\336hm\314"
  19      88480845 
  19      2092A1A0 
  19      B560B12C 
  19      25DE686D 
  20 002a 278D8F11 		.ascii	"'\215\217\021\012\316\303e8\001\025\263\376 ; \\xfw"
  20      0ACEC365 
  20      380115B3 
  20      FE203B20 
  20      5C786677 
  21 003e DEBECF18 		.ascii	"\336\276\317\030`\300_\337+\002|R\335\003F\035c\324"
  21      60C05FDF 
  21      2B027C52 
  21      DD03461D 
  21      63D4
  22 0050 A6540130 		.ascii	"\246T\0010\325czd\334b\210\272\307\374\264\201\257l"
  22      D5637A64 
  22      DC6288BA 
  22      C7FCB481 
  22      AF6C
  23 0062 9BED8788 		.ascii	"\233\355\207\210\016\340{\266=\015\261`fH(\323n`\230"
  23      0EE07BB6 
  23      3D0DB160 
  23      664828D3 
  23      6E6098
  24 0075 038705C6 		.ascii	"\003\207\005\306,0\365a\313\201\213b\330.\315\260\\"
  24      2C30F561 
  24      CB818B62 
  24      D82ECDB0 
  24      5C
  25 0086 52EB7588 		.ascii	"R\353u\210\0135\232\\\264\220\345w\335j\330\373A\225"
  25      0B359A5C 
  25      B490E577 
  25      DD6AD8FB 
  25      4195
ARM GAS  /tmp/ccuN5Dk8.s 			page 2


  26 0098 0EEB7ACF 		.ascii	"\016\353z\317u\275\266\335P\264\034x+=\367+\311R\204"
  26      75BDB6DD 
  26      50B41C78 
  26      2B3DF72B 
  26      C95284
  27 00ab 0A4B2B5A 		.ascii	"\012K+Zk\327*e\375h\206-\340\035\350B\017-\235\274\257"
  27      6BD72A65 
  27      FD68862D 
  27      E01DE842 
  27      0F2D9DBC 
  28 00c0 7FC64E8A 		.ascii	"\177\306N\212\003Z\254\215\345R\315\332^\213t\372\026"
  28      035AAC8D 
  28      E552CDDA 
  28      5E8B74FA 
  28      16
  29 00d1 DCC9F866 		.ascii	"\334\311\370f<_\314fS\357\204O=o\341\361\211\012S\301"
  29      3C5FCC66 
  29      53EF844F 
  29      3D6FE1F1 
  29      890A53C1 
  30 00e5 2399F095 		.ascii	"#\231\360\225|\214\022qo\001\257\243&~\342/e\020\010"
  30      7C8C1271 
  30      6F01AFA3 
  30      267EE22F 
  30      651008
  31 00f8 C5AF135F 		.ascii	"\305\257\023_\345\200\343\006\215RR\361K\3758\214\002"
  31      E580E306 
  31      8D5252F1 
  31      4BFD388C 
  31      02
  32 0109 7E1E2E45 		.ascii	"~\036.E\374\022'b5 \001w4\374\227P\256\327\232\360\350"
  32      FC122762 
  32      35200177 
  32      34FC9750 
  32      AED79AF0 
  33 011e 37E19D12 		.ascii	"7\341\235\022~N8\227\301\003q\016\264_w8\"t#\305Y\205"
  33      7E4E3897 
  33      C103710E 
  33      B45F7738 
  33      227423C5 
  34 0134 BB124F15 		.ascii	"\273\022O\025\226\273\261\005\337N\011{\201"
  34      96BBB105 
  34      DF4E097B 
  34      81
  35              		.text
  36              		.section	.gnu.lto_.inline.b3051b2299b6d9b5,"",%progbits
  37 0000 789C7552 		.ascii	"x\234uR;N\303@\020}\263;\261\327\330\216\371\024\001"
  37      3B4EC340 
  37      107DB33B 
  37      B1D7D88E 
  37      F91401
  38 0013 C9F920C4 		.ascii	"\311\371 \304\247!\035\035\005=\222kJ\032\224p\013\027"
  38      A7211D1D 
  38      053D926B 
  38      4A1A9470 
  38      0B17
  39 0025 14A9900F 		.ascii	"\024\251\220\017\200\204\017\201\004\005W@J\315\011"
ARM GAS  /tmp/ccuN5Dk8.s 			page 3


  39      80840F81 
  39      04055740 
  39      4ACD09
  40 0034 B8021205 		.ascii	"\270\002\022\005\263k\257I\004\330\362\370y\366\315"
  40      B36BAF49 
  40      04D8F2F8 
  40      79F6CD
  41 0043 EE7B3356 		.ascii	"\356{3VP\370\353\272o\323\0118\316\341HA=\356\270\204"
  41      50F8EBBA 
  41      6FD30938 
  41      CEE14841 
  41      3DEEB884 
  42 0057 5E1FD055 		.ascii	"^\037\320Uao\2358\002!\314\010J-\263\216\352V\252\002"
  42      616F9D38 
  42      0221CC08 
  42      4A2DB38E 
  42      EA56AA02 
  43 006b 9AA32D22 		.ascii	"\232\243-\"a@_3\327\343\206@\037!7\321s\251*\030\373"
  43      61405F33 
  43      D7E38640 
  43      1F2137D1 
  43      73A92A18 
  44 0080 A714A9D9 		.ascii	"\247\024\251\331\025\335\222d\240\346\036\301\345R\213"
  44      15DD9264 
  44      A0E61EC1 
  44      E5528B
  45 008f E61E91CB 		.ascii	"\346\036\221\313\365-\232{\244\250Q(\217\015\241\227"
  45      F52D9A7B 
  45      A4A85128 
  45      8F0DA197 
  46 009f 2EE79612 		.ascii	".\347\226\022\027y\311\006\375\247\313\211\001?\354"
  46      1779C906 
  46      FDA7CB89 
  46      013FEC
  47 00ae 95C6BEBF 		.ascii	"\225\306\276\277v'\306+\226o\253\231S\213\304\"\252"
  47      7627C62B 
  47      966FAB99 
  47      538BC422 
  47      AA
  48 00bf 42CC36D8 		.ascii	"B\3146\330zq\014Q\332C2\024\277\372e\200pq\354\252\245"
  48      7A710C51 
  48      DA433214 
  48      BFFA6580 
  48      7071ECAA 
  49 00d4 067AC577 		.ascii	"\006z\305w\200\321\221P\266\337n\220|^\374P\374\246"
  49      80D19150 
  49      B6DF6E90 
  49      7C5EFC50 
  49      FCA6
  50 00e6 ED962A5E 		.ascii	"\355\226*^[\010\241\305\303j\313\315\257L\004\326mG"
  50      5B08A1C5 
  50      C36ACBCD 
  50      AF4C04D6 
  50      6D47
  51 00f8 4B62BFB0 		.ascii	"Kb\277\260\336\321\015\304;]\327\203z\012SO\377\351"
  51      DED10DC4 
  51      3B5DD783 
ARM GAS  /tmp/ccuN5Dk8.s 			page 4


  51      7A0A534F 
  51      FFE9
  52 010a 7A8C414E 		.ascii	"z\214AN\252\241\2728\011\222\3673\230\327\203\265\002"
  52      AAA1BA38 
  52      0992F733 
  52      98D783B5 
  52      02
  53 011b 09C64163 		.ascii	"\011\306Ack\255l;\261\324\231]5\224\360hH\254\335H2"
  53      6BAD6C3B 
  53      B1D4995D 
  53      3594F068 
  53      48ACDD48 
  54 0130 7BCAAC43 		.ascii	"{\312\254C\344'\304\331\3439\242\347\023\005sw\270\011"
  54      E427C4D9 
  54      E339A2E7 
  54      13057377 
  54      B809
  55 0142 5E665E10 		.ascii	"^f^\020\333]\003as\363\177u9|\003\327uL7"
  55      DB5D0361 
  55      73F37F75 
  55      397C03D7 
  55      754C37
  56              		.text
  57              		.section	.gnu.lto_.pureconst.b3051b2299b6d9b5,"",%progbits
  58 0000 789C6362 		.ascii	"x\234cb`b\220d\200\000\036\006\011F\011fI\026)V)6)v"
  58      60629064 
  58      80001E06 
  58      09460966 
  58      49162956 
  59 0018 060E064E 		.ascii	"\006\016\006NV.)nI\036)\000\023[\001_"
  59      562E296E 
  59      491E2900 
  59      135B015F 
  60              		.text
  61              		.section	.gnu.lto_chprintf.b3051b2299b6d9b5,"",%progbits
  62 0000 789C8550 		.ascii	"x\234\205P\315J\002Q\024>\337\0355uc\333v\342\0034\213"
  62      CD4A0251 
  62      143EDF1D 
  62      357563DB 
  62      76E20334 
  63 0015 22E80D7A 		.ascii	"\"\350\015z\000\203Z\3058\216z\011\035\321Q\260\026"
  63      00835AC5 
  63      388E7A09 
  63      1DD151B0 
  63      16
  64 0026 5EC1C245 		.ascii	"^\301\302E\013ig\021)\321:\244\027\030\202\332DI\273"
  64      0B696711 
  64      29D13AA4 
  64      171882DA 
  64      4449BB
  65 0039 162D2497 		.ascii	"\026-$\227\265h\321*\202\351\336\031\024\372\201\016"
  65      B568D12A 
  65      82E9DE19 
  65      14FA810E 
  66 0049 DC7B7EBE 		.ascii	"\334{~\276s\276\363\303\210\321OY\220o\010\2425\251"
  66      73BEF3C3 
  66      88D14F59 
ARM GAS  /tmp/ccuN5Dk8.s 			page 5


  66      906F08A2 
  66      35A9
  67 005b A11158F7 		.ascii	"\241\021X\367\236\250\025e\2002\010\324dhnB\245\262"
  67      9EA81565 
  67      803208D4 
  67      64686E42 
  67      A5B2
  68 006d 140D84DB 		.ascii	"\024\015\204\333\035_O\036\321\023n\273/>=\017\340\220"
  68      1D5F4F1E 
  68      D1136EBB 
  68      2F3E3D0F 
  68      E090
  69 007f B42B2013 		.ascii	"\264+ \023\264!\035$}\305B\337\373\250Z\321uOon!\016"
  69      B4211D24 
  69      7DC542DF 
  69      FBA85AD1 
  69      754F6F6E 
  70 0095 45EBCDF3 		.ascii	"E\353\315\363\022\034\032\243\325\377\012/\230\373\354"
  70      121C1AA3 
  70      D5FF0A2F 
  70      98FBEC
  71 00a4 794FC3F7 		.ascii	"yO\303\367\203W\364XLC\021\024\222\037\"d\340\014)\225"
  71      8357F458 
  71      4C431114 
  71      921F2264 
  71      E00C2995 
  72 00b8 13A6B624 		.ascii	"\023\246\266$O\032\030H\177\0325\375\241\323\362W\233"
  72      4F1A1848 
  72      7F1A35FD 
  72      A1D3F257 
  72      9B
  73 00c9 AC8329AD 		.ascii	"\254\203)\255\215ho\3343\015\234#,\321]\372\020\035"
  73      8D686FDC 
  73      330D9C23 
  73      2CD15DFA 
  73      101D
  74 00db 31CF1132 		.ascii	"1\317\0212\341\247\313\310\016Gx\312\344g\251\2514\""
  74      E1A7CBC8 
  74      0E4778CA 
  74      E467A9A9 
  74      3422
  75 00ed 2E3BD288 		.ascii	".;\322\210\366\307G\223x\200\344\021\231\021\314\231"
  75      F6C74793 
  75      7880E411 
  75      9911CC99 
  76 00fd 088E9B87 		.ascii	"\010\216\233\207\226G( \340\210\252\222\366\370\370"
  76      96472820 
  76      E088AA92 
  76      F6F8F8
  77 010c 77C798A9 		.ascii	"w\307\230\251H\377\356\310\021'\272\243\253\027\026"
  77      48FFEEC8 
  77      1127BAA3 
  77      AB1716
  78 011b 04027099 		.ascii	"\004\002p\231.EG\235[\312\003\265\372'\332l\214\340"
  78      2E45479D 
  78      5BCA03B5 
  78      FA27DA6C 
ARM GAS  /tmp/ccuN5Dk8.s 			page 6


  78      8CE0
  79 012d 5469B983 		.ascii	"Ti\271\203\334Q\315\261\244\027\354\242\245\233v\266"
  79      DC51CDB1 
  79      A417ECA2 
  79      A59B76B6 
  80 013d A167ADBA 		.ascii	"\241g\255\272n\026x\206\333U\335\251\324J\333\2724\352"
  80      6E167886 
  80      DB55DDA9 
  80      D44ADBBA 
  80      34EA
  81 014f 4685DBB5 		.ascii	"F\205\333\265\252\004\312\025^rr\213\005bF9\221\263"
  81      AA04CA15 
  81      5E72728B 
  81      05624639 
  81      91B3
  82 0161 2B45C371 		.ascii	"+E\303q\254\354V\246\341X\325/\251H\201#"
  82      ACEC56A6 
  82      E158D52F 
  82      A9488123 
  83              		.text
  84              		.section	.gnu.lto_logfileNew.part.0.b3051b2299b6d9b5,"",%progbits
  85 0000 789C9D92 		.ascii	"x\234\235\222\277K#Q\020\307g\336\333\315\017=\301B"
  85      BF4B2351 
  85      10C767DE 
  85      DBCD0F3D 
  85      C142
  86 0012 14116409 		.ascii	"\024\021d\011h\341\201\205\245\315\251$\244\021\224"
  86      68E18185 
  86      A5CDA924 
  86      A41194
  87 0021 90A0964B 		.ascii	"\220\240\226K\\\303\202I \306k\256p\224\024\026\"\321"
  87      5CC38249 
  87      20C66BAE 
  87      70941416 
  87      22D1
  88 0033 2A28A222 		.ascii	"*(\242\"\"\"\"\332\331\245\022-T\304J\260\010\210\225"
  88      222222DA 
  88      D9A5122D 
  88      54C44AB0 
  88      088895
  89 0046 FF8188EB 		.ascii	"\377\201\210\353\274\267\336\211\"x\370`\347;o\366}"
  89      BCB7DE89 
  89      2278F860 
  89      E73B6FF6 
  89      7D
  90 0057 66E6FD10 		.ascii	"f\346\375\020 \340\343\370\311_\232\303#\254h\002\032"
  90      20E0E3F8 
  90      C95F9AC3 
  90      23AC6802 
  90      1A
  91 0068 E50B760C 		.ascii	"\345\013v\014\024Z\005J\245\263!\211\250\034@\2301\204"
  91      145A054A 
  91      A5B32189 
  91      A81C4098 
  91      3184
  92 007a C4993154 		.ascii	"\304\2311Tp \002\233D\313\265\355\365\205V\332\230+"
  92      7020029B 
ARM GAS  /tmp/ccuN5Dk8.s 			page 7


  92      44CBB5ED 
  92      F58556DA 
  92      982B
  93 008c D3B3E7A1 		.ascii	"\323\263\347\241\213\\\246\021!\2150\312\023\264\264"
  93      8B5CA611 
  93      218D30CA 
  93      13B4B4
  94 009b 08E37D5D 		.ascii	"\010\343}]\237\244#\242\360\006=y\236tQ\012h\376\006"
  94      9FA423A2 
  94      F0063D79 
  94      9E74510A 
  94      68FE06
  95 00ae 660868FB 		.ascii	"f\010h\373\006f\012\210\374\037V]:Yl\241\032\375\335"
  95      06660A88 
  95      FC1F565D 
  95      3A596CA1 
  95      1AFDDD
  96 00c1 5E4040E7 		.ascii	"^@@\347\033\031\362I\374\224|\276\037>\245R\325\363"
  96      1B19F249 
  96      FC947CBE 
  96      1F3EA552 
  96      D5F3
  97 00d3 7EB91814 		.ascii	"~\271\030\024\320\365U\301\003A5\317;~\010\231\0106"
  97      D0F555C1 
  97      034135CF 
  97      3B7E0899 
  97      0836
  98 00e5 EE61848F 		.ascii	"\356a\204\217\322\345\022\000&\224\210\312\226\215\273"
  98      D2E51200 
  98      269488CA 
  98      968DBB
  99 00f4 1CB47153 		.ascii	"\034\264qS\333-m\267\265\335a\013*=\217$[u]I4\224\312"
  99      DB2D6DB7 
  99      B5DD610B 
  99      2A3D8F24 
  99      5B755D49 
 100 010b 140AADE7 		.ascii	"\024\012\255\3470wV\271\253\012\033\367\371\2563\210"
 100      307756B9 
 100      AB0A1BF7 
 100      F9AE3388 
 101 011b ABB0324B 		.ascii	"\253\2602K\324\310\315\375\201G\232W^8\253S\250\356"
 101      D4C8CDFD 
 101      81479A57 
 101      5E38AB53 
 101      A8EE
 102 012d C2AF5D5D 		.ascii	"\302\257]]\202\351\023\000\377\226\325\245\321\3372"
 102      82E91300 
 102      FF96D5A5 
 102      D1DF32
 103 013c 6751C10A 		.ascii	"gQ\301\012\3215#\365\355\320\263F\225>\027\177\300+"
 103      D13523F5 
 103      EDD0B346 
 103      953E177F 
 103      C02B
 104 014e E362839F 		.ascii	"\343b\203\237&\205Rwq\305\357Iq\3721\336\200P\2458 "
 104      26855277 
 104      71C5EF49 
ARM GAS  /tmp/ccuN5Dk8.s 			page 8


 104      71FA31DE 
 104      8050A538 
 105 0163 6E0F9B54 		.ascii	"n\017\233T\313\250\026\251\177\015\343v\321\236\314"
 105      CBA816A9 
 105      7F0DE376 
 105      D19ECC
 106 0172 67324EA1 		.ascii	"g2N\241;\015\346D\316\316:\306\204;\351\004\374\240"
 106      3B0DE644 
 106      CECE3AC6 
 106      843BE904 
 106      FCA0
 107 0184 64910567 		.ascii	"d\221\005g*\030\215\015\244\342\335=\035\321\376d\377"
 107      2A188D0D 
 107      A4E2DD3D 
 107      1DD1FE64 
 107      FF
 108 0195 E0503C1E 		.ascii	"\340P<\036K\364Z\261Db(aE\013\356o\307\312\345\213V"
 108      4BF45AB1 
 108      44622861 
 108      450BEE6F 
 108      C7CAE58B 
 109 01aa 363F9D2B 		.ascii	"6?\235+:\343u\360\0029\245\247o"
 109      3AE375F0 
 109      0239A5A7 
 109      6F
 110              		.text
 111              		.section	.gnu.lto_logfileWrite.part.1.b3051b2299b6d9b5,"",%progbits
 112 0000 789C8D52 		.ascii	"x\234\215R\277k\024Q\020\236\231\267os\033O\270B\220"
 112      BF6B1451 
 112      109E99B7 
 112      6F731B4F 
 112      B84290
 113 0013 A49018B0 		.ascii	"\244\220\030\260QL\020\255l\375\027\0220\345\346\\7"
 113      514C10AD 
 113      6CFD1712 
 113      30E5E65C 
 113      37
 114 0024 0BE79D5C 		.ascii	"\013\347\235\\N,,2\027\017\022$\304#\215\250)\022B\010"
 114      4E2C2C32 
 114      170F1224 
 114      C4238DA8 
 114      29124208 
 115 0038 16A218EC 		.ascii	"\026\242\030\354\002Y\265\210\215\212\020A\255\256\021"
 115      0259B588 
 115      8D8A1041 
 115      ADAE11
 116 0047 0B45101B 		.ascii	"\013E\020\033Qq\235\331\275\273\030\025\314\203\235"
 116      51719DD9 
 116      BDBB1815 
 116      CC839D
 117 0056 793FBE6F 		.ascii	"y?\276o\276o\336>\002\202?\307i\371\236P\226\321\005"
 117      BE6FDE3E 
 117      02823FC7 
 117      69F99E50 
 117      96D105
 118 0069 B4CDE732 		.ascii	"\264\315\3472\261Hi&2\333\303\300\275\316\306!\340\274"
 118      B1486926 
ARM GAS  /tmp/ccuN5Dk8.s 			page 9


 118      32DBC3C0 
 118      BDCEC621 
 118      E0BC
 119 007b 414777EB 		.ascii	"AGw\3539\007Q'\2000e\311885\206Z\313\035\204e\346\205"
 119      39075127 
 119      803065C9 
 119      38383586 
 119      5ACB1D84 
 120 0092 D6BB2F31 		.ascii	"\326\273/1\336\340\270\276\304?\222\0041B\321- \024"
 120      DEE0B8BE 
 120      C43F9204 
 120      3142D12D 
 120      2014
 121 00a4 11CECA02 		.ascii	"\021\316\312\002si\"\334m$\343\362}f\233\362L\204\206"
 121      736922DC 
 121      6D24E3F2 
 121      7D669BF2 
 121      4C8486
 122 00b7 A07F8756 		.ascii	"\240\177\207V\310h\364O\332\003f\257Cs\010\016\357\320"
 122      C868F44F 
 122      DA0366AF 
 122      4373080E 
 122      EFD0
 123 00c9 06329AF3 		.ascii	"\0062\232\3637-n\306\017\267\346\372xi\272\311?\305"
 123      372D6EC6 
 123      0FB7E6FA 
 123      7869BAC9 
 123      3FC5
 124 00db 688496E0 		.ascii	"h\204\226\340\310^\230\274\020\257o\315\037\344\026"
 124      C85E98BC 
 124      10AF6FCD 
 124      1FE416
 125 00ea 77982EC1 		.ascii	"w\230.\301\361=u\330\214_\315,\366]\333\245y\342\177"
 125      F13D75D8 
 125      8C5FCD2C 
 125      F65DDBA5 
 125      79E27F
 126 00fd 9AF7885B 		.ascii	"\232\367\210[Ir3\311y\210\027\3646#\3541\340\343\035"
 126      497233C9 
 126      798817F4 
 126      3623EC31 
 126      E0E31D
 127 0110 1C044716 		.ascii	"\034\004G\0269\253A\200\026\032\"1\220\235\370\270\226"
 127      39AB4180 
 127      161A2231 
 127      909DF8B8 
 127      96
 128 0121 C6E534AE 		.ascii	"\306\3454\256\244qU\"\250\232\214\021\211\372\033G\320"
 128      A4715522 
 128      A89A8C11 
 128      89FA1B47 
 128      D0
 129 0132 6A36A348 		.ascii	"j6\243Hi~\006\323o\277~\177M>\336\225\223\020\351\030"
 129      697E06D3 
 129      6FBF7E7F 
 129      4D3EDE95 
 129      9310E918 
ARM GAS  /tmp/ccuN5Dk8.s 			page 10


 130 0146 1C15C1DB 		.ascii	"\034\025\301\333p\253\316\\\210\320\013\021\325eo\352"
 130      70ABCE5C 
 130      88D00B11 
 130      D5656FEA 
 131 0156 6DBCDBE5 		.ascii	"m\274\333\345\013h\304\375\035\222\271\002\337xV\341"
 131      0B68C4FD 
 131      1D92B902 
 131      DF7856E1 
 132 0166 FB8A9841 		.ascii	"\373\212\230A\244R\204y\200\247\320\370\370\350\363"
 132      A4528479 
 132      80A7D0F8 
 132      F8E8F3
 133 0175 4CBE0BD5 		.ascii	"L\276\013\325b\356\357\375\216\242\201\355a5\362\351"
 133      62EEEFFD 
 133      8EA281ED 
 133      6135F2E9 
 134 0185 EAFBEBDD 		.ascii	"\352\373\353\335\232\216`;\000\247m\365\361\207\266"
 134      9A8E603B 
 134      00A76DF5 
 134      F187B6
 135 0194 CFACDB53 		.ascii	"\317\254\333S\260\316\263z\253\002z)/UUu\016o\300\252"
 135      B0CEB37A 
 135      AB027A29 
 135      2F555575 
 135      0E6FC0AA 
 136 01a8 8C6CD0C6 		.ascii	"\214l\320\306\346\001\251e\0267'\264w\324B\372\250\366"
 136      E601A965 
 136      163727B4 
 136      77D442FA 
 136      A8F6
 137 01ba 9FF36B7E 		.ascii	"\237\363k~\251\022\206Au\250\010^\345bP>S\252L\006n"
 137      A9128641 
 137      75A8085E 
 137      E562503E 
 137      53AA4C06 
 138 01cf 292887B5 		.ascii	")(\207\265\0113~\351|\317\345jT\253\005eS\015&\275\366"
 138      09337EE9 
 138      7CCFE56A 
 138      54AB0565 
 138      530D26BD 
 139 01e4 7CE8E42F 		.ascii	"|\350\344/\274\241\271\022"
 139      BCA1B912 
 140              		.text
 141              		.section	.gnu.lto_dataLoggerInitialize.b3051b2299b6d9b5,"",%progbits
 142 0000 789C8D54 		.ascii	"x\234\215TMh\023Q\020\236y\273\233\315\246i\233\326"
 142      4D681351 
 142      109E79BB 
 142      9BCDA669 
 142      9BD6
 143 0012 FE421B42 		.ascii	"\376B\033B\301\223ZK/\202\010Zi\354\305\037\250\015"
 143      C1935A4B 
 143      2F82085A 
 143      69ECC51F 
 143      A80D
 144 0024 EA31A621 		.ascii	"\3521\246!,4-\244\021\021\205\276\224ZD\017\206V!\324"
 144      2C342DA4 
 144      111185BE 
ARM GAS  /tmp/ccuN5Dk8.s 			page 11


 144      945A440F 
 144      865621D4 
 145 0038 0A562982 		.ascii	"\012V)\202\036\364\340\241 \322VE\032\212-z\220\012"
 145      1EF4E0A1 
 145      20D25645 
 145      1A8A2D7A 
 145      900A
 146 004a 3DF4E645 		.ascii	"=\364\346EDA\374\3078\263\233M\223P\244\017\362\336"
 146      4441FCC7 
 146      38B39B4D 
 146      9350A40F 
 146      F2DE
 147 005c 9B79F3CD 		.ascii	"\233y\363\315\367\315\274\267\021 \240|\234\247\337"
 147      F7CDBCB7 
 147      1120A07C 
 147      9CA7DF
 148 006b 5D156090 		.ascii	"]\025`\220V\364\000\212\364\012@\312-\204\361M\007\351"
 148      56F4008A 
 148      F40A40CA 
 148      2D84F14D 
 148      07E9
 149 007d 51A65E01 		.ascii	"Q\246^\001H\257\2227U\333T\205\266^A\246\353\311s65"
 149      48AF9237 
 149      55DB5485 
 149      B65E41A6 
 149      EBC97336 
 150 0092 74D92897 		.ascii	"t\331(\227\320\323\012\371\335r\231\375:\032\266\337"
 150      D0D30AF9 
 150      DD7299FD 
 150      3A1AB6DF 
 151 00a2 ED6C0C44 		.ascii	"\355l\014D\336\000\302\210PT\315\245\223g\344\014\262"
 151      DE00C288 
 151      5054CDA5 
 151      9367E40C 
 151      B2
 152 00b3 10D10633 		.ascii	"\020\321\0063RNl\\\236\274\336|\365\316hZ\376\315\345"
 152      524E6C5C 
 152      9EBCDE7C 
 152      F5CE685A 
 152      FECDE5
 153 00c6 D04492EC 		.ascii	"\320D\222\354C\210 \234&\003\003\326\"\324\322\032l"
 153      4388209C 
 153      260303D6 
 153      22D4D21A 
 153      6C
 154 00d7 E4C2EFAF 		.ascii	"\344\302\357\257s(\307e\352s.Wm\242\"\240i\023\350\266"
 154      7328C765 
 154      EA732E57 
 154      6DA222A0 
 154      6913E8B6 
 155 00eb 81580A7C 		.ascii	"\201X\012|$\0266r\271?\263\351=\215\010q\3462QU1\216"
 155      24163672 
 155      B93FB3E9 
 155      3D8D0871 
 155      E6325155 
 156 0101 A8D12474 		.ascii	"\250\321$t\232\024\203&\360\322\201\346\2030\336\303"
 156      9A148326 
ARM GAS  /tmp/ccuN5Dk8.s 			page 12


 156      F0D281E6 
 156      8330DEC3 
 157 0111 36A8A175 		.ascii	"6\250\241u\206\326Zr\272\352\363\006\015\015\306\244"
 157      86D65A72 
 157      BAEAF306 
 157      0D0DC6A4 
 158 0121 4C07EC20 		.ascii	"L\007\354 `j\032}4s\311!\024\274*K\360\362\303\342\227"
 158      606A1A7D 
 158      3473C921 
 158      14BC2A4B 
 158      F0F2C3E2 
 159 0136 9630CEA2 		.ascii	"\2260\316\242\0061TY\226^\254)\204\012P\227\255\300"
 159      06315459 
 159      965EAC29 
 159      840A5097 
 159      ADC0
 160 0148 D429274E 		.ascii	"\324)'N\3438wi\234\012\327\016*\257atym\245\322\216"
 160      E3387769 
 160      9C0AD70E 
 160      2AAF6174 
 160      796DA5D2 
 161 015d BB055329 		.ascii	"\273\005S))}\324\265\213\360K^\341\235\021G\356\026"
 161      297DD4B5 
 161      8BF04B5E 
 161      E19D1147 
 161      EE16
 162 016f C30D0B17 		.ascii	"\303\015\013\027c:K\305\367\202\012\203\217=\305\331"
 162      633A4BC5 
 162      F7820A83 
 162      8F3DC5D9 
 163 017f FBC8FFD4 		.ascii	"\373\310\377\324PB\350*\220\254\326\331\341\273\340"
 163      5042E82A 
 163      90ACD6D9 
 163      E1BBE0
 164 018e 81A4B18F 		.ascii	"\201\244\261\217t\023\037\001+J\344\235\315\3678\306"
 164      74131F01 
 164      2B4AE49D 
 164      CDF738C6 
 165 019e BCAB30B6 		.ascii	"\274\2530\2661?\201\016\217\267 \313\033At\302L\254"
 165      313F810E 
 165      8FB720CB 
 165      1B4174C2 
 165      4CAC
 166 01b0 04208AEC 		.ascii	"\004 \212\354\343\212r\006mk\006\007\352\265p\313\231"
 166      E38A7206 
 166      6D6B0607 
 166      EAB570CB 
 166      99
 167 01c1 B70DE540 		.ascii	"\267\015\345@\317\326@\221\007\"K\033\337\310v:\312"
 167      CFD64091 
 167      07224B1B 
 167      DFC8763A 
 167      CA
 168 01d2 7C056555 		.ascii	"|\005eU\221B\224\227\002\031]\215t\323>\356\332\330"
 168      91429497 
 168      02195D8D 
 168      74D33EEE 
ARM GAS  /tmp/ccuN5Dk8.s 			page 13


 168      DAD8
 169 01e4 C7C59BAD 		.ascii	"\307\305\233\255\005\014\237)\233={\017H\255T\221Se"
 169      050C9F29 
 169      9B3D7B0F 
 169      48AD5491 
 169      5365
 170 01f6 E4C2CF4B 		.ascii	"\344\302\317K&\326\370\241\345\266\314\0342\261\326"
 170      26D6F8A1 
 170      E5B6CC1C 
 170      32B1D6
 171 0205 7A216B0A 		.ascii	"z!k\012_\234\016/\004\3674\233\231\254v\222\325l\347"
 171      5F9C0E2F 
 171      04F7349B 
 171      99AC7692 
 171      D56CE7
 172 0218 EEAC723F 		.ascii	"\356\254r?)\016\2466\306\252V\301e;`\023\271#\222\027"
 172      290EA636 
 172      C6AA56C1 
 172      653B6013 
 172      B9239217 
 173 022c 46896D39 		.ascii	"F\211m9r\236\262\324\371\301o\313\341gka(\213\211\015"
 173      729EB2D4 
 173      F9C16FCB 
 173      E1676B61 
 173      288B890D 
 174 0240 CE9372C3 		.ascii	"\316\223r\303\322\001V6\367c\262\265\274\245\215[\267"
 174      D2015636 
 174      F763B2B5 
 174      BCA58D5B 
 174      B7
 175 0251 D4E6614F 		.ascii	"\324\346aO#\332\002\263\231wU\216\304\372\355\225\265"
 175      23DA02B3 
 175      9977558E 
 175      C4FAED95 
 175      B5
 176 0262 0ADAFF6A 		.ascii	"\012\332\377j\250\317\327\360\214 M~8n\327\320\354\324"
 176      A8CFD7F0 
 176      8C204D7E 
 176      386ED7D0 
 176      ECD4
 177 0274 50548061 		.ascii	"PT\200a}do\350\257\206q\302\276\026\301TD\251L\337\267"
 177      7D646FE8 
 177      AF8671C2 
 177      BE16C154 
 177      44A94CDF 
 178 0289 EE53CD39 		.ascii	"\356S\3159\003G\364\365,\346\217\335\323\017\235\255"
 178      0347F4F5 
 178      2CE68FDD 
 178      D30F9DAD 
 179 0299 B8A1F337 		.ascii	"\270\241\3637\200\234\215\223T\366\207\223\341\201\241"
 179      809C8D93 
 179      54F68793 
 179      E181A1
 180 02a8 582C9A68 		.ascii	"X,\232h\217\200\336\035<\034\352i\357P\242\211\004\302"
 180      8F80DE1D 
 180      3C1CEA69 
 180      EF50A289 
ARM GAS  /tmp/ccuN5Dk8.s 			page 14


 180      04C2
 181 02ba DEEEAEBE 		.ascii	"\336\356\256\276\256\243'zz\202\275\373\003\301Db(\021"
 181      AEA3277A 
 181      7A82BDFB 
 181      03C14462 
 181      2811
 182 02cc 3836746E 		.ascii	"86tn0i\016\306\002G\314\201\350\360\205\341d4\276;\330"
 182      30690EC6 
 182      0247CC81 
 182      E8F085E1 
 182      6434BE3B 
 183 02e1 DBBBB3B3 		.ascii	"\333\273\263\263\243\337\003\201\342\370\356B\336\300"
 183      A3DF0381 
 183      E2F8EE42 
 183      DEC0
 184 02ef C9643891 		.ascii	"\311d8\221\214R\300?\177\256<<"
 184      8C52C03F 
 184      7FAE3C3C 
 185              		.text
 186              		.section	.gnu.lto_dataLoggerStop.b3051b2299b6d9b5,"",%progbits
 187 0000 789C6550 		.ascii	"x\234eP\277KBQ\024\376\316\325\227fi\2169\024\217\326"
 187      BF4B4251 
 187      14FECED5 
 187      9766698E 
 187      39148FD6 
 188 0014 40684AA2 		.ascii	"@hJ\242!Cq\011\202R\250\361\365\224\307\203D\011\267"
 188      21437109 
 188      8252A8F1 
 188      F594C783 
 188      4409B7
 189 0027 06AF5211 		.ascii	"\006\257R\021\015\362h\222$H\332\242hm\011Z\033*\332"
 189      0DF26892 
 189      2448DAA2 
 189      686D095A 
 189      1B2ADA
 190 003a 0297F70F 		.ascii	"\002\227\367\017D{C\257{\336\263\242:p\357w\356\345"
 190      447B43AF 
 190      7BDEB3A2 
 190      3A70EF77 
 190      EEE5
 191 004c FB713802 		.ascii	"\373q8\002\002\177+\245N\207\200\214B\012\201\204\363"
 191      027F2BA5 
 191      4E87808C 
 191      420A8184 
 191      F3
 192 005d 08B4A282 		.ascii	"\010\264\242\202\210\033\020\232\202\232\233\304T\232"
 192      881B109A 
 192      829A9BC4 
 192      549A
 193 006b 415FCA63 		.ascii	"A_\312cw\177\320I\035\235\265\035\371\341yd\2232M\022"
 193      777FD049 
 193      1D9DB51D 
 193      F9E17964 
 193      93324D12 
 194 007f 4CC2867A 		.ascii	"L\302\206z\220\356\203\010\377N\271\026w\256\347]^9"
 194      90EE8308 
 194      FF4EB916 
ARM GAS  /tmp/ccuN5Dk8.s 			page 15


 194      77AEE75D 
 194      5E39
 195 0091 8B110183 		.ascii	"\213\021\001\203\372\312J\243\252\357\252aOJG\007;\250"
 195      FACA4AA3 
 195      AAEFAA61 
 195      4F4A4707 
 195      3BA8
 196 00a3 2AAA9B93 		.ascii	"*\252\233\223K$\030C\017h\337w\007\011\203\316I\203"
 196      4B241843 
 196      0F68DF77 
 196      070983CE 
 196      4983
 197 00b5 45A28793 		.ascii	"E\242\207\223\226\224I\025\273\213wy\310]\250J,\345"
 197      96944915 
 197      BB8B7779 
 197      C85DA84A 
 197      2CE5
 198 00c7 DCD030EF 		.ascii	"\334\3200\357\011Z\240\300\017-l\3724\260\013\177v\245"
 198      095AA0C0 
 198      0F2D6CFA 
 198      34B00B7F 
 198      76A5
 199 00d9 BC55126D 		.ascii	"\274U\022m\032\223\247\262\273d\323\010\206\032\233"
 199      1A93A7B2 
 199      BB64D308 
 199      861A9B
 200 00e8 226C71E0 		.ascii	"\"lq\340\276f\376\271DM\012\226\310q\243\001\304\002"
 200      BE66FEB9 
 200      444D0A96 
 200      C871A301 
 200      C402
 201 00fa 1863E538 		.ascii	"\030c\3458\240F\276y\351M\005\322Y\\HU\3636\305\325"
 201      A046BE79 
 201      E94D05D2 
 201      595C4855 
 201      F336C5D5 
 202 010e E88A95B0 		.ascii	"\350\212\225\260Hc\366\204\357\262\025\214\344\353\343"
 202      4863F684 
 202      EFB2158C 
 202      E4EBE3
 203 011d DC3CA3E5 		.ascii	"\334<\243\345\276\305\002-\177&\277VXT\323\253\205p"
 203      BEC5022D 
 203      7F26BF56 
 203      5854D3AB 
 203      8570
 204 012f 78BC6C34 		.ascii	"x\274l4\214\355\232eUv\322&\"\271\374r\251\220\236\323"
 204      8CED9A65 
 204      5576D226 
 204      22B9FC72 
 204      A9909ED3 
 205 0143 73D96276 		.ascii	"s\331bve\265P\310\257-\350\271o\206\276\336\250\325"
 205      65B550C8 
 205      AF2DE8B9 
 205      6F86BEDE 
 205      A8D5
 206 0155 EB95720C 		.ascii	"\353\225r\014\237-Sl#"
 206      9F2D536C 
ARM GAS  /tmp/ccuN5Dk8.s 			page 16


 206      23
 207              		.text
 208              		.section	.gnu.lto_logfileNew.b3051b2299b6d9b5,"",%progbits
 209 0000 789C9D54 		.ascii	"x\234\235TMHTQ\024>\347\276\277\231\321\321\311\231"
 209      4D485451 
 209      143EE7BE 
 209      BF99D1D1 
 209      C999
 210 0012 A6116278 		.ascii	"\246\021bx\010\263\311\322r\031\004i\016\263\221\002"
 210      08B3C9D2 
 210      72190469 
 210      0EB39102 
 211 0022 51A8E534 		.ascii	"Q\250\3454N\217\007\332\300\214\320\242\205wT\"\202"
 211      4E8F07DA 
 211      C08CD0A2 
 211      85775422 
 211      82
 212 0033 6268D390 		.ascii	"bh\323\220\005\211D\320\3066\302,\224l#\205\225\006"
 212      058944D0 
 212      C636C22C 
 212      946C2385 
 212      9506
 213 0045 12D54631 		.ascii	"\022\325F1t!b-\247\026M\347\276?\363\007\212.\314\275"
 213      7421622D 
 213      A7164DE7 
 213      BE3FF307 
 213      8A2ECCBD 
 214 0059 F7DDFB7D 		.ascii	"\367\335\373}\347\234\357\274\357\015\003\006\373G\037"
 214      E79CEFBC 
 214      EF0D0306 
 214      FB471F
 215 0068 FD0A3240 		.ascii	"\375\0122@\216V\364\001\262\322{\200\242\2171i6\016"
 215      8E56F401 
 215      B2D27B80 
 215      A28F3169 
 215      360E
 216 007a BC5E5E69 		.ascii	"\274^^i\007\036\220P\023\307(3\345A\210\236\325\037"
 216      071E9050 
 216      13C72833 
 216      E541889E 
 216      D51F
 217 008c E7E84EB1 		.ascii	"\347\350N\261O\213>\325\335h\210b\003\010#L\222\025"
 217      4F8B3ED5 
 217      DD688862 
 217      0308234C 
 217      9215
 218 009e 55C3912B 		.ascii	"U\303\221+(\262\260\026\230\344\374\376\332\306\352"
 218      28B2B016 
 218      98E4FCFE 
 218      DAC6EA
 219 00ad BDE63B4F 		.ascii	"\275\346;OFK\374W\255\206&R=!\204\014\302ez@\335Z\230"
 219      464BFC57 
 219      AD862652 
 219      3D21840C 
 219      C2657A40 
 220 00c4 BCB7409B 		.ascii	"\274\267@\2339_Z\250{\301o\363Zm\304D\211Al\227\346"
 220      395F5AA8 
ARM GAS  /tmp/ccuN5Dk8.s 			page 17


 220      7BC16FF3 
 220      5A6DC444 
 220      89416C97 
 221 00d9 B369B897 		.ascii	"\263i\270\2276\315\346\327j\265\355\351\345\217HX\223"
 221      36CDE6D7 
 221      6AB5EDE9 
 221      E58F4858 
 221      93
 222 00ea 4A17930C 		.ascii	"J\027\223\014i\234\304\026Pp\010A\243\011\3754\261\000"
 222      699CC416 
 222      50700841 
 222      A309FD34 
 222      B100
 223 00fc DD2941DA 		.ascii	"\335)A\332IM\004\230\"@\330\001F\350F\215\012*\305T"
 223      494D0498 
 223      2240D801 
 223      46E8468D 
 223      0A2AC554 
 224 0110 609CF392 		.ascii	"`\234\363\222n#@\024 \032H\263\020\335\217L\254\322"
 224      6E234014 
 224      201A48B3 
 224      10DD8F4C 
 224      ACD2
 225 0122 3B187D53 		.ascii	";\030}S]mH\343ST\300@y\002\036\0269\017\221\330\233"
 225      5D6D48E3 
 225      5354C040 
 225      79021E16 
 225      390F91D8 
 226 0137 F09314D0 		.ascii	"\360\223\024\320N\033\262\302\211\2625\247\334%Pm\006"
 226      4E1BB2C2 
 226      89B235A7 
 226      DC25506D 
 226      06
 227 0148 ECC27C19 		.ascii	"\354\302|\031\264EQ\024qX\346|\216(\3768\034\177\314"
 227      B4455114 
 227      7158E67C 
 227      8E28FE38 
 227      1C7FCC
 228 015b CBE74D0C 		.ascii	"\313\347M\014\200\3031P1\261\016\200rW*\353U\264\217"
 228      80C33150 
 228      31B10E80 
 228      72572AEB 
 228      55B48F
 229 016e 5BE139A7 		.ascii	"[\3419\247q\206\264Q\021\304\2547P\023I\203V\324\253"
 229      7186B451 
 229      11C4AC37 
 229      50134983 
 229      56D4AB
 230 0181 4EC7C489 		.ascii	"N\307\304\211\310+\330_>\255\3173\267\364@+\234\360"
 230      C82BD85F 
 230      3EADCF33 
 230      B7F4402B 
 230      9CF0
 231 0193 B80D06FA 		.ascii	"\270\015\006\372\005\262\321\341\272\355~\015\343\333"
 231      05B2D1E1 
 231      BAED7E0D 
 231      E3DB
ARM GAS  /tmp/ccuN5Dk8.s 			page 18


 232 01a1 C5468FE2 		.ascii	"\305F\217\342\005sG?J0\033\227\226`\314\347\202\230"
 232      0573473F 
 232      4A301B97 
 232      9660CCE7 
 232      8298
 233 01b3 A7309441 		.ascii	"\2470\224A\333\221&\036q\3412\254\264\213&.V\277\036"
 233      DB91261E 
 233      71E132AC 
 233      B48B262E 
 233      56BF1E
 234 01c6 14D274B8 		.ascii	"\024\322t\270\020\346\264)h\267\240\274\271\314\366"
 234      10E6B429 
 234      68B7A0BC 
 234      B9CCF6
 235 01d5 33C38733 		.ascii	"3\303\2073%\257\005a\247\005\213\225\315\203y#\207\263"
 235      25AF0561 
 235      A7058B95 
 235      CD837923 
 235      87B3
 236 01e7 6527AF22 		.ascii	"e'\257\"^\340\255\265\211)\325\325\330\344i<\232q\222"
 236      5EE0ADB5 
 236      8929D5D5 
 236      D8E4693C 
 236      9A7192
 237 01fa 50798414 		.ascii	"Py\204\024\364\250\360\3331\273w\257\346\026$\217$."
 237      F4A8F0DB 
 237      31BB77AF 
 237      E616248F 
 237      242E
 238 020c A5BDDD53 		.ascii	"\245\275\335S\340\233\337\362Ty\353;\272\300\360\277"
 238      E09BDFF2 
 238      5479EB3B 
 238      BAC0F0BF 
 239 021c 998A683B 		.ascii	"\231\212h;^\360\010\305\377\253\317\302\216\317^R\224"
 239      5EF008C5 
 239      FFABCFC2 
 239      8ECF5E52 
 239      94
 240 022d 581CBA6C 		.ascii	"X\034\272l\2375\357\372,\342\372lg\354\331]Om\324\212"
 240      9F35EFFA 
 240      2CE2FA6C 
 240      67ECD95D 
 240      4F6DD48A 
 241 0241 6D17ACC2 		.ascii	"m\027\254\302FB\024\\\251n\375\217\021\321S\256Y\237"
 241      4642145C 
 241      A96EFD8F 
 241      11D153AE 
 241      599F
 242 0253 D307FA5B 		.ascii	"\323\007\372[\021\211\255\363\317\200d\037\211\246\250"
 242      1189ADF3 
 242      CF80641F 
 242      89A6A8
 243 0262 F2682626 		.ascii	"\362h&&\010\244Y};\023\021\337!\012\202\260Bp =\234"
 243      08A4597D 
 243      3B1311DF 
 243      210A82B0 
 243      4270203D 
ARM GAS  /tmp/ccuN5Dk8.s 			page 19


 244 0277 1ECC1946 		.ascii	"\036\314\031F6\337\226\001\255;\331\325\237j\353\220"
 244      36DF9601 
 244      AD3BD9D5 
 244      9F6AEB90 
 245 0287 F2D942A2 		.ascii	"\362\331B\242\273\263\257\263\347R*\225\354=\253_\310"
 245      BBB3AFB3 
 245      E7522A95 
 245      EC3DAB5F 
 245      C8
 246 0298 67D3C3E6 		.ascii	"g\323\303\346uC\277\230\275\241\367\344\214k\346`VO"
 246      7543BF98 
 246      BDA1F7E4 
 246      8C6BE660 
 246      564F
 247 02aa 140270EA 		.ascii	"\024\002p\352OT2\237\317\345\365\214\213up'\365doo\342"
 247      4F54329F 
 247      CFE5F58C 
 247      8B757027 
 247      F5646F6F 
 248 02bf 74C74000 		.ascii	"t\307@\000~\003\375\325\"\233"
 248      7E03FDD5 
 248      229B
 249              		.text
 250              		.section	.gnu.lto_logfileSize.b3051b2299b6d9b5,"",%progbits
 251 0000 789C6362 		.ascii	"x\234cb`b@\007\222@\034\015\304\374@\314\310\314\300"
 251      60624007 
 251      92401C0D 
 251      C4FC40CC 
 251      C8CCC0
 252 0013 C834E11C 		.ascii	"\3104\341\034\003C#\007\023##\210\301\300\310P\317\304"
 252      03432307 
 252      13232388 
 252      C1C0C850 
 252      CFC4
 253 0025 581FC908 		.ascii	"X\037\311\010V\273\236\351\300\203\377\377\327};\266"
 253      56BB9EE9 
 253      C083FFFF 
 253      D77D3BB6 
 254 0035 601F2323 		.ascii	"`\037##\310(V\206\226\206\206\011\012\014\014\311`\005"
 254      C8285686 
 254      96868609 
 254      0A0C0CC9 
 254      6005
 255 0047 214012A4 		.ascii	"!@\022\244+\024(\011\244\231/24>\330\273\2301\221q!"
 255      2B142809 
 255      A4992F32 
 255      343ED8BB 
 255      98319171 
 256 005c 232B4304 		.ascii	"#+C\004c&#\334\326\020FF\220\012\220\031\274)\211%\211"
 256      632623DC 
 256      D6104646 
 256      900A9019 
 256      BC298925 
 257 0071 39F9E9E9 		.ascii	"9\371\351\351\251Ez\311\014\0009V\037%"
 257      A9457AC9 
 257      0C003956 
 257      1F25
ARM GAS  /tmp/ccuN5Dk8.s 			page 20


 258              		.text
 259              		.section	.gnu.lto_logfileWriteCsv.b3051b2299b6d9b5,"",%progbits
 260 0000 789C6362 		.ascii	"x\234cb`b@\007\222@\234\005\304\374@\314\310\314\300"
 260      60624007 
 260      92409C05 
 260      C4FC40CC 
 260      C8CCC0
 261 0013 C834E11C 		.ascii	"\3104\341\034\003C#\007\023##\210\301\300\310P\317\304"
 261      03432307 
 261      13232388 
 261      C1C0C850 
 261      CFC4
 262 0025 581FC908 		.ascii	"X\037\311\010V\273\236\351\300\203\377\377\327\3159"
 262      56BB9EE9 
 262      C083FFFF 
 262      D7CD39
 263 0034 B5603723 		.ascii	"\265`7#\023+\023c.#\0033\220`d\001\022 \223Y\031Z\032"
 263      132B1363 
 263      2E230333 
 263      90606401 
 263      12209359 
 264 004b 1A262830 		.ascii	"\032&(00$\203\325\207\000I\220!\241@I \315|\221\241"
 264      302483D5 
 264      87004990 
 264      21A14049 
 264      20CD7C91 
 265 0060 F1C1AEA5 		.ascii	"\361\301\256\245\214\211\214\013\031Y\031\"\0303\031"
 265      8C898C0B 
 265      19591922 
 265      183319
 266 006f E18E0861 		.ascii	"\341\216\010ad\004\251\000\231\301\233\222X\222\230"
 266      6404A900 
 266      99C19B92 
 266      589298
 267 007e 939F9E9E 		.ascii	"\223\237\236\236Z\244\227\314\000\000c\217 7"
 267      5AA497CC 
 267      0000638F 
 267      2037
 268              		.text
 269              		.section	.gnu.lto_logfileGetWrCount.b3051b2299b6d9b5,"",%progbits
 270 0000 789C6362 		.ascii	"x\234cb`b@\007\222@<\003\210\371\201\230\221\231\201"
 270      60624007 
 270      92403C03 
 270      88F98198 
 270      919981
 271 0013 9169C239 		.ascii	"\221i\3029\006\206F\016&FF\020\203\201\221\241\236\211"
 271      0686460E 
 271      26464610 
 271      838191A1 
 271      9E89
 272 0025 B13E9211 		.ascii	"\261>\222\021\254v=\323\201\007\377\377\257\233vz\301"
 272      AC763DD3 
 272      8107FFFF 
 272      AF9B767A 
 272      C1
 273 0036 59462616 		.ascii	"YF&\026&\306\\F\006f\206L\260\034+CKC\303\004\005\006"
 273      26C65C46 
ARM GAS  /tmp/ccuN5Dk8.s 			page 21


 273      0666864C 
 273      B01C2B43 
 273      4B43C304 
 274 004c 86643037 		.ascii	"\206d07\004H\202\364\20722\201h\346\263\014M\267fl\326"
 274      044882F4 
 274      87323281 
 274      68E6B30C 
 274      4DB7666C 
 275 0061 4C645CC8 		.ascii	"Ld\\\310\310\312\220\316\310\254\315\260\252\001\010"
 275      C8CA90CE 
 275      C8ACCDB0 
 275      AA0108
 276 0070 EC819A67 		.ascii	"\354\201\232g3\314b\314ddLgd\212\000\322\020\007&1\302"
 276      33CC62CC 
 276      64644C67 
 276      648A00D2 
 276      10072631 
 277 0085 9C7791A1 		.ascii	"\234w\221\241\361\000+\\\033D,\204\221\021d(H)oJbIb"
 277      F1002B5C 
 277      1B442C84 
 277      91116428 
 277      48296F4A 
 278 009c 4E7E7A7A 		.ascii	"N~zzj\221^2\003\000\2277)\345"
 278      6A915E32 
 278      03009737 
 278      29E5
 279              		.text
 280              		.section	.gnu.lto_logfileClose.b3051b2299b6d9b5,"",%progbits
 281 0000 789C6D50 		.ascii	"x\234mP\273J\003A\024=gf\326<Pbaa\247\265\001\233\374"
 281      BB4A0341 
 281      143D6766 
 281      D63C5062 
 281      6161A7B5 
 282 0017 8A412DD7 		.ascii	"\212A-\327(\313\202\"\210\235Ef%\205\345v\2126\332\212"
 282      28CB8222 
 282      889D4566 
 282      2585E576 
 282      8A36DA8A 
 283 002b 6869D82A 		.ascii	"hi\330*\202\205\020\037\330\031!`g\345\007h\023\357"
 283      8285101F 
 283      D8192160 
 283      67E50768 
 283      13EF
 284 003d CC9228C6 		.ascii	"\314\222(\306\201\231{\230\271\3471WA\341\357\252\311"
 284      81997B98 
 284      B9E73157 
 284      41E1EFAA 
 284      C9
 285 004e 3E245091 		.ascii	">$P\221\312\000T\351#\220\024\225\322\266\013\330\262"
 285      CA0054E9 
 285      23901495 
 285      D2B60BD8 
 285      B2
 286 005f 4935ECA4 		.ascii	"I5\354\244\246\311\357\015\351\000\210\246\322\206\315"
 286      A6C9EF0D 
 286      E90088A6 
 286      D286CD
ARM GAS  /tmp/ccuN5Dk8.s 			page 22


 287 006e 557A952B 		.ascii	"Uz\225+\325y\033\014.\263\356\351\007U\231\210\011\303"
 287      D5791B0C 
 287      2EB3EEE9 
 287      07559988 
 287      09C3
 288 0080 2D2210C4 		.ascii	"-\"\020\304\202\034\3168@\313\332t\036hx\322\222\234"
 288      821CCE38 
 288      40CBDA74 
 288      1E6878D2 
 288      929C
 289 0092 4EAB2E8F 		.ascii	"N\253.\217R\365\003\366__\256?\031\362L\202D\014\252"
 289      52F503F6 
 289      5F5FAE3F 
 289      19F24C82 
 289      440CAA
 290 00a5 5810F609 		.ascii	"X\020\366\011\216\023k\355rL\035\321\2540\246\361\226"
 290      8E136BED 
 290      724C1DD1 
 290      AC30A6F1 
 290      96
 291 00b6 6B1C7EE1 		.ascii	"k\034~\341\011\255\316\334\220U\330\303\227=\260\323"
 291      09ADCEDC 
 291      9055D8C3 
 291      973DB0D3 
 292 00c6 318306F3 		.ascii	"1\203\006\363\026\221\2129\001\334\341\366=\251\214"
 292      16918A39 
 292      01DCE1F6 
 292      3DA98C
 293 00d5 1A9D54E1 		.ascii	"\032\235T\341\367(\352\224\257v}\220\366Q\326Syg\025"
 293      F728EA94 
 293      AF767D90 
 293      F651D653 
 293      796715
 294 00e8 E7626F6B 		.ascii	"\347bok1\213\022\205\3431r\023wSt\300\261\333\331\315"
 294      318B1285 
 294      E3317213 
 294      775374C0 
 294      B1DBD9CD 
 295 00fc 18BBF43F 		.ascii	"\030\273\364?[\215\330\245\237\034\306\017\344Y\346"
 295      5B8DD8A5 
 295      9F1CC60F 
 295      E459E6
 296 010b EDD27B83 		.ascii	"\355\322{\203\036\350\232\004\351\213\376\254\207\203"
 296      1EE89A04 
 296      E98BFEAC 
 296      8783
 297 0119 E16253DD 		.ascii	"\341bS\335\367g\334D\351\210Nrj=\334\0157\267\243hc"
 297      F767DC44 
 297      E9884E72 
 297      6A3DDC0D 
 297      37B7A368 
 298 012e 67B1816F 		.ascii	"g\261\201o\001\223h\337"
 298      019368DF 
 299              		.text
 300              		.section	.gnu.lto_logfileOpenAppend.b3051b2299b6d9b5,"",%progbits
 301 0000 789C8D52 		.ascii	"x\234\215R=k\024Q\024\275\347}\254\263\223Yw\223T\246"
 301      3D6B1451 
ARM GAS  /tmp/ccuN5Dk8.s 			page 23


 301      14BDE77D 
 301      ACB39359 
 301      779354A6 
 302 0014 08626704 		.ascii	"\010bg\004mm\375\017\006\024\253u\022\306\201\004!\332"
 302      6D6DFD0F 
 302      0614AB75 
 302      12C68104 
 302      21DA
 303 0026 59ECDBB8 		.ascii	"Y\354\333\270\212\225\2546\021\223\302`+\330'E&` )L"
 303      8A95AC36 
 303      1193C260 
 303      2BD82745 
 303      26602029 
 304 003b B0112342 		.ascii	"\260\021#B\202\026\"\370\331i\010\254\367\316\316<\023"
 304      821622F8 
 304      D96908AC 
 304      F7CECE3C 
 304      13
 305 004c 4DE183B9 		.ascii	"M\341\203\271w\346\276{\316=\347\275Q\244\350\357u\201"
 305      77E6BE7B 
 305      CE3DE7BD 
 305      51A4E8EF 
 305      7581
 306 005e 9F2F5C1E 		.ascii	"\237/\\\036\346\214\012Au7\211\332\201Rzi\224\\h_\237"
 306      E68C0A41 
 306      753789DA 
 306      81527A69 
 306      945C685F 
 307 0073 23176965 		.ascii	"#\027ie\016|\031\330~\223\005\344\205@-\245\215E\353"
 307      0E7C19D8 
 307      7E9305E4 
 307      85402DA5 
 307      8D45EB
 308 0086 328412A7 		.ascii	"2\204\022\247h\321\271\207\273k+\2370\347\262\366\023"
 308      68D1B987 
 308      BB6B2B9F 
 308      30E7B2F6 
 308      13
 309 0097 B7DFEB01 		.ascii	"\267\337\353\001)x|\003\024\203.\361\007\202<)\034\326"
 309      29787C03 
 309      14832EF1 
 309      07823C29 
 309      1CD6
 310 00a9 F35C65BB 		.ascii	"\363\\e\273\275\336\273\235\316\336y\356mb\221\331\014"
 310      BDDEBB9D 
 310      CEDE79EE 
 310      6D6291D9 
 310      0C
 311 00ba A6419652 		.ascii	"\246A\226R\350\012\007\023\024\345\252TB\0166**5\251"
 311      E80A0713 
 311      14E5AA54 
 311      420E362A 
 311      2A35A9
 312 00cd D4395498 		.ascii	"\3249T\230\311R\307\271\356\311\376\016\311X^\0279\212"
 312      C952C7B9 
 312      EEC9FE0E 
 312      C9585E17 
ARM GAS  /tmp/ccuN5Dk8.s 			page 24


 312      398A
 313 00df E67128C9 		.ascii	"\346q(\311\372%\315\276\375\271\262\241\232x\012K\011"
 313      FA25CDBE 
 313      FDB9B2A1 
 313      9A780A4B 
 313      09
 314 00f0 EC191A63 		.ascii	"\354\031\032c\216yz\334v\316]Iq,\201\021\235A\256\356"
 314      8E797ADC 
 314      76CE5D49 
 314      712C8111 
 314      9D41AEEE 
 315 0104 AA572BC0 		.ascii	"\252W+\300\356P\011\253\3440\3030\374\013)1[t7;Q\"\202"
 315      EE5009AB 
 315      E430C330 
 315      FC0B2931 
 315      5B74373B 
 316 011b 5BB4E7EE 		.ascii	"[\264\347\356\271F\212j\\t\360tf\022d8\304\036\006\210"
 316      B9468A6A 
 316      5C74F074 
 316      66126438 
 316      C41E0688 
 317 012f D6E9C5C7 		.ascii	"\326\351\305\307\325\007\233\332\203d\363\320q\215C"
 317      D5079BDA 
 317      8364F3D0 
 317      718D43
 318 013e D3D2686E 		.ascii	"\323\322hn\343\315\373_\276\261\352m\034\241\347\240"
 318      E3CDFB5F 
 318      BEB1EA6D 
 318      1CA1E7A0 
 319 014e 85EF6109 		.ascii	"\205\357a\011\011sHT8o\245\2501\215\300t\001S\336\306"
 319      09734854 
 319      386FA5A8 
 319      318DC074 
 319      0153DEC6 
 320 0162 9D6CA444 		.ascii	"\235l\244DE\336\306\361\270\350`\030\263\245\250\213"
 320      45DEC6F1 
 320      B8E86018 
 320      B3A5A88B 
 321 0172 FECEE7D5 		.ascii	"\376\316\347\325\271\373\221\357>B\277\241o\003\271"
 321      B9FB91EF 
 321      3E42BFA1 
 321      6F03B9
 322 0181 FE471FFE 		.ascii	"\376G\037\376\\C\355\177\257a\213:\331\351>\212\310"
 322      5C43ED7F 
 322      AF618B3A 
 322      D9E93E8A 
 322      C8
 323 0192 6B69C485 		.ascii	"ki\304\205jfJ1X\216\262\345\225\177\275\275\274`\313"
 323      6A664A31 
 323      588EB2E5 
 323      957FBDBD 
 323      BC60CB
 324 01a5 59F544CE 		.ascii	"Y\365D\316\377\025\301\027\244{\233\300\347\255\366"
 324      FF15C117 
 324      A47B9BC0 
 324      E7ADF6
 325 01b4 772658B6 		.ascii	"w&X\266~\366\343\032'\223\377@\020\026\261Z\233h\336"
ARM GAS  /tmp/ccuN5Dk8.s 			page 25


 325      7EF6E31A 
 325      2793FF40 
 325      1016B15A 
 325      9B68DE
 326 01c7 6C4E5D4F 		.ascii	"lN]O\222\311\231\2631\351\231\311\033\277\001\353\025"
 326      92C999B3 
 326      31E999C9 
 326      1BBF01EB 
 326      15
 327 01d8 ABE3     		.ascii	"\253\343"
 328              		.text
 329              		.section	.gnu.lto_logfileWrite.b3051b2299b6d9b5,"",%progbits
 330 0000 789C8554 		.ascii	"x\234\205TMh\023A\030\375\276\231\375K\2324\177\202"
 330      4D681341 
 330      18FDBE99 
 330      FD4B9A34 
 330      7F82
 331 0012 56B09682 		.ascii	"V\260\226\202\006,TE/\036\324\263w\013z\360\020cYW\254"
 331      062C5445 
 331      2F1ED4B3 
 331      770B7AF0 
 331      10635957 
 332 0027 422D78F0 		.ascii	"B-x\360\320i\023h\016E\202x\360\347\322RT\350A\017\255"
 332      D0691368 
 332      0E458278 
 332      F0E7D252 
 332      54E8410F 
 333 003c 546C0B5B 		.ascii	"Tl\013[A+B\255B\025T\204\320\253\342\301c-\306\357\233"
 333      412B42AD 
 333      42155484 
 333      D0ABE2C1 
 333      632DC6EF 
 334 0051 EC6E532B 		.ascii	"\354nS+v 3\373f\2767\357\355\233\331\010\020\360w\353"
 334      762033FB 
 334      66BE37EF 
 334      ED9BD908 
 334      10F077EB 
 335 0065 A35FDE00 		.ascii	"\243_\336\000\330G#\306\000E\365-\300\220#\204\254\344"
 335      D84723C6 
 335      0045F52D 
 335      C0902384 
 335      ACE4
 336 0077 41C50DEE 		.ascii	"A\305\015\356\023R8s\355\214V\016\0222\002djd\012\347"
 336      13523873 
 336      ED8C560E 
 336      12320264 
 336      6A640AE7 
 337 008b CD2142D6 		.ascii	"\315!B\326\253=\204,a?\3475\347#\257\331\350\360v\350"
 337      AB3D842C 
 337      613FE735 
 337      E723AFD9 
 337      E8F076E8 
 338 009f 20F20808 		.ascii	" \362\010\010\203B\032\246e;8x\026Y^v\302\270R\325\332"
 338      83421AA6 
 338      653B3878 
 338      16595E76 
 338      C2B852D5 
ARM GAS  /tmp/ccuN5Dk8.s 			page 26


 339 00b4 CB355FDE 		.ascii	"\3135_\336\275\355\227\307\324z\275\216\350!YM#\024"
 339      BDED97C7 
 339      D47ABD8E 
 339      E821594D 
 339      2314
 340 00c6 11CE10C0 		.ascii	"\021\316\020\300\016=\010c\263w\315\275\345O-\336\334"
 340      0E3D0863 
 340      B377CDBD 
 340      E54F2DDE 
 340      DC
 341 00d7 A96AAAAA 		.ascii	"\251j\252\252~\023\325C)`\367\006\323i0q+\323\257\372"
 341      7E13D543 
 341      2960F706 
 341      D3693071 
 341      2BD3AFFA 
 342 00eb 4F1747DB 		.ascii	"O\027G\333\324\330p\310$\315\366\3554\237\010\277V\257"
 342      D4D870C8 
 342      24CDF6ED 
 342      349F08BF 
 342      56AF
 343 00fd 8FCE9657 		.ascii	"\217\316\226W\367\356B\360\320\220\334\031\330\207`"
 343      F7EE42F0 
 343      D090DC19 
 343      D88760
 344 010c 51477A1E 		.ascii	"QGz\036\2321(\340\004vB\234\200\325B\323\"AOv\222\236"
 344      9A3128E0 
 344      0476429C 
 344      80D542D3 
 344      22414F76 
 345 0122 642A584B 		.ascii	"d*XK\323\014d\010\214\023\310\022pr\334\221\204\011"
 345      D30C6408 
 345      8C13C812 
 345      7072DC91 
 345      8409
 346 0134 658AA4A3 		.ascii	"e\212\244\243QV\300\007\324\003\273\242v\232zN\262\007"
 346      5156C007 
 346      D403BBA2 
 346      769A7A4E 
 346      B207
 347 0146 058FF235 		.ascii	"\005\217\3625\224\277/\314,\312\002>B\023\\4\330r\254"
 347      94BF2FCC 
 347      2CCA023E 
 347      42135C34 
 347      D872AC
 348 0159 D96F0F4A 		.ascii	"\331o\017J\250\344\3452\224k_'Ra\235s\003\326TE\245"
 348      A8E4E532 
 348      946B5F27 
 348      52619D73 
 348      03D65445 
 349 016e 3D8C17B1 		.ascii	"=\214\027\261\221\215\213\226\207-\000K0\374\243t),"
 349      918D8B96 
 349      872D004B 
 349      30FCA374 
 349      292C
 350 0180 8CB96C49 		.ascii	"\214\271lI\313\314\217$\242Y\226\221\233e\014\370yB"
 350      CBCC8F24 
 350      A2599691 
ARM GAS  /tmp/ccuN5Dk8.s 			page 27


 350      9B650CF8 
 350      7942
 351 0192 12F9F3B3 		.ascii	"\022\371\363\263\265w\",\214w\301\001\212\340>\334\033"
 351      B577222C 
 351      8C77C101 
 351      8AE03EDC 
 351      1B
 352 01a3 524A9DF3 		.ascii	"RJ\235\3630A2LNj\326\371\350X\264\352$\206<*#+\3130"
 352      3041324C 
 352      4E6AD6F9 
 352      E858B4EA 
 352      24863C2A 
 353 01bb E2B78553 		.ascii	"\342\267\205S\251\310rk\021E`9\356b\222\252y\211\332"
 353      A9C8726B 
 353      11456039 
 353      EE6292AA 
 353      7989DA
 354 01ce 0C6D9C6A 		.ascii	"\014m\234j\004\326`Q\240\351\300\375\207\215\220R\377"
 354      04D66051 
 354      A0E9C0FD 
 354      878D9052 
 354      FF
 355 01df 706FC2E3 		.ascii	"po\302\343\375R\233X\215L\244\335 \217S\341L&<\015\336"
 355      FD529B58 
 355      8D4CA4DD 
 355      208F53E1 
 355      4C263C0D 
 356 01f4 72E85853 		.ascii	"r\350XSa\246y3\013\026Zu\024w~\371\321nY\035E\206\242"
 356      61A67933 
 356      0B165A75 
 356      14777EF9 
 356      D16E591D 
 357 020b C0AD3160 		.ascii	"\300\2551`\024C\251Rz\030qrD\343\262\014B\263\221.\230"
 357      1443A952 
 357      7A187172 
 357      44E3B20C 
 357      42B3912E 
 358 0220 E4D73DBC 		.ascii	"\344\327=\274\315v\304\017^\376\313\377o\210\015+&\337"
 358      CD76C40F 
 358      5EFECBFF 
 358      6F880D2B 
 358      26DF
 359 0232 10272C92 		.ascii	"\020',\222Q\326\331b\220\224\276\036\271\220\341\350"
 359      51D6D962 
 359      9094BE1E 
 359      B990E1E8 
 360 0242 DBB7042F 		.ascii	"\333\267\004/\276\005G\335\010\346(L\251\012\177H\324"
 360      BE0547DD 
 360      08E6284C 
 360      A90A7F48 
 360      D4
 361 0253 DED3BF08 		.ascii	"\336\323\277\010\3234\370\004H\027I\256\317^dy\003\301"
 361      D334F804 
 361      481749AE 
 361      CF5E6479 
 361      03C1
 362 0265 9C9BDF41 		.ascii	"\234\233\337A:6j\014`M\237\014V\214\351\343|\317\221"
ARM GAS  /tmp/ccuN5Dk8.s 			page 28


 362      3A366A0C 
 362      604D9F0C 
 362      568CE9E3 
 362      7CCF91
 363 0278 15F89893 		.ascii	"\025\370\230\223\027\012\003\205\313W]\267\267\277\273"
 363      170A0385 
 363      CB575DB7 
 363      B7BFBB
 364 0287 08B1EBFD 		.ascii	"\010\261\353\375\336\300@\357\225\356#\262\277\367\232"
 364      DEC040EF 
 364      95EE23B2 
 364      BFF79A
 365 0296 1DA03F03 		.ascii	"\035\240?\003n\376\200"
 365      6EFE80
 366              		.text
 367              		.section	.gnu.lto_.symbol_nodes.b3051b2299b6d9b5,"",%progbits
 368 0000 789C4DD0 		.ascii	"x\234M\320;N\303@\024\005\3207wl\003\261\363q\034\012"
 368      3B4EC340 
 368      1405D037 
 368      776C03B1 
 368      F3711C0A 
 369 0014 A4942C21 		.ascii	"\244\224,!=ka%7\304\020\233O |Z(\234\015\320PPPEJ\032"
 369      3D6B6125 
 369      37C4109B 
 369      4F207C5A 
 369      289C0DD0 
 370 002e 444B8B22 		.ascii	"DK\213\"AvA\030\307\0263\323\\\235\2537\363\244\201"
 370      41764118 
 370      C71633D3 
 370      5C9DAB37 
 370      F3A481
 371 0041 40D64AAA 		.ascii	"@\326J\252\203\215\242\310\364C\204\234\344\307\270"
 371      838DA2C8 
 371      F443849C 
 371      E4C7B8
 372 0050 0755CDC7 		.ascii	"\007U\315\307\\\371C\210G\215\007\020\266\305\011\250"
 372      5CF94388 
 372      478D0710 
 372      B6C509A8 
 373 0060 6B3E198E 		.ascii	"k>\031\216@\317a\012\372\016O\301\300\341\030\334q\230"
 373      40CF610A 
 373      FA0E4FC1 
 373      C0E118DC 
 373      7198
 374 0072 81BB0E73 		.ascii	"\201\273\016sp\317\3419\330px\006\206\226\352\032\214"
 374      70CFE139 
 374      D8707806 
 374      8696EA1A 
 374      8C
 375 0083 2A0E874A 		.ascii	"*\016\207JM\300\246\325\025\330\262\272\005\333V\227"
 375      4DC0A6D5 
 375      15D8B2BA 
 375      05DB5697 
 376 0093 60C7EA02 		.ascii	"`\307\352\002\214\255n\300\256\325\035\230XM\301\336"
 376      8CAD6EC0 
 376      AED51D98 
 376      584DC1DE 
ARM GAS  /tmp/ccuN5Dk8.s 			page 29


 377 00a3 BFB4B425 		.ascii	"\277\264\264%\375\3725\331\222\3316\2332/\323\374lQ"
 377      FDFA35D9 
 377      92D9369B 
 377      322FD3FC 
 377      6C51
 378 00b5 A6EE54BD 		.ascii	"\246\356T\275\327\225\331\333\217\311X\322\305\272\257"
 378      D795D9DB 
 378      8FC958D2 
 378      C5BAAF
 379 00c4 3D915176 		.ascii	"=\221QvX\306j\271\354k\277\036\367\343\352zP;PR\274"
 379      58C66AB9 
 379      EC6BBF1E 
 379      F7E3EA7A 
 379      503B5052 
 380 00d9 0E7490C8 		.ascii	"\016t\220\310l\374}\260\255\263\215\322\215\372\325"
 380      6CFC7DB0 
 380      ADB38DD2 
 380      8DFAD5
 381 00e8 30A9C6C3 		.ascii	"0\251\306\303\236\314_\006:4\365\342\023:\012\245x>"
 381      9ECC5F06 
 381      3A34F5E2 
 381      133A0AA5 
 381      783E
 382 00fa D2D1BE69 		.ascii	"\322\321\276i\315\316H\313*{W\362\007K\263\220\324"
 382      CDCE48CB 
 382      2A7B57F2 
 382      074BB390 
 382      D4
 383              		.text
 384              		.section	.gnu.lto_.refs.b3051b2299b6d9b5,"",%progbits
 385 0000 789C6362 		.ascii	"x\234cb`b\020g\200\000FF\006&f\026F&\240\020\023#+\003"
 385      60621067 
 385      80004646 
 385      06266616 
 385      4626A010 
 386 0018 13131B88 		.ascii	"\023\023\033\210\305\000\000\005:\000B"
 386      C5000005 
 386      3A0042
 387              		.text
 388              		.section	.gnu.lto_.decls.b3051b2299b6d9b5,"",%progbits
 389 0000 789CBD7D 		.ascii	"x\234\275}\011x\024U\332nU\365\032\022V\235\031d\030"
 389      09781455 
 389      DA6E55F5 
 389      1A12569D 
 389      196418
 390 0013 69E7EA7D 		.ascii	"i\347\352}\274\376J\000\035\227\371\347w\204$,#\220"
 390      BCFE4A00 
 390      1D97F9E7 
 390      7784242C 
 390      2390
 391 0025 DC248EE3 		.ascii	"\334$\216\343\363\334\373\264M\322\201\376\315fw\263"
 391      F3DCFBB4 
 391      4DD281FE 
 391      CD6677B3 
 392 0035 DD7BFF3B 		.ascii	"\335{\377;\305b\020Qd\221a_\005e\023Y\205\240`\203H"
 392      C5621051 
 392      6491615F 
ARM GAS  /tmp/ccuN5Dk8.s 			page 30


 392      05651359 
 392      85A06083 
 393 004a 104656D9 		.ascii	"\020FV\331\002B\330\004\004\006\004%\354\271\337\371"
 393      0242D804 
 393      04060425 
 393      ECB9DFF9 
 394 005a 4E55F7A9 		.ascii	"NU\367\251\352\252\352S\355\374\267\237\247N\237>\251"
 394      EAAAEA53 
 394      EDFCB79F 
 394      A74E9F3E 
 394      A9
 395 006b F39E6F3B 		.ascii	"\363\236o;\337\371\316R\025I\220\204\037]\202\320\004"
 395      DFF9CE52 
 395      15499084 
 395      1F5D82D0 
 395      04
 396 007c 9FDCD982 		.ascii	"\237\334\331\202P\337J\020\232\013\202\360<\\\220\025"
 396      50DF4A10 
 396      9A0B82F0 
 396      3C5C9015 
 397 008c 9C70CD85 		.ascii	"\234p\315\205k\036\\\013\341Z\004\327\022\270\226\302"
 397      6B1E5C0B 
 397      E15A04D7 
 397      12B896C2 
 398 009c B50CAE15 		.ascii	"\265\014\256\025p\235\202\353\034\\\347\341\272\000"
 398      709D82EB 
 398      1C5CE7E1 
 398      BA00
 399 00aa D72E0970 		.ascii	"\327.\011p\340\222D\001?\277\200\253\001~\267r\010B"
 399      E0924401 
 399      3FBF80AB 
 399      017EB772 
 399      0842
 400 00bc 3BB80AE0 		.ascii	";\270\012\340\372\011\256\333py\241\201\026p=\010\327"
 400      FA09AEDB 
 400      7079A181 
 400      16703D08 
 400      D7
 401 00cd C3703D06 		.ascii	"\303p=\006WG\270\376\000\327\277\301\365\"\\\275\341"
 401      5747B8FE 
 401      00D7BFC1 
 401      F5225CBD 
 401      E1
 402 00de FA0FB846 		.ascii	"\372\017\270F\3005\012\256w\340\232\000\027\201\237"
 402      C0350AAE 
 402      77E09A00 
 402      17819F
 403 00ed E914341F 		.ascii	"\351\0244\037\322N&|w#\270\360\235\245\3600\033\222"
 403      D24E267C 
 403      7723B8F0 
 403      9DA5F030 
 403      1B92
 404 00ff F7E19A03 		.ascii	"\367\341\232\003\327|\270\236\207k\001\\\037(\365\235"
 404      D77CB89E 
 404      876B015C 
 404      1F28F59D 
 405 010f 4ADD1795 		.ascii	"J\335\027\225vI\373\360S\310\004\032\233;\264m\020>"
ARM GAS  /tmp/ccuN5Dk8.s 			page 31


 405      7649FBF0 
 405      53C8041A 
 405      9B3BB46D 
 405      103E
 406 0121 0836E151 		.ascii	"\0106\341Qm\3431\007\345\3737\360\335\027\352\376\031"
 406      6DE33107 
 406      E5FB37F0 
 406      DD17EAFE 
 406      19
 407 0132 BEDBC0B5 		.ascii	"\276\333\300\265\020\362\213\234\011\031\236\220(\206"
 407      10F28B9C 
 407      09199E90 
 407      2886
 408 0140 A4E09036 		.ascii	"\244\340\2206\215\370 r\"z 2T\333X\"\3226\311\255\244"
 408      8DF82072 
 408      227A2032 
 408      54DB5822 
 408      D236C9AD 
 409 0155 8DC79436 		.ascii	"\215\307\2246\036t\320v\027CY\037E.\377\315A\333 8\275"
 409      1E74D076 
 409      1743591F 
 409      452EFFCD 
 409      41DB2038 
 410 016a 95B23E3A 		.ascii	"\225\262>:>\210\036\332\011\224V\265\015\202K0W(2Q\365"
 410      3E881EDA 
 410      099456B5 
 410      0D824B30 
 410      57283251 
 411 017f 49F8206D 		.ascii	"I\370 m\357\206k\011\344G\302\265\324Im\340\377\302"
 411      EF866B09 
 411      E447C2B5 
 411      D4496DE0 
 411      FFC2
 412 0191 F74724AF 		.ascii	"\367G$\257\360\252\332\307\011\305\006T\273!x\007\240"
 412      F0AADAC7 
 412      09C50654 
 412      BB217807 
 412      A0
 413 01a2 EC105C87 		.ascii	"\354\020\\\207\341:\252\360B\350\030\241\350\230\310"
 413      E13AAAF0 
 413      42E818A1 
 413      E898C8
 414 01b1 03CC51B8 		.ascii	"\003\314Q\270\014eW\340\372\007\\W\035\311\362!\366"
 414      0C6557E0 
 414      FA075C57 
 414      1DC9F221 
 414      F6
 415 01c2 D35A47BB 		.ascii	"\323ZG\273*k\265=\322>\241Q\265Q\225VB\023\341\203\360"
 415      2A6BB53D 
 415      D23EA151 
 415      B5519556 
 415      4213E183 
 416 01d7 457825B2 		.ascii	"Ex%\262!\2648\024\\B\303\177(\372\277i\320\366m\013"
 416      21B43814 
 416      5C42C37F 
 416      28FABF69 
 416      D0F66D0B 
ARM GAS  /tmp/ccuN5Dk8.s 			page 32


 417 01eb B9116CA7 		.ascii	"\271\021l\247`\254wUOj\333\313\341\357\255\035\212\036"
 417      60AC7755 
 417      4F6ADBCB 
 417      E1EFAD1D 
 417      8A1E
 418 01fd 15DDAE50 		.ascii	"\025\335\256Pd\372\2463\321\247\210<\376\344\2404\022"
 418      64FAA633 
 418      D1A7883C 
 418      FEE4A034 
 418      12
 419 020e BDF684EB 		.ascii	"\275\366\204\353\021\007m\347\266#\321\267H\337 \367"
 419      11076DE7 
 419      B623D1B7 
 419      48DF20F7 
 420 021e BA08ED70 		.ascii	"\272\010\355p9\340r:\223\351\367*\366pU\261EQ)\323\177"
 420      39E0723A 
 420      93E9F72A 
 420      F67055B1 
 420      455129D3 
 421 0233 5A28F7B5 		.ascii	"Z(\367\265q$\356#e\344\347\257\341\373Wp=\240\253\367"
 421      7124EE23 
 421      65E4E7AF 
 421      E1FB5770 
 421      3DA0ABF7 
 422 0247 A0F277C2 		.ascii	"\240\362w\302\217\312/\251\327S\371~P\301\374\255\256"
 422      8FCA2FA9 
 422      D753F97E 
 422      50C1FCAD 
 422      AE
 423 0258 1EE9FBCD 		.ascii	"\036\351\373\315\224\266\210<\376\2733\331\256Q\306"
 423      94B6883C 
 423      FEBB33D9 
 423      AE51C6
 424 0267 22953169 		.ascii	"\"\2251iC\225\305\237\024[\177\330\231\260\365Gu\370"
 424      4395C59F 
 424      145B7FD8 
 424      99B0F547 
 424      75F8
 425 0279 C4AFB451 		.ascii	"\304\257\264Q\364\304\366Y\"s\217\240\355G\254\016v"
 425      F4C4F659 
 425      22738FA0 
 425      ED47AC0E 
 425      76
 426 028a C0F7BF40 		.ascii	"\300\367\277@\331J\310\217u&hQ\333'zxN\321\305c\214"
 426      D94AC88F 
 426      75266851 
 426      DB277A78 
 426      4ED1C563 
 427 029f 7F52E978 		.ascii	"\177R\351x\\G\007\361m\367\013\364~\275\355\010\012"
 427      5C4707F1 
 427      6DF70BF4 
 427      7EBDED08 
 427      0A
 428 02b0 4D448784 		.ascii	"MD\207\204&\302\347*\370\333#\214,V\023\337\004\177"
 428      26C2E72A 
 428      F8DB238C 
 428      2C5613DF 
ARM GAS  /tmp/ccuN5Dk8.s 			page 33


 428      047F
 429 02c2 9BA8C862 		.ascii	"\233\250\310b\015|\377Z\341_\225\207Si\3471\305O\266"
 429      0D7CFF5A 
 429      E15F9587 
 429      5369E731 
 429      C54FB6
 430 02d5 53CA9E83 		.ascii	"S\312\236\203\344wp=\003\327\323:\2722\205\267dy\270"
 430      E477703D 
 430      03D7D33A 
 430      BA3285B7 
 430      6479B8
 431 02e8 3CA746EE 		.ascii	"<\247F\356\271\255Eka\234\014\037\337\224\026\031\302"
 431      B9AD456B 
 431      619C0C1F 
 431      DF941619 
 431      C2
 432 02f9 9BA4B861 		.ascii	"\233\244\270a\201\334\266\255 \374E\014\210P\344\305"
 432      81DCB6AD 
 432      20FC450C 
 432      8850E4C5 
 433 0309 4C560632 		.ascii	"LV\0062\370\2100\037n\205\373\245\200\370\276\230\001"
 433      F888301F 
 433      6E85FBA5 
 433      80F8BE98 
 433      01
 434 031a 84A86E5F 		.ascii	"\204\250n_\377\241\177\177LXD\357?\251\277\215\200\222"
 434      FFA17F7F 
 434      4C5844EF 
 434      3FA9BF8D 
 434      8092
 435 032c 3B12B926 		.ascii	";\022\271&1\336\346BIm\364\021\005l\236\330\032sH\242"
 435      31DEE642 
 435      496DF411 
 435      056C9ED8 
 435      1A7348A2 
 436 0340 AC508E77 		.ascii	"\254P\216w(U|j\015\247R\343C\004\027\324\342x\346a\206"
 436      28557C6A 
 436      0DA752E3 
 436      430417D4 
 436      E278E661 
 437 0355 00A37A73 		.ascii	"\000\243zs\305\314\024b\242\344*\365\3458\251>\005`"
 437      C5CC1462 
 437      A2E42AF5 
 437      E538A93E 
 437      0560
 438 0367 916D5217 		.ascii	"\221mR\027\233\220\332!\005\251\013\355\221z#Nj\266"
 438      9B90DA21 
 438      05A90BED 
 438      917A234E 
 438      6AB6
 439 0379 02B0D436 		.ascii	"\002\260\3246\251\037\231\220\3321\005\251K\022\244"
 439      A91F9990 
 439      DA3105A9 
 439      4B12A4
 440 0388 325636A5 		.ascii	"2V6\245\205\205\231\215k\3300\347\246$\313\336\200\270"
 440      8585998D 
 440      6BD830E7 
ARM GAS  /tmp/ccuN5Dk8.s 			page 34


 440      A624CBDE 
 440      80B8
 441 039a 0C4DAD87 		.ascii	"\014M\255\207\010@\037\210\217\305-L\241\205\375\255"
 441      08401F88 
 441      8FC52D4C 
 441      A185FDAD 
 442 03aa DE40C0E2 		.ascii	"\336@\300\342\326\245\030\227FFm\204\361(\243m\011\022"
 442      D6A51897 
 442      46466D84 
 442      F128A36D 
 442      0912
 443 03bc E4FFA2D2 		.ascii	"\344\377\242\322@|\265JD\355\326K\235\221\210\225b\033"
 443      407CB54A 
 443      44EDD64B 
 443      9D918895 
 443      621B
 444 03ce 204216B5 		.ascii	" B\026\265T\244\306!\224\255\201\272\264\026\355A\261"
 444      54A4C621 
 444      94AD81BA 
 444      B416ED41 
 444      B1
 445 03df 4FB766C9 		.ascii	"O\267f\311NZ.h\3604\237\207\2049@ql\303\326OE\271&K"
 445      4E5A2E68 
 445      F0349F87 
 445      84394071 
 445      6CC3D64F 
 446 03f7 95430D92 		.ascii	"\225C\015\222@\252\032\311.\256\031F\035Z\270\215[3"
 446      40AA1AC9 
 446      2EAE1946 
 446      1D5AB88D 
 446      5B33
 447 0409 97BFAA82 		.ascii	"\227\277\252\202\215\265\015\346\325\200\355f\301&\330"
 447      8DB50DE6 
 447      D580ED66 
 447      C126D8
 448 0418 066BA501 		.ascii	"\006k\245\001\333\313\202M\261\015\326V\003\366\015"
 448      DBCB824D 
 448      B10DD656 
 448      03F60D
 449 0427 0B36DB36 		.ascii	"\0136\3336\230O\003v\200\005[`\033\354Q\015\330\241"
 449      984F0376 
 449      80055B60 
 449      1BEC510D 
 449      D8A1
 450 0439 9AACDDAF 		.ascii	"\232\254\335\257*\335@\256\221\037]\330\202\221\207"
 450      2ADD40AE 
 450      911F5DD8 
 450      829187
 451 0448 525D62BA 		.ascii	"R]b\272\301\362M\016\264\300-\330\3722Q\337\017\034"
 451      C1F24D0E 
 451      B4C02DD8 
 451      FA3251DF 
 451      0F1C
 452 045a BA7EE0D0 		.ascii	"\272~\340\320\366\003GF\"\323\324\204\303\307*=\007"
 452      F6034746 
 452      22D3D484 
 452      C3C72A3D 
ARM GAS  /tmp/ccuN5Dk8.s 			page 35


 452      07
 453 046b 9A768D38 		.ascii	"\232v\2158\350\304r\000\235\342\300\353S\344\330p\207"
 453      E8C47200 
 453      9DE2C0EB 
 453      53E4D870 
 453      87
 454 047c 4AD4273C 		.ascii	"J\324'<\200^s\233\274]\363\366\003\362\234\315\242\""
 454      805E739B 
 454      BC5DF3F6 
 454      03F29CCD 
 454      A222
 455 048e 15DA478D 		.ascii	"\025\332G\215\335\211*\225\037\025\347\260\003\011\210"
 455      DD892A95 
 455      1F15E7B0 
 455      030988
 456 049d 2549C5A3 		.ascii	"%I\305\243\223\212G+\025OF\"C\346C-\211\\\266\352\331"
 456      938A472B 
 456      154F4622 
 456      43E6432D 
 456      895CB6EA 
 457 04b2 D0B46CC4 		.ascii	"\320\264l\304\206\306L\032jk\216\017\023\307\217\220"
 457      86C64C1A 
 457      6A6B8E0F 
 457      13C78F90 
 458 04c2 B77552E9 		.ascii	"\267uR\351\332\303\203\330\312\\0\177\253\313\032\027"
 458      DAC383D8 
 458      CA5C307F 
 458      ABCB1A17 
 459 04d2 50C18EDA 		.ascii	"P\301\216\332\006\323Z\361\024\026\354\014\017X[s\312"
 459      06D35AF1 
 459      1416EC0C 
 459      0F585B73 
 459      CA
 460 04e3 A6B16017 		.ascii	"\246\261`\027l\203i)\233\301\202]\343\001\363\231S6"
 460      6C836929 
 460      9BC1825D 
 460      E301F399 
 460      5336
 461 04f5 8B05BB6D 		.ascii	"\213\005\273m\033LK\331r\026l\204\304\001\366\2509e"
 461      1B4C4BD9 
 461      72166C84 
 461      C401F6A8 
 461      3965
 462 0507 2B59B0B7 		.ascii	"+Y\260\267m\203\261\224\311\2615u\2310*\260\203\375"
 462      6D83B194 
 462      C9B13575 
 462      99302AB0 
 462      83FD
 463 0519 32262E89 		.ascii	"2&.\211\203\311\352 \324`{\264?a2\3327\251sKIxO\317"
 463      83C9EA20 
 463      D4607BB4 
 463      3F6132DA 
 463      37A9734B 
 464 0531 84AE6125 		.ascii	"\204\256a%\337\311@&F\037v\250\014\210\237\210\217@"
 464      DFC94026 
 464      461F76A8 
 464      0C889F88 
ARM GAS  /tmp/ccuN5Dk8.s 			page 36


 464      8F40
 465 0543 BA567C08 		.ascii	"\272V|\010\322ZL?\305t\003\246\237c\272\011\323/0\335"
 465      D25A4C3F 
 465      C57403A6 
 465      9F63BA09 
 465      D32F30DD 
 466 0557 86E9764C 		.ascii	"\206\351vLwa\272\007\323}\230\356\307\364 \246\2071"
 466      7761BA07 
 466      D37D98EE 
 466      C7F420A6 
 466      8731
 467 0569 3D82E9B7 		.ascii	"=\202\351\267\230\036\2074\3761\023\310\012\223\210"
 467      981E8734 
 467      FE3113C8 
 467      0A9388
 468 0578 2B1ED3C4 		.ascii	"+\036\323\304R\3044\261I5-e'G\010\024\020\317 \363\357"
 468      52C434B1 
 468      49352D65 
 468      27470814 
 468      10CF20F3 
 469 058d EB829AE4 		.ascii	"\353\202\232\344\230\031FJI\357\373\336\327\207F\251"
 469      9819464A 
 469      49EFFBDE 
 469      D78746A9 
 470 059d 61CC583E 		.ascii	"a\314X>e/\310<\027\0172\237P\000\316\3336\273\357M\314"
 470      652FC83C 
 470      170F329F 
 470      5000CEDB 
 470      36BBEF4D 
 471 05b2 EEF114DA 		.ascii	"\356\361\024\3329gB\252Q\214&\262\356R\031R\356\356"
 471      396742AA 
 471      518C26B2 
 471      EE521952 
 471      EEEE
 472 05c4 9DD91187 		.ascii	"\235\331\021\207\224\213\030\352}\244\023kJ\030IX\203"
 472      948B18EA 
 472      7DA4136B 
 472      4A184958 
 472      83
 473 05d5 552EEBA3 		.ascii	"U.\353\243\275\375\257\372hi\352X\357\360\234\257Dy"
 473      BDFDAFFA 
 473      6869EA58 
 473      EFF09CAF 
 473      4479
 474 05e7 42562AFA 		.ascii	"BV*\372\3478\324\206\237J\320\3378qK\027\244\377G\244"
 474      E738D486 
 474      9F4AD0DF 
 474      38714B17 
 474      A4FF47A4 
 475 05fb FF6A6AFA 		.ascii	"\377jj\372\2650\204\272\306$\332\3530Rm\344\242\376"
 475      B53084BA 
 475      C624DAEB 
 475      30526DE4 
 475      A2FE
 476 060d DB51B371 		.ascii	"\333Q\263q\0307\"\037n\020Y\321i&N\222p\007\2505\222"
 476      1837221F 
 476      6E1059D1 
ARM GAS  /tmp/ccuN5Dk8.s 			page 37


 476      69264E92 
 476      7007A835 
 477 0622 B0E6B680 		.ascii	"\260\346\266\200xG\224 \275\253\247r\325(\244\362.\027"
 477      78479420 
 477      BDABA772 
 477      D528A4F2 
 477      2E17
 478 0634 956BEA92 		.ascii	"\225k\352\222e\374Ka\222b\235\262\030\365\012\243\260"
 478      65FC4B61 
 478      92629DB2 
 478      18F50AA3 
 478      B0
 479 0645 7FBE210F 		.ascii	"\177\276!\017\023_O=\023\036.y\201\201\321\016\323\251"
 479      135F4F3D 
 479      131E2E79 
 479      8181D10E 
 479      D3A9
 480 0657 30B94135 		.ascii	"0\271A5\\\232Ws\026\035o\230\364K\31490\204\202\202"
 480      5C9A5773 
 480      161D6F98 
 480      F44BCC39 
 480      30848282 
 481 066b 3F6642F2 		.ascii	"?fB\362RbY\317\254\242,\305\273\201$\274\353\020\025"
 481      526259CF 
 481      ACA22CC5 
 481      BB8124BC 
 481      EB1015
 482 067e 79590C32 		.ascii	"yY\0142\032<\215\254\344\225\262\234\341\246\230\222"
 482      1A3C8DAC 
 482      E495B29C 
 482      E1A69892 
 483 068e 30DD3698 		.ascii	"0\3356\230\317\034l!\017\230y\310\250\005[n\033\314"
 483      CF1C6C21 
 483      0F9879C8 
 483      A8055B6E 
 483      1BCC
 484 06a0 80327383 		.ascii	"\2002s\203\240\3122\023\370\273\006\232R\362\374\361"
 484      A0CA3213 
 484      F8BB069A 
 484      52F2FCF1 
 485 06b0 6CE3F42F 		.ascii	"l\343\364/7\2110\037\200?L\220Hx\320\340\320v_~\250"
 485      3789301F 
 485      803F4C90 
 485      4878D0E0 
 485      D0765F7E 
 486 06c5 55B33F7B 		.ascii	"U\263?{\016\375\300$\004\232\345\374\371\241\261\375"
 486      0EFDC024 
 486      049AE5FC 
 486      F9A1B1FD 
 487 06d5 DB150118 		.ascii	"\333\025\001\030\017\223)\247\376\215\323?\372\027d"
 487      0F9329A7 
 487      FE8DD33F 
 487      FA1764
 488 06e4 611AB2B0 		.ascii	"a\032\262\260\310i(\013\016\240U\263g=\213@3\021hE\222"
 488      C869280B 
 488      0EA055B3 
 488      673D8B40 
ARM GAS  /tmp/ccuN5Dk8.s 			page 38


 488      33116845 
 489 06f9 2C6C2E22 		.ascii	",l.\"\330\271\327\314^\246&:(k5D\355\230\341\350\343"
 489      D8B9D7CC 
 489      5EA6263A 
 489      286B3544 
 489      ED98E1E8 
 490 070e 63D93EFE 		.ascii	"c\331>\376\251\223\303\370\315\347\0300n\\\352<U\216"
 490      A993C3F8 
 490      CDE71830 
 490      6E5CEA3C 
 490      558E
 491 0720 8D74A4DB 		.ascii	"\215t\244\333\001\346\233w\2008[\226\366`\0366\005\304"
 491      01E69B77 
 491      80385B96 
 491      F6601E36 
 491      05C4
 492 0732 E9D223E9 		.ascii	"\351\322#\351\213z\341\317\027\365\373\254\250c\266"
 492      8B7AE1CF 
 492      17F5FBAC 
 492      A863B6
 493 0741 45ED6345 		.ascii	"E\355cE\255uZ[y\300\314g`?\317i-7\327\231\341\350\375"
 493      AD755A5B 
 493      79C0CC67 
 493      603FCF69 
 493      2D37D799 
 494 0758 02E3745E 		.ascii	"\002\343t^`=\252\322\321>\371\356\212\007;\332j\211"
 494      603DAAD2 
 494      D13EF9EE 
 494      8A073BDA 
 494      6A89
 495 076a 041F352E 		.ascii	"\004\0375.\303\340\303\034\206\220\260V\322\015\353"
 495      C3E0C31C 
 495      8690B056 
 495      D20DEB
 496 0779 8D411F2D 		.ascii	"\215A\037-M=\250\337\\\200\203\272\352=\377\206\355"
 496      4D3DA8DF 
 496      5C8083BA 
 496      EA3DFF86 
 496      ED
 497 078a 93AA698D 		.ascii	"\223\252i\215{\261[A2\207\247X\263mc\371\214\010\025"
 497      7BB15B41 
 497      3287A758 
 497      B36D63F9 
 497      8C0815
 498 079d 92B80C88 		.ascii	"\222\270\014\210\353\320\270k%\234\333H\0343\220U\032"
 498      EBD0B86B 
 498      259CDB48 
 498      1C339055 
 498      1A
 499 07ae 83E632E0 		.ascii	"\203\3462\340\217Y\003\376\320e\327\346\364\274\250"
 499      8F5903FE 
 499      D065D7E6 
 499      F4BCA8
 500 07bd 8A08884D 		.ascii	"\212\010\210M8q\032\205\304\217\306t\014\246\357`:\017"
 500      38711A85 
 500      C48FC674 
 500      0CA6EF60 
ARM GAS  /tmp/ccuN5Dk8.s 			page 39


 500      3A0F
 501 07cf D3       		.ascii	"\323"
 502 07d0 A5982EE3 		.ascii	"\245\230.\343a\355\226\310\320\271\034\351lL7nih\334"
 502      61ED96C8 
 502      D0B91CE9 
 502      6C4C376E 
 502      6968DC
 503 07e3 D7D879B2 		.ascii	"\327\330y\262\034\033\346\360\01054\226\033\236j\250"
 503      1C1BE6F0 
 503      08353496 
 503      1B9E6AA8 
 504 07f3 000B76A3 		.ascii	"\000\013v\243\005\307$\017P\260Zg\301\034@\204\213/"
 504      05C7240F 
 504      50B05A67 
 504      C11C4084 
 504      8B2F
 505 0805 A0B2C686 		.ascii	"\240\262\306\206k\207\372h\251\205\015c\307\223\204"
 505      6B87FA68 
 505      A9850D63 
 505      C79384
 506 0814 CF5D743E 		.ascii	"\317]t>\341\314H\224mO\224\211\314\255\373\022\305\022"
 506      E1CC4894 
 506      6D4F9489 
 506      CCADFB12 
 506      C512
 507 0826 537C2C51 		.ascii	"S|,Q\354`\212/%\212\235LqS\242\330\305\024\217v\307"
 507      EC608A2F 
 507      258A9D4C 
 507      7153A2D8 
 507      C5148F76 
 508 083b 8BDD4CF1 		.ascii	"\213\335L\361\244D\261\207)\236\233(\3662\032\261\034"
 508      A444B187 
 508      299E9B28 
 508      F6321AB1 
 508      1C
 509 084c 3813420A 		.ascii	"8\023B\012\210[\260\013|)9\014\253\3014\314\255\263"
 509      885BB00B 
 509      7C29390C 
 509      ABC134CC 
 509      ADB3
 510 085e 045B4BB7 		.ascii	"\004[K\2672Z\30202\272\2513V2\373$\035\333p\016G\250"
 510      325AC230 
 510      32BAA933 
 510      5632FB24 
 510      1DDB700E 
 511 0874 3B2CD99D 		.ascii	";,\331\235\261\326K\3063\326\304:\311*=\027\332fS\205"
 511      B1D64BC6 
 511      33D6C43A 
 511      C92A3D17 
 511      DA665385 
 512 0888 BBB8544C 		.ascii	"\273\270TLF\016B\233$\254\345BK5t\250\376\355S=\232"
 512      460E429B 
 512      24ACE542 
 512      4B3574A8 
 512      FEED533D 
 513 089d CD55ADC6 		.ascii	"\315U\255\306Q3yg}\257\252pY\361~\027\273\271U\364\031"
 513      51337967 
ARM GAS  /tmp/ccuN5Dk8.s 			page 40


 513      7DAFAA70 
 513      59F17E17 
 513      BBB955F4 
 514 08b2 CCFC34B7 		.ascii	"\314\3744\267\006\304S`&\251\356\302e\023\375\030\362"
 514      06C45360 
 514      26A9EEC2 
 514      6513FD18 
 514      F2
 515 08c3 39DD6A39 		.ascii	"9\335j9\3035\212\034\2541gE3-\215O\234;\305\031i\230"
 515      C3358A1C 
 515      AC316745 
 515      332D8D4F 
 515      9C3BC519 
 516 08d9 72FDCABF 		.ascii	"r\375\312\277\243\0039\217C\340hO\352\365\003\015L@"
 516      A303398F 
 516      43E0684F 
 516      EAF5030D 
 516      4C40
 517 08eb BC2091D9 		.ascii	"\274 \221\331\355E=\013?MG\026.r\261p\367\310\254_\311"
 517      ED453D0B 
 517      3F4D4716 
 517      2E72B170 
 517      F7C8AC5F 
 518 0900 0D3191DF 		.ascii	"\0151\221\337\361\035\274\025k7\002g\036\227\321\363"
 518      F11DBC15 
 518      6B370267 
 518      1E97D1F3 
 519 0910 6DF5A4E5 		.ascii	"m\365\244\345\371\256\352=\337\032\262\326E\313S\373"
 519      F9AEEA3D 
 519      DF1AB2D6 
 519      45CB53FB 
 520 0920 BE3D9E64 		.ascii	"\276=\236d\337w\324c\350\373\316x\014}\337e\217\241"
 520      DF77D463 
 520      E8FBCE78 
 520      0C7DDF65 
 520      8FA1
 521 0932 EFBBE5D1 		.ascii	"\357\273\345\321\372>\201\303?]e\374\3235\364O?\232"
 521      FA3E81C3 
 521      3F5D65FC 
 521      D335F44F 
 521      3F9A
 522 0944 F8A78078 		.ascii	"\370\247\200x0\2563^\377\244\321W\303\324\353\273\207"
 522      30AE335E 
 522      FFA4D157 
 522      C3D4EBBB 
 522      87
 523 0955 6C84FE38 		.ascii	"l\204\3768\332\235f\3779r\204\247\377\014s\360\365\237"
 523      DA9D66FF 
 523      397284A7 
 523      FF0C73F0 
 523      F59F
 524 0967 110E9DF1 		.ascii	"\021\016\235\361M>\202\306G\312S\033\337\354#\263\222"
 524      4D3E82C6 
 524      47CA531B 
 524      DFEC23B3 
 524      92
 525 0978 FB8F2E2A 		.ascii	"\373\217.*}\376\027\246~t\224C\027\224\236\2238\026"
ARM GAS  /tmp/ccuN5Dk8.s 			page 41


 525      7DFE17A6 
 525      7E749443 
 525      17949E93 
 525      3816
 526 098a 3D1439DC 		.ascii	"=\0249\334\235v?!\264\306Ab\353Q^\255\015k\010\242\015"
 526      9D763F21 
 526      B4C64162 
 526      EB515EAD 
 526      0D6B08A2 
 527 099f 991131C6 		.ascii	"\231\0211\306\221i\302g\322\337`P\304v\210p\322\213"
 527      9169C267 
 527      D2DF6050 
 527      C4768870 
 527      D28B
 528 09b1 336B8D04 		.ascii	"3k\215\004f\240\247\206\370:\330\343q\216\033n\316;"
 528      66A0A786 
 528      F83AD8E3 
 528      718E1B6E 
 528      CE3B
 529 09c3 914D3BEE 		.ascii	"\221M;\356\273\016\342qNzSz\034-\016\316\205\364\012"
 529      BB0EE271 
 529      4E7A537A 
 529      1C2D0ECE 
 529      85F40A
 530 09d6 5FB50315 		.ascii	"_\265\003\025>!\265\302G\216\210\255\3351#\261q7\302"
 530      3E21B5C2 
 530      478E88AD 
 530      DD3123B1 
 530      7137C2
 531 09e9 72752220 		.ascii	"ru\" N\304\256\304\263\021w\0319\231\220\236X\201\254"
 531      4EC4AEC4 
 531      B3117719 
 531      3999909E 
 531      5881AC
 532 09fc 753B70A3 		.ascii	"u;p\243e\222\203\270\210\237l\203\3714`\353Y\260;<`"
 532      659283B8 
 532      889F6C83 
 532      F93460EB 
 532      59B03B3C 
 533 0a11 66E33880 		.ascii	"f\3438\200}\306\202\215\314\260\013\246\245l#\013\366"
 533      7DC6828D 
 533      CCB00BA6 
 533      A56C230B 
 533      F6
 534 0a22 160F98D9 		.ascii	"\026\017\230\3312\000\200\355f\301\306\332\006c)\033"
 534      320080ED 
 534      66C1C6DA 
 534      0663291B 
 535 0a32 163BBE63 		.ascii	"\026;\276c;\231\216\335'L\220\345a\362\034\267\231Q"
 535      3B998EDD 
 535      274C90E5 
 535      61F21CB7 
 535      9951
 536 0a44 0802DE22 		.ascii	"\010\002\336\"[\336\002\223p\307}Z#\3357\246\0051RR"
 536      5BDE0293 
 536      70C77D5A 
 536      23DD37A6 
ARM GAS  /tmp/ccuN5Dk8.s 			page 42


 536      05315252 
 537 0a58 9EDA2BED 		.ascii	"\236\332+\355W\214T\015x& s\244n:\235V\216}\273#S~+"
 537      578C540D 
 537      78262073 
 537      A46E3A9D 
 537      568E7DBB 
 538 0a70 2B3EA55D 		.ascii	"+>\245]hA\370B}\357:\270C\362\321b\216\315\200\0353"
 538      6841F842 
 538      7DEF3AB8 
 538      43F2D162 
 538      8ECD801D 
 539 0a85 DACA7336 		.ascii	"\332\312s6\211\374g\005\032\247\257}\034C\220%\250\305"
 539      89FC6705 
 539      1AA7AF7D 
 539      1C439025 
 539      A8C5
 540 0a97 F7320CD7 		.ascii	"\3672\014\327\3158\200V\315\376\220\256!.C\240\231:"
 540      CD388056 
 540      CDFE90AE 
 540      212E43A0 
 540      993A
 541 0aa9 20FB870E 		.ascii	" \373\207\016l\335,\011\013\261\301\205\011\373KyBA"
 541      6CDD2C09 
 541      0BB1C185 
 541      09FB4B79 
 541      4241
 542 0abb 23BA861B 		.ascii	"#\272\206\033\363\316wTN(PQ,\265\015\330J\247\024IX"
 542      F3CE7754 
 542      4E285051 
 542      2CB50DD8 
 542      4AA71449 
 543 0ad0 99AEDD30 		.ascii	"\231\256\3350\254\253\223\347\005\01621\376\320\361"
 543      ACAB93E7 
 543      050E3231 
 543      FED0F1
 544 0adf 10DBC06A 		.ascii	"\020\333\300j\236^g\026\326C\027\276\302v\341Z\333`"
 544      9E5E6716 
 544      D64317BE 
 544      C276E15A 
 544      DB60
 545 0af1 3E0DD855 		.ascii	">\015\330U\026l#\017\230\317\234\262\037Y\260/l\203"
 545      166C230F 
 545      98CF9CB2 
 545      1F59B02F 
 545      6C83
 546 0b03 6929BBCE 		.ascii	"i)\273\316\202m\343\0013\232\275\030}\330\341\020\306"
 546      826DE301 
 546      339ABD18 
 546      7DD8E110 
 546      C6
 547 0b14 2B0719AF 		.ascii	"+\007\031\257\336CMM\306t*\246\3231\235\211\351lL\347"
 547      DE434D4D 
 547      C6742AA6 
 547      D3319D89 
 547      E96C4CE7 
 548 0b28 62FA09A6 		.ascii	"b\372\011\246\3530]\217\351g\254~-b\227\306\011\355"
 548      EB305D8F 
ARM GAS  /tmp/ccuN5Dk8.s 			page 43


 548      E967AC7E 
 548      2D6297C6 
 548      09ED
 549 0b3a 893B1B8B 		.ascii	"\211;\033\213\261\313\3373,c\227wMX%\324\307,b\227\230"
 549      B1CBDF33 
 549      2C639777 
 549      4D5825D4 
 549      C72C6297 
 550 0b4f 3E763998 		.ascii	">v9\230a7va\324\200\221k\254r\303rY~\303\255v\262cz"
 550      61377661 
 550      D480916B 
 550      AC72C372 
 550      597EC3AD 
 551 0b67 449BC780 		.ascii	"D\233\307\200\016M\317\332\375\252\012v\3326\230\276"
 551      0E4DCFDA 
 551      FDAA0A76 
 551      DA3698BE 
 552 0b77 C7AA7A1C 		.ascii	"\307\252z\034\211z|\0035\362\016\246\2331\335\242\355"
 552      897A7C03 
 552      35F20EA6 
 552      9B31DDA2 
 552      ED
 553 0b88 7DE7929C 		.ascii	"}\347\222\234\034\015z\031\274Dt,\244F4SR\023\273 w"
 553      1C0D7A19 
 553      BC44742C 
 553      A4463453 
 553      5213BB20 
 554 0b9d 151BBD68 		.ascii	"\025\033\275h\177qQ=\354r\014\372B\312\355b\247\212"
 554      7F71513D 
 554      EC720CFA 
 554      42CAED62 
 554      A78A
 555 0baf 941BB7B9 		.ascii	"\224\033\267\271\206k\037oj\273^\226[\005\304\355\030"
 555      866B1F6F 
 555      6ABB5E96 
 555      5B05C4ED 
 555      18
 556 0bc0 3DAE6C96 		.ascii	"=\256l\226z\277X\203#\011\237b\225\257uc\\\303\364O"
 556      7ABF5883 
 556      23099F62 
 556      95AF7563 
 556      5CC3F44F 
 557 0bd4 4EFC7A0A 		.ascii	"N\374z\012\"\177\3155\316\3356\232uS\262\314d\270Go"
 557      227FCD35 
 557      CEDD369A 
 557      7553B2CC 
 557      64B8476F 
 558 0be8 CCB7E2A4 		.ascii	"\314\267\342\244\244\027\210\337\333\212>e\017\366\300"
 558      A41788DF 
 558      DB8A3E65 
 558      0FF6C0
 559 0bf7 619976C1 		.ascii	"a\231v\301\264J\231X7\303\346q\266\025\353\317?\260"
 559      B44A9958 
 559      37C3E671 
 559      B615EBCF 
 559      3FB0
 560 0c09 01457600 		.ascii	"\001Ev\000\215\177O\246\336\026\225=\213\204-\362\304"
ARM GAS  /tmp/ccuN5Dk8.s 			page 44


 560      8D7F4FA6 
 560      DE16953D 
 560      8B842DF2 
 560      C4
 561 0c1a D1877918 		.ascii	"\321\207y\0301_u\002M\356i_\213\223S5\3321\015\323$"
 561      315F7502 
 561      4DEE695F 
 561      8B935335 
 561      DA310DD3 
 562 0c2f A1011B3B 		.ascii	"\241\001\033;\242\267\206\025\237\357y\202Z\303\021"
 562      A2B78615 
 562      9FEF7982 
 562      5AC311
 563 0c3e 2E6B58BB 		.ascii	".kX\273c2\327\224h\216[m\276\024\233\237\227E\232o\320"
 563      6332D794 
 563      688E5B6D 
 563      BE149B9F 
 563      97459A6F 
 564 0c53 37BFE1D4 		.ascii	"7\277\341\324\371\347i\363\015\\\315\037\337\365\236"
 564      F9E769F3 
 564      0D5CCD1F 
 564      DFF59E
 565 0c62 91319ACC 		.ascii	"\2211\232\314ZU\365}\376\303\243\263\261\221\323h@\027"
 565      5A55F57D 
 565      FEC3A3B3 
 565      B191D368 
 565      4017
 566 0c74 B3F4EAFB 		.ascii	"\263\364\352\373#\273n/(\273\371\214\375\376\024\247"
 566      23BB6E2F 
 566      28BBF98C 
 566      FDFE14A7 
 567 0c84 3E2DFB05 		.ascii	">-\373\00567\375q\021jJ\245\341\246mD\255\021_\335\205"
 567      3637FD71 
 567      116A4AA5 
 567      E1A66D44 
 567      AD115FDD 
 568 0c99 3D8282DD 		.ascii	"=\202\202\335\345\001\263\360\354?\262`\303\232\333"
 568      E501B3F0 
 568      EC3FB260 
 568      C39ADB
 569 0ca8 05D35276 		.ascii	"\005\323Rv\235\005{\203\007\314\342\204\345\015\026"
 569      9D057B83 
 569      07CCE284 
 569      E50D16
 570 0cb7 6CB46D30 		.ascii	"l\264m0-e\267X\260wx\300,NX\336a\301\306\333\006\323"
 570      2D65B758 
 570      B07778C0 
 570      2C4E58DE 
 570      61C1C6DB 
 571 0ccd 52768F05 		.ascii	"Rv\217\005\233\304\003\3463\247l\334^\006l\252m0-e\023"
 571      9BC403E6 
 571      33A76CDC 
 571      5E066CAA 
 571      6D302D65 
 572 0ce2 58B0993C 		.ascii	"X\260\231<`\026k\321\357\261`sm\203i)\373\033\013\266"
 572      60166BD1 
 572      EFB16073 
ARM GAS  /tmp/ccuN5Dk8.s 			page 45


 572      6D836929 
 572      FB1B0BB6 
 573 0cf6 8007CCE8 		.ascii	"\200\007\314\350\234\243z\370\226\005[d\033LK\3314\026"
 573      9CA37AF8 
 573      96055B64 
 573      1B4C4BD9 
 573      3416
 574 0d08 EC231EB0 		.ascii	"\354#\036\260g\315)\233\301\202\255\260\015\246\245"
 574      67CD299B 
 574      C182ADB0 
 574      0DA6A5
 575 0d17 6C390BB6 		.ascii	"l9\013\266\206\007\354\005s\312V\262`\353l\203i)[\315"
 575      8607EC05 
 575      73CA56B2 
 575      60EB6C83 
 575      69295BCD 
 576 0d2b 827DCA03 		.ascii	"\202}\312\003\326\323\234\262OX\260\215\266\301\264"
 576      D6D39CB2 
 576      4F58B08D 
 576      B6C1B4
 577 0d3a 94AD63C1 		.ascii	"\224\255c\3016\361\200\025\230S\266\236\005\333b\033"
 577      36F18015 
 577      9853B69E 
 577      05DB621B 
 578 0d4a 4C4BD967 		.ascii	"LK\331g,X\035\017\330_\314)\333\310\202\355\260\015"
 578      2C581D0F 
 578      D85FCC29 
 578      DBC882ED 
 578      B00D
 579 0d5c A6A56C37 		.ascii	"\246\245l7\013\266\213\007\354U\003\312\342\037\263"
 579      0BB68B07 
 579      EC5503CA 
 579      E21FB3
 580 0d6b 38F3B883 		.ascii	"8\363\270\203\211\325\3676W\003\034\233c\264\220\300"
 580      89D5F736 
 580      57031C9B 
 580      63B490C0 
 581 0d7b 38D0DC6E 		.ascii	"8\320\334nD\246\341\233\304\326\355\327+\343<\015V\217"
 581      44A6E19B 
 581      C4D6EDD7 
 581      2BE33C0D 
 581      568F
 582 0d8d F2205A0C 		.ascii	"\362 Z\014\200\312A~\012v\3326\230\316\224\353\364\323"
 582      80CA417E 
 582      0A76DA36 
 582      98CE94EB 
 582      F4D3
 583 0d9f 11AE433E 		.ascii	"\021\256C>\3639\017;\233\251i\266\223Q\323E\036\036"
 583      F3390F3B 
 583      9BA969B6 
 583      9351D345 
 583      1E1E
 584 0db1 2CC6DDE3 		.ascii	",\306\335\343u3p\007\215\377\224\331\212\365{\224\350"
 584      75337007 
 584      8DFF94D9 
 584      8AF57B94 
 584      E8
ARM GAS  /tmp/ccuN5Dk8.s 			page 46


 585 0dc2 FD7DDC94 		.ascii	"\375}\334\224\272\326\\\037\376M\323G\357)\0164I\302"
 585      BAD65C1F 
 585      FE4DD347 
 585      EF290E34 
 585      49C2
 586 0dd4 1D3D1746 		.ascii	"\035=\027F\373J\346\003>\030\312\341\016\265\313dy\204"
 586      FB4AE603 
 586      3E18CAE1 
 586      0EB5CB64 
 586      7984
 587 0de6 DB0E1F5F 		.ascii	"\333\016\037_)|,D>F\266\370\371|\274\335\302.\037\217"
 587      297C2C44 
 587      3E46B6F8 
 587      F97CBCDD 
 587      C22E1F8F 
 588 0dfa EAF8D8F4 		.ascii	"\352\370\330\364\250}>\016+||\204|\274\367O\340c\206"
 588      A87D3E0E 
 588      2B7C7C84 
 588      7CBCF74F 
 588      E06386
 589 0e0d 6D3ED867 		.ascii	"m>\330g\246p*\325\221N\245\270V\274W:u+\336\207\267"
 589      A6702AD5 
 589      914EA5B8 
 589      56BC573A 
 589      752BDE87 
 590 0e22 8B3E5A9C 		.ascii	"\213>Z\234j\016#\307\032\2673\363O\231o\376\371\203"
 590      6A0E23C7 
 590      1AB733F3 
 590      4F996FFE 
 590      F983
 591 0e34 22B13528 		.ascii	"\"\2615(\261\367u\022\343Gj<\262e\205r\220u\035B-J\033"
 591      B1F77512 
 591      E3476A3C 
 591      B2658572 
 591      90751D42 
 592 0e4b 6AD5F1B5 		.ascii	"j\325\361\265\364\360\346\247\010\264\"I\213n\235\022"
 592      F4F0E6A7 
 592      08B42249 
 592      8B6E9D12 
 593 0e5b DD5A25C2 		.ascii	"\335Z%\302O\322\322\0152\035\026\377\252\224\220\037"
 593      4FD2D20D 
 593      321D16FF 
 593      AA94901F 
 594 0e6b 1EE1FF7B 		.ascii	"\036\341\377{=\0109\220|\242@\233\243G\302\200\036\257"
 594      3D083990 
 594      7CA2409B 
 594      A347C280 
 594      1EAF
 595 0e7d 553C3F55 		.ascii	"U<?U\322\346\237\2058<\266j\314Le_\344\2178$\377L\270"
 595      D2E69F85 
 595      383CB66A 
 595      CC4C655F 
 595      E48F3824 
 596 0e94 3D3BECAF 		.ascii	"=;\354\257zljG\255n\0132\2647I\303i\255z\034K\227\221"
 596      7A6C6A47 
 596      AD6E0B32 
 596      B43749C3 
ARM GAS  /tmp/ccuN5Dk8.s 			page 47


 596      69AD7A1C 
 597 0eab F84712CE 		.ascii	"\370G\022\316\350\273\273\255)\022\321\326\315\216\234"
 597      E8BBBBAD 
 597      2912D1D6 
 597      CD8E9C
 598 0eba 2B27F1F5 		.ascii	"+'\361\365\270\363m\267\321\3658'Y\217;\257\023\006"
 598      B8F36DB7 
 598      D1F53827 
 598      598F3BAF 
 598      1306
 599 0ecc C70ACC0D 		.ascii	"\307\012\314\015J\2643i=n\317\003\312z\234\223k\005"
 599      4AB43369 
 599      3D6ECF03 
 599      CA7A9C93 
 599      6B05
 600 0ede A646B50B 		.ascii	"\246F\265\013\272\314\266\327!)\260\351\312S\243\302"
 600      BACCB6D7 
 600      2129B0E9 
 600      CA53A3C2 
 601 0eee 047D0171 		.ascii	"\004}\001q\227\223\014\374\273\235\232\205\3307[\332"
 601      97930CFC 
 601      BB9D9A85 
 601      D8375BDA 
 602 0efe 95BD8F95 		.ascii	"\225\275\217\225}\354\366\216\031\"\241\337`\321\350"
 602      7DECF68E 
 602      1922A1DF 
 602      60D1E8
 603 0f0d 0536C48A 		.ascii	"\0056\304\212\013\376\304\003_\241x\366\241\340'\264"
 603      0BFEC403 
 603      5FA178F6 
 603      A1E027B4 
 604 0f1d B4797655 		.ascii	"\264yvU\022\346a\225\003\311\202\377\252\035\025\374"
 604      12E66195 
 604      03C982FF 
 604      AA1D15FC 
 605 0f2d 012EC1EF 		.ascii	"\001.\301\3577\024\374\001\373\202\177H}l9\036\332\005"
 605      3714FC01 
 605      FB827F48 
 605      7D6C391E 
 605      DA05
 606 0f3f C46F6C83 		.ascii	"\304ol\203\371\254\264x\200\321\342!\324\342a'Y\002"
 606      F9ACB478 
 606      80D1E221 
 606      D4E26127 
 606      5902
 607 0f51 AFD7EA72 		.ascii	"\257\327\352r\225^\227\032\311)Y\323\011\275\034\233"
 607      955E971A 
 607      C92959D3 
 607      09BD1C9B 
 608 0f61 B853DDBB 		.ascii	"\270S\335\273\245>o#\217mXL\303g\355D\221P\177\263\305"
 608      A53E6F23 
 608      8F6D584C 
 608      C367ED44 
 608      91507FB3 
 609 0f76 36984F03 		.ascii	"6\230O\003\266a,\347q1\335sb\273\260\335\223zs9ro\317"
 609      B6612CE7 
 609      7131DD73 
ARM GAS  /tmp/ccuN5Dk8.s 			page 48


 609      62BBB0DD 
 609      937A7339 
 610 0f8d 2871180E 		.ascii	"(q\030\016\235'9\354\005\306\3713\031x\346\231\332\355"
 610      9D2739EC 
 610      05C6F933 
 610      1978E699 
 610      DAED
 611 0f9f E8       		.ascii	"\350"
 612 0fa0 562AAA85 		.ascii	"V*\252\205\250-\254\345\366y\345\0105\235\012\214\327"
 612      A82DACE5 
 612      F679E508 
 612      359D0A8C 
 612      D7
 613 0fb1 C3A59CA9 		.ascii	"\303\245\234\251h\341\356\005\267uJ\3479\274\330\221"
 613      68E1EE05 
 613      B7754AE7 
 613      39BCD891 
 614 0fc1 5A12E95C 		.ascii	"Z\022\351\\@\236\246\266\322\217\010T2\214!\236d\014"
 614      409EA6B6 
 614      D28F0854 
 614      328C219E 
 614      640C
 615 0fd3 F1341AE2 		.ascii	"\3614\032\342\0314\304\263\230\236g\315\321,\330\372"
 615      1934C4B3 
 615      989E67CD 
 615      D12CD8FA 
 616 0fe3 9E9D3ECC 		.ascii	"\236\235>\314\265\315\267O\247\035\263fN\260\315,l\305"
 616      B5CDB74F 
 616      A71DB366 
 616      4EB0CD2C 
 616      6CC5
 617 0ff5 617BE6AB 		.ascii	"a{\346\2536\304\251\377^\015\007"
 617      36C4A9FF 
 617      5E0D07
 618 1000 E89EC14A 		.ascii	"\350\236\301J\333\210Zk\376a\254&\034\330\300\003\367"
 618      DB885A6B 
 618      FE61AC26 
 618      1CD8C003 
 618      F7
 619 1011 82018146 		.ascii	"\202\001\201F\037v\227\010\274>n\310\355\306-\263}\230"
 619      1F769708 
 619      BC3E6EC8 
 619      EDC62DB3 
 619      7D98
 620 1023 EEC7B41E 		.ascii	"\356\307\264\036\323i\250\270\031\230\316\302t\036\246"
 620      D369A8B8 
 620      1998CEC2 
 620      741EA6
 621 1032 1F62BA14 		.ascii	"\037b\272\024\323\025\230~\205\351^L\217bz\014\323\006"
 621      D315987E 
 621      85E95E4C 
 621      8F627A0C 
 621      D306
 622 1044 4CAF607A 		.ascii	"L\257`z5\225\001(\243\300\364\017\352\333/E_\375\025"
 622      35950128 
 622      A3C0F40F 
 622      EADB2F45 
ARM GAS  /tmp/ccuN5Dk8.s 			page 49


 622      5FFD15
 623 1057 5DF14EB2 		.ascii	"]\361N\262\274=\016\335\032~\322&\324\270\326\034\233"
 623      BC3D0EDD 
 623      1A7ED226 
 623      D4B8D61C 
 623      9B
 624 1068 7916DB2D 		.ascii	"y\026\333-S\257\237\033\272a8\325\351\0054\353SN\335"
 624      53AF9F1B 
 624      BA6138D5 
 624      E90534EB 
 624      534EDD
 625 107b E9C2D4E7 		.ascii	"\351\302\324\347\206\265J\375v\226\371#\231\232\335"
 625      86B54AFD 
 625      7696F923 
 625      999ADD
 626 108a 94F8C1B0 		.ascii	"\224\370\301\260\207\02329\276\270\376\377\320\003f"
 626      87133239 
 626      BEB8FEFF 
 626      D00366
 627 1099 B7B037EE 		.ascii	"\267\2607\356k\235z\213P\203C\244tW\347\346b?\034\243"
 627      6B9D7A8B 
 627      508343A4 
 627      7457E7E6 
 627      623F1CA3 
 628 10ad 0F6BA676 		.ascii	"\017k\246vq#G\304~:\366\236b\224t\273\3778\222p7\275"
 628      712347C4 
 628      7E3AF69E 
 628      629474BB 
 628      FF389270 
 629 10c3 21919C1D 		.ascii	"!\221\234\0358\306\234\0358e\033\314\247\001\273\301"
 629      38C69C1D 
 629      38651BCC 
 629      A701BBC1 
 630 10d3 829DE501 		.ascii	"\202\235\345\001\2638\031v\213\005\373\3366\230\226"
 630      B3381976 
 630      8B05FBDE 
 630      369896
 631 10e2 B23B2CD8 		.ascii	"\262;,\330%\0360\213\223a\367X\260k\266\301\264\224"
 631      251E308B 
 631      9361F758 
 631      B06BB6C1 
 631      B494
 632 10f4 8D3BCE80 		.ascii	"\215;\316\200\335\342\001\2638\3602\201\005\033\326"
 632      DDE201B3 
 632      38F03281 
 632      051BD6
 633 1103 C62E9896 		.ascii	"\306.\230\226\262\367X\260\321<`>\003\312\214>l'\010"
 633      B2F758B0 
 633      D13C603E 
 633      03CA8C3E 
 633      6C2708
 634 1116 88F77090 		.ascii	"\210\367p\220jB\3574\314E\322\021\230\276\201\351(L"
 634      6A42EF34 
 634      CC45D211 
 634      98BE81E9 
 634      284C
 635 1128 47633A06 		.ascii	"Gc:\006\323w0}\327\3051\220\335dG\230w\333px#\213\025"
ARM GAS  /tmp/ccuN5Dk8.s 			page 50


 635      D377307D 
 635      D7C53190 
 635      DD644798 
 635      77DB7078 
 636 113f A4A9D777 		.ascii	"\244\251\327w\377\357\237s2\271\341\340\312\355\177"
 636      FFEF9F73 
 636      32B9E1E0 
 636      CAED7F
 637 114e 20EE23F5 		.ascii	" \356#\365\351\344I.\276\323\311\223]\372\243\361;\321"
 637      E9E4492E 
 637      BED3C993 
 637      5DFAA3F1 
 637      3BD1
 638 1160 9790F2D4 		.ascii	"\227\220\362\324\341u#g\270\026\023Y\351\304}\341\366"
 638      E1752367 
 638      B8161359 
 638      E9C47DE1 
 638      F6
 639 1171 E7A92F9C 		.ascii	"\347\251/\234\356\"\276\260\276MJ_\250\305!\364\315"
 639      EE22BEB0 
 639      BE4D4A5F 
 639      A8C521F4 
 639      CD
 640 1182 D2D3BF6A 		.ascii	"\322\323\277j\027\322?+5\375\344\260\355.\255/\274\204"
 640      17D23F2B 
 640      35FDE4B0 
 640      ED2EAD2F 
 640      BC84
 641 1194 2490BAE9 		.ascii	"$\220\272\351\371\302u\273\030\203\277b\033\314\247"
 641      F9C275BB 
 641      1883BF62 
 641      1BCCA7
 642 11a3 015BCF82 		.ascii	"\001[\317\202\375\304\003fuJ\226\005\273i\033LK\331"
 642      FDC40366 
 642      754A9605 
 642      BB691B4C 
 642      4BD9
 643 11b5 4616EC1E 		.ascii	"F\026\354\036\017\230\325)Y\026l\304}v\301|F\352\025"
 643      0F98D529 
 643      59166CC4 
 643      7D76C17C 
 643      46EA15
 644 11c8 92AC2320 		.ascii	"\222\254# \316v\021'1\007\273\376<L\347c\372\001\246"
 644      CE761127 
 644      3107BBFE 
 644      3C4CE763 
 644      FA01A6
 645 11db 0B315DCC 		.ascii	"\0131]\314\343\022\246\271\030\2270\012\011\236\234"
 645      E312A6B9 
 645      1897300A 
 645      099E9C
 646 11ea 9EC5804B 		.ascii	"\236\305\200K8\270\362\344\277\256Ov\011T\036f\024,"
 646      38B8F2E4 
 646      BFAE4F76 
 646      09541E66 
 646      142C
 647 11fc 6329186B 		.ascii	"c)\030k\233\002\037KA\354\366N\2728\257>\032>Q\217g"
ARM GAS  /tmp/ccuN5Dk8.s 			page 51


 647      9B021F4B 
 647      41ECF64E 
 647      BA38AF3E 
 647      1A3E518F 
 648 1211 B42C6B35 		.ascii	"\264,k5K\331\211o\366\242`\323l\203i\337\2066n\027\003"
 648      4BD9896F 
 648      F6A260D3 
 648      6C8369DF 
 648      86366E17 
 649 1226 36DF3698 		.ascii	"6\3376\230\331\371\265)h\013SQ\347\037a\272\034\323"
 649      D9F9B529 
 649      680B5351 
 649      E71F61BA 
 649      1CD3
 650 1238 9598AE66 		.ascii	"\225\230\256f\255@\022\226\334\247\217[\251sdP\023^"
 650      AD401296 
 650      DCA78F5B 
 650      A9736450 
 650      135E
 651 124a 54E0C535 		.ascii	"T\340\3055\323\355DV\267\033\357\343\030p|\346\3265"
 651      D3ED4456 
 651      B71BEFE3 
 651      18707CE6 
 651      D635
 652 125c F5FA1565 		.ascii	"\365\372\025e\300\241\3000A\267\215\250\265\226I\307"
 652      C0A1C030 
 652      41B78DA8 
 652      B59649C7 
 653 126c 67694E7E 		.ascii	"giN~o\347\301\2638^0\203\206\010\024\354\033\333`>\301"
 653      6FE7C1B3 
 653      385E3083 
 653      860814EC 
 653      1BDB603E 
 654 1281 F4C33EF6 		.ascii	"\364\303>\366\025\020/\341\223\022\377\300\207g\357"
 654      15102FE1 
 654      9312FFC0 
 654      8767EF
 655 1290 61BA0DA7 		.ascii	"a\272\015\247F\215\0304\334\300t\002ji\035\246\3531"
 655      468D1834 
 655      DCC07402 
 655      6A691DA6 
 655      EB31
 656 12a2 FD8C4763 		.ascii	"\375\214Gc\347\330\323\207\307\220\2053\351>&\335\320"
 656      E7D8D387 
 656      C7908533 
 656      E93E26DD 
 656      D0
 657 12b3 B8EFE05C 		.ascii	"\270\357\340\\q\"}\341Y\023>\324~\3126\242Vc\327\351"
 657      71227DE1 
 657      59133ED4 
 657      7ECA36A2 
 657      5663D7E9 
 658 12c7 9215053B 		.ascii	"\222\025\005;\317\003f\324\271\031\261R\201~\207\002"
 658      CF0366D4 
 658      B919B152 
 658      817E8702 
 659 12d7 3D8BA2FC 		.ascii	"=\213\242\374\034\205\265I\333m.'u\033\372\304 \203"
ARM GAS  /tmp/ccuN5Dk8.s 			page 52


 659      1C85B549 
 659      DB6D2E27 
 659      751BFAC4 
 659      2083
 660 12e9 9478B450 		.ascii	"\224x\264P\260\3022\023\374\211\204\340\003b\035.\306"
 660      B0C23213 
 660      FC8984E0 
 660      03621D2E 
 660      C6
 661 12fa D979E652 		.ascii	"\331y\346R+\246\246:\325\015\322\267\317\334D\362S<"
 661      2BA6A63A 
 661      D50DD2B7 
 661      CFDC44F2 
 661      533C
 662 130c 25CBFF16 		.ascii	"%\313\377\026\256F\346-\\7po\366&}\347\0262}\010\323"
 662      AE46E62D 
 662      5C37706F 
 662      F6267DE7 
 662      16327D08 
 663 1321 A3981EC3 		.ascii	"\243\230\036\303\264\001\323-<b\270\306>\346=\372~B"
 663      B401D32D 
 663      3C62B8C6 
 663      3EE63DFA 
 663      7E42
 664 1333 F6E5B41F 		.ascii	"\366\345\264\037\363\276\273\367o\217\342\253+\250]"
 664      F3BEBBF7 
 664      6F8FE2AB 
 664      2BA85D
 665 1342 C3F0621B 		.ascii	"\303\360b\033P+\327o\257l\243k`\344U_0\272\360\300Y"
 665      502BD76F 
 665      AF6CA36B 
 665      60E4555F 
 665      30BAF0C0 
 666 1357 8C2EC7CF 		.ascii	"\214.\307\317\255\243\257\356\244Z\232\256\207K9$h\251"
 666      ADA3AFEE 
 666      A45A9AAE 
 666      874B3924 
 666      68A9
 667 1369 BBF23FA6 		.ascii	"\273\362?\246tR\261\346\333\306z\324J\343\227\031\215"
 667      7452B1E6 
 667      DBC67AD4 
 667      4AE39719 
 667      8D
 668 137a FF801ABF 		.ascii	"\377\200\032\277\212\032\257C\003\377\012\323\035\230"
 668      8A1AAF43 
 668      03FF0AD3 
 668      1D98
 669 1388 7ECDA3E5 		.ascii	"~\315\243\345\013?\363]\\\265\247\366\256\026i\270\275"
 669      0B3FF35D 
 669      5CB5A7F6 
 669      AE1669B8 
 669      BD
 670 1399 1BC3EDF5 		.ascii	"\033\303\355\365\367\247\014\267\365\253\254uXe\237"
 670      F7A70CB7 
 670      F5ABAC75 
 670      58659F
 671 13a8 3EE4BEF6 		.ascii	">\344\276\366\252\217\226rL\030~T\254\341\002Z\303\336"
ARM GAS  /tmp/ccuN5Dk8.s 			page 53


 671      AA8F9672 
 671      4C187E54 
 671      ACE1025A 
 671      C3DE
 672 13ba 38605AD6 		.ascii	"8`Z\326\032\273y\2211\256\200\270\335%\331\204\323Z"
 672      1ABB7991 
 672      31AE80B8 
 672      DD25D984 
 672      D35A
 673 13cc C3ED73DB 		.ascii	"\303\355s\333\222\336c\245y\031[\222V\352\331\321\372"
 673      92DE63A5 
 673      79195B92 
 673      56EAD9D1 
 673      FA
 674 13dd 000F3716 		.ascii	"\000\0177\026\266}\367\264\306\266\217\351\341l\332"
 674      B67DF7B4 
 674      C6B68FE9 
 674      E16CDA
 675 13ec F6F89F62 		.ascii	"\366\370\237b\242\374V\226z\372\377\202\036.\345\351"
 675      A2FC5696 
 675      7AFAFF82 
 675      1E2EE5E9 
 676 13fc FF4E56E6 		.ascii	"\377NV\346\275\217\011\255\367c8u\000\215\371\020\246"
 676      BD8F09AD 
 676      F7633875 
 676      008DF910 
 676      A6
 677 140d 87313D8A 		.ascii	"\2071=\212\3511\036\363\336\225\020d\007a\226\034\273"
 677      E9311EF3 
 677      DE951064 
 677      0761961C 
 677      BB
 678 141e D2B0FFEC 		.ascii	"\322\260\377\354\367m\227\220\330E\276\327\364\327a"
 678      F76D9790 
 678      D845BED7 
 678      F4D761
 679 142d C345DD43 		.ascii	"\303E\335C\257N\213\267,\2724\017\275\032\316\265S\355"
 679      AF4E8BB7 
 679      2CBA340F 
 679      BD1ACEB5 
 679      53ED
 680 143f 1DCEBC70 		.ascii	"\035\316\274p\365\001\332[Nco9\366\013\343-,\313#\007"
 680      F501DA5B 
 680      4E636F39 
 680      F60BE32D 
 680      2CCB2307 
 681 1453 67F53D65 		.ascii	"g\365=e\015}t\376,W_\251\335\272\224\373\335o\272\216"
 681      0D7D74FE 
 681      2C575FA9 
 681      DDBA94FB 
 681      DD6FBA8E 
 682 1467 7AED17C6 		.ascii	"z\355\027\306\357~\323\334\006\001\022\366\227Kz*'\326"
 682      EF7ED3DC 
 682      060112F6 
 682      974B7A2A 
 682      27D6
 683 1479 209597B8 		.ascii	" \225\227\270\250\234\2645\305\273\337\3707\257\327"
ARM GAS  /tmp/ccuN5Dk8.s 			page 54


 683      A89CB435 
 683      C5BBDFF8 
 683      37AFD7
 684 1488 5E3DF9FB 		.ascii	"^=\371\373\217q\301\370\252\013w\246~\251\217 \\\272"
 684      8F71C1F8 
 684      AA0B77A6 
 684      7EA98F20 
 684      5CBA
 685 149a BD6B9776 		.ascii	"\275k\227v\357\332\225\221\310({\327f\252\371\301e\361"
 685      EFDA9591 
 685      C8287BD7 
 685      66AAF9C1 
 685      65F1
 686 14ac 8625E525 		.ascii	"\206%\345%G\361\337Wi\273\\/\207\271\342b\202\222%\222"
 686      47F1DF57 
 686      69BB5C2F 
 686      87B9E262 
 686      82922592 
 687 14c0 2AE0F446 		.ascii	"*\340\364F\343\231\027\366\266\305`\320\352\361oB\235"
 687      E39917F6 
 687      B6C560D0 
 687      EAF16F42 
 687      9D
 688 14d1 1935B7AC 		.ascii	"\0315\267\254\330\234\3723\330\274\311\2629\3276\233"
 688      D89CFA33 
 688      D8BCC9B2 
 688      39D7369B 
 689 14e1 3E96CDD4 		.ascii	">\226\315\324\357]Zc\321\333e\267\005\213\323l\274\227"
 689      EF5D5A63 
 689      D1DB65B7 
 689      058BD36C 
 689      BC97
 690 14f3 AA89F5E5 		.ascii	"\252\211\365\345_\242\355\245`)\325\313\364\322e\251"
 690      5FA2EDA5 
 690      6029D5CB 
 690      F4D265A9 
 691 1503 C680252E 		.ascii	"\306\200%.\026\336p\353\366O\276\262\315\206O\320~\022"
 691      16DE70EB 
 691      F64FBEB2 
 691      CD864FD0 
 691      7E12
 692 1515 F1F965F4 		.ascii	"\361\371e\364\34670\275\207\351H7\317V k)\033\321R\316"
 692      E63730BD 
 692      87E94837 
 692      CF56206B 
 692      291BD152 
 693 152a DAEF1046 		.ascii	"\332\357\020F\037\326\301B\270\212\203\320y\236\301"
 693      1FD6C142 
 693      B88A83D0 
 693      799EC1
 694 1539 E65482A4 		.ascii	"\346T\202\244\270\210\231\003\217Tt_\353\274\317\303"
 694      B8889903 
 694      8F54745F 
 694      EBBCCFC3 
 695 1549 C2FBB23C 		.ascii	"\302\373\262<\001\207\245\357\211v)\014\214\372x_\203"
 695      0187A5EF 
 695      8976290C 
ARM GAS  /tmp/ccuN5Dk8.s 			page 55


 695      8CFA785F 
 695      83
 696 155a AB836173 		.ascii	"\253\203asJc\264\262<\031\346b\"mK\022\352STT(\372\257"
 696      4A63B4B2 
 696      3C19E662 
 696      226D4B12 
 696      EA535454 
 697 1571 C2026237 		.ascii	"\302\002b7\007O\027\364T^\346a^I\341\357-\267\304\362"
 697      074F17F4 
 697      545EE661 
 697      5E49E1EF 
 697      2DB7C4F2 
 698 1585 82036A43 		.ascii	"\202\003jC\303\335\353\337\217\022\307\217\030\276M"
 698      C3DDEBDF 
 698      8F12C78F 
 698      18BE4D
 699 1594 BE425C63 		.ascii	"\276B\\c\262\223\226\271^$xd\351cx\204l\202\233\370"
 699      B29396B9 
 699      5E247864 
 699      E9637884 
 699      6C829BF8 
 700 15a8 E88B3A29 		.ascii	"\350\213:)\361\003\255:>3\233\276T\021\201\256%9{A\347"
 700      F103AD3A 
 700      3E339BBE 
 700      541181AE 
 700      25397B41 
 701 15bd EC05ADB3 		.ascii	"\354\005\255\263\207\237r\223\362\241g\303\240\344\257"
 701      879F7293 
 701      F2A167C3 
 701      A0E4AF
 702 15cc 425A75CC 		.ascii	"BZu\314\014e\274\322\021\023\235O\022\356\350\010U4"
 702      0C65BCD2 
 702      11139D4F 
 702      12EEE808 
 702      5534
 703 15de 348ECAF7 		.ascii	"4\216\312\367\207\315\303\333R\331\220Z\343\334\035"
 703      87CDC3DB 
 703      52D9905A 
 703      E3DC1D
 704 15ed 0C45A080 		.ascii	"\014E\240\200N1\322SlV\335\333\336q\303\032\232\232"
 704      4E31D253 
 704      6C56DDDB 
 704      DE71C31A 
 704      9A9A
 705 15ff 3AE85C06 		.ascii	":\350\\\006A5\243t\272;e\314\223rA\276\366\324\346\032"
 705      4135A374 
 705      BA3B65CC 
 705      937241BE 
 705      F6D4E61A 
 706 1613 658A30CB 		.ascii	"e\2120\313M\202\236\261\277\262\271\"/\011S\260\312"
 706      4D829EB1 
 706      BFB2B922 
 706      2F0953B0 
 706      CA
 707 1624 5CB72EA4 		.ascii	"\\\267.\244\230\035\360\321\322\324\001\305\252\233"
 707      981DF0D1 
 707      D2D401C5 
ARM GAS  /tmp/ccuN5Dk8.s 			page 56


 707      AA9B
 708 1632 4CD80AD3 		.ascii	"L\330\012\323%|?-\251j\021\266\322\217aP\275\346\222"
 708      257C3F2D 
 708      A96A11B6 
 708      D28F6150 
 708      BDE692
 709 1645 3245A8C7 		.ascii	"2E\250\307\336:'N_zS\204\265\037)G:v!\334\002\0368\213"
 709      DE3A274E 
 709      5F7A5384 
 709      B51F2947 
 709      3A7621DC 
 710 165d 90BFF67C 		.ascii	"\220\277\366|\362\214\303h\017\370\267*\326|&^\252\255"
 710      F28CC368 
 710      0FF8B72A 
 710      D67C265E 
 710      AAAD
 711 166f F93B7D3D 		.ascii	"\371;}=\361\022\324\326\322\324\332\322\341\340Z\262"
 711      F112D4D6 
 711      D2D4DAD2 
 711      E1E05AB2 
 712 167f 5E55FBE8 		.ascii	"^U\373\350\373\211\227q)\353\033z\324\235\316\355\227"
 712      FB899771 
 712      29EB1B7A 
 712      D49DCEED 
 712      97
 713 1690 2301CB6C 		.ascii	"#\001\313l\310V\013v\260\356\013\252\371-bB\363\313"
 713      C8560B76 
 713      B0EE0BAA 
 713      F92D6242 
 713      F3CB
 714 16a2 6C685EAB 		.ascii	"lh^\253\252Cu\314\277\230X\245\247-\345K\2054\377\240"
 714      AA4375CC 
 714      BF9858A5 
 714      A72DE54B 
 714      8534FFA0 
 715 16b6 2156CF82 		.ascii	"!V\317\202\255\263\015\366\254\006\354\333Qo+\213\250"
 715      ADB30DF6 
 715      AC06ECDB 
 715      516F2B8B 
 715      A8
 716 16c7 F4C5F59F 		.ascii	"\364\305\365\237\361\010\316\302\212\216%\336\202\037"
 716      F108CEC2 
 716      8A8E25DE 
 716      821F
 717 16d5 10BFD18B 		.ascii	"\020\277\321\213\215w\310W\227D\330W\352o\342\241\314"
 717      8D77C857 
 717      9744D857 
 717      EA6FE2A1 
 717      CC
 718 16e6 E25188AB 		.ascii	"\342Q\210\253,\3306\333`Z\312~d\301v\362\200Y<\223p"
 718      2CD836DB 
 718      605ACA7E 
 718      64C176F2 
 718      80593C93 
 719 16fb 8305FBC6 		.ascii	"\203\005\373\3066\230\226\262[I\017ih\376w@\222\267"
 719      369896B2 
 719      5B490F69 
ARM GAS  /tmp/ccuN5Dk8.s 			page 57


 719      68FE7740 
 719      92B7
 720 170d FEC2CD84 		.ascii	"\376\302\315\204\232\337\3624\3563\343D\216\315\334"
 720      9ADFF234 
 720      EE33E344 
 720      8ECDDC
 721 171c 9E89AB06 		.ascii	"\236\211\253\006\344\337\021H\302\031=\232\034\207\223"
 721      E4DF1148 
 721      C2193D9A 
 721      1C8793
 722 172b 532CF11B 		.ascii	"S,\361\033}X\007\021\020?v\223\030k\271\033\36740]\205"
 722      7D580711 
 722      103F7693 
 722      186BB91B 
 722      F734305D 
 723 1740 E91A4CD7 		.ascii	"\351\032L\327bZ\213\351zL?\303t#\2461L7c\372%O\340\270"
 723      625A8BE9 
 723      7A4C3FC3 
 723      7423A631 
 723      4C3763FA 
 724 1758 9815D279 		.ascii	"\230\025\322y\333\216V\243!\030\333\276?\243\376#\021"
 724      DB8E56A3 
 724      2118DBBE 
 724      3FA3FE23 
 724      11
 725 1769 BAD9F00F 		.ascii	"\272\331\360\017\036D\013\323\336p^\263Zs]\017g\344"
 725      1E440BD3 
 725      DE705EB3 
 725      5A735D0F 
 725      67E4
 726 177b 13F8772E 		.ascii	"\023\370w.\3472R\177\037\245>\037%\267\000\323\0171"
 726      E732527F 
 726      1FA53E1F 
 726      25B700D3 
 726      0F31
 727 178d 5D84E936 		.ascii	"]\204\3516L\267\363Ht\246\233\011\305\231\351\204$\334"
 727      4CB7F348 
 727      74A69B09 
 727      C599E984 
 727      24DC
 728 179f D68D1D4A 		.ascii	"\326\215\035J\260{\367\372\255\366\333h\260K\352J\302"
 728      B07BF7FA 
 728      ADF6DB68 
 728      B04BEA4A 
 728      C2
 729 17b0 BB6DC97D 		.ascii	"\273m\311}\323\334f1\253\322\002\215\210\344\025G\013"
 729      D3DC6631 
 729      ABD2028D 
 729      88E41547 
 729      0B
 730 17c1 9860689A 		.ascii	"\230`h\232u0\364\367\344`hNC\354h"
 730      7530F4F7 
 730      E460684E 
 730      43EC68
 731 17d0 290D576D 		.ascii	")\015Wm\204B{\364\263'2T\307\177(+v\361\337\312\272"
 731      84427BF4 
 731      B3273254 
ARM GAS  /tmp/ccuN5Dk8.s 			page 58


 731      C77F282B 
 731      76F1DFCA 
 732 17e5 2A6FDC94 		.ascii	"*o\334\224\247\266v\2109\357|p\336\276\366\364\324\375"
 732      A7B67688 
 732      39EF7C70 
 732      DEBEF6F4 
 732      D4FD
 733 17f7 411C89BF 		.ascii	"A\034\211\277j\233:n\322\002\005\304\303n\342\266\353"
 733      6A9B3A6E 
 733      D20205C4 
 733      C36EE2B6 
 733      EB
 734 1808 F5A3F14D 		.ascii	"\365\243\361M\372\036\376z\256\321\370n\335\374t\377"
 734      FA1EFE7A 
 734      AED1F86E 
 734      DDFC74FF 
 735 1818 5BC081B6 		.ascii	"[\300\201\266\\\377-\3408R\331\220\0243P*\033\270\250"
 735      5CFF2DE0 
 735      3852D990 
 735      1433502A 
 735      1BB8A8
 736 182b DC5FA784 		.ascii	"\334_\247\204Pd\251D]#iH7jP\337\274y\023\301\346\332"
 736      5064A944 
 736      5D236948 
 736      376A50DF 
 736      BC7913C1 
 737 1841 06F31981 		.ascii	"\006\363\031\2015!\330\0107\007X\352\027\352\323I\371"
 737      3521D808 
 737      370758EA 
 737      17EAD349 
 737      F9
 738 1852 9BB6C10C 		.ascii	"\233\266\301\014(KwA\341\034\307\032\211\355\027\354"
 738      284B7741 
 738      E11CC71A 
 738      89ED17EC 
 739 1862 5FFBF8C4 		.ascii	"_\373\370\304\007\312sI\027q\012\367\235\316\354\323"
 739      07CA7349 
 739      17710AF7 
 739      9DCEECD3 
 740 1872 7AD844E0 		.ascii	"z\330D\340\\\2559\313\216\016W\260\345\024\302\265x"
 740      5CAD39CB 
 740      8E0E57B0 
 740      E514C2B5 
 740      78
 741 1883 613B74E0 		.ascii	"a;t\340\007S\256\263Y\011\370\252\225\200/\272\371\027"
 741      0753AEB3 
 741      5909F8AA 
 741      95802FBA 
 741      F917
 742 1895 A17E60D9 		.ascii	"\241~`\331\372\3116[6m\306j\351\360\206\025K&+\244i"
 742      FAC9365B 
 742      366DC66A 
 742      E9F08615 
 742      4B262BA4 
 743 18aa B1DCC8B2 		.ascii	"\261\334\310\262|\213\207\345\237\363\012w+\226e\217"
 743      7C8B87E5 
 743      9FF30A77 
ARM GAS  /tmp/ccuN5Dk8.s 			page 59


 743      2B96658F 
 744 18ba FDD5D2B4 		.ascii	"\375\325\322\264XnbY\036\366\200]\226}\202\366\223X"
 744      586E6259 
 744      1EF6805D 
 744      967D82F6 
 744      9358
 745 18cc A33B89C1 		.ascii	"\243;\211\301\300)LOcz\006\323\3570\275\202\351uL\357"
 745      C0294C4F 
 745      637A06D3 
 745      EF30BD82 
 745      E9754CEF 
 746 18e0 F1040CDF 		.ascii	"\361\004\014\337\272\223\326\356\352\323t\324r\354\036"
 746      BA93D6EE 
 746      EAD374D4 
 746      72EC1E
 747 18ef 099279F7 		.ascii	"\011\222y\367_f-\276\375\000\316mGy\310\210\272\361"
 747      5F662DBE 
 747      FD00CE6D 
 747      4779C888 
 747      BAF1
 748 1901 019BDB2F 		.ascii	"\001\233\333/\222\3605Vy\313\243\033\252\326\326\340"
 748      92F03556 
 748      79CBA31B 
 748      AAD6D6E0 
 749 1911 4B4D4939 		.ascii	"KMI9\307\026\014\347\333\213\347\304WA\356\027\022O"
 749      C7160CE7 
 749      DB8BE7C4 
 749      5741EE17 
 749      124F
 750 1923 5DDC157D 		.ascii	"]\334\025}\001\361]\244\277\336\230~s\014I\270\200U"
 750      01F15DA4 
 750      BFDE987E 
 750      730C49B8 
 750      8055
 751 1935 26E8E9FF 		.ascii	"&\350\351\377\211\254\244L\340\242\276Q}\374d\254\207"
 751      89ACA44C 
 751      E0A2BE51 
 751      7DFC64AC 
 751      87
 752 1946 C46EB7E2 		.ascii	"\304n\267\342\200i\015\264\261;\370\006\177\372(\313"
 752      80690DB4 
 752      B13BF806 
 752      7FFA28CB 
 753 1956 F07676B1 		.ascii	"\360vv\261|\032\254\361[\325\207\220\350sCcy\360,f\300"
 753      7C1AACF1 
 753      5BD58790 
 753      E8734363 
 753      79F02C66 
 754 196b EF91432E 		.ascii	"\357\221C.v\036\223\374JyLr\206\007\3775f\273\177\302"
 754      761E93FC 
 754      4A794C72 
 754      8607FF35 
 754      66BB7FC2 
 755 197f C825090B 		.ascii	"\310%\011\013ls\241\221J\303\354\305\247\332\252O\240"
 755      6C73A191 
 755      4AC3ECC5 
 755      A7DAAA4F 
ARM GAS  /tmp/ccuN5Dk8.s 			page 60


 755      A0
 756 1990 50C296F1 		.ascii	"P\302\226\361 \032\015lF\037\326\232\002\342{\0362\253"
 756      201A0D6C 
 756      461FD69A 
 756      02E27B1E 
 756      32AB
 757 19a2 98E421CE 		.ascii	"\230\344!\316`2\246S1\235\216\351\034\017\207{ v\245"
 757      6032A653 
 757      319D8EE9 
 757      1C0F877B 
 757      2076A5
 758 19b5 7C24615D 		.ascii	"|$a];\265\277\3314/cR\337bH}\033I}\207%I\022b\330\236"
 758      3BB5BFD9 
 758      342F6352 
 758      DF62487D 
 758      1B497D87 
 759 19cf 1D77A415 		.ascii	"\035w\244\025\366\301y\267;\\\033.O\351\304\375^\357"
 759      F6C179B7 
 759      3B5C1B2E 
 759      4FE9C4FD 
 759      5EEF
 760 19e1 D82DB704 		.ascii	"\330-\267\00430\017\276\322[g1\234\257\364^\350\321"
 760      33300FBE 
 760      D25B6731 
 760      9CAFF45E 
 760      E8D1
 761 19f3 BDD2FB1A 		.ascii	"\275\322\373\032}\2457)\267\350\320\312\233\267w\267"
 761      7DA53729 
 761      B7E8D0CA 
 761      9BB777B7 
 762 1a03 4B7EA577 		.ascii	"K~\245w};\303Wz\237l\247}\245\267\"\005\313\227t'\210"
 762      7D3BC357 
 762      7A9F6CA7 
 762      7DA5B722 
 762      05CB9774 
 763 1a19 83B9258A 		.ascii	"\203\271%\212|\261\307\372%\335\365\326\323]\363\007"
 763      7CB1C7FA 
 763      25DDF5D6 
 763      D35DF307 
 764 1a29 73624D75 		.ascii	"sbMu\344A;\336\307f\326\256\275\240<J\264\002\335\351"
 764      E4413BDE 
 764      C766D6AE 
 764      BDA03C4A 
 764      B402DDE9 
 765 1a3d BC5FA776 		.ascii	"\274_\247v\247\0068\340v\360\255\220\253\021d\271]\020"
 765      A70638E0 
 765      76F0AD90 
 765      AB1164B9 
 765      5D10
 766 1a4f 49F814AB 		.ascii	"I\370\024\253\254\325\373\344\015t\303|-\207W&\257\317"
 766      ACD5FBE4 
 766      0D74C37C 
 766      2D875726 
 766      AFCF
 767 1a61 A7CFD2AA 		.ascii	"\247\317\322\252\017\031n\211c*\215\276\300\212/\265"
 767      0F196E89 
 767      632A8DBE 
ARM GAS  /tmp/ccuN5Dk8.s 			page 61


 767      C08A2FB5 
 768 1a71 5BDE4DCF 		.ascii	"[\336M\317\367\321-\363\235z0\233~t_\374y\331\251x\372"
 768      F7D12DF3 
 768      9D7A309B 
 768      7E745FFC 
 768      79D9A978 
 769 1a86 EB906D3C 		.ascii	"\353\220m<M'\213}C\211\243`'x\300,V\\\016\261`gm\203"
 769      4D278B7D 
 769      4389A360 
 769      2778C02C 
 769      565C0EB1 
 770 1a9e 6929AB67 		.ascii	"i)\253g\301.\363\200Y,&~\253\014gi\276\245}\233\307"
 770      C12EF380 
 770      592C267E 
 770      AB0C6769 
 770      BEA57D9B 
 771 1ab3 7CF3865A 		.ascii	"|\363\206Z\253Y\315\355\036\343\025\035\363\261/6\231"
 771      AB59CDED 
 771      1EE3151D 
 771      F3B12F36 
 771      99
 772 1ac4 06407518 		.ascii	"\006@u\030\0234\352\372\200\256iB\230Y\323_{\314\337"
 772      1334EAFA 
 772      80AE6942 
 772      9859D35F 
 772      7BCCDF
 773 1ad7 8CAAFB1B 		.ascii	"\214\252\373\033\304\270\355\355\012X\253\255\3435\232"
 773      C4B8EDED 
 773      0A58ABAD 
 773      E3359A
 774 1ae6 2729DFE2 		.ascii	"')\337\342\201\363\031\350\313\350\303v\350\200X\213"
 774      81F319E8 
 774      CBE8C376 
 774      E880588B 
 775 1af6 8E6F3D0E 		.ascii	"\216o=\016\202\237a\272\021\323\030\246\2331\335\202"
 775      829F61BA 
 775      11D318A6 
 775      9B31DD82 
 776 1b06 E9564C77 		.ascii	"\351VLw\261\243\322\177\016\252$\214o\257\033\353\264"
 776      B1A3D27F 
 776      0EAA248C 
 776      6FAF1BEB 
 776      B4
 777 1b17 8E29553F 		.ascii	"\216)U?\224q\260\233(\303\004\227\337\343\356{\220z"
 777      9471B09B 
 777      28C30497 
 777      DFE3EE7B 
 777      907A
 778 1b29 DC7DE82C 		.ascii	"\334}\350,\247\264\327GH\253=\272\323\274\377D~?\344"
 778      A7B4D747 
 778      48AB3DBA 
 778      D3BCFF44 
 778      7E3FE4
 779 1b3c E2D7F4A1 		.ascii	"\342\327\364\241\3648\277S:\261\377Uu\232d\365\337|"
 779      F438BF53 
 779      3AB1FF55 
 779      759A64F5 
ARM GAS  /tmp/ccuN5Dk8.s 			page 62


 779      DF7C
 780 1b4e 0F795A2B 		.ascii	"\017yZ+9\365\277\364\222\370KO\210\361j\272\351\013"
 780      39F5BFF4 
 780      92F84B4F 
 780      88F16ABA 
 780      E90B
 781 1b60 BF486792 		.ascii	"\277Hg\222\035n\212.\011+\370\340v;\315\360\214&\270"
 781      1D6E8A2E 
 781      092BF8E0 
 781      763BCDF0 
 781      8C26B8
 782 1b73 46FF9420 		.ascii	"F\377\224 >\227h\237P\351\261\305\267F+\017\303\037"
 782      3E97689F 
 782      50E9B1C5 
 782      B7462B0F 
 782      C31F
 783 1b85 439DAED6 		.ascii	"C\235\256\326\3514%\020\012G?\370\315<\271M\304\231"
 783      E9342510 
 783      0A473FF8 
 783      CD3CB94D 
 783      C499
 784 1b97 DA89D4C3 		.ascii	"\332\211\324\303\337\310\021\261\025'\267I\312\001\343"
 784      DFC811B1 
 784      1527B749 
 784      CA01E3
 785 1ba6 49B8C13B 		.ascii	"I\270\301;\022\017\241\235HoZ\002\200+O*\033\274\024"
 785      120FA19D 
 785      486F5A02 
 785      802B4F2A 
 785      1BBC14
 786 1bb9 AEC6369C 		.ascii	"\256\3066\234O\003\267Z\013\267\301\301\001g\361\334"
 786      4F03B75A 
 786      0BB7C1C1 
 786      0167F1DC 
 787 1bc9 D5275A38 		.ascii	"\325'Z8\231\207:\213'\257\326i\341\206\363\300Y<{\265"
 787      99873A8B 
 787      27AFD669 
 787      E186F3C0 
 787      593C7BB5 
 788 1bdd 9E859384 		.ascii	"\236\205\223\204\315h\020v\340\264\324}\246\205\333"
 788      CD681076 
 788      E0B4D47D 
 788      A685DB
 789 1bec CA036734 		.ascii	"\312\003g4\252\032}X\313\013\210'\321\277\234B\337q"
 789      AA1A7D58 
 789      CB0B8827 
 789      D1BF9C42 
 789      DF71
 790 1bfe 1AD33398 		.ascii	"\032\3233\230~\207\351YL\317a\372=\317D\346[v\"\263"
 790      7E87E959 
 790      4CCF61FA 
 790      3DCF44E6 
 790      5B7622B3 
 791 1c12 43DF498D 		.ascii	"C\337I\215\310\336myhJCw=\263\225s\004\267r\216\342"
 791      C8DE6D79 
 791      684A4377 
 791      3DB39573 
ARM GAS  /tmp/ccuN5Dk8.s 			page 63


 791      04B7728E 
 792 1c27 0A4C0DD2 		.ascii	"\012L\015\3227\037\323\345\230\356\305\364 \246\365"
 792      371FD3E5 
 792      98EEC5F4 
 792      20A6F5
 793 1c36 981EE5A1 		.ascii	"\230\036\345\241\376\200;S\323\240fgg\217\256\223\307"
 793      FE803B53 
 793      D3A06667 
 793      678FAE93 
 793      C7
 794 1c47 7776AEAE 		.ascii	"wv\256\256\024'\215\220{\322\355\021\010\376q}z\267"
 794      14278D90 
 794      7BD2ED11 
 794      08FE717D 
 794      7AB7
 795 1c59 E9CECE2E 		.ascii	"\351\316\316.\346\030\323\265`O\272\221\002\014\271"
 795      E618D3B5 
 795      604FBA91 
 795      020CB9
 796 1c68 ACABD533 		.ascii	"\254\253\3253\325\326\322\323O\364\350\367wH\227yE\334"
 796      D5D6D2D3 
 796      4FF4E8F7 
 796      77489779 
 796      45DC
 797 1c7a 97512ADE 		.ascii	"\227Q*\336\246\025\017\340\026\324\371\024\025\017\270"
 797      A6150FE0 
 797      16D4F914 
 797      150FB8
 798 1c89 D96353DA 		.ascii	"\331cS\332-\250\335\326[P\227<F[P{\203\266\267\240\256"
 798      2DA8DDD6 
 798      5B50973C 
 798      465B507B 
 798      83B6B7A0 
 799 1c9e EB1712A9 		.ascii	"\353\027\022\251\2145\212\271d\250\030yzP\247\222\237"
 799      8C358AB9 
 799      64A81879 
 799      7A50A792 
 799      9F
 800 1caf 3C962A31 		.ascii	"<\226*1\341\224\251e\304\351\015CNoQN\337\365\331`\365"
 800      E194A965 
 800      C4E90D43 
 800      4E6F514E 
 800      DFF5D960 
 801 1cc4 8E9E55B2 		.ascii	"\216\236U\262\005\250\341\233\375\243\262\247\253\337"
 801      05A8E19B 
 801      FDA3B2A7 
 801      ABDF
 802 1cd2 8DD389E6 		.ascii	"\215\323\211\346\216\261h\356\226\366\244\360\001q'"
 802      8EB168EE 
 802      96F6A4F0 
 802      017127
 803 1ce1 8AE6B6A9 		.ascii	"\212\346\266\251hp\037R\251\266O/Q\363j\254\221\337"
 803      68701F52 
 803      A9B64F2F 
 803      51F36AAC 
 803      91DF
 804 1cf3 25D51663 		.ascii	"%\325\026cku)\252-fZ[Cm\225\2366\032\365\033\321\262"
ARM GAS  /tmp/ccuN5Dk8.s 			page 64


 804      6B7529AA 
 804      2D665A5B 
 804      436D959E 
 804      361AF51B 
 805 1d09 62BD8506 		.ascii	"b\275\205\006o[kp\2307I\203\313\033b?B\353FG\307\254"
 805      6F5B6B70 
 805      98374983 
 805      CB1B623F 
 805      42EB4647 
 806 1d1f 56BD477B 		.ascii	"V\275G{\0154\250\323\310;\2771\320\310p\271I\257\221"
 806      0D34A8D3 
 806      C83BBF31 
 806      D0C870B9 
 806      49AF91
 807 1d32 37BD3C3B 		.ascii	"7\275<;\303\303\345\025x\232\221.\241\233\327R\010\034"
 807      C3C3E515 
 807      789A912E 
 807      A19BD752 
 807      081C
 808 1d44 63C8EAB4 		.ascii	"c\310\352\264\355\306\254Z\031\353\273F\254\032\317"
 808      EDC6AC5A 
 808      19EBBB46 
 808      AC1ACF
 809 1d53 BA886ACC 		.ascii	"\272\210j\314`&x\015\377\011.}\273f\342\367\022G\362"
 809      6026780D 
 809      FF092E7D 
 809      BB66E2F7 
 809      1247F2
 810 1d66 8E80244C 		.ascii	"\216\200$L5\026\345\344\240N\224c\255E\251\230\333\347"
 810      3516E5E4 
 810      A04E9463 
 810      AD45A998 
 810      DBE7
 811 1d78 A41AA147 		.ascii	"\244\032\241G\022\026!\260y5\244Z\251\326\370?\333R"
 811      121621B0 
 811      7935A45A 
 811      A9D6F83F 
 811      DB52
 812 1d8a 7A25E163 		.ascii	"z%\341c}5\335\233D\221+\265\265\232\254\002\365y\222"
 812      7D35DD9B 
 812      44912BB5 
 812      B59AAC02 
 812      F57992
 813 1d9d 5A7D3DCD 		.ascii	"Z}=\315\361\2548\367\206\266m\326\232\"\337I\311\012"
 813      F1AC38F7 
 813      86B66DD6 
 813      9A22DF49 
 813      C90A
 814 1daf 07EF3469 		.ascii	"\007\3574i\314;0\007\034\036kj\372\243W\257s\311\\\347"
 814      CC3B3007 
 814      1C1E6B6A 
 814      FAA357AF 
 814      73C95CE7 
 815 1dc3 B339CC3B 		.ascii	"\2639\314;f\244\223\011\362l\275Nfq\232\367\0324o\272"
 815      66A49309 
 815      F26CBD4E 
 815      66719AF7 
ARM GAS  /tmp/ccuN5Dk8.s 			page 65


 815      1A346FBA 
 816 1dd7 866C5E4B 		.ascii	"\206l^K!p\256!\267\265c\336V\271\025lX\370\002\016n"
 816      2170AE21 
 816      B7B563DE 
 816      56B9156C 
 816      58F8020E 
 817 1dec F71A733B 		.ascii	"\367\032s;^\317\355|.n\365\272\235o\255\333\017\223"
 817      5ECFED7C 
 817      2E6EF5BA 
 817      9D6FADDB 
 817      0F93
 818 1dfe B96DB812 		.ascii	"\271m\270\022\273\261C\351\314\224\003I8nL\343t=\215"
 818      BBB143E9 
 818      CC940349 
 818      386E4CE3 
 818      743D8D
 819 1e11 8BD3A271 		.ascii	"\213\323\242q\2615\215K\01452\253\216\3228\373\005\033"
 819      B1358D4B 
 819      0C3532AB 
 819      8ED238FB 
 819      051B
 820 1e23 FAF8D8C2 		.ascii	"\372\370\330\302\343$\037FQ\372L\37479Z$$y\220\0378"
 820      E3241F46 
 820      51FA4CFC 
 820      37395A24 
 820      2479901F 
 821 1e38 F5B78CCB 		.ascii	"\365\267\214\313\203\254M\004s[STc\203\271k\201GUOp"
 821      83AC4D04 
 821      735B5354 
 821      6383B96B 
 821      8147554F 
 822 1e4d 0FE95966 		.ascii	"\017\351Yf\355\011\224j3\267f\306\037\270|\343A]=\235"
 822      ED09946A 
 822      33B766C6 
 822      1FB87CE3 
 822      415D3D9D 
 823 1e61 E751B837 		.ascii	"\347Q\2707\324\240Y-E\354\253\265\032|YtLvR[\033\327"
 823      D4A0592D 
 823      45ECABB5 
 823      1A7C5974 
 823      4C76525B 
 824 1e77 B0FFECE6 		.ascii	"\260\377\354\346\201S\345\315#\345\246\246\277\352\273"
 824      8153E5CD 
 824      23E5A6A6 
 824      BFEABB
 825 1e86 96C516FF 		.ascii	"\226\305\026\377F\275&O\261\307\212\224\303\372\312"
 825      46BD264F 
 825      B1C78A94 
 825      C3FACA
 826 1e95 6FDE5DCE 		.ascii	"o\336]\316\317\257\356k\277\016WY6{\311\214|\363\203"
 826      CFAFEE6B 
 826      BF0E5759 
 826      367BC98C 
 826      7CF383
 827 1ea8 36B73995 		.ascii	"6\2679\2255\275\025\227\310V\343\227\210\261]\207\021"
 827      35BD1597 
 827      C856E397 
ARM GAS  /tmp/ccuN5Dk8.s 			page 66


 827      88B15D87 
 827      11
 828 1eb9 10BBEB16 		.ascii	"\020\273\353\026j\272\353\336\222w\355\272C\036\347"
 828      6ABAEBDE 
 828      9277EDBA 
 828      431EE7
 829 1ec8 C5724938 		.ascii	"\305rI8\363\240v[\200\251\327\303l\245\253{b\202\263"
 829      F3A0765B 
 829      80A9D7C3 
 829      6CA5AB7B 
 829      6282B3
 830 1edb CDFB48F2 		.ascii	"\315\373H\362\235:\373\275\254\243P\275i{\222\322\246"
 830      9D3AFBBD 
 830      ACA350BD 
 830      697B92D2 
 830      A6
 831 1eec C49556BB 		.ascii	"\304\225V\273\365\233\211\342\370\021s\214\036^\340"
 831      F59B89E2 
 831      F811738C 
 831      1E5EE0
 832 1efb DFC059B5 		.ascii	"\337\300Y\265\223\310i\247\227\354\340\334\324Q\301"
 832      93C869A7 
 832      97ECE0DC 
 832      D451C1
 833 1f0a B983B3C7 		.ascii	"\271\203\263\307\253\333\3019<\006wpHy\352\035\234a"
 833      ABDBC139 
 833      3C067770 
 833      4879EA1D 
 833      9C61
 834 1f1c 1D927770 		.ascii	"\035\222wpFu0\334\301\231\330\301\360\237\262\316\352"
 834      467530DC 
 834      C199D8C1 
 834      F09FB2CE 
 834      EA
 835 1f2d 60F84F59 		.ascii	"`\370OY\227t\320\376SV\245\370\223D1\373\017\2517%\212"
 835      9774D0FE 
 835      5356A5F8 
 835      934431FB 
 835      0FA93725 
 836 1f42 D97F48BD 		.ascii	"\331\177H\275'Q\314\376C\352#\211b/S|:Q\234\301\024"
 836      2751CCFE 
 836      43EA2389 
 836      622F537C 
 836      3A519CC1 
 837 1f57 5F4F1437 		.ascii	"_O\0247c\212G\373\342\305\231L\361\264Dq\026S\274(Q"
 837      638A47FB 
 837      E2C5994C 
 837      F1B44471 
 837      1653BC28 
 838 1f6c DC9C295E 		.ascii	"\334\234)^\237(n\301\024oO\024\267d\212\367'\212[1\305"
 838      9F286EC1 
 838      146F4F14 
 838      B7648AF7 
 838      278A5B31 
 839 1f81 C713C5AD 		.ascii	"\307\023\305\255\231\342\253\211\3426,\335\017\305\213"
 839      99E2AB89 
 839      E2362CDD 
ARM GAS  /tmp/ccuN5Dk8.s 			page 67


 839      0FC58B
 840 1f90 EF537449 		.ascii	"\357StI~Zn\244%l\004\346\364\330!\366"
 840      7E5A6EA4 
 840      256C04E6 
 840      F4D821F6 
 841 1fa0 798D37D2 		.ascii	"y\2157\322\314\234\315\327zg\2638y\030\237\365\220q"
 841      CC9CCDD7 
 841      7A67B338 
 841      79189FF5 
 841      9071
 842 1fb2 37BA6330 		.ascii	"7\272c0\302\216\213\315\336\005\361\304\\\303x\202\364"
 842      C28E8BCD 
 842      DE05F1C4 
 842      5CC37882 
 842      F4
 843 1fc3 073342EE 		.ascii	"\0073B\356\351\011!G\375\023.P\324\216_\313D\243\210"
 843      E9092147 
 843      FD132E50 
 843      D48E5FCB 
 843      44A388
 844 1fd6 F7031342 		.ascii	"\367\003\023B\207g\030\020\332pg\357|3BI\333f\204\216"
 844      87671810 
 844      DA7067EF 
 844      7C334249 
 844      DB66848E 
 845 1fea CCD0117A 		.ascii	"\314\320\021zAL\222\3302\023Bj\014\011YW\363\215\303"
 845      414C92D8 
 845      3213426A 
 845      0C095957 
 845      F38DC3
 846 1ffd 6C9CB0   		.ascii	"l\234\260"
 847 2000 12D99B7A 		.ascii	"\022\331\233zJ\026\273m\213\254\326\204\322\267\215"
 847      4A16BB6D 
 847      8BACD684 
 847      D2B78D
 848 200f 288DD5EF 		.ascii	"(\215\325\357|[\026\015'CVt\216\265\244s\207!]1\023"
 848      7C5B160D 
 848      27435674 
 848      8EB5A473 
 848      87215D31 
 849 2024 BAC61BD2 		.ascii	"\272\306\033\322u -\272&Z\322\325\225\025\037\377\211"
 849      75202DBA 
 849      265AD2D5 
 849      95151FFF 
 849      89
 850 2035 8F0DA77F 		.ascii	"\217\015\247\177\220p\225zr\006>\212\360\220~\220\264"
 850      9070957A 
 850      72063E8A 
 850      F0907E90 
 850      B4
 851 2046 FF687182 		.ascii	"\377hq\202\014\335\324\2214a\306\334\364\014\213\265"
 851      0CDDD491 
 851      3461C6DC 
 851      F40C8BB5 
 852 2056 BAAF4DA4 		.ascii	"\272\257M\244;C+\335\337\012seyo\303\235\353'E\262\222"
 852      3B432BDD 
 852      DF0A7365 
ARM GAS  /tmp/ccuN5Dk8.s 			page 68


 852      796FC39D 
 852      EB2745B2 
 853 206b 2ECB779A 		.ascii	".\313w\232\232\304\370\372\330\3768\210\031\015\263"
 853      9AC4F8FA 
 853      D8FE3888 
 853      190DB3
 854 207a 1270696E 		.ascii	"\022pinX\316\321\252(K\030\303\362\337\335|\277r^F\226"
 854      58CED1AA 
 854      284B18C3 
 854      F2DFDD7C 
 854      BF725E46 
 855 208f A0FB98CE 		.ascii	"\240\373\230\316\333\022\222\322\311\227\304Jf\265\336"
 855      DB1292D2 
 855      C997C44A 
 855      66B5DE
 856 209e 37AD45E2 		.ascii	"7\255E\3427\263Z\363Mj\361K\344\003\275\321\022N\271"
 856      37B35AF3 
 856      4D6AF14B 
 856      E403BDD1 
 856      124EB9
 857 20b1 CE022E30 		.ascii	"\316\002.0\245\230\350\323\254\326B\323Z\344\355\007"
 857      A598E8D3 
 857      ACD642D3 
 857      5AE4ED07 
 858 20c1 66B51699 		.ascii	"f\265\026\231\326\372\332B:\213Mk\021\247kVk\211i\255"
 858      D6FADA42 
 858      3A8B4D6B 
 858      11A76B56 
 858      6B8969AD 
 859 20d5 7B166D2D 		.ascii	"{\026m-5\251\245\354\3435\270\246h\337\310\221\024\237"
 859      35A9A5EC 
 859      E335B8A6 
 859      68DFC891 
 859      149F
 860 20e7 2DCBA0DB 		.ascii	"-\313\240\333x\232\177\212\200w\230N\32122\342\012\312"
 860      789A7F8A 
 860      8077984E 
 860      D13232E2 
 860      0ACA
 861 20f9 CA6033D6 		.ascii	"\312`3\326\212\373\310\224A\362\330\250Y\255\345\246"
 861      8AFBC894 
 861      41F2D8A8 
 861      59ADE5A6 
 862 2109 B5DEB410 		.ascii	"\265\336\264\020\346\012\323Zc-j\2554\255\265\300B\005"
 862      E60AD35A 
 862      632D6AAD 
 862      34ADB5C0 
 862      4205
 863 211b AB4C6B4D 		.ascii	"\253LkM\264hk\265i\255\351\026\322X\303\270Cg\311\200"
 863      B4686BB5 
 863      69ADE916 
 863      D258C3B8 
 863      4367C980 
 864 212f 40D8DDA3 		.ascii	"@\330\335\243\357K\276\034\341\331\354\001U\025\301"
 864      EF4BBE1C 
 864      E1D9EC01 
 864      5515C1
ARM GAS  /tmp/ccuN5Dk8.s 			page 69


 865 213e EC92AAD2 		.ascii	"\354\222\252\322\241\331\245\301A\331%\003B\375BU\221"
 865      A1D9A5C1 
 865      41D92503 
 865      42FD4255 
 865      91
 866 214f EC687860 		.ascii	"\354hx`\345k\331\220\011\016\211f\227\005\242e\221\354"
 866      E56BD990 
 866      090E8966 
 866      9705A265 
 866      91EC
 867 2161 48B8243B 		.ascii	"H\270$;T\031\015\366\017\206;\016\020\234\335^)\316"
 867      54190DF6 
 867      0F863B0E 
 867      109CDD5E 
 867      29CE
 868 2173 7BD25EED 		.ascii	"{\322^\355\2622\250\350\352\336\265\270{\221\247,\342"
 868      B232A8E8 
 868      EADEB5B8 
 868      7B91A72C 
 868      E2
 869 2184 8F0EAD0E 		.ascii	"\217\016\255\016:J\303\203\\%\221\320\377\012\272+\375"
 869      3A4AC383 
 869      5C2591D0 
 869      FF0ABA2B 
 869      FD
 870 2195 7067C435 		.ascii	"pg\3045\270\254<\320\337[\026\011\371I\306\371r~a\256"
 870      B8AC3CD0 
 870      DF5B1609 
 870      F949C6F9 
 870      727E61AE 
 871 21a9 142ACDA8 		.ascii	"\024*\315\250\364\207\253\252\242\245\241\260+\227\024"
 871      F487ABAA 
 871      A2A5A1B0 
 871      2B9714
 872 21b8 352B0F44 		.ascii	"5+\017D\242\376\222\362\201\221h\263\262p0H\263^\304"
 872      A2FE92F2 
 872      819168B3 
 872      B2703048 
 872      B35EC4
 873 21cb 0856465D 		.ascii	"\010VF]e\004\3223\250\252\274_ \022\364@!~Cu\362\355"
 873      6504D233 
 873      A8AABC5F 
 873      2012F440 
 873      217E4375 
 874 21e1 2D0D4403 		.ascii	"-\015D\003X08T\031\011\226D\035\360\355*\316\351\331"
 874      58303854 
 874      19099644 
 874      1DF0ED2A 
 874      CEE9D9
 875 21f4 B5B045A4 		.ascii	"\265\260E\244\264\242\002\350\251\250.\017\002\261\036"
 875      B4A202E8 
 875      A9A82E0F 
 875      02B11E
 876 2203 FCE98FBA 		.ascii	"\374\351\217\272\360\373\351T\354\016\010\224\203\210"
 876      F0FBE954 
 876      EC0E0894 
 876      8388
ARM GAS  /tmp/ccuN5Dk8.s 			page 70


 877 2211 8094D260 		.ascii	"\200\224\322`6\251\027\251\016\001HF\237>9\271\341\320"
 877      36A917A9 
 877      0E014846 
 877      9F3E39B9 
 877      E1D0
 878 2223 A060382B 		.ascii	"\240`8+\236\373s\237b\227\277[UUyf(\342'D\204\243\301"
 878      9EFB739F 
 878      6297BF5B 
 878      55557966 
 878      28E22744 
 879 223a D22CC857 		.ascii	"\322,\310W\207\253\242@Q\260\324SRUY\011\271f\245\241"
 879      87ABA240 
 879      51B0D453 
 879      52555909 
 879      B966A5A1 
 880 224e 88927D38 		.ascii	"\210\222}8{`$\234\035\010W<QYU\031|\"\030\350\027\212"
 880      7B60249C 
 880      1D08573C 
 880      51595519 
 880      7C2218E8 
 881 2264 371701D9 		.ascii	"7\027\001\331TF\2415\357@\370~\262\213?\372\224\305"
 881      5446A135 
 881      EF40F87E 
 881      B28B3FFA 
 881      94C5
 882 2276 DD1501A0 		.ascii	"\335\025\001\240\2752\230\355/\015\226\005\006\226G"
 882      BD3298ED 
 882      2F0D9605 
 882      069647
 883 2285 511711A8 		.ascii	"Q\027\021\250\335\314\357W\353{H\346Y\1774\203\026A"
 883      DDCCEF57 
 883      EB7B48E6 
 883      597F3483 
 883      1641
 884 2297 CE190E06 		.ascii	"\316\031\016\006J]\203\303\241h\320\031\031ZY\362{;"
 884      4A5D83C3 
 884      A168D019 
 884      195A59F2 
 884      7B3B
 885 22a9 F280BC3F 		.ascii	"\362\200\274?T\325\257\274\252\3445h\247e7\222\311\015"
 885      54D5AFBC 
 885      AAE43568 
 885      A7653792 
 885      C90D
 886 22bb 0E0A9504 		.ascii	"\016\012\225\004{U\226Uy\373\225\277\346G\235\221L\345"
 886      7B559655 
 886      79FB95BF 
 886      E6479D91 
 886      4CE5
 887 22cd C00A6FFF 		.ascii	"\300\012o\377`\024\004SV\345\030T\021m\006\205\221("
 887      60140453 
 887      56E51854 
 887      116D0685 
 887      9128
 888 22df 68D61F6D 		.ascii	"h\326\037m\326\255\367\213\376\227\372\366\352\333\253"
 888      D6ADF78B 
 888      FE97FAF6 
ARM GAS  /tmp/ccuN5Dk8.s 			page 71


 888      EADBAB
 889 22ee D84BB245 		.ascii	"\330K\262E\305\371\005X\3265\247\270\327\237\363Z\220"
 889      C5F90558 
 889      D635A7B8 
 889      D79FF35A 
 889      90
 890 22ff 6C4E7EDF 		.ascii	"lN~\337\276y\360\263o\217\326\344gn\257\242DI\006))"
 890      BE79F0B3 
 890      6F8FD6E4 
 890      676EAFA2 
 890      44490629 
 891 2314 CCEB9AFB 		.ascii	"\314\353\232\373J\246\232\203R\314\277\\\330\253X\315"
 891      4AA69A83 
 891      52CCBF5C 
 891      D8AB58CD 
 892 2324 17BDD237 		.ascii	"\027\275\3227\007\362.l\325Q\022*u\224DJ\275%\201\352"
 892      07F22E6C 
 892      D551122A 
 892      7594444A 
 892      BD2581EA 
 893 2338 4049283A 		.ascii	"@I(:4\227\207\361\352\252p4\222]T\334\347\311.\331\275"
 893      349787F1 
 893      EAAA7034 
 893      925D54DC 
 893      E7C92ED9 
 894 234d 7BE76617 		.ascii	"{\347f\027\025\364\032\3249\033L\302_^^J\314\002\012"
 894      15F41AD4 
 894      391B4CC2 
 894      5F5E5E4A 
 894      CC020A
 895 2360 A83174B1 		.ascii	"\2501t\261#GjS\315\340K\225\010\340\250\022!Y\"\021"
 895      23476A53 
 895      CDE04B95 
 895      08E0A812 
 895      21592211 
 896 2374 824DB9C4 		.ascii	"\202M\271\304\277R\331d\221lN~\237\202\336y\305y\315"
 896      BF52D964 
 896      916C4E7E 
 896      9F82DE79 
 896      C579CD
 897 2387 01A02450 		.ascii	"\001\240$P\016\375\243\3445\177\324\035\254,\365\227"
 897      0EFDA3E4 
 897      357FD41D 
 897      AC2CF597 
 898 2397 F4CB4B87 		.ascii	"\364\313K\207\257\036\005\275\362\007u\311\256\006\375"
 898      AF1E05BD 
 898      F20775C9 
 898      AE06FD
 899 23a6 52C6B222 		.ascii	"R\306\262\"\321\0120\240\376\325\241*\3509}\362s\363"
 899      D10A30A0 
 899      FED5A12A 
 899      E8397DF2 
 899      73F3
 900 23b8 0ADDF9C5 		.ascii	"\012\335\371\305\257\024\344\025z\362\213\012\362\362"
 900      AF14E415 
 900      7AF28B0A 
 900      F2F2
ARM GAS  /tmp/ccuN5Dk8.s 			page 72


 901 23c6 720B5D05 		.ascii	"r\013]\005/\025\344\026:z\301\225\237[(\276\2146\333"
 901      2F15E416 
 901      3A7AC195 
 901      9F5B28BE 
 901      8C36DB
 902 23d9 F969E085 		.ascii	"\371i\340\205\332\032\311:\"\301\250\253\244<\030\010"
 902      DA1AC93A 
 902      22C1A8AB 
 902      A43C1808 
 903 23e9 8B3D9DDD 		.ascii	"\213=\235\335\212\012\013\235\275s^,tv\355^\330\233"
 903      8A0A0B9D 
 903      BD735E2C 
 903      7476ED5E 
 903      D89B
 904 23fb 243D1DDD 		.ascii	"$=\035\335\012\013\233\205\252\0105\241R\340 \022!Y"
 904      0A0B9B85 
 904      AA0835A1 
 904      52E02012 
 904      2159
 905 240d 177C0540 		.ascii	"\027|\005@Y\341\316D\0049U\225e\241\376\356\022\374"
 905      59E1CE44 
 905      04395595 
 905      65A1FEEE 
 905      12FC
 906 241f 4AE9EAC2 		.ascii	"J\351\352\302\321\270\220K\006D\206F\324>\341\215\016"
 906      D1B8904B 
 906      06448646 
 906      D43EE18D 
 906      0E
 907 2430 20860F3D 		.ascii	" \206\017=\241d\200\237\346\237\262\207U2\200\310\305"
 907      A164809F 
 907      E69FB287 
 907      553280C8 
 907      C5
 908 2441 5DEDAF04 		.ascii	"]\355\257\004\207\010_\325\341\340\240\236\034\020T"
 908      87085FD5 
 908      E1E0A09E 
 908      1C1054
 909 2450 D45D0BFB 		.ascii	"\324]\013\373\344\364\031\002wVT\207\312\203\341Hv\217"
 909      E4F41902 
 909      77565487 
 909      CA83E148 
 909      768F
 910 2462 9C1CB85D 		.ascii	"\234\034\270]%\317\023\255\016\023I#n\250\212\370\215"
 910      25CF13AD 
 910      0E134923 
 910      6EA88AF8 
 910      8D
 911 2473 2834F39C 		.ascii	"(4\363\234m\374\001%Ua\342\3642I1\364\275hIt\310\277"
 911      6DFC0125 
 911      5561E2F4 
 911      324931F4 
 911      BD684974 
 912 2489 A587E21F 		.ascii	"\245\207\342\037\364L\005\221\\8\330\037\034\020Qf\347"
 912      F44C0591 
 912      5C38D81F 
 912      1C105166 
ARM GAS  /tmp/ccuN5Dk8.s 			page 73


 912      E7
 913 249a A7E17A06 		.ascii	"\247\341z\006\256g\341z\316\021\351\322\011\256\316"
 913      AE67E17A 
 913      CE11E9D2 
 913      09AECE
 914 24a9 707581EB 		.ascii	"pu\201\353I\270\236\202\353wp\301}]\340\276.p_\027\270"
 914      49B89E82 
 914      EB7770C1 
 914      7D5DE0BE 
 914      2E705F17 
 915 24be EF49B8EF 		.ascii	"\357I\270\357\311\316R\370))\374;)\374\264\024~F\012"
 915      C9CE52F8 
 915      2929FC3B 
 915      29FCB414 
 915      7E460A
 916 24d1 3F2B859F 		.ascii	"?+\205\237s\204;w\202\253\263T\036\206\257']\325~\240"
 916      73843B77 
 916      82ABB354 
 916      1E86AF27 
 916      5DD57EA0 
 917 24e5 D643243C 		.ascii	"\326C$<8\030\206\357\252\362\322`\230H<P\021\364F\225"
 917      381886EF 
 917      AAF2D260 
 917      98483C50 
 917      11F44695 
 918 24f9 AE02E598 		.ascii	"\256\002\345\230\363D+\252J\351o2\310D<\321p\220\014"
 918      F3442BAA 
 918      4AE96F32 
 918      C8443CD1 
 918      70900C
 919 250c 48703FC9 		.ascii	"Hp?\311\270*\"\375\341\217\212\037\004\377\247\344\334"
 919      B82A22FD 
 919      E18F8A1F 
 919      04FFA7E4 
 919      DC
 920 251d E1D2A1F0 		.ascii	"\341\322\241\360'opH(\012\022\011\272\007G\253\372\375"
 920      276F7048 
 920      280A1209 
 920      BA0747AB 
 920      FAFD
 921 252f 7B756670 		.ascii	"{ufp\020\0149\025\201\010v\244\301$\343\250\366\017"
 921      100C3915 
 921      810876A4 
 921      C124E3A8 
 921      F60F
 922 2541 6C414D25 		.ascii	"lAM%\342/\207\236\352\217\266\214\033\017-\311\250\366"
 922      E22F879E 
 922      EA8FB68C 
 922      1B0F2DC9 
 922      A8F6
 923 2553 0F0E84A2 		.ascii	"\017\016\204\242\241\312\376-\325\342\327\007\006\007"
 923      A1CAFE2D 
 923      D5E2D707 
 923      0607
 924 2561 0255AD98 		.ascii	"\002U\255\230;\261\250Y\265\037\232\305\254\013\263"
 924      3BB1A859 
 924      B51F9AC5 
ARM GAS  /tmp/ccuN5Dk8.s 			page 74


 924      AC0BB3
 925 2570 5010AC86 		.ascii	"P\020\254\206.\013\225]\025\003A\333)\007b\215=VD\207"
 925      2E0B955D 
 925      150341DB 
 925      2907628D 
 925      3D564487 
 926 2584 10BBA9A0 		.ascii	"\020\273\251\240\350\360]5\270\022\204\206H\300B\005"
 926      E8F05D35 
 926      B8128486 
 926      48C04205 
 927 2594 9A29D007 		.ascii	"\232)\320\007\367\021J\233\021\251\004\312\321\270\240"
 927      F7114A9B 
 927      11A904CA 
 927      D1B8A0
 928 25a3 B01A46AD 		.ascii	"\260\032F\255gl\265\2470\003m\266Q\272\022H9\030\016"
 928      676CB5A7 
 928      30036DB6 
 928      51BA1248 
 928      39180E
 929 25b6 569600B7 		.ascii	"V\226\000\267nZ\364\257<\241DN\237\242^E\340z\262\321"
 929      6E5AF4AF 
 929      3CA1444E 
 929      9FA25E45 
 929      E07AB2D1 
 930 25ca C3943DD5 		.ascii	"\303\224=\325\251\363\220\022b\260\304\261\025Cw\310"
 930      A9F39012 
 930      62B0C4B1 
 930      154377C8 
 931 25da 0D963972 		.ascii	"\015\2269r\012;\303\325E**\224\300\321\344\024\346\024"
 931      0A3BC3D5 
 931      452A2A94 
 931      C0D1E414 
 931      E614
 932 25ec 14BA0BFF 		.ascii	"\024\272\013\377\002\337\205\356b\374\362\364\352R\224"
 932      02DF85EE 
 932      62FCF2F4 
 932      EA5294
 933 25fb D3BD47A1 		.ascii	"\323\275G\241\013\276\013\012\035\340\007\273\333u{"
 933      0BBE0B0A 
 933      1DE007BB 
 933      DB757B
 934 260a 98767F6A 		.ascii	"\230v\177j\310\020J\210\277\264\"@\230\313\355\323\325"
 934      C8104A88 
 934      BFB42240 
 934      98CBEDD3 
 934      D5
 935 261b 5F04A614 		.ascii	"_\004\246\024\250P\251\221r\012\235}s\213\013\035\005"
 935      A850A991 
 935      720A9D7D 
 935      738B0B1D 
 935      05
 936 262c 5D0B9D7D 		.ascii	"]\013\235}:\221\244s\327BGw &\2027:Ce%aw(2 T\026\315"
 936      3A91A473 
 936      D7424777 
 936      20268237 
 936      3A436525 
 937 2648 8804CBCB 		.ascii	"\210\004\313\313B\225\245\301!\356A0\332W\205\333\304"
ARM GAS  /tmp/ccuN5Dk8.s 			page 75


 937      4295A5C1 
 937      21EE4130 
 937      DA5785DB 
 937      C4
 938 2659 D1FDF46E 		.ascii	"\321\375\364np\247\360#<\204\244\321!\031\341!\360M"
 938      70A7F023 
 938      3C84A4D1 
 938      2119E121 
 938      F04D
 939 266b 2C3923AA 		.ascii	",9#\252\346\234\300N\265\253<RR\326\3375\200\244$\370"
 939      E69CC04E 
 939      B5AB3C52 
 939      52D6DF35 
 939      80A424F8 
 940 267f A06EB025 		.ascii	"\240n\260%\216\275\376@ii8\030\211\004#N\210PJ\311\375"
 940      8EBDFE40 
 940      69693818 
 940      8904234E 
 940      88504AC9 
 941 2694 A59E32F0 		.ascii	"\245\2362\360+\340\360\274PR\010\272\030\012\321\031"
 941      2BE0F0BC 
 941      505208BA 
 941      180AD119 
 942 26a4 7E372781 		.ascii	"~7'\201RyU\177\032\362e%~\201\247N\374pDJK<\220-\010"
 942      5279557F 
 942      1AF26525 
 942      7E81A74E 
 942      FC70444A 
 943 26bd 44076495 		.ascii	"D\007d\225\222\021\255O\325@\360A\245\356J\004Ni\234"
 943      9211AD4F 
 943      D540F041 
 943      A5EE4A04 
 943      4E699C
 944 26d0 8302605A 		.ascii	"\203\002`Z\003#\360\007\260\261\312(\211\022\355\031"
 944      0323F007 
 944      B0B1CA28 
 944      8912ED19 
 945 26e0 18950E31 		.ascii	"\030\225\0161\260\373\273AXW\024\004\303\256\214\206"
 945      B0FBBB41 
 945      58571404 
 945      C3AE8C86 
 946 26f0 02E5541B 		.ascii	"\002\345T\033\2772*\204\010\254\013FH\345\241~\331\375"
 946      BF322A84 
 946      08AC0B46 
 946      48E5A17E 
 946      D9FD
 947 2702 4B4A7491 		.ascii	"KJt\221\322S\035\237\355\370\024\033]A\244D|8\211Q\300"
 947      D2531D9F 
 947      EDF8141B 
 947      5D41A444 
 947      7C388951 
 948 2717 9F550F8C 		.ascii	"\237U\017\214: B\361\252$; \343(\253\210\262\022+\021"
 948      3A2042F1 
 948      AA243B20 
 948      E328AB88 
 948      B2122B11 
 949 272b DC346EF2 		.ascii	"\3344n\362\242\007\201Lk\370\013\021I\337\340\340\216"
ARM GAS  /tmp/ccuN5Dk8.s 			page 76


 949      A207814C 
 949      6BF80B11 
 949      49DFE0E0 
 949      8E
 950 273c D58170B4 		.ascii	"\325\201p\264c\247\014\245\004\334\215\222s\022\217"
 950      63A70CA5 
 950      04DC8D92 
 950      73128F
 951 274b E55624DB 		.ascii	"\345V$\333\275Wo\251,\342$N\312\021\014\207\235e\325"
 951      BD576FA9 
 951      2CE2244E 
 951      CA110C87 
 951      9D65D5
 952 275e D1B03B82 		.ascii	"\321\260;\202\261\256\213\246\245$~\365B`\353'\031\022"
 952      B1AE8BA6 
 952      A5247EF5 
 952      4260EB27 
 952      1912
 953 2770 E1FAE11E 		.ascii	"\341\372\341\036G\277\201eN\202\346\031\034\316!\312"
 953      47BF8165 
 953      4E82E619 
 953      1CCE21CA 
 954 2780 705681BF 		.ascii	"pV\201\277\270Oi\342e\022\301Q\002:;\240\354w\266\342"
 954      B84F69E2 
 954      6512C151 
 954      023A3BA0 
 954      EC77B6E2 
 955 2794 8F601864 		.ascii	"\217`\030dH\314\241\010s4\204i\311\376\000\321f\220"
 955      48CCA108 
 955      73348469 
 955      C9FE00D1 
 955      6690
 956 27a6 F1335401 		.ascii	"\3613T\001|9ATQ'\310*\352\306\3101\352\"\335=\2322\226"
 956      7C394154 
 956      5127C82A 
 956      EAC6C831 
 956      EA22DD3D 
 957 27bd D628183D 		.ascii	"\326(\030=,\321o\013\314\371#U\003\303\304yd\261?"
 957      2CD16F0B 
 957      CCF92355 
 957      03C3C479 
 957      64B13F
 958 27d0 5BD11FC4 		.ascii	"[\321\037\304e\005+\211\215\266\320\026x\202\345\350"
 958      65052B89 
 958      8DB6D016 
 958      7882E5E8 
 959 27e0 D932E15B 		.ascii	"\3312\341[-\313\200<\005\247P8\034\200\306\240\030\263"
 959      2DCB803C 
 959      05A75038 
 959      1C80C6A0 
 959      18B3
 960 27f2 E4EF83E9 		.ascii	"\344\357\203\351\030\021\214`m\027\336\227\021)U\306"
 960      18118C60 
 960      6D17DE97 
 960      112955C6 
 961 2802 948CA25C 		.ascii	"\224\214\242\\%\372\362@\216\004_^\370\306\330\313\036"
 961      25FAF240 
ARM GAS  /tmp/ccuN5Dk8.s 			page 77


 961      8E045F5E 
 961      F8C6D8CB 
 961      1E
 962 2813 8FE88C09 		.ascii	"\217\350\214\011\217\315C\225 3u4\200\030G\315z\325"
 962      8FCD4395 
 962      20337534 
 962      801847CD 
 962      7AD5
 963 2825 6CC6EBEA 		.ascii	"l\306\353\352\330\001\271\022\354la\357\353~P:\270U"
 963      D801B912 
 963      EC6C61EF 
 963      EB7E503A 
 963      B855
 964 2837 D7EBFE68 		.ascii	"\327\353\376hU\265\007n\011\203%\300w\270\024\2763^"
 964      55B5076E 
 964      098325C0 
 964      77B814BE 
 964      335E
 965 2849 AFAC8A86 		.ascii	"\257\254\212\206\312\206\002\312\353~\232u\277\016b"
 965      CA8602CA 
 965      EB7E9A75 
 965      BF0E62
 966 2858 A87CCD1D 		.ascii	"\250|\315\035B\314\026U\003\243L\263\356*\314H\241~"
 966      42CC1655 
 966      03A34CB3 
 966      EE2ACC48 
 966      A17E
 967 286a 5255BFE6 		.ascii	"RU\277\346/\025u-,f\\\354\223\316\036\305\005\205\256"
 967      2F15752D 
 967      2C665CEC 
 967      93CE1EC5 
 967      0585AE
 968 287d 8111B0A1 		.ascii	"\201\021\260\241\373\211\311\367F{\355U\031\"\035\014"
 968      FB89C9F7 
 968      467BED55 
 968      19221D0C 
 969 288d BA881429 		.ascii	"\272\210\024)u\224\366\353\337\"\361\267\" \252Y\302"
 969      7594F6EB 
 969      DF22F1B7 
 969      2220AA59 
 969      C2
 970 289e FE5D65C4 		.ascii	"\376]e\304\3163\225\202\"\250\322\222\265\316\234\310"
 970      CE339582 
 970      22A8D292 
 970      B5CE9CC8 
 971 28ae 20177C55 		.ascii	" \027|UD\300)\202\241\006\300\033\272+\261@\355C=\202"
 971      44C02982 
 971      A106C01B 
 971      BA2BB140 
 971      ED433D82 
 972 28c2 D197A96D 		.ascii	"\321\227\251mg)%9\345U\221\240\372\347|\260\367\256"
 972      67292539 
 972      E55591A0 
 972      FAE77CB0 
 972      F7AE
 973 28d4 D56490CC 		.ascii	"\325d\220\314bq\335\345\301\312\376\321\001\031\244"
 973      6271DDE5 
ARM GAS  /tmp/ccuN5Dk8.s 			page 78


 973      C1CAFED1 
 973      0119A4
 974 28e3 3BE0FDB6 		.ascii	";\340\375\266|@ \334\237\014\234\203\002h?-\374\376"
 974      7C4020DC 
 974      9F0C9C83 
 974      02683F2D 
 974      FCFE
 975 28f5 FE95034B 		.ascii	"\376\225\003K\374\312\317\314?\364\033\030*\217>\021"
 975      FCCACFCC 
 975      3FF41B18 
 975      2A8F3E11 
 976 2905 AA7C5E80 		.ascii	"\252|^\200\230A)\205\230q\020u\021\236\356\205yE/\365"
 976      98412985 
 976      98711075 
 976      119EEE85 
 976      79452FF5 
 977 2919 2E76752F 		.ascii	".vu/\364\347\277\230\011)LL^\364\347A\030\013\371^}"
 977      F4E7BF98 
 977      09294C4C 
 977      5EF4E741 
 977      180BF95E 
 978 292e 8B49360B 		.ascii	"\213I6\013\262}\363\213\225\330\035\177\370\301\011"
 978      B27DF38B 
 978      95D81D7F 
 978      F8C109
 979 293d E429D982 		.ascii	"\344)\331\202\256\305=[\342\335\177\356\332\273W\256"
 979      AEC53D5B 
 979      E2DD7FEE 
 979      DABB57AE 
 980 294d BF6FD73E 		.ascii	"\277o\327>y\031\004)\257o\257\274\\/\344\362\376\322"
 980      79190429 
 980      AF6FAFBC 
 980      5C2FE4F2 
 980      FED2
 981 295f ABA8B835 		.ascii	"\253\250\2705sK~\267?\301\314\247\015\224\220\371M\236"
 981      734B7EB7 
 981      3FC1CCA7 
 981      0D9490F9 
 981      4D9E
 982 2971 BFA030BF 		.ascii	"\277\2400\277\030\012\362r[17\345\026\222\271\223\322"
 982      180AF272 
 982      5B3137E5 
 982      1692B993 
 982      D2
 983 2982 765EDFAE 		.ascii	"v^\337\256\335z\323\277+\255\027\275RT\234\327\2074"
 983      DD7AD3BF 
 983      2BAD17BD 
 983      52549CD7 
 983      8734
 984 2994 DCE7C5EE 		.ascii	"\334\347\305\356E\376\256\335\362\013\001\200\320T\334"
 984      45FEAEDD 
 984      F20B0180 
 984      D054DC
 985 29a3 AB4F5EFE 		.ascii	"\253O^\376K\305\204\206\336\3719/\346\345\266\211\203"
 985      4BC58486 
 985      DEF9392F 
 985      E6E5B689 
ARM GAS  /tmp/ccuN5Dk8.s 			page 79


 985      83
 986 29b4 E4BFD4A3 		.ascii	"\344\277\324\243'L7\012\363~I\356\313\317\367\367\351"
 986      274C370A 
 986      F37E49EE 
 986      CBCFF7F7 
 986      E9
 987 29c5 DAF7157F 		.ascii	"\332\367\025\177~A^_\212y?\323>\014\217\300I1\314\020"
 987      7E415E5F 
 987      8A793FD3 
 987      3E0C8FC0 
 987      4931CC10 
 988 29d9 CA60265F 		.ascii	"\312`&_E\246\354\376\012\242\333f8\361\006]w/r\227\371"
 988      45A6ECFE 
 988      0AA2DB66 
 988      38F1065D 
 988      772F7297 
 989 29ee 89D6E02F 		.ascii	"\211\326\340/\345\221`\3605\347K 2\370\201N\305\225"
 989      E59160F0 
 989      35E74B20 
 989      32F8814E 
 989      C595
 990 2a00 9BD7EDA5 		.ascii	"\233\327\355\245\036\377\017\200\010\210\252"
 990      1EFF0F80 
 990      0888AA
 991              		.text
 992              		.section	.gnu.lto_.symtab.b3051b2299b6d9b5,"",%progbits
 993 0000 64617461 		.ascii	"dataLoggerInitialize\000\000\000\000\000\000\000\000"
 993      4C6F6767 
 993      6572496E 
 993      69746961 
 993      6C697A65 
 994 001c 00000000 		.ascii	"\000\000\000\000P\003\000\000dataLoggerStop\000\000"
 994      50030000 
 994      64617461 
 994      4C6F6767 
 994      65725374 
 995 0034 00000000 		.ascii	"\000\000\000\000\000\000\000\000\000\000\365\003\000"
 995      00000000 
 995      0000F503 
 995      00
 996 0041 006C6F67 		.ascii	"\000logfileNew\000\000\000\000\000\000\000\000\000\000"
 996      66696C65 
 996      4E657700 
 996      00000000 
 996      00000000 
 997 0056 0000FB03 		.ascii	"\000\000\373\003\000\000logfileSize\000\000\000\000"
 997      00006C6F 
 997      6766696C 
 997      6553697A 
 997      65000000 
 998 006b 00000000 		.ascii	"\000\000\000\000\000\000\000\000\010\004\000\000log"
 998      00000000 
 998      08040000 
 998      6C6F67
 999 007a 66696C65 		.ascii	"fileWriteCsv\000\000\000\000\000\000\000\000\000\000"
 999      57726974 
 999      65437376 
ARM GAS  /tmp/ccuN5Dk8.s 			page 80


 999      00000000 
 999      00000000 
 1000 0090 00000E04 		.ascii	"\000\000\016\004\000\000logfileGetWrCount\000\000\000"
 1000      00006C6F 
 1000      6766696C 
 1000      65476574 
 1000      5772436F 
 1001 00aa 00000000 		.ascii	"\000\000\000\000\000\000\000\000\000\036\004\000\000"
 1001      00000000 
 1001      001E0400 
 1001      00
 1002 00b7 6C6F6766 		.ascii	"logfileClose\000\000\000\000\000\000\000\000\000\000"
 1002      696C6543 
 1002      6C6F7365 
 1002      00000000 
 1002      00000000 
 1003 00cd 00002404 		.ascii	"\000\000$\004\000\000logfileOpenAppend\000\000\000\000"
 1003      00006C6F 
 1003      6766696C 
 1003      654F7065 
 1003      6E417070 
 1004 00e8 00000000 		.ascii	"\000\000\000\000\000\000\000\000*\004\000\000logfil"
 1004      00000000 
 1004      2A040000 
 1004      6C6F6766 
 1004      696C
 1005 00fa 65577269 		.ascii	"eWrite\000\000\000\000\000\000\000\000\000\000\000\000"
 1005      74650000 
 1005      00000000 
 1005      00000000 
 1005      0000
 1006 010c 2E040000 		.ascii	".\004\000\000chvprintf\000\000\002\000\000\000\000\000"
 1006      63687670 
 1006      72696E74 
 1006      66000002 
 1006      00000000 
 1007 0121 00000000 		.ascii	"\000\000\000\000=\004\000\000f_close\000\000\002\000"
 1007      3D040000 
 1007      665F636C 
 1007      6F736500 
 1007      000200
 1008 0134 00000000 		.ascii	"\000\000\000\000\000\000\000\000L\004\000\000f_moun"
 1008      00000000 
 1008      4C040000 
 1008      665F6D6F 
 1008      756E
 1009 0146 74000002 		.ascii	"t\000\000\002\000\000\000\000\000\000\000\000\000}\004"
 1009      00000000 
 1009      00000000 
 1009      007D04
 1010 0155 00007364 		.ascii	"\000\000sdmmcGetFS\000\000\002\000\000\000\000\000\000"
 1010      6D6D6347 
 1010      65744653 
 1010      00000200 
 1010      00000000 
 1011 016a 00000083 		.ascii	"\000\000\000\203\004\000\000f_open\000\000\002\000\000"
 1011      04000066 
ARM GAS  /tmp/ccuN5Dk8.s 			page 81


 1011      5F6F7065 
 1011      6E000002 
 1011      0000
 1012 017c 00000000 		.ascii	"\000\000\000\000\000\000\000\207\004\000\000f_lseek"
 1012      00000087 
 1012      04000066 
 1012      5F6C7365 
 1012      656B
 1013 018e 00000200 		.ascii	"\000\000\002\000\000\000\000\000\000\000\000\000\215"
 1013      00000000 
 1013      00000000 
 1013      8D
 1014 019b 04000066 		.ascii	"\004\000\000f_write\000\000\002\000\000\000\000\000"
 1014      5F777269 
 1014      74650000 
 1014      02000000 
 1014      0000
 1015 01ad 00000000 		.ascii	"\000\000\000\000\222\004\000\000"
 1015      92040000 
 1016              		.text
 1017              		.section	.gnu.lto_.opts,"",%progbits
 1018 0000 272D6D63 		.ascii	"'-mcpu=cortex-m4' '-mfloat-abi=hard' '-mfpu=fpv4-sp"
 1018      70753D63 
 1018      6F727465 
 1018      782D6D34 
 1018      2720272D 
 1019 0033 2D643136 		.ascii	"-d16' '-mno-thumb-interwork' '-mthumb' '-O2' '-fomi"
 1019      2720272D 
 1019      6D6E6F2D 
 1019      7468756D 
 1019      622D696E 
 1020 0066 742D6672 		.ascii	"t-frame-pointer' '-falign-functions=16' '-ffunction"
 1020      616D652D 
 1020      706F696E 
 1020      74657227 
 1020      20272D66 
 1021 0099 2D736563 		.ascii	"-sections' '-fdata-sections' '-fno-common' '-flto' "
 1021      74696F6E 
 1021      73272027 
 1021      2D666461 
 1021      74612D73 
 1022 00cc 272D6673 		.ascii	"'-fsingle-precision-constant'\000"
 1022      696E676C 
 1022      652D7072 
 1022      65636973 
 1022      696F6E2D 
 1023              		.text
 1024              		.section	.text.chprintf,"ax",%progbits
 1025              		.align	2
 1026              		.p2align 4,,15
 1027              		.thumb
 1028              		.thumb_func
 1029              		.type	chprintf, %function
 1030              	chprintf:
 1031              		@ args = 4, pretend = 12, frame = 8
 1032              		@ frame_needed = 0, uses_anonymous_args = 1
 1033 0000 0EB4     		push	{r1, r2, r3}
ARM GAS  /tmp/ccuN5Dk8.s 			page 82


 1034 0002 00B5     		push	{lr}
 1035 0004 82B0     		sub	sp, sp, #8
 1036 0006 03AA     		add	r2, sp, #12
 1037 0008 52F8041B 		ldr	r1, [r2], #4
 1038 000c 0192     		str	r2, [sp, #4]
 1039 000e FFF7FEFF 		bl	chvprintf
 1040 0012 02B0     		add	sp, sp, #8
 1041              		@ sp needed
 1042 0014 5DF804EB 		ldr	lr, [sp], #4
 1043 0018 03B0     		add	sp, sp, #12
 1044 001a 7047     		bx	lr
 1045              		.size	chprintf, .-chprintf
 1046 001c AFF30080 		.section	.text.dataLoggerInitialize,"ax",%progbits
 1047              		.align	2
 1048              		.p2align 4,,15
 1049              		.global	dataLoggerInitialize
 1050              		.thumb
 1051              		.thumb_func
 1052              		.type	dataLoggerInitialize, %function
 1053              	dataLoggerInitialize:
 1054              		@ args = 0, pretend = 0, frame = 0
 1055              		@ frame_needed = 0, uses_anonymous_args = 0
 1056 0000 70B5     		push	{r4, r5, r6, lr}
 1057 0002 0446     		mov	r4, r0
 1058 0004 0D46     		mov	r5, r1
 1059 0006 DAB1     		cbz	r2, .L6
 1060 0008 C0B1     		cbz	r0, .L3
 1061 000a 1249     		ldr	r1, .L11
 1062 000c 124E     		ldr	r6, .L11+4
 1063 000e 0260     		str	r2, [r0]
 1064 0010 1046     		mov	r0, r2
 1065 0012 002D     		cmp	r5, #0
 1066 0014 08BF     		it	eq
 1067 0016 0D46     		moveq	r5, r1
 1068 0018 3360     		str	r3, [r6]
 1069 001a FFF7FEFF 		bl	sdmmcGetFS
 1070 001e A560     		str	r5, [r4, #8]
 1071 0020 2946     		mov	r1, r5
 1072 0022 6060     		str	r0, [r4, #4]
 1073 0024 0122     		movs	r2, #1
 1074 0026 FFF7FEFF 		bl	f_mount
 1075 002a 0546     		mov	r5, r0
 1076 002c 58B9     		cbnz	r0, .L10
 1077 002e 0123     		movs	r3, #1
 1078 0030 3068     		ldr	r0, [r6]
 1079 0032 2373     		strb	r3, [r4, #12]
 1080 0034 0949     		ldr	r1, .L11+8
 1081 0036 FFF7FEFF 		bl	chprintf
 1082 003a 2846     		mov	r0, r5
 1083              	.L3:
 1084 003c 40B2     		sxtb	r0, r0
 1085 003e 70BD     		pop	{r4, r5, r6, pc}
 1086              	.L6:
 1087 0040 1046     		mov	r0, r2
 1088 0042 40B2     		sxtb	r0, r0
 1089 0044 70BD     		pop	{r4, r5, r6, pc}
 1090              	.L10:
ARM GAS  /tmp/ccuN5Dk8.s 			page 83


 1091 0046 3068     		ldr	r0, [r6]
 1092 0048 0549     		ldr	r1, .L11+12
 1093 004a 2A46     		mov	r2, r5
 1094 004c FFF7FEFF 		bl	chprintf
 1095 0050 FF20     		movs	r0, #255
 1096 0052 F3E7     		b	.L3
 1097              	.L12:
 1098              		.align	2
 1099              	.L11:
 1100 0054 00000000 		.word	.LC0
 1101 0058 00000000 		.word	.LANCHOR0
 1102 005c 34000000 		.word	.LC2
 1103 0060 04000000 		.word	.LC1
 1104              		.size	dataLoggerInitialize, .-dataLoggerInitialize
 1105 0064 AFF30080 		.section	.text.dataLoggerStop,"ax",%progbits
 1105      AFF30080 
 1105      AFF30080 
 1106              		.align	2
 1107              		.p2align 4,,15
 1108              		.global	dataLoggerStop
 1109              		.thumb
 1110              		.thumb_func
 1111              		.type	dataLoggerStop, %function
 1112              	dataLoggerStop:
 1113              		@ args = 0, pretend = 0, frame = 0
 1114              		@ frame_needed = 0, uses_anonymous_args = 0
 1115 0000 074B     		ldr	r3, .L14
 1116 0002 0849     		ldr	r1, .L14+4
 1117 0004 10B5     		push	{r4, lr}
 1118 0006 0446     		mov	r4, r0
 1119 0008 1868     		ldr	r0, [r3]
 1120 000a FFF7FEFF 		bl	chprintf
 1121 000e 0020     		movs	r0, #0
 1122 0010 0146     		mov	r1, r0
 1123 0012 0246     		mov	r2, r0
 1124 0014 FFF7FEFF 		bl	f_mount
 1125 0018 0020     		movs	r0, #0
 1126 001a 2073     		strb	r0, [r4, #12]
 1127 001c 10BD     		pop	{r4, pc}
 1128              	.L15:
 1129 001e 00BF     		.align	2
 1130              	.L14:
 1131 0020 00000000 		.word	.LANCHOR0
 1132 0024 54000000 		.word	.LC3
 1133              		.size	dataLoggerStop, .-dataLoggerStop
 1134 0028 AFF30080 		.section	.text.logfileNew,"ax",%progbits
 1134      AFF30080 
 1135              		.align	2
 1136              		.p2align 4,,15
 1137              		.global	logfileNew
 1138              		.thumb
 1139              		.thumb_func
 1140              		.type	logfileNew, %function
 1141              	logfileNew:
 1142              		@ args = 0, pretend = 0, frame = 0
 1143              		@ frame_needed = 0, uses_anonymous_args = 0
 1144 0000 2DE9F041 		push	{r4, r5, r6, r7, r8, lr}
ARM GAS  /tmp/ccuN5Dk8.s 			page 84


 1145 0004 174E     		ldr	r6, .L22
 1146 0006 0F46     		mov	r7, r1
 1147 0008 0446     		mov	r4, r0
 1148 000a 9046     		mov	r8, r2
 1149 000c 3068     		ldr	r0, [r6]
 1150 000e 1649     		ldr	r1, .L22+4
 1151 0010 1A46     		mov	r2, r3
 1152 0012 1D46     		mov	r5, r3
 1153 0014 FFF7FEFF 		bl	chprintf
 1154 0018 3F7B     		ldrb	r7, [r7, #12]	@ zero_extendqisi2
 1155 001a 0023     		movs	r3, #0
 1156 001c 2375     		strb	r3, [r4, #20]
 1157 001e 7FB1     		cbz	r7, .L20
 1158 0020 C4F80C80 		str	r8, [r4, #12]
 1159 0024 2361     		str	r3, [r4, #16]
 1160 0026 6560     		str	r5, [r4, #4]
 1161 0028 4046     		mov	r0, r8
 1162 002a 2946     		mov	r1, r5
 1163 002c 0A22     		movs	r2, #10
 1164 002e FFF7FEFF 		bl	f_open
 1165 0032 0746     		mov	r7, r0
 1166 0034 60B9     		cbnz	r0, .L21
 1167 0036 0123     		movs	r3, #1
 1168 0038 2375     		strb	r3, [r4, #20]
 1169 003a 40B2     		sxtb	r0, r0
 1170 003c BDE8F081 		pop	{r4, r5, r6, r7, r8, pc}
 1171              	.L20:
 1172 0040 3068     		ldr	r0, [r6]
 1173 0042 0A49     		ldr	r1, .L22+8
 1174 0044 FFF7FEFF 		bl	chprintf
 1175 0048 3846     		mov	r0, r7
 1176 004a 40B2     		sxtb	r0, r0
 1177 004c BDE8F081 		pop	{r4, r5, r6, r7, r8, pc}
 1178              	.L21:
 1179 0050 3068     		ldr	r0, [r6]
 1180 0052 0749     		ldr	r1, .L22+12
 1181 0054 3A46     		mov	r2, r7
 1182 0056 FFF7FEFF 		bl	chprintf
 1183 005a F8B2     		uxtb	r0, r7
 1184 005c 40B2     		sxtb	r0, r0
 1185 005e BDE8F081 		pop	{r4, r5, r6, r7, r8, pc}
 1186              	.L23:
 1187 0062 00BF     		.align	2
 1188              	.L22:
 1189 0064 00000000 		.word	.LANCHOR0
 1190 0068 74000000 		.word	.LC4
 1191 006c 9C000000 		.word	.LC5
 1192 0070 C4000000 		.word	.LC6
 1193              		.size	logfileNew, .-logfileNew
 1194 0074 AFF30080 		.section	.text.logfileSize,"ax",%progbits
 1194      AFF30080 
 1194      AFF30080 
 1195              		.align	2
 1196              		.p2align 4,,15
 1197              		.global	logfileSize
 1198              		.thumb
 1199              		.thumb_func
ARM GAS  /tmp/ccuN5Dk8.s 			page 85


 1200              		.type	logfileSize, %function
 1201              	logfileSize:
 1202              		@ args = 0, pretend = 0, frame = 0
 1203              		@ frame_needed = 0, uses_anonymous_args = 0
 1204              		@ link register save eliminated.
 1205 0000 0020     		movs	r0, #0
 1206 0002 7047     		bx	lr
 1207              		.size	logfileSize, .-logfileSize
 1208 0004 AFF30080 		.section	.text.logfileWriteCsv,"ax",%progbits
 1208      AFF30080 
 1208      AFF30080 
 1209              		.align	2
 1210              		.p2align 4,,15
 1211              		.global	logfileWriteCsv
 1212              		.thumb
 1213              		.thumb_func
 1214              		.type	logfileWriteCsv, %function
 1215              	logfileWriteCsv:
 1216              		@ args = 0, pretend = 0, frame = 0
 1217              		@ frame_needed = 0, uses_anonymous_args = 0
 1218              		@ link register save eliminated.
 1219 0000 0020     		movs	r0, #0
 1220 0002 7047     		bx	lr
 1221              		.size	logfileWriteCsv, .-logfileWriteCsv
 1222 0004 AFF30080 		.section	.text.logfileGetWrCount,"ax",%progbits
 1222      AFF30080 
 1222      AFF30080 
 1223              		.align	2
 1224              		.p2align 4,,15
 1225              		.global	logfileGetWrCount
 1226              		.thumb
 1227              		.thumb_func
 1228              		.type	logfileGetWrCount, %function
 1229              	logfileGetWrCount:
 1230              		@ args = 0, pretend = 0, frame = 0
 1231              		@ frame_needed = 0, uses_anonymous_args = 0
 1232              		@ link register save eliminated.
 1233 0000 0069     		ldr	r0, [r0, #16]
 1234 0002 7047     		bx	lr
 1235              		.size	logfileGetWrCount, .-logfileGetWrCount
 1236 0004 AFF30080 		.section	.text.logfileClose,"ax",%progbits
 1236      AFF30080 
 1236      AFF30080 
 1237              		.align	2
 1238              		.p2align 4,,15
 1239              		.global	logfileClose
 1240              		.thumb
 1241              		.thumb_func
 1242              		.type	logfileClose, %function
 1243              	logfileClose:
 1244              		@ args = 0, pretend = 0, frame = 0
 1245              		@ frame_needed = 0, uses_anonymous_args = 0
 1246 0000 10B5     		push	{r4, lr}
 1247 0002 0446     		mov	r4, r0
 1248 0004 C068     		ldr	r0, [r0, #12]
 1249 0006 FFF7FEFF 		bl	f_close
 1250 000a 18B9     		cbnz	r0, .L29
ARM GAS  /tmp/ccuN5Dk8.s 			page 86


 1251 000c 2061     		str	r0, [r4, #16]
 1252 000e 2075     		strb	r0, [r4, #20]
 1253              	.L28:
 1254 0010 40B2     		sxtb	r0, r0
 1255 0012 10BD     		pop	{r4, pc}
 1256              	.L29:
 1257 0014 FF20     		movs	r0, #255
 1258 0016 FBE7     		b	.L28
 1259              		.size	logfileClose, .-logfileClose
 1260 0018 AFF30080 		.section	.text.logfileOpenAppend,"ax",%progbits
 1260      AFF30080 
 1261              		.align	2
 1262              		.p2align 4,,15
 1263              		.global	logfileOpenAppend
 1264              		.thumb
 1265              		.thumb_func
 1266              		.type	logfileOpenAppend, %function
 1267              	logfileOpenAppend:
 1268              		@ args = 0, pretend = 0, frame = 0
 1269              		@ frame_needed = 0, uses_anonymous_args = 0
 1270 0000 38B5     		push	{r3, r4, r5, lr}
 1271 0002 0546     		mov	r5, r0
 1272 0004 1222     		movs	r2, #18
 1273 0006 C068     		ldr	r0, [r0, #12]
 1274 0008 6968     		ldr	r1, [r5, #4]
 1275 000a FFF7FEFF 		bl	f_open
 1276 000e 0446     		mov	r4, r0
 1277 0010 08B1     		cbz	r0, .L35
 1278              	.L31:
 1279 0012 60B2     		sxtb	r0, r4
 1280 0014 38BD     		pop	{r3, r4, r5, pc}
 1281              	.L35:
 1282 0016 E868     		ldr	r0, [r5, #12]
 1283 0018 C168     		ldr	r1, [r0, #12]
 1284 001a FFF7FEFF 		bl	f_lseek
 1285 001e 0446     		mov	r4, r0
 1286 0020 0028     		cmp	r0, #0
 1287 0022 F6D0     		beq	.L31
 1288 0024 E868     		ldr	r0, [r5, #12]
 1289 0026 FFF7FEFF 		bl	f_close
 1290 002a 60B2     		sxtb	r0, r4
 1291 002c 38BD     		pop	{r3, r4, r5, pc}
 1292              		.size	logfileOpenAppend, .-logfileOpenAppend
 1293 002e 00BF     		.section	.text.logfileWrite,"ax",%progbits
 1294              		.align	2
 1295              		.p2align 4,,15
 1296              		.global	logfileWrite
 1297              		.thumb
 1298              		.thumb_func
 1299              		.type	logfileWrite, %function
 1300              	logfileWrite:
 1301              		@ args = 0, pretend = 0, frame = 8
 1302              		@ frame_needed = 0, uses_anonymous_args = 0
 1303 0000 F0B5     		push	{r4, r5, r6, r7, lr}
 1304 0002 1C46     		mov	r4, r3
 1305 0004 83B0     		sub	sp, sp, #12
 1306 0006 0F46     		mov	r7, r1
ARM GAS  /tmp/ccuN5Dk8.s 			page 87


 1307 0008 1546     		mov	r5, r2
 1308 000a 0646     		mov	r6, r0
 1309 000c 23B1     		cbz	r3, .L40
 1310 000e FFF7FEFF 		bl	logfileOpenAppend
 1311 0012 10F0FF0F 		tst	r0, #255
 1312 0016 0AD1     		bne	.L38
 1313              	.L40:
 1314 0018 3946     		mov	r1, r7
 1315 001a F068     		ldr	r0, [r6, #12]
 1316 001c 2A46     		mov	r2, r5
 1317 001e 01AB     		add	r3, sp, #4
 1318 0020 FFF7FEFF 		bl	f_write
 1319 0024 10B9     		cbnz	r0, .L43
 1320 0026 019B     		ldr	r3, [sp, #4]
 1321 0028 9D42     		cmp	r5, r3
 1322 002a 03D0     		beq	.L47
 1323              	.L43:
 1324 002c 0120     		movs	r0, #1
 1325              	.L38:
 1326 002e 40B2     		sxtb	r0, r0
 1327 0030 03B0     		add	sp, sp, #12
 1328              		@ sp needed
 1329 0032 F0BD     		pop	{r4, r5, r6, r7, pc}
 1330              	.L47:
 1331 0034 3369     		ldr	r3, [r6, #16]
 1332 0036 0133     		adds	r3, r3, #1
 1333 0038 3361     		str	r3, [r6, #16]
 1334 003a 1CB9     		cbnz	r4, .L48
 1335 003c 2046     		mov	r0, r4
 1336 003e 40B2     		sxtb	r0, r0
 1337 0040 03B0     		add	sp, sp, #12
 1338              		@ sp needed
 1339 0042 F0BD     		pop	{r4, r5, r6, r7, pc}
 1340              	.L48:
 1341 0044 F068     		ldr	r0, [r6, #12]
 1342 0046 FFF7FEFF 		bl	f_close
 1343 004a 0028     		cmp	r0, #0
 1344 004c EFD0     		beq	.L38
 1345 004e C0B2     		uxtb	r0, r0
 1346 0050 EDE7     		b	.L38
 1347              		.size	logfileWrite, .-logfileWrite
 1348 0052 00BFAFF3 		.section	.bss.DEBUG,"aw",%nobits
 1348      0080AFF3 
 1348      0080AFF3 
 1348      0080
 1349              		.align	2
 1350              		.set	.LANCHOR0,. + 0
 1351              		.type	DEBUG, %object
 1352              		.size	DEBUG, 4
 1353              	DEBUG:
 1354 0000 00000000 		.space	4
 1355              		.section	.rodata.str1.4,"aMS",%progbits,1
 1356              		.align	2
 1357              	.LC0:
 1358 0000 00       		.ascii	"\000"
 1359 0001 000000   		.space	3
 1360              	.LC1:
ARM GAS  /tmp/ccuN5Dk8.s 			page 88


 1361 0004 44415441 		.ascii	"DATALOGGER: Error Mounting Filesystem,ERR%20d\012\000"
 1361      4C4F4747 
 1361      45523A20 
 1361      4572726F 
 1361      72204D6F 
 1362 0033 00       		.space	1
 1363              	.LC2:
 1364 0034 44415441 		.ascii	"DATALOGGER: Datalogger Started\012\000"
 1364      4C4F4747 
 1364      45523A20 
 1364      44617461 
 1364      6C6F6767 
 1365              	.LC3:
 1366 0054 44415441 		.ascii	"DATALOGGER: Datalogger Stopped\012\000"
 1366      4C4F4747 
 1366      45523A20 
 1366      44617461 
 1366      6C6F6767 
 1367              	.LC4:
 1368 0074 44415441 		.ascii	"DATALOGGER: Creating New Logfile %s\012\000"
 1368      4C4F4747 
 1368      45523A20 
 1368      43726561 
 1368      74696E67 
 1369 0099 000000   		.space	3
 1370              	.LC5:
 1371 009c 44415441 		.ascii	"DATALOGGER: ERROR Drive not mounted\012\000"
 1371      4C4F4747 
 1371      45523A20 
 1371      4552524F 
 1371      52204472 
 1372 00c1 000000   		.space	3
 1373              	.LC6:
 1374 00c4 44415441 		.ascii	"DATALOGGER: Error creating Logfile, ERR%02d\012\000"
 1374      4C4F4747 
 1374      45523A20 
 1374      4572726F 
 1374      72206372 
 1375              		.comm	__gnu_lto_v1,1,1
 1376 00f1 000000   		.ident	"GCC: (GNU Tools for ARM Embedded Processors) 4.8.4 20140526 (release) [ARM/embedded-4_8-br
ARM GAS  /tmp/ccuN5Dk8.s 			page 89


DEFINED SYMBOLS
                            *ABS*:0000000000000000 datalogger.c
     /tmp/ccuN5Dk8.s:1025   .text.chprintf:0000000000000000 $t
     /tmp/ccuN5Dk8.s:1030   .text.chprintf:0000000000000000 chprintf
     /tmp/ccuN5Dk8.s:1047   .text.dataLoggerInitialize:0000000000000000 $t
     /tmp/ccuN5Dk8.s:1053   .text.dataLoggerInitialize:0000000000000000 dataLoggerInitialize
     /tmp/ccuN5Dk8.s:1100   .text.dataLoggerInitialize:0000000000000054 $d
     /tmp/ccuN5Dk8.s:1106   .text.dataLoggerStop:0000000000000000 $t
     /tmp/ccuN5Dk8.s:1112   .text.dataLoggerStop:0000000000000000 dataLoggerStop
     /tmp/ccuN5Dk8.s:1131   .text.dataLoggerStop:0000000000000020 $d
     /tmp/ccuN5Dk8.s:1135   .text.logfileNew:0000000000000000 $t
     /tmp/ccuN5Dk8.s:1141   .text.logfileNew:0000000000000000 logfileNew
     /tmp/ccuN5Dk8.s:1189   .text.logfileNew:0000000000000064 $d
     /tmp/ccuN5Dk8.s:1195   .text.logfileSize:0000000000000000 $t
     /tmp/ccuN5Dk8.s:1201   .text.logfileSize:0000000000000000 logfileSize
     /tmp/ccuN5Dk8.s:1209   .text.logfileWriteCsv:0000000000000000 $t
     /tmp/ccuN5Dk8.s:1215   .text.logfileWriteCsv:0000000000000000 logfileWriteCsv
     /tmp/ccuN5Dk8.s:1223   .text.logfileGetWrCount:0000000000000000 $t
     /tmp/ccuN5Dk8.s:1229   .text.logfileGetWrCount:0000000000000000 logfileGetWrCount
     /tmp/ccuN5Dk8.s:1237   .text.logfileClose:0000000000000000 $t
     /tmp/ccuN5Dk8.s:1243   .text.logfileClose:0000000000000000 logfileClose
     /tmp/ccuN5Dk8.s:1261   .text.logfileOpenAppend:0000000000000000 $t
     /tmp/ccuN5Dk8.s:1267   .text.logfileOpenAppend:0000000000000000 logfileOpenAppend
     /tmp/ccuN5Dk8.s:1294   .text.logfileWrite:0000000000000000 $t
     /tmp/ccuN5Dk8.s:1300   .text.logfileWrite:0000000000000000 logfileWrite
     /tmp/ccuN5Dk8.s:1349   .bss.DEBUG:0000000000000000 $d
     /tmp/ccuN5Dk8.s:1353   .bss.DEBUG:0000000000000000 DEBUG
     /tmp/ccuN5Dk8.s:1356   .rodata.str1.4:0000000000000000 $d
                            *COM*:0000000000000001 __gnu_lto_v1
     /tmp/ccuN5Dk8.s:1105   .text.dataLoggerInitialize:0000000000000064 $t
     /tmp/ccuN5Dk8.s:1134   .text.dataLoggerStop:0000000000000028 $t
     /tmp/ccuN5Dk8.s:1194   .text.logfileNew:0000000000000074 $t

UNDEFINED SYMBOLS
chvprintf
sdmmcGetFS
f_mount
f_open
f_close
f_lseek
f_write
