ARM GAS  /tmp/ccKVRnqx.s 			page 1


   1              		.syntax unified
   2              		.cpu cortex-m4
   3              		.eabi_attribute 27, 3
   4              		.eabi_attribute 28, 1
   5              		.fpu fpv4-sp-d16
   6              		.eabi_attribute 20, 1
   7              		.eabi_attribute 21, 1
   8              		.eabi_attribute 23, 3
   9              		.eabi_attribute 24, 1
  10              		.eabi_attribute 25, 1
  11              		.eabi_attribute 26, 1
  12              		.eabi_attribute 30, 2
  13              		.eabi_attribute 34, 1
  14              		.eabi_attribute 18, 4
  15              		.thumb
  16              		.file	"datasample.c"
  17              		.section	.gnu.lto_.jmpfuncs.56c2d70ccb5b5d8a,"",%progbits
  18 0000 789C6362 		.ascii	"x\234cb`b\300\006~\001\205W\002iV\006fF\006\006ff \263"
  18      6062C006 
  18      7E018557 
  18      02695606 
  18      66460606 
  19 0018 0C483330 		.ascii	"\014H300\226\201\244\201\262L\021\214\231\214 6##\210"
  19      309681A4 
  19      81B24C11 
  19      8C998C20 
  19      36232388 
  20 002c 57CDF0AB 		.ascii	"W\315\360\253aF\203@&#\243\034\003\343\334\206\031\016"
  20      61468340 
  20      2623A31C 
  20      03E3DC86 
  20      190E
  21 003e 998C1093 		.ascii	"\231\214\020\223Q%\023\031\027\001\025\214\212\017\021"
  21      51251319 
  21      1701158C 
  21      8A0F11
  22 004d 71663906 		.ascii	"qf9\006\026Hd\262@$\231Y\240i\000\254\246\003\244\206"
  22      164864B2 
  22      40249959 
  22      A06900AC 
  22      A603A486 
  23 0061 3597119A 		.ascii	"5\227\021\232h\300I\202\015\310\020\307\224\005\313"
  23      68C04982 
  23      0DC810C7 
  23      9405CB
  24 0070 B137A098 		.ascii	"\2617\240\230\316!\307\300\0151\235\023k\"\304\005X"
  24      CE21C7C0 
  24      0D319D13 
  24      6B22C405 
  24      58
  25 0081 9899A02E 		.ascii	"\230\231\240.\305 X\031\371\021vs\3452\202-G\330\310"
  25      C5205819 
  25      F9117673 
  25      E532822D 
  25      47D8C8
  26 0094 2DC7E006 		.ascii	"-\307\340\006\261\221\207\220%L\272\014l\272V@\310`"
  26      B1918790 
ARM GAS  /tmp/ccKVRnqx.s 			page 2


  26      254CBA0C 
  26      6CBA5640 
  26      C860
  27 00a6 A55AAC43 		.ascii	"\245Z\254C\026\342bH\016\361\364\005iW\360q\014\201"
  27      16E26248 
  27      0EF1F405 
  27      6957F071 
  27      0C81
  28 00b8 D07EEE60 		.ascii	"\320~\356`\332\321\007\302\017\206\212\207\370\006x"
  28      DAD107C2 
  28      0F868A87 
  28      F80678
  29 00c7 C218AE60 		.ascii	"\302\030\256`F@P0\230\366\010\365\365\2041 2\216\316"
  29      46405030 
  29      98F608F5 
  29      F5843120 
  29      328ECE
  30 00da CE1A302B 		.ascii	"\316\0320+4\271\030\000s\375\247\350"
  30      34B91800 
  30      73FDA7E8 
  31              		.text
  32              		.section	.gnu.lto_.inline.56c2d70ccb5b5d8a,"",%progbits
  33 0000 789C6362 		.ascii	"x\234cb`b\300\006\2663BhV\006\026n\031\006\260\"\266"
  33      6062C006 
  33      B6334268 
  33      5606166E 
  33      1906B022 
  34 0015 05F270B5 		.ascii	"\005\362p\265\214\014\254|\014\014\314\023\374@\220"
  34      8C0CAC7C 
  34      0C0CCC13 
  34      FC4090
  35 0024 9907AC80 		.ascii	"\231\007\254\200\221\301\376\023###\003H'\262z\260\364"
  35      91C1FE13 
  35      23232303 
  35      4827B27A 
  35      B0F4
  36 0036 04BF414B 		.ascii	"\004\277AK31(\032aq6\310\203,@i \222Tb`\020\007\012"
  36      3331281A 
  36      617136C8 
  36      832C4069 
  36      20925462 
  37 004e 41BC4B18 		.ascii	"A\274K\030\2620\010\3311212BB\012kh@C\215\000\203\225"
  37      B23008D9 
  37      31323132 
  37      42420A6B 
  37      6840438D 
  38 0065 41581A8B 		.ascii	"AX\032\213\323\004$\031\030\370\3619\207\001\000@\316"
  38      D3042419 
  38      18F8F139 
  38      87010040 
  38      CE
  39 0076 4462     		.ascii	"Db"
  40              		.text
  41              		.section	.gnu.lto_.pureconst.56c2d70ccb5b5d8a,"",%progbits
  42 0000 789C6362 		.ascii	"x\234cb`b\340f\200\000V\006\011F\011&\011\026\011V\011"
  42      6062E066 
  42      80005606 
ARM GAS  /tmp/ccKVRnqx.s 			page 3


  42      09460926 
  42      09160956 
  43 0015 0003FD00 		.ascii	"\000\003\375\000\231"
  43      99
  44              		.text
  45              		.section	.gnu.lto_chprintf.56c2d70ccb5b5d8a,"",%progbits
  46 0000 789C8550 		.ascii	"x\234\205P\315J\002Q\024>\337\0355uc\333v\342\0034\213"
  46      CD4A0251 
  46      143EDF1D 
  46      357563DB 
  46      76E20334 
  47 0015 22E80D7A 		.ascii	"\"\350\015z\000\203Z\3058\216z\011\035\321Q\260\026"
  47      00835AC5 
  47      388E7A09 
  47      1DD151B0 
  47      16
  48 0026 5EC1C245 		.ascii	"^\301\302E\013ig\021)\321:\244\027\030\202\332DI\273"
  48      0B696711 
  48      29D13AA4 
  48      171882DA 
  48      4449BB
  49 0039 162D2497 		.ascii	"\026-$\227\265h\321*\202\351\336\031\024\372\201\016"
  49      B568D12A 
  49      82E9DE19 
  49      14FA810E 
  50 0049 DC7B7EBE 		.ascii	"\334{~\276s\276\363\303\210\321OY\220o\010\2425\251"
  50      73BEF3C3 
  50      88D14F59 
  50      906F08A2 
  50      35A9
  51 005b A11158F7 		.ascii	"\241\021X\367\236\250\025e\2002\010\324dhnB\245\262"
  51      9EA81565 
  51      803208D4 
  51      64686E42 
  51      A5B2
  52 006d 140D84DB 		.ascii	"\024\015\204\333\035_O\036\321\023n\273/>=\017\340\220"
  52      1D5F4F1E 
  52      D1136EBB 
  52      2F3E3D0F 
  52      E090
  53 007f B42B2013 		.ascii	"\264+ \023\264!\035$}\305B\337\373\250Z\321uOon!\016"
  53      B4211D24 
  53      7DC542DF 
  53      FBA85AD1 
  53      754F6F6E 
  54 0095 45EBCDF3 		.ascii	"E\353\315\363\022\034\032\243\325\377\012/\230\373\354"
  54      121C1AA3 
  54      D5FF0A2F 
  54      98FBEC
  55 00a4 794FC3F7 		.ascii	"yO\303\367\203W\364XLC\021\024\222\037\"d\340\014)\225"
  55      8357F458 
  55      4C431114 
  55      921F2264 
  55      E00C2995 
  56 00b8 13A6B624 		.ascii	"\023\246\266$O\032\030H\177\0325\375\241\323\362W\233"
  56      4F1A1848 
  56      7F1A35FD 
ARM GAS  /tmp/ccKVRnqx.s 			page 4


  56      A1D3F257 
  56      9B
  57 00c9 AC8329AD 		.ascii	"\254\203)\255\215ho\3343\015\234#,\321]\372\020\035"
  57      8D686FDC 
  57      330D9C23 
  57      2CD15DFA 
  57      101D
  58 00db 31CF1132 		.ascii	"1\317\0212\341\247\313\310\016Gx\312\344g\251\2514\""
  58      E1A7CBC8 
  58      0E4778CA 
  58      E467A9A9 
  58      3422
  59 00ed 2E3BD288 		.ascii	".;\322\210\366\307G\223x\200\344\021\231\021\314\231"
  59      F6C74793 
  59      7880E411 
  59      9911CC99 
  60 00fd 088E9B87 		.ascii	"\010\216\233\207\226G( \340\210\252\222\366\370\370"
  60      96472820 
  60      E088AA92 
  60      F6F8F8
  61 010c 77C798A9 		.ascii	"w\307\230\251H\377\356\310\021'\272\243\253\027\026"
  61      48FFEEC8 
  61      1127BAA3 
  61      AB1716
  62 011b 04027099 		.ascii	"\004\002p\231.EG\235[\312\003\265\372'\332l\214\340"
  62      2E45479D 
  62      5BCA03B5 
  62      FA27DA6C 
  62      8CE0
  63 012d 5469B983 		.ascii	"Ti\271\203\334Q\315\261\244\027\354\242\245\233v\266"
  63      DC51CDB1 
  63      A417ECA2 
  63      A59B76B6 
  64 013d A167ADBA 		.ascii	"\241g\255\272n\026x\206\333U\335\251\324J\333\2724\352"
  64      6E167886 
  64      DB55DDA9 
  64      D44ADBBA 
  64      34EA
  65 014f 4685DBB5 		.ascii	"F\205\333\265\252\004\312\025^rr\213\005bF9\221\263"
  65      AA04CA15 
  65      5E72728B 
  65      05624639 
  65      91B3
  66 0161 2B45C371 		.ascii	"+E\303q\254\354V\246\341X\325/\251H\201#"
  66      ACEC56A6 
  66      E158D52F 
  66      A9488123 
  67              		.text
  68              		.section	.gnu.lto_datasample_init.56c2d70ccb5b5d8a,"",%progbits
  69 0000 789C9DD6 		.ascii	"x\234\235\326Ak\323`\030\300\361\347y\3234\315\262,"
  69      416BD360 
  69      18C0F1E7 
  69      79D334CD 
  69      B22C
  70 0012 CD4229A5 		.ascii	"\315B)\245\266\265\224R\312\230\037@\020\374\020\023"
  70      B6B59452 
  70      CA981F40 
ARM GAS  /tmp/ccKVRnqx.s 			page 5


  70      10FC1013 
  71 0022 F5E02156 		.ascii	"\365\340!V\031\001\007\202\236\334a\231N\361\270\343"
  71      19010782 
  71      9EDC6199 
  71      4EF1B8E3 
  72 0032 70EC201E 		.ascii	"p\354 \036\004\205M\330A\301\303\372\005T\374\006\003"
  72      04854DD8 
  72      41C1C3FA 
  72      0554FC06 
  72      03
  73 0043 0F2A1E76 		.ascii	"\017*\036v\330aP\017\365}\222\352c\245\370\346MJ\237"
  73      D861500F 
  73      F57D92EA 
  73      63A5F8E6 
  73      4D4A9F
  74 0056 B7B44DFE 		.ascii	"\267\264M\376\2776\245D\200\200\177\267\232\274?q\322"
  74      BF36A544 
  74      80807FB7 
  74      9ABC3F71 
  74      D2
  75 0067 150D40B1 		.ascii	"\025\015@\261\375\021`\263$\020\351\001 l\010\334\270"
  75      FD1160B3 
  75      2410E901 
  75      206C08DC 
  75      B8
  76 0078 8EC97B0F 		.ascii	"\216\311{\017\304\360x<\336\177\26352\226\020\327P\036"
  76      C4F0783C 
  76      DE7FB335 
  76      329610D7 
  76      501E
  77 008a 2E4230E5 		.ascii	".B0\345@\213\206-\207p\3509W\016\303\243\341\323\010"
  77      408B862D 
  77      8770E839 
  77      570EC3A3 
  77      E1D308
  78 009d 68546854 		.ascii	"hThTi\324h\324i4h\264\344(\264ithti\364h\364i\310\256"
  78      69D468D4 
  78      693468B4 
  78      E428B469 
  78      74687469 
  79 00b7 095B71BC 		.ascii	"\011[q\274}\036`\2208V\344$\334\025\024\264\032\037"
  79      7D1E6090 
  79      3856E424 
  79      DC1514B4 
  79      1A1F
  80 00c9 E0E1E8D1 		.ascii	"\340\341\350\321\3117\014\3619\232\260\212b\035\036"
  80      C9370CF1 
  80      399AB08A 
  80      621D1E
  81 00d8 48C312BC 		.ascii	"H\303\022\274\212\345v)Bs\027\236a\204\305U\304kr\265"
  81      8AE57629 
  81      4273179E 
  81      6184C555 
  81      C46B72B5 
  82 00ec 920F7313 		.ascii	"\222\017s\023\377\372\026>\301\343\341\271t\177\200"
  82      FFFA163E 
  82      C1E3E1B9 
ARM GAS  /tmp/ccKVRnqx.s 			page 6


  82      747F80
  83 00fb 7518C54F 		.ascii	"u\030\305O\343r\204\245\001\246oJ\2169\212w\342\370"
  83      E37284A5 
  83      01A66F4A 
  83      8E398A77 
  83      E2F8
  84 010d 46847613 		.ascii	"F\204v\023\312{\361\316\345\010\347`\262K\204\362\033"
  84      CA7BF1CE 
  84      E508E760 
  84      B24B84F2 
  84      1B
  85 011e 4C18A7CC 		.ascii	"L\030\247\3140\023\006N\030W#\234g\221;[\204\223Uh\310"
  85      3013064E 
  85      1857239C 
  85      67913B5B 
  85      84935568 
  86 0133 CC54363C 		.ascii	"\314T6<|'\017\264\320\204jj\363\350Uv\235\261\313\312"
  86      7C270FB4 
  86      D0846A6A 
  86      F3E85576 
  86      9DB1CBCA 
  87 0147 EF32345C 		.ascii	"\35724\\\326\224+\304}lN\223~2\311NH\202I\345\314\244"
  87      D6942BC4 
  87      7D6C4E93 
  87      7E32C94E 
  87      488249E5 
  88 015d 8206C956 		.ascii	"\202\006\311V\221\306Lr\246~D\222df&\231\032$GEz\361"
  88      91C64C72 
  88      A67E4492 
  88      64662699 
  88      1A244745 
  89 0173 FD0FC94D 		.ascii	"\375\017\311MH\006;\374\331\216\242F\337U\365_r\337"
  89      48063BFC 
  89      D98EA246 
  89      DF55F55F 
  89      72DF
  90 0185 CBD8B734 		.ascii	"\313\330\2674\372\236\252\377\232\373~\306~I\243\357"
  90      FA9EAAFF 
  90      9AFB7EC6 
  90      7E49A3EF 
  91 0195 ABFA07DC 		.ascii	"\253\372\007\334\0172\366m\215~\240\352\037r\277\222"
  91      0F32F66D 
  91      8D7EA0EA 
  91      1F72BF92 
  92 01a5 B13FA7D1 		.ascii	"\261?\247\321\257\250\372o\271_\315\330w4\372UU\377"
  92      AFA8FA6F 
  92      B95FCDD8 
  92      7734FA55 
  92      55FF
  93 01b7 3DF76B19 		.ascii	"=\367k\031\373\363\032\375\232\252\177\304\375z\306"
  93      FBF31AFD 
  93      9AAA7FC4 
  93      FD7AC6
  94 01c6 BEABD1AF 		.ascii	"\276\253\321\257\253\372_\270\337\310\330_\320\3507"
  94      ABFA5FB8 
  94      DFC8D85F 
  94      D0E837
ARM GAS  /tmp/ccKVRnqx.s 			page 7


  95 01d5 54FDAFDC 		.ascii	"T\375\257\334o%\375\002\377%.2%\230M\361&kY\203\324"
  95      6F25FD02 
  95      FF252E32 
  95      25984DF1 
  95      266B5983 
  96 01ea 52917E30 		.ascii	"R\221~0\251\235\237\344k\220\332*\322\011\223:\371I"
  96      A99D9FE4 
  96      6B90DA2A 
  96      D209933A 
  96      F949
  97 01fc 8B1AA48E 		.ascii	"\213\032\244\216\212t\312\244\256>)\310q\342\272*\322"
  97      8A74CAA4 
  97      AE3E29C8 
  97      71E2BA2A 
  97      D2
  98 020d 19937AF9 		.ascii	"\031\223z\371I:'\256\247\274\010aR??I\347\304\365\377"
  98      493A27AE 
  98      A7BC0861 
  98      523F3F49 
  98      E7C4F5FF 
  99 0221 43FA0C9B 		.ascii	"C\372\014\233\307G\342\367\336\351\266\"\367\224W\271"
  99      C747E2F7 
  99      DEE9B622 
  99      F79457B9 
 100 0231 7449E8DE 		.ascii	"tI\350\336\012\357\207\367\302\265\273wn_\030@q\371"
 100      0AEF87F7 
 100      C2B5BB77 
 100      6E5F1840 
 100      71F9
 101 0243 A2BC8158 		.ascii	"\242\274\201X\206_\3459\234\372"
 101      865FE539 
 101      9CFA
 102              		.text
 103              		.section	.gnu.lto_datasample_writeToLog.56c2d70ccb5b5d8a,"",%progbits
 104 0000 789C9DD5 		.ascii	"x\234\235\325Kk\023Q\024\007\360s\346\231w&/M\242H\021"
 104      4B6B1351 
 104      1407F073 
 104      E6997726 
 104      2F4DA248 
 105 0015 5C88E207 		.ascii	"\\\210\342\007p\243\237\300U\005\273\222\030K\030hD"
 105      70A39FC0 
 105      5505BB92 
 105      184B1868 
 105      44
 106 0026 A86EECA2 		.ascii	"\250n\354\242\267\255\013\221.\262,>\300\222E\301,\272"
 106      B7AD0B91 
 106      2EB22C3E 
 106      C09245C1 
 106      2CBA
 107 0038 70215841 		.ascii	"p!XA7.}m\\\007D\004\263p\321E\241\005\307s&\223\236"
 107      372E7D6D 
 107      5C074404 
 107      B370D145 
 107      A105C773 
 108 004f E652619C 		.ascii	"\346Ra\234!\375\337Nf\362\233son\3565\300\000\375h\320"
 108      21FDDF4E 
 108      66F29B73 
ARM GAS  /tmp/ccKVRnqx.s 			page 8


 108      6F6EEE35 
 108      C000FD68 
 109 0064 9F9302B8 		.ascii	"\237\223\002\270F-\232\200F\357\023\300J\312@\344\177"
 109      462D9A80 
 109      46EF13C0 
 109      4ACA40E4 
 109      7F
 110 0075 0061D9C0 		.ascii	"\000a\331\300\3459\344[\361,l*\325\033\376\370\266\336"
 110      E539E45B 
 110      F12C6C2A 
 110      D51BFEF8 
 110      B6DE
 111 0087 502F567B 		.ascii	"P/V{\352O\020\240\217\204z\010m\204\033t\2023acX\323"
 111      EA4F10A0 
 111      8F847A08 
 111      6D841B74 
 111      82336163 
 112 009d 4FD936DE 		.ascii	"O\3316\336\017\203\340\331\340\313\007<\215\330\345"
 112      0F83E0D9 
 112      E0CB073C 
 112      8DD8E5
 113 00ac CFF8689A 		.ascii	"\317\370h\232\024\226\305aS\330\016\277\347RP=\024i"
 113      1496C561 
 113      53D80EBF 
 113      E752503D 
 113      1469
 114 00be 8E0C4796 		.ascii	"\216\014G\226#\307\221\347(p\0249<\012\267\304Q\346"
 114      23C791E7 
 114      28701439 
 114      3C0AB7C4 
 114      51E6
 115 00d0 A8705439 		.ascii	"\250pT9j\034uh\341&\025\335\240\223T\223\236\312\275"
 115      6A1C7568 
 115      E12615DD 
 115      A0935493 
 115      9ECABD
 116 00e3 B0E121F5 		.ascii	"\260\341!\365af|\005\270l:f)\271\273\327\321\340\326"
 116      61667C05 
 116      B86C3A66 
 116      29B9BBD7 
 116      D1E0D6
 117 00f6 FC08ABFB 		.ascii	"\374\010\253\373k\273\277\260\205}\264\241\203\306\022"
 117      6BBBBFB0 
 117      857DB4A1 
 117      83C612
 118 0105 3CA0DA2E 		.ascii	"<\240\332.\300KE\307\025\037\323O\341\011u3\323A\344"
 118      C04B45C7 
 118      151FD34F 
 118      E1097533 
 118      D341E4
 119 0118 EE66C34E 		.ascii	"\356f\303N\336\302#=\016\211=!\314\220\260\"b\316\307"
 119      DEC2233D 
 119      0E893D21 
 119      CC90B022 
 119      62CEC7
 120 012b 9C68F9E3 		.ascii	"\234h\371\3435\214ZCS\017D\265\222\253\246\246\006\242"
 120      358C5A43 
ARM GAS  /tmp/ccKVRnqx.s 			page 9


 120      530F44B5 
 120      92ABA6A6 
 120      06A2
 121 013d DAA16A8B 		.ascii	"\332\241j\213Z\210\255Z\232\332\037\035\252\316\324"
 121      5A88AD5A 
 121      9ADA1F1D 
 121      AACED4
 122 014c 20929A8E 		.ascii	" \222\232\216\255\332\232\272%\252\033\252\216P\305"
 122      ADDA9ABA 
 122      25AA1BAA 
 122      8E50C5
 123 015b E3294723 		.ascii	"\343)G#\006B\244b\022\256Fl\013\221\216I\2444\342\225"
 123      0642A462 
 123      12AE466C 
 123      0B918E49 
 123      A434E295 
 124 016f 10999844 		.ascii	"\020\231\230DZ#^\013\221\215Id4bG\210\\L\"\253\021\357"
 124      5A235E0B 
 124      918D4964 
 124      34624788 
 124      5C4C22AB 
 125 0185 84C8C724 		.ascii	"\204\310\307$r\032\361]\210BL\"\257\021?\205(\306$\012"
 125      721AF15D 
 125      88424C22 
 125      AF113F85 
 125      28C6240A 
 126 0199 1A3112C2 		.ascii	"\0321\022\302\013\011W&\254'Z\351x\255\030\265\236\246"
 126      0B095726 
 126      AC275AE9 
 126      78AD18B5 
 126      9EA6
 127 01ab FE16B594 		.ascii	"\376\026\265\224\\-i\352\256\250\345\344jYS\367D\255"
 127      5C2D69EA 
 127      AEA8E5E4 
 127      6A5953F7 
 127      44AD
 128 01bd FCBF5AF9 		.ascii	"\374\277Z\371\307\010\034\210ZM\256\352#\020\210ZK\256"
 128      C7081C88 
 128      5A4DAEEA 
 128      2310885A 
 128      4BAE
 129 01cf 1E1981CF 		.ascii	"\036\031\201\317\360F\275\0358\023\264\276\004\373\352"
 129      F046BD1D 
 129      3813B4BE 
 129      04FBEA
 130 01de 91F27C2C 		.ascii	"\221\362|,\267\243\325h\374\216\272\357c\245\213\306"
 130      B7A3D568 
 130      FC8EBAEF 
 130      63A58BC6 
 131 01ee F8C670CF 		.ascii	"\370\306p\317\253*#\274\270\241\324\016\235\326\316"
 131      AB2A23BC 
 131      B8A1D40E 
 131      9DD6CE
 132 01fd 40F5B9DA 		.ascii	"@\365\271\332\270\352\343\011\210\356\242\215\2046\002"
 132      B8EAE309 
 132      88EEA28D 
 132      843602
ARM GAS  /tmp/ccKVRnqx.s 			page 10


 133 020c 5AB56989 		.ascii	"Z\265i\211\245\365\220\026/Z|h\361\350peY\372\361\321"
 133      A5F59016 
 133      2F5A7C68 
 133      F1E87065 
 133      59FAF1D1 
 134 0220 8F87263F 		.ascii	"\217\207&?M^\232|4S\350k\245\357\200\006\214z\347\343"
 134      4D5E9A7C 
 134      3453E86B 
 134      A5EF8006 
 134      8C7AE7E3 
 135 0234 C9B0CFA3 		.ascii	"\311\260\317\243\265\255\365\363\223\362\032T!\327\354"
 135      B5ADF5F3 
 135      93F21A54 
 135      21D7EC
 136 0243 460F80C3 		.ascii	"F\017\200\303r\353\355h\333\350`3\252\370\346T\305\364"
 136      72EBED68 
 136      DBE86033 
 136      AAF8E654 
 136      C5F4
 137 0255 612E9AB6 		.ascii	"a.\232\266\177\037\233\000_ae\370\270\037\015&_85\031"
 137      7F1F9B00 
 137      5F6165F8 
 137      B81F0D26 
 137      5F383519 
 138 0269 9159EA37 		.ascii	"\221Y\3527\355\211\254\345o\267\356\265\026[\335\273"
 138      ED89ACE5 
 138      6FB7EEB5 
 138      165BDDBB 
 139 0279 0BF397DA 		.ascii	"\013\363\227\332`.\314\337\271|n\361b\242W\006\376\002"
 139      602ECCDF 
 139      B97C6EF1 
 139      62A25706 
 139      FE02
 140 028b 4A9EC6DD 		.ascii	"J\236\306\335"
 141              		.text
 142              		.section	.gnu.lto_datasample_gpsToSample.56c2d70ccb5b5d8a,"",%progbits
 143 0000 789C9D93 		.ascii	"x\234\235\223\277K\303@\024\307\337\367\2224ijj\212"
 143      BF4BC340 
 143      14C7DFF7 
 143      9234696A 
 143      6A8A
 144 0012 93A02038 		.ascii	"\223\240 8\012\376%nV\320\301!V)\001\013\202.\332\241"
 144      0AFE256E 
 144      56D0C121 
 144      5629010B 
 144      822EDAA1 
 145 0026 A93FC041 		.ascii	"\251?\300A\241\253vQ\004\241\035ts\356\344\246\342\177"
 145      A1AB7651 
 145      04A11D74 
 145      73EEE4A6 
 145      E27F
 146 0038 D0C97FC0 		.ascii	"\320\311\177\300A\250C}\227\244MS\032h<\310\335\013"
 146      41A8437D 
 146      97A44D53 
 146      1A683CC8 
 146      DD0B
 147 004a BCFBBCF7 		.ascii	"\274\373\274\367\311]\004\011\032\037\363\374\254\251"
ARM GAS  /tmp/ccKVRnqx.s 			page 11


 147      C95D0409 
 147      1A1FF3FC 
 147      ACA9
 148 0058 44B3BC42 		.ascii	"D\263\274B!\210\306;Q\335\020\200\014\010T\023\250m"
 148      2188C63B 
 148      51DD1080 
 148      0C085413 
 148      A86D
 149 006a C1CF7D16 		.ascii	"\301\317}\026\235n\277\377\364\362z\327\002\346\200"
 149      9D6EBFFF 
 149      F4F27AD7 
 149      02E680
 150 0079 0A18E882 		.ascii	"\012\030\350\202\024\216\240r\004]N\006O\302\224QNF"
 150      148EA072 
 150      045D4E06 
 150      4FC29451 
 150      4E46
 151 008b 164F4A5E 		.ascii	"\026OJ^\276\3322\271 #\206it\356y\215%\242\222\017/"
 151      BEDA32B9 
 151      20238669 
 151      74EE798D 
 151      25A2920F 
 152 00a0 F22C2B6E 		.ascii	"\362,+n@\310Uy\243\323\336\331\367\325\242\203{hT\206"
 152      40C85579 
 152      A3D3DED9 
 152      F7D5A283 
 152      7B685486 
 153 00b4 A8D209EF 		.ascii	"\250\322\011\357^\241\266\307c\335\205\332\244[\270"
 153      5EA1B6C7 
 153      63DD85DA 
 153      A45BB8
 154 00c3 D0CAC026 		.ascii	"\320\312\300&\257\031\277\303\035\214\250\371\210/\014"
 154      AF19BFC3 
 154      1D8CA8F9 
 154      882F0C
 155 00d2 08AA4F40 		.ascii	"\010\252O@H8v\241\007\004\243\014E\022\262!a\004\361"
 155      483876A1 
 155      0704A30C 
 155      4512B221 
 155      6104F1
 156 00e5 41179D85 		.ascii	"A\027\235\205`?Q\225z\336\245g\2730Ka\016w\305X\227"
 156      603F5195 
 156      7ADEA567 
 156      BB304B61 
 156      0E77C558 
 157 00fa 35835A3F 		.ascii	"5\203Z?Q\273z\254\3306\027\213:\237\231\334\271\010"
 157      51BB7AAC 
 157      D836178B 
 157      3A9F99DC 
 157      B908
 158 010c 5765CCE0 		.ascii	"We\314\340Q\014\240\206\017\025!\351\206\367Z\223\025"
 158      510CA086 
 158      0F1521E9 
 158      86F75A93 
 158      15
 159 011d D4140A3A 		.ascii	"\324\024\012:s#\205\337H\301\374\277\2026\246\320\036"
 159      732385DF 
ARM GAS  /tmp/ccKVRnqx.s 			page 12


 159      48C1FCBF 
 159      8236A6D0 
 159      1E
 160 012e 2AE4620A 		.ascii	"*\344b\012\315d\205L\012\005\223\271\221B?R\260\374"
 160      CD64854C 
 160      0A0593B9 
 160      91423F52 
 160      B0FC
 161 0140 6A4AA490 		.ascii	"jJ\244\220\237ZAO<\205|\354\273\310SH\270HF\012\005"
 161      9F5A414F 
 161      3C857CEC 
 161      BBC85348 
 161      B848460A 
 162 0155 8BB991C2 		.ascii	"\213\271\221\302\303\365P\301\216\335{VP\247V\310&*"
 162      C3F550C1 
 162      8EDD7B56 
 162      50A756C8 
 162      262A
 163 0167 14A65530 		.ascii	"\024\246U0S(\330\314\365\025>\251\336m-\017R\203Q\344"
 163      5328D8CC 
 163      F5153EA9 
 163      DE6D2D0F 
 163      528351E4 
 164 017b 34FEAD65 		.ascii	"4\376\255ek\326\256s\344\034:\225\203\375\275\325\022"
 164      6BD6AE73 
 164      E41C3A95 
 164      83FDBDD5 
 164      12
 165 018c FD0189E0 		.ascii	"\375\001\211\340\347]"
 165      E75D
 166              		.text
 167              		.section	.gnu.lto_printDataSample.56c2d70ccb5b5d8a,"",%progbits
 168 0000 789C9DD4 		.ascii	"x\234\235\324\277K\033a\030\007\360\347y\357.w\271\344"
 168      BF4B1B61 
 168      1807F0E7 
 168      79EF2E77 
 168      B9E4
 169 0012 62747391 		.ascii	"bts\221\200\024*\025\377\200N\006\2216`\212\324\023"
 169      80142A15 
 169      FF804E06 
 169      9136608A 
 169      D413
 170 0024 EB98A612 		.ascii	"\353\230\246\022\016\032P\322I\007_\177\014.-\216\322"
 170      0E1A50D2 
 170      49075F7F 
 170      0C2E2D8E 
 170      D2
 171 0035 56A87410 		.ascii	"V\250t\020\024\352\320!C\027'7\225N:\272;\264\320\241"
 171      14EAD021 
 171      43172737 
 171      954E3ABA 
 171      3BB4D0A1 
 172 0049 6087F479 		.ascii	"`\207\364y\337\273\370\264/\031\216\034\311\367y\363"
 172      DFBBF8B4 
 172      2F198E1C 
 172      C9F779F3 
 173 0059 DEE5F3DE 		.ascii	"\336\345\363\336\335{\357\011\020`n\303\364\365\034"
ARM GAS  /tmp/ccKVRnqx.s 			page 13


 173      DD7BEF09 
 173      10606EC3 
 173      F4F51C
 174 0068 801655B4 		.ascii	"\200\026U\264\000\305\356\005\300\206'\020U\003\020"
 174      00C5EE05 
 174      C0862710 
 174      550310
 175 0077 D605AE2F 		.ascii	"\326\005\256/\242>\366D\234\336t:_~\236}\272F\034Dl"
 175      A23EF644 
 175      9CDE743A 
 175      5F7E9E7D 
 175      BA461C44 
 176 008c 22811182 		.ascii	"\"\201\021\202E\201\266\012\207BdT\237Kay*\262*|\025"
 176      4581B60A 
 176      87426454 
 176      9F4B6179 
 176      2AB22A7C 
 177 00a1 3915790A 		.ascii	"9\025y\012;PQPA\254\003\333R\356\226\000\352z\230\220"
 177      3B505150 
 177      41AC03DB 
 177      52EE9600 
 177      EA7A9890 
 178 00b5 528D3D8F 		.ascii	"R\215=\217BU\353\0346\357\266n\337\216\324\360\200\374"
 178      4255EB1C 
 178      36EFB66E 
 178      DF8ED4F0 
 178      80FC
 179 00c7 068A3558 		.ascii	"\006\2125X\245\001\036\301\221\244m!B\347\003\274\307"
 179      A5011EC1 
 179      91A46D21 
 179      42E703BC 
 179      C7
 180 00d8 08330DC4 		.ascii	"\0103\015\304\027T]}\256/\361\237\213\324\304\017&,"
 180      17545D7D 
 180      AE2FF19F 
 180      8BD4C40F 
 180      262C
 181 00ea 4D6042AC 		.ascii	"M`B\254D\350\261\226\355\255aR\205\241\376b\325\356"
 181      44E8B196 
 181      EDAD6152 
 181      85A1FE62 
 181      D5EE
 182 00fc 5FB50CF5 		.ascii	"_\265\014\3657\253\216V\005\253~j\3256\324?\254f\376"
 182      37AB8E56 
 182      05AB7E6A 
 182      D536D43F 
 182      AC66FE
 183 010f BB89A43A 		.ascii	"\273\211\244:\251U\307P;\254\272Z\265\230\312\365\246"
 183      A955C750 
 183      3BACBA5A 
 183      B598CAF5 
 183      A6
 184 0120 3206F1F9 		.ascii	"2\006\361\371\335=\341\245$\\\2038d\"\233\222\360\014"
 184      DD3DE1A5 
 184      245C8338 
 184      64229B92 
 184      F00C
ARM GAS  /tmp/ccKVRnqx.s 			page 14


 185 0132 E298093F 		.ascii	"\342\230\011?%\2215\210\023&r)\011\337 \2762\221\327"
 185      25913588 
 185      13267229 
 185      09DF20BE 
 185      3291D7
 186 0145 84CD9394 		.ascii	"\204\315\223\224g-\350\255\345\222\2327\3246\253A\377"
 186      672DE8AD 
 186      E5929A37 
 186      D436AB41 
 186      FF
 187 0156 6A60A8DF 		.ascii	"j`\250\337X-\364\257\026X\275\244\377|l/\307(\300\032"
 187      582DF4AF 
 187      1658BDA4 
 187      FF7C6C2F 
 187      C728C01A 
 188 016a DCC91D59 		.ascii	"\334\311\035Y\214\260PO\036\277\270G\356\0233\320DL"
 188      8CB0504F 
 188      1EBFB847 
 188      EE1333D0 
 188      444C
 189 017c 0E54BD7B 		.ascii	"\016T\275{R^Qoq\004\212\373ro2\302AH\366\322+\203\226"
 189      525E516F 
 189      71048AFB 
 189      726F32C2 
 189      4148F6D2 
 190 0193 3CAD4F5A 		.ascii	"<\255OZL\015u\026.=f\364\230\3204\3234\321m\246{B\027"
 190      4C0D7516 
 190      2E3D66F4 
 190      98D034D3 
 190      34D16DA6 
 191 01aa 10E110C0 		.ascii	"\020\341\020\300w\330\270\271\036\355\216\037o!\215"
 191      77D8B8B9 
 191      1EED8E1F 
 191      6F218D
 192 01b9 4D2F22B5 		.ascii	"M/\"\265\362\203W\2657\265V\255\271\374zi\242\016\365"
 192      F28357B5 
 192      37B556AD 
 192      B9FC7A69 
 192      A20EF5
 193 01cc B0527DFC 		.ascii	"\260R}\374\2405^\232)\207q}\366D\327\362L\374{.\351"
 193      A0355E9A 
 193      2987717D 
 193      F644D7F2 
 193      4CFC7B2E 
 194 01e1 0FABB395 		.ascii	"\017\253\263\225ncZ7f\237\317\351\372t\276Z\3516\342"
 194      6E635A37 
 194      669FCFE9 
 194      FA74BE5A 
 194      E936E2
 195 01f4 3DE5A9A9 		.ascii	"=\345\251\251\207T\365g\314\207\277g\220.D"
 195      8754F567 
 195      CC87BF67 
 195      902E44
 196              		.text
 197              		.section	.gnu.lto_.symbol_nodes.56c2d70ccb5b5d8a,"",%progbits
 198 0000 789C4DCE 		.ascii	"x\234M\316KN\303@\020\204\341\232\262\215\023\303\035"
 198      4B4EC340 
ARM GAS  /tmp/ccKVRnqx.s 			page 15


 198      1084E19A 
 198      B28D13C3 
 198      1D
 199 0011 381B2769 		.ascii	"8\033'i\203\301q\022\362\020\354\263H/8\210\367\234"
 199      83C17112 
 199      F210ECB3 
 199      482F3888 
 199      F79C
 200 0023 01942D67 		.ascii	"\001\224-g@x2\025&\263\371\365\265Z\243&\210\217\200"
 200      40783215 
 200      26B3F9F5 
 200      B55AA326 
 200      888F80
 201 0036 F4D8D280 		.ascii	"\364\330\322\200\375'`\266\031\036\370H\013\342a\010"
 201      FD2760B6 
 201      191EF848 
 201      0BE26108 
 202 0046 EC68CCAC 		.ascii	"\354h\314\254\236\210\322\012>\323\212\253\245\027Z"
 202      9E88D20A 
 202      3ED38AAB 
 202      A5175A
 203 0055 79B5B464 		.ascii	"y\265\264d\200!\274\322\2524m\333\020\326\264\233\254"
 203      8021BCD2 
 203      AA346DDB 
 203      10D6B49B 
 203      AC
 204 0066 15ADCEEA 		.ascii	"\025\255\316\352i\263\254\2016\317Z\320\232\177\025"
 204      69B3AC81 
 204      36CF5AD0 
 204      9A7F15
 205 0075 98A3FBFA 		.ascii	"\230\243\373\372\235:\203\237[c\214\015M\362\324\323"
 205      9D3A839F 
 205      5B638C0D 
 205      4DF2D4D3 
 206 0085 C5DFB2EA 		.ascii	"\305\337\262\352\375\317\375\331\252/d\325W\262\352"
 206      FDCFFDD9 
 206      AA2F64D5 
 206      57B2EA
 207 0094 6B59F5AD 		.ascii	"kY\365\255\254\372NV\375MV\375]\216\345\035\272\370"
 207      ACFA4E56 
 207      FD4D56FD 
 207      5D8EE51D 
 207      BAF8
 208 00a6 0F6F31C6 		.ascii	"\017o1\306\226M\272\273\324\235S\273>\315O\352\030\357"
 208      964DBABB 
 208      D49D53BB 
 208      3ECD4FEA 
 208      18EF
 209 00b8 AA80E354 		.ascii	"\252\200\343T\374\001\242&}\212"
 209      FC01A226 
 209      7D8A
 210              		.text
 211              		.section	.gnu.lto_.refs.56c2d70ccb5b5d8a,"",%progbits
 212 0000 789C6362 		.ascii	"x\234cb`b\340f\200\000&&&f&fFV&6\006\000\001\337\000"
 212      6062E066 
 212      80002626 
 212      26662666 
ARM GAS  /tmp/ccKVRnqx.s 			page 16


 212      46562636 
 213 0019 2C       		.ascii	","
 214              		.text
 215              		.section	.gnu.lto_.decls.56c2d70ccb5b5d8a,"",%progbits
 216 0000 789CBD7D 		.ascii	"x\234\275}\011\230\024E\266nf\326\332t\013\270\243\343"
 216      09981445 
 216      B66E66D6 
 216      DA740BB8 
 216      A3E3
 217 0012 8C35F78D 		.ascii	"\2145\367\215\367c\346\315\330,.83\327\005\032\2047"
 217      F763E6CD 
 217      D82C2E38 
 217      33D7051A 
 217      8437
 218 0024 20FD75E3 		.ascii	" \375u\3438~\357\276W&\325\325P\332\335\325VU\263\314"
 218      387EEFBE 
 218      5726D5D5 
 218      50DADDD5 
 218      5655B3CC 
 219 0038 BDF7992C 		.ascii	"\275\367\231,\002\212b\313\"\373\242\202\250 \2625{"
 219      028A62CB 
 219      22FBA282 
 219      A820B235 
 219      7B
 220 0049 4309D82C 		.ascii	"C\011\330,\255\320,\262\210@\013\202 \212\2546{\277"
 220      ADD02CB2 
 220      88400B82 
 220      208AAC36 
 220      7BBF
 221 005b 132732AB 		.ascii	"\023'2\253\"\2633\263\"\333\231[\337\227\247\242\242"
 221      22B333B3 
 221      22DB995B 
 221      DF97A7A2 
 221      A2
 222 006c 33FE38E7 		.ascii	"3\3768\347\304\211\023'\"#\243%A\022\334nAh\204\317"
 222      C4891327 
 222      2223A325 
 222      4112DC6E 
 222      416884CF 
 223 0080 0B3304E1 		.ascii	"\0133\004\341\271\326\202\340\025\004\341Q\270n\202"
 223      B9D682E0 
 223      1504E151 
 223      B86E82
 224 008f 0BFE24BC 		.ascii	"\013\376$\274\015\327;p\275\017\327\007p\315\203k\001"
 224      0DD73B70 
 224      BD0FD707 
 224      70CD836B 
 224      01
 225 00a0 5C8BE05A 		.ascii	"\\\213\340Z\012W\025\\\313\341\272O\022\204\177\205"
 225      0A57155C 
 225      CBE1BA4F 
 225      12847F85 
 226 00b0 8B7CB2E1 		.ascii	"\213|\262\341j\013\351\316p\215\206\353\367\000\224"
 226      6A0BE9CE 
 226      708D86EB 
 226      F70094
 227 00bf 075777B8 		.ascii	"\007Ww\270z\300\365\014\\\177\203\353\377\300U\004\027"
ARM GAS  /tmp/ccKVRnqx.s 			page 17


 227      7AC0F50C 
 227      5C7F83EB 
 227      FFC05504 
 227      17
 228 00d0 29F63C7C 		.ascii	")\366<|\227\270\005\335\207`\020\254\247 \277%|\347"
 228      97B805DD 
 228      876010AC 
 228      A720BF25 
 228      7CE7
 229 00e2 A83C9501 		.ascii	"\250<\225\001\211\301\025\205+\016\327\377\202+\001"
 229      89C11585 
 229      2B0ED7FF 
 229      822B01
 230 00f1 57855ADE 		.ascii	"W\205Z\336\255\226}F\255\257\273Z\307\277\001yL\322"
 230      AD967D46 
 230      ADAFBB5A 
 230      C7BF0179 
 230      4CD2
 231 0103 D74178BC 		.ascii	"\327Ax\274\015\276\007\302=\203\340\032\014\327\337"
 231      0DBE07C2 
 231      3D83E01A 
 231      0CD7DF
 232 0112 E1FA0FB8 		.ascii	"\341\372\017\270z\302\337\272\301\325\025\256\377t\247"
 232      7AC2DFBA 
 232      C1D515AE 
 232      FF74A7
 233 0121 75F02CA4 		.ascii	"u\360,\244\377\012y\371RZ?\377\016\351\020\\\377\005"
 233      FF0A79F9 
 233      525A3FFF 
 233      0EE9105C 
 233      FF05
 234 0133 D74015F3 		.ascii	"\327@\025\363/\360\335\033\256\247\341z\026\256\377"
 234      2FF0DD1B 
 234      AEA7E17A 
 234      16AEFF
 235 0142 0D5710AE 		.ascii	"\015W\020\256\276p\305\340J\300U\014\327\363p\225\300"
 235      BE70C5E0 
 235      4AC0550C 
 235      D7F37095 
 235      C0
 236 0153 D51FAE72 		.ascii	"\325\037\256r\270\312\340\032@\352\204K\201k(\\/KT\006"
 236      B8CAE01A 
 236      40EA844B 
 236      816B285C 
 236      2F4B5406 
 237 0167 C22FD19D 		.ascii	"\302/\321\235\010\351Q\006Y\210\256\357Q\345\327\364"
 237      08E95106 
 237      5988AEEF 
 237      51E5D7F4 
 238 0177 6526974B 		.ascii	"e&\227K\320\313\246\311b\224\341\277\334\264\275\331"
 238      D0CBA6C9 
 238      6294E1BF 
 238      DCB4BDD9 
 239 0187 B60E43DE 		.ascii	"\266\016C\336\377sS\033\370\277\360\375\372?IV\227*"
 239      FF73531B 
 239      F8BFF0FD 
 239      FA3F4956 
ARM GAS  /tmp/ccKVRnqx.s 			page 18


 239      972A
 240 0199 4F916A27 		.ascii	"O\221j'\344w[\370\376\255\233\332\012\373!\366\325\212"
 240      E4775BF8 
 240      FEAD9BDA 
 240      0AFB21F6 
 240      D58A
 241 01ab 91F52555 		.ascii	"\221\365%U^\243\214\355 /\327M\333\222\264!\221\271"
 241      5EA38CED 
 241      202FD74D 
 241      DB92B421 
 241      91B9
 242 01bd 939BCA9D 		.ascii	"\223\233\312\235\255\312\360\220;-\307\303n*\313\037"
 242      ADCAF090 
 242      3B2DC7C3 
 242      6E2ACB1F 
 243 01cd DD549E3F 		.ascii	"\335T\236?\271\251L\177V\355\351\367\252\035\223\364"
 243      B9A94C7F 
 243      56EDE9F7 
 243      AA1D93F4 
 244 01dd 13F0FD98 		.ascii	"\023\360\375\230\201/b\363\267r\330\226\225\376\025"
 244      812F62F3 
 244      B772D896 
 244      95FE15
 245 01ec B7BE6FFD 		.ascii	"\267\276o\375V\242rf\322\365\363\214~\215\272\225T\276"
 245      56A27266 
 245      D2F5F38C 
 245      7E8DBA95 
 245      54BE
 246 01fe DAAAE96E 		.ascii	"\332\252\351n&\375.[xUQ\206*\263F(\3357\267\274Y\250"
 246      26FD2E5B 
 246      78555186 
 246      2AB34628 
 246      DD37B7BC 
 247 0214 54E033EB 		.ascii	"T\3403\353\361I-\263\204Q$\277~\216\322\246\015H.\312"
 247      F1492DB3 
 247      845124BF 
 247      7E8ED2A6 
 247      0D482ECA 
 248 0228 2264F931 		.ascii	"\"d\3711\221\223\205\026y\2370\033\356\205\002\222,"
 248      91938516 
 248      799F301B 
 248      EE850292 
 248      2C
 249 0239 BE2B6641 		.ascii	"\276+fA\015\222(\230~\350\337\177'|@\357?b\274\215\200"
 249      0D922898 
 249      7EE8DF7F 
 249      277C40EF 
 249      3F62BC8D 
 250 024e 923BD2A9 		.ascii	"\222;\322\251F1Ugk\255NI\305zG\274\031S\310\241\242"
 250      46315567 
 250      6BAD4E49 
 250      C57A47BC 
 250      1953C8A1 
 251 0263 728E77A8 		.ascii	"r\216w\250%\002Z\011\267Zb.b\013Z\266\300J\241\345\233"
 251      25025A09 
 251      B75A622E 
 251      620B5AB6 
ARM GAS  /tmp/ccKVRnqx.s 			page 19


 251      C04AA1E5 
 252 0278 957B5BCC 		.ascii	"\225{[\314\266SS`RK\312\255Z\276\235V\336\253\226\377"
 252      B6535360 
 252      524BCAAD 
 252      5ABE9D56 
 252      DEAB96FF 
 253 028c C031A71F 		.ascii	"\3001\247\037Zp\352\311\300\351\373\3168U\332h\000\212"
 253      5A70EAC9 
 253      C0E9FBCE 
 253      3855DA68 
 253      008A
 254 029e 4B4598EF 		.ascii	"KE\230\357\230\327\217,xm\22420;/\315\254_\030\211V"
 254      98D78F2C 
 254      786D9432 
 254      303B2FCD 
 254      AC5F1889 
 255 02b3 F6B23244 		.ascii	"\366\2622D|1\263\231-\020\375`\006--\315\214\374]\253"
 255      7C31B399 
 255      2D10FD60 
 255      062D2DCD 
 255      8CFC5DAB 
 256 02c7 99A6B594 		.ascii	"\231\246\265\224\250J\246)\306\234;\254\253\262~\377"
 256      A84AA629 
 256      C69C3BAC 
 256      ABB27EFF 
 257 02d7 C2E9B98A 		.ascii	"\302\351\271\212\342\227\305Eh\326O\212\000\375\236"
 257      E297C545 
 257      68D64F8A 
 257      00FD9E
 258 02e6 F8BB5435 		.ascii	"\370\273T5\236,}\265\360[\273\201\200y\262\322\0112"
 258      9E2C7DB5 
 258      F05BBB81 
 258      8079B2D2 
 258      0932
 259 02f8 DCB6E26B 		.ascii	"\334\266\342k\224:\227\306\312\037U\334*\307m\262\314"
 259      943A97C6 
 259      CA1F55DC 
 259      2AC76DB2 
 259      CC
 260 0309 A24D1EC9 		.ascii	"\242M\036\311\320$K-\354\347\026\341Md\225QX\262\253"
 260      D0244B2D 
 260      ECE716E1 
 260      4D649551 
 260      58B2AB
 261 031c 56789F3F 		.ascii	"Vx\237?\255\262\352\021\307v\210\303\024\005\376\262"
 261      ADB2EA11 
 261      C77688C3 
 261      1405FEB2 
 262 032c 42BC0594 		.ascii	"B\274\005\2246\\\324k-3\222,\256\022%\240\253\241<-"
 262      365CD46B 
 262      2D33922C 
 262      AE1225A0 
 262      ABA13C2D 
 263 0340 499B3E79 		.ascii	"I\233>yyd\216\342\246\371\202\016S\367\371\2650\013"
 263      79648EE2 
 263      A6F9820E 
 263      53F7F9B5 
ARM GAS  /tmp/ccKVRnqx.s 			page 20


 263      300B
 264 0352 F84E5EDF 		.ascii	"\370N^\3374\373.e\326z\321L\014\270Ad\352\0077\251\326"
 264      34FB2E65 
 264      D67AD14C 
 264      0CB84164 
 264      EA0737A9 
 265 0367 1F108883 		.ascii	"\037\020\210\203|\023X6aS\177\233,&\221\313O\214\\\356"
 265      7C135836 
 265      61537F9B 
 265      2C2691CB 
 265      4F8C5CEE 
 266 037b A25C7EC2 		.ascii	"\242\\~\302\305\345\027\233\266\210\312\330\034\035"
 266      C5E5179B 
 266      B688CAD8 
 266      1C1D
 267 0389 93770813 		.ascii	"\223w\010\023\324VV\304\004\265=\253\346\372T\274\003"
 267      D45656C4 
 267      04B53DAB 
 267      E6FA54BC 
 267      03
 268 039a 532EEA14 		.ascii	"S.\352\024e\361\261l-\255\203L9\361d\233I-m\272We\375"
 268      65F1B16C 
 268      2DAD834C 
 268      39F1649B 
 268      492D6DBA 
 269 03b1 B8D11FFD 		.ascii	"\270\321\037\375O0y\306\353[\025\220\305\255\342}@E"
 269      4F3079C6 
 269      EB5B1590 
 269      C5ADE27D 
 269      4045
 270 03c3 BDD1A7DC 		.ascii	"\275\321\247\334\267\352\275%\241\306`\001\034\330\232"
 270      B7EABD25 
 270      A1C66001 
 270      1CD89A
 271 03d2 318D99D1 		.ascii	"1\215\231\321\011\373\337\347\330\377\206I\306\016("
 271      09FBDFE7 
 271      D8FF8649 
 271      C60E28
 272 03e1 1A3A6006 		.ascii	"\032:`\006^\234\334k\245\362\315\351\036\302*~\021e"
 272      5E9CDC6B 
 272      A5F2CDE9 
 272      1EC22A7E 
 272      1165
 273 03f3 45169F76 		.ascii	"E\026\237v\245\376h\005\2611\015!A,%\252Vdv{\252\377"
 273      A5FE6805 
 273      B1310D21 
 273      412C25AA 
 273      5664767B 
 274 0409 32783A0B 		.ascii	"2x:\013\202\016w\261\375d%9\334\325\\\033\332\315iC"
 274      820E77B1 
 274      FD642539 
 274      DCD55C1B 
 274      DACD6943 
 275 041d B2586B83 		.ascii	"\262Xk\203\262\367\347\253e\027\253\226q\216\325\022"
 275      B2F7E7AB 
 275      6517AB96 
 275      718ED512 
ARM GAS  /tmp/ccKVRnqx.s 			page 21


 276 042d 60D5A22C 		.ascii	"`\325\242,V\224,\257\265Jt\236\324v\0148;v\273\346\320"
 276      56942CAF 
 276      B54A749E 
 276      D4760C38 
 276      3B76BBE6 
 277 0442 0EA2157E 		.ascii	"\016\242\025~-\231\2303\027\324\270\332\215\213\304"
 277      2D999833 
 277      17D4B8DA 
 277      8D8BC4
 278 0451 A108558F 		.ascii	"\241\010U\217P\3376\033\252z\333r\3323\216\"\320\217"
 278      50DF361B 
 278      AA7ADB72 
 278      DA338E22 
 278      D08F
 279 0463 4D7A86D7 		.ascii	"Mz\206\327\3203\274zk\207\237\244\246KdX\022_Rs\310"
 279      D033BC7A 
 279      6B879FA4 
 279      A64B6458 
 279      125F5273 
 280 0478 0F9FF0DF 		.ascii	"\017\237\360\337^\316\312\036\276\2626Lj\213\274\206"
 280      5ECECA1E 
 280      BEB2364C 
 280      6A8BBC86 
 281 0488 758035AC 		.ascii	"u\2005\254\313<\206\345g\361\004\326\260\370\372\333"
 281      CB3C86E5 
 281      67F104D6 
 281      B0F8FADB 
 282 0498 419B9E72 		.ascii	"A\233\236r\312D,.1\276\023\263\331F\226\204\353\216"
 282      CA442C2E 
 282      31BE13B3 
 282      D9469684 
 282      EB8E
 283 04aa 4571D447 		.ascii	"Eq\324G\354\3058\303\321:\352o\376\200k\334\224e\277"
 283      ECC538C3 
 283      D13AEA6F 
 283      FE806BDC 
 283      9465BF
 284 04bd 43B3BE80 		.ascii	"C\263\276\200f\275\312e:r\360\000\215\376\364\023\265"
 284      66BDCA65 
 284      3A72F000 
 284      8DFEF413 
 284      B5
 285 04ce AB3520D4 		.ascii	"\2535 \324\306fCU\217Y\363\010\362t\005\201>w\031\273"
 285      C6664355 
 285      8F59F308 
 285      F2740581 
 285      3E7719BB 
 286 04e2 9ACFD0D5 		.ascii	"\232\317\320\325|z\323\367e\245\023j\024\370O\277\235"
 286      7C7AD3F7 
 286      65A5136A 
 286      14F84FBF 
 286      9D
 287 04f3 CB9E7E64 		.ascii	"\313\236~d\273\305>\027\207-\265f\361\004\326\226~~"
 287      BBC53E17 
 287      872DB566 
 287      F104D696 
 287      7E7E
ARM GAS  /tmp/ccKVRnqx.s 			page 22


 288 0505 B750241B 		.ascii	"\267P$\033{\272\340\240\2677\262b\035t,V\200\025+s\027"
 288      7BBAE0A0 
 288      B737B262 
 288      1D742C56 
 288      80152B73 
 289 051a B11B5947 		.ascii	"\261\033YG\330\211\244\306\021\306\221\262Y\"\277,1"
 289      D889A4C6 
 289      11C691B2 
 289      5922BF2C 
 289      31
 290 052b 221FE111 		.ascii	"\"\037\341\021\271\215eK\376<\221\307\330\211\274\367"
 290      B98D654B 
 290      FE3C91C7 
 290      D889BCF7 
 291 053b 1F28F2EB 		.ascii	"\037(\362\353\254\310'\035\213\034\020\364\037\255K"
 291      ACC8271D 
 291      8B1C10F4 
 291      1FAD4B
 292 054a C9E206F1 		.ascii	"\311\342\006\361\327@w\"\375\022\351I\244\247\221\336"
 292      D7407722 
 292      FD12E949 
 292      A4A791DE 
 293 055a 403A5C22 		.ascii	"@:\\\"\3645\240\031\371\\\313Z\343\217\310\347\352f"
 293      F435A019 
 293      F95CCB5A 
 293      E38FC8E7 
 293      EA66
 294 056c C67A4AF2 		.ascii	"\306zJ\362\306\246\234JY\233\303x3\370\255=\207\267"
 294      C6A69C4A 
 294      599BC378 
 294      33F8AD3D 
 294      87B7
 295 057e 8BE8B7DE 		.ascii	"\213\350\267\336\222\310<\354C\267\351<\314\032F\022"
 295      92C83CEC 
 295      43B7E93C 
 295      CC1A4612 
 296 058e 566291C9 		.ascii	"Vb\221\311\222a\202\263|\304md\202C\3623OpV\216\230"
 296      926182B3 
 296      7CC46D64 
 296      8243F233 
 296      4F70568E 
 297 05a3 6E390D63 		.ascii	"n9\015c'W\263D\255\356\333R\"$\017\\\027\003\2628\003"
 297      2757B344 
 297      ADEEDB52 
 297      22240F5C 
 297      1703B238 
 298 05b8 F9AF31E7 		.ascii	"\371\2571\347\337\032C\022\366b\221\267\215\374_\224"
 298      DF1A4312 
 298      F66291B7 
 298      8DFC5F94 
 299 05c8 03343733 		.ascii	"\003473\367\015'qz&\213\323\301\334$\341x\012\260Y\261"
 299      F70D2771 
 299      7A268BD3 
 299      C1DC24E1 
 299      780AB059 
 300 05dd 7AF25A78 		.ascii	"z\362Zxs\273\214\212pk@y\351\266\034;e#m\313\367Q\027"
 300      73BB8C8A 
ARM GAS  /tmp/ccKVRnqx.s 			page 23


 300      706B4079 
 300      E9B61C3B 
 300      65236DCB 
 301 05f4 A73974A1 		.ascii	"\2479t\241\203\221\204\006,2\317\240\213\372q\337\325"
 301      83918406 
 301      2C32CFA0 
 301      8BFA71DF 
 301      D5
 302 0605 FF6292A2 		.ascii	"\377b\222\242\264\246\177\312\254\220\253js\312\342"
 302      B4A67FCA 
 302      AC90AB6A 
 302      73CAE2
 303 0614 5CD4C832 		.ascii	"\\\324\3102\217\006\333<\215\334\250\001\213\326\300"
 303      8F06DB3C 
 303      8DDCA801 
 303      8BD6C0
 304 0623 AA1D8305 		.ascii	"\252\035\203\005t`\3436MC\346\370\307\366\263;\267i"
 304      7460E336 
 304      4D43E6F8 
 304      C7F6B33B 
 304      B769
 305 0635 C1FD1209 		.ascii	"\301\375\022\011\303\004\217qto0\31613\017\300\222\360"
 305      C3048F71 
 305      746F30CE 
 305      31330FC0 
 305      92F0
 306 0647 198F2496 		.ascii	"\031\217$\226A&i\226\272{V\202#~\305\313\321Mwae+\214"
 306      41266996 
 306      BA7B5682 
 306      237EC5CB 
 306      D14D7761 
 307 065e 4DDB70BA 		.ascii	"M\333p\272\356\017\264iWp5\355\362\332\211|=\325\253"
 307      EE0FB469 
 307      577035ED 
 307      F2DA897C 
 307      3DD5AB
 308 0671 555F84D5 		.ascii	"U_\204\325O\360\222\352\253\233X\326\371\023\217\322"
 308      4FF092EA 
 308      AB9B58D6 
 308      F9138FD2 
 309 0681 EAABB9AA 		.ascii	"\352\253\271\252?\274}|\323\352e\361\321\333\355\332"
 309      3FBC7D7C 
 309      D3EA65F1 
 309      D1DBEDDA 
 310 0691 AFE1F499 		.ascii	"\257\341\364\231\2663\261\222O\320\202\016{\215\315"
 310      B633B192 
 310      4FD0820E 
 310      7B8DCD
 311 06a0 F7183B2D 		.ascii	"\367\030;-\325\202m&\206>\221\342\276Y\006\014b&\037"
 311      D5826D26 
 311      863E91E2 
 311      BE59060C 
 311      62261F
 312 06b3 FB005B4A 		.ascii	"\373\000[J\343\341{\307\210z+>\267\035\273\004\005;"
 312      E3E17BC7 
 312      887A2B3E 
 312      B71DBB04 
ARM GAS  /tmp/ccKVRnqx.s 			page 24


 312      053B
 313 06c5 C303663D 		.ascii	"\303\003f=[I^`\301.8\006\323s\366\023\013v\211\007\314"
 313      5B495E60 
 313      C12E3806 
 313      D373F613 
 313      0B768907 
 314 06da 3A604C5E 		.ascii	":`L^b\301\2569\006\323sv\205\005S|\034`\326\001P\362"
 314      62C1AE39 
 314      06D37376 
 314      8505537C 
 314      1C60D601 
 315 06f0 1A0B36DC 		.ascii	"\032\0136\3341\230\236\263\033,\330(\036\260\2005g\225"
 315      31989EB3 
 315      1B2CD828 
 315      1EB08035 
 315      6795
 316 0702 3B19B0D7 		.ascii	";\031\260\327\034\203\3519\033\313\202U\362\200\265"
 316      1C83E939 
 316      1BCB8255 
 316      F280B5
 317 0711 B5E66C3C 		.ascii	"\265\346l<\0136\3361\230\236\263\267X\260I<`\355\254"
 317      0B36DE31 
 317      989EB3B7 
 317      58B0493C 
 317      60EDAC
 318 0724 399BC482 		.ascii	"9\233\304\202Ms\014\246\347l\012\0136\213\007\254\223"
 318      4D730CA6 
 318      E76C0A0B 
 318      368B07AC 
 318      93
 319 0735 3567D358 		.ascii	"5g\323X\260\331\216\301\364\234-d\301\336\347\001{\334"
 319      B0D98EC1 
 319      F49C2D64 
 319      C1DEE701 
 319      7BDC
 320 0747 9AB3C52C 		.ascii	"\232\263\305,\330<\307`z\316\226\262`\013x\300\272["
 320      D83CC760 
 320      7ACE96B2 
 320      600B78C0 
 320      BA5B
 321 0759 73B68C05 		.ascii	"s\266\214\005[\344\030L\317\331\012\026l)\017X\2765"
 321      5BE4184C 
 321      CFD90A16 
 321      6C290F58 
 321      BE35
 322 076b 67AB58B0 		.ascii	"g\253X\260\345\216\301\364\234\255a\301V\361\200\375"
 322      E58EC1F4 
 322      9CAD61C1 
 322      56F180FD 
 323 077b CD9AB3B5 		.ascii	"\315\232\263\265,\330Z\307`z\316\352X\260\365<`\317"
 323      2CD85AC7 
 323      607ACEEA 
 323      58B0F53C 
 323      60CF
 324 078d 997096FA 		.ascii	"\231p\226\372\230\225#\303\364\032vz\367\251O\013p\034"
 324      989523C3 
 324      F41A767A 
ARM GAS  /tmp/ccKVRnqx.s 			page 25


 324      F7A94F0B 
 324      701C
 325 079f 8ED1421A 		.ascii	"\216\321B\032c\213\317iD\246\223\233\004\312\367\254"
 325      638BCF69 
 325      44A6939B 
 325      04CAF7AC 
 326 07af 52C7791A 		.ascii	"R\307y\032\255n\347A\264\031\000\247lbB\337\275\216"
 326      AD6EE741 
 326      B41900A7 
 326      6C6242DF 
 326      BD8E
 327 07c1 C10CA64C 		.ascii	"\301\014\246L\300\234>\362\221\305\331\370\004\347]"
 327      C09C3EF2 
 327      91C5D9F8 
 327      04E75D
 328 07d0 C3A310CB 		.ascii	"\303\243\020\313G\360M\232\351\032\333L\207yd\260\031"
 328      47F04D9A 
 328      E91ADB4C 
 328      877964B0 
 328      19
 329 07e1 770F6F9A 		.ascii	"w\017o\232v\247R\237\024\371\237\017\235\035\373\271"
 329      76A7529F 
 329      14F99F0F 
 329      9D1DFBB9 
 330 07f1 16BE2B2E 		.ascii	"\026\276+.\022\276\037\367\031\343\277Z\207\217\210"
 330      12BE1FF7 
 330      19E3BF5A 
 330      878F88
 331 0800 60926E14 		.ascii	"`\222n\024CWs\306\021\037,e\337\275+\027(\3120\257\003"
 331      435773C6 
 331      111F2C65 
 331      DFBD2B17 
 331      28CA30AF 
 332 0815 41767EA6 		.ascii	"Av~\246\011\3622\012\322\360\017\020\244\321\261 m\015"
 332      09F2320A 
 332      D2F00F10 
 332      A4D1B120 
 332      6D0D
 333 0827 8224DB3A 		.ascii	"\202$\333:\027$\325\"\257\242 #\375?_\2207\374N\005"
 333      1724D522 
 333      AFA22023 
 333      FD3F5F90 
 333      37FC4E05 
 334 083b 69C70882 		.ascii	"i\307\010\202\263\251\373\351l\352Va\254\375l\212\360"
 334      B3A9FBE9 
 334      6CEA5661 
 334      ACFD6C8A 
 334      F0
 335 084c F386EB56 		.ascii	"\363\206\353V\375\202\301\376\255d\031\202dg\232\306"
 335      FD82C1FE 
 335      AD641982 
 335      64679AC6 
 336 085c 28C986AD 		.ascii	"(\311\206\255\323\324\0112}Z\364\026\362N\312:\364]"
 336      D3D40932 
 336      7D5AF416 
 336      F24ECA3A 
 336      F45D
ARM GAS  /tmp/ccKVRnqx.s 			page 26


 337 086e 2ADEF85A 		.ascii	"*\336\370Z\364\022\024l\372\317\002\033\232\\2Z\233"
 337      F412146C 
 337      FACF021B 
 337      9A5C325A 
 337      9B
 338 087f BD3F469C 		.ascii	"\275?F\234\316{?\023nG\255\343\371\366\330\335\232y"
 338      CE7B3F13 
 338      6E47ADE3 
 338      F9F6D8DD 
 338      9A79
 339 0891 4C42F3F8 		.ascii	"LB\363\370\250\211y4k\276\275\262\271\222\244>\222\220"
 339      A8897934 
 339      6BBEBDB2 
 339      B992A43E 
 339      9290
 340 08a3 345A99A3 		.ascii	"4Z\231\243\340\234X\331\245\3739\347\354\332C\212/k"
 340      E09C58D9 
 340      A5FB39E7 
 340      ECDA438A 
 340      2F6B
 341 08b5 8688C351 		.ascii	"\206\210\303Q\0333\\d]g\243A\033<\223\177,\362\266\253"
 341      1B335C64 
 341      5D67A341 
 341      1B3C937F 
 341      2CF2B6AB 
 342 08c9 C9BA4EDD 		.ascii	"\311\272N\335]t\366M\376\3041\371\327\255\353\310\342"
 342      5D74F64D 
 342      FEC431F9 
 342      D7ADEBC8 
 342      E2
 343 08da C792A4C2 		.ascii	"\307\222\244\3026W\241\2726L\363\007c\212\213\2149\263"
 343      3657A1BA 
 343      364CF307 
 343      638A8B8C 
 343      39B3
 344 08ec 5DCCE2A9 		.ascii	"]\314\342\251$\034u\254\374\000\253\374\344\325\332"
 344      241C75AC 
 344      FC00ABFC 
 344      E4D5DA
 345 08fb 6922E1DF 		.ascii	"i\"\341\337d\275\342qvtO=g\332\366\246\252\371\271\250"
 345      64BDE271 
 345      76744F3D 
 345      67DAF6A6 
 345      AAF9B9A8 
 346 090f F91F2C34 		.ascii	"\371\037,4\377\270\025\220$\\\307\"\0376\325\374\346"
 346      FFB81590 
 346      245CC722 
 346      1F36D5FC 
 346      E6
 347 0920 BBA9E63F 		.ascii	"\273\251\346?\344\322\374\027\246\232\377\320\271\346"
 347      E4D2FC17 
 347      A69AFFD0 
 347      B9E6
 348 092e 55BC3DE9 		.ascii	"U\274=\351\0255Y\\\344\030,`\327\214\0372\3158\037\233"
 348      1535595C 
 348      E4182C60 
 348      D78C1F32 
ARM GAS  /tmp/ccKVRnqx.s 			page 27


 348      CD381F9B 
 349 0942 F1231759 		.ascii	"\361#\027Y\011_\240o\3141Y\206\306\324iNMZN&\225\344"
 349      095FA06F 
 349      CC315986 
 349      C6D4694E 
 349      4D5A4E26 
 350 0958 B86D7A1F 		.ascii	"\270mz\037:\331\210\347p\0128c\033\252\204z\234\231"
 350      3AD988E7 
 350      700A3863 
 350      1BAA847A 
 350      9C99
 351 096a 8EC1023A 		.ascii	"\216\301\002:\260\3521|\013\332Jj1\2725*\345C\254w\231"
 351      B0EA317C 
 351      0BDA4A6A 
 351      31BA352A 
 351      E543AC77 
 352 097f D15C76CC 		.ascii	"\321\\v\314\3331R\034\202\226\270\214\303^`\2009\226"
 352      DB31521C 
 352      8296B88C 
 352      C35E6080 
 352      3996
 353 0991 852BD2D4 		.ascii	"\205+\322\324n\277I\241\332\250\332\306Z\256j\013\334"
 353      6EBF49A1 
 353      DAA8DAC6 
 353      5AAE6A0B 
 353      DC
 354 09a2 340CFDDE 		.ascii	"4\014\375\336\010\2271J\326\303\335\340X\340\326+F["
 354      0897314A 
 354      D6C3DDE0 
 354      58E0D62B 
 354      465B
 355 09b4 E95F4986 		.ascii	"\351_I\206\330u(\323\205,\343\230@5\303\030\3422\306"
 355      D87528D3 
 355      852CE398 
 355      4035C318 
 355      E232C6
 356 09c7 1057A021 		.ascii	"\020W\240!\256DC\\\215\264\2325G\253Q~\255\213\011]"
 356      AE44435C 
 356      8DB49A35 
 356      47AB517E 
 356      AD8B095D 
 357 09db AF39963B 		.ascii	"\2579\226;`h\035\253j\252\330j\206\265\340\260=\353"
 357      60681DAB 
 357      6AAAD86A 
 357      86B5E0B0 
 357      3DEB
 358 09ed 1503E2D5 		.ascii	"\025\003\342\325\377\270R\235\204\320\365\352\327\035"
 358      FFB8529D 
 358      84D0F5EA 
 358      D71D
 359 09fb 23EAADF9 		.ascii	"#\352\255\371\354\030]D0\211\007\356q\023\006\315>\354"
 359      EC185D44 
 359      308907EE 
 359      711306CD 
 359      3EEC
 360 0a0d E306F014 		.ascii	"\343\006\360\024\022i\246\005\370\344l!\322\305H\227"
 360      1269A605 
ARM GAS  /tmp/ccKVRnqx.s 			page 28


 360      F8E46C21 
 360      D2C54897 
 361 0a1d 236D407A 		.ascii	"#m@z\031\351U\244\215H\207c\203\276\202t\014\322\351"
 361      19E955A4 
 361      8D488763 
 361      83BE8274 
 361      0CD2E9
 362 0a30 48DF43BA 		.ascii	"H\337C\272\020\351b\244K\221nDZ\303c\000\324C2K\301"
 362      10E962A4 
 362      4B916E44 
 362      5AC36300 
 362      D443324B 
 363 0a45 B35A387D 		.ascii	"\263Z8}\272\243\323e\375\336\231\033\337\024\307\015"
 363      BAA3D365 
 363      FDDE991B 
 363      DF14C70D 
 364 0a55 5336B7D3 		.ascii	"S6\267\323|\315|\036D\233\3564\236\370r'O3R\321\325"
 364      7CCD7C1E 
 364      449BEE34 
 364      9EF87227 
 364      4F3352D1 
 365 0a6a 6758FFB2 		.ascii	"gX\377\262\026\377\220\350j\203c1\214\212\251I)\206"
 365      16FF90E8 
 365      6A836331 
 365      8C8AA949 
 365      2986
 366 0a7c 32F6190F 		.ascii	"2\366\031\017\242\331\334\331\334\316\336f\354\354]"
 366      A2D9DCD9 
 366      DCCEDE66 
 366      ECEC5D
 367 0a8b B4B3D968 		.ascii	"\264\263\331h=\357!\335\2026Q\213\264\216\3072\246\263"
 367      3DEF21DD 
 367      8236518B 
 367      B48EC732 
 367      A6B3
 368 0a9d B3DA3D2D 		.ascii	"\263\332=-\264\207\240\377\220Hh2\303\352Tdu\232\244"
 368      B487A0FF 
 368      90486832 
 368      C3EA5464 
 368      759AA4
 369 0ab0 1B3C0FB5 		.ascii	"\033<\017\265p\372\214X\257\354\352\232\306\366\023"
 369      70FA8C58 
 369      AFECEA9A 
 369      C6F613
 370 0abf 95E41097 		.ascii	"\225\344\020\227O\030A\267T\017\3150iK^\361J\262\370"
 370      4F1841B7 
 370      540FCD30 
 370      694B5EF1 
 370      4AB2F8
 371 0ad2 051480F1 		.ascii	"\005\024\200\361\304`1\034 D\252}PX7e:?\242\025yFL\362"
 371      C460311C 
 371      2044AA7D 
 371      50583765 
 371      3A3FA215 
 372 0aea 6D86347C 		.ascii	"m\2064|\362/\011\247[\320!\301\235\225\316\273\224\316"
 372      F22F09A7 
 372      5BD021C1 
ARM GAS  /tmp/ccKVRnqx.s 			page 29


 372      9D95CEBB 
 372      94CE
 373 0afc 13995B95 		.ascii	"\023\231[\225\354T6\273\273\334v\243g\2329Y\334\217"
 373      EC5436BB 
 373      BBDC76A3 
 373      679A3959 
 373      DC8F
 374 0b0e 83C5972E 		.ascii	"\203\305\227.\227i1Ix%\333\240}\263\251\246\365\203"
 374      97693149 
 374      7825DBA0 
 374      7DB3A9A6 
 374      F583
 375 0b20 BB64E326 		.ascii	"\273d\343&2:\233=5Km\036\376MJ\361\365\353V\235\274"
 375      323A9B3D 
 375      354B6D1E 
 375      FE4D4AF1 
 375      F5EB569D 
 376 0b35 673EC68A 		.ascii	"g>\306\212Gp\344\253\311\316\374\\\327\004'\371f\315"
 376      4770E4AB 
 376      C9CEFC5C 
 376      D70427F9 
 376      66CD
 377 0b47 3D44DBC7 		.ascii	"=D\333\307\020d\267S\020I8\214EN\030b\223d\365\010\334"
 377      1064B753 
 377      1049388C 
 377      454E1862 
 377      9364F508 
 378 0b5c C97C822B 		.ascii	"\311|\202+.YWC#p-29\221\302l^dRG\343X\272\363\376\234"
 378      2E595743 
 378      23702D32 
 378      3991C26C 
 378      5E645247 
 379 0b76 11CCA123 		.ascii	"\021\314\241#\335\225\012\262\311\036\024\030\357\035"
 379      DD950AB2 
 379      C91E1418 
 379      EF1D
 380 0b84 E3E93A59 		.ascii	"\343\351:Yr7e\216\202\275\234\303\001f\263\020\270\217"
 380      7237658E 
 380      82BD9CC3 
 380      0166B310 
 380      B88F
 381 0b96 051BED18 		.ascii	"\005\033\355\030L\317\331\227,\3308\0360\233\025\271"
 381      4CCFD997 
 381      2CD8381E 
 381      309B15B9 
 382 0ba6 8335D39A 		.ascii	"\2035\323\232\306\272\206\335@\026\017h\211\301\\v\351"
 382      C6BA86DD 
 382      40160F68 
 382      89C15C76 
 382      E9
 383 0bb7 3603199E 		.ascii	"6\003\031\236\354\036\263`\213\224\274\232\216\2322"
 383      EC1EB360 
 383      8B94BC9A 
 383      8E9A32
 384 0bc6 EE0652FB 		.ascii	"\356\006R\373\300D\272+\345\222\213\010>5G\337\007\014"
 384      C044BA2B 
 384      E5928B08 
ARM GAS  /tmp/ccKVRnqx.s 			page 30


 384      3E3547DF 
 384      070C
 385 0bd8 5513C6AC 		.ascii	"U\023\306\254\252\276\341\312\266\260\365&\177\223\204"
 385      AABEE1CA 
 385      B6B0F526 
 385      7F9384
 386 0be7 398E15AC 		.ascii	"9\216\025\254o\255\303#t\341\327\002\036\270\200I{\231"
 386      6FADC323 
 386      74E1D702 
 386      1EB88049 
 386      7B99
 387 0bf9 7DD80E2D 		.ascii	"}\330\016-\213\337\241\343;\205\203\340\017H\177Dz\026"
 387      8BDFA1E3 
 387      3B8583E0 
 387      0F487F44 
 387      7A16
 388 0c0b E979A417 		.ascii	"\351y\244\027\2216 U\334\277\376g\243JBU\216\301\333"
 388      91362055 
 388      DCBFFE67 
 388      A34A4255 
 388      8EC1DB
 389 0c1e EA1D53A6 		.ascii	"\352\035S\246~\250\340`7\204\354:\344\367\270;~E=\356"
 389      7EA8E060 
 389      3784EC3A 
 389      E4F7B83B 
 389      7E453DEE 
 390 0c32 7037F152 		.ascii	"p7\361Rk\014\206B\315\362\237%o-\227\274\2263\331\224"
 390      6B0C8642 
 390      CDF29F25 
 390      6F2D97BC 
 390      9633D994 
 391 0c46 BC435CEC 		.ascii	"\274C\\\354\253C\314\266|%e0\212f\317\257\270\235\276"
 391      AB43CCB6 
 391      7C256530 
 391      8A66CFAF 
 391      B89DBE
 392 0c59 3BF4AADB 		.ascii	";\364\252\333\342}.WJ\220\235FA\014\025\253i\313'\\"
 392      E27D2E57 
 392      4A909D46 
 392      410C15AB 
 392      69CB275C 
 393 0c6d A4332A2E 		.ascii	"\2443*./\345N\022\276\340\203\253s[\341\231\355Z41\211"
 393      2FE54E12 
 393      BEE083AB 
 393      735BE199 
 393      ED5A3431 
 394 0c82 FAD4D4F3 		.ascii	"\372\324\324\363\236\264I\2349~\371\025u\006^\21161"
 394      9EB4499C 
 394      397EF915 
 394      75065E89 
 394      3631
 395 0c94 FEA68C03 		.ascii	"\376\246\214\003\250\036\210(m\234\3330xN?\262\231n"
 395      A81E8828 
 395      6D9CDB30 
 395      784E3FB2 
 395      996E
 396 0ca6 D9227FC9 		.ascii	"\331\"\177\3110|\016\037\226\\td\263\204\373g\261\235"
ARM GAS  /tmp/ccKVRnqx.s 			page 31


 396      307C0E1F 
 396      965C7464 
 396      B384FB67 
 396      B19D
 397 0cb8 86D986FB 		.ascii	"\206\331\206\373\340\345\360\271\015O\354\376\016\012"
 397      E0E5F0B9 
 397      0D4FECFE 
 397      0E0A
 398 0cc6 43787018 		.ascii	"Cxp\030\276\252|-&b\220\005\202\2670\344\232\343\030"
 398      BEAA7C2D 
 398      26629005 
 398      82B730E4 
 398      9AE318
 399 0cd9 2EA0835B 		.ascii	".\240\203[\252\207{\237\007\316j\\\007\270ez\270\371"
 399      AA877B9F 
 399      07CE6A5C 
 399      07B8657A 
 399      B8F9
 400 0ceb 8EE1F4DC 		.ascii	"\216\341\364\334\255\320\303-\344\201\263\032\330\001"
 400      ADD0C32D 
 400      E481B31A 
 400      D801
 401 0cf9 6E951E6E 		.ascii	"n\225\036n\251c8=wk\364p+x\340\314\006w\263\017k\300"
 401      A963383D 
 401      776BF470 
 401      2B78E0CC 
 401      0677B30F 
 402 0d0f B238DE4D 		.ascii	"\2628\336M\314k\202\233\270\260IH\247 \235\206t\006"
 402      CC6B829B 
 402      B8B04948 
 402      A7209D86 
 402      7406
 403 0d21 D25948DF 		.ascii	"\322YH\337a\035\234\225Cy\303\315\314\247\252o\342\230"
 403      611D9C95 
 403      4379C3CD 
 403      CCA7AA6F 
 403      E298
 404 0d33 DFD4D9AE 		.ascii	"\337\324\331\256\265\350\370N\277%(\213k\260[T\343\036"
 404      B5E8F84E 
 404      BF25288B 
 404      6BB05B54 
 404      E31E
 405 0d45 DD0938F7 		.ascii	"\335\0118\367\333\215n\370k\244\303\220\343QH_C:\206"
 405      DB8D6EF8 
 405      6BA4C390 
 405      E351485F 
 405      433A86
 406 0d58 87FBE5CE 		.ascii	"\207\373\345\316^\251\235\224\332\036\027R\001\336s"
 406      5EA99D94 
 406      DA1E1752 
 406      01DE73
 407 0d67 EC81E75A 		.ascii	"\354\201\347Zx\340\276\031X\235\223V\364\275\302\014"
 407      78E0BE19 
 407      589D9356 
 407      F4BDC20C 
 408 0d77 2579A67E 		.ascii	"%y\246~\342\351\223m\346\221\025#\345F\343KC\206\212"
 408      E2E9936D 
ARM GAS  /tmp/ccKVRnqx.s 			page 32


 408      E6911523 
 408      E546E34B 
 408      43868A
 409 0d8a 86E0CD6D 		.ascii	"\206\340\315m\315\303\007n\353\340\215\367\001\307\341"
 409      CDC3076E 
 409      EBE08DF7 
 409      01C7E1
 410 0d99 1FCFDE45 		.ascii	"\037\317\336E\327#\346\243g\375\270\245\303\347\033"
 410      D723E6A3 
 410      67FDB8A5 
 410      C3E71B
 411 0da8 84918F8D 		.ascii	"\204\221\217\215\236\265\252\006\247%\037g\366\253\020"
 411      9EB5AA06 
 411      A7251F67 
 411      F6AB10
 412 0db7 61ADAC99 		.ascii	"a\255\254\231\317\375\032\250a\305vcK\363\327@u\267"
 412      CFFD1AA8 
 412      61C57663 
 412      4BF3D740 
 412      75B7
 413 0dc9 C9E25237 		.ascii	"\311\342R7Yc\2572r9\216N\236\252\270\270\234P\243.\303"
 413      5963AF32 
 413      72398E4E 
 413      9EAAB8B8 
 413      9C50A32E 
 414 0dde 6EC4777C 		.ascii	"n\304w|v\210\032d3\234\2666\030\322\027\352`\312\353"
 414      76881A64 
 414      339CB636 
 414      18D217EA 
 414      60CAEB
 415 0df1 182C6006 		.ascii	"\030,`\006v\000\301N\360\200YO\30440\372*\323\017\216"
 415      7600C14E 
 415      F080594F 
 415      C43430FA 
 415      2AD30F8E 
 416 0e05 C10206F5 		.ascii	"\301\002\006\365\245\267\355/\307\016\275\002\351J\244"
 416      A5B7ED2F 
 416      C70EBD02 
 416      E94AA4
 417 0e14 AB783AF7 		.ascii	"\253x:\367b73\321\030\217OK>v\256v\263\017k\270\262"
 417      623733D1 
 417      188F4F4B 
 417      3E76AE76 
 417      B30F6BB8 
 418 0e29 B8103DEA 		.ascii	"\270\020=\352\"\036\226\346\245YJ\275\031\301\354\263"
 418      221E96E6 
 418      A5594ABD 
 418      19C1ECB3 
 419 0e39 201F49F8 		.ascii	" \037I\370\312\320\223~#\274\253(c\261\273\177GtLa$"
 419      CAD0937E 
 419      23BCAB28 
 419      63B1BB7F 
 419      47744C61 
 420 0e4e E118DEF7 		.ascii	"\341\030\336\367\276\373^\213@\002+\243\205\225\211"
 420      BEFB5E8B 
 420      40022BA3 
 420      859589
ARM GAS  /tmp/ccKVRnqx.s 			page 33


 421 0e5d 30751469 		.ascii	"0u\024i]\222p2CA\225\243\177\025\346\220\376\261\367"
 421      5D927032 
 421      434195A3 
 421      7F15E690 
 421      FEB1F7
 422 0e70 9BFCEEEA 		.ascii	"\233\374\356\352\372\215u!U\2765n\335\011&\304Q\315"
 422      FA8D7521 
 422      55BE356E 
 422      DD0926C4 
 422      51CD
 423 0e82 AAAF5FDD 		.ascii	"\252\257_\335\260\322K\342\037\245\261\361%\201\177"
 423      B0D24BE2 
 423      1FA5B1F1 
 423      25817F
 424 0e91 8AB921B3 		.ascii	"\212\271!\263\227\0120\013W\227n\322\000\0163\233\026"
 424      970A300B 
 424      57976ED2 
 424      000E339B 
 424      16
 425 0ea2 1A1ABEBE 		.ascii	"\032\032\276\276\017C\265\032\364R\257\2642\217\377"
 425      0F43B51A 
 425      F452AFB4 
 425      328FFF
 426 0eb1 AC710827 		.ascii	"\254q\010'[\214\016\340jQ\200\346f^;i<\341WF\344X\014"
 426      5B8C0EE0 
 426      6A5180E6 
 426      665E3B69 
 426      3CE15746 
 427 0ec8 28F95A55 		.ascii	"(\371ZU-\324\232>s<\236|n1\236h\006,\011o\241\314[\322"
 427      2DD49A3E 
 427      733C9E7C 
 427      6E319E68 
 427      062C096F 
 428 0ee0 A6AFAB35 		.ascii	"\246\257\2535\223\307Q\222o\316\311\002\011L4\2659u"
 428      93C75192 
 428      6FCEC902 
 428      094C34B5 
 428      3975
 429 0ef2 98C12329 		.ascii	"\230\301#)\205'\277\360K\262X\207\312\236\232Y\331z"
 429      8527BFF0 
 429      4BB25887 
 429      CA9E9A59 
 429      D97A
 430 0f04 0822CF2E 		.ascii	"\010\"\317.\243\256W\022]\357\342\322u\265\235\256\365"
 430      A3AE5712 
 430      5DEFE2D2 
 430      75B59DAE 
 430      F5
 431 0f15 BE9D80ED 		.ascii	"\276\235\200\355q\254\354\275\026\312\326^\344\223\204"
 431      71ACECBD 
 431      16CAD65E 
 431      E49384
 432 0f24 B928F3AE 		.ascii	"\271(\363\256\264\262\365\325f\326\366Z\367\244v\224"
 432      B4B2F5D5 
 432      66D6F65A 
 432      F7A47694 
 433 0f34 350852B9 		.ascii	"5\010R\271\300,\227\237\224d\035\200Y\250c\220\236w"
ARM GAS  /tmp/ccKVRnqx.s 			page 34


 433      C02C979F 
 433      94641D80 
 433      59A86390 
 433      9E77
 434 0f46 59FCCAB1 		.ascii	"Y\374\312\2616\016Zh\243eJ\033\253\214\002\350jU\223"
 434      360E5A68 
 434      A3654A1B 
 434      AB8C02E8 
 434      6A5593
 435 0f59 016BFE77 		.ascii	"\001k\376w\2422>Cel0b\231\231\261\356\311s'3S\021\232"
 435      A2323E43 
 435      656C3062 
 435      9999B1EE 
 435      C9732733 
 436 0f70 D8194492 		.ascii	"\330\031D\222\350\301\277\300\241e?\322\003H\017\353"
 436      E8C1BFC0 
 436      A1653FD2 
 436      03480FEB 
 437 0f80 A7F89F19 		.ascii	"\247\370\237\031;\222\336z\315\006\265\326:q\306zR\315"
 437      3B92DE7A 
 437      CD06B5D6 
 437      3A71C67A 
 437      52CD
 438 0f92 418EDFD1 		.ascii	"A\216\337\321\265\307\343\372\362\262x\324q{"
 438      B5C7E3FA 
 438      F2B278D4 
 438      717B
 439 0fa0 7C63D11E 		.ascii	"|c\321\036\276\224\004uF\011t\265\252\311\307Y\001\332"
 439      BE940475 
 439      460974B5 
 439      AAC9C759 
 439      01DA
 440 0fb2 E80418EF 		.ascii	"\350\004\030\357!\355q\024\333c\037\017Vwk\254\267\030"
 440      21ED7114 
 440      DB631F0F 
 440      56776BAC 
 440      B718
 441 0fc4 ACAF79B0 		.ascii	"\254\257y\260\362\255\261&1X?\360`\375\315\032k\012"
 441      F2ADB126 
 441      31583FF0 
 441      60FDCD1A 
 441      6B0A
 442 0fd6 83D5C083 		.ascii	"\203\325\300\203\365\2345\3264\006kXk\016\254\376\326"
 442      F59C35D6 
 442      34066B58 
 442      6B0EACFE 
 442      D6
 443 0fe7 583318AC 		.ascii	"X3\030\2541<X\345\326X\013\031\254)<X\203\254\261\026"
 443      313C58E5 
 443      D6580B19 
 443      AC293C58 
 443      83ACB116 
 444 0ffb 33587378 		.ascii	"3Xsx\260"
 444      B0
 445 1000 14D11AAC 		.ascii	"\024\321\032\254\252\312b\254\251K\255\246\221\001@"
 445      AACA62AC 
 445      A94BADA6 
ARM GAS  /tmp/ccKVRnqx.s 			page 35


 445      910140
 446 100f 1D6B2E92 		.ascii	"\035k.\222\261\246\001\307\232\205\2553\2165z\010\322"
 446      B1A601C7 
 446      9A85AD33 
 446      8E357A08 
 446      D2
 447 1020 61AE18C7 		.ascii	"a\256\030\307\232\003d\254\271\3025\326\034\266\033"
 447      9A0364AC 
 447      B9C235D6 
 447      1CB61B
 448 102f 6BCAF5AE 		.ascii	"k\312\365\256P\026\257;\356\3147,:\363M\251\316\234"
 448      5016AF3B 
 448      EECC372C 
 448      3AF34DA9 
 448      CE9C
 449 1041 4491AFA4 		.ascii	"D\221\257\244\225\255\2535\363Hs\006\235\353ul\270\365"
 449      95ADAB35 
 449      F3487306 
 449      9DEB756C 
 449      B8F5
 450 1053 3C583ACF 		.ascii	"<X:\317\246\333\206\231<\307`m\344\301\262}c\227\371"
 450      A6DB8699 
 450      3CC7606D 
 450      E4C1B27D 
 450      6397F9
 451 1066 B08D248B 		.ascii	"\260\215$\213W\321Q_C\347\254x\010\035\352\321\271\350"
 451      57D1515F 
 451      43E7AC78 
 451      081DEAD1 
 451      B9E8
 452 1078 1AA301EA 		.ascii	"\032\243\001\352\033]M\216\262\261\300\345h\201\232"
 452      1B5D4D8E 
 452      B2B1C0E5 
 452      68819A
 453 1087 596DE5C2 		.ascii	"Ym\345\302[\250\303kk'\315\026F\232\255(M-J\263\035"
 453      5BA8C36B 
 453      6B27CD16 
 453      469AAD28 
 453      4D2D4AB3 
 454 109c E911A4C7 		.ascii	"\351\021\244\307\221\236@\372\035\322\357\221\236Fz"
 454      919E40FA 
 454      1DD2EF91 
 454      9E467A
 455 10ab 06E939A4 		.ascii	"\006\3519\244\027\220\376\204\364e\017\307\004\344S"
 455      1790FE84 
 455      F4650FC7 
 455      04E453
 456 10ba B7F9C317 		.ascii	"\267\371\303\027I\330f\350@\352\254\003b\367\236\020"
 456      49D866E8 
 456      40EAAC03 
 456      62F79E10 
 457 10ca BBBB6951 		.ascii	"\273\273iQI8\204\267\255\267\234;\250\025\250s\207\327"
 457      493884B7 
 457      ADB79C3B 
 457      A815A873 
 457      87D7
 458 10dc 95975B8B 		.ascii	"\225\227[\213\030\344\013j)\2352FzL\246\013\311E_\223"
ARM GAS  /tmp/ccKVRnqx.s 			page 36


 458      18E40B6A 
 458      299D3246 
 458      7A4CA60B 
 458      C9455F93 
 459 10f0 B530E55A 		.ascii	"\2650\345Zc\243K0;\330\205c\253\362\270\332\371\364"
 459      63A34B30 
 459      3BD88563 
 459      ABF2B8DA 
 459      F9F4
 460 1102 AC89D73D 		.ascii	"\254\211\327=d9\255\336 \033?P\3656\365\224\260J\004"
 460      6439ADDE 
 460      201B3F50 
 460      F536F594 
 460      B04A04
 461 1115 FAD60024 		.ascii	"\372\326\000$\213B\226^$A\277n\013?\225F\365C\317F\201"
 461      8B42965E 
 461      2441BF6E 
 461      0B3F9546 
 461      F543CF46 
 462 112a 9C978466 		.ascii	"\234\227\204f\225\261j\323\327<\206\367\362I\033\330"
 462      95B16AD3 
 462      D73C86F7 
 462      F2491BD8 
 463 113a 4D9AD8E3 		.ascii	"M\232\330\343\271D\266C\252B\357\230\273~\204\272\327"
 463      B944B643 
 463      AA42EF98 
 463      BB7E84BA 
 463      D7
 464 114b E42D0FE9 		.ascii	"\344-\017\351\0057,\234\253%\220$\214\272\031\267Vx"
 464      05372C9C 
 464      AB259024 
 464      8CBA19B7 
 464      5678
 465 115d 0C0E7626 		.ascii	"\014\016v&y?\233\344f^7Yr9)*\257\346\250[d\224\021J"
 465      793F9BE4 
 465      665E3759 
 465      7239292A 
 465      AFE6A85B 
 466 1175 DBF7D3D5 		.ascii	"\333\367\323\325\351\016\014L\235\013\262\374\367\330"
 466      E90E0C4C 
 466      9D0BB2FC 
 466      F7D8
 467 1183 56D3B1AD 		.ascii	"V\323\261\255*o6it.\240\3521s\351\251 \263\020h\362"
 467      2A6F3669 
 467      742EA0EA 
 467      3173E9A9 
 467      20B31068 
 468 1198 CDC64677 		.ascii	"\315\306Fw\031\032\335\245o@WV:\321\330\350\022\234"
 468      191ADDA5 
 468      6F405756 
 468      3AD1D8E8 
 468      129C
 469 11aa DD2C09B3 		.ascii	"\335,\011\263S\2723c2\223c\037\012\355\267\263J|\223"
 469      53BA3363 
 469      3293631F 
 469      0AEDB7B3 
 469      4A7C93
ARM GAS  /tmp/ccKVRnqx.s 			page 37


 470 11bd ECC9313C 		.ascii	"\354\3111<\033eF\250\246\353\213\036f!w\256\221\003"
 470      1B6546A8 
 470      A6EB8B1E 
 470      662177AE 
 470      9103
 471 11cf 67EB4AC9 		.ascii	"g\353J\311\345\0375=\372\214w\273\340\204\037\310v\301"
 471      E51F353D 
 471      FA8C77BB 
 471      E0841FC8 
 471      76C1
 472 11e1 0FD0F0E6 		.ascii	"\017\320\360\346\337\234\321\360\214+{+\261\310|\243"
 472      DF9CD1F0 
 472      8C2B7B2B 
 472      B1C87CA3 
 473 11f1 E19D7F2E 		.ascii	"\341\235\177.@s9\016\006\270\260\271\271\314\317\232"
 473      4073390E 
 473      06B8B0B9 
 473      B9CCCF9A 
 474 1201 BCE09C44 		.ascii	"\274\340\234DO\025D\376w9\347\377\000\026Yj\344\377"
 474      4F1544FE 
 474      7739E7FF 
 474      0016596A 
 474      E4FF
 475 1213 0BC2FF52 		.ascii	"\013\302\377R.\376\367\317\342R\376\254\324\344\345"
 475      2EFEF7CF 
 475      E252FEAC 
 475      D4E4E5
 476 1222 01A60F7D 		.ascii	"\001\246\017}\274\276-\355\371+Q\200I\267d\336p\242"
 476      BCBE2DED 
 476      F92B5180 
 476      49B764DE 
 476      70A2
 477 1234 C3C155A0 		.ascii	"\303\301U\240&\314o\302\365\3225\\\354\037\0349\263"
 477      26CC6FC2 
 477      F5D2355C 
 477      EC1F1C39 
 477      B3
 478 1245 B987FBBD 		.ascii	"\271\207\373\275s\013\327\341~\237x\310Z\340z#\227K"
 478      730BD7E1 
 478      7E9F78C8 
 478      5AE07A23 
 478      974B
 479 1257 E8E17EEB 		.ascii	"\350\341~\353\271\270\254\312|\270\0379\222\322\252"
 479      B9B8ACCA 
 479      7CB81F39 
 479      92D2AA
 480 1266 B7D5187D 		.ascii	"\267\325\030}6\357AQ\237\262\335\364cl\235\365\016\272"
 480      36EF4151 
 480      9FB2DDF4 
 480      636C9DF5 
 480      0EBA
 481 1278 A94E086D 		.ascii	"\251N\010m\305\226`J\302j\307`\001k\260\315<`\231\327"
 481      C596604A 
 481      C26AC760 
 481      016BB0CD 
 481      3C6099D7 
 482 128c 9229589D 		.ascii	"\222)X\235c0\023\316\232\333R;LZ*\225n0\234rc<\005\247"
ARM GAS  /tmp/ccKVRnqx.s 			page 38


 482      633013CE 
 482      9ADB523B 
 482      4C5A2A95 
 482      6E309C72 
 483 12a4 C1C1A937 		.ascii	"\301\301\2517u\036&4\243\013\373\031D\266\336w\364\363"
 483      751E2634 
 483      A30BFB19 
 483      44B6DE77 
 483      F4F3
 484 12b6 44DEE744 		.ascii	"D\336\347Dd\343YGND\336\313\212\274\303\261\3106\366"
 484      64E35947 
 484      4E44DECB 
 484      8ABCC3B1 
 484      C836F6
 485 12c9 7780C764 		.ascii	"w\200\307d~\316AIv\372\373\332Z\177\246N\315\362E\024"
 485      7ECE4149 
 485      76FAFBDA 
 485      5A7FA64E 
 485      CDF24514 
 486 12dd D529572E 		.ascii	"\325)W.?\347\303A\345\030\372\344\251\267\232?i\263"
 486      3FE7C341 
 486      E518FAE4 
 486      A9B79A3F 
 486      69B3
 487 12ef 84C19D2E 		.ascii	"\204\301\235.Fo\327\020\016\320\334\314\276\356\362"
 487      466FD710 
 487      0ED0DCCC 
 487      BEEEF2
 488 12fe 1CF50916 		.ascii	"\034\365\011\026=nm\036\326\177\242\271^'y%L6\013S\254"
 488      3D6E6D1E 
 488      D67FA2B9 
 488      5E277925 
 488      4C360B53 
 489 1313 A58EB102 		.ascii	"\245\216\261\002f\214j6\224\226R\026Oz\310\354\352;"
 489      668C6A36 
 489      94965216 
 489      4F7AC8EC 
 489      EA3B
 490 1325 9C257ECF 		.ascii	"\234%~\31737\372\306\223\255\003\3430\340z\326\033\257"
 490      3337FAC6 
 490      93AD03E3 
 490      30E07AD6 
 490      1BAF
 491 1337 B9D5A9CD 		.ascii	"\271\325\251\315\031eI?\362\332\210loAZ\213\364s\244"
 491      1965493F 
 491      F2DA886C 
 491      6F415A8B 
 491      F473A4
 492 134a DB91EE41 		.ascii	"\333\221\356Az\020\351a\036\321\326y\232<\012[\323\334"
 492      7A10E961 
 492      1ED1D679 
 492      9A3C0A5B 
 492      D3DC
 493 135c F68318E1 		.ascii	"\366\203\030\341\312\257\316\017U&\265\343\336\205L"
 493      CAAFCE0F 
 493      5526B5E3 
 493      DE854C
ARM GAS  /tmp/ccKVRnqx.s 			page 39


 494 136b 2CD88B16 		.ascii	",\330\213\026|\306Cv\"\177j\260`\316\235\310\347=\206"
 494      7CC64376 
 494      227F6AB0 
 494      60CE9DC8 
 494      E73D86
 495 137e 9DC82B07 		.ascii	"\235\310+\007\007hn\346}\310u\2676\335\207|\340V\323"
 495      07686EE6 
 495      7DC875B7 
 495      36DD877C 
 495      E056D3
 496 1391 7DC8DFDC 		.ascii	"}\310\337\334\252\337\207\254f\377\230\316v1\3317\322"
 496      AADF87AC 
 496      66FF98CE 
 496      7631D937 
 496      D2
 497 13a2 D96E26BB 		.ascii	"\331n&\273\362\266T\266\207\311\236\222\316\3662\331"
 497      F2B654B6 
 497      87C99E92 
 497      CEF632D9 
 498 13b2 EFA5B37D 		.ascii	"\357\245\263}L\366\342t\266\237i\021\333\035\321i%\311"
 498      4CF6E274 
 498      B69F6911 
 498      DB1DD169 
 498      25C9
 499 13c4 E205EC02 		.ascii	"\342\005\354\002\027=\346;\242\301|]\006K0\333\021m"
 499      173DE63B 
 499      A2C17C5D 
 499      064B30DB 
 499      116D
 500 13d6 B0ACB425 		.ascii	"\260\254\264%(h\011\343\024\230gh\313`d\222\321`\367"
 500      286809E3 
 500      14986768 
 500      CB606492 
 500      D160F7
 501 13e9 C86594D7 		.ascii	"\310e\224\327\351:\330+^\363u\260\364\206\265\265\267"
 501      E93AD82B 
 501      5EF375B0 
 501      F486B5B5 
 501      B7
 502 13fa 897A294C 		.ascii	"\211z)L\237\222Xo\354&\223B2r\020\336$a=\027Z\246\241"
 502      9F92586F 
 502      EC269342 
 502      327210DE 
 502      24613D17 
 503 1411 43F36F35 		.ascii	"C\363o5F4\263\276fs\366J\303H\3537\322\014\301\360s"
 503      4634B3BE 
 503      6673F64A 
 503      C348EB37 
 503      D20CC1F0 
 504 1426 1A5C4EAA 		.ascii	"\032\\N\252\337%/\327\210\001\223\200Xw\253,\216\365"
 504      DF252FD7 
 504      88019380 
 504      5877AB2C 
 504      8EF5
 505 1438 DE671636 		.ascii	"\336g\0266\353\356B\307\3415\214!\353\350n\015\222\237"
 505      EBEE42C7 
 505      E1358C21 
ARM GAS  /tmp/ccKVRnqx.s 			page 40


 505      EBE86E0D 
 505      929F
 506 144a 7914D9CB 		.ascii	"y\024\331\313yZ\234\222\232O\264K\011R\277\366\370\271"
 506      795A9C92 
 506      9A4FB44B 
 506      0952BFF6 
 506      F8B9
 507 145c E7D1814C 		.ascii	"\347\321\201L\362\3426\276\3333\317\253t0\2628\305K"
 507      F2E236BE 
 507      DB33CFAB 
 507      7430B238 
 507      C54B
 508 146e 6C7DAA51 		.ascii	"l}\252Q\204\213SQ\204\251\\\"\\?0\003O1\340w|\327\277"
 508      848B5351 
 508      84A95C22 
 508      5C3F3003 
 508      4F31E077 
 509 1485 5B7F379D 		.ascii	"[\1777\235O\315\360\022\317\267\343\366fy\276\267\275"
 509      4FCDF012 
 509      CFB7E3F6 
 509      6679BEB7 
 509      BD
 510 1496 06CF5745 		.ascii	"\006\317WE\337\301 \371\231}\337W\2677\365}\337\336"
 510      DFC120F9 
 510      997DDF57 
 510      B737F57D 
 510      DFDE
 511 14a8 6EEAFBCE 		.ascii	"n\352\373\316\334n\352\373\256\334n\352\373^\276C\357"
 511      DC6EEAFB 
 511      AEDC6EEA 
 511      FB5EBE43 
 511      EF
 512 14b9 FB040EFF 		.ascii	"\373\004\016\377\224\026E\026\337\361\342\021\025^{"
 512      94164516 
 512      DFF1E211 
 512      155E7B
 513 14c8 FF44DA86 		.ascii	"\377D\332\206\327?\351\332\253~\335\361\235\203\326"
 513      D73FE9DA 
 513      AB7EDDF1 
 513      9D83D6
 514 14d7 E23B75CD 		.ascii	"\342;u\315\354?\007\016\360\364\237\205\234\375g\261"
 514      EC3F070E 
 514      F0F49F85 
 514      9CFD67B1 
 515 14e7 D1F8261E 		.ascii	"\321\370&\036@\343[\314e|3\017\314\3709\033\366\227"
 515      40E35BCC 
 515      657C330F 
 515      CCF8391B 
 515      F697
 516 14f9 790D41E9 		.ascii	"y\015A\351D/\307\224S\325\303\365)\270\001\277\312K"
 516      442FC794 
 516      53D5C3F5 
 516      29B801BF 
 516      CA4B
 517 150b 62EBB177 		.ascii	"b\353\261w\350m\330\260\310D*\262bb\225\327z\003\276"
 517      E86DD8B0 
 517      C8442AB2 
ARM GAS  /tmp/ccKVRnqx.s 			page 41


 517      626295D7 
 517      7A03BE
 518 151e E16F9230 		.ascii	"\341o\2220\013\353Y\354mn\234\271\322Laf\033~S\313\003"
 518      0BEB59EC 
 518      6D6E9CB9 
 518      D24C6166 
 518      1B7E53CB 
 519 1533 BF4F495C 		.ascii	"\277OI\\?\363\374\221\\\332q\327\242\307\371\341\216"
 519      3FF3FC91 
 519      5CDA71D7 
 519      A2C7F9E1 
 519      8E
 520 1544 8C1E478F 		.ascii	"\214\036G\217\203\013\015\306\006_RK\377\177@\346\006"
 520      830B0DC6 
 520      065F524B 
 520      FF7F40E6 
 520      06
 521 1555 1F3E2CB9 		.ascii	"\037>,\271\274V{U\232n\012\275\202,|\322<}\220\035\260"
 521      BC567B55 
 521      9A6E0ABD 
 521      822C7CD2 
 521      3C7D901D 
 522 156a F4B8090A 		.ascii	"\364\270\011\012\246\334\351\024,\240\003[\305\202\215"
 522      A6DCE914 
 522      2CA0035B 
 522      C5828D
 523 1579 E401B3D9 		.ascii	"\344\001\263\331\352\273\206\005{\3031\230\236\263\265"
 523      EABB8605 
 523      7BC33198 
 523      9EB3B5
 524 1588 2CD8041E 		.ascii	",\330\004\0360\233m\276u,\330d\307`,gC\222\207k\267"
 524      309B6DBE 
 524      752CD864 
 524      C7602C67 
 524      4392876B 
 525 159d 9279141E 		.ascii	"\222y\024\036T2\304vg$\327Y&;\274\206\263Lv\215nI\254"
 525      5432C476 
 525      6724D759 
 525      263BBC86 
 525      B34C768D 
 526 15b4 8BE46776 		.ascii	"\213\344gv'_\244\254\213F*\323Q8R\2669\275MI\036\254"
 526      275FA4AC 
 526      8B462AD3 
 526      513852B6 
 526      39BD4D49 
 527 15ca CD565ECD 		.ascii	"\315V^\315I\315E\337\267a|\217\261[\354\255\225\002"
 527      49CD45DF 
 527      B7617C8F 
 527      B15BECAD 
 527      9502
 528 15dc 349B6375 		.ascii	"4\233cu\263vZ\033e\326'\242\266\314?\023\371\336\343"
 528      B3765A1B 
 528      65D627A2 
 528      B6CC3F13 
 528      F9DEE3
 529 15ef 6DE66279 		.ascii	"m\346by\362\313\3219u\317i`\357:\006km\340R\022>h\256"
 529      F2CBD139 
ARM GAS  /tmp/ccKVRnqx.s 			page 42


 529      75CF6960 
 529      EF3A066B 
 529      6DE05212 
 530 1606 22539FF4 		.ascii	"\"S\237\3644p\227\227L\361\276\360\352\236q\316\343"
 530      34709797 
 530      4CF1BEF0 
 530      EA9E71CE 
 530      E3
 531 1617 3143AB00 		.ascii	"1C\253\000\025l\372\014k\323\013\035\203\005t`\347X"
 531      156CFA0C 
 531      6BD30B1D 
 531      83057460 
 531      E758
 532 1629 B02A1EB0 		.ascii	"\260*\036\260\2005g\027X\260U\216\301\364\234\375\224"
 532      80356717 
 532      58B0558E 
 532      C1F49CFD 
 532      94
 533 163a 06831802 		.ascii	"\006\203\030\0027\362f\0003\213\303\315>\254c\207\011"
 533      37F26600 
 533      338BC3CD 
 533      3EAC6387 
 533      09
 534 164b 3F06311B 		.ascii	"?\0061\033\260\245>E\272\011\351\026\244\265H?G\272"
 534      B0A53E45 
 534      BA09E916 
 534      A4B5483F 
 534      47BA
 535 165d 1DE921A4 		.ascii	"\035\351!\244\365H\217 \375\206m_\233Q\270a,\276\012"
 535      F5488F20 
 535      FD866D5F 
 535      9B51B861 
 535      2CBE0A
 536 1670 5A8DA3F0 		.ascii	"Z\215\243\360\272;mG\341\265\026\242\022\356\277\265"
 536      BA3B6D47 
 536      E1B516A2 
 536      12EEBFB5 
 537 1680 1985BF35 		.ascii	"\031\205\2775\216\302[\357t:\0123\315\2001\330\372\262"
 537      8EC25BEF 
 537      743A0A33 
 537      CD8031D8 
 537      FAB2
 538 1692 EA858AF2 		.ascii	"\352\205\212\362\262W\353d;\214\210f\235\314\346\205"
 538      B257EB64 
 538      3B8C8866 
 538      9DCCE685 
 539 16a2 CF7D5399 		.ascii	"\317}S\231\036\273\3271\230\261\307j\355\270\004\333"
 539      1EBBD731 
 539      98B1C76A 
 539      EDB804DB 
 540 16b2 7129B6C8 		.ascii	"q)\266\310\032\244'\221\236\322\367\276\003\006\275"
 540      1AA42791 
 540      9ED2F7BE 
 540      0306BD
 541 16c1 6BE11B83 		.ascii	"k\341\033\203\227\216\363\204\314\210V\215\264\300\313"
 541      978EF384 
 541      CC88568D 
ARM GAS  /tmp/ccKVRnqx.s 			page 43


 541      B4C0CB
 542 16d0 2C2D1DC3 		.ascii	",-\035\303J\2476\267\021\2223\016\031\217\220\243\307"
 542      4AA736B7 
 542      1192330E 
 542      198F90A3 
 542      C7
 543 16e1 4D5B1B5B 		.ascii	"M[\033[\375\312\306/\325\367\227\317\240\275\315nc\224"
 543      FDCAC62F 
 543      D5F797CF 
 543      A0BDCD6E 
 543      6394
 544 16f3 7BAE6438 		.ascii	"{\256d8\177\267\311\251\013\313\333p\260msT\362\272"
 544      7FB7C9A9 
 544      0BCBDB70 
 544      B06D7354 
 544      F2BA
 545 1705 E3DF0DAE 		.ascii	"\343\337\015\256\036J\317\304X\207\257\352-7\316\010"
 545      1E4ACFC4 
 545      5887AFEA 
 545      2D37CE08 
 546 1715 32CFF5F5 		.ascii	"2\317\365\365\23288\303\372\351R\3067\014\317\036\337"
 546      9A3838C3 
 546      FAE952C6 
 546      370CCF1E 
 546      DF
 547 1726 FF9F3428 		.ascii	"\377\2374(l\300\240p\255A'\031qp?\213q\364;{\010\203"
 547      6CC0A070 
 547      AD412719 
 547      71703F8B 
 547      71F43B7B 
 548 173c C22B5C41 		.ascii	"\302+\\A\341\305C\343\231\240\020z\001:\266+\315\016"
 548      E1C543E3 
 548      99A0107A 
 548      013AB62B 
 548      CD0E
 549 174e 0A7F3AC4 		.ascii	"\012\177:\304x\311\231\216\301\002:\260K,\330D\0360"
 549      78C9998E 
 549      C1023AB0 
 549      4B2CD844 
 549      1E30
 550 1760 9BA0F00A 		.ascii	"\233\240\360\012\0136\3311\230\236\263k\207\230\221"
 550      0B36D931 
 550      989EB36B 
 550      879891
 551 176f 652B365B 		.ascii	"e+6[\0060\233\240\360\006\013V\347\030L\317Y\345a\006"
 551      06309BA0 
 551      F0060B56 
 551      E7184CCF 
 551      59E56106 
 552 1783 6C2F0F98 		.ascii	"l/\017\230\315\320>\226\005;\344\030L\317\331x\026\354"
 552      CDD03E96 
 552      053BE418 
 552      4CCFD978 
 552      16EC
 553 1795 380F58C0 		.ascii	"8\017X\300\2043\263\017\333\011d\361*:\336k\350\032"
 553      8433B30F 
 553      DB0964F1 
ARM GAS  /tmp/ccKVRnqx.s 			page 44


 553      2A3ADE6B 
 553      E81A
 554 17a7 AF23BD81 		.ascii	"\257#\275\201\264\021\251\342\303m^H\207#\035\201t\224"
 554      B411A9E2 
 554      C36D5E48 
 554      87231D81 
 554      7494
 555 17b9 8FC389FE 		.ascii	"\217\303\211\376\304:\321\357y\274\221\315\341\217\353"
 555      C43AD1EF 
 555      79BC91CD 
 555      E18FEB
 556 17c8 8EEFFC8F 		.ascii	"\216\357\374\217\237\263\232P"
 556      9FB39A50 
 557 17d0 BF636EED 		.ascii	"\277cn\355\237\211\373\310\274\2420\306\307\267\242"
 557      9F89FBC8 
 557      BCA230C6 
 557      C7B7A2
 558 17df 50E9332E 		.ascii	"P\3513.gmC_B\36296:p\036we\272I\350\354\361-\217R_8"
 558      676D435F 
 558      42F23936 
 558      3A701E77 
 558      65BA49E8 
 559 17fa DE477CE1 		.ascii	"\336G|\341\362\273\034\356\021\3025\010#\377K\266#\377"
 559      F2BB1CEE 
 559      11C23508 
 559      23FF4BB6 
 559      23FF
 560 180c 1333F34F 		.ascii	"\0233\363O&\310\333\307\353&\310[\221\005R\266y\276"
 560      26C8DBC7 
 560      EB26C85B 
 560      910552B6 
 560      79BE
 561 181e 70C576C6 		.ascii	"p\305v\306\340?w\014\026\320\201\255b\301v\362\200\331"
 561      E03F770C 
 561      16D081AD 
 561      62C176F2 
 561      80D9
 562 1830 4D9059B0 		.ascii	"M\220Y\260=\216\301\364\234\255e\301\016\360\200\331"
 562      3D8EC1F4 
 562      9CAD65C1 
 562      0EF080D9 
 563 1840 4D9059B0 		.ascii	"M\220Y\260z\307`\001\263\346\025\232X\207,N\362\021"
 563      7AC76001 
 563      B3E6159A 
 563      58872C4E 
 563      F211
 564 1852 273119BB 		.ascii	"'1\031\273\376T\244\323\221\316D\3726\322wy\\\3028\037"
 564      FE54A4D3 
 564      91CE44FA 
 564      36D27779 
 564      5CC2381F 
 565 1866 E312BE41 		.ascii	"\343\022\276A\206+\233g1\270\323\352\350\237V5u\011"
 565      862B9B67 
 565      31B8D3EA 
 565      E89F5635 
 565      7509
 566 1878 541F561C 		.ascii	"T\037V\034\314e98\345\230\203\000\313A\362\3526z\260"
ARM GAS  /tmp/ccKVRnqx.s 			page 45


 566      CC653938 
 566      E5988300 
 566      CB41F2EA 
 566      367AB0
 567 188b 2E3D2A40 		.ascii	".=*@\022\316\030\361\034\035r34yc[\366\302\3474\260"
 567      12CE18F1 
 567      1C1D7233 
 567      3479635B 
 567      F6C2E734 
 568 18a0 06C7607E 		.ascii	"\006\307`~\035X\345v\006l\310\335N\301\254\"\3657\321"
 568      1D58E576 
 568      066CC8DD 
 568      4EC1AC22 
 568      F537D1
 569 18b3 16C6629B 		.ascii	"\026\306b\233\277\207\364\003\244\363\220~\304Z\201"
 569      BF87F403 
 569      A4F3907E 
 569      C45A81
 570 18c2 248CBADB 		.ascii	"$\214\272\333\030\267R\347\310\240\246\275\250\300\213"
 570      18B752E7 
 570      C8A0A6BD 
 570      A8C08B
 571 18d1 6BD5B6AF 		.ascii	"k\325\266\257\261m;\365n\216\001'`m]\353\216\237S\007"
 571      B16D3BF5 
 571      6E8E0127 
 571      606D5DEB 
 571      8E9F5307 
 572 18e5 1C0A2C09 		.ascii	"\034\012,\011o;F\324[\313\204\3033t\213>sy\360l\036"
 572      6F3B46D4 
 572      5BCB84C3 
 572      33748B3E 
 572      7379F06C 
 573 18fa 4F4DA321 		.ascii	"OM\243!\002\005[\344\030, X~\330G5\2628\015C\204\351"
 573      02055BE4 
 573      182C2058 
 573      7ED84735 
 573      B2380D43 
 574 1910 18107C84 		.ascii	"\030\020|\204\364G\244\027\220^D:\032[i\021\322%H\253"
 574      F447A417 
 574      905E443A 
 574      1A5B6911 
 574      D22548AB 
 575 1924 785A6C22 		.ascii	"xZl\"\033\"\254F\021\3067w\311\231<\020\275[;I|\001"
 575      1B22AC46 
 575      11C63777 
 575      C9993C10 
 575      BD5B3B49 
 576 193a 4E9B928E 		.ascii	"N\233\222\216\021\365-\366\023=\363\207\202\325\360"
 576      11F52DF6 
 576      133DF387 
 576      82D5F0
 577 1949 8099756E 		.ascii	"\200\231unF\255T\241\023P\241o\241\342V\240\262V\351"
 577      46AD54A1 
 577      1350A16F 
 577      A1E256A0 
 577      B256E9
 578 195c BBCD674D 		.ascii	"\273\315gM\272\315x\3434w\274n\232k\211e\245\370J/\263"
ARM GAS  /tmp/ccKVRnqx.s 			page 46


 578      BACD78E3 
 578      3477BC6E 
 578      9A6B8965 
 578      A5F84A2F 
 579 1971 27E1B497 		.ascii	"'\341\264\227cO\202\315\277\225h\334\244\271A\372\357"
 579      634F82CD 
 579      BF9568DC 
 579      A4B941FA 
 579      EF
 580 1982 A3F7DC6D 		.ascii	"\243\367\334mx\356j\346l\314\016c1\373\260;\032e\261"
 580      78EE6AE6 
 580      6CCC0E63 
 580      31FBB03B 
 580      1A65B1
 581 1995 1A1FAAAF 		.ascii	"\032\037\252\257\305\315\027?\"\035I\355\017\351\353"
 581      C5CD173F 
 581      221D49ED 
 581      0FE9EB
 582 19a4 48DF405A 		.ascii	"H\337@Z\315\243\206\025\354\026\222\343\310\366\322"
 582      CDA38615 
 582      EC1692E3 
 582      C8F6D2
 583 19b3 666FCD98 		.ascii	"fo\315\230\274\340\273\241\342Xz\032\337D4\231S\216"
 583      BCE0BBA1 
 583      E2587A1A 
 583      DF443499 
 583      538E
 584 19c5 11F58A3D 		.ascii	"\021\365\212=x\206o3\354\377\320\260\0262k\010;\226"
 584      78866F33 
 584      ECFFD0B0 
 584      16326B08 
 584      3B96
 585 19d7 1FF8258D 		.ascii	"\037\370%\215\0217b\2148\373\027\231\037\333\352\201"
 585      1137628C 
 585      38FB1799 
 585      1FDBEA81 
 586 19e7 88863619 		.ascii	"\210\2066\031\203\304\325\364\261\363&\256 \267\272"
 586      83C4D5F4 
 586      B1F326AE 
 586      20B7BA
 587 19f6 66B5A88C 		.ascii	"f\265\250\214\310\341?\346\274j\365\206s\352\277\227"
 587      C8E13FE6 
 587      BC6AF586 
 587      73EABF97 
 588 1a06 DCEA237E 		.ascii	"\334\352#~\355\350/\214]\301\361)\347'\020b\223\375"
 588      EDE82F8C 
 588      5DC1F129 
 588      E7271062 
 588      93FD
 589 1a18 D867D3AE 		.ascii	"\330g\323\256;\226_\275\253\201l\271\321x:\343\030P"
 589      3B965FBD 
 589      AB816CB9 
 589      D1783AE3 
 589      1850
 590 1a2a 3F32D7D5 		.ascii	"?2\327\325\340\310L\301.8\006k\255\003\333\311\202]"
 590      E0C84CC1 
 590      2E38066B 
ARM GAS  /tmp/ccKVRnqx.s 			page 47


 590      AD03DBC9 
 590      825D
 591 1a3c 710CD646 		.ascii	"q\014\326F\007\266\233\005\033r\217S0\275\365\356a\301"
 591      07B69B05 
 591      1B728F53 
 591      30BDF5EE 
 591      61C1
 592 1a4e 463A06D3 		.ascii	"F:\006\323\235\231\237\3347\"\247\3569\376\267\010\252"
 592      9D999FDC 
 592      3722A7EE 
 592      39FEB708 
 592      AA
 593 1a5f 561F1DAA 		.ascii	"V\037\035\252\276E\261\037\353\257\274\307hGN\337#\200"
 593      BE45B11F 
 593      EBAFBCC7 
 593      68474EDF 
 593      2380
 594 1a71 1017B72E 		.ascii	"\020\027\267.32d|@\301\276\247E\014\351\324\335#\207"
 594      3332647C 
 594      40C1BEA7 
 594      450CE9D4 
 594      DD2387
 595 1a84 29EFB7D3 		.ascii	")\357\267\323\230\232`T\212\303\305\330\253#^sxN|\325"
 595      989A6054 
 595      8AC3C5D8 
 595      AB235E73 
 595      784E7CD5 
 596 1a98 EA53E7D5 		.ascii	"\352S\347\325\376u\030Y\230\331D/\316\377\353\252$\314"
 596      FE751859 
 596      98D9442F 
 596      CEFFEBAA 
 596      24CC
 597 1aaa 310AE264 		.ascii	"1\012\342dV\204\2329\377\213I\352\320M\371Z\310\203"
 597      56849A39 
 597      FF8B49EA 
 597      D04DF95A 
 597      C883
 598 1abc 6873F6DF 		.ascii	"hs\366\337[\364\237\200P\260\325\216\301\364\226<\211"
 598      5BF49F80 
 598      50B0D58E 
 598      C1F4963C 
 598      89
 599 1acd 05DBC803 		.ascii	"\005\333\310\003fs\366\337\024\026l\253c0=g\323X\260"
 599      6673F6DF 
 599      14166CAB 
 599      63303D67 
 599      D358B0
 600 1ae0 9D3C6001 		.ascii	"\235<`\001k\316f\260`_:\006\323s\266\220\005;\302\003"
 600      6BCE66B0 
 600      605F3A06 
 600      D373B690 
 600      053BC203 
 601 1af4 6613EA2E 		.ascii	"f\023\352.f\301N9\006c9S\222U\233\262\015/\217\022\027"
 601      66C14E39 
 601      06633953 
 601      92559BB2 
 601      0D2F8F12 
ARM GAS  /tmp/ccKVRnqx.s 			page 48


 602 1b09 A50D8129 		.ascii	"\245\015\201)0E\033\002/\370nVS\332\001n\300\304y#\023"
 602      30451B02 
 602      2FF86E56 
 602      53DA016E 
 602      C0C47923 
 603 1b1e 86828EA3 		.ascii	"\206\202\216\243\234M\314|{3\316\261\266`8\267\015i"
 603      9C4DCC7C 
 603      7B33CEB1 
 603      B66038B7 
 603      0D69
 604 1b30 1DD29D48 		.ascii	"\035\322\235Hw#\335\203t\037\322\257\220\036Bz\024\351"
 604      7723DD83 
 604      741FD2AF 
 604      901E427A 
 604      14E9
 605 1b42 31A4DF22 		.ascii	"1\244\337\"=\211\364\024\322\037\220\376\210\364,\322"
 605      3D89F414 
 605      D21F90FE 
 605      88F42CD2 
 606 1b52 F33C71D2 		.ascii	"\363<q\322\006vf\325p\017GTc\363\217\276'/\270\362\216"
 606      067666D5 
 606      700F4754 
 606      63F38FBE 
 606      272FB8F2 
 607 1b67 78960EA8 		.ascii	"x\226\016\2504`l4\"f\234\235\352m\355\314\277\247\261"
 607      34606C34 
 607      22669C9D 
 607      EA6DEDCC 
 607      BFA7B1
 608 1b7a 46FDD229 		.ascii	"F\375\322)\226\355+\243K\231\340s\031\006\237\3131\354"
 608      96ED2BA3 
 608      4B99E073 
 608      19069FCB 
 608      31EC
 609 1b8c 4CA2F2D6 		.ascii	"L\242\362\326#m@z\231G\221\013\331\200\263\022Y\235"
 609      236D407A 
 609      9947910B 
 609      D980B312 
 609      599D
 610 1b9e DFEC8073 		.ascii	"\337\354\200s\307\334#K\350\253f\264\205d\361'\237\344"
 610      C7DC234B 
 610      E8AB66B4 
 610      8564F127 
 610      9FE4
 611 1bb0 1051AFC8 		.ascii	"\020Q\257\310\253'\324\223\320\346\340F\376\361<\014"
 611      AB27D493 
 611      D0E6E046 
 611      FEF13C0C 
 612 1bc0 DA8C4FD7 		.ascii	"\332\214O\327\277Y!\342\373\274\264i\246\031\341\034"
 612      BF5921E2 
 612      FBBCB469 
 612      A619E11C 
 613 1bd0 36F39B17 		.ascii	"6\363\233\027\361\245D\355\351\343\007F\270\214\243"
 613      F1A544ED 
 613      E9E30746 
 613      B88CA3
 614 1bdf 673BBB96 		.ascii	"g;\273\226\236\317\264\364\002l\351\217\261\245\257"
ARM GAS  /tmp/ccKVRnqx.s 			page 49


 614      9ECFB4F4 
 614      026CE98F 
 614      B1A5AF
 615 1bee 61EB5E47 		.ascii	"a\353^G\332\210t\210\237\243\245\337g[z!\262\232\341"
 615      DA887488 
 615      9FA3A5DF 
 615      675B7A21 
 615      B29AE1
 616 1c01 953E1B45 		.ascii	"\225>\033E\256<\3115\021\230\365/\032\326l\335D`\303"
 616      AE3CC935 
 616      1198F52F 
 616      1AD66CDD 
 616      4460C3
 617 1c14 6F692834 		.ascii	"oi(4\302\217\213\305\277\314\374\340L\017\204[\201\375"
 617      C28F8BC5 
 617      BFCCFCE0 
 617      4C0F845B 
 617      81FD
 618 1c26 8689C02E 		.ascii	"\206\211\300.\372^\031\311\317<\021\330M\035\370\006"
 618      FA5E19C9 
 618      CF3C11D8 
 618      4D1DF806 
 619 1c36 5C48598D 		.ascii	"\\HY\215\014\220\202\315\262\373\344\336M\033\250\035"
 619      0C9082CD 
 619      B2FBE4DE 
 619      4D1BA81D 
 620 1c46 ECC7D884 		.ascii	"\354\307\330\204\206e\014\\\306\260LoV\37361q\352Z#"
 620      86650C5C 
 620      C6B04C6F 
 620      56FB3631 
 620      71EA5A23 
 621 1c5a 6F19E354 		.ascii	"o\031\343T]\214\227\374\222\005\333\340\030\254\223"
 621      5D8C97FC 
 621      9205DBE0 
 621      18AC93
 622 1c69 0EECE0C8 		.ascii	"\016\354\340\310\327\324\025#:\362m\342Q\234\215\031"
 622      D7D41523 
 622      3AF26DE2 
 622      519C8D19 
 623 1c79 1D4A0FA3 		.ascii	"\035J\017\243\262x\302'9\004\323\253\355\014;&\177\306"
 623      B278C227 
 623      3904D3AB 
 623      ED0C3B26 
 623      7FC6
 624 1c8b C3994DB8 		.ascii	"\303\231M\270v\216\005\333\345\030L\317\331\005\026"
 624      768E05DB 
 624      E5184CCF 
 624      D90516
 625 1c9a 6C3F0F98 		.ascii	"l?\017\230M\270v\211\005;\354\030L\317\331\225&\377"
 625      4DB87689 
 625      053BEC18 
 625      4CCFD995 
 625      26FF
 626 1cac 4D4E177C 		.ascii	"MN\027|4q\"3\374\214\0239\301Sy\300J\022%9}k6:c\022"
 626      34712233 
 626      FC8C1339 
 626      C15379C0 
ARM GAS  /tmp/ccKVRnqx.s 			page 50


 626      4A122539 
 627 1cc6 CFC024D6 		.ascii	"\317\300$\326\210f\036\300\004L\2041\373\260\016\002"
 627      88661EC0 
 627      044C8431 
 627      FBB00E02 
 628 1cd6 02253FF1 		.ascii	"\002%?\361\237\243\375\270(\203t\014\322J\244c\221\216"
 628      9FA3FDB8 
 628      2883740C 
 628      D24AA463 
 628      918E
 629 1ce8 473A01E9 		.ascii	"G:\001\351D\244\223\221NE:\035\351,\036O\3732\253\244"
 629      44A49391 
 629      4E453A1D 
 629      E92C1E4F 
 629      FB32ABA4 
 630 1cfc 0B8E3DAD 		.ascii	"\013\216=\255\256\205`L\375\356\2306\246\322\225\325"
 630      AE85604C 
 630      FDEE9836 
 630      A6D295D5 
 631 1d0c CB3C8836 		.ascii	"\313<\2106\246]}R7\010\016\371\225\001\316\314'\360"
 631      A65D7D52 
 631      37080EF9 
 631      9501CECC 
 631      27F0
 632 1d1e 3FA699CC 		.ascii	"?\246\231\314\214ZSq\324\232\206\243\326l\244s\221\016"
 632      8C5A5371 
 632      D49A86A3 
 632      D66CA473 
 632      910E
 633 1d30 475DBE8B 		.ascii	"G]\276\213t\016\217F'X\277\214%\011#~\245\037>RgU|\362"
 633      740E8F46 
 633      2758BF8C 
 633      2509237E 
 633      A51F3E52 
 634 1d48 A9386198 		.ascii	"\2518a\230\322\235\036\201\000\366\200ny\264\307\366"
 634      D29D1E81 
 634      00F6806E 
 634      79B4C7F6 
 635 1d58 B00AF584 		.ascii	"\260\012\365\204\274\213\341\356\264V\010\022\020\336"
 635      BC8BE1EE 
 635      B4560812 
 635      10DE
 636 1d66 BA98CA9B 		.ascii	"\272\230\312\233z\306\305\242\257\362\333\320\203&\004"
 636      7AC6C5A2 
 636      AFF2DBD0 
 636      832604
 637 1d75 7D29C32E 		.ascii	"})\303.~\374\363\\\277\331\211\027U#j\315O\274\260\335"
 637      7EFCF35C 
 637      BFD98917 
 637      55236ACD 
 637      4FBCB0DD 
 638 1d89 D1FD91DF 		.ascii	"\321\375\221\337\321\371xJ\352\360\322\347\204\324\300"
 638      D1F9784A 
 638      EAF0D2E7 
 638      84D4C0
 639 1d98 FCE6F9F3 		.ascii	"\374\346\371\363\015\352\"\305B\034\231\347\032T\233"
 639      0DEA22C5 
ARM GAS  /tmp/ccKVRnqx.s 			page 51


 639      421C99E7 
 639      1A549B
 640 1da7 114812AA 		.ascii	"\021H\022\252\260\310\022\343\340|P\016\320\334LC\263"
 640      B0C812E3 
 640      E07C500E 
 640      D0DC4C43 
 640      B3
 641 1db8 923C7BD2 		.ascii	"\222<{\322\217\346IN=\203\351\006\356\365X\302\270\005"
 641      8FE6494E 
 641      3D83E906 
 641      EEF558C2 
 641      B805
 642 1dca 8747A89D 		.ascii	"\207G\250\235\363X\236z\326\364\021\364\012\277\323"
 642      F3589E7A 
 642      D6F411F4 
 642      0ABFD3
 643 1dd9 379256FA 		.ascii	"7\222V\372\315\337H\2723\325\312\373\214\022\350\253"
 643      CDDF48BA 
 643      33D5CAFB 
 643      8C12E8AB 
 644 1de9 CDD46195 		.ascii	"\315\324a\225\344\005<S\211\260&\213_r\201\331\374\313"
 644      E4053C53 
 644      89B0268B 
 644      5F7281D9 
 644      FCCB
 645 1dfb AD9F3CDA 		.ascii	"\255\237<\332\211r0A\343\322\355\343\326`\227\030\260"
 645      89723041 
 645      E3D2EDE3 
 645      D6609718 
 645      B0
 646 1e0c 7A2E30B3 		.ascii	"z.0\263\377\253k\366aMH\026\253\320}/C\207\261\034\351"
 646      FFAB6BF6 
 646      614D4816 
 646      ABD07D2F 
 646      4387B11C 
 647 1e21 2AA4AB91 		.ascii	"*\244\253\221\256\341q!\037\373\233\036\266\251\036"
 647      AEE17121 
 647      1FFB9B1E 
 647      B6A91E
 648 1e30 4F63F027 		.ascii	"Oc\360'\033\255\374\311\216\273\276\242'n\022,I8\200"
 648      1BADFCC9 
 648      8EBBBEA2 
 648      276E122C 
 648      493880
 649 1e43 F7CDF75B 		.ascii	"\367\315\367[9\006\254Q\365'\215\341\356\332\2319\207"
 649      3906AC51 
 649      F5278DE1 
 649      EEDA9939 
 649      87
 650 1e54 3314B33B 		.ascii	"3\024\263;3\207\224\322)i\255\251\0079T\223S9\244\276"
 650      338794D2 
 650      2969ADA9 
 650      07395493 
 650      5339A4BE 
 651 1e68 B1F15E7A 		.ascii	"\261\361^zl\246$|c*\22229\234r\216\353\375\244\3656"
 651      6CA6247C 
 651      632A9232 
ARM GAS  /tmp/ccKVRnqx.s 			page 52


 651      399C728E 
 651      EBFDA4F5 
 652 1e7d 368BAB8D 		.ascii	"6\213\253\215F\256>\325s\365\214\350\232\350F\336\352"
 652      46AE3ED5 
 652      73F58CE8 
 652      9AE846DE 
 652      EA
 653 1e8e 2BEB279E 		.ascii	"+\353'\236\376\244b\262\262\336\364\370O\233\307\344"
 653      FEA462B2 
 653      B2DEF4F8 
 653      4F9BC7E4 
 654 1e9e 5BFD8617 		.ascii	"[\375\206\027V\346\271\231\327\320\3253J\325\337\274"
 654      56E6B999 
 654      D7D0D533 
 654      4AD5DFBC 
 655 1eae 8716EF6F 		.ascii	"\207\026\357o\330u\317\012\334\324\270\215z\273{M\275"
 655      D875CF0A 
 655      DCD4B88D 
 655      7ABB7B4D 
 655      BD
 656 1ebf 5D269CE4 		.ascii	"]&\234\344\"<\243d\007b|l\300\220\305n\206\007e\335"
 656      223CA364 
 656      07627C6C 
 656      C090C56E 
 656      860765DD 
 657 1ed3 0CFF17EE 		.ascii	"\014\377\027\356\372U\227R\351\307|I\330z\257(\230~"
 657      FA559752 
 657      E9C77C49 
 657      D87AAF28 
 657      987E
 658 1ee5 64F1C95F 		.ascii	"d\361\311_[\374\241[\272\237\354\306~b\270\323`\336"
 658      5BFCA15B 
 658      BA9FECC6 
 658      7E62B8D3 
 658      60DE
 659 1ef7 BB0D1C6A 		.ascii	"\273\015\034j7\355i\322h\223R\215v\375\306)\331\252"
 659      37ED69D2 
 659      6893528D 
 659      76FDC629 
 659      D9AA
 660 1f09 D16CC6A4 		.ascii	"\321l\306\244\375\306F#\263xc\243\031\330;n\301\336"
 660      FDC64623 
 660      B37863A3 
 660      19D83B6E 
 660      C1DE
 661 1f1b 574D2DBD 		.ascii	"WM-\275\236l\242:\322f\322be8\236zm<\363\232\214\302"
 661      9E6CA23A 
 661      D266D262 
 661      65389E7A 
 661      6D3CF39A 
 662 1f31 56AC1D32 		.ascii	"V\254\0352\2626\201eM=\376&\365{\272G\177\314\001\211"
 662      B2368165 
 662      4D3DFE26 
 662      F57BBA47 
 662      7FCC0189 
 663 1f45 9C9AB27E 		.ascii	"\234\232\262~\332\202\365\243\246\254O<\275\2459\035"
 663      DA82F5A3 
ARM GAS  /tmp/ccKVRnqx.s 			page 53


 663      A6AC4F3C 
 663      BDA5391D 
 664 1f55 E198AD4E 		.ascii	"\341\230\255N\027\031\316chr\234\360U\013\036O\352y"
 664      1719CE63 
 664      68729CF0 
 664      550B1E4F 
 664      EA79
 665 1f67 FC17E16D 		.ascii	"\374\027\341m%Y\007>\357\362n\021:\301frtm\243\010\376"
 665      2559073E 
 665      EFF26E11 
 665      3AC16672 
 665      746DA308 
 666 1f7c 64BE4862 		.ascii	"d\276Hb\365\021\001\015E\363\365mR\261\272KE<\225F$"
 666      F511010D 
 666      45F3F56D 
 666      52B1BA4B 
 666      453C9546 
 667 1f91 6820F1DE 		.ascii	"h \361\336w^[+\356\236\243$+\207("
 667      775E5B2B 
 667      EE9EA324 
 667      2B8728
 668 1fa0 4AA3D8F8 		.ascii	"J\243\330\370\030\014j\"\261\372\203F\270dW\015n\237"
 668      180C6A22 
 668      B1FA8346 
 668      B864570D 
 668      6E9F
 669 1fb2 7664C10F 		.ascii	"vd\301\017i\270f\276\363\366\243^s9\302hv\326\323\315"
 669      69B866BE 
 669      F3F6A35E 
 669      7339C268 
 669      76D6D3CD 
 670 1fc6 7A87FC59 		.ascii	"z\207\374Y\177\216`\370X\335z:=\312\030fU\333,\246I"
 670      7F8E60F8 
 670      58DD7A3A 
 670      3DCA1866 
 670      55DB2CA6 
 671 1fdb A4D439CB 		.ascii	"\244\3249\313R\304\355Y\225:oQ\212_#\027\215\266D$\345"
 671      52C4ED59 
 671      953A6F51 
 671      8A5F2317 
 671      8DB64424 
 672 1ff0 3AEAE082 		.ascii	":\352\340\202%\307\344xV\253R\015\226\245\366\330"
 672      25C7E478 
 672      56AB520D 
 672      96A5F6D8 
 673 2000 94BA6459 		.ascii	"\224\272dY\352+\233R\227-K\035\265)u\305\262\324u\233"
 673      EA2B9B52 
 673      972D4B1D 
 673      B52975C5 
 673      B2D4759B 
 674 2014 52572D4B 		.ascii	"RW-K\355\267i\277k\226\245\216\331\224\272nY\352\220"
 674      EDB769BF 
 674      6B96A58E 
 674      D994BA6E 
 674      59EA90
 675 2027 4DA91B96 		.ascii	"M\251\033\226\245HXiU\252\321\262\024\371\237\001V\245"
 675      A5485869 
ARM GAS  /tmp/ccKVRnqx.s 			page 54


 675      55AAD1B2 
 675      14F99F01 
 675      56A5
 676 2039 94ACB4CF 		.ascii	"\224\254\264\317q\207\372\3131\357\223O=\035\350\"x"
 676      7187FACB 
 676      31EF934F 
 676      3D1DE822 
 676      78
 677 204a 829DA3D1 		.ascii	"\202\235\243\321\222\016\271\025\361XnI\244on\277P("
 677      920EB915 
 677      F1586E49 
 677      A46F6EBF 
 677      5028
 678 205c 578E95FE 		.ascii	"W\216\225\376\241,Z\026\376CX\356\033\311}\340\376N"
 678      A12C5A16 
 678      FE4358EE 
 678      1BC97DE0 
 678      FE4E
 679 206e F73F901B 		.ascii	"\367?\220\033)\013\225T\024\205s\343\211\242\242p\361"
 679      290B9554 
 679      148573E3 
 679      89A2A270 
 679      F1
 680 207f FDFD056F 		.ascii	"\375\375\005o<\362\367p0\361`n\377hi87\024-\032\234"
 680      3CF2F770 
 680      30F1606E 
 680      FF686938 
 680      37142D1A 
 681 2094 5B141E90 		.ascii	"[\024\036\220\033\352\037\351\033\211\306s\023\261\212"
 681      1BEA1FE9 
 681      1B89C673 
 681      13B18A
 682 20a3 B2177221 		.ascii	"\262\027r!\321_.I\027\016\307\"r\011\024\316)\304T^"
 682      D15F2E49 
 682      170EC722 
 682      720914CE 
 682      29C4545E 
 683 20b7 2C32201C 		.ascii	",2 \034k\305\376\370k\257>\277Af\364L0\325G\312\022"
 683      6BC5FEF8 
 683      6BAF3EBF 
 683      4166F44C 
 683      30D547CA 
 684 20cc 80E0AB80 		.ascii	"\200\340\253\200\357N\301\304\00367\227\312\300MY87"
 684      EF4EC1C4 
 684      03363797 
 684      CAC04D59 
 684      3837
 685 20de 081CCB15 		.ascii	"\010\034\313\025%\211`bpy8\016\205\263\202A\265\270"
 685      25896062 
 685      7079380E 
 685      85B38241 
 685      B5B8
 686 20f0 67602C92 		.ascii	"g`,\222\010\273ca\271\250{&Ib\211\334\362h,\021\317"
 686      08BB6361 
 686      B9A87B26 
 686      496289DC 
 686      F2682C11 
ARM GAS  /tmp/ccKVRnqx.s 			page 55


 687 2105 7DA2A057 		.ascii	"}\242\240W\227^\203\340\316\322\362HI8\026\317}\262"
 687      975E83E0 
 687      CED2F248 
 687      493816CF 
 687      7DB2
 688 2117 4B17B85D 		.ascii	"K\027\270]C\367\224\306\373\005\023>\250\240c\207`\002"
 688      43F794C6 
 688      FB05133E 
 688      A8A06387 
 688      6002
 689 2129 EA5253AE 		.ascii	"\352RS\256\362\212\204\253_8\321\211\243\"M\204P\377"
 689      F28A84AB 
 689      5F38D189 
 689      A3224D84 
 689      50FF
 690 213b F8E0788A 		.ascii	"\370\340x\212m\222\216\224\202\326\375\025*f\013*\011"
 690      6D928E94 
 690      82D6FD15 
 690      2A660B2A 
 690      09
 691 214c 49BA013E 		.ascii	"I\272\001>\341\006\374\204\027\205Jx\210T\011\327\200"
 691      E106FC84 
 691      17854A78 
 691      885409D7 
 691      80
 692 215d D2C4438E 		.ascii	"\322\304C\216j\014\017\010\227%H}-1\025\214G+b!\250"
 692      6A0C0F08 
 692      9725487D 
 692      2D31158C 
 692      472B6221 
 693 2172 3487FDD9 		.ascii	"4\207\375\331\232\376(\211\304\023\341\262p,\230h\251"
 693      9AFE2889 
 693      C413E1B2 
 693      702C9868 
 693      A9
 694 2183 CFF0854B 		.ascii	"\317\360\205K\202e\341A\011\177\242?a\003\364\020\352"
 694      8265E141 
 694      097FA23F 
 694      6103F410 
 694      EA
 695 2194 1FA4E907 		.ascii	"\037\244\351\007\234\311\037\352_D\314\255\034\341\340"
 695      9CC91FEA 
 695      5F44CCAD 
 695      1CE1E0
 696 21a3 AB3C161E 		.ascii	"\253<\026\036\340K\224\307\"\321 \375\031\211\372B\321"
 696      E04B94C7 
 696      22D120FD 
 696      1989FA42 
 696      D1
 697 21b4 B204FCF5 		.ascii	"\262\004\374\365\021\307M\330?\024\215\205\001>\233"
 697      11C74DD8 
 697      3F148D85 
 697      013E9B
 698 21c3 6493860A 		.ascii	"d\223\206\012%\006\375[\363P\202\003\036.\005$\177,"
 698      2506FD5B 
 698      F3508203 
 698      1E2E0524 
ARM GAS  /tmp/ccKVRnqx.s 			page 56


 698      7F2C
 699 21d5 DC0FCC11 		.ascii	"\334\017\314\021\232;\336\376!\270\036\206\253\023\\"
 699      9A3BDEFE 
 699      21B81E86 
 699      AB135C
 700 21e4 8FB8E21D 		.ascii	"\217\270\342\035\332\301\325\036\256\016pu\204\353\001"
 700      DAC1D51E 
 700      AE0E7075 
 700      84EB01
 701 21f3 B81E840B 		.ascii	"\270\036\204\013\356\353\000\367u\200\373:\300}\035"
 701      EEEB00F7 
 701      7580FB3A 
 701      C07D1D
 702 2202 E1BE8EED 		.ascii	"\341\276\216\355\245\330\003R\354A)\366\220\024{X\212"
 702      A5D80352 
 702      EC4129F6 
 702      90147B58 
 702      8A
 703 2213 7592628F 		.ascii	"u\222b\217\270b\355\333\301\325^*\211\301WGOy\020\270"
 703      B862EDDB 
 703      C1D55E2A 
 703      89C15747 
 703      4F7910B8 
 704 2227 F511C50C 		.ascii	"\365\021\305\014\004\205\227\007\243%E\341\030Q\224"
 704      04859707 
 704      A32545E1 
 704      185194
 705 2236 5C1AF627 		.ascii	"\\\032\366'\342\0119\001\255\006\371\230\362%J\243E"
 705      E2093901 
 705      AD06F998 
 705      F2254AA3 
 705      45
 706 2247 F4777189 		.ascii	"\364wq\211\334/\356K\304\302\305qT!IxcE\203\301n\375"
 706      DC2FEE4B 
 706      C4C2C571 
 706      54214978 
 706      634583C1 
 707 225d E1419104 		.ascii	"\341A\221\004H\036\366\016LD\373>_\236\215\255Z*\307"
 707      481EF60E 
 707      4C44FB3E 
 707      5F9E8DAD 
 707      5A2AC7
 708 2270 5F803BC3 		.ascii	"_\200;\303\003I\302U\036\254hI[2\216\315\035L\264J\265"
 708      0349C255 
 708      1EAC6849 
 708      5B328ECD 
 708      1D4CB44A 
 709 2285 2DCDC92A 		.ascii	"-\315\311*\017\016\224#\211HY\277VZ\366\213\025\341"
 709      0F0E9423 
 709      894859BF 
 709      565AF68B 
 709      15E1
 710 2297 0AA8BD35 		.ascii	"\012\250\2755s'f\265(\017B\265\230\364`\0222\302\345"
 710      732766B5 
 710      280F42B5 
 710      98F46012 
 710      32C2E5
ARM GAS  /tmp/ccKVRnqx.s 			page 57


 711 22aa E132E8E6 		.ascii	"\3412\350\346\375<\245\025\320\252\035\035\231Kib\020"
 711      FD3CA515 
 711      D0AA1D1D 
 711      994B6962 
 711      10
 712 22bb F10EA514 		.ascii	"\361\016\245\024\035\276\243\003\2115\"\022\210P\212"
 712      1DBEA303 
 712      89352212 
 712      88508A
 713 22ca 5604FCC1 		.ascii	"V\004\374\301}\204\323\026Dz\271\004\215\0102\313\301"
 713      7D84D316 
 713      447AB904 
 713      8D0832CB 
 713      C1
 714 22db 176683E5 		.ascii	"\027f\203\345jV\234\005i\332\035\250\361\243\346\240"
 714      6A569C05 
 714      69DA1DA8 
 714      F1A3E6A0 
 715 22eb FB413626 		.ascii	"\373A6&\311\337\007Ru\206\343\010\355\301\373\262\342"
 715      C9DF0752 
 715      7586E308 
 715      EDC1FBB2 
 715      E2
 716 22fc 45AAFAB3 		.ascii	"E\252\372\263\012\363\202O?\325\343\251\036}|\220*\354"
 716      0AF3824F 
 716      3FD5E3A9 
 716      1E7D7C90 
 716      2AEC
 717 230e D33BDF0F 		.ascii	"\323;\337\017\337\005]\237\310{\326\203\2678\353\233"
 717      DF055D9F 
 717      C87BD683 
 717      B738EB9B 
 718 231e 2815E99B 		.ascii	"(\025\351\2337E\312\240\277kjm\001\235AM\372\265d\326"
 718      3745CAA0 
 718      BF6B6A6D 
 718      019D414D 
 718      FAB564D6 
 719 2332 8B5A2340 		.ascii	"\213Z#@*\024\255\200\036\022\363\277\030\354[Q\\\034"
 719      2A14AD80 
 719      1E12F3BF 
 719      18EC5B51 
 719      5C1C
 720 2344 8E795E0C 		.ascii	"\216y^\014&\242\345>\270%V\236\210\301w\254\010\276"
 720      26A2E53E 
 720      B825569E 
 720      88C177AC 
 720      08BE
 721 2356 B35E2C8B 		.ascii	"\263^,\213&\"\305\203\001\345\305 Mz_\004e\224\275\340"
 721      2622C583 
 721      01E5C520 
 721      4D7A5F04 
 721      6594BDE0 
 722 236a 8D2066CB 		.ascii	"\215 f\313hE\202\251\326\033\305\204\024\351+E\373\376"
 722      684582A9 
 722      D61BC584 
 722      14E92B45 
 722      FBFE
ARM GAS  /tmp/ccKVRnqx.s 			page 58


 723 237c 299320A0 		.ascii	")\223 \240\235\334.\275\012{\024\346\026\366\001G^\332"
 723      9DDC2EBD 
 723      0A7B14E6 
 723      16F60147 
 723      5EDA
 724 238e B143F103 		.ascii	"\261C\361\003\355\332\017\012\021i\236.|\242\240O\260"
 724      EDDA0F0A 
 724      11699E2E 
 724      7CA2A04F 
 724      B0
 725 239f 0F38BABC 		.ascii	"\0178\272\274p\261TX \345\025\270:\027\024\270\272\024"
 725      70B15458 
 725      20E515B8 
 725      3A1714B8 
 725      BA14
 726 23b1 B487AB03 		.ascii	"\264\207\253\003\\\035\335O\366\311/\360T\304\345X\""
 726      5C1DDD4F 
 726      F6C92FF0 
 726      54C4E558 
 726      22
 727 23c2 A3490C90 		.ascii	"\243I\014\220\241A+\342\360\007hYh6\250\342ag^\007z"
 727      A1412BE2 
 727      F0076859 
 727      6836A8E2 
 727      61675E07 
 728 23d7 875C4A14 		.ascii	"\207\\J\024}[g9\036.\014\203\240e\011\030\245\012\361"
 728      7D5B6739 
 728      1E2E0C83 
 728      A0650918 
 728      A50AF1
 729 23ea 0F779A65 		.ascii	"\017w\232e\302\320\345\327*tA\302U\\\232\270\251HN\310"
 729      C2D0E5D7 
 729      2A7441C2 
 729      555C9AB8 
 729      A9484EC8 
 730 23fe 71B9B4BC 		.ascii	"q\271\264\274$|\177H`\177\301 H~\025\342/\360\336\304"
 730      247C7F48 
 730      607FC120 
 730      487E15E2 
 730      2FF0DEC4 
 731 2412 B167F72B 		.ascii	"\261g\367+\217k\031\376\0229\021I\0007Y%\321\262~\230"
 731      8F6B19FE 
 731      12391149 
 731      00375925 
 731      D1B27E98 
 732 2426 F2CB2534 		.ascii	"\362\313%4\313\037\227\023]H\213\272\240\200/\021.-"
 732      CB1F9713 
 732      5D488BBA 
 732      A0802F11 
 732      2E2D
 733 2438 EFDC2BDF 		.ascii	"\357\334+\337\017\2161\036\207D60\320\275\2424R\024"
 733      0F8E311E 
 733      87443630 
 733      D0BDA234 
 733      5214
 734 244a 490CCEC2 		.ascii	"I\014\316\302\314^\345\203J\263i\252\360\301\207\332"
 734      CC5EE583 
ARM GAS  /tmp/ccKVRnqx.s 			page 59


 734      4AB369AA 
 734      F0C187DA 
 735 245a 3DDCA27F 		.ascii	"=\334\242\177Ei\367\036\335\037j\327\261]6\264\212v"
 735      4569F71E 
 735      DD1F6AD7 
 735      B15D36B4 
 735      8A76
 736 246c 730B48F7 		.ascii	"s\013H\367\001\260\016\017?\250%\013\372\344\265\032"
 736      01B00E0F 
 736      3FA8250B 
 736      FAE4B51A 
 737 247c 100E25A2 		.ascii	"\020\016%\242\261\216\032c\342 q\260\370w\227\034\012"
 737      B18E1A63 
 737      E22071B0 
 737      F877971C 
 737      0A
 738 248d B94AE57E 		.ascii	"\271J\345~\255\322\"\201\373\214$\304\270\227\216\254"
 738      ADD22281 
 738      FB8C24C4 
 738      B8978EAC 
 739 249d 7E1CF720 		.ascii	"~\034\367 \201B\227D\373\365\013\307\310\030\006\251"
 739      81429744 
 739      FBF50BC7 
 739      C81806A9 
 740 24ad E208C1F1 		.ascii	"\342\010\301\361\251)\034\313\332?\224\032\313HR\212"
 740      A9291CCB 
 740      DA3F941A 
 740      CB48528A 
 741 24bd 14B98917 		.ascii	"\024\271\211\027\313I\227\205\277\247\177\264\214\027"
 741      CB499785 
 741      BFA77FB4 
 741      8C17
 742 24cb 959686E2 		.ascii	"\225\226\206\342\021U\223>\374\011\2439~g\354QlHB\312"
 742      1155933E 
 742      FC09A339 
 742      7E67EC51 
 742      6C4842CA 
 743 24df C5CB2384 		.ascii	"\305\313#\204\263^\275\272\320\030$'\225\202&\315\216"
 743      B35EBDBA 
 743      D0182427 
 743      958226CD 
 743      8E
 744 24f0 C4411088 		.ascii	"\304A\020\210\\\022\341\242\034H\227\307\242\011PH\270"
 744      5C12E1A2 
 744      1C4897C7 
 744      A2095048 
 744      B8
 745 2501 880C3A65 		.ascii	"\210\014:e\220jQ\024\211\253Iw|pY\350\217N\252\207t"
 745      906A5114 
 745      89AB4977 
 745      7C7059E8 
 745      8F4EAA87 
 746 2516 3012ED5B 		.ascii	"0\022\355[\022\015\275\000,\264\352L\022y\341\001\221"
 746      120DBD00 
 746      2CB4EA4C 
 746      1279E101 
 746      91
ARM GAS  /tmp/ccKVRnqx.s 			page 60


 747 2527 50B84759 		.ascii	"P\270GYq\324\337\267\344\205 \211\263|$QVQ\352\207\341"
 747      71D4DFB7 
 747      E4852089 
 747      B37C2451 
 747      5651EA87 
 748 253c 1DB8298E 		.ascii	"\035\270)\216\266\200\014\325\303\264\350\334\363/\252"
 748      B6800CD5 
 748      C3B4E8DC 
 748      F32FAA
 749 254b 8BF19324 		.ascii	"\213\361\223$\3611\230\367D\227>=\376\332\265%Iv\351"
 749      F13198F7 
 749      44973E3D 
 749      FEDAB525 
 749      4976E9
 750 255e FDD4535D 		.ascii	"\375\324S]\341\347SO\336L~\346\365(L\347d\221\034tH"
 750      E1E7534F 
 750      DE4C7EE6 
 750      F5284CE7 
 750      64911C74 
 751 2573 D95A0A72 		.ascii	"\331Z\012r1\375LA\217>Z\272\360\331\247\272@\332\025"
 751      31FD4C41 
 751      8F3E5ABA 
 751      F0D9A7BA 
 751      40DA15
 752 2586 8A14B942 		.ascii	"\212\024\271B\361\"\177H.\227C`4y<\342\322\341\262\260"
 752      F1227F48 
 752      2E974360 
 752      34793CE2 
 752      D2E1B2B0 
 753 259a 4FAF8E1D 		.ascii	"O\257\216\035r{\366\314\313-\314\3571\240}.\350=XRB"
 753      727BF6CC 
 753      CB2DCCEF 
 753      31A07D2E 
 753      E83D5852 
 754 25af 46F72CC8 		.ascii	"F\367,\310\240\032\357\340(\236\304\206k\001_\232.\000"
 754      A01AEFE0 
 754      289EC486 
 754      6B015F9A 
 754      2E00
 755 25c1 47D30549 		.ascii	"G\323\005I\022]\020l*\037\376\225j%\207$\273\364\356"
 755      125D106C 
 755      2A1FFE95 
 755      6A258724 
 755      BBF4EE
 756 25d4 95DFB36B 		.ascii	"\225\337\263k\237\2567\001@H.)\351+\207p\230++\012\206"
 756      9FAE3701 
 756      40482E29 
 756      E92B8770 
 756      982B2B0A 
 757 25e9 FA766D8E 		.ascii	"\372vm\216\\O\346\367\350=\240Cn9\264*\025,\007\375"
 757      5C4FE6F7 
 757      E83DA043 
 757      6E39B42A 
 757      152C07FD 
 758 25fd 5CB05F39 		.ascii	"\\\260_9\211V<\275z\347u-\360\366\356\363l~\327\002"
 758      89563CBD 
 758      7AE7752D 
ARM GAS  /tmp/ccKVRnqx.s 			page 61


 758      F0F6EEF3 
 758      6C7ED702 
 759 2611 5FEFC2FC 		.ascii	"_\357\302\374\256]\363\012<\371O\347\203\263\353\001"
 759      AE5DF30A 
 759      3CF94FE7 
 759      83B3EB01 
 760 2621 57EFBC02 		.ascii	"W\357\274\002\361\031W\034\"\267PIX\216\211\335\335"
 760      F119571C 
 760      22B75049 
 760      588E89DD 
 760      DD
 761 2632 9D0B0B0A 		.ascii	"\235\013\013\012\334=\273\374\245\300\375D\267\202\236"
 761      DC3DBBFC 
 761      A5C0FD44 
 761      B7829E
 762 2641 84740757 		.ascii	"\204t\007WOj\215@H\345\215\307I\322\003_24J\254=\021"
 762      4F6A8D40 
 762      48E58DC7 
 762      49D2035F 
 762      32344AAC 
 763 2657 B54BB4AC 		.ascii	"\265K\264\2548\322\317\033\302/gNO\035\230\201\355["
 763      38D2CF1B 
 763      C22F674E 
 763      4F1D9881 
 763      ED5B
 764 2669 D4A80D22 		.ascii	"\324\250\015\"\203p,\\F\242?/\315\312&\212S\375\264"
 764      83702C5C 
 764      46A23F2F 
 764      CDCA268A 
 764      53FDB4
 765 267c A74B4197 		.ascii	"\247KA\227\374\002o\301\337\340\273\300\333\007\277"
 765      FC026FC1 
 765      DFE0BBC0 
 765      DB07BF
 766 268b 7C3D3A14 		.ascii	"|=:\024v\351\366d\201\007\276\363\013\\\240\331nN\025"
 766      76E9F664 
 766      8107BEF3 
 766      0B5CA0D9 
 766      6E4E15
 767 269e 89B4DB03 		.ascii	"\211\264\333\003\203\006\321A\"XT*\023\226\362z=\021"
 767      8306D141 
 767      2258542A 
 767      1396F27A 
 767      3D11
 768 26b0 A48E3635 		.ascii	"\244\21665Nt)p?\225\327\247\300\225\377D\201\273W;B"
 768      4E742970 
 768      3F95D7A7 
 768      C095FF44 
 768      81BB573B 
 769 26c5 DA3F51E0 		.ascii	"\332?Q\340\352\006\314P\377\355\216\024\207b\336H\274"
 769      EA06CC50 
 769      FFED8E14 
 769      8762DE48 
 769      BC
 770 26d6 7FA41886 		.ascii	"\177\244\030\206\344pIq\244\254(<\310K\035\332-)\364"
 770      E4704971 
 770      A4AC283C 
ARM GAS  /tmp/ccKVRnqx.s 			page 62


 770      C84B1DDA 
 770      2D29F4
 771 26e9 20BD1B1A 		.ascii	" \275\033\032\010~\304\006\021\232\030\224\025\033\004"
 771      087EC406 
 771      119A1894 
 771      151B04
 772 26f8 DF2466CA 		.ascii	"\337$f\312Jh)7\210S\356)\211\207\212\373y\372\023J|"
 772      4A682937 
 772      8853EE29 
 772      89878AFB 
 772      79FA134A 
 773 270d 0655782B 		.ascii	"\006Ux+\354\303A\271\250\210\270\331p\334\015\216\245"
 773      ECC341B9 
 773      A888B8D9 
 773      70DC0D8E 
 773      A5
 774 271e 88DC5F94 		.ascii	"\210\334_\224q\260\"\343b\261\234(\216\347\306c\241"
 774      71B022E3 
 774      62B19C28 
 774      8EE7C663 
 774      A1
 775 272f DC623258 		.ascii	"\334b2Xy\272=\321\247[a\306\211\202\276$\370\3160u\262"
 775      79BA3DD1 
 775      A75B61C6 
 775      8982BE24 
 775      F8CE3075 
 776 2744 EECECFF6 		.ascii	"\356\316\317\366\351\352#\321\035(\312U\024\033\340"
 776      E9EA23D1 
 776      1D28CA55 
 776      141BE0
 777 2753 09112FE2 		.ascii	"\011\021/\342-\013\302\335q\017F,\376\342x\004\203\030"
 777      2D0BC2DD 
 777      710F462C 
 777      FEE27804 
 777      8318
 778 2765 F733BD0B 		.ascii	"\3673\275\013\362\262\312\202\261h\024&W1O\036\371\335"
 778      F2B2CA82 
 778      B1681426 
 778      57314F1E 
 778      F9DD
 779 2777 A24486C0 		.ascii	"\242D\206\300\016\014\003B\244\342X8L\223~\004\2001"
 779      0E0C0342 
 779      A4E25838 
 779      4C937E04 
 779      8031
 780 2789 CF538C5E 		.ascii	"\317S\214^i@\024\372L<\354\203L\374\206\342\344\333"
 780      694014FA 
 780      4C3CEC83 
 780      4CFC86E2 
 780      E4DB
 781 279b 4F1C3566 		.ascii	"O\0345f\014$\2363\224p\301\267\217\370z\230\300\370"
 781      0C249E33 
 781      9470C1B7 
 781      8FF87A98 
 781      C0F8
 782 27ad 41310560 		.ascii	"A1\005`H\203\201?\374v\305\213Bd,\310\227\023\375s\212"
 782      4883813F 
ARM GAS  /tmp/ccKVRnqx.s 			page 63


 782      FC76C58B 
 782      42642CC8 
 782      9713FD73 
 783 27c2 8813E885 		.ascii	"\210\023\350\205\301J\221\267\014\213x\251\313w"
 783      C14A91B7 
 783      0C8B78A9 
 783      CB77
 784 27d0 75EBD153 		.ascii	"u\353\321S*\216\273\011\313\256p,\346.\206\200\305\033"
 784      2A8EBB09 
 784      CBAE702C 
 784      E62E8680 
 784      C51B
 785 27e2 47BE3C94 		.ascii	"G\276<\224\026\221\272\374\300D\220$\0107A\270\307\005"
 785      1691BAFC 
 785      C0449024 
 785      083741B8 
 785      C705
 786 27f4 118F9B20 		.ascii	"\021\217\233 \371\006\306p\320tG!\276\274\235\031\267"
 786      F906C670 
 786      D0744721 
 786      BEBC9D19 
 786      B7
 787 2805 70BAD427 		.ascii	"p\272\324'\3323\332\317\005uyaL%!\011|\365\214\206`"
 787      DA33DACF 
 787      05757961 
 787      4C252109 
 787      7CF58C86 
 788 281a 108E96C1 		.ascii	"\020\216\226\301\354\206\371\005Fx\007S\032\376\322"
 788      EC86F905 
 788      46780753 
 788      1AFED2
 789 2829 274A0747 		.ascii	"'J\007G(\036r\223\354V\030\005\344\245\306wG\363k9\326"
 789      281E7293 
 789      EC561805 
 789      E4A5C677 
 789      47F36B39 
 790 283e 8F8C6903 		.ascii	"\217\214i\003d\014C[\006\203\375\312*BA\365g\366\237"
 790      640C435B 
 790      0683FDCA 
 790      2A4241F5 
 790      67F69F
 791 2851 FB56444A 		.ascii	"\373VDJ\022\177\210\224=J\246\261j.L\256\006\320\300"
 791      127F8894 
 791      3D4AA6B1 
 791      6A2E4CAE 
 791      06D0C0
 792 2864 C3078A88 		.ascii	"\303\007\212\210\341\374\030\330\354R>8G\035e\237!2"
 792      E1FC18D8 
 792      EC523E38 
 792      471D659F 
 792      2132
 793 2876 B680C0A6 		.ascii	"\266\200\300\246\214\336\207#k>Iv\256(\356\321\034_"
 793      8CDE8723 
 793      6B3E4976 
 793      AE28EED1 
 793      1C5F
 794 2888 87211BF1 		.ascii	"\207!\033\361\3428{W\375\235\2530\357\241\377\017\265"
ARM GAS  /tmp/ccKVRnqx.s 			page 64


 794      E2387B57 
 794      FD9DAB30 
 794      EFA1FF0F 
 794      B5
 795 2899 C71A7F   		.ascii	"\307\032\177"
 796              		.text
 797              		.section	.gnu.lto_.symtab.56c2d70ccb5b5d8a,"",%progbits
 798 0000 64617461 		.ascii	"datasample_init\000\000\000\000\000\000\000\000\000"
 798      73616D70 
 798      6C655F69 
 798      6E697400 
 798      00000000 
 799 0018 00000042 		.ascii	"\000\000\000B\002\000\000datasample_writeToLog\000\000"
 799      02000064 
 799      61746173 
 799      616D706C 
 799      655F7772 
 800 0036 00000000 		.ascii	"\000\000\000\000\000\000\000\000\000\000\213\002\000"
 800      00000000 
 800      00008B02 
 800      00
 801 0043 00646174 		.ascii	"\000datasample_gpsToSample\000\000\000\000\000\000\000"
 801      6173616D 
 801      706C655F 
 801      67707354 
 801      6F53616D 
 802 0061 00000000 		.ascii	"\000\000\000\000\000,\004\000\000printDataSample\000"
 802      002C0400 
 802      00707269 
 802      6E744461 
 802      74615361 
 803 007a 00000000 		.ascii	"\000\000\000\000\000\000\000\000\000\000\000D\004\000"
 803      00000000 
 803      00000044 
 803      0400
 804 0088 00534436 		.ascii	"\000SD6\000\000\002\000\000\000\000\000\000\000\000"
 804      00000200 
 804      00000000 
 804      000000
 805 0097 006C0400 		.ascii	"\000l\004\000\000chvprintf\000\000\002\000\000\000\000"
 805      00636876 
 805      7072696E 
 805      74660000 
 805      02000000 
 806 00ac 00000000 		.ascii	"\000\000\000\000\000I\004\000\000uStrCpy\000\000\002"
 806      00490400 
 806      00755374 
 806      72437079 
 806      000002
 807 00bf 00000000 		.ascii	"\000\000\000\000\000\000\000\000\000X\004\000\000lo"
 807      00000000 
 807      00580400 
 807      006C6F
 808 00ce 6766696C 		.ascii	"gfileWrite\000\000\002\000\000\000\000\000\000\000\000"
 808      65577269 
 808      74650000 
 808      02000000 
ARM GAS  /tmp/ccKVRnqx.s 			page 65


 808      00000000 
 809 00e3 005D0400 		.ascii	"\000]\004\000\000chsnprintf\000\000\002\000\000\000"
 809      00636873 
 809      6E707269 
 809      6E746600 
 809      00020000 
 810 00f8 00000000 		.ascii	"\000\000\000\000\000\000d\004\000\000"
 810      00006404 
 810      0000
 811              		.text
 812              		.section	.gnu.lto_.opts,"",%progbits
 813 0000 272D6D63 		.ascii	"'-mcpu=cortex-m4' '-mfloat-abi=hard' '-mfpu=fpv4-sp"
 813      70753D63 
 813      6F727465 
 813      782D6D34 
 813      2720272D 
 814 0033 2D643136 		.ascii	"-d16' '-mno-thumb-interwork' '-mthumb' '-O2' '-fomi"
 814      2720272D 
 814      6D6E6F2D 
 814      7468756D 
 814      622D696E 
 815 0066 742D6672 		.ascii	"t-frame-pointer' '-falign-functions=16' '-ffunction"
 815      616D652D 
 815      706F696E 
 815      74657227 
 815      20272D66 
 816 0099 2D736563 		.ascii	"-sections' '-fdata-sections' '-fno-common' '-flto' "
 816      74696F6E 
 816      73272027 
 816      2D666461 
 816      74612D73 
 817 00cc 272D6673 		.ascii	"'-fsingle-precision-constant'\000"
 817      696E676C 
 817      652D7072 
 817      65636973 
 817      696F6E2D 
 818              		.text
 819              		.section	.text.chprintf.constprop.0,"ax",%progbits
 820              		.align	2
 821              		.p2align 4,,15
 822              		.thumb
 823              		.thumb_func
 824              		.type	chprintf.constprop.0, %function
 825              	chprintf.constprop.0:
 826              		@ args = 4, pretend = 12, frame = 8
 827              		@ frame_needed = 0, uses_anonymous_args = 1
 828 0000 0EB4     		push	{r1, r2, r3}
 829 0002 00B5     		push	{lr}
 830 0004 82B0     		sub	sp, sp, #8
 831 0006 04AB     		add	r3, sp, #16
 832 0008 1A46     		mov	r2, r3
 833 000a 0549     		ldr	r1, .L2
 834 000c 0548     		ldr	r0, .L2+4
 835 000e 0193     		str	r3, [sp, #4]
 836 0010 FFF7FEFF 		bl	chvprintf
 837 0014 02B0     		add	sp, sp, #8
 838              		@ sp needed
ARM GAS  /tmp/ccKVRnqx.s 			page 66


 839 0016 5DF804EB 		ldr	lr, [sp], #4
 840 001a 03B0     		add	sp, sp, #12
 841 001c 7047     		bx	lr
 842              	.L3:
 843 001e 00BF     		.align	2
 844              	.L2:
 845 0020 00000000 		.word	.LC0
 846 0024 00000000 		.word	SD6
 847              		.size	chprintf.constprop.0, .-chprintf.constprop.0
 848 0028 AFF30080 		.section	.text.datasample_init,"ax",%progbits
 848      AFF30080 
 849              		.align	2
 850              		.p2align 4,,15
 851              		.global	datasample_init
 852              		.thumb
 853              		.thumb_func
 854              		.type	datasample_init, %function
 855              	datasample_init:
 856              		@ args = 0, pretend = 0, frame = 0
 857              		@ frame_needed = 0, uses_anonymous_args = 0
 858 0000 38B5     		push	{r3, r4, r5, lr}
 859 0002 334C     		ldr	r4, .L5
 860 0004 3349     		ldr	r1, .L5+4
 861 0006 0546     		mov	r5, r0
 862 0008 FFF7FEFF 		bl	uStrCpy
 863 000c 05F10A00 		add	r0, r5, #10
 864 0010 2146     		mov	r1, r4
 865 0012 FFF7FEFF 		bl	uStrCpy
 866 0016 05F11A00 		add	r0, r5, #26
 867 001a 2146     		mov	r1, r4
 868 001c FFF7FEFF 		bl	uStrCpy
 869 0020 05F12A00 		add	r0, r5, #42
 870 0024 2146     		mov	r1, r4
 871 0026 FFF7FEFF 		bl	uStrCpy
 872 002a 05F13900 		add	r0, r5, #57
 873 002e 2146     		mov	r1, r4
 874 0030 FFF7FEFF 		bl	uStrCpy
 875 0034 05F14300 		add	r0, r5, #67
 876 0038 2146     		mov	r1, r4
 877 003a FFF7FEFF 		bl	uStrCpy
 878 003e 05F17B00 		add	r0, r5, #123
 879 0042 2146     		mov	r1, r4
 880 0044 FFF7FEFF 		bl	uStrCpy
 881 0048 05F18300 		add	r0, r5, #131
 882 004c 2146     		mov	r1, r4
 883 004e FFF7FEFF 		bl	uStrCpy
 884 0052 05F14B00 		add	r0, r5, #75
 885 0056 2146     		mov	r1, r4
 886 0058 FFF7FEFF 		bl	uStrCpy
 887 005c 05F15B00 		add	r0, r5, #91
 888 0060 2146     		mov	r1, r4
 889 0062 FFF7FEFF 		bl	uStrCpy
 890 0066 05F16300 		add	r0, r5, #99
 891 006a 2146     		mov	r1, r4
 892 006c FFF7FEFF 		bl	uStrCpy
 893 0070 05F15300 		add	r0, r5, #83
 894 0074 2146     		mov	r1, r4
ARM GAS  /tmp/ccKVRnqx.s 			page 67


 895 0076 FFF7FEFF 		bl	uStrCpy
 896 007a 05F17300 		add	r0, r5, #115
 897 007e 2146     		mov	r1, r4
 898 0080 FFF7FEFF 		bl	uStrCpy
 899 0084 05F16B00 		add	r0, r5, #107
 900 0088 2146     		mov	r1, r4
 901 008a FFF7FEFF 		bl	uStrCpy
 902 008e 05F18B00 		add	r0, r5, #139
 903 0092 2146     		mov	r1, r4
 904 0094 FFF7FEFF 		bl	uStrCpy
 905 0098 05F19900 		add	r0, r5, #153
 906 009c 2146     		mov	r1, r4
 907 009e FFF7FEFF 		bl	uStrCpy
 908 00a2 05F1A700 		add	r0, r5, #167
 909 00a6 2146     		mov	r1, r4
 910 00a8 FFF7FEFF 		bl	uStrCpy
 911 00ac 05F1B500 		add	r0, r5, #181
 912 00b0 2146     		mov	r1, r4
 913 00b2 FFF7FEFF 		bl	uStrCpy
 914 00b6 05F1C300 		add	r0, r5, #195
 915 00ba 2146     		mov	r1, r4
 916 00bc FFF7FEFF 		bl	uStrCpy
 917 00c0 05F1D100 		add	r0, r5, #209
 918 00c4 2146     		mov	r1, r4
 919 00c6 BDE83840 		pop	{r3, r4, r5, lr}
 920 00ca FFF7FEBF 		b	uStrCpy
 921              	.L6:
 922 00ce 00BF     		.align	2
 923              	.L5:
 924 00d0 6C000000 		.word	.LC2
 925 00d4 64000000 		.word	.LC1
 926              		.size	datasample_init, .-datasample_init
 927 00d8 AFF30080 		.section	.text.datasample_writeToLog,"ax",%progbits
 927      AFF30080 
 928              		.align	2
 929              		.p2align 4,,15
 930              		.global	datasample_writeToLog
 931              		.thumb
 932              		.thumb_func
 933              		.type	datasample_writeToLog, %function
 934              	datasample_writeToLog:
 935              		@ args = 0, pretend = 0, frame = 0
 936              		@ frame_needed = 0, uses_anonymous_args = 0
 937 0000 2DE9F04F 		push	{r4, r5, r6, r7, r8, r9, r10, fp, lr}
 938 0004 95B0     		sub	sp, sp, #84
 939 0006 0346     		mov	r3, r0
 940 0008 2A4C     		ldr	r4, .L8
 941 000a 2B4A     		ldr	r2, .L8+4
 942 000c 00F10A0B 		add	fp, r0, #10
 943 0010 00F11A0A 		add	r10, r0, #26
 944 0014 00F12A09 		add	r9, r0, #42
 945 0018 00F13908 		add	r8, r0, #57
 946 001c 00F1430C 		add	ip, r0, #67
 947 0020 00F17B0E 		add	lr, r0, #123
 948 0024 00F18307 		add	r7, r0, #131
 949 0028 00F14B06 		add	r6, r0, #75
 950 002c 5B30     		adds	r0, r0, #91
ARM GAS  /tmp/ccKVRnqx.s 			page 68


 951 002e 03F16305 		add	r5, r3, #99
 952 0032 CDF800B0 		str	fp, [sp]
 953 0036 CDF804A0 		str	r10, [sp, #4]
 954 003a 03F1530B 		add	fp, r3, #83
 955 003e 03F1730A 		add	r10, r3, #115
 956 0042 CDF80890 		str	r9, [sp, #8]
 957 0046 CDF80C80 		str	r8, [sp, #12]
 958 004a 03F16B09 		add	r9, r3, #107
 959 004e 03F18B08 		add	r8, r3, #139
 960 0052 CDF810C0 		str	ip, [sp, #16]
 961 0056 CDF814E0 		str	lr, [sp, #20]
 962 005a 03F1990C 		add	ip, r3, #153
 963 005e 03F1A70E 		add	lr, r3, #167
 964 0062 0697     		str	r7, [sp, #24]
 965 0064 0796     		str	r6, [sp, #28]
 966 0066 03F1B507 		add	r7, r3, #181
 967 006a 03F1C306 		add	r6, r3, #195
 968 006e 0890     		str	r0, [sp, #32]
 969 0070 03F1D100 		add	r0, r3, #209
 970 0074 0995     		str	r5, [sp, #36]
 971 0076 CDF838C0 		str	ip, [sp, #56]
 972 007a 0D46     		mov	r5, r1
 973 007c CDF83CE0 		str	lr, [sp, #60]
 974 0080 1290     		str	r0, [sp, #72]
 975 0082 CDF828B0 		str	fp, [sp, #40]
 976 0086 CDF82CA0 		str	r10, [sp, #44]
 977 008a CDF83090 		str	r9, [sp, #48]
 978 008e CDF83480 		str	r8, [sp, #52]
 979 0092 1097     		str	r7, [sp, #64]
 980 0094 1196     		str	r6, [sp, #68]
 981 0096 2046     		mov	r0, r4
 982 0098 4FF48071 		mov	r1, #256
 983 009c FFF7FEFF 		bl	chsnprintf
 984 00a0 2146     		mov	r1, r4
 985 00a2 82B2     		uxth	r2, r0
 986 00a4 0023     		movs	r3, #0
 987 00a6 2846     		mov	r0, r5
 988 00a8 FFF7FEFF 		bl	logfileWrite
 989 00ac 0020     		movs	r0, #0
 990 00ae 15B0     		add	sp, sp, #84
 991              		@ sp needed
 992 00b0 BDE8F08F 		pop	{r4, r5, r6, r7, r8, r9, r10, fp, pc}
 993              	.L9:
 994              		.align	2
 995              	.L8:
 996 00b4 00000000 		.word	.LANCHOR0
 997 00b8 70000000 		.word	.LC3
 998              		.size	datasample_writeToLog, .-datasample_writeToLog
 999 00bc AFF30080 		.section	.text.datasample_gpsToSample,"ax",%progbits
 1000              		.align	2
 1001              		.p2align 4,,15
 1002              		.global	datasample_gpsToSample
 1003              		.thumb
 1004              		.thumb_func
 1005              		.type	datasample_gpsToSample, %function
 1006              	datasample_gpsToSample:
 1007              		@ args = 0, pretend = 0, frame = 0
ARM GAS  /tmp/ccKVRnqx.s 			page 69


 1008              		@ frame_needed = 0, uses_anonymous_args = 0
 1009 0000 38B5     		push	{r3, r4, r5, lr}
 1010 0002 0446     		mov	r4, r0
 1011 0004 0D46     		mov	r5, r1
 1012 0006 0846     		mov	r0, r1
 1013 0008 2146     		mov	r1, r4
 1014 000a FFF7FEFF 		bl	uStrCpy
 1015 000e 05F10A00 		add	r0, r5, #10
 1016 0012 04F11001 		add	r1, r4, #16
 1017 0016 FFF7FEFF 		bl	uStrCpy
 1018 001a 05F11A00 		add	r0, r5, #26
 1019 001e 04F12801 		add	r1, r4, #40
 1020 0022 FFF7FEFF 		bl	uStrCpy
 1021 0026 05F12A00 		add	r0, r5, #42
 1022 002a 04F14001 		add	r1, r4, #64
 1023 002e FFF7FEFF 		bl	uStrCpy
 1024 0032 05F13900 		add	r0, r5, #57
 1025 0036 04F15001 		add	r1, r4, #80
 1026 003a BDE83840 		pop	{r3, r4, r5, lr}
 1027 003e FFF7FEBF 		b	uStrCpy
 1028              		.size	datasample_gpsToSample, .-datasample_gpsToSample
 1029 0042 00BFAFF3 		.section	.text.printDataSample,"ax",%progbits
 1029      0080AFF3 
 1029      0080AFF3 
 1029      0080
 1030              		.align	2
 1031              		.p2align 4,,15
 1032              		.global	printDataSample
 1033              		.thumb
 1034              		.thumb_func
 1035              		.type	printDataSample, %function
 1036              	printDataSample:
 1037              		@ args = 0, pretend = 0, frame = 0
 1038              		@ frame_needed = 0, uses_anonymous_args = 0
 1039 0000 2DE9F043 		push	{r4, r5, r6, r7, r8, r9, lr}
 1040 0004 0246     		mov	r2, r0
 1041 0006 8DB0     		sub	sp, sp, #52
 1042 0008 00F1390C 		add	ip, r0, #57
 1043 000c 00F1430E 		add	lr, r0, #67
 1044 0010 02F19901 		add	r1, r2, #153
 1045 0014 02F1A703 		add	r3, r2, #167
 1046 0018 00F11A09 		add	r9, r0, #26
 1047 001c 00F12A08 		add	r8, r0, #42
 1048 0020 00F17B07 		add	r7, r0, #123
 1049 0024 00F15B06 		add	r6, r0, #91
 1050 0028 00F15305 		add	r5, r0, #83
 1051 002c 00F17304 		add	r4, r0, #115
 1052 0030 8B30     		adds	r0, r0, #139
 1053 0032 0890     		str	r0, [sp, #32]
 1054 0034 0991     		str	r1, [sp, #36]
 1055 0036 0A93     		str	r3, [sp, #40]
 1056 0038 CDF80090 		str	r9, [sp]
 1057 003c CDF80480 		str	r8, [sp, #4]
 1058 0040 CDF808C0 		str	ip, [sp, #8]
 1059 0044 CDF80CE0 		str	lr, [sp, #12]
 1060 0048 0497     		str	r7, [sp, #16]
 1061 004a 0596     		str	r6, [sp, #20]
ARM GAS  /tmp/ccKVRnqx.s 			page 70


 1062 004c 0695     		str	r5, [sp, #24]
 1063 004e 0794     		str	r4, [sp, #28]
 1064 0050 02F10A03 		add	r3, r2, #10
 1065 0054 0349     		ldr	r1, .L12
 1066 0056 0448     		ldr	r0, .L12+4
 1067 0058 FFF7FEFF 		bl	chprintf.constprop.0
 1068 005c 0DB0     		add	sp, sp, #52
 1069              		@ sp needed
 1070 005e BDE8F083 		pop	{r4, r5, r6, r7, r8, r9, pc}
 1071              	.L13:
 1072 0062 00BF     		.align	2
 1073              	.L12:
 1074 0064 00000000 		.word	.LC0
 1075 0068 00000000 		.word	SD6
 1076              		.size	printDataSample, .-printDataSample
 1077 006c AFF30080 		.section	.bss.dataPrintBuf,"aw",%nobits
 1078              		.align	2
 1079              		.set	.LANCHOR0,. + 0
 1080              		.type	dataPrintBuf, %object
 1081              		.size	dataPrintBuf, 384
 1082              	dataPrintBuf:
 1083 0000 00000000 		.space	384
 1083      00000000 
 1083      00000000 
 1083      00000000 
 1083      00000000 
 1084              		.section	.rodata.str1.4,"aMS",%progbits,1
 1085              		.align	2
 1086              	.LC0:
 1087 0000 54494D3A 		.ascii	"TIM:%s, LAT:%s, LNG:%s, ALT:%s, SAT:%s, TMPI:%s, TM"
 1087      25732C20 
 1087      4C41543A 
 1087      25732C20 
 1087      4C4E473A 
 1088 0033 50453A25 		.ascii	"PE:%s, PRS:%s, HUMI:%s, HUME:%s, ACC(%s,%s,%s)\012\000"
 1088      732C2050 
 1088      52533A25 
 1088      732C2048 
 1088      554D493A 
 1089 0063 00       		.space	1
 1090              	.LC1:
 1091 0064 2D3A2D3A 		.ascii	"-:-:-\000"
 1091      2D00
 1092 006a 0000     		.space	2
 1093              	.LC2:
 1094 006c 2D00     		.ascii	"-\000"
 1095 006e 0000     		.space	2
 1096              	.LC3:
 1097 0070 25732C25 		.ascii	"%s,%s,%s,%s,%s,%s,%s,%s,%s,%s,%s,%s,%s,%s,%s,%s,%s,"
 1097      732C2573 
 1097      2C25732C 
 1097      25732C25 
 1097      732C2573 
 1098 00a3 25732C25 		.ascii	"%s,%s\012\000"
 1098      730A00
 1099              		.comm	__gnu_lto_v1,1,1
 1100 00aa 0000     		.ident	"GCC: (GNU Tools for ARM Embedded Processors) 4.8.4 20140526 (release) [ARM/embedded-4_8-br
ARM GAS  /tmp/ccKVRnqx.s 			page 71


ARM GAS  /tmp/ccKVRnqx.s 			page 72


DEFINED SYMBOLS
                            *ABS*:0000000000000000 datasample.c
     /tmp/ccKVRnqx.s:820    .text.chprintf.constprop.0:0000000000000000 $t
     /tmp/ccKVRnqx.s:825    .text.chprintf.constprop.0:0000000000000000 chprintf.constprop.0
     /tmp/ccKVRnqx.s:845    .text.chprintf.constprop.0:0000000000000020 $d
     /tmp/ccKVRnqx.s:849    .text.datasample_init:0000000000000000 $t
     /tmp/ccKVRnqx.s:855    .text.datasample_init:0000000000000000 datasample_init
     /tmp/ccKVRnqx.s:924    .text.datasample_init:00000000000000d0 $d
     /tmp/ccKVRnqx.s:928    .text.datasample_writeToLog:0000000000000000 $t
     /tmp/ccKVRnqx.s:934    .text.datasample_writeToLog:0000000000000000 datasample_writeToLog
     /tmp/ccKVRnqx.s:996    .text.datasample_writeToLog:00000000000000b4 $d
     /tmp/ccKVRnqx.s:1000   .text.datasample_gpsToSample:0000000000000000 $t
     /tmp/ccKVRnqx.s:1006   .text.datasample_gpsToSample:0000000000000000 datasample_gpsToSample
     /tmp/ccKVRnqx.s:1030   .text.printDataSample:0000000000000000 $t
     /tmp/ccKVRnqx.s:1036   .text.printDataSample:0000000000000000 printDataSample
     /tmp/ccKVRnqx.s:1074   .text.printDataSample:0000000000000064 $d
     /tmp/ccKVRnqx.s:1078   .bss.dataPrintBuf:0000000000000000 $d
     /tmp/ccKVRnqx.s:1082   .bss.dataPrintBuf:0000000000000000 dataPrintBuf
     /tmp/ccKVRnqx.s:1085   .rodata.str1.4:0000000000000000 $d
                            *COM*:0000000000000001 __gnu_lto_v1
     /tmp/ccKVRnqx.s:848    .text.chprintf.constprop.0:0000000000000028 $t
     /tmp/ccKVRnqx.s:927    .text.datasample_init:00000000000000d8 $t
     /tmp/ccKVRnqx.s:999    .text.datasample_writeToLog:00000000000000bc $t
     /tmp/ccKVRnqx.s:1077   .text.printDataSample:000000000000006c $t

UNDEFINED SYMBOLS
chvprintf
SD6
uStrCpy
chsnprintf
logfileWrite
