ARM GAS  /tmp/ccftiQnV.s 			page 1


   1              		.syntax unified
   2              		.cpu cortex-m4
   3              		.eabi_attribute 27, 3
   4              		.eabi_attribute 28, 1
   5              		.fpu fpv4-sp-d16
   6              		.eabi_attribute 20, 1
   7              		.eabi_attribute 21, 1
   8              		.eabi_attribute 23, 3
   9              		.eabi_attribute 24, 1
  10              		.eabi_attribute 25, 1
  11              		.eabi_attribute 26, 1
  12              		.eabi_attribute 30, 2
  13              		.eabi_attribute 34, 1
  14              		.eabi_attribute 18, 4
  15              		.thumb
  16              		.file	"datalogger.c"
  17              		.section	.gnu.lto_.jmpfuncs.d9e8e1f81841ea60,"",%progbits
  18 0000 789C7D50 		.ascii	"x\234}P\315N\203@\020\236a)m\251\006\343\003\220\275"
  18      CD4E8340 
  18      109E6129 
  18      6DA906E3 
  18      0390BD
  19 0013 102F3536 		.ascii	"\020/56=z\262\221Z\017\325&\350\301+\321\225\220\264"
  19      3D7AB291 
  19      5A0FD526 
  19      E8C12BD1 
  19      9590B4
  20 0026 D02C881A 		.ascii	"\320,\210\032/\334}\201z\360y|\031\237\300\223\263\374"
  20      2FDC7D81 
  20      7AF0797C 
  20      199FC093 
  20      B3FC
  21 0038 18A8460E 		.ascii	"\030\250F\016\314\354\316\267\337\317h\240\301_\337"
  21      CCECCEB7 
  21      DFCF68A0 
  21      C15FDF
  22 0047 2B027C52 		.ascii	"+\002|R\335\005F\035c\324fT\0010Scz\244\335`\210\252"
  22      DD05461D 
  22      63D46654 
  22      01305363 
  22      7AA4DD60 
  23 005d C7E2F402 		.ascii	"\307\342\364\002_\371&\337\013\021m\300\367|s\022b\311"
  23      5FF926DF 
  23      0B116DC0 
  23      F77C7312 
  23      62C9
  24 006f CC9050BA 		.ascii	"\314\220P\272\325\3020\033\016J\214^b\232\303\216\015"
  24      D5C2301B 
  24      0E4A8C5E 
  24      629AC38E 
  24      0D
  25 0080 E7E5D0A8 		.ascii	"\347\345\320\250\314\260BR\351u\211\013\025\232\\t\220"
  25      CCB04252 
  25      E975890B 
  25      159A5C74 
  25      90
  26 0091 1577BD7A 		.ascii	"\025w\275z\330\377AU\016\233zOM=\303\320\252\024E\""
ARM GAS  /tmp/ccftiQnV.s 			page 2


  26      D8FF4155 
  26      0E9B7A4F 
  26      4D3DC3D0 
  26      AA144522 
  27 00a5 84AED5B2 		.ascii	"\204\256\325\262`\332\360V\205\030\324\036*U*,\253u"
  27      60DAF056 
  27      8518D41E 
  27      2A552A2C 
  27      AB75
  28 00b7 CC6DEF14 		.ascii	"\314m\357\024\376\243\235\276\204\367\240\017&\016\324"
  28      FEA39DBE 
  28      84F7A00F 
  28      260ED4
  29 00c6 2A76D44F 		.ascii	"*v\324O\333\212\265O\233\266\260\332\262\336Xt\031W"
  29      DB8AB54F 
  29      9BB6B0DA 
  29      B2DE5874 
  29      1957
  30 00d8 DD82E34E 		.ascii	"\335\202\343N\256'\363\305l6\365\216\371\324\363\026"
  30      AE27F3C5 
  30      6C36F58E 
  30      F9D4F316 
  31 00e8 1E776598 		.ascii	"\036we\230\011\036\305)_\305\017Q*\356L\340M\224\353"
  31      091EC529 
  31      5FC50F51 
  31      2AEE4CE0 
  31      4D94EB
  32 00fb A7FE320E 		.ascii	"\247\3762\016\002!\371U\352\313\002p\324\242\2212\226"
  32      0221F955 
  32      EACB0270 
  32      D4A29132 
  32      96
  33 010c FC423D0E 		.ascii	"\374B=\016\243\200\237\205K\221<'\251X\015I\300\031"
  33      A3809F85 
  33      4B913C27 
  33      A9580D49 
  33      C019
  34 011e 8FFE258C 		.ascii	"\217\376%\214\327kEx\370\233\360V\012\277 \234\307\301"
  34      D76B4578 
  34      F89BF056 
  34      0ABF209C 
  34      C7C1
  35 0130 3D710E95 		.ascii	"=q\016\225_g4&t+\305i\215\273\024\2175\226;\211\011"
  35      5F673426 
  35      742BC569 
  35      8DBB148F 
  35      35963B89 
  36 0145 DF829A7C 		.ascii	"\337\202\232|%"
  36      25
  37              		.text
  38              		.section	.gnu.lto_.inline.d9e8e1f81841ea60,"",%progbits
  39 0000 789C7552 		.ascii	"x\234uR;N\303@\020}\263\236\330kl\307|\004\001)?\304"
  39      3B4EC340 
  39      107DB39E 
  39      D86B6CC7 
  39      7C040129 
  40 0016 B7211574 		.ascii	"\267!\025t\024\364H\256)iP\302-\214D\221\322\007@J\316"
ARM GAS  /tmp/ccftiQnV.s 			page 3


  40      14F448AE 
  40      296950C2 
  40      2D8C4491 
  40      D207404A 
  41 002b 809042C1 		.ascii	"\200\220B\301\025\220Rs\0028\002\022\005\263\353\254"
  41      15905273 
  41      02380212 
  41      05B3EBAC 
  42 003b 8905D8F2 		.ascii	"\211\005\330\362\370y\346\315\316\233\031+(\374u=.\334"
  42      F879E6CD 
  42      CE9B192B 
  42      28FC753D 
  42      2EDC
  43 004d 09386AC3 		.ascii	"\0118j\303\222\374i\257\342\022\032M\300+2s{\261%\020"
  43      92FC69AF 
  43      E2121A4D 
  43      C02B3273 
  43      7BB12510 
  44 0061 8294A0D4 		.ascii	"\202\224\240\324<\255\2506Rd\3608\\#\022\006\274k\346"
  44      3CADA836 
  44      5264F038 
  44      5C231206 
  44      BC6BE6
  45 0074 69AF24D0 		.ascii	"i\257$\320{\300\245u\\*2\306\356\011\205jxE\267$\036"
  45      7BC0A575 
  45      5C2A32C6 
  45      EE09856A 
  45      7845B724 
  46 0089 A89143B0 		.ascii	"\250\221C\260\276\304\240\221Cd}M\203F\016)*\025\312"
  46      BEC4A091 
  46      43647D4D 
  46      83460E29 
  46      2A15CA
  47 009c 634CE0A4 		.ascii	"cL\340\244K\335\\\354\270\235\263F\363\351\262\257\301"
  47      4BDD5CEC 
  47      B89DB346 
  47      F3E9B2AF 
  47      C1
  48 00ad 0F3BB936 		.ascii	"\017;\2716\357\257\355\276v\212\345\333h\346\304 i\021"
  48      EFAFEDBE 
  48      768AE5DB 
  48      68E6C420 
  48      6911
  49 00bf 4526CD96 		.ascii	"E&\315\226\330\364b\031\242\264\201\270#\375z\317-\004"
  49      D8F46219 
  49      A2B481B8 
  49      23FD7ACF 
  49      2D04
  50 00d1 E3239B2D 		.ascii	"\343#\233-9\360\226\372\366O\267&\"Bm\316>|\004w\373"
  50      39F096FA 
  50      F64FB726 
  50      22426DCE 
  50      3E7C0477 
  51 00e6 0B129971 		.ascii	"\013\022\231q\031\256\222\263\003t\017\305\261\376z"
  51      19AE92B3 
  51      03740FC5 
  51      B1FE7A
ARM GAS  /tmp/ccftiQnV.s 			page 4


  52 00f5 83F8F3E2 		.ascii	"\203\370\363\342\347\030WxQVE\265\200\250QT[K\370\313"
  52      E7185778 
  52      515645B5 
  52      80A85154 
  52      5B4BF8CB 
  53 0109 B302F616 		.ascii	"\263\002\366\026S\317\211]\240>\365\010\321F\265\031"
  53      53CF895D 
  53      A03EF508 
  53      D146B519 
  54 0119 7F3A809E 		.ascii	"\177:\200\236\016\376\331L\214V\233TI\265\266\357\307"
  54      0EFED94C 
  54      8C569B54 
  54      49B5B6EF 
  54      C7
  55 012a 6F67D02F 		.ascii	"og\320/{\265\0041\332Bmr\215l\263\325\304\016d\271\241"
  55      7BB50431 
  55      DA426D72 
  55      8D6CB3D5 
  55      C40E64B9 
  56 013f 84BB1D62 		.ascii	"\204\273\035b\317\256-5U\206\025\"\267EN'\347\010g\307"
  56      CFAE2D35 
  56      55861522 
  56      B7454E27 
  56      E70867C7 
  57 0153 0AFAFE60 		.ascii	"\012\372\376`\025<O\235 6\247\372\302\346\362\037\254"
  57      153C4F9D 
  57      2036A7FA 
  57      C2E6F21F 
  57      AC
  58 0164 7CF80666 		.ascii	"|\370\006f\216P\304"
  58      8E50C4
  59              		.text
  60              		.section	.gnu.lto_.pureconst.d9e8e1f81841ea60,"",%progbits
  61 0000 789C6362 		.ascii	"x\234cb`b\220f\200\000^\006\011F\011fI\026)V)6)v)\016"
  61      60629066 
  61      80005E06 
  61      09460966 
  61      49162956 
  62 001a 064E062E 		.ascii	"\006N\006.Vn)\036I^)\000\027B\001\211"
  62      566E291E 
  62      495E2900 
  62      17420189 
  63              		.text
  64              		.section	.gnu.lto_chprintf.d9e8e1f81841ea60,"",%progbits
  65 0000 789C8550 		.ascii	"x\234\205P\315J\002Q\024>\337\0355uc\333v\342\0034\213"
  65      CD4A0251 
  65      143EDF1D 
  65      357563DB 
  65      76E20334 
  66 0015 22E80D7A 		.ascii	"\"\350\015z\000\203Z\3058\216z\011\035\321Q\260\026"
  66      00835AC5 
  66      388E7A09 
  66      1DD151B0 
  66      16
  67 0026 5EC1C245 		.ascii	"^\301\302E\013ig\021)\321:\244\027\030\202\332DI\273"
  67      0B696711 
  67      29D13AA4 
ARM GAS  /tmp/ccftiQnV.s 			page 5


  67      171882DA 
  67      4449BB
  68 0039 162D2497 		.ascii	"\026-$\227\265h\321*\202\351\336\031\024\372\201\016"
  68      B568D12A 
  68      82E9DE19 
  68      14FA810E 
  69 0049 DC7B7EBE 		.ascii	"\334{~\276s\276\363\303\210\321OY\220o\010\2425\251"
  69      73BEF3C3 
  69      88D14F59 
  69      906F08A2 
  69      35A9
  70 005b A11158F7 		.ascii	"\241\021X\367\236\250\025e\2002\010\324dhnB\245\262"
  70      9EA81565 
  70      803208D4 
  70      64686E42 
  70      A5B2
  71 006d 140D84DB 		.ascii	"\024\015\204\333\035_O\036\321\023n\273/>=\017\340\220"
  71      1D5F4F1E 
  71      D1136EBB 
  71      2F3E3D0F 
  71      E090
  72 007f B42B2013 		.ascii	"\264+ \023\264!\035$}\305B\337\373\250Z\321uOon!\016"
  72      B4211D24 
  72      7DC542DF 
  72      FBA85AD1 
  72      754F6F6E 
  73 0095 45EBCDF3 		.ascii	"E\353\315\363\022\034\032\243\325\377\012/\230\373\354"
  73      121C1AA3 
  73      D5FF0A2F 
  73      98FBEC
  74 00a4 794FC3F7 		.ascii	"yO\303\367\203W\364XLC\021\024\222\037\"d\340\014)\225"
  74      8357F458 
  74      4C431114 
  74      921F2264 
  74      E00C2995 
  75 00b8 13A6B624 		.ascii	"\023\246\266$O\032\030H\177\0325\375\241\323\362W\233"
  75      4F1A1848 
  75      7F1A35FD 
  75      A1D3F257 
  75      9B
  76 00c9 AC8329AD 		.ascii	"\254\203)\255\215ho\3343\015\234#,\321]\372\020\035"
  76      8D686FDC 
  76      330D9C23 
  76      2CD15DFA 
  76      101D
  77 00db 31CF1132 		.ascii	"1\317\0212\341\247\313\310\016Gx\312\344g\251\2514\""
  77      E1A7CBC8 
  77      0E4778CA 
  77      E467A9A9 
  77      3422
  78 00ed 2E3BD288 		.ascii	".;\322\210\366\307G\223x\200\344\021\231\021\314\231"
  78      F6C74793 
  78      7880E411 
  78      9911CC99 
  79 00fd 088E9B87 		.ascii	"\010\216\233\207\226G( \340\210\252\222\366\370\370"
  79      96472820 
  79      E088AA92 
ARM GAS  /tmp/ccftiQnV.s 			page 6


  79      F6F8F8
  80 010c 77C798A9 		.ascii	"w\307\230\251H\377\356\310\021'\272\243\253\027\026"
  80      48FFEEC8 
  80      1127BAA3 
  80      AB1716
  81 011b 04027099 		.ascii	"\004\002p\231.EG\235[\312\003\265\372'\332l\214\340"
  81      2E45479D 
  81      5BCA03B5 
  81      FA27DA6C 
  81      8CE0
  82 012d 5469B983 		.ascii	"Ti\271\203\334Q\315\261\244\027\354\242\245\233v\266"
  82      DC51CDB1 
  82      A417ECA2 
  82      A59B76B6 
  83 013d A167ADBA 		.ascii	"\241g\255\272n\026x\206\333U\335\251\324J\333\2724\352"
  83      6E167886 
  83      DB55DDA9 
  83      D44ADBBA 
  83      34EA
  84 014f 4685DBB5 		.ascii	"F\205\333\265\252\004\312\025^rr\213\005bF9\221\263"
  84      AA04CA15 
  84      5E72728B 
  84      05624639 
  84      91B3
  85 0161 2B45C371 		.ascii	"+E\303q\254\354V\246\341X\325/\251H\201#"
  85      ACEC56A6 
  85      E158D52F 
  85      A9488123 
  86              		.text
  87              		.section	.gnu.lto_logfileNew.part.0.d9e8e1f81841ea60,"",%progbits
  88 0000 789C9D92 		.ascii	"x\234\235\222\277kSQ\024\307\317\367\336\367\322$Z\350"
  88      BF6B5351 
  88      14C7CFF7 
  88      DEF7D224 
  88      5AE8
  89 0012 507410E4 		.ascii	"Pt\020\344\021\320A\241C\351\324\251-\011Y\204BH\250"
  89      11D041A1 
  89      43E9D4A9 
  89      2D095984 
  89      4248A8
  90 0025 8E8FF425 		.ascii	"\216\217\364%\\h\022H\323.\035rR:t(\022\234\342/\260"
  90      5C681248 
  90      D32E1D72 
  90      523A7428 
  90      129CE22F 
  91 003a 9452A494 		.ascii	"\224R\244\224\202[\267L\005\007\025qr\313_\340\340 "
  91      825BB74C 
  91      05071571 
  91      72CB5FE0 
  91      E020
  92 004c 58C4E7B9 		.ascii	"X\304\347\271\367\025E\021Zz\341\235\357\271\347\335"
  92      F7154511 
  92      5A7AE19D 
  92      EFB9E7DD 
  93 005c CF39E7FE 		.ascii	"\3179\347\376P\244\350\337q_\276\232\204\227D\341\023"
  93      50A4E8DF 
  93      715FBE9A 
ARM GAS  /tmp/ccftiQnV.s 			page 7


  93      849744E1 
  93      13
  94 006d BCFE7B71 		.ascii	"\274\376{q<(\247\012\332j/\255\001\353\020\250\353)"
  94      3C28A70A 
  94      DA6A2FAD 
  94      01EB10A8 
  94      EB29
  95 007f 8DEE2358 		.ascii	"\215\356#X8\225\243]\346'\243\375/C<\345\341\326+\376"
  95      3895A35D 
  95      E627A3FD 
  95      2F433CE5 
  95      E1D62BFE 
  96 0093 11C78081 		.ascii	"\021\307\200\201\024\232\000UA\017e\202\300\211\362"
  96      149A0055 
  96      410F6582 
  96      C089F2
  97 00a2 FEAE9CB0 		.ascii	"\376\256\234\260\374\2069\3438m\240\025\335\270\002"
  97      FC8639E3 
  97      386DA015 
  97      DDB802
  98 00b1 E629BA75 		.ascii	"\346)\272u\005\314W\224\273\0346\374~\372\370&\217\270"
  98      05CC5794 
  98      BB1C36FC 
  98      7EFAF826 
  98      8FB8
  99 00c3 CF3F657F 		.ascii	"\317?e\177\006)Ew\377\220\351\204\304\177\311o\247;"
  99      06294577 
  99      FF90E984 
  99      C47FC96F 
  99      A73B
 100 00d5 D97E6F9B 		.ascii	"\331~o\233\343\270k0\246\350\336E\025\217\025\217\342"
 100      E3B86B30 
 100      A6E8DE45 
 100      158F158F 
 100      E2
 101 00e6 F8E42CED 		.ascii	"\370\344,\355\203B\034\"'gi\244\006\221O[\314\375 \304"
 101      83421C22 
 101      276769A4 
 101      06914F5B 
 101      CCFD20C4 
 102 00fa 6B0986D8 		.ascii	"k\011\206\330uv\317\331}g\017\304\222M/\243,\326\336"
 102      7576CFD9 
 102      7D670FC4 
 102      924D2FA3 
 102      2CD6DE
 103 010d 58199E55 		.ascii	"X\031\236U]\201r\372\2166\337\016\276\016U\210#\271"
 103      5D8172FA 
 103      8E36DF0E 
 103      BE0E5588 
 103      23B9
 104 011f EE3AF09C 		.ascii	"\356:\360\234\236\365\230'\244\271\015:\343m\353e\032"
 104      9EF59827 
 104      A4B90D3A 
 104      E36DEB65 
 104      1A
 105 0130 2E85ED2E 		.ascii	".\205\355.s\336\325\007\362\023\202\350\367\262l\025"
 105      73DED507 
ARM GAS  /tmp/ccftiQnV.s 			page 8


 105      F21382E8 
 105      F7B26C15 
 106 0140 C99E258B 		.ascii	"\311\236%\213\015\016\230?\011r\3556M\277\344\301\234"
 106      0D0E983F 
 106      0972ED36 
 106      4DBFE4C1 
 106      9C
 107 0151 C1753A67 		.ascii	"\301u:g\014\306\2234\025h\327\305GyR\226s\357\3613)"
 107      0CC69334 
 107      1568D7C5 
 107      47795296 
 107      73EFF133 
 108 0166 5B4A02EA 		.ascii	"[J\002\352\305\311\244m\031v\221\3757\276\034v\302\225"
 108      C5C9A46D 
 108      197691FD 
 108      37BE1C76 
 108      C295
 109 0178 56BD1EB5 		.ascii	"V\275\036\265\247\252\344\327\232a#\362jf%J%A-\242\333"
 109      A7AAE4D7 
 109      9A6123F2 
 109      6A66254A 
 109      25412DA2 
 110 018d D1EA58BE 		.ascii	"\321\352X\276\260P)N\315\334\311\317\227\347\037,\026"
 110      B050294E 
 110      CDDCC9CF 
 110      97E71F2C 
 110      16
 111 019e 8B85D26C 		.ascii	"\213\205\322lP(\225\026KA\276m\326\243\240\331\352\004"
 111      50289516 
 111      4B41BE6D 
 111      D6A3A0D9 
 111      EA04
 112 01b0 8DD65AB3 		.ascii	"\215\326Z\263\023-g\351\027\220\"\250\343"
 112      132D67E9 
 112      179022A8 
 112      E3
 113              		.text
 114              		.section	.gnu.lto_logfileWrite.part.1.d9e8e1f81841ea60,"",%progbits
 115 0000 789C8D52 		.ascii	"x\234\215R\317k\023Q\020\236\231\267o\233\255\021r("
 115      CF6B1351 
 115      109E99B7 
 115      6F9BAD11 
 115      7228
 116 0012 487B905A 		.ascii	"H{\220Z\360\242\330\"\330\213W\377\205\026\352q\033"
 116      F0A2D822 
 116      D88B57FF 
 116      8516EA71 
 116      1B
 117 0023 D7ED424C 		.ascii	"\327\355BL$\215x\360\320I\315\241\004)\241 \242\255"
 117      248D78F0 
 117      D049CDA1 
 117      0429A120 
 117      A2AD
 118 0035 D02A220A 		.ascii	"\320*\"\012\376@\017^\024\266z\221\202\212\320\036\""
 118      FE400F5E 
 118      14B67A91 
 118      828AD01E 
ARM GAS  /tmp/ccftiQnV.s 			page 9


 118      22
 119 0046 1E72F1A4 		.ascii	"\036r\361\244x\026)\306\231\335$\265Z\260\017v\346\375"
 119      781629C6 
 119      99DD24B5 
 119      5AB00F76 
 119      E6FD
 120 0058 F8BEF9BE 		.ascii	"\370\276\371\276y\373\010\010\376\036\247\345{CiF\027"
 120      79FB0808 
 120      FE1EA7E5 
 120      7B436946 
 120      17
 121 0069 D036DECB 		.ascii	"\3206\336\313\304\"%\231\310l\216\001\367;/\017\003"
 121      C4222599 
 121      C86C8E01 
 121      F73B2F0F 
 121      03
 122 007a 670D3ABA 		.ascii	"g\015:\272[\3158\210:\001\2049K\306\301\271\263\250"
 122      5BCD3888 
 122      3A018439 
 122      4BC6C1B9 
 122      B3A8
 123 008c B5DC1158 		.ascii	"\265\334\021Xc^j}\271\263\21678\256\256\362v\273\215"
 123      635E6A7D 
 123      B9B38E37 
 123      38AEAEF2 
 123      76BB8D
 124 009f 18A1E8E6 		.ascii	"\030\241\350\346\020\362\010S\262\300L\222\010w\033"
 124      10F20853 
 124      B2C04C92 
 124      08771B
 125 00ae 49B9FC94 		.ascii	"I\271\374\224\331&<\023\241!\030\332\241\345R\032\355"
 125      D9263C13 
 125      A12118DA 
 125      A1E5521A 
 125      ED
 126 00bf 497BC6EC 		.ascii	"I{\306\354ui\016\301\221\035\332pJs\376\245\305\215"
 126      75690EC1 
 126      911DDA70 
 126      4A73FEA5 
 126      C58D
 127 00d1 F8F6C6B5 		.ascii	"\370\366\306\265A^\235o\360/1\032\241%8\272\037&/\305"
 127      415E9D6F 
 127      F02F311A 
 127      A12538BA 
 127      1F262FC5 
 128 00e5 CB1B8B87 		.ascii	"\313\033\213\207\270\305]\246Kpb_\0356\342W\365\225"
 128      B8C55DA6 
 128      4B70625F 
 128      1D36E257 
 128      F595
 129 00f7 C1FA2ECD 		.ascii	"\301\372.\315\223\377\323|B\334j\267o>\366<\304\013"
 129      93FFD37C 
 129      42DC6AB7 
 129      6F3EF63C 
 129      C40B
 130 0109 7A9B11F6 		.ascii	"z\233\021\366\031\360\361\001\216\200#\213\214\325 "
 130      19F0F101 
ARM GAS  /tmp/ccftiQnV.s 			page 10


 130      8E80238B 
 130      8CD520
 131 0118 400B3591 		.ascii	"@\0135\221\030NO|\274\237\304\265$\336M\342=\211\240"
 131      184E4F7C 
 131      BC9FC4B5 
 131      24DE4DE2 
 131      3D89A0
 132 012b 6A322624 		.ascii	"j2&$\352o\234@\253\331L\"%\371\035\314\177\372\361\260"
 132      EA6F9C40 
 132      ABD94C22 
 132      25F91DCC 
 132      7FFAF1B0 
 133 013f 493E3E92 		.ascii	"I>>\222\223\020\3518\034\023\301e\270Ue\316E\350\205"
 133      9310E938 
 133      1C13C165 
 133      B85565CE 
 133      45E885
 134 0152 88EAB23F 		.ascii	"\210\352\262?\3616\335\353\362\003\324\342\241.\311"
 134      F136DDEB 
 134      F203D4E2 
 134      A12EC9
 135 0161 5C819FBC 		.ascii	"\\\201\237\274\240\360\003yL!R)\302,\300[\250}[o\326"
 135      A0F00379 
 135      4C215229 
 135      C22CC05B 
 135      A87D5B6F 
 136 0176 B33DA816 		.ascii	"\263=\250\026s\377\354w\022\015l\216\251\221\357W_\\"
 136      73FFEC77 
 136      120D6C8E 
 136      A991EF57 
 136      5F5C
 137 0188 EFD57404 		.ascii	"\357\325t\004\333\0058\035\253\257\277v|\246\335\236"
 137      DB05381D 
 137      ABAFBF76 
 137      7CA6DD9E 
 138 0198 82E7BCA0 		.ascii	"\202\347\274\240\267*\240\217\362RUU\347\320\004\253"
 138      B72AA08F 
 138      F2525555 
 138      E7D004AB 
 139 01a8 32B241DB 		.ascii	"2\262A\333[\003R\313|\336\232\321\336Q\013\351\243:"
 139      5B0352CB 
 139      7CDE9AD1 
 139      DE510BE9 
 139      A33A
 140 01ba 78CEAFF8 		.ascii	"x\316\257\370\205R\030\006\345\321<x\245\213A\361L\241"
 140      85521806 
 140      E5D13C78 
 140      A58B41F1 
 140      4CA1
 141 01cc 341BB885 		.ascii	"4\033\270\205\240\030Vf\314\364\245\363}\227\313Q\245"
 141      A0185666 
 141      CCF4A5F3 
 141      7D97CB51 
 141      A5
 142 01dd 12144D39 		.ascii	"\022\024M9\230\365:\363\321\361\337|\272\270R"
 142      98F53AF3 
 142      D1F1DF7C 
ARM GAS  /tmp/ccftiQnV.s 			page 11


 142      BAB852
 143              		.text
 144              		.section	.gnu.lto_dataLoggerInitialize.d9e8e1f81841ea60,"",%progbits
 145 0000 789C8D54 		.ascii	"x\234\215TMh\023Q\020\236y\273\233\315\246i\233\326"
 145      4D681351 
 145      109E79BB 
 145      9BCDA669 
 145      9BD6
 146 0012 FE421B42 		.ascii	"\376B\033B\301\223ZK/\202\010Zi\354\305\037\250\015"
 146      C1935A4B 
 146      2F82085A 
 146      69ECC51F 
 146      A80D
 147 0024 EA31A621 		.ascii	"\3521\246!,4-\244\021\021\205\276\224ZD\017\206V!\324"
 147      2C342DA4 
 147      111185BE 
 147      945A440F 
 147      865621D4 
 148 0038 0A562982 		.ascii	"\012V)\202\036\364\340\241 \322VE\032\212-z\220\012"
 148      1EF4E0A1 
 148      20D25645 
 148      1A8A2D7A 
 148      900A
 149 004a 3DF4E645 		.ascii	"=\364\346EDA\374\3078\263\233M\223P\244\017\362\336"
 149      4441FCC7 
 149      38B39B4D 
 149      9350A40F 
 149      F2DE
 150 005c 9B79F3CD 		.ascii	"\233y\363\315\367\315\274\267\021 \240|\234\247\337"
 150      F7CDBCB7 
 150      1120A07C 
 150      9CA7DF
 151 006b 5D156090 		.ascii	"]\025`\220V\364\000\212\364\012@\312-\204\361M\007\351"
 151      56F4008A 
 151      F40A40CA 
 151      2D84F14D 
 151      07E9
 152 007d 51A65E01 		.ascii	"Q\246^\001H\257\2227U\333T\205\266^A\246\353\311s65"
 152      48AF9237 
 152      55DB5485 
 152      B65E41A6 
 152      EBC97336 
 153 0092 74D92897 		.ascii	"t\331(\227\320\323\012\371\335r\231\375:\032\266\337"
 153      D0D30AF9 
 153      DD7299FD 
 153      3A1AB6DF 
 154 00a2 ED6C0C44 		.ascii	"\355l\014D\336\000\302\210PT\315\245\223g\344\014\262"
 154      DE00C288 
 154      5054CDA5 
 154      9367E40C 
 154      B2
 155 00b3 10D10633 		.ascii	"\020\321\0063RNl\\\236\274\336|\365\316hZ\376\315\345"
 155      524E6C5C 
 155      9EBCDE7C 
 155      F5CE685A 
 155      FECDE5
 156 00c6 D04492EC 		.ascii	"\320D\222\354C\210 \234&\003\003\326\"\324\322\032l"
ARM GAS  /tmp/ccftiQnV.s 			page 12


 156      4388209C 
 156      260303D6 
 156      22D4D21A 
 156      6C
 157 00d7 E4C2EFAF 		.ascii	"\344\302\357\257s(\307e\352s.Wm\242\"\240i\023\350\266"
 157      7328C765 
 157      EA732E57 
 157      6DA222A0 
 157      6913E8B6 
 158 00eb 81580A7C 		.ascii	"\201X\012|$\0266r\271?\263\351=\215\010q\3462QU1\216"
 158      24163672 
 158      B93FB3E9 
 158      3D8D0871 
 158      E6325155 
 159 0101 A8D12474 		.ascii	"\250\321$t\232\024\203&\360\322\201\346\2030\336\303"
 159      9A148326 
 159      F0D281E6 
 159      8330DEC3 
 160 0111 36A8A175 		.ascii	"6\250\241u\206\326Zr\272\352\363\006\015\015\306\244"
 160      86D65A72 
 160      BAEAF306 
 160      0D0DC6A4 
 161 0121 4C07EC20 		.ascii	"L\007\354 `j\032}4s\311!\024\274*K\360\362\303\342\227"
 161      606A1A7D 
 161      3473C921 
 161      14BC2A4B 
 161      F0F2C3E2 
 162 0136 9630CEA2 		.ascii	"\2260\316\242\0061TY\226^\254)\204\012P\227\255\300"
 162      06315459 
 162      965EAC29 
 162      840A5097 
 162      ADC0
 163 0148 D429274E 		.ascii	"\324)'N\3438wi\234\012\327\016*\257atym\245\322\216"
 163      E3387769 
 163      9C0AD70E 
 163      2AAF6174 
 163      796DA5D2 
 164 015d BB055329 		.ascii	"\273\005S))}\324\265\213\360K^\341\235\021G\356\026"
 164      297DD4B5 
 164      8BF04B5E 
 164      E19D1147 
 164      EE16
 165 016f C30D0B17 		.ascii	"\303\015\013\027c:K\305\367\202\012\203\217=\305\331"
 165      633A4BC5 
 165      F7820A83 
 165      8F3DC5D9 
 166 017f FBC8FFD4 		.ascii	"\373\310\377\324PB\350*\220\254\326\331\341\273\340"
 166      5042E82A 
 166      90ACD6D9 
 166      E1BBE0
 167 018e 81A4B18F 		.ascii	"\201\244\261\217t\023\037\001+J\344\235\315\3678\306"
 167      74131F01 
 167      2B4AE49D 
 167      CDF738C6 
 168 019e BCAB30B6 		.ascii	"\274\2530\2661?\201\016\217\267 \313\033At\302L\254"
 168      313F810E 
 168      8FB720CB 
ARM GAS  /tmp/ccftiQnV.s 			page 13


 168      1B4174C2 
 168      4CAC
 169 01b0 04208AEC 		.ascii	"\004 \212\354\343\212r\006mk\006\007\352\265p\313\231"
 169      E38A7206 
 169      6D6B0607 
 169      EAB570CB 
 169      99
 170 01c1 B70DE540 		.ascii	"\267\015\345@\317\326@\221\007\"K\033\337\310v:\312"
 170      CFD64091 
 170      07224B1B 
 170      DFC8763A 
 170      CA
 171 01d2 7C056555 		.ascii	"|\005eU\221B\224\227\002\031]\215t\323>\356\332\330"
 171      91429497 
 171      02195D8D 
 171      74D33EEE 
 171      DAD8
 172 01e4 C7C59BAD 		.ascii	"\307\305\233\255\005\014\237)\233={\017H\255T\221Se"
 172      050C9F29 
 172      9B3D7B0F 
 172      48AD5491 
 172      5365
 173 01f6 E4C2CF4B 		.ascii	"\344\302\317K&\326\370\241\345\266\314\0342\261\326"
 173      26D6F8A1 
 173      E5B6CC1C 
 173      32B1D6
 174 0205 7A216B0A 		.ascii	"z!k\012_\234\016/\004\3674\233\231\254v\222\325l\347"
 174      5F9C0E2F 
 174      04F7349B 
 174      99AC7692 
 174      D56CE7
 175 0218 EEAC723F 		.ascii	"\356\254r?)\016\2466\306\252V\301e;`\023\271#\222\027"
 175      290EA636 
 175      C6AA56C1 
 175      653B6013 
 175      B9239217 
 176 022c 46896D39 		.ascii	"F\211m9r\236\262\324\371\301o\313\341gka(\213\211\015"
 176      729EB2D4 
 176      F9C16FCB 
 176      E1676B61 
 176      288B890D 
 177 0240 CE9372C3 		.ascii	"\316\223r\303\322\001V6\367c\262\265\274\245\215[\267"
 177      D2015636 
 177      F763B2B5 
 177      BCA58D5B 
 177      B7
 178 0251 D4E6614F 		.ascii	"\324\346aO#\332\002\263\231wU\216\304\372\355\225\265"
 178      23DA02B3 
 178      9977558E 
 178      C4FAED95 
 178      B5
 179 0262 0ADAFF6A 		.ascii	"\012\332\377j\250\317\327\360\214 M~8n\327\320\354\324"
 179      A8CFD7F0 
 179      8C204D7E 
 179      386ED7D0 
 179      ECD4
 180 0274 50548061 		.ascii	"PT\200a}do\350\257\206q\302\276\026\301TD\251L\337\267"
ARM GAS  /tmp/ccftiQnV.s 			page 14


 180      7D646FE8 
 180      AF8671C2 
 180      BE16C154 
 180      44A94CDF 
 181 0289 EE53CD39 		.ascii	"\356S\3159\003G\364\365,\346\217\335\323\017\235\255"
 181      0347F4F5 
 181      2CE68FDD 
 181      D30F9DAD 
 182 0299 B8A1F337 		.ascii	"\270\241\3637\200\234\215\223T\366\207\223\341\201\241"
 182      809C8D93 
 182      54F68793 
 182      E181A1
 183 02a8 582C9A68 		.ascii	"X,\232h\217\200\336\035<\034\352i\357P\242\211\004\302"
 183      8F80DE1D 
 183      3C1CEA69 
 183      EF50A289 
 183      04C2
 184 02ba DEEEAEBE 		.ascii	"\336\356\256\276\256\243'zz\202\275\373\003\301Db(\021"
 184      AEA3277A 
 184      7A82BDFB 
 184      03C14462 
 184      2811
 185 02cc 3836746E 		.ascii	"86tn0i\016\306\002G\314\201\350\360\205\341d4\276;\330"
 185      30690EC6 
 185      0247CC81 
 185      E8F085E1 
 185      6434BE3B 
 186 02e1 DBBBB3B3 		.ascii	"\333\273\263\263\243\337\003\201\342\370\356B\336\300"
 186      A3DF0381 
 186      E2F8EE42 
 186      DEC0
 187 02ef C9643891 		.ascii	"\311d8\221\214R\300?\177\256<<"
 187      8C52C03F 
 187      7FAE3C3C 
 188              		.text
 189              		.section	.gnu.lto_dataLoggerStop.d9e8e1f81841ea60,"",%progbits
 190 0000 789C6550 		.ascii	"x\234eP\277KBQ\024\376\316\325\227fi\2169\024\217\326"
 190      BF4B4251 
 190      14FECED5 
 190      9766698E 
 190      39148FD6 
 191 0014 40684AA2 		.ascii	"@hJ\242!Cq\011\202R\250\361\365\224\307\203D\011\267"
 191      21437109 
 191      8252A8F1 
 191      F594C783 
 191      4409B7
 192 0027 06AF5211 		.ascii	"\006\257R\021\015\362h\222$H\332\242hm\011Z\033*\332"
 192      0DF26892 
 192      2448DAA2 
 192      686D095A 
 192      1B2ADA
 193 003a 0297F70F 		.ascii	"\002\227\367\017D{C\257{\336\263\242:p\357w\356\345"
 193      447B43AF 
 193      7BDEB3A2 
 193      3A70EF77 
 193      EEE5
 194 004c FB713802 		.ascii	"\373q8\002\002\177+\245N\207\200\214B\012\201\204\363"
ARM GAS  /tmp/ccftiQnV.s 			page 15


 194      027F2BA5 
 194      4E87808C 
 194      420A8184 
 194      F3
 195 005d 08B4A282 		.ascii	"\010\264\242\202\210\033\020\232\202\232\233\304T\232"
 195      881B109A 
 195      829A9BC4 
 195      549A
 196 006b 415FCA63 		.ascii	"A_\312cw\177\320I\035\235\265\035\371\341yd\2232M\022"
 196      777FD049 
 196      1D9DB51D 
 196      F9E17964 
 196      93324D12 
 197 007f 4CC2867A 		.ascii	"L\302\206z\220\356\203\010\377N\271\026w\256\347]^9"
 197      90EE8308 
 197      FF4EB916 
 197      77AEE75D 
 197      5E39
 198 0091 8B110183 		.ascii	"\213\021\001\203\372\312J\243\252\357\252aOJG\007;\250"
 198      FACA4AA3 
 198      AAEFAA61 
 198      4F4A4707 
 198      3BA8
 199 00a3 2AAA9B93 		.ascii	"*\252\233\223K$\030C\017h\337w\007\011\203\316I\203"
 199      4B241843 
 199      0F68DF77 
 199      070983CE 
 199      4983
 200 00b5 45A28793 		.ascii	"E\242\207\223\226\224I\025\273\213wy\310]\250J,\345"
 200      96944915 
 200      BB8B7779 
 200      C85DA84A 
 200      2CE5
 201 00c7 DCD030EF 		.ascii	"\334\3200\357\011Z\240\300\017-l\3724\260\013\177v\245"
 201      095AA0C0 
 201      0F2D6CFA 
 201      34B00B7F 
 201      76A5
 202 00d9 BC55126D 		.ascii	"\274U\022m\032\223\247\262\273d\323\010\206\032\233"
 202      1A93A7B2 
 202      BB64D308 
 202      861A9B
 203 00e8 226C71E0 		.ascii	"\"lq\340\276f\376\271DM\012\226\310q\243\001\304\002"
 203      BE66FEB9 
 203      444D0A96 
 203      C871A301 
 203      C402
 204 00fa 1863E538 		.ascii	"\030c\3458\240F\276y\351M\005\322Y\\HU\3636\305\325"
 204      A046BE79 
 204      E94D05D2 
 204      595C4855 
 204      F336C5D5 
 205 010e E88A95B0 		.ascii	"\350\212\225\260Hc\366\204\357\262\025\214\344\353\343"
 205      4863F684 
 205      EFB2158C 
 205      E4EBE3
 206 011d DC3CA3E5 		.ascii	"\334<\243\345\276\305\002-\177&\277VXT\323\253\205p"
ARM GAS  /tmp/ccftiQnV.s 			page 16


 206      BEC5022D 
 206      7F26BF56 
 206      5854D3AB 
 206      8570
 207 012f 78BC6C34 		.ascii	"x\274l4\214\355\232eUv\322&\"\271\374r\251\220\236\323"
 207      8CED9A65 
 207      5576D226 
 207      22B9FC72 
 207      A9909ED3 
 208 0143 73D96276 		.ascii	"s\331bve\265P\310\257-\350\271o\206\276\336\250\325"
 208      65B550C8 
 208      AF2DE8B9 
 208      6F86BEDE 
 208      A8D5
 209 0155 EB95720C 		.ascii	"\353\225r\014\237-Sl#"
 209      9F2D536C 
 209      23
 210              		.text
 211              		.section	.gnu.lto_dataLoggerFileCount.d9e8e1f81841ea60,"",%progbits
 212 0000 789C8554 		.ascii	"x\234\205T\335K\024Q\024?\347\316\316\247\273\356\230"
 212      DD4B1451 
 212      143FE7CE 
 212      CEA7BBEE 
 212      98
 213 0011 60061525 		.ascii	"`\006\025%\364d\331\203\371\330k\177ABB/\333\252\303"
 213      F464D983 
 213      F9D86B7F 
 213      4142422F 
 213      DBAAC3
 214 0024 40299842 		.ascii	"@)\230B\345\203w\375\210}\260\332\244P\214@\221\220"
 214      E58377FD 
 214      887DB0DA 
 214      A4508C40 
 214      9190
 215 0036 4AB030E8 		.ascii	"J\2600\350\305\207\331\210-\011\213 \002\301\207\205"
 215      C587D988 
 215      2D098B20 
 215      02C18785 
 216 0046 2209237A 		.ascii	"\"\011#z\252\010i;\367\336\231q3\241\201\271w\316\357"
 216      AA08693B 
 216      F7DE9971 
 216      33A181B9 
 216      77CEEF
 217 0059 9EDFEF7C 		.ascii	"\236\337\357|\334\263\313\200\301\316g\200\336\263\011"
 217      DCB3CB80 
 217      C1CE6780 
 217      DEB309
 218 0068 8066DAD1 		.ascii	"\200f\332\321\001d\205\327\0009\2131\355\335q\340\216"
 218      016485D7 
 218      00398B31 
 218      EDDD71E0 
 218      8E
 219 0079 BD7C1078 		.ascii	"\275|\020xRCS\300\230`\326\002#T\377\370\012\010\326"
 219      524353C0 
 219      9860D602 
 219      2354FFF8 
 219      0A08D6
ARM GAS  /tmp/ccftiQnV.s 			page 17


 220 008c 43D350A6 		.ascii	"C\323P\246\241\274\212\226\311\022\022q\344q\322B[\211"
 220      A1BC8A96 
 220      C9121271 
 220      E471D242 
 220      5B89
 221 009e DA88E203 		.ascii	"\332\210\342\003\020\206\230\226\320\015\223\220\241"
 221      10869896 
 221      D00D9390 
 221      A1
 222 00ab 0E1469E8 		.ascii	"\016\024i\350M0\313y\241<\366\351\033\233\272\025\014"
 222      4D30CB79 
 222      A13CF6E9 
 222      1B9BBA15 
 222      0C
 223 00bc CFF0AD4A 		.ascii	"\317\360\255J\005\321GJ\331E\310\"\234!\003]\271\261"
 223      05D1474A 
 223      D945C822 
 223      9C21035D 
 223      B9B1
 224 00ce 1D6548EE 		.ascii	"\035eH\356Dp\263t}//\363\002\377MT\0375\006\373\266"
 224      4470B374 
 224      7D2F2FF3 
 224      02FF4D54 
 224      1F3506FB 
 225 00e3 999662E2 		.ascii	"\231\226b\342\277\314\240\020L\234*\344\362\274R\031"
 225      BFCCA010 
 225      4C9C2AE4 
 225      F2BC5219 
 226 00f3 F2A94438 		.ascii	"\362\251D8\260\315\012\324\316\032w\245\335.\215#\237"
 226      B0CD0AD4 
 226      CE1A77A5 
 226      DD2E8D23 
 226      9F
 227 0104 198E02EA 		.ascii	"\031\216\002\352\014\016oS\313!u\377\256\271N^\275\321"
 227      0C0E6F53 
 227      CB2175FF 
 227      AEB94E5E 
 227      BDD1
 228 0116 C8677211 		.ascii	"\310gr\021\325`p\344\177U.\262\240\\\251l-\026\336c"
 228      D56070E4 
 228      7F552EB2 
 228      A05CA96C 
 228      2D16DE63 
 229 012a 034206EF 		.ascii	"\003B\006\357c\0235\207\3524\361\002\202M\310\034!\016"
 229      63133587 
 229      EA34F102 
 229      824DC81C 
 229      210E
 230 013c EDB3B427 		.ascii	"\355\263\264'C;E\036f--V\232\026\333\015\211u\304\301"
 230      433B451E 
 230      662D2D56 
 230      9A16DB0D 
 230      8975C4C1 
 231 0150 FAD010FD 		.ascii	"\372\320\020\375\207Qj\377!\305\311\340=\271\316\313"
 231      87516AFF 
 231      21C5C9E0 
 231      3DB9CECB 
ARM GAS  /tmp/ccftiQnV.s 			page 18


 232 0160 55796465 		.ascii	"Uyde\347N\323:U\003\355\310h\323\336\300X\371\332\234"
 232      E74ED33A 
 232      5503EDC8 
 232      68D3DEC0 
 232      58F9DA9C 
 233 0174 91C187A8 		.ascii	"\221\301\207\250\203\207\366 \374\342y\356\372\350d"
 233      8387F620 
 233      FCE279EE 
 233      FAE864
 234 0183 51355A20 		.ascii	"Q5Z \364t\370X\023\311\011_r6}L\002\274\204\347\033"
 234      F474F858 
 234      13C9095F 
 234      72367D4C 
 234      02BC84E7 
 235 0198 C5BB252D 		.ascii	"\305\273%-\226\020\205k\325U\267\223\371\331 h\015\352"
 235      9610856B 
 235      D555B793 
 235      F9D92068 
 235      0DEA
 236 01aa C5A101C0 		.ascii	"\305\241\001\300\226\037_\022\007\011\240)\223IL\317"
 236      961F5F12 
 236      0709A029 
 236      93494CCF 
 237 01ba 39914232 		.ascii	"9\221B2N\"\225EV\235\304\345\235I\014\302\025\037k\243"
 237      4E229545 
 237      569DC4E5 
 237      9D490CC2 
 237      151F6BA3 
 238 01ce 6225E463 		.ascii	"b%\344cZ$5\372\245\370\264\224\216%wIJ\207\342\012h"
 238      5A2435FA 
 238      A5F8B494 
 238      8E257749 
 238      4A87E20A 
 239 01e3 AB30BCFE 		.ascii	"\2530\274\376\250!\362K\035\203\243>\272\315\360@\204"
 239      A821F24B 
 239      1D83A33E 
 239      BACDF040 
 239      84
 240 01f4 9B24529D 		.ascii	"\233$R\235\022?\027N\235\320\261\252d\210\376u\344;"
 240      123F174E 
 240      9DD0B1AA 
 240      6488FE75 
 240      E43B
 241 0206 8BF8B524 		.ascii	"\213\370\265$!\301\315\270\037iBU\227r\2031&d\354\277"
 241      21C1CDB8 
 241      1F694255 
 241      97728331 
 241      2664ECBF 
 242 021a D33160FE 		.ascii	"\3231`\376\205Hg$?\362c\2749\362t=D\3313\214\035M\240"
 242      85486724 
 242      3FF263BC 
 242      39F2743D 
 242      44D9338C 
 243 0231 5F20CAC0 		.ascii	"_ \312\300\037\306[\"G\307\023\367Euo\344N\306\230`"
 243      1FC65B22 
 243      47C713F7 
 243      45756FE4 
ARM GAS  /tmp/ccftiQnV.s 			page 19


 243      4EC69860 
 244 0245 56055903 		.ascii	"V\005Y\003\364\260^\243\3055\326\227\026P\250Y\342j"
 244      F4B05EA3 
 244      C535D697 
 244      1650A859 
 244      E26A
 245 0257 486CE5E7 		.ascii	"Hl\345\347F\020\226q\007\246sT}+E\365\260Nh\354\221"
 245      46109671 
 245      07A67354 
 245      7D2B45F5 
 245      B04E68EC 
 246 026c 742F9C08 		.ascii	"t/\234\010b\331bvV\341\331fHQM:\001K<O\356\011\331\230"
 246      62D96276 
 246      56E1D966 
 246      48514D3A 
 246      014B3C4F 
 247 0284 AAC3F9AA 		.ascii	"\252\303\371\252C\272\"xK\377$B\217\251\254Xx;\326h"
 247      43BA2278 
 247      4BFF2442 
 247      8FA9AC58 
 247      783BD668 
 248 0298 1BCD0F7B 		.ascii	"\033\315\017{\322&\246\024)\2048Ouf\3723\347{=\257\253"
 248      D226A614 
 248      2984384F 
 248      7566FA33 
 248      E77B3DAF 
 249 02ad AF250B56 		.ascii	"\257%\013Vw\266w\240\247\277\245U\353\353\272\250u\367"
 249      77B677A0 
 249      A7BFA555 
 249      EBEBBAA8 
 249      75F7
 250 02bf F46A9D7E 		.ascii	"\364j\235~\237\241\300?\345\315\027\333"
 250      9FA1C03F 
 250      E5CD17DB 
 251              		.text
 252              		.section	.gnu.lto_logfileNew.d9e8e1f81841ea60,"",%progbits
 253 0000 789C9D54 		.ascii	"x\234\235TKhSA\024\275w\336/I\033\033\233\030+Hx\024"
 253      4B685341 
 253      14BD77DE 
 253      2F491B1B 
 253      9B182B48 
 254 0016 B2B1DAAA 		.ascii	"\262\261\332\252\270\022\004[\033\272)\012\245\005]"
 254      B812045B 
 254      1BBA290A 
 254      A5055D
 255 0025 C6343E1E 		.ascii	"\3064>\036\264\006b\321\205\213Nl\020\027\"E\004\243"
 255      B40662D1 
 255      858B4E6C 
 255      10172245 
 255      04A3
 256 0037 22588A1B 		.ascii	"\"X\212\033\021t#\006l1n\374\025\255B\027*.\272)\270"
 256      11742306 
 256      6C316EFC 
 256      15AD4217 
 256      2A2EBA29 
 257 004c 9056ECA2 		.ascii	"\220V\354\242Q\204xo\336\247\366\003\212\003\231\231"
 257      5184786F 
ARM GAS  /tmp/ccftiQnV.s 			page 20


 257      DEA7F603 
 257      8A039999 
 258 005c 3773CEBD 		.ascii	"7s\316\275\367\334w^\004\010X?\372\351wV\005\310\321"
 258      F7DC775E 
 258      0408583F 
 258      FAE97756 
 258      05C8D1
 259 006f 8A014031 		.ascii	"\212\001@1\376\026\240\020\020B\231J\200lT\347:@\206"
 259      FE16A010 
 259      1042994A 
 259      806C54E7 
 259      3A4086
 260 0082 1434F818 		.ascii	"\0244\370\030U\241]\217\320\263\376\343\020\335i\316"
 260      55A15D8F 
 260      D0B3FEE3 
 260      10DD69CE 
 261 0092 6921A07B 		.ascii	"i!\240{\033\003\2217\2000*\024U\323\015\034=\201\234"
 261      1B039137 
 261      80302A14 
 261      55D30D1C 
 261      3D819C
 262 00a5 45B4C284 		.ascii	"E\264\302\204\224W\347\027\026\277\340\215k\225\342"
 262      9457E717 
 262      16BFE08D 
 262      6B95E2
 263 00b4 1DF9AB56 		.ascii	"\035\371\253VC\264\221*\212 d\020\216\323\003\232\365"
 263      43B4912A 
 263      8A206410 
 263      8ED3039A 
 263      F5
 264 00c5 45A86B4B 		.ascii	"E\250kKt\270\225\352\363\206\207\362\222\254\325FmT"
 264      74B895EA 
 264      F38687F2 
 264      92ACD546 
 264      6D54
 265 00d7 04B4ACD2 		.ascii	"\004\264\254\322\002\016\015\327\322\036\210\312|\255"
 265      020E0DD7 
 265      D21E88CA 
 265      7CAD
 266 00e5 76FF71F1 		.ascii	"v\377q\361u\202\2606\025\317\223\012i\234\300V\320p"
 266      7582B036 
 266      15CF930A 
 266      699CC056 
 266      D070
 267 00f7 18C1A009 		.ascii	"\030\301\240\011\2034\211\020\335ia\332)\315\004\230"
 267      83348910 
 267      DD6961DA 
 267      29CD0498 
 268 0107 2440D405 		.ascii	"$@\324\005\306\350F\2173\225bjP\224r\334t\020\300\005"
 268      C6E8468F 
 268      3395626A 
 268      509472DC 
 268      7410C005 
 269 011b 700B6966 		.ascii	"p\013if\331\003(xU\336\300\205WU\022\232\306\273\250"
 269      D9032878 
 269      55DEC085 
 269      5755129A 
ARM GAS  /tmp/ccftiQnV.s 			page 21


 269      C6BBA8
 270 012e 8185EA2D 		.ascii	"\201\205\352-\270Y\2202Bj\317\303O\222@;c\270\036\217"
 270      B8599032 
 270      426ACFC3 
 270      4F92403B 
 270      63B81E8F 
 271 0142 EB36DC7A 		.ascii	"\3536\334zgAw\030\260\012\013d\320QEQ\370\260$\3454"
 271      67417718 
 271      B00A0B64 
 271      D0514551 
 271      F8B024E5 
 272 0157 518209D8 		.ascii	"Q\202\011\330y[\226\016\333\030\002\227c\241fc\003\000"
 272      795B960E 
 272      DB180297 
 272      63A16663 
 272      0300
 273 0169 252F9797 		.ascii	"%/\227\227\252n\3626\270'i\354#qT\0041\033-48i\270\036"
 273      AA6EF236 
 273      B82769EC 
 273      23715404 
 273      311B2D34 
 274 0181 F5A4DB32 		.ascii	"\365\244\3332>\341\274\314\376\364a\251\"\274\322Cm"
 274      3EE1BCCC 
 274      FEF461A9 
 274      22BCD243 
 274      6D
 275 0192 B0CBE76E 		.ascii	"\260\313\347n\2610\310\310&\227\353\365\373%\024\277"
 275      B130C8C8 
 275      2697EBF5 
 275      FB2514BF 
 276 01a2 169A7C8A 		.ascii	"\026\232|\212\037\314\033\003\250\300TB\231\205\261"
 276      1FCC1B03 
 276      A8C05442 
 276      9985B1
 277 01b1 800712BE 		.ascii	"\200\007\022\276\302H\006\035S\332\270\325\203\2530"
 277      C248061D 
 277      53DAB8D5 
 277      83AB30
 278 01c0 D7C15D9C 		.ascii	"\327\301]\234\251~\337(\244ys!\302mS\330iAi\371\235"
 278      A97EDF28 
 278      A4797321 
 278      C26D53D8 
 278      694169F9 
 279 01d5 58CF8C6E 		.ascii	"X\317\214n\316T\374\026D\335\026\314\224\2277\346\215"
 279      CE54FC16 
 279      44DD16CC 
 279      949737E6 
 279      8D
 280 01e6 6DCE56DD 		.ascii	"m\316V\335\274\032\277\300\213\363\263\223\272\247\261"
 280      BC1ABFC0 
 280      8BF3B393 
 280      BAA7B1
 281 01f5 D9D7B82D 		.ascii	"\331\327\270-\343&\241\362\010\311\3648\033n\273\323"
 281      E326A1F2 
 281      08C9F438 
 281      1B6EBBD3 
 282 0205 BB678F5E 		.ascii	"\273g\217^(>\211/\225\265\335\323`)X7Ui\345\233o\252"
ARM GAS  /tmp/ccftiQnV.s 			page 22


 282      283E892F 
 282      95B5DDD3 
 282      60295837 
 282      5569E59B 
 283 021b E8BF998A 		.ascii	"\350\277\231\212h\213~\360\030\305\377\253\317\242\256"
 283      688B7EF0 
 283      18C5FFAB 
 283      CFA2AE
 284 022a CF9E5294 		.ascii	"\317\236R\224\226\004t9>\333\261\352\263\230\347\263"
 284      96047439 
 284      3EDBB1EA 
 284      B398E7B3 
 285 023a C5B1952B 		.ascii	"\305\261\225+\276\332x=\266S\260\016\013I.\270\\]\371"
 285      BEDA783D 
 285      B653B00E 
 285      0B492EB8 
 285      5C5DF9
 286 024d 1F23A2AF 		.ascii	"\037#\242\257\334\250\177O\357\351\237\205\023\327\317"
 286      DCA87F4F 
 286      EFE99F85 
 286      13D7CF
 287 025c 3F02927D 		.ascii	"?\002\222}\024\232\342\332\347'-L \315\372\345\351\030"
 287      149AE2DA 
 287      E7272D4C 
 287      20CDFAE5 
 287      E918
 288 026e 7F88C804 		.ascii	"\177\210\310\004\266Bx0=\222\036\312YV6\337\236\001"
 288      B6427830 
 288      3D921ECA 
 288      595636DF 
 288      9E01
 289 0280 A33BD535 		.ascii	"\243;\3255\320\323~@\311g\317$\273;\373;{\217\365\364"
 289      D0D37E40 
 289      C967CF24 
 289      BB3BFB3B 
 289      7B8FF5F4 
 290 0294 A4FA0E9A 		.ascii	"\244\372\016\232G\362\331\364\210}\3322\217f\317\231"
 290      47F2D9F4 
 290      887DDA32 
 290      8F66CF99 
 291 02a4 BD39EB94 		.ascii	"\2759\353\224=\2245\223gB\260\347OT*\237\317\345\315"
 291      3D943593 
 291      6742B0E7 
 291      4F542A9F 
 291      CFE5CD
 292 02b7 8C877571 		.ascii	"\214\207uq\273\315T__r\357\376\301\020\374\006\0338"
 292      BBCD545F 
 292      5F72EFFE 
 292      C110FC06 
 292      1B38
 293 02c9 258D     		.ascii	"%\215"
 294              		.text
 295              		.section	.gnu.lto_logfileSize.d9e8e1f81841ea60,"",%progbits
 296 0000 789C6362 		.ascii	"x\234cb`b@\007\222@\034\015\304\374@\314\310\314\300"
 296      60624007 
 296      92401C0D 
 296      C4FC40CC 
ARM GAS  /tmp/ccftiQnV.s 			page 23


 296      C8CCC0
 297 0013 C834E11C 		.ascii	"\3104\341\034\003C#\007\023##\210\301\300\310P\317\304"
 297      03432307 
 297      13232388 
 297      C1C0C850 
 297      CFC4
 298 0025 581FC908 		.ascii	"X\037\311\010V\273\236\351\300\203\377\377\327\335;"
 298      56BB9EE9 
 298      C083FFFF 
 298      D7DD3B
 299 0034 BEE01723 		.ascii	"\276\340\027##\310(V\206\226\206\206\011\012\014\014"
 299      23C82856 
 299      86968686 
 299      090A0C0C 
 300 0044 C9600521 		.ascii	"\311`\005!@\022\244+\024(\011\244\231/24>\370\271\230"
 300      4012A42B 
 300      142809A4 
 300      992F3234 
 300      3EF8B998 
 301 0058 31917121 		.ascii	"1\221q!#+C\004c&#\334\326\020FF\220\012\220\031\274"
 301      232B4304 
 301      632623DC 
 301      D6104646 
 301      900A9019 
 302 006d 29892589 		.ascii	")\211%\2119\371\351\351\251Ez\311\014\000P\361\037\206"
 302      39F9E9E9 
 302      A9457AC9 
 302      0C0050F1 
 302      1F86
 303              		.text
 304              		.section	.gnu.lto_logfileWriteCsv.d9e8e1f81841ea60,"",%progbits
 305 0000 789C6362 		.ascii	"x\234cb`b@\007\222@\234\005\304\374@\314\310\314\300"
 305      60624007 
 305      92409C05 
 305      C4FC40CC 
 305      C8CCC0
 306 0013 C834E11C 		.ascii	"\3104\341\034\003C#\007\023##\210\301\300\310P\317\304"
 306      03432307 
 306      13232388 
 306      C1C0C850 
 306      CFC4
 307 0025 581FC908 		.ascii	"X\037\311\010V\273\236\351\300\203\377\377\327M9\275"
 307      56BB9EE9 
 307      C083FFFF 
 307      D74D39BD 
 308 0035 E03D2313 		.ascii	"\340=#\023+\023c.#\0033\220`d\001\022 \223Y\031Z\032"
 308      2B13632E 
 308      23033390 
 308      60640112 
 308      20935919 
 309 004b 1A262830 		.ascii	"\032&(00$\203\325\207\000I\220!\241@I \315|\221\241"
 309      302483D5 
 309      87004990 
 309      21A14049 
 309      20CD7C91 
 310 0060 F1C1BBA5 		.ascii	"\361\301\273\245\214\211\214\013\031Y\031\"\0303\031"
 310      8C898C0B 
ARM GAS  /tmp/ccftiQnV.s 			page 24


 310      19591922 
 310      183319
 311 006f E18E0861 		.ascii	"\341\216\010ad\004\251\000\231\301\233\222X\222\230"
 311      6404A900 
 311      99C19B92 
 311      589298
 312 007e 939F9E9E 		.ascii	"\223\237\236\236Z\244\227\314\000\000\177M \230"
 312      5AA497CC 
 312      00007F4D 
 312      2098
 313              		.text
 314              		.section	.gnu.lto_logfileGetWrCount.d9e8e1f81841ea60,"",%progbits
 315 0000 789C6362 		.ascii	"x\234cb`b@\007\222@<\003\210\371\201\230\221\231\201"
 315      60624007 
 315      92403C03 
 315      88F98198 
 315      919981
 316 0013 9169C239 		.ascii	"\221i\3029\006\206F\016&FF\020\203\201\221\241\236\211"
 316      0686460E 
 316      26464610 
 316      838191A1 
 316      9E89
 317 0025 B13E9211 		.ascii	"\261>\222\021\254v=\323\201\007\377\377\257\373wzA'"
 317      AC763DD3 
 317      8107FFFF 
 317      AFFB777A 
 317      4127
 318 0037 23330B13 		.ascii	"#3\013\023c.#\0033C&X\216\225\241\245\241a\202\002\003"
 318      632E2303 
 318      33432658 
 318      8E95A1A5 
 318      A1618202 
 319 004c 4332981B 		.ascii	"C2\230\033\002$A\372C\031\231@4\363Y\206\246[3\036i"
 319      022441FA 
 319      43199940 
 319      34F35986 
 319      A65B331E 
 320 0061 26322E64 		.ascii	"&2.ddeHgd\326fX\325\000\004\366@\315\263\031f1f22\246"
 320      64654867 
 320      64D66658 
 320      D50004F6 
 320      40CDB319 
 321 007b 33324500 		.ascii	"32E\000i\210\003\223\030a\316\273\310\320x\200\025\256"
 321      69880393 
 321      1861CEBB 
 321      C8D07880 
 321      15AE
 322 008d 0D2216C2 		.ascii	"\015\"\026\302\310\0102\024\244\2247%\261$1'?==\265"
 322      C8083214 
 322      A4943725 
 322      B1243127 
 322      3F3D3DB5 
 323 00a1 482F9901 		.ascii	"H/\231\001\000\277\352*9"
 323      00BFEA2A 
 323      39
 324              		.text
 325              		.section	.gnu.lto_logfileClose.d9e8e1f81841ea60,"",%progbits
ARM GAS  /tmp/ccftiQnV.s 			page 25


 326 0000 789C6D50 		.ascii	"x\234mP\277K\0031\030}/\311\331kQ\352\340\340\246\263"
 326      BF4B0331 
 326      187D2FC9 
 326      D96B51EA 
 326      E0E0A6B3 
 327 0014 0597FE2B 		.ascii	"\005\227\376+\026u\254U\216\003E\0207\207K\245\203\203"
 327      1675AC55 
 327      8E034510 
 327      37874BA5 
 327      8383
 328 0026 43374517 		.ascii	"C7E\027\035uPp\352X\241\203P\254\270Y''oq\023\007]\352"
 328      1D755070 
 328      EA58A183 
 328      50ACB859 
 328      27276F71 
 329 003e 971CAD62 		.ascii	"\227\034\255b\015$\337#\371\336\217|\012\012\177WY\366"
 329      0D24DF23 
 329      F9DE8F7C 
 329      0A0A7F57 
 329      59F6
 330 0050 1181A254 		.ascii	"\021\201\242T\006\240j\366\200z\250\224\266]\300\026"
 330      06A06AF6 
 330      807AA894 
 330      B65DC016 
 331 0060 4C53C34E 		.ascii	"LS\303Nj\232\354\336\220\016\200H\2246LV\351U\256U\373"
 331      6A9AECDE 
 331      900E8048 
 331      94364C56 
 331      E955AE55 
 332 0075 6530B8BA 		.ascii	"e0\270\272\351\235]P\027\210\2300\334\"\002A\314\311"
 332      E99D5D50 
 332      17889830 
 332      DC220241 
 332      CCC9
 333 0087 E18C0334 		.ascii	"\341\214\0034\254m\316\0035OZ\222\323iU\344Q\252\276"
 333      AC6DCE03 
 333      354F5A92 
 333      D36955E4 
 333      51AABE
 334 009a C7FEF3D3 		.ascii	"\307\376\363\323\353'\253<\227 \021\203\022\026\204"
 334      EB27AB3C 
 334      97201183 
 334      121684
 335 00a9 7D8A93BA 		.ascii	"}\212\223\272\265v9\246\216hV\030\323x\3135\016\277"
 335      B57639A6 
 335      8E685618 
 335      D378CB35 
 335      0EBF
 336 00bb F080467B 		.ascii	"\360\200F{n\310\312\355\341\313\036\330\351\230A\215"
 336      6EC8CAED 
 336      E1CB1ED8 
 336      E998418D 
 337 00cb 598B48C5 		.ascii	"Y\213H\305\234\000\356\320I\353\305Q\243\223\312\375"
 337      9C00EED0 
 337      49EBC551 
 337      A393CAFD 
 338 00db 1E4585F2 		.ascii	"\036E\205\362\325\256\017\322:N\373*\353,\341R\354m"
ARM GAS  /tmp/ccftiQnV.s 			page 26


 338      D5AE0FD2 
 338      3A4EFB2A 
 338      EB2CE152 
 338      EC6D
 339 00ed 39662851 		.ascii	"9f(Q8\036#3q7\241\003\216\335Jo\307\330\371\377\331"
 339      381E2333 
 339      7137A103 
 339      8EDD4A6F 
 339      C7D8F9FF 
 340 0102 6AC4CEFF 		.ascii	"j\304\316\377\3440~ \2172o\227\336\033\364A\327$H\277"
 340      E4307E20 
 340      8F326F97 
 340      DE1BF441 
 340      D72448BF 
 341 0116 BDCF7A38 		.ascii	"\275\317z8\030.&\352\360c\306M\224\216\350$\247\326"
 341      182E26EA 
 341      F063C64D 
 341      948EE824 
 341      A7D6
 342 0128 ABBBD5CD 		.ascii	"\253\273\325\315\355(\332\330Y\254\341\033\027{iN"
 342      ED28DAD8 
 342      59ACE11B 
 342      177B694E 
 343              		.text
 344              		.section	.gnu.lto_logfileOpenAppend.d9e8e1f81841ea60,"",%progbits
 345 0000 789C8D52 		.ascii	"x\234\215R=k\024Q\024\275\347}lf'\263\356\032+-\202"
 345      3D6B1451 
 345      14BDE77D 
 345      6C6627B3 
 345      EE1A2B2D 
 346 0015 D8A9A07F 		.ascii	"\330\251\240\177\300\306\377`\300\220j\235\204q@\021"
 346      C0C6FF60 
 346      C0906A9D 
 346      84714011 
 347 0025 A29DC5BE 		.ascii	"\242\235\305\276\325U\254dI\243\250\210!e\212\364\301"
 347      D555AC64 
 347      49A3A888 
 347      21658AF4 
 347      C1
 348 0036 62020A5A 		.ascii	"b\002\012Z$!\215h\252t\"\304\215\330\254\021a\274wv"
 348      24218D68 
 348      AA7422C4 
 348      8DD8AC11 
 348      61BC7776 
 349 004a E699680A 		.ascii	"\346\231h\012\037\314\2753\367\335s\3569\357\215\"E"
 349      1FCCBD33 
 349      F7DD73EE 
 349      39EF8D22 
 349      45
 350 005b 7FAFCBFC 		.ascii	"\177\257\313\374|\345\362\011\316\250\021T\177\203\250"
 350      7CE5F209 
 350      CEA81154 
 350      7F83A8
 351 006a 1B28A557 		.ascii	"\033(\245W'\311\205\366\303Er\221V\346\300\227\201\035"
 351      27C985F6 
 351      C3457291 
 351      56E6C097 
ARM GAS  /tmp/ccftiQnV.s 			page 27


 351      811D
 352 007c 3559405E 		.ascii	"5Y@^\010\324Q\332Xt\246!\2248C\213\316-\354\274\035"
 352      08D451DA 
 352      5874A621 
 352      9438438B 
 352      CE2DECBC 
 353 0091 7CC11397 		.ascii	"|\301\023\227u_\271_y\016\244\340\361-P\014\272\312"
 353      755FB95F 
 353      790EA4E0 
 353      F12D500C 
 353      BACA
 354 00a3 1F088AA4 		.ascii	"\037\010\212\244pX\317\212\312v\362\374\305\260\267"
 354      7058CF8A 
 354      CA76F2FC 
 354      C5B0B7
 355 00b2 7D897BDB 		.ascii	"}\211{\333Xd6\203\233 K)t\215\203\011\312r]*!\007\033"
 355      58643683 
 355      9B204B29 
 355      748D8309 
 355      CA725D2A 
 356 00c9 95958654 		.ascii	"\225\225\206T\232\034j\314d\251\347\\\377\364h\207d"
 356      9A1C6ACC 
 356      64A9E75C 
 356      FFF46887 
 356      64
 357 00da 2CAF2B1C 		.ascii	",\257+\034E\363\024\224d\275N\367\266\177\014\336\253"
 357      45F31494 
 357      64BD4EF7 
 357      B67F0CDE 
 357      AB
 358 00eb 36966029 		.ascii	"6\226`)\201=O\347\230\3439=\353:\347fR\214%0\2423(\324"
 358      813D4FE7 
 358      98E3393D 
 358      EB3AE766 
 358      528C2530 
 359 0103 5DF36A05 		.ascii	"]\363j\005\330\237\250`\265\002f\030\206\177!\025f\223"
 359      D89FA860 
 359      B5026618 
 359      867F2115 
 359      6693
 360 0115 1E66272B 		.ascii	"\036f'+Dp\227~\272G\256\225\242\036\227\035<\235\231"
 360      4470977E 
 360      BA47AE95 
 360      A21E971D 
 360      3C9D99
 361 0128 04194EB0 		.ascii	"\004\031N\260\207q\242w\364\346\363\332\376\206\366"
 361      8771A277 
 361      F4E6F3DA 
 361      FE86F6
 362 0137 20D93C74 		.ascii	" \331<t\\S\320\264:Y\330\370\270\267\357\033\353\336"
 362      5C53D0B4 
 362      3A59D8F8 
 362      B8B7EF1B 
 362      EBDE
 363 0149 C6117A0E 		.ascii	"\306\021z\016Z\370\026V\220\260\200D\245\363N\212\006"
 363      5AF81656 
 363      90B08044 
ARM GAS  /tmp/ccftiQnV.s 			page 28


 363      A5F34E8A 
 363      06
 364 015a D3084C97 		.ascii	"\323\010L\2270\345m<\310NU\250\310\3338\026\227\035"
 364      30E56D3C 
 364      C84E55A8 
 364      C8DB3816 
 364      971D
 365 016c 0C63B614 		.ascii	"\014c\266\024M\321\337\333]\313\037G\276\373\010\375"
 365      4DD1DFDB 
 365      5DCB1F47 
 365      BEFB08FD 
 366 017c 86F6C60B 		.ascii	"\206\366\306\013\375O\277\377\271\206\306\377^\303&"
 366      FD4FBFFF 
 366      B986C6FF 
 366      5EC326
 367 018b F5B2B323 		.ascii	"\365\262\263#\024\221\327\322\212K\325\314\224\342x"
 367      1491D7D2 
 367      8A4BD5CC 
 367      94E278
 368 019a 35CA5657 		.ascii	"5\312VW>\270\277\374\322V\263\232\211\234\377\026\301"
 368      3EB8BFFC 
 368      D256B39A 
 368      899CFF16 
 368      C1
 369 01ab 17A4FB13 		.ascii	"\027\244\373\023\201\317[\275\036\316\262l\275;\274"
 369      81CF5BBD 
 369      1ECEB26C 
 369      BD3BBC
 370 01ba CEC9143F 		.ascii	"\316\311\024?\020\204E\2546f\333w\3327n%\311\334\374"
 370      108445AC 
 370      3666DB77 
 370      DA376E25 
 370      C9DCFC
 371 01cd 8598F4FC 		.ascii	"\205\230\364\374\334\355\337S\003\254\371"
 371      DCEDDF53 
 371      03ACF9
 372              		.text
 373              		.section	.gnu.lto_logfileWrite.d9e8e1f81841ea60,"",%progbits
 374 0000 789C8554 		.ascii	"x\234\205TMh\023A\030\375\276\231\375K\2324I+h\005K"
 374      4D681341 
 374      18FDBE99 
 374      FD4B9A34 
 374      492B6805 
 375 0015 2968C040 		.ascii	")h\300@U\320\203\027\357\2365\240\007\0171\226u\305"
 375      55D08317 
 375      EF9E35A0 
 375      070F3196 
 375      75C5
 376 0027 2AD48007 		.ascii	"*\324\200\007\017\235\266\001\203\210\004\361`-b\213"
 376      0F9DB601 
 376      838804F1 
 376      602D628B 
 377 0037 D4400E7A 		.ascii	"\324@\016z\020Q\244BRP$XKh\021\364\024\274*\036\244"
 377      1051A442 
 377      52502458 
 377      4B6811F4 
 377      14BC2A1E 
ARM GAS  /tmp/ccftiQnV.s 			page 29


 378 004c 2729C6EF 		.ascii	"')\306\357\233\354nS+v 3\373f\2767\357\355\233\331\010"
 378      9BEC6E53 
 378      2B762033 
 378      FB66BE37 
 378      EFED9BD9 
 379 0061 10F0771B 		.ascii	"\020\360w\033\243_\332\000\330O#F\000E\371#\300\244"
 379      A35FDA00 
 379      D84F2346 
 379      0045F923 
 379      C0A4
 380 0073 23842CA5 		.ascii	"#\204,\245AE\015\356cR8\213\203\214\326\016\0212|dj"
 380      41450DEE 
 380      6352388B 
 380      838CD60E 
 380      11327C64 
 381 0088 640AA771 		.ascii	"d\012\247q\230\220\365n\037!K\330\257y\315\371\304k"
 381      9890F56E 
 381      1F214BD8 
 381      AF79CDF9 
 381      C46B
 382 009a 363ABC1D 		.ascii	"6:\274\035:\210<\002\302\204\220\206i\331\016N\234E"
 382      3A883C02 
 382      C2849086 
 382      69D90E4E 
 382      9C45
 383 00ac 9697C330 		.ascii	"\226\227\3030\257T\271\365\266R\2273\367j\3059\265\321"
 383      AF54B9F5 
 383      B6529733 
 383      F76AC539 
 383      B5D1
 384 00be 6E237A48 		.ascii	"n#zHV\223\010y\2043\004pH\017\302\330\352]s\357\326"
 384      56930879 
 384      84330470 
 384      480FC2D8 
 384      EA5D73EF 
 385 00d3 661B7776 		.ascii	"f\033wv\253\226*\253\337D\365P\012\330\273\311t:L\334"
 385      AB962AAB 
 385      DF44F550 
 385      0AD8BBC9 
 385      743A4CDC 
 386 00e7 CEAC956B 		.ascii	"\316\254\225k\017\033\267\007\324\334T\300$\315\301"
 386      0F1BB707 
 386      D4DC54C0 
 386      24CDC1
 387 00f6 9D349F89 		.ascii	"\2354\237\211Z\253\335\376\320,.e\366 xhH\356\014\034"
 387      5AABDDFE 
 387      D02C2E65 
 387      F6207868 
 387      48EE0C1C 
 388 010a 43B0A823 		.ascii	"C\260\250#=\017\315\010\344\3601\016C\224\200\325C\323"
 388      3D0FCD08 
 388      E4F0310E 
 388      439480D5 
 388      43D3
 389 011c 22464F76 		.ascii	"\"FOv\234\236d\302_K\322\014\244\010\314\023\350#\340"
 389      9C9E64C2 
 389      5F4BD20C 
ARM GAS  /tmp/ccftiQnV.s 			page 30


 389      A408CC13 
 389      E823E0
 390 012f F4734712 		.ascii	"\364sG\022&\024)\222\241NY\016\027\250\007vE\3554\365"
 390      26142992 
 390      A14E590E 
 390      17A80776 
 390      45ED34F5 
 391 0143 9C641605 		.ascii	"\234d\026\005\217\362=\024\277\327\0375d\016+h\202\213"
 391      8FF23D14 
 391      BFD71F35 
 391      640E2B68 
 391      828B
 392 0155 065B8E74 		.ascii	"\006[\216t\373\315\242\204RZ\256@\2615\263\220\010\352"
 392      FBCDA284 
 392      525AAE40 
 392      B135B390 
 392      08EA
 393 0167 9C1BF04B 		.ascii	"\234\033\360K\225T\322\303h\036;\331\270hy\330\003\260"
 393      9554D2C3 
 393      681E3BD9 
 393      B86879D8 
 393      03B0
 394 0179 0C533FA6 		.ascii	"\014S?\246/\005\205\021\227-i\231\027\267b\341,\313"
 394      2F058511 
 394      972D6999 
 394      17B762E1 
 394      2CCB
 395 018b C8AD3206 		.ascii	"\310\2552\006\374<!\211\374\345U\245)\202\302h\006\016"
 395      FC3C2189 
 395      FCE555A5 
 395      2982C268 
 395      060E
 396 019d 5204B3F0 		.ascii	"R\004\263\360`R)u\316\303\030\31109\256Y\347\303c\321"
 396      60522975 
 396      CEC318C9 
 396      3039AE59 
 396      E7C363D1 
 397 01b1 AA550C78 		.ascii	"\252U\014xTFVV\340fm \230J\204\226{\363(|\313Q\027\343"
 397      54465656 
 397      E0666D20 
 397      984A8496 
 397      7BF3287C 
 398 01c9 54CD4BD4 		.ascii	"T\315K\324^\322\306\211N`\035\026\005\232\364\335\277"
 398      5ED2C689 
 398      4E601D16 
 398      059AF4DD 
 398      BF
 399 01da D90C29F1 		.ascii	"\331\014)\361\017\367&<= \265\211\257\241\211\244\353"
 399      0FF7263C 
 399      3D20B589 
 399      AFA189A4 
 399      EB
 400 01eb E7713298 		.ascii	"\347q2\230I\005\247\301[N\036\357*LuofA\275WGq\277Z"
 400      4905A7C1 
 400      5B4E1EEF 
 400      2A4C756F 
 400      6641BD57 
ARM GAS  /tmp/ccftiQnV.s 			page 31


 401 0203 0F77EBD3 		.ascii	"\017w\353\323Q\244(\012\334\036\003\2061L\227\246\237"
 401      51A4280A 
 401      DC1E0386 
 401      314C97A6 
 401      9F
 402 0214 849C7EA2 		.ascii	"\204\234~\242qY\012\241\333H\006\252\374\272Gv\330\216"
 402      71590AA1 
 402      DB4806AA 
 402      FCBA4776 
 402      D88E
 403 0226 F8FECBAF 		.ascii	"\370\376\313\257\376\377\206\330\260f\362\015q\202\""
 403      FEFF86D8 
 403      B066F20D 
 403      718222
 404 0235 1966DD97 		.ascii	"\031f\335\227\367\223\322\327\243?`8\372\366-\303\322"
 404      F793D2D7 
 404      A33F6038 
 404      FAF62DC3 
 404      D2
 405 0246 37FFA83B 		.ascii	"7\377\250;\301\034\205\347\252\304\037\022\265&\375"
 405      C11C85E7 
 405      AAC41F12 
 405      B526FD
 406 0255 8B304D83 		.ascii	"\2130M\203\317\200t\221\344\342\352E\2267\020\314\215"
 406      CF807491 
 406      E4E2EA45 
 406      963710CC 
 406      8D
 407 0266 D55DA463 		.ascii	"\325]\244c\243\306\000\326z\326_1\326O\361=GV\340c\216"
 407      A3C600D6 
 407      7AD65F31 
 407      D64FF13D 
 407      4756E063 
 408 027b 5FC81572 		.ascii	"_\310\025r\227\257\272\356\350\370H\036\"\327\307\275"
 408      97AFBAEE 
 408      E8F8481E 
 408      22D7C7BD 
 409 028b 4261F4CA 		.ascii	"Ba\364\312\31019>z\315\366\321\037\263\333\376\012"
 409      C831393E 
 409      7ACDF6D1 
 409      1FB3DBFE 
 409      0A
 410              		.text
 411              		.section	.gnu.lto_.symbol_nodes.d9e8e1f81841ea60,"",%progbits
 412 0000 789C4DCE 		.ascii	"x\234M\316\273N\3030\030\005\340\337\307I\0034\351%"
 412      BB4EC330 
 412      1805E0DF 
 412      C7490334 
 412      E925
 413 0012 BD815416 		.ascii	"\275\201T\026\304#t\347Yx\222\023Zh\312\245P\356\023"
 413      C42374E7 
 413      59789213 
 413      5A68CAA5 
 413      50EE13
 414 0025 0CED0B30 		.ascii	"\014\355\0130\300\300\300T\251]\020\214\254\250\022"
 414      C0C0C054 
 414      A95D108C 
ARM GAS  /tmp/ccftiQnV.s 			page 32


 414      ACA812
 415 0034 F01694B4 		.ascii	"\360\026\224\264\211\260\275\034}\307\376mC [\220ta"
 415      89B0BD1C 
 415      7DC7FE6D 
 415      43205B90 
 415      7461
 416 0046 AE283278 		.ascii	"\256(2x\023!\373\275]\334\200*\343]O\271\021\304\241"
 416      1321FBBD 
 416      5DDC802A 
 416      E35D4FB9 
 416      11C4A1
 417 0059 C62D08D3 		.ascii	"\306-\010\323b\017\324\031\357\023\266A\307b\007t-\356"
 417      620FD419 
 417      EF13B641 
 417      C7620774 
 417      2DEE
 418 006b 83398B07 		.ascii	"\2039\213\007\240g1\006W,\366\300U\213\207\340\232\305"
 418      A0673106 
 418      572CF6C0 
 418      558B87E0 
 418      9AC5
 419 007d 23306FB1 		.ascii	"#0o\261\013\372\206\352\014\014RF\221R\247`\301\250"
 419      0BFA86EA 
 419      0C0C5246 
 419      9152A760 
 419      C1A8
 420 008f 0F168DAE 		.ascii	"\017\026\215\256\300\222\321\011X6:\006C\243s\260b4"
 420      C092D109 
 420      58363A06 
 420      43A373B0 
 420      6234
 421 00a1 00AB4617 		.ascii	"\000\253F\027`\315\350\032\254\033]\202\215\177i)I\347"
 421      60CDE81A 
 421      AC1B5D82 
 421      8D7F6929 
 421      49E7
 422 00b3 F337C9A2 		.ascii	"\3637\311\242\214\226Y\220\361\"\225\310p\221\272\234"
 422      8C965990 
 422      F12295C8 
 422      7091BA9C 
 423 00c3 F64E4546 		.ascii	"\366NEF/\337I\206\322\231\3744\265#\322\216\267\027"
 423      2FDF4986 
 423      D299FC34 
 423      B523D28E 
 423      B717
 424 00d5 319B4E9B 		.ascii	"1\233N\233\332\315\216\273a:\236\253\245\327\346\252"
 424      DACD8EBB 
 424      613A9EAB 
 424      A5D7E6AA 
 425 00e5 327E7CDF 		.ascii	"2~|\337\324^\266\357)\031>\267\264W\227Q\367kcY\307"
 425      D45EB6EF 
 425      29193EB7 
 425      B4579751 
 425      F76B6359 
 426 00fa 73A5F3D9 		.ascii	"s\245\363\331+~=\035\367\0332~ji?\251'\037\320\201/"
 426      2B7E3D1D 
 426      F71B327E 
ARM GAS  /tmp/ccftiQnV.s 			page 33


 426      6A693FA9 
 426      271FD081 
 427 010f C3871D1D 		.ascii	"\303\207\035\035\254'm\362\207@\313,~U\362\007w\362"
 427      AC276DF2 
 427      8740CB2C 
 427      7E55F207 
 427      77F2
 428 0121 A1FB     		.ascii	"\241\373"
 429              		.text
 430              		.section	.gnu.lto_.refs.d9e8e1f81841ea60,"",%progbits
 431 0000 789C6362 		.ascii	"x\234cb`b\020g\200\000FF\006&f\026F&\240\020\023#+\003"
 431      60621067 
 431      80004646 
 431      06266616 
 431      4626A010 
 432 0018 13133B88 		.ascii	"\023\023;\210\305\000\000\005@\000C"
 432      C5000005 
 432      400043
 433              		.text
 434              		.section	.gnu.lto_.decls.d9e8e1f81841ea60,"",%progbits
 435 0000 789CBD7D 		.ascii	"x\234\275}\011\230\024E\266nf\326\326E7\253\316\014"
 435      09981445 
 435      B66E66D6 
 435      D64537AB 
 435      CE0C
 436 0012 323A96F3 		.ascii	"2:\226\363\306\367\361\346\2166\2403\343\314\235\253"
 436      C6F7F1E6 
 436      8E36A033 
 436      E3CC9DAB 
 437 0022 4277B38C 		.ascii	"Bw\263\214@\363\272\233Q\277\357\276[\026\335\325\320"
 437      40F3BA9B 
 437      51BFEFBE 
 437      5B16DDD5 
 437      D0
 438 0033 D7DEAC2A 		.ascii	"\327\336\254*\026\337\273\3377\311b3,\"\253\354\253"
 438      16DFBBDF 
 438      37C96233 
 438      2C22ABEC 
 438      AB
 439 0044 A8088A2C 		.ascii	"\250\010\212,\"4\233\205\"\015\215\262\257\315\326l"
 439      22349B85 
 439      220D8DB2 
 439      AFCDD66C 
 440 0054 0202B209 		.ascii	"\002\002\262\011\315\326\364;q\"\263*2+3+\262\234\367"
 440      CDD6F43B 
 440      7122B32A 
 440      322B332B 
 440      B29CF7
 441 0067 EAFB2232 		.ascii	"\352\373\"2**\343\217\023\347\2348qb\311,I\220\204\021"
 441      2A2AE38F 
 441      13E79C38 
 441      7162C92C 
 441      49908411 
 442 007b 6E416882 		.ascii	"nAh\202\317\273\037\011B\227\326\202\320B\020\204\347"
 442      CFBB1F09 
 442      4297D682 
 442      D0421084 
ARM GAS  /tmp/ccftiQnV.s 			page 34


 442      E7
 443 008c 21B482E0 		.ascii	"!\264\202\340\2040\037\302\002\010\213 \300-\302\022"
 443      84301FC2 
 443      02088B20 
 443      C02DC212 
 444 009c 081F4358 		.ascii	"\010\037CX\012a9\204\323\020\316C\270\000\341\"\204"
 444      0A613984 
 444      D310CE43 
 444      B800E122 
 444      84
 445 00ad 9D9220D4 		.ascii	"\235\222 \324A\220D\001?m!\324\303\367V\016Ah\007\241"
 445      41904401 
 445      3F6D21D4 
 445      C3F7560E 
 445      416807A1 
 446 00c1 0F849B10 		.ascii	"\017\204\233\020\356A\370=T\320\005Bw\010\257@\370\017"
 446      EE41F83D 
 446      54D00542 
 446      7708AF40 
 446      F80F
 447 00d3 08451006 		.ascii	"\010E\020\006@\030\004a0\204\267 TA\030\015a<\204\311"
 447      40180461 
 447      3084B720 
 447      5441180D 
 447      613C84C9 
 448 00e7 10D64188 		.ascii	"\020\326A\210B\330\002a;\004R\325\001\247\240\371\220"
 448      42D80261 
 448      3B0452D5 
 448      01A7A0F9 
 448      90
 449 00f8 3AD3E1FA 		.ascii	":\323\341\372_N\332\246\014\245=\207 :\012\3410\204"
 449      5F4EDAA6 
 449      0CA53D87 
 449      203A0AE1 
 449      3084
 450 010a 63108640 		.ascii	"c\020\206@8\016\341\204R\336\251\224}K\251\237\320\001"
 450      380EE184 
 450      52DEA994 
 450      7D4BA99F 
 450      D001
 451 011c 5F8574A0 		.ascii	"_\205t\240\267\271C[\007i\023\301&\355U\353\370\255"
 451      B7B9435B 
 451      076913C1 
 451      26ED55EB 
 451      F8AD
 452 012e 83F2E031 		.ascii	"\203\362\3401\2706B\370\033\2046\020N\002\316)g\234"
 452      B83642F8 
 452      1B843610 
 452      4E02CE29 
 452      679C
 453 0140 9F27258A 		.ascii	"\237'%\212!)8\244N\243v\020\2365\027(?\325:\226\210"
 453      212938A4 
 453      4EA37610 
 453      9E351728 
 453      3FD53A96 
 454 0155 B44E722B 		.ascii	"\264Nr+\251\343\267J\035\277r\320zO\303\017#\025\276"
 454      A9E3B74A 
ARM GAS  /tmp/ccftiQnV.s 			page 35


 454      1DBF72D0 
 454      7A4FC30F 
 454      2315BE
 455 0168 FC0F07AD 		.ascii	"\374\017\007\255\203\340T)y\275t\355 2i'PZ\325:\032"
 455      83E05429 
 455      79BD74ED 
 455      20326927 
 455      505AD53A 
 456 017d 15CCE50A 		.ascii	"\025\314\345\012OT\331\222v\220\272wA8\003\351\011\020"
 456      4F54D992 
 456      7690BA77 
 456      413803E9 
 456      0910
 457 018f CE3AA93E 		.ascii	"\316:\251>\214\201\353w\020\316)mUu\345\244\242\017"
 457      8C81EB77 
 457      10CE296D 
 457      5575E5A4 
 457      A20F
 458 01a1 AA0E11BC 		.ascii	"\252\016\021\274\003\220w\010\302a\010G\225\266\020"
 458      03907708 
 458      C2610847 
 458      95B610
 459 01b0 3AC62BB2 		.ascii	":\306+\262&\374pA\336\025\310\273\012\341\007\010\327"
 459      26FC7041 
 459      DE15C8BB 
 459      0AE10708 
 459      D7
 460 01c1 1D89FC21 		.ascii	"\035\211\374!\272\324ZG\273\312k\265>R?\241Q\325W\225"
 460      BAD45A47 
 460      BBCA6BB5 
 460      3E523FA1 
 460      51D55795 
 461 01d5 56421369 		.ascii	"VB\023i\007i\027i+\341\015\241\305\241\340\022\032F"
 461      07691769 
 461      2BE10DA1 
 461      C5A1E012 
 461      1A46
 462 01e7 2BF2BF63 		.ascii	"+\362\277cP7\321\341\207\340z\301\251\345\333\022\370"
 462      5037D1E1 
 462      87E07AC1 
 462      A9E5DB12 
 462      F8
 463 01f8 3ECD49E5 		.ascii	">\315I\345\364\236\322\336\027 |\017\211\251\020\326"
 463      F49ED2DE 
 463      17207C0F 
 463      89A910D6 
 464 0208 43B80861 		.ascii	"C\270\010a1\204)\204g\360\333\032\270>\245\310g\265"
 464      31842984 
 464      67F0DB1A 
 464      B83EA5C8 
 464      67B5
 465 021a 93D240F0 		.ascii	"\223\322@\360\327):Oh\350\000\327N:\032H\0372\223\035"
 465      D7293A4F 
 465      68E800D7 
 465      4E3A1A48 
 465      1F32931D 
 466 022e 699F5330 		.ascii	"i\237S0\326=UW\324\366_\202\337[\253\272\244\350\327"
ARM GAS  /tmp/ccftiQnV.s 			page 36


 466      D63D5557 
 466      D4F65F82 
 466      DF5BABBA 
 466      A4E8D7
 467 0241 6545AE9B 		.ascii	"eE\256\233\234\361>Nd\362W\007\345\023\321\255\356\020"
 467      9CF13E4E 
 467      64F25707 
 467      E513D1AD 
 467      EE10
 468 0253 9E74D07A 		.ascii	"\236t\320z~\357\214\367u\322?\311\275/\300\365/\020"
 468      7EEF8CF7 
 468      75D23FC9 
 468      BD2FC0F5 
 468      2F10
 469 0265 FE0DC2F3 		.ascii	"\376\015\302\363\316D\036vQ\332|]\351\017\242\222\247"
 469      CE441E76 
 469      51DA7C5D 
 469      E90FA292 
 469      A7
 470 0276 FF7457EE 		.ascii	"\377tW\356k\343\210\337\327]\341S_\270\376O\010\371"
 470      6BE388DF 
 470      D75DE153 
 470      5FB8FE4F 
 470      08F9
 471 0288 BA72AF28 		.ascii	"\272r\257(\277\223\366\250\355\305r\312\365\025\005"
 471      BF93F6A8 
 471      EDC572CA 
 471      F51505
 472 0297 F3DF75E5 		.ascii	"\363\337u\345\210\035j\246\324E\370A\032\247\357[\215"
 472      881D6AA6 
 472      D445F841 
 472      1AA7EF5B 
 472      8D
 473 02a8 0A9F088F 		.ascii	"\012\237\010\217\311-*/\376\252\364\267\377p\306\373"
 473      C92D2A2F 
 473      FEAAF4B7 
 473      FF70C6FB 
 474 02b8 5B3F1D3E 		.ascii	"[?\035>\261qm\0249\261v\203\360\334#h\3732+\203\355"
 474      B1716D14 
 474      39B17683 
 474      F0DC2368 
 474      FB322B83 
 475 02cd 70FD17D2 		.ascii	"p\375\027\322\027 ]\343\214\323\242\326O\344\360'E\026"
 475      17205DE3 
 475      8CD3A2D6 
 475      4FE4F027 
 475      4516
 476 02df 458C8D54 		.ascii	"E\214\215T\351(\326\321A\354\354\303\264y\011\272#("
 476      E928D6D1 
 476      41ECECC3 
 476      B47909BA 
 476      2328
 477 02f1 34111912 		.ascii	"4\021\031\022\232H;\257\300\215~\206\027W\211l\341\267"
 477      9A483BAF 
 477      C08D7E86 
 477      1757896C 
 477      E1B7
ARM GAS  /tmp/ccftiQnV.s 			page 37


 478 0303 6F9C9417 		.ascii	"o\234\224\027\327\340\372K\245\375*?\234J=E\212\255"
 478      D7E0FA4B 
 478      A5FD2A3F 
 478      9C4A3D45 
 478      8AAD
 479 0315 6EA7E485 		.ascii	"n\247\344\205!\252\200\360\006\204J\035]\351\302hY\036"
 479      21AA80F0 
 479      06844A1D 
 479      5DE9C268 
 479      591E
 480 0327 26CFAB92 		.ascii	"&\317\253\222\273om\321Z\030/\303\3077\255\205W\370"
 480      BB6F6DD1 
 480      5A182FC3 
 480      C737AD85 
 480      57F8
 481 0339 07C9AE7F 		.ascii	"\007\311\256\177_n\013\243\312+b@\204\2544Ldx\261\201"
 481      5F6E0BA3 
 481      CA2B6240 
 481      84AC344C 
 481      6478B181 
 482 034d 4F0A0BE1 		.ascii	"O\012\013\341V\270_\012\210\357\211^ D\035\206\364\037"
 482      56B85F0A 
 482      88EF895E 
 482      20441D86 
 482      F41F
 483 035f FAFB6F85 		.ascii	"\372\373o\205\217\350\375\247\364\267\021PrG<\325$\306"
 483      8FE8FDA7 
 483      F4B71150 
 483      72473CD5 
 483      24C6
 484 0371 EA5C24A9 		.ascii	"\352\\$\251\225>\251\200-\020[c\012I\224\025\312\361"
 484      953EA980 
 484      2D105B63 
 484      0A499415 
 484      CAF1
 485 0383 0EA5884F 		.ascii	"\016\245\210O-\341TJ|\210\340\202\232\035K\374\206!"
 485      2DE1544A 
 485      7C88E082 
 485      9A1D4BFC 
 485      8621
 486 0395 C0A8DC7C 		.ascii	"\300\250\334|1=\011\233(\271Jy9F\252O\001\370\3106\251"
 486      313D099B 
 486      28B94A79 
 486      3946AA4F 
 486      01F8C836 
 487 03aa 8B4D487D 		.ascii	"\213MH}<\011\251\213\354\221z;Fj\246\002\360\261mR?"
 487      3C09A98B 
 487      EC917A3B 
 487      466AA602 
 487      F0B16D52 
 488 03bf 3121F5E9 		.ascii	"1!\365\351$\244.\211\223\312h\331\264\026\026j6\276"
 488      24A42E89 
 488      93CA68D9 
 488      B416166A 
 488      36BE
 489 03d1 7EC3BC3B 		.ascii	"~\303\274;\222,\247\005\304\245\250j\335D\000\372@\374"
 489      922CA705 
ARM GAS  /tmp/ccftiQnV.s 			page 38


 489      C4A5A86A 
 489      DD4400FA 
 489      40FC
 490 03e3 6D4CC314 		.ascii	"mL\303\024Z\330\357\352\015\004,\246]\212rix\324F\230"
 490      5AD8EFEA 
 490      0D042CA6 
 490      5D8A7269 
 490      78D44698 
 491 03f7 803CDA1A 		.ascii	"\200<\332\032'A\376o*\015\313\234q\"\252\267\\\356\210"
 491      2741FE6F 
 491      2A0DCB9C 
 491      7122AAB7 
 491      5CEE88
 492 040a 44AC10DB 		.ascii	"D\254\020\333\000\021\262\250\245\"9\016\241l\025\224"
 492      0011B2A8 
 492      A522390E 
 492      A16C1594 
 493 041a A5A5680F 		.ascii	"\245\245h\017\212\256\333\222!;i\276\240\301\323|\236"
 493      8AAEDB92 
 493      213B69BE 
 493      A0C1D37C 
 493      9E
 494 042b 10E601C5 		.ascii	"\020\346\001\305\321\015[\326\211rU\206\312\207*$\201"
 494      D10D5BD6 
 494      89725586 
 494      CA872A24 
 494      81
 495 043c 1435E25D 		.ascii	"\0245\342]L2\2148\264p\033\267\244/{M\005\033g\033,"
 495      4C328C38 
 495      B4701BB7 
 495      A42F7B4D 
 495      051B671B 
 496 0451 4D03B68B 		.ascii	"M\003\266\213\005\233h\033\254\225\006l\017\0136\315"
 496      059B681B 
 496      AC95066C 
 496      0F0B36CD 
 497 0461 36585B0D 		.ascii	"6X[\015\330>\026l\256m0\237\006\354\000\013\366\276"
 497      D83E166C 
 497      AE6D309F 
 497      06EC000B 
 497      F6BE
 498 0473 6DB0F61A 		.ascii	"m\260\366\032\260CU\031\273^S\272\201\\%\267_\324\202"
 498      B0435519 
 498      BB5E53BA 
 498      815C25B7 
 498      5FD482
 499 0486 E187525C 		.ascii	"\341\207R\\b\272\301\262M\016\324\300\315X\373RQ\337"
 499      62BAC1B2 
 499      4D0ED4C0 
 499      CD58FB52 
 499      51DF
 500 0498 0F1CBA7E 		.ascii	"\017\034\272~\340\320\366\003\2077\236hj\302\341c\245"
 500      E0D0F603 
 500      87379E68 
 500      6AC2E163 
 500      A5
 501 04a9 BE059A7A 		.ascii	"\276\005\232z\215Z\320\201m\001t\212\003oL\223\243\303"
ARM GAS  /tmp/ccftiQnV.s 			page 39


 501      8D5AD081 
 501      6D01748A 
 501      036F4C93 
 501      A3C3
 502 04bb 1C2A519F 		.ascii	"\034*Q\237\363\000\246\231\353\344\275\252\261\217\310"
 502      F300A699 
 502      EBE4BDAA 
 502      B18FC8
 503 04ca F3BE1415 		.ascii	"\363\276\024\025\256\320>jlNT\256\374\250\030\207\355"
 503      AED03E6A 
 503      6C4E54AE 
 503      FCA81887 
 503      ED
 504 04db 48403481 		.ascii	"H@4\201+\036\035W<Z\256x\274\361\004\231\237\265$|\331"
 504      2B1E1D57 
 504      3C5AAE78 
 504      BCF10499 
 504      9FB5247C 
 505 04f0 A26F86A6 		.ascii	"\242o\206\246f\243fh\324\244\276\272\352\304Pq\302p"
 505      66A36668 
 505      D4A4BEBA 
 505      EAC45071 
 505      C270
 506 0502 796B0795 		.ascii	"yk\007\225\256\335<\210\255\314\031\363nM\306\370\200"
 506      AEDD3C88 
 506      ADCC19F3 
 506      6E4DC6F8 
 506      80
 507 0513 0A76D436 		.ascii	"\012v\3246\230V\213\247\261`gy\300\332\232S6\203\005"
 507      98568BA7 
 507      B1606779 
 507      C0DA9A53 
 507      368305
 508 0526 BB681B4C 		.ascii	"\273h\033LK\331,\026\354\006\017\230\317\234\2629,\330"
 508      4BD92C16 
 508      EC060F98 
 508      CF9CB239 
 508      2CD8
 509 0538 3DDB605A 		.ascii	"=\333`Z\312\226\261`\303%\016\260\366\346\224\255`\301"
 509      CA96B160 
 509      C3250EB0 
 509      F6E694AD 
 509      60C1
 510 054a C6DA0663 		.ascii	"\306\332\006c)\223\243\253j\322aT`\007\373\245\214_"
 510      2993A3AB 
 510      6AD26154 
 510      6007FBA5 
 510      8C5F
 511 055c 120393D5 		.ascii	"\022\003\223\325A\250\336\366h\177\322d\264oR\347\267"
 511      41A8DEF6 
 511      687FD264 
 511      B46F52E7 
 511      B7
 512 056d 923059DF 		.ascii	"\2220Y\337\010]\305J\272\203\001O\214>\354P\031\020"
 512      085DC54A 
 512      BA83014F 
 512      8C3EEC50 
ARM GAS  /tmp/ccftiQnV.s 			page 40


 512      1910
 513 057f 3F179F84 		.ascii	"?\027\237\204x\265\370\004\304\325\030\257\303x\003"
 513      78B5F804 
 513      C4D518AF 
 513      C37803
 514 058e C65F60BC 		.ascii	"\306_`\274\011\343\2570\336\212q-\306;1\336\215\361"
 514      09E3AF30 
 514      DE8A712D 
 514      C63B31DE 
 514      8DF1
 515 05a0 5E8CF763 		.ascii	"^\214\367c|\020\343\303\030\037\301\370\030\306' \216"
 515      7C10E3C3 
 515      181FC1F8 
 515      18C62720 
 515      8E
 516 05b1 7DCC18B2 		.ascii	"}\314\030\262\334\304\343\212\3714\321$>MtJUK\331\311"
 516      DCC4E38A 
 516      F934D124 
 516      3E4D744A 
 516      554BD9C9 
 517 05c5 E10205C4 		.ascii	"\341\002\005\304\263\330\370\367tNM\242\317\014#\245"
 517      B3D8F8F7 
 517      744E4DA2 
 517      CF0C23A5 
 518 05d5 A4B77DEF 		.ascii	"\244\267}\357\351]\243\3440fM>m\317\311<\037s2\237R"
 518      E95DA3E4 
 518      30664D3E 
 518      6DCFC93C 
 518      1F73329F 
 519 05ea 002ED856 		.ascii	"\000.\330V\273\357M\324\356wI\244s\336\204T#\037Md\315"
 519      BBEF4DD4 
 519      EE7749A4 
 519      73DE8454 
 519      231F4D64 
 520 05ff A532A434 		.ascii	"\2452\2444\356\231\3754\016)\227\320\325\373D\307\326"
 520      EE99FD34 
 520      0E2997D0 
 520      D5FB44C7 
 520      D6
 521 0610 A43092B0 		.ascii	"\2440\222\260\012\213\\\321{{\373_\363\321\334\344\276"
 521      0A8B5CD1 
 521      7B7BFB5F 
 521      F3D1DCE4 
 521      BE
 522 0621 DEE179DB 		.ascii	"\336\341y\333DybF2\372\3479\324\212\237\215\323\337"
 522      44796246 
 522      32FAE739 
 522      D48A9F8D 
 522      D3DF
 523 0633 30697327 		.ascii	"0is'\244\377G\244\377zr\372\2650\204\272\206\004\332"
 523      A4FF47A4 
 523      FF7A72FA 
 523      B53084BA 
 523      8604DA
 524 0646 6BD0536D 		.ascii	"k\320Sm\340\242\376\330\310\2718\214\033\221\0177\210"
 524      E0A2FED8 
 524      C8B9388C 
ARM GAS  /tmp/ccftiQnV.s 			page 41


 524      1B910F37 
 524      88
 525 0657 2CEB3413 		.ascii	",\3534\023'I\270\017\324\032qXs[@\274/J\0207\352\251"
 525      2749B80F 
 525      D41A7158 
 525      735B40BC 
 525      2F4A1037 
 526 066d 5C3912A9 		.ascii	"\\9\022\251l\344\242rUM\"\217\177.LQ\264S\026#i\302"
 526      6CE4A272 
 526      554D228F 
 526      7F2E4C51 
 526      B4531623 
 527 0683 48EC9F6F 		.ascii	"H\354\237o\311C\3057\222\317\204\207Ii\320\200Q\016"
 527      C943C537 
 527      92CF8487 
 527      4969D080 
 527      510E
 528 0695 D3A930B9 		.ascii	"\323\2510\271AU\\\232VS\026\035o\250\364sL9\320\205"
 528      41555C9A 
 528      5653161D 
 528      6FA8F473 
 528      4C39D085 
 529 06a9 828C17D2 		.ascii	"\202\214\027\322!\352\033_Z4+(K\261n \011\3578D\205"
 529      21EA1B5F 
 529      5A342B28 
 529      4BB16E20 
 529      09EF3844 
 530 06be 5F16838C 		.ascii	"_\026\203\214\006O\303+y\205,{\335\024S\022f\332\006"
 530      064FC32B 
 530      79852C7B 
 530      DD145312 
 530      66DA06
 531 06d1 F399832D 		.ascii	"\363\231\203-\342\0013w\031\265`\313l\203\031Pf\256"
 531      E2013377 
 531      19B560CB 
 531      6C831950 
 531      66AE
 532 06e3 10545866 		.ascii	"\020TXf\014\177\307@RJ\232\337\237m\230\371\365&\021"
 532      0C7FC740 
 532      524A9ADF 
 532      9F6D98F9 
 532      F52611
 533 06f6 E603F0C3 		.ascii	"\346\003\360\303D\211\270\007\365\016m\367\345\207Z"
 533      4489B807 
 533      F50E6DF7 
 533      E5875A
 534 0705 3977FD9F 		.ascii	"9w\375\237\320\016LA\2409\316\237\356\032\333\277]a"
 534      D00E4C41 
 534      A039CE9F 
 534      EE1ADBBF 
 534      5D61
 535 0717 80F13099 		.ascii	"\200\3610\231t\352\3370\363\223\177\301&\314\300&|\344"
 535      74EADF30 
 535      F3937FC1 
 535      26CCC026 
 535      7CE4
 536 0729 34E40507 		.ascii	"4\344\005\007\320\312\271s\236C\240\331\010\264<\201"
ARM GAS  /tmp/ccftiQnV.s 			page 42


 536      D0CAB973 
 536      9E43A0D9 
 536      08B43C81 
 537 0739 17361711 		.ascii	"\0276\027\021\354\334k\246/\323\343\035\224\325\032"
 537      ECDC6BA6 
 537      2FD3E31D 
 537      94D51A
 538 0748 22764C70 		.ascii	"\"vLp\364\361ql\037_\347\344P~\3639\006\214\033\227"
 538      F4F1716C 
 538      1F5FE7E4 
 538      507EF339 
 538      068C1B97 
 539 075c 3B4E97A3 		.ascii	";N\227\243#\034\251v\200\205\346\035 \326,K}0w\233\002"
 539      231CA976 
 539      8085E61D 
 539      20D62C4B 
 539      7D30779B 
 540 0771 E24CE9C9 		.ascii	"\342L\351\311\324Y\275\350\247\263\372=\226\325Q\333"
 540      D459BDE8 
 540      A7B3FA3D 
 540      96D551DB 
 541 0781 ACF6B1AC 		.ascii	"\254\366\261\254\326\032\255-<`\3463\260\237f\264\226"
 541      D61AAD2D 
 541      3C60E633 
 541      B09F66B4 
 541      96
 542 0792 99CBCC70 		.ascii	"\231\313\314p\364~\2211:/\262\026U\351h\237\177w\325"
 542      F47E9131 
 542      3A2FB216 
 542      55E9689F 
 542      7F77D5
 543 07a5 831DED33 		.ascii	"\203\035\3553\2118\037U.C\347\303\034\206\220\260Z\322"
 543      89381F55 
 543      2E43E7C3 
 543      1C8690B0 
 543      5AD2
 544 07b7 0DEB0D41 		.ascii	"\015\353\015A\037\315M>\250\337y\037\007u\325z\276\213"
 544      1FCD4D3E 
 544      A8DF791F 
 544      0775D57A 
 544      BE8B
 545 07c9 F593A229 		.ascii	"\365\223\242)\215{\321"
 545      8D7BD1
 546 07d0 BB413287 		.ascii	"\273A2\207\247Xsmc\371\214\010\025\022Z\031\020\327"
 546      A758736D 
 546      63F98C08 
 546      15125A19 
 546      10D7
 547 07e2 A072574B 		.ascii	"\240rWK8\267\2218f +5\012\315\245\300\237\262\012\374"
 547      38B79138 
 547      66202B35 
 547      0ACDA5C0 
 547      9FB20AFC 
 548 07f6 A1CBAECE 		.ascii	"\241\313\256\316\351\333\242\012\" 6\341\304i$\022?"
 548      E9DBA20A 
 548      222036E1 
 548      C4692412 
ARM GAS  /tmp/ccftiQnV.s 			page 43


 548      3F
 549 0807 0AE33118 		.ascii	"\012\3431\030\277\215\361\002\214?\306x)O\323\356\212"
 549      BF8DF102 
 549      8C3FC678 
 549      294FD3EE 
 549      8A
 550 0818 0C9DCB90 		.ascii	"\014\235\313\220\316\206T\375\226\372\206\275\015\035"
 550      CE8654FD 
 550      96FA86BD 
 550      0D1D
 551 0826 A7CAD1A1 		.ascii	"\247\312\321\241\016\217PE}\271a\311\206\012\320`7j"
 551      0E8F5045 
 551      7DB961C9 
 551      860AD060 
 551      376A
 552 0838 7054F200 		.ascii	"pT\362\000\005\237\3514\230\003\210\264\342+(\254\321"
 552      059FE934 
 552      980388B4 
 552      E22B28AC 
 552      D1
 553 0849 E1EA377D 		.ascii	"\341\3527}4\327B\207\261\343I\302\027.:\237pz\343y\265"
 553      34D74287 
 553      B1E349C2 
 553      172E3A9F 
 553      707AE379 
 554 085e F13C91B9 		.ascii	"\361<\221\271uo<[b\262\217\307\263\035L\366\345x\266"
 554      756F3C5B 
 554      62B28FC7 
 554      B31D4CF6 
 554      E578B6
 555 0871 93C96E8A 		.ascii	"\223\311n\212g\273\230\354Q\356X\266\233\311\236\022"
 555      67BB98EC 
 555      51EE58B6 
 555      9BC99E12 
 556 0881 CFF630D9 		.ascii	"\317\3660\331\363\343\331i\214D,\007\3168\223\002\342"
 556      F3E3D969 
 556      8C442C07 
 556      CE389302 
 556      E2
 557 0892 66EC025F 		.ascii	"f\354\002_K\016\303b0\015s\3534\301\326\322\255\214"
 557      4B0EC362 
 557      300D73EB 
 557      34C1D6D2 
 557      AD8C
 558 08a4 9A30948C 		.ascii	"\2320\224\214n\352\214\225\314>I\3076\234\303\021\352"
 558      6EEA8C95 
 558      CC3E49C7 
 558      369CC311 
 558      EA
 559 08b5 0E4B7667 		.ascii	"\016Kvg\254u\222\361\2145\276N\262R\337\012m\265\311"
 559      AC7592F1 
 559      8C35BE4E 
 559      B252DF0A 
 559      6DB5C9
 560 08c8 DC5D5C2A 		.ascii	"\334]\\*&#\007\241M\022Vs\241%\033:T\373\266N\217fs"
 560      262307A1 
 560      4D125673 
ARM GAS  /tmp/ccftiQnV.s 			page 44


 560      A1251B3A 
 560      54FBB64E 
 561 08df 55AB61E4 		.ascii	"U\253a\344l\336Y\337k*\\F\254\337E\357l\021}\0063?\315"
 561      6CDE59DF 
 561      6B2A5C46 
 561      ACDF45EF 
 561      6C117D06 
 562 08f6 AD01F134 		.ascii	"\255\001\3614\250I\262\273p\331D?\206|A\267Z\316r\215"
 562      A849B2BB 
 562      70D9443F 
 562      867C41B7 
 562      5ACE728D 
 563 090a 2207ABCC 		.ascii	"\"\007\253\314\233\242\231\226\306&\316\035b\015\251"
 563      9BA29996 
 563      C626CE1D 
 563      620DA9
 564 0919 9F76EBEA 		.ascii	"\237v\353\352\177\242\001\271\200C\340(O\362\365\003"
 564      7FA201B9 
 564      8043E028 
 564      4FF2F503 
 565 0929 0D4C40BC 		.ascii	"\015L@\274(\221\331\355%}\023n\316\304&\\\342jB\343"
 565      2891D9ED 
 565      257D136E 
 565      CEC4265C 
 565      E26A42E3 
 566 093d 9139BF90 		.ascii	"\2219\277\220\353\243\"\277\341;x7\332n8\316<\256\240"
 566      EBA322BF 
 566      E13B7837 
 566      DA6E38CE 
 566      3CAEA0
 567 0950 E5DBE249 		.ascii	"\345\333\342I\311\362]\327[\276Ud\255\213\346'\267}"
 567      C9F25DD7 
 567      5BBE5564 
 567      AD8BE627 
 567      B77D
 568 0962 BB3D89B6 		.ascii	"\273=\211\266\357\250\307\320\366\235\365\030\332\276"
 568      EFA8C7D0 
 568      F69DF518 
 568      DABE
 569 0970 2B1E43DB 		.ascii	"+\036C\333w\327\243\265}\002\207}\272\316\330\247\033"
 569      77D7A3B5 
 569      7D02877D 
 569      BACED8A7 
 569      1B
 570 0981 689F7E34 		.ascii	"h\237~4\261O\001\361`Lf\274\366I#\257\372\351\267v\015"
 570      B14F01F1 
 570      604C66BC 
 570      F64923AF 
 570      FAE9B776 
 571 0996 D908FD71 		.ascii	"\331\010\375q\224;\305\376s\344\010O\377\031\352\340"
 571      943BC5FE 
 571      73E4084F 
 571      FF19EAE0 
 572 09a6 EB3FC31D 		.ascii	"\353?\303\035:\345\233z\004\225\217\344'W\276\271G\346"
 572      3AE59B7A 
 572      04958FE4 
 572      2757BEB9 
ARM GAS  /tmp/ccftiQnV.s 			page 45


 572      47E6
 573 09b8 24F61F9D 		.ascii	"$\366\037\235W\372\374\317L\355\350H\207\316)=/q,z("
 573      57FAFCCF 
 573      4CEDE848 
 573      87CE293D 
 573      2F712C7A 
 574 09cd 7C689CF1 		.ascii	"|h\234\3610!\264\312A|\353\221iZ\035\326\020D+2#b\214"
 574      3021B4CA 
 574      417CEB91 
 574      695A1DD6 
 574      10442B32 
 575 09e4 23DDA49D 		.ascii	"#\335\244\235\011\277\301\240\210\365\020\346\244\346"
 575      09BFC1A0 
 575      88F510E6 
 575      A4E6
 576 09f2 67561B31 		.ascii	"gV\0331\314@N\365\261u\260\337\305Z\\\177g\301\311L"
 576      CC404EF5 
 576      B175B0DF 
 576      C55A5C7F 
 576      67C1C94C 
 577 0a06 DA71DF71 		.ascii	"\332q\337q\020\213s*-\251\305\321\342\340\\H/\360\225"
 577      108B732A 
 577      2DA9C5D1 
 577      E2E05C48 
 577      2FF095
 578 0a19 DB51E013 		.ascii	"\333Q\340\023\223\013|\304\360\350\352\355\263\342\033"
 578      930B7CC4 
 578      F0E8EAED 
 578      B3E21B
 579 0a28 77C32D57 		.ascii	"w\303-W'\002\342$\354J<\033qW\260%\023Sc+\220\265f;"
 579      2702E224 
 579      EC4A3C1B 
 579      7157B025 
 579      1353632B 
 580 0a40 6EB44C71 		.ascii	"n\264Lq\020\023q\3236\230O\003\266\226\005\273\317\003"
 580      101371D3 
 580      36984F03 
 580      B69605BB 
 580      CF03
 581 0a52 66368E03 		.ascii	"f6\216\003\330z\026l\204\327.\230\226\262\215,\330h"
 581      D87A166C 
 581      84D72E98 
 581      96B28D2C 
 581      D868
 582 0a64 1E30B365 		.ascii	"\0360\263e\000\000\333\305\202\215\263\015\306R64zb"
 582      0000DBC5 
 582      828DB30D 
 582      C6523634 
 582      7A62
 583 0a76 7B2D998E 		.ascii	"{-\231\216=$L\224\345\241\362<\267\231R\220\003~\023"
 583      3D244C94 
 583      E5A1F23C 
 583      B7995290 
 583      037E13
 584 0a89 D13A58DC 		.ascii	"\321:X\334\002\223p\307CZ%\335;\246\005QR\222\237\334"
 584      029370C7 
 584      435A25DD 
ARM GAS  /tmp/ccftiQnV.s 			page 46


 584      3BA60551 
 584      52929FDC 
 585 0a9d 2AED5794 		.ascii	"*\355W\224Tux&b\343H\331T:\255\034=\266=]\036\235\021"
 585      54757826 
 585      62E348D9 
 585      543AAD1C 
 585      3DB63D5D 
 586 0ab4 9BD22EB2 		.ascii	"\233\322.\262 |\221\276w\035\334.\371h6\307f\300\366"
 586      207C91BE 
 586      771DDC2E 
 586      F96836C7 
 586      66C0F6
 587 0ac7 596DE579 		.ascii	"Ym\345y\233D\376\263\002\0153W\377\016]\220%(\305\311"
 587      9B44FEB3 
 587      020D3357 
 587      FF0E5D90 
 587      2528C5C9 
 588 0adb 5EC37533 		.ascii	"^\303u3\016\240\225s?\244k\210K\021h\266\016\310\376"
 588      0EA09573 
 588      3FA46B88 
 588      4B1168B6 
 588      0EC8FE
 589 0aee A1035B37 		.ascii	"\241\003[7K\302\"\254pQ\\\377\222\236P\320\260\256\376"
 589      4BC222AC 
 589      70515CFF 
 589      929E50D0 
 589      B0AEFE
 590 0b01 F6820B4F 		.ascii	"\366\202\013O+'\024(+>\266\015\330J'\024IX\221\252\336"
 590      2B271428 
 590      2B3EB60D 
 590      D84A2714 
 590      495891AA 
 591 0b16 304D5727 		.ascii	"0MW'\317\357;\310\304\370C\307\023l\005\237\361\364"
 591      CFEF3BC8 
 591      C4F843C7 
 591      136C059F 
 591      F1F4
 592 0b28 3A33B71E 		.ascii	":3\267\036\272\360U\266\013W\333\006\363i\300\256\263"
 592      BAF055B6 
 592      0B57DB06 
 592      F369C0AE 
 592      B3
 593 0b39 601B79C0 		.ascii	"`\033y\300|\346\224\375\310\202}e\033LK\331-\026l+\017"
 593      7CE694FD 
 593      C8827D65 
 593      1B4C4BD9 
 593      2D166C2B 
 594 0b4e 98D1ECC5 		.ascii	"\230\321\354\305\350\303\016\2070^9\310x5\031%5\025"
 594      E8C30E87 
 594      305E39C8 
 594      78351925 
 594      3515
 595 0b60 E3E918CF 		.ascii	"\343\351\030\317\304x6\306s1\236\217\361\347\030\257"
 595      C47836C6 
 595      73319E8F 
 595      F1E718AF 
 596 0b70 C1782DC6 		.ascii	"\301x-\306\353Y\371Z\370.\015\023\037%\346l\034\372"
ARM GAS  /tmp/ccftiQnV.s 			page 47


 596      EB59F95A 
 596      F82E0D13 
 596      1F25E66C 
 596      1CFA
 597 0b82 2EDF782D 		.ascii	".\337x-}\227wL\232J\250\217Z\370.Q\275\357r\320k\327"
 597      7D97774C 
 597      9A4AA88F 
 597      5AF82E51 
 597      BDEF72D0 
 598 0b98 7761C480 		.ascii	"wa\304\200\236k\264|\3032Y~\313\255v\262\343zD\233\307"
 598      9E6BB47C 
 598      C332597E 
 598      CBAD76B2 
 598      E37A449B 
 599 0bad 800ECDCC 		.ascii	"\200\016\315\314\330\365\232\012v\3066\230\276\307\252"
 599      D8F59A0A 
 599      76C63698 
 599      BEC7AA
 600 0bbc 721C8172 		.ascii	"r\034\201r|\013%\3626\306_b\274Y\333\373\316'\0309\352"
 600      7C0B25F2 
 600      36C65F62 
 600      BC59DBFB 
 600      CE271839 
 601 0bd1 F4327871 		.ascii	"\3642xq\357XH\216h&\244&vA\356:Vz\311\376\342\242z\330"
 601      EF58488E 
 601      6826A426 
 601      7641EE3A 
 601      567AC9FE 
 602 0be9 E538F485 		.ascii	"\3458\364\205\244\333\305N\025);\246s\3657>\335\324"
 602      A4DBC54E 
 602      15293BA6 
 602      73F5373E 
 602      DDD4
 603 0bfb 76AD2CB7 		.ascii	"v\255,\267\012\210\265\350=\256h\226|\277X\203#\011"
 603      0A88B5E8 
 603      3DAE6896 
 603      7CBF5883 
 603      2309
 604 0c0d EBB0C8B7 		.ascii	"\353\260\310\267\2721\256~\346\347'\1779\015\221\277"
 604      BA31AE7E 
 604      E6E7277F 
 604      390D91BF 
 605 0c1d E51AE7EE 		.ascii	"\345\032\347\356\031\315\272)Yf<\334\255W\346\2731R"
 605      19CDBA29 
 605      59663CDC 
 605      AD57E6BB 
 605      3152
 606 0c2f 5273C41F 		.ascii	"Rs\304\037lA\233\262\033{\340\320t\273`Z\241L\252\231"
 606      6C419BB2 
 606      1B7BE0D0 
 606      74BB605A 
 606      A14CAA99 
 607 0c43 65F338DB 		.ascii	"e\3638\333\362\265\027\036\331\200,;\200\312\277;]\257"
 607      F2B5171E 
 607      D9802C3B 
 607      80CABF3B 
 607      5DAF
ARM GAS  /tmp/ccftiQnV.s 			page 48


 608 0c55 8BCA9E45 		.ascii	"\213\312\236E\\\027y\374\350\303<\0151_u\002I\356~\264"
 608      5C1779FC 
 608      E8C33C0D 
 608      315F7502 
 608      49EE7EB4 
 609 0c69 1A27A7AA 		.ascii	"\032'\247\252\267c\352\246IB=VvD\257\015\313\277\330"
 609      B763EAA6 
 609      49423D56 
 609      7644AF0D 
 609      CBBFD8
 610 0c7c FD14D586 		.ascii	"\375\024\325\206#\\\332\260z\373T\256)\321<\267Z}\021"
 610      235CDAB0 
 610      7AFB54AE 
 610      29D13CB7 
 610      5A7D11
 611 0c8f 56BF2083 		.ascii	"V\277 \203T_\257\257~\303\351\013\317\323\352\353\271"
 611      545FAFAF 
 611      7EC3E90B 
 611      CFD3EAEB 
 611      B9
 612 0ca0 AA3FB173 		.ascii	"\252?\261s\262\2212\232\314ZU\361}q\255\375\\\254\344"
 612      B291329A 
 612      CC5A55F1 
 612      7D71ADFD 
 612      5CACE4
 613 0cb3 0C2AD0A5 		.ascii	"\014*\320\245\014\275\370^`\327\355\005e7\237\321\337"
 613      0CBDF85E 
 613      60D7ED05 
 613      65379FD1 
 613      DF
 614 0cc4 9B31EA53 		.ascii	"\2331\352S\322_h\346\246\027>BI\2514\334\261\215\250"
 614      D25F68E6 
 614      A6173E42 
 614      49A934DC 
 614      B18DA8
 615 0cd7 55E2EB3B 		.ascii	"U\342\353;\261GP\260F\0360\013\313\376#\0136\264\271"
 615      B14750B0 
 615      461E300B 
 615      CBFE230B 
 615      36B4B9
 616 0cea 5D302D65 		.ascii	"]0-e\267X\260\267x\300,NX\336f\301F\331\006\323Rv\227"
 616      B758B0B7 
 616      78C02C4E 
 616      58DE66C1 
 616      46D906D3 
 617 0d01 057B9B07 		.ascii	"\005{\233\007\314\342\204\345}\026l\202m0-e\017X\260"
 617      CCE284E5 
 617      7D166C82 
 617      6D302D65 
 617      0F58B0
 618 0d14 293C603E 		.ascii	")<`>s\312\306\357a\300\246\333\006\323R6\221\005\233"
 618      73CAC6EF 
 618      61C0A6DB 
 618      06D35236 
 618      91059B
 619 0d27 CD0366B1 		.ascii	"\315\003f\261\026=\231\005\233o\033LK\331\273,\330\373"
 619      163D9905 
ARM GAS  /tmp/ccftiQnV.s 			page 49


 619      9B6F1B4C 
 619      4BD9BB2C 
 619      D8FB
 620 0d39 3C6046E7 		.ascii	"<`F\347\034\325\303\267,\330G\266\301\264\224\315`\301"
 620      1CD5C3B7 
 620      2CD847B6 
 620      C1B494CD 
 620      60C1
 621 0d4b 3EE1017B 		.ascii	">\341\001{\316\234\262Y,\330r\333`Z\312\226\261`\253"
 621      CE9CB259 
 621      2CD872DB 
 621      605ACA96 
 621      B160AB
 622 0d5e 78C05E34 		.ascii	"x\300^4\247l\005\013\266\3066\230\226\262\317X\260u"
 622      A76C050B 
 622      B6C63698 
 622      96B2CF58 
 622      B075
 623 0d70 3C60DDCD 		.ascii	"<`\335\315)\373\234\005\333h\033LK\331\032\026l\023"
 623      29FB9C05 
 623      DB681B4C 
 623      4BD91A16 
 623      6C13
 624 0d82 0F581F73 		.ascii	"\017X\037s\312\326\262`\233m\203i)[\317\202\325\360"
 624      CAD6B260 
 624      9B6D8369 
 624      295BCF82 
 624      D5F0
 625 0d94 80BD624E 		.ascii	"\200\275bN\331F\026l\273m0-e\273X\260\235<`\257\031"
 625      D946166C 
 625      BB6D302D 
 625      65BB58B0 
 625      9D3C60AF 
 626 0da9 5016FB98 		.ascii	"P\026\373\230\371\231'\034\214\257\276\247\271\352\340"
 626      F999271C 
 626      8CAFBEA7 
 626      B9EAE0
 627 0db8 D81CA385 		.ascii	"\330\034\243\2058\306\201\346v=2M\273\211o\375\350Z"
 627      38C681E6 
 627      763D324D 
 627      BB896FFD 
 627      E85A
 628 0dca 659CA7CE 		.ascii	"e\234\247\316\352Q\036D\213\001P9\310O\301\316\330\006"
 628      EA511E44 
 628      8B015039 
 628      C84FC1CE 
 628      D806
 629 0ddc D3A9728D 		.ascii	"\323\251r\215~:\302u\310g!\347ag31\315u2b\272\304\323"
 629      7E3AC275 
 629      C86721E7 
 629      61673331 
 629      CD753262 
 630 0df3 068B71F7 		.ascii	"\006\213q\367D\315,\334A\343?e\266|\355n\305{\177\017"
 630      44CD2CDC 
 630      41E33F65 
 630      B67CED6E 
 630      C57B7F0F 
ARM GAS  /tmp/ccftiQnV.s 			page 50


 631 0e07 37A56E34 		.ascii	"7\245n4\327\273\1773\364\336{\222\003M\222p_\337\012"
 631      D7BB7F33 
 631      F4DE7B92 
 631      034D9270 
 631      5FDF0A
 632 0e1a A37D25F3 		.ascii	"\243}%\363\001\037\024\345\360\343\325Key\270\333N;"
 632      011F14E5 
 632      F0E3D54B 
 632      6579B8DB 
 632      4E3B
 633 0e2c B629ED58 		.ascii	"\266)\355X\204\355\030\321\342\247\267cl\013\273\355"
 633      84ED18D1 
 633      E2A7B763 
 633      6C0BBBED 
 634 0e3c 68AF6BC7 		.ascii	"h\257k\307\246\366\366\333qXi\307'\330\216\311\377\204"
 634      A6F6F6DB 
 634      715869C7 
 634      27D88EC9 
 634      FF84
 635 0e4e 76CCB2DD 		.ascii	"v\314\262\335\016\366\231)\234J=M\247R\\+\336+\234\272"
 635      0EF69929 
 635      9C4A3D4D 
 635      A7525C2B 
 635      DE2B9CBA 
 636 0e62 15EFC3B5 		.ascii	"\025\357\303\265\242\217f'\233\303\310\321\206Zf\376"
 636      A28F6627 
 636      9BC3C8D1 
 636      865A66FE 
 637 0e72 29F3CD3F 		.ascii	")\363\315?\257)\034[\205\034{O\3071~\244\206#\233\227"
 637      AF291C5B 
 637      851C7B4F 
 637      C7317EA4 
 637      86239B97 
 638 0e86 2B0759D7 		.ascii	"+\007Y\327 \324G)C\255<\261\232\036\336\\\207@\313\023"
 638      20D44729 
 638      43AD3CB1 
 638      9A1EDE5C 
 638      8740CB13 
 639 0e9a A4E8D609 		.ascii	"\244\350\326\011\321\255\025\"|%5\335&\323a\361\357"
 639      D1AD1522 
 639      7C2535DD 
 639      26D361F1 
 639      EF
 640 0eab 4A0EF9E2 		.ascii	"J\016\371\342\021\376\277\227\003\227\003\311'\002\264"
 640      11FEBF97 
 640      039703C9 
 640      2702B4
 641 0eba 397AC415 		.ascii	"9z\304\025\350w\325\212\345\247B\372\362'!\016\213\256"
 641      E877D58A 
 641      E5A742FA 
 641      F227210E 
 641      8BAE
 642 0ecc 1C335BD9 		.ascii	"\0343[\331\027y\001\207\344\237\010\267{\273\375U\217"
 642      17790187 
 642      E49F08B7 
 642      7BBBFD55 
 642      8F
ARM GAS  /tmp/ccftiQnV.s 			page 51


 643 0edd 4DEDA8D6 		.ascii	"M\355\250\326m\306\006\355I\220pJ\253\036\307SmH\354"
 643      6DC606ED 
 643      4990704A 
 643      AB1EC753 
 643      6D48EC
 644 0ef0 230967F5 		.ascii	"#\011g\365\335\335\326\024\211H\353\316\323\234+'\261"
 644      DDDDD614 
 644      8948EBCE 
 644      D39C2B27 
 644      B1
 645 0f01 F5B80B6D 		.ascii	"\365\270\013m\267\322\3658'Y\217\273\240c\006\307\012"
 645      B7D2F538 
 645      27598FBB 
 645      A06306C7 
 645      0A
 646 0f12 CC6D4AB4 		.ascii	"\314mJ\2643a=n\367#\312z\234\223k\005\246J\325\013\272"
 646      33613D6E 
 646      F723CA7A 
 646      9C936B05 
 646      A64AD50B 
 647 0f27 CCB6C721 		.ascii	"\314\266\307!)\260\251\362S#\3028}\001q\247\223\014"
 647      29B0A9F2 
 647      5323C238 
 647      7D0171A7 
 647      930C
 648 0f39 FCBB9C9A 		.ascii	"\374\273\234\232\205\330\177\264\264\313{\037\313\373"
 648      85D87FB4 
 648      B4CB7B1F 
 648      CBFB
 649 0f47 E8BDEDB3 		.ascii	"\350\275\355\263DB\277\301\242\321\213\254\213\025c"
 649      4442BFC1 
 649      A2D18BAC 
 649      8B1563
 650 0f56 FCC947B6 		.ascii	"\374\311G\266!{\366\"\343'\266\264yvU\022\026`\221\003"
 650      217BF622 
 650      E327B6B4 
 650      79765512 
 650      16609103 
 651 0f6a 898CDFD6 		.ascii	"\211\214\337\326\2162\376\000\027\343\367\0332\376\200"
 651      8E32FE00 
 651      17E3F71B 
 651      32FE80
 652 0f79 7DC63FA1 		.ascii	"}\306?\241>\266\034s\355\002\342>\333`>+)\036`\244x"
 652      3EB61C73 
 652      ED02E23E 
 652      DB603E2B 
 652      291E60A4 
 653 0f8e 08A578D8 		.ascii	"\010\245x\330I\226\300\353\264\262\\\251\227\245\206"
 653      4996C0EB 
 653      B4B25CA9 
 653      97A586
 654 0f9d 734AD2   		.ascii	"sJ\322"
 655 0fa0 74422F47 		.ascii	"tB/G'\355P\367n\251\315\333\310\243\033\026\323\360"
 655      27ED50F7 
 655      6EA9CDDB 
 655      C8A31B16 
 655      D3F0
ARM GAS  /tmp/ccftiQnV.s 			page 52


 656 0fb2 393B9025 		.ascii	"9;\220%\324\336l\266\015\346\323\200m\030\307y\\L\367"
 656      D4DE6CB6 
 656      0DE6D380 
 656      6D18C779 
 656      5C4CF7
 657 0fc5 9CD84EAC 		.ascii	"\234\330N\254\367\224^]\216<\330=R\034\212C\347)\016"
 657      F7945E5D 
 657      8E3CD83D 
 657      521C8A43 
 657      E7290E
 658 0fd8 7D8171FE 		.ascii	"}\201q\376\254\027\317<S\275\035\325JE\265`\265\205"
 658      AC17CF3C 
 658      53BD1DD5 
 658      4A45B560 
 658      B585
 659 0fea B6DCBBA0 		.ascii	"\266\334\273\240\034\241\246S\201\011z\270\2443\025"
 659      1CA1A653 
 659      81097AB8 
 659      A43315
 660 0ff9 2DDC83E0 		.ascii	"-\334\203\340\326\016\251"
 660      D60EA9
 661 1000 3C87173D 		.ascii	"<\207\027=RM<\235\213\330\246\351\255\364#\002\345\014"
 661      524D3C9D 
 661      8BD8A6E9 
 661      ADF42302 
 661      E50C
 662 1012 A388A718 		.ascii	"\243\210\247\030E<\203\212x\026\025\361\034\306\027"
 662      453C838A 
 662      781615F1 
 662      1CC617
 663 1021 58753473 		.ascii	"Xu4s\266\276g\247\017\363m\267\333\247\223\216Y5'\331"
 663      B6BE67A7 
 663      0FF36DB7 
 663      DBA7938E 
 663      593527D9 
 664 1035 6A16B5E2 		.ascii	"j\026\265\342\320=\363U\033b\324\377\254\272\003t\317"
 664      D03DF355 
 664      1B62D4FF 
 664      ACBA0374 
 664      CF
 665 1046 60856D44 		.ascii	"`\205mD\2556_\033\247q\0076\360\300\275h@\240\321\207"
 665      AD365F1B 
 665      A7710736 
 665      F0C0BD68 
 665      40A0D187 
 666 105a DD2502AB 		.ascii	"\335%\002\253\217\033r\273p\313l/\306\3731\256\303x"
 666      8F1B72BB 
 666      70CB6C2F 
 666      C6FB31AE 
 666      C378
 667 106c 060A6E16 		.ascii	"\006\012n\026\306s0^\200\361\207\030\177\214\361r\214"
 667      C673305E 
 667      80F18718 
 667      7F8CF172 
 667      8C
 668 107d B761BC07 		.ascii	"\267a\274\007\343\243\030\037\307\270\036\343\253\030"
 668      E3A3181F 
ARM GAS  /tmp/ccftiQnV.s 			page 53


 668      C7B81EE3 
 668      AB18
 669 108b 5F4FA600 		.ascii	"_O\246\000\312(0\363\203\272G?F[\275\215\256x'h\336"
 669      CA2830F3 
 669      83BA473F 
 669      465BBD8D 
 669      AE782768 
 670 10a0 6E876E0D 		.ascii	"n\207n\015?a\023j|k\216\315<\213\355\226\351\267\316"
 670      3F61136A 
 670      7C6B8ECD 
 670      3C8BED96 
 670      E9B7CE
 671 10b3 BFB96118 		.ascii	"\277\271a\030\225\351ET\353\323N\335\351\302\344\347"
 671      95E94554 
 671      EBD34EDD 
 671      E9C2E4E7 
 672 10c3 86B5423D 		.ascii	"\206\265B=6\307\374\221L\315nJ\354`\330o\342<9\261\270"
 672      36C7FC91 
 672      4CCD6E4A 
 672      EC60D86F 
 672      E23C39B1 
 673 10d8 EEBFE801 		.ascii	"\356\277\350\001\263\273\330\033\367\266N\276E\250\301"
 673      B3BBD81B 
 673      F7B64EBE 
 673      45A8C1
 674 10e7 215C6AD4 		.ascii	"!\\j\324\231\271\350\265\343\364a\315\344&n\304\360"
 674      99B9E8B5 
 674      E3F461CD 
 674      E4266EC4 
 674      F0
 675 10f8 E8CDE393 		.ascii	"\350\315\343\223\025\245\244\333\375'\220\204\306\324"
 675      15A5A4DB 
 675      FD279084 
 675      C6D4
 676 1106 86447276 		.ascii	"\206Drv\3408sv\340\264m0\237\006\3546\013v\216\007\314"
 676      E0387376 
 676      E0B46D30 
 676      9F06EC36 
 676      0B768E07 
 677 111b E264D85D 		.ascii	"\342d\330]\026\354{\333`Z\312\356\263`\227y\300,N\206"
 677      16EC7BDB 
 677      605ACAEE 
 677      B3609779 
 677      C02C4E86 
 678 112f 3D60C16E 		.ascii	"=`\301n\330\006\323R6\376\004\003v\227\007\314\342\300"
 678      D806D352 
 678      36FE0403 
 678      769707CC 
 678      E2C0
 679 1141 CB44166C 		.ascii	"\313D\026lh\033\273`Z\312&\263`\243x\300|\006\224\031"
 679      681BBB60 
 679      5ACA26B3 
 679      60A378C0 
 679      7C069419 
 680 1155 7DD84E10 		.ascii	"}\330N\020\020\037\340 \325\204\326i\250\213\304\303"
 680      101FE020 
 680      D584D669 
ARM GAS  /tmp/ccftiQnV.s 			page 54


 680      A88BC4C3 
 681 1165 317E0BE3 		.ascii	"1~\013\343\221\030\217\302x\014\306oc\374\216\213c "
 681      91188FC2 
 681      780CC66F 
 681      63FC8E8B 
 681      6320
 682 1177 BBC38E30 		.ascii	"\273\303\2160\357\264\341\260F\026+H\323o\355\372??"
 682      EFB4E1B0 
 682      46162B48 
 682      D36FEDFA 
 682      3F3F
 683 1189 E56472FD 		.ascii	"\345dr\375\301\025\265\177!\346#\371\351\344).\276\323"
 683      C115B57F 
 683      21E623F9 
 683      E9E4292E 
 683      BED3
 684 119b C9535DFA 		.ascii	"\311S]\372\243\361;\320\226\220\374\344\356u\003\247"
 684      A3F13BD0 
 684      9690FCE4 
 684      EE7503A7 
 685 11ab BB161559 		.ascii	"\273\026\025Y\356\304la\355\363\324\026\316t\021[X\327"
 685      EEC46C61 
 685      EDF3D416 
 685      CE74115B 
 685      58D7
 686 11bd 26A92DD4 		.ascii	"&\251-\324\342\020\372\346\350\351_\271\023\351\237"
 686      E210FAE6 
 686      E8E95FB9 
 686      13E99F
 687 11cc 939C7E72 		.ascii	"\223\234~r\330v\247\326\026^F\022H\331\324l\341\232"
 687      D876A7D6 
 687      165E4612 
 687      48D9D46C 
 687      E19A
 688 11de 9D8CC25F 		.ascii	"\235\214\302_\265\015\346\323\200\255e\301n\362\200"
 688      B50DE6D3 
 688      80AD65C1 
 688      6EF280
 689 11ed 599D9265 		.ascii	"Y\235\222e\301\356\330\006\323R\266\221\005{\300\003"
 689      C1EED806 
 689      D352B691 
 689      057BC003 
 690 11fd 66754A96 		.ascii	"fuJ\226\005\033\376\220]0\237\221x\205\004\355\010\210"
 690      051BFE90 
 690      5D309F91 
 690      788504ED 
 690      0888
 691 120f 735DC448 		.ascii	"s]\304H\314\303\256\277\000\343\205\030\177\200\361"
 691      CCC3AEBF 
 691      00E38518 
 691      7F80F1
 692 121e 228C17F3 		.ascii	"\"\214\027\363\230\204\031.\306$\214D\202\247\246\246"
 692      9884192E 
 692      C6248C44 
 692      82A7A6A6 
 693 122e 3160120E 		.ascii	"1`\022\016\2568\365\257k\023M\002\345\207\031\005KY"
 693      AE38F5AF 
ARM GAS  /tmp/ccftiQnV.s 			page 55


 693      6B134D02 
 693      E5871905 
 693      4B59
 694 1240 0AC6D9A6 		.ascii	"\012\306\331\246\300\307R\020\275\267\203.\316\253\217"
 694      C0C75210 
 694      BDB7832E 
 694      CEAB8F
 695 124f 864FD2E3 		.ascii	"\206O\322\343\031-\313Z\315Rv\340\233\275(\330\014\333"
 695      192DCB5A 
 695      CD5276E0 
 695      9BBD28D8 
 695      0CDB
 696 1261 60DAB7A1 		.ascii	"`\332\267\241\215\337\311\200-\264\015fv~m\032\352\302"
 696      8DDFC980 
 696      2DB40D66 
 696      767E6D1A 
 696      EAC2
 697 1273 7494F927 		.ascii	"t\224\371'\030/\303x\005\306\237\261Z \011K\036\322"
 697      182FC378 
 697      05C69FB1 
 697      5A20094B 
 697      1ED2
 698 1285 FBADD438 		.ascii	"\373\255\32482\250q+*\360\342\232\311v\022+\333\215"
 698      32A8712B 
 698      2AF0E29A 
 698      C976122B 
 698      DB8D
 699 1297 0F710C38 		.ascii	"\017q\0148>s\355\232~\353\2522\340P`\230\240\333F\324"
 699      3E73ED9A 
 699      7EEBAA32 
 699      E0506098 
 699      A0DB46D4 
 700 12ab 6ACB9413 		.ascii	"j\313\224\023s4'\277ky\360,\216\027\314\242.\002\005"
 700      733427BF 
 700      6B79F02C 
 700      8E17CCA2 
 700      2E0205
 701 12be DB671BCC 		.ascii	"\333g\033\314'\230~\330\307\276\002\342e|R\342\007|"
 701      27987ED8 
 701      C7BE02E2 
 701      657C52E2 
 701      077C
 702 12d0 78F601C6 		.ascii	"x\366\001\306[qj\324\200N\303m\214'\242\224\326`\274"
 702      5B716AD4 
 702      804EC36D 
 702      8C27A294 
 702      D660BC
 703 12e3 16E3F53C 		.ascii	"\026\343\365<\022;\317\236><\216M8\233\352c\322\365"
 703      123BCF9E 
 703      3E3C8E4D 
 703      389BEA63 
 703      D2F5
 704 12f5 0D7B0FCE 		.ascii	"\015{\017\316\027'\321\027\2365\341C\355\247m#j%v\213"
 704      1727D117 
 704      9E35E143 
 704      EDA76D23 
 704      6A25768B 
ARM GAS  /tmp/ccftiQnV.s 			page 56


 705 1309 2E5951B0 		.ascii	".YQ\260\013<`F\235\233a+e\350w\310\320s\310\312/\220"
 705      0B3C6046 
 705      9D9B612B 
 705      65E877C8 
 705      D073C8CA 
 706 131f 599BB4DD 		.ascii	"Y\233\264\335\346JB\267\241O\0142H\361G\013\005+,3\306"
 706      E64A42B7 
 706      A14F0C32 
 706      48F1470B 
 706      052B2C33 
 707 1334 9F8C333E 		.ascii	"\237\2143> \326\340b\234\235g.\265lj\252Q\315 }\373"
 707      20D6E062 
 707      9C9D672E 
 707      B56C6AAA 
 707      51CD207D 
 708 1349 CC1D243F 		.ascii	"\314\035$?\311S\262\374o\341j`\336\302u\033\367f\357"
 708      C953B2FC 
 708      6FE16A60 
 708      DEC2751B 
 708      F766EF
 709 135c D0776E61 		.ascii	"\320wna\243\017a|\024\343\343\030\327c\274\231\207\015"
 709      A30F617C 
 709      14E3E318 
 709      D763BC99 
 709      870D
 710 136e 37D8C7BC 		.ascii	"7\330\307\274G=L\310\276\222\362c\336\215{\336m\217"
 710      473D4CC8 
 710      BE92F263 
 710      DE8D7BDE 
 710      6D8F
 711 1380 AFAEA07A 		.ascii	"\257\256\240z\015\303\213m@-_\217]\335J\327\300\310"
 711      0DC38B6D 
 711      402D5F8F 
 711      5DDD4AD7 
 711      C0C8
 712 1392 ABBE6074 		.ascii	"\253\276`t\341\201\263\030]N\234_C_\335I\2454S\017\227"
 712      E181B318 
 712      5D4E9C5F 
 712      435FDD49 
 712      A534530F 
 713 13a7 7448D052 		.ascii	"tH\320Rw\365\337\247uP\261\026\332\306jo%\361+\214\304"
 713      77F5DFA7 
 713      7550B116 
 713      DAC66A6F 
 713      25F12B8C 
 714 13bc AFA1C4AF 		.ascii	"\257\241\304\257\243\304kP\301\267a\274\035\343oy\244"
 714      A3C46B50 
 714      C1B761BC 
 714      1DE36F79 
 714      A4
 715 13cd 7CF127BE 		.ascii	"|\361'\276\213\253\372\364\236\317D\352n\357Bw{\355"
 715      8BABFAF4 
 715      9ECF44EA 
 715      6EEF4277 
 715      7BED
 716 13df C349DD6D 		.ascii	"\303I\335m\375*k\015\026\331\253w\271o\274\346\243\271"
 716      FD2A6B0D 
ARM GAS  /tmp/ccftiQnV.s 			page 57


 716      16D9AB77 
 716      B96FBCE6 
 716      A3B9
 717 13f1 1C13861F 		.ascii	"\034\023\206\037\025m\270\210\332\260'\006\230\222\266"
 717      156DB888 
 717      DAB02706 
 717      9892B6
 718 1400 46EF5C62 		.ascii	"F\357\\b\224+ \326\272$\233pZm\270w~k\302{\2544/cK\220"
 718      942B20D6 
 718      BA249B70 
 718      5A6DB877 
 718      7E6BC27B 
 719 141a 4A1D3B5A 		.ascii	"J\035;Z\037\340i\215\205n7\236\321\350\366q=\234M\335"
 719      1FE0698D 
 719      856E379E 
 719      D1E8F671 
 719      3D9C4DDD 
 720 142e 9E70332A 		.ascii	"\236p3*\312\2433\324\323\377\027\365pIO\377w\260R\357"
 720      CAA333D4 
 720      D3FF17F5 
 720      70494FFF 
 720      77B052EF 
 721 1442 BD8C6BBD 		.ascii	"\275\214k\275\037\335\251\003\250\314\2070>\214\361"
 721      1FDDA903 
 721      A8CC8730 
 721      3E8CF1
 722 1451 518C8FF3 		.ascii	"Q\214\217\363\250\367\3168#\037\027\346\310\321\253"
 722      A8F7CE38 
 722      231F17E6 
 722      C8D1AB
 723 1460 F5FBCF7D 		.ascii	"\365\373\317}\337v\011\361]\344\007M\177\037:L\324="
 723      DF7609F1 
 723      5DE4074D 
 723      7F1F3A4C 
 723      D43D
 724 1472 F4EAB478 		.ascii	"\364\352\264x\313\242K\363\320\253\341\\;\331\336\341"
 724      CBA24BF3 
 724      D0ABE15C 
 724      3BD9DEE1 
 725 1482 EC8BD71F 		.ascii	"\354\213\327\037\241\275\345\014\366\226\343?3\336\302"
 725      A1BDE50C 
 725      F696E33F 
 725      33DEC2
 726 1491 B23C7270 		.ascii	"\262<rpN\337SV\321G\347\317q\365\225\352-\037s\277\373"
 726      4EDF5356 
 726      D147E7CF 
 726      71F595EA 
 726      2D1F73BF 
 727 14a6 4DD7516F 		.ascii	"M\327Qo\374\314\370\335o\232\333\300A\302\376rYO\345"
 727      FCCCF8DD 
 727      6F9ADBC0 
 727      41C2FE72 
 727      594FE5
 728 14b9 A42AA4F2 		.ascii	"\244*\244\3622\027\225S\266$y\367\033\377\346\365\352"
 728      32179553 
 728      B62479F7 
 728      1BFFE6F5 
ARM GAS  /tmp/ccftiQnV.s 			page 58


 728      EA
 729 14ca EBA7FEFC 		.ascii	"\353\247\376\374).\030_w\341\316\324\317\365\036\204"
 729      292E185F 
 729      77E1CED4 
 729      CFF51E84 
 730 14da 4BB777ED 		.ascii	"K\267w\355\322\356]\273\274\361\204\262wm&\232k.\213"
 730      D2EE5DBB 
 730      BCF184B2 
 730      776D269A 
 730      6B2E8B
 731 14ed 372C292F 		.ascii	"7,)/9\212}\277N\353\345z9\314U\027\343\224,\221T\006"
 731      398A7DBF 
 731      4EEBE57A 
 731      39CC5517 
 731      E3942C91 
 732 1503 A7361ACF 		.ascii	"\2476\032\317\276\270\247-:\203V\217\177\023\352\314"
 732      BEB8A72D 
 732      3A83568F 
 732      7F13EACC 
 733 1513 A8B96BD5 		.ascii	"\250\271k\325\314\351?\241\231w\330f\316\267\335L\037"
 733      CCE93FA1 
 733      9977D866 
 733      CEB7DD4C 
 733      1F
 734 1524 DBCCE4EF 		.ascii	"\333\314\344\357]Ze\321\333e\267E\023g\330x/U\023k\313"
 734      5D5A65D1 
 734      DB65B745 
 734      1367D878 
 734      2F55136B 
 735 1539 BF46DD4B 		.ascii	"\277F\335K\322\244d/\323K\265IU\006M\342j\302[n\335"
 735      D2A4642F 
 735      D34BB549 
 735      55064DE2 
 735      6AC25B6E 
 736 154e FEC936DB 		.ascii	"\376\3116\333\315\360\011\332O\334?\277\202\326\374"
 736      CDF009DA 
 736      4FDC3FBF 
 736      82D6FC
 737 155d 36C60F30 		.ascii	"6\306\0170\036\341\346\331\012d5e#j\3129\373\035\302"
 737      1EE1E6D9 
 737      0A643565 
 737      236ACA39 
 737      FB1DC2
 738 1570 E8C31A58 		.ascii	"\350\303\032XpWq\020\272\3003\330\234\216\223\024c1"
 738      70577110 
 738      BAC033D8 
 738      9C8E9314 
 738      6331
 739 1582 73E091B2 		.ascii	"s\340\221\262\356[\235\365\371\215\360\236,O\304a\351"
 739      EE5B9DF5 
 739      F98DF09E 
 739      2C4FC461 
 739      E9
 740 1593 7B225D0A 		.ascii	"{\"]\012\003\243>\336W\357z\334\260:\2452ZX\236\012"
 740      03A33EDE 
 740      57EF7ADC 
 740      B03AA532 
ARM GAS  /tmp/ccftiQnV.s 			page 59


 740      5A589E0A 
 741 15a7 733191D6 		.ascii	"s1\221\326%\011uI\012*\024\375w\341}\2427\007\317\364"
 741      25097549 
 741      0A2A14FD 
 741      77E17DA2 
 741      3707CFF4 
 742 15bb E9AEBCCC 		.ascii	"\351\256\274\314\303\274\220\322\276\321n\211m\013\016"
 742      C3BC90D2 
 742      BED16E89 
 742      6D0B0E
 743 15ca A8F5F58D 		.ascii	"\250\365\365\215\267j\1779m\305<:\240\212\2116Z\346"
 743      B76A7F39 
 743      6DC53C3A 
 743      A08A8936 
 743      5AE6
 744 15dc 7A8FE091 		.ascii	"z\217\340\221\217\177\213'\310&\272\211\211\276\244"
 744      8F7F8B27 
 744      C826BA89 
 744      89BEA4
 745 15eb 63123FD0 		.ascii	"c\022?\320\312\023\2633\351;\025\021\350F\202\255\027"
 745      CA13B333 
 745      E93B1511 
 745      E84682AD 
 745      17
 746 15fc 74B65ED0 		.ascii	"t\266^\320\332z\370*7)\037z4\014r\376.\244T\306LO&("
 746      DA7AF82A 
 746      37291F7A 
 746      340C72FE 
 746      2EA454C6 
 747 1614 FD30DEF7 		.ascii	"\3750\336\367$\341\276\216PE@\343){\227.\222\035\224"
 747      24E1BE8E 
 747      504540E3 
 747      297B972E 
 747      921D94
 748 1627 37A4D478 		.ascii	"7\244\324x\367\343\206,P@\247\031\211)\372n\355\330"
 748      F7E3862C 
 748      5040A719 
 748      8929FA6E 
 748      EDD8
 749 1639 B4F143EB 		.ascii	"\264\361C\353\233\232\036\327Y\014\202jF\351LwR\227"
 749      9B9A1ED7 
 749      590C826A 
 749      46E94C77 
 749      5297
 750 164b 27E97A7C 		.ascii	"'\351z|\365\351/\253\224\031\302\0347\361y\306\375\302"
 750      F5E92FAB 
 750      9419C21C 
 750      37F179C6 
 750      FDC2
 751 165d E682BC24 		.ascii	"\346\202\274$L\303\"\363\335:\217bn\300Gs\223\373\023"
 751      4CC322F3 
 751      DD3A8F62 
 751      6EC04773 
 751      93FB13
 752 1670 2BEF305E 		.ascii	"+\3570^+\314\226\360\365\264\244\250\205\327J?\206>"
 752      2BCC96F0 
 752      F5B4A4A8 
ARM GAS  /tmp/ccftiQnV.s 			page 60


 752      85D74A3F 
 752      863E
 753 1682 F5AACBCA 		.ascii	"\365\252\313\312\014\241\016;\353\274\030}\251\315\020"
 753      0CA10E3B 
 753      EBBC187D 
 753      A9CD10
 754 1691 567FA29C 		.ascii	"V\177\242\234\350\330\211p\357\363\300Yx\374\325\027"
 754      E8D88970 
 754      EFF3C059 
 754      78FCD517 
 755 16a1 12271C46 		.ascii	"\022'\034F[\300\277V\261\0262\356Ru\3257\364\355\304"
 755      5BC0BF56 
 755      B11632EE 
 755      5275D537 
 755      F4EDC4
 756 16b4 4B505A1F 		.ascii	"KPZ\037'\227\226\016\007\227\222\365\242\332K_O\274"
 756      2797960E 
 756      079792F5 
 756      A2DA4B5F 
 756      4FBC
 757 16c6 944B58FB 		.ascii	"\224KX\373\350Iw:\265_\206\004,\265\301[-\330\301\232"
 757      E849773A 
 757      B55F8604 
 757      2CB5C15B 
 757      2DD8C19A 
 758 16da AFA8E437 		.ascii	"\257\250\3447\213q\311/\265!y\255\250\016\3250\3770"
 758      8B71C92F 
 758      B52179AD 
 758      A80ED530 
 758      FF30
 759 16ec B1524F5B 		.ascii	"\261RO[\322w\012i\376\237!Z\307\202\255\261\015\366"
 759      D2770A69 
 759      FE9F215A 
 759      C782ADB1 
 759      0DF6
 760 16fe 9C06ECD8 		.ascii	"\234\006\354\330\310\261\312\032*}o\375z\036\306Yh\321"
 760      C8B1CA1A 
 760      2A7D6FFD 
 760      7A1EC659 
 760      68D1
 761 1710 F1F84BF0 		.ascii	"\361\370K\360\003\342>=\333xG|uE\204}\243\376&\036\312"
 761      03E23E3D 
 761      DB78477C 
 761      7545847D 
 761      A3FE261E 
 762 1725 2C9E84B8 		.ascii	",\236\204\270\316\202m\265\015\246\245\354G\026l\007"
 762      CE826DB5 
 762      0DA6A5EC 
 762      47166C07 
 763 1735 0F98C523 		.ascii	"\017\230\305#\011\267Y\260}\266\301\264\224\335MxFC"
 763      09B759B0 
 763      7DB6C1B4 
 763      94DD4D78 
 763      4643
 764 1747 F3D70109 		.ascii	"\363\327\001\011\326\372+7\343i\036\343\251\334g\326"
 764      D6FA2B37 
 764      E3691EE3 
ARM GAS  /tmp/ccftiQnV.s 			page 61


 764      A9DC67D6 
 765 1757 12393ABB 		.ascii	"\0229:\2736\035\027\015\310\277\021H\302Y=\232\034\203"
 765      361D170D 
 765      C8BF1148 
 765      C2593D9A 
 765      1C83
 766 1769 9393ACF0 		.ascii	"\223\223\254\360\033}X\003\021\020?u\023\027k\231\033"
 766      1B7D5803 
 766      11103F75 
 766      13176B99 
 766      1B
 767 177a B734305E 		.ascii	"\26740^\211\361*\214Wc\\\215\361Z\214\327c\274\021\343"
 767      89F12A8C 
 767      57635C8D 
 767      F15A8CD7 
 767      63BC11E3 
 768 178e 28C65F62 		.ascii	"(\306_b\3745\217\337\270\230e\322\005\333\206V#!\030"
 768      FC358FDF 
 768      B89865D2 
 768      05DB8656 
 768      232118
 769 17a1 DBBE3FAB 		.ascii	"\333\276?\253\376\217\010\335k\370\201\007\321B\265"
 769      FE8F08DD 
 769      6BF88107 
 769      D142B5
 770 17b0 375CD02C 		.ascii	"7\\\320,\326\334\322\303\031\331\004\376\215\313\371"
 770      D6DCD2C3 
 770      19D904FE 
 770      8DCBF9
 771 17bf 0CD7DF43 		.ascii	"\014\327\337C\256/D\316\275\217\361\207\030\177\204"
 771      AE2F44CE 
 771      BD8FF187 
 771      187F84
 772 17ce F156     		.ascii	"\361V"
 773 17d0 8C6B7938 		.ascii	"\214ky8:\333\315x\342\314lB\022\356\351\306\016\305"
 773      3ADBCD78 
 773      E2CC6C42 
 773      12EEE9C6 
 773      0EC5
 774 17e2 D76DBC55 		.ascii	"\327m\274U\327~+\365uIYIx\247-\271o\206\333\314eUj\240"
 774      D77E2BF5 
 774      75495949 
 774      78A72DB9 
 774      6F86DBCC 
 775 17fa 1E91BCFC 		.ascii	"\036\221\274\374h\237\266qgh\206\2653\364M\24234\257"
 775      689FB671 
 775      676886B5 
 775      33F44DA2 
 775      3334AF
 776 180d 3E7AB468 		.ascii	">z\264h\253|\025&\3626\\\241\335\372\311\023\031\252"
 776      AB7C1526 
 776      F2365CA1 
 776      DDFAC913 
 776      19AA
 777 181f 635F9405 		.ascii	"c_\224\005\273\330weY\225\327o\312Qk;\304\034w>\270"
 777      BBD87765 
 777      5995D76F 
ARM GAS  /tmp/ccftiQnV.s 			page 62


 777      CA516B3B 
 777      C41C773E 
 778 1834 60EFA3F4 		.ascii	"`\357\243\364\320\375A\034\211\267\265M\3567i\201\002"
 778      D0FD411C 
 778      89B7B54D 
 778      EE376981 
 778      02
 779 1845 E2613731 		.ascii	"\342a71\333u\372\321\370\016}\015\177\035\327h\334X"
 779      DB75FAD1 
 779      F80E7D0D 
 779      7F1DD768 
 779      DC58
 780 1857 B330D53F 		.ascii	"\2630\325?\0138\320\226\353\317\002N \225\365\011>\003"
 780      0B38D096 
 780      EBCF024E 
 780      2095F509 
 780      3E03
 781 1869 A5B29E8B 		.ascii	"\245\262\236\213\312\3755\212\013EVJ\324%\222\372T\275"
 781      CAFD358A 
 781      0B45564A 
 781      D42592FA 
 781      54BD
 782 187b 06F5C59B 		.ascii	"\006\365\305\233w\020l\276m0\237\021X\023\202\015ws"
 782      77106CBE 
 782      6D309F11 
 782      5813820D 
 782      7773
 783 188d 80257F9F 		.ascii	"\200%\177\237>\235\223\377\3036\230\001e\251\256'\234"
 783      3E9D93FF 
 783      C3369801 
 783      65A9AE27 
 783      9C
 784 189e E75822B1 		.ascii	"\347X\"\261\375~\375\033\237\236\374@y,\351\022N\341"
 784      FD7EFD1B 
 784      9F9EFC40 
 784      792CE912 
 784      4EE1
 785 18b0 BED3A97D 		.ascii	"\276\323\251}J\317\232\010\234\2135\347\330\321\341"
 785      4ACF9A08 
 785      9C8B35E7 
 785      D8D1E1
 786 18bf 2AD69C84 		.ascii	"*\326\234\204\271\026\357k\207\016\374\253\244\313l"
 786      B916EF6B 
 786      870EFCAB 
 786      A4CB6C
 787 18ce 560CBE6E 		.ascii	"V\014\276n\305\340Kn\3765\250kl\263n\332n\226M\235\261"
 787      C5E04B6E 
 787      FE35A86B 
 787      6CB36EDA 
 787      6E964D9D 
 788 18e3 5A39BC6D 		.ascii	"Z9\274m\325$\223\005\322\224\232\334\3006\371.O\223"
 788      D5249305 
 788      D2949ADC 
 788      C036F92E 
 788      4F93
 789 18f5 7FCA1BDC 		.ascii	"\177\312\033\334\255\232,{\354/\226\246\324\344&\266"
 789      AD9A2C7B 
ARM GAS  /tmp/ccftiQnV.s 			page 63


 789      EC2F96A6 
 789      D4E426B6 
 790 1905 C9431FB1 		.ascii	"\311C\037\261\333d\237\240\375\304\227\350N\2413p\032"
 790      DB649FA0 
 790      FDC497E8 
 790      4EA13370 
 790      1A
 791 1916 E333189F 		.ascii	"\3433\030\237\305\370;\214\257b|\013\343\007<\016\303"
 791      C5F83B8C 
 791      AF627C0B 
 791      E3073C0E 
 791      C3
 792 1927 3177C2D2 		.ascii	"1w\302\322]]\212\206Z\216> N2\357\366\313\234\305\367"
 792      5D5D8A86 
 792      5A8E3E20 
 792      4E32EFF6 
 792      CB9CC5F7 
 793 193b 1EC1B9ED 		.ascii	"\036\301\271\355H\017\031Q7>bs\367E\022\276\305\"\243"
 793      480F1951 
 793      373E6273 
 793      F74512BE 
 793      C522A3
 794 194e 3DBAA16A 		.ascii	"=\272\241ju\025\276\323\224\344s\354\300p\276\274x^"
 794      7515BED3 
 794      94E473EC 
 794      C070BEBC 
 794      785E
 795 1960 6C15E461 		.ascii	"l\025\344a!\376\320E\243\350\013\210\357 \375u\306\364"
 795      21FED045 
 795      A3E80B88 
 795      EF20FD75 
 795      C6F4
 796 1972 9B6348C2 		.ascii	"\233cH\302E,2QO\377M\262\2222\221\213\372\006\365\351"
 796      452C3251 
 796      4FFF4DB2 
 796      9232918B 
 796      FA06F5E9 
 797 1986 93711EE2 		.ascii	"\223q\036\342\273\335\215\001\2464\320F\357\343\013"
 797      BBDD8D01 
 797      A634D046 
 797      EFE30B
 798 1995 FCE9932C 		.ascii	"\374\351\223,\303\332\331\305\362i\260&lQ\237A\242\217"
 798      C3DAD9C5 
 798      F269B026 
 798      6C519F41 
 798      A28F
 799 19a7 0D8DE3C1 		.ascii	"\015\215\343\301\263\230\001O&g\\\354<%\271MyJr\226"
 799      B398014F 
 799      26675CEC 
 799      3C25B94D 
 799      794A7296 
 800 19bb 07FF19B3 		.ascii	"\007\377\031\263\335?a\344\222\204\367m\267B\303\225"
 800      DD3F61E4 
 800      9284F76D 
 800      B742C395 
 801 19cb FAB98B4F 		.ascii	"\372\271\213O\267U\037@\241\204-\345A4\032\330\214>"
 801      B7551F40 
ARM GAS  /tmp/ccftiQnV.s 			page 64


 801      A1842DE5 
 801      41341AD8 
 801      8C3E
 802 19dd AC3605C4 		.ascii	"\2546\005\304\311\0362\253\230\342!\306`*\306\3231\236"
 802      C91E32AB 
 802      98E221C6 
 802      602AC6D3 
 802      319E
 803 19ef 89F13C0F 		.ascii	"\211\361<\017\207y z\245|$aM;\265\277\331T/cRG3\244"
 803      8779207A 
 803      A57C2461 
 803      4D3BB5BF 
 803      D9542F63 
 804 1a07 8E4552DF 		.ascii	"\216ER\337fI\222\204(\326g\307\034i\231}p\301\275\307"
 804      66499284 
 804      28D667C7 
 804      1C69997D 
 804      70C1BDC7 
 805 1a1b 6F0C93A7 		.ascii	"o\014\223\247u\340~\255w\364\256[\202\031\230\007\337"
 805      75E07EAD 
 805      77F4AE5B 
 805      82199807 
 805      DF
 806 1a2c E8ADD318 		.ascii	"\350\255\323\030\3167z/\362\350\336\350}\203\276\321"
 806      CE377A2F 
 806      F2E8DEE8 
 806      7D83BED1 
 807 1a3c 9BE45B74 		.ascii	"\233\344[th\345\305\333\273\332%\276\321\273\256\235"
 807      68E5C5DB 
 807      BBDA25BE 
 807      D1BBAE9D 
 808 1a4c E11BBD4F 		.ascii	"\341\033\275O\265\323\276\321[\341\202\345;\272\343"
 808      B5D3BED1 
 808      5BE182E5 
 808      3BBAE3
 809 1a5b C4C1DC12 		.ascii	"\304\301\334\022Y\276\330c\375\216\356:\353\351\256"
 809      59BED863 
 809      FD8EEE3A 
 809      EBE9AE
 810 1a6a F97339D1 		.ascii	"\371s9\321\246\032\362\234\035\357S3\253W_T\236$Z\216"
 810      A61AF29C 
 810      1DEF5333 
 810      AB575F54 
 810      9E245A8E 
 811 1a7e E674C12F 		.ascii	"\346t\301/\223\233S\003\0340;\370R\310\317\020d\231"
 811      939B5303 
 811      1C303BF8 
 811      52C8CF10 
 811      6499
 812 1a90 5D104958 		.ascii	"]\020IX\207EV\353m\362\006\272_\276\232\303*\223\267"
 812      874556EB 
 812      6DF206BA 
 812      5FBE9AC3 
 812      2A93B7
 813 1aa3 E7D34769 		.ascii	"\347\323Gi\325g\0147\3070\225J_d\331\227\334,\357\242"
 813      D5670C37 
 813      C730954A 
ARM GAS  /tmp/ccftiQnV.s 			page 65


 813      5F64D997 
 813      DC2CEFA2 
 814 1ab7 C7FBE88E 		.ascii	"\307\373\350\216\371\016=\230M;\2727\366\270\354t<\374"
 814      F90E3D98 
 814      4D3BBA37 
 814      F6B8EC74 
 814      3CFC
 815 1ac9 75C8369E 		.ascii	"u\3106\236\246\223E\367Q\342(\330I\0360\213\025\227"
 815      A69345F7 
 815      51E228D8 
 815      491E308B 
 815      1597
 816 1adb 432CD839 		.ascii	"C,\3309\333`Z\312\352X\260+<`\026\213\211\307\224\341"
 816      DB605ACA 
 816      EA58B02B 
 816      3C60168B 
 816      89C794E1 
 817 1aef 2CC597B4 		.ascii	",\305\227\264o\365\230o\336Pm5+Y\3531^\3211\037\373"
 817      6FF5986F 
 817      DE506D35 
 817      2B59EB31 
 817      5ED1311F 
 818 1b04 A253A903 		.ascii	"\242S\251\003T\203>A\203\256\017\350\252&\204\231U\375"
 818      54833E41 
 818      83AE0FE8 
 818      AA268499 
 818      55FD
 819 1b16 ADC7FCC5 		.ascii	"\255\307\374\305\250\272\337\300\307}\324.\203\265\322"
 819      A8BADFC0 
 819      C77DD42E 
 819      83B5D2
 820 1b25 3A51A579 		.ascii	":Q\245y\220r4\017\234\317@^F\037\266C\007\304j4|kq\020"
 820      9072340F 
 820      9CCF405E 
 820      461FB643 
 820      07C46A34 
 821 1b3d 5C8FF146 		.ascii	"\\\217\361F\214\243\030\177\211\361f\214\267`\274\223"
 821      8CA3187F 
 821      89F1668C 
 821      B760BC93 
 822 1b4d 1D95FEDF 		.ascii	"\035\225\376\337\240J\302\204Guc\235\3260%\353\2072"
 822      A04AC284 
 822      4775639D 
 822      D63025EB 
 822      8732
 823 1b5f 0E769364 		.ascii	"\016v\223d\230\340\362[\334\275\277\242\026w/\032\313"
 823      98E0F25B 
 823      DCBDBFA2 
 823      16772F1A 
 823      CB
 824 1b70 698FEA3D 		.ascii	"i\217\352=\244\317<\272\303\274\377\304\366~\310\325"
 824      A4CF3CBA 
 824      C3BCFFC4 
 824      F67EC8D5 
 825 1b80 5ED367D2 		.ascii	"^\323g\322c\355\235\326\201\375S\325\031\222\325\237"
 825      63ED9DD6 
 825      81FD53D5 
ARM GAS  /tmp/ccftiQnV.s 			page 66


 825      1992D59F 
 826 1b90 F91EF2B4 		.ascii	"\371\036\362\264VR\352\237\364\022\377KO\210\361j\272"
 826      5652EA9F 
 826      F412FF4B 
 826      4F88F16A 
 826      BA
 827 1ba1 E9FBBE48 		.ascii	"\351\373\276Hg\222\035n\212.\011\313\371\340v9\315\360"
 827      67921D6E 
 827      8A2E09CB 
 827      F9E07639 
 827      CDF0
 828 1bb3 8C26B846 		.ascii	"\214&\270F\377I\020\233K<\032\027\351\361\305wG)\317"
 828      FF49109B 
 828      4B3C1A17 
 828      E9F1C577 
 828      4729CF
 829 1bc6 C21F4799 		.ascii	"\302\037G\231~\246\223iR d\216~\360\233}j\253\2103\265"
 829      7EA69369 
 829      5220648E 
 829      7EF09B7D 
 829      6AAB8833 
 830 1bdb 93C987BF 		.ascii	"\223\311\207\277\021\303\243\313Om\225\224\363\305S"
 830      11C3A3CB 
 830      4F6D9594 
 830      F3C553
 831 1bea 70837704 		.ascii	"p\203w\004\236A;\231\332\264\004\000W\234R6x)\\\225"
 831      9E413B99 
 831      DAB40400 
 831      579C5236 
 831      78295C95 
 832 1bfe 6D389F06 		.ascii	"m8\237\006\3563-\334\006\007\007\234\305cW\237k\341"
 832      EE332DDC 
 832      0607079C 
 832      C563579F 
 832      6BE1
 833 1c10 641EEA2C 		.ascii	"d\036\352,\036\274Z\243\205\033\306\003g\361\350\325"
 833      1EBC5AA3 
 833      851BC603 
 833      67F1E8D5 
 834 1c20 5A164E12 		.ascii	"Z\026N\022\276D\205\260\003\247\245n\275\026n\013\017"
 834      BE4485B0 
 834      03A7A56E 
 834      BD166E0B 
 834      0F
 835 1c31 9CD1A86A 		.ascii	"\234\321\250j\364a5/ \236B\373r\032m\307\031\214\317"
 835      F461352F 
 835      209E42FB 
 835      721A6DC7 
 835      198CCF
 836 1c44 62FC1DC6 		.ascii	"b\374\035\306\3470>\217\361\367<\023\231c\354Df\273"
 836      E7303E8F 
 836      F1F73C13 
 836      9963EC44 
 836      66BB
 837 1c56 BE931A91 		.ascii	"\276\223\032\221\275\313\362\314\224\206\356:f+\347"
 837      BDCBF2CC 
 837      9486EE3A 
ARM GAS  /tmp/ccftiQnV.s 			page 67


 837      662BE7
 838 1c65 086EE51C 		.ascii	"\010n\345\034\305\025\230*\244o!\306\3130\336\203\361"
 838      C515982A 
 838      A46F21C6 
 838      CB30DE83 
 838      F1
 839 1c76 418CEB30 		.ascii	"A\214\3530>\312C\375\001w\272\246B\315\316\316n]'\217"
 839      3ECA43FD 
 839      0177BAA6 
 839      42CDCECE 
 839      6E5D278F 
 840 1c8a EDEC5C5F 		.ascii	"\355\354\\_!N\031.w\247\333#\340\374\343\372\364.\323"
 840      214E192E 
 840      77A7DB23 
 840      E0FCE3FA 
 840      F42ED3
 841 1c9d 9D9D9DCC 		.ascii	"\235\235\235\314)\246\033\301\356t#\005\032\344\262"
 841      29A61BC1 
 841      EE742305 
 841      1AE4B2
 842 1cac 2E56C714 		.ascii	".V\307\024[M\017?\321\223\337\337!]\346\005q_F)x\217"
 842      5B4D0F3F 
 842      D193DFDF 
 842      215DE605 
 842      715F4629 
 843 1cc2 163C805B 		.ascii	"\026<\200[P\027\222\024<\340fOMi\267\240vYoA]\366\030"
 843      50179214 
 843      3CE0664F 
 843      4D69B7A0 
 843      76596F41 
 844 1cd9 6D41ED09 		.ascii	"mA\355\011\332\336\202\272\245_H\244<\326\010\346\262"
 844      DADE82BA 
 844      A55F48A4 
 844      3CD608E6 
 844      B2
 845 1cea A160E499 		.ascii	"\241`\344\231A\235Hnz,Eb\322R\246\224QKo\033\266\264"
 845      419D486E 
 845      7A2C4562 
 845      D252A694 
 845      514B6F1B 
 846 1d00 F12CE9BF 		.ascii	"\361,\351\277\362}\362\217\021\232\326\362\377\363U"
 846      F27DF28F 
 846      119AD6F2 
 846      FFF355
 847 1d0f F5966F9E 		.ascii	"\365\226o\236\301\321\240\021\247\311\367u\215\344\234"
 847      C1D1A011 
 847      A7C9F775 
 847      8DE49C
 848 1d1e 26CB69BA 		.ascii	"&\313i\272i\362\34118M&\371\311\247\311#\036K\234&\217"
 848      69F2E131 
 848      384D26F9 
 848      C9A7C923 
 848      1E4B9C26 
 849 1d33 7ECC709A 		.ascii	"~\314p\232\374\356c\206\177|5\3771\303?\276Z\372\230"
 849      FCEE6386 
 849      7F7C35FF 
 849      31C33FBE 
ARM GAS  /tmp/ccftiQnV.s 			page 68


 849      5AFA98
 850 1d46 F68FAF94 		.ascii	"\366\217\257\224\354\352x6\373\247\177\233\343\331\354"
 850      ECEA7836 
 850      FBA77F9B 
 850      E3D9EC
 851 1d55 9FFEED8B 		.ascii	"\237\376\355\213g\263\177\372w<\236\235\306d\237\213"
 851      67B37FFA 
 851      773C9E9D 
 851      C6649F8B 
 852 1d65 677B99EC 		.ascii	"g{\231\354;\361\354fL\366\330_\305\262\323\231\354\331"
 852      3BF1EC66 
 852      4CF6D85F 
 852      C5B2D399 
 852      ECD9
 853 1d77 F1EC0C26 		.ascii	"\361\354\014&\373\343xvs&{C<\273\005\223\375m<\273%"
 853      FBE37876 
 853      73267B43 
 853      3CBB0593 
 853      FD6D3CBB 
 854 1d8c 937D289E 		.ascii	"\223}(\236\335\212\311>\025\317n\315d\337\214g\267a"
 854      DD8AC93E 
 854      15CF6ECD 
 854      64DF8C67 
 854      B761
 855 1d9e E97E3C96 		.ascii	"\351~<\226\375\220\"K\362\325r\265\"\256#\001qh\032"
 855      FD90224B 
 855      F2D572B5 
 855      22AE2301 
 855      71681A
 856 1db1 31ABC3D2 		.ascii	"1\253\303\322\214W+\314z\351}\243^j\262Q\254\233\030"
 856      8C572BCC 
 856      7AE97DA3 
 856      5E6AB251 
 856      AC9B18
 857 1dc4 2DB17838 		.ascii	"-\261x8\367\2234\013s<\377q\203^?\214\230\343\325\006"
 857      F793340B 
 857      733CFF71 
 857      835E3F8C 
 857      98E3D506 
 858 1dd8 E6F89E75 		.ascii	"\346\370\236u\337\327\233cIX\205\360\346\305Xs\\M\255"
 858      DFD79B63 
 858      495885F0 
 858      E6C55873 
 858      5C4DAD
 859 1deb 2A211784 		.ascii	"*!\027\204\236\244\240\322(\2645\303\344\225hk\032\225"
 859      9EA4A0D2 
 859      28B435C3 
 859      E495686B 
 859      1A95
 860 1dfd 45AB7BD6 		.ascii	"E\253{\326\266fi\232\221\255\271QE\316@\015\21365}!"
 860      B666699A 
 860      91ADB951 
 860      45CE400D 
 860      8B36357D 
 861 1e12 8B820DDB 		.ascii	"\213\202\015\333\372y\232Nj\344\314\201F\204\354\217"
 861      FA799A4E 
 861      6AE4CC81 
ARM GAS  /tmp/ccftiQnV.s 			page 69


 861      4684EC8F 
 862 1e22 CA2112BD 		.ascii	"\312!\022\275TuR\371\312H*\023\345\306\242\356\024>"
 862      547552F9 
 862      CA482A13 
 862      E5C6A2EE 
 862      143E
 863 1e34 20EE4079 		.ascii	" \356@y\254J\263<\370\240\024\333\2537\341\346\305X"
 863      AC4AB33C 
 863      F8A014DB 
 863      AB37E1E6 
 863      C558
 864 1e46 31369262 		.ascii	"16\222b\213\261\266\232$\305\0263\265\255\242b\244\362"
 864      8BB1B69A 
 864      24C51633 
 864      B5ADA262 
 864      A4F2
 865 1e58 DF810D31 		.ascii	"\337\201\0151/Xg1d0\245\214\304\270.Q\214\313\352\243"
 865      2F586731 
 865      6430A58C 
 865      C4B82E51 
 865      8CCBEAA3 
 866 1e6c 476B320C 		.ascii	"Gk2\014\317\252Zm\263}e$A\235D\366\031\366\023\271I"
 866      CFAA5A6D 
 866      B37D6524 
 866      419D44F6 
 866      19F613B9 
 867 1e81 2F912FAD 		.ascii	"/\221/\255%\022\323\330\345xz\232\356\331\231\227R\010"
 867      2512D3D8 
 867      E5787A9A 
 867      EED99997 
 867      5208
 868 1e93 FCDAB0A9 		.ascii	"\374\332\260\251\023\267\0337\325JY\267Y(\253\316\244"
 868      13B71B37 
 868      D54A59B7 
 868      5928ABCE 
 868      A4
 869 1ea4 10D198C1 		.ascii	"\020\321\230\301|\2431)10\3726\337\370\367%\216\304"
 869      7CA33129 
 869      3130FA36 
 869      DFF8F725 
 869      8EC4
 870 1eb6 2D4849A8 		.ascii	"-HI\2507f\345\324\240\216\225[\271\224\373\013R\354"
 870      3766E5D4 
 870      A08E955B 
 870      B994FB0B 
 870      52EC
 871 1ec8 1BB41957 		.ascii	"\033\264\031W\021\330\274\030R\255\024k\370_m)\275\222"
 871      11D8BC18 
 871      52AD146B 
 871      F85F6D29 
 871      BD92
 872 1eda 704B5F4C 		.ascii	"pK_L\367\346bl\225Z[UF\037\365\3715\331\247+\2479\017"
 872      F7E6626C 
 872      955A5B55 
 872      461FF5F9 
 872      35D9A72B 
 873 1ef1 1A6BBDA1 		.ascii	"\032k\275\241n\233\325\246\360w\247\241\211j\034\363"
ARM GAS  /tmp/ccftiQnV.s 			page 70


 873      6E9BD5A6 
 873      F077A7A1 
 873      896A1CF3 
 874 1f01 B662A25E 		.ascii	"\266b\242^H\323\313\\2\227\371a\016\365\036\351348s"
 874      48D3CB5C 
 874      3297F961 
 874      0EF51EE9 
 874      33343873 
 875 1f15 F53239C4 		.ascii	"\36529\304\251\336\253P\275\351\246\225y)\205\300#\206"
 875      A9DEAB50 
 875      BDE9A695 
 875      792985C0 
 875      2386
 876 1f27 AD5D3E4E 		.ascii	"\255]>N5\310/\3301\307'8Z;\335\270\265\023\364\255="
 876      35C82FD8 
 876      31C72738 
 876      5A3BDDB8 
 876      B513F4AD 
 877 1f3c CED55ABD 		.ascii	"\316\325Z\275l\217[\313\366dbk\353\257F\257\356P:3m"
 877      6C8F5BCB 
 877      F664626B 
 877      EBAF46AF 
 877      EE503A33 
 878 1f51 81247C60 		.ascii	"\201$|`L\343L=\215gR\242\361\2145\215g\015%\362n-\245"
 878      4CE34C3D 
 878      8D6752A2 
 878      F18C358D 
 878      670D25F2 
 879 1f68 71EE8B36 		.ascii	"q\356\2136\344q\301rx\324\237~S\372L\354;9\313($X\220"
 879      E471C172 
 879      78D49F7E 
 879      53FA4CEC 
 879      3B39CB28 
 880 1f7f 359CF23B 		.ascii	"5\234\362;\317eAV\307g\217[\222\024c\335\225\033\201"
 880      CF654156 
 880      C7678F5B 
 880      921463DD 
 880      951B81
 881 1f92 F6AA25F8 		.ascii	"\366\252%\370\032\3519om\011\224b\263\267"
 881      1AE9396F 
 881      6D099462 
 881      B3B7
 882 1fa0 A4C71EF0 		.ascii	"\244\307\036\360\376F_Ngy\224\326\033J\320\254\224\302"
 882      FE465F4E 
 882      677994D6 
 882      1B4AD0AC 
 882      94C2
 883 1fb2 F61FB412 		.ascii	"\366\037\264\022|YtLuR]\033_\277\377\334\227\003\247"
 883      7C59744C 
 883      75525D1B 
 883      5FBFFFDC 
 883      9703A7
 884 1fc5 CB5F8E90 		.ascii	"\313_\216\220\233\232\376\256\357Z\026g\212n\353%y\232"
 884      9B9AFEAE 
 884      EF5A1667 
 884      8A6EEB25 
 884      799A
ARM GAS  /tmp/ccftiQnV.s 			page 71


 885 1fd7 754F9587 		.ascii	"uO\225\207\203\224\357\274\307*\216}0\266V\034:R\226"
 885      8394EFBC 
 885      C72A8E7D 
 885      30B6561C 
 885      3A5296
 886 1fea 25707FD3 		.ascii	"%p\177\323\360\025\227O\330<Y\241l#,\277LN74!\306"
 886      F015974F 
 886      D83C59A1 
 886      6C232CBF 
 886      4C4E3734 
 887 2000 041D4640 		.ascii	"\004\035F@\354\252[\033\356\252{/\347\204%\031\362\370"
 887      ECAA5B1B 
 887      EEAA7B2F 
 887      E7842519 
 887      F2F8
 888 2012 34CC8779 		.ascii	"4\314\207y\310\023Z\337\236)\327\315lq\275k|Me\230\367"
 888      C8135ADF 
 888      9E29D7CD 
 888      6C71BD6B 
 888      7C4D6598 
 889 2027 C9C43B75 		.ascii	"\311\304;u\032\374\271\216B\365\246\021^\275\330\246"
 889      1AFCB98E 
 889      42F5A611 
 889      5EBDD8A6 
 890 2037 C5C456BD 		.ascii	"\305\304V\275e\337$q\302\360yt\366\257\027\034q~\315"
 890      65DF2471 
 890      C2F07974 
 890      F6AF171C 
 890      717ECD
 891 204a 2437D2AB 		.ascii	"$7\322\253\223\334\342D\233\0305\241h\2247\321\\\215"
 891      93DCE244 
 891      9B1835A1 
 891      689437D1 
 891      5C8D
 892 205c 8FCED939 		.ascii	"\217\316\3319V\026\015\275\017+:\306\350\351 \317i\304"
 892      56160DBD 
 892      0F2B3AC6 
 892      E8E920CF 
 892      69C4
 893 206e D549D4DA 		.ascii	"\325I\324\332\202\245\242\221\367\260\325\204\316w\214"
 893      82A5A291 
 893      F7B0D584 
 893      CE778C
 894 207d E8ACBFBF 		.ascii	"\350\254\277\277g\341#\362|\303A\204\324mF\350\004="
 894      67E123F2 
 894      7CC34184 
 894      D46D46E8 
 894      043D
 895 208f A117C504 		.ascii	"\241\027\305\004\206\3552!d\222!!k\252\2169\314\372"
 895      86ED3221 
 895      64922121 
 895      6BAA8E39 
 895      CCFA
 896 20a1 9C15CBA6 		.ascii	"\234\025\313\246xm=Ge\264\320\036m\304\367\312O\363"
 896      786D3D47 
 896      65B4D01E 
 896      6DC4F7CA 
ARM GAS  /tmp/ccftiQnV.s 			page 72


 896      4FF3
 897 20b3 12DD3E62 		.ascii	"\022\335>b\334\275\254\327\330gz\365\033\314\265\270"
 897      DCBDACD7 
 897      D8677AF5 
 897      1BCCB5B8 
 898 20c3 C14CF293 		.ascii	"\301L\362\223m0\017\213n\254\215=\223\0031ZXR\320\250"
 898      6D300F8B 
 898      6EAC8D3D 
 898      9303315A 
 898      5852D0A8 
 899 20d7 C54A927E 		.ascii	"\305J\222~\224\033\264`\273k\015\236\311a\340l>\223"
 899      941BB460 
 899      BB6B0D9E 
 899      C961E06C 
 899      3E93
 900 20e9 B36734FE 		.ascii	"\263g4\376\035\341ft\004O o\354\200i\237\311\331?\232"
 900      1DE16674 
 900      044F206F 
 900      EC80699F 
 900      C9D93F9A 
 901 20fd 7D8C0666 		.ascii	"}\214\006f(<m\265\330\374>P\313<F\263\3016\230\266\245"
 901      283C6DB5 
 901      D8FC3E50 
 901      CB3C46B3 
 901      C13698B6 
 902 2112 876A99E7 		.ascii	"\207j\231\347K\316\352[js\347\273\216\202}\205\013\240"
 902      4BCEEA5B 
 902      6A73E7BB 
 902      8E827D85 
 902      0BA0
 903 2124 DFDB06D3 		.ascii	"\337\333\006\323Rv\224\005\373\201\007\214\177\215>"
 903      52769405 
 903      FB81078C 
 903      7F8D3E
 904 2133 AEB90171 		.ascii	"\256\271\001q\026\332\345\331^\262\216=\007\343\271"
 904      16DAE5D9 
 904      5EB28E3D 
 904      07E3B9
 905 2142 18CFC778 		.ascii	"\030\317\307x\001\306\357a\374>\306\037z9\326\272\247"
 905      01C6EF61 
 905      FC3EC61F 
 905      7A39D6BA 
 905      A7
 906 2153 7AF54FEE 		.ascii	"z\365O\356\246\362\250ct\303v\322E\227`\027\275\226"
 906      A6F2A863 
 906      74C376D2 
 906      45976017 
 906      BD96
 907 2165 BC8B26BE 		.ascii	"\274\213&\276vp\251\276\213N\247\377\361\275\224\253"
 907      7670A9BE 
 907      8B4EA7FF 
 907      F1BD94AB 
 908 2175 8BCE1CA3 		.ascii	"\213\316\034\243\325\\\345\231\255\224{\351\354\355"
 908      D55CE599 
 908      AD947BE9 
 908      ECED
 909 2183 4C2F9584 		.ascii	"L/\225\204;\330\242\245)\367\3229c\230^\332d\033L\333"
ARM GAS  /tmp/ccftiQnV.s 			page 73


 909      3BD8A2A5 
 909      29F7D239 
 909      63985EDA 
 909      641B4CDB 
 910 2197 4B976D67 		.ascii	"K\227mg\236\234{\353\327:0\233\307\206V\216\031+\222"
 910      9E9C7BEB 
 910      D73A309B 
 910      C786568E 
 910      192B92
 911 21aa 9734B1DB 		.ascii	"\2274\261\333\272\337\305\037\264\032\240B4W\304\264"
 911      BADFC51F 
 911      B41AA042 
 911      3457C4B4 
 912 21ba C64B3775 		.ascii	"\306K7u5\377\220\201w\230)X\265\327\033\253>\303\033"
 912      35FF9081 
 912      77982958 
 912      B5D71BAB 
 912      3EC31B
 913 21cd 4F64C474 		.ascii	"Od\304t<\232\246\023\226\246V\2436\244\031\251\202\012"
 913      3C9AA613 
 913      96A656A3 
 913      36A419A9 
 913      820A
 914 21df B794E932 		.ascii	"\267\224\3512\237b\227Y\206\335a9\306+1^\205\361j\236"
 914      9F629759 
 914      86DD6139 
 914      C62B315E 
 914      85F16A9E 
 915 21f3 0EB2D86B 		.ascii	"\016\262\330k\261\372\370\366\257\215\307\320\265\206"
 915      B1FAF8F6 
 915      AF8DC7D0 
 915      B586
 916 2201 4EC7B51D 		.ascii	"N\307\265\035c\315\006s\253!t\275~0'}V\357u\350\010"
 916      63CD0673 
 916      AB2174BD 
 916      7E30277D 
 916      56EF75E8 
 917 2216 9B6A42D8 		.ascii	"\233jB\330\027\206\204\355\332\221\2127\264\311\310"
 917      178684ED 
 917      DA918A37 
 917      B4C9C8
 918 2225 2BB3E90D 		.ascii	"+\263\351\015\3157\241\363kC:\353R\242\263\306\222\316"
 918      CD37A1F3 
 918      6B433AEB 
 918      52A2B3C6 
 918      92CE
 919 2237 ED86742D 		.ascii	"\355\206t-2\241\253\326\220\256\003)\321\365\215%]\235"
 919      32A1ABD6 
 919      90AE0329 
 919      D1F58D25 
 919      5D9D
 920 2249 59F6F19F 		.ascii	"Y\366\361\237\304\335p\346\232\204\373E\273\274\304"
 920      C4DD70E6 
 920      9A84FB45 
 920      BBBCC4
 921 2258 3E2CFBB5 		.ascii	">,\373\265~&a\377\215/\202\331\242=\251\302\254q\373"
 921      7E2661FF 
ARM GAS  /tmp/ccftiQnV.s 			page 74


 921      8D2F82D9 
 921      A23DA9C2 
 921      AC71FB
 922 226b ACBACD2A 		.ascii	"\254\272\315*\023\356\356\327r\367\327\302|Y\336S\177"
 922      13EEEED7 
 922      72F7D7C2 
 922      7C59DE53 
 922      7F
 923 227c FFD62991 		.ascii	"\377\326)\221\234p\220\311F\232(\252\373\226\033b f"
 923      9C7090C9 
 923      469A28AA 
 923      FB961B62 
 923      2066
 924 228e 341C8CC3 		.ascii	"4\034\214\303\245x\220\354\260VD\031\302\030\266\375"
 924      A57890EC 
 924      B0564419 
 924      C218B6FD 
 925 229e 5DCDCF91 		.ascii	"]\315\317\221\035\361f\010\272\217\331\255\207\342\234"
 925      1DF16608 
 925      BA8FD9AD 
 925      87E29C
 926 22ad D2F1974C 		.ascii	"\322\361\227L(\315J\0355-E\246\271f\245\216\231\224"
 926      28CD4A1D 
 926      352D45A6 
 926      B966A58E 
 926      9994
 927 22bf E2E7C809 		.ascii	"\342\347\310\011\275\322\222\226r=\243q\334\224b\"O"
 927      BDD29296 
 927      723DA371 
 927      DC946222 
 927      4F
 928 22d0 B352274D 		.ascii	"\263R'MK\221\227R\231\225:eZ\212L%\315J\2356-5\301\242"
 928      4B919752 
 928      99953A65 
 928      5A8A4C25 
 928      CD4A9D36 
 929 22e8 D419D352 		.ascii	"\324\031\323Rc,J\2355)\245\014\304\365\256i\332\027"
 929      632C4A9D 
 929      3529A50C 
 929      C4F5AE69 
 929      DA17
 930 22fa A5256CE9 		.ascii	"\245%l\351\236\263=\022\2377\031\211\223\011\356\273"
 930      9EB33D12 
 930      9F371989 
 930      9309EEBB 
 931 230a 38A94A65 		.ascii	"8\251Jer\225\334~Q\334\016i\034\030\\3cj\"iY~\300\276"
 931      7295DC7E 
 931      51DC0E69 
 931      1C185C33 
 931      636A2269 
 932 2322 23846435 		.ascii	"#\204d5\221\215D\035\277\326[\360\353{S.O\261(u\321"
 932      918D441D 
 932      BFD65BF0 
 932      EB7B532E 
 932      4FB12875 
 933 2337 5CA26EF3 		.ascii	"\\\242n\363R\227LKm\262\250\353\262i\251\032\213R?\230"
 933      52974C4B 
ARM GAS  /tmp/ccftiQnV.s 			page 75


 933      6DB2A8EB 
 933      B269A91A 
 933      8B523F98 
 934 234b 963A61D1 		.ascii	"\226:a\321\217\257\230\226\372\306\242\256\253\246\245"
 934      8FAF9896 
 934      FAC6A2AE 
 934      ABA6A5
 935 235a 665A70E3 		.ascii	"fZp\343\032c\311\235\205\003\002!w\267\336}}Y\302s\231"
 935      1A63C99D 
 935      85030221 
 935      77B7DE7D 
 935      7D59C273 
 936 236f 032ACA82 		.ascii	"\003*\312\202\231\205\025Eof\026\005\007e\026\016(\351"
 936      99851545 
 936      6F661605 
 936      0765160E 
 936      28E9
 937 2381 575211CE 		.ascii	"WR\021\316\214\204\006\226\277\236\011\211\340\220H"
 937      8C840696 
 937      BF9E0989 
 937      E09048
 938 2390 66712052 		.ascii	"fq R\034\316\014\207\0123K\312#\301\376\301\320\323"
 938      1CCE0C87 
 938      0A334BCA 
 938      23C1FEC1 
 938      D0D3
 939 23a2 03046797 		.ascii	"\003\004g\227W\013r\236\261W\272\270\030\012\272\272"
 939      570B729E 
 939      B157BAB8 
 939      180ABABA 
 940 23b2 762EE89A 		.ascii	"v.\350\232\357)\016\373#oV\006\035E\241A\256\302p\311"
 940      EF290EFB 
 940      236F5606 
 940      1D45A141 
 940      AEC270C9 
 941 23c6 FF0EBACB 		.ascii	"\377\016\272\313\375pg\3305\270\2704\320?\2558\\\342"
 941      FD7067D8 
 941      35B8B834 
 941      D03FAD38 
 941      5CE2
 942 23d8 2709E7CB 		.ascii	"'\011\347\313\271y\331RI\221\267\334\037\252\250\210"
 942      B979D952 
 942      4991B7DC 
 942      1FAAA888 
 943 23e8 1495845C 		.ascii	"\024\225\204\\\331$\253Yi \034\361\027\226\016\014G"
 943      D924AB59 
 943      69201CF1 
 943      17960E0C 
 943      47
 944 23f9 9A158782 		.ascii	"\232\025\207\202A\232LC\214`y\304UL =\203*J\373\005"
 944      419A4C43 
 944      8C6079C4 
 944      554C203D 
 944      832A4AFB 
 945 240e C2410F64 		.ascii	"\302A\017d\342\025\212\223kZQ \022\300\214\301%\345"
 945      E2158A93 
 945      6B5A5120 
ARM GAS  /tmp/ccftiQnV.s 			page 76


 945      12C08CC1 
 945      25E5
 946 2420 E16061C4 		.ascii	"\341`a\304\001WWAV\367\316y-\302Eee@OYei\020\210\365"
 946      01575741 
 946      56F7CE79 
 946      2DC24565 
 946      65404F59 
 947 2439 E0577FC4 		.ascii	"\340W\177\304\205\327?$k\356\200@)\260\010H)\012f\222"
 947      85D73F24 
 947      6BEE8040 
 947      29B00848 
 947      290A6692 
 948 244d 72E1CA12 		.ascii	"r\341\312\022\000\361\366\352\225\225\035*\031\024\014"
 948      00F1F6EA 
 948      95951D2A 
 948      19140C
 949 245c 65C4527F 		.ascii	"e\304R\177\353U\340\362w\251\250(M/\011\373\011\021"
 949      EB55E0F2 
 949      77A9A828 
 949      4D2F09FB 
 949      0911
 950 246e A148B028 		.ascii	"\241H\260(\003\322\225\241\212\010P\024,\362\024V\224"
 950      03D295A1 
 950      8A085014 
 950      2CF21456 
 950      94
 951 247f 9743AA59 		.ascii	"\227C\252YQIXI\376&s`8\224\031\010\225=U^Q\036|*\030"
 951      51495849 
 951      FE267360 
 951      38941908 
 951      953D555E 
 952 2498 E85712AB 		.ascii	"\350W\022\253.\014\274)\217@mi\003\341\372L'\177\344"
 952      2E0CBC29 
 952      8F406D69 
 952      03E1FA4C 
 952      277FE4
 953 24ab 598BBBCB 		.ascii	"Y\213\273\313\002@{y0\323_\024,\016\014,\215\240,\302"
 953      02407B79 
 953      30D35F14 
 953      2C0E0C2C 
 953      8DA02CC2 
 954 24bf 50BA99DF 		.ascii	"P\272\231\337\257\226\367\220\304s\376\210\227fA\312"
 954      AF96F790 
 954      C473FE88 
 954      976641CA 
 955 24cf 190A068A 		.ascii	"\031\012\006\212\\\203C%\221\2403\374fy\341\237\355"
 955      5C834325 
 955      91A033FC 
 955      6679E19F 
 955      ED
 956 24e0 F003D2FE 		.ascii	"\360\003\322\376\222\212~\245\025\205\257C=-\273\220"
 956      928A7EA5 
 956      1585AF43 
 956      3D2DBB90 
 957 24f0 44767050 		.ascii	"DvpPIa\260GyqEZ\277\322\327\375(3\222(\037X\226\326"
 957      4961B047 
 957      7971455A 
ARM GAS  /tmp/ccftiQnV.s 			page 77


 957      BFD2D7FD 
 957      28339228 
 958 2508 3F1801C6 		.ascii	"?\030\001\306\024W8\006\225E\232Af8\002\222\365G\232"
 958      14573806 
 958      95459A41 
 958      66380292 
 958      F5479A
 959 251b 75E9F992 		.ascii	"u\351\371\222\277o\357\036\275{\024\244\221d~An\037"
 959      BF6FEF1E 
 959      BD7B14A4 
 959      91647E41 
 959      6E1F
 960 252d CCEB9C55 		.ascii	"\314\353\234U\320\343o9-H2+\267w\357\034\370\332\273"
 960      D0E36F39 
 960      2D48322B 
 960      B777EF1C 
 960      F8DABB
 961 2540 5B6BF235 		.ascii	"[k\3625\273G~<\307Kr\362r:g\277\232\256\246 \027\323"
 961      BB477E3C 
 961      C74B72F2 
 961      723A67BF 
 961      9AAEA620 
 962 2556 2FE7F528 		.ascii	"/\347\365(P\323\371\257\366\316\202\264\013ku\024\226"
 962      50D3F9AF 
 962      F6CE82B4 
 962      0B6B7514 
 962      96
 963 2567 14390AC3 		.ascii	"\0249\012\303Ei\205\201\312@aI\344\315l\236\206WV\204"
 963      45698581 
 963      CA406149 
 963      E4CD6C9E 
 963      86575684 
 964 257b 22E1CCFC 		.ascii	"\"\341\314\374\202^\317t\312\354\3313;3\277O\217A\035"
 964      825ECF74 
 964      CAECD933 
 964      3B33BF4F 
 964      8F411D
 965 258e 334125FC 		.ascii	"3A%\374\245\245ED- \203*C';|\244:\325\014.*G\000G\345"
 965      A5A54544 
 965      2D20832A 
 965      43273B7C 
 965      A43AD50C 
 966 25a8 0849128E 		.ascii	"\010I\022\216\020l\332J\374\225\362&\203$\263r{\365"
 966      106CDA4A 
 966      FC95F226 
 966      8324B372 
 966      7BF5
 967 25ba E9995390 		.ascii	"\351\231S\220\323\034\000\012\003\245\320?\012_\367"
 967      D31C000A 
 967      03A5D03F 
 967      0A5FF7
 968 25c9 47DCC1F2 		.ascii	"G\334\301\362\"\177a\277\234T\332\325\255O\217\334A"
 968      227F61BF 
 968      9C54DAD5 
 968      AD4F8FDC 
 968      41
 969 25da 9D322B41 		.ascii	"\2352+A\276\264a\031\341H\031(P\377\312\222\012\350"
ARM GAS  /tmp/ccftiQnV.s 			page 78


 969      BEB46119 
 969      E1481928 
 969      50FFCA92 
 969      0AE8
 970 25ec 39BD72B3 		.ascii	"9\275r\263s\362\334\271\005\257\366\311\311\363\344"
 970      73F2DCB9 
 970      05AFF6C9 
 970      C9F3E4
 971 25fb E6F7C9C9 		.ascii	"\346\367\311\311\311\316s\365\351\333';\317\321\003"
 971      C9CE73F5 
 971      E9DB273B 
 971      CFD103
 972 260a 426E769E 		.ascii	"Bnv\236\3702\352l\307?@[\250\256\221\244#\034\214\270"
 972      F832EA6C 
 972      C73F405B 
 972      A8AE91A4 
 972      231C8CB8 
 973 261e 0A4B8381 		.ascii	"\012K\203\201\220\330\335\331%?/\317\3313\353\245<g"
 973      90D8DDD9 
 973      253F2FCF 
 973      D933EBA5 
 973      3C67
 974 2630 E7AE793D 		.ascii	"\347\256y=I\324\335\321%/\257YI\005\241\246\244\010"
 974      49D4DDD1 
 974      252FAF59 
 974      4905A1A6 
 974      A408
 975 2642 5A100E93 		.ascii	"Z\020\016\223\244\013.\001\020V\250#aAVEyqI\177w!^\222"
 975      A40B2E01 
 975      1056A823 
 975      61415645 
 975      7971497F 
 976 265a 9ABA5024 		.ascii	"\232\272P$\306\344\302\001\3417\303j\237H\213\014 \212"
 976      C6E4C201 
 976      E137C36A 
 976      9F488B0C 
 976      208A
 977 266c 0F3DA170 		.ascii	"\017=\241p\200\237\246\237\265\207U8\200\360\305]\351"
 977      809FA69F 
 977      B5875538 
 977      80F0C55D 
 977      E9
 978 267d 2F078308 		.ascii	"/\007\203\010\227\312PpPw\016\010\312\352\316y\275\262"
 978      97CA5070 
 978      50770E08 
 978      CAEACE79 
 978      BDB2
 979 268f 7A0D813B 		.ascii	"z\015\201;\313*KJ\203\241pf\267\254,\270]%\317\023\251"
 979      CB2A4B4A 
 979      83A17066 
 979      B7AC2CB8 
 979      5D25CF13 
 980 26a4 0C114E23 		.ascii	"\014\021N#nI\005\261\033\021\250\346O\266\361\007\024"
 980      6E4905B1 
 980      1B11A8E6 
 980      4FB6F107 
 980      14
ARM GAS  /tmp/ccftiQnV.s 			page 79


 981 26b5 568488D1 		.ascii	"V\204\210\321K'\331\320\367\"\205\221!\377\226\032\212"
 981      4B27D9D0 
 981      F7228591 
 981      21FF961A 
 981      8A
 982 26c6 7FD01FCB 		.ascii	"\177\320\037\313\010\347B\301\376`\200\2100;\376\001"
 982      08E742C1 
 982      FE608088 
 982      303BFE01 
 983 26d6 C21F213C 		.ascii	"\302\037!<\007\341O\216p\247\016\020:B\350\004\341\031"
 983      07E14F8E 
 983      70A70E10 
 983      3A42E804 
 983      E119
 984 26e8 08CF42F8 		.ascii	"\010\317B\370=\004\270\257\023\334\327\011\356\353\004"
 984      3D04B8AF 
 984      13DCD709 
 984      EEEB04
 985 26f7 F73D03F7 		.ascii	"\367=\003\367=\323Q\012=+\205~/\205\376 \205\376(\205"
 985      3DD3510A 
 985      3D2B857E 
 985      2F85FE20 
 985      85FE2885 
 986 270b 9E93427F 		.ascii	"\236\223B\177r\204:v\200\320Q*\015\301\345\031W\245"
 986      72843A76 
 986      80D0512A 
 986      0DC1E519 
 986      57A5
 987 271d 1FA8F510 		.ascii	"\037\250\365\020\016\017\016\206\340ZQZ\024\014\021"
 987      0E0F0E86 
 987      E05A515A 
 987      140C11
 988 272c 8E07CA82 		.ascii	"\216\007\312\202i\021\245\253@>\246<\221\262\212\"\372"
 988      6911A5AB 
 988      403EA63C 
 988      91B28A22 
 988      FA
 989 273d 9D0C3261 		.ascii	"\235\0142aO$\024$\003\022\334O\022\256\262p\177\370"
 989      4F241424 
 989      0312DC4F 
 989      12AEB270 
 989      7FF8
 990 274f 51B18360 		.ascii	"Q\261\203`\377\224\224;T\364&\374\224\026\034R\022\001"
 990      FF94943B 
 990      54F426FC 
 990      94161C52 
 990      1201
 991 2761 8E04DD83 		.ascii	"\216\004\335\203#\025\375\376\2632=8\010\206\234\262"
 991      2315FDFE 
 991      B3323D38 
 991      08869CB2 
 992 2771 40183BD2 		.ascii	"@\030;\322`\222pT\372\007\266\240\252\022\366\227BO"
 992      60927054 
 992      FA07B6A0 
 992      AA12F697 
 992      424F
 993 2783 F5475AC6 		.ascii	"\365GZ\306\224\207\346x+\375\203\003%\221\222\362\376"
ARM GAS  /tmp/ccftiQnV.s 			page 80


 993      9487E678 
 993      2BFD8303 
 993      259192F2 
 993      FE
 994 2794 2DD5EC37 		.ascii	"-\325\3547\006\006\007\002U\255\230;1\253Y\245\037\252"
 994      06060702 
 994      55AD983B 
 994      31AB59A5 
 994      1FAA
 995 27a6 C5A40B93 		.ascii	"\305\244\013\223\220\021\254\204.\013\205]e\003A\332"
 995      9011AC84 
 995      2E0B855D 
 995      650341DA 
 996 27b6 4907628D 		.ascii	"I\007b\215>\226E\206\020\275)\243\350p\255\030\\\016"
 996      3E964586 
 996      10BD29A3 
 996      E870AD18 
 996      5C0E
 997 27c8 4C432468 		.ascii	"LC$hB\031\252)"
 997      4219AA29 
 998 27d0 D007F711 		.ascii	"\320\007\367\021J\233\021\256\004JQ\271 \263\022F\255"
 998      4A9B11AE 
 998      044A51B9 
 998      20B31246 
 998      AD
 999 27e1 3FDAAA4F 		.ascii	"?\332\252Oi\014\324\331F\351J\300\345`(X^\010\255u\323"
 999      690CD4D9 
 999      46E94AC0 
 999      E5602858 
 999      5E08AD75 
 1000 27f6 AC7FE571 		.ascii	"\254\177\345q%\262z\345\367\310\007\323\223\211\026"
 1000      25B27AE5 
 1000      F7C807D3 
 1000      938916
 1001 2805 A6F8D90E 		.ascii	"\246\370\331\016\035\207\024\022\205%\206\255\000\272"
 1001      1D871412 
 1001      852586AD 
 1001      00BA
 1002 2813 4376B0D8 		.ascii	"Cv\260\330\221\225\327\021B')?O\002C\223\225\227\325"
 1002      9195D711 
 1002      4227293F 
 1002      4F024393 
 1002      9597D5
 1003 2826 27CF9DF7 		.ascii	"'\317\235\367\012\\\363\334\005x\361\364\350\224\237"
 1003      0A5CF3DC 
 1003      0578F1F4 
 1003      E8949F
 1004 2835 D5B55B9E 		.ascii	"\325\265[\236\013\256}\362\034`\007\273\3325{\030w}"
 1004      0BAE7DF2 
 1004      1C6007BB 
 1004      DA357B18 
 1004      777D
 1005 2847 76C8104A 		.ascii	"v\310\020J\210\277\250,@\032\227\335\253\263?\037T)"
 1005      88BFA82C 
 1005      401A97DD 
 1005      ABB33F1F 
 1005      5429
ARM GAS  /tmp/ccftiQnV.s 			page 81


 1006 2859 50A65223 		.ascii	"P\246R#e\3459{g\027\3449\372t\316s\366\352@\242\216"
 1006      65E5397B 
 1006      6717E439 
 1006      FA74CE73 
 1006      F6EA40A2 
 1007 286e 9DF31C5D 		.ascii	"\235\363\034]\201\2300\336\350,).\014\271K\302\003J"
 1007      819830DE 
 1007      E82C292E 
 1007      0CB94BC2 
 1007      034A
 1008 2880 8A23DE70 		.ascii	"\212#\336p\260\264\270\244\274(8\304=\010F\373\212P"
 1008      B0B4B8A4 
 1008      BC2838C4 
 1008      3D0846FB 
 1008      8A50
 1009 2892 9B18BA9F 		.ascii	"\233\030\272\237\336\015\346\024\276\204\206\22082\304"
 1009      DE0DE614 
 1009      BE848690 
 1009      3832C4
 1010 28a1 1B1A0257 		.ascii	"\033\032\002W\242\311\336\210\232rBs*]\245\341\302\342"
 1010      A2C9DE88 
 1010      9A724273 
 1010      2A5DA5E1 
 1010      C2E2
 1011 28b3 FEAE0124 		.ascii	"\376\256\001$&\316\0075\203-q\354\365\007\212\212B\301"
 1011      26CE0735 
 1011      832D71EC 
 1011      F5078A8A 
 1011      42C1
 1012 28c5 70381876 		.ascii	"p8\030v\202\207RD\356/\362\024\203]\001\203\227\006"
 1012      82875244 
 1012      EE2FF214 
 1012      835D0183 
 1012      9706
 1013 28d7 3979208B 		.ascii	"9y \2137\301;\303ks\342(\225V\364\247._F\374\033X\352"
 1013      37C13BC3 
 1013      6B73E228 
 1013      9556F4A7 
 1013      2E5F46FC 
 1014 28ee F81747B8 		.ascii	"\370\027G\270\250\320\003\311>\201\310\200\214\"2\242"
 1014      A8D003C9 
 1014      3E81C880 
 1014      8C2232A2 
 1015 28fe F5AA1808 		.ascii	"\365\252\030\0106\250\310]\216\300I\225sP\000Tk`\030"
 1015      36A8C85D 
 1015      8EC04995 
 1015      73500054 
 1015      6B6018
 1016 2911 7E001D2B 		.ascii	"~\000\035+\217\020/\321\236\202Q\356\020\005{\270\013"
 1016      8F102FD1 
 1016      9E8251EE 
 1016      10057BB8 
 1016      0B
 1017 2922 B875F941 		.ascii	"\270u\371AP\354\362HI\240\224J\343\027F\231\340\201"
 1017      50ECF248 
 1017      49A0944A 
 1017      E3174699 
ARM GAS  /tmp/ccftiQnV.s 			page 82


 1017      E081
 1018 2934 75420FA9 		.ascii	"uB\017\251\264\244_f\377\302B\235\247\364\354\323\317"
 1018      B4A45F66 
 1018      FFC2429D 
 1018      A7F4ECD3 
 1018      CF
 1019 2945 3DFD2CEB 		.ascii	"=\375,\353]\201\247Dl8\361Q\300\236U\016\2148\300CI"
 1019      5D81A744 
 1019      6C38F151 
 1019      C09E550E 
 1019      8C38C043 
 1020 295a 53497640 		.ascii	"SIv@\302Q\\\026a9V(\270\251\337\224\206\026\004\022"
 1020      C2515C16 
 1020      61395628 
 1020      B8A9DF94 
 1020      86160412 
 1021 296e ADE117C2 		.ascii	"\255\341\027\302\222\336\301\301OW\006B\221\247;x\225"
 1021      92DEC1C1 
 1021      4F570642 
 1021      91A73B78 
 1021      95
 1022 297f 1C30374A 		.ascii	"\03407J\312I,\226[\341l\327\036=\245\342\260\223\030"
 1022      CA492C96 
 1022      5BE16CD7 
 1022      1E3DA5E2 
 1022      B09318
 1023 2992 29473014 		.ascii	")G0\024r\026WFB\3560\372\272.\032\027\021\3775\015\034"
 1023      72165746 
 1023      42EE30FA 
 1023      BA2E1A17 
 1023      11FF350D 
 1024 29a7 5B3F4910 		.ascii	"[?I\020\017\327\017\3678\372\015,v\0224\317\340P\026"
 1024      0FD70FF7 
 1024      38FA0D2C 
 1024      761234CF 
 1024      E05016
 1025 29ba 1186B302 		.ascii	"\021\206\263\002\354\305CJ\025/\023\017\216\022\320"
 1025      ECC5434A 
 1025      152F130F 
 1025      8E12D0
 1026 29c9 D10179BF 		.ascii	"\321\001y\277\267\345\177\004C\300C\242\016\371\230"
 1026      B7E57F04 
 1026      43C043A2 
 1026      0EF998
 1027 29d8 A22E4C4B 		.ascii	"\242.LK\366\013\260\326K\306\317\2222h\227\023X\025"
 1027      F60BB0D6 
 1027      4BC6CF92 
 1027      32689713 
 1027      5815
 1028 29ea 7102AF22 		.ascii	"q\002\257\"n\364\034#.\322\335#I}i\215\200\321\302\022"
 1028      6EF41C23 
 1028      2ED2DD23 
 1028      497D698D 
 1028      80D1C212 
 1029 29fe F9B6C094 		.ascii	"\371\266\300\224?\\10D\214G\006\373\265\025\375BLV\260"
 1029      3F5C3130 
 1029      448C4706 
ARM GAS  /tmp/ccftiQnV.s 			page 83


 1029      FBB515FD 
 1029      424C56B0 
 1030 2a12 9CE8680B 		.ascii	"\234\350h\013m\206'X\212\226-\035\256j\236\027\322\024"
 1030      6D862758 
 1030      8A962D1D 
 1030      AE6A9E17 
 1030      D214
 1031 2a24 9C42E170 		.ascii	"\234B\341p\000\022\203lL\222\337\007\3231\"\030\306"
 1031      0012836C 
 1031      4C92DF07 
 1031      D3312218 
 1031      C6
 1032 2a35 D22EBCCF 		.ascii	"\322.\274\317\033.R\306\024o~\266\342}y E\234\2574\270"
 1032      1B2E52C6 
 1032      146F7EB6 
 1032      E27D7920 
 1032      459CAF34 
 1033 2a4a A2EF65AF 		.ascii	"\242\357e\257\215h\214I\033\233\227\224\003\317\324"
 1033      8D688C49 
 1033      1B9B9794 
 1033      03CFD4
 1034 2a59 D1007C1C 		.ascii	"\321\000|\0345\231\246&\275o\250c\007\244\012\261\263"
 1034      3599A626 
 1034      BD6FA863 
 1034      07A40AB1 
 1034      B3
 1035 2a6a 85D2DEF0 		.ascii	"\205\322\336\360\203\320\301\254\272\336\360G**=pK\010"
 1035      83D0C1AC 
 1035      BADEF047 
 1035      2A2A3D70 
 1035      4B08
 1036 2a7c 3401AEA1 		.ascii	"4\001\256\241\"\270z\337(\257\210\224\024\277\011(o"
 1036      22B87ADF 
 1036      28AF8894 
 1036      14BF0928 
 1036      6F
 1037 2a8d F869D2FD 		.ascii	"\370i\322\375\006\260\241\374uw\011b\266\250\030\030"
 1037      06B0A1FC 
 1037      75770962 
 1037      B6A81818 
 1038 2a9d 61AA7557 		.ascii	"a\252uW`B*\351'U\364k\3367\277s^\001cb\237qv+\350\223"
 1038      60422AE9 
 1038      2755F46B 
 1038      DE37BF73 
 1038      5E016362 
 1039 2ab7 E71A1806 		.ascii	"\347\032\030\006\035z\230\250|O\324\327\036\345%\244"
 1039      1D7A98A8 
 1039      7C4FD4D7 
 1039      1EE525A4 
 1040 2ac7 83411791 		.ascii	"\203A\027\221\302E\216\242~\375[\304\177\313'Du\315"
 1040      C2458EA2 
 1040      7EFD5BC4 
 1040      7FCB2744 
 1040      75CD
 1041 2ad9 CBC9EFDB 		.ascii	"\313\311\357\333\263\300\3255\317\237\373R:\304\340"
 1041      B3C0D535 
 1041      CF9FFB52 
ARM GAS  /tmp/ccftiQnV.s 			page 84


 1041      3AC4E0
 1042 2ae8 9BBFE4CF 		.ascii	"\233\277\344\317\001O\016\322=z\027\220d\006${\347\026"
 1042      014F0ED2 
 1042      3D7A1790 
 1042      6406247B 
 1042      E716
 1043 2afa 28EE2B7E 		.ascii	"(\356+~\361C?\310Q\222}:\027to\211w\377\255s\317\036"
 1043      F1433FC8 
 1043      51927D3A 
 1043      17746F89 
 1043      77FFAD73 
 1044 2b10 D9FEDE9D 		.ascii	"\331\376\336\235{\345x\011RN\357\0369\331i\220\312y"
 1044      7BE57809 
 1044      524EEF1E 
 1044      39D96990 
 1044      CA79
 1045 2b22 A5477E41 		.ascii	"\245G~Ak\346\226\334.\177\005\347\277\015\344\020\027"
 1045      6BE696DC 
 1045      2E7F05E7 
 1045      BF0DE410 
 1045      17
 1046 2b33 3FC7DF27 		.ascii	"?\307\337'/\267\0002r\262[17e\347\221\351\203RwN\357"
 1046      2FB70032 
 1046      72B25B31 
 1046      3765E791 
 1046      E9835277 
 1047 2b49 CE5D7AD2 		.ascii	"\316]z\322\337\225\332\363_\315/\310\351E*\356\365R"
 1047      DF95DAF3 
 1047      5FCD2FC8 
 1047      E9452AEE 
 1047      F552
 1048 2b5b D77C7FE7 		.ascii	"\327|\177\347.\271y\000@h*\350\321+'\267o\001\241\241"
 1048      2EB97900 
 1048      40682AE8 
 1048      D12B27B7 
 1048      6F01A1A1 
 1049 2b6f 676ED64B 		.ascii	"gn\326K9\331mb \271}\273u\007\217;/\347\347\344\276"
 1049      39D96D62 
 1049      20B97DBB 
 1049      75078F3B 
 1049      2FE7E7E4 
 1050 2b84 DC5C7FAF 		.ascii	"\334\\\177\257\316\275_\365\347\366\311\351M1\037f\352"
 1050      CEBD5FF5 
 1050      E7F6C9E9 
 1050      4D311F66 
 1050      EA
 1051 2b95 8711025A 		.ascii	"\207\021\002ZR\220\223\367P\234g]\241\263b\367%\375"
 1051      529093F7 
 1051      509C675D 
 1051      A1B362F7 
 1051      25FD
 1052 2ba7 BA12CCAB 		.ascii	"\272\022\314\253\013\205\335,nF\\\305\304\\\244+\031"
 1052      0B85DD2C 
 1052      6E465CC5 
 1052      C45CA42B 
 1052      19
 1053 2bb8 F9C0F996 		.ascii	"\371\300\371\226l'\317\012\017r\301\245,\014c\013\364"
ARM GAS  /tmp/ccftiQnV.s 			page 85


 1053      6C27CF0A 
 1053      0F72C1A5 
 1053      2C0C630B 
 1053      F4
 1054 2bc9 F7000C2A 		.ascii	"\367\000\014*\356r\314PMQ\267`\344ej\"2\224\234\254"
 1054      EE72CC50 
 1054      4D51B760 
 1054      E4656A22 
 1054      32949CAC 
 1055 2bdd D28A7050 		.ascii	"\322\212pP\3759\027\314F\347J\342kd\260\270\356\322"
 1055      FD3917CC 
 1055      46E74AE2 
 1055      6B64B0B8 
 1055      EED2
 1056 2bef 6079FFC8 		.ascii	"`y\377\310\000/\261*x\277-S\032\010\365'\376\307\240"
 1056      002FB12A 
 1056      78BF2D53 
 1056      1A08F527 
 1056      FEC7A0
 1057 2c02 0076C316 		.ascii	"\000v\303\026~\177\377\362\201\205~\345k\372_\372\015"
 1057      7E7FFFF2 
 1057      81857EE5 
 1057      6BFA5FFA 
 1057      0D
 1058 2c13 2C298D3C 		.ascii	",)\215<UR\376\274\000\256\227\222\013\256\367 ji=\305"
 1058      5552FEBC 
 1058      00AE9792 
 1058      0BAEF720 
 1058      6A693DC5 
 1059 2c27 30D7AF20 		.ascii	"0\327\257 \223z\177\0312\003\247\346\320\214\256\371"
 1059      937A7F19 
 1059      3203A7E6 
 1059      D08CAEF9 
 1060 2c37 8EEC1E79 		.ascii	"\216\354\036y.\034@\2358\253\007\246I\305\345\036`u"
 1060      2E1C409D 
 1060      38AB07A6 
 1060      49C5E51E 
 1060      6075
 1061 2c49 8FDE5D73 		.ascii	"\217\336]s]\305\300\330\240\253\230\230%\262\"\020\011"
 1061      5DC5C0D8 
 1061      A0AB9898 
 1061      25B22210 
 1061      09
 1062 2c5a 95F4F316 		.ascii	"\225\364\363\026\023\327\246\010n\204T\005\272T!7M\001"
 1062      13D7A608 
 1062      6E845405 
 1062      BA542137 
 1062      4D01
 1063 2c6c 7E693818 		.ascii	"~i8\030|\335\331\027\364\022\276\240\361re\347t\351"
 1063      7CDDD917 
 1063      F412BEA0 
 1063      F17265E7 
 1063      74E9
 1064 2c7e DBEDFF02 		.ascii	"\333\355\377\002H\253\257\311"
 1064      48ABAFC9 
 1065              		.text
 1066              		.section	.gnu.lto_.symtab.d9e8e1f81841ea60,"",%progbits
ARM GAS  /tmp/ccftiQnV.s 			page 86


 1067 0000 64617461 		.ascii	"dataLoggerInitialize\000\000\000\000\000\000\000\000"
 1067      4C6F6767 
 1067      6572496E 
 1067      69746961 
 1067      6C697A65 
 1068 001c 00000000 		.ascii	"\000\000\000\000P\003\000\000dataLoggerStop\000\000"
 1068      50030000 
 1068      64617461 
 1068      4C6F6767 
 1068      65725374 
 1069 0034 00000000 		.ascii	"\000\000\000\000\000\000\000\000\000\000\365\003\000"
 1069      00000000 
 1069      0000F503 
 1069      00
 1070 0041 00646174 		.ascii	"\000dataLoggerFileCount\000\000\000\000\000\000\000"
 1070      614C6F67 
 1070      67657246 
 1070      696C6543 
 1070      6F756E74 
 1071 005c 00000000 		.ascii	"\000\000\000\000\000\373\003\000\000logfileNew\000\000"
 1071      00FB0300 
 1071      006C6F67 
 1071      66696C65 
 1071      4E657700 
 1072 0071 00000000 		.ascii	"\000\000\000\000\000\000\000\000\000\0005\004\000\000"
 1072      00000000 
 1072      00003504 
 1072      0000
 1073 007f 6C6F6766 		.ascii	"logfileSize\000\000\000\000\000\000\000\000\000\000"
 1073      696C6553 
 1073      697A6500 
 1073      00000000 
 1073      00000000 
 1074 0094 00004204 		.ascii	"\000\000B\004\000\000logfileWriteCsv\000\000\000\000"
 1074      00006C6F 
 1074      6766696C 
 1074      65577269 
 1074      74654373 
 1075 00ad 00000000 		.ascii	"\000\000\000\000\000\000\000\000H\004\000\000logfil"
 1075      00000000 
 1075      48040000 
 1075      6C6F6766 
 1075      696C
 1076 00bf 65476574 		.ascii	"eGetWrCount\000\000\000\000\000\000\000\000\000\000"
 1076      5772436F 
 1076      756E7400 
 1076      00000000 
 1076      00000000 
 1077 00d4 00005804 		.ascii	"\000\000X\004\000\000logfileClose\000\000\000\000\000"
 1077      00006C6F 
 1077      6766696C 
 1077      65436C6F 
 1077      73650000 
 1078 00eb 00000000 		.ascii	"\000\000\000\000\000\000\000^\004\000\000logfileOpe"
 1078      0000005E 
 1078      0400006C 
 1078      6F676669 
ARM GAS  /tmp/ccftiQnV.s 			page 87


 1078      6C654F70 
 1079 0100 6E417070 		.ascii	"nAppend\000\000\000\000\000\000\000\000\000\000\000"
 1079      656E6400 
 1079      00000000 
 1079      00000000 
 1079      0000
 1080 0112 00640400 		.ascii	"\000d\004\000\000logfileWrite\000\000\000\000\000\000"
 1080      006C6F67 
 1080      66696C65 
 1080      57726974 
 1080      65000000 
 1081 0129 00000000 		.ascii	"\000\000\000\000\000\000h\004\000\000chvprintf\000\000"
 1081      00006804 
 1081      00006368 
 1081      76707269 
 1081      6E746600 
 1082 013e 02000000 		.ascii	"\002\000\000\000\000\000\000\000\000\000w\004\000\000"
 1082      00000000 
 1082      00007704 
 1082      0000
 1083 014c 665F636C 		.ascii	"f_close\000\000\002\000\000\000\000\000\000\000\000"
 1083      6F736500 
 1083      00020000 
 1083      00000000 
 1083      0000
 1084 015e 00860400 		.ascii	"\000\206\004\000\000f_mount\000\000\002\000\000\000"
 1084      00665F6D 
 1084      6F756E74 
 1084      00000200 
 1084      0000
 1085 0170 00000000 		.ascii	"\000\000\000\000\000\000\212\004\000\000sdmmcGetFS\000"
 1085      00008A04 
 1085      00007364 
 1085      6D6D6347 
 1085      65744653 
 1086 0185 00020000 		.ascii	"\000\002\000\000\000\000\000\000\000\000\000\220\004"
 1086      00000000 
 1086      00000090 
 1086      04
 1087 0192 0000665F 		.ascii	"\000\000f_readdir\000\000\002\000\000\000\000\000\000"
 1087      72656164 
 1087      64697200 
 1087      00020000 
 1087      00000000 
 1088 01a6 00000094 		.ascii	"\000\000\000\224\004\000\000f_opendir\000\000\002\000"
 1088      04000066 
 1088      5F6F7065 
 1088      6E646972 
 1088      00000200 
 1089 01ba 00000000 		.ascii	"\000\000\000\000\000\000\000\000\273\004\000\000f_o"
 1089      00000000 
 1089      BB040000 
 1089      665F6F
 1090 01c9 70656E00 		.ascii	"pen\000\000\002\000\000\000\000\000\000\000\000\000"
 1090      00020000 
 1090      00000000 
 1090      000000
ARM GAS  /tmp/ccftiQnV.s 			page 88


 1091 01d8 C0040000 		.ascii	"\300\004\000\000f_lseek\000\000\002\000\000\000\000"
 1091      665F6C73 
 1091      65656B00 
 1091      00020000 
 1091      0000
 1092 01ea 00000000 		.ascii	"\000\000\000\000\000\306\004\000\000f_write\000\000"
 1092      00C60400 
 1092      00665F77 
 1092      72697465 
 1092      0000
 1093 01fc 02000000 		.ascii	"\002\000\000\000\000\000\000\000\000\000\313\004\000"
 1093      00000000 
 1093      0000CB04 
 1093      00
 1094 0209 00       		.ascii	"\000"
 1095              		.text
 1096              		.section	.gnu.lto_.opts,"",%progbits
 1097 0000 272D6D63 		.ascii	"'-mcpu=cortex-m4' '-mfloat-abi=hard' '-mfpu=fpv4-sp"
 1097      70753D63 
 1097      6F727465 
 1097      782D6D34 
 1097      2720272D 
 1098 0033 2D643136 		.ascii	"-d16' '-mno-thumb-interwork' '-mthumb' '-O2' '-fomi"
 1098      2720272D 
 1098      6D6E6F2D 
 1098      7468756D 
 1098      622D696E 
 1099 0066 742D6672 		.ascii	"t-frame-pointer' '-falign-functions=16' '-ffunction"
 1099      616D652D 
 1099      706F696E 
 1099      74657227 
 1099      20272D66 
 1100 0099 2D736563 		.ascii	"-sections' '-fdata-sections' '-fno-common' '-flto' "
 1100      74696F6E 
 1100      73272027 
 1100      2D666461 
 1100      74612D73 
 1101 00cc 272D6673 		.ascii	"'-fsingle-precision-constant'\000"
 1101      696E676C 
 1101      652D7072 
 1101      65636973 
 1101      696F6E2D 
 1102              		.text
 1103              		.section	.text.chprintf,"ax",%progbits
 1104              		.align	2
 1105              		.p2align 4,,15
 1106              		.thumb
 1107              		.thumb_func
 1108              		.type	chprintf, %function
 1109              	chprintf:
 1110              		@ args = 4, pretend = 12, frame = 8
 1111              		@ frame_needed = 0, uses_anonymous_args = 1
 1112 0000 0EB4     		push	{r1, r2, r3}
 1113 0002 00B5     		push	{lr}
 1114 0004 82B0     		sub	sp, sp, #8
 1115 0006 03AA     		add	r2, sp, #12
 1116 0008 52F8041B 		ldr	r1, [r2], #4
ARM GAS  /tmp/ccftiQnV.s 			page 89


 1117 000c 0192     		str	r2, [sp, #4]
 1118 000e FFF7FEFF 		bl	chvprintf
 1119 0012 02B0     		add	sp, sp, #8
 1120              		@ sp needed
 1121 0014 5DF804EB 		ldr	lr, [sp], #4
 1122 0018 03B0     		add	sp, sp, #12
 1123 001a 7047     		bx	lr
 1124              		.size	chprintf, .-chprintf
 1125 001c AFF30080 		.section	.text.dataLoggerInitialize,"ax",%progbits
 1126              		.align	2
 1127              		.p2align 4,,15
 1128              		.global	dataLoggerInitialize
 1129              		.thumb
 1130              		.thumb_func
 1131              		.type	dataLoggerInitialize, %function
 1132              	dataLoggerInitialize:
 1133              		@ args = 0, pretend = 0, frame = 0
 1134              		@ frame_needed = 0, uses_anonymous_args = 0
 1135 0000 70B5     		push	{r4, r5, r6, lr}
 1136 0002 0446     		mov	r4, r0
 1137 0004 0D46     		mov	r5, r1
 1138 0006 DAB1     		cbz	r2, .L6
 1139 0008 C0B1     		cbz	r0, .L3
 1140 000a 1249     		ldr	r1, .L11
 1141 000c 124E     		ldr	r6, .L11+4
 1142 000e 0260     		str	r2, [r0]
 1143 0010 1046     		mov	r0, r2
 1144 0012 002D     		cmp	r5, #0
 1145 0014 08BF     		it	eq
 1146 0016 0D46     		moveq	r5, r1
 1147 0018 3360     		str	r3, [r6]
 1148 001a FFF7FEFF 		bl	sdmmcGetFS
 1149 001e A560     		str	r5, [r4, #8]
 1150 0020 2946     		mov	r1, r5
 1151 0022 6060     		str	r0, [r4, #4]
 1152 0024 0122     		movs	r2, #1
 1153 0026 FFF7FEFF 		bl	f_mount
 1154 002a 0546     		mov	r5, r0
 1155 002c 58B9     		cbnz	r0, .L10
 1156 002e 0123     		movs	r3, #1
 1157 0030 3068     		ldr	r0, [r6]
 1158 0032 2373     		strb	r3, [r4, #12]
 1159 0034 0949     		ldr	r1, .L11+8
 1160 0036 FFF7FEFF 		bl	chprintf
 1161 003a 2846     		mov	r0, r5
 1162              	.L3:
 1163 003c 40B2     		sxtb	r0, r0
 1164 003e 70BD     		pop	{r4, r5, r6, pc}
 1165              	.L6:
 1166 0040 1046     		mov	r0, r2
 1167 0042 40B2     		sxtb	r0, r0
 1168 0044 70BD     		pop	{r4, r5, r6, pc}
 1169              	.L10:
 1170 0046 3068     		ldr	r0, [r6]
 1171 0048 0549     		ldr	r1, .L11+12
 1172 004a 2A46     		mov	r2, r5
 1173 004c FFF7FEFF 		bl	chprintf
ARM GAS  /tmp/ccftiQnV.s 			page 90


 1174 0050 FF20     		movs	r0, #255
 1175 0052 F3E7     		b	.L3
 1176              	.L12:
 1177              		.align	2
 1178              	.L11:
 1179 0054 00000000 		.word	.LC0
 1180 0058 00000000 		.word	.LANCHOR0
 1181 005c 34000000 		.word	.LC2
 1182 0060 04000000 		.word	.LC1
 1183              		.size	dataLoggerInitialize, .-dataLoggerInitialize
 1184 0064 AFF30080 		.section	.text.dataLoggerStop,"ax",%progbits
 1184      AFF30080 
 1184      AFF30080 
 1185              		.align	2
 1186              		.p2align 4,,15
 1187              		.global	dataLoggerStop
 1188              		.thumb
 1189              		.thumb_func
 1190              		.type	dataLoggerStop, %function
 1191              	dataLoggerStop:
 1192              		@ args = 0, pretend = 0, frame = 0
 1193              		@ frame_needed = 0, uses_anonymous_args = 0
 1194 0000 074B     		ldr	r3, .L14
 1195 0002 0849     		ldr	r1, .L14+4
 1196 0004 10B5     		push	{r4, lr}
 1197 0006 0446     		mov	r4, r0
 1198 0008 1868     		ldr	r0, [r3]
 1199 000a FFF7FEFF 		bl	chprintf
 1200 000e 0020     		movs	r0, #0
 1201 0010 0146     		mov	r1, r0
 1202 0012 0246     		mov	r2, r0
 1203 0014 FFF7FEFF 		bl	f_mount
 1204 0018 0020     		movs	r0, #0
 1205 001a 2073     		strb	r0, [r4, #12]
 1206 001c 10BD     		pop	{r4, pc}
 1207              	.L15:
 1208 001e 00BF     		.align	2
 1209              	.L14:
 1210 0020 00000000 		.word	.LANCHOR0
 1211 0024 54000000 		.word	.LC3
 1212              		.size	dataLoggerStop, .-dataLoggerStop
 1213 0028 AFF30080 		.section	.text.dataLoggerFileCount,"ax",%progbits
 1213      AFF30080 
 1214              		.align	2
 1215              		.p2align 4,,15
 1216              		.global	dataLoggerFileCount
 1217              		.thumb
 1218              		.thumb_func
 1219              		.type	dataLoggerFileCount, %function
 1220              	dataLoggerFileCount:
 1221              		@ args = 0, pretend = 0, frame = 56
 1222              		@ frame_needed = 0, uses_anonymous_args = 0
 1223 0000 30B5     		push	{r4, r5, lr}
 1224 0002 8FB0     		sub	sp, sp, #60
 1225 0004 07A8     		add	r0, sp, #28
 1226 0006 1546     		mov	r5, r2
 1227 0008 FFF7FEFF 		bl	f_opendir
ARM GAS  /tmp/ccftiQnV.s 			page 91


 1228 000c 80B9     		cbnz	r0, .L17
 1229 000e 0446     		mov	r4, r0
 1230 0010 05E0     		b	.L19
 1231              	.L24:
 1232 0012 9DF80D10 		ldrb	r1, [sp, #13]	@ zero_extendqisi2
 1233 0016 49B1     		cbz	r1, .L18
 1234 0018 9CB2     		uxth	r4, r3
 1235 001a 2304     		lsls	r3, r4, #16
 1236 001c 06D4     		bmi	.L18
 1237              	.L19:
 1238 001e 07A8     		add	r0, sp, #28
 1239 0020 01A9     		add	r1, sp, #4
 1240 0022 FFF7FEFF 		bl	f_readdir
 1241 0026 631C     		adds	r3, r4, #1
 1242 0028 0028     		cmp	r0, #0
 1243 002a F2D0     		beq	.L24
 1244              	.L18:
 1245 002c 2C80     		strh	r4, [r5]	@ movhi
 1246 002e 0020     		movs	r0, #0
 1247              	.L17:
 1248 0030 0FB0     		add	sp, sp, #60
 1249              		@ sp needed
 1250 0032 30BD     		pop	{r4, r5, pc}
 1251              		.size	dataLoggerFileCount, .-dataLoggerFileCount
 1252 0034 AFF30080 		.section	.text.logfileNew,"ax",%progbits
 1252      AFF30080 
 1252      AFF30080 
 1253              		.align	2
 1254              		.p2align 4,,15
 1255              		.global	logfileNew
 1256              		.thumb
 1257              		.thumb_func
 1258              		.type	logfileNew, %function
 1259              	logfileNew:
 1260              		@ args = 0, pretend = 0, frame = 0
 1261              		@ frame_needed = 0, uses_anonymous_args = 0
 1262 0000 2DE9F041 		push	{r4, r5, r6, r7, r8, lr}
 1263 0004 174E     		ldr	r6, .L31
 1264 0006 0F46     		mov	r7, r1
 1265 0008 0446     		mov	r4, r0
 1266 000a 9046     		mov	r8, r2
 1267 000c 3068     		ldr	r0, [r6]
 1268 000e 1649     		ldr	r1, .L31+4
 1269 0010 1A46     		mov	r2, r3
 1270 0012 1D46     		mov	r5, r3
 1271 0014 FFF7FEFF 		bl	chprintf
 1272 0018 3F7B     		ldrb	r7, [r7, #12]	@ zero_extendqisi2
 1273 001a 0023     		movs	r3, #0
 1274 001c 2375     		strb	r3, [r4, #20]
 1275 001e 7FB1     		cbz	r7, .L29
 1276 0020 C4F80C80 		str	r8, [r4, #12]
 1277 0024 2361     		str	r3, [r4, #16]
 1278 0026 6560     		str	r5, [r4, #4]
 1279 0028 4046     		mov	r0, r8
 1280 002a 2946     		mov	r1, r5
 1281 002c 0A22     		movs	r2, #10
 1282 002e FFF7FEFF 		bl	f_open
ARM GAS  /tmp/ccftiQnV.s 			page 92


 1283 0032 0746     		mov	r7, r0
 1284 0034 60B9     		cbnz	r0, .L30
 1285 0036 0123     		movs	r3, #1
 1286 0038 2375     		strb	r3, [r4, #20]
 1287 003a 40B2     		sxtb	r0, r0
 1288 003c BDE8F081 		pop	{r4, r5, r6, r7, r8, pc}
 1289              	.L29:
 1290 0040 3068     		ldr	r0, [r6]
 1291 0042 0A49     		ldr	r1, .L31+8
 1292 0044 FFF7FEFF 		bl	chprintf
 1293 0048 3846     		mov	r0, r7
 1294 004a 40B2     		sxtb	r0, r0
 1295 004c BDE8F081 		pop	{r4, r5, r6, r7, r8, pc}
 1296              	.L30:
 1297 0050 3068     		ldr	r0, [r6]
 1298 0052 0749     		ldr	r1, .L31+12
 1299 0054 3A46     		mov	r2, r7
 1300 0056 FFF7FEFF 		bl	chprintf
 1301 005a F8B2     		uxtb	r0, r7
 1302 005c 40B2     		sxtb	r0, r0
 1303 005e BDE8F081 		pop	{r4, r5, r6, r7, r8, pc}
 1304              	.L32:
 1305 0062 00BF     		.align	2
 1306              	.L31:
 1307 0064 00000000 		.word	.LANCHOR0
 1308 0068 74000000 		.word	.LC4
 1309 006c 9C000000 		.word	.LC5
 1310 0070 C4000000 		.word	.LC6
 1311              		.size	logfileNew, .-logfileNew
 1312 0074 AFF30080 		.section	.text.logfileSize,"ax",%progbits
 1312      AFF30080 
 1312      AFF30080 
 1313              		.align	2
 1314              		.p2align 4,,15
 1315              		.global	logfileSize
 1316              		.thumb
 1317              		.thumb_func
 1318              		.type	logfileSize, %function
 1319              	logfileSize:
 1320              		@ args = 0, pretend = 0, frame = 0
 1321              		@ frame_needed = 0, uses_anonymous_args = 0
 1322              		@ link register save eliminated.
 1323 0000 0020     		movs	r0, #0
 1324 0002 7047     		bx	lr
 1325              		.size	logfileSize, .-logfileSize
 1326 0004 AFF30080 		.section	.text.logfileWriteCsv,"ax",%progbits
 1326      AFF30080 
 1326      AFF30080 
 1327              		.align	2
 1328              		.p2align 4,,15
 1329              		.global	logfileWriteCsv
 1330              		.thumb
 1331              		.thumb_func
 1332              		.type	logfileWriteCsv, %function
 1333              	logfileWriteCsv:
 1334              		@ args = 0, pretend = 0, frame = 0
 1335              		@ frame_needed = 0, uses_anonymous_args = 0
ARM GAS  /tmp/ccftiQnV.s 			page 93


 1336              		@ link register save eliminated.
 1337 0000 0020     		movs	r0, #0
 1338 0002 7047     		bx	lr
 1339              		.size	logfileWriteCsv, .-logfileWriteCsv
 1340 0004 AFF30080 		.section	.text.logfileGetWrCount,"ax",%progbits
 1340      AFF30080 
 1340      AFF30080 
 1341              		.align	2
 1342              		.p2align 4,,15
 1343              		.global	logfileGetWrCount
 1344              		.thumb
 1345              		.thumb_func
 1346              		.type	logfileGetWrCount, %function
 1347              	logfileGetWrCount:
 1348              		@ args = 0, pretend = 0, frame = 0
 1349              		@ frame_needed = 0, uses_anonymous_args = 0
 1350              		@ link register save eliminated.
 1351 0000 0069     		ldr	r0, [r0, #16]
 1352 0002 7047     		bx	lr
 1353              		.size	logfileGetWrCount, .-logfileGetWrCount
 1354 0004 AFF30080 		.section	.text.logfileClose,"ax",%progbits
 1354      AFF30080 
 1354      AFF30080 
 1355              		.align	2
 1356              		.p2align 4,,15
 1357              		.global	logfileClose
 1358              		.thumb
 1359              		.thumb_func
 1360              		.type	logfileClose, %function
 1361              	logfileClose:
 1362              		@ args = 0, pretend = 0, frame = 0
 1363              		@ frame_needed = 0, uses_anonymous_args = 0
 1364 0000 10B5     		push	{r4, lr}
 1365 0002 0446     		mov	r4, r0
 1366 0004 C068     		ldr	r0, [r0, #12]
 1367 0006 FFF7FEFF 		bl	f_close
 1368 000a 18B9     		cbnz	r0, .L38
 1369 000c 2061     		str	r0, [r4, #16]
 1370 000e 2075     		strb	r0, [r4, #20]
 1371              	.L37:
 1372 0010 40B2     		sxtb	r0, r0
 1373 0012 10BD     		pop	{r4, pc}
 1374              	.L38:
 1375 0014 FF20     		movs	r0, #255
 1376 0016 FBE7     		b	.L37
 1377              		.size	logfileClose, .-logfileClose
 1378 0018 AFF30080 		.section	.text.logfileOpenAppend,"ax",%progbits
 1378      AFF30080 
 1379              		.align	2
 1380              		.p2align 4,,15
 1381              		.global	logfileOpenAppend
 1382              		.thumb
 1383              		.thumb_func
 1384              		.type	logfileOpenAppend, %function
 1385              	logfileOpenAppend:
 1386              		@ args = 0, pretend = 0, frame = 0
 1387              		@ frame_needed = 0, uses_anonymous_args = 0
ARM GAS  /tmp/ccftiQnV.s 			page 94


 1388 0000 38B5     		push	{r3, r4, r5, lr}
 1389 0002 0546     		mov	r5, r0
 1390 0004 1222     		movs	r2, #18
 1391 0006 C068     		ldr	r0, [r0, #12]
 1392 0008 6968     		ldr	r1, [r5, #4]
 1393 000a FFF7FEFF 		bl	f_open
 1394 000e 0446     		mov	r4, r0
 1395 0010 08B1     		cbz	r0, .L44
 1396              	.L40:
 1397 0012 60B2     		sxtb	r0, r4
 1398 0014 38BD     		pop	{r3, r4, r5, pc}
 1399              	.L44:
 1400 0016 E868     		ldr	r0, [r5, #12]
 1401 0018 C168     		ldr	r1, [r0, #12]
 1402 001a FFF7FEFF 		bl	f_lseek
 1403 001e 0446     		mov	r4, r0
 1404 0020 0028     		cmp	r0, #0
 1405 0022 F6D0     		beq	.L40
 1406 0024 E868     		ldr	r0, [r5, #12]
 1407 0026 FFF7FEFF 		bl	f_close
 1408 002a 60B2     		sxtb	r0, r4
 1409 002c 38BD     		pop	{r3, r4, r5, pc}
 1410              		.size	logfileOpenAppend, .-logfileOpenAppend
 1411 002e 00BF     		.section	.text.logfileWrite,"ax",%progbits
 1412              		.align	2
 1413              		.p2align 4,,15
 1414              		.global	logfileWrite
 1415              		.thumb
 1416              		.thumb_func
 1417              		.type	logfileWrite, %function
 1418              	logfileWrite:
 1419              		@ args = 0, pretend = 0, frame = 8
 1420              		@ frame_needed = 0, uses_anonymous_args = 0
 1421 0000 F0B5     		push	{r4, r5, r6, r7, lr}
 1422 0002 1C46     		mov	r4, r3
 1423 0004 83B0     		sub	sp, sp, #12
 1424 0006 0F46     		mov	r7, r1
 1425 0008 1546     		mov	r5, r2
 1426 000a 0646     		mov	r6, r0
 1427 000c 23B1     		cbz	r3, .L49
 1428 000e FFF7FEFF 		bl	logfileOpenAppend
 1429 0012 10F0FF0F 		tst	r0, #255
 1430 0016 0AD1     		bne	.L47
 1431              	.L49:
 1432 0018 3946     		mov	r1, r7
 1433 001a F068     		ldr	r0, [r6, #12]
 1434 001c 2A46     		mov	r2, r5
 1435 001e 01AB     		add	r3, sp, #4
 1436 0020 FFF7FEFF 		bl	f_write
 1437 0024 10B9     		cbnz	r0, .L52
 1438 0026 019B     		ldr	r3, [sp, #4]
 1439 0028 9D42     		cmp	r5, r3
 1440 002a 03D0     		beq	.L56
 1441              	.L52:
 1442 002c 0120     		movs	r0, #1
 1443              	.L47:
 1444 002e 40B2     		sxtb	r0, r0
ARM GAS  /tmp/ccftiQnV.s 			page 95


 1445 0030 03B0     		add	sp, sp, #12
 1446              		@ sp needed
 1447 0032 F0BD     		pop	{r4, r5, r6, r7, pc}
 1448              	.L56:
 1449 0034 3369     		ldr	r3, [r6, #16]
 1450 0036 0133     		adds	r3, r3, #1
 1451 0038 3361     		str	r3, [r6, #16]
 1452 003a 1CB9     		cbnz	r4, .L57
 1453 003c 2046     		mov	r0, r4
 1454 003e 40B2     		sxtb	r0, r0
 1455 0040 03B0     		add	sp, sp, #12
 1456              		@ sp needed
 1457 0042 F0BD     		pop	{r4, r5, r6, r7, pc}
 1458              	.L57:
 1459 0044 F068     		ldr	r0, [r6, #12]
 1460 0046 FFF7FEFF 		bl	f_close
 1461 004a 0028     		cmp	r0, #0
 1462 004c EFD0     		beq	.L47
 1463 004e C0B2     		uxtb	r0, r0
 1464 0050 EDE7     		b	.L47
 1465              		.size	logfileWrite, .-logfileWrite
 1466 0052 00BFAFF3 		.section	.bss.DEBUG,"aw",%nobits
 1466      0080AFF3 
 1466      0080AFF3 
 1466      0080
 1467              		.align	2
 1468              		.set	.LANCHOR0,. + 0
 1469              		.type	DEBUG, %object
 1470              		.size	DEBUG, 4
 1471              	DEBUG:
 1472 0000 00000000 		.space	4
 1473              		.section	.rodata.str1.4,"aMS",%progbits,1
 1474              		.align	2
 1475              	.LC0:
 1476 0000 00       		.ascii	"\000"
 1477 0001 000000   		.space	3
 1478              	.LC1:
 1479 0004 44415441 		.ascii	"DATALOGGER: Error Mounting Filesystem,ERR%20d\012\000"
 1479      4C4F4747 
 1479      45523A20 
 1479      4572726F 
 1479      72204D6F 
 1480 0033 00       		.space	1
 1481              	.LC2:
 1482 0034 44415441 		.ascii	"DATALOGGER: Datalogger Started\012\000"
 1482      4C4F4747 
 1482      45523A20 
 1482      44617461 
 1482      6C6F6767 
 1483              	.LC3:
 1484 0054 44415441 		.ascii	"DATALOGGER: Datalogger Stopped\012\000"
 1484      4C4F4747 
 1484      45523A20 
 1484      44617461 
 1484      6C6F6767 
 1485              	.LC4:
 1486 0074 44415441 		.ascii	"DATALOGGER: Creating New Logfile %s\012\000"
ARM GAS  /tmp/ccftiQnV.s 			page 96


 1486      4C4F4747 
 1486      45523A20 
 1486      43726561 
 1486      74696E67 
 1487 0099 000000   		.space	3
 1488              	.LC5:
 1489 009c 44415441 		.ascii	"DATALOGGER: ERROR Drive not mounted\012\000"
 1489      4C4F4747 
 1489      45523A20 
 1489      4552524F 
 1489      52204472 
 1490 00c1 000000   		.space	3
 1491              	.LC6:
 1492 00c4 44415441 		.ascii	"DATALOGGER: Error creating Logfile, ERR%02d\012\000"
 1492      4C4F4747 
 1492      45523A20 
 1492      4572726F 
 1492      72206372 
 1493              		.comm	__gnu_lto_v1,1,1
 1494 00f1 000000   		.ident	"GCC: (GNU Tools for ARM Embedded Processors) 4.8.4 20140526 (release) [ARM/embedded-4_8-br
ARM GAS  /tmp/ccftiQnV.s 			page 97


DEFINED SYMBOLS
                            *ABS*:0000000000000000 datalogger.c
     /tmp/ccftiQnV.s:1104   .text.chprintf:0000000000000000 $t
     /tmp/ccftiQnV.s:1109   .text.chprintf:0000000000000000 chprintf
     /tmp/ccftiQnV.s:1126   .text.dataLoggerInitialize:0000000000000000 $t
     /tmp/ccftiQnV.s:1132   .text.dataLoggerInitialize:0000000000000000 dataLoggerInitialize
     /tmp/ccftiQnV.s:1179   .text.dataLoggerInitialize:0000000000000054 $d
     /tmp/ccftiQnV.s:1185   .text.dataLoggerStop:0000000000000000 $t
     /tmp/ccftiQnV.s:1191   .text.dataLoggerStop:0000000000000000 dataLoggerStop
     /tmp/ccftiQnV.s:1210   .text.dataLoggerStop:0000000000000020 $d
     /tmp/ccftiQnV.s:1214   .text.dataLoggerFileCount:0000000000000000 $t
     /tmp/ccftiQnV.s:1220   .text.dataLoggerFileCount:0000000000000000 dataLoggerFileCount
     /tmp/ccftiQnV.s:1253   .text.logfileNew:0000000000000000 $t
     /tmp/ccftiQnV.s:1259   .text.logfileNew:0000000000000000 logfileNew
     /tmp/ccftiQnV.s:1307   .text.logfileNew:0000000000000064 $d
     /tmp/ccftiQnV.s:1313   .text.logfileSize:0000000000000000 $t
     /tmp/ccftiQnV.s:1319   .text.logfileSize:0000000000000000 logfileSize
     /tmp/ccftiQnV.s:1327   .text.logfileWriteCsv:0000000000000000 $t
     /tmp/ccftiQnV.s:1333   .text.logfileWriteCsv:0000000000000000 logfileWriteCsv
     /tmp/ccftiQnV.s:1341   .text.logfileGetWrCount:0000000000000000 $t
     /tmp/ccftiQnV.s:1347   .text.logfileGetWrCount:0000000000000000 logfileGetWrCount
     /tmp/ccftiQnV.s:1355   .text.logfileClose:0000000000000000 $t
     /tmp/ccftiQnV.s:1361   .text.logfileClose:0000000000000000 logfileClose
     /tmp/ccftiQnV.s:1379   .text.logfileOpenAppend:0000000000000000 $t
     /tmp/ccftiQnV.s:1385   .text.logfileOpenAppend:0000000000000000 logfileOpenAppend
     /tmp/ccftiQnV.s:1412   .text.logfileWrite:0000000000000000 $t
     /tmp/ccftiQnV.s:1418   .text.logfileWrite:0000000000000000 logfileWrite
     /tmp/ccftiQnV.s:1467   .bss.DEBUG:0000000000000000 $d
     /tmp/ccftiQnV.s:1471   .bss.DEBUG:0000000000000000 DEBUG
     /tmp/ccftiQnV.s:1474   .rodata.str1.4:0000000000000000 $d
                            *COM*:0000000000000001 __gnu_lto_v1
     /tmp/ccftiQnV.s:1184   .text.dataLoggerInitialize:0000000000000064 $t
     /tmp/ccftiQnV.s:1213   .text.dataLoggerStop:0000000000000028 $t
     /tmp/ccftiQnV.s:1312   .text.logfileNew:0000000000000074 $t

UNDEFINED SYMBOLS
chvprintf
sdmmcGetFS
f_mount
f_opendir
f_readdir
f_open
f_close
f_lseek
f_write
