ARM GAS  /tmp/cc5GTagj.s 			page 1


   1              		.syntax unified
   2              		.cpu cortex-m4
   3              		.eabi_attribute 27, 3
   4              		.eabi_attribute 28, 1
   5              		.fpu fpv4-sp-d16
   6              		.eabi_attribute 20, 1
   7              		.eabi_attribute 21, 1
   8              		.eabi_attribute 23, 3
   9              		.eabi_attribute 24, 1
  10              		.eabi_attribute 25, 1
  11              		.eabi_attribute 26, 1
  12              		.eabi_attribute 30, 2
  13              		.eabi_attribute 34, 1
  14              		.eabi_attribute 18, 4
  15              		.thumb
  16              		.file	"hal.c"
  17              		.section	.gnu.lto_.jmpfuncs.eb4a39dd55c6f3c5,"",%progbits
  18 0000 789C6362 		.ascii	"x\234cb`b\300\006\024\2404#B\210\221\251\232\341W\303"
  18      6062C006 
  18      14A03423 
  18      428891A9 
  18      9AE157C3 
  19 0014 8C06814C 		.ascii	"\214\006\201LF\206\\\2308\000A\340\004\036"
  19      46865C98 
  19      380041E0 
  19      041E
  20              		.text
  21              		.section	.gnu.lto_.inline.eb4a39dd55c6f3c5,"",%progbits
  22 0000 789C6362 		.ascii	"x\234cb`b\300\006<\2404#\003\003\337s \011R\305\266"
  22      6062C006 
  22      3CA03423 
  22      0303DF73 
  22      200952C5 
  23 0015 401EAC98 		.ascii	"@\036\254\230\221\2138\202\211\033\244\037\314d\000"
  23      918B3882 
  23      891BA41F 
  23      CC6400
  24 0024 0094CD02 		.ascii	"\000\224\315\002~"
  24      7E
  25              		.text
  26              		.section	.gnu.lto_.pureconst.eb4a39dd55c6f3c5,"",%progbits
  27 0000 789C6362 		.ascii	"x\234cb`b`f\200\000F\006\011\000\000\203\000!"
  27      60626066 
  27      80004606 
  27      09000083 
  27      0021
  28              		.text
  29              		.section	.gnu.lto_halInit.eb4a39dd55c6f3c5,"",%progbits
  30 0000 789C6362 		.ascii	"x\234cb`b@\007\222@\374\220\221\201\301\000H32302M8"
  30      60624007 
  30      9240FC90 
  30      9181C100 
  30      48333233 
  31 0018 C7C0D0C8 		.ascii	"\307\300\320\310\301\304\310\010b002\32431\326G2\202"
  31      C1C4C808 
  31      62303032 
  31      D43331D6 
ARM GAS  /tmp/cc5GTagj.s 			page 2


  31      473282
  32 002b D5AE673A 		.ascii	"\325\256g:\360\340\377\377u?6>\234\305(\304\003\024"
  32      F0E0FFFF 
  32      753F363E 
  32      9CC528C4 
  32      0314
  33 003d 60656869 		.ascii	"`ehih\230\240\300\300\220\014V\020\002$A\272B\031\231"
  33      6898A0C0 
  33      C0900C56 
  33      10022441 
  33      BA421999 
  34 0051 4034F379 		.ascii	"@4\363y\206\346\007]\217\331\023\031\0272\262\002\245"
  34      86E6075D 
  34      8FD91319 
  34      1732B202 
  34      A5
  35 0062 AB197E35 		.ascii	"\253\031~5t4\010d2\002\225C\014\314\004\321\347\031"
  35      74340864 
  35      32029543 
  35      0CCC04D1 
  35      E719
  36 0074 5A1EF426 		.ascii	"Z\036\364&c(bJf\204\270\026$\"\221\311\310\234\313\310"
  36      6328624A 
  36      6684B816 
  36      242291C9 
  36      C89CCBC8 
  37 0088 005594C9 		.ascii	"\000U\224\311\310\002\322\326\374`\306a6l\2063#\033"
  37      C802D2D6 
  37      FC60C661 
  37      366C8633 
  37      231B
  38 009a DEBC600D 		.ascii	"\336\274`\01536E,(\212\036\234^\214\325(VTU7\261[\310"
  38      3336452C 
  38      288A1E9C 
  38      5E8CD528 
  38      56545537 
  39 00b1 86AAEACE 		.ascii	"\206\252\352\316c\254\252\330QU\275\302n\026\007\252"
  39      63ACAAD8 
  39      5155BDC2 
  39      6E1607AA 
  40 00c1 AACE56AC 		.ascii	"\252\316V\254\341\307\211\252j\306R\254fq!T]dh|0K\025"
  40      E1C789AA 
  40      6AC652AC 
  40      66712154 
  40      5D64687C 
  41 00d8 A6080242 		.ascii	"\246\010\002B\200\022\300x\002\005\263\236~F~n\252~"
  41      8012C078 
  41      0205B39E 
  41      7E467E6E 
  41      AA7E
  42 00ea 727E4AA5 		.ascii	"r~J\245~Jj\231~rFfRf~\261~IQi^\266>\220\221\221\230"
  42      7E4A6A99 
  42      7E724666 
  42      52667EB1 
  42      7E495169 
  43 0105 A35F5C94 		.ascii	"\243_\\\224\014\242\365\222\031\000\203\256\206\315"
  43      0CA2F592 
ARM GAS  /tmp/cc5GTagj.s 			page 3


  43      190083AE 
  43      86CD
  44              		.text
  45              		.section	.gnu.lto_.symbol_nodes.eb4a39dd55c6f3c5,"",%progbits
  46 0000 789C45CF 		.ascii	"x\234E\317\273\025\3020\020D\321\321\310\362\217\"("
  46      BB15C230 
  46      1044D1D1 
  46      C8F28F22 
  46      28
  47 0011 750C0263 		.ascii	"u\014\002c\210\250\200\304\2458\247\006|\234\022\022"
  47      88A880C4 
  47      A538A706 
  47      7C9C1212 
  48 0021 034270D8 		.ascii	"\003Bp\330M\356\276\315\226 \036\370\015_N\300\371\012"
  48      4DEEBECD 
  48      96201EF8 
  48      0D5F4EC0 
  48      F90A
  49 0033 4897C185 		.ascii	"H\227\301\205-\323\006w\242\334\367\332u\316\035)Z\015"
  49      2DD30677 
  49      A2DCF7DA 
  49      75CE1D29 
  49      5A0D
  50 0045 94B73A50 		.ascii	"\224\267:P\205UO\005\253=UZ\355\250\312*R\265\325\206"
  50      85554F05 
  50      AB3D555A 
  50      EDA8CA2A 
  50      52B5D586 
  51 0059 6AAC3AAA 		.ascii	"j\254:\252\375\227\307\012\361\366L\266\030\263\015"
  51      FD97C70A 
  51      F1F64CB6 
  51      18B30D
  52 0068 A66C8D25 		.ascii	"\246l\215%[!\316\037K\214\331\200)[`\311z\304\376\276"
  52      5B21CE1F 
  52      4B8CD980 
  52      295B60C9 
  52      7AC4FEBE 
  53 007c F6E9ED31 		.ascii	"\366\351\3551\2117\231wGl"
  53      89379977 
  53      476C
  54              		.text
  55              		.section	.gnu.lto_.refs.eb4a39dd55c6f3c5,"",%progbits
  56 0000 789C6362 		.ascii	"x\234cb`b`e\200\000F\006&F\006\000\000\237\000\016"
  56      60626065 
  56      80004606 
  56      26460600 
  56      009F000E 
  57              		.text
  58              		.section	.gnu.lto_.decls.eb4a39dd55c6f3c5,"",%progbits
  59 0000 789C9596 		.ascii	"x\234\225\226al\024E\024\307g\356\332k\257\255\3254"
  59      616C1445 
  59      14C767EE 
  59      DA6BAFAD 
  59      D534
  60 0012 914862C2 		.ascii	"\221Hb\302a\204D\222vc\213F\277`\260E \026\333DI\374"
  60      61844492 
  60      76638B46 
ARM GAS  /tmp/cc5GTagj.s 			page 4


  60      BF60B045 
  60      2016DB44 
  61 0028 76D9DE6E 		.ascii	"v\331\336n\271\215w\267\227\275=\002\237\034\252\241"
  61      B98D77B7 
  61      97BD3D02 
  61      9F1CAAA1 
  62 0038 0D1F4829 		.ascii	"\015\037H)\026\2546p\025\252\305\240\230\306\020\202"
  62      16AC3670 
  62      15AAC5A0 
  62      98C61082 
  63 0048 4D73421A 		.ascii	"MsB\032KH\216\202\200\240\255\036V\250\320\3046\301"
  63      4B488E82 
  63      80A0AD1E 
  63      56A8D0C4 
  63      36C1
  64 005a 0F25929C 		.ascii	"\017%\222\234of\367z\273w\273tw\22273\267;\357\367\376"
  64      6F66F77A 
  64      BB77BB74 
  64      77923733 
  64      B73BEFF7 
  65 006f 33F3666E 		.ascii	"3\363fn=\310\203\306\020B9(_W#t\320\213\340\011B\233"
  65      3DC883C6 
  65      10423928 
  65      5F572374 
  65      D08BE009 
  66 0085 C030D810 		.ascii	"\3000\330\020\322\012\274B\031\260k`\327\301n\202\335"
  66      D20ABC42 
  66      19B06B60 
  66      D7C16E82 
  66      DD
  67 0096 02FB156C 		.ascii	"\002\373\025l\032\354w\260,\330\237`\367t\337\277\221"
  67      1AEC77B0 
  67      2CD89F60 
  67      F774DFBF 
  67      91
  68 00a7 B950FF72 		.ascii	"\271P\377r\260\007`W\300\346u\376lQ\214{:'\253s\247"
  68      B0076057 
  68      C0E675FE 
  68      6C518C7B 
  68      3A27AB73 
  69 00bc F538B7F4 		.ascii	"\3658\267\364\270\327u\035V1\252\321\001B\272Hj?\331"
  69      B8D7751D 
  69      5631AAD1 
  69      0142BA48 
  69      6A3FD9
  70 00cf 36595B87 		.ascii	"6Y[\207\016\021()B\360d-B\357c\036\327\372Q\272\212"
  70      0E112829 
  70      42F0642D 
  70      42EF631E 
  70      D7FA51BA 
  71 00e4 F56AFC68 		.ascii	"\365j\374h\204\022\326\241\223\204\364f'r\253I\231\356"
  71      8412D6A1 
  71      9384F466 
  71      2772AB49 
  71      99EE
  72 00f6 10B01FCD 		.ascii	"\020\260\037\315\343\023x\035Zy\034\0359\214\353\320"
  72      E313781D 
ARM GAS  /tmp/cc5GTagj.s 			page 5


  72      5A791C1D 
  72      398CEBD0 
  73 0106 06740A06 		.ascii	"\006t\012\006\366\202\246\365\330$\224\205%\351\207"
  73      F682A6F5 
  73      D8249485 
  73      25E987
  74 0115 991A52A6 		.ascii	"\231\032R\246\015\245._\342\015\310\242\254E):\370Q"
  74      0DA52E5F 
  74      E20DC8A2 
  74      AC45293A 
  74      F851
  75 0127 661093D4 		.ascii	"f\020\223\324\005l\021>\213\363\341\237_\236S\372j\006"
  75      056C113E 
  75      8BF3E19F 
  75      5F9E53FA 
  75      6A06
  76 0139 07787C0A 		.ascii	"\007x|\012\306{P\0336\341WDP5\247\301Ss\322\325\036"
  76      C67B501B 
  76      36E15744 
  76      5035A7C1 
  76      5373D2D5 
  77 014e D6D49E76 		.ascii	"\326\324\236v\240\266+}43\270\232\252\365\243\236\302"
  77      A0B62B7D 
  77      3433B89A 
  77      AAF5A39E 
  77      C2
  78 015f 962C470B 		.ascii	"\226,G\013\344\203\225\025\366\240\277{\342G\334\005"
  78      E4839515 
  78      F6A0BF7B 
  78      E247DC05 
  79 016f BBC5E333 		.ascii	"\273\305\3433\340\346A\335\330\254\3329\352\352\201"
  79      E0E641DD 
  79      D8ACDA39 
  79      EAEA81
  80 017e B1D709A9 		.ascii	"\261\327\011\251\344\361(\003M\024\201x\\\3417Jf\277"
  80      E4F12803 
  80      4D148178 
  80      5CE1374A 
  80      66BF
  81 0190 F303288D 		.ascii	"\363\003(\215\275\326;\364l<\215\334\016\367\240)\026"
  81      BDD63BF4 
  81      6C3C8DDC 
  81      0EF7A029 
  81      16
  82 01a1 942E9695 		.ascii	"\224.\226\225P\275\253\025}\200i\001\263'g/a\322W\223"
  82      50BDAB15 
  82      7D806901 
  82      B327672F 
  82      61D25793 
  83 01b5 5F8C9BAE 		.ascii	"_\214\233\256q\001\323~\034\313\324\364\362y\330\214"
  83      7101D37E 
  83      1CCBD4F4 
  83      F279D88C 
  84 01c5 1358A5AD 		.ascii	"\023X\245\255\266\364\250\021v\3275\314\254\354\254"
  84      B6F4A811 
  84      76D735CC 
  84      ACECAC
ARM GAS  /tmp/cc5GTagj.s 			page 6


  85 01d4 1136EF04 		.ascii	"\0216\357\004\366\214\275\262\363F\330\202k\230Y\331"
  85      F68CBDB2 
  85      F346D882 
  85      6B9859D9 
  86 01e4 B811F6AF 		.ascii	"\270\021\366\257\023\330s\026\312\254\212\361t\361\370"
  86      13D87316 
  86      CAAC8AF1 
  86      74F1F8
  87 01f3 1BB85478 		.ascii	"\033\270Tx\374-^\013\365YV\237c\365yV\217\261z\234\325"
  87      FC2D5E0B 
  87      F559569F 
  87      63F57956 
  87      8FB17A9C 
  88 0208 69A8978B 		.ascii	"i\250\227\213\007=b\232\206\013\232\314\247x\245$#\351"
  88      073D629A 
  88      860B9ACC 
  88      A778A524 
  88      23E9
  89 021a DE363A41 		.ascii	"\3366:A\355\216 \036'0\323\014\003&\330\247\006X\267"
  89      ED8E201E 
  89      2730D30C 
  89      0326D8A7 
  89      0658B7
  90 022d 23D86BF6 		.ascii	"#\330k\366\312\2763\300\016:\202\265\333+;g\200\365"
  90      CABE33C0 
  90      0E3A82B5 
  90      DB2B3B67 
  90      80F5
  91 023f 3B82C5ED 		.ascii	";\202\305\355\225-\032`\203\216`=\330B\232!\027\264"
  91      952D1A60 
  91      838E603D 
  91      D8429A21 
  91      17B4
  92 0251 2CF88A65 		.ascii	",\370\212e\301\010\333\347\213\254\236`\365O\254\276"
  92      C108DBE7 
  92      8BAC9E60 
  92      F54FACBE 
  93 0261 C4EACBE6 		.ascii	"\304\352\313\346\375?\341)\276\330\264\277\022\003{"
  93      FD3FE129 
  93      BED8B4BF 
  93      12037B
  94 0270 7839CF90 		.ascii	"x9\317\220;\272U\226S\304\020\256\316\017Y\203\216\221"
  94      3BBA5596 
  94      53C410AE 
  94      CE0F5983 
  94      8E91
  95 0282 5436FBC3 		.ascii	"T6\373\303\341q\337\000I\177Lr\271\017\321*\324\317"
  95      E171DF00 
  95      497F4C72 
  95      B90FD12A 
  95      D4CF
  96 0294 FE75F7C3 		.ascii	"\376u\367\303E\256\362x\323\263\266\240+x\225\336\333"
  96      45AEF278 
  96      D3B3B6A0 
  96      2B7895DE 
  96      DB
  97 02a5 E9CD4F68 		.ascii	"\351\315Oh\272hB\010\255G\303\224GF\210\227\321\350"
ARM GAS  /tmp/cc5GTagj.s 			page 7


  97      BA684208 
  97      AD47C394 
  97      47468897 
  97      D1E8
  98 02b7 F80C5E63 		.ascii	"\370\014^c\236\344\024\366\030\037P]\331\336\354\300"
  98      9EE414F6 
  98      181F505D 
  98      D9DEECC0 
  99 02c7 D1997DF8 		.ascii	"\321\231}\370\320G\251I\262H\357d-\242\007\035\361\026"
  99      D047A949 
  99      B248EF64 
  99      2DA2071D 
  99      F116
 100 02d9 C7D0203F 		.ascii	"\307\320 ?[B\376\373l\256\376H\011c\304\206q\303\222"
 100      5B42FEFB 
 100      6CAEFE48 
 100      0963C486 
 100      71C392
 101 02ec 71E3F385 		.ascii	"q\343\363\205.\013!\367m \277XB\256\035\237\303\003"
 101      2E0B21F7 
 101      6D20BF58 
 101      42AE1D9F 
 101      C303
 102 02fe E482B6CA 		.ascii	"\344\202\266\312y\304p\2315\342\266%blv\362\355\022"
 102      79C47099 
 102      35E2B625 
 102      626C76F2 
 102      ED12
 103 0310 C41D1BC4 		.ascii	"\304\035\033\304o\226\210\321\271\251\035%\210\343\345"
 103      6F9688D1 
 103      B9A91D25 
 103      88E3E5
 104 031f D688194B 		.ascii	"\326\210\031K\304\340\374\322K%\210\3336\210?,\021}"
 104      C4E0FCD2 
 104      4B2588DB 
 104      36883F2C 
 104      117D
 105 0331 0B536F94 		.ascii	"\013So\224 >\361Y#\356X\"\376Z\270\214{\372\310\343"
 105      203EF159 
 105      23EE5822 
 105      FE5AB88C 
 105      7BFAC8E3 
 106 0345 5CCEEB22 		.ascii	"\\\316\353\"gg\365\234\365\262\317d\3754\024\022\030"
 106      6767F59C 
 106      F5B2CF64 
 106      FD341412 
 106      18
 107 0356 D11C1EB4 		.ascii	"\321\034\036\264\321q\327R\307\367\017\227\226p_In,"
 107      D171D752 
 107      C7F70F97 
 107      96705F49 
 107      6E2C
 108 0368 D840E6CC 		.ascii	"\330@\346\314\220\027\320\020Y\204\317\327\177.z\367"
 108      9017D010 
 108      5984CFD7 
 108      7F2E7AF7 
 109 0378 D1F5A0F3 		.ascii	"\321\365\240\363\301 \371\013v;=^\206\330\177\246\336"
ARM GAS  /tmp/cc5GTagj.s 			page 8


 109      C120F90B 
 109      763B3D5E 
 109      86D87FA6 
 109      DE
 110 0389 2F004D5F 		.ascii	"/\000M_\317\232\020\273uxP\270\004\212\274f\237\340"
 110      CF9A10BB 
 110      757850B8 
 110      048ABC66 
 110      9FE0
 111 039b 355FF042 		.ascii	"5_\360B[\270\260\034\025\271\220,\354\345\004q7\027"
 111      5BB8B01C 
 111      15B9902C 
 111      ECE50471 
 111      3717
 112 03ad 0A4B1D92 		.ascii	"\012K\035\222\234\340T%\031\373\200\203N\230\217pqY"
 112      9CE05425 
 112      19FB8083 
 112      4E988F70 
 112      7159
 113 03bf 5113DCBB 		.ascii	"Q\023\334\273\357\355hj\344Z[[\270\255\355\333\333v"
 113      EFED686A 
 113      E45A5B5B 
 113      B8ADEDDB 
 113      DB76
 114 03d1 3772713E 		.ascii	"7rq>\022\214D\204\2060\362m}gg\240\031\325%\324hScp"
 114      128C4484 
 114      8630F26D 
 114      7D6767A0 
 114      19D525D4 
 115 03e9 575C9283 		.ascii	"W\\\222\203\011QM\306\203\352\213\\2\241p\274\022\255"
 115      09514DC6 
 115      83EA8B5C 
 115      32A170BC 
 115      12AD
 116 03fb 8FC931B1 		.ascii	"\217\3111\261^\344;$N\212\205\"IA\344\022\252 \305T"
 116      5EE43B24 
 116      4E8A8522 
 116      4941E412 
 116      AA20C554 
 117 040f 70AF4C42 		.ascii	"p\257LB\013\216\352\306'\214\216\362\240-&rAA\354\344"
 117      0B8EEAC6 
 117      278C8EF2 
 117      A02D2672 
 117      4141ECE4 
 118 0423 931135A8 		.ascii	"\223\0215\250\356\215\213\011\360\256\012\006\363\376"
 118      EE8D8B09 
 118      F0AE0A06 
 118      F3FE
 119 0431 E5515910 		.ascii	"\345QY\020\025\237L_)\025r\".\212\202R\036O\306\005"
 119      159F4C5F 
 119      29157222 
 119      2E8A8252 
 119      1E4FC605 
 120 0445 C52B0B4A 		.ascii	"\305+\013J\031\337\251Dh\025\366\265on\341U\336\327"
 120      19DFA944 
 120      6815F6B5 
 120      6F6EE155 
ARM GAS  /tmp/cc5GTagj.s 			page 9


 120      DED7
 121 0457 FEA6D634 		.ascii	"\376\246\3264kM\213\326l\321\232m\264\361\267onm\226"
 121      6B4D8BD6 
 121      6CD19A6D 
 121      B4F1B76F 
 121      6E6D96
 122 046a 639DD2AE 		.ascii	"c\235\322\256\006'K\225PB\264m\010\241\012h\266\307"
 122      06274B95 
 122      5042B46D 
 122      08A10A68 
 122      B6C7
 123 047c 24F56527 		.ascii	"$\365e'n\205%\241\253\231P\251cU\003\327!\363\012]_"
 123      6E8525A1 
 123      AB9950A9 
 123      635503D7 
 123      21F30A5D 
 124 0491 3FEBD087 		.ascii	"?\353\320\207\257\272\241E\243\241`\".\001\240\002\272"
 124      AFBAA145 
 124      A3A16022 
 124      2E01A002 
 124      BA
 125 04a2 D4BDC98D 		.ascii	"\324\275\311\215{\222W\264\335\201\226:7\272\232\211"
 125      7B9257B4 
 125      DD81963A 
 125      37BA9A89 
 126 04b2 16171AEA 		.ascii	"\026\027\032\352\372\212+WQ\221`\011\351B\010\256\343"
 126      FA8A2B57 
 126      51916009 
 126      E94208AE 
 126      E3
 127 04c3 4A8D211A 		.ascii	"J\215!\032\027\032\327\256\274\300\\\241\241\256O\005"
 127      171AD7AE 
 127      BCC05CA1 
 127      A1AE4F05 
 128 04d3 F5FC0E4A 		.ascii	"\365\374\016J\360\253\305\3559a\365[\033\367\354\241"
 128      F0ABC5ED 
 128      3961F55B 
 128      1BF7ECA1 
 129 04e3 6FF46352 		.ascii	"o\364cR\0236\020\353(>\237\313!\226a\377\003Z\022\231"
 129      133610EB 
 129      283E9FCB 
 129      219661FF 
 129      035A1299 
 130 04f7 5B       		.ascii	"["
 131              		.text
 132              		.section	.gnu.lto_.symtab.eb4a39dd55c6f3c5,"",%progbits
 133 0000 68616C49 		.ascii	"halInit\000\000\000\000\000\000\000\000\000\000\000"
 133      6E697400 
 133      00000000 
 133      00000000 
 133      0000
 134 0012 00CE0000 		.ascii	"\000\316\000\000\000pal_default_config\000\000\002\000"
 134      0070616C 
 134      5F646566 
 134      61756C74 
 134      5F636F6E 
 135 002d 00000000 		.ascii	"\000\000\000\000\000\000\000\000\350\000\000\000stI"
ARM GAS  /tmp/cc5GTagj.s 			page 10


 135      00000000 
 135      E8000000 
 135      737449
 136 003c 6E697400 		.ascii	"nit\000\000\002\000\000\000\000\000\000\000\000\000"
 136      00020000 
 136      00000000 
 136      000000
 137 004b D2000000 		.ascii	"\322\000\000\000boardInit\000\000\002\000\000\000\000"
 137      626F6172 
 137      64496E69 
 137      74000002 
 137      00000000 
 138 005f 00000000 		.ascii	"\000\000\000\000\000\324\000\000\000mmcInit\000\000"
 138      00D40000 
 138      006D6D63 
 138      496E6974 
 138      0000
 139 0071 02000000 		.ascii	"\002\000\000\000\000\000\000\000\000\000\326\000\000"
 139      00000000 
 139      0000D600 
 139      00
 140 007e 00756172 		.ascii	"\000uartInit\000\000\002\000\000\000\000\000\000\000"
 140      74496E69 
 140      74000002 
 140      00000000 
 140      000000
 141 0091 0000D800 		.ascii	"\000\000\330\000\000\000spiInit\000\000\002\000\000"
 141      00007370 
 141      69496E69 
 141      74000002 
 141      0000
 142 00a3 00000000 		.ascii	"\000\000\000\000\000\000\000\332\000\000\000sdInit\000"
 142      000000DA 
 142      00000073 
 142      64496E69 
 142      7400
 143 00b5 00020000 		.ascii	"\000\002\000\000\000\000\000\000\000\000\000\334\000"
 143      00000000 
 143      000000DC 
 143      00
 144 00c2 00006932 		.ascii	"\000\000i2cInit\000\000\002\000\000\000\000\000\000"
 144      63496E69 
 144      74000002 
 144      00000000 
 144      0000
 145 00d4 000000DE 		.ascii	"\000\000\000\336\000\000\000adcInit\000\000\002\000"
 145      00000061 
 145      6463496E 
 145      69740000 
 145      0200
 146 00e6 00000000 		.ascii	"\000\000\000\000\000\000\000\000\340\000\000\000_pa"
 146      00000000 
 146      E0000000 
 146      5F7061
 147 00f5 6C5F6C6C 		.ascii	"l_lld_init\000\000\002\000\000\000\000\000\000\000\000"
 147      645F696E 
 147      69740000 
ARM GAS  /tmp/cc5GTagj.s 			page 11


 147      02000000 
 147      00000000 
 148 010a 00E20000 		.ascii	"\000\342\000\000\000hal_lld_init\000\000\002\000\000"
 148      0068616C 
 148      5F6C6C64 
 148      5F696E69 
 148      74000002 
 149 0120 00000000 		.ascii	"\000\000\000\000\000\000\000\346\000\000\000"
 149      000000E6 
 149      000000
 150              		.text
 151              		.section	.gnu.lto_.opts,"",%progbits
 152 0000 272D6D63 		.ascii	"'-mcpu=cortex-m4' '-mfloat-abi=hard' '-mfpu=fpv4-sp"
 152      70753D63 
 152      6F727465 
 152      782D6D34 
 152      2720272D 
 153 0033 2D643136 		.ascii	"-d16' '-mno-thumb-interwork' '-mthumb' '-O2' '-fomi"
 153      2720272D 
 153      6D6E6F2D 
 153      7468756D 
 153      622D696E 
 154 0066 742D6672 		.ascii	"t-frame-pointer' '-falign-functions=16' '-ffunction"
 154      616D652D 
 154      706F696E 
 154      74657227 
 154      20272D66 
 155 0099 2D736563 		.ascii	"-sections' '-fdata-sections' '-fno-common' '-flto' "
 155      74696F6E 
 155      73272027 
 155      2D666461 
 155      74612D73 
 156 00cc 272D6673 		.ascii	"'-fsingle-precision-constant'\000"
 156      696E676C 
 156      652D7072 
 156      65636973 
 156      696F6E2D 
 157              		.text
 158              		.section	.text.halInit,"ax",%progbits
 159              		.align	2
 160              		.p2align 4,,15
 161              		.global	halInit
 162              		.thumb
 163              		.thumb_func
 164              		.type	halInit, %function
 165              	halInit:
 166              		@ args = 0, pretend = 0, frame = 0
 167              		@ frame_needed = 0, uses_anonymous_args = 0
 168 0000 08B5     		push	{r3, lr}
 169 0002 FFF7FEFF 		bl	hal_lld_init
 170 0006 0A48     		ldr	r0, .L2
 171 0008 FFF7FEFF 		bl	_pal_lld_init
 172 000c FFF7FEFF 		bl	adcInit
 173 0010 FFF7FEFF 		bl	i2cInit
 174 0014 FFF7FEFF 		bl	sdInit
 175 0018 FFF7FEFF 		bl	spiInit
 176 001c FFF7FEFF 		bl	uartInit
ARM GAS  /tmp/cc5GTagj.s 			page 12


 177 0020 FFF7FEFF 		bl	mmcInit
 178 0024 FFF7FEFF 		bl	boardInit
 179 0028 BDE80840 		pop	{r3, lr}
 180 002c FFF7FEBF 		b	stInit
 181              	.L3:
 182              		.align	2
 183              	.L2:
 184 0030 00000000 		.word	pal_default_config
 185              		.size	halInit, .-halInit
 186              		.comm	__gnu_lto_v1,1,1
 187 0034 AFF30080 		.ident	"GCC: (GNU Tools for ARM Embedded Processors) 4.8.4 20140526 (release) [ARM/embedded-4_8-br
 187      AFF30080 
 187      AFF30080 
ARM GAS  /tmp/cc5GTagj.s 			page 13


DEFINED SYMBOLS
                            *ABS*:0000000000000000 hal.c
     /tmp/cc5GTagj.s:159    .text.halInit:0000000000000000 $t
     /tmp/cc5GTagj.s:165    .text.halInit:0000000000000000 halInit
     /tmp/cc5GTagj.s:184    .text.halInit:0000000000000030 $d
                            *COM*:0000000000000001 __gnu_lto_v1
     /tmp/cc5GTagj.s:187    .text.halInit:0000000000000034 $t

UNDEFINED SYMBOLS
hal_lld_init
_pal_lld_init
adcInit
i2cInit
sdInit
spiInit
uartInit
mmcInit
boardInit
stInit
pal_default_config
