ARM GAS  /tmp/ccMjPFs4.s 			page 1


   1              		.syntax unified
   2              		.cpu cortex-m4
   3              		.eabi_attribute 27, 3
   4              		.eabi_attribute 28, 1
   5              		.fpu fpv4-sp-d16
   6              		.eabi_attribute 20, 1
   7              		.eabi_attribute 21, 1
   8              		.eabi_attribute 23, 3
   9              		.eabi_attribute 24, 1
  10              		.eabi_attribute 25, 1
  11              		.eabi_attribute 26, 1
  12              		.eabi_attribute 30, 2
  13              		.eabi_attribute 34, 1
  14              		.eabi_attribute 18, 4
  15              		.thumb
  16              		.file	"hal.c"
  17              		.section	.gnu.lto_.jmpfuncs.31a4b085d73140e3,"",%progbits
  18 0000 789C6362 		.ascii	"x\234cb`b\300\006\024\2404#B\210\221\251\232\341W\303"
  18      6062C006 
  18      14A03423 
  18      428891A9 
  18      9AE157C3 
  19 0014 8C06814C 		.ascii	"\214\006\201LF\206\\\2308\000A\340\004\036"
  19      46865C98 
  19      380041E0 
  19      041E
  20              		.text
  21              		.section	.gnu.lto_.inline.31a4b085d73140e3,"",%progbits
  22 0000 789C6362 		.ascii	"x\234cb`b\300\006<\2404#\003\003\337s \011R\305\266"
  22      6062C006 
  22      3CA03423 
  22      0303DF73 
  22      200952C5 
  23 0015 401EAC98 		.ascii	"@\036\254\230\221\2138\202\211\033\244\037\314d\000"
  23      918B3882 
  23      891BA41F 
  23      CC6400
  24 0024 0094CD02 		.ascii	"\000\224\315\002~"
  24      7E
  25              		.text
  26              		.section	.gnu.lto_.pureconst.31a4b085d73140e3,"",%progbits
  27 0000 789C6362 		.ascii	"x\234cb`b`f\200\000F\006\011\000\000\203\000!"
  27      60626066 
  27      80004606 
  27      09000083 
  27      0021
  28              		.text
  29              		.section	.gnu.lto_halInit.31a4b085d73140e3,"",%progbits
  30 0000 789C6362 		.ascii	"x\234cb`b@\007\222@\374\220\221\201\301\000H32302M8"
  30      60624007 
  30      9240FC90 
  30      9181C100 
  30      48333233 
  31 0018 C7C0D0C8 		.ascii	"\307\300\320\310\301\304\310\010b002\32431\326G2\202"
  31      C1C4C808 
  31      62303032 
  31      D43331D6 
ARM GAS  /tmp/ccMjPFs4.s 			page 2


  31      473282
  32 002b D5AE673A 		.ascii	"\325\256g:\360\340\377\377u?6>\234\305(\304\003\024"
  32      F0E0FFFF 
  32      753F363E 
  32      9CC528C4 
  32      0314
  33 003d 60656869 		.ascii	"`ehih\230\240\300\300\220\014V\020\002$A\272B\031\231"
  33      6898A0C0 
  33      C0900C56 
  33      10022441 
  33      BA421999 
  34 0051 4034F379 		.ascii	"@4\363y\206\346\007]\217\331\023\031\0272\262\002\245"
  34      86E6075D 
  34      8FD91319 
  34      1732B202 
  34      A5
  35 0062 AB197E35 		.ascii	"\253\031~5t4\010d2\002\225C\014\314\004\321\347\031"
  35      74340864 
  35      32029543 
  35      0CCC04D1 
  35      E719
  36 0074 5A1EF426 		.ascii	"Z\036\364&c(bJf\204\270\026$\"\221\311\310\234\313\310"
  36      6328624A 
  36      6684B816 
  36      242291C9 
  36      C89CCBC8 
  37 0088 005594C9 		.ascii	"\000U\224\311\310\002\322\326\374`\306a6l\2063#\033"
  37      C802D2D6 
  37      FC60C661 
  37      366C8633 
  37      231B
  38 009a DEBC600D 		.ascii	"\336\274`\01536E,(\212\036\234^\214\325(VTU7\261[\310"
  38      3336452C 
  38      288A1E9C 
  38      5E8CD528 
  38      56545537 
  39 00b1 86AAEACE 		.ascii	"\206\252\352\316c\254\252\330QU\275\302n\026\007\252"
  39      63ACAAD8 
  39      5155BDC2 
  39      6E1607AA 
  40 00c1 AACE56AC 		.ascii	"\252\316V\254\341\307\211\252j\306R\254fq!T]dh|0K\025"
  40      E1C789AA 
  40      6AC652AC 
  40      66712154 
  40      5D64687C 
  41 00d8 A6080242 		.ascii	"\246\010\002B\200\022\300x\002\005\263\236~F~n\252~"
  41      8012C078 
  41      0205B39E 
  41      7E467E6E 
  41      AA7E
  42 00ea 727E4AA5 		.ascii	"r~J\245~Jj\231~rFfRf~\261~IQi^\266>\220\221\221\230"
  42      7E4A6A99 
  42      7E724666 
  42      52667EB1 
  42      7E495169 
  43 0105 A35F5C94 		.ascii	"\243_\\\224\014\242\365\222\031\000\203\256\206\315"
  43      0CA2F592 
ARM GAS  /tmp/ccMjPFs4.s 			page 3


  43      190083AE 
  43      86CD
  44              		.text
  45              		.section	.gnu.lto_.symbol_nodes.31a4b085d73140e3,"",%progbits
  46 0000 789C45CF 		.ascii	"x\234E\317\273\025\3020\020D\321\321\310\362\217\"("
  46      BB15C230 
  46      1044D1D1 
  46      C8F28F22 
  46      28
  47 0011 750C0263 		.ascii	"u\014\002c\210\250\200\304\2458\247\006|\234\022\022"
  47      88A880C4 
  47      A538A706 
  47      7C9C1212 
  48 0021 034270D8 		.ascii	"\003Bp\330M\356\276\315\226 \036\370\015_N\300\371\012"
  48      4DEEBECD 
  48      96201EF8 
  48      0D5F4EC0 
  48      F90A
  49 0033 4897C185 		.ascii	"H\227\301\205-\323\006w\242\334\367\332u\316\035)Z\015"
  49      2DD30677 
  49      A2DCF7DA 
  49      75CE1D29 
  49      5A0D
  50 0045 94B73A50 		.ascii	"\224\267:P\205UO\005\253=UZ\355\250\312*R\265\325\206"
  50      85554F05 
  50      AB3D555A 
  50      EDA8CA2A 
  50      52B5D586 
  51 0059 6AAC3AAA 		.ascii	"j\254:\252\375\227\307\012\361\366L\266\030\263\015"
  51      FD97C70A 
  51      F1F64CB6 
  51      18B30D
  52 0068 A66C8D25 		.ascii	"\246l\215%[!\316\037K\214\331\200)[`\311z\304\376\276"
  52      5B21CE1F 
  52      4B8CD980 
  52      295B60C9 
  52      7AC4FEBE 
  53 007c F6E9ED31 		.ascii	"\366\351\3551\2117\231wGl"
  53      89379977 
  53      476C
  54              		.text
  55              		.section	.gnu.lto_.refs.31a4b085d73140e3,"",%progbits
  56 0000 789C6362 		.ascii	"x\234cb`b`e\200\000F\006&F\006\000\000\237\000\016"
  56      60626065 
  56      80004606 
  56      26460600 
  56      009F000E 
  57              		.text
  58              		.section	.gnu.lto_.decls.31a4b085d73140e3,"",%progbits
  59 0000 789C9596 		.ascii	"x\234\225\226al\024E\024\307g\356\332k\257\255h\232"
  59      616C1445 
  59      14C767EE 
  59      DA6BAFAD 
  59      689A
  60 0012 482431E1 		.ascii	"H$1\3410B\"I\273\261E\243_0\330\"\020\213m\242$~\273"
  60      30422249 
  60      BBB145A3 
ARM GAS  /tmp/ccMjPFs4.s 			page 4


  60      5F30D822 
  60      108B6DA2 
  61 0029 6C6FB7DC 		.ascii	"lo\267\334\306\273\333\313\336\036\201O\016\325\320"
  61      C6BBDBCB 
  61      DE1E814F 
  61      0ED5D0
  62 0038 860FA414 		.ascii	"\206\017\244\024\01366p\025\252\305\240\222\306\020"
  62      0B363670 
  62      15AAC5A0 
  62      92C610
  63 0047 824D7342 		.ascii	"\202MsB\032KH\216\202\200\200\255\036VZ\241\211m\202"
  63      1A4B488E 
  63      828080AD 
  63      1E565AA1 
  63      896D82
  64 005a 1F4A2439 		.ascii	"\037J$9\337\314\356\365v\357v\351\356$ofnw\336\357\375"
  64      DFCCEEF5 
  64      76EF76E9 
  64      EE246F66 
  64      6E77DEEF 
  65 006f 67E6CDDC 		.ascii	"g\346\315\334z\220\007\215\"\204rP\276\251F\350\220"
  65      7A90078D 
  65      22847250 
  65      BEA946E8 
  65      90
  66 0080 17C11384 		.ascii	"\027\301\023\2046\203a\260A\244\025x\2052`\327\301n"
  66      368361B0 
  66      41A41578 
  66      853260D7 
  66      C16E
  67 0092 80DD02BB 		.ascii	"\200\335\002\273\015v\027l\012\354w\260,\330\237`\263"
  67      0D76176C 
  67      0AEC77B0 
  67      2CD89F60 
  67      B3
  68 00a3 BAEFDFC8 		.ascii	"\272\357\337\310\\\250\1779\330C\260\253`\363:\177\246"
  68      5CA87F39 
  68      D843B0AB 
  68      60F33A7F 
  68      A6
  69 00b4 28C6ACCE 		.ascii	"(\306\254\316\311\352\334)=\316m=\356\015]\207U\214"
  69      C9EADC29 
  69      3DCE6D3D 
  69      EE0D5D87 
  69      558C
  70 00c6 6A749090 		.ascii	"jt\220\220N\222:@\266O\254\252E\207\011\224\024!xb\025"
  70      4E923A40 
  70      B64FACAA 
  70      45870994 
  70      14217862 
  71 00db 421F621E 		.ascii	"B\037b\036\257\362\243t\025\353\325\370\3210%\254G\247"
  71      AFF2A374 
  71      15EBD5F8 
  71      D13025AC 
  71      47A7
  72 00ed 08E9C98E 		.ascii	"\010\351\311\216\347\326\2202\335!`?\232\307'\361z\264"
  72      E7D69032 
ARM GAS  /tmp/ccMjPFs4.s 			page 5


  72      DD21603F 
  72      9AC727F1 
  72      7AB4
  73 00ff F2383A72 		.ascii	"\3628:r\010\327\242\215\3504\014\354\001M\033\260I("
  73      08D7A28D 
  73      E8340CEC 
  73      014D1BB0 
  73      4928
  74 0111 0B4BD28F 		.ascii	"\013K\322\21725\244L\033J]\276\302\033\221EY\207Rt\360"
  74      3235A44C 
  74      1B4A5DBE 
  74      C21B9145 
  74      59875274 
  75 0126 E3CC0026 		.ascii	"\343\314\000&\251\213\330\"|\026\347\303\277\270<\247"
  75      A98BD822 
  75      7C16E7C3 
  75      BFB83CA7 
  76 0136 F4B50C0E 		.ascii	"\364\265\014\016\360\3704\214\367\240Vl\302\257\210"
  76      F0F8348C 
  76      F7A0566C 
  76      C2AF88
  77 0145 A06ACE80 		.ascii	"\240j\316\200\247\346\244\253=\242\251=\343@mg\372X"
  77      A7E6A4AB 
  77      3DA2A93D 
  77      E3406D67 
  77      FA58
  78 0157 66600D55 		.ascii	"f`\015U\353G\335\205-Y\216\026\310\007++\354A_\327\370"
  78      EB47DD85 
  78      2D598E16 
  78      C8072B2B 
  78      EC415FD7 
  79 016c 4FB81376 		.ascii	"O\270\023v\213\307\337\203\233\007ua\263j\347\250k\007"
  79      8BC7DF83 
  79      9B077561 
  79      B36AE7A8 
  79      6B07
  80 017e 47DF24A4 		.ascii	"G\337$\244\222\307#\0144^\004\342q\205\337(\231\375"
  80      92C7230C 
  80      345E04E2 
  80      7185DF28 
  80      99FD
  81 0190 CE0FA034 		.ascii	"\316\017\2404\366Z\357\320\263\361,r;\334\203&YP\272"
  81      F65AEFD0 
  81      B3F12C72 
  81      3BDC8326 
  81      5950BA
  82 01a3 585642F5 		.ascii	"XVB\365\256V\364\001\246\005\314\236\232\271\214IoM"
  82      AE56F401 
  82      A605CC9E 
  82      9AB98C49 
  82      6F4D
  83 01b5 7E316EB9 		.ascii	"~1n\271\306\005L\373q<S\323\303\347a\323N`\225\266\332"
  83      C6054CFB 
  83      713C53D3 
  83      C3E761D3 
  83      4E6095B6 
  84 01ca D22346D8 		.ascii	"\322#F\330}\3270\263\262sF\330\274\023\330s\366\312"
ARM GAS  /tmp/ccMjPFs4.s 			page 6


  84      7DD730B3 
  84      B27346D8 
  84      BC13D873 
  84      F6CA
  85 01dc 2E18610B 		.ascii	".\030a\013\256afecF\330\277N`/X(\263*\306\323\305\343"
  85      AE616665 
  85      6346D8BF 
  85      4E602F58 
  85      28B32AC6 
  86 01f3 6FE152E1 		.ascii	"o\341R\341\361wx\035\324\347X}\236\325\027X=\312\352"
  86      F177781D 
  86      D4E7587D 
  86      9ED51758 
  86      3DCAEA
  87 0206 3156A7A1 		.ascii	"1V\247\241^.\036\364\230i\032*h2\237\342\225\222\214"
  87      5E2E1EF4 
  87      98691A2A 
  87      68329FE2 
  87      95928C
  88 0219 A47B5AE9 		.ascii	"\244{Z\351\004\265;\202x\234\300L3\014\230`\237\033"
  88      04B53B82 
  88      789CC04C 
  88      330C9860 
  88      9F1B
  89 022b 605D8E60 		.ascii	"`]\216`o\330+;k\200\035r\004k\263Wv\336\000\353s\004"
  89      6FD82B3B 
  89      6B801D72 
  89      046BB357 
  89      76DE00EB 
  90 0241 8BDB2B5B 		.ascii	"\213\333+[4\300\006\034\301\272\261\2054C.hY\3605\313"
  90      34C0061C 
  90      C1BAB185 
  90      34432E68 
  90      59F035CB 
  91 0255 8261B6CF 		.ascii	"\202a\266\317\227X=\316\352\237Y}\231\325W\314\373\177"
  91      97583DCE 
  91      EA9F597D 
  91      99D557CC 
  91      FB7F
  92 0267 D2537CB1 		.ascii	"\322S|\261i\177%\006\366\320r\236!wt\253,\247\210A\\"
  92      697F2506 
  92      F6D0729E 
  92      217774AB 
  92      2CA78841 
  93 027c 9D1FB216 		.ascii	"\235\037\262\026\035'\251l\366\307#c\276~\222\376\224"
  93      1D27A96C 
  93      F6C72363 
  93      BE7E92FE 
  93      94
  94 028d E4721FA3 		.ascii	"\344r\037\243\325\250\217\375\353\036\200\213\\\345"
  94      D5A88FFD 
  94      EB1E808B 
  94      5CE5
  95 029b F1E6E76D 		.ascii	"\361\346\347mAW\361j\275\267\313\233\237\320T\321\204"
  95      4157F16A 
  95      BDB7CB9B 
  95      9FD054D1 
ARM GAS  /tmp/ccMjPFs4.s 			page 7


  95      84
  96 02ac 10DA8086 		.ascii	"\020\332\200\206(\217\014\023/\243\321\361\031\274\326"
  96      288F0C13 
  96      2FA3D1F1 
  96      19BCD6
  97 02bb 3CC949EC 		.ascii	"<\311I\3541>\240\272\262=\331\376c\323\373\361\341O"
  97      313EA0BA 
  97      B23DD9FE 
  97      63D3FBF1 
  97      E14F
  98 02cd 52136491 		.ascii	"R\023d\221\336\311ZD\017:\352-\216\241A~\261\204\374"
  98      DEC95A44 
  98      0F3AEA2D 
  98      8EA1417E 
  98      B184FC
  99 02e0 7777B6EE 		.ascii	"ww\266\356h\011c\330\206q\323\222q\363\213\205N\013"
  99      680963D8 
  99      8671D392 
  99      71F38B85 
  99      4E0B
 100 02f2 210F6C20 		.ascii	"!\017l \277ZB\256\237\230\303\375\344\242\266\312y\304"
 100      BF5A42AE 
 100      9F98C3FD 
 100      E4A2B6CA 
 100      79C4
 101 0304 509935E2 		.ascii	"P\2315\342\216%btf\342\335\022\304=\033\304o\226\210"
 101      8E256274 
 101      66E2DD12 
 101      C43D1BC4 
 101      6F9688
 102 0317 91B9C99D 		.ascii	"\221\271\311\235%\210\023\345\326\210iK\304\300\374"
 102      258813E5 
 102      D688694B 
 102      C4C0FC
 103 0326 D22B2588 		.ascii	"\322+%\210;6\210?,\021\275\013\223o\225 >\363Y#\356"
 103      3B36883F 
 103      2C11BD0B 
 103      936F9520 
 103      3EF35923 
 104 033b 5922FE5A 		.ascii	"Y\"\376Z\270\202\273{\311\223\\\316\353\"gg\364\234"
 104      B882BB7B 
 104      C9935CCE 
 104      EB226767 
 104      F49C
 105 034d F5B2CF64 		.ascii	"\365\262\317d\3754\024\022\030\321\034\036\260\321q"
 105      FD341412 
 105      18D11C1E 
 105      B0D171
 106 035c DF52C70F 		.ascii	"\337R\307\017\217\226\226poIn,\330@\346\314\220\227"
 106      8F969670 
 106      6F496E2C 
 106      D840E6CC 
 106      9097
 107 036e D0205984 		.ascii	"\320 Y\204\317\327\177.y\367\323\365\240\363\301 \371"
 107      CFD77F2E 
 107      79F7D3F5 
 107      A0F3C120 
ARM GAS  /tmp/ccMjPFs4.s 			page 8


 107      F9
 108 037f 4B763B3D 		.ascii	"Kv;=Y\206\330\177\246>(\000M_\317\232\020\273uxX\270"
 108      5986D87F 
 108      A63E2800 
 108      4D5FCF9A 
 108      10BB7578 
 109 0395 048ABC66 		.ascii	"\004\212\274f\236\3425_\360B[\271\260\034\025\271\220"
 109      9EE2355F 
 109      F0425BB9 
 109      B01C15B9 
 109      90
 110 03a6 2CECE304 		.ascii	",\354\343\004q\017\027\012K\355\222\234\340T%\031\373"
 110      710F170A 
 110      4BED929C 
 110      E0542519 
 110      FB
 111 03b7 88834E98 		.ascii	"\210\203N\230\217pqYQ\023\334\373\037\354ll\340ZZ\232"
 111      8F707159 
 111      5113DCFB 
 111      1FEC6C6C 
 111      E05A5A9A 
 112 03cb B96D6D3B 		.ascii	"\271mm;Z\3674pq>\022\214D\204\3720\362m{oW\240\011\325"
 112      5AF73470 
 112      713E128C 
 112      4484FA30 
 112      F26D7B6F 
 113 03e3 26D46863 		.ascii	"&\324hcCpw\\\222\203\011QM\306\203\352\313\\2\241p\274"
 113      4370775C 
 113      92830951 
 113      4DC683EA 
 113      CB5C32A1 
 114 03f9 12AD8BC9 		.ascii	"\022\255\213\3111\261N\344\333%N\212\205\"IA\344\022"
 114      31B14EE4 
 114      DB254E8A 
 114      85224941 
 114      E412
 115 040b AA20C554 		.ascii	"\252 \305Tp\257LB\013\216\352\246\247\214\216\362\240"
 115      70AF4C42 
 115      0B8EEAA6 
 115      A78C8EF2 
 115      A0
 116 041c 2D267241 		.ascii	"-&rAA\354\340\223\0215\250\356\213\213\011\360\256\012"
 116      41ECE093 
 116      1135A8EE 
 116      8B8B09F0 
 116      AE0A
 117 042e 06F3FEE5 		.ascii	"\006\363\376\345QY\020\025\237L_)\025r\".\212\202R\036"
 117      51591015 
 117      9F4C5F29 
 117      1572222E 
 117      8A82521E 
 118 0442 4FC605C5 		.ascii	"O\306\005\305+\013J\031\337\241Dh\025\366\265mi\346"
 118      2B0B4A19 
 118      DFA14468 
 118      15F6B56D 
 118      69E6
 119 0454 55DED7F6 		.ascii	"U\336\327\366\266\3264iM\263\326l\325\232\355\264\361"
ARM GAS  /tmp/ccMjPFs4.s 			page 9


 119      B6D63469 
 119      4DB3D66C 
 119      D59AEDB4 
 119      F1
 120 0465 B76D6969 		.ascii	"\267mii\222c\035\322\356z'K\225PB\264\255\017\241\012"
 120      92631DD2 
 120      EE7A274B 
 120      955042B4 
 120      AD0FA10A 
 121 0479 6876C424 		.ascii	"hv\304$\365U'n\205%\241\253\231P\251cU=\327.\363\012"
 121      F555276E 
 121      8525A1AB 
 121      9950A963 
 121      553DD72E 
 122 048f 5D5F3FEB 		.ascii	"]_?\353\320\207\257\273\241E\243\241`\".\001\240\002"
 122      D087AFBB 
 122      A145A3A1 
 122      60222E01 
 122      A002
 123 04a1 BAD4BDD1 		.ascii	"\272\324\275\321\215{\222W\264\335\201\226:7\270\232"
 123      8D7B9257 
 123      B4DD8196 
 123      3A37B89A 
 124 04b1 8916171A 		.ascii	"\211\026\027\032\352\372\232+WQ\221`\011\351B\010\256"
 124      EAFA9A2B 
 124      57519160 
 124      09E94208 
 124      AE
 125 04c2 E34A0D21 		.ascii	"\343J\015!\032\027\032\327\256\274\300\\\241\241\256"
 125      1A171AD7 
 125      AEBCC05C 
 125      A1A1AE
 126 04d1 CF04F5FC 		.ascii	"\317\004\365\374\016J\360\253\331\3559a\365;\233\366"
 126      0E4AF0AB 
 126      D9ED3961 
 126      F53B9BF6 
 127 04e1 EEA56FF4 		.ascii	"\356\245o\364cR\0236\020k)>\237\313!\226a\377\003\014"
 127      63521336 
 127      106B293E 
 127      9FCB2196 
 127      61FF030C 
 128 04f5 4D999A   		.ascii	"M\231\232"
 129              		.text
 130              		.section	.gnu.lto_.symtab.31a4b085d73140e3,"",%progbits
 131 0000 68616C49 		.ascii	"halInit\000\000\000\000\000\000\000\000\000\000\000"
 131      6E697400 
 131      00000000 
 131      00000000 
 131      0000
 132 0012 00CE0000 		.ascii	"\000\316\000\000\000pal_default_config\000\000\002\000"
 132      0070616C 
 132      5F646566 
 132      61756C74 
 132      5F636F6E 
 133 002d 00000000 		.ascii	"\000\000\000\000\000\000\000\000\350\000\000\000stI"
 133      00000000 
 133      E8000000 
ARM GAS  /tmp/ccMjPFs4.s 			page 10


 133      737449
 134 003c 6E697400 		.ascii	"nit\000\000\002\000\000\000\000\000\000\000\000\000"
 134      00020000 
 134      00000000 
 134      000000
 135 004b D2000000 		.ascii	"\322\000\000\000boardInit\000\000\002\000\000\000\000"
 135      626F6172 
 135      64496E69 
 135      74000002 
 135      00000000 
 136 005f 00000000 		.ascii	"\000\000\000\000\000\324\000\000\000mmcInit\000\000"
 136      00D40000 
 136      006D6D63 
 136      496E6974 
 136      0000
 137 0071 02000000 		.ascii	"\002\000\000\000\000\000\000\000\000\000\326\000\000"
 137      00000000 
 137      0000D600 
 137      00
 138 007e 00756172 		.ascii	"\000uartInit\000\000\002\000\000\000\000\000\000\000"
 138      74496E69 
 138      74000002 
 138      00000000 
 138      000000
 139 0091 0000D800 		.ascii	"\000\000\330\000\000\000spiInit\000\000\002\000\000"
 139      00007370 
 139      69496E69 
 139      74000002 
 139      0000
 140 00a3 00000000 		.ascii	"\000\000\000\000\000\000\000\332\000\000\000sdInit\000"
 140      000000DA 
 140      00000073 
 140      64496E69 
 140      7400
 141 00b5 00020000 		.ascii	"\000\002\000\000\000\000\000\000\000\000\000\334\000"
 141      00000000 
 141      000000DC 
 141      00
 142 00c2 00006932 		.ascii	"\000\000i2cInit\000\000\002\000\000\000\000\000\000"
 142      63496E69 
 142      74000002 
 142      00000000 
 142      0000
 143 00d4 000000DE 		.ascii	"\000\000\000\336\000\000\000adcInit\000\000\002\000"
 143      00000061 
 143      6463496E 
 143      69740000 
 143      0200
 144 00e6 00000000 		.ascii	"\000\000\000\000\000\000\000\000\340\000\000\000_pa"
 144      00000000 
 144      E0000000 
 144      5F7061
 145 00f5 6C5F6C6C 		.ascii	"l_lld_init\000\000\002\000\000\000\000\000\000\000\000"
 145      645F696E 
 145      69740000 
 145      02000000 
 145      00000000 
ARM GAS  /tmp/ccMjPFs4.s 			page 11


 146 010a 00E20000 		.ascii	"\000\342\000\000\000hal_lld_init\000\000\002\000\000"
 146      0068616C 
 146      5F6C6C64 
 146      5F696E69 
 146      74000002 
 147 0120 00000000 		.ascii	"\000\000\000\000\000\000\000\346\000\000\000"
 147      000000E6 
 147      000000
 148              		.text
 149              		.section	.gnu.lto_.opts,"",%progbits
 150 0000 272D6D63 		.ascii	"'-mcpu=cortex-m4' '-mfloat-abi=hard' '-mfpu=fpv4-sp"
 150      70753D63 
 150      6F727465 
 150      782D6D34 
 150      2720272D 
 151 0033 2D643136 		.ascii	"-d16' '-mno-thumb-interwork' '-mthumb' '-O2' '-fomi"
 151      2720272D 
 151      6D6E6F2D 
 151      7468756D 
 151      622D696E 
 152 0066 742D6672 		.ascii	"t-frame-pointer' '-falign-functions=16' '-ffunction"
 152      616D652D 
 152      706F696E 
 152      74657227 
 152      20272D66 
 153 0099 2D736563 		.ascii	"-sections' '-fdata-sections' '-fno-common' '-flto' "
 153      74696F6E 
 153      73272027 
 153      2D666461 
 153      74612D73 
 154 00cc 272D6673 		.ascii	"'-fsingle-precision-constant'\000"
 154      696E676C 
 154      652D7072 
 154      65636973 
 154      696F6E2D 
 155              		.text
 156              		.section	.text.halInit,"ax",%progbits
 157              		.align	2
 158              		.p2align 4,,15
 159              		.global	halInit
 160              		.thumb
 161              		.thumb_func
 162              		.type	halInit, %function
 163              	halInit:
 164              		@ args = 0, pretend = 0, frame = 0
 165              		@ frame_needed = 0, uses_anonymous_args = 0
 166 0000 08B5     		push	{r3, lr}
 167 0002 FFF7FEFF 		bl	hal_lld_init
 168 0006 0A48     		ldr	r0, .L2
 169 0008 FFF7FEFF 		bl	_pal_lld_init
 170 000c FFF7FEFF 		bl	adcInit
 171 0010 FFF7FEFF 		bl	i2cInit
 172 0014 FFF7FEFF 		bl	sdInit
 173 0018 FFF7FEFF 		bl	spiInit
 174 001c FFF7FEFF 		bl	uartInit
 175 0020 FFF7FEFF 		bl	mmcInit
 176 0024 FFF7FEFF 		bl	boardInit
ARM GAS  /tmp/ccMjPFs4.s 			page 12


 177 0028 BDE80840 		pop	{r3, lr}
 178 002c FFF7FEBF 		b	stInit
 179              	.L3:
 180              		.align	2
 181              	.L2:
 182 0030 00000000 		.word	pal_default_config
 183              		.size	halInit, .-halInit
 184              		.comm	__gnu_lto_v1,1,1
 185 0034 AFF30080 		.ident	"GCC: (GNU Tools for ARM Embedded Processors) 4.8.4 20140526 (release) [ARM/embedded-4_8-br
 185      AFF30080 
 185      AFF30080 
ARM GAS  /tmp/ccMjPFs4.s 			page 13


DEFINED SYMBOLS
                            *ABS*:0000000000000000 hal.c
     /tmp/ccMjPFs4.s:157    .text.halInit:0000000000000000 $t
     /tmp/ccMjPFs4.s:163    .text.halInit:0000000000000000 halInit
     /tmp/ccMjPFs4.s:182    .text.halInit:0000000000000030 $d
                            *COM*:0000000000000001 __gnu_lto_v1
     /tmp/ccMjPFs4.s:185    .text.halInit:0000000000000034 $t

UNDEFINED SYMBOLS
hal_lld_init
_pal_lld_init
adcInit
i2cInit
sdInit
spiInit
uartInit
mmcInit
boardInit
stInit
pal_default_config
