ARM GAS  /tmp/ccLB3RFy.s 			page 1


   1              		.syntax unified
   2              		.cpu cortex-m4
   3              		.eabi_attribute 27, 3
   4              		.eabi_attribute 28, 1
   5              		.fpu fpv4-sp-d16
   6              		.eabi_attribute 20, 1
   7              		.eabi_attribute 21, 1
   8              		.eabi_attribute 23, 3
   9              		.eabi_attribute 24, 1
  10              		.eabi_attribute 25, 1
  11              		.eabi_attribute 26, 1
  12              		.eabi_attribute 30, 2
  13              		.eabi_attribute 34, 1
  14              		.eabi_attribute 18, 4
  15              		.thumb
  16              		.file	"hal_lld.c"
  17              		.section	.gnu.lto_.jmpfuncs.abaa26255bfdd264,"",%progbits
  18 0000 789C6362 		.ascii	"x\234cb`b\300\006\330\2414H\226\221\201\001\000\001"
  18      6062C006 
  18      D8A13448 
  18      96918101 
  18      0001
  19 0012 39000F   		.ascii	"9\000\017"
  20              		.text
  21              		.section	.gnu.lto_.inline.abaa26255bfdd264,"",%progbits
  22 0000 789C6362 		.ascii	"x\234cb`b\300\006\014\2404PVA\203\221\201\311b\301z"
  22      6062C006 
  22      0CA03450 
  22      56418391 
  22      81C962C1 
  23 0015 6606B605 		.ascii	"f\006\266\005\362`\325\214\\ \202\301\366:\023P\246"
  23      F260D58C 
  23      5C2082C1 
  23      F63A1350 
  23      A6
  24 0026 E4C5454D 		.ascii	"\344\305EM\270\014\003\000\251N\007\025"
  24      B80C0300 
  24      A94E0715 
  25              		.text
  26              		.section	.gnu.lto_.pureconst.abaa26255bfdd264,"",%progbits
  27 0000 789C6362 		.ascii	"x\234cb`b`e\200\000&\006)F)\000\001\006\000A"
  27      60626065 
  27      80002606 
  27      29462900 
  27      01060041 
  28              		.text
  29              		.section	.gnu.lto_hal_lld_init.abaa26255bfdd264,"",%progbits
  30 0000 789CAD55 		.ascii	"x\234\255UMh\023A\024~of\267IKj\202\364'\301\203\245"
  30      4D681341 
  30      147E6F66 
  30      B7494B6A 
  30      82F427C1 
  31 0016 E049E8DA 		.ascii	"\340I\350\332\350\301\213=\211\342\241\247\246PO\222"
  31      E8C18B3D 
  31      89E2A1A7 
  31      A6504F92 
  32 0026 26A50946 		.ascii	"&\245\011FS\332Z\252=t\326T(V0x*z\261\210(\275\364\032"
ARM GAS  /tmp/ccLB3RFy.s 			page 2


  32      53DA5AAA 
  32      3D74D654 
  32      28563078 
  32      2A7AB188 
  33 003e E9A568A5 		.ascii	"\351\245h\245)\370\203\036<T\220\010\202\036D<\226*"
  33      29F8831E 
  33      3C549008 
  33      821E443C 
  33      962A
  34 0050 AE6F7676 		.ascii	"\256ovv\327\374 &\261\017\362fvf\3367\337\367\336\314"
  34      D7FC2026 
  34      B10FF266 
  34      7666DE37 
  34      DFF7DECC 
  35 0064 8401836A 		.ascii	"\204\001\203j\213\322\357\265\017`\204Z\324\001Y\376"
  35      8BD2EFB5 
  35      0F60845A 
  35      D40159FE 
  36 0074 1580E967 		.ascii	"\025\200\351g\214o\017\200h\323\266\202 \002\03455\254"
  36      8C6F0F80 
  36      68D3B682 
  36      20021C35 
  36      35AC
  37 0086 21CA0E20 		.ascii	"!\312\016 \3143\256\341\374y\224\030\274\027V\204\270"
  37      CC33AEE1 
  37      FC799418 
  37      BC175684 
  37      B8
  38 0097 53BAB1B7 		.ascii	"S\272\261\267\034\271y\377z^\374\262,L#\355v\026!\201"
  38      1CB979FF 
  38      7A5EFCB2 
  38      2C4C23ED 
  38      76162181 
  39 00ab 30421FD8 		.ascii	"0B\037\330c7L\253\334^En\274\335\272\325\2267\027\205"
  39      63374CAB 
  39      DC5E456E 
  39      BCDDBAD5 
  39      96371785 
  40 00bf 65CDDB71 		.ascii	"e\315\333q\203u\306\275\253\212\033\372W\334\032\333"
  40      8375C6BD 
  40      AB8A1BFA 
  40      57DC1ADB 
  41 00cf 2859D68B 		.ascii	"(Y\326\213\365O\037\227\360\340a\006q\\\301^\320\251"
  41      F54F1F97 
  41      F0E06106 
  41      715CC15E 
  41      D0A9
  42 00e1 7D40AD1F 		.ascii	"}@\255\037\010\245U\272\000\215<\244\221\240\374\010"
  42      08A555BA 
  42      008D3CA4 
  42      91A0FC08 
  43 00f1 49D7215D 		.ascii	"I\327!]\247t]\322uK\027\226.\"\035\231\016\013B\344"
  43      A7745DD2 
  43      754B1796 
  43      2E221D99 
  43      0E0B42E4 
  44 0105 7B403220 		.ascii	"{@2 \213\221\227\271\032F&[\376\022\236\356,\357\205"
ARM GAS  /tmp/ccLB3RFy.s 			page 3


  44      8B9197B9 
  44      1A46265B 
  44      FE129EEE 
  44      2CEF85
  45 0118 E3F888D2 		.ascii	"\343\370\210\322<\216\354(\254\212\0053\224F~\017\356"
  45      3C8EEC28 
  45      AC8A0533 
  45      94467E0F 
  45      EE
  46 0129 12534DD2 		.ascii	"\022SM\322\325\305\367E\241\331\314u\233\357(\272\314"
  46      D5C5F745 
  46      A1D9CC75 
  46      9BEF28BA 
  46      CC
  47 013a 29FEA40A 		.ascii	")\376\244\012n,R\216\200E\026\254\005\301\0060\270C"
  47      6E2C528E 
  47      804516AC 
  47      05C10630 
  47      B843
  48 014c 62E7F135 		.ascii	"b\347\3615W\203^/\023lZ\003\356\203\006\254\325P\364"
  48      57835E2F 
  48      136C5A03 
  48      EE8306AC 
  48      D550F4
  49 015f 34F8EB65 		.ascii	"4\370\353e\302<\015\271'\334\215n%\000\217\334\001\005"
  49      C23C0DB9 
  49      27DC8D6E 
  49      25008FDC 
  49      0105
  50 0171 7EAE3185 		.ascii	"~\2561\205\012\227\240\232P\306j\225}\361\224\005\352"
  50      0A97A09A 
  50      50C66A95 
  50      7DF19405 
  50      EA
  51 0182 65C09BAE 		.ascii	"e\300\233\256\016\337\207\352\360Z\015\3059WC\260^&"
  51      0EDF87EA 
  51      F05A0DC5 
  51      395743B0 
  51      5E26
  52 0194 9AA7A1AC 		.ascii	"\232\247\241\254:!\002\260\311\0112l\252:\232S\235\220"
  52      3A2102B0 
  52      C909326C 
  52      AA3A9A53 
  52      9D90
  53 01a6 62B6BBD3 		.ascii	"b\266\273\323\356]s\325\021\237o\237\002P\240\011u\324"
  53      EE5D73D5 
  53      119F6F9F 
  53      0250A009 
  53      75D4
  54 01b8 C6B1A302 		.ascii	"\306\261\243\002\336\314\013\352\265HX\237(\231\316"
  54      DECC0BEA 
  54      B548589F 
  54      2899CE
  55 01c7 0E3E6707 		.ascii	"\016>g\007]F?W\033J\366\271\265\367\030\307M[@'A)\001"
  55      5D463F57 
  55      1B4AF6B9 
  55      B5F718C7 
ARM GAS  /tmp/ccLB3RFy.s 			page 4


  55      4D5B4027 
  56 01de CC63BF59 		.ascii	"\314c\277Y\315\276^x\202s\322{\310\305\357*\257\221"
  56      CDBE5E78 
  56      8273D27B 
  56      C8C5EF2A 
  56      AF91
  57 01f0 C2F95B22 		.ascii	"\302\371[\"Z*i\256\347V=\226\335\004\244X\322\"(\302"
  57      5A2A69AE 
  57      E7563D96 
  57      DD04A458 
  57      D22228C2 
  58 0204 C257B3DD 		.ascii	"\302W\263\335\233S\023\345\257\3600\025z{@\276\207\205"
  58      9B5313E5 
  58      AFF03015 
  58      7A7B40BE 
  58      8785
  59 0216 E50FC172 		.ascii	"\345\017\301rA\242\2771&Nm5\225\233B\341\377\321\370"
  59      41A2BF31 
  59      264E6D35 
  59      959B42E1 
  59      FFD1F8
  60 0229 1F929AF7 		.ascii	"\037\222\232\367j\357~+yZ\303\015\244\336W\2252\356"
  60      6AEF7E2B 
  60      795AC30D 
  60      A4DE5795 
  60      32EE
  61 023b 82440847 		.ascii	"\202D\010G]\232\037\336\245i\274\262\276\262\312F\350"
  61      5D9A1FDE 
  61      A569BCB2 
  61      BEB2CA46 
  61      E8
  62 024c 4F1C72A5 		.ascii	"O\034r\245\237\317Z\324I\004\230\203=\261(\303\375\011"
  62      9FCF5AD4 
  62      49049883 
  62      3DB128C3 
  62      FD09
  63 025e E79948CB 		.ascii	"\347\231H\313'\346\015\230\245\245#\356\"e1:\266\244"
  63      27E60D98 
  63      A5A523EE 
  63      2265313A 
  63      B6A4
  64 0270 55AE3A6D 		.ascii	"U\256:m\244\262\227\306\214D6y\325H\216\315\030\211"
  64      A4B297C6 
  64      8C443679 
  64      D5488ECD 
  64      1889
  65 0282 547A349D 		.ascii	"Tz4\235\2352\246'\257\\\276hP'\025\317\030\023\331\311"
  65      9D32A627 
  65      AF5CBE68 
  65      502715CF 
  65      1813D9C9 
  66 0296 E9296328 		.ascii	"\351)c(6x<\252\374\231\023\263\263r\346B&\223\354K\200"
  66      36783CAA 
  66      FC9913B3 
  66      B372E642 
  66      2693EC4B 
  67 02ab 3E93CDF4 		.ascii	">\223\315\364\035\263}\277\355\243\277\001y!\344]"
ARM GAS  /tmp/ccLB3RFy.s 			page 5


  67      1DB37DBF 
  67      EDA3BF01 
  67      7921E45D 
  68              		.text
  69              		.section	.gnu.lto_stm32_clock_init.abaa26255bfdd264,"",%progbits
  70 0000 789CA595 		.ascii	"x\234\245\225Mh\023A\024\307\337\233\335\315n\276\323"
  70      4D681341 
  70      14C7DF9B 
  70      DDCD6EBE 
  70      D3
  71 0011 7C34D562 		.ascii	"|4\325b-X\254\305\322\340\307\311[@\012\036<\331\202"
  71      2D58ACC5 
  71      D2E0C7C9 
  71      5B400A1E 
  71      3CD982
  72 0024 7A116DA5 		.ascii	"z\021m\245\015V+~\241'76\202\007\017=\212\202\350MT"
  72      0D562B7E 
  72      A1273736 
  72      82070F3D 
  72      8A82E84D 
  73 0039 5AA8A051 		.ascii	"Z\250\240Q\301/\004EP\360V{\252')\010\352Eb\017\352"
  73      C12F0445 
  73      50F0567B 
  73      AA272908 
  73      EA45620F 
  74 004e BC99D9D9 		.ascii	"\274\231\331\331h\023L\335=\374\263\231\267\363\317"
  74      68134CDD 
  74      3DFCB399 
  74      B7F3CF
  75 005d 9BDFFE67 		.ascii	"\233\337\376g\302\200\301\337W\034\001*Q\200A~\217\035"
  75      C280C1DF 
  75      571C012A 
  75      5180417E 
  75      8F1D
  76 006f 806CFA1D 		.ascii	"\200l\372\035@\331ah\310\033\203\345/\277\002p#f\305"
  76      40D96168 
  76      C81B83E5 
  76      2FBF0270 
  76      2366C5
  77 0082 06379697 		.ascii	"\0067\226\227\343E\023-Y\267X\273\254\207D\275]\216"
  77      E345132D 
  77      59B758BB 
  77      AC8744BD 
  77      5D8E
  78 0094 174368CB 		.ascii	"\027Ch\313\272\315r\262\356\210zN\216\027\035\014\313"
  78      BACD72B2 
  78      EE887A4E 
  78      8E171D0C 
  78      CB
  79 00a5 7A986565 		.ascii	"z\230ee=\"\352Y9^\214`T\326\243,#\3531Q\317\310\361"
  79      3D22EA59 
  79      395E8C60 
  79      54D6A32C 
  79      23EB3151 
  80 00bc 620C53F4 		.ascii	"b\014S\364\211)\226\226\345\270(\247\345p1\216\0119"
  80      89299696 
  80      E5B828A7 
ARM GAS  /tmp/ccLB3RFy.s 			page 6


  80      E570318E 
  80      0939
  81 00ce 3DC1DA64 		.ascii	"=\301\332d=)\352mr\274\230D\244O@8\317\214\274i\265"
  81      3D29EA6D 
  81      72BC9844 
  81      A44F4038 
  81      CF8CBC69 
  82 00e3 87EC9C13 		.ascii	"\207\354\234\023\316F\242\231X*\035O\264%\361\374>\024"
  82      CE46A299 
  82      582A1D4F 
  82      B425F1FC 
  82      3E14
  83 00f5 7C66D9B3 		.ascii	"|f\331\263\305_\277f\252o\256\337\305\247l\300\204\022"
  83      C55FBF66 
  83      AA6FAEDF 
  83      C5A76CC0 
  83      8412
  84 0107 82456293 		.ascii	"\202Eb\2238$a\222\010I\234$A\222$I\221\244I2$Y\222\034"
  84      38246192 
  84      08499C24 
  84      41922449 
  84      91A44932 
  85 011f 499EA483 		.ascii	"I\236\244\203d-I'\311:\222.\222\365$\335$\033HzH6\222"
  85      642D4927 
  85      C93A922E 
  85      92F524DD 
  85      241B487A 
  86 0136 F4926C22 		.ascii	"\364\222l\"\351#\331L\322O\302/\013*\256;\335\0150\""
  86      E923D94C 
  86      D24FC22F 
  86      0B2AAE3B 
  86      DD0D3022 
  87 014a BE0ED16B 		.ascii	"\276\016\321k\265a\030\031\3770\336\302\213\352\225"
  87      B5611819 
  87      FF30DEC2 
  87      8BEA95
  88 0159 DBCFD941 		.ascii	"\333\317\331A\274\211\026\237w\333\255\224\335x\011"
  88      BC89169F 
  88      77DBAD94 
  88      DD7809
  89 0168 F11A5CC5 		.ascii	"\361\032\\\305\022\262\275\\\014\367\353%\327\004q+"
  89      12B2BD5C 
  89      0CF7EB25 
  89      D704712B 
  90 0178 567E4802 		.ascii	"V~H\002\020#\340\362\213\276\013\247;\037\260\211\223"
  90      1023E0F2 
  90      8BBE0BA7 
  90      3B1FB089 
  90      93
  91 0189 490F5BEE 		.ascii	"I\017[\356bY9Y\312\011\353\235\230\364Y\250\315x>ch"
  91      62593959 
  91      CA09EB9D 
  91      98F459A8 
  91      CD783E63 
  92 019e 4AABD43F 		.ascii	"J\253\324?{\362\022\374\026\246\036\032\336lkL\3762"
  92      7BF212FC 
  92      16A61E1A 
ARM GAS  /tmp/ccLB3RFy.s 			page 7


  92      DE6C6B4C 
  92      FE32
  93 01b0 A81677D5 		.ascii	"\250\026w\325\267\327\252\347\230\352\226C3\200\247"
  93      B7D7AAE7 
  93      98EA9643 
  93      3380A7
  94 01bf 83A82D5C 		.ascii	"\203\250-\\\231\375\241{\264\205\037\256\246\305\307"
  94      99FDA17B 
  94      B4851FAE 
  94      A6C5C7
  95 01ce 53737ABA 		.ascii	"Ssz\272\303\035D\223T\177\015/?\225\267\351\222\030"
  95      C31D4493 
  95      547F0D2F 
  95      3F95B7E9 
  95      9218
  96 01e0 AFBF8630 		.ascii	"\257\277\2060\017<\2708\214\246z\201\013\363\263>\256"
  96      0F3CB838 
  96      8CA67A81 
  96      0BF3B33E 
  96      AE
  97 01f1 F07FE07A 		.ascii	"\360\177\340z\254qE\270\201\370\305\037\301xEd\036j"
  97      AC7145B8 
  97      81F8C51F 
  97      C1784564 
  97      1E6A
  98 0203 B34BCDF2 		.ascii	"\263K\315\362\320\314\301\320y\320\313\036\346\3635"
  98      D0CCC1D0 
  98      79D0CB1E 
  98      E6F335
  99 0212 F5B96F7A 		.ascii	"\365\271oz\251\361\026\251\033\365\324\357\353\351\011"
  99      A9F116A9 
  99      1BF5D4EF 
  99      EBE909
 100 0221 EE20D61A 		.ascii	"\356 \326\032\023\324+\237}\352\211\006\324\333\025"
 100      13D42B9F 
 100      7DEA8906 
 100      D4DB15
 101 0230 F59047BD 		.ascii	"\365\220G\275v\317\247\236\014\024\322\0247P; \033\010"
 101      76CFA79E 
 101      0C14D214 
 101      37503B20 
 101      1B08
 102 0242 7BCA0366 		.ascii	"{\312\003f\373\300\036\370\300\322\377\023\323\031="
 102      FBC01EF8 
 102      C0D2FF13 
 102      D3193D
 103 0251 3DC31D54 		.ascii	"=\303\035T\233\316\212\240f\032 \313)d\216\016\352\243"
 103      9BCE8AA0 
 103      661A20CB 
 103      29648E0E 
 103      EAA3
 104 0263 8FDA2DDB 		.ascii	"\217\332-\333\352\342\314F\310r\334 \300\2766\025\260"
 104      EAE2CC46 
 104      C872DC20 
 104      C0BE3615 
 104      B0
 105 0274 9C072CAC 		.ascii	"\234\007,\254\201\325\036\371\300\362-\002\253k\261"
ARM GAS  /tmp/ccLB3RFy.s 			page 8


 105      81D51EF9 
 105      C0F22D02 
 105      AB6BB1
 106 0283 7E5F7770 		.ascii	"~_wp\207&\373\272\243\001\256\254\302\025\361\016\346"
 106      8726FBBA 
 106      A301AEAC 
 106      C215F10E 
 106      E6
 107 0294 EA93551F 		.ascii	"\352\223U\037\314\226\277}\246o]\334\001\352<}\342G"
 107      CC96BF7D 
 107      A66F5DDC 
 107      01EA3C7D 
 107      E247
 108 02a6 756DA0A8 		.ascii	"um\240\250vr\003\357\330w\002e\265\323C\037\365\321"
 108      767203EF 
 108      D8770265 
 108      B5D3431F 
 108      F5D1
 109 02b8 3FF5D1AF 		.ascii	"?\365\321\257\373\013}\263\377\217Pc\364]\334A\365\211"
 109      FB0B7DB3 
 109      FF8F5063 
 109      F45DDC41 
 109      F589
 110 02ca 2BE07735 		.ascii	"+\340w5\200\237\021\360\2070F\360\207\371N\342M\241"
 110      809F11F0 
 110      873046F0 
 110      87F94EE2 
 110      4DA1
 111 02dc 68EA937F 		.ascii	"h\352\223\177\316\257\017v\316ws\007\017^jEW\335\015"
 111      CEAF0F76 
 111      CE777307 
 111      0F5E6A45 
 111      57DD0D
 112 02ef BA4AAB48 		.ascii	"\272J\253H\304\275H\314\177\011r\242\2727n\2740@\235"
 112      C4BD48CC 
 112      7F0972A2 
 112      BA376EBC 
 112      30409D
 113 0302 CDDFBFFD 		.ascii	"\315\337\277\375\351\264E;\205\350a\333\255yN\266r\262"
 113      E9B4453B 
 113      85E861DB 
 113      AD794EB6 
 113      72B2
 114 0314 B5135C48 		.ascii	"\265\023\\H\250hU\227\227\364\3726\264\232\201\272\023"
 114      A8685597 
 114      97F4FA36 
 114      B49A81BA 
 114      13
 115 0325 D98F560F 		.ascii	"\331\217V\0177\320\273e\365\2712T\256z\274\\%t\256\346"
 115      37D0BB65 
 115      F5B93254 
 115      AE7ABC5C 
 115      2574AEE6 
 116 0339 97FD5C6D 		.ascii	"\227\375\\m\014\366\247\321\313\035\232\374i\364\212"
 116      0CF6A7D1 
 116      CB1D9AFC 
 116      69F48A
ARM GAS  /tmp/ccLB3RFy.s 			page 9


 117 0348 71E78FF7 		.ascii	"q\347\217\367\327\246\336_\322;\001\253?\327x\317oj"
 117      D7A6DE5F 
 117      D23B01AB 
 117      3FD778CF 
 117      6F6A
 118 035a 75658EDF 		.ascii	"ue\216\337\212O\253\217\033\324\005|\365\274\034\305"
 118      8A4FAB8F 
 118      1BD4057C 
 118      F5BC1CC5 
 119 036a AB4F4CDE 		.ascii	"\253OL\336\357\371nnu~\270QW\375\334 PWa\325U?\300{"
 119      EFF96E6E 
 119      757EB851 
 119      57FDDC20 
 119      505761D5 
 120 0382 282F2EF7 		.ascii	"(/.\367\312\351>Q\344$) ;\013\343\223G\017\027F&G\317"
 120      CAE93E51 
 120      E4242920 
 120      3B0BE393 
 120      470F1746 
 121 0399 15460F9F 		.ascii	"\025F\017\237)\214\214\227\016\225&O\026N\2358}\354"
 121      298C8C97 
 121      0E95264F 
 121      164E9D38 
 121      7DEC
 122 03ab 4881DF8C 		.ascii	"H\201\337\214\037\234(\034\237<q\352da\317\320\356m"
 122      1F9C281C 
 122      9F3C71EA 
 122      6461CFD0 
 122      EE6D
 123 03bd 5BA50E6E 		.ascii	"[\245\016n?{\226*\007&&F\007F\3407\251Y\266\322"
 123      3F7B962A 
 123      07262646 
 123      0746E037 
 123      A959B6D2 
 124              		.text
 125              		.section	.gnu.lto_.symbol_nodes.abaa26255bfdd264,"",%progbits
 126 0000 789C6362 		.ascii	"x\234cb`b0c\200\002\246\006\246z\006\206\011\347\030"
 126      60623063 
 126      8002A606 
 126      A67A0686 
 126      09E718
 127 0013 18EAEBE7 		.ascii	"\030\352\353\347u0252\3253\"\270\214ML\365L\020nC\003"
 127      75303235 
 127      32D53322 
 127      B88C4D4C 
 127      F54C106E 
 128 0029 233350E3 		.ascii	"#3P\343\343\2767\362\014\000\252x\017\256"
 128      E3BE37F2 
 128      0C00AA78 
 128      0FAE
 129              		.text
 130              		.section	.gnu.lto_.refs.abaa26255bfdd264,"",%progbits
 131 0000 789C6362 		.ascii	"x\234cb`b`d\200\002\000\000F\000\006"
 131      60626064 
 131      80020000 
 131      460006
 132              		.text
ARM GAS  /tmp/ccLB3RFy.s 			page 10


 133              		.section	.gnu.lto_.decls.abaa26255bfdd264,"",%progbits
 134 0000 789C9D97 		.ascii	"x\234\235\227ml\024E\030\307g\266\205\353\321\312\233"
 134      6D6C1445 
 134      18C767B6 
 134      85EBD1CA 
 134      9B
 135 0011 4AD49870 		.ascii	"J\324\230p$b\014\006\216\276H4&H\271\276\306\202\227"
 135      24620C06 
 135      8EBE4834 
 135      2648B9BE 
 135      C68297
 136 0024 BB22881F 		.ascii	"\273\"\210\037\316\345\356H/\264\327\246\275\232\362"
 136      CEE5EE48 
 136      2FB4D7A6 
 136      BD9AF2
 137 0033 6D392CA0 		.ascii	"m9,\240(\034\210\030?H\012\002\012h$\345]\336\256*P"
 137      281C8818 
 137      3F480A02 
 137      0A6824E5 
 137      5DDEAE2A 
 138 0048 54540AB6 		.ascii	"TT\012\266P\020\217\030\202\006\321\242P(\024\316g\236"
 138      50108F18 
 138      8206D1A2 
 138      502814CE 
 138      679E
 139 005a DDBDCE1E 		.ascii	"\335\275\316\036\267\327]6y\376;w;\363\233\377\314>"
 139      B7D75D36 
 139      79FE3B77 
 139      3BF39BFF 
 139      CC3E
 140 006c BB3B2310 		.ascii	"\273;#\020\201\214\244\204\304\341\230\3730!m\002!\031"
 140      818CA484 
 140      C4E198FB 
 140      30216D02 
 140      2119
 141 007e 8490A964 		.ascii	"\204\220\251d\340`\277\327Cl\206\330B\356?\330\265a"
 141      E060BFD7 
 141      436C86D8 
 141      42EE3FD8 
 141      B561
 142 0090 101688E1 		.ascii	"\020\026\210\341\0209\020\333 Z!n@\364B\334\205\270"
 142      103910DB 
 142      205A216E 
 142      40F442DC 
 142      85B8
 143 00a2 07B10122 		.ascii	"\007\261\001\"\013\3420D\033\3041\210\343\020]\020w"
 143      0BE23044 
 143      1BC43188 
 143      E3105D10 
 143      77
 144 00b3 20AE40F4 		.ascii	" \256@\364s}\306u\372\334\254p,:}\0110\246G\250\354"
 144      737DC675 
 144      FADCAC70 
 144      2C3A7D09 
 144      30A647A8 
 145 00c8 4B65EF81 		.ascii	"Ke\357\201\330\017q\025b\237\322\217\005\352\234\205"
 145      D80F7115 
ARM GAS  /tmp/ccLB3RFy.s 			page 11


 145      629FD28F 
 145      05EA9C85 
 146 00d8 F36508AA 		.ascii	"\363e\010\252p\223\217\261d\235\324\022\2135\337\334"
 146      70938FB1 
 146      649DD412 
 146      8B35DFDC 
 147 00e8 FEB8D412 		.ascii	"\376\270\324\022\216\306\343/\2211\344\003\011\216\226"
 147      8EC6E32F 
 147      9131E403 
 147      098E96
 148 00f7 25924443 		.ascii	"%\222DC\"\235\372(\231CE:\334JlX\310\261\222Ll*\322"
 148      229DFA28 
 148      9943453A 
 148      DC4A6C58 
 148      C8B1924C 
 149 010e 0D748C52 		.ascii	"\015t\214R\232\225!\343\004RJ\311\004\262\005\332G$"
 149      9A9521E3 
 149      04524AC9 
 149      04B205DA 
 149      4724
 150 0120 29FC2C4D 		.ascii	")\374,M\321%!O\223M\254\007\3513)\003\371\214\260\236"
 150      D125214F 
 150      934DAC07 
 150      E9332903 
 150      F98CB09E 
 151 0134 8EE5AB88 		.ascii	"\216\345\253\210\364\023*\334o4\272\367\273\234\310"
 151      F4132ADC 
 151      6F34BAF7 
 151      BB9CC8
 152 0143 A2583C3E 		.ascii	"\242X<>V\356] \257S\250\273\221NH\013\337\234\014\377"
 152      56EE5D20 
 152      AF53A8BB 
 152      914E480B 
 152      DF9C0CFF 
 153 0157 F47E782C 		.ascii	"\364~x,\022\333w\354\333\245t\325\342\226v\251'\036"
 153      12DB77EC 
 153      DBA574D5 
 153      E29676A9 
 153      271E
 154 0169 1F41D42E 		.ascii	"\037A\324.v\320\344>d\310V-\304J\226I\322b6oe\355\220"
 154      76D0E43E 
 154      64C8562D 
 154      C44A9649 
 154      D262366F 
 155 0180 2AA9266D 		.ascii	"*\251&m<\331\010\023\023\273\271\374H\033\015\303\364"
 155      3CD90813 
 155      13BBB9FC 
 155      481B0DC3 
 155      F4
 156 0191 629370DA 		.ascii	"b\223p\332&\"\375\234\216\007\265X\023\036\330U\370"
 156      2622FD9C 
 156      8E07B558 
 156      131ED855 
 156      F8
 157 01a2 9928B0FC 		.ascii	"\231(\260\374\036\301\346>\226d\324\000^q\264c\345\201"
 157      1EC1E63E 
 157      9664D400 
ARM GAS  /tmp/ccLB3RFy.s 			page 12


 157      5E71B463 
 157      E581
 158 01b4 1724294B 		.ascii	"\027$)K\244_\202'\201\254\023\264 \245?n\354\203\333"
 158      A45F8227 
 158      81AC13B4 
 158      20A53F6E 
 158      EC83DB
 159 01c7 31597D34 		.ascii	"1Y}4Y\305\356\232\2153\032\315R\235.\243\234\325SG\247"
 159      59C5EE9A 
 159      8D331ACD 
 159      529D2EA3 
 159      9CD55347 
 160 01dc A0D5563A 		.ascii	"\240\325V:\032\254^J\262:8\207\371\331\005m\345VH\225"
 160      1AAC5E4A 
 160      B23A3887 
 160      F9D9056D 
 160      E5564895 
 161 01f0 A21F75E5 		.ascii	"\242\037u\345H\231\362\377$\305\315V\216q\244Ezkq\364"
 161      4899F2FF 
 161      24C5CD56 
 161      8E71A445 
 161      7A6B71F4 
 162 0204 E3AE35F0 		.ascii	"\343\2565\360\264|\015\314m8]\327\320\003k\233j\212"
 162      B47C0DCC 
 162      6D385DD7 
 162      D0036B9B 
 162      6A8A
 163 0216 95A27C28 		.ascii	"\225\242|(\025\264\274u]9\021Q\205]7\015\263i`\333y"
 163      15B4BC75 
 163      5D391151 
 163      855D370D 
 163      B36960DB 
 164 022b 58BF1158 		.ascii	"X\277\021X\226\276\263V\036\266(\303,L\353l'\017k6\002"
 164      96BEB356 
 164      1EB628C3 
 164      2C4CEB6C 
 164      270F6B36 
 165 0240 1BA9EF6C 		.ascii	"\033\251\357l7\017[a\032\246u\266\227\207}h\004\366"
 165      370F5B61 
 165      1AA675B6 
 165      97877D68 
 165      04F6
 166 0252 988E3329 		.ascii	"\230\2163)\034\375J\206}\201\260\026\3230\255\263\003"
 166      1CFD4A86 
 166      7D81B016 
 166      D330ADB3 
 166      03
 167 0263 BCB3AD46 		.ascii	"\274\263\255F`6\3759;\304\303v\230\206q\316\340\211"
 167      6036FD39 
 167      3BC4C376 
 167      988671CE 
 167      E089
 168 0275 F9797644 		.ascii	"\371yvD\034E\"\370\251\230\326>\\\036\260Rs\2326\033"
 168      1C4522F8 
 168      A998D63E 
 168      5C1EB052 
 168      739A361B 
ARM GAS  /tmp/ccLB3RFy.s 			page 13


 169 0289 44FA031D 		.ascii	"D\372\003\035\205%|#I\312\033\011k\350}[NPk\242\357"
 169      85257C23 
 169      49CA1B09 
 169      6BE87D5B 
 169      4E506BA2 
 170 029e 1CEB4041 		.ascii	"\034\353@A\375\242\010\344@\362\0004\275*\305g\364g"
 170      FDA208E4 
 170      40F20034 
 170      BD2AC567 
 170      F467
 171 02b0 A3839F8D 		.ascii	"\243\203\237\215\243Ffc\262>\3544\017\373\3214L{\323"
 171      A3466663 
 171      B23EEC34 
 171      0FFBD134 
 171      4C7BD3
 172 02c3 3B7958A7 		.ascii	";yX\247\021\330\363\372\351x\206O\307\013\246aZg\335"
 172      11D8F3FA 
 172      E978864F 
 172      C70BA661 
 172      5A67DD
 173 02d6 BCB33F8C 		.ascii	"\274\263?\214\300\246\351\317\331y\036\326c\032\246"
 173      C0A6E9CF 
 173      D9791ED6 
 173      631AA6
 174 02e5 4DC70BB3 		.ascii	"M\307\013\263\031\213\345\231@n\031\311\2142}c=\274"
 174      198BE599 
 174      406E19C9 
 174      8C327D63 
 174      3DBC
 175 02f7 B170A601 		.ascii	"\261p\246\001cN}\330\277<\354]\3230\355\374_\347ak\215"
 175      634E7DD8 
 175      BF3CEC5D 
 175      D330EDFC 
 175      5FE7616B 
 176 030c C0E6E867 		.ascii	"\300\346\350gF\257\346Ee\032\246uvK\363\2422\002{C\177"
 176      46AFE645 
 176      651AA675 
 176      764BF3A2 
 176      32027B43 
 177 0321 CE6EF3B0 		.ascii	"\316n\363\260\235\246a\332\314\350\3472\343P2+UfT\351"
 177      9DA661DA 
 177      CCE8E732 
 177      E350322B 
 177      556654E9 
 178 0335 1BBBC71B 		.ascii	"\033\273\307\033k7b\254N\037\026\351\346`'L\303\264"
 178      6B3762AC 
 178      4E1F16E9 
 178      E660274C 
 178      C3B4
 179 0347 A35C3D77 		.ascii	"\243\\=w`\224'\215\214\262I\337\330\032\336\3309#\306"
 179      6094278D 
 179      8CB249DF 
 179      D81ADED8 
 179      3923C6
 180 035a 24AA4F5B 		.ascii	"$\252O[\313\323.\232\247\331\210\356\301/\344D\272\033"
 180      CBD32E9A 
 180      A7D988EE 
ARM GAS  /tmp/ccLB3RFy.s 			page 14


 180      C12FE444 
 180      BA1B
 181 036c 17CA7BE8 		.ascii	"\027\312{\3508\320}\250\373Q\017\242\036FmC\375\006"
 181      38D07DA8 
 181      FB510FA2 
 181      1E466D43 
 181      FD06
 182 037e F508EA31 		.ascii	"\365\010\3521\324\343\250\337\243\376\204z\022\365\024"
 182      D4E3A8DF 
 182      A3FE847A 
 182      12F514
 183 038d EA2FA85D 		.ascii	"\352/\250]\250gQ\317\241\376\212\372\033\352E\324\337"
 183      A86751CF 
 183      A1FE8AFA 
 183      1BEA45D4 
 183      DF
 184 039e 512FA15E 		.ascii	"Q/\241^F\375\023\365\012\352U\324\177P\257\241\376\007"
 184      46FD13F5 
 184      0AEA55D4 
 184      7F50AFA1 
 184      FE07
 185 03b0 9A38B2C9 		.ascii	"\2328\262\311;\003\353uy\201\253\367y\274A\263\325V"
 185      3B03EB75 
 185      7981ABF7 
 185      79BC41B3 
 185      D556
 186 03c2 CA8A977D 		.ascii	"\312\212\227}\204I\312\033./\234\243w;\251M\244\275"
 186      8449CA1B 
 186      2E2F9CA3 
 186      773BA94D 
 186      A4BD
 187 03d4 B86AFE2B 		.ascii	"\270j\376+3\345\252Y\237\301\372\354K^4\337\350\304"
 187      33E5AA59 
 187      9FC1FAEC 
 187      4B5E34DF 
 187      E8C4
 188 03e6 45739FA1 		.ascii	"Es\237\241Es_'\277h\026\351^\330=\311m\215\256s\265"
 188      45735F27 
 188      BF6816E9 
 188      5ED83DC9 
 188      6D8DAE73 
 189 03fb BCDB9D89 		.ascii	"\274\333\235\211\264\022\351\337\246ai\263\252\217\313"
 189      B412E9DF 
 189      A66169B3 
 189      AA8FCB
 190 040a AADB9855 		.ascii	"\252\333\230Uw\360n\365\247\271[\275i\356\326\335\201"
 190      77F06EF5 
 190      A7B95BBD 
 190      69EED6DD 
 190      81
 191 041b BB95D48A 		.ascii	"\273\225\324\212\3550\365Z\335\033h\3056\250\321\236"
 191      ED30F55A 
 191      DD1B68C5 
 191      36A8D19E 
 192 042b 5873F70A 		.ascii	"Xs\367\012e\233~X\242\211\375\351\255\244\233\231z\017"
 192      659B7E58 
 192      A289FDE9 
ARM GAS  /tmp/ccLB3RFy.s 			page 15


 192      ADA49B99 
 192      7A0F
 193 043d 1C4FDE03 		.ascii	"\034O\336\003K\202f\373\232b\343\024\243\252\245'\011"
 193      4B8266FB 
 193      9A62E314 
 193      A3AAA527 
 193      09
 194 044e B7FFEA2A 		.ascii	"\267\377\352*\300\375WX`\231\364\376\220A\367_Z\014"
 194      C0FD5758 
 194      6099F4FE 
 194      9041F75F 
 194      5A0C
 195 0460 EBBA5948 		.ascii	"\353\272YH\312\244\203\035\230I\354\377\3013\351d\207"
 195      CAA4831D 
 195      9849ECFF 
 195      C133E964 
 195      87
 196 0471 76FBB51E 		.ascii	"v\373\265\036-\260\266\017\226I\035\035\334\013j\223"
 196      2DB0B60F 
 196      96491D1D 
 196      DC0B6A93 
 197 0481 69984D03 		.ascii	"i\230M\003;\315\303\266\032\201\245\331~u\362\260V\323"
 197      3BCDC3B6 
 197      1A81A5D9 
 197      7E75F2B0 
 197      56D3
 198 0493 30ADB333 		.ascii	"0\255\2633\035\334\003#?}\203\300\322l\277\272yg\273"
 198      1DDC0323 
 198      3F7D83C0 
 198      D26CBFBA 
 198      7967BB
 199 04a6 8C384BB3 		.ascii	"\2148K\263\375:\317\303\366\033\201\245\332~\245:\370"
 199      FD3ACFC3 
 199      F61B81A5 
 199      DA7EA53A 
 199      F8
 200 04b7 5413E912 		.ascii	"T\023\351\022\201=\312K\005\366(\277\215\272\034\365"
 200      813DCA4B 
 200      05F628BF 
 200      8DBA1CF5 
 201 04c7 3DD495A8 		.ascii	"=\324\225\250\021\324\325\202\376\203\036\326\261\306"
 201      11D4D582 
 201      FE831ED6 
 201      B1C6
 202 04d5 7A5B2324 		.ascii	"z[#$\036YRd\257\252\255\361\333\275\265\276\205v\237"
 202      1E595264 
 202      AFAAADF1 
 202      DBBDB5BE 
 202      85769F
 203 04e8 FF4DBBB7 		.ascii	"\377M\273\267*0/P\333`\017\3257\006\027\330\241P%V\333"
 203      2A302F50 
 203      DB600FD5 
 203      370617D8 
 203      A1502556 
 204 04fd EB6AEB43 		.ascii	"\353j\353C\015vw\345\214\374<YK\012\232\232\330\025"
 204      0D7677E5 
 204      8CFC3C59 
ARM GAS  /tmp/ccLB3RFy.s 			page 16


 204      4B0A9A9A 
 204      D815
 205 050f 4F75B56F 		.ascii	"Ou\265o\222\227\344(EO \030\010\015-\2359\313\346 #"
 205      9297E428 
 205      454F2018 
 205      080D2D9D 
 205      39CBE620 
 206 0524 1B4235F9 		.ascii	"\033B5\371y\036ou\255w\001\376_\362\340=\311(_\2158"
 206      791E6F75 
 206      AD7701FE 
 206      5FF2E03D 
 206      C9285F8D 
 207 0539 A98A58E0 		.ascii	"\251\212X\340T\016\270\247\354\215\015\365v\261\276"
 207      540EB8A7 
 207      EC8D0DF5 
 207      76B1BE
 208 0548 6662B036 		.ascii	"fb\2606\350\237\350\027\347\005\354\201\240\267\272"
 208      E89FE817 
 208      E705EC81 
 208      A0B7BA
 209 0557 D1E787FA 		.ascii	"\321\347\207\372\276@0\004\225\263\032\341\014MC\005"
 209      BE403004 
 209      95B31AE1 
 209      0C4D4305 
 210 0567 696AD788 		.ascii	"ij\327\210`%\350\267{|\376\371bcu\310\023ZX\347o\200"
 210      6025E8B7 
 210      7B7CFEF9 
 210      626375C8 
 210      135A58E7 
 211 057d D6C33C1E 		.ascii	"\326\303<\036\265\375\213\203\231\3677\205\354\216\031"
 211      B5FD8B83 
 211      99F73785 
 211      EC8E19
 212 058c EE7237D8 		.ascii	"\356r7\330\226\375\316/\230\234\333\344\005L\266\313"
 212      96FDCE2F 
 212      989CDBE4 
 212      054CB6CB 
 213 059c E1F05402 		.ascii	"\341\360T\002\263\310?_p\270,\316\212\012GI\251+\223"
 213      B3C83F5F 
 213      70B82CCE 
 213      8A0A4749 
 213      A92B93
 214 05af 4986A3DC 		.ascii	"I\206\243\334\225UX6=\327\345\256\304B\236Z\310g\005"
 214      95555836 
 214      3DD7E5AE 
 214      C4429E5A 
 214      C86705
 215 05c2 ABABD85D 		.ascii	"\253\253\330]\354z\265\270hrV\241S\255\344\224+%\256"
 215      EC7AB5B8 
 215      687256A1 
 215      53ADE494 
 215      2B25AE
 216 05d5 E55A18A0 		.ascii	"\345Z\030\240x\246\213\235\363\224s>\234\0235\362,\254"
 216      78A68B9D 
 216      F394733E 
 216      9C1335F2 
 216      2CAC
ARM GAS  /tmp/ccLB3RFy.s 			page 17


 217 05e7 355E7162 		.ascii	"5^qb\215\304\225|+k[\341d\377\261\326\211R\276\\R\353"
 217      8DC4957C 
 217      2B6B5BE1 
 217      64FFB1D6 
 217      8952BE5C 
 218 05fd 15581941 		.ascii	"\025X\031A\271\352T\353\251W\237\313\234^\344\200\261"
 218      B9EA54EB 
 218      A9579FCB 
 218      9C5EE480 
 218      B1
 219 060e B807FE9A 		.ascii	"\270\007\376\2322\304\355v\224\272\206\301`\313\363"
 219      32C4ED76 
 219      94BA86C1 
 219      60CBF3
 220 061d DC6CA8D9 		.ascii	"\334l\250\331\316\331.u\032\236P\023f\236\350]\320X"
 220      CED92E75 
 220      1A9E5013 
 220      669EE85D 
 220      D058
 221 062f E7F1D5D6 		.ascii	"\347\361\325\326\210\201 \246\311C%\025\205\3562\265"
 221      888120A6 
 221      C9432515 
 221      85EE32B5 
 222 063f 6246A1C3 		.ascii	"bF\241\303\225\371r\361k.\313+\316Jv\026\334\256!Pt"
 222      95F972F1 
 222      6B2ECB2B 
 222      CE4A7616 
 222      DCAE2150 
 223 0654 B886A2E6 		.ascii	"\270\206\242\346\376\017\035\361T\027"
 223      FE0F1DF1 
 223      5417
 224              		.text
 225              		.section	.gnu.lto_.symtab.abaa26255bfdd264,"",%progbits
 226 0000 68616C5F 		.ascii	"hal_lld_init\000\000\000\000\000\000\000\000\000\000"
 226      6C6C645F 
 226      696E6974 
 226      00000000 
 226      00000000 
 227 0016 0000A100 		.ascii	"\000\000\241\000\000\000stm32_clock_init\000\000\000"
 227      00007374 
 227      6D33325F 
 227      636C6F63 
 227      6B5F696E 
 228 002f 00000000 		.ascii	"\000\000\000\000\000\000\000\000\000\246\000\000\000"
 228      00000000 
 228      00A60000 
 228      00
 229 003c 646D6149 		.ascii	"dmaInit\000\000\002\000\000\000\000\000\000\000\000"
 229      6E697400 
 229      00020000 
 229      00000000 
 229      0000
 230 004e 00A90000 		.ascii	"\000\251\000\000\000"
 230      00
 231              		.text
 232              		.section	.gnu.lto_.opts,"",%progbits
 233 0000 272D6D63 		.ascii	"'-mcpu=cortex-m4' '-mfloat-abi=hard' '-mfpu=fpv4-sp"
ARM GAS  /tmp/ccLB3RFy.s 			page 18


 233      70753D63 
 233      6F727465 
 233      782D6D34 
 233      2720272D 
 234 0033 2D643136 		.ascii	"-d16' '-mno-thumb-interwork' '-mthumb' '-O2' '-fomi"
 234      2720272D 
 234      6D6E6F2D 
 234      7468756D 
 234      622D696E 
 235 0066 742D6672 		.ascii	"t-frame-pointer' '-falign-functions=16' '-ffunction"
 235      616D652D 
 235      706F696E 
 235      74657227 
 235      20272D66 
 236 0099 2D736563 		.ascii	"-sections' '-fdata-sections' '-fno-common' '-flto' "
 236      74696F6E 
 236      73272027 
 236      2D666461 
 236      74612D73 
 237 00cc 272D6673 		.ascii	"'-fsingle-precision-constant'\000"
 237      696E676C 
 237      652D7072 
 237      65636973 
 237      696F6E2D 
 238              		.text
 239              		.section	.text.hal_lld_init,"ax",%progbits
 240              		.align	2
 241              		.p2align 4,,15
 242              		.global	hal_lld_init
 243              		.thumb
 244              		.thumb_func
 245              		.type	hal_lld_init, %function
 246              	hal_lld_init:
 247              		@ args = 0, pretend = 0, frame = 0
 248              		@ frame_needed = 0, uses_anonymous_args = 0
 249              		@ link register save eliminated.
 250 0000 174B     		ldr	r3, .L7
 251 0002 1848     		ldr	r0, .L7+4
 252 0004 1A69     		ldr	r2, [r3, #16]
 253 0006 4FF0FF31 		mov	r1, #-1
 254 000a 0022     		movs	r2, #0
 255 000c 10B4     		push	{r4}
 256 000e 1961     		str	r1, [r3, #16]
 257 0010 1A61     		str	r2, [r3, #16]
 258 0012 5C69     		ldr	r4, [r3, #20]
 259 0014 5961     		str	r1, [r3, #20]
 260 0016 5A61     		str	r2, [r3, #20]
 261 0018 1C6A     		ldr	r4, [r3, #32]
 262 001a 64F08054 		orn	r4, r4, #268435456
 263 001e 1C62     		str	r4, [r3, #32]
 264 0020 1A62     		str	r2, [r3, #32]
 265 0022 5C6A     		ldr	r4, [r3, #36]
 266 0024 5962     		str	r1, [r3, #36]
 267 0026 5A62     		str	r2, [r3, #36]
 268 0028 196C     		ldr	r1, [r3, #64]
 269 002a 41F08051 		orr	r1, r1, #268435456
 270 002e 1964     		str	r1, [r3, #64]
ARM GAS  /tmp/ccLB3RFy.s 			page 19


 271 0030 0168     		ldr	r1, [r0]
 272 0032 41F48071 		orr	r1, r1, #256
 273 0036 0160     		str	r1, [r0]
 274 0038 196F     		ldr	r1, [r3, #112]
 275 003a 01F44071 		and	r1, r1, #768
 276 003e B1F5007F 		cmp	r1, #512
 277 0042 03D0     		beq	.L2
 278 0044 4FF48031 		mov	r1, #65536
 279 0048 1967     		str	r1, [r3, #112]
 280 004a 1A67     		str	r2, [r3, #112]
 281              	.L2:
 282 004c 054B     		ldr	r3, .L7+4
 283 004e 5DF8044B 		ldr	r4, [sp], #4
 284 0052 5A68     		ldr	r2, [r3, #4]
 285 0054 22F40072 		bic	r2, r2, #512
 286 0058 5A60     		str	r2, [r3, #4]
 287 005a FFF7FEBF 		b	dmaInit
 288              	.L8:
 289 005e 00BF     		.align	2
 290              	.L7:
 291 0060 00380240 		.word	1073887232
 292 0064 00700040 		.word	1073770496
 293              		.size	hal_lld_init, .-hal_lld_init
 294 0068 AFF30080 		.section	.text.stm32_clock_init,"ax",%progbits
 294      AFF30080 
 295              		.align	2
 296              		.p2align 4,,15
 297              		.global	stm32_clock_init
 298              		.thumb
 299              		.thumb_func
 300              		.type	stm32_clock_init, %function
 301              	stm32_clock_init:
 302              		@ args = 0, pretend = 0, frame = 0
 303              		@ frame_needed = 0, uses_anonymous_args = 0
 304              		@ link register save eliminated.
 305 0000 2B49     		ldr	r1, .L24
 306 0002 2C4B     		ldr	r3, .L24+4
 307 0004 4FF08050 		mov	r0, #268435456
 308 0008 4FF40042 		mov	r2, #32768
 309 000c 0864     		str	r0, [r1, #64]
 310 000e 1A60     		str	r2, [r3]
 311 0010 0B68     		ldr	r3, [r1]
 312 0012 43F00103 		orr	r3, r3, #1
 313 0016 0B60     		str	r3, [r1]
 314              	.L11:
 315 0018 0B68     		ldr	r3, [r1]
 316 001a 254A     		ldr	r2, .L24
 317 001c 9807     		lsls	r0, r3, #30
 318 001e FBD5     		bpl	.L11
 319 0020 1168     		ldr	r1, [r2]
 320 0022 0023     		movs	r3, #0
 321 0024 01F0F901 		and	r1, r1, #249
 322 0028 1160     		str	r1, [r2]
 323 002a 1146     		mov	r1, r2
 324 002c 9360     		str	r3, [r2, #8]
 325              	.L13:
 326 002e 8B68     		ldr	r3, [r1, #8]
ARM GAS  /tmp/ccLB3RFy.s 			page 20


 327 0030 1F4A     		ldr	r2, .L24
 328 0032 13F00C0F 		tst	r3, #12
 329 0036 FAD1     		bne	.L13
 330 0038 1368     		ldr	r3, [r2]
 331 003a 43F4A023 		orr	r3, r3, #327680
 332 003e 1360     		str	r3, [r2]
 333 0040 1146     		mov	r1, r2
 334              	.L15:
 335 0042 0B68     		ldr	r3, [r1]
 336 0044 1A4A     		ldr	r2, .L24
 337 0046 9B03     		lsls	r3, r3, #14
 338 0048 FBD5     		bpl	.L15
 339 004a 536F     		ldr	r3, [r2, #116]
 340 004c 43F00103 		orr	r3, r3, #1
 341 0050 5367     		str	r3, [r2, #116]
 342 0052 1146     		mov	r1, r2
 343              	.L17:
 344 0054 4B6F     		ldr	r3, [r1, #116]
 345 0056 164A     		ldr	r2, .L24
 346 0058 9807     		lsls	r0, r3, #30
 347 005a FBD5     		bpl	.L17
 348 005c 164B     		ldr	r3, .L24+8
 349 005e 5360     		str	r3, [r2, #4]
 350 0060 1368     		ldr	r3, [r2]
 351 0062 1449     		ldr	r1, .L24+4
 352 0064 43F08073 		orr	r3, r3, #16777216
 353 0068 1360     		str	r3, [r2]
 354              	.L19:
 355 006a 4B68     		ldr	r3, [r1, #4]
 356 006c 5A04     		lsls	r2, r3, #17
 357 006e FCD5     		bpl	.L19
 358 0070 0F49     		ldr	r1, .L24
 359              	.L21:
 360 0072 0B68     		ldr	r3, [r1]
 361 0074 0E4A     		ldr	r2, .L24
 362 0076 9B01     		lsls	r3, r3, #6
 363 0078 FBD5     		bpl	.L21
 364 007a 104B     		ldr	r3, .L24+12
 365 007c 1049     		ldr	r1, .L24+16
 366 007e 9160     		str	r1, [r2, #8]
 367 0080 40F20271 		movw	r1, #1794
 368 0084 1960     		str	r1, [r3]
 369 0086 9368     		ldr	r3, [r2, #8]
 370 0088 43F00203 		orr	r3, r3, #2
 371 008c 9360     		str	r3, [r2, #8]
 372 008e 1146     		mov	r1, r2
 373              	.L23:
 374 0090 8B68     		ldr	r3, [r1, #8]
 375 0092 074A     		ldr	r2, .L24
 376 0094 03F00C03 		and	r3, r3, #12
 377 0098 082B     		cmp	r3, #8
 378 009a F9D1     		bne	.L23
 379 009c 536C     		ldr	r3, [r2, #68]
 380 009e 43F48043 		orr	r3, r3, #16384
 381 00a2 5364     		str	r3, [r2, #68]
 382 00a4 536E     		ldr	r3, [r2, #100]
 383 00a6 43F48043 		orr	r3, r3, #16384
ARM GAS  /tmp/ccLB3RFy.s 			page 21


 384 00aa 5366     		str	r3, [r2, #100]
 385 00ac 7047     		bx	lr
 386              	.L25:
 387 00ae 00BF     		.align	2
 388              	.L24:
 389 00b0 00380240 		.word	1073887232
 390 00b4 00700040 		.word	1073770496
 391 00b8 10544107 		.word	121721872
 392 00bc 003C0240 		.word	1073888256
 393 00c0 00104838 		.word	944246784
 394              		.size	stm32_clock_init, .-stm32_clock_init
 395              		.comm	__gnu_lto_v1,1,1
 396 00c4 AFF30080 		.ident	"GCC: (GNU Tools for ARM Embedded Processors) 4.8.4 20140526 (release) [ARM/embedded-4_8-br
 396      AFF30080 
 396      AFF30080 
ARM GAS  /tmp/ccLB3RFy.s 			page 22


DEFINED SYMBOLS
                            *ABS*:0000000000000000 hal_lld.c
     /tmp/ccLB3RFy.s:240    .text.hal_lld_init:0000000000000000 $t
     /tmp/ccLB3RFy.s:246    .text.hal_lld_init:0000000000000000 hal_lld_init
     /tmp/ccLB3RFy.s:291    .text.hal_lld_init:0000000000000060 $d
     /tmp/ccLB3RFy.s:295    .text.stm32_clock_init:0000000000000000 $t
     /tmp/ccLB3RFy.s:301    .text.stm32_clock_init:0000000000000000 stm32_clock_init
     /tmp/ccLB3RFy.s:389    .text.stm32_clock_init:00000000000000b0 $d
                            *COM*:0000000000000001 __gnu_lto_v1
     /tmp/ccLB3RFy.s:294    .text.hal_lld_init:0000000000000068 $t
     /tmp/ccLB3RFy.s:396    .text.stm32_clock_init:00000000000000c4 $t

UNDEFINED SYMBOLS
dmaInit
