ARM GAS  /tmp/ccMv5Db4.s 			page 1


   1              		.syntax unified
   2              		.cpu cortex-m4
   3              		.eabi_attribute 27, 3
   4              		.eabi_attribute 28, 1
   5              		.fpu fpv4-sp-d16
   6              		.eabi_attribute 20, 1
   7              		.eabi_attribute 21, 1
   8              		.eabi_attribute 23, 3
   9              		.eabi_attribute 24, 1
  10              		.eabi_attribute 25, 1
  11              		.eabi_attribute 26, 1
  12              		.eabi_attribute 30, 2
  13              		.eabi_attribute 34, 1
  14              		.eabi_attribute 18, 4
  15              		.thumb
  16              		.file	"hih6030.c"
  17              		.section	.gnu.lto_.jmpfuncs.f9466dabc805a752,"",%progbits
  18 0000 789C6362 		.ascii	"x\234cb`b\300\006V\0001'\020\2632\26032\263\2630d22"
  18      6062C006 
  18      56003127 
  18      10B332B0 
  18      3332B3B3 
  19 0018 30303230 		.ascii	"0020\003\2112F\006\246\010\306LFFu\210J0\207I\003\310"
  19      03893246 
  19      06A608C6 
  19      4C464675 
  19      884A3087 
  20 002f A866F8D5 		.ascii	"\250f\370\3250\243A \223\221Y\216\201qn\303\014\207"
  20      30A34120 
  20      9391598E 
  20      81716EC3 
  20      0C87
  21 0041 4C461688 		.ascii	"LF\026\210\022f&\024\023\030\030\230\031\231!\"P\375"
  21      12662614 
  21      13181898 
  21      19992122 
  21      50FD
  22 0053 8C8C3006 		.ascii	"\214\2140\006P\204\205\235\031\250\214\001\244\014\252"
  22      5084859D 
  22      19A88C01 
  22      A40CAA
  23 0062 1A2809A2 		.ascii	"\032(\011\242ph\001Y\302\341\341\351af`l\300\000\000"
  23      70680159 
  23      C2E1E1E9 
  23      6166606C 
  23      C00000
  24 0075 A2D111BB 		.ascii	"\242\321\021\273"
  25              		.text
  26              		.section	.gnu.lto_.inline.f9466dabc805a752,"",%progbits
  27 0000 789C6D50 		.ascii	"x\234mP\273\015\3020\020}w\361' >\001\321 \220(((X\""
  27      BB0DC230 
  27      107D77F1 
  27      27203E01 
  27      D1209028 
  28 0018 13A46603 		.ascii	"\023\244f\003`\013\227\224\221X e:()(\030\201\212\031"
  28      600B9794 
  28      91582065 
ARM GAS  /tmp/ccMv5Db4.s 			page 2


  28      3A282928 
  28      18818A19 
  29 002c 2226A0E4 		.ascii	"\"&\240\344l+\021\005'\371\336\235\337\363\363\331\014"
  29      6C2B1105 
  29      27F9DE9D 
  29      DFF3F3D9 
  29      0C
  30 003d C6BFD853 		.ascii	"\306\277\330SD\015,\327\324\247\303\216\216$\015h\337"
  30      440D2CD7 
  30      D4A7C38E 
  30      8E240D68 
  30      DF
  31 004e 56DCED71 		.ascii	"V\334\355q\267\0079\226T\034\240\216p\215pc\362\226"
  31      B7073996 
  31      541CA08E 
  31      708D7063 
  31      F296
  32 0060 ECD34C96 		.ascii	"\354\323L\226\251VB46g\364\352<\007\325\306\021G\000"
  32      A9564234 
  32      3667F4EA 
  32      3C07D5C6 
  32      114700
  33 0073 3F070F0A 		.ascii	"?\007\017\01253\222\317\324EB\305Fy\336\031\250j\356"
  33      353392CF 
  33      D44542C5 
  33      4679DE19 
  33      A86AEE
  34 0086 5298C6D1 		.ascii	"R\230\306\321\203\024\350\242\205\3679\020\031\322\373"
  34      8314E8A2 
  34      85F73910 
  34      19D2FB
  35 0095 999CC940 		.ascii	"\231\234\311@/\235q\310q\300\301L&\211\2634\026\366"
  35      2F9D71C8 
  35      71C0C14C 
  35      2689B334 
  35      16F6
  36 00a7 B4093F90 		.ascii	"\264\011?\220N\000[\026e\201\220\344[\354\270\325\265"
  36      4E005B16 
  36      658190E4 
  36      5BECB8D5 
  36      B5
  37 00b8 E34AA8A1 		.ascii	"\343J\250\241\364^\221\374\370\230\367\026\351{\033"
  37      F45E91FC 
  37      F898F716 
  37      E97B1B
  38 00c7 047A248F 		.ascii	"\004z$\217\365\006\012\343E+\320\247Mw\221wH\274CYt"
  38      F5060AE3 
  38      452BD0A7 
  38      4D779177 
  38      48BC4359 
  39 00dc 5A7C014F 		.ascii	"Z|\001Ov1*"
  39      76312A
  40              		.text
  41              		.section	.gnu.lto_.pureconst.f9466dabc805a752,"",%progbits
  42 0000 789C6362 		.ascii	"x\234cb`b\340f\200\000V\006)F)&\011f)\026)\000\004\037"
  42      6062E066 
  42      80005606 
ARM GAS  /tmp/ccMv5Db4.s 			page 3


  42      29462926 
  42      09662916 
  43 0018 009F     		.ascii	"\000\237"
  44              		.text
  45              		.section	.gnu.lto_hih6030_read.part.0.f9466dabc805a752,"",%progbits
  46 0000 789C8D54 		.ascii	"x\234\215TKk\023Q\024>\347\3163\2176\351\273MAk\301"
  46      4B6B1351 
  46      143EE7CE 
  46      338F36E9 
  46      BB4D416B 
  47 0015 8558B520 		.ascii	"\205X\265 jwq\341\302\037\220\202\356\214U\333Y\010"
  47      6A7771E1 
  47      C21F9082 
  47      EE8C55DB 
  47      5908
  48 0027 D2565D76 		.ascii	"\322V]v\322)R\245\213 .\322\212\330\"\305\"h\025DQ\021"
  48      D22952A5 
  48      8B202ED2 
  48      8AD822C5 
  48      22681544 
  49 003d AA0B890B 		.ascii	"\252\013\211\013\305\256-R\337bE\272\022Aq<g&s\223\214"
  49      C5AE2D52 
  49      DF6245BA 
  49      1241713C 
  49      67267393 
  50 0052 0F7221E7 		.ascii	"\017r!\347\336\373\235\357<\2763\223\021  \274\216\320"
  50      DEFB9DEF 
  50      3CBE3393 
  50      112020BC 
  50      8ED0
  51 0064 EF8306B0 		.ascii	"\357\203\006\260\231v\214\000\232\371\347t0Qx\273\020"
  51      99768C00 
  51      9AF9E774 
  51      305178BB 
  51      10
  52 0075 4A210D76 		.ascii	"J!\015v\324\370^\017v\\\021\352\355\307@Wm%FW\0255&"
  52      D4F85E0F 
  52      765C11EA 
  52      EDC74057 
  52      6D254657 
  53 008c E54C4DE8 		.ascii	"\345LM\3503O\0307\276\031\204\353h\370\270\201\310\007"
  53      334F1837 
  53      BE1984EB 
  53      68F8B881 
  53      C807
  54 009e 40183385 		.ascii	"@\0303\205\242j\272\201c\007\221\253*\3350g\333\347"
  54      A26ABA81 
  54      630791AB 
  54      2ADD3067 
  54      DBE7
  55 00b0 57DFBFBA 		.ascii	"W\337\277\272\320n\317\346\362\366/\327E\013\251\277"
  55      D06ECFE6 
  55      F2F62FD7 
  55      450BA9BF 
  56 00c0 16840184 		.ascii	"\026\204\001\204\003t\301\244\267\211P\317~\244}\367"
  56      0374C1A4 
  56      B78950CF 
ARM GAS  /tmp/ccMv5Db4.s 			page 4


  56      7EA47DF7 
  57 00d0 D0823DB1 		.ascii	"\320\202=\261\344\272i/*UST~i\371u\021)8\267\356\272"
  57      E4BA692F 
  57      2A555354 
  57      7E69F975 
  57      112938B7 
  58 00e6 090B1501 		.ascii	"\011\013\025\001\033\313\201]~\240Z\035\270(\354U\327"
  58      1BCB815D 
  58      7EA05A1D 
  58      B828EC55 
  58      D7
  59 00f7 9D5E3337 		.ascii	"\235^37!\036\347R\026\252\012\031M\345\223FF\327\331"
  59      211EE752 
  59      16AA0A19 
  59      4DE59346 
  59      46D7D9
  60 010a 187C35F9 		.ascii	"\030|5\371\024\201,^\301n\2102\022c$\316\246\216\257"
  60      14812C5E 
  60      C16E8832 
  60      126324CE 
  60      A68EAF
  61 011d F56C127C 		.ascii	"\365l\022|M\022k\216X\015\224\025\033\0111\232\310\230"
  61      4D126B8E 
  61      580D9415 
  61      1B09319A 
  61      C898
  62 012f CD6C5AD8 		.ascii	"\315lZ\330\264\222C\264\261\243\235\257\035lRl:\331"
  62      B49243B4 
  62      B1A39DAF 
  62      1D6C526C 
  62      3AD9
  63 0141 50671A4C 		.ascii	"Pg\032L\220\244\256,\316S\032\277\244\237\022X\022\255"
  63      90A4AE2C 
  63      CE531ABF 
  63      A49F1258 
  63      12AD
  64 0153 0C599E7F 		.ascii	"\014Y\236\177\206\350\264+\375(\274\375\031\214\257"
  64      86E8B42B 
  64      FD28BCFD 
  64      198CAF
  65 0162 14DE7C12 		.ascii	"\024\336|\022Y\274\212\032\014\242\330\006=\026F\266"
  65      59BC8A1A 
  65      0CA2D806 
  65      3D1646B6 
  66 0172 C2359BD6 		.ascii	"\3025\233\326\036\013\243\027a&g\333I\013c\203\210<"
  66      1E0BA317 
  66      612667DB 
  66      490B6383 
  66      883C
  67 0184 95B8378B 		.ascii	"\225\2707\213\303\350\317\204\021\243bF\224\360\253"
  67      C3E8CF84 
  67      11A36246 
  67      94F0AB
  68 0193 930AD229 		.ascii	"\223\012\322)\224\021\240\010\023\037s1\211q\210V9\327"
  68      9411A008 
  68      131F7331 
  68      89718856 
ARM GAS  /tmp/ccMv5Db4.s 			page 5


  68      39D7
  69 01a5 7E54A090 		.ascii	"~T\240\220\246^\234\007\316\342TG@T)\230\271j\272\224"
  69      A65E9C07 
  69      CEE25447 
  69      40542998 
  69      B96ABA94 
  70 01b9 57093C1A 		.ascii	"W\011<\0329\031r\256KH'\224\311`\372\344\225\374\206"
  70      391972AE 
  70      4B482794 
  70      C960FAE4 
  70      95FC86
  71 01cc C0655469 		.ascii	"\300eTiz\2105\212\302\220\250cA>s\220\025S\365IY=\342"
  71      7A88358A 
  71      C290A863 
  71      413E7390 
  71      1553F549 
  72 01e3 3560FA95 		.ascii	"5`\372\225\013o\213\322\021\255\252\235\256\261\264"
  72      0B6F8BD2 
  72      11ADAA9D 
  72      AEB1B4
  73 01f2 F857698A 		.ascii	"\370Wi\212\211\206\204\307\011\365\204\353%\3417\345"
  73      898684C7 
  73      09F584EB 
  73      25E137E5 
  74 0202 F4EBAA8A 		.ascii	"\364\353\252\212_\256U\270RY\335\271Q\256^O)e\177U\017"
  74      5FAE55B8 
  74      5259DDB9 
  74      51AE5E4F 
  74      29657F55 
  75 0217 2441CED0 		.ascii	"$A\316\320H\222^k\011\357\351\177yt\353\214t4p\212\272"
  75      48925E6B 
  75      09EFE97F 
  75      7974EB8C 
  75      7434708A 
  76 022c EAE7AFC2 		.ascii	"\352\347\257\302\313]\212'umjK@l\244\271zu\026dl\023"
  76      CB5D8A27 
  76      756D6A4B 
  76      406CA4B9 
  76      7A751664 
  77 0242 A15E9D73 		.ascii	"\241^\235s\022j&4\005\323\366\244\235\357\243\357Ni"
  77      126A2634 
  77      05D3F6A4 
  77      9DEFA3EF 
  77      4E69
  78 0254 15D1FF63 		.ascii	"\025\321\377c\020\365\222s_\276\336-\304/\221OH\362"
  78      10F59273 
  78      5FBEDE2D 
  78      C42F914F 
  78      48F2
  79 0266 4F5792C7 		.ascii	"OW\222\307\237\256\033>W\016\312\254\352\230R\004=k"
  79      9FAE1B3E 
  79      570ECAAC 
  79      EA985204 
  79      3D6B
  80 0278 FCCE7AE2 		.ascii	"\374\316z\342\356\225\305\265\376E\234\016\357\372|"
  80      EE95C5B5 
  80      FE459C0E 
ARM GAS  /tmp/ccMv5Db4.s 			page 6


  80      EFFA7C
  81 0287 713FA67A 		.ascii	"q?\246z\002b\033M($\256\235\320\220\270\016BK\375\356"
  81      02621B4D 
  81      2824AE9D 
  81      D090B80E 
  81      424BFDEE 
  82 029b 2D8B9BAF 		.ascii	"-\213\233\257\024\367Y\212K\021\377\177\342\234\263"
  82      14F7598A 
  82      4B11FF7F 
  82      E29CB3
  83 02aa CE1D99B9 		.ascii	"\316\035\231\271\223\370%ro9\363l\305$^D\377\234Dk\345"
  83      93F82572 
  83      6F39F36C 
  83      C5245E44 
  83      FF9C446B 
  84 02bf 243A0381 		.ascii	"$:\003\201\206\367)Y\246\257|Yv\006\221Q~S\032\367\015"
  84      86F72959 
  84      A6AF7C59 
  84      76069151 
  84      7E531AF7 
  85 02d4 5BA78E0E 		.ascii	"[\247\216\016\217\354\030\262\206v\367\356\354\335>"
  85      8FEC18B2 
  85      8676F7EE 
  85      ECDD3E
  86 02e3 00EA70F6 		.ascii	"\000\352p\366t\206\315~}d4;zr\3447p\376_\212"
  86      7486CD7E 
  86      7D64343B 
  86      7A72E437 
  86      70FE5F8A 
  87              		.text
  88              		.section	.gnu.lto_hih6030_init.f9466dabc805a752,"",%progbits
  89 0000 789C6D90 		.ascii	"x\234m\220\261KBQ\024\306\277\357>\337SK%\202\210\206"
  89      B14B4251 
  89      14C6BFEF 
  89      3EDF534B 
  89      25828886 
  90 0014 A2AD2028 		.ascii	"\242\255 (#hnh\260\335\240\306\222\320;\264(4\344\340"
  90      23686E68 
  90      B0DDA0C6 
  90      92D03BB4 
  90      2834E4E0 
  91 0028 B5241A1D 		.ascii	"\265$\032\035\305rhu0h\311\261\177\240\244-h\221\326"
  91      C5726875 
  91      3068C9B1 
  91      7FA0A42D 
  91      6891D6
  92 003b FE8170B1 		.ascii	"\376\201p\261s\257O\020\361\300=\347\334\3039\277\363"
  92      73AF4F10 
  92      F1C03DE7 
  92      DCC339BF 
  92      F3
  93 004c DDABA030 		.ascii	"\335\253\2400m+rz\004V%\322\003U\375\003\250\306\024"
  93      6D2B727A 
  93      045625D2 
  93      0355FD03 
  93      A8C614
  94 005f 69131015 		.ascii	"i\023\020\025\305\312)]\357\263z\353\017\207\235\227"
ARM GAS  /tmp/ccMv5Db4.s 			page 7


  94      C5CA295D 
  94      EFB37AEB 
  94      0F879D97 
  95 006f DA0FE3E4 		.ascii	"\332\017\343\344%\005\247\011O\034#\342T 5\333\351\243"
  95      2505A709 
  95      4F1C23E2 
  95      542035DB 
  95      E9A3
  96 0081 664C7D1D 		.ascii	"fL}\035\310\271\271\254x\013;\246\262\321{\307\315\340"
  96      C8B9B9AC 
  96      780B3BA6 
  96      B2D17BC7 
  96      CDE0
  97 0093 F6F74B9D 		.ascii	"\366\367K\235\361\211>\362Te\\\013g\013m#V\322\364\036"
  97      F1893EF2 
  97      54655C0B 
  97      670B6D23 
  97      56D2F41E 
  98 00a7 D0A46624 		.ascii	"\320\244f$O\236H\364\335\362sN\250v\210NbL\360\034\201"
  98      4F9E48F4 
  98      DDF2734E 
  98      A876884E 
  98      624CF01C 
  99 00bc 21A11568 		.ascii	"!\241\025h\006\263\021\234B\264\223cD\304!T\210\370"
  99      06B3119C 
  99      42B49363 
  99      44C42154 
  99      88F8
 100 00ce 16447436 		.ascii	"\026Dt6b\342\013{h\232\256?\"\000e\014\314\275Y\320"
 100      62E20B7B 
 100      689AAE3F 
 100      2200650C 
 100      CCBD59D0 
 101 00e2 8CE5C23D 		.ascii	"\214\345\302=\362\264<\003;\034\337\260*e\213\275\314"
 101      F2B43C03 
 101      3B1CDFB0 
 101      2A658BBD 
 101      CC
 102 00f3 6DBADE86 		.ascii	"m\272\336\2061\257Q\315\3715,\265L\343@3\201\020\245"
 102      31AF51CD 
 102      F9352CB5 
 102      4CE34033 
 102      8110A5
 103 0106 9974FABA 		.ascii	"\231t\372\272\177w\313\243R(kW35[\225\347\242\255\244"
 103      7F77CBA3 
 103      52286B57 
 103      33355B95 
 103      E7A2ADA4 
 104 011a 6CF2896A 		.ascii	"l\362\211j\377Q\215\225\215,+\252\344\373\255\376\305"
 104      FF518D95 
 104      8D2C2BAA 
 104      E4FBADFE 
 104      C5
 105 012b C3A2BEBA 		.ascii	"\303\242\276\272(\226v\012\272\260\237\336Ko\347\020"
 105      2896760A 
 105      BAB09FDE 
 105      4B6FE710 
ARM GAS  /tmp/ccMv5Db4.s 			page 8


 106 013b CB1C656C 		.ascii	"\313\034el\212\177\211\317k\267"
 106      8A7F89CF 
 106      6BB7
 107              		.text
 108              		.section	.gnu.lto_hih6030_stop.f9466dabc805a752,"",%progbits
 109 0000 789C5D50 		.ascii	"x\234]P1j\002Q\024\234y\273\253)El\322\245\027T\020"
 109      316A0251 
 109      149C79BB 
 109      AB29456C 
 109      D2A51754 
 110 0015 72028FA0 		.ascii	"r\002\217\240\240\245Yd\375\205\215\202\205\026\376"
 110      A0A55964 
 110      FD858D82 
 110      8516FE
 111 0024 44054B6D 		.ascii	"D\005KmM\225\326B\017`\343\005T\004\253T\236c\033}\177"
 111      4D95D642 
 111      0F60E305 
 111      5404AB54 
 111      9E631B7D 
 112 0039 25127C30 		.ascii	"%\022|0\177\246\2307o\370\002\301\363\274*\316\212\234"
 112      7FA69837 
 112      6FF802C1 
 112      F3BC2ACE 
 112      8A9C
 113 004b 821E28F3 		.ascii	"\202\036(\363\003\360\371\"\244\023 F\302Q\203\211w"
 113      03F0F922 
 113      A4132046 
 113      C2518389 
 113      77
 114 005c 23BBCBF5 		.ascii	"#\273\313\365\272\376\235\304\222&;\3248C\370\252\230"
 114      BAFE9DC4 
 114      92263BD4 
 114      3843F8AA 
 114      98
 115 006d 52E54C01 		.ascii	"R\345L\001&\326\316\337\2000Y\251\352\353rj\024\307"
 115      26D6CEDF 
 115      803059A9 
 115      EAEB726A 
 115      14C7
 116 007f DE1E5FF1 		.ascii	"\336\036_\361x{\362\232\374a\200\2102\304@#\362XY\235"
 116      787BF29A 
 116      FC618088 
 116      32C44023 
 116      F258599D 
 117 0093 050DE51B 		.ascii	"\005\015\345\033K%/\"\353\312~r\370\203\377\032\037"
 117      4B252F22 
 117      EBCA7E72 
 117      F883FF1A 
 117      1F
 118 00a4 31DD057F 		.ascii	"1\335\005\177\001\251!b;\263\031\303 \344\335\245\251"
 118      01A92162 
 118      3BB319C3 
 118      20E4DDA5 
 118      A9
 119 00b5 117DA395 		.ascii	"\021}\243\225p\002\037\306\373rUMZ\304\375C\266\322"
 119      70021FC6 
 119      FB72554D 
ARM GAS  /tmp/ccMv5Db4.s 			page 9


 119      5AC4FD43 
 119      B6D2
 120 00c7 35FD56B7 		.ascii	"5\375V\267Wl\233\366{\251\\*\204\270\001q<5y"
 120      576C9BF6 
 120      7BA95C2A 
 120      84B80171 
 120      3C3579
 121              		.text
 122              		.section	.gnu.lto_hih6030_measurementRequest.f9466dabc805a752,"",%progbits
 123 0000 789C6D50 		.ascii	"x\234mP;K\003A\020\236oo/\357\200\012\021E\220`a#\032"
 123      3B4B0341 
 123      109E6F6F 
 123      2FEF800A 
 123      11459060 
 124 0017 51B0B5F1 		.ascii	"Q\260\265\361'\030\3202\036\222la\223D\013Sd\023E,,"
 124      2718D032 
 124      1E926C61 
 124      93440B53 
 124      6413452C 
 125 002c 4240106D 		.ascii	"B@\020m\014\"\001\021l\005-\"XX\370&? \225\376\005\011"
 125      0C220111 
 125      6C052D22 
 125      5858F826 
 125      3F2095FE 
 126 0042 E2B97B97 		.ascii	"\342\271{\227\234\0172p7;\2733\337c\0301\372\0373\352"
 126      9C0F3270 
 126      373BBB33 
 126      DF631831 
 126      FA1F33EA 
 127 0056 7B03D188 		.ascii	"{\003\321\210\3120\011\254\362HT\0120f4\023$C\374z\224"
 127      CA3009AC 
 127      F248540A 
 127      30663413 
 127      2443FC7A 
 128 006b 64C40077 		.ascii	"d\304\000w\2579\240\017\004*2\203\243\270\014\215\201"
 128      AF39A00F 
 128      042A3283 
 128      A3B80C8D 
 128      81
 129 007c 31AA4959 		.ascii	"1\252IYi\235V\367\206\345q\271\"\277l\033\002\212-\006"
 129      699D56F7 
 129      86E571B9 
 129      22BF6C1B 
 129      028A2D06 
 130 0090 B2404BAA 		.ascii	"\262@K\252@\334I\214\377\245\277`\215\226m\177\326\237"
 130      40DC498C 
 130      FFA5BF60 
 130      8D966D7F 
 130      D69F
 131 00a2 C78306D6 		.ascii	"\307\203\006\326@&\011\030~J\241\246@U\230\264\255\220"
 131      40260918 
 131      7E4AA1A6 
 131      405598B4 
 131      AD90
 132 00b4 E3DDDA72 		.ascii	"\343\335\332r\370\026\325_\313H\202\351l<P\371\362\340"
 132      F816D55F 
 132      CB4882E9 
ARM GAS  /tmp/ccMv5Db4.s 			page 10


 132      6C3C50F9 
 132      F2E0
 133 00c6 3596C289 		.ascii	"5\226\302\211r0I\347R\305\274\000\237\2403}\014\013"
 133      723049E7 
 133      52C5BC00 
 133      9FA0337D 
 133      0C0B
 134 00d8 984774A8 		.ascii	"\230Gt\250\330}i\030Z\205\337\341^\201\253A\337\004"
 134      D87D6918 
 134      5A85DFE1 
 134      5E81AB41 
 134      DF04
 135 00ea 3C45BA72 		.ascii	"<E\272rD*\324\366V\275\315]\3304\314\002m*q\035\320"
 135      442AD4F6 
 135      56BDCD5D 
 135      D834CC02 
 135      6D2A711D 
 136 00ff 2BD516EC 		.ascii	"+\325\026\354\215\212\037{O\264\323\030\352\002\370"
 136      8D8A1F7B 
 136      4FB4D318 
 136      EA02F8
 137 010e 0BD496BB 		.ascii	"\013\324\226\273\262O du\232\024\252\303\207.\255@\230"
 137      B24F2064 
 137      759A14AA 
 137      C3872EAD 
 137      4098
 138 0120 E88E6EDF 		.ascii	"\350\216n\337o\366\373\2759\375\026\371\275\265$\014"
 138      6FF6FBBD 
 138      39FD16F9 
 138      BDB5240C 
 139 0130 6A261CDF 		.ascii	"j&\034\337\037\325A\267\257\243+*\020\355-\213y\366"
 139      1FD541B7 
 139      AFA32B2A 
 139      10ED2D8B 
 139      79F6
 140 0142 A2F070B8 		.ascii	"\242\360p\270\263\300\027*\265\356=\243\356\200\332"
 140      B3C0172A 
 140      B5EE3DA3 
 140      EE80DA
 141 0151 32F4A31E 		.ascii	"2\364\243\036\033X\310\212\215\325l.\221\021\231\271"
 141      1B58C88A 
 141      8DD56C2E 
 141      911199B9 
 142 0161 E9D9E929 		.ascii	"\351\331\351)\213|\271|*\277\236\373\006)\346u\012"
 142      8B7CB97C 
 142      2ABF9EFB 
 142      0629E675 
 142      0A
 143              		.text
 144              		.section	.gnu.lto_hih6030_read.f9466dabc805a752,"",%progbits
 145 0000 789C6D91 		.ascii	"x\234m\221;K\003A\024\205\317\231\235\254y\250\250`"
 145      3B4B0341 
 145      1485CF99 
 145      9DAC79A8 
 145      A860
 146 0012 218288AD 		.ascii	"!\202\210\255h\"\202\255\215?\301\200\2261H\262\205"
 146      682282AD 
ARM GAS  /tmp/ccMv5Db4.s 			page 11


 146      8D3FC180 
 146      963148B2 
 146      85
 147 0023 8D8916A6 		.ascii	"\215\211\026\246\310\030\037XX\244\216\205\212\235\012"
 147      C8181F58 
 147      58A48E85 
 147      8A9D0A
 148 0032 B6292C22 		.ascii	"\266),\"X\010\242\"\210E*;\013\377A\024\343\235\335"
 148      5808A222 
 148      88452A3B 
 148      0BFF4114 
 148      E39DDD
 149 0045 243E7060 		.ascii	"$>p`\347\356\334\307w\317\334QP\370\273\246\344\253"
 149      E7EEDCC7 
 149      77CFDC51 
 149      50F8BBA6 
 149      E4AB
 150 0057 131816CB 		.ascii	"\023\030\026\313\020\250\312\367\300fX)\347)\016\023"
 150      10A8CAF7 
 150      C0665829 
 150      E7290E13 
 151 0067 D5972330 		.ascii	"\325\227#0\335\016\265uS\223\326\202(*G\263\270H\213"
 151      DD0EB575 
 151      5393D682 
 151      282A47B3 
 151      B8488B
 152 007a E0188E8D 		.ascii	"\340\030\216\215)\277\354T\366\207\314Q\251l>\233Mz"
 152      29BFEC54 
 152      F687CC51 
 152      A96C3E9B 
 152      4D7A
 153 008c 94668344 		.ascii	"\224f\203D\232X\220\003G}\243\364\357\356\027\252\366"
 153      9A589003 
 153      477DA3F4 
 153      EFEE17AA 
 153      F6
 154 009d D26C7E9C 		.ascii	"\322l~\234\225\237\031S\\!4<:.R<\026jD<\214\312fe\207"
 154      959F1953 
 154      5C21343C 
 154      3A2E523C 
 154      166A443C 
 155 00b6 B02D4D46 		.ascii	"\260-MF\203\010,W\326\274\354VQRR\304:w(U\253\365\301"
 155      83082C57 
 155      D6BCEC56 
 155      515252C4 
 155      3A772855 
 156 00cd 144FE42E 		.ascii	"\024O\344.\02387\262f=\352q\234\332\337\230\307\320"
 156      133837B2 
 156      663DEA71 
 156      9CDADF98 
 156      C7D0
 157 00df 012A22C4 		.ascii	"\001*\"\304\315PYA]\276\214%\006r\254'\334\021gO\276"
 157      CD505941 
 157      5DBE8C25 
 157      0672AC27 
 157      DC11674F 
 158 00f4 5EA136B6 		.ascii	"^\2416\266\336nu\200\315P\027\260!2[\320CI\213\374O"
ARM GAS  /tmp/ccMv5Db4.s 			page 12


 158      DE6E7580 
 158      CD5017B0 
 158      21325BD0 
 158      43498BFC 
 159 0109 E5F74D1F 		.ascii	"\345\367M\037\260[\033j\003\334\002\032f\317\364y\214"
 159      B05B1B6A 
 159      03DC021A 
 159      66CFF479 
 159      8C
 160 011a A65B4942 		.ascii	"\246[IB\365\373\005\343\322v\0161\340\006\327\257W\357"
 160      F5FB05E3 
 160      D2760E31 
 160      E006D7AF 
 160      57EF
 161 012c FD9D3A1B 		.ascii	"\375\235:\033\353\3769\300$\035<\305\035\241\207\203"
 161      EBFE39C0 
 161      241D3CC5 
 161      1DA18783 
 162 013c 24A0C3EE 		.ascii	"$\240\303\356IS\265\330*\303H\206Q\217\275\3552\355"
 162      4953B5D8 
 162      2AC34886 
 162      518FBDED 
 162      32ED
 163 014e CFEB519E 		.ascii	"\317\353Q\236\332\306\335\300=/b\304m\253\006\346V\275"
 163      DAC6DDC0 
 163      3D2F62C4 
 163      6DAB06E6 
 163      56BD
 164 0160 F5E5D55C 		.ascii	"\365\345\325\\<\353eg\022\323\211\3114\334\\>\225_\313"
 164      3CEB6567 
 164      12D389C9 
 164      34DC5C3E 
 164      955FCB
 165 0173 7D01D226 		.ascii	"}\001\322&o\222"
 165      6F92
 166              		.text
 167              		.section	.gnu.lto_.symbol_nodes.f9466dabc805a752,"",%progbits
 168 0000 789C4DC7 		.ascii	"x\234M\307K\022CP\000D\321\356~>\313\356\207P\031\332"
 168      4B124350 
 168      0044D1EE 
 168      7E3ECBEE 
 168      875019DA 
 169 0014 80646064 		.ascii	"\200d`d\035\346\326\240\312>\222P\010wr\353\010\302"
 169      1DE6D6A0 
 169      CA3E9250 
 169      087772EB 
 169      08C2
 170 0026 1B476A64 		.ascii	"\033Gjd\240\235\000\273{R_\232\007_+\243\254\033\013"
 170      A09D00BB 
 170      7B525F9A 
 170      075F2BA3 
 170      AC1B0B
 171 0039 39DC58CA 		.ascii	"9\334X\312\311EVr\2723F\362!g\227j9\377+0\3052\177\030"
 171      C9455672 
 171      BA3346F2 
 171      2167976A 
 171      39FF2B30 
ARM GAS  /tmp/ccMv5Db4.s 			page 13


 172 0051 94A1DF1E 		.ascii	"\224\241\337\036r\214\333\223\363@9L\304\0176\3620H"
 172      728CDB93 
 172      F340394C 
 172      C40F36F2 
 172      3048
 173              		.text
 174              		.section	.gnu.lto_.refs.f9466dabc805a752,"",%progbits
 175 0000 789C6362 		.ascii	"x\234cb`b`d\200\002\000\000F\000\006"
 175      60626064 
 175      80020000 
 175      460006
 176              		.text
 177              		.section	.gnu.lto_.decls.f9466dabc805a752,"",%progbits
 178 0000 789CBD5C 		.ascii	"x\234\275\\{x\024U\226\257\252\256\244\273I& \254.:"
 178      7B781455 
 178      96AFAAAE 
 178      A4BB4926 
 178      20AC2E3A 
 179 0014 CEDA7EDF 		.ascii	"\316\332~\337\214\0373\243\344\001\203\270\316*\230"
 179      8C1F33A3 
 179      E40183B8 
 179      CE2A98
 180 0023 C0906F79 		.ascii	"\300\220oyh\022f\340\217\331\266HWH\257\351t\246\272"
 180      681266E0 
 180      8FD9B648 
 180      5748AFE9 
 180      74A6BA
 181 0036 82615F16 		.ascii	"\202a_\026 \031A\201\020@\002\0031\256\202\250\300\210"
 181      20194181 
 181      10400203 
 181      31AE82A8 
 181      C088
 182 0048 80808234 		.ascii	"\200\200\2024*\022\036\003(\202\200\257\326\005\344"
 182      2A121E03 
 182      288280AF 
 182      D605E4
 183 0057 A12E0F23 		.ascii	"\241.\017# \217\354\271\247\252\272oU\252\272\2532\316"
 183      208FECB9 
 183      A7AABA6F 
 183      55AABAAB 
 183      32CE
 184 0069 F697BA75 		.ascii	"\366\227\272u\353\366\275\277{\316\271\347\234{\356"
 184      EBF6BDBF 
 184      7BCEB9E7 
 184      9C7BEE
 185 0078 ADDBE118 		.ascii	"\255\333\341\030\216Q8\206\351\204Ov)\303\274\354c\230"
 185      8E513886 
 185      E9844F76 
 185      29C3BCEC 
 185      6398
 186 008a 6C8661EE 		.ascii	"l\206a\356c\324\373\263p\255\207\313\013\327-P\357\307"
 186      63D4FBB3 
 186      70AD87CB 
 186      0BD72D50 
 186      EFC7
 187 009c 700D62D4 		.ascii	"p\015b\324\017Te~\002\317\367\3035\002\256\207\340\372"
 187      0F54657E 
ARM GAS  /tmp/ccMv5Db4.s 			page 14


 187      02CFF7C3 
 187      3502AE87 
 187      E0FA
 188 00ae 1D5C025C 		.ascii	"\035\\\002\\\021\270$\216\351\362!\365\363\340\276\231"
 188      11B8248E 
 188      E9F221F5 
 188      F3E0BE99 
 189 00be 55EFB970 		.ascii	"U\357\271pM\205<\3741\015\360\235\007\356<\\\375\265"
 189      4D853CFC 
 189      310DF09D 
 189      07EE3C5C 
 189      FDB5
 190 00d0 7EEF82B2 		.ascii	"~\357\202\262\333\341\012h\375\222zwr\352\375'Z\375"
 190      DBE10A68 
 190      FD927A77 
 190      72EAFD27 
 190      5AFD
 191 00e2 C170FF47 		.ascii	"\301p\377G\270~m\352\217\320\325\023\356!\270O\206\353"
 191      B87E6DEA 
 191      8FD0D513 
 191      EE21B84F 
 191      86EB
 192 00f4 DF38951F 		.ascii	"\3378\225\037\035\357\347\234\212\377\357\\W\036'\300"
 192      1DEFE79C 
 192      8AFFEF5C 
 192      571E27C0 
 193 0104 55C8A9B4 		.ascii	"U\310\251\264\334\001\367~\234\332o\001\\\234\206-h"
 193      DC01F77E 
 193      9CDA6F01 
 193      5C9C862D 
 193      68
 194 0115 F9124886 		.ascii	"\371\022H\206\231\372&\362\360j}\023\376\350~\377\003"
 194      99FA26F2 
 194      F06A7D13 
 194      FEE87EFF 
 194      03
 195 0126 AE5A8D87 		.ascii	"\256Z\215\207;4\214\021\232\314H~\024$\243Mx\017ir\233"
 195      3B348C11 
 195      9ACC487E 
 195      1424A34D 
 195      780F6972 
 196 013b 4AC92DA4 		.ascii	"J\311-\244\321\375sJF\2746f\377\011\371\030\247\216"
 196      D1FD734A 
 196      46BC3666 
 196      FF09F918 
 196      A78E
 197 014d 61A12627 		.ascii	"a\241&'\302\303\035\024\017\017icD\350\030k\352\357"
 197      C2C31D14 
 197      0F0F6963 
 197      44E8186B 
 197      EAEF
 198 015f 779AECBA 		.ascii	"w\232\354\272\323\337\177\301\375\037\264>\364>=\032"
 198      D3DF7FC1 
 198      FD1FB43E 
 198      F43E3D1A 
 199 016f 26E94F1F 		.ascii	"&\351O\037\267\337\303\375_\340\012\232\372\356\315"
 199      B7DFC3FD 
ARM GAS  /tmp/ccMv5Db4.s 			page 15


 199      5FE00A9A 
 199      FAEECD
 200 017e CC55E013 		.ascii	"\314U\340\023h\207\216\307\261\002\233\347'*Jr\271~"
 200      68878EC7 
 200      B1029BE7 
 200      272A4A72 
 200      B97E
 201 0190 2600157E 		.ascii	"&\000\025~\306<\257(M\211\351s\330\200\300>\313\366"
 201      C63CAF28 
 201      4D89E973 
 201      D880C03E 
 201      CBF6
 202 01a2 869EFAB2 		.ascii	"\206\236\372\262\314/\230\027\241U\223\242L\355\323"
 202      CC2F9817 
 202      A15593A2 
 202      4CEDD3
 203 01b1 55EF3283 		.ascii	"U\3572\203\302x\262\313\000K`\237g\177\241v\241\304"
 203      C278B2CB 
 203      004B609F 
 203      677FA176 
 203      A1C4
 204 01c3 0F86026A 		.ascii	"\017\206\002j)\243\225[|ng\332\240\317\370\221u\233"
 204      29A3955B 
 204      7C6E67DA 
 204      A0CFF891 
 204      759B
 205 01d5 58A531D7 		.ascii	"X\2451\327\3134\302\223\222\230>\265oK\252+\237\336"
 205      CB34C293 
 205      92983EB5 
 205      6F4BAA2B 
 205      9FDE
 206 01e7 139B243F 		.ascii	"\023\233$?\376\236\217\023\330\025\254\027\250\377%"
 206      FE9E8F13 
 206      D815AC17 
 206      A8FF25
 207 01f6 6B807780 		.ascii	"k\200w\200A\350y\031\332\032\250\335\304sji\032j=\014"
 207      41E87919 
 207      DA1AA8DD 
 207      C4736A69 
 207      1A6A3D0C 
 208 020a 8ECCBD2C 		.ascii	"\216\314\275,\242\361\376TQI\262\210\245*\226&K\365"
 208      A2F1FE54 
 208      5149B288 
 208      A52A9626 
 208      4BF5
 209 021c 51228FAC 		.ascii	"Q\"\217\254?\225\351d\015\035\320t\011\354J\366g\220"
 209      3F95E964 
 209      0D1DD074 
 209      09EC4AF6 
 209      6790
 210 022e AE623D96 		.ascii	"\256b=\226\3158f4\253\211\335\212I-\233\3526O\177\320"
 210      CD386634 
 210      AB89DD8A 
 210      492D9BEA 
 210      364F7FD0 
 211 0242 85FED1B7 		.ascii	"\205\376\321\267\033\211\320\375\314\023(\260eJ\006"
 211      1B89D0FD 
ARM GAS  /tmp/ccMv5Db4.s 			page 16


 211      CC1328B0 
 211      654A06
 212 0251 A1278E34 		.ascii	"\241'\2164\256\372\245\242\370\004v=K8\232l\024\274"
 212      AEFAA5A2 
 212      F804763D 
 212      4B389A6C 
 212      14BC
 213 0263 739C7933 		.ascii	"s\234y3[\007#\316F\304y\2155\002i\254RB\201g\275BF\001"
 213      5B0723CE 
 213      46C4798D 
 213      350269AC 
 213      52428167 
 214 027b 66A8CB31 		.ascii	"f\250\3131q\326\255\330|\264\330\022\333\237\234\177"
 214      71D6ADD8 
 214      7CB4D812 
 214      DB9F9C7F 
 215 028b B3D2F616 		.ascii	"\263\322\366\026\233\303\314$\374\2665*#\332\363,,$"
 215      9BC3CC24 
 215      FCB6352A 
 215      23DAF32C 
 215      2C24
 216 029d EED1C106 		.ascii	"\356\321\301\006\247X_\263\367\340rv\232\242\300\027"
 216      A7585FB3 
 216      F7E07276 
 216      9AA2C017 
 217 02ad 6FA2EDCD 		.ascii	"o\242\355\315\342\214\314g\004\022\3308\313A\272\315"
 217      E28CCC67 
 217      0412D838 
 217      CB41BACD 
 218 02bd 6C6EE716 		.ascii	"ln\347\026\347*\274Z\236\331\340.\037m\375{%\021g\035"
 218      E72ABC5A 
 218      9ED9E02E 
 218      1F6DFD7B 
 218      2511671D 
 219 02d1 5B5CE2B3 		.ascii	"[\\\342\263\367?,\304A{\007\255n\027\327-\263\333a6"
 219      F73F2CC4 
 219      417B07AD 
 219      6E17D72D 
 219      B3DB6136 
 220 02e5 BBF71A7B 		.ascii	"\273\367\032{\022\252w82\274\203\\W\313Kp\226\246w\212"
 220      12AA7738 
 220      32BC835C 
 220      57CB4B70 
 220      96A6778A 
 221 02f9 33DA9E56 		.ascii	"3\332\236V|!U\354\241\212\247x\222\305<U<'U\234E\251"
 221      7C2155EC 
 221      A18AA778 
 221      92C53C55 
 221      3C27559C 
 222 030f 445AFDDB 		.ascii	"DZ\375\333A\031p;\032\360N\033\003\026\330\265\311\221"
 222      4119703B 
 222      1AF04E1B 
 222      0316D8B5 
 222      C991
 223 0321 EC960527 		.ascii	"\354\226\005'\326\314>v\202\2357Mi/\260RF\250\302Rj"
 223      D6CC3E76 
 223      829D374D 
ARM GAS  /tmp/ccMv5Db4.s 			page 17


 223      692FB052 
 223      46A8C252 
 224 0336 F4B00E98 		.ascii	"\364\260\016\230\233\034\324\370\226\243l\300B\343\014"
 224      9B1CD4F8 
 224      96A36CC0 
 224      42E30C
 225 0345 5505F630 		.ascii	"U\005\3660\260\221\251\026\251w\324\254\222K\217\242"
 225      B091A916 
 225      A977D4AC 
 225      924B8FA2 
 226 0355 4A1E75A4 		.ascii	"J\036u\244\222k\216.p\247\222\361s\037\2229\354\023"
 226      926B8E2E 
 226      70A792F1 
 226      731F9239 
 226      EC13
 227 0367 D4C7C59E 		.ascii	"\324\307\305\236n\351c\302\254\217G\026\242>&\034\351"
 227      6EE963C2 
 227      AC8F4716 
 227      A23E261C 
 227      E9
 228 0378 E3720FA5 		.ascii	"\343r\017\245{Z\331\032\217\245\342m\367\030\025\317"
 228      7B5AD91A 
 228      8FA5E26D 
 228      F71815CF 
 229 0388 892A2528 		.ascii	"\211*%(U\372\034U\351\013\333\271\340C\344\377h\267"
 229      55FA1C55 
 229      E90BDBB9 
 229      E043E4FF 
 229      68B7
 230 039a 2783B547 		.ascii	"'\203\265G\027\240W\323\274\270\252H\311\272\001\035"
 230      17A057D3 
 230      BCB8AA48 
 230      C9BA011D 
 231 03aa 8167A8D9 		.ascii	"\201g\250\331`\3736v*\272\262\323\350\307?\363XN\010"
 231      60FB3676 
 231      2ABAB2D3 
 231      E8C73FF3 
 231      584E08
 232 03bd 0EA0E6CD 		.ascii	"\016\240\346\315\334|\017\372\226\257\021\350\244\307"
 232      DC7C0FFA 
 232      96AF11E8 
 232      A4C7
 233 03cb 3C21784D 		.ascii	"<!xM\023\202\327\350\344\275\376T\206\004\343=\031\267"
 233      1382D7E8 
 233      E4BDFE54 
 233      8604E33D 
 233      19B7
 234 03dd D5C13398 		.ascii	"\325\3013\230\005h \324J\200\001Z\200`\213{_c\317OU"
 234      056820D4 
 234      4A80015A 
 234      80608B7B 
 234      5F63CF4F 
 235 03f2 5A0A9C2B 		.ascii	"Z\012\234+\360\274\243D\201\317\243\002wvO\201;\314"
 235      F0BCA344 
 235      81CFA302 
 235      77764F81 
 235      3BCC
ARM GAS  /tmp/ccMv5Db4.s 			page 18


 236 0404 0A7C4555 		.ascii	"\012|EU\340\016G\012<\233\357\252\300KyK\005\3763\357"
 236      E00E470A 
 236      3C9BEFAA 
 236      C04B794B 
 236      05FE33EF 
 237 0418 5E813B28 		.ascii	"^\201;(\005\376\016\025\370\242\255\002\277\303;P`\237"
 237      05FE0E15 
 237      F8A2AD02 
 237      BFC33B50 
 237      609F
 238 042a 850253FD 		.ascii	"\205\002S\375\251=}\204=}\314\336\016\351)L\317A\232"
 238      A93D7D84 
 238      3D7DCCDE 
 238      0EE9294C 
 238      CF419A
 239 043d FC70CC3E 		.ascii	"\374p\314>\336\254_\252\207\242\220R\256\214I\207e\245"
 239      DEAC5FAA 
 239      87A29052 
 239      AE8C4987 
 239      65A5
 240 044f 2AA4C121 		.ascii	"*\244\301!\210\016\222\335\035\301\356\266uW\263\342"
 240      880E92DD 
 240      1DC1EEB6 
 240      7557B3E2 
 241 045f 8B3E6A75 		.ascii	"\213>jug\232\361\255\013o$:0\205#C\230\350\302\355i"
 241      679AF1AD 
 241      0B6F243A 
 241      30852343 
 241      98E8C2ED 
 242 0474 737CE5C4 		.ascii	"s|\345\304>\3168\341\302j|\220\013%\276\366\243V\226"
 242      3ECE38E1 
 242      C26A7C90 
 242      0B25BEF6 
 242      A35696
 243 0487 7061B596 		.ascii	"pa\265\226`\365\366\275\222<$\016~y\362\204\346^\032"
 243      60F5F6BD 
 243      923C240E 
 243      7E79F284 
 243      E65E1A
 244 049a 3912292D 		.ascii	"9\022)-\317\312\030)\031\2018f56\231\301\231\246\245"
 244      CFCA1829 
 244      19813866 
 244      353699C1 
 244      99A6A5
 245 04ad 0E21A096 		.ascii	"\016!\240\226f\232\224\224\370\305\343~\2459\327\242"
 245      669A9494 
 245      F8C5E37E 
 245      A539D7A2 
 246 04bd AB2134CB 		.ascii	"\253!4\313\272G<\223\270y\247\242\364\022\330YH\361"
 246      BA473C93 
 246      B879A7A2 
 246      F412D859 
 246      48F1
 247 04cf D7D614B7 		.ascii	"\327\326\024\267\015\261\303\341\230k\330\244\311Dq"
 247      0DB1C3E1 
 247      986BD8A4 
 247      C94471
ARM GAS  /tmp/ccMv5Db4.s 			page 19


 248 04de 62CBF9F6 		.ascii	"b\313\371\366[Z\020\271\311\001\331S\343\007\033\227"
 248      5B5A10B9 
 248      C901D953 
 248      E3071B97 
 249 04ee 3A8A51DB 		.ascii	":\212Q\333x\275\373\222\024\033\207\317\304\373\242"
 249      78BDFB92 
 249      141B87CF 
 249      C4FBA2
 250 04fd 375E805C 		.ascii	"7^\200\\\274\235\235Q\356F\030\216\331\203MZ\272r\221"
 250      BC9D9D51 
 250      EE46188E 
 250      D9834D5A 
 250      BA7291
 251 0510 F8B1CA45 		.ascii	"\370\261\312E\213#.\256h\\\010\354|.\007`\017%a\235"
 251      8B232EAE 
 251      685C08EC 
 251      7C2E0760 
 251      0F25619D 
 252 0524 1A9211EF 		.ascii	"\032\222\021\357\372\273\271M\202\016\366\211k\260\200"
 252      FABBB94D 
 252      820EF689 
 252      6BB080
 253 0533 016CDE8E 		.ascii	"\001l\336\216%.'\314E\027O\336\274\005\331oC\303\\\345"
 253      252E27CC 
 253      45174FDE 
 253      BC05D96F 
 253      43C35CE5 
 254 0547 FD410C73 		.ascii	"\375A\014s\275\327\001#\366\206\011\243\262\377\326"
 254      BDD70123 
 254      F68609A3 
 254      B2FFD6
 255 0556 4DAF2ACA 		.ascii	"M\257*\312\214l]?\263\355\030\341\230\315\330\3312\363"
 255      8C6C5D3F 
 255      B3ED18E1 
 255      98CDD8D9 
 255      32F3
 256 0568 C82EBABE 		.ascii	"\310.\272\276\377.ud\2279\032\331\015\273\027:\323\317"
 256      FF2E7564 
 256      97391AD9 
 256      0DBB173A 
 256      D3CF
 257 057a 6CBDFB10 		.ascii	"l\275\373\020v\177\035\273\177\311\334\375\372\377>"
 257      767F1DBB 
 257      7FC9DCFD 
 257      FAFF3E
 258 0589 759FDAFD 		.ascii	"u\237\332\375K\216\272\377l\237\305\022N`\357\2731\355"
 258      4B8EBAFF 
 258      6C9FC512 
 258      4E60EFBB 
 258      31ED
 259 059b F05D3FDB 		.ascii	"\360]?\333\357\031\354d5*P\273\317<|\367\347\320}\341"
 259      EF19EC64 
 259      352A50BB 
 259      CF3C7CF7 
 259      E7D07DE1 
 260 05af 33558163 		.ascii	"3U\201c\336\363\351\324wK\177\201\315m\367\277\210#"
 260      DEF3E9D4 
ARM GAS  /tmp/ccMv5Db4.s 			page 20


 260      774B7F81 
 260      CD6DF7BF 
 260      8823
 261 05c1 A5D370D0 		.ascii	"\245\323p\3205\242Q\211\317\357C\213P\301\2168\001\263"
 261      35A25189 
 261      CFEF438B 
 261      50C18E38 
 261      01B3
 262 05d3 55A4A9F1 		.ascii	"U\244\251\361oi\260O\\\203\031)\373\216\006\373\334"
 262      6F69B04F 
 262      5C831929 
 262      FB8E06FB 
 262      DC
 263 05e4 09582F7B 		.ascii	"\011X/{\312.\321`\307]\203\031)\373\236\006;\345\004"
 263      CA2ED160 
 263      C75D8319 
 263      29FB9E06 
 263      3BE504
 264 05f7 ACAF3D65 		.ascii	"\254\257=eWi\260\257]\203\031)\273N\203\235s\002\026"
 264      5769B0AF 
 264      5D831929 
 264      BB4E839D 
 264      730216
 265 060a B0A7ACE9 		.ascii	"\260\247\254\351}\012\254\3035\230\221\262f\032\354"
 265      7D0AACC3 
 265      359891B2 
 265      661AEC
 266 0619 B213B07E 		.ascii	"\262\023\260~\366\224\315\247\301\256\271\0063R\366"
 266      F694CDA7 
 266      C1AEB906 
 266      3352F6
 267 0628 340D36C5 		.ascii	"4\0156\305\357\000\254\300\236\262\026\032l\272k0#e"
 267      EF00ACC0 
 267      9EB2161A 
 267      6CBA6B30 
 267      2365
 268 063a 8B69B019 		.ascii	"\213i\260\031N\300\006\333S\266\204\006\233\345\032"
 268      4EC006DB 
 268      53B68406 
 268      9BE51A
 269 0649 CC48D92B 		.ascii	"\314H\331+4\330\\'`C\354){\225\006\233\357\032\314H"
 269      34D85C27 
 269      6043EC29 
 269      7B95069B 
 269      EF1ACC48 
 270 065d D93A1A6C 		.ascii	"\331:\032l\241\023\260\021\366\224\275F\203-v\015f\244"
 270      A113B011 
 270      F694BD46 
 270      832D760D 
 270      66A4
 271 066f 6C230DB6 		.ascii	"l#\015\266\324\011\330\203\366\224\275N\203\265\271"
 271      D409D883 
 271      F694BD4E 
 271      83B5B9
 272 067e 063352B6 		.ascii	"\0063R\266\231\006{\316\011\3308{\312\336\244\301^p"
 272      99067BCE 
 272      09D8387B 
ARM GAS  /tmp/ccMv5Db4.s 			page 21


 272      CADEA4C1 
 272      5E70
 273 0690 0D66A46C 		.ascii	"\015f\244l?\015\366\262\023\260\207-(K~\254\332\221"
 273      3F0DF6B2 
 273      13B0872D 
 273      284B7EAC 
 273      DA91
 274 06a2 69FA458E 		.ascii	"i\372E\216Z\254\255\366\353\001\216\3139\232Ia\274\352"
 274      5AACADF6 
 274      EB018ECB 
 274      399A4961 
 274      BCEA
 275 06b4 771B9119 		.ascii	"w\033\221\031\370&q\362\255\257k\363\274\032\254nt\202"
 275      F82671F2 
 275      ADAF6BF3 
 275      BC1AAC6E 
 275      7482
 276 06c6 9866025C 		.ascii	"\230f\002\\\274\203\212|\343\256\301L\252L\300\014\241"
 276      BC838A7C 
 276      E3AEC14C 
 276      AA4CC00C 
 276      A1
 277 06d7 5372EB3F 		.ascii	"Sr\353?\236~\307\203\274`\342\250\367\004}\255\353\012"
 277      9E7EC783 
 277      BC60E2A8 
 277      F7047DAD 
 277      EB0A
 278 06e9 EC198E2C 		.ascii	"\354\031\216,\341\277\342\374I*\324\274\236S\267\014"
 278      E1BFE2FC 
 278      492AD4BC 
 278      9E53B70C 
 279 06f9 DAFDC60D 		.ascii	"\332\375\306\015\207\344'SS;M8Ek\302_\234\210)\315\324"
 279      87E42753 
 279      533B4D38 
 279      456BC25F 
 279      9C8829CD 
 280 070e FED98E25 		.ascii	"\376\331\216%\270\237\351\374\275\310\242\213\373\265"
 280      B89FE9FC 
 280      BDC8A28B 
 280      FBB5
 281 071c 05C2595C 		.ascii	"\005\302Y\\ |\3407G\230\353]\276\031\2018\314\314\205"
 281      207CE037 
 281      4798EB5D 
 281      BE198138 
 281      CCCC85
 282 072f D5B68A7D 		.ascii	"\325\266\212}L\001\272x\370\266M\253\025eZ\266\033>"
 282      4C01BA78 
 282      F8B64DAB 
 282      15655AB6 
 282      1B3E
 283 0741 DA353E3A 		.ascii	"\3325>:\220\217\343?\000\037_\273\346\243\237\211\217"
 283      908FE33F 
 283      001F5FBB 
 283      E6A39F89 
 283      8F
 284 0752 783FF77C 		.ascii	"x?\367|\034\326\370\370\036\371\350\370\001\370\270"
 284      1CD6F8F8 
ARM GAS  /tmp/ccMv5Db4.s 			page 22


 284      1EF9E8F8 
 284      01F8B8
 285 0761 E69A8F02 		.ascii	"\346\232\217\002\212\017\\\255\365WWk}\230\346\364\253"
 285      8A0F5CAD 
 285      F557576B 
 285      7D98E6F4 
 285      AB
 286 0772 35424F27 		.ascii	"5BO'\327\307\264\277\275\213l9\222b\007\233\037\273"
 286      D7C7B4BF 
 286      BD8B6C39 
 286      9262079B 
 286      1FBB
 287 0784 A825AEE2 		.ascii	"\250%\256\342l\211{V\223\330T\017\221\330\343=,\266"
 287      6C897B56 
 287      93D8540F 
 287      91D8E33D 
 287      2CB6
 288 0796 841D211D 		.ascii	"\204\035!\035y\367\2355\332\366\317t\204\232\331m\250"
 288      79F79D35 
 288      DAF6CF74 
 288      849AD96D 
 288      A8
 289 07a7 79BB36A8 		.ascii	"y\2736\250\257\033\237@\240\346\036\346Q\3146\015b\266"
 289      AF1B9F40 
 289      A0E61EE6 
 289      51CC360D 
 289      62B6
 290 07b9 7110E191 		.ascii	"q\020\341\221\364t\211\254\270\331\307\264\022\362\340"
 290      F47489AC 
 290      B8D9C7B4 
 290      12F2E0
 291 07c8 65FEDFDB 		.ascii	"e\376\337\333q\314\022$"
 291      71CC1224 
 292 07d0 9F0CA0CB 		.ascii	"\237\014\240\313\011*\245@wn\322&\027u\220\236\373\253"
 292      092AA540 
 292      776ED226 
 292      1775909E 
 292      FBAB
 293 07e2 10A7C6D7 		.ascii	"\020\247\306\327>\251o\323\334O\246\227\225\177%\334"
 293      3EA96FD3 
 293      DC4FA697 
 293      957F25DC 
 294 07f2 7BBBDD6F 		.ascii	"{\273\335o\254\304oQ\265n.2\264\266\313\010wkcekw\031"
 294      ACC46F51 
 294      B56E2E32 
 294      B4B6CB08 
 294      776B6365 
 295 0809 497E38E6 		.ascii	"I~8\346\335\036\016&\221@\272\321\272\324\337\341\346"
 295      DD1E0E26 
 295      9140BAD1 
 295      BAD4DFE1 
 295      E6
 296 081a 4C7213F2 		.ascii	"Lr\023\362d\337v\024\306B\017\331\276\333e\022\206\203"
 296      64DF7614 
 296      C6420FD9 
 296      BEDB6512 
 296      8683
ARM GAS  /tmp/ccMv5Db4.s 			page 23


 297 082c 4D9E23D8 		.ascii	"M\236#\330d\261\247\313\366\335\376\233\325]\026\362"
 297      64B1A7CB 
 297      F6DDFE9B 
 297      D55D16F2 
 298 083c 95834D1E 		.ascii	"\225\203M\036\303\366\235\300.\3418\015\266\273\362"
 298      C3F69DC0 
 298      2EE1380D 
 298      B6BBF2
 299 084b 340C618A 		.ascii	"4\014a\212>\200\366\220xa\251\307\260\315\177\312\265"
 299      3E80F690 
 299      7861A9C7 
 299      B0CD7FCA 
 299      B5
 300 085c EC03B4EC 		.ascii	"\354\003\264\354\343Wv/aU\372\325\355\334\013f\274!"
 300      E357762F 
 300      6155FAD5 
 300      EDDC0B66 
 300      BC21
 301 086e 742CA765 		.ascii	"t,\247em\327\255J\274y/\006a\252\321]wB\\\232\245f\253"
 301      6DD7AD4A 
 301      BC792F06 
 301      61AAD15D 
 301      77425C9A 
 302 0885 0AA62AFC 		.ascii	"\012\246*\374\3439n\301\002\006\260-\263-\266\213\325"
 302      E3396EC1 
 302      0206B02D 
 302      B32DB68B 
 302      D5
 303 0896 2D72BB89 		.ascii	"-r\273\211e\271\207\012\225\3468\351?\315\352\364\340"
 303      65B9870A 
 303      95E638E9 
 303      3FCDEAF4 
 303      E0
 304 08a7 DE259AA6 		.ascii	"\336%\232\246\250;\243\213\\\343\031\37197\333\340\221"
 304      A83BA38B 
 304      5CE319F9 
 304      3937DBE0 
 304      91
 305 08b8 9E770237 		.ascii	"\236w\0027\304\261\342\245\366\265A\0111P\375\023G\336"
 305      C4B1E2A5 
 305      F6B54109 
 305      3150FD13 
 305      47DE
 306 08ca 0C2DC5F4 		.ascii	"\014-\305\364\031L\237\307\364\030\246'0=\211\351\377"
 306      194C9FC7 
 306      F418A627 
 306      303D89E9 
 306      FF
 307 08db 62FA2DA6 		.ascii	"b\372-\246\2271\275\216\351\323\036l\213\351\263\230"
 307      9731BD8E 
 307      E9D31E6C 
 307      8BE9B398 
 308 08eb 3E87E932 		.ascii	">\207\3512LW`\372\022\255\336v\343\242\232Z\3220u\253"
 308      4C5760FA 
 308      12ADDE76 
 308      E3A29A5A 
 308      D23075AB 
ARM GAS  /tmp/ccMv5Db4.s 			page 24


 309 08ff 6BEAF6A6 		.ascii	"k\352\366\246\371\241\324\246\271\300\266\272\006\013"
 309      F9A1D4A6 
 309      B9C0B6BA 
 309      060B
 310 090d A4936413 		.ascii	"\244\223d\023%\311f\224\344<\224\306J\243!\257\314\321"
 310      25C96694 
 310      E43C94C6 
 310      4AA321AF 
 310      CCD1
 311 091f 5FE3A431 		.ascii	"_\343\2441<{\026\022\037|y\322\273H\211?\356\321W@\353"
 311      3C7B1612 
 311      1F7C79D2 
 311      BB48893F 
 311      EED15740 
 312 0934 CC801917 		.ascii	"\314\200\031\027hF\231\\\027M'.\324wTvc\262\206\266"
 312      6846995C 
 312      174D272E 
 312      D4775476 
 312      63B286B6 
 313 0948 95CDAEFB 		.ascii	"\225\315\256\373N+\302\031\224\010\237D\021>\205\"\\"
 313      4E2BC219 
 313      94089F44 
 313      113E8522 
 313      5C
 314 0959 8D2AF30A 		.ascii	"\215*\363\012-H\201\235\311\231\316\233\030_\230\245"
 314      2D48819D 
 314      C999CE9B 
 314      185F98A5 
 315 0969 E93CF992 		.ascii	"\351<\371\222\273\343\220\305\201\023\365UQ\232Ii\341"
 315      BBE390C5 
 315      8113F555 
 315      519A4969 
 315      E1
 316 097a 9B476E5D 		.ascii	"\233Gn]\211S\307:\017\031\200+9\346\031z>g\332<7)2\307"
 316      8953C73A 
 316      0F19802B 
 316      39E6197A 
 316      3E67DA3C 
 317 0992 CCCE75F0 		.ascii	"\314\316u\360\0022\315Jf\315\354\213\207\330i\323\224"
 317      0232CD4A 
 317      66CDEC8B 
 317      87D869D3 
 317      94
 318 09a3 15055A64 		.ascii	"\025\005Zd\2414*\375V\244&\301^:\006\227\244;\276^}"
 318      A1342AFD 
 318      56A426C1 
 318      5E3A0697 
 318      A43BBE5E 
 319 09b8 91BA09BD 		.ascii	"\221\272\011\275\354\202\\\313\363\015\231a\022G\032"
 319      EC825CCB 
 319      F30D9961 
 319      12471A
 320 09c7 37DC8911 		.ascii	"7\334\211\021\350f\004z\246\333@\363f\276\240\036\224"
 320      E866047A 
 320      A6DB40F3 
 320      66BEA01E 
 320      94
ARM GAS  /tmp/ccMv5Db4.s 			page 25


 321 09d8 D88A402B 		.ascii	"\330\212@+r\315b\364\230\342\034\2171\316\361\370S\231"
 321      72CD62F4 
 321      98E21C8F 
 321      31CEF1F8 
 321      5399
 322 09ea CE4E0FF3 		.ascii	"\316N\017\3637\254\014a\230y\300\014\034e\212}\310\200"
 322      37AC0C61 
 322      9879C00C 
 322      1C658A7D 
 322      C880
 323 09fc 5DD3944D 		.ascii	"]\323\224M?a\262\321\211\012\030\020\015*\020\277\372"
 323      3F61B2D1 
 323      890A1810 
 323      0D2A10BF 
 323      FA
 324 0a0d 11FA3215 		.ascii	"\021\3722\025\354-'`i\266\241\027\264>c\373\016\253"
 324      EC2D2760 
 324      69B6A117 
 324      B43E63FB 
 324      0EAB
 325 0a1f 2DE3D1AB 		.ascii	"-\343\321\253\304\246\023;\177M\016\002f>~\265\313\343"
 325      C4A6133B 
 325      7F4D0E02 
 325      663E7EB5 
 325      CBE3
 326 0a31 ECF8D51E 		.ascii	"\354\370\325\036\217\371=\367^<~\265\307Q\264v\321*"
 326      8FF93DF7 
 326      5E3C7EB5 
 326      C751B476 
 326      D12A
 327 0a43 06B03A8D 		.ascii	"\006\260:\215\230t\031}S\314|xz\347}\352\251\306\375"
 327      9874197D 
 327      53CC7C78 
 327      7AE77DEA 
 327      A9C6FD
 328 0a56 1874EEFB 		.ascii	"\030t\356\373Q\346S\215\006\034B\337\0013\375k\367!"
 328      51E6538D 
 328      061C42DF 
 328      0133FD6B 
 328      F721
 329 0a68 FD0732D3 		.ascii	"\375\0072\323\377\370\264\370\006\355\235\036\032\323"
 329      FFF8B4F8 
 329      06ED9D1E 
 329      1AD3
 330 0a76 B4B4CB06 		.ascii	"\264\264\313\006\201=\203GD\234,\002\276@N\016\270\017"
 330      813D8347 
 330      449C2C02 
 330      BE404E0E 
 330      B80F
 331 0a88 5A35B236 		.ascii	"Z5\2626\252\357d\016\241\275\036w\015\0260\200\275N"
 331      AAEF640E 
 331      A1BD1E77 
 331      0D163080 
 331      BD4E
 332 0a9a 839D7602 		.ascii	"\203\235v\002f7\211\001\330f\032\354\033\327`F\312\336"
 332      66378901 
 332      D8661AEC 
ARM GAS  /tmp/ccMv5Db4.s 			page 26


 332      1BD76046 
 332      CADE
 333 0aac A4C12E38 		.ascii	"\244\301.8\001\263\333\255\004\260\3754\330%\327`\001"
 333      01B3DBAD 
 333      04B0FD34 
 333      D825D760 
 333      01
 334 0abd 2B2D61BA 		.ascii	"+-a\272(\231\300~\200\253\206\2038S\036\306\364(\246"
 334      2899C07E 
 334      80AB8683 
 334      38531EC6 
 334      F428A6
 335 0ad0 1F63FA29 		.ascii	"\037c\372)\246\011'A\327>z\202\277\212\004\357\351\236"
 335      A6092741 
 335      D73E7A82 
 335      BF8A04EF 
 335      E99E
 336 0ae2 C680DBDB 		.ascii	"\306\200\333\333t\342\363{\325\335_\323\034K\344aG\301"
 336      74E2F37B 
 336      D5DD5FD3 
 336      1C4BE461 
 336      47C1
 337 0af4 319A8269 		.ascii	"1\232\202iyn)\010\320\024\304\257\354Uw.\365\203\336"
 337      796E2908 
 337      D014C4AF 
 337      EC55772E 
 337      F583DE
 338 0b07 4F98F19C 		.ascii	"O\230\361\234\036\315\322\303\245\2759\257<\254\203"
 338      1ECDD2C3 
 338      A5BD39AF 
 338      3CAC83
 339 0b16 CD710D66 		.ascii	"\315q\015f8~\035o\332G\201-r\015\326\253\213F\250\272"
 339      387E1D6F 
 339      DA47812D 
 339      720DD6AB 
 339      8B46A8BA 
 340 0b2a F017D485 		.ascii	"\360\027\324\205\2758\346\377\203\351\011LObz\332\030"
 340      BD38E6FF 
 340      83E9094C 
 340      4F627ADA 
 340      18
 341 0b3b 90B6E599 		.ascii	"\220\266\345\231\347]\325\307R\250)g\3148\305\265\033"
 341      E75DD5C7 
 341      52A82967 
 341      CC38C5B5 
 341      1B
 342 0b4c DB767A6C 		.ascii	"\333vzl\327\346\271\235\265\014c\013\223\352\216/\365"
 342      D7E6B99D 
 342      B50C630B 
 342      93EA8E2F 
 342      F5
 343 0b5d 49B51D63 		.ascii	"I\265\035c\261MN\020\323\254D\327}j~\035`\345\3559\232"
 343      B14D4E10 
 343      D3AC44D7 
 343      7D6A7E1D 
 343      60E5ED39 
 344 0b72 B6E4ACB1 		.ascii	"\266\344\254\261m\274:k\234\307Yck^\346Y\2033\362(\260"
ARM GAS  /tmp/ccMv5Db4.s 			page 27


 344      6DBC3A6B 
 344      9CC75963 
 344      6B5EE659 
 344      8333F228 
 345 0b87 1DE659E3 		.ascii	"\035\346Y\343\362\001\2345:\034\315\032\327\016\314"
 345      F2019C35 
 345      3A1CCD1A 
 345      D70ECC
 346 0b96 D7568AAA 		.ascii	"\327V\212\252\267\331\215$tt\333\335_?@\271\256}\256"
 346      B7D98D24 
 346      7474DBDD 
 346      5F3F40B9 
 346      AE7DAE
 347 0ba9 C10206B0 		.ascii	"\301\002\006\260\246C\024\330\001'`i\334}3\015v\330"
 347      A64314D8 
 347      01276069 
 347      DC7D330D 
 347      76D8
 348 0bbb 359891B2 		.ascii	"5\230\221\262\3714\330'N\300\322\270\373\247i\260\204"
 348      F934D827 
 348      4EC0D2B8 
 348      FBA769B0 
 348      84
 349 0bcc 6B302365 		.ascii	"k0#e-4\3301'`v\257p\000l1\015v\3225\230\221\262%4\330"
 349      2D34D831 
 349      276076AF 
 349      70006C31 
 349      0D76D235 
 350 0be6 574EC002 		.ascii	"WN\300\002\366\224\265\322`\347]\203\005\254LB\375\320"
 350      F694B5D2 
 350      60E75D83 
 350      05AC4C42 
 350      FDD0
 351 0bf8 1625B0DF 		.ascii	"\026%\260\337\241[\274\210\316\3522\246W0\275\206i'"
 351      A15BBC88 
 351      CEEA32A6 
 351      5730BD86 
 351      6927
 352 0c0a A6537892 		.ascii	"\246Sx\222N\303t:\246\177\304t\006\357\300\271\235\243"
 352      4EC3743A 
 352      A67FC474 
 352      06EFC0B9 
 352      9DA3
 353 0c1c 9DDB45D7 		.ascii	"\235\333E\327\256(-#\251\237\310\010\354[\030\361\275"
 353      AE282D23 
 353      A99FC808 
 353      EC5B18F1 
 353      BD
 354 0c2d 8D47780F 		.ascii	"\215Gx\017b\252\340:y:\246k\221\221\215\230\276\215"
 354      62AAE03A 
 354      793AA66B 
 354      91918D98 
 354      BE8D
 355 0c3f E9764C77 		.ascii	"\351vLw`\372\015\246g\235\370\352-\251\203\277\260\036"
 355      60FA0DA6 
 355      679DF8EA 
 355      2DA983BF 
ARM GAS  /tmp/ccMv5Db4.s 			page 28


 355      B01E
 356 0c51 E7C9727B 		.ascii	"\347\311r{Y\267\217\224\037\337=\307\355\231\3743\211"
 356      59B78F94 
 356      1FDF3DC7 
 356      ED99FC33 
 356      89
 357 0c62 E5DA5B93 		.ascii	"\345\332[\223Yx~\373J\227\231\252[[\341\323{\262\231"
 357      59787EFB 
 357      4A9799AA 
 357      5B5BE1D3 
 357      7BB299
 358 0c75 394973C6 		.ascii	"9Is\306p\372\354Y,\211(n`\232\320\243\367U\337\305j"
 358      70FAEC59 
 358      2C89286E 
 358      609AD0A3 
 358      F755DFC5 
 359 0c8a 75C7E908 		.ascii	"u\307\351\0109\032I\315\374\015\2303\274\343\301\032"
 359      391A49CD 
 359      FC0D9833 
 359      BCE3C11A 
 360 0c9a 76729FC7 		.ascii	"vr\237\307\247\336\367\346\372S\231\036I\335\232ef\301"
 360      A7DEF7E6 
 360      FA53991E 
 360      49DD9A65 
 360      66C1
 361 0cac D06B0697 		.ascii	"\320k\006\227\007\323\\\307\245vVi\3165\305d$\014\261"
 361      07D35CC7 
 361      A5765669 
 361      CE35C564 
 361      240CB1
 362 0cbf A3E9699E 		.ascii	"\243\351i\236R\355f'\022L\3636\371\273\020\231\261\011"
 362      52ED6627 
 362      124CF336 
 362      F9BB1099 
 362      B109
 363 0cd1 24C7B4B8 		.ascii	"$\307\264\270\306\012\330\330\010c\374\341\246\300."
 363      C60AD8D8 
 363      0863FCE1 
 363      A6C02E
 364 0ce0 47337901 		.ascii	"G3y\001\015d\035\246\2331}\012-z.\246\0130m\241\255"
 364      0D641DA6 
 364      9B317D0A 
 364      2D7A2EA6 
 364      0B306DA1 
 365 0cf5 DB20156D 		.ascii	"\333 \025m\220\333\206\264\344\031\206y\210Q\312\002"
 365      90DB86B4 
 365      E4198679 
 365      8851CA02 
 366 0d05 FB27D7C3 		.ascii	"\373'\327\303\274\304f\230\3657jv\355\026\247\206\342"
 366      BCC46698 
 366      F5376A76 
 366      ED16A786 
 366      E2
 367 0d16 36A65589 		.ascii	"6\246U\211'\022\327\276?W\277\250)\376\270\322\331\371"
 367      2712D7BE 
 367      3F57BFA8 
 367      29FEB8D2 
ARM GAS  /tmp/ccMv5Db4.s 			page 29


 367      D9F9
 368 0d28 187313B3 		.ascii	"\030s\023\263@#@aeu\207\336\016\251\225\277\011s\036"
 368      40234061 
 368      657587DE 
 368      0EA995BF 
 368      09731E
 369 0d3b F5C71199 		.ascii	"\365\307\021\231\342\236D2^\271\223IZ\351\201+\347n"
 369      E29E4432 
 369      5EB99349 
 369      5AE9812B 
 369      E76E
 370 0d4d C75D9C67 		.ascii	"\307]\234gy\022\366\274\3233c\330c\204\301\260\2067"
 370      7912F6BC 
 370      D33363D8 
 370      6384C1B0 
 370      8637
 371 0d5f 853D6BC8 		.ascii	"\205=k\310\257mIi\346\367\272\353\237'\207\332\365_"
 371      AF6D4969 
 371      E6F7BAEB 
 371      9F2787DA 
 371      F55F
 372 0d71 FFEE55BB 		.ascii	"\377\356U\273\347S\233\202\206\237\366f\210y\000n\303"
 372      E7539B82 
 372      869FF666 
 372      8879006E 
 372      C3
 373 0d82 B73EA531 		.ascii	"\267>\2451\3270\352\351\314\342E\327\243\376\222\315"
 373      D730EAE9 
 373      CCE245D7 
 373      A3FE92CD 
 374 0d92 A8EB5B52 		.ascii	"\250\353[R\034s\320\314\203\233\351\024X\330\310\267"
 374      1C73D0CC 
 374      839BE914 
 374      58D8C8B7 
 375 0da2 14E8BEC9 		.ascii	"\024\350\276\311D\177?\275y\226F\315*\327\364\257\266"
 375      447F3FBD 
 375      799646CD 
 375      2AD7F4AF 
 375      B6
 376 0db3 A19F4FD2 		.ascii	"\241\237O\322\377\251\231~C\257ifp\315;\274q\022\177"
 376      FFA9997E 
 376      43AF6966 
 376      70CD3BBC 
 376      71127F
 377 0dc6 CAEB63FE 		.ascii	"\312\353c\376\250\376fH\231\302\376\201Z?i\000\311\243"
 377      A8FE6648 
 377      99C2FE81 
 377      5A3F6900 
 377      C9A3
 378 0dd8 0D780E47 		.ascii	"\015x\016G`\327\360>\350\373\313\236\254\225\256\340"
 378      60D7F03E 
 378      E8FBCB9E 
 378      AC95AEE0 
 379 0de8 C6359F72 		.ascii	"\3065\237r\210j^\317\251g2\314T[\255\276\014k\021\237"
 379      886A5ECF 
 379      A96732CC 
 379      545BADBE 
ARM GAS  /tmp/ccMv5Db4.s 			page 30


 379      0C6B119F 
 380 0dfc 754F6A6F 		.ascii	"uOjo)\225\006\237\304\023?\264\034=\315\012LWb\372\212"
 380      2995069F 
 380      C4133FB4 
 380      1C3DCD0A 
 380      4C5762FA 
 381 0e11 9398A22D 		.ascii	"\223\230\242-e\355\232\231\012\354\240\034\213G\201"
 381      65ED9A99 
 381      0AECA01C 
 381      8B4781
 382 0e20 1D9BDAD6 		.ascii	"\035\233\332\326\344\230\313&C\374)\363\234\2424\023"
 382      E498CB26 
 382      43FC29F3 
 382      9CA23413 
 383 0e30 57D14196 		.ascii	"W\321A\226L#Td\230Jz\221zK\371\333,)\320\372W\033+\033"
 383      4C235464 
 383      984A7A91 
 383      7A4BF9DB 
 383      2C29D0FA 
 384 0e48 C411D81B 		.ascii	"\304\021\330\033\307\314\315\320jP\252\321\345d\243"
 384      C7CCCDD0 
 384      6A50AAD1 
 384      E564A3
 385 0e57 C50E1A31 		.ascii	"\305\016\0321\314\035\31422\246\177n\234\336\213W\335"
 385      CC1DCC32 
 385      32A67F6E 
 385      9CDE8B57 
 385      DD
 386 0e68 1793A695 		.ascii	"\027\223\246\225&\245\015\274\341_\007\020\277\330\226"
 386      26A50DBC 
 386      E15F0710 
 386      BFD896
 387 0e77 88AF399C 		.ascii	"\210\2579\234\3334%\321\331y\233\311'\332\234\215\307"
 387      DB3425D1 
 387      D9799BC9 
 387      27DA9C8D 
 387      C7
 388 0e88 DF231B5D 		.ascii	"\337#\033]\242\312\177\362A\213\210L\242^\336\313J\324"
 388      A2CA7FF2 
 388      418B884C 
 388      A25EDECB 
 388      4AD4
 389 0e9a CAB59026 		.ascii	"\312\265\220&d\201\335\204\301\323VGB\336B\344E:\202"
 389      6481DD84 
 389      C1D35647 
 389      42DE42E4 
 389      453A82
 390 0ead F53102DB 		.ascii	"\3651\002\3337\323\310A\211)\312,ez/\026\231c\264V\006"
 390      37D3C841 
 390      8929CA2C 
 390      657A2F16 
 390      9963B456 
 391 0ec2 8D7CDB52 		.ascii	"\215|\333RDG>\266\026Q\272icgZ\031ivf\222\321\353\326"
 391      44473EB6 
 391      1651BA69 
 391      63675A19 
 391      69766692 
ARM GAS  /tmp/ccMv5Db4.s 			page 31


 392 0ed9 32EA34CB 		.ascii	"2\3524\313\250\335\221\214\326\376\276\257n\361;\020"
 392      A8DD918C 
 392      D6FEBEAF 
 392      6EF13B10 
 393 0ee9 986A663A 		.ascii	"\230jf:}\247\221\243\311\310\244Uv\275i\214\356\261"
 393      7DA791A3 
 393      C9C8A455 
 393      76BD698C 
 393      EEB1
 394 0efb 14D9D550 		.ascii	"\024\331\325P\273r\026bI\027\022{\337Jb&\011\355\263"
 394      BB721662 
 394      4917127B 
 394      DF4A6226 
 394      09EDB3
 395 0f0e 96D01BA2 		.ascii	"\226\320\033\242IB\357\245\227\220\035\253v\3154\012"
 395      4942EFA5 
 395      97901DAB 
 395      76CD340A 
 396 0f1e 3FB06475 		.ascii	"?\260du\263\210\254\316\011\270\340\365pZ\355p\342\272"
 396      B388ACCE 
 396      09B8E0F5 
 396      705AED70 
 396      E2BA
 397 0f30 4E3BD495 		.ascii	"N;\324\225\017]9-\201}#C+\013\247\0056\346\240\221\235"
 397      0F5D392D 
 397      817D2343 
 397      2B0BA705 
 397      36E6A091 
 398 0f45 CCED5A69 		.ascii	"\314\355Zi\222\372\270\253\314\023M\211\355sv\263O4"
 398      92FAB8AB 
 398      CC134D89 
 398      ED7376B3 
 398      4F34
 399 0f57 2B57C98B 		.ascii	"+W\311\213'\347~\353\2134\241\234\032\034\331\265<f"
 399      27E77EEB 
 399      8B34A19C 
 399      1A1CD9B5 
 399      3C66
 400 0f69 31C1688E 		.ascii	"1\301h\216%\371\254\035\015L>k\253\001\333\347Y\274"
 400      25F9AC1D 
 400      0D4C3E6B 
 400      AB01DBE7 
 400      59BC
 401 0f7b DF9E182A 		.ascii	"\337\236\030*\212\356B\314\031\236~sj\322\213\213&\275"
 401      8AEE42CC 
 401      199E7E73 
 401      6AD28B8B 
 401      26BD
 402 0f8d D02B7D65 		.ascii	"\320+}e%\307x\347\307O)\254k\337\366\215Y{\217"
 402      25C778E7 
 402      C74F29AC 
 402      6BDFF68D 
 402      597B8F
 403 0fa0 65F66D8D 		.ascii	"e\366m\2157X\323u\316\222\256\346\343\212\317\265\003"
 403      3758D375 
 403      CE92AEE6 
 403      E38ACFB5 
ARM GAS  /tmp/ccMv5Db4.s 			page 32


 403      03
 404 0fb1 B990962C 		.ascii	"\271\220\226,\363\360h\317&2\027\330\220y\321H\246\026"
 404      F3F068CF 
 404      263217D8 
 404      9079D148 
 404      A616
 405 0fc3 0A42DC95 		.ascii	"\012B\334\225\366\267\332\227\2508\220\344\225N\355"
 405      F6B7DA97 
 405      A83890E4 
 405      954EED
 406 0fd2 A39EF223 		.ascii	"\243\236\362#E\217u\031z\022.\333\261x95\364\246V\253"
 406      458F7519 
 406      7A122EDB 
 406      B1783935 
 406      F4A656AB 
 407 0fe6 D2B4FADE 		.ascii	"\322\264\372\336\266\025\261\010\273VWl[}\223\246\325"
 407      B615B108 
 407      BB56576C 
 407      5B7D93A6 
 407      D5
 408 0ff7 55DB5617 		.ascii	"U\333V\027\322\264\272f\333"
 408      D2B4BA66 
 408      DB
 409 1000 AA354DAB 		.ascii	"\2525M\253\353\224!\334X\"\205'\211R,?\\T\031\214\211"
 409      EB9421DC 
 409      58228527 
 409      89522C3F 
 409      5C54198C 
 410 1015 B5B1A8D4 		.ascii	"\265\261\250\324\277\232\311)-*.\307\207\240\234\375"
 410      BF9AC929 
 410      2D2A2EC7 
 410      87A09CFD 
 411 1025 9BD16303 		.ascii	"\233\321c\003\305L\317TQL\026d\321W:zhqE\351o\207\361"
 411      C54CCF54 
 411      514C1664 
 411      D1573A7A 
 411      687145E9 
 412 103c A5252387 		.ascii	"\245%#\207\361\017\214-\037\237\205_\3744\277>&\345"
 412      F10F8C2D 
 412      1F9F855F 
 412      FC34BF3E 
 412      26E5
 413 104e 0B52E4AE 		.ascii	"\013R\344\256\332h\255x\227(L\010\347\207k+k\352Cb~"
 413      DA68AD78 
 413      97284C08 
 413      E7876B2B 
 413      6BEA4362 
 414 1063 4C0E856B 		.ascii	"L\016\205ke\350\300[\017\367\301Ay`\232\312\021\241"
 414      65E8C05B 
 414      0FF7C141 
 414      79609ACA 
 414      11A1
 415 1075 B23A5C2B 		.ascii	"\262:\\+\346\007Cb\225P_#\007\345\311ub\014\032\373"
 415      E6074362 
 415      95505F23 
 415      07E5C975 
 415      620C1AFB 
ARM GAS  /tmp/ccMv5Db4.s 			page 33


 416 1089 8341ADB9 		.ascii	"\203A\255\271W\010\205$1\026+\311\257\216F\304\374\312"
 416      57088524 
 416      31162BC9 
 416      AF8E46C4 
 416      FCCA
 417 109b 6868727E 		.ascii	"hhr~H\234\224\017\015'\204\243\261|Y\252\257}$\0372"
 417      489C940F 
 417      0D2784A3 
 417      B17C59AA 
 417      AF7D241F 
 418 10b0 D5424D7E 		.ascii	"\325BM~]T\222c\371\345\025\243\006\024\345\217\034Y"
 418      5D549263 
 418      F9E515A3 
 418      0614E58F 
 418      1C59
 419 10c2 920F0C4D 		.ascii	"\222\017\014M*D\276kjB\004\026\012Ti\0249\201\323\311"
 419      2A44BE6B 
 419      6A420416 
 419      0A546914 
 419      3981D3C9 
 420 10d6 040068DC 		.ascii	"\004\000h\334\003n\310~P\356\0018\301\261\243KG\227"
 420      036EC87E 
 420      50EE0138 
 420      C1B1A34B 
 420      4797
 421 10e8 56F848B6 		.ascii	"V\370H\266\274b\314\203\004;X6lh\311\370\037\221\234"
 421      BC62CC83 
 421      043B5836 
 421      6C68C9F8 
 421      1F919C
 422 10fb 2AB960C5 		.ascii	"*\271`\3058\372\251l\034\266\0349\246\370\237\207\225"
 422      38FAA96C 
 422      1CB61C39 
 422      A6F89F87 
 422      95
 423 110c E4005EB4 		.ascii	"\344\000^\264.\022\015\021\3001\017\216\032S2,\010\337"
 423      2E120D11 
 423      C0310F8E 
 423      1A53322C 
 423      08DF
 424 111e F6D1B2E5 		.ascii	"\366\321\262\345\243@\340\301\222a\277--\036v\203\241"
 424      A340E0C1 
 424      9261BF2D 
 424      2D1E7683 
 424      A1
 425 112f 6CC498F2 		.ascii	"l\304\230\362\012o\264.H\232\372\210\230\006\024\001"
 425      0A6FB42E 
 425      489AFA88 
 425      98061401 
 426 113f 822A3192 		.ascii	"\202*1\222\315\251\254\211V>\022\214\325\211b(\017:"
 426      CDA9AC89 
 426      563E128C 
 426      D5896228 
 426      0F3A
 427 1151 09D5CB93 		.ascii	"\011\325\313\223+'W\326@?y\345\025%\301\222\261\025"
 427      2B2757D6 
 427      403F79E5 
ARM GAS  /tmp/ccMv5Db4.s 			page 34


 427      1525C192 
 427      B115
 428 1163 E383C5E3 		.ascii	"\343\203\305\343\213G\016\273a\370\320\362\012\3529"
 428      8B470EBB 
 428      61F8D0F2 
 428      0AEA39
 429 1172 58F477E6 		.ascii	"X\364w\346\222\302A\301{z\020\204 B\020.\213\243\265"
 429      92C241C1 
 429      7B7A1084 
 429      2042102E 
 429      8BA3B5
 430 1185 55E189D9 		.ascii	"U\341\211\331\225x#R\251\252\021&\306@\215DI\212J\261"
 430      95782352 
 430      A9AA1126 
 430      C6408D44 
 430      498A4AB1 
 431 1199 0199442B 		.ascii	"\001\231D+\311I\311VVG\344\006\242,\221zYl\010\312Y"
 431      C949C956 
 431      5647E406 
 431      A22C917A 
 431      596C08CA 
 432 11ae 781FEC0A 		.ascii	"x\037\354\012!69\246\253MO\271Z\022\205P,\370\207z\261"
 432      213639A6 
 432      AB4D4FB9 
 432      5A128550 
 432      2CF8877A 
 433 11c3 1ED8ED55 		.ascii	"\036\330\355UY\0354\024\015t\207\\YM\264\306\247B\004"
 433      591D3414 
 433      0D74875C 
 433      594DB4C6 
 433      A74204
 434 11d6 657F122E 		.ascii	"e\177\022.\273.X+6\310p\253\223\304I#\034\240\252\252"
 434      BB2E582B 
 434      36C870AB 
 434      93C44923 
 434      1CA0AAAA 
 435 11ea 39B46C54 		.ascii	"9\264lT\361\250\006\250\031\251\013\327\020\233\374"
 435      F1A806A8 
 435      19A90BD7 
 435      109BFC
 436 11f9 4D713154 		.ascii	"Mq1T\327\351\367\312uR8\032Tq\303Q/\210\030\304!\337"
 436      D7E9F7CA 
 436      7552381A 
 436      5471C351 
 436      2F8818C4 
 437 120f E31ABFBA 		.ascii	"\343\032\277\2722*\211\304\312Iq\020\364\242Rn\370\247"
 437      322A89C4 
 437      CA497110 
 437      F4A2526E 
 437      F8A7
 438 1221 EEA10427 		.ascii	"\356\241\004'\335\035!B\220\304\211`\304A\331\023+\034"
 438      DD1D2142 
 438      90C48960 
 438      C441D913 
 438      2B1C
 439 1233 04D7DD70 		.ascii	"\004\327\335p\015\206\353\036O\254\250\000\256B\270"
 439      0D86EB1E 
ARM GAS  /tmp/ccMv5Db4.s 			page 35


 439      4FACA800 
 439      AE42B8
 440 1242 8AE01A00 		.ascii	"\212\340\032\000\327@\270~\005\027\324+\202zEP\257\010"
 440      D740B87E 
 440      0517D42B 
 440      827A4550 
 440      AF08
 441 1254 EA0D807A 		.ascii	"\352\015\200z\003\0129i '\375\212\223\006q\322\335\234"
 441      030A3969 
 441      2027FD8A 
 441      930671D2 
 441      DD9C
 442 1266 349893EE 		.ascii	"4\230\223\356\361H\205\005p\025r5\022\334\006d\325\005"
 442      F1488505 
 442      70157235 
 442      12DC0664 
 442      D505
 443 1278 815A2F91 		.ascii	"\201Z/\221\360\243\242\004\367hMH\224\370\312jA\"b\027"
 443      F0A3A204 
 443      F7684D48 
 443      94F8CA6A 
 443      41226217 
 444 128c 22A24FD6 		.ascii	"\"\242O\326\354\020\276\304\234WV\315\010\236Q\027\275"
 444      EC10BEC4 
 444      9C5756CD 
 444      089E5117 
 444      BD
 445 129d B22456C5 		.ascii	"\262$V\305P\216$\223\025\211M\204/5\363\000\337\242"
 445      508E2493 
 445      15894D84 
 445      2F35F300 
 445      DFA2
 446 12af E5B2A5D0 		.ascii	"\345\262\245\320d\370\312'6\204e\020\213\230\375\250"
 446      64F8CA27 
 446      36846510 
 446      8B98FDA8 
 447 12bf 1C9DF0AF 		.ascii	"\034\235\360\257u9\342$\261V\216\010\261G\210N?J2\236"
 447      7539E224 
 447      B1568E08 
 447      B147884E 
 447      3F4A329E 
 448 12d3 BA607D9E 		.ascii	"\272`}\236\256I5\341\030x\252\236\224n\221\022\177]"
 448      AE4935E1 
 448      1878AA9E 
 448      946E9112 
 448      7F5D
 449 12e5 F051212C 		.ascii	"\360Q!,\207k'\366\000\323\214MD}\313\302,\024\210ub"
 449      876B27F6 
 449      00D38C4D 
 449      447DCBC2 
 449      2C148875 
 450 12fa 2D38C689 		.ascii	"-8\306\211P\0134\236\324\357Ah\023jp\234\241\260.\032"
 450      500B349E 
 450      D4EF4168 
 450      136A709C 
 450      A1B02E1A 
 451 130e ADF14654 		.ascii	"\255\361FT-\205{\364\321ZQ\312\216\240\226\335\355J"
ARM GAS  /tmp/ccMv5Db4.s 			page 36


 451      2D857BF4 
 451      D15A51CA 
 451      8EA096DD 
 451      ED4A
 452 1320 69359A60 		.ascii	"i5\232`\310zkz\013\"\020%\261\266\022\004\224\255\026"
 452      C87A6B7A 
 452      0B221025 
 452      B1B61204 
 452      94AD16
 453 1333 F9C16889 		.ascii	"\371\301h\211_\015\312\350?\300\306u\377A\262<\371\312"
 453      5F0DCAE8 
 453      3FC0C675 
 453      FF41B23C 
 453      F9CA
 454 1345 2F358422 		.ascii	"/5\204\"\002\021\253_\326s\303\335\372`L\207\017lh\200"
 454      0211AB5F 
 454      D673C3DD 
 454      FA604C87 
 454      0F6C6880 
 455 1359 69210212 		.ascii	"i!\002\022\007\034\240\353\336L0\300s~\361\250\362\322"
 455      071CA0EB 
 455      DE4C30C0 
 455      737EF1A8 
 455      F2D2
 456 136b 7200505B 		.ascii	"r\000P[V\015,(l N\270w\311\250\241\301r\030^!\022\254"
 456      560D2C28 
 456      6C204EB8 
 456      77C9A8A1 
 456      C172185E 
 457 1382 00AB2911 		.ascii	"\000\253)\021\253\270\3422~tIE\231\347\301\241e\374"
 457      ABB8E232 
 457      7E744945 
 457      99E7C1A1 
 457      65FC
 458 1394 A8029214 		.ascii	"\250\002\222\024\016-\363\014/.\313\216aE>\\U)e\207"
 458      0E2DF30C 
 458      2F2ECB8E 
 458      61453E5C 
 458      55296587 
 459 13a8 63D5E12A 		.ascii	"c\325\341*\331\037\023k\252\302\265!\261!{\222X)G\245"
 459      D91F136B 
 459      AAC2B521 
 459      B1217B92 
 459      582947A5 
 460 13bc DE49CA82 		.ascii	"\336I\312\202jmpB\360 5\220Tn \323\244\336\221\247\270"
 460      6A6D7042 
 460      F0203590 
 460      546E20D3 
 460      A4DE91A7 
 461 13d1 AC10AE22 		.ascii	"\254\020\256\"~\314\320\262B\222\024q%e\236r(,/+\362"
 461      7ECCD0B2 
 461      42921471 
 461      25659E72 
 461      282C2F2B 
 462 13e6 14179765 		.ascii	"\024\027\227eU\224\225\226\017\343\207\217\004b@\302"
 462      55949596 
 462      0FE3878F 
ARM GAS  /tmp/ccMv5Db4.s 			page 37


 462      046240C2 
 463 13f6 7EE299C2 		.ascii	"~\342\231\302\021\242\227\344\026\255\227y\242\275Y"
 463      11A297E4 
 463      16AD9779 
 463      A2BD59
 464 1405 72C303F5 		.ascii	"r\303\003\365UY\022I{\353ssu\270zP\301\200\202\376\225"
 464      55591249 
 464      7BEB7373 
 464      75B87A50 
 464      C18082FE 
 465 141a 4C972298 		.ascii	"L\227\"\230\266\264,\214\237:\177\373\020\002F\325'"
 465      B6B42C8C 
 465      9F3A7FFB 
 465      100246D5 
 465      27
 466 142b 6999ACE0 		.ascii	"i\231\254\340\003\240@9\021Q\210\325K\342p0\202>z#2"
 466      03A04039 
 466      115188D5 
 466      4BE27030 
 466      823E7A23 
 467 1440 E0FDEB04 		.ascii	"\340\375\353\004I\356_\340\2012_u}$\034\012\313\223"
 467      49EE5FE0 
 467      81325F75 
 467      7D241C0A 
 467      CB93
 468 1452 73643152 		.ascii	"sd1R'J\202\014\015r\365\312\341\332\260\234\035B\012"
 468      274A820C 
 468      0D72F5CA 
 468      E1DAB09C 
 468      1D420A
 469 1465 92653139 		.ascii	"\222e19Z\347%\011\310\342\026\275P\353)\002\226R&\202"
 469      5AE72509 
 469      C8E216BD 
 469      50EB2902 
 469      96522682 
 470 1479 D6C6E45C 		.ascii	"\326\306\344\\\272\303\274T,A \363\350\320\"Zw\023\025"
 470      BAC3BC54 
 470      2C4120F3 
 470      E8D0225A 
 470      771315
 471 148c 7C48426D 		.ascii	"|HBmL\250\224\203\023\352\253\376\017.H\271\003"
 471      4CA89483 
 471      13EAABFE 
 471      0F2E48B9 
 471      03
 472              		.text
 473              		.section	.gnu.lto_.symtab.f9466dabc805a752,"",%progbits
 474 0000 68696836 		.ascii	"hih6030_init\000\000\000\000\000\000\000\000\000\000"
 474      3033305F 
 474      696E6974 
 474      00000000 
 474      00000000 
 475 0016 00003F02 		.ascii	"\000\000?\002\000\000hih6030_stop\000\000\000\000\000"
 475      00006869 
 475      68363033 
 475      305F7374 
 475      6F700000 
ARM GAS  /tmp/ccMv5Db4.s 			page 38


 476 002d 00000000 		.ascii	"\000\000\000\000\000\000\000H\002\000\000hih6030_me"
 476      00000048 
 476      02000068 
 476      69683630 
 476      33305F6D 
 477 0042 61737572 		.ascii	"asurementRequest\000\000\000\000\000\000\000\000\000"
 477      656D656E 
 477      74526571 
 477      75657374 
 477      00000000 
 478 005b 00000051 		.ascii	"\000\000\000Q\002\000\000hih6030_read\000\000\000\000"
 478      02000068 
 478      69683630 
 478      33305F72 
 478      65616400 
 479 0072 00000000 		.ascii	"\000\000\000\000\000\000\000\000W\002\000\000I2CSen"
 479      00000000 
 479      57020000 
 479      49324353 
 479      656E
 480 0084 736F725F 		.ascii	"sor_init\000\000\002\000\000\000\000\000\000\000\000"
 480      696E6974 
 480      00000200 
 480      00000000 
 480      000000
 481 0097 00610200 		.ascii	"\000a\002\000\000I2CSensor_stop\000\000\002\000\000"
 481      00493243 
 481      53656E73 
 481      6F725F73 
 481      746F7000 
 482 00af 00000000 		.ascii	"\000\000\000\000\000\000\000m\002\000\000I2CSensor_"
 482      0000006D 
 482      02000049 
 482      32435365 
 482      6E736F72 
 483 00c4 7472616E 		.ascii	"transact_buf\000\000\002\000\000\000\000\000\000\000"
 483      73616374 
 483      5F627566 
 483      00000200 
 483      00000000 
 484 00da 00007202 		.ascii	"\000\000r\002\000\000"
 484      0000
 485              		.text
 486              		.section	.gnu.lto_.opts,"",%progbits
 487 0000 272D6D63 		.ascii	"'-mcpu=cortex-m4' '-mfloat-abi=hard' '-mfpu=fpv4-sp"
 487      70753D63 
 487      6F727465 
 487      782D6D34 
 487      2720272D 
 488 0033 2D643136 		.ascii	"-d16' '-mno-thumb-interwork' '-mthumb' '-O2' '-fomi"
 488      2720272D 
 488      6D6E6F2D 
 488      7468756D 
 488      622D696E 
 489 0066 742D6672 		.ascii	"t-frame-pointer' '-falign-functions=16' '-ffunction"
 489      616D652D 
 489      706F696E 
ARM GAS  /tmp/ccMv5Db4.s 			page 39


 489      74657227 
 489      20272D66 
 490 0099 2D736563 		.ascii	"-sections' '-fdata-sections' '-fno-common' '-flto' "
 490      74696F6E 
 490      73272027 
 490      2D666461 
 490      74612D73 
 491 00cc 272D6673 		.ascii	"'-fsingle-precision-constant'\000"
 491      696E676C 
 491      652D7072 
 491      65636973 
 491      696F6E2D 
 492              		.text
 493              		.section	.text.hih6030_init,"ax",%progbits
 494              		.align	2
 495              		.p2align 4,,15
 496              		.global	hih6030_init
 497              		.thumb
 498              		.thumb_func
 499              		.type	hih6030_init, %function
 500              	hih6030_init:
 501              		@ args = 0, pretend = 0, frame = 0
 502              		@ frame_needed = 0, uses_anonymous_args = 0
 503 0000 30B5     		push	{r4, r5, lr}
 504 0002 85B0     		sub	sp, sp, #20
 505 0004 00F12403 		add	r3, r0, #36
 506 0008 2825     		movs	r5, #40
 507 000a 074A     		ldr	r2, .L2
 508 000c 0093     		str	r3, [sp]
 509 000e 0292     		str	r2, [sp, #8]
 510 0010 00F12003 		add	r3, r0, #32
 511 0014 0195     		str	r5, [sp, #4]
 512 0016 2722     		movs	r2, #39
 513 0018 0446     		mov	r4, r0
 514 001a FFF7FEFF 		bl	I2CSensor_init
 515 001e 0023     		movs	r3, #0
 516 0020 84F82930 		strb	r3, [r4, #41]
 517 0024 05B0     		add	sp, sp, #20
 518              		@ sp needed
 519 0026 30BD     		pop	{r4, r5, pc}
 520              	.L3:
 521              		.align	2
 522              	.L2:
 523 0028 00000000 		.word	.LC0
 524              		.size	hih6030_init, .-hih6030_init
 525 002c AFF30080 		.section	.text.hih6030_stop,"ax",%progbits
 526              		.align	2
 527              		.p2align 4,,15
 528              		.global	hih6030_stop
 529              		.thumb
 530              		.thumb_func
 531              		.type	hih6030_stop, %function
 532              	hih6030_stop:
 533              		@ args = 0, pretend = 0, frame = 0
 534              		@ frame_needed = 0, uses_anonymous_args = 0
 535              		@ link register save eliminated.
 536 0000 FFF7FEBF 		b	I2CSensor_stop
ARM GAS  /tmp/ccMv5Db4.s 			page 40


 537              		.size	hih6030_stop, .-hih6030_stop
 538 0004 AFF30080 		.section	.text.hih6030_measurementRequest,"ax",%progbits
 538      AFF30080 
 538      AFF30080 
 539              		.align	2
 540              		.p2align 4,,15
 541              		.global	hih6030_measurementRequest
 542              		.thumb
 543              		.thumb_func
 544              		.type	hih6030_measurementRequest, %function
 545              	hih6030_measurementRequest:
 546              		@ args = 0, pretend = 0, frame = 0
 547              		@ frame_needed = 0, uses_anonymous_args = 0
 548 0000 0022     		movs	r2, #0
 549 0002 10B5     		push	{r4, lr}
 550 0004 0121     		movs	r1, #1
 551 0006 80F82020 		strb	r2, [r0, #32]
 552 000a 0446     		mov	r4, r0
 553 000c FFF7FEFF 		bl	I2CSensor_transact_buf
 554 0010 10B9     		cbnz	r0, .L6
 555 0012 0123     		movs	r3, #1
 556 0014 84F82930 		strb	r3, [r4, #41]
 557              	.L6:
 558 0018 10BD     		pop	{r4, pc}
 559              		.size	hih6030_measurementRequest, .-hih6030_measurementRequest
 560 001a 00BFAFF3 		.section	.text.hih6030_read,"ax",%progbits
 560      0080
 561              		.align	2
 562              		.p2align 4,,15
 563              		.global	hih6030_read
 564              		.thumb
 565              		.thumb_func
 566              		.type	hih6030_read, %function
 567              	hih6030_read:
 568              		@ args = 0, pretend = 0, frame = 0
 569              		@ frame_needed = 0, uses_anonymous_args = 0
 570 0000 F8B5     		push	{r3, r4, r5, r6, r7, lr}
 571 0002 0023     		movs	r3, #0
 572 0004 0E46     		mov	r6, r1
 573 0006 1546     		mov	r5, r2
 574 0008 80F82030 		strb	r3, [r0, #32]
 575 000c 0121     		movs	r1, #1
 576 000e 0422     		movs	r2, #4
 577 0010 0446     		mov	r4, r0
 578 0012 FFF7FEFF 		bl	I2CSensor_transact_buf
 579 0016 90BB     		cbnz	r0, .L10
 580 0018 94F82430 		ldrb	r3, [r4, #36]	@ zero_extendqisi2
 581 001c 1A06     		lsls	r2, r3, #24
 582 001e 2ED4     		bmi	.L10
 583 0020 94F82620 		ldrb	r2, [r4, #38]	@ zero_extendqisi2
 584 0024 94F82570 		ldrb	r7, [r4, #37]	@ zero_extendqisi2
 585 0028 94F82710 		ldrb	r1, [r4, #39]	@ zero_extendqisi2
 586 002c 03F03F03 		and	r3, r3, #63
 587 0030 9201     		lsls	r2, r2, #6
 588 0032 07EB0323 		add	r3, r7, r3, lsl #8
 589 0036 02EB9102 		add	r2, r2, r1, lsr #2
 590 003a 6EB1     		cbz	r6, .L12
ARM GAS  /tmp/ccMv5Db4.s 			page 41


 591 003c 07EE903A 		fmsr	s15, r3	@ int
 592 0040 F8EEE76A 		fsitos	s13, s15
 593 0044 DFED0E7A 		flds	s15, .L19
 594 0048 9FED0E7A 		flds	s14, .L19+4
 595 004c 66EEA77A 		fmuls	s15, s13, s15
 596 0050 C7EE877A 		fdivs	s15, s15, s14
 597 0054 C6ED007A 		fsts	s15, [r6]
 598              	.L12:
 599 0058 8DB1     		cbz	r5, .L10
 600 005a 07EE902A 		fmsr	s15, r2	@ int
 601 005e B8EEE76A 		fsitos	s12, s15
 602 0062 DFED097A 		flds	s15, .L19+8
 603 0066 DFED076A 		flds	s13, .L19+4
 604 006a 9FED087A 		flds	s14, .L19+12
 605 006e 66EE277A 		fmuls	s15, s12, s15
 606 0072 C7EEA67A 		fdivs	s15, s15, s13
 607 0076 77EEC77A 		fsubs	s15, s15, s14
 608 007a C5ED007A 		fsts	s15, [r5]
 609              	.L10:
 610 007e F8BD     		pop	{r3, r4, r5, r6, r7, pc}
 611              	.L20:
 612              		.align	2
 613              	.L19:
 614 0080 0000C842 		.word	1120403456
 615 0084 00F87F46 		.word	1182791680
 616 0088 00002543 		.word	1126498304
 617 008c 00002042 		.word	1109393408
 618              		.size	hih6030_read, .-hih6030_read
 619              		.section	.rodata.str1.4,"aMS",%progbits,1
 620              		.align	2
 621              	.LC0:
 622 0000 48494836 		.ascii	"HIH6030\000"
 622      30333000 
 623              		.comm	__gnu_lto_v1,1,1
 624              		.ident	"GCC: (GNU Tools for ARM Embedded Processors) 4.8.4 20140526 (release) [ARM/embedded-4_8-br
ARM GAS  /tmp/ccMv5Db4.s 			page 42


DEFINED SYMBOLS
                            *ABS*:0000000000000000 hih6030.c
     /tmp/ccMv5Db4.s:494    .text.hih6030_init:0000000000000000 $t
     /tmp/ccMv5Db4.s:500    .text.hih6030_init:0000000000000000 hih6030_init
     /tmp/ccMv5Db4.s:523    .text.hih6030_init:0000000000000028 $d
     /tmp/ccMv5Db4.s:526    .text.hih6030_stop:0000000000000000 $t
     /tmp/ccMv5Db4.s:532    .text.hih6030_stop:0000000000000000 hih6030_stop
     /tmp/ccMv5Db4.s:539    .text.hih6030_measurementRequest:0000000000000000 $t
     /tmp/ccMv5Db4.s:545    .text.hih6030_measurementRequest:0000000000000000 hih6030_measurementRequest
     /tmp/ccMv5Db4.s:561    .text.hih6030_read:0000000000000000 $t
     /tmp/ccMv5Db4.s:567    .text.hih6030_read:0000000000000000 hih6030_read
     /tmp/ccMv5Db4.s:614    .text.hih6030_read:0000000000000080 $d
     /tmp/ccMv5Db4.s:620    .rodata.str1.4:0000000000000000 $d
                            *COM*:0000000000000001 __gnu_lto_v1
     /tmp/ccMv5Db4.s:525    .text.hih6030_init:000000000000002c $t

UNDEFINED SYMBOLS
I2CSensor_init
I2CSensor_stop
I2CSensor_transact_buf
