ARM GAS  /tmp/ccQfZ6RW.s 			page 1


   1              		.syntax unified
   2              		.cpu cortex-m4
   3              		.eabi_attribute 27, 3
   4              		.eabi_attribute 28, 1
   5              		.fpu fpv4-sp-d16
   6              		.eabi_attribute 20, 1
   7              		.eabi_attribute 21, 1
   8              		.eabi_attribute 23, 3
   9              		.eabi_attribute 24, 1
  10              		.eabi_attribute 25, 1
  11              		.eabi_attribute 26, 1
  12              		.eabi_attribute 30, 2
  13              		.eabi_attribute 34, 1
  14              		.eabi_attribute 18, 4
  15              		.thumb
  16              		.file	"hih6030.c"
  17              		.section	.gnu.lto_.jmpfuncs.8c36fdb2878708f2,"",%progbits
  18 0000 789C6362 		.ascii	"x\234cb`b\300\006\"\200\230\023\210Y\030\330\331Y\030"
  18      6062C006 
  18      22809813 
  18      885918D8 
  18      D95918
  19 0013 32191918 		.ascii	"2\031\031\030\030\031\230\201D\031\230b*\203\250b\212"
  19      18199881 
  19      44199862 
  19      2A83A862 
  19      8A
  20 0024 60CC6464 		.ascii	"`\314dd\324\0002\252\031~5\314h\020\310dd\222c`\234"
  20      D40032AA 
  20      197E35CC 
  20      6810C864 
  20      64926360 
  21 0039 DB30C321 		.ascii	"\3330\303!\223\221\031\254\204\221\231\011E?P-\210\301"
  21      939119AC 
  21      84919909 
  21      453F502D 
  21      88C1
  22 004b E1E1E961 		.ascii	"\341\341\351af`l\300\000\000%4\013u"
  22      66606CC0 
  22      00002534 
  22      0B75
  23              		.text
  24              		.section	.gnu.lto_.inline.8c36fdb2878708f2,"",%progbits
  25 0000 789C6362 		.ascii	"x\234cb`b\300\006\362\2404\013\003\003\2670##\003#\220"
  25      6062C006 
  25      F2A0340B 
  25      0303B730 
  25      23230323 
  26 0015 0D52C9B6 		.ascii	"\015R\311\266@\036\254\201C\220\201\201}\202\037\014"
  26      401EAC81 
  26      43908181 
  26      7D821F0C 
  27 0025 320015B0 		.ascii	"2\000\025\260\363cQ\307\302\013\344\203T01031\242H1"
  27      F36351C7 
  27      C20BE483 
  27      54303130 
  27      3331A248 
ARM GAS  /tmp/ccQfZ6RW.s 			page 2


  28 003a 63883000 		.ascii	"c\2100\000\000yp\012,"
  28      0079700A 
  28      2C
  29              		.text
  30              		.section	.gnu.lto_.pureconst.8c36fdb2878708f2,"",%progbits
  31 0000 789C6362 		.ascii	"x\234cb`b\340d\200\000\026\006\011F\011&\006f\006\000"
  31      6062E064 
  31      80001606 
  31      09460926 
  31      06660600 
  32 0014 02560048 		.ascii	"\002V\000H"
  33              		.text
  34              		.section	.gnu.lto_hih6030_init.8c36fdb2878708f2,"",%progbits
  35 0000 789C6DD0 		.ascii	"x\234m\320=K\003A\020\006\340\367\335\373\214^!\202"
  35      3D4B0341 
  35      1006E0F7 
  35      DDFB8C5E 
  35      2182
  36 0012 85856229 		.ascii	"\205\205b)\010\032\020\254-,b\037AK=\344\262\205M\002"
  36      081A10AC 
  36      2D2C621F 
  36      414B3DE4 
  36      B2854D02 
  37 0026 16A6C846 		.ascii	"\026\246\310F-,\203U\214X\330\246\210\330\210X\371\007"
  37      2D2C8355 
  37      8C58D8A6 
  37      88D88858 
  37      F907
  38 0038 FCEA2C03 		.ascii	"\374\352,\003\376\004\273\200\304\271\315\035\204\220"
  38      FE04BB80 
  38      C4B9CD1D 
  38      8490
  39 0046 819B59EE 		.ascii	"\201\233Y\356v\237\231[\005\205\311X\224\347\232\300"
  39      769F995B 
  39      0585C958 
  39      94E79AC0 
  40 0056 92543AA0 		.ascii	"\222T:\240j\275\003\315P\221\351\002DC\261q@\273\367"
  40      6ABD03CD 
  40      5091E902 
  40      4443B171 
  40      40BBF7
  41 0069 41BDF687 		.ascii	"A\275\366\207\303^\3573*\220'\024M\023\216$\272\222"
  41      C35EEF33 
  41      2A902714 
  41      4D138E24 
  41      BA92
  42 007b 942FEF18 		.ascii	"\224/\357\030HJ\273x\2704\246\265\002\304\366lYr\012"
  42      484ABB78 
  42      B834A6B5 
  42      02C4F66C 
  42      59720A
  43 008e EEC947A9 		.ascii	"\356\311G\251\316\033\316\007\027?\337\352\220\367\364"
  43      CE1BCE07 
  43      173FDFEA 
  43      90F7F4
  44 009d 9050D571 		.ascii	"\220P\325q&\330\032\272F\242\246\351\334\242CM7!\367"
  44      26D81ABA 
ARM GAS  /tmp/ccQfZ6RW.s 			page 3


  44      46A2A6E9 
  44      DCA2434D 
  44      3721F7
  45 00b0 A57A7680 		.ascii	"\245zv\200#\216Mn\211\027'\027\034+0\023~\345\214?\235"
  45      238E4D6E 
  45      89172717 
  45      1C2B3013 
  45      7EE58C3F 
  46 00c5 E004F114 		.ascii	"\340\004\361\024\345\204k\011\225\021\217\276f0\235"
  46      E5846B09 
  46      95118FBE 
  46      66309D
  47 00d4 18BBC60F 		.ascii	"\030\273\306\017t\314\2637\022\200:\006\346\312\314"
  47      74CCB337 
  47      12803A06 
  47      E6CACC
  48 00e3 698671D6 		.ascii	"i\206q\326G~-\241\2370\220\011\245C\252\024V\355\276"
  48      477E2DA1 
  48      9F309009 
  48      A543AA14 
  48      56EDBE
  49 00f6 B6317FD2 		.ascii	"\2661\177\322bf\031\013w\246\275\2559\213\214\321\214"
  49      6266190B 
  49      77A6BDAD 
  49      398B8CD1 
  49      8C
  50 0107 802F34FB 		.ascii	"\200/4\3737*\207GQ\026Tn/m?\277S\325\247\307\325\332"
  50      372A8747 
  50      5116546E 
  50      2F6D3FBF 
  50      53D5A7C7 
  51 011d 464557B6 		.ascii	"FEW\266\212\233\305\365\030ai\267\224.\361\017\221{"
  51      8A9BC5F5 
  51      186169B7 
  51      942EF10F 
  51      917B
  52 012f 5F1B     		.ascii	"_\033"
  53              		.text
  54              		.section	.gnu.lto_hih6030_stop.8c36fdb2878708f2,"",%progbits
  55 0000 789C6362 		.ascii	"x\234cb`b@\007\222@|\005\210E\200\230\221\231\201\221"
  55      60624007 
  55      92407C05 
  55      88458098 
  55      91998191 
  56 0014 69C23906 		.ascii	"i\3029\006\206F\016&FF\020\203\201\221\241\236\211\261"
  56      86460E26 
  56      46461083 
  56      8191A19E 
  56      89B1
  57 0026 3E9211AC 		.ascii	">\222\021\254v=\323\201\007\377\377\257\333\327r\212"
  57      763DD381 
  57      07FFFFAF 
  57      DBD7728A 
  58 0036 899D9131 		.ascii	"\211\235\2211\227\021h\\&#\003\013\220\305\310\006d"
  58      9711685C 
  58      2623030B 
  58      90C5C806 
ARM GAS  /tmp/ccQfZ6RW.s 			page 4


  58      64
  59 0047 8114B132 		.ascii	"\201\024\2612\26444LP``H\006k\011\001\222 sB\031\231"
  59      B434344C 
  59      50606048 
  59      066B0901 
  59      92207342 
  60 005d 4034F359 		.ascii	"@4\363Y\206\246_\315\213/2'2.ddeHgd\252f\250\002\032"
  60      86A65FCD 
  60      8B2F3227 
  60      322E6464 
  60      65486764 
  61 0076 A1CDB0AA 		.ascii	"\241\315\260\252\001\010&2f22\315f\230\005\244\230\323"
  61      01082632 
  61      663232CD 
  61      669805A4 
  61      98D3
  62 0088 19192380 		.ascii	"\031\031#\2004\013\330\342$F$\027\237gh=\300\0123\200"
  62      340BD8E2 
  62      24462417 
  62      9F67683D 
  62      C00A3380 
  63 009c AD9AE157 		.ascii	"\255\232\341WCG\203@&#k2#D\025\320\324tF\226L\240\223"
  63      43478340 
  63      26236B32 
  63      234415D0 
  63      D4744696 
  64 00b3 182E3230 		.ascii	"\030.20\302\025B4\207\000\025\001\035\002\012\007!\227"
  64      C2154234 
  64      87001501 
  64      1D020A07 
  64      2197
  65 00c5 A2CCB2D4 		.ascii	"\242\314\262\324\242b\375\214\314\0143\003c\003\275"
  65      A262FD8C 
  65      CC0C3303 
  65      6303BD
  66 00d4 64060022 		.ascii	"d\006\000\"t5\025"
  66      743515
  67              		.text
  68              		.section	.gnu.lto_hih6030_readHumidity.8c36fdb2878708f2,"",%progbits
  69 0000 789C6362 		.ascii	"x\234cb`b@\007\222@\034\001\304\"@\314\310\314\300\310"
  69      60624007 
  69      92401C01 
  69      C42240CC 
  69      C8CCC0C8 
  70 0014 34E11C03 		.ascii	"4\341\034\003C#\007\023##\210\301\300\310P\317\304X"
  70      43230713 
  70      232388C1 
  70      C0C850CF 
  70      C458
  71 0026 1FC90856 		.ascii	"\037\311\010V\273\236\351\300\203\377\377\327\335k\271"
  71      BB9EE9C0 
  71      83FFFFD7 
  71      DD6BB9
  72 0035 C40C3288 		.ascii	"\304\0142\210\225\241\245\241a\202\002\003C2X:\004H"
  72      95A1A5A1 
  72      61820203 
  72      4332583A 
ARM GAS  /tmp/ccQfZ6RW.s 			page 5


  72      0448
  73 0047 82F48432 		.ascii	"\202\364\20422\201h\346\213\014\215\017vr%2.dde\210"
  73      328168E6 
  73      8B0C8D0F 
  73      76722532 
  73      2E646465 
  74 005c 60CC6484 		.ascii	"`\314d\204[\031\302\310\010R\0002B\310\245(\263,\265"
  74      5B19C2C8 
  74      08520032 
  74      42C8A528 
  74      B32CB5
  75 006f A8583F23 		.ascii	"\250X?#3\303\314\300\330@/\231\001\0005\374\036\237"
  75      33C3CCC0 
  75      D8402F99 
  75      010035FC 
  75      1E9F
  76              		.text
  77              		.section	.gnu.lto_hih6030_readTemperature.8c36fdb2878708f2,"",%progbits
  78 0000 789C6362 		.ascii	"x\234cb`b@\007\222@\034\001\304\"@\314\310\314\300\310"
  78      60624007 
  78      92401C01 
  78      C42240CC 
  78      C8CCC0C8 
  79 0014 34E11C03 		.ascii	"4\341\034\003C#\007\023##\210\301\300\310P\317\304X"
  79      43230713 
  79      232388C1 
  79      C0C850CF 
  79      C458
  80 0026 1FC90856 		.ascii	"\037\311\010V\273\236\351\300\203\377\377\327Mj}\304"
  80      BB9EE9C0 
  80      83FFFFD7 
  80      4D6A7DC4 
  81 0036 02328895 		.ascii	"\0022\210\225\241\245\241a\202\002\003C2X:\004H\202"
  81      A1A5A161 
  81      82020343 
  81      32583A04 
  81      4882
  82 0048 F4843232 		.ascii	"\364\20422\201h\346\213\014\215\017Ns%2.dde\210`\314"
  82      8168E68B 
  82      0C8D0F4E 
  82      7325322E 
  82      64646588 
  83 005e 64845B19 		.ascii	"d\204[\031\302\310\010R\0002B\310\245(\263,\265\250"
  83      C2C80852 
  83      003242C8 
  83      A528B32C 
  83      B5A8
  84 0070 583F2333 		.ascii	"X?#3\303\314\300\330@/\231\001\000$\"\036w"
  84      C3CCC0D8 
  84      402F9901 
  84      0024221E 
  84      77
  85              		.text
  86              		.section	.gnu.lto_.symbol_nodes.8c36fdb2878708f2,"",%progbits
  87 0000 789C4DC7 		.ascii	"x\234M\307\271\015\200@\024\003Q\333\273\333,M\370s"
  87      B90D8040 
  87      140351DB 
ARM GAS  /tmp/ccQfZ6RW.s 			page 6


  87      BBDB2C4D 
  87      F873
  88 0012 04845440 		.ascii	"\004\204T@B?\324\200D\037\034\022\010v\222\321\023\204"
  88      423FD480 
  88      441F1C12 
  88      087692D1 
  88      1384
  89 0024 066F3A69 		.ascii	"\006o:i`Z\001{\036\251\220Y\261\225U\261\223\323O\366"
  89      605A017B 
  89      1EA99059 
  89      B19555B1 
  89      93D34FF6 
  90 0038 727E1841 		.ascii	"r~\030A\016r\371\224\220\261o\007\023\013\226\373\270"
  90      0E72F994 
  90      90B16F07 
  90      130B96FB 
  90      B8
  91 0049 00C9D720 		.ascii	"\000\311\327 2"
  91      32
  92              		.text
  93              		.section	.gnu.lto_.refs.8c36fdb2878708f2,"",%progbits
  94 0000 789C6362 		.ascii	"x\234cb`b`d\200\002\000\000F\000\006"
  94      60626064 
  94      80020000 
  94      460006
  95              		.text
  96              		.section	.gnu.lto_.decls.8c36fdb2878708f2,"",%progbits
  97 0000 789CBD5B 		.ascii	"x\234\275[{t\024E\272\357\356\351\314\203\304\200\270"
  97      7B741445 
  97      BAEFEEE9 
  97      CC83C480 
  97      B8
  98 0011 EEA2EB3D 		.ascii	"\356\242\353=\216\347\354\356\341\356\252y\200<\326"
  98      8EE7ECEE 
  98      E1EEAA79 
  98      803CD6
  99 0020 7B114CC2 		.ascii	"{\021L\302\222sy\235$x\340\217{\306&\323!sM2\331\231"
  99      9273799D 
  99      2478E08F 
  99      7BC626D3 
  99      21734D32 
 100 0036 0E8473FF 		.ascii	"\016\204s\377\330&HVQ \006\220\200<\342\345!\272\300"
 100      D8264856 
 100      51200690 
 100      803CE2E5 
 100      21BAC0
 101 0049 8A800217 		.ascii	"\212\200\002\027pP\221\010\012\270\310#\001d\364\312"
 101      70509108 
 101      0AB8C823 
 101      0164F4CA 
 102 0059 7BD90B48 		.ascii	"{\331\013H\004D\310\375\352\353\356\231\352N\367Lw\326"
 102      0444C8FD 
 102      EAEBEE99 
 102      EA4EF74C 
 102      77D6
 103 006b BD734ED5 		.ascii	"\275sN\325T\327T\375\352{\326WU]\3031\034\363,\3130"
 103      54D754FD 
ARM GAS  /tmp/ccQfZ6RW.s 			page 7


 103      EA7BD657 
 103      555DC331 
 103      1CF32CCB 
 104 0080 5DF0F9AC 		.ascii	"]\360\371\254\210a\376\323\3130\031\014\303\014\203"
 104      8861FED3 
 104      CB30190C 
 104      C30C83
 105 008f C4437A1D 		.ascii	"\304Cz\035\222\007\322\203\034\303\374\034\022\371\270"
 105      9207D283 
 105      1CC3FC1C 
 105      12F9B8
 106 009e 21FD1394 		.ascii	"!\375\023\224\177\013i$\244q\220&@\022\324\337\351\017"
 106      7F0B6924 
 106      A4719026 
 106      4012D4DF 
 106      E90F
 107 00b0 69770F7C 		.ascii	"iw\017|O\204\357\012HS8\005\363\021\370\366C\372gH\217"
 107      4F84EF0A 
 107      48533805 
 107      F311F8F6 
 107      43FA6748 
 108 00c5 41AAE4F4 		.ascii	"A\252\344\364\343<\003\311\005\317\277\202\357\376\220"
 108      E33C03C9 
 108      05CFBF82 
 108      EFFE90
 109 00d4 1E85C4A9 		.ascii	"\036\205\304\251x\023\324\337\006\300\367\023\220\006"
 109      7813D4DF 
 109      06C0F713 
 109      9006
 110 00e2 1BC6FDAD 		.ascii	"\033\306\375\255\212E\306l`\365\343\205 M\206\304\252"
 110      8A45C66C 
 110      60F5E385 
 110      204D86C4 
 110      AA
 111 00f3 D89CDA5E 		.ascii	"\330\234\332^P\313OCV`\300\033\251\266'X\344\303\252"
 111      50CB4F43 
 111      5660C01B 
 111      A9B62758 
 111      E4C3AA
 112 0106 75C6CF38 		.ascii	"u\306\3178\223v\343L\332\365e^\221\341\343o\313\006"
 112      9376E34C 
 112      DAF5655E 
 112      91E1E36F 
 112      CB06
 113 0118 1A5981CD 		.ascii	"\032Y\201\315\36612\207\245,\037\343\207\006\277dV\311"
 113      F6313287 
 113      A52C1FE3 
 113      8706BF64 
 113      56C9
 114 012a 72537CD6 		.ascii	"rS|\326<\326/\260\257\263}\201\262~,\363k\346M\350\325"
 114      3CD62FB0 
 114      AFB37D81 
 114      B27E2CF3 
 114      6BE64DE8 
 115 013f 24CB0DF7 		.ascii	"$\313\015\367u\307L\017\012<\262\253\001K`W\261\277"
 115      75C74C0F 
 115      0A3CB2AB 
ARM GAS  /tmp/ccQfZ6RW.s 			page 8


 115      014B6057 
 115      B1BF
 116 0151 56869063 		.ascii	"V\206\220cG\202~\245\226Q\353M>\2170\2550f\254}\363"
 116      47827EA5 
 116      9651EB4D 
 116      3E8F30AD 
 116      3066AC7D 
 117 0166 36566ECC 		.ascii	"6Vn\314\3620\215\360$\307g5\364kI\016\345\325Fb\023"
 117      F2308DF0 
 117      24C76735 
 117      F46B490E 
 117      E5D54662 
 118 017b E4C73EF7 		.ascii	"\344\307>\367r\002\273\226\365\000\365\277au\36060\010"
 118      7202BB96 
 118      F500F5BF 
 118      6175F036 
 118      3008
 119 018d 3D7F82BE 		.ascii	"=\177\202\276:j\267\361\234R\233\202Z\027\203\232|\222"
 119      3A6AB7F1 
 119      9C529B82 
 119      5A17839A 
 119      7C92
 120 019f 4534DE97 		.ascii	"E4\336\227\254*LT\261T\303\342D\255\246)\362\310\372"
 120      AC2A4C54 
 120      B154C3E2 
 120      44ADA629 
 120      F2C8FA
 121 01b2 92852E56 		.ascii	"\222\205.V7\000M\227\300\256c\177\011\371z\326e\332"
 121      37004D97 
 121      C0AE637F 
 121      09F97AD6 
 121      65DA
 122 01c4 8D63C6B2 		.ascii	"\215c\306\262\252\330\315\230T\213\311a\263\265\007"
 122      AAD8CD98 
 122      548BC961 
 122      B3B507
 123 01d3 4DE827AE 		.ascii	"M\350'\256o%B\3671/\240\300V\313i\204\036oo\\\377\033"
 123      6F2542F7 
 123      312FA0C0 
 123      56CB6984 
 123      1E6F6F5C 
 124 01e9 59F60AEC 		.ascii	"Y\366\012\354\026\226p4]/x\3738\363g/\037\2028[\021"
 124      16967034 
 124      5D2F78FB 
 124      38F3672F 
 124      1F82385B 
 125 01fe E75D560F 		.ascii	"\347]V\017\244\262J\011\005\236\265\006i\005\230\246"
 125      A4B24A09 
 125      059EB506 
 125      690598A6 
 126 020e 2DC7C458 		.ascii	"-\307\304X\247b\363\322b\213\357yi\301\003r\353\007"
 126      A762F3D2 
 126      628BEF79 
 126      69C10372 
 126      EB07
 127 0220 6C26339B 		.ascii	"l&3\233\360\333\332(\217j\3136\361\220\230K\003\033"
 127      F0DBDA28 
ARM GAS  /tmp/ccQfZ6RW.s 			page 9


 127      8F6ACB36 
 127      F190984B 
 127      031B
 128 0232 92647DE3 		.ascii	"\222d}\343\201#k\330\231\262\014?\354B\337\233\303\351"
 128      81236BD8 
 128      99B20C3F 
 128      EC42DF9B 
 128      C3E9
 129 0244 994F0B24 		.ascii	"\231O\013$\2601\226\203|\267\321\335\256.\311\222y\245"
 129      B0319683 
 129      7CB7D1DD 
 129      AE2EC992 
 129      79A5
 130 0256 3EBDC3DD 		.ascii	">\275\303\335\352X\37639\036cm{\\\374\364_\216\345\241"
 130      EA58FE33 
 130      391E636D 
 130      7B5CFCF4 
 130      5F8EE5A1 
 131 026a D23E42AF 		.ascii	"\322>B\257\333\307\365\310\355\366\032\335\356\363\306"
 131      DBC7F5C8 
 131      EDF61ADD 
 131      EEF3C6
 132 0279 DE84EABD 		.ascii	"\336\204\352\275\266\034\357\010\327\335\363\342\234"
 132      B61CEF08 
 132      D7DDF3E2 
 132      9C
 133 0286 A9EB5DE0 		.ascii	"\251\353]\340\364\276\247V\177\233\254vQ\3253\\\211"
 133      F4BEA756 
 133      7F9BAC76 
 133      51D5335C 
 133      89
 134 0297 6A9EAA9E 		.ascii	"j\236\252\236\227\254\316\240L\"\245\375\355\245\034"
 134      97ACCEA0 
 134      4C22A5FD 
 134      EDA51C
 135 02a6 B80D1DF8 		.ascii	"\270\015\035\370\023\013\007\026\330M\011M\366\310\203"
 135      130B0716 
 135      D84D094D 
 135      F6C883
 136 02b5 E31BE77E 		.ascii	"\343\033\347~s\226\235?Sn\31353Fh\302Rf\364\254\006"
 136      73969D3F 
 136      536ECB35 
 136      334668C2 
 136      5266F4AC 
 137 02ca 9895506A 		.ascii	"\230\225Pjlg\007\3537\2618]S\201=\016l\244kE\332u\030"
 137      6C6707EB 
 137      37B1385D 
 137      53813D0E 
 137      6CA46B45 
 138 02e1 4D725907 		.ascii	"MrY\007\232d\207-\223\334\330\261\320\231I\306\256\036"
 138      9A64872D 
 138      93DCD8B1 
 138      D09949C6 
 138      AE1E
 139 02f3 2331EC14 		.ascii	"#1\354\024\332\343\022W\217\3541n\264\307\366Eh\217"
 139      DAE31257 
 139      8FEC316E 
ARM GAS  /tmp/ccQfZ6RW.s 			page 10


 139      B4C7F645 
 139      688F
 140 0305 715BF6B8 		.ascii	"q[\366\270\306E\331\236Z\267\321ejx{\\z\303\263cJq\312"
 140      C645D99E 
 140      5AB7D165 
 140      6A787B5C 
 140      7AC3B363 
 141 031c 94BE4253 		.ascii	"\224\276BS\372\3322\026\034C\376;z\034\0146u,\304YM"
 141      FADA3216 
 141      1C43FE3B 
 141      7A1C0C36 
 141      752CC459 
 142 0331 9DC51543 		.ascii	"\235\305\025CJ\264\365k\010<CE\203=\273\331\006\234"
 142      4AB4F56B 
 142      083C4345 
 142      833DBBD9 
 142      069C
 143 0343 CA2EE23C 		.ascii	"\312.\342<~\332e\032\020l@\315\237\275c(\316-\227\021"
 143      7EDA651A 
 143      106C40CD 
 143      9FBD6328 
 143      CE2D9711 
 144 0357 E8BCCB18 		.ascii	"\350\274\313\030\020<\206\200\340\321O\362\036_\262"
 144      103C8680 
 144      E0D14FF2 
 144      1E5FB2
 145 0366 40169BBD 		.ascii	"@\026\233\275\031\247\315af0\012PG\250\231\000\375\264"
 145      19A7CD61 
 145      66300A50 
 145      47A89900 
 145      FDB4
 146 0378 00C1170F 		.ascii	"\000\301\027\017\274\313^k\220[r\355\033\360\374\016"
 146      BCCB5E6B 
 146      905B72ED 
 146      1BF0FC0E 
 147 0388 62C0D7D0 		.ascii	"b\300\327\320\200\273zf\300\235F\003\276\255\030p\247"
 147      80BB7A66 
 147      C09D4603 
 147      BEAD1870 
 147      A7
 148 0399 2D039ECB 		.ascii	"-\003\236\313w7\340e\274\251\001\377\231wn\300\235\224"
 148      7737E065 
 148      BCA901FF 
 148      99776EC0 
 148      9D94
 149 03ab 017F8706 		.ascii	"\001\177\207\006|\303\322\200?\342m\030\260\327\304"
 149      7CC3D280 
 149      3FE26D18 
 149      B0D7C4
 150 03ba 80A9F194 		.ascii	"\200\251\361\224\221N\340H'\331G \277\200\371U\310\023"
 150      914EE048 
 150      27D94720 
 150      BF80F955 
 150      C813
 151 03cc 1F8E39C8 		.ascii	"\037\2169\310\033\355K\231\241(\244\344T\306\244\302"
 151      1BED4B99 
 151      A128A4E4 
ARM GAS  /tmp/ccQfZ6RW.s 			page 11


 151      54C6A4C2 
 152 03dc 323315D2 		.ascii	"23\025\322\341(\254\016\022\303\265\343p\273{jY\261"
 152      E128AC0E 
 152      12C3B5E3 
 152      70BB7B6A 
 152      59B1
 153 03ee C527963B 		.ascii	"\305'\226;s\315\330\373\213\356'60\203#*\214w\343\366"
 153      73CDD8FB 
 153      8BEE2736 
 153      3083232A 
 153      8C77E3F6 
 154 0402 A2717D65 		.ascii	"\242q}e\307?.\331\341\302L?\310\205\034\333tb9K\270"
 154      C73F2ED9 
 154      E1C24C3F 
 154      C8851CDB 
 154      7462394B 
 155 0417 30DB4BB0 		.ascii	"0\333K\260Z\377>\011\036\342G\316\235?\253N/\215\034"
 155      5AFF3E09 
 155      1EE247CE 
 155      9D3FAB4E 
 155      2F8D1C
 156 042a 5929ADC9 		.ascii	"Y)\255\311H\273R\322\003q\314\006\354\362\"g\010K\235"
 156      48BB52D2 
 156      0371CC06 
 156      ECF22267 
 156      084B9D
 157 043d 825FA94D 		.ascii	"\202_\251M\027\224\344\330\2153>\2719\313d\250\3414"
 157      1794E4D8 
 157      8D333EB9 
 157      39CB64A8 
 157      E134
 158 044f CBDA8C78 		.ascii	"\313\332\214x)\376\300'\262\334G`\347 \305\227\315)"
 158      29FEC027 
 158      B2DC4760 
 158      E720C597 
 158      CD29
 159 0461 6E1D6E85 		.ascii	"n\035n\205\3031w\260K\223\201\342\370\316km\017\266"
 159      C33177B0 
 159      4B9381E2 
 159      F8CE6B6D 
 159      0FB6
 160 0473 2072930D 		.ascii	" r\223\015\262\033bG\032\227\331Z\243\266\362\332\360"
 160      B21B6247 
 160      1A97D95A 
 160      A3B6F2DA 
 160      F0
 161 0484 8549368E 		.ascii	"\205I6\216_\212\365\303\331x!r\361\241;\255\334\365"
 161      5F8AF5C3 
 161      D9782172 
 161      F1A13BAD 
 161      DCF5
 162 0496 301CF329 		.ascii	"0\034\363)vi\351\316E\374\347\012\027-\266\270\270\255"
 162      7669E9CE 
 162      45FCE70A 
 162      172DB6B8 
 162      B8AD
 163 04a8 7221B00B 		.ascii	"r!\260\013\270L\200=\232\200\265\353Hz\274\273\037g"
ARM GAS  /tmp/ccQfZ6RW.s 			page 12


 163      B84C803D 
 163      9A80B5EB 
 163      487ABCBB 
 163      1F67
 164 04ba 35091AD8 		.ascii	"5\011\032\330)\307`~\035\330\374\275K\035\006\314\305"
 164      29C7607E 
 164      1DD8FCBD 
 164      4B1D06CC 
 164      C5
 165 04cb 37CE3FB0 		.ascii	"7\316?\260\023\331oE\307\\\357\371Q\034s\213\307\006"
 165      13D96F45 
 165      C75CEFF9 
 165      511C738B 
 165      C706
 166 04dd 23D68E09 		.ascii	"#\326\216\011Z9\364\320\266wd\371E\267f\237n+F8f\007"
 166      5A39F4D0 
 166      B67764F9 
 166      45B7669F 
 166      6E2B4638 
 167 04f3 0EB6DAA8 		.ascii	"\016\266\332\250\331\305w\017=\246hv\265-\315\276\267"
 167      D9C5770F 
 167      3DA66876 
 167      B52DCDBE 
 167      B7
 168 0504 7F913DFB 		.ascii	"\177\221=\373tk\303\007q\370\2738\374[\306\341\267\374"
 168      746BC307 
 168      71F8BB38 
 168      FC5BC6E1 
 168      B7FC
 169 0516 D78561CA 		.ascii	"\327\205a\312\360o\331\032\376\364A\223-\234\300\016"
 169      F06FD91A 
 169      FEF44193 
 169      2D9CC00E 
 170 0526 BB3FA5FA 		.ascii	"\273?\245\372\356^\351\277\002\007\331\200\006\324\346"
 170      EE5EE9BF 
 170      0207D980 
 170      06D4E6
 171 0535 35AAEFA9 		.ascii	"5\252\357\251Lz,|\246\032p\314\347^\215\372\036\331"
 171      4C7A2C7C 
 171      A61A70CC 
 171      E75E8DFA 
 171      1ED9
 172 0547 2FB0B9FB 		.ascii	"/\260\271\373\2517QS\032\015G\034#\352\215\370\332A"
 172      A9375153 
 172      1A0D471C 
 172      23EA8DF8 
 172      DA41
 173 0559 F40805AC 		.ascii	"\364\010\005\254\335\016\230\245!5\304\256\323`\247"
 173      DD0E98A5 
 173      2135C4AE 
 173      D360A7
 174 0568 1C83E929 		.ascii	"\034\203\351)\373\216\006\373\312\016X\037k\312n\322"
 174      FB8E06FB 
 174      CA0E581F 
 174      6BCA6ED2 
 175 0578 60671C83 		.ascii	"`g\034\203\351)\373\236\006\273`\007\254\2375e?\320"
 175      E929FB9E 
ARM GAS  /tmp/ccQfZ6RW.s 			page 13


 175      06BB6007 
 175      AC9F3565 
 175      3FD0
 176 058a 60971D83 		.ascii	"`\227\035\203\351)\273K\203]\265\003\346\267\246\254"
 176      E929BB4B 
 176      835DB503 
 176      E6B7A6AC 
 177 059a E92F1458 		.ascii	"\351/\024X\247c0=e\3154\330-;`\375\255)[@\203\335q\014"
 177      A763303D 
 177      65CD34D8 
 177      2D3B60FD 
 177      AD295B40 
 178 05b2 A6A7EC55 		.ascii	"\246\247\354U\032l\206\317\006X\2565e-4\330,\307`z\312"
 178      1A6C86CF 
 178      0658AE35 
 178      652D34D8 
 178      2CC7607A 
 179 05c7 96D0602F 		.ascii	"\226\320`/\332\001\033bM\331R\032l\216c0=eo\323`\257"
 179      DA011B62 
 179      4DD9521A 
 179      6C8E6330 
 179      3D656FD3 
 180 05dd D8011B6E 		.ascii	"\330\001\033nM\331;4\330\002\307`z\3126\323`\213\354"
 180      4DD93B34 
 180      D802C760 
 180      7ACA36D3 
 180      608BEC
 181 05f0 808DB2A6 		.ascii	"\200\215\262\246\354]\032l\211c0=e[i\260ev\300\306["
 181      EC5D1A6C 
 181      8963303D 
 181      655B69B0 
 181      6576C0C6 
 182 0605 53B69D06 		.ascii	"S\266\235\006ku\014\246\247l\007\015\266\322\016\330"
 182      6B750CA6 
 182      A76C070D 
 182      B6D20ED8 
 183 0615 446BCA76 		.ascii	"Dk\312v\321`o8\006\323Sv\210\006\373\223\035\260gM("
 183      D1606F38 
 183      06D35376 
 183      8806FB93 
 183      1DB0674D 
 184 062a 4B7CCCFA 		.ascii	"K|\314\372\2210\375&Gm\3266\370\264\005\216\303\030"
 184      9130FD26 
 184      476DD636 
 184      F8B4058E 
 184      C318
 185 063c CD2431DE 		.ascii	"\315$1\336\3619]\221\351\370&\353\344\207\266\253q^"
 185      F1395D91 
 185      E9F826EB 
 185      E487B6AB 
 185      715E
 186 064e 59AC6EB5 		.ascii	"Y\254n\265\203\230\"\000.\331K\255|c\216\301\014\246"
 186      83982200 
 186      2ED94BAD 
 186      7C638EC1 
 186      0CA6
 187 0660 4CC0744B 		.ascii	"L\300tK\247\304\321\177,\365\211\007y\301\304Q\357\011"
ARM GAS  /tmp/ccQfZ6RW.s 			page 14


 187      A7C4D17F 
 187      2CF58907 
 187      79C1C451 
 187      EF09
 188 0672 FA99B715 		.ascii	"\372\231\267\025\330K\034\331\302\377\225\363%\250P"
 188      D84B1CD9 
 188      C2FF95F3 
 188      25A850
 189 0681 CA5A4939 		.ascii	"\312ZI92h\363\351\017\034\022\237t]\255,\341\002m\011"
 189      3268F3E9 
 189      0F1C129F 
 189      745DAD2C 
 189      E1026D09 
 190 0695 9FD91153 		.ascii	"\237\331\021S\212\320~z\357R<\317\264\377^d\361\215"
 190      8AD07E7A 
 190      EF523CCF 
 190      B4FF5E64 
 190      F18D
 191 06a7 43EA06E1 		.ascii	"C\352\006\341\012n\020\276\360\031W\230[\034\276\031"
 191      0A6E10BE 
 191      F0195798 
 191      5B1CBE19 
 192 06b7 81759891 		.ascii	"\201u\230\221\013\263c\025\3535\005\330\342\361\207"
 192      0BB36315 
 192      EB3505D8 
 192      E2F187
 193 06c6 B76D90E5 		.ascii	"\267m\220\345\231n'|\264\251|t\"\037g~\004>.;\346\243"
 193      996E277C 
 193      B4A97C74 
 193      221F677E 
 193      043E2E3B 
 194 06dc BF818F58 		.ascii	"\277\201\217X\177\347|\034W\371\370\036\371\350\374"
 194      7FE77C1C 
 194      57F9F81E 
 194      F9E8FC
 195 06eb 11F8B8E3 		.ascii	"\021\370\270\343\230\217\\\212\017\334\255=\256\354"
 195      988F5C8A 
 195      0FDCAD3D 
 195      AEEC
 196 06f9 D6EE639A 		.ascii	"\326\356c\232S\357\326\010=]\334}\206\363\355}\344\310"
 196      53EFD608 
 196      3D5DDC7D 
 196      86F3ED7D 
 196      E4C8
 197 070b 9154DB38 		.ascii	"\221T\3338\374\330Gmqe{[\334+\252\304\032\\Db\317\367"
 197      FCD8476D 
 197      71657B5B 
 197      DC2BAAC4 
 197      1A5C4462 
 198 0721 323912B6 		.ascii	"29\022\266\205\324\376\361G\033\325\343\237Y\0105\273"
 198      85D4FEF1 
 198      471BD5E3 
 198      9F590835 
 198      BB
 199 0732 C750F3F7 		.ascii	"\307P\363\367\275\247\274n|\001\201\232{\031\265\350"
 199      BDA7BC6E 
 199      7C01819A 
ARM GAS  /tmp/ccQfZ6RW.s 			page 15


 199      7B19B5E8 
 200 0742 3628D1AD 		.ascii	"6(\321\255W\"<\222\221n\222\0357\373\007\265\206<x\230"
 200      57223C92 
 200      916E921D 
 200      37FB07B5 
 200      863C7898 
 201 0756 FFF77E1C 		.ascii	"\377\367~\034\263\024\311'\012t\030\240\222\006\364"
 201      B314C927 
 201      0A7418A0 
 201      9206F4
 202 0765 E83635B8 		.ascii	"\35065\270(JZ\371w!6\3046\275\244\035\323<E\302\313"
 202      284A5AF9 
 202      772136C4 
 202      36BDA41D 
 202      D33C45C2 
 203 077a BABF13EE 		.ascii	"\272\277\023\356\363\375\316\017Vb\017*V\367\0122\264"
 203      F3FDCE0F 
 203      56620F2A 
 203      56F70A32 
 203      B4
 204 078b A99B867B 		.ascii	"\251\233\206{t\260\362~O\031I|8\346\343^6\202\210?\225"
 204      74B0F27E 
 204      4F19497C 
 204      38E6E35E 
 204      3682883F 
 205 07a0 B66E3E6E 		.ascii	"\266n>n\363p&q\010y\276_\033\012c\221\213\034\337\355"
 205      F3702671 
 205      0879BE5F 
 205      1B0A6391 
 205      8B1CDFED 
 206 07b4 3308C3C6 		.ascii	"3\010\303\306!O;vY\342\352v|w\350\001\345\224\205\374"
 206      214F3B76 
 206      59E2EA76 
 206      7C77E801 
 206      E59485FC 
 207 07c8 64E39047 		.ascii	"d\343\220Gw|'\260"
 207      777C27B0 
 208 07d0 4B394E85 		.ascii	"K9N\205\355\251<u*L\322\007\320.\262^X\346\322\035\363"
 208      EDA93C75 
 208      2A4CD207 
 208      D02EB25E 
 208      58E6D21D 
 209 07e5 5F702C7B 		.ascii	"_p,{?-\373\330\355\375KY\205~\3458\367[#\336pz-\247"
 209      3F2DFBD8 
 209      EDFD4B59 
 209      857EE538 
 209      F75B23DE 
 210 07fd 162DF7AD 		.ascii	"\026-\367\255r\254\371\000.\302\024\247\273k\207\270"
 210      72ACF900 
 210      2EC214A7 
 210      BB6B87B8 
 211 080d 145BCDE5 		.ascii	"\024[\315\345\012\230b\360\317g:\005\363\353\300v\316"
 211      0A9862F0 
 211      CF673A05 
 211      F3EBC076 
 211      CE
 212 081e 35392E56 		.ascii	"59.V\216\310\255\002\313\032\027\265T\232gg\374\024"
ARM GAS  /tmp/ccQfZ6RW.s 			page 16


 212      8EC8AD02 
 212      CB1A17B5 
 212      549A6767 
 212      FC14
 213 0830 BBD32307 		.ascii	"\273\323#\007\226\252\226\242\234\214.v\214\247\347"
 213      96AA96A2 
 213      9C8C2E76 
 213      8CA7E7
 214 083f E7EA5CDD 		.ascii	"\347\352\\\335\214\264\312\016\334p\333\206\227<\327"
 214      8CB4CA0E 
 214      DC70DB86 
 214      973CD7
 215 084e 0623C485 		.ascii	"\006#\304\205\352k\034y3\264\014\363\025\230\257\302"
 215      EA6B1C79 
 215      33B40CF3 
 215      1598AFC2 
 216 085e FC1BCCCF 		.ascii	"\374\033\314\317b~\036\363\377\305\374:\346\2670\277"
 216      627E1EF3 
 216      FFC5FC3A 
 216      E6B730BF 
 217 086e 8BF9AB2E 		.ascii	"\213\371\253.\354\213\371\353\230\257\304|5\346k1\177"
 217      EC8BF9EB 
 217      98AFC47C 
 217      35E66B31 
 217      7F
 218 087f 8B366F2B 		.ascii	"\2136o+\275(\256\226pL\315\353\232z|h~4yh.\260\313\035"
 218      BD28AE96 
 218      704CCDEB 
 218      9A7A7C68 
 218      7E347968 
 219 0897 83F95349 		.ascii	"\203\371SI\262\211\222d3Jr>Jc\235\336\221\327ej\257"
 219      B2899264 
 219      334A723E 
 219      4A639DDE 
 219      91D7656A 
 220 08ac 7152389E 		.ascii	"qR8\2365\013\361/\316\235\367,\226c\317\273\264\035"
 220      350BF12F 
 220      CE9DF72C 
 220      9663CFBB 
 220      B41D
 221 08be D0662360 		.ascii	"\320f#`\332\015\232^&wE\303\215\013\345\035\225\225"
 221      DA0D9A5E 
 221      267745C3 
 221      8D0BE51D 
 221      9595
 222 08d0 4E36D2BE 		.ascii	"N6\322\276\262\303\361\330)E\370\"%\302\227P\204/\243"
 222      B2C3F1D8 
 222      2945F822 
 222      25C29750 
 222      842FA3
 223 08e3 0837A0C9 		.ascii	"\0107\240\311\274M\013R`gs\206\373&\372\027f)\006O\274"
 223      BC4D0B52 
 223      60677386 
 223      FB26FA17 
 223      6629064F 
 224 08f8 E4EE3C6A 		.ascii	"\344\356<jr\341DyU\224\"(-\332\325\376\320:\014\035"
 224      72E14479 
ARM GAS  /tmp/ccQfZ6RW.s 			page 17


 224      55942228 
 224      2DDAD5FE 
 224      D03A0C1D 
 225 090c 9B5D4401 		.ascii	"\233]D\001\2673\215\021z\001g8<7\0302\307\314\315\262"
 225      B7338D11 
 225      7A016738 
 225      3C371832 
 225      C7CCCDB2 
 226 0920 F10232C5 		.ascii	"\361\0022\305Nf\343\334\033G\331\2313\345\265\271\352"
 226      4E66E3DC 
 226      1B47D999 
 226      33E5B5B9 
 226      EA
 227 0931 CA426E94 		.ascii	"\312Bn\224\373\257M\006\301>\032\006\227\240;\266Ey"
 227      FBAF4D06 
 227      C13E1A06 
 227      97A03BB6 
 227      4579
 228 0943 91BA0D67 		.ascii	"\221\272\015g\331\205Y\246\367\033\322\303\304\333\033"
 228      D98559A6 
 228      F71BD2C3 
 228      C4DB1B
 229 0952 DF7B1457 		.ascii	"\337{\024W\240;\020hE\217\201\346\317~C\271(\361>\002"
 229      A03B1068 
 229      458F81E6 
 229      CF7E43B9 
 229      28F13E02 
 230 0966 ADCD328A 		.ascii	"\255\3152\212\321eX\347\270\364\353\034\227/Y\350\352"
 230      D16558E7 
 230      B8F4EB1C 
 230      972F59E8 
 230      EA
 231 0977 7231FFC0 		.ascii	"r1\377\300\306\260\0143*L\307Q\272\265\017Q\330\035"
 231      C6B00C33 
 231      2A4CC751 
 231      BAB50F51 
 231      D81D
 232 0989 D5D8B41B 		.ascii	"\325\330\264\033&[\355\230\200\016Qg\002\261\037N\340"
 232      265BED98 
 232      800E5167 
 232      02B11F4E 
 232      E0
 233 099a 5CA6807D 		.ascii	"\\\246\200}`\007,\3051\364\302\345+,\337a\265\246\275"
 233      60072CC5 
 233      31F4C2E5 
 233      2B2CDF61 
 233      B5A6BD
 234 09ad 7A15DF76 		.ascii	"z\025\337v\366\223\177!\027\001\323_\277\332\347\262"
 234      F6937F21 
 234      1701D35F 
 234      BFDAE7B2 
 235 09bd 77FDEA53 		.ascii	"w\375\352S\227\361=\367\001\274~\365\251\255\325\332"
 235      97F13DF7 
 235      01BC7EF5 
 235      A9ADD5DA 
 236 09cd 0DB33580 		.ascii	"\015\2635\200\331m\304\304\224\321/\311\314\261\213"
 236      D96DC4C4 
ARM GAS  /tmp/ccQfZ6RW.s 			page 18


 236      94D12FC9 
 236      CCB18B
 237 09dc 9F0C536E 		.ascii	"\237\014Sn5\036\302E\347\301{\322\337j\324\341\020\372"
 237      351EC245 
 237      E7C17BD2 
 237      DF6AD4E1 
 237      10FA
 238 09ee 0E1BE9DF 		.ascii	"\016\033\351\337t\020\351?\234\236\376\347g\306\336"
 238      7410E93F 
 238      9C9EFEE7 
 238      67C6DE
 239 09fd 53DFE9A1 		.ascii	"S\337\351\2413\315L\271m\020\330KxE\304\316&\340k\344"
 239      33CD4CB9 
 239      6D10D84B 
 239      7845C4CE 
 239      26E06BE4 
 240 0a11 E4B0F345 		.ascii	"\344\260\363E\253J\326V\345\235\314Q\364\3273\216\301"
 240      AB4AD656 
 240      E59DCC51 
 240      F4D7338E 
 240      C1
 241 0a22 FC3AB0ED 		.ascii	"\374:\260\3554\330E;`VA\014\300v\320`\177s\014\246\247"
 241      34D8453B 
 241      6056410C 
 241      C076D060 
 241      7F730CA6 
 242 0a37 6C170DF6 		.ascii	"l\027\015\366\255\0350\253\323J\000;D\203\335t\014\346"
 242      AD1D30AB 
 242      D34A003B 
 242      4483DD74 
 242      0CE6
 243 0a49 37B312A6 		.ascii	"7\263\022\246\233\221\011\354\027\270k8\202\221\362"
 243      9B9109EC 
 243      17B86B38 
 243      8291F2
 244 0a58 38E61D98 		.ascii	"8\346\035\230\237\304\374K\314\343v\026]\007\351\000"
 244      9FC4FC4B 
 244      CCE37616 
 244      5D07E900 
 245 0a68 FF0312FC 		.ascii	"\377\003\022\374i\317,\006\246\275mg\277zR9\3755\304"
 245      69CF2C06 
 245      A6BD6D67 
 245      BF7A5239 
 245      FD35C4
 246 0a7b 58220F2B 		.ascii	"X\"\017+\012\276\241)\230\231\355\224\002?MA\354\366"
 246      0ABEA129 
 246      9899ED94 
 246      023F4D41 
 246      ECF6
 247 0a8d 01E5E452 		.ascii	"\001\345\344R\273\350\375\202\021\317\356\325,m\271"
 247      BBE8FD82 
 247      11CFEED5 
 247      2C6DB9
 248 0a9c 7420F3ED 		.ascii	"t \363\355g5\260y\216\301t\327\257cM\007)\260\305\216"
 248      6735B079 
 248      8EC174D7 
 248      AF634D07 
ARM GAS  /tmp/ccQfZ6RW.s 			page 19


 248      29B0C58E 
 249 0ab0 C1FA74B3 		.ascii	"\301\372t\263\010\305\026>C[8\200:\377\037\314\317b"
 249      08C5163E 
 249      435B3880 
 249      3AFF1FCC 
 249      CF62
 250 0ac2 7E1EF38B 		.ascii	"~\036\363\213\372\005ik\2661\356*s,\205\232\234\214"
 250      FA05696B 
 250      B631EE2A 
 250      732C859A 
 250      9C8C
 251 0ad4 19BBB856 		.ascii	"\031\273\270V\272m\243u\273)\333i\324\322\351\026\202"
 251      BA6DA375 
 251      BB29DB69 
 251      D4D2E916 
 251      82
 252 0ae5 EADE735A 		.ascii	"\352\336sZPm\303\265\3306;\210)v\242\233\2774\276\016"
 252      506DC3B5 
 252      D8363B88 
 252      2976A29B 
 252      BF34BE0E 
 253 0af9 309BED39 		.ascii	"0\233\3559\232\266D\324\330=I\211\032\3270j\274\237"
 253      9AB644D4 
 253      D83D4989 
 253      1AD7306A 
 253      BC9F
 254 0b0b 9D3E6A70 		.ascii	"\235>jpz\036\005\266\323\0305n\035\306\250\321i+j\334"
 254      7A1E05B6 
 254      D318356E 
 254      1DC6A8D1 
 254      692B6ADC 
 255 0b1f 39BC40DD 		.ascii	"9\274@\335)*\263\315~$\241\263\307\323\375\335\303\324"
 255      292AB3CD 
 255      7E24A1B3 
 255      C7D3FDDD 
 255      C3D4
 256 0b31 D475D031 		.ascii	"\324u\3201\230_\007\326t\224\002;l\007,\305t\337L\203"
 256      985F07D6 
 256      7494023B 
 256      6C072CC5 
 256      74DF4C83 
 257 0b45 1D770CA6 		.ascii	"\035w\014\246\247l\001\015v\312\016X\212\351\376U\032"
 257      A76C010D 
 257      76CA0E58 
 257      8AE9FE55 
 257      1A
 258 0b56 2CEE184C 		.ascii	",\356\030LOY\013\015\366\215\0350\253W8\000\266\204"
 258      4F590B0D 
 258      F68D1D30 
 258      AB573800 
 258      B684
 259 0b68 063BEF18 		.ascii	"\006;\357\030LO\331R\032\354\257v\300\374\326\224-\247"
 259      4C4FD952 
 259      1AECAF76 
 259      C0FCD694 
 259      2DA7
 260 0b7a C1AE3906 		.ascii	"\301\2569\006\363\233\271\204\362\241=J`\277\303i\361"
ARM GAS  /tmp/ccQfZ6RW.s 			page 20


 260      F39BB984 
 260      F2A13D4A 
 260      60BFC369 
 260      F1
 261 0b8b 064E56B7 		.ascii	"\006NV\2670\277\215\371\035\314\2730\237\301\223|&\346"
 261      30BF8DF9 
 261      1DCCBB30 
 261      9FC1937C 
 261      26E6
 262 0b9d B330FF23 		.ascii	"\2630\377#\346/\3626&\267\253\364\344v\303\361T\224"
 262      E62FF236 
 262      26B7ABF4 
 262      E476C3F1 
 262      5494
 263 0baf 9291E45F 		.ascii	"\222\221\344_d\004\366\003\\\361}\210Wx\217`.\343>y"
 263      6404F603 
 263      5CF17D88 
 263      57788F60 
 263      2EE33E79 
 264 0bc3 16E69B90 		.ascii	"\026\346\233\220\221\255\230\177\210\371\036\314\367"
 264      91AD987F 
 264      88F91ECC 
 264      F7
 265 0bd0 62FE37CC 		.ascii	"b\3767\314\257\330\231\253w&/\376\302~\234'\333\355"
 265      AFD899AB 
 265      77262FFE 
 265      C27E9C27 
 265      DBED
 266 0be2 D53DBE52 		.ascii	"\325=\276R~f\377<\247w\362/\305\327\250oM\346\340\375"
 266      7E66FF3C 
 266      A777F22F 
 266      C5D7A86F 
 266      4DE6E0FD 
 267 0bf6 EDDBDD22 		.ascii	"\355\333\335\"U\217\216\302g\365f\323s\222\342\216\341"
 267      558F8EC2 
 267      67F566D3 
 267      7392E28E 
 267      E1
 268 0c07 ACB97358 		.ascii	"\254\271sX\262\242\270\227i\302\031\275%[y\031\2536"
 268      B2A2B897 
 268      69C219BD 
 268      255B7919 
 268      AB36
 269 0c19 9EA84164 		.ascii	"\236\250Ad\25245\363\367bI\367\222\007[X\011~>\237|"
 269      AA3435F3 
 269      F76249F7 
 269      92075B58 
 269      097E3E9F 
 270 0c2e E19BE54B 		.ascii	"\341\233\345K\026z%\214k\216\221\007\335\250i\346<\210"
 270      167A258C 
 270      6B8E9107 
 270      DDA869E6 
 270      3C88
 271 0c40 739D37DB 		.ascii	"s\2357\333X\2719\313\260(#\353\020+\232^\345)\333n\266"
 271      58B939CB 
 271      B02823EB 
 271      102B9A5E 
ARM GAS  /tmp/ccQfZ6RW.s 			page 21


 271      E529DB6E 
 272 0c55 23C214AF 		.ascii	"#\302\024\257\223\277\013\222\220M 9\246\3051\226\337"
 272      93BF0B92 
 272      904D2039 
 272      A6C53196 
 272      DF
 273 0c66 C24918FD 		.ascii	"\302I\030\375?7\005v\015\372\311\033\350!\2331\337\201"
 273      3F370576 
 273      0DFAC91B 
 273      E8219B31 
 273      DF81
 274 0c78 F9CBE8D2 		.ascii	"\371\313\350\322\257`\276\020\363\026\332\275uRQ\265"
 274      AF60BE10 
 274      F316DABD 
 274      755251B5 
 275 0c88 DC3ADCA0 		.ascii	"\334:\334\240\346\341z)\013\354k\216\325\274\324B\315"
 275      E6E17A29 
 275      0BEC6B8E 
 275      D5BCD442 
 275      CD
 276 0c99 DA2B35AB 		.ascii	"\332+5\253~K\222\252x\230Y.\267\306\343w\276\337\350"
 276      7E4B92AA 
 276      7898592E 
 276      B7C6E377 
 276      BEDFE8
 277 0cac 26878272 		.ascii	"&\207\202rW\327\037\230\2372\013U\002dV\262\274\010"
 277      57D71F98 
 277      9F320B55 
 277      026456B2 
 277      BC08
 278 0cbe 4A8096F3 		.ascii	"J\200\226\363?\305\222K\371sD\272u\217\234\370\357\036"
 278      3FC5924B 
 278      F97344BA 
 278      758F9CF8 
 278      EF1E
 279 0cd0 99B6542F 		.ascii	"\231\266T/=|\273\375\021<\305y\235'\313\236\217z\247"
 279      3D7CBBFD 
 279      113CC579 
 279      9D27CB9E 
 279      8F7AA7
 280 0ce3 5DF6E861 		.ascii	"]\366\350apY\303\033\226=\353\335\234R\233\376\275\356"
 280      7059C31B 
 280      963DEBDD 
 280      9C529BFE 
 280      BDEE
 281 0cf5 C655E452 		.ascii	"\306U\344R\273\366\357\337\003\312\360|\362PP\367\327"
 281      BBF6EFDF 
 281      03CAF07C 
 281      F25050F7 
 281      D7
 282 0d06 DE346B1E 		.ascii	"\3364k\036\262M\277\356\225\033\263tJO\345\025o:V\372"
 282      B24DBFEE 
 282      951BB374 
 282      4A4FE515 
 282      6F3A56FA 
 283 0d1a 5B164AD7 		.ascii	"[\026J\327\216\2448\346\210\221\007'\341\024X\330\314"
 283      8EA438E6 
ARM GAS  /tmp/ccQfZ6RW.s 			page 22


 283      88910727 
 283      E11458D8 
 283      CC
 284 0d2b B7E4D273 		.ascii	"\267\344\322s\023E\377x\375L\"\260\353\035\323\277\301"
 284      1345FF78 
 284      FD4C22B0 
 284      EB1DD3BF 
 284      C1
 285 0d3c 827E5F82 		.ascii	"\202~_\202\376/\215\364\353Fu\034\301\223\306\001\316"
 285      FE2F8DF4 
 285      EB46751C 
 285      C193C601 
 285      CE
 286 0d4d CD13875E 		.ascii	"\315\023\207^\203.\273\026\363uv\342rk\322aTSO\004\267"
 286      832EBB16 
 286      F37576E2 
 286      726BD261 
 286      54534F04 
 287 0d62 C4B37AFB 		.ascii	"\304\263z\373A`'$\017\0079\346\234\301\234\177\301\254"
 287      41602724 
 287      0F0739E6 
 287      9CC19C7F 
 287      C1AC
 288 0d74 94E566E2 		.ascii	"\224\345f\342o\303\300\337x\005\232c\256c\263e\374\303"
 288      6FC3C0DF 
 288      78059A63 
 288      AE63B365 
 288      FCC3
 289 0d86 A624A804 		.ascii	"\246$\250\004(}\345\235\342(et\216\271\231\246\033\322"
 289      287DE59D 
 289      E2286574 
 289      8EB999A6 
 289      1BD2
 290 0d98 A876BBF3 		.ascii	"\250v\273\363\357\375\264\215b\227\261\233\341\302\221"
 290      EFFDB48D 
 290      6297B19B 
 290      E1C291
 291 0da7 CACAAF98 		.ascii	"\312\312\257\230\325D\247s\344Y}X\234\006\030\265\227"
 291      D544A773 
 291      E4597D58 
 291      9C0618B5 
 291      97
 292 0db8 4EBCEFF0 		.ascii	"N\274\357\360\272?\336+\023Jl\347\311\254\246\031\361"
 292      BA3FDE2B 
 292      134A6CE7 
 292      C9ACA619 
 292      F1
 293 0dc9 AEAE870D 		.ascii	"\256\256\207\015\223IC\212m\373\177\353g\023\205k\365"
 293      9349438A 
 293      6DFB7FEB 
 293      6713856B 
 293      F5
 294 0dda C1CBFC51 		.ascii	"\301\313\374Q\371\003\230<\203\375=cJw\362R\225\300"
 294      F903983C 
 294      83FD3D63 
 294      4A77F252 
 294      95C0
ARM GAS  /tmp/ccQfZ6RW.s 			page 23


 295 0dec EEE2BD64 		.ascii	"\356\342\275d\253\336\207\2652\012\322@\323\270R\326"
 295      ABDE87B5 
 295      320AD240 
 295      D3B852D6 
 296 0dfc 4A2C63A2 		.ascii	"J,c\242\306\271}\314\324(w\005G)TBx\300\345\315v[\032"
 296      C6B97DCC 
 296      D4287705 
 296      47295442 
 296      78C0E5CD 
 297 0e13 DC4454A1 		.ascii	"\334DT\241\220\370\032\002o\267T\205J\247\252\212?7"
 297      90F81A02 
 297      6FB75485 
 297      4AA7AA8A 
 297      3F37
 298 0e25 CEEAC32B 		.ascii	"\316\352\303+BdR\214\246r\260\273\273f\336\216\307N"
 298      4264528C 
 298      A672B0BB 
 298      BB66DE8E 
 298      C74E
 299 0e37 06DBE42B 		.ascii	"\006\333\344+\260\222q\240\230\275)\024#\260\2032M\004"
 299      B09271A0 
 299      98BD2914 
 299      23B08332 
 299      4D04
 300 0e49 B6D24C60 		.ascii	"\266\322L`\015\362\012\321 \260\217m\010\254A>F\272"
 300      0DF20AD1 
 300      20B08F6D 
 300      08AC413E 
 300      46BA
 301 0e5b 0DC2BB7F 		.ascii	"\015\302\273\177\210k\335K!\306\\\\V\275T.\367\231\212"
 301      886BDD4B 
 301      21C65C5C 
 301      56BD542E 
 301      F7998A
 302 0e6e AB4954C4 		.ascii	"\253IT\304\245H\201cv\2333\266\305\310\330A[\214\235"
 302      A5488163 
 302      769B33B6 
 302      C5C8D841 
 302      5B8C9D
 303 0e81 4A30D68E 		.ascii	"J0\326\216\270\326\275R1f\325Ke\354Pw\306\342M\361="
 303      B8D6BD52 
 303      3166D54B 
 303      65EC5077 
 303      C6E24DF1 
 304 0e96 F3F6B32F 		.ascii	"\363\366\263/4\313?\220\367\023\366#\376\321\024\021"
 304      34CB3F90 
 304      F713F623 
 304      FED11411 
 305 0ea6 5F89A156 		.ascii	"_\211\241V=\217\333\237C\023\317\352\232\321\362y\016"
 305      3D8FDB9F 
 305      4313CFEA 
 305      9AD1F279 
 305      0E
 306 0eb7 EFB32686 		.ascii	"\357\263&\206Zku#\3464O\277`3\330\356\227\006\025k\215"
 306      5A6B7523 
 306      E6344FBF 
 306      6033D8EE 
ARM GAS  /tmp/ccQfZ6RW.s 			page 24


 306      9706156B 
 307 0ecc E266728C 		.ascii	"\342fr\214u\235|Yf\035\317u_\033]\3528\355R\252\327"
 307      759D7C59 
 307      661DCF75 
 307      5F1B5DEA 
 307      38ED52AA 
 308 0ee1 1BE8BA6C 		.ascii	"\033\350\272lA\327\031=]\0061\220\025\206\025\025g\223"
 308      41D7193D 
 308      5D063190 
 308      15861515 
 308      6793
 309 0ef3 6230F45A 		.ascii	"b0\364Z\237\242\3279\313^\304:\254z\235\267\354\365"
 309      9FA2D739 
 309      CB5EC43A 
 309      AC7A9DB7 
 309      ECF5
 310 0f05 758A5E17 		.ascii	"u\212^\027(E\335_\030\011M\025#\321\234P~y *\326D\303"
 310      2845DD5F 
 310      18094D15 
 310      23D19C50 
 310      7E79202A 
 311 0f1c 91C72B99 		.ascii	"\221\307+\231\314\342\374\202R|\010H\356\337\215\235"
 311      CCE2FC82 
 311      527C0848 
 311      EEDF8D9D 
 312 0f2c E02F607A 		.ascii	"\340/`z'\253\242\222 \211\336\342\261#\012\312\212\237"
 312      27ABA292 
 312      2089DEE2 
 312      B1230ACA 
 312      8A9F
 313 0f3e 29E28B0B 		.ascii	")\342\213\013G\027\361OO(\235\224\201?\374\"\247.\032"
 313      4717F14F 
 313      4F289D94 
 313      813FFC22 
 313      A72E1A
 314 0f51 C91122D5 		.ascii	"\311\021\"\325\217\325\204k\304\307Dar('TS^U\027\024"
 314      8FD5846B 
 314      C4C74461 
 314      72282754 
 314      535E5517 
 315 0f66 73A25230 		.ascii	"s\242R0T#\301\000\236:\370\036\022\220\006\246h\\-\224"
 315      5423C100 
 315      9E3AF81E 
 315      129006A6 
 315      685C2D94 
 316 0f7a 57866AC4 		.ascii	"W\206j\304\234@P\254\020\352\252\244\2004\275V\214B"
 316      9C4050AC 
 316      10EAAAA4 
 316      8034BD56 
 316      8C42
 317 0f8c 675F20A0 		.ascii	"g_ \240v\367\010\301`D\214F\013s*\303\325bNy"
 317      76F708C1 
 317      60448C46 
 317      0B732AC3 
 317      D5624E79 
 318 0fa0 38383D27 		.ascii	"88='(N\315\201\216\223C\341h\216\024\251\253y.\007\012"
 318      284ECD81 
ARM GAS  /tmp/ccQfZ6RW.s 			page 25


 318      8E9343E1 
 318      688E14A9 
 318      AB792E07 
 319 0fb5 9542554E 		.ascii	"\225BUNm8\"EsJ\313\306\014\310\317\031=\2720\007\030"
 319      6D382245 
 319      734ACBC6 
 319      0CC8CF19 
 319      3DBA3007 
 320 0fca 9A9A877C 		.ascii	"\232\232\207|WU\005\011,T(\322\310\267\003\247\221\011"
 320      57550509 
 320      2C5428D2 
 320      C8B703A7 
 320      9109
 321 0fdc 00D0B917 		.ascii	"\000\320\271\027|!\373\001\251\027\340\004&\214-\036"
 321      7C21FB01 
 321      A917E004 
 321      268C2D1E 
 322 0fec 5B5CE625 		.ascii	"[\\\346%\305\322\262q\343\011v\240\244hD\341\244{HI"
 322      C5D2B271 
 322      E30976A0 
 322      A46844E1 
 322      A47B4849 
 323 1000 915CA06C 		.ascii	"\221\\\240l\"\375T2\021{\216\036W\360oE\205\231\200"
 323      22FD5432 
 323      117B8E1E 
 323      57F06F45 
 323      859980
 324 1013 17AEAD0E 		.ascii	"\027\256\255\016\007\011\340\270\361c\306\025\026\005"
 324      0709E0B8 
 324      F163C615 
 324      1605
 325 1021 E0D7FBD4 		.ascii	"\340\327\373\324b\351\030\020x\240\260\350\231\342\202"
 325      62E91810 
 325      78A0B0E8 
 325      99E282
 326 1030 A27B7575 		.ascii	"\242{uu\243\306\225\226y\302\265\001\322\325K\3044 "
 326      A3C69596 
 326      79C2B501 
 326      D2D54BC4 
 326      3420
 327 1042 1F101489 		.ascii	"\037\020\024\211\221bfyU\270\374\271@\264V\024\203\331"
 327      91626679 
 327      55B8FCB9 
 327      40B45614 
 327      83D9
 328 1054 3048B04E 		.ascii	"0H\260N\232^>\275\274\012\306\311.-+\014\024N(\233\024"
 328      9A5E3EBD 
 328      BC0AC6C9 
 328      2E2D2B0C 
 328      144E289B 
 329 1069 28985430 		.ascii	"(\230T0\272\350\336\221#J\313\250\347@\376O\2145y\203"
 329      BAE8DE91 
 329      234ACBA8 
 329      E740FE4F 
 329      8C357983 
 330 107d 02437B11 		.ascii	"\002C{\021\204\000B\020.\013\3025\025\241)\356r\374"
 330      84004210 
ARM GAS  /tmp/ccQfZ6RW.s 			page 26


 330      2E0BC235 
 330      15A129EE 
 330      72FC
 331 108f 2252A9A8 		.ascii	"\"R\251\250\022\246D\301\214\304H$\034\211\016H'\332"
 331      12A644C1 
 331      8CC44824 
 331      1C890E48 
 331      27DA
 332 10a1 8894906C 		.ascii	"\210\224\220lye\265TO\214\245\272N\022\353\003R\006"
 332      7965B554 
 332      4F8CA5BA 
 332      4E12EB03 
 332      5206
 333 10b3 7E0F7184 		.ascii	"~\017q\204\020\235\036\325\314\246\267T\031\021\205"
 333      109D1ED5 
 333      CCA6B754 
 333      191185
 334 10c2 6034F0FB 		.ascii	"`4\360\373:\261\016\330\355S^\031\320U\015t\206\\^I"
 334      3AB10ED8 
 334      ED535E19 
 334      D0550D74 
 334      865C5E49 
 335 10d6 ACC6AB40 		.ascii	"\254\306\253@\004$_\002\316]\033\250\021\353%\370\252"
 335      04245F02 
 335      CE5D1BA8 
 335      11EB25F8 
 335      AA
 336 10e7 8D885347 		.ascii	"\215\210SG\331@ULsD\311\230\2021\365\320\262\2726TE"
 336      D940554C 
 336      7344C998 
 336      8231F5D0 
 336      B2BA3654 
 337 10fc 7CF27705 		.ascii	"|\362w\005\005\320\\\243\337#\325FB\341\200\202\033"
 337      05D05CA3 
 337      DF23D546 
 337      42E18082 
 337      1B
 338 110d 0A7B40C4 		.ascii	"\012{@\304 \016i\250c\374\312\362pD$^N\252\003`\027"
 338      200E69A8 
 338      63FCCAF2 
 338      7044245E 
 338      4EAA0360 
 339 1122 E552FDBF 		.ascii	"\345R\375\277\366\014%0up5\021BD\234\002N\034\220\\"
 339      F60C2530 
 339      75703511 
 339      42449C02 
 339      4E1C905C 
 340 1136 D1BC4190 		.ascii	"\321\274A\220\006C\032\002i\250+\232\237\013)\017R>"
 340      06431A02 
 340      69A82B9A 
 340      9F0B290F 
 340      523E
 341 1148 A4019006 		.ascii	"\244\001\220\006Bz\002\022\264\313\207v\371\320.\037"
 341      427A0212 
 341      B4CB8776 
 341      F9D02E1F 
 342 1158 DA0D8076 		.ascii	"\332\015\200v\003\362\270\310@.\362\004\027\031\304"
ARM GAS  /tmp/ccQfZ6RW.s 			page 27


 342      03F2B8C8 
 342      402EF204 
 342      1719C4
 343 1167 45067391 		.ascii	"E\006s\221!\\d\250+\222\227\013)\217\253\212\300\327"
 343      215C64A8 
 343      2B92970B 
 343      298FAB8A 
 343      C0D7
 344 1179 808CDA00 		.ascii	"\200\214\332\000P\353!\022\236&F\340;\\\025\024#|y\245"
 344      50EB2112 
 344      9E2646E0 
 344      3B5C1514 
 344      237C79A5 
 345 118d 10216217 		.ascii	"\020!b\027\252E\257\244\372!\374\210%\217\244\270\021"
 345      AA45AFA4 
 345      FA21FC88 
 345      258FA4B8 
 345      11
 346 119e 3CA32D7A 		.ascii	"<\243-z\244\210X\021E9\222BFut\012\374\250\272\007\314"
 346      A4885811 
 346      45399242 
 346      4675740A 
 346      FCA8BA07 
 347 11b3 2D6AC91D 		.ascii	"-j\311\035\011N\207\237\274b}H\002\261\210\356iRx\362"
 347      094E879F 
 347      BC627D48 
 347      02B188EE 
 347      695278F2 
 348 11c7 7FD4668A 		.ascii	"\177\324f\212S\305\032\251Z\210>Glz\032)\270j\003u\331"
 348      53C51AA9 
 348      5A883E47 
 348      6C7A1A29 
 348      B86A0375 
 349 11dc 9A255585 		.ascii	"\232%U\205\2420S\365\246l\213\324\370j\003\323\204\220"
 349      A23053F5 
 349      A66C8BD4 
 349      F86A03D3 
 349      8490
 350 11ee 14AA99D2 		.ascii	"\024\252\231\322\013\\3:\005\355-\003\213P!\326\212"
 350      0B5C333A 
 350      05ED2D03 
 350      8B5021D6 
 350      8A
 351 11ff 3530314E 		.ascii	"501N\201V`\361\244}/B\233P\205z\206\312\332p\270\312"
 351      815660F1 
 351      A47D2F42 
 351      9B50857A 
 351      86CADA70 
 352 1215 53AD5829 		.ascii	"S\255X)|\207\247\325\210\021w5Z\331`GF\253\322\004*"
 352      7C87A7D5 
 352      88117735 
 352      5AD96047 
 352      46ABD204 
 353 122a EBABDA2D 		.ascii	"\353\253\332-\210@\214\2105\345  \267R\345\003\247%"
 353      88408C88 
 353      35E52020 
 353      B752E503 
ARM GAS  /tmp/ccQfZ6RW.s 			page 28


 353      A725
 354 123c F36A40C2 		.ascii	"\363j@\302\371\003|\\\233?H\221'?\371\"\365\301j\201"
 354      F9037C5C 
 354      9B3F4891 
 354      273FF922 
 354      F5C16A81 
 355 1250 88D52769 		.ascii	"\210\325'i\245\221N\347`\314G\016\254\257\207\260P\015"
 355      A5914EE7 
 355      60CC470E 
 355      ACAF87B0 
 355      500D
 356 1262 12071CA0 		.ascii	"\022\007\034\240\353\311t0\300sN\301\230\322\342R\000"
 356      EBC97430 
 356      C0734EC1 
 356      98D2E252 
 356      00
 357 1273 507A560C 		.ascii	"PzV\014\314\315\253'\223p\337\3021#\002\245\240^\241"
 357      CCCDAB27 
 357      9370DFC2 
 357      312302A5 
 357      A05EA1
 358 1286 3A50065E 		.ascii	":P\006^S(Vp\005%\374\330\302\262\022\327\370\021%\374"
 358      53285670 
 358      0525FCD8 
 358      C2B212D7 
 358      F81125FC 
 359 129a 985C92E5 		.ascii	"\230\\\222\345\215(q\215,(qG\261!\037\252(\217\270C"
 359      8D28718D 
 359      2C287147 
 359      B1211FAA 
 359      288FB843 
 360 12ae D1CA5085 		.ascii	"\321\312P\205\344\213\212U\025\241\232\240X\357\236"
 360      E48B8A55 
 360      15A19AA0 
 360      58EF9E
 361 12bd 2A964BE1 		.ascii	"*\226K\341H\337\004e\001\2455LB\360\020\251'\271TO\302"
 361      48DF0465 
 361      01A5354C 
 361      42F010A9 
 361      27B9544F 
 362 12d2 A43690AB 		.ascii	"\2446\220\253\240$\017R>?nDI\036\311\362\271\302\022"
 362      A0240F52 
 362      3E3F6E44 
 362      491EC9F2 
 362      B9C212
 363 12e5 57295496 		.ascii	"W)T\226\226\344\273\012\012J2\312J\212K\213\370\221"
 363      96E4BB0A 
 363      0A4A32CA 
 363      4A8A4B8B 
 363      F891
 364 12f7 A3811890 		.ascii	"\243\201\030\220\260\217\314L\241jb\227\344+\\'\361"
 364      B08FCC4C 
 364      A16A6297 
 364      E42B5C27 
 364      F1
 365 1308 C47A33A4 		.ascii	"\304z3\244\372\247\353*2\"$\357\253\305\346\312P\345"
 365      FAA7EB2A 
ARM GAS  /tmp/ccQfZ6RW.s 			page 29


 365      322224EF 
 365      ABC5E6CA 
 365      50E5
 366 131a A0DC01B9 		.ascii	"\240\334\001\271\217\2273\335\252 l\251E\320\237\022"
 366      8F9733DD 
 366      AA206CA9 
 366      45D09F12 
 367 132a BFBD0801 		.ascii	"\277\275\010\001Z\365F\324B\226\326$T\023\222\\\360"
 367      5AF546D4 
 367      4296D624 
 367      5413925C 
 367      F0
 368 133b E00E228C 		.ascii	"\340\016\"\214w\262\020\025G\200>3\002O\203\205%\232"
 368      77B21015 
 368      47803E33 
 368      024F8385 
 368      259A
 369 134d 45A570AD 		.ascii	"E\245p\255\207d\300\337O\264Jb\032\243\352\252C\301"
 369      8764C0DF 
 369      4FB44A62 
 369      1AA3EAAA 
 369      43C1
 370 135f 9034DD5B 		.ascii	"\2204\335[\251\026~F\377Z&V\327\212\021A\252\213\210"
 370      A9167E46 
 370      FF5A2656 
 370      D78A1141 
 370      AA8B88
 371 1372 BC04E5EC 		.ascii	"\274\004\345\354\344\222\201\014\234M\257 \302\265\377"
 371      E492810C 
 371      9C4DAF20 
 371      C2B5FF
 372 1381 075610FF 		.ascii	"\007V\020\377k"
 372      6B
 373              		.text
 374              		.section	.gnu.lto_.symtab.8c36fdb2878708f2,"",%progbits
 375 0000 68696836 		.ascii	"hih6030_init\000\000\000\000\000\000\000\000\000\000"
 375      3033305F 
 375      696E6974 
 375      00000000 
 375      00000000 
 376 0016 00001D02 		.ascii	"\000\000\035\002\000\000hih6030_stop\000\000\000\000"
 376      00006869 
 376      68363033 
 376      305F7374 
 376      6F700000 
 377 002c 00000000 		.ascii	"\000\000\000\000\000\000\000\000:\002\000\000hih603"
 377      00000000 
 377      3A020000 
 377      68696836 
 377      3033
 378 003e 305F7265 		.ascii	"0_readHumidity\000\000\000\000\000\000\000\000\000\000"
 378      61644875 
 378      6D696469 
 378      74790000 
 378      00000000 
 379 0056 00004602 		.ascii	"\000\000F\002\000\000hih6030_readTemperature\000\000"
 379      00006869 
ARM GAS  /tmp/ccQfZ6RW.s 			page 30


 379      68363033 
 379      305F7265 
 379      61645465 
 380 0075 00000000 		.ascii	"\000\000\000\000\000\000\000\000\000\000O\002\000\000"
 380      00000000 
 380      00004F02 
 380      0000
 381 0083 49324353 		.ascii	"I2CSensor_init\000\000\002\000\000\000\000\000\000\000"
 381      656E736F 
 381      725F696E 
 381      69740000 
 381      02000000 
 382 009b 00005502 		.ascii	"\000\000U\002\000\000I2CSensor_stop\000\000\002\000"
 382      00004932 
 382      4353656E 
 382      736F725F 
 382      73746F70 
 383 00b3 00000000 		.ascii	"\000\000\000\000\000\000\000\000a\002\000\000"
 383      00000000 
 383      61020000 
 384              		.text
 385              		.section	.gnu.lto_.opts,"",%progbits
 386 0000 272D6D63 		.ascii	"'-mcpu=cortex-m4' '-mfloat-abi=hard' '-mfpu=fpv4-sp"
 386      70753D63 
 386      6F727465 
 386      782D6D34 
 386      2720272D 
 387 0033 2D643136 		.ascii	"-d16' '-mno-thumb-interwork' '-mthumb' '-O2' '-fomi"
 387      2720272D 
 387      6D6E6F2D 
 387      7468756D 
 387      622D696E 
 388 0066 742D6672 		.ascii	"t-frame-pointer' '-falign-functions=16' '-ffunction"
 388      616D652D 
 388      706F696E 
 388      74657227 
 388      20272D66 
 389 0099 2D736563 		.ascii	"-sections' '-fdata-sections' '-fno-common' '-flto' "
 389      74696F6E 
 389      73272027 
 389      2D666461 
 389      74612D73 
 390 00cc 272D6673 		.ascii	"'-fsingle-precision-constant'\000"
 390      696E676C 
 390      652D7072 
 390      65636973 
 390      696F6E2D 
 391              		.text
 392              		.section	.text.hih6030_init,"ax",%progbits
 393              		.align	2
 394              		.p2align 4,,15
 395              		.global	hih6030_init
 396              		.thumb
 397              		.thumb_func
 398              		.type	hih6030_init, %function
 399              	hih6030_init:
 400              		@ args = 0, pretend = 0, frame = 0
ARM GAS  /tmp/ccQfZ6RW.s 			page 31


 401              		@ frame_needed = 0, uses_anonymous_args = 0
 402 0000 70B5     		push	{r4, r5, r6, lr}
 403 0002 84B0     		sub	sp, sp, #16
 404 0004 00F12406 		add	r6, r0, #36
 405 0008 2825     		movs	r5, #40
 406 000a 054C     		ldr	r4, .L2
 407 000c 0096     		str	r6, [sp]
 408 000e 00F12003 		add	r3, r0, #32
 409 0012 0195     		str	r5, [sp, #4]
 410 0014 0294     		str	r4, [sp, #8]
 411 0016 FFF7FEFF 		bl	I2CSensor_init
 412 001a 04B0     		add	sp, sp, #16
 413              		@ sp needed
 414 001c 70BD     		pop	{r4, r5, r6, pc}
 415              	.L3:
 416 001e 00BF     		.align	2
 417              	.L2:
 418 0020 00000000 		.word	.LC0
 419              		.size	hih6030_init, .-hih6030_init
 420 0024 AFF30080 		.section	.text.hih6030_stop,"ax",%progbits
 420      AFF30080 
 420      AFF30080 
 421              		.align	2
 422              		.p2align 4,,15
 423              		.global	hih6030_stop
 424              		.thumb
 425              		.thumb_func
 426              		.type	hih6030_stop, %function
 427              	hih6030_stop:
 428              		@ args = 0, pretend = 0, frame = 0
 429              		@ frame_needed = 0, uses_anonymous_args = 0
 430              		@ link register save eliminated.
 431 0000 FFF7FEBF 		b	I2CSensor_stop
 432              		.size	hih6030_stop, .-hih6030_stop
 433 0004 AFF30080 		.section	.text.hih6030_readHumidity,"ax",%progbits
 433      AFF30080 
 433      AFF30080 
 434              		.align	2
 435              		.p2align 4,,15
 436              		.global	hih6030_readHumidity
 437              		.thumb
 438              		.thumb_func
 439              		.type	hih6030_readHumidity, %function
 440              	hih6030_readHumidity:
 441              		@ args = 0, pretend = 0, frame = 0
 442              		@ frame_needed = 0, uses_anonymous_args = 0
 443              		@ link register save eliminated.
 444 0000 0020     		movs	r0, #0
 445 0002 7047     		bx	lr
 446              		.size	hih6030_readHumidity, .-hih6030_readHumidity
 447 0004 AFF30080 		.section	.text.hih6030_readTemperature,"ax",%progbits
 447      AFF30080 
 447      AFF30080 
 448              		.align	2
 449              		.p2align 4,,15
 450              		.global	hih6030_readTemperature
 451              		.thumb
ARM GAS  /tmp/ccQfZ6RW.s 			page 32


 452              		.thumb_func
 453              		.type	hih6030_readTemperature, %function
 454              	hih6030_readTemperature:
 455              		@ args = 0, pretend = 0, frame = 0
 456              		@ frame_needed = 0, uses_anonymous_args = 0
 457              		@ link register save eliminated.
 458 0000 0020     		movs	r0, #0
 459 0002 7047     		bx	lr
 460              		.size	hih6030_readTemperature, .-hih6030_readTemperature
 461 0004 AFF30080 		.section	.rodata.str1.4,"aMS",%progbits,1
 461      AFF30080 
 461      AFF30080 
 462              		.align	2
 463              	.LC0:
 464 0000 48494836 		.ascii	"HIH6030\000"
 464      30333000 
 465              		.comm	__gnu_lto_v1,1,1
 466              		.ident	"GCC: (GNU Tools for ARM Embedded Processors) 4.8.4 20140526 (release) [ARM/embedded-4_8-br
ARM GAS  /tmp/ccQfZ6RW.s 			page 33

