ARM GAS  /tmp/ccPNIPWS.s 			page 1


   1              		.syntax unified
   2              		.cpu cortex-m4
   3              		.eabi_attribute 27, 3
   4              		.eabi_attribute 28, 1
   5              		.fpu fpv4-sp-d16
   6              		.eabi_attribute 20, 1
   7              		.eabi_attribute 21, 1
   8              		.eabi_attribute 23, 3
   9              		.eabi_attribute 24, 1
  10              		.eabi_attribute 25, 1
  11              		.eabi_attribute 26, 1
  12              		.eabi_attribute 30, 2
  13              		.eabi_attribute 34, 1
  14              		.eabi_attribute 18, 4
  15              		.thumb
  16              		.file	"i2c.c"
  17              		.section	.gnu.lto_.jmpfuncs.3d9ebe663ec96c6a,"",%progbits
  18 0000 789C8DCE 		.ascii	"x\234\215\316\275\021\2000\010\005\340\367\200$:\205"
  18      BD118030 
  18      0805E0F7 
  18      80243A85 
  19 0010 AB3886A5 		.ascii	"\2538\206\245m\026H\3532\016*\021\177\032\013\271#\037"
  19      6D1648EB 
  19      320E2A11 
  19      7F1A0BB9 
  19      231F
  20 0022 DC050E81 		.ascii	"\334\005\016\201\340+\366\313\321\223\244\255\225\275"
  20      E02BF6CB 
  20      D193A4AD 
  20      95BD
  21 0030 157594FE 		.ascii	"\025u\224\376\030\323V \304\302J*\346\256\357R\377\337"
  21      18D35620 
  21      C4C24A2A 
  21      E6AEEF52 
  21      FFDF
  22 0042 4E24D0C0 		.ascii	"N$\320\300\202\024d'O\351\231\267_\363\345>\204\030"
  22      82146427 
  22      4FE999B7 
  22      5FF3E53E 
  22      8418
  23 0054 DE120712 		.ascii	"\336\022\007\022\207\014q"
  23      870C71
  24              		.text
  25              		.section	.gnu.lto_.inline.3d9ebe663ec96c6a,"",%progbits
  26 0000 789C6362 		.ascii	"x\234cb`b\300\006\204\031!4'\003\003\013\017#X\021\333"
  26      6062C006 
  26      84192134 
  26      2703030B 
  26      0F235811 
  27 0015 0279B05A 		.ascii	"\002y\260ZF.\020\301\300\316\317\310\310\000R\305\304"
  27      462E10C1 
  27      C0CECFC8 
  27      C80052C5 
  27      C4
  28 0026 74819F81 		.ascii	"t\201\237\201\343\203\036X\222\211\033(7\301\217\211"
  28      E3831E58 
  28      92891B28 
ARM GAS  /tmp/ccPNIPWS.s 			page 2


  28      37C18F89 
  29 0036 815310A8 		.ascii	"\201S\020\250\213\355\203\036\272\0143\003\207\000P"
  29      8BED831E 
  29      BA0C3303 
  29      870050
  30 0045 86B5439D 		.ascii	"\206\265C\235\201\275C\035Y\206\205\201\205\031b$\263"
  30      81BD431D 
  30      59868581 
  30      85196224 
  30      B3
  31 0056 030BCC3E 		.ascii	"\003\013\314>\306\027\354,\020\022\244\222\225AD\032"
  31      C617EC2C 
  31      1012A492 
  31      9541441A 
  32 0066 A899E77B 		.ascii	"\250\231\347{(\003\327u3\260fN!\006\006\366\011~\310"
  32      2803D775 
  32      33B0664E 
  32      210606F6 
  32      097EC8
  33 0079 908D4148 		.ascii	"\220\215AH\022M\025\273\000P3B\005;\003+/\314\365H>"
  33      124D15BB 
  33      00503342 
  33      053B032B 
  33      2FCCF548 
  34 008e 833A8403 		.ascii	"\203:\204\003\257,\003\000)\214 \201"
  34      AF2C0300 
  34      298C2081 
  35              		.text
  36              		.section	.gnu.lto_.pureconst.3d9ebe663ec96c6a,"",%progbits
  37 0000 789C6362 		.ascii	"x\234cb`b\020f\200\000N\006\011F)&+f+\026VV+6+v\011"
  37      60621066 
  37      80004E06 
  37      09462926 
  37      2B662B16 
  38 001b 0E090010 		.ascii	"\016\011\000\020\006\001\224"
  38      060194
  39              		.text
  40              		.section	.gnu.lto_i2cInit.3d9ebe663ec96c6a,"",%progbits
  41 0000 789C6362 		.ascii	"x\234cb`b@\007\222@\\\015\304\006@\314\310\314\300\310"
  41      60624007 
  41      92405C0D 
  41      C40640CC 
  41      C8CCC0C8 
  42 0014 34E11C03 		.ascii	"4\341\034\003C#\007\023##\210\301\300\310P\317\304X"
  42      43230713 
  42      232388C1 
  42      C0C850CF 
  42      C458
  43 0026 1FC90856 		.ascii	"\037\311\010V\273\236\351\300\203\377\377\327\375\333"
  43      BB9EE9C0 
  43      83FFFFD7 
  43      FDDB
  44 0034 F8B08B51 		.ascii	"\370\260\213Q\220\031(\300\312\320\322\3200A\201\201"
  44      901928C0 
  44      CAD0D2D0 
  44      30418181 
  45 0044 2119AC20 		.ascii	"!\031\254 \004H\202t\20522\201h\346\363\014\315\017"
ARM GAS  /tmp/ccPNIPWS.s 			page 3


  45      04488274 
  45      85323281 
  45      68E6F30C 
  45      CD0F
  46 0056 3A1FB327 		.ascii	":\037\263'2.dd\005[\363\253\241\243A \223\021\250\034"
  46      322E6464 
  46      055BF3AB 
  46      A1A34120 
  46      9311A81C 
  47 006a 62602688 		.ascii	"b`&\210\276\310\320\370\240K\031\246\010\002B\200\022"
  47      BEC8D0F8 
  47      A04B19A6 
  47      08024280 
  47      12
  48 007b 401340CE 		.ascii	"@\023@\316\325\323\317\310\317M\325O\316O\251\324OI"
  48      D5D3CFC8 
  48      CF4DD54F 
  48      CE4FA9D4 
  48      4F49
  49 008d 2DD34FCE 		.ascii	"-\323O\316\310L\312\314/\326/)*\315\313\326\00722\022"
  49      C84CCACC 
  49      2FD62F29 
  49      2ACDCBD6 
  49      07323212 
  50 00a1 73F48B8B 		.ascii	"s\364\213\213\222\3653\215\222\365\222\031\000\334@"
  50      92F5338D 
  50      92F59219 
  50      00DC40
  51 00b0 32AC     		.ascii	"2\254"
  52              		.text
  53              		.section	.gnu.lto_i2cObjectInit.3d9ebe663ec96c6a,"",%progbits
  54 0000 789C8D50 		.ascii	"x\234\215P=K\003A\020}\263\227S;m\355\004K\341\026\364"
  54      3D4B0341 
  54      107DB397 
  54      533B6DED 
  54      044BE116 
  55 0015 AF44D032 		.ascii	"\257D\3202\331\013\271%\306\203\\\024b\212\\4\205\215"
  55      D90BB925 
  55      C6835C14 
  55      628A5C34 
  55      858D
  56 0027 903A5636 		.ascii	"\220:V6\012)L')\257\262\021\277\300\"e\254\304N\260"
  56      0A294C27 
  56      29AFB211 
  56      BFC02265 
  56      ACC44EB0 
  57 003b 0B429CBD 		.ascii	"\013B\234\275\215A\344\012\007v\336\354\316\274y\263"
  57      8D41E40A 
  57      0776DEEC 
  57      CEBC79B3 
  58 004b 2320F0D7 		.ascii	"# \360\327V\371T\010\360\031\311\001\211\356\003\320"
  58      56F95408 
  58      F019C901 
  58      89EE03D0 
  59 005b 5E124426 		.ascii	"^\022D&\000\241%\250\265Ki\355@$\343\351\364\372\346"
  59      00A125A8 
  59      B54B69ED 
ARM GAS  /tmp/ccPNIPWS.s 			page 4


  59      4024E3E9 
  59      F4FAE6
  60 006e F6F28B7A 		.ascii	"\366\362\213z\202k\252\004\027:M\272\350\304qw\015P"
  60      826BAA04 
  60      173A4DBA 
  60      E8C47177 
  60      0D50
  61 0080 E935CFDE 		.ascii	"\3515\317\3364\330&a\320\271\307\361p\370\226\210\002"
  61      34D82661 
  61      D0B9C7F1 
  61      70F89688 
  61      02
  62 0091 5D908B0D 		.ascii	"]\220\213\015\364c\266eMt\216\036i\022e\022;\214N\252"
  62      F463B665 
  62      4D748E1E 
  62      69126512 
  62      3B8C4EAA 
  63 00a5 53B47230 		.ascii	"S\264r0/db\303\036e\260s\331l\232\263s\260\354\311\311"
  63      2F6462C3 
  63      1E65B073 
  63      D96C9AB3 
  63      73B0ECC9 
  64 00ba D59967D9 		.ascii	"\325\231g\331er\2338\342\241gm\032\232\334\3546\277"
  64      65729B38 
  64      E2A1676D 
  64      1A9ADCEC 
  64      36BF
  65 00cc 96F588CE 		.ascii	"\226\365\210\316\307\373\350\363I\314\277i\203\344\356"
  65      C7FBE8F3 
  65      49CCBF69 
  65      83E4EE
  66 00db E5D5056C 		.ascii	"\345\325\005lg5\023F\023\223\3704^\321\264\240\210g"
  66      67351346 
  66      1393F834 
  66      5ED1B4A0 
  66      8867
  67 00ed EE738E8D 		.ascii	"\356s\216\215\2055-\002\317h\217\007\353\226\362cy\246"
  67      85352D02 
  67      CF688F07 
  67      EB96F263 
  67      79A6
  68 00ff F29A8CA2 		.ascii	"\362\232\214\242'\203\260Z\222*\364\033\322/\035J\025"
  68      2783B05A 
  68      922AF41B 
  68      D22F1D4A 
  68      15
  69 0110 E8A20E23 		.ascii	"\350\242\016#Y\257\035\354W$\007AaOF5%\365\246\362\024"
  69      59AF1DEC 
  69      57240741 
  69      614F4635 
  69      25F5A6F2 
  70 0125 B6FE531E 		.ascii	"\266\376S\036F\354j\365\024\275\000\337\257NzM"
  70      46EC6AF5 
  70      14BD00DF 
  70      AF4E7A4D 
  71              		.text
  72              		.section	.gnu.lto_i2cStart.3d9ebe663ec96c6a,"",%progbits
ARM GAS  /tmp/ccPNIPWS.s 			page 5


  73 0000 789C8D50 		.ascii	"x\234\215P=K\003A\020}\263\227h\320\302\224\332\204"
  73      3D4B0341 
  73      107DB397 
  73      68D0C294 
  73      DA84
  74 0012 3482A064 		.ascii	"4\202\240d\305_ \010\202E\032\243\240\225\\6\207Y\314"
  74      C55F2008 
  74      82451AA3 
  74      A0955C36 
  74      8759CC
  75 0025 257249C4 		.ascii	"%rI\304`\221\313\007b\243\210X\210b!\010\202\205\266"
  75      6091CB07 
  75      62A38858 
  75      88622108 
  75      8285B6
  76 0038 82166263 		.ascii	"\202\026bc\341\027v\012\026\001+;mDl\364\366.F\011\202"
  76      E117760A 
  76      16012B3B 
  76      6D446CF4 
  76      F62E4609 
  77 004d 0EECCEC0 		.ascii	"\016\354\316\300\274\231\367\336004G\227\363v\011Xv"
  77      BC99F7DE 
  77      30303447 
  77      97F37609 
  77      5876
  78 005f 326920B6 		.ascii	"2i \266z\015\224\002\214H\025 \024\031\025'\311\305"
  78      7A0D9402 
  78      8C481520 
  78      14191527 
  78      C9C5
  79 0071 1EB2D3DA 		.ascii	"\036\262\323\332\307\307\301\332\371\311%m\263v\215"
  79      C7C7C1DA 
  79      F9C9256D 
  79      B3768D
  80 0080 4C82CFF9 		.ascii	"L\202\317\371T\327\217\252m\257\206\001\341b\307\234"
  80      54D78FAA 
  80      6DAF8601 
  80      E162C79C 
  81 0090 5F2D1827 		.ascii	"_-\030'\246\262v\215\362\313\323\372cg\003\246\323\016"
  81      A6B2768D 
  81      F2CBD3FA 
  81      636703A6 
  81      D30E
  82 00a2 F9E13210 		.ascii	"\371\3412\020,M)\323<y!Th\333\336\030\224\036\351\004"
  82      2C4D29D3 
  82      3C792154 
  82      68DBDE18 
  82      941EE904 
  83 00b6 49A2B0AA 		.ascii	"I\242\260\252\032\375\305z\277\356\346\012\345\213\207"
  83      1AFDC57A 
  83      BFEEE60A 
  83      E58B87
  84 00c5 DA4A8FB7 		.ascii	"\332J\217\267\262\027\373\266\023\035\222\264-l:\303"
  84      B217FBB6 
  84      131D92B4 
  84      2D6C3AC3 
  85 00d5 BE69D2D4 		.ascii	"\276i\322\324\022\227\015qo+\246\311\007\334\240Z\273"
ARM GAS  /tmp/ccPNIPWS.s 			page 6


  85      12970D71 
  85      6F2BA6C9 
  85      07DCA05A 
  85      BB
  86 00e6 AFB47D69 		.ascii	"\257\264}iY\300\273\275d\007%\265\010\242:J\223\324"
  86      59C0BBBD 
  86      640725B5 
  86      08A23A4A 
  86      93D4
  87 00f8 EA521CDD 		.ascii	"\352R\034\335\275\276Q3E\340w\212o\345\001\245\361?"
  87      BDBE5133 
  87      45E0778A 
  87      6FE501A5 
  87      F13F
  88 010a E675DA75 		.ascii	"\346u\332u\316\357\232\305\017\263:\355Q\310S|\213\322"
  88      CEEF9AC5 
  88      0FB33AED 
  88      51C8537C 
  88      8BD2
  89 011c F3D9B1AF 		.ascii	"\363\331\261\2571\013\357\316\244\356\253\260\021\236"
  89      310BEFCE 
  89      A4EEABB0 
  89      119E
  90 012a CC980617 		.ascii	"\314\230\006\027\231D\201'\2149.\2222.3Y\236\263\362"
  90      99448127 
  90      8C392E92 
  90      322E3359 
  90      9EB3F2
  91 013d E919EE14 		.ascii	"\351\031\356\024I=\305\263\226\340r@D\004\006\377\202"
  91      493DC5B3 
  91      96E07240 
  91      440406FF 
  91      82
  92 014e 1BF3393E 		.ascii	"\033\3639>\024\215\215\304\270L\213T>\241\260\2261%"
  92      148D8DC4 
  92      B84C8B54 
  92      3EA1B096 
  92      3125
  93 0160 CCE17C5A 		.ascii	"\314\341|ZD\222\010Fc\243\341\270\2365f-\331\027\356"
  93      44920846 
  93      63A3E1B8 
  93      9E35662D 
  93      D917EE
  94 0173 EE07B3D0 		.ascii	"\356\007\263\320j\032f\306*\340\023\004\022\211m"
  94      6A1A66C6 
  94      2AE01304 
  94      12896D
  95              		.text
  96              		.section	.gnu.lto_i2cStop.3d9ebe663ec96c6a,"",%progbits
  97 0000 789C8D50 		.ascii	"x\234\215P\261J\003A\020\235\331\315\031\255L\251M\270"
  97      B14A0341 
  97      109DD9CD 
  97      19AD4CA9 
  97      4DB8
  98 0012 C64AC98A 		.ascii	"\306J\311\212_\020\020\004\2134FA+\271l\016o1\227\223"
  98      5F101004 
  98      8B344641 
ARM GAS  /tmp/ccPNIPWS.s 			page 7


  98      2BB96C0E 
  98      6F319793 
  99 0026 4B220685 		.ascii	"K\"\006\205\\b\020\033!\205\205(\022\004A\261\320\326"
  99      5C62101B 
  99      21858528 
  99      120441B1 
  99      D0D6
 100 0038 2E626365 		.ascii	".bce\304\326J\260\262\213\226\"\304\335\333\030\304"
 100      C4D64AB0 
 100      B28B9622 
 100      C4DDDB18 
 100      C4
 101 0049 460776E7 		.ascii	"F\007v\347\261\363\336\233\331!@\340w\214\312\303\021"
 101      B1F3DE9B 
 101      D92140E0 
 101      778CCAC3 
 101      11
 102 005a 604F66A4 		.ascii	"`Of\244\200\244\321\006\250\016\022D\005\000\241B\260"
 102      80A4D106 
 102      A80E1244 
 102      0500A142 
 102      B0
 103 006b B28421F7 		.ascii	"\262\204!\367\212\334<w\273\227Ow\315Ol\222!\212n\370"
 103      8ADC3C77 
 103      BB974F77 
 103      CD4F6C92 
 103      218A6EF8 
 104 007f 6E403D08 		.ascii	"n@=\010\032\246\366\001\230\227\267\322. Q\231\266\241"
 104      1AA6F601 
 104      9897B7D2 
 104      2E205199 
 104      B6A1
 105 0091 F6F6BAFF 		.ascii	"\366\366\272\3772\322\247Yx\202\006\204\346\010>UCQ"
 105      32D2A759 
 105      78820684 
 105      E6083E55 
 105      4351
 106 00a3 3D591CB6 		.ascii	"=Y\034\266\36188H\012\335o\021\005\242\251P\277\276"
 106      F1383848 
 106      0ADD6F11 
 106      05A2A950 
 106      BFBE
 107 00b5 D3ABF73E 		.ascii	"\323\253\367>\362\000\365\316mk\353\333q\023>\202\335"
 107      F200F5CE 
 107      6D6BEBDB 
 107      71133E82 
 107      DD
 108 00c6 20269072 		.ascii	" &\220r\324\026+H\005F\000\356\241v}^\321\274q\270\010"
 108      D4162B48 
 108      054600EE 
 108      A1767D5E 
 108      D1BC71B8 
 109 00db 640C0B34 		.ascii	"d\014\0134\216\340P\366\030\220,\325+\032J2Z\031v7\024"
 109      8EE050F6 
 109      18902CD5 
 109      2B1A4A32 
 109      5A197637 
ARM GAS  /tmp/ccPNIPWS.s 			page 8


 110 00f0 FECF072C 		.ascii	"\376\317\007,<\225\333\013\007\206\037\003[x\206qm\367"
 110      3C95DB0B 
 110      07861F03 
 110      5B788671 
 110      6DF7
 111 0102 08D5CE7B 		.ascii	"\010\325\316{+\322\327\202\336\025\252\035)n\2029\236"
 111      2BD2D782 
 111      DE15AA1D 
 111      296E8239 
 111      9E
 112 0113 6B33EE65 		.ascii	"k3\356e\313,k\2573\356\210\214\360\012\254\350\227\362"
 112      CB2C6BAF 
 112      33EE888C 
 112      F00AACE8 
 112      97F2
 113 0125 AB4C02C7 		.ascii	"\253L\002\307\312\261\202\317\231\230\342\011\016\311"
 113      CAB182CF 
 113      9998E209 
 113      0EC9
 114 0133 BFE8F646 		.ascii	"\277\350\366F\221M\247\322\263i&\362<W\312*\256o/sw"
 114      914DA7D2 
 114      B36926F2 
 114      3C57CA2A 
 114      AE6F2F73 
 115 0148 A694E709 		.ascii	"\246\224\347\011\007b\251\364\234\231\261\012\366\232"
 115      0762A9F4 
 115      9C99B10A 
 115      F69A
 116 0156 2F26CCB1 		.ascii	"/&\314\261I >D]\333\365\3742|\001j({\270"
 116      49203E44 
 116      5DDBF5FC 
 116      327C016A 
 116      287BB8
 117              		.text
 118              		.section	.gnu.lto_i2cGetErrors.3d9ebe663ec96c6a,"",%progbits
 119 0000 789C6362 		.ascii	"x\234cb`b@\007\222@<\023\210\015\200\230\221\231\201"
 119      60624007 
 119      92403C13 
 119      880D8098 
 119      919981
 120 0013 9169C239 		.ascii	"\221i\3029\006\206F\016&FF\020\203\201\221\241\236\211"
 120      0686460E 
 120      26464610 
 120      838191A1 
 120      9E89
 121 0025 B13E9211 		.ascii	"\261>\222\021\254v=\323\201\007\377\377\257\333\324"
 121      AC763DD3 
 121      8107FFFF 
 121      AFDBD4
 122 0034 B5F60DE3 		.ascii	"\265\366\015\343J&\026&\306\\F\006f\206L\260$+CKC\303"
 122      4A261626 
 122      C65C4606 
 122      66864CB0 
 122      242B434B 
 123 004a 04050686 		.ascii	"\004\005\006\206d07\004H\202\014\010ed\002\321\314g"
 123      64303704 
 123      48820C08 
ARM GAS  /tmp/ccPNIPWS.s 			page 9


 123      656402D1 
 123      CC67
 124 005c 199A6EED 		.ascii	"\031\232n\355X.\231\310\270\220\221\225!\235\221Y\233"
 124      582E99C8 
 124      B8909195 
 124      219D9159 
 124      9B
 125 006d 61550310 		.ascii	"aU\003\020\230\0025\317f\230\305\230\311\310\230\316"
 125      980235CF 
 125      6698C598 
 125      C9C898CE 
 126 007d C81401A4 		.ascii	"\310\024\001\244!.Lb\204\271\357\"C\343\001f\2706\210"
 126      212E4C62 
 126      84B9EF22 
 126      43E30166 
 126      B83688
 127 0090 58082323 		.ascii	"X\010##\310P\220R=\375\214\374\334T\375\344\374\224"
 127      C8509052 
 127      3DFD8CFC 
 127      DC54FDE4 
 127      FC94
 128 00a2 4AFD94D4 		.ascii	"J\375\224\3242\375\344\214\314\244\314\374b\375\222"
 128      32FDE48C 
 128      CCA4CCFC 
 128      62FD92
 129 00b1 A2D2BC6C 		.ascii	"\242\322\274l} ##1G\277\270(Y?\323(Y/\231\001\000x\242"
 129      7D202323 
 129      3147BFB8 
 129      28593FD3 
 129      28592F99 
 130 00c9 3666     		.ascii	"6f"
 131              		.text
 132              		.section	.gnu.lto_i2cMasterTransmitTimeout.3d9ebe663ec96c6a,"",%progbits
 133 0000 789C9D51 		.ascii	"x\234\235Q=h\024Q\020\236y\373s\277\344\002ZX\205E\020"
 133      3D681451 
 133      109E79FB 
 133      73BFE402 
 133      5A588545 
 134 0015 04E59E9A 		.ascii	"\004\345\236\232VB@\020,\322x\011h%{\357\226\335\305"
 134      56424010 
 134      2CD27809 
 134      68257BEF 
 134      96DDC5
 135 0028 EC9DEEE5 		.ascii	"\354\235\356\345\304\303\342^B\012Q\003)\002\306\210"
 135      C4C3E25E 
 135      420A5103 
 135      2902C688 
 136 0038 60100545 		.ascii	"`\020\005E\320Rl\214\"\304+\214\330YD\014Iacc\247\""
 136      D0526C8C 
 136      22C42B8C 
 136      D859440C 
 136      49616363 
 137 004e ACF376EF 		.ascii	"\254\363v\357V\023\004\203\263\354\274y\363\346\373"
 137      56130483 
 137      B3ECBC79 
 137      F3E6FB
 138 005d E6638601 		.ascii	"\346c\206\001\203\235v\234\376MJ/\320\211& \233_\003"
ARM GAS  /tmp/ccPNIPWS.s 			page 10


 138      839D769C 
 138      FE4D4A2F 
 138      D0892620 
 138      9B5F03
 139 0070 98CE32A6 		.ascii	"\230\3162\246\255\226@\346\365\356\010\310\242\206F"
 139      AD9640E6 
 139      F5EE08C8 
 139      A28646
 140 007f 92D6FB81 		.ascii	"\222\326\373\201\201\250\002@\3500M7\260s\026\025\033"
 140      81A80240 
 140      E8304D37 
 140      B0731615 
 140      1B
 141 0090 EE876529 		.ascii	"\356\207e)\3477\356?\357\342-\2712{W\376\214\"D\037"
 141      E737EE3F 
 141      EFE22DB9 
 141      327B57FE 
 141      8C22441F 
 142 00a4 A9F35104 		.ascii	"\251\363Q\004\201p\206.h\305\007\323\267Ky\302V6\242"
 142      8170862E 
 142      68C507D3 
 142      B74B79C2 
 142      5636A2
 143 00b7 E8C6C7C7 		.ascii	"\350\306\307\307[s\270g\257\216\001B\206\034f\311\261"
 143      5B73B867 
 143      AF8E0142 
 143      861C66C9 
 143      B1
 144 00c8 1C392D4F 		.ascii	"\0349-ON/\2203\212\344\314\001\260q\231Z\222\0310K}"
 144      4E2F9033 
 144      8AE4CC01 
 144      B071995A 
 144      9219304B 
 145 00dd ADFE5DC4 		.ascii	"\255\376]\304j\306\311+\225\023\310\324\251\255\301"
 145      6AC6C92B 
 145      9513C8D4 
 145      A9ADC1
 146 00ec CCD76F0B 		.ascii	"\314\327o\013[\373z\305@\360{h\304\272\351kkj<Z2\243"
 146      5BFB7AC5 
 146      40F07B68 
 146      C4BAE96B 
 146      6B6A3C5A 
 147 0102 21B88677 		.ascii	"!\270\206w\344\342\250\217\232\272*\271\272\245\242"
 147      E4E2A88F 
 147      9ABA2AB9 
 147      BAA5A2
 148 0111 F47DAEF7 		.ascii	"\364}\256\367n$\342\337\302\314\263\365/7\017&\224\207"
 148      6E24E2DF 
 148      C2CCB3F5 
 148      2F370F26 
 148      9487
 149 0123 E091242B 		.ascii	"\340\221$+\371h\336\206%\002g\\\324\025I6.\256b\002"
 149      F968DE86 
 149      2502675C 
 149      D4154936 
 149      2EAE6202 
 150 0137 5219B38F 		.ascii	"R\031\263\217^|\361\035w\242s\177Gc\212\316)y\357`I"
ARM GAS  /tmp/ccPNIPWS.s 			page 11


 150      5E7CF11D 
 150      77A2737F 
 150      47638ACE 
 150      2979EF60 
 151 014c AE7FF212 		.ascii	"\256\177\362\022\260\213\003W\340\207\274*\007}\314"
 151      B08B0357 
 151      E087BC2A 
 151      077DCC
 152 015b 8B5E29E1 		.ascii	"\213^)\341]\305\222u1\347b\336\305\202\213E\037\013"
 152      5DC59275 
 152      31E762DE 
 152      C5828B45 
 152      1F0B
 153 016d 006FE0F5 		.ascii	"\000o\340\365\347\227\321u-\005+\326b\3247\354\374\336"
 153      E797D175 
 153      2D052BD6 
 153      62D437EC 
 153      FCDE
 154 017f CF04CD62 		.ascii	"\317\004\315b\265\244\305Z7\273l\233\326\341\335h5R"
 154      B5A4C55A 
 154      37BB6C9B 
 154      D6E1DD68 
 154      3552
 155 0191 221DBA23 		.ascii	"\"\035\272#1\321\207\377\"b)\221\261\353\305\332\370"
 155      31D187FF 
 155      22622991 
 155      B1EBC5DA 
 155      F8
 156 01a2 80F4C78B 		.ascii	"\200\364\307\213\204?\026i\343C\034J\330\336\303\364"
 156      843F1669 
 156      E3431C4A 
 156      D8DEC3F4 
 157 01b2 D35717D3 		.ascii	"\323W\027\323A$\311q\352K-Tm\231{\215\300\341\242Qk"
 157      4124C971 
 157      EA4B2D54 
 157      6D997B8D 
 157      C0E1A251 
 158 01c7 F39A7389 		.ascii	"\363\232s\211\013\317\257\372\215&\237\012[\365\363"
 158      0BCFAFFA 
 158      8D269F0A 
 158      5BF5F3
 159 01d6 9C02CF9E 		.ascii	"\234\002\317\236\344\315Pp\377\230(\0130\303Z;h\272"
 159      E4CD5070 
 159      FF98280B 
 159      30C35A3B 
 159      68BA
 160 01e8 A3FF4239 		.ascii	"\243\377B9\227\247\370\211\261\312\251\012\367\353b"
 160      97A7F889 
 160      B1CAA90A 
 160      F7EB62
 161 01f7 B25553B5 		.ascii	"\262US\265\241sN\004'[uQ\366`p\254r\332\252\332M\347"
 161      A1734E04 
 161      275B7551 
 161      F66070AC 
 161      72DAAADA 
 162 020d 42E81FB6 		.ascii	"B\350\037\266\016\034\001\026B&p\202F\330\206_\206<"
 162      0E1C0116 
ARM GAS  /tmp/ccPNIPWS.s 			page 12


 162      42267082 
 162      46D8865F 
 162      863C
 163 021f D8E1     		.ascii	"\330\341"
 164              		.text
 165              		.section	.gnu.lto_i2cMasterReceiveTimeout.3d9ebe663ec96c6a,"",%progbits
 166 0000 789C9D51 		.ascii	"x\234\235Q=h\024Q\020\236y\273{\177\036\\\320\306*,"
 166      3D681451 
 166      109E79BB 
 166      7B7F1E5C 
 166      D0C62A2C 
 167 0014 822028F7 		.ascii	"\202 (\367\374i%\004\004\301\"\215\227\200Vr\367n\331"
 167      FC692504 
 167      04C1228D 
 167      97805672 
 167      F76ED9
 168 0027 7D98BD93 		.ascii	"}\230\275\223\275\234xH\270\227\220B\0041E\212SQ\214"
 168      BD9C7848 
 168      B8979042 
 168      0431458A 
 168      53518C
 169 003a 7FA08D96 		.ascii	"\177\240\215\226\202M\004!\036hD+\013\213@\012\005+"
 169      824D0421 
 169      1E68442B 
 169      0B8B400A 
 169      052B
 170 004c 2D4C8C81 		.ascii	"-L\214\201u\336\356\335j\202\220\340,;o\336\274\371"
 170      75DEEEDD 
 170      6A8290E0 
 170      2C3B6FDE 
 170      BCF9
 171 005e BEF99861 		.ascii	"\276\371\230a\300`\253\035\247\377\003\245\347\350\304"
 171      C060AB1D 
 171      A7FF03A5 
 171      E7E8C4
 172 006d 14209B5D 		.ascii	"\024 \233]\002\230\3120f,\026@\345\314\356\020\250\274"
 172      0298CA30 
 172      662C1640 
 172      E5CCEE10 
 172      A8BC
 173 007f 81569C36 		.ascii	"\201V\2346\373\201\205\250\003@h3\303\264\260}\0265"
 173      FB8185A8 
 173      03406833 
 173      C3B4B07D 
 173      1635
 174 0091 1BEE8379 		.ascii	"\033\356\203y\245f\227\037~\357\342\015\2650sWm\204"
 174      A566971F 
 174      7EEFE20D 
 174      B5307357 
 174      6D84
 175 00a3 21A244EA 		.ascii	"!\242D\352|\004A \234\241\013\332\321\301\314\315R\236"
 175      7C044120 
 175      9CA10BDA 
 175      D1C1CCCD 
 175      529E
 176 00b5 B285E530 		.ascii	"\262\205\3450\334X}\260\362\025\367\3546\321GH\223\303"
 176      DC587DB0 
ARM GAS  /tmp/ccPNIPWS.s 			page 13


 176      F215F7EC 
 176      36D14748 
 176      93C3
 177 00c7 0C399625 		.ascii	"\0149\226%g\344\310\231y(\343<5\"\263`\206\272\331\375"
 177      67E4C899 
 177      7928E33C 
 177      3522B360 
 177      86BAD9FD 
 178 00db BB88348C 		.ascii	"\273\2104\214\222\327\332\306\220\351\323X\202\351o"
 178      92D7DAC6 
 178      90E9D358 
 178      82E96F
 179 00ea 6B732B7B 		.ascii	"ks+{{\305@\360\373hEj\351k\031z(F<\231A\270\212\267"
 179      7BC540F0 
 179      FB68456A 
 179      E96B197A 
 179      28463C99 
 180 0102 556758A2 		.ascii	"UgX\242\241\257Z\244i\353(y\277\326{\267b\311oa\372"
 180      A1AF5AA4 
 180      69EB2879 
 180      BFD67BB7 
 180      62C96F61 
 181 0117 F9A72F77 		.ascii	"\371\247/w\016\304\224\007\341\211\"+HL\335\202\233"
 181      0EC49407 
 181      E189222B 
 181      484CDD82 
 181      9B
 182 0128 044EBB68 		.ascii	"\004N\273hj\222LT\\\301\030\2443\251>z\355\307O\334"
 182      6A924C54 
 182      5CC118A4 
 182      33A93E7A 
 182      EDC74FDC 
 183 013c 8ACEFE1B 		.ascii	"\212\316\376\033\215\011:\253'\367\016:\352\315//\006"
 183      8D093AAB 
 183      27F70E3A 
 183      EACD2F2F 
 183      06
 184 014d BB98BF0C 		.ascii	"\273\230\277\014\353\352\212\032\220\230\023\275R\302"
 184      EBEA8A1A 
 184      909813BD 
 184      52C2
 185 015b BB9A25E3 		.ascii	"\273\232%\343b\326\305\234\304]\000\257\341\325\347"
 185      62D6C59C 
 185      C45D00AF 
 185      E1D5E7
 186 016a 972FAE1B 		.ascii	"\227/\256\033\011L\363\345\303\276a\373\317>\306h\012"
 186      094CF3E5 
 186      C3BE61FB 
 186      CF3EC668 
 186      0A
 187 017b 8B0543AB 		.ascii	"\213\005C\253\374\270\332e\233T\036\333\211J+!2\241"
 187      FCB8DA65 
 187      9B541EDB 
 187      894A2B21 
 187      32A1
 188 018d 3B141175 		.ascii	";\024\021u\326\377\207\210%D\326\216WZ\306G\244?Z!\374"
 188      D6FF8788 
ARM GAS  /tmp/ccPNIPWS.s 			page 14


 188      2544D68E 
 188      575AC647 
 188      A43F5A21 
 189 01a2 B5C2323E 		.ascii	"\265\3022>\306\301\230\355=L=\2737\231\014\"N\216R_"
 189      C6C198ED 
 189      3D4C3DBB 
 189      37990C22 
 189      4E8E525F 
 190 01b6 6AA16B8B 		.ascii	"j\241k\213\334\253\373\016\027\365j\213W\235\213\\x"
 190      DCABFB0E 
 190      17F56A8B 
 190      579D8B5C 
 190      78
 191 01c7 B222EB0D 		.ascii	"\262\"\353\015>\0214k\3479\005^y\2347\002\301\345QQ"
 191      3E11346B 
 191      E739055E 
 191      799C3702 
 191      C1E55151 
 192 01db 14900AAA 		.ascii	"\024\220\012\252-\277\341\016o\207r.M\360\023#\245S"
 192      2DBFE10E 
 192      6F87722E 
 192      4DF01323 
 192      A553
 193 01ed 252E6B62 		.ascii	"%.kb\274Y\325\265\201sN\370'\2335Q\364``\244t\332\256"
 193      BC59D5B5 
 193      81734EF8 
 193      279B3551 
 193      F46060A4 
 194 0204 941BCE85 		.ascii	"\224\033\316\205@\036\262\367\037\006\026@\332w\374"
 194      401EB2F7 
 194      1F061640 
 194      DA77FC
 195 0213 7AD082DF 		.ascii	"z\320\202\337m|\330v"
 195      6D7CD876 
 196              		.text
 197              		.section	.gnu.lto_i2cAcquireBus.3d9ebe663ec96c6a,"",%progbits
 198 0000 789C8D50 		.ascii	"x\234\215P\261J\304@\020}oc\304\322\326\316R\021\262"
 198      B14AC440 
 198      107D6F63 
 198      C4D2D6CE 
 198      5211B2
 199 0013 A0BF7282 		.ascii	"\240\277r\202\026\026\271\315qY\364\014$\247\240W\\"
 199      1616B9CD 
 199      7159F40C 
 199      24A7A057 
 199      5C
 200 0024 4E5358C9 		.ascii	"NSX\311a\251\225 WX\250\235\355U\"\210\212~AZA\320\312"
 200      61A99520 
 200      5758A89D 
 200      ED552288 
 200      8A7E415A 
 201 003b E29A7392 		.ascii	"\342\232s\222\250\210\225\017f\336[f\336\314\260\012"
 201      A888950F 
 201      66DE5B66 
 201      DECCB00A 
 202 004b 0A7F3123 		.ascii	"\012\1771#\361&\021H\320\001U\377\001\350M)\262\020"
 202      F1261148 
ARM GAS  /tmp/ccPNIPWS.s 			page 15


 202      D00155FF 
 202      01E84D29 
 202      B210
 203 005d 20BA8ADD 		.ascii	" \272\212\335U\226\275\227j\230\217\307\027G\317\203"
 203      5596BD97 
 203      6A988FC7 
 203      1747CF83 
 204 006d 57DEAA49 		.ascii	"W\336\252I\262E\231h\313\242\213,M\373\263\200)\237"
 204      B2459968 
 204      CBA28B2C 
 204      4DFBB380 
 204      299F
 205 007f 35C9C580 		.ascii	"5\311\305\200e\252\202\235{\354\215\366\257\317\346"
 205      65AA829D 
 205      7BEC8DF6 
 205      AFCFE6
 206 008e 7C9ED245 		.ascii	"|\236\322E\223\252\203]1.\340<\025\254Y\362\004\307"
 206      93AA835D 
 206      312EE03C 
 206      15AC59F2 
 206      04C7
 207 00a0 B4544D72 		.ascii	"\264TMrE\330)\027\326\371\353\322Gd\357/W\0379\177V"
 207      45D82917 
 207      D6F9EBD2 
 207      4764EF2F 
 207      571F397F 
 208 00b5 55627877 		.ascii	"Ubxw\223\271@5\331\360\313\322\301(=H\247-'\014\225"
 208      93B94035 
 208      D9F0CBD2 
 208      C1283D48 
 208      A72D270C 
 209 00ca CF81D404 		.ascii	"\317\201\324\004\262\330\026\352\011\275\374p\276\262"
 209      B2D816EA 
 209      09BDFC70 
 209      BEB2
 210 00d8 7CA32656 		.ascii	"|\243&V9\265\370\"O\207Q\253\241M\024\354\350\240\261"
 210      39B5F822 
 210      4F8751AB 
 210      A14D14EC 
 210      E8A0B1
 211 00eb AD4D68EB 		.ascii	"\255Mh\3536Jt;\336\332\\\327\"B\177C'\261\321v\321x"
 211      364A743B 
 211      DEDA5CD7 
 211      22427F43 
 211      27B1D176 
 212 0101 064BFF69 		.ascii	"\006K\377i\217\022Iq\273d/\304'\343.`\212"
 212      8F124971 
 212      BB642FC4 
 212      27E32E60 
 212      8A
 213              		.text
 214              		.section	.gnu.lto_i2cReleaseBus.3d9ebe663ec96c6a,"",%progbits
 215 0000 789C8D50 		.ascii	"x\234\215P1K\303P\020\376\276\027#\216\256n\256*\344"
 215      314BC350 
 215      10FEBE17 
 215      238EAE6E 
 215      AE2AE4
ARM GAS  /tmp/ccPNIPWS.s 			page 16


 216 0013 81FE950A 		.ascii	"\201\376\225\012:\246/\245yh\015&U\320\016M\265\203"
 216      3AA62FA5 
 216      79680D26 
 216      55D00E4D 
 216      B583
 217 0025 63669D04 		.ascii	"cf\235\004\355\340PG\327\316\025\025;8w\025\004\273"
 217      EDE05047 
 217      D7CE1515 
 217      3B387715 
 217      04BB
 218 0037 095DEA25 		.ascii	"\011]\352%Q\021'?\270\373\276\307\335ww<\005\205\277"
 218      5111273F 
 218      B8FBBEC7 
 218      DD77773C 
 218      0585BF
 219 004a 58927897 		.ascii	"X\222x\227\010$\350\200*{\004:\013\212\314\005\210\266"
 219      0824E880 
 219      2A7B043A 
 219      0B8ACC05 
 219      88B6
 220 005c 627B9B45 		.ascii	"b{\233E\357\255\032\214g\263\376h\324{\343P\315\223"
 220      EFAD1A8C 
 220      67B3FE68 
 220      D47BE350 
 220      CD93
 221 006e 0DCA445B 		.ascii	"\015\312D[\024]t\3234[\006L\361\254H\316\007lR\345\354"
 221      145D74D3 
 221      345B064C 
 221      F1AC48CE 
 221      076C52E5 
 222 0083 3CE0647A 		.ascii	"<\340dzzw\275\352\363\222.\352T-\034\213q\0157\251`"
 222      7A77BDEA 
 222      F3922EEA 
 222      542D1C8B 
 222      710D37A9 
 223 0098 DF921738 		.ascii	"\337\222\0278\247\245\252\223[\302N\261\260\312_\227"
 223      A7A5AA93 
 223      5BC24EB1 
 223      B0CA5F97 
 224 00a8 3EA13B79 		.ascii	">\241;y\315>&\374YU\212\301\375\313\225\013\224\223"
 224      CD3E26FC 
 224      59558AC1 
 224      FDCB950B 
 224      9493
 225 00ba 0DBF2C2D 		.ascii	"\015\277,-L\323\263t\321r\316P\371\354IM \213m\256\236"
 225      4CD3B374 
 225      D172CE50 
 225      F9EC494D 
 225      208B6DAE 
 226 00cf D119F757 		.ascii	"\321\031\367WJ\3137*b\225S\363/\362t\0305j\332D\301"
 226      4ACB372A 
 226      629553F3 
 226      2FF27418 
 226      356ADA44 
 227 00e4 910E6A87 		.ascii	"\221\016j\207\332\204\266j\243D7\343\203\275\035-\""
 227      DA84B66A 
 227      A34437E3 
ARM GAS  /tmp/ccPNIPWS.s 			page 17


 227      83BD1D2D 
 227      22
 228 00f5 F4777512 		.ascii	"\364wu\022\033m\327\215g\260\361\237\366(\221\0247\013"
 228      1B6DD78D 
 228      67B0F19F 
 228      F6289114 
 228      370B
 229 0107 F6427C02 		.ascii	"\366B|\002r\220a$"
 229      72906124 
 230              		.text
 231              		.section	.gnu.lto_.symbol_nodes.3d9ebe663ec96c6a,"",%progbits
 232 0000 789C4DC8 		.ascii	"x\234M\310I\012\302P\020\204\341\356zf\036\257\343\351"
 232      490AC250 
 232      1084E1EE 
 232      7A661EAF 
 232      E3E9
 233 0012 2A1A8728 		.ascii	"*\032\207(\010! \356\334x\024\367\236A\360\036*\361"
 233      082120EE 
 233      DC7814F7 
 233      9E41F01E 
 233      2AF1
 234 0024 81AF6BF3 		.ascii	"\201\257k\363\363\025\004\262T\361\303G)2>D\310\353"
 234      F31504B2 
 234      54F1C347 
 234      29323E44 
 234      C8EB
 235 0036 A0E84035 		.ascii	"\240\350@5\\\2010\\\203\316\260\007\027\206\03302\334"
 235      5C81305C 
 235      83CEB007 
 235      17861B30 
 235      32DC
 236 0048 82B1E10E 		.ascii	"\202\261\341\016L\014\367`\032\250\003\230yv\235\352"
 236      4C0CF760 
 236      1AA80398 
 236      79769DEA 
 237 0058 01CC838E 		.ascii	"\001\314\203\216`\021t\002\313\240\021\254\202&\260"
 237      60117402 
 237      CBA011AC 
 237      8226B0
 238 0067 0E3A834D 		.ascii	"\016:\203M\320\005l\377r\222I\377|\253\323\\^sQ\310"
 238      D0056CFF 
 238      729249FF 
 238      7CABD35C 
 238      5E7351C8 
 239 007b 7DAE2BE5 		.ascii	"}\256+\34567\252\374\037\327\276I\343\377\264\375U\276"
 239      3637AAFC 
 239      1FD7BE49 
 239      E3FFB4FD 
 239      55BE
 240 008d A4D65EF9 		.ascii	"\244\326^\371"
 241              		.text
 242              		.section	.gnu.lto_.refs.3d9ebe663ec96c6a,"",%progbits
 243 0000 789C6362 		.ascii	"x\234cb`b`d\200\002\000\000F\000\006"
 243      60626064 
 243      80020000 
 243      460006
 244              		.text
ARM GAS  /tmp/ccPNIPWS.s 			page 18


 245              		.section	.gnu.lto_.decls.3d9ebe663ec96c6a,"",%progbits
 246 0000 789CBD5B 		.ascii	"x\234\275[\013t\024U\232\256\252\356t\247\223\020\036"
 246      0B741455 
 246      9AAEAAEE 
 246      74A79310 
 246      1E
 247 0011 AE8A7BF6 		.ascii	"\256\212{\366,\361\234q\217\313\214\206\004T\334\331"
 247      2CF19C71 
 247      8FCB8C86 
 247      0454DCD9 
 248 0021 51982408 		.ascii	"Q\230$\010G\"l\022f\344xf\333\242S!\255I:S]\201\260"
 248      47226C12 
 248      66E47866 
 248      DBA25321 
 248      AD493A53 
 249 0038 67762C02 		.ascii	"gv,\002f\204(b\344\021\336D\004|\304\001D\300\200\230"
 249      66842862 
 249      E411DE44 
 249      047CC401 
 249      44C08098 
 250 004c 0691A091 		.ascii	"\006\221\240\221\360\024M\020\211\017\034\306\361\205"
 250      F0144D10 
 250      890F1CC6 
 250      F185
 251 005a F206C9FE 		.ascii	"\362\006\311\376\367\257\252\356[\225\252\356\252vf"
 251      F7AFAAEE 
 251      5B95AAEE 
 251      AA7666
 252 0069 73CEBD75 		.ascii	"s\316\275u\353\366\275\337\375\376\307\275\367\257["
 252      EBF6BDDF 
 252      FDFEC7BD 
 252      F7AF5B
 253 0078 158EE118 		.ascii	"\025\216\341\030\311\3050\275\360wm\014\303\214\362"
 253      C9C530BD 
 253      F0776D0C 
 253      C38CF2
 254 0087 314C1AC3 		.ascii	"1L\032\3030\367@\202j\246\031\322C,\303T@\"\177\003"
 254      30F74082 
 254      6AA619D2 
 254      432CC354 
 254      40227F03 
 255 009b 2185A01C 		.ascii	"!\205\240\034\206\344\342\030&\035R\177H\327C\272\003"
 255      86E4E218 
 255      261D527F 
 255      48D743BA 
 255      03
 256 00ac 521EA4FB 		.ascii	"R\036\244\373 \335\017\251\020\322\177A*\2064\011\322"
 256      20DD0FA9 
 256      10D27F41 
 256      2A863409 
 256      D2
 257 00bd 6F214D86 		.ascii	"o!M\206\364\020\307\364\371#\230\244\372w\220U\253c"
 257      F410C7F4 
 257      F92398A4 
 257      FA779055 
 257      AB63
 258 00cf 716AFDFD 		.ascii	"qj\375\375&\355\311\370\251p\235\314*\374\246C\232\006"
ARM GAS  /tmp/ccPNIPWS.s 			page 19


 258      26EDC9F8 
 258      A9709DCC 
 258      2AFCA643 
 258      9A06
 259 00e1 E93156E1 		.ascii	"\3511V\341\374\337\320\347\001N\221\341\017P\367GHk"
 259      FCDFD0E7 
 259      014E91E1 
 259      0F50F747 
 259      486B
 260 00f3 59E59EF4 		.ascii	"Y\345\236\364\365\253\374Xm \352\217\310\005j`J\341"
 260      F5ABFC58 
 260      6D20EA8F 
 260      C8056A60 
 260      4AE1
 261 0105 DA06D732 		.ascii	"\332\006\3272N\301\325\306(\207{I\035\227t%\330\177"
 261      4EC1D5C6 
 261      28877B49 
 261      1D977425 
 261      D87F
 262 0117 50CB2E55 		.ascii	"P\313.UfRN%8\006l\242\257T\0036\215\247\215\30121\314"
 262      66524E25 
 262      38066CA2 
 262      AF540336 
 262      8DA78DC1 
 263 012e 745587A4 		.ascii	"tU\207\244\256\237\001\257\277*c\205\241\357\032\365"
 263      AE9F01AF 
 263      BF2A6385 
 263      A1EF1AF5 
 264 013e DA5FED77 		.ascii	"\332_\355w\235\241\037\261W?\270\016\205\0373\341\232"
 264      9DA11FB1 
 264      573FB80E 
 264      851F33E1 
 264      9A
 265 014f 61E044E3 		.ascii	"a\340D\343\021^A\250\273\001\222GU\327\032J\346\353"
 265      115E41A8 
 265      BB019247 
 265      55D71A4A 
 265      E6EB
 266 0161 55FB7AA1 		.ascii	"U\373z\241|+\\\377\035\322PH\277\200t;\244a\220r\015"
 266      7C2B5CFF 
 266      1DD25048 
 266      BF80743B 
 266      A4619072 
 267 0176 E3DFE170 		.ascii	"\343\337\341p\374G\240\356N\213\361\357P}+\005\312\277"
 267      FC47A0EE 
 267      4E8BF1EF 
 267      507D2B05 
 267      CABF
 268 0188 82EB3D90 		.ascii	"\202\353=\220\356\2054\012\322h\303\270y*\306d\325O"
 268      EE85340A 
 268      D268C3B8 
 268      792AC664 
 268      D54F
 269 019a B431347F 		.ascii	"\26414\177!\272\322\374\204\264}T\365YR_`\300\272\317"
 269      21BAD2FC 
 269      84B47D54 
 269      F559525F 
ARM GAS  /tmp/ccPNIPWS.s 			page 20


 269      60C0BACF 
 270 01ae 0116691B 		.ascii	"\001\026i\033R}\237\324\2173`\015b\236\221\341/k\037"
 270      527D9FD4 
 270      8F33600D 
 270      629E91E1 
 270      2F6B1F
 271 01c1 28E34196 		.ascii	"(\343A\226g3}\214\314b)\303\307\014\200\006\2670\317"
 271      67337D8C 
 271      CC6229C3 
 271      C70C8006 
 271      B730CF
 272 01d4 CBF2FC9E 		.ascii	"\313\362\374\236\265\313n\224\335<\333\314\016\002\321"
 272      B5CB6E94 
 272      DD3CDBCC 
 272      0E02D1
 273 01e3 EF6499A1 		.ascii	"\357d\231\241\314\213\320m\276,\357\036\302\364\375"
 273      CC8BD06D 
 273      BE2CEF1E 
 273      C2F4FD
 274 01f2 4B88CA31 		.ascii	"K\210\3121\005,\303\263k\001\216g\237g\207*\303\310"
 274      052CC3B3 
 274      6B018E67 
 274      9F67872A 
 274      C3C8
 275 0204 91737C96 		.ascii	"\221s|\226R\313\250\365&\17773\253I\323\013\247|rc\206"
 275      52CBA8F5 
 275      267F3733 
 275      AB49D30B 
 275      A77C7263 
 276 0219 C948A3B4 		.ascii	"\311H\243\264\201Rc\364\267\325w>\303\316\226e\370\341"
 276      815263F4 
 276      B7D5773E 
 276      C3CE9665 
 276      F8E1
 277 022b 45146136 		.ascii	"E\024a6\313\352FPqV\217\262\002\342\230\005\330\245"
 277      CBEA4650 
 277      71568FB2 
 277      02E29805 
 277      D8A5
 278 023d C540B967 		.ascii	"\305@\271gY\307\321\231\354L\204n\261A\274.\362~\375"
 278      59C7D199 
 278      EC4C846E 
 278      B141BC2E 
 278      F27EFD
 279 0250 8A9BE4D5 		.ascii	"\212\233\344\325\273\331tf.\334\312\253\353\345\261"
 279      BBD97466 
 279      2EDCCAAB 
 279      EBE5B1
 280 025f FB324DE4 		.ascii	"\3732M\344X\355\326\306\317\217\011\262\265~\017+\313"
 280      58EDD6C6 
 280      CF8F09B2 
 280      B57E0F2B 
 280      CB
 281 0270 A93CBB09 		.ascii	"\251<\273\011\305\3506\027\303\032\206c>\303.\257\365"
 281      C5E83617 
 281      C31A8663 
 281      3EC32EAF 
ARM GAS  /tmp/ccPNIPWS.s 			page 21


 281      F5
 282 0281 11A3E163 		.ascii	"\021\243\341cM\214\327l\211qE\025\203g7\202(\034\363"
 282      4D8CD76C 
 282      89714515 
 282      83673782 
 282      281CF3
 283 0294 7514571D 		.ascii	"u\024W\0358K\033\327\3150ZQ\371S\033\350\361\256\355"
 283      384B1BD7 
 283      CD305A51 
 283      F9531BE8 
 283      F1AEED
 284 02a7 CD98CF6B 		.ascii	"\315\230\317k`g\035\203e\351\300\236m_\216\344|\314"
 284      60671D83 
 284      65E9C09E 
 284      6D5F8EE4 
 284      7CCC
 285 02b9 13311D33 		.ascii	"\0231\0353\246`\252b/\034\350<\304\316B\371\337\200"
 285      A660AA62 
 285      2F1CE83C 
 285      C4CE42F9 
 285      DF80
 286 02cb 6E1CB387 		.ascii	"n\034\263\207\323\253\326>T\353\242\267w\261u\010\325"
 286      D3ABD63E 
 286      54EBA2B7 
 286      77B17508 
 286      D5
 287 02dc 86506792 		.ascii	"\206Pg\222\206:\267\370\215\273\321\334\273\021h\203"
 287      863AB7F8 
 287      8DBBD1DC 
 287      BB116883 
 288 02ec 4B0FC4B3 		.ascii	"K\017\304\263\336\250\032\243\367Z\003\202\206?\253"
 288      DEA81AA3 
 288      F75A0382 
 288      863FAB
 289 02fb 05B2D5F6 		.ascii	"\005\262\325\366g\376\301\3159f\273\313\206\351R\255"
 289      67FEC1CD 
 289      3966BBCB 
 289      86E952AD 
 290 030b FC40EE59 		.ascii	"\374@\356Y\332p\212]\"Gf\273\264)\351\261\322\021\307"
 290      DA708A5D 
 290      224766BB 
 290      B429E9B1 
 290      D211C7
 291 031e ECC2B1DA 		.ascii	"\354\302\261\332\215\276\274y\345\327u\252/\267\333"
 291      8DBEBC79 
 291      E5D775AA 
 291      2FB7DB
 292 032d F2E56D1D 		.ascii	"\362\345m\035\213\355MI\2176~)\216?\313M\306\177\317"
 292      8BED4D49 
 292      8F367E29 
 292      8E3FCB4D 
 292      C67FCF
 293 0340 387EDBA7 		.ascii	"8~\333\247\247\357i\222\345\001\312O\211\207?y`A\337"
 293      A7EF6992 
 293      E501CA4F 
 293      89873F79 
 293      6041DF
ARM GAS  /tmp/ccPNIPWS.s 			page 22


 294 0353 E179F69E 		.ascii	"\341y\366\236\353\343\271\306\346\225\355\337\253B\036"
 294      EBE3B9C6 
 294      E695EDDF 
 294      AB421E
 295 0362 C439B3DF 		.ascii	"\3049\263\337mt\216{\323\365\346\203{\252\001\307\034"
 295      6D748E7B 
 295      D3F5E683 
 295      7BAA01C7 
 295      1C
 296 0373 8BD24F6A 		.ascii	"\213\322Oj\312\202\234\221{_|U\226\347x4\016\335\216"
 296      CA829C91 
 296      7B5F7C55 
 296      96E77834 
 296      0EDD8E
 297 0386 11B3749A 		.ascii	"\021\263t\232\370\376\000.\002\012\330\307v\300,=\251"
 297      F8FE002E 
 297      020AD8C7 
 297      76C02C3D 
 297      A9
 298 0397 2E729606 		.ascii	".r\226\006\373\3241\230\236\331y\032\354\013;`\003\254"
 298      FBD43198 
 298      9ED9791A 
 298      EC0B3B60 
 298      03AC
 299 03a9 995DA4C1 		.ascii	"\231]\244\301\276t\014\246gv\231\006\373\306\016\330"
 299      BE740CA6 
 299      67769906 
 299      FBC60ED8 
 300 03b9 606B6657 		.ascii	"`kfWi\260\357\035\203\351\231]\243\301\316\333\001\313"
 300      69B0EF1D 
 300      83E9995D 
 300      A3C1CEDB 
 300      01CB
 301 03cb B26636FF 		.ascii	"\262f6\3770\005v\3311\230\236Y#\015v\315\016\330\255"
 301      300576D9 
 301      31989E59 
 301      230D76CD 
 301      0ED8AD
 302 03de D6CC16D0 		.ascii	"\326\314\026\320`u)N\301\364\314\026\321`\365v\300\206"
 302      6075294E 
 302      C1F4CC16 
 302      D160F576 
 302      C086
 303 03f0 59336BA2 		.ascii	"Y3k\242\301\346:\006\3233[J\203\315\263\0036\322\232"
 303      C1E63A06 
 303      D3335B4A 
 303      83CDB303 
 303      36D29A
 304 0403 D9721AAC 		.ascii	"\331r\032\254\3211\230\236\331F\032l\221\035\260Q\326"
 304      D131989E 
 304      D9461A6C 
 304      911DB051 
 304      D6
 305 0414 CC5EA5C1 		.ascii	"\314^\245\301\2268\006\3233{\215\006[n\007l\2545\263"
 305      963806D3 
 305      337B8D06 
 305      5B6E076C 
ARM GAS  /tmp/ccPNIPWS.s 			page 23


 305      AC35B3
 306 0427 AD34D82A 		.ascii	"\2554\330*\307`zf\257\323`\317\331\001\233h\315l;\015"
 306      C7607A66 
 306      AFD360CF 
 306      D9019B68 
 306      CD6C3B0D 
 307 043b B6D63198 		.ascii	"\266\3261\230\236\331\0334\330\013v\300\036\264f\366"
 307      9ED91B34 
 307      D80B76C0 
 307      1EB466F6 
 308 044b 260DD6E2 		.ascii	"&\015\326\342\030L\317\354 \015\266\321\016\330\303"
 308      184CCFEC 
 308      200DB6D1 
 308      0ED8C3
 309 045a 26CCA27F 		.ascii	"&\314\242\177f\375\3106\335\301F\367m\216\331\234\242"
 309      66FDC836 
 309      DDC146F7 
 309      6D8ED99C 
 309      A2
 310 046b 85380EF7 		.ascii	"\2058\016\367h&\206\261-\305iH\246\223\033\236\015\276"
 310      682686B1 
 310      2DC56948 
 310      A6931B9E 
 310      0DBE
 311 047d 68669F9D 		.ascii	"hf\237\235%\357\033\246\305\347;\355 \306\331\000\227"
 311      25EF1BA6 
 311      C5E73BED 
 311      20C6D900 
 311      97
 312 048e B653C1FE 		.ascii	"\266S\301\376\333\216\301\014\256L\300t\261\223\032"
 312      DB8EC10C 
 312      AE4CC074 
 312      B1931A
 313 049d 60F7AC8D 		.ascii	"`\367\254\215\014n\212Eo\251\032\026y\020VB5x\200\345"
 313      0C6E8A45 
 313      6FA91A16 
 313      79105642 
 313      357880E5 
 314 04b1 A28DE5C1 		.ascii	"\242\215\345\301\203\315\333\362\354S\334-\220\317\343"
 314      83CDDBF2 
 314      EC53DC2D 
 314      90CFE3
 315 04c0 7C51164A 		.ascii	"|Q\026JY+\365\342\221\300\376\024\266\217\366U\233\306"
 315      592BF5E2 
 315      91C0FE14 
 315      B68FF655 
 315      9BC6
 316 04d2 EF6AE509 		.ascii	"\357j\345\011\015\034\345\011\207\355\250)\316\326~"
 316      0D1CE509 
 316      87EDA829 
 316      CED67E
 317 04e1 B27DF98D 		.ascii	"\262}\371\215rO\204\245\344\215\253\034x&zz\277\366"
 317      724F84A5 
 317      E48DAB1C 
 317      78267A7A 
 317      BFF6
 318 04f3 4CD4C891 		.ascii	"L\324\310\221\347\217\256\024\323\007\031\033P\255\213"
ARM GAS  /tmp/ccPNIPWS.s 			page 24


 318      E78FAE14 
 318      D307191B 
 318      50AD8B
 319 0502 5EF9393E 		.ascii	"^\3719>\310,D\240O\223\006:\267x\345H\004jB\240/\015"
 319      C82C44A0 
 319      4F93063A 
 319      B778E548 
 319      046A42A0 
 320 0518 403CCB1A 		.ascii	"@<\313\032\236\210X\3753\013\353\213\025z\365\346\372"
 320      9E8858FD 
 320      330BEB8B 
 320      157AF5E6 
 320      FA
 321 0529 BBB68567 		.ascii	"\273\266\205gX\243\275t\342$\214\236z\226u\374\370\014"
 321      58A3BD74 
 321      E2248C9E 
 321      7A9675FC 
 321      F80C
 322 053b FB439DDC 		.ascii	"\373C\235\3344\314\201\305\016\274\247Yl\005\352\347"
 322      34CC81C5 
 322      0EBCA759 
 322      6C05EAE7 
 323 054b 6A1FFD2C 		.ascii	"j\037\375,\344\234)\210cf{\234\012r\253^\220\206=\215"
 323      E49C2988 
 323      63667B9C 
 323      0A72AB5E 
 323      90863D8D 
 324 055f CE0589BA 		.ascii	"\316\005\211\272\336s(\310\223\236\237.\310\002\307"
 324      DE7328C8 
 324      939E9F2E 
 324      C802C7
 325 056e 820CA304 		.ascii	"\202\014\243\004!g$\347\032\225u\360:\2461\376\263)"
 325      216724E7 
 325      1A9575F0 
 325      3AA631FE 
 325      B329
 326 0580 E1B39EBB 		.ascii	"\341\263\236\273N\177\272\325\365.\233\245T\3338\336"
 326      4E7FBAD5 
 326      F52E9BA5 
 326      54DB38DE 
 327 0590 7A973AC1 		.ascii	"z\227:\301\220m\235`<}@S\331K\250\262e\036\223If\013"
 327      906D9D60 
 327      3C7D4053 
 327      D94BA8B2 
 327      651E9349 
 328 05a6 AAF5D89E 		.ascii	"\252\365\330\236M\352\011\306+\010\325\2344\324\271"
 328      4DEA09C6 
 328      2B08D59C 
 328      34D4B9
 329 05b5 0FB629F3 		.ascii	"\017\266)\363u#\002\275\330\307\214\036\203\025=z+\302"
 329      752302BD 
 329      D8C78C1E 
 329      83153D7A 
 329      2BC2
 330 05c7 2D19E922 		.ascii	"-\031\351\"9_`\037Sk\310\215\227\371\177\357\007\273"
 330      395F601F 
 330      536BC88D 
ARM GAS  /tmp/ccPNIPWS.s 			page 25


 330      97F97FEF 
 330      07BB
 331 05d9 31D22716 		.ascii	"1\322'\026t\270\033G=\350T\243\266\223*F\332\376\223"
 331      74B81B47 
 331      3DE854A3 
 331      B6932A46 
 331      DAFE93
 332 05ec 10EB229B 		.ascii	"\020\353\"\233\033\264c\270{\311^\372\326O\204;\324"
 332      1BB463B8 
 332      7BC95EFA 
 332      D64F843B 
 332      D4
 333 05fd E1F8E0EC 		.ascii	"\341\370\340\354\351\243\232\333\265\242D\357\3661q"
 333      E9A39ADB 
 333      B5A244EF 
 333      F63171
 334 060c 9B714DB6 		.ascii	"\233qM\266s\216t,YI\242\177\034s\3028\341\035=s\222"
 334      738E742C 
 334      5949A27F 
 334      1C73C238 
 334      E11D3D73 
 335 0621 B3DD0BAA 		.ascii	"\263\335\013\252\271\022\036Fi\007\315{\367\316T\017"
 335      B9121E46 
 335      6907CD7B 
 335      F7CE540F 
 336 0631 9ADB3872 		.ascii	"\232\3338rB\373\211A\0336N\265\276\303.\273\271>'\264"
 336      42FB8941 
 336      1B364EB5 
 336      BEC32EBB 
 336      B93E27B4 
 337 0645 FBB5135A 		.ascii	"\373\265\023Z\362\233\215S-\335\011-\317\276\316r*n"
 337      F29B8D53 
 337      2DDD092D 
 337      CFBECE72 
 337      2A6E
 338 0657 B21AD519 		.ascii	"\262\032\325\0311F\220g\367`|\3646w3\255}\331\353T\373"
 338      31469067 
 338      F7607CF4 
 338      367733AD 
 338      7DD9EB54 
 339 066c 59B4F623 		.ascii	"Y\264\366#W:\226\263\012\177\345\314~\256\021o\024\035"
 339      573A96B3 
 339      0A7FE5CC 
 339      7EAE116F 
 339      141D
 340 067e BBAA45CB 		.ascii	"\273\252E\313\347t9\322\330\211A\2472\357\026\332!\027"
 340      E77439D2 
 340      D88941A7 
 340      32EF16DA 
 340      2117
 341 0690 E7D17AA5 		.ascii	"\347\321z\245\002\246\270\3742\307`Y:\260\235\363L^"
 341      02A6B8FC 
 341      32C76059 
 341      3AB09DF3 
 341      4C5E
 342 06a2 09282F42 		.ascii	"\011(/B\2546\227N:4\\gg\3748O\343\357w.W=E9\373\336"
 342      AC36974E 
ARM GAS  /tmp/ccPNIPWS.s 			page 26


 342      3A345C67 
 342      67FC384F 
 342      E3EF772E 
 343 06bc E8184F2F 		.ascii	"\350\030O/\317\231y\272Ei\207\035\270Q\266\035/\366"
 343      CF9979BA 
 343      4569871D 
 343      B851B61D 
 343      2FF6
 344 06ce EE8267B7 		.ascii	"\356\202g\267\262\304\361\266\2617C\336\212\371\016"
 344      B2C4F1B6 
 344      B13743DE 
 344      8AF90E
 345 06dd CCF7625E 		.ascii	"\314\367b^\317\221\374\011\314\347b\376\014\346\313"
 345      CF91FC09 
 345      CCE762FE 
 345      0CE6CB
 346 06ec 316FC67C 		.ascii	"1o\306|\035\346ob\336\216\371;\230w`\276\037\363\203"
 346      1DE66F62 
 346      DE8EF93B 
 346      987760BE 
 346      1FF383
 347 06ff 981FA6DD 		.ascii	"\230\037\246\335\333\312.\312T\213NLm\326\265$\375^"
 347      DBCA2ECA 
 347      548B4E4C 
 347      6DD6B524 
 347      FD5E
 348 0711 E458ECBD 		.ascii	"\344X\354\275\010\317nw\014\226\025O\223-\224&\377\214"
 348      08CF6E77 
 348      0C96154F 
 348      932D9426 
 348      FF8C
 349 0723 9ADC807A 		.ascii	"\232\334\200z;\252\237\310oy\265\227uq&\236\265\010"
 349      3BAA9FC8 
 349      6F79B597 
 349      7571269E 
 349      B508
 350 0735 3DCF9FA4 		.ascii	"=\317\237\244\236\366:\214`\011\037F\365\372\270&\354"
 350      9EF63A8C 
 350      60091F46 
 350      F5FAB826 
 350      EC
 351 0746 1B669827 		.ascii	"\033f\230'\315q\346I\027=O\2168\036;\256\372\326R\352"
 351      CD71E649 
 351      173D4F8E 
 351      381E3BAE 
 351      FAD652EA 
 352 075a 5B8FEA7B 		.ascii	"[\217\352{\001\325w\014\335\345CZ\211^\246\036#\337"
 352      01D5770C 
 352      DDE5435A 
 352      895EA61E 
 352      23DF
 353 076c C7EB123E 		.ascii	"\307\353\022>\340\\\273\370\317\312vz\234\363\002\347"
 353      E05CBBF8 
 353      CFCA767A 
 353      9CF302E7 
 354 077c A752F51B 		.ascii	"\247R\365\033\210\015$\302\355c\350\254\013>\017\325"
 354      880D24C2 
ARM GAS  /tmp/ccPNIPWS.s 			page 27


 354      ED63E8AC 
 354      0B3E0FD5 
 355 078c F7276F70 		.ascii	"\367'opI}\234\255\303\305\340G\004M\251\312\353Z\267"
 355      497D9CAD 
 355      C3C5E047 
 355      044DA9CA 
 355      EB5AB7
 356 079f 2F56B726 		.ascii	"/V\267&V\307RM[b\325\034U\2755V\355\242\252\367\304"
 356      56C7524D 
 356      5B62D51C 
 356      55BD3556 
 356      EDA2AAF7 
 357 07b4 AADD54F5 		.ascii	"\252\335T\365\341Xu\012\345Iq\037\300b\022\362\354I"
 357      E158750A 
 357      E549711F 
 357      C06212F2 
 357      EC49
 358 07c6 DC7F7A38 		.ascii	"\334\177z8\227i7\373\301\314"
 358      976937FB 
 358      C1CC
 359 07d0 9575977E 		.ascii	"\225u\227~\367\022\276\271\371\012\027\366\347|\177"
 359      F712BEB9 
 359      F90A17F6 
 359      E77C7F
 360 07df 87586608 		.ascii	"\207Xf\010\263R^\335\323\263\343\345KS\311\213-\271"
 360      B3525EDD 
 360      D3B3E3E5 
 360      4B53C98B 
 360      2DB9
 361 07f1 B7F731E6 		.ascii	"\267\3671\346\006f\241\032@\313\254d\371\252\207\340"
 361      0666A11A 
 361      40CBAC64 
 361      F9AA87E0 
 362 0801 7FC7DDA0 		.ascii	"\177\307\335\240\226&\2714?\376\310@\213a\376\215YK"
 362      9626B934 
 362      3FFEC840 
 362      8B61FE8D 
 362      594B
 363 0813 F0E41764 		.ascii	"\360\344\027d\027\242\221\366\337rC\364T\317p\272\267"
 363      17A291F6 
 363      DF7243F4 
 363      54CF70BA 
 363      B7
 364 0824 FF0AAFC8 		.ascii	"\377\012\257\310VX`f\366\364\366\016\261\317\351\254"
 364      56586066 
 364      F6F4F60E 
 364      B1CFE9AC 
 365 0834 CAC9A598 		.ascii	"\312\311\245\230<\321k\263\210\213\3363\242\252\356"
 365      3CD16BB3 
 365      888BDE33 
 365      A2AAEE
 366 0843 7A643BAA 		.ascii	"zd;\252\372\002\006J\237\033dJ\210\303\263\2278\262"
 366      FA02064A 
 366      9F1B644A 
 366      88C3B397 
 366      38B2
 367 0855 1A5E3604 		.ascii	"\032^6\004J\2213K3\210\247_\266\025$]\352^\211\247\""
ARM GAS  /tmp/ccPNIPWS.s 			page 28


 367      4A91334B 
 367      3388A75F 
 367      B615245D 
 367      EA5E89A7 
 368 086a DA74FB06 		.ascii	"\332t\373\006i\\\346\342>#\306<\264\317\362\364\314"
 368      695CE6E2 
 368      3E23C63C 
 368      B4CFF2F4 
 368      CC
 369 087b B25596AF 		.ascii	"\262U\226\257\022\241\001K\211\363\260\006\227\021\325"
 369      12A1014B 
 369      89F3B006 
 369      9711D5
 370 088a 4A646737 		.ascii	"Jdg7\233e\"\271\256)\317\316t\335b\246\037]+\322n\226"
 370      9B6522B9 
 370      AE29CFCE 
 370      74DD62A6 
 370      1F5D2BD2 
 371 08a0 CBA09A15 		.ascii	"\313\240\232\025\335\250\032R\237X5\233\272\027\242"
 371      DDA81A52 
 371      9F58359B 
 371      BA17A2
 372 08af 6A6CAF5D 		.ascii	"jl\257]\2213\037\220\007\334z\027Q\344Y_R\353\326\034"
 372      91331F90 
 372      07DC7A17 
 372      51E4595F 
 372      52EBD61C 
 373 08c3 9761DDEA 		.ascii	"\227a\335\352Z\214\353\026\251O\274n\311i\324\032\245"
 373      5A8CEB16 
 373      A94FBC6E 
 373      C969D41A 
 373      A5
 374 08d4 D635A499 		.ascii	"\3265\244\231.P\253\322\364\013\024cc\311\211\221\203"
 374      2E50ABD2 
 374      F40B1463 
 374      63C98991 
 374      83
 375 08e5 78C24596 		.ascii	"x\302E\226\234\006\227\371\222\3031\233\322X\325\002"
 375      9C0697F9 
 375      92C3319B 
 375      D258D502 
 376 08f5 C939D2E6 		.ascii	"\3119\322\346\356\205j\014\245|D\320j\304\263\273\365"
 376      EE856A0C 
 376      A57C44D0 
 376      6AC4B3BB 
 376      F5
 377 0906 6BA7A4DD 		.ascii	"k\247\244\335\351\033\037\266o\312g\273\211)\027\242"
 377      E91B1FB6 
 377      6FCA67BB 
 377      892917A2 
 378 0916 29DF4E4B 		.ascii	")\337NK\312\224MFS^QL\331d\313\224GML\371\231\271)\317"
 378      CA944D46 
 378      535E514C 
 378      D964CB94 
 378      474D4CF9 
 379 092e 2561CA26 		.ascii	"%a\312&\312\224K\320\224K-M97\335\206)\315B\026j<e\244"
 379      CA944BD0 
ARM GAS  /tmp/ccPNIPWS.s 			page 29


 379      944B2D4D 
 379      3937DD86 
 379      29CD4216 
 380 0946 D938D2E3 		.ascii	"\3318\322\343.\022\0374b\276\300\245\013\265\026\246"
 380      2E121F34 
 380      62BEC0A5 
 380      0BB516A6 
 381 0956 1B371C65 		.ascii	"\0337\034e\256RH\261I\315\304\303\262Z\273{\351\200"
 381      AE5248B1 
 381      49CDC4C3 
 381      B25ABB7B 
 381      E980
 382 0968 6855BA61 		.ascii	"hU\272a\265s\350TK\216\257T\235T\331/\327\331\301\263"
 382      B573E854 
 382      4B8EAF54 
 382      9D54D92F 
 382      D7D9C1B3 
 383 097c FEF823F2 		.ascii	"\376\370#\362\352C$Pl\306\270j\035\313\351\261\364\237"
 383      EA432450 
 383      6CC6B86A 
 383      1DCBE9B1 
 383      F49F
 384 098e 90C589D6 		.ascii	"\220\305\211\326TrG\217\033\337\013(\237M\305\331\377"
 384      5472478F 
 384      1BDF0B28 
 384      9F4DC5D9 
 384      FF
 385 099f 77ECE8FA 		.ascii	"w\354\350\372\227\026\334\224\326\273H\260z\252\217"
 385      9716DC94 
 385      D6BB48B0 
 385      7AAA8F
 386 09ae 3936B286 		.ascii	"96\262\206\217*\014\001?\307\\\264\243\2038\347\276"
 386      8F2A0C01 
 386      3FC75CB4 
 386      A38338E7 
 386      BE
 387 09bf 57D69DA9 		.ascii	"W\326\235\251\332\271Q\226\037\367\250q\213\\/\337\372"
 387      DAB95196 
 387      1FF7A871 
 387      8B5C2FDF 
 387      FA
 388 09d0 426C9E0D 		.ascii	"Bl\236\015\3200\270(\357\310\226\305\327\223\231\325"
 388      D030B828 
 388      EFC896C5 
 388      D79399D5 
 389 09e0 E222B5BD 		.ascii	"\342\"\265\275\006\322\266azZ\027m\373\005\036\326m"
 389      06D2B661 
 389      7A5A176D 
 389      FB051ED6 
 389      6D
 390 09f1 40A03919 		.ascii	"@\2409\031\311\002\235[\274^\371n\351U\004j\3140\252"
 390      C9029D5B 
 390      BC5EF96E 
 390      E955046A 
 390      CC30AA
 391 0a04 D16588A2 		.ascii	"\321e\210\242\\\372(\312\345\213\025z{]\314?\2601\307"
 391      5CFA28CA 
ARM GAS  /tmp/ccPNIPWS.s 			page 30


 391      E58B157A 
 391      7B5DCC3F 
 391      B031C7
 392 0a17 ACC83018 		.ascii	"\254\3100\030L'\221Z\314\262rZb\260C\241\235\352g0\312"
 392      4C27915A 
 392      CCB2725A 
 392      62B043A1 
 392      9DEA6730 
 393 0a2c 5AFD9C11 		.ascii	"Z\375\234\021\321\321\311G]\344\352q|`R\300Z\354\200"
 393      D1D1C947 
 393      5DE4EA71 
 393      7C6052C0 
 393      5AEC80
 394 0a3f C5F93C61 		.ascii	"\305\371<a\341\312\237\022\221\364\234\370\354\235\377"
 394      E1CA9F12 
 394      91F49CF8 
 394      EC9DFF
 395 0a4e 24CF2389 		.ascii	"$\317#\211\243\222\2356\243\2226cTr\256\023\243\222"
 395      A3929D36 
 395      A3923663 
 395      5472AE13 
 395      A392
 396 0a60 365B51C9 		.ascii	"6[Q\311\005\263\263\022\263`1\272Z\014\216\011s\345"
 396      05B3B312 
 396      B36031BA 
 396      5A0C8E09 
 396      73E5
 397 0a72 2FEFDCA3 		.ascii	"/\357\334\243<\\\275\345\"Agk\277\304A\247\016\207\360"
 397      3C5CBDE5 
 397      2241676B 
 397      BFC441A7 
 397      0E87F0
 398 0a85 DB6BE4BF 		.ascii	"\333k\344\277\371\000\362\337\233\230\377\354Y\221m"
 398      F900F2DF 
 398      9B98FFEC 
 398      59916D
 399 0a94 EAC75E38 		.ascii	"\352\307^8\231f\305}(\341\331\010>U\3329.}\017%\331"
 399      9966C57D 
 399      28E1D908 
 399      3E55DA39 
 399      2E7D0F25 
 400 0aa9 EB203CD0 		.ascii	"\353 <\320\323z]\371V\347\035\234\257\007\034\203e\351"
 400      D37A5DF9 
 400      56E71D9C 
 400      AF071C83 
 400      65E9
 401 0abb C0B6D360 		.ascii	"\300\266\323`G\355\200Y\355\011\000\366\006\015\366"
 401      47ED8059 
 401      ED0900F6 
 401      060DF6
 402 0aca A163303D 		.ascii	"\241c0=\2637i\260\023v\300\254\336b\003\330A\032\354"
 402      B33769B0 
 402      1376C0AC 
 402      DE6203D8 
 402      411AEC
 403 0add 53C76059 		.ascii	"S\307`Yf^\302\364q2\236m\307\250a\037\356\361\035\230"
 403      665EC2F4 
ARM GAS  /tmp/ccPNIPWS.s 			page 31


 403      71329E6D 
 403      C7A8611F 
 403      EEF11D98 
 404 0af1 EFC7FC00 		.ascii	"\357\307\374\000\346\2070?bg\357\337\355\242\366\376"
 404      E687303F 
 404      6267EFDF 
 404      EDA2F6FE 
 405 0b01 2F90705B 		.ascii	"/\220p[r\036\003\313\336\211\317>\371\345v\\\366\014"
 405      721E03CB 
 405      DE89CF3E 
 405      F9E5765C 
 405      F60C
 406 0b13 7B2CD187 		.ascii	"{,\321\207\025\203\017h\006_;f\220E3\210\\\351\\\256"
 406      15830F68 
 406      065F3B66 
 406      90453388 
 406      5CE95CAE 
 407 0b27 3EBB296F 		.ascii	">\273)o\225\2777\342\331\215\323\264\243\245N\010\221"
 407      95BF37E2 
 407      D98DD3B4 
 407      A3A54E08 
 407      91
 408 0b38 35B04B8E 		.ascii	"5\260K\216\301Ru`\363\017P`\2632\235\202\015\350\343"
 408      C1527560 
 408      F30F5060 
 408      B3329D82 
 408      0DE8E3
 409 0b4b 118A2F44 		.ascii	"\021\212/D\320\027v\241\315\217a\336\205\371q\314O\350"
 409      D01776A1 
 409      CD8F61DE 
 409      85F971CC 
 409      4FE8
 410 0b5d A3C9B999 		.ascii	"\243\311\271\231}\216/\214\321d\233.\232\264\205ke\333"
 410      7D8E2F8C 
 410      D1649B2E 
 410      9AB4856B 
 410      65DB
 411 0b6f 1DB46D57 		.ascii	"\035\264mWd:\335\265t\266%QP\355\233\352\246\272\003"
 411      643ADDB5 
 411      74B62551 
 411      50ED9BEA 
 411      A6BA03
 412 0b82 63B13576 		.ascii	"c\2615v\020\343\234\330\277\366\2611\0344[\3559\232"
 412      10E39CD8 
 412      BFF6B131 
 412      1C345BED 
 412      399A
 413 0b94 5B74D7D8 		.ascii	"[t\327\3305Y\3315N\341\256\361bf\342]\203\323\313\310"
 413      3559D935 
 413      4EE1AEF1 
 413      6266E25D 
 413      83D3CBC8 
 414 0ba8 B3A78DBB 		.ascii	"\263\247\215\273\306\245#\270k\234\266\265k\374xd\201"
 414      C6A523B8 
 414      6B9CB6B5 
 414      6BFC7864 
 414      81
ARM GAS  /tmp/ccPNIPWS.s 			page 32


 415 0bb9 1A682BAB 		.ascii	"\032h+\253\315\026\244p:\351\345\376\332\021j\351ju"
 415      CD16A470 
 415      3AE9E5FE 
 415      DA116AE9 
 415      6A75
 416 0bcb 0C96A503 		.ascii	"\014\226\245\003\233\177\214\002\333i\007,\316r\337"
 416      9B7F8C02 
 416      DB69072C 
 416      CE72DF
 417 0bda 4883ED76 		.ascii	"H\203\355v\014\246g\266\200\006k\267\003\026g\271_D"
 417      0CA667B6 
 417      80066BB7 
 417      031667B9 
 417      5F44
 418 0bec 83BDEB18 		.ascii	"\203\275\353\030L\317\254\211\006\353\264\003f\365i"
 418      4CCFAC89 
 418      06EBB403 
 418      66F569
 419 0bfb 0F802DA5 		.ascii	"\017\200-\245\301\016;\006\3233[N\203\035\263\003\226"
 419      C10E3B06 
 419      D3335B4E 
 419      831DB303 
 419      96
 420 0c0c 65CD6C25 		.ascii	"e\315l%\015\366\221c\260,\263)\241\374\3213\212g\377"
 420      0DF69163 
 420      B02CB329 
 420      A1FCD133 
 420      8A67FF
 421 0c1f 8ACBE297 		.ascii	"\212\313\342\227\270X}\205\3717\230\177\207\371\367"
 421      B8587D85 
 421      F937987F 
 421      87F9F7
 422 0c2e 989FC5FC 		.ascii	"\230\237\305\374<\346\0271\277\214\371U;\213\333\347"
 422      3CE61731 
 422      BF8CF955 
 422      3B8BDBE7 
 423 0c3e F4E2F689 		.ascii	"\364\342\366\211\343\245(\256 \227\2517\251W\360$\373"
 423      E3A528AE 
 423      2097A937 
 423      A957F024 
 423      FB
 424 0c4f 2ABE41B8 		.ascii	"*\276A\270\206\371\032$\271\026\363u\230\277\214\371"
 424      86F91A24 
 424      B916F375 
 424      98BF8CF9 
 425 0c5f 56CC5FC7 		.ascii	"V\314_\307|;\346\237`\376\231\035q\316\307N\001b\007"
 425      7C3BE69F 
 425      60FE991D 
 425      71CEC74E 
 425      016207
 426 0c72 CB28DB29 		.ascii	"\313(\333)\303\342\3663f\215,7\366\354x\271\353\246"
 426      C3E2F633 
 426      668D2C37 
 426      F6EC78B9 
 426      EBA6
 427 0c84 36588F7D 		.ascii	"6X\217}J_\216\371\001\333\375\300\015\261\010]\325\021"
 427      4A5F8EF9 
ARM GAS  /tmp/ccPNIPWS.s 			page 33


 427      01DBFDC0 
 427      0DB1085D 
 427      D511
 428 0c96 D483E9A7 		.ascii	"\324\203\351\247\344\307\007\260\321\223\351\037\214"
 428      E4C707B0 
 428      D193E91F 
 428      8C
 429 0ca3 27D3BD2E 		.ascii	"'\323\275.\263\223\351\306v\307'\323\263\335\272\223"
 429      B393E9C6 
 429      76C727D3 
 429      B3DDBA93 
 430 0cb3 698546F4 		.ascii	"i\205F\364F=\3730H|\321Tb\371\\\351X\245;\317\316t\223"
 430      463DFB30 
 430      487CD154 
 430      62F95CE9 
 430      58A53BCF 
 431 0cca A38859EE 		.ascii	"\243\210Y\356\270\262\252\335\216\010c\225\201x\366"
 431      B8B2AADD 
 431      8E086395 
 431      8178F6
 432 0cd9 3957FC6E 		.ascii	"9W\374n\275qTDz\351T\364'\267\231\212\2725\025)\207"
 432      BD715444 
 432      7AE954F4 
 432      27B7998A 
 432      BA351529 
 433 0cee F21C33B3 		.ascii	"\362\0343\263\277\2510?\030\205i\210/\214\005\253\006"
 433      BFA9303F 
 433      18856988 
 433      2F8C05AB 
 433      06
 434 0cff 23AB274D 		.ascii	"#\253'MYm\236;\017v\253\272Ho\357\275\251\006\333\221"
 434      596D9E3B 
 434      0F76ABBA 
 434      486FEFBD 
 434      A906DB91 
 435 0d13 73222BE3 		.ascii	"s\"+\343\31573\236\301Xs\314\345[\"\030\344{\332\226"
 435      CD37339E 
 435      C15873CC 
 435      E55B2218 
 435      E47BDA96 
 436 0d27 7C7572EB 		.ascii	"|ur\353\347\023\307*\254\2308\275T\202\215\246\322n"
 436      E713C72A 
 436      AC9838BD 
 436      54828DA6 
 436      D26E
 437 0d39 E9E86081 		.ascii	"\351\350`\201\302Ur\234`\220\366\2458\322.\212\353\252"
 437      C255729C 
 437      6090F6A5 
 437      38D22E8A 
 437      EBAA
 438 0d4b 2DCA0989 		.ascii	"-\312\011\211\331\033\026\033_\267\002:\256#\011>\211"
 438      D91B161B 
 438      5FB7023A 
 438      AE23093E 
 438      89
 439 0d5c B3A2B6D4 		.ascii	"\263\242\266\324M\037r\251\034\354\277E;q\371\223\377"
 439      4D1F72A9 
ARM GAS  /tmp/ccPNIPWS.s 			page 34


 439      1CECBF45 
 439      3B71F993 
 439      FF
 440 0d6d D880A768 		.ascii	"\330\200\247h+\360\244\366\035\203\315x6\305p\374\223"
 440      2BF0A4F6 
 440      1D83CD78 
 440      36C570FC 
 440      93
 441 0d7e A2E799E2 		.ascii	"\242\347\231\342\213\025b\377\207f\246\013%\300\266"
 441      8B1562FF 
 441      8766A60B 
 441      25C0B6
 442 0d8d 92A3D94C 		.ascii	"\222\243\331L\016\205U2rm\253\337:\024O\265\236G\261"
 442      0E855532 
 442      726DABDF 
 442      3A144FB5 
 442      9E47B1
 443 0da0 0EF6112B 		.ascii	"\016\366\021+\211\227\203L\237\345\250\333\324\303a"
 443      8997834C 
 443      9FE5A8DB 
 443      D4C361
 444 0daf 013E74DB 		.ascii	"\001>t\333\361\330\002\254\371\371B;\213Rd[\303+\203"
 444      F1D802AC 
 444      F9F9423B 
 444      8B52645B 
 444      C32B83
 445 0dc2 E5D5ACE2 		.ascii	"\345\325\254\342V<\273\305e\350\252;\361R\235O\355\332"
 445      563CBBC5 
 445      65E8AA3B 
 445      F1529D4F 
 445      EDDA
 446 0dd4 DAB101E6 		.ascii	"\332\261\001\3462\2478\005,\373\310\316zTt\035\265\353"
 446      32A73805 
 446      2CFBC8CE 
 446      7A54741D 
 446      B5EB
 447 0de6 8E8EF54A 		.ascii	"\216\216\365JW\305\015.%\350\212fQ\273\356\354hQ\272"
 447      57C50D2E 
 447      25E88A66 
 447      51BBEEEC 
 447      6851BA
 448 0df9 36E3A833 		.ascii	"6\343\2503\007\304\357\332L\215\332\246\037\365O\011"
 448      07C4EFDA 
 448      4C8DDAA6 
 448      1FF54F09 
 449 0e09 BAD2A31E 		.ascii	"\272\322\243\036jxE\351\252\030\370\351\004]\237W\374"
 449      6A7845E9 
 449      AA18F8E9 
 449      045D9F57 
 449      FC
 450 0e1a 485929C9 		.ascii	"HY)\3112\320\314\312\203\224I\317\304\351\250\032}\275"
 450      32D0CCCA 
 450      839449CF 
 450      C4E9A81A 
 450      7DBD
 451 0e2c E96272BE 		.ascii	"\351br\276\323|\317\213\267\222lu\260\222D'\205\305"
 451      D37CCF8B 
ARM GAS  /tmp/ccPNIPWS.s 			page 35


 451      B7926C75 
 451      B0924427 
 451      85C5
 452 0e3e 6C884A65 		.ascii	"l\210Je\360\312\305\003L\327\335-\306uw\213-\177\274"
 452      F0CAC503 
 452      4CD7DD2D 
 452      C675778B 
 452      2D7FBC
 453 0e51 D4D9D2D7 		.ascii	"\324\331\322\327\037\267\330\362\307+\363(\317\340\331"
 453      1FB7D8F2 
 453      C72BF328 
 453      CFE0D9
 454 0e60 0D0946A5 		.ascii	"\015\011F\245=\343\307y\224g\360\354\246\004]i\317\350"
 454      3DE3C779 
 454      9467F0EC 
 454      A6045D69 
 454      CFE8
 455 0e72 ED6C8979 		.ascii	"\355l\211y\006\317nN\320U\357\031\027:\015\236a\325"
 455      06CF6E4E 
 455      D055EF19 
 455      173A0D9E 
 455      61D5
 456 0e84 51B5E71B 		.ascii	"Q\265\347\033\246\236\361lcl\233\321v\373\015\346V\351"
 456      A69EF16C 
 456      636C9BD1 
 456      76FB0DE6 
 456      56E9
 457 0e96 35EEF66F 		.ascii	"5\356\366o%\265\333\277e\334\355\367\230\022;|\330\020"
 457      25B5DBBF 
 457      65DCEDF7 
 457      98123B7C 
 457      D810
 458 0ea8 83ECB4C9 		.ascii	"\203\354\264\311\252=)V\355FV\373\372\262\352\301O9"
 458      AA3D2956 
 458      ED4656FB 
 458      FAB2EAC1 
 458      4F39
 459 0eba FEB7E955 		.ascii	"\376\267\351Uy\366\034\371Z\357c\254\362\035\005\307"
 459      79F61CF9 
 459      5AEF63AC 
 459      F21D05C7 
 460 0eca 7418A869 		.ascii	"t\030\250i\030\357\231b\314>\277\217}\302|g\217\023"
 460      18EF9962 
 460      CC3EBF8F 
 460      7DC27C67 
 460      8F13
 461 0edc 83761AA7 		.ascii	"\203v\032\247cW\3370\346C\013\036\007My\\^\267\353\217"
 461      6357DF30 
 461      E6430B1E 
 461      074D795C 
 461      5EB7EB8F 
 462 0ef0 4BE4DDCA 		.ascii	"K\344\335\312\247#\232\226O[@\0346\203\210\034>\371"
 462      A7239A96 
 462      4F5B401C 
 462      3683881C 
 462      3EF9
 463 0f02 A4CCEACD 		.ascii	"\244\314\352\315t\336\002\340\250)\300\373'\237\274"
ARM GAS  /tmp/ccPNIPWS.s 			page 36


 463      74DE02E0 
 463      A829C0FB 
 463      279FBC
 464 0f11 496EC698 		.ascii	"In\306\230N\015^8f\326@s\204c\246\010\037\321\024\266"
 464      4E0D5E38 
 464      66D64073 
 464      8463A608 
 464      1FD114B6 
 465 0f25 22C01A0B 		.ascii	"\"\300\032\013\200\017M\325\260\366|\204\245\324\320"
 465      800F4DD5 
 465      B0F67C84 
 465      A5D4D0
 466 0f34 8910BB2D 		.ascii	"\211\020\273- \272M9lo\2478(\000\357Y\000|\244\0070"
 466      20BA4D39 
 466      6C6FA738 
 466      2800EF59 
 466      007CA407 
 467 0f49 841DC49D 		.ascii	"\204\035\304\235\254\034\340D,\3540\364\"#Z\365\372"
 467      AC1CE044 
 467      2CEC30F4 
 467      22235AF5 
 467      FA
 468 0f5a 38D68B90 		.ascii	"8\326\213\220\215|\327s\346\317\357v\262\273\326\326"
 468      8D7CD773 
 468      E6CFEF76 
 468      B2BBD6D6 
 469 0f6a CB84F063 		.ascii	"\313\204\360c\253\"\0034\312O\0162\235`\370\350\321"
 469      AB220334 
 469      CA4F0E32 
 469      9D60F8E8 
 469      D1
 470 0f7b 854F67AB 		.ascii	"\205Og\253\261\305I\313\011\326\245\233`]\362\304\301"
 470      B1C549CB 
 470      09D6A59B 
 470      605DF2C4 
 470      C1
 471 0f8c D1F975D2 		.ascii	"\321\371u\3228\277z\364\212\030\310\314\307\2110\252"
 471      38BF7AF4 
 471      8A18C8CC 
 471      C78930AA 
 472 0f9c 2953F90F 		.ascii	")S\371\017"
 473 0fa0 26B3351B 		.ascii	"&\2635\033\037\231\335\003\261\244\373g\001la\245\202"
 473      1F99DD03 
 473      B1A4FB67 
 473      016C61A5 
 473      82
 474 0fb1 53EED87F 		.ascii	"S\356\330\177Ie\370b\005V?t\226a\344\221Z;\257\212\363"
 474      4965F862 
 474      05563F74 
 474      9661E491 
 474      5A3BAF8A 
 475 0fc6 85E391FF 		.ascii	"\205\343\221\377b1\262\307\334\216g\343X\377\264\245"
 475      6231B2C7 
 475      DC8E67E3 
 475      58FFB4A5 
 476 0fd6 F517C5B1 		.ascii	"\365\027\305\261\376_-{m\215\323\353K\243\317D\226\302"
 476      FE5F2D7B 
ARM GAS  /tmp/ccPNIPWS.s 			page 37


 476      6D8DD3EB 
 476      4BA3CF44 
 476      96C2
 477 0fe8 92A5EC12 		.ascii	"\222\245\354\022\263\236\340\242\223d\215\271\303l\323"
 477      B39EE0A2 
 477      93648DB9 
 477      C36CD3
 478 0ff7 1C86673F 		.ascii	"\034\206g?\305\025\371o\311"
 478      C515F96F 
 478      C9
 479 1000 38CCDF8C 		.ascii	"8\314\337\214\016\363U\337\251\007\314.\2332\333d\316"
 479      0EF355DF 
 479      A907CC2E 
 479      9B32DB64 
 479      CE
 480 1011 6C8791D9 		.ascii	"l\207\221\331\267\3110\373\326\310\354;=3fxvy\250R\310"
 480      B7C930FB 
 480      D6C8EC3B 
 480      3D336678 
 480      7679A852 
 481 1026 0E844A67 		.ascii	"\016\204Jgd\227\012\323\262\003\345\301)\301P8[\022"
 481      64970AD3 
 481      B203E5C1 
 481      29C15038 
 481      5B12
 482 1038 6BAA1ECD 		.ascii	"k\252\036\315\206\202(e\007\253\002\0255\245\320\250"
 482      86822865 
 482      07AB0215 
 482      35A5D0A8 
 483 1048 BC52AABD 		.ascii	"\274R\252\275\275\234\361V\326HB\255_\362\334\367\300"
 483      BD9CF156 
 483      D64842AD 
 483      5FF2DCF7 
 483      C0
 484 1059 A4AC3C26 		.ascii	"\244\254<&\005oG:\002\012\317\010K3\252\2050\240\365"
 484      056F473A 
 484      020ACF08 
 484      4B33AA85 
 484      30A0F5
 485 106c 97CA4581 		.ascii	"\227\312E\201/\015\373\177_#\324\010~i@\240\334\257"
 485      2F0DFB7F 
 485      5F23D408 
 485      7E6940A0 
 485      DCAF
 486 107e AB1AE10C 		.ascii	"\253\032\341\0149P^\012\250\251\012\204_\362E\341<\325"
 486      39505E0A 
 486      A8A90A84 
 486      5FF245E1 
 486      3CD5
 487 1090 FE2AA156 		.ascii	"\376*\241V\202K\265(L\033k\003\265:$J\341\354\321E\205"
 487      824BB528 
 487      4C1B6B03 
 487      B53A244A 
 487      E1ECD145 
 488 10a5 7985B5D0 		.ascii	"y\205\265\320\262\262:X!\210\341\354\373\362\362\240"
 488      B2B23A58 
 488      2188E1EC 
ARM GAS  /tmp/ccPNIPWS.s 			page 38


 488      FBF2F2A0 
 489 10b5 B9C6DF2B 		.ascii	"\271\306\337+U\213\301\220_\372YvMX\314\346\305\312"
 489      558BC190 
 489      5FFA5976 
 489      4D58CCE6 
 489      C5CA
 490 10c7 DBAA4255 		.ascii	"\333\252BU\302m\002?%\030\245\025\226J\203U\022\241"
 490      C26D023F 
 490      2518A515 
 490      964A8355 
 490      12A1
 491 10d9 5503D7E1 		.ascii	"U\003\327\341\271~iD\234\326\225<\220\251\022\262\375"
 491      B97E6944 
 491      9CD6953C 
 491      90A912B2 
 491      FD
 492 10ea A542195F 		.ascii	"\245B\031_S!\371\265\241\322\374~\255?J\021\014y\003"
 492      5321F9B5 
 492      A1D2FC7E 
 492      AD3F4A11 
 492      0C7903
 493 10fd A12A50BE 		.ascii	"\241*P\276t\267ci\312\003!Q\000\314tR\355\007\324\200"
 493      74B76369 
 493      CA032151 
 493      00CC7452 
 493      ED07D480 
 494 1111 54FBABE4 		.ascii	"T\373\253\344P\374\323\356\252$\262\211\302T\020\310"
 494      50FCD3EE 
 494      AA24B289 
 494      C25410C8 
 495 1121 2FB9C239 		.ascii	"/\271\3029wB\272\013\322HHw\273\302\271\303 \345@\312"
 495      7742BA0B 
 495      D2484877 
 495      BBC2B9C3 
 495      20E540CA 
 496 1135 85341CD2 		.ascii	"\2054\034\322\010Hw@\202v\271\320.\027\332\345B\273"
 496      08487740 
 496      8276B9D0 
 496      2E17DAE5 
 496      42BB
 497 1147 E1D06E78 		.ascii	"\341\320nx\016'\216\340\304;8\361NN\274\213\023Gr\342"
 497      0E278EE0 
 497      C43B38F1 
 497      4E4EBC8B 
 497      134772E2 
 498 115b DD2E3167 		.ascii	"\335.1g\030\244\034\256B\204\313\360\224j?\260\365\022"
 498      18A41CAE 
 498      4284CBF0 
 498      946A3FB0 
 498      F512
 499 116d 7B4E1744 		.ascii	"{N\027D\270\206*J\005\321\035(\347Ebd\276RH\225\302"
 499      B8862A4A 
 499      05D11D28 
 499      E7456264 
 499      BE524895 
 500 1182 122F8137 		.ascii	"\022/\2017y\211\302F\202\033(\252\203\0224\307\337\274"
 500      7989C246 
ARM GAS  /tmp/ccPNIPWS.s 			page 39


 500      821B28AA 
 500      831234C7 
 500      DFBC
 501 1194 5265A854 		.ascii	"Re\250T\300\373\262\012~j\330+\211BY\0305K\012)\225"
 501      C0FBB20A 
 501      7E6AD82B 
 501      89425918 
 501      354B0A29 
 502 11a9 E1A9F0A3 		.ascii	"\341\251\360\243\252n\350\256)^,\235\001?\245\012\265"
 502      AA6EE8AE 
 502      295E2C9D 
 502      013FA50A 
 502      B5
 503 11ba 41091425 		.ascii	"A\011\024%x\246K\241)\217T\247\013\323\204*\251\222"
 503      78A64BA1 
 503      298F54A7 
 503      0BD3842A 
 503      A992
 504 11cc 0F3F0A4D 		.ascii	"\017?\012M\204\351\244\340\252\366\327dj\236\\\021\014"
 504      84E9A4E0 
 504      AAF6D764 
 504      6A9E5C11 
 504      0C
 505 11dd 831DFB53 		.ascii	"\203\035\373S\276Mj|\325\376\351|P\012VMM\253\366\003"
 505      BE4D6A7C 
 505      D5FEE97C 
 505      500A564D 
 505      4DABF603 
 506 11f1 2AFA7B0A 		.ascii	"*\372{\012\026\241B\250\026\252\300o\246B+\230x\244"
 506      16A142A8 
 506      16AAC06F 
 506      A6422B98 
 506      78A4
 507 1203 7D1AE1C6 		.ascii	"}\032\341\306W\240\345\241\262:\024\252\360V*\263\004"
 507      57A0E5A1 
 507      B23A14AA 
 507      F0562AB3 
 507      04
 508 1214 AEA1E955 		.ascii	"\256\241\351U\202\350\251D/\317Md\312r\276\"\352p\301"
 508      82E8A944 
 508      2FCF4D64 
 508      CA72BE22 
 508      EA70C1
 509 1227 DC00F12E 		.ascii	"\334\000\361.\270\250ZK\033\227\233\347\237\364\300"
 509      B8A85A4B 
 509      1B979BE7 
 509      9FF4C0
 510 1236 B807C695 		.ascii	"\270\007\306\225\244\222bq\311\204\211>R(*\030\235?"
 510      A4926271 
 510      C984893E 
 510      52282A18 
 510      9D3F
 511 1248 B91F298D 		.ascii	"\271\037)\215\316+\031\367\233\002\177\311\203\364]"
 511      CE2B19F7 
 511      9B027FC9 
 511      83F45D
 512 1257 D183D873 		.ascii	"\321\203\330s\374\204\274\373\013\362\363\355PP\334"
ARM GAS  /tmp/ccPNIPWS.s 			page 40


 512      FC84BCFB 
 512      0BF2F3ED 
 512      5050DC
 513 1266 A9B8A470 		.ascii	"\251\270\244pxn\366\370\361\371\331\320}Z\016!\344\257"
 513      786EF6F8 
 513      F1F9D9D0 
 513      7D5A0E21 
 513      E4AF
 514 1278 A8285549 		.ascii	"\250(UI\241y\374\322\355v\360\302b\000\305\0110^\270"
 514      A179FCD2 
 514      ED76F0C2 
 514      6200C509 
 514      305EB8
 515 128b 8CAB0A4A 		.ascii	"\214\253\012J\204w\276\030\234&\210)(]:\324\207\252"
 515      8477BE18 
 515      9C268829 
 515      285D3AD4 
 515      87AA
 516 129d 15DBA74D 		.ascii	"\025\333\247M\230X8!\277\300\017M\256S\213\305\205\277"
 516      98583821 
 516      BFC00F4D 
 516      AE538BC5 
 516      85BF
 517 12af 9E54ECCF 		.ascii	"\236T\354\317/\370\315\270\274\202\201\272\272\261\023"
 517      2FF8CDB8 
 517      BC8281BA 
 517      BAB113
 518 12be 8A4BBC21 		.ascii	"\212K\274!P;tM\017T\204\002\217\372\303\325\202P\232"
 518      503B744D 
 518      0F548402 
 518      8FFAC3D5 
 518      82509A
 519 12d1 0980A535 		.ascii	"\011\200\2455\322\214\300\214@\005`f\026\227\344\373"
 519      D28CC08C 
 519      40056066 
 519      1697E4FB 
 520 12e1 F327954C 		.ascii	"\363'\225L\366\347M\316\033_0p\314\350\342\022\352\336"
 520      F6E74DCE 
 520      1B5F3070 
 520      CCE8E212 
 520      EADE
 521 12f3 9FFB4FC6 		.ascii	"\237\373O\306\232\234;\375w\247\021\004?B\020\302y\241"
 521      9A9C3BFD 
 521      77A71104 
 521      3F4210C2 
 521      79A1
 522 1305 AAB2E054 		.ascii	"\252\262\340TO@\271\010\242\030\022\303w9Z\007U7\003"
 522      4F40B908 
 522      A21812C3 
 522      77395A07 
 522      553703
 523 1318 150E5297 		.ascii	"\025\016R\227B\360jA\024\252\002\300\321\243T\371\200"
 523      42F06A41 
 523      14AA02C0 
 523      D1A354F9 
 523      80
 524 1329 395F5A2A 		.ascii	"9_Z*\372%\\\227\200\207\244.1\244\350&?\371\304\332"
ARM GAS  /tmp/ccPNIPWS.s 			page 41


 524      FA255C97 
 524      8087A42E 
 524      31A4E826 
 524      3FF9C4DA 
 525 133d D24A9E88 		.ascii	"\322J\236\210\354\223\264\322\030\247\206\305|\314\210"
 525      EC93B4D2 
 525      18A786C5 
 525      7CCC88
 526 134c DA5A5808 		.ascii	"\332ZX\010+a\022\001\016\360\372e\"\030p\343\354\274"
 526      2B611201 
 526      0EF0FA65 
 526      221870E3 
 526      ECBC
 527 135e C2E271C5 		.ascii	"\302\342q\305\000\240\364,\0331,\247\226\370\352\240"
 527      00A0F42C 
 527      1B312CA7 
 527      96F8EAA0 
 528 136e FCC2D1FE 		.ascii	"\374\302\321\376b\230\261|\245\277\004V\307|\241\214"
 528      6298B17C 
 528      A5BF0456 
 528      C77CA18C 
 529 137e CB2B723F 		.ascii	"\313+r?\220_R\344\2328\272\310]8\214d9\243\213\\c\362"
 529      905F52E4 
 529      9A38BAC8 
 529      5D388C64 
 529      39A38B5C 
 530 1394 8A3C616C 		.ascii	"\212<al\350\016\226\005DO0\\\036,\223|a\241\242,XU*"
 530      E80E9605 
 530      444F305C 
 530      1E2C937C 
 530      61A1A22C 
 531 13ab D47AA609 		.ascii	"\324z\246\011\001)$\016\2122\363+\255\375R\012\334\210"
 531      0129240E 
 531      8A32F32B 
 531      ADFD520A 
 531      DC88
 532 13bd B524976A 		.ascii	"\265$\227j\323\211[\253\003\271\362\212r \345\272'\214"
 532      D3895BAB 
 532      03B9F28A 
 532      7220E5BA 
 532      278C
 533 13cf 2ECA2159 		.ascii	".\312!Y.\227_\344*\206\312\342\242\\W^^QJI\321\270\342"
 533      2E975FE4 
 533      2A86CAE2 
 533      A25C575E 
 533      5E514A49 
 534 13e6 02F798F1 		.ascii	"\002\367\230\361@\0064\334\017\322\204)\217\3000\304"
 534      400634DC 
 534      0FD28429 
 534      8FC030C4 
 535 13f6 1DDD7057 		.ascii	"\035\335pW\235\012Y\261\304\213\222\027\013\241\352"
 535      9D0A59B1 
 535      C48B9217 
 535      0BA1EA
 536 1405 0CB8DE27 		.ascii	"\014\270\336'H\005h\350\\\334\033*\202S\262\247\006"
 536      480568E8 
 536      5CDC1B2A 
ARM GAS  /tmp/ccPNIPWS.s 			page 42


 536      8253B2A7 
 536      06
 537 1416 02863D62 		.ascii	"\002\206=b\304\355#o\037A\357+\260G\200><\341\340\377"
 537      C4ED236F 
 537      1F41EF2B 
 537      B047803E 
 537      3CE1E0FF 
 538 142a 805D7D64 		.ascii	"\200]}d_\015VBi0\000\026\362aI\020KD\276*\\\031\224"
 538      5F0D5642 
 538      69300016 
 538      F2614910 
 538      4B44BE2A 
 539 1441 4AA03E54 		.ascii	"J\240>T#\245H\265Sj\312\274\220\317\220\204p\212\210"
 539      23A548B5 
 539      536ACABC 
 539      90CF9084 
 539      708A88
 540 1454 77A272E7 		.ascii	"w\242r\347\225\22467F;\027\011\001\001\246\216\332\227"
 540      95943637 
 540      463B1709 
 540      0101A68E 
 540      DA97
 541 1466 48323AF0 		.ascii	"H2:\360\373\232\240(\374\272&L\356\212\204\012\201\017"
 541      FB9AA028 
 541      FCBA264C 
 541      EE8A840A 
 541      810F
 542 1478 93BB0C75 		.ascii	"\223\273\014u\316\302:\031$\353\\\241T\033\023\272\237"
 542      CEC23A19 
 542      24EB5CA1 
 542      541B13BA 
 542      9F
 543 1489 F6639808 		.ascii	"\366c\230\010\235\021\273\013U\017\321n*q@\277\244\322"
 543      9D11BB0B 
 543      550FD16E 
 543      2A7140BF 
 543      A4D2
 544 149b F5AB5CFE 		.ascii	"\365\253\\\376\325\360\273\2500\322~\366\341H\343a2"
 544      D5F0BBA8 
 544      30D27EF6 
 544      E148E361 
 544      32
 545 14ac A6636952 		.ascii	"\246ciR\025\231\230\011\243\032\342\241\2410d0g\310"
 545      15999809 
 545      A31AE2A1 
 545      A1306430 
 545      67C8
 546 14be 1554781D 		.ascii	"\025Tx\035\271\026\222P&\306\233\253\254\356\027\255"
 546      B9169250 
 546      26C69BAB 
 546      ACEE17AD 
 547 14ce 2683F48F 		.ascii	"&\203\364\217\336)\003\375\037\374y-#"
 547      DE2903FD 
 547      1FFC792D 
 547      23
 548              		.text
 549              		.section	.gnu.lto_.symtab.3d9ebe663ec96c6a,"",%progbits
ARM GAS  /tmp/ccPNIPWS.s 			page 43


 550 0000 69326349 		.ascii	"i2cInit\000\000\000\000\000\000\000\000\000\000\000"
 550      6E697400 
 550      00000000 
 550      00000000 
 550      0000
 551 0012 006F0100 		.ascii	"\000o\001\000\000i2cObjectInit\000\000\000\000\000\000"
 551      00693263 
 551      4F626A65 
 551      6374496E 
 551      69740000 
 552 002a 00000000 		.ascii	"\000\000\000\000\000\000s\001\000\000i2cStart\000\000"
 552      00007301 
 552      00006932 
 552      63537461 
 552      72740000 
 553 003e 00000000 		.ascii	"\000\000\000\000\000\000\000\000\000\000\003\002\000"
 553      00000000 
 553      00000302 
 553      00
 554 004b 00693263 		.ascii	"\000i2cStop\000\000\000\000\000\000\000\000\000\000"
 554      53746F70 
 554      00000000 
 554      00000000 
 554      0000
 555 005d 00000B02 		.ascii	"\000\000\013\002\000\000i2cGetErrors\000\000\000\000"
 555      00006932 
 555      63476574 
 555      4572726F 
 555      72730000 
 556 0073 00000000 		.ascii	"\000\000\000\000\000\000\000\000\017\002\000\000i2c"
 556      00000000 
 556      0F020000 
 556      693263
 557 0082 4D617374 		.ascii	"MasterTransmitTimeout\000\000\000\000\000\000\000\000"
 557      65725472 
 557      616E736D 
 557      69745469 
 557      6D656F75 
 558 009f 00000000 		.ascii	"\000\000\000\000\025\002\000\000i2cMasterReceiveTim"
 558      15020000 
 558      6932634D 
 558      61737465 
 558      72526563 
 559 00ba 656F7574 		.ascii	"eout\000\000\000\000\000\000\000\000\000\000\000\000"
 559      00000000 
 559      00000000 
 559      00000000 
 560 00ca 35020000 		.ascii	"5\002\000\000i2cAcquireBus\000\000\000\000\000\000\000"
 560      69326341 
 560      63717569 
 560      72654275 
 560      73000000 
 561 00e2 00000000 		.ascii	"\000\000\000\000\000C\002\000\000i2cReleaseBus\000\000"
 561      00430200 
 561      00693263 
 561      52656C65 
 561      61736542 
ARM GAS  /tmp/ccPNIPWS.s 			page 44


 562 00fa 00000000 		.ascii	"\000\000\000\000\000\000\000\000\000\000G\002\000\000"
 562      00000000 
 562      00004702 
 562      0000
 563 0108 6932635F 		.ascii	"i2c_lld_init\000\000\002\000\000\000\000\000\000\000"
 563      6C6C645F 
 563      696E6974 
 563      00000200 
 563      00000000 
 564 011e 00004B02 		.ascii	"\000\000K\002\000\000chMtxObjectInit\000\000\002\000"
 564      00006368 
 564      4D74784F 
 564      626A6563 
 564      74496E69 
 565 0137 00000000 		.ascii	"\000\000\000\000\000\000\000\000M\002\000\000i2c_ll"
 565      00000000 
 565      4D020000 
 565      6932635F 
 565      6C6C
 566 0149 645F7374 		.ascii	"d_start\000\000\002\000\000\000\000\000\000\000\000"
 566      61727400 
 566      00020000 
 566      00000000 
 566      0000
 567 015b 00510200 		.ascii	"\000Q\002\000\000i2c_lld_stop\000\000\002\000\000\000"
 567      00693263 
 567      5F6C6C64 
 567      5F73746F 
 567      70000002 
 568 0172 00000000 		.ascii	"\000\000\000\000\000\000S\002\000\000i2c_lld_master"
 568      00005302 
 568      00006932 
 568      635F6C6C 
 568      645F6D61 
 569 018a 5F747261 		.ascii	"_transmit_timeout\000\000\002\000\000\000\000\000\000"
 569      6E736D69 
 569      745F7469 
 569      6D656F75 
 569      74000002 
 570 01a4 00000055 		.ascii	"\000\000\000U\002\000\000i2c_lld_master_receive_tim"
 570      02000069 
 570      32635F6C 
 570      6C645F6D 
 570      61737465 
 571 01c5 656F7574 		.ascii	"eout\000\000\002\000\000\000\000\000\000\000\000\000"
 571      00000200 
 571      00000000 
 571      00000000 
 572 01d5 57020000 		.ascii	"W\002\000\000chMtxLock\000\000\002\000\000\000\000\000"
 572      63684D74 
 572      784C6F63 
 572      6B000002 
 572      00000000 
 573 01ea 00000000 		.ascii	"\000\000\000\000Y\002\000\000chMtxUnlock\000\000\002"
 573      59020000 
 573      63684D74 
 573      78556E6C 
ARM GAS  /tmp/ccPNIPWS.s 			page 45


 573      6F636B00 
 574 0200 00000000 		.ascii	"\000\000\000\000\000\000\000\000\000[\002\000\000"
 574      00000000 
 574      005B0200 
 574      00
 575              		.text
 576              		.section	.gnu.lto_.opts,"",%progbits
 577 0000 272D6D63 		.ascii	"'-mcpu=cortex-m4' '-mfloat-abi=hard' '-mfpu=fpv4-sp"
 577      70753D63 
 577      6F727465 
 577      782D6D34 
 577      2720272D 
 578 0033 2D643136 		.ascii	"-d16' '-mno-thumb-interwork' '-mthumb' '-O2' '-fomi"
 578      2720272D 
 578      6D6E6F2D 
 578      7468756D 
 578      622D696E 
 579 0066 742D6672 		.ascii	"t-frame-pointer' '-falign-functions=16' '-ffunction"
 579      616D652D 
 579      706F696E 
 579      74657227 
 579      20272D66 
 580 0099 2D736563 		.ascii	"-sections' '-fdata-sections' '-fno-common' '-flto' "
 580      74696F6E 
 580      73272027 
 580      2D666461 
 580      74612D73 
 581 00cc 272D6673 		.ascii	"'-fsingle-precision-constant'\000"
 581      696E676C 
 581      652D7072 
 581      65636973 
 581      696F6E2D 
 582              		.text
 583              		.section	.text.i2cInit,"ax",%progbits
 584              		.align	2
 585              		.p2align 4,,15
 586              		.global	i2cInit
 587              		.thumb
 588              		.thumb_func
 589              		.type	i2cInit, %function
 590              	i2cInit:
 591              		@ args = 0, pretend = 0, frame = 0
 592              		@ frame_needed = 0, uses_anonymous_args = 0
 593              		@ link register save eliminated.
 594 0000 FFF7FEBF 		b	i2c_lld_init
 595              		.size	i2cInit, .-i2cInit
 596 0004 AFF30080 		.section	.text.i2cObjectInit,"ax",%progbits
 596      AFF30080 
 596      AFF30080 
 597              		.align	2
 598              		.p2align 4,,15
 599              		.global	i2cObjectInit
 600              		.thumb
 601              		.thumb_func
 602              		.type	i2cObjectInit, %function
 603              	i2cObjectInit:
 604              		@ args = 0, pretend = 0, frame = 0
ARM GAS  /tmp/ccPNIPWS.s 			page 46


 605              		@ frame_needed = 0, uses_anonymous_args = 0
 606              		@ link register save eliminated.
 607 0000 0122     		movs	r2, #1
 608 0002 0023     		movs	r3, #0
 609 0004 0270     		strb	r2, [r0]
 610 0006 4360     		str	r3, [r0, #4]
 611 0008 0C30     		adds	r0, r0, #12
 612 000a FFF7FEBF 		b	chMtxObjectInit
 613              		.size	i2cObjectInit, .-i2cObjectInit
 614 000e 00BF     		.section	.text.i2cStart,"ax",%progbits
 615              		.align	2
 616              		.p2align 4,,15
 617              		.global	i2cStart
 618              		.thumb
 619              		.thumb_func
 620              		.type	i2cStart, %function
 621              	i2cStart:
 622              		@ args = 0, pretend = 0, frame = 0
 623              		@ frame_needed = 0, uses_anonymous_args = 0
 624 0000 10B5     		push	{r4, lr}
 625 0002 2023     		movs	r3, #32
 626 0004 0446     		mov	r4, r0
 627              	@ 546 "/home/cody/dev/chibios/trunk/os/ext/CMSIS/include/core_cmFunc.h" 1
 628 0006 83F31188 		MSR basepri, r3
 629              	@ 0 "" 2
 630              		.thumb
 631 000a 4160     		str	r1, [r0, #4]
 632 000c FFF7FEFF 		bl	i2c_lld_start
 633 0010 0223     		movs	r3, #2
 634 0012 2370     		strb	r3, [r4]
 635 0014 0023     		movs	r3, #0
 636              	@ 546 "/home/cody/dev/chibios/trunk/os/ext/CMSIS/include/core_cmFunc.h" 1
 637 0016 83F31188 		MSR basepri, r3
 638              	@ 0 "" 2
 639              		.thumb
 640 001a 10BD     		pop	{r4, pc}
 641              		.size	i2cStart, .-i2cStart
 642 001c AFF30080 		.section	.text.i2cStop,"ax",%progbits
 643              		.align	2
 644              		.p2align 4,,15
 645              		.global	i2cStop
 646              		.thumb
 647              		.thumb_func
 648              		.type	i2cStop, %function
 649              	i2cStop:
 650              		@ args = 0, pretend = 0, frame = 0
 651              		@ frame_needed = 0, uses_anonymous_args = 0
 652 0000 10B5     		push	{r4, lr}
 653 0002 2023     		movs	r3, #32
 654 0004 0446     		mov	r4, r0
 655              	@ 546 "/home/cody/dev/chibios/trunk/os/ext/CMSIS/include/core_cmFunc.h" 1
 656 0006 83F31188 		MSR basepri, r3
 657              	@ 0 "" 2
 658              		.thumb
 659 000a FFF7FEFF 		bl	i2c_lld_stop
 660 000e 0123     		movs	r3, #1
 661 0010 2370     		strb	r3, [r4]
ARM GAS  /tmp/ccPNIPWS.s 			page 47


 662 0012 0023     		movs	r3, #0
 663              	@ 546 "/home/cody/dev/chibios/trunk/os/ext/CMSIS/include/core_cmFunc.h" 1
 664 0014 83F31188 		MSR basepri, r3
 665              	@ 0 "" 2
 666              		.thumb
 667 0018 10BD     		pop	{r4, pc}
 668              		.size	i2cStop, .-i2cStop
 669              		.section	.text.i2cGetErrors,"ax",%progbits
 670              		.align	2
 671              		.p2align 4,,15
 672              		.global	i2cGetErrors
 673              		.thumb
 674              		.thumb_func
 675              		.type	i2cGetErrors, %function
 676              	i2cGetErrors:
 677              		@ args = 0, pretend = 0, frame = 0
 678              		@ frame_needed = 0, uses_anonymous_args = 0
 679              		@ link register save eliminated.
 680 0000 8068     		ldr	r0, [r0, #8]
 681 0002 7047     		bx	lr
 682              		.size	i2cGetErrors, .-i2cGetErrors
 683 0004 AFF30080 		.section	.text.i2cMasterTransmitTimeout,"ax",%progbits
 683      AFF30080 
 683      AFF30080 
 684              		.align	2
 685              		.p2align 4,,15
 686              		.global	i2cMasterTransmitTimeout
 687              		.thumb
 688              		.thumb_func
 689              		.type	i2cMasterTransmitTimeout, %function
 690              	i2cMasterTransmitTimeout:
 691              		@ args = 12, pretend = 0, frame = 0
 692              		@ frame_needed = 0, uses_anonymous_args = 0
 693 0000 F0B5     		push	{r4, r5, r6, r7, lr}
 694 0002 85B0     		sub	sp, sp, #20
 695 0004 0446     		mov	r4, r0
 696 0006 0A9F     		ldr	r7, [sp, #40]
 697 0008 0B9E     		ldr	r6, [sp, #44]
 698 000a 4FF0200E 		mov	lr, #32
 699              	@ 546 "/home/cody/dev/chibios/trunk/os/ext/CMSIS/include/core_cmFunc.h" 1
 700 000e 8EF31188 		MSR basepri, lr
 701              	@ 0 "" 2
 702              		.thumb
 703 0012 4FF0030E 		mov	lr, #3
 704 0016 0196     		str	r6, [sp, #4]
 705 0018 0025     		movs	r5, #0
 706 001a 0C9E     		ldr	r6, [sp, #48]
 707 001c 0097     		str	r7, [sp]
 708 001e 0296     		str	r6, [sp, #8]
 709 0020 8560     		str	r5, [r0, #8]
 710 0022 80F800E0 		strb	lr, [r0]
 711 0026 FFF7FEFF 		bl	i2c_lld_master_transmit_timeout
 712 002a 431C     		adds	r3, r0, #1
 713 002c 0CBF     		ite	eq
 714 002e 0523     		moveq	r3, #5
 715 0030 0223     		movne	r3, #2
 716 0032 2370     		strb	r3, [r4]
ARM GAS  /tmp/ccPNIPWS.s 			page 48


 717 0034 0023     		movs	r3, #0
 718              	@ 546 "/home/cody/dev/chibios/trunk/os/ext/CMSIS/include/core_cmFunc.h" 1
 719 0036 83F31188 		MSR basepri, r3
 720              	@ 0 "" 2
 721              		.thumb
 722 003a 05B0     		add	sp, sp, #20
 723              		@ sp needed
 724 003c F0BD     		pop	{r4, r5, r6, r7, pc}
 725              		.size	i2cMasterTransmitTimeout, .-i2cMasterTransmitTimeout
 726 003e 00BF     		.section	.text.i2cMasterReceiveTimeout,"ax",%progbits
 727              		.align	2
 728              		.p2align 4,,15
 729              		.global	i2cMasterReceiveTimeout
 730              		.thumb
 731              		.thumb_func
 732              		.type	i2cMasterReceiveTimeout, %function
 733              	i2cMasterReceiveTimeout:
 734              		@ args = 4, pretend = 0, frame = 0
 735              		@ frame_needed = 0, uses_anonymous_args = 0
 736 0000 F0B5     		push	{r4, r5, r6, r7, lr}
 737 0002 83B0     		sub	sp, sp, #12
 738 0004 0446     		mov	r4, r0
 739 0006 089D     		ldr	r5, [sp, #32]
 740 0008 2026     		movs	r6, #32
 741              	@ 546 "/home/cody/dev/chibios/trunk/os/ext/CMSIS/include/core_cmFunc.h" 1
 742 000a 86F31188 		MSR basepri, r6
 743              	@ 0 "" 2
 744              		.thumb
 745 000e 0027     		movs	r7, #0
 746 0010 0426     		movs	r6, #4
 747 0012 0095     		str	r5, [sp]
 748 0014 8760     		str	r7, [r0, #8]
 749 0016 0670     		strb	r6, [r0]
 750 0018 FFF7FEFF 		bl	i2c_lld_master_receive_timeout
 751 001c 431C     		adds	r3, r0, #1
 752 001e 0CBF     		ite	eq
 753 0020 0523     		moveq	r3, #5
 754 0022 0223     		movne	r3, #2
 755 0024 2370     		strb	r3, [r4]
 756 0026 0023     		movs	r3, #0
 757              	@ 546 "/home/cody/dev/chibios/trunk/os/ext/CMSIS/include/core_cmFunc.h" 1
 758 0028 83F31188 		MSR basepri, r3
 759              	@ 0 "" 2
 760              		.thumb
 761 002c 03B0     		add	sp, sp, #12
 762              		@ sp needed
 763 002e F0BD     		pop	{r4, r5, r6, r7, pc}
 764              		.size	i2cMasterReceiveTimeout, .-i2cMasterReceiveTimeout
 765              		.section	.text.i2cAcquireBus,"ax",%progbits
 766              		.align	2
 767              		.p2align 4,,15
 768              		.global	i2cAcquireBus
 769              		.thumb
 770              		.thumb_func
 771              		.type	i2cAcquireBus, %function
 772              	i2cAcquireBus:
 773              		@ args = 0, pretend = 0, frame = 0
ARM GAS  /tmp/ccPNIPWS.s 			page 49


 774              		@ frame_needed = 0, uses_anonymous_args = 0
 775              		@ link register save eliminated.
 776 0000 0C30     		adds	r0, r0, #12
 777 0002 FFF7FEBF 		b	chMtxLock
 778              		.size	i2cAcquireBus, .-i2cAcquireBus
 779 0006 00BFAFF3 		.section	.text.i2cReleaseBus,"ax",%progbits
 779      0080AFF3 
 779      0080
 780              		.align	2
 781              		.p2align 4,,15
 782              		.global	i2cReleaseBus
 783              		.thumb
 784              		.thumb_func
 785              		.type	i2cReleaseBus, %function
 786              	i2cReleaseBus:
 787              		@ args = 0, pretend = 0, frame = 0
 788              		@ frame_needed = 0, uses_anonymous_args = 0
 789              		@ link register save eliminated.
 790 0000 0C30     		adds	r0, r0, #12
 791 0002 FFF7FEBF 		b	chMtxUnlock
 792              		.size	i2cReleaseBus, .-i2cReleaseBus
 793              		.comm	__gnu_lto_v1,1,1
 794 0006 00BFAFF3 		.ident	"GCC: (GNU Tools for ARM Embedded Processors) 4.8.4 20140526 (release) [ARM/embedded-4_8-br
 794      0080AFF3 
 794      0080
ARM GAS  /tmp/ccPNIPWS.s 			page 50

