ARM GAS  /tmp/ccRu2VOH.s 			page 1


   1              		.syntax unified
   2              		.cpu cortex-m4
   3              		.eabi_attribute 27, 3
   4              		.eabi_attribute 28, 1
   5              		.fpu fpv4-sp-d16
   6              		.eabi_attribute 20, 1
   7              		.eabi_attribute 21, 1
   8              		.eabi_attribute 23, 3
   9              		.eabi_attribute 24, 1
  10              		.eabi_attribute 25, 1
  11              		.eabi_attribute 26, 1
  12              		.eabi_attribute 30, 2
  13              		.eabi_attribute 34, 1
  14              		.eabi_attribute 18, 4
  15              		.thumb
  16              		.file	"i2c_sensor.c"
  17              		.section	.gnu.lto_.jmpfuncs.e04a592bdd93fef6,"",%progbits
  18 0000 789C6362 		.ascii	"x\234cb`b\300\006\"\030\031\0302\2004+\0033\220\305"
  18      6062C006 
  18      22181918 
  18      3280342B 
  18      033390C5 
  19 0014 CC0C6496 		.ascii	"\314\014d\226\001i\006\006\3062\2204P\023S\004c&#\210"
  19      01690606 
  19      C6329034 
  19      50135304 
  19      63262388 
  20 0028 CD58CFCC 		.ascii	"\315X\317\314T\315\360\253\241\243A \223\2211\027,\306"
  20      54CDF0AB 
  20      A1A34120 
  20      93913117 
  20      2CC6
  21 003a 00169901 		.ascii	"\000\026\231\001\022a\222c`\234\3330\303!\223\221\031"
  21      12619263 
  21      609CDB30 
  21      C3219391 
  21      19
  22 004b 6A3633D8 		.ascii	"j63\330H|zX\344\030$!zX\241zX\344\361j`\223c\320\203"
  22      487C7A58 
  22      E4182421 
  22      7A58A17A 
  22      58E4F16A 
  23 0064 68608759 		.ascii	"h`\207YB\300|\0074\363\361)\347\220c\010\205(\347\204"
  23      42C07C07 
  23      34F3F129 
  23      E7906308 
  23      8528E784 
  24 0078 07102318 		.ascii	"\007\020#\030\201m\203\207\012\220\301\\\006\227fcg"
  24      816D8387 
  24      0A90C15C 
  24      06976663 
  24      67
  25 0089 05071B23 		.ascii	"\005\007\033#\232\022&\020C<\270$\261\250$3/]\24185"
  25      9A122610 
  25      433CB824 
  25      B1A82433 
  25      2F5DA138 
ARM GAS  /tmp/ccRu2VOH.s 			page 2


  26 009e AF38BF48 		.ascii	"\2578\277HA\265XOO\217\213A$\270$\277\240\000E\234\213"
  26      41B5584F 
  26      4F8F8B41 
  26      24B824BF 
  26      A000459C 
  27 00b3 41D0D3C8 		.ascii	"A\320\323\310\331J\265X\301\323\317\3219\3043\314\025"
  27      D94AB558 
  27      C1D3CFD1 
  27      39C433CC 
  27      15
  28 00c4 A80C2A12 		.ascii	"\250\014*\022\022\024\241\020\034\352\354\354\032\034"
  28      1214A110 
  28      1CEAECEC 
  28      1A1C
  29 00d2 CCC5208C 		.ascii	"\314\305 \214\020t\015\012\322PM\321\344b\000\000\261"
  29      10740D0A 
  29      D2504DD1 
  29      E4620000 
  29      B1
  30 00e3 21547D   		.ascii	"!T}"
  31              		.text
  32              		.section	.gnu.lto_.inline.e04a592bdd93fef6,"",%progbits
  33 0000 789C6D50 		.ascii	"x\234mP1N\303@\020\2349\357\371\014\216\211\205\220"
  33      314EC340 
  33      109C39EF 
  33      F90C8E89 
  33      8590
  34 0012 DC444AA8 		.ascii	"\334DJ\250\322\360\010:\272\324\374 \360\220H)C\221"
  34      D2F0083A 
  34      BAD4FC20 
  34      F0904829 
  34      4391
  35 0024 2634FE48 		.ascii	"&4\376H\244T\364\374 %\317`w\355K(\360I\263\243\363"
  35      A454F4FC 
  35      2025CF60 
  35      77ED4B28 
  35      F049B3A3 
  36 0039 ECEEDC04 		.ascii	"\354\356\334\004\004\374\367\0358\324\010\251gpQ\331"
  36      04FCF71D 
  36      38D408A9 
  36      677051D9 
  37 0049 CF2F5A22 		.ascii	"\317/Z\"\336\001\305ne\247\230\270\200\350\276A\302"
  37      DE01C56E 
  37      65A798B8 
  37      80E8BE41 
  37      C2
  38 005a 3A4377DC 		.ascii	":Cw\334'L??\350-\322\250\030P)\232\216\302\267W\276"
  38      274C3F3F 
  38      E82DD2A8 
  38      1850299A 
  38      8EC2B757 
  39 006f F3D6E6AC 		.ascii	"\363\326\346\2543\3636\032D\376$\244\3552@\372\371\002"
  39      33F3361A 
  39      44FE24A4 
  39      ED3240FA 
  39      F902
  40 0081 DC14121C 		.ascii	"\334\024\022\034M\025j\010\270[]&\012\236\276\300\004"
ARM GAS  /tmp/ccRu2VOH.s 			page 3


  40      4D156A08 
  40      B85B5D26 
  40      0A9EBEC0 
  40      04
  41 0092 1F59FBE5 		.ascii	"\037Y\373\345\372J\231q\240\213`T\014\252\374\"\335"
  41      FA4A9971 
  41      A08B6054 
  41      0CAAFC22 
  41      DD
  42 00a3 D606C4ED 		.ascii	"\326\006\304\355\262\005O\351\331vYA<?*\257\373\027"
  42      B2054FE9 
  42      D9765941 
  42      3C3F2AAF 
  42      FB17
  43 00b5 195F508D 		.ascii	"\031_P\215\013\033u\340L#\020=\0303p_\331\337\315\275"
  43      0B1B75E0 
  43      4C23103D 
  43      1833705F 
  43      D9DFCDBD 
  44 00c9 D634E493 		.ascii	"\3264\344\223O\376Wb\362\240\271\230\241\223\307U\234"
  44      4FFE5762 
  44      F2A0B998 
  44      A193C755 
  44      9C
  45 00da 59FEB123 		.ascii	"Y\376\261#\003\032TN\315+R\253\321\\\207\341\027\352"
  45      031A544E 
  45      CD2B52AB 
  45      D15C87E1 
  45      17EA
  46 00ec 9B3321   		.ascii	"\2333!"
  47              		.text
  48              		.section	.gnu.lto_.pureconst.e04a592bdd93fef6,"",%progbits
  49 0000 789C6362 		.ascii	"x\234cb`b\340f\200\000V\006\011F)f)\026I6I\000\004!"
  49      6062E066 
  49      80005606 
  49      09462966 
  49      29164936 
  50 0018 00A1     		.ascii	"\000\241"
  51              		.text
  52              		.section	.gnu.lto_chprintf.e04a592bdd93fef6,"",%progbits
  53 0000 789C8550 		.ascii	"x\234\205P\315J\002Q\024>\337\0355uc\333v\342\0034\213"
  53      CD4A0251 
  53      143EDF1D 
  53      357563DB 
  53      76E20334 
  54 0015 22E80D7A 		.ascii	"\"\350\015z\000\203Z\3058\216z\011\035\321Q\260\026"
  54      00835AC5 
  54      388E7A09 
  54      1DD151B0 
  54      16
  55 0026 5EC1C245 		.ascii	"^\301\302E\013ig\021)\321:\244\027\030\202\332DI\273"
  55      0B696711 
  55      29D13AA4 
  55      171882DA 
  55      4449BB
  56 0039 162D2497 		.ascii	"\026-$\227\265h\321*\202\351\336\031\024\372\201\016"
  56      B568D12A 
ARM GAS  /tmp/ccRu2VOH.s 			page 4


  56      82E9DE19 
  56      14FA810E 
  57 0049 DC7B7EBE 		.ascii	"\334{~\276s\276\363\303\210\321OY\220o\010\2425\251"
  57      73BEF3C3 
  57      88D14F59 
  57      906F08A2 
  57      35A9
  58 005b A11158F7 		.ascii	"\241\021X\367\236\250\025e\2002\010\324dhnB\245\262"
  58      9EA81565 
  58      803208D4 
  58      64686E42 
  58      A5B2
  59 006d 140D84DB 		.ascii	"\024\015\204\333\035_O\036\321\023n\273/>=\017\340\220"
  59      1D5F4F1E 
  59      D1136EBB 
  59      2F3E3D0F 
  59      E090
  60 007f B42B2013 		.ascii	"\264+ \023\264!\035$}\305B\337\373\250Z\321uOon!\016"
  60      B4211D24 
  60      7DC542DF 
  60      FBA85AD1 
  60      754F6F6E 
  61 0095 45EBCDF3 		.ascii	"E\353\315\363\022\034\032\243\325\377\012/\230\373\354"
  61      121C1AA3 
  61      D5FF0A2F 
  61      98FBEC
  62 00a4 794FC3F7 		.ascii	"yO\303\367\203W\364XLC\021\024\222\037\"d\340\014)\225"
  62      8357F458 
  62      4C431114 
  62      921F2264 
  62      E00C2995 
  63 00b8 13A6B624 		.ascii	"\023\246\266$O\032\030H\177\0325\375\241\323\362W\233"
  63      4F1A1848 
  63      7F1A35FD 
  63      A1D3F257 
  63      9B
  64 00c9 AC8329AD 		.ascii	"\254\203)\255\215ho\3343\015\234#,\321]\372\020\035"
  64      8D686FDC 
  64      330D9C23 
  64      2CD15DFA 
  64      101D
  65 00db 31CF1132 		.ascii	"1\317\0212\341\247\313\310\016Gx\312\344g\251\2514\""
  65      E1A7CBC8 
  65      0E4778CA 
  65      E467A9A9 
  65      3422
  66 00ed 2E3BD288 		.ascii	".;\322\210\366\307G\223x\200\344\021\231\021\314\231"
  66      F6C74793 
  66      7880E411 
  66      9911CC99 
  67 00fd 088E9B87 		.ascii	"\010\216\233\207\226G( \340\210\252\222\366\370\370"
  67      96472820 
  67      E088AA92 
  67      F6F8F8
  68 010c 77C798A9 		.ascii	"w\307\230\251H\377\356\310\021'\272\243\253\027\026"
  68      48FFEEC8 
  68      1127BAA3 
ARM GAS  /tmp/ccRu2VOH.s 			page 5


  68      AB1716
  69 011b 04027099 		.ascii	"\004\002p\231.EG\235[\312\003\265\372'\332l\214\340"
  69      2E45479D 
  69      5BCA03B5 
  69      FA27DA6C 
  69      8CE0
  70 012d 5469B983 		.ascii	"Ti\271\203\334Q\315\261\244\027\354\242\245\233v\266"
  70      DC51CDB1 
  70      A417ECA2 
  70      A59B76B6 
  71 013d A167ADBA 		.ascii	"\241g\255\272n\026x\206\333U\335\251\324J\333\2724\352"
  71      6E167886 
  71      DB55DDA9 
  71      D44ADBBA 
  71      34EA
  72 014f 4685DBB5 		.ascii	"F\205\333\265\252\004\312\025^rr\213\005bF9\221\263"
  72      AA04CA15 
  72      5E72728B 
  72      05624639 
  72      91B3
  73 0161 2B45C371 		.ascii	"+E\303q\254\354V\246\341X\325/\251H\201#"
  73      ACEC56A6 
  73      E158D52F 
  73      A9488123 
  74              		.text
  75              		.section	.gnu.lto_I2CSensor_init.e04a592bdd93fef6,"",%progbits
  76 0000 789C9D53 		.ascii	"x\234\235SMh\023A\024~o\366'\3516i\2326iB\025\011\242"
  76      4D681341 
  76      147E6FF6 
  76      27E93669 
  76      9A366942 
  77 0017 0711230A 		.ascii	"\007\021#\012\342Q\017^=\265\001\305\203\324P\302\036"
  77      E2510F5E 
  77      3DB501C5 
  77      83D450C2 
  77      1E
  78 0028 5A21291E 		.ascii	"Z!)\036\354\241S\267JA\224\340\251(\036J\261\007)\230"
  78      ECA153B7 
  78      4A4194E0 
  78      A9281E4A 
  78      B1072998 
  79 003c 9BC18BAD 		.ascii	"\233\301\213\255\"i\023\254\364\246's\252\250!\027/"
  79      226913AC 
  79      F4A62773 
  79      AAA82117 
  79      2F
  80 004d B552E39B 		.ascii	"\265R\343\233\235\331\255M\003\025\007\366\315\2337"
  80      9DD9AD4D 
  80      031507F6 
  80      CD9B37
  81 005c EFFBE67B 		.ascii	"\357\373\346{3\373\0300h\037\227\351\333\324\001\316"
  81      33FB1830 
  81      681F97E9 
  81      DBD401CE 
  82 006c D08C0140 		.ascii	"\320\214\001@V\\\007\230\0162\324\245\243Ig%\2503c\275"
  82      565C0798 
  82      0E32D4A5 
ARM GAS  /tmp/ccRu2VOH.s 			page 6


  82      A3496725 
  82      A83363BD 
  83 0080 0AC02DF3 		.ascii	"\012\300-\363\215\006<d0\315\251\270\313\007\001Z\232"
  83      8D063C64 
  83      30CDA9B8 
  83      CB07015A 
  83      9A
  84 0091 88220D10 		.ascii	"\210\"\015\020\246\230\246\033&N]EA\217Ga\236\363G\365"
  84      A698A61B 
  84      264E5D45 
  84      418F4761 
  84      9EF347F5 
  85 00a5 77B58709 		.ascii	"w\265\207\011^\347E\376\273\325B\033IH\022!\213p\205"
  85      5EE745FE 
  85      BBD5421B 
  85      49481221 
  85      8B7085
  86 00b8 16187427 		.ascii	"\026\030t'\206{\225\275`\313\365V\253\261P<v\030a\004"
  86      867B95BD 
  86      60CBF556 
  86      ABB1503C 
  86      76186104 
  87 00cc E7894AC7 		.ascii	"\347\211J\3071\004\223\014\006\3110\213\214\026&\243"
  87      3104930C 
  87      06C9308B 
  87      8C1626A3 
  88 00dc 47C81851 		.ascii	"G\310\030Q \222>\362\314~\362\264\030\031=N\306H(xR"
  88      20923EF2 
  88      CC7EF2B4 
  88      18193D4E 
  88      C6482878 
  89 00f1 2C06C998 		.ascii	",\006\311\230Do\300\014\347\305\224\334\001\241\205"
  89      446FC00C 
  89      E7C594DC 
  89      01A185
  90 0100 C630D945 		.ascii	"\3060\331E\0132\310h\322\336\303\235\362Ve`\004\027"
  90      0B32C868 
  90      D2DEC39D 
  90      F2566560 
  90      0417
  91 0112 D08053B0 		.ascii	"\320\200S\260\304i\014\021\351Ix.\334\3636\006\236\300"
  91      C4690C11 
  91      E949782E 
  91      DCF33606 
  91      9EC0
  92 0124 63921ECC 		.ascii	"c\222\036\314\241.J\350r\205\337P\205\210\210\341\227"
  92      A12E4AE8 
  92      7285DF50 
  92      858888E1 
  92      97
  93 0135 2356BA70 		.ascii	"#V\272p\210\2656W\215I\326]*\2533\225\344\312\011\311"
  93      88B53657 
  93      8D49D65D 
  93      2AAB3395 
  93      E4CA09C9 
  94 0149 0258AE0E 		.ascii	"\002X\256\016\264\003\2413\220)`P\002?\356\007vw\006"
  94      B403A133 
ARM GAS  /tmp/ccRu2VOH.s 			page 7


  94      90296050 
  94      023FEE07 
  94      767706
  95 015c 6A0A68B9 		.ascii	"j\012h\271\300\362V5\336\016\014u\006\352~\235!\364"
  95      C0F25635 
  95      DE0E0C75 
  95      06EA7E9D 
  95      21F4
  96 016e EAACED03 		.ascii	"\352\254\355\003\207;\203\015ujX\325\371\317@S\001#"
  96      873B830D 
  96      756A58D5 
  96      F9CF4053 
  96      0123
  97 0180 F29A33A4 		.ascii	"\362\2323\244\377\333[\020o\327t\276|e\222%\207\361"
  97      FFDB5B10 
  97      6FD774BE 
  97      7C659225 
  97      87F1
  98 0192 9CB84A8A 		.ascii	"\234\270J\212\256\225z\366<\350\265\335\007\275p\300"
  98      AE957AF6 
  98      3CE8B5DD 
  98      07BD70C0 
  99 01a2 83120B78 		.ascii	"\203\022\013x^L\2209\263\316\367\015\364\216H\320\021"
  99      5E4C9039 
  99      B3CEF70D 
  99      F48E48D0 
  99      11
 100 01b3 0204DE8F 		.ascii	"\002\004\336\217\234\241+\241\256\220Z^\377\364\265"
 100      9CA12BA1 
 100      AE905A5E 
 100      FFF4B5
 101 01c2 449516E7 		.ascii	"D\225\026\347\276\346\205\372s\330G\033\256\302Ww\233"
 101      BEE685FA 
 101      73D8471B 
 101      AEC25777 
 101      9B
 102 01d3 3E674CEA 		.ascii	">gL\352\321)CPk\212y\025f\032\323\347\374$\261\325\263"
 102      D1294350 
 102      6B8A7915 
 102      661AD3E7 
 102      FC24B1D5 
 103 01e8 DB399F40 		.ascii	"\3339\237@\352\000`\215g\001\022\246-UL!\307\000ja\215"
 103      EA00608D 
 103      670112A6 
 103      2D554C21 
 103      C7006A61 
 104 01fd C09B2B9F 		.ascii	"\300\233+\237K\276\034\231\334\365W\353e\350V\345\377"
 104      4BBE1C99 
 104      DCF557EB 
 104      65E856E5 
 104      FF
 105 020e DF747EAC 		.ascii	"\337t~\254\371\211I\357\016\313\245\356\377m\012b\351"
 105      F98949EF 
 105      0ECBA5EE 
 105      FF6D0A62 
 105      E9
 106 021f D010DBCE 		.ascii	"\320\020\333\316\257\265C\3361\203\223p\233zT\021\266"
ARM GAS  /tmp/ccRu2VOH.s 			page 8


 106      AFB543DE 
 106      31839370 
 106      9B7A5411 
 106      B6
 107 0230 CC0318DD 		.ascii	"\314\003\030\335\361\001\356-\237\220\004\000\223\260"
 107      F101EE2D 
 107      9F900400 
 107      93B0
 108 023e CD6779AF 		.ascii	"\315gy\257\215\221\254\352\037\031\341/\011\334;\206"
 108      8D91ACEA 
 108      1F19E12F 
 108      09DC3B86 
 109 024e 019528A2 		.ascii	"\001\225(\242s\234\357P4z\004\006\237\362\271\2136\366"
 109      739CEF50 
 109      347A0406 
 109      9FF2B98B 
 109      36F6
 110 0260 81DA2521 		.ascii	"\201\332%!6\366\003l\300t}\225y\334r\014\023\357\242"
 110      36F6036C 
 110      C0747D95 
 110      79DC720C 
 110      13EFA2
 111 0273 255A2C7E 		.ascii	"%Z,~)o\337\032\315\027N\333g\263\327\013\243\343\205"
 111      296FDF1A 
 111      CD174EDB 
 111      67B3D70B 
 111      A3E385
 112 0286 9BF97416 		.ascii	"\233\371t\026\320N\014M\214\344'\354\361\\J\006S\307"
 112      D04E0C4D 
 112      8CE427EC 
 112      F15C4A06 
 112      53C7
 113 0298 0BE974DA 		.ascii	"\013\351t\332\202?|\327%\013"
 113      823F7CD7 
 113      250B
 114              		.text
 115              		.section	.gnu.lto_I2CSensor_stop.e04a592bdd93fef6,"",%progbits
 116 0000 789C6D51 		.ascii	"x\234mQ=K\003A\024\234\267w\227\304\363\003\213\010"
 116      3D4B0341 
 116      149CB777 
 116      97C4F303 
 116      8B08
 117 0012 2218D208 		.ascii	"\"\030\322\010j\304@\032[\013\377\201\006\264\012z\204"
 117      6AC4401A 
 117      5B0BFF81 
 117      06B40A7A 
 117      84
 118 0023 B0858924 		.ascii	"\260\205\211$ba\212l4\212\245\245D,l-\024l\014i\214"
 118      62618A6C 
 118      348AA5A5 
 118      442C6C2D 
 118      146C0C69 
 119 0038 9D8D8A4D 		.ascii	"\235\215\212M\012m\304V+\0335 \361\355\335EE]\270{\217"
 119      0A6DC456 
 119      2B1B3520 
 119      F1EDDD45 
 119      455DB87B 
ARM GAS  /tmp/ccRu2VOH.s 			page 9


 120 004d B99979B3 		.ascii	"\271\231y\263\357\004\004~\237\004?\367\004Lp%\013$"
 120      EF04047E 
 120      9F043FF7 
 120      044C7025 
 120      0B24
 121 005f 76AF8172 		.ascii	"v\257\201rH\010\243\036\201\262\315f\034\252\307 \323"
 121      4808A31E 
 121      81B2CD66 
 121      1CAAC720 
 121      D3
 122 0070 834D22DD 		.ascii	"\203M\"\335\200P\022\206I\245\005rMND\343\241\335>>"
 122      80501286 
 122      49A50572 
 122      4D4E44E3 
 122      A1DD3E3E 
 123 0084 DD7A0CD8 		.ascii	"\335z\014\330\006-\023,HB\220;\012q\247I\026*J\355F"
 123      062D132C 
 123      4842903B 
 123      0A71A749 
 123      162A4AED 
 124 0099 01C795CC 		.ascii	"\001\307\225\314\361[;%I\350j\\a\243\366\326\034X\244"
 124      F15B3B25 
 124      49E86A5C 
 124      61A3F6D6 
 124      1C58A4
 125 00ac 430E11C3 		.ascii	"C\016\021\303\221\3423%I\354\243J\222\214\014\031\363"
 125      91E23325 
 125      49ECA34A 
 125      928C0C19 
 125      F3
 126 00bd 5C4D77DA 		.ascii	"\\Mw\332\2227\024\032q/\304\342\326\346\353\313\220"
 126      9237141A 
 126      712FC4E2 
 126      D6E6EBCB 
 126      90
 127 00ce A7CE9055 		.ascii	"\247\316\220U\304:\317\367m\336\003\222\254\377}\350"
 127      C43ACFF7 
 127      6DDE0392 
 127      ACFF7DE8 
 128 00de 7B0F37D8 		.ascii	"{\0177\330n\214y\006@\021-\265\243\372%\005\034\237"
 128      6E8C7906 
 128      40112DB5 
 128      A3FA2505 
 128      1C9F
 129 00f0 E321EA8C 		.ascii	"\343!\352\214\305\301e\022>Q\243{J}0\032\212`\360@\355"
 129      C5C16512 
 129      3E51A37B 
 129      4A7D301A 
 129      8A60F040 
 130 0105 4D4BEA82 		.ascii	"MK\352\202\377\225\203H\262\201KT\236/\316\207;\351"
 130      FF958348 
 130      B2814B54 
 130      9E2FCE87 
 130      3BE9
 131 0117 823A41F7 		.ascii	"\202:A\367\317\177\220$\003\365\210\336\301]\255\032"
 131      CF7F9024 
 131      03F588DE 
ARM GAS  /tmp/ccRu2VOH.s 			page 10


 131      C15DAD1A 
 132 0127 EEF04231 		.ascii	"\356\360B1\214\363\3568y\231o\221\372\233^|E\2574F\377"
 132      8CF3EE38 
 132      79996F91 
 132      FA9B5E7C 
 132      45AF3446 
 133 013c 44EF717C 		.ascii	"D\357q|\002;I\352\355L2\335u\337\242\374\360d{\032m"
 133      023B49EA 
 133      ED4C32DD 
 133      75DFA2FC 
 133      F0647B1A 
 134 0151 D9D78932 		.ascii	"\331\327\2112\307\367e\202V\016\314\344\345Z:_\210\313"
 134      C7F76582 
 134      560ECCE4 
 134      E55A3A5F 
 134      88CB
 135 0163 84932AA4 		.ascii	"\204\223*\244\263\205\\~\322Axv5\267\262\"\263\231\250"
 135      B3855C7E 
 135      D2417876 
 135      35B7B222 
 135      B399A8
 136 0176 0745470A 		.ascii	"\007EG\0126>\001\236\002}\367"
 136      363E019E 
 136      027DF7
 137              		.text
 138              		.section	.gnu.lto_I2CSensor_transact.e04a592bdd93fef6,"",%progbits
 139 0000 789CA595 		.ascii	"x\234\245\225MHTQ\024\307\317y\237\343\363cF\233i\032"
 139      4D485451 
 139      14C7CF79 
 139      9FE3F363 
 139      469B691A 
 140 0014 4D1D03C9 		.ascii	"M\035\003\311\012\214\334\025-\012s\341F\310\217\250"
 140      0A8CDC15 
 140      2D0A73E1 
 140      46C88FA8 
 141 0024 36A5930C 		.ascii	"6\245\223\014\2170a\246Z\344\302\253\016\326\302b\210"
 141      8F3061A6 
 141      5AE4C2AB 
 141      0ED6C262 
 141      88
 142 0035 20B52425 		.ascii	" \265$%\204\250EEHB\024\323&\014)iU\266\022\203\010"
 142      84A84545 
 142      484214D3 
 142      260C2969 
 142      55B61283 
 143 004a 8A108208 		.ascii	"\212\020\202\010\373\230\316}\367\275739\205\320\205"
 143      FB98CE7D 
 143      F7BD3733 
 143      3985D085 
 144 005a 39EFBCF3 		.ascii	"9\357\274\363\316\377\236\337=\357\276;\022H\360\347"
 144      CEFF9EDF 
 144      3DEFBE3B 
 144      1248F0E7 
 145 006a 384EBF93 		.ascii	"8N\277\223\032@\027]\261\000PJ\276\004\030\360H\222"
 145      1A40175D 
 145      B100504A 
 145      BE0418F0 
ARM GAS  /tmp/ccRu2VOH.s 			page 11


 145      4892
 146 007c CCE60198 		.ascii	"\314\346\001\230\241'e`E\262\244\\\330Jw*\267E\012j"
 146      A1276560 
 146      45B2A45C 
 146      D84A772A 
 146      B7450A6A 
 147 0090 224B751C 		.ascii	"\"Ku\034\015=\302\321\035\307\203\310\035@\350\227d"
 147      0D3DC2D1 
 147      1DC783C8 
 147      1D40E897 
 147      64
 148 00a1 45D5740F 		.ascii	"E\325t\017\366\037A^Q\332\002S\214]^\232~\277\242\214"
 148      F61F415E 
 148      51DA0253 
 148      8C5D5E9A 
 148      7EBFA28C 
 149 00b5 5D799A98 		.ascii	"]y\232\230d?\322iD\023\211n\023B\004\3410\335`\330\272"
 149      643FD269 
 149      4413896E 
 149      134204E1 
 149      30DD60D8 
 150 00ca 480A297A 		.ascii	"H\012)z0\303k\211\223\251\261\341K!69\230d\277Hk\242"
 150      30C36B89 
 150      93A9B1E1 
 150      4B213639 
 150      9864BF48 
 151 00e0 2C414D5E 		.ascii	",AM^i\326\270+\245\226\322\351\221\373\211\325r\312"
 151      69D6B82B 
 151      A596D2E9 
 151      91FB89D5 
 151      72CA
 152 00f2 258D8A3D 		.ascii	"%\215\212=\210\032y\212NF-\340\306 \243\025\222\321"
 152      881A798A 
 152      4E462DE0 
 152      C620A315 
 152      92D1
 153 0104 8BE8A954 		.ascii	"\213\350\251TL\236\247\204<\331\313=\037\031(\245[\245"
 153      4C9EA784 
 153      3CD9CB3D 
 153      1F1928A5 
 153      5BA5
 154 0116 8C8CEA87 		.ascii	"\214\214\352\207N\274\211[ \300\225AnB\024\231\242H"
 154      4EBC895B 
 154      20C09541 
 154      6E421499 
 154      A248
 155 0128 05DD1454 		.ascii	"\005\335\024TrS\315\015UW!A\334a\340\2204\332\311\362"
 155      7253CD0D 
 155      55572141 
 155      DC61E090 
 155      34DAC9F2 
 156 013c FE74A0C4 		.ascii	"\376t\240\304\257\362\013\030|;\273\274\202\2358\215"
 156      AFF20B18 
 156      7C3BBBBC 
 156      829D388D 
 157 014c 2A4451DB 		.ascii	"*DQ\333\001\333M4\256\3018\255\2440\212*_Q\221\265\216"
 157      01DB4D34 
ARM GAS  /tmp/ccRu2VOH.s 			page 12


 157      AEC138AD 
 157      A4308A2A 
 157      5F5191B5 
 158 0161 2EB71B73 		.ascii	".\267\033s\220\3704\340u%<\305\310^q\007\322\273\233"
 158      90F834E0 
 158      75253CC5 
 158      C85E7107 
 158      D2BB9B
 159 0174 17937F5B 		.ascii	"\027\223\177[~#\331\014\002\032@\010iDQ\267\312\251"
 159      7E23D90C 
 159      021A4008 
 159      694451B7 
 159      CAA9
 160 0186 546E8031 		.ascii	"Tn\2001vfmI\247\346\002$R;:\361\226%\354\203Uv\201\371"
 160      76666D49 
 160      A7E60224 
 160      523B3AF1 
 160      9625EC83 
 161 019e 4C2C8ED8 		.ascii	"L,\216\330\0114\223\211%\000\274\342\350\273\017\252"
 161      09349389 
 161      2500BCE2 
 161      E8BB0FAA 
 162 01ae C88C6241 		.ascii	"\310\214bA\316\374\213y\326\344\024\340\312{]\216\316"
 162      CEFC8B79 
 162      D6E414E0 
 162      CA7B5D8E 
 162      CE
 163 01bf B074DEFC 		.ascii	"\260t\336\374m\2202\222\317C_%GCi\206\010\312N\2508"
 163      6D903292 
 163      CF435F25 
 163      47436986 
 163      08CA4EA8 
 164 01d4 CA453921 		.ascii	"\312E9!o\324\346<\352D|V-\237\3158\241\257-(\273M\030"
 164      6FD4E63C 
 164      EA447C56 
 164      2D9FCD38 
 164      A1AF2D28 
 165 01eb 6773EE4C 		.ascii	"gs\356L~\267\015\245\021\233\211\026lq\224Z\245\313"
 165      7EB70DA5 
 165      119B8916 
 165      6C71945A 
 165      A5CB
 166 01fd AC6AF4BC 		.ascii	"\254j\364\274L,o\366\335\212\013\033\310iL\337\277\033"
 166      4C2C6FF6 
 166      DD8A0B1B 
 166      C8694CDF 
 166      BF1B
 167 020f 5F9FAFF1 		.ascii	"_\237\257\361\262]1`5\236o\211\2477\236y]8>\327\206"
 167      B25D3160 
 167      359E6F89 
 167      A7379E79 
 167      5D383ED7 
 168 0224 DC4DA140 		.ascii	"\334M\241@\252Vl8\372\002\235\304`\016\310\243\177\274"
 168      AA566C38 
 168      FA029DC4 
 168      600EC8A3 
 168      7FBC
ARM GAS  /tmp/ccRu2VOH.s 			page 13


 169 0236 214ED2E2 		.ascii	"!N\322\342\310B.\212?\202\212\215\02241`-\365y\262D"
 169      C8422E8A 
 169      3F828A8D 
 169      12343160 
 169      2DF579B2 
 170 024b 248A6929 		.ascii	"$\212i)k\243\233\037\024_5\257\020\264u!K\264:\364q"
 170      6BA39B1F 
 170      145F35AF 
 170      10B47521 
 170      4BB43AF4 
 171 0260 E4B1DBDD 		.ascii	"\344\261\333\335\212>8g\362\375s\233\260\330Uz+\233"
 171      8A3E3867 
 171      F2FD739B 
 171      B0D8557A 
 171      2B9B
 172 0272 F2EF86AC 		.ascii	"\362\357\206\254\257}\001\316\247v\257\351U(\"v\273"
 172      AF7D01CE 
 172      A776AFE9 
 172      55282276 
 172      BB
 173 0283 1D61AF49 		.ascii	"\035a\257I\\\336\203\232\235\310\243\243\364\3365\023"
 173      5CDE839A 
 173      9DC8A3A3 
 173      F4DE3513 
 174 0293 2BAAA06E 		.ascii	"+\252\240n\202\215\3563q3\330O\011\204\370L\254t\232"
 174      828DEE33 
 174      7133D84F 
 174      0984F84C 
 174      AC749A
 175 02a6 A8DA4D5C 		.ascii	"\250\332M\\\035\372>\362\304\245\255\314\241\035['\355"
 175      1DFA3EF2 
 175      C4A5ADCC 
 175      A11D5B27 
 175      ED
 176 02b7 F07FD156 		.ascii	"\360\177\321VU\301^A[\235\241\255\314B\325\254C@\370"
 176      55C15E41 
 176      5B9DA1AD 
 176      CC42D5AC 
 176      4340F8
 177 02ca 3A246581 		.ascii	":$e\201\375\340\342\035\3319:\252s\260\277h\353\305"
 177      FDE0E21D 
 177      D9393AAA 
 177      73B0BF68 
 177      EBC5
 178 02dc DEE61C21 		.ascii	"\336\346\034!\177\305~\350bOga\377\244h\270\012\016"
 178      7FC57EE8 
 178      624F6761 
 178      FFA468B8 
 178      0A0E
 179 02ee 0AEC1AE7 		.ascii	"\012\354\032\347$\"\220,l\217u0\276\242\377\022\376"
 179      2422902C 
 179      6C8F7530 
 179      BEA2FF12 
 179      FE
 180 02ff C4DA2C8B 		.ascii	"\304\332,\213\200\264\245\265\3533'8\224<\221\266\007"
 180      80B4A5B5 
 180      EB332738 
ARM GAS  /tmp/ccRu2VOH.s 			page 14


 180      943C91B6 
 180      07
 181 0310 F6EB9F66 		.ascii	"\366\353\237f\374\374TE.\342\037a\340@\314<\333\035"
 181      FCFC5445 
 181      2EE21F61 
 181      E040CC3C 
 181      DB1D
 182 0322 8BEF341B 		.ascii	"\213\3574\033\"\307\342\335\247\342\275\261\372\010"
 182      22C7E2DD 
 182      A7E2BDB1 
 182      FA08
 183 0330 78BA63B1 		.ascii	"x\272c\261\336X\274~\227\026?\335y\372L|CsC\343\236"
 183      DE58BC7E 
 183      97163FDD 
 183      79FA4C7C 
 183      437343E3 
 184 0345 DA78B8BD 		.ascii	"\332x\270\275\365pSkk]\355\211m\006\3703\261p[GccS["
 184      F570536B 
 184      6B5DED89 
 184      6D06F833 
 184      B1705B47 
 185 035d 9B01A576 		.ascii	"\233\001\245v\260\271e\177c{\363\241&\003~\0037\003"
 185      B0B9657F 
 185      637BF3A1 
 185      26037E03 
 185      3703
 186 036f 9329     		.ascii	"\223)"
 187              		.text
 188              		.section	.gnu.lto_I2CSensor_transact_buf.e04a592bdd93fef6,"",%progbits
 189 0000 789C6590 		.ascii	"x\234e\220\275J\003A\024\205\317\271\263\023\326J\033"
 189      BD4A0341 
 189      1485CFB9 
 189      B313D64A 
 189      1B
 190 0011 113B6B03 		.ascii	"\021;k\003\011\344\031|\204\010\261\022]\3020\205\011"
 190      09E4197C 
 190      8408B112 
 190      5DC23085 
 190      09
 191 0022 EC824D8A 		.ascii	"\354\202M\212L\304\3022h#\332\350\013\350\003\330\330"
 191      4CC4C232 
 191      6823DAE8 
 191      0BE803D8 
 191      D8
 192 0033 59887F5D 		.ascii	"Y\210\177]\260\362\021\3042Mrgu\005\315\300=g.\334\357"
 192      B0F211C4 
 192      324D7267 
 192      7505CDC0 
 192      3D672EDC 
 193 0048 CC650482 		.ascii	"\314e\004\202\377g]k\215Z\3524\240\214\237\201Q*d\274"
 193      FF675D6B 
 193      8D5AEA34 
 193      A08C9F81 
 193      512A64BC 
 194 005c 80180A87 		.ascii	"\200\030\012\207;,go\345\376c6\2739}\270z$\227\204\007"
 194      3B2C676F 
 194      E5FE6336 
ARM GAS  /tmp/ccRu2VOH.s 			page 15


 194      BB397DB8 
 194      7A249784 
 195 0071 84812792 		.ascii	"\204\201'\222(V[\326T$\3256\002\026\307!\2147\200\254"
 195      28565BD6 
 195      5424D536 
 195      0216C721 
 195      8C3780AC 
 196 0085 C4DBAA31 		.ascii	"\304\333\2521s\233\022\335<\341\350}\362\365i\366xM"
 196      739B12DD 
 196      3CE1E87D 
 196      F2F569F6 
 196      784D
 197 0097 0B4753C7 		.ascii	"\013GS\307\246\346\\\342b\024B\270\243\2478JG\335\224"
 197      A6E65CE2 
 197      621442B8 
 197      A3A7384A 
 197      47DD94
 198 00aa AFEFB3DA 		.ascii	"\257\357\263\3329\222\257\313\025\227\374\341\316j\213"
 198      3992AFCB 
 198      1597FCE1 
 198      CE6A8B
 199 00b9 5C05BEE0 		.ascii	"\\\005\276\340<t*,\035`\032N\302\212g\222\375L\270H"
 199      3C742A2C 
 199      1D601A4E 
 199      C28A6792 
 199      FD4CB848 
 200 00cd 1A47ABA1 		.ascii	"\032G\253\241\216\032d\2017\360\227\370Ni\353\264\356"
 200      8E1A6481 
 200      37F097F8 
 200      4E69EBB4 
 200      EE
 201 00de 1FBF7275 		.ascii	"\037\277ru+\367\207\335\274h\372V\266[t{E?od\230\003"
 201      2BF787DD 
 201      BC68FA56 
 201      B65B747B 
 201      453F6F64 
 202 00f4 C527435D 		.ascii	"\305'C]"
 203              		.text
 204              		.section	.gnu.lto_.symbol_nodes.e04a592bdd93fef6,"",%progbits
 205 0000 789C4DCF 		.ascii	"x\234M\317]\016\301@\024\206\341\357|g\250\377-\330"
 205      5D0EC140 
 205      1486E1EF 
 205      7C67A8FF 
 205      2DD8
 206 0012 804B3796 		.ascii	"\200K7\226c%\247\024-%\261\002\221t\0156\240\256\255"
 206      6325A714 
 206      2D25B102 
 206      91740D36 
 206      A0AEAD
 207 0025 41C2A525 		.ascii	"A\302\245%\010Z\025cn\336yNf&\031\202\030\011\252\305"
 207      085A1563 
 207      6EDE794E 
 207      66261982 
 207      1809AAC5 
 208 0039 9718B03D 		.ascii	"\227\030\260=\003f\233d\314\011M\276\334%R\233\263\330"
 208      03669B64 
 208      CC094DBE 
ARM GAS  /tmp/ccRu2VOH.s 			page 16


 208      DC25529B 
 208      B3D8
 209 004b 81531AFD 		.ascii	"\201S\032\375\224\021M\377\016\205\024g\312\031\315"
 209      94114DFF 
 209      0E851467 
 209      CA19CD
 210 005a F9A924B4 		.ascii	"\371\251$\264Z\3050\024\211iu\257\005-\360Z\322\032"
 210      5AC53014 
 210      896975AF 
 210      052DF05A 
 210      D21A
 211 006c 5E1B5AD3 		.ascii	"^\033Z\323kMky\245\264\266\327\212\326\371I\321Dty\026"
 211      6B4D6B79 
 211      A5B4B6D7 
 211      8AD6F949 
 211      D1447479 
 212 0081 6D20FB34 		.ascii	"m \3734@^\266\370\351qu\357\253\026-\255-d\207\241\272"
 212      405EB6F8 
 212      E97175EF 
 212      AB162DAD 
 212      2D6487A1 
 213 0096 1EAEFB87 		.ascii	"\036\256\373\207\250\353\"_\234\372\352:\210\342\262"
 213      A8EB225F 
 213      9CFAEA3A 
 213      88E2B2
 214 00a5 6D5CE35B 		.ascii	"m\\\343[\240\256\274Vu\232~\235\016\264\356>\257\340"
 214      A0AEBC56 
 214      759A7E9D 
 214      0EB4EE3E 
 214      AFE0
 215 00b7 0DD6D459 		.ascii	"\015\326\324YS"
 215      53
 216              		.text
 217              		.section	.gnu.lto_.refs.e04a592bdd93fef6,"",%progbits
 218 0000 789C6362 		.ascii	"x\234cb`b\020f\200\000FF&&Ff&&\026\026FV&0`\000\000"
 218      60621066 
 218      80004646 
 218      26264666 
 218      26261616 
 219 001b 04250040 		.ascii	"\004%\000@"
 220              		.text
 221              		.section	.gnu.lto_.decls.e04a592bdd93fef6,"",%progbits
 222 0000 789CBD5D 		.ascii	"x\234\275]{t\024E\272\357\356y\344\311SP\334\353\275"
 222      7B741445 
 222      BAEFEE79 
 222      E4C95350 
 222      DCEBBD
 223 0013 8EAEDEC3 		.ascii	"\216\256\336\303q\257\006\002\253xw\257\012\011\010"
 223      71AF0602 
 223      AB7877AF 
 223      0A0908
 224 0022 BBA09E24 		.ascii	"\273\240\236$\272x\037gl&\023\2305\311\204\231\016\306"
 224      BA781F67 
 224      6C261398 
 224      35C98499 
 224      0EC6
 225 0034 FBCF3620 		.ascii	"\373\3176 AP1\274\014\357\227\212/V@\320\020\236\003"
ARM GAS  /tmp/ccRu2VOH.s 			page 17


 225      415031BC 
 225      0CEF978A 
 225      2F5640D0 
 225      109E03
 226 0047 CA431024 		.ascii	"\312C\020$\200 D \242(x\024\011\210\010\010s\277\372"
 226      80204420 
 226      A2287814 
 226      09880808 
 226      73BFFA
 227 005a AA7BA6BA 		.ascii	"\252{\246\272\323=S\035\335;\347T\245\272\247\353W\337"
 227      D33D531D 
 227      DD3BE754 
 227      A5BAA7EB 
 227      57DF
 228 006c ABBEFAEA 		.ascii	"\253\276\372\352\321\023I\220\204r\227 \304\341SS!\010"
 228      D1134990 
 228      84729720 
 228      C4E15353 
 228      2108
 229 007e 637205C1 		.ascii	"cr\005\301+\010\302}\220\240(\270!-\206t\275$\0107@"
 229      2B08C27D 
 229      90A028B8 
 229      212D8674 
 229      BD240837 
 230 0093 BA11D26F 		.ascii	"\272\021\322o \335\004\351\237!\335\014\311\007\351"
 230      20DD04E9 
 230      9F21DD0C 
 230      C907E9
 231 00a2 5648B743 		.ascii	"VH\267C\"\237\016\220zA\371O\220:\001v\017H=!\345C\352"
 231      229F0E90 
 231      7A41F94F 
 231      903A0176 
 231      0F483D21 
 232 00b9 03A93FA4 		.ascii	"\003\251?\244\001\220\006A\372\023\244\241\220\036\203"
 232      01900641 
 232      FA13A4A1 
 232      901E83
 233 00c8 44AA0F87 		.ascii	"D\252\017\207\277\377\351\022\014\037\202\225\003\177"
 233      BFFFE912 
 233      0C1F8295 
 233      037F
 234 00d6 FBC1FD8E 		.ascii	"\373\301\375\216\014]\377\005\327~H\377\015\351\011"
 234      0C5DFF05 
 234      D77E48FF 
 234      0DE909
 235 00e5 487D21C9 		.ascii	"H}!\311\220Fh\365\335Z\335\376Z\273\371Z\033\003!{P"
 235      904668F5 
 235      DD5ADDFE 
 235      5ABBF95A 
 235      1B03217B 
 236 00fa 32B64168 		.ascii	"2\266Ah\355\006\177\033\205d\033q\270W!R\234R\250{\016"
 236      ED067F1B 
 236      85641B71 
 236      B8572152 
 236      9C52A87B 
 237 010f AE1F8234 		.ascii	"\256\037\2024\014\322_ \235\020(\317[\341/<&\004]FY"
 237      0CD25F20 
ARM GAS  /tmp/ccRu2VOH.s 			page 18


 237      9D1028CF 
 237      5BE12F3C 
 237      26045D46 
 238 0124 F5869401 		.ascii	"\365\206\224\001\327\255\360\3671H%\220\276\207T\014"
 238      D7ADF0F7 
 238      31482590 
 238      BE87540C 
 239 0134 E902A48B 		.ascii	"\351\002\244\213\022\245\207\264M\350\314$8\200\341"
 239      12A587B4 
 239      4DE8CC24 
 239      3880E1
 240 0143 82E48194 		.ascii	"\202\344\201\224\003)\003R\026\244\\\027\225\015\373"
 240      03290352 
 240      16A45C17 
 240      950DFB
 241 0152 21B2EDA4 		.ascii	"!\262\355\244\321\366\027M\376:}\204V\235\036]g\275"
 241      D1F6174D 
 241      FE3A7D84 
 241      569D1E5D 
 241      67BD
 242 0164 353D95C1 		.ascii	"5=\225\301\375\002H\273\340;\002I\350\321iti\270\204"
 242      FD0248BB 
 242      E03B0249 
 242      E8D16974 
 242      69B884
 243 0177 1EA22372 		.ascii	"\036\242#r\335\015\262\356\026\355\023\275\336*P\036"
 243      DD0DB2EE 
 243      16ED13BD 
 243      DE2A501E 
 244 0187 759911CC 		.ascii	"u\231\021\314\236\232|D\015\337\243\321\310\322\247"
 244      9E9A7C44 
 244      0DDFA3D1 
 244      C8D2A7
 245 0196 D340E44D 		.ascii	"\323@\344M\3448\022\312\303\\\324\366F\301\337\007!"
 245      E43812CA 
 245      C35CD4F6 
 245      46C1DF07 
 245      21
 246 01a7 CD84E742 		.ascii	"\315\204\347B.#/\272\275\365\266\260E\217\306\013+k"
 246      2E232FBA 
 246      BDF5B6B0 
 246      458FC60B 
 246      2B6B
 247 01b9 C29757A3 		.ascii	"\302\227W\243\3651\315\326\376\244\331^/M?\304\336|"
 247      F531CDD6 
 247      FEA4D95E 
 247      2F4D3FC4 
 247      DE7C
 248 01cb 84174223 		.ascii	"\204\027B#\244[ \335f\301oO\215\276\255\032\237:/\177"
 248      A45B20DD 
 248      66C16F4F 
 248      8DBEAD1A 
 248      9F3A2F7F 
 249 01df 85FB376A 		.ascii	"\205\3737j\266\305\352\265\247f\373\004\346.\310\362"
 249      B6C5EAB5 
 249      A766FB04 
 249      E62EC8F2 
ARM GAS  /tmp/ccRu2VOH.s 			page 19


 250 01ef 489B26CC 		.ascii	"H\233&\314\034a\262\252\216S\027\325\252\203wt\354*"
 250      1C61B2AA 
 250      8E5317D5 
 250      AA837774 
 250      EC2A
 251 0201 4C55E1E3 		.ascii	"LU\341\343\333\001\322\034.\312b\307,!6\020K\271Y\302"
 251      DB01D21C 
 251      2ECA62C7 
 251      2C213610 
 251      4BB959C2 
 252 0215 A7C43C6E 		.ascii	"\247\304<n\027^Q\325\272\226\255\347N\271T5S\026\227"
 252      175E51D5 
 252      BA96ADE7 
 252      4EB95435 
 252      531697
 253 0228 885DA1A9 		.ascii	"\210]\241\251~\242p\207\360\006\324\254S\325%\277\025"
 253      7EA27087 
 253      F006D4AC 
 253      53D525BF 
 253      15
 254 0239 85B69FF4 		.ascii	"\205\266\237\364\310\262\370\212(A\276\024\020e\361"
 254      C8B2F88A 
 254      2841BE14 
 254      1065F1
 255 0248 55F10EDA 		.ascii	"U\361\016\332\226\032\27341Wu\323\373\202\366\215\305"
 255      961ABB34 
 255      315775D3 
 255      FB82F68D 
 255      C5
 256 0259 E7166111 		.ascii	"\347\026a\021\360\021\273\272\375\225\033\325E[D+\266"
 256      F011BBBA 
 256      FD951BD5 
 256      455B442B 
 256      B6
 257 026a E0019169 		.ascii	"\340\001\221i_\225\364\366}\002\221\327P\321\212J\343"
 257      5F95F4F6 
 257      7D0291D7 
 257      50D18A4A 
 257      E3
 258 027b 53B2F816 		.ascii	"S\262\370\026\022\271\314L\344~J\3442.\"?\331\376\241"
 258      12B9CC4C 
 258      E47E4AE4 
 258      322E223F 
 258      D9FEA1
 259 028e A84ECB35 		.ascii	"\250N\3135\320x\2750\023i\254\005\"\225,\341\331\344"
 259      D078BD30 
 259      1369AC05 
 259      22952CE1 
 259      D9E4
 260 02a0 3709527C 		.ascii	"7\011R|:%\356\244\".\325\036</\216\203:\262\270R\314"
 260      3A25EEA4 
 260      222ED51E 
 260      3C2F8E83 
 260      3AB2B852 
 261 02b5 022E5E14 		.ascii	"\002.^\024EC\373\262\350\311bI\300k\375\001\202\207"
 261      4543FBB2 
 261      E8C96249 
ARM GAS  /tmp/ccRu2VOH.s 			page 20


 261      C06BFD01 
 261      8287
 262 02c7 5F6B05E2 		.ascii	"_k\005\342\204;Y\267Gj\256\020\257\307\222\013\255\013"
 262      843B59B7 
 262      476AAE10 
 262      AFC7920B 
 262      AD0B
 263 02d9 6EDC9FA3 		.ascii	"n\334\237\243\227\015\274h\344\267\274\032\3531+I~\246"
 263      970DBC68 
 263      E4B7BC1A 
 263      EB312B49 
 263      7EA6
 264 02eb 0E2726C9 		.ascii	"\016'&\311?:\371\357\277\003;JTPm+\310\342\032\361v"
 264      3F3AF9EF 
 264      BF033B4A 
 264      54506D2B 
 264      C8E21AF1 
 265 0300 C84523F5 		.ascii	"\310E#\365bV\262\020\027\211\032\327\231\004\300\201"
 265      6256B210 
 265      17891AD7 
 265      9904C081 
 266 0310 AD11533F 		.ascii	"\255\021S?eA?4\352u(\311\237\332HR4I2\015-N\236\265"
 266      65413F34 
 266      EA7528C9 
 266      9FDA4852 
 266      3449320D 
 267 0328 13F97B62 		.ascii	"\023\371{b\016\003\223\020\374JJ\212,>\232\354\316v"
 267      0E039310 
 267      FC4A4A8A 
 267      2C3E9AEC 
 267      CE76
 268 033a 10CB9310 		.ascii	"\020\313\223\020\2220N\0225\363\265z\\+\032\360\014"
 268      92304E12 
 268      35F3B57A 
 268      5C2B1AF0 
 268      0C
 269 034b A6DBB2F5 		.ascii	"\246\333\262\365\362\254\266\375\313`\273\2248;b\266"
 269      F2ACB6FD 
 269      CB60BB94 
 269      383B62B6 
 270 035b 709A902C 		.ascii	"p\232\220,6\246@\331\372\313\245\262\231\225\312\263"
 270      36A640D9 
 270      FACBA5B2 
 270      9995CAB3 
 271 036b 8EA5E263 		.ascii	"\216\245\342c\245\242\276\243\252Y\3364\335Y\345\351"
 271      A5A2BEA3 
 271      AA59DE34 
 271      DD59E5E9 
 272 037b CEEBA67D 		.ascii	"\316\353\246}\334$\216\307\356\274\013\215\360\240d"
 272      DC248EC7 
 272      EEBC0B8D 
 272      F0A064
 273 038a 61CD5C50 		.ascii	"a\315\\PGw~\260R\363\014{\020\352\263vC\325\357i\240"
 273      47777EB0 
 273      52F30C7B 
 273      10EAB376 
 273      43D5EF69 
ARM GAS  /tmp/ccRu2VOH.s 			page 21


 274 039f 1DA30981 		.ascii	"\035\243\011\201\276\224\314\035\303k\352\030^\243\261"
 274      BE94CC1D 
 274      C36BEA18 
 274      5EA3B1
 275 03ae C32569E9 		.ascii	"\303%i\351'\342^\304\277iw\310E\206\360\377^\317\316"
 275      27E25EC4 
 275      BF6977C8 
 275      4586F0FF 
 275      5ECFCE
 276 03c1 1E76DA1B 		.ascii	"\036v\332\033&\265E^\303\372\2205\2543<\206\225\311"
 276      26B5455E 
 276      C3FA9035 
 276      AC333C86 
 276      95C9
 277 03d3 E209AC61 		.ascii	"\342\011\254aqu\267]):\312a\013\256\270\270\370T\314"
 277      7175B75D 
 277      293ACA61 
 277      0BAEB8B8 
 277      F854CC
 278 03e6 61752C41 		.ascii	"au,A\014\344\224\023G]$5\033\3078\224\243]\363\017\235"
 278      0CE49413 
 278      475D2435 
 278      1BC73894 
 278      A35DF30F 
 279 03fb 47EBDFBB 		.ascii	"G\353\337\273\003\255\372\004Z\365r\227\345\270\301"
 279      03ADFA04 
 279      5AF57297 
 279      E5B8C1
 280 040a 033479EB 		.ascii	"\0034y\353f\255\247\235D\250\306vC\325OY\177/\322t\012"
 280      66ADA79D 
 280      44A8C676 
 280      43D54F59 
 280      7F2FD274 
 281 041f 81B6B8CC 		.ascii	"\201\266\270\314=-\303\324\3232\214\226\237\221\225"
 281      3D2DC3D4 
 281      D3328C96 
 281      9F9195
 282 042e 2C6883F9 		.ascii	",h\203\371?\374q.{:\312\366\212\335.\016[\352\314\342"
 282      3FFC712E 
 282      7B3ACAF6 
 282      8ADD2E0E 
 282      5BEACCE2 
 283 0442 09AC2DFD 		.ascii	"\011\254-\375\342^q&\2259\235p\320\327\277c\271\332"
 283      E25E7126 
 283      95399D70 
 283      D0D7BF63 
 283      B9DA
 284 0454 E7982B1F 		.ascii	"\347\230+\037\313U\372\036\222j\\\375!\025KZ\020a\036"
 284      CB55FA1E 
 284      926A5CFD 
 284      21154B5A 
 284      10611E
 285 0467 27DBC5F2 		.ascii	"'\333\305\362y\226\345C<,\367\260U\344/c\371\347T,o"
 285      7996E543 
 285      3C2CF7B0 
 285      55E42F63 
 285      F9E7542C 
ARM GAS  /tmp/ccRu2VOH.s 			page 22


 286 047c FD1559BE 		.ascii	"\375\025Y\276\302\262|\3141\313>\301\370\321{\224,\276"
 286      C2B27CCC 
 286      31CB3EC1 
 286      F8D17B94 
 286      2CBE
 287 048e 2DDE0279 		.ascii	"-\336\002y\014\363\035\230\037\302\3743\314\277\305"
 287      0CF31D98 
 287      1FC2FC33 
 287      CCBFC5
 288 049d FC1CE697 		.ascii	"\374\034\346\227!OK\347\033,\235_\"\235K\333\031\350"
 288      214F4BE7 
 288      1B2C9D5F 
 288      229D4BDB 
 288      19E8
 289 04af A9B16BDB 		.ascii	"\251\261k\333s\353d}\342\344M\343\266V\034\377XD\267"
 289      73EB647D 
 289      E2E44DE3 
 289      B6561CFF 
 289      5844B7
 290 04c2 F58C44A6 		.ascii	"\365\214D\246\203\013\335F\267\225\026F\022\336\306"
 290      830BDD46 
 290      B7951646 
 290      12DEC6
 291 04d1 2A1325D3 		.ascii	"*\023%\323\264\252\241\266\033\231V\221\373\351\247"
 291      B4AAA1B6 
 291      1B995691 
 291      FBE9A7
 292 04e0 558DB5F3 		.ascii	"U\215\265\363m\347~\354\224n\221\250\267\335-\301B\254"
 292      6DE77EEC 
 292      946E91A8 
 292      B7DD2DC1 
 292      42AC
 293 04f2 F9AAE893 		.ascii	"\371\252\350\223\305\347\221\376u\326\364\333cH\302"
 293      C5E791FE 
 293      75D6F4DB 
 293      6348C2
 294 0501 4758E545 		.ascii	"GX\345E3\375\027d\037\275\233\236\372\213\247qR(\213"
 294      33FD1764 
 294      1FBD9B9E 
 294      FA8BA771 
 294      52288B
 295 0514 CF493900 		.ascii	"\317I9\000\330\234\000lW\240\036\3739\270\243WZA\270"
 295      D89C006C 
 295      57A01EFB 
 295      39B8A357 
 295      5A41B8
 296 0527 75A0C2A4 		.ascii	"u\240\302\244.?\253\377\200\352\362%\224\305\027\034"
 296      2E3FABFF 
 296      80EAF225 
 296      94C5171C 
 297 0537 B230C048 		.ascii	"\2620\300H\302\267Xe\266I\026-G\277n\371\247Y\252\332"
 297      C2B75865 
 297      B649162D 
 297      47BF6EF9 
 297      A759AADA 
 298 054b 997E955E 		.ascii	"\231~\225^ W4u\312\342L\224\310[\036\035\266}\022\271"
 298      20573475 
ARM GAS  /tmp/ccRu2VOH.s 			page 23


 298      CAE24C94 
 298      C85B1E1D 
 298      B67D12B9 
 299 055f B60D2C5A 		.ascii	"\266\015,Z\007{\3071\230\317\0006}\373<$\216\177h_\267"
 299      077BC731 
 299      98CF0036 
 299      7DFB3C24 
 299      8E7F685F 
 300 0574 6F8F1EDA 		.ascii	"o\217\036\332/\2260J\360\230\007\367\223\346\011f\372"
 300      2F96304A 
 300      F09807F7 
 300      93E60966 
 300      FA
 301 0585 F1571236 		.ascii	"\361W\0226\363pb\033b\022\265\354\275\251\021\034\361"
 301      F370621B 
 301      6212B5EC 
 301      BDA9111C 
 301      F1
 302 0596 242F4737 		.ascii	"$/G7\335\201\215-5\253\266\351\314\336;\251j\227r\251"
 302      DD818D2D 
 302      35ABB6E9 
 302      CCDE3BA9 
 302      6A9772A9 
 303 05aa B661573D 		.ascii	"\266aW=_O\365\352\315\227b\363\223\275\244\371\267\332"
 303      5F4FF5EA 
 303      CD9762F3 
 303      93BDA4F9 
 303      B7DA
 304 05bc 58D6B953 		.ascii	"X\326\271S\367\321\346\337\342j\376\370\3073\3326/\213"
 304      F7D1E6DF 
 304      E26AFEF8 
 304      C733DA36 
 304      2F8B
 305 05ce F7754FA5 		.ascii	"\367uO\245\277\2463g{.\304F\226\243\005\035\360\232"
 305      BFA63367 
 305      7B2EC446 
 305      96A3051D 
 305      F09A
 306 05e0 D5773F3B 		.ascii	"\325w?;)\325cm&\204>\232\240\276]\006\014l\306\356\177"
 306      29D5636D 
 306      26843E9A 
 306      A0BE5D06 
 306      0C6CC6EE 
 307 05f5 0335A5D3 		.ascii	"\0035\245\323\360\271cD\243\025\237\373\030\273\004"
 307      F0B96344 
 307      A3159FFB 
 307      18BB04
 308 0604 053BC903 		.ascii	"\005;\311\003f?W\211\375\300\202\235v\014f\244\354G"
 308      663F5789 
 308      FDC0829D 
 308      760C66A4 
 308      EC47
 309 0616 16EC3B1E 		.ascii	"\026\354;\0360\373x1\366\023\013\326\352\030\314H\331"
 309      30FB7831 
 309      F6130BD6 
 309      EA18CC48 
 309      D9
ARM GAS  /tmp/ccRu2VOH.s 			page 24


 310 0627 6516EC02 		.ascii	"e\026\354\002\017\230}\000\024\373\231\005\273\344\030"
 310      0F987D00 
 310      14FB9905 
 310      BBE418
 311 0636 CC48D935 		.ascii	"\314H\3315\026\354*\017\230\317\236\262\272}\014\330"
 311      16EC2A0F 
 311      98CF9EB2 
 311      BA7D0CD8 
 312 0646 D80CA760 		.ascii	"\330\014\247`F\312\246\261`\023x\300z\332S6\203\005"
 312      46CAA6B1 
 312      601378C0 
 312      7ADA5336 
 312      8305
 313 0658 9BE418CC 		.ascii	"\233\344\030\314H\331K,\330\013<`\275\354)\233\305\202"
 313      48D94B2C 
 313      D80B3C60 
 313      BDEC299B 
 313      C582
 314 066a 4D750C66 		.ascii	"Mu\014f\244l\016\0136\223\007\254\237=e\363X\260\331"
 314      A46C0E0B 
 314      369307AC 
 314      9F3D65F3 
 314      58B0D9
 315 067d 8EC18C94 		.ascii	"\216\301\214\224\255`\301\346\363\200=`O\331;,\330\""
 315      AD60C1E6 
 315      F3803D60 
 315      4FD93B2C 
 315      D822
 316 068f C76046CA 		.ascii	"\307`F\312V\263`/\363\200\015\266\247\354=\026l\251"
 316      56B3602F 
 316      F3800DB6 
 316      A7EC3D16 
 316      6CA9
 317 06a1 63302365 		.ascii	"c0#ekX\2607x\300\036\261\247l-\013\266\3141\230\221"
 317      6B58B037 
 317      78C01EB1 
 317      A76C2D0B 
 317      B6CC3198 
 318 06b6 B2F52CD8 		.ascii	"\262\365,\330r\036\260\341\366\224md\301V9\0063R\266"
 318      721EB0E1 
 318      F6946D64 
 318      C1563906 
 318      3352B6
 319 06c9 97056BE0 		.ascii	"\227\005k\340\001{\302\202\262\304\307\252\036\031\246"
 319      017BC282 
 319      B2C4C7AA 
 319      1E19A6
 320 06d8 DF949869 		.ascii	"\337\224\230i\323\332\014=\300q8F\013I\214\215\031N"
 320      D3DA0C3D 
 320      C0713846 
 320      0B498C8D 
 320      194E
 321 06ea 233203DF 		.ascii	"#2\003\337$P\276i\2556\316\323h\365\003\036\304\024"
 321      2450BE69 
 321      AD36CED3 
 321      68F5031E 
 321      C414
ARM GAS  /tmp/ccRu2VOH.s 			page 25


 322 06fc 03E09CED 		.ascii	"\003\340\234\355L\350\373\221c0\223)\023\260v\355\367"
 322      4CE8FB91 
 322      63309329 
 322      13B076ED 
 322      F7
 323 070d 90ED4189 		.ascii	"\220\355A\211\331\217\351a\375,L}%\262\325\363\235\224"
 323      D98FE961 
 323      FD2C4C7D 
 323      25B2D5F3 
 323      9D94
 324 071f 95A08296 		.ascii	"\225\240\202\226\365\022\335\3519\220a\265\323\210\000"
 324      F512DDE9 
 324      399061B5 
 324      D38800
 325 072e A9ABDA59 		.ascii	"\251\253\332Y\3027\254%\034\346\021S\212\241\375\370"
 325      C237AC25 
 325      1CE61153 
 325      8AA1FDF8 
 326 073e F67937A8 		.ascii	"\366y7\250-1\221\177\377i\335\264\335\372\014\241\025"
 326      2D31917F 
 326      FF69DDB4 
 326      DDFA0CA1 
 326      15
 327 074f 67082D19 		.ascii	"g\010-\031\346\020\263\321\341\026\024\004bf6\014-\247"
 327      E610B3D1 
 327      E1161404 
 327      6266360C 
 327      2DA7
 328 0761 0D2AC018 		.ascii	"\015*\300\030?\275\271\361mU\035\357u\300\310\276\217"
 328      3FBDB9F1 
 328      6D551DEF 
 328      75C0C8BE 
 328      8F
 329 0772 74467E44 		.ascii	"tF~DFZ\177\005F.9f\244\247\211\221XO\347\214$4r\005"
 329      465A7F05 
 329      462E3966 
 329      A4A78991 
 329      584FE78C 
 330 078a 19199BF9 		.ascii	"\031\031\233\371\313\031\231\224\351\224\221^\014#8"
 330      CB199994 
 330      E994915E 
 330      0C2338
 331 0799 61BB8B4E 		.ascii	"a\273\213N\330\256\023\246\245\236\260\021zT\327u\306"
 331      D8AE13A6 
 331      A59EB011 
 331      7A54D775 
 331      C6
 332 07aa 3589C33B 		.ascii	"5\211\303;\311J\007\271\235n\246\244\306.\356\234\247"
 332      C94A07B9 
 332      9D6EA6A4 
 332      C62EEE9C 
 332      A7
 333 07bb CDC1E976 		.ascii	"\315\301\351vT\035\322N\352:t\217\032\336\214]\350\210"
 333      541DD24E 
 333      EA3A748F 
 333      1ADE8C5D 
 333      E888
ARM GAS  /tmp/ccRu2VOH.s 			page 26


 334 07cd 2858FD   		.ascii	"(X\375"
 335 07d0 2F021B17 		.ascii	"/\002\033\027[\365\234\276@p?\006\017\277\020\256i\227"
 335      5BF59CBE 
 335      40703F06 
 335      0FBF10AE 
 335      6997
 336 07e2 E329FDB4 		.ascii	"\343)\375\264\003\272yLr\021\216^kc\036\355\232\322"
 336      03BA794C 
 336      72118E5E 
 336      6B631EED 
 336      9AD2
 337 07f4 AF6A2F27 		.ascii	"\257j/'\211\017\014df+s\024\377\023+\373\351.\316e\001"
 337      890F0C64 
 337      662B7314 
 337      FF132BFB 
 337      E92ECE65 
 338 0809 7D1BE4D0 		.ascii	"}\033\344\320\266\261\3423(\215\027]d\351h\243I\032"
 338      B6B1E233 
 338      288D175D 
 338      64E968A3 
 338      491A
 339 081b 1CEB0BBB 		.ascii	"\034\353\013\273\261\3124W\233\245\243\2757\322\011"
 339      B1CA3457 
 339      9BA5A3BD 
 339      37D209
 340 082a 3EF98A63 		.ascii	">\371\212c}\301\260t$\213\363%I\203m\257@\015:L\322"
 340      7DC1B074 
 340      248BF325 
 340      49836DAF 
 340      400D3A4C 
 341 083f 278B335C 		.ascii	"'\2133\\d\250\232\351b\326ga\246\357X\370>V\370\261"
 341      64A89AE9 
 341      62D66761 
 341      A6EF58F8 
 341      3E56F8B1 
 342 0853 2BBBE689 		.ascii	"+\273\346\211\204~\213%\221\007\330\000\"\261\223\265"
 342      847E8B25 
 342      9107D800 
 342      22B193B5 
 343 0863 67AA26F9 		.ascii	"g\252&\371Y(\371\257m$\377\200\035\220$\\\304*s\333"
 343      5928F9AF 
 343      6D24FF80 
 343      1D90245C 
 343      C42A73DB 
 344 0877 4A7EC76F 		.ascii	"J~\307o\250\344\347rI\376\023K\311\317u.y\015\357`r"
 344      A8E4E772 
 344      49FE134B 
 344      C9CF752E 
 344      790DEF60 
 345 088c D14E1617 		.ascii	"\321N\026\027:\006\363\245R\343\\F\215\363Q\215\013"
 345      3A06F3A5 
 345      52E35C46 
 345      8DF3518D 
 345      0B
 346 089d 5C64B17D 		.ascii	"\\d\261}\241Q\231\317f\231\224i\220\234V\264\235\257"
 346      A15199CF 
 346      66999469 
ARM GAS  /tmp/ccRu2VOH.s 			page 27


 346      909C56B4 
 346      9DAF
 347 08af AAB1E97B 		.ascii	"\252\261\351{\214>t\272\031\317\341,s\301\036\024\011"
 347      8C3E74BA 
 347      19CFE12C 
 347      73C11E14 
 347      09
 348 08c0 F538B31D 		.ascii	"\3658\263\035\203\371\014`\033\246\360\255\231\253\211"
 348      83F90C60 
 348      1BA6F0AD 
 348      99AB89
 349 08cf F5EECE28 		.ascii	"\365\356\316(\224W\260\335\327\314\346\362\356[M\023"
 349      9457B0DD 
 349      D7CCE6F2 
 349      EE5B4D13 
 350 08df C5B16889 		.ascii	"\305\261h\211\257q\330\013\0140'\263p\321\233\332\355"
 350      AF71D80B 
 350      0C3027B3 
 350      70D19BDA 
 350      ED
 351 08f0 B1046A0A 		.ascii	"\261\004j\012Q\247\260\226+\372\032:\215t\2772\303\245"
 351      51A7B096 
 351      2BFA1A3A 
 351      8D74BF32 
 351      C3A5
 352 0902 0DC48D70 		.ascii	"\015\304\215p\3278\326\320\215\202\3217\023\032\311"
 352      D738D6D0 
 352      8D82D137 
 352      131AC9
 353 0911 10BB0279 		.ascii	"\020\273\002y:\223e\036\023\250d\030C|\2151\3047\320"
 353      3A93651E 
 353      13A86418 
 353      437C8D31 
 353      C437D0
 354 0924 10DF4443 		.ascii	"\020\337DC\\\206\371\333\2549\332\215\362\313]L\350"
 354      5C86F9DB 
 354      AC39DA8D 
 354      F2CB5D4C 
 354      E8
 355 0935 FAA363BE 		.ascii	"\372\243c\276}&\355\3305\263\224m\346*\217\355\331/"
 355      7D26EDD8 
 355      35B3946D 
 355      E62A8FED 
 355      D92F
 356 0947 4A10AFFE 		.ascii	"J\020\257\376\357\215\332<\207.\211O\314v\212h\264\346"
 356      EF8DDA3C 
 356      872E894F 
 356      CC768A68 
 356      B4E6
 357 0959 D6298688 		.ascii	"\326)\206\210`\032\017\334\003\026\004Z}\330\035\015"
 357      601A0FDC 
 357      0316045A 
 357      7DD81D0D 
 358 0969 F01D3843 		.ascii	"\360\0358C\231'\021\005-\300|\021\346\257b~\022\363"
 358      99271105 
 358      2DC07C11 
 358      E6AF627E 
ARM GAS  /tmp/ccRu2VOH.s 			page 28


 358      12F3
 359 097b AF313F8D 		.ascii	"\2571?\215\371Y\314/`~\031\3638\346SP\305\365\230/\306"
 359      F959CC2F 
 359      607E19F3 
 359      38E65350 
 359      C5F5982F 
 360 0990 FC65CC5F 		.ascii	"\374e\314_\305\374]\314\033x\014\200zHf\265yN\266\323"
 360      C5FC5DCC 
 360      1B780C80 
 360      7A4866B5 
 360      794EB6D3 
 361 09a4 0D24832C 		.ascii	"\015$\203,[V.\374`\2528}\274\272\243\227\356k\226\362"
 361      5B562EFC 
 361      60AA387D 
 361      BCBAA397 
 361      EE6B96F2 
 362 09b8 20A6E84E 		.ascii	" \246\350N3\210/w\262a\222\210\2566`\373+\262\177\225"
 362      33882F77 
 362      B2619288 
 362      AE3660FB 
 362      2BB27F95 
 363 09cc E86A8363 		.ascii	"\350j\203c6\314\202\331\226\020\014%l\033\017\242\325"
 363      36CC82D9 
 363      96100C25 
 363      6C1B0FA2 
 363      D5
 364 09dd F4DCDACE 		.ascii	"\364\334\332\316^d\354l*\332\3314\264\225\031\230\257"
 364      5E64EC6C 
 364      2ADAD934 
 364      B4951998 
 364      AF
 365 09ee 459B588F 		.ascii	"E\233X\217\371f\036\313x\216\235\325\356\315\326\367"
 365      F9661ECB 
 365      788E9DD5 
 365      EECDD6F7 
 366 09fe 597F9548 		.ascii	"Y\177\225Hh\"C\352$$u\262d\030<?\315v\272\015m\024\366"
 366      682243EA 
 366      242475B2 
 366      64183C3F 
 366      CD76BA0D 
 367 0a15 C9F82C9C 		.ascii	"\311\370,\234Eg\010\2658g\2330.\315\234-v\331+\311\342"
 367      456708B5 
 367      38679B30 
 367      2ECD9C2D 
 367      76D92BC9 
 368 0a2a 36570619 		.ascii	"6W\006\031NL\006\303\001\202'\270\240\262a\306t\276"
 368      4E4C06C3 
 368      018227B8 
 368      A0B261C6 
 368      74BE
 369 0a3c B613D985 		.ascii	"\266\023\331\205&\367S\214hx\266@\022Ne\323\021\301"
 369      26F7538C 
 369      6878B640 
 369      124E65D3 
 369      11C1
 370 0a4e 9D95BC77 		.ascii	"\235\225\274w.yOd\036\275\234\274\255\277\015@.S\236"
 370      2E794F64 
ARM GAS  /tmp/ccRu2VOH.s 			page 29


 370      1EBD9CBC 
 370      ADBF0D40 
 370      2E539E
 371 0a61 234D1227 		.ascii	"#M\022'\213;q\254\330\345rYV\223\204\3619&\341[\315"
 371      8B3B71AC 
 371      D8E57259 
 371      569384F1 
 371      3926E15B 
 372 0a76 34EDB706 		.ascii	"4\355\267\006c\361\355dp\266\332\227K\034\212\276-!"
 372      63F1ED64 
 372      70B6DA97 
 372      4B1C8ABE 
 372      2D21
 373 0a88 F896556B 		.ascii	"\370\226UkO\337\264\014C\305\3758\360\305r\322\357\034"
 373      4FDFB40C 
 373      43C5FD38 
 373      F0C572D2 
 373      EF1C
 374 0a9a 5BE0C4A6 		.ascii	"[\340\304\246n\273\211H\373 \202\354q\012\"\011\207"
 374      6EBB8948 
 374      FB2082EC 
 374      710A2209 
 374      87
 375 0aab B1CA6153 		.ascii	"\261\312aSh\022\333P\213'\264\017s\205%\233\266\321"
 375      6812DB50 
 375      8B27B40F 
 375      7385259B 
 375      B6D1
 376 0abd 005C0F4C 		.ascii	"\000\\\017LN$0\333\027\230\354\245a,=\242\375\255\031"
 376      4E2430DB 
 376      1798ECA5 
 376      612C3DA2 
 376      FDAD19
 377 0ad0 CCA11FDD 		.ascii	"\314\241\037\335\237\210\261\311)\027\030\356\035\343"
 377      9F88B1C9 
 377      291718EE 
 377      1DE3
 378 0ade 19FA58EC 		.ascii	"\031\372X\354\000%\216\202\305y\300R,5~\312\202M\310"
 378      00258E82 
 378      C579C052 
 378      2C357ECA 
 378      824DC8
 379 0af1 750A66A4 		.ascii	"u\012f\244\354\010\013\366\002\017X\212\005\271\243"
 379      EC080BF6 
 379      020F588A 
 379      05B9A3
 380 0b00 DBE6A53D 		.ascii	"\333\346\245=5f\263\005\214\213\203.\303q#\323\336\361"
 380      3566B305 
 380      8C8B832E 
 380      C37123D3 
 380      DEF1
 381 0b12 411BB270 		.ascii	"A\033\262p53\0314\245=o\244\365\201zz\356\345\264\013"
 381      35331934 
 381      A53D6FA4 
 381      F5817A7A 
 381      EEE5B40B 
 382 0b26 377F728D 		.ascii	"7\177r\215}\300\3244!\314\256\351\357]96\266\336\346"
ARM GAS  /tmp/ccRu2VOH.s 			page 30


 382      7DC0D434 
 382      21CCAEE9 
 382      EF5D3936 
 382      B6DEE6
 383 0b39 3B4958E8 		.ascii	";IX\350X\300Fm\035\2575D_\257\363\300\371,\364e\365"
 383      58C0466D 
 383      1DAF3544 
 383      5FAFF3C0 
 383      F92CF465 
 384 0b4e 613BB42C 		.ascii	"a;\264,6\243\343\373\014\307\300c\230\267`~\002\363"
 384      36A3E3FB 
 384      0CC7C063 
 384      98B7607E 
 384      02F3
 385 0b60 2F31FF0A 		.ascii	"/1\377\012\363S\230\267\262\343\344?\006U\022\226\347"
 385      F35398B7 
 385      B2E3E43F 
 385      06551296 
 385      E7
 386 0b71 9ABCADD1 		.ascii	"\232\274\255\3211\245\353\207*\031\353\354f\3756\016"
 386      31A5EB87 
 386      2A19EBEC 
 386      66FD360E 
 387 0b81 B7E95FA8 		.ascii	"\267\351_\250\303\275\200N\352=\223\235P\253\374G\261"
 387      C3BD804E 
 387      EA3D939D 
 387      50ABFC47 
 387      B1
 388 0b92 BB958B5D 		.ascii	"\273\225\213]\333y\254\306.\014\355]\204:dw\226\361"
 388      DB79ACC6 
 388      2E0CED5D 
 388      843A6477 
 388      96F1
 389 0ba4 D0BF9A30 		.ascii	"\320\277\2320\027U\267\346\313\256.X2\234\\\247\273"
 389      1755B7E6 
 389      CBAE2E58 
 389      329C5CA7 
 389      BB
 390 0bb5 4836F67F 		.ascii	"H6\366\177\305\225\334\007\310\315J\026\342\256\004"
 390      C595DC07 
 390      C8CD4A16 
 390      E2AE04
 391 0bc4 1F1F99F9 		.ascii	"\037\037\231\37105\254\225mw\320HWT]^J\235$|\314\007"
 391      3035AC95 
 391      6D77D048 
 391      57545D5E 
 391      4A9D247C 
 392 0bda B7D76D87 		.ascii	"\267\327m\207gu*\322\302\"Z\022\363\316\233\222\026"
 392      67752AD2 
 392      C2225A12 
 392      F3CE9B92 
 392      16
 393 0beb 71E0AB4B 		.ascii	"q\340\253K\223\264\351\367X71\211)\035\322\016\237F"
 393      93B4E9F7 
 393      58373189 
 393      291DD20E 
 393      9F46
ARM GAS  /tmp/ccRu2VOH.s 			page 31


 394 0bfd 2022B467 		.ascii	" \"\264g\334\246\241s\376\211\035\332\361>w\332\301"
 394      DCA6A173 
 394      FE891DDA 
 394      F13E77DA 
 394      C1
 395 0c0e F399F1B1 		.ascii	"\363\231\361\261\225'vH\263\325\3303.\324\323\370\224"
 395      95277648 
 395      B3D5D833 
 395      2ED4D3F8 
 395      94
 396 0c1f B13E9818 		.ascii	"\261>\230\030\276\326\303\023\270\317Cf\010\015\016"
 396      BED6C313 
 396      B8CF4366 
 396      080D0E
 397 0c2e 63578DAE 		.ascii	"cW\215\256w\010\033du`\"\006\\\013\035\303\371\014p"
 397      77081B64 
 397      75602206 
 397      5C0B1DC3 
 397      F90C70
 398 0c41 AB8D704B 		.ascii	"\253\215pKx\340\354Fu\200{\317\010\267\3241\234\221"
 398      78E0EC46 
 398      75807BCF 
 398      08B7D431 
 398      9C91
 399 0c53 BA3546B8 		.ascii	"\2725F\2707y\340\354\206u\200[k\204{\3331\234\221\272"
 399      3779E0EC 
 399      8675805B 
 399      6B847BDB 
 399      319C91BA 
 400 0c67 F546B877 		.ascii	"\365F\270wx\340\254\206v\253\017k\300\2628\301M\314"
 400      78E0AC86 
 400      76AB0F6B 
 400      C0B238C1 
 400      4DCC
 401 0c79 ABD64D3C 		.ascii	"\253\326M<\330$\314\237\303\374\005\314_\304|*\346\323"
 401      D824CC9F 
 401      C3FC05CC 
 401      5FC47C2A 
 401      E6D3
 402 0c8b DD1C9329 		.ascii	"\335\034\223)\325\315L\246\032:pLn\366\246\\h1\320\235"
 402      D5CD4CA6 
 402      1A3A704C 
 402      6EF6A65C 
 402      6831D09D 
 403 0c9f 7CF55116 		.ascii	"|\365Q\026_\303n\361:\236\376\035\217\023\277\255\350"
 403      5FC36EF1 
 403      3A9EFE1D 
 403      8F13BFAD 
 403      E8
 404 0cb0 85F761FE 		.ascii	"\205\367a\376\003\346\2270\277\212y\234g*\2708yB\330"
 404      03E69730 
 404      BF8A799C 
 404      672AB838 
 404      7942D8
 405 0cc3 E05F5817 		.ascii	"\340_X\027L6I\265\372k\022\256\341\006\015\240\336\355"
 405      4C3649B5 
 405      FA6B12AE 
ARM GAS  /tmp/ccRu2VOH.s 			page 32


 405      E1060DA0 
 405      DEED
 406 0cd5 D403CF72 		.ascii	"\324\003\317r[{\340\353\323\220\372\222\333\021\251"
 406      5B7BE0EB 
 406      D390FA92 
 406      DB11A9
 407 0ce4 C6F3B804 		.ascii	"\306\363\270\004`\216cR\347\332\220z]\032Rg;#\365\331"
 407      608E6352 
 407      E7DA907A 
 407      5D1A5267 
 407      3B23F5D9 
 408 0cf8 04A95D34 		.ascii	"\004\251]4\200\371\216I]`Cj\3474\244\316sF\352,\321"
 408      80F98E49 
 408      5D60436A 
 408      E734A4CE 
 408      7346EA2C 
 409 0d0d 2803595C 		.ascii	"(\003Y\\\344\230\324\3056\244vMC\352\302$\251\231\302"
 409      E498D4C5 
 409      36A4764D 
 409      43EAC224 
 409      A999C2
 410 0d20 443A6F57 		.ascii	"D:oW\307\212\243SL\376\361|\201,.qg\222e\236\016\266"
 410      C78AA353 
 410      4CFEF17C 
 410      812C2E71 
 410      6792659E 
 411 0d36 A703C803 		.ascii	"\247\003\310\003z\323\264\254\227D\256E\002\375e\235"
 411      7AD3B4AC 
 411      9744AE45 
 411      02FD659D 
 412 0d46 339B6FC5 		.ascii	"3\233o\305a\361U7Ym8l\032k9W\033^w\233V\033\032\335"
 412      61F15537 
 412      596D386C 
 412      1A6B3957 
 412      1B5E779B 
 413 0d5e 12BD9B7E 		.ascii	"\022\275\233~\255\341t\007\213\265\206\016\226k\015"
 413      ADE17407 
 413      8BB5860E 
 413      966B0D
 414 0d6d 173B385F 		.ascii	"\027;8_kH\222&\213o\240\037}\323m\275\326p\263\260@"
 414      6B489226 
 414      8B6FA01F 
 414      7DD36DBD 
 414      D670B3B0 
 415 0d82 8D9D6DB9 		.ascii	"\215\235m\271\364\375\351\036o\221\025]\365Z\374oc\307"
 415      F4FDE91E 
 415      6F91155D 
 415      F55AFC6F 
 415      63C7
 416 0d94 89A6D995 		.ascii	"\211\246\331\225\333\336JV\272\355gW\274\033\220M\347"
 416      DBDE4A56 
 416      BAED6757 
 416      BC1B904D 
 416      E7
 417 0da5 5B6FA4EB 		.ascii	"[o\244\353\205\2531\3709\325\321\341\376#!\244\301\034"
 417      85AB31F8 
 417      39D5D1E1 
ARM GAS  /tmp/ccRu2VOH.s 			page 33


 417      FE2321A4 
 417      C11C
 418 0db7 FCBCBB0D 		.ascii	"\374\274\273\015\327\015\032\322\207>0\005j\334\266"
 418      D70D1AD2 
 418      873E3005 
 418      6ADCB6
 419 0dc6 8CFBF573 		.ascii	"\214\373\365s\323\216\312\325\216\326\357\237\033\036"
 419      D38ECAD5 
 419      8ED6EF9F 
 419      1B1E
 420 0dd4 93C5F56E 		.ascii	"\223\305\365n\262\007\266\301L\345t\272\272\261\201"
 420      B207B6C1 
 420      4CE574BA 
 420      BAB181
 421 0de3 8BCA99DB 		.ascii	"\213\312\231\333\264m\222\345\370\226\337&Q\207lG\\"
 421      B46D92E5 
 421      F896DF26 
 421      51876C47 
 421      5C
 422 0df4 A5C7ABF4 		.ascii	"\245\307\253\364\215ZY\334\356\030\314g\005\366!\202"
 422      8D5A59DC 
 422      EE18CC67 
 422      05F62182 
 423 0e04 1DE401B3 		.ascii	"\035\344\001\263_)\321\301\350\313\214\315\216\301|"
 423      5F29D1C1 
 423      E8CB8CCD 
 423      8EC17C
 424 0e13 26F125DF 		.ascii	"&\361%\337\334\331\204\021C\014\363\315\230o\341\211"
 424      DCD98411 
 424      430CF3CD 
 424      986FE189 
 425 0e23 1ED6BA99 		.ascii	"\036\326\272\231\225\200q\270\233\331\340\\\354V\037"
 425      958071B8 
 425      9BD9E05C 
 425      EC561F
 426 0e32 D6706571 		.ascii	"\326peq\015v\326F\036\222V%IJ\274\034\305\234\203\""
 426      0D76D646 
 426      1E925625 
 426      494ABC1C 
 426      C59C8322 
 427 0e46 1F4998D9 		.ascii	"\037I\230\331\311\330\223n\023^V\325i\330\335\277!2"
 427      C9D8936E 
 427      135E56D5 
 427      69D8DDBF 
 427      2132
 428 0e58 A63092B0 		.ascii	"\2460\222\260\000\237[\341\276\331&\326\307\306he\265"
 428      009F5BE1 
 428      BED926D6 
 428      C7C66865 
 428      B5
 429 0e69 7E5B6E9D 		.ascii	"~[n\235H\333\202\3409ME\215\242\177\025^%\375\343\320"
 429      48DB82E0 
 429      394D458D 
 429      A27F155E 
 429      25FDE3D0 
 430 0e7d 978F0CD6 		.ascii	"\227\217\014\326\234\236}%\215\277\017\334\206\037Z"
 430      9C9E7D25 
ARM GAS  /tmp/ccRu2VOH.s 			page 34


 430      8DBF0FDC 
 430      861F5A
 431 0e8c 218E6A51 		.ascii	"!\216jQK\313\374+\247e2EQ\343\361\277\011\374k@\273"
 431      4BCBFC2B 
 431      A7653245 
 431      51E3F1BF 
 431      09FC6B40 
 432 0ea1 D27B29FB 		.ascii	"\322{)\373\337\216H\214\032\237\377\026G\215=\350\244"
 432      DF8E488C 
 432      1A9FFF16 
 432      478D3DE8 
 432      A4
 433 0eb2 D6774A3B 		.ascii	"\326wJ;C3\302\020:\232\314\335\377\223R\037\275\233"
 433      4333C210 
 433      3A9ACCDD 
 433      FF93521F 
 433      BD9B
 434 0ec4 BEF31F5E 		.ascii	"\276\363\037^\335(\252\265\271t\324\202J.I\003\264\032"
 434      DD28AAB5 
 434      B974D482 
 434      4A2E4903 
 434      B41A
 435 0ed6 A0D276FE 		.ascii	"\240\322v\376X\363\017k(\\#\256m\356@v\234\300e\032"
 435      58F30F6B 
 435      285C23AE 
 435      6DEE4076 
 435      9CC0651A 
 436 0eea E08E2E6A 		.ascii	"\340\216.j\373\323\030V\277\035\342\322\261\372%%\333"
 436      FBD31856 
 436      BF1DE2D2 
 436      B1FA2525 
 436      DB
 437 0efb 74EDF05F 		.ascii	"t\355\360_\327\342z\310\247(\332\231\235\323\212\326"
 437      D7E27AC8 
 437      A728DA99 
 437      9DD38AD6 
 438 0f0b 88238B47 		.ascii	"\210#\213G\320\2736\233\305\333:\007\275k3\227\200/"
 438      D0BB369B 
 438      C5DB3A07 
 438      BD6B3397 
 438      802F
 439 0f1d 1D59E06C 		.ascii	"\035Y\340l\313\242%\276\344\362o\350\300u\014#\211}"
 439      CBA225BE 
 439      E4F26FE8 
 439      C0750C23 
 439      897D
 440 0f2f 9DDB1549 		.ascii	"\235\333\025I|n\216$\232\350\276\305\347\\\261\304\321"
 440      7C6E8E24 
 440      9AE8BEC5 
 440      E75CB1C4 
 440      D1
 441 0f40 CE6D6389 		.ascii	"\316mc\211S\235-c\211\326\316\306XB\273}%y\333\305\334"
 441      539D2D63 
 441      89D6CEC6 
 441      5842BB7D 
 441      2579DBC5 
 442 0f55 9ED42571 		.ascii	"\236\324%q\333\315\334\256O\336\3660\026\2212 \371\234"
ARM GAS  /tmp/ccRu2VOH.s 			page 35


 442      DBCDDCAE 
 442      4FDEF630 
 442      16913220 
 442      F99C
 443 0f67 09484EA0 		.ascii	"\011HN\240\217\373\302& \321\015\273\271\275\206\015"
 443      8FFBC226 
 443      20D10DBB 
 443      B9BD860D 
 444 0f77 D6B4B97C 		.ascii	"\326\264\271|#\356Ns\014\346O\350\200\271\011\255\306"
 444      23EE4E73 
 444      0CE64FE8 
 444      80B909AD 
 444      C6
 445 0f88 361C117D 		.ascii	"6\034\021}\026&gxT\026\317\001\033\351\236\302\027|"
 445      16266778 
 445      5416CF01 
 445      1BE99EC2 
 445      177C
 446 0f9a DB2CCA1C 		.ascii	"\333,\312\034A\233"
 446      419B
 447 0fa0 FC81CB26 		.ascii	"\374\201\313&W\036\231\351p\033\255\365\0209\302p\021"
 447      571E99E9 
 447      701BADF5 
 447      1039C270 
 447      11
 448 0fb1 ED714997 		.ascii	"\355qI\227v\331\343e\263=\036\256G{\274\314e\217owa"
 448      76D9E365 
 448      B33D1EAE 
 448      477BBCCC 
 448      658F6F77 
 449 0fc6 6C4FBBD7 		.ascii	"lO\273\327\330\305\322\360vw1\032\036\217)]fL\351\012"
 449      D8C5D2F0 
 449      7677311A 
 449      1E8F295D 
 449      664CE90A 
 450 0fda 9AD2CF36 		.ascii	"\232\322\3176\246$\011\307\221\377\037\332\355#W\035"
 450      A62409C7 
 450      91FF1FDA 
 450      ED23571D 
 451 0fea 99A92D8C 		.ascii	"\231\251-\214\323\337\007\370\332\214\347,F\212\255"
 451      D3DF07F8 
 451      DA8CE72C 
 451      468AAD
 452 0ff9 3992B3E2 		.ascii	"9\222\263\342\011~U"
 452      097E55
 453 1000 4E3F4254 		.ascii	"N?BTY\353!\252<\337>UN\362\230Ty\205\252\222\334O\257"
 453      59EB21AA 
 453      3CDF3E55 
 453      4EF29854 
 453      7985AA92 
 454 1017 CA715DDB 		.ascii	"\312q]\333\252rjWKU\276\334\325\271*\223\304\311\342"
 454      AA726A57 
 454      4B55BEDC 
 454      D5B92A93 
 454      C4C9E2
 455 102a 640F51E5 		.ascii	"d\017Q\345s\036;U\256\351\312\241J\253\210\222i\217"
 455      731E3B55 
ARM GAS  /tmp/ccRu2VOH.s 			page 36


 455      AEE9CAA1 
 455      4AAB8892 
 455      698F
 456 103c B674018D 		.ascii	"\266t\001\215\346G\014\376\306{H>\301cX \177\277\253"
 456      E6470CFE 
 456      C67B483E 
 456      C1635820 
 456      7FBFAB
 457 104f 79399EF6 		.ascii	"y9\236\366U\006)\331\251\205TXv\341\310Yv1j76\327\334"
 457      550629D9 
 457      A9855458 
 457      76E1C859 
 457      76316A37 
 458 1066 6EA39ADD 		.ascii	"n\243\232\335\274\300\331\361\327\330\246\372\356\304"
 458      BCC0D9F1 
 458      D7D8A6FA 
 458      EEC4
 459 1074 06667A88 		.ascii	"\006fz\210\012\017\264\341\266]\2073\216\363p\221b\313"
 459      0A0FB4E1 
 459      B65D8733 
 459      8EF37091 
 459      62CB
 460 1086 7A55F302 		.ascii	"zU\363\002m\343v\005nu\274n\036\005\214\363\251\024"
 460      6DE37605 
 460      6E75BC6E 
 460      1E058CF3 
 460      A914
 461 1098 51BFBE39 		.ascii	"Q\277\2769\332l~\333\201\276\031m/\227\226\371\015G"
 461      DA6C7EDB 
 461      81BE196D 
 461      2F9796F9 
 461      0D47
 462 10aa B48DF0B9 		.ascii	"\264\215\360\271\036\214\212\2573\213f\246dzU\264\315"
 462      1E8C8AAF 
 462      338B66A6 
 462      647A55B4 
 462      CD
 463 10bb E99D95D7 		.ascii	"\351\235\225\327q\310!\305\261\375\246k\255\225\033"
 463      71C821C5 
 463      B1FDA66B 
 463      AD951B
 464 10ca 56A8EA04 		.ascii	"V\250\352\004\375\264\273Z\253\366|=\251\317\316:\206"
 464      FDB4BB5A 
 464      ABF67C3D 
 464      A9CFCE3A 
 464      86
 465 10db 94D4E7BB 		.ascii	"\224\324\347\273T\237\213P\237kLDs\303\264\034\235\334"
 465      549F8B50 
 465      9F6B4C44 
 465      73C3B41C 
 465      9DDC
 466 10ed F06F18E0 		.ascii	"\360o\030\340\276\214@[\332\015T?\3455\372c(K\021hW"
 466      BE8C405B 
 466      DA0D543F 
 466      E535FA63 
 466      284B1168 
 467 1102 1B31BA4C 		.ascii	"\0331\272L\006\3462\032\230++Y\210\307\215\277{\367"
ARM GAS  /tmp/ccRu2VOH.s 			page 37


 467      06E6321A 
 467      982B2B59 
 467      88C78DBF 
 467      7BF7
 468 1114 2B3F2C09 		.ascii	"+?,\011\007\315\0123pd\210\337m\302\215\246\360\006"
 468      07CD0A33 
 468      706488DF 
 468      6DC28DA6 
 468      F006
 469 1126 ED301C1D 		.ascii	"\3550\034\035%\232yL\300\200h\264\334\237\233q\363\234"
 469      259A794C 
 469      C08068B4 
 469      DC9F9B71 
 469      F39C
 470 1138 829DE401 		.ascii	"\202\235\344\001K\361\322\345\314\005\013y\0276,b\241"
 470      4BF1D2E5 
 470      CC050B79 
 470      17362C62 
 470      A1
 471 1149 964D9B76 		.ascii	"\226M\233v\376\221D\270\351\343\241\225\036\276xh\225"
 471      FE9144B8 
 471      E9E3A195 
 471      1EBE7868 
 471      95
 472 115a C7FC530B 		.ascii	"\307\374S\013{0\036\"\367\323\307C\0279\217\275\306"
 472      7B301E22 
 472      F7D3C743 
 472      17398FBD 
 472      C6
 473 116b 12DEA247 		.ascii	"\022\336\242G\222\231O\276\372\360>\032\2567xp\337\265"
 473      92994FBE 
 473      FAF03E1A 
 473      AE377870 
 473      DFB5
 474 117d 5BFA7986 		.ascii	"[\372y\206\001\007\227\002\314\364\257\372\030\351_"
 474      01079702 
 474      CCF4AFFA 
 474      18E95F
 475 118c 9B9EFE67 		.ascii	"\233\236\376g\306\307\032\2647\330\365\015\224\017\221"
 475      C6C71AB4 
 475      37D8F50D 
 475      940F91
 476 119b 045297D7 		.ascii	"\004R\227\327\371\033\361\326\320W\207)\330G\216\301"
 476      F91BF1D6 
 476      D0578729 
 476      D8478EC1 
 477 11ab 7C06B0B5 		.ascii	"|\006\260\265,X\023\017X\212m\261\365,\330'\216\301"
 477      2C58130F 
 477      588A6DB1 
 477      F52CD827 
 477      8EC1
 478 11bd 8C946D64 		.ascii	"\214\224md\301\216\360\200\245\330\022\333\313\202\035"
 478      C18EF080 
 478      A5D812DB 
 478      CB821D
 479 11cc 770CE6B3 		.ascii	"w\014\346\263R\257\320\306:dq\035\2064\3531,\330\210"
 479      52AFD0C6 
ARM GAS  /tmp/ccRu2VOH.s 			page 38


 479      3A64711D 
 479      8634EB31 
 479      2CD888
 480 11df 790CF32D 		.ascii	"y\014\363-\230\177\200\3716\236p\341=\017\023.|\201"
 480      987F80F9 
 480      369E70E1 
 480      3D0F132E 
 480      7C81
 481 11f1 04AF6A9F 		.ascii	"\004\257j\237\305\200\277\332\264\351\304\037\326\266"
 481      C580BFDA 
 481      B4E9C41F 
 481      D6B6
 482 11ff 9D1E5179 		.ascii	"\235\036Qy\330Q\260\223\245\340\033\307\024\370X\012"
 482      D851B093 
 482      A5E01BC7 
 482      14F8580A 
 483 120f 6257F6D0 		.ascii	"bW\366\320\027\354\364\245\207\357\315x\216N\273\215"
 483      17ECF4A5 
 483      87EFCD78 
 483      8E4EBB8D 
 484 121f 8B5DDB03 		.ascii	"\213]\333\003Q\265\016\366\243c0\343:F\335\307\014\230"
 484      51B50EF6 
 484      A36330E3 
 484      3A46DDC7 
 484      0C98
 485 1231 DADD2998 		.ascii	"\332\335)\230\276\217\223\264\010j\013\253\321\026\336"
 485      BE8F93B4 
 485      086A0BAB 
 485      D116DE
 486 1240 459D7F88 		.ascii	"E\235\177\210\371G\230\357\301|\2571\000\235\330\335"
 486      F94798EF 
 486      C17CAF31 
 486      009DD8DD 
 487 1250 3C6052E7 		.ascii	"<`R\347\310\240&\275\250\300\213k\247\333\345\254n\347"
 487      C8A026BD 
 487      A8C08B6B 
 487      A7DBE5AC 
 487      6EE7
 488 1262 74773ADC 		.ascii	"tw:\334\030tK\302\227\232\215\372O]`\020\265\210\007"
 488      18744BC2 
 488      979A8DFA 
 488      4F5D6010 
 488      B58807
 489 1275 31C55B13 		.ascii	"1\305[\023\253\217\231\3438+7-\261\264%\334\375\346"
 489      AB8F99E3 
 489      382B372D 
 489      B1B425DC 
 489      FDE6
 490 1287 C7A9BBFF 		.ascii	"\307\251\273\377\024\335\375\322\356\351\335\275d\344"
 490      14DDFDD2 
 490      EEE9DDBD 
 490      64E4
 491 1295 110837BB 		.ascii	"\021\0107\273\373K\373\351\222\022\227\273\277\272\237"
 491      FB4BFBE9 
 491      921297BB 
 491      BFBA9F
 492 12a4 75F7B238 		.ascii	"u\367\2628\205.S\265\333\335_\333\237p]\262X\347\030"
ARM GAS  /tmp/ccRu2VOH.s 			page 39


 492      852E53B5 
 492      DBDD5FDB 
 492      9F705DB2 
 492      58E718
 493 12b7 CC6700AB 		.ascii	"\314g\000\253;\310\370\301w\250\232\332\355\356\247"
 493      3BC8F8C1 
 493      77A89ADA 
 493      EDEEA7
 494 12c6 B1600D8E 		.ascii	"\261`\015\216\301\214\224\3158\310\2609\231\207\315"
 494      C18C94CD 
 494      38C8B039 
 494      9987CD
 495 12d5 14EEFE25 		.ascii	"\024\356\376%\226\262\365<\224\2458\3770\213\005\213"
 495      96B2F53C 
 495      94A538FF 
 495      308B058B 
 496 12e5 F180D91D 		.ascii	"\361\200\331\035l\004\2609,\330\007\216\301\214\224"
 496      6C04B039 
 496      2CD8078E 
 496      C18C94
 497 12f4 CD63C176 		.ascii	"\315c\301v\360\200\371\354)[\300\202\355q\014\346\263"
 497      F080F9EC 
 497      295BC082 
 497      ED710CE6 
 497      B3
 498 1305 EA12F4C3 		.ascii	"\352\022\364\303\366(Y\374\014\335\342QtV\3070?\216"
 498      F62859FC 
 498      0CDDE251 
 498      7456C730 
 498      3F8E
 499 1317 F9E7987F 		.ascii	"\371\347\230\177\201\371\227\230\177\205\371)\314\277"
 499      81F99798 
 499      7F85F929 
 499      CCBF
 500 1325 C1FC5B1E 		.ascii	"\301\374[\036\347v\210un\373\035\273\242\324\2140\033"
 500      E7768875 
 500      6EFB1DBB 
 500      A2D48C30 
 500      1B
 501 1336 379FE1A2 		.ascii	"7\237\341\242\302Q\\\010\370\036\363\031H\344l\314\347"
 501      C2515C08 
 501      F81EF319 
 501      48E46CCC 
 501      E7
 502 1347 60BE10F3 		.ascii	"`\276\020\36371_\206\371\333\230\037\300\374 \027;\354"
 502      37315F86 
 502      F9DB981F 
 502      C0FC2017 
 502      3BEC
 503 1359 3ED4198F 		.ascii	">\324\031\217i\007\300\3318\334R\177\346\3229q*}\037"
 503      6907C0D9 
 503      38DC527F 
 503      E6D23971 
 503      2A7D1F
 504 136c 82FE94E6 		.ascii	"\202\376\224\346\241\356bz\304\024\223\370\326S\231"
 504      A1EE627A 
 504      C41493F8 
ARM GAS  /tmp/ccRu2VOH.s 			page 40


 504      D65399
 505 137b 6A6DAE7E 		.ascii	"jm\256~&\241\207\341H\302p\275~\216F\3769\217\323\023"
 505      26A187E1 
 505      48C270BD 
 505      7E8E46FE 
 505      398FD313 
 506 138f 09E73DD6 		.ascii	"\011\347=\326'\022\262\023\032>nf\300\320j\032\307\003"
 506      2712B213 
 506      1A3E6E66 
 506      C0D06A1A 
 506      C703
 507 13a1 83CD859F 		.ascii	"\203\315\205\237\264\343M\364\344\362\227<\362Hqr\371"
 507      B4E34DF4 
 507      E4F2973C 
 507      F2487172 
 507      F9
 508 13b2 C752225B 		.ascii	"\307R\"[\212\365\215c\254\224\306\327\304\030\337>4"
 508      8AF58D63 
 508      AC94C6D7 
 508      C418DF3E 
 508      34
 509 13c3 BEFD6876 		.ascii	"\276\375hv\0070?H\015\021\015\253\025\363\013\230_\344"
 509      07303F48 
 509      0D110DAB 
 509      15F30B98 
 509      5FE4
 510 13d5 31B2DD16 		.ascii	"1\262\335\026;\213\232\341\331\374vk\333\237m4_\237"
 510      3B8B9AE1 
 510      D9FC766B 
 510      DB9F6D34 
 510      5F9F
 511 13e7 303C6F8A 		.ascii	"0<o\212<\031+iCL\334\303\256\270\030\216aK\302Y\323"
 511      3C192B69 
 511      434CDCC3 
 511      AEB8188E 
 511      614BC259 
 512 13fc 88AE6D6F 		.ascii	"\210\256mo\316\277rz\2618c\274:\230\362\"\011q|n\247"
 512      CEBF727A 
 512      B13863BC 
 512      3A98F222 
 512      09717C6E 
 513 1411 ED2EE56E 		.ascii	"\355.\345nf{\26398\230\262+\011\265\327\247\256v\210"
 513      667BB339 
 513      3898B22B 
 513      09B5D7A7 
 513      AE7688
 514 1424 A936775B 		.ascii	"\2516w[N/=l|\301\\\317\364+\031(<\255\336E\272\233J"
 514      4E2F3D6C 
 514      7CC15CCF 
 514      F42B1928 
 514      3CADDE45 
 515 143b 6D64769A 		.ascii	"mdv\232\006Q\252Z\305U\333\231\212\363\035Tl\245\025"
 515      0651AA5A 
 515      C555DB99 
 515      8AF31D54 
 515      6CA515
 516 144e 4FE0EF1D 		.ascii	"O\340\357\035\234E\037b_\361\004C\352\302\235X1\216"
ARM GAS  /tmp/ccRu2VOH.s 			page 41


 516      9C451F62 
 516      5FF10443 
 516      EAC29D58 
 516      318E
 517 1460 61DDE234 		.ascii	"a\335\3424-jz\3236~_P't\026q\207V\320j\031\224\252z"
 517      2D6A7AD3 
 517      367E5F50 
 517      27741671 
 517      8756D06A 
 518 1478 2DF67A63 		.ascii	"-\366zc+\217\346\326\215m\211\307ov\360\013\261u^\323"
 518      2B8FE6D6 
 518      8D6D89C7 
 518      6F76F00B 
 518      B1755ED3 
 519 148c 6F8B12D5 		.ascii	"o\213\022\325&.\264\363C&+Zv\275\225\025\251\365A\315"
 519      262EB4F3 
 519      43262B5A 
 519      76BD9515 
 519      A9F541CD 
 520 14a0 7E64719C 		.ascii	"~dq\234\227H\351E/\217\3754\375O\017\375$\323:\004f"
 520      9748E945 
 520      2F8FFD34 
 520      FD4F0FFD 
 520      24D33A04 
 521 14b5 AA99EC40 		.ascii	"\252\231\354@#G\223\321\362\332\011\235\335\224;!Ek"
 521      234793D1 
 521      F2DA099D 
 521      DD943B21 
 521      456B
 522 14c7 1AA3D3DB 		.ascii	"\032\243\323\333\212\254\345,y\361U=\033\217wr \261"
 522      8AACE52C 
 522      79F1553D 
 522      1B8F7772 
 522      20B1
 523 14d9 D9292566 		.ascii	"\331)%f\356\307\351\372\275\325\017nK\302\373\326\022"
 523      EEC7E9FA 
 523      BDD50F6E 
 523      4BC2FBD6 
 523      12
 524 14ea 5E6896F0 		.ascii	"^h\226\360,.\011\267\222j[\361h\310\263i\252\261v\317"
 524      2C2E09B7 
 524      926A5BF1 
 524      68C8B369 
 524      AAB176CF 
 525 14fe F6D08348 		.ascii	"\366\320\203H\320,[\315\260=\364P\262\207B0\352\240"
 525      D02C5BCD 
 525      B03DF450 
 525      B2874230 
 525      EAA0
 526 1510 C1A9DB93 		.ascii	"\301\251\333\223\015\036\341i\320\316\024\354\232\323"
 526      0D1EE169 
 526      D0CE14EC 
 526      9AD3
 527 151e 34B8D0B2 		.ascii	"4\270\320\262\367\324mw\336{\336Hi\013f\335[\353\372"
 527      F7D46D77 
 527      DE7BDE48 
 527      690B66DD 
ARM GAS  /tmp/ccRu2VOH.s 			page 42


 527      5BEBFA
 528 1531 98B5AE1B 		.ascii	"\230\265\256\033\314\272~\235K\327\027IojDW\365\262"
 528      CCBA7E9D 
 528      4BD71749 
 528      6F6A4457 
 528      F5B2
 529 1543 B95A0A9D 		.ascii	"\271Z\012\235\255L\350Z\026\227\362\324\263\023\275"
 529      AD4CE85A 
 529      1697F2D4 
 529      B313BD
 530 1552 1D959AC0 		.ascii	"\035\225\232\300\376n\024\375_DW\275\233\366\305\272"
 530      FE6E14FD 
 530      5F4457BD 
 530      9BF6C5BA 
 531 1562 969FBEDF 		.ascii	"\226\237\276\337\354\231\255n\261<\252\222b\251e\265"
 531      EC99AD6E 
 531      B13CAA92 
 531      62A965B5 
 532 1572 5907AB58 		.ascii	"Y\007\253X\035h\347i\264k\336\003v\315\027\367\335\264"
 532      1D68E769 
 532      B46BDE03 
 532      76CD17F7 
 532      DDB4
 533 1584 063736D6 		.ascii	"\00676\326x\311L\370\365\033\034\036\260\3236\032V~"
 533      78C94CF8 
 533      F51B1C1E 
 533      B0D3361A 
 533      567E
 534 1596 473624D7 		.ascii	"G6$\327!\306\012\023\206,\0162\255Q\0142\375\306@\374"
 534      21C60A13 
 534      862C0E32 
 534      AD510C32 
 534      FDC640FC 
 535 15aa 8AA4D665 		.ascii	"\212\244\326e\342}I\330u\203q7\220\251\367\340-6_\014"
 535      E27D49D8 
 535      75837137 
 535      90A9F7E0 
 535      2D365F0C 
 536 15be 4A863C1B 		.ascii	"J\206<\033\275\267\267}\322d\211\237\230(\324\037\212"
 536      BDB7B77D 
 536      D264899F 
 536      9828D41F 
 536      8A
 537 15cf B551DAAC 		.ascii	"\265Q\332\254\204\322\342K\366\3351\353\035\365\031"
 537      84D2E24B 
 537      F6DD31EB 
 537      1DF519
 538 15de 3C08693E 		.ascii	"<\010i>\006\231\342\200\321\373f\255\035r\347\230\351"
 538      0699E280 
 538      D1FB66AD 
 538      1D72E798 
 538      E9
 539 15ef 396E43CF 		.ascii	"9nC\317V\013W^\027;4\371\305\033\325\305\343b\361\370"
 539      560B575E 
 539      173B34F9 
 539      C51BD5C5 
 539      E362F1F8 
ARM GAS  /tmp/ccRu2VOH.s 			page 43


 540 1603 FD66EB21 		.ascii	"\375f\353!\033wv\204l\347 \344k\033B>\264$$>\371\371"
 540      1B777684 
 540      6CE720E4 
 540      6B1B423E 
 540      B424243E 
 541 1619 04219451 		.ascii	"\004!\224QI\370\301\006a\227%\302\341\235\317\333\261"
 541      49F8C106 
 541      619725C2 
 541      E19DCFDB 
 541      B1
 542 162a 92CA1BED 		.ascii	"\222\312\033\355\266b%q\261\310c\364F\351~+\275=?,."
 542      B6622571 
 542      B1C863F4 
 542      46E97E2B 
 542      BD3D3F2C 
 543 163f 09E37A58 		.ascii	"\011\343zX3\372\211%\243W-D5\327\006\341\220\021\341"
 543      33FA8925 
 543      A3572D44 
 543      35D706E1 
 543      9011E1
 544 1652 566131B1 		.ascii	"Va1\261\277U/\237\377\363\337\307\021\373S\177\212\213"
 544      BF552F9F 
 544      FFF3DFC7 
 544      11FB537F 
 544      8A8B
 545 1664 7197FE8F 		.ascii	"q\227\376\217\232\316'P4i\231\376\011\023A<\234D$h\352"
 545      9ACE2750 
 545      346999FE 
 545      0913413C 
 545      9C442468 
 546 1679 3E088417 		.ascii	">\010\204\027\377\016O\313\251?\307\343\242H-\007\306"
 546      FF0E4FCB 
 546      A93FC7E3 
 546      A2482D07 
 546      C6
 547 168a 130CFA18 		.ascii	"\023\014\372\030\2606\242'O\220\317p\255\216`\212\331"
 547      B036A227 
 547      4F90CF70 
 547      AD8E608A 
 547      D9
 548 169b F93BC667 		.ascii	"\371;\306gF%\346\012\317\261\221\377 \373\227/\217y"
 548      4625E60A 
 548      CFB191FF 
 548      20FB972F 
 548      8F79
 549 16ad 7305D3C7 		.ascii	"s\005\323\307\356\321f\257\365\341x\352\356\354j\035"
 549      EED166AF 
 549      F5E178EA 
 549      EEEC6A1D 
 550 16bd B7AD455C 		.ascii	"\267\255E\\\260]\255\026\233Z\374\0229a6k\302)\327\357"
 550      B05DAD16 
 550      9B5AFC12 
 550      3961366B 
 550      C229D7EF 
 551 16d1 D97F6E4B 		.ascii	"\331\177nK1\231K\333\325\372\322\266\0269\273mW\353"
 551      31994BDB 
 551      D5FAD2B6 
ARM GAS  /tmp/ccRu2VOH.s 			page 44


 551      1639BB6D 
 551      57EB
 552 16e3 A46DADF7 		.ascii	"\244m\255\367SH\347+\333Z\273S\324\372\332\266\326\366"
 552      5348E72B 
 552      DB5ABB53 
 552      D4FADAB6 
 552      D6F6
 553 16f5 14B54ED9 		.ascii	"\024\265N\331\326J\345\037O\333\326\232\235\242\255"
 553      D64AE51F 
 553      4FDBD69A 
 553      9DA2AD
 554 1704 6F92B584 		.ascii	"o\222\265\204\337\347\215\012W\004\363\002\341\322\247"
 554      DFE78D0A 
 554      5704F302 
 554      E1D2A7
 555 1713 F34A8363 		.ascii	"\363J\203c\362\002\243B#B\341h\236\022\251\256|2\017"
 555      F202A342 
 555      2342E168 
 555      9E12A9AE 
 555      7C320F
 556 1726 0AA3E4F2 		.ascii	"\012\243\344\362\274Pe\240\274\2724\230\027\015FBr\371"
 556      BC5065A0 
 556      BCBA3498 
 556      170D4642 
 556      72F9
 557 1738 5DA384DC 		.ascii	"]\243\204\334b,\025FBc\202\021\357\203\017=\352+\020"
 557      622C1546 
 557      42638211 
 557      EF830F3D 
 557      EA2B10
 558 174b 3AB1F71E 		.ascii	":\261\367\036\033V\222\237W\035\215\344\225\207F\344"
 558      1B56929F 
 558      571D8DE4 
 558      958746E4 
 559 175b 8D0C04F2 		.ascii	"\215\014\004\362\344H\305\235\225\341\312\340\235Ay"
 559      E448C59D 
 559      95E1CAE0 
 559      9D4179
 560 176a 4428AFEF 		.ascii	"D(\257\357]\375\356\352\233\204UJK\203e\000\353\215"
 560      5DFDEEEA 
 560      9B84554A 
 560      4B836500 
 560      EB8D
 561 177c 86FE37E8 		.ascii	"\206\3767\350Wn\303\232\306\032\314\263\241J\005\236"
 561      576EC39A 
 561      C61ACCB3 
 561      A14A059E 
 562 178c CDA886BF 		.ascii	"\315\250\206\277\375\374J\337\024\017W\310\300Ne0\317"
 562      FDFC4ADF 
 562      140F57C8 
 562      C04E6530 
 562      CF
 563 179d 0FF07275 		.ascii	"\017\360ru\271\342W\236\256\012F\241r\226\337\257U\367"
 563      B9E2579E 
 563      AE0A46A1 
 563      7296DFAF 
 563      55F7
ARM GAS  /tmp/ccRu2VOH.s 			page 45


 564 17af 3C150929 		.ascii	"<\025\011)Aw$(\227\016N'\212\210\222W\025\216(\321\274"
 564      41772428 
 564      970E4E27 
 564      8A889257 
 564      158E28D1 
 565 17c4 FE45C30A 		.ascii	"\376E\303\012\206\325\300\223\025U\241\362"
 565      86D5C093 
 565      1555A1F2 
 566 17d0 60249AF7 		.ascii	"`$\232\367`A\001<\256\243{*\242#\375J\0064\320'\337"
 566      6041013C 
 566      AEA37B2A 
 566      A223FD4A 
 566      0634D027 
 567 17e5 AF405B5A 		.ascii	"\257@[Z\311UU\255\270F\006\225~\034\015\351,\004FE\237"
 567      C95555AD 
 567      B8460695 
 567      7E1C0DE9 
 567      2C044645 
 568 17fa 8E26C826 		.ascii	"\216&\310&\345P\005\210(\263Z\303\314\246\234\220\242"
 568      E5500588 
 568      28B35AC3 
 568      CCA69C90 
 568      A2
 569 180b 1BE01537 		.ascii	"\033\340\0257\340+^dJ\361\020\256\024\327\230\012\345"
 569      E02B5E64 
 569      4AF110AE 
 569      14D7980A 
 569      E5
 570 181c 6E472D06 		.ascii	"nG-\006\307\004+\025\322^G,\371\243\341\352H\000\032"
 570      C7042B15 
 570      D25E472C 
 570      F9A3E1EA 
 570      48001A
 571 182f CD652F3B 		.ascii	"\315e/;\323\213\362PT\011V\006#~\245\243\361FF\260\334"
 571      D38BF250 
 571      54095606 
 571      237EA5A3 
 571      F14646B0 
 572 1844 5F19AC51 		.ascii	"_\031\254Q2\225Q\204\014\220C`\224\237\226\373:\343"
 572      32955184 
 572      0C904360 
 572      949F96FB 
 572      3AE3
 573 1856 3F30AA94 		.ascii	"?0\252\224\330F\025\302\301\237\252HpL\206R\025\011"
 573      D84615C2 
 573      C19FAA48 
 573      704C8652 
 573      1509
 574 1868 85FDF432 		.ascii	"\205\375\3642\024\316\010\204+\025\370\366^\307*\034"
 574      14CE0884 
 574      2B15F8F6 
 574      5EC72A1C 
 575 1878 15084782 		.ascii	"\025\010G\202\000\237Cn\023E\005\224\232\377h\037\212"
 575      009F436E 
 575      13450594 
 575      9AFF681F 
 575      8A
ARM GAS  /tmp/ccRu2VOH.s 			page 46


 576 1889 7FCC3D15 		.ascii	"\177\314=\025\200\224\031\011\216\004s\004uG{\337\015"
 576      80941909 
 576      8E047304 
 576      75477BDF 
 576      0D
 577 189a E91E48FD 		.ascii	"\351\036H\375 \335\353\212\346\367\202\324\033R>\244"
 577      20DDEB8A 
 577      E6F782D4 
 577      1B523EA4 
 578 18aa 3E90FA42 		.ascii	">\220\372B\372=$x.\037\236\313\207\347\362\341\271>"
 578      FA3D2478 
 578      2E1F9ECB 
 578      87E7F2E1 
 578      B93E
 579 18bc F05C9FDE 		.ascii	"\360\\\237\336R\244\257\024\371\275\024\271[\212\334"
 579      52A4AF14 
 579      F9BD14B9 
 579      5B8ADC
 580 18cb 2345FA49 		.ascii	"#E\372I\221{]\221\336\275 \365\226\312#\360\247\217"
 580      917B5D91 
 580      DEBD20F5 
 580      96CA23F0 
 580      A78F
 581 18dd A7CA0FD4 		.ascii	"\247\312\017\324f\020\301<\005\002\257\362\207\313K"
 581      6610C13C 
 581      0502AFF2 
 581      87CB4B
 582 18ec 83117760 		.ascii	"\203\021w`\224\034!\322\222+\202\231JT\221\025P\035"
 582      941C21D2 
 582      922B8299 
 582      4A549115 
 582      501D
 583 18fe 7C89A50C 		.ascii	"|\211\245\014\245\"\\J\257\313\312\345\221\321\014%"
 583      A5225C4A 
 583      AFCBCAE5 
 583      91D10C25 
 584 190e 122C8BA2 		.ascii	"\022,\213\242\034I\301\033)}\032\21473X\023R\200\375"
 584      1C49C11B 
 584      297D1A8C 
 584      37335813 
 584      5280FD
 585 1921 A0F72925 		.ascii	"\240\367)%<\342\257U9\250\332\0129\372$<\031|\212\024"
 585      3CE2AF55 
 585      39A8DA0A 
 585      39FA243C 
 585      197C8A14 
 586 1935 5C55FEEA 		.ascii	"\\U\376\352\216T\235Q\324\271_\351\224P0\275\223U\345"
 586      8E549D51 
 586      D4B95FE9 
 586      945030BD 
 586      9355E5
 587 1948 7F4A0E29 		.ascii	"\177J\016)\241\312\221\235\364\333\243\253\203\325\320"
 587      A1CA919D 
 587      F4DBA3AB 
 587      83D5D0
 588 1957 7A67E649 		.ascii	"zg\346I\274\225]\345\207f\261\350\301\"\334\010V\005"
 588      BC955DE5 
ARM GAS  /tmp/ccRu2VOH.s 			page 47


 588      8766B1E8 
 588      C122DC08 
 588      5605
 589 1969 2BA1AF8F 		.ascii	"+\241\257\217\364TT\203j\3738\262\231\012\245\206\270"
 589      F4545483 
 589      6AFB38B2 
 589      990AA586 
 589      B8
 590 197a 880A8A0E 		.ascii	"\210\012\212\016\177\303O\021\223D$`\241\002M\011\350"
 590      7FC34F11 
 590      93442460 
 590      A1024D09 
 590      E8
 591 198b 83E708A5 		.ascii	"\203\347\010\245\331\204{\271\034-\011nV\205\303\345"
 591      D9847BB9 
 591      1C2D096E 
 591      5685C3E5 
 592 199b 3960BEBA 		.ascii	"9`\276\272)gA\231\366\011\332\003Pr\320\007\3416\026"
 592      29674199 
 592      F609DA03 
 592      5072D007 
 592      E13616
 593 19ae C9F74F51 		.ascii	"\311\367OQq\006\243\010\355\301\347\262\242\245\232"
 593      7106A308 
 593      EDC1E7B2 
 593      A2A59A
 594 19bd F8B38A0B 		.ascii	"\370\263\212\013\375\217>4\344\241!%\031P*.y\370\221"
 594      FD8F3E34 
 594      E4A12125 
 594      19502A2E 
 594      79F891
 595 19d0 4CF85B34 		.ascii	"L\370[4\260\177\341\343\036|\304Y\007E\256H\007\355"
 595      B07FE1E3 
 595      1E7CC459 
 595      0745AE48 
 595      07ED
 596 19e2 10AA844E 		.ascii	"\020\252\204N\257\2135\033z\204V\314\324\213Y\243u%"
 596      AF8B351B 
 596      7A8456CC 
 596      D48B59A3 
 596      7525
 597 19f4 402910AE 		.ascii	"@)\020\256\206n\022\311\034\355\037Q]V\026\214xF\373"
 597      866E12C9 
 597      1CED1F51 
 597      5D56168C 
 597      7846FB
 598 1a07 95705506 		.ascii	"\225pU\006<\022\251R\"\3607R\012\177\263FW\206\225P"
 598      3C12A952 
 598      22F03752 
 598      0A7FB346 
 598      57869550 
 599 1a1b D9D38032 		.ascii	"\331\323\2002\332O\213\336\321 \214\312'\275!\304\354"
 599      DA4F8BDE 
 599      D1208CCA 
 599      27BD21C4 
 599      EC
 600 1a2c 18AE5698 		.ascii	"\030\256V\230f\275a,H\241\021Rx\304\037\3221\002\322"
ARM GAS  /tmp/ccRu2VOH.s 			page 48


 600      66BD612C 
 600      48A11152 
 600      78C41FD2 
 600      3102D2
 601 1a3f C92B1856 		.ascii	"\311+\030V<\2448\257\270\004\274yE\237\374\262\276\275"
 601      3CA438AF 
 601      B804BC79 
 601      459FFCB2 
 601      BEBD
 602 1a51 7AD70408 		.ascii	"z\327\004\0107\217\026\367/*\361\227\200\267+\014\226"
 602      378F16F7 
 602      2F2AF197 
 602      80B72B0C 
 602      96
 603 1a62 49C54552 		.ascii	"I\305ERa\221k@Q\221\253\240\2507\244|H}\334\017\226"
 603      61916B40 
 603      5191ABA0 
 603      A837A47C 
 603      487DDC0F 
 604 1a77 3C52E4A9 		.ascii	"<R\344\251\216\312\021\305\343\037\000\212\352N\007"
 604      8ECA11C5 
 604      E31F008A 
 604      EA4E07
 605 1a86 9C685E28 		.ascii	"\234h^(?\340\217\006+\243\341\010@u\032\222_P\214\027"
 605      3FE08F06 
 605      2BA3E108 
 605      40751A92 
 605      5F508C17 
 606 1a9a D4EE3387 		.ascii	"\324\3563\207<\324\277\240d\310c\003\335C\012\207\016"
 606      3CD4BFA0 
 606      64C86303 
 606      DD430A87 
 606      0E
 607 1aab 740F78B4 		.ascii	"t\017x\264\370\361\264\0265F\006{\250\216\302\027`\030"
 607      F8F1B416 
 607      3546067B 
 607      A88EC217 
 607      6018
 608 1abd A07580BD 		.ascii	"\240u\200\275\307\231\347\202\316%W\020=u\033 G\203"
 608      C799E782 
 608      CE255710 
 608      3D751B20 
 608      4783
 609 1acf C5419053 		.ascii	"\305A\220S\245\002cd1~q\203\325M\03083\365\006]Pp\225"
 609      A5026364 
 609      317E7183 
 609      D54D1838 
 609      33F5065D 
 610 1ae6 5528562C 		.ascii	"U(V,\006\204\234$\213J\206\\Z\032\011F\243\205<\243"
 610      06849C24 
 610      8B4A865C 
 610      5A1A0946 
 610      A3853CA3 
 611 1afa 39755DC5 		.ascii	"9u]\305%\303\372\344\347\015\035Z\230\0078cz#vy9\361"
 611      25C3FAE4 
 611      E70D1D5A 
 611      98073863 
ARM GAS  /tmp/ccRu2VOH.s 			page 49


 611      7A237679 
 612 1b10 B4597083 		.ascii	"\264Yp\203\266\230\357$8\000\000\250\234\015\1774\243"
 612      B698EF24 
 612      380000A8 
 612      9C0D7F34 
 612      A3
 613 1b21 CF061CCD 		.ascii	"\317\006\034\315\3523I\221\230=\301\246v\337\201\224"
 613      EA334991 
 613      983DC1A6 
 613      76DF8194 
 614 1b31 A84EFC25 		.ascii	"\250N\374%\303\331\253\242\341Xs\350\303\005\177\036"
 614      C3D9ABA2 
 614      E15873E8 
 614      C3057F1E 
 615 1b41 58980378 		.ascii	"X\230\003x\341*\352\264\262\037~d\330\303\205\003\375"
 615      E12AEAB4 
 615      B21F7E64 
 615      D8C38503 
 615      FD
 616 1b52 F0ED755A 		.ascii	"\360\355uZ\261x\030\250\322_8\360\261!\005\003\273\030"
 616      B17818A8 
 616      D25F38F0 
 616      B1210503 
 616      BB18
 617 1b64 EE0D7EB8 		.ascii	"\356\015~\270\270$#\014\275\031\252\346\004\312\303"
 617      B824230C 
 617      BD19AAE6 
 617      04CAC3
 618 1b73 8127FDD1 		.ascii	"\201'\375\321\252`\260\264#\000\226V+O\007\236\016\224"
 618      AA60B0B4 
 618      23009656 
 618      2B4F079E 
 618      0E94
 619 1b85 0366C7E2 		.ascii	"\003f\307\342\222B\177\341\243%\217\373\013\036/\030"
 619      92427FE1 
 619      A3258FFB 
 619      0B1E2F18 
 620 1b95 3AB0CBA0 		.ascii	":\260\313\240\376\305%\314\265?\277\233\371N\357\273"
 620      FEC525CC 
 620      B53FBF9B 
 620      F94EEFBB 
 621 1ba5 FDF76613 		.ascii	"\375\367f\023\004?B\020\216\012\302\225e\241\221\336"
 621      043F4210 
 621      8E0AC295 
 621      65A191DE 
 622 1bb5 00FE2112 		.ascii	"\000\376!\022\320<\2047\030\211\204#QgV\2439F\220eW"
 622      D03C8437 
 622      18898423 
 622      516756A3 
 622      39469065 
 623 1bca 6DE804CF 		.ascii	"m\350\004\317\034\214\004+\311\020\354\245\267\262\240"
 623      1C8C042B 
 623      C910ECA5 
 623      B7B2A0
 624 1bd9 0DA2722D 		.ascii	"\015\242r-\020\000\222\364@\200\024\335\344\253\254"
 624      100092F4 
 624      408014DD 
ARM GAS  /tmp/ccRu2VOH.s 			page 50


 624      E4ABAC
 625 1be8 484D6985 		.ascii	"HMi\205L\270\317R\364\322 \247\346\201\371\240\2765"
 625      4CB8CF52 
 625      F4D220A7 
 625      E681F9A0 
 625      BE35
 626 1bfa 35B4A7FA 		.ascii	"5\264\247\372\001\207\320U8\254\277\237\232k\242\263"
 626      0187D055 
 626      38ACBF9F 
 626      9A6BA2B3 
 627 1c0a 1614B91F 		.ascii	"\026\024\271\037*,)r=\322\277\310=\254\027\311z\367"
 627      2A2C2972 
 627      3DD2BFC8 
 627      3DAC17C9 
 627      7AF7
 628 1c1c 2F720D2A 		.ascii	"/r\015*(\362\322^\340\016\225\005\"\336PtT\250\014\374"
 628      28F2D25E 
 628      E00E9505 
 628      22DE5074 
 628      54A80CFC 
 629 1c30 62B0BC2C 		.ascii	"b\260\274,TY\032\254\361\216\011\006\224p\244k\002\335"
 629      54591AAC 
 629      F18E0906 
 629      9470A46B 
 629      02DD
 630 1c42 4F9F86B8 		.ascii	"O\237\206\270\014.\"5$Wj\210\245\353\015\271\037\356"
 630      0C2E2235 
 630      24576A88 
 630      A5EB0DB9 
 630      1FEE
 631 1c54 5FD49B64 		.ascii	"_\324\233d\371\256b\360\012\305\304+\024\024yJ\212\206"
 631      F9AE62F0 
 631      0AC5C42B 
 631      1414794A 
 631      8A86
 632 1c66 140F740F 		.ascii	"\024\017t\017\032\012\024\200h2H\220\004N\312M\306@"
 632      1A0A1480 
 632      68324890 
 632      044ECA4D 
 632      C640
 633 1c78 8F5233A0 		.ascii	"\217R3\240\272\314\023!y\307d\237\011U\206\024/\355"
 633      BACC1321 
 633      79C7649F 
 633      09558614 
 633      2FED
 634 1c8a 4CDE52B4 		.ascii	"L\336R\264\366\234\021\320\037\373\323\216\344RjF\270"
 634      F69C11D0 
 634      1FFBD38E 
 634      E4526A46 
 634      B8
 635 1c9b 223523B2 		.ascii	"\"5#\262\351\023\017\001NG\326\245\200\327$\031\334"
 635      E9130F01 
 635      4E47D6A5 
 635      80D72419 
 635      DC
 636 1cac EACA74C3 		.ascii	"\352\312t\303\210\\\031\225\003\012T\016@\345\300\365"
 636      885C1995 
ARM GAS  /tmp/ccRu2VOH.s 			page 51


 636      030A540E 
 636      40E5C0F5 
 637 1cbc 6DBF228E 		.ascii	"m\277\"\216\327Q`,GF\222\221l\214\214\243QG\277\177"
 637      D751602C 
 637      47469291 
 637      6C8C8CA3 
 637      5147BF7F 
 638 1cd0 646575C0 		.ascii	"deu\300\257]\346\374qDu\250\\\2713Ty\037\011i\265\273"
 638      AF5DE6FC 
 638      714475A8 
 638      5CB93354 
 638      791F0969 
 639 1ce6 10688DA1 		.ascii	"\020h\215\241\016$\003dQ\014d\346\302\337\007\203\312"
 639      0E240364 
 639      510C64E6 
 639      C2DF0783 
 639      CA
 640 1cf7 40B4C60E 		.ascii	"@\264\306\016pQ\024,\017\002\263\003\252\243=\340j\230"
 640      7051142C 
 640      0F02B303 
 640      AAA33DE0 
 640      6A98
 641 1d09 0CE35CA4 		.ascii	"\014\343\\\244\204\220X\021RJ\250\354\310c\375\003\243"
 641      84905811 
 641      524AA8EC 
 641      C863FD03 
 641      A3
 642 1d1a AB4311F2 		.ascii	"\253C\021\362\330\220\3668\026t\347\340Z\350\264A\363"
 642      D890F638 
 642      1674E7E0 
 642      5AE8B441 
 642      F3
 643 1d2b 2EAEE2C2 		.ascii	".\256\342\302\273\377\017.\301]y"
 643      BBFF0F2E 
 643      C15D79
 644              		.text
 645              		.section	.gnu.lto_.symtab.e04a592bdd93fef6,"",%progbits
 646 0000 49324353 		.ascii	"I2CSensor_init\000\000\000\000\000\000\000\000\000\000"
 646      656E736F 
 646      725F696E 
 646      69740000 
 646      00000000 
 647 0018 00004A02 		.ascii	"\000\000J\002\000\000I2CSensor_stop\000\000\000\000"
 647      00004932 
 647      4353656E 
 647      736F725F 
 647      73746F70 
 648 0030 00000000 		.ascii	"\000\000\000\000\000\000\000\000\017\003\000\000I2C"
 648      00000000 
 648      0F030000 
 648      493243
 649 003f 53656E73 		.ascii	"Sensor_transact\000\000\000\000\000\000\000\000\000"
 649      6F725F74 
 649      72616E73 
 649      61637400 
 649      00000000 
 650 0057 00000018 		.ascii	"\000\000\000\030\003\000\000I2CSensor_transact_buf\000"
ARM GAS  /tmp/ccRu2VOH.s 			page 52


 650      03000049 
 650      32435365 
 650      6E736F72 
 650      5F747261 
 651 0075 00000000 		.ascii	"\000\000\000\000\000\000\000\000\000\000\000(\003\000"
 651      00000000 
 651      00000028 
 651      0300
 652 0083 00534436 		.ascii	"\000SD6\000\000\002\000\000\000\000\000\000\000\000"
 652      00000200 
 652      00000000 
 652      000000
 653 0092 00580300 		.ascii	"\000X\003\000\000chvprintf\000\000\002\000\000\000\000"
 653      00636876 
 653      7072696E 
 653      74660000 
 653      02000000 
 654 00a7 00000000 		.ascii	"\000\000\000\000\0003\003\000\000i2cStop\000\000\002"
 654      00330300 
 654      00693263 
 654      53746F70 
 654      000002
 655 00ba 00000000 		.ascii	"\000\000\000\000\000\000\000\000\000B\003\000\000i2"
 655      00000000 
 655      00420300 
 655      006932
 656 00c9 63476574 		.ascii	"cGetErrors\000\000\002\000\000\000\000\000\000\000\000"
 656      4572726F 
 656      72730000 
 656      02000000 
 656      00000000 
 657 00de 00460300 		.ascii	"\000F\003\000\000i2cReleaseBus\000\000\002\000\000\000"
 657      00693263 
 657      52656C65 
 657      61736542 
 657      75730000 
 658 00f6 00000000 		.ascii	"\000\000\000\000\000\000J\003\000\000i2cMasterTrans"
 658      00004A03 
 658      00006932 
 658      634D6173 
 658      74657254 
 659 010e 6D697454 		.ascii	"mitTimeout\000\000\002\000\000\000\000\000\000\000\000"
 659      696D656F 
 659      75740000 
 659      02000000 
 659      00000000 
 660 0123 004C0300 		.ascii	"\000L\003\000\000i2cAcquireBus\000\000\002\000\000\000"
 660      00693263 
 660      41637175 
 660      69726542 
 660      75730000 
 661 013b 00000000 		.ascii	"\000\000\000\000\000\000V\003\000\000"
 661      00005603 
 661      0000
 662              		.text
 663              		.section	.gnu.lto_.opts,"",%progbits
 664 0000 272D6D63 		.ascii	"'-mcpu=cortex-m4' '-mfloat-abi=hard' '-mfpu=fpv4-sp"
ARM GAS  /tmp/ccRu2VOH.s 			page 53


 664      70753D63 
 664      6F727465 
 664      782D6D34 
 664      2720272D 
 665 0033 2D643136 		.ascii	"-d16' '-mno-thumb-interwork' '-mthumb' '-O2' '-fomi"
 665      2720272D 
 665      6D6E6F2D 
 665      7468756D 
 665      622D696E 
 666 0066 742D6672 		.ascii	"t-frame-pointer' '-falign-functions=16' '-ffunction"
 666      616D652D 
 666      706F696E 
 666      74657227 
 666      20272D66 
 667 0099 2D736563 		.ascii	"-sections' '-fdata-sections' '-fno-common' '-flto' "
 667      74696F6E 
 667      73272027 
 667      2D666461 
 667      74612D73 
 668 00cc 272D6673 		.ascii	"'-fsingle-precision-constant'\000"
 668      696E676C 
 668      652D7072 
 668      65636973 
 668      696F6E2D 
 669              		.text
 670              		.section	.text.chprintf.constprop.0,"ax",%progbits
 671              		.align	2
 672              		.p2align 4,,15
 673              		.thumb
 674              		.thumb_func
 675              		.type	chprintf.constprop.0, %function
 676              	chprintf.constprop.0:
 677              		@ args = 4, pretend = 12, frame = 8
 678              		@ frame_needed = 0, uses_anonymous_args = 1
 679 0000 0EB4     		push	{r1, r2, r3}
 680 0002 00B5     		push	{lr}
 681 0004 82B0     		sub	sp, sp, #8
 682 0006 03AA     		add	r2, sp, #12
 683 0008 0548     		ldr	r0, .L2
 684 000a 52F8041B 		ldr	r1, [r2], #4
 685 000e 0192     		str	r2, [sp, #4]
 686 0010 FFF7FEFF 		bl	chvprintf
 687 0014 02B0     		add	sp, sp, #8
 688              		@ sp needed
 689 0016 5DF804EB 		ldr	lr, [sp], #4
 690 001a 03B0     		add	sp, sp, #12
 691 001c 7047     		bx	lr
 692              	.L3:
 693 001e 00BF     		.align	2
 694              	.L2:
 695 0020 00000000 		.word	SD6
 696              		.size	chprintf.constprop.0, .-chprintf.constprop.0
 697 0024 AFF30080 		.section	.text.I2CSensor_init,"ax",%progbits
 697      AFF30080 
 697      AFF30080 
 698              		.align	2
 699              		.p2align 4,,15
ARM GAS  /tmp/ccRu2VOH.s 			page 54


 700              		.global	I2CSensor_init
 701              		.thumb
 702              		.thumb_func
 703              		.type	I2CSensor_init, %function
 704              	I2CSensor_init:
 705              		@ args = 12, pretend = 0, frame = 0
 706              		@ frame_needed = 0, uses_anonymous_args = 0
 707              		@ link register save eliminated.
 708 0000 F0B4     		push	{r4, r5, r6, r7}
 709 0002 059F     		ldr	r7, [sp, #20]
 710 0004 4160     		str	r1, [r0, #4]
 711 0006 049E     		ldr	r6, [sp, #16]
 712 0008 069D     		ldr	r5, [sp, #24]
 713 000a 4270     		strb	r2, [r0, #1]
 714 000c 0121     		movs	r1, #1
 715 000e 0024     		movs	r4, #0
 716 0010 8361     		str	r3, [r0, #24]
 717 0012 8760     		str	r7, [r0, #8]
 718 0014 0170     		strb	r1, [r0]
 719 0016 C661     		str	r6, [r0, #28]
 720 0018 0473     		strb	r4, [r0, #12]
 721 001a 2978     		ldrb	r1, [r5]	@ zero_extendqisi2
 722 001c B1B1     		cbz	r1, .L8
 723 001e 2346     		mov	r3, r4
 724 0020 0446     		mov	r4, r0
 725              	.L7:
 726 0022 2173     		strb	r1, [r4, #12]
 727 0024 15F8011F 		ldrb	r1, [r5, #1]!	@ zero_extendqisi2
 728 0028 0133     		adds	r3, r3, #1
 729 002a 0134     		adds	r4, r4, #1
 730 002c DAB2     		uxtb	r2, r3
 731 002e 59B1     		cbz	r1, .L12
 732 0030 0A2B     		cmp	r3, #10
 733 0032 F6D1     		bne	.L7
 734              	.L5:
 735 0034 0344     		add	r3, r3, r0
 736 0036 0021     		movs	r1, #0
 737 0038 1973     		strb	r1, [r3, #12]
 738 003a 00F10C02 		add	r2, r0, #12
 739 003e 0449     		ldr	r1, .L13
 740 0040 0448     		ldr	r0, .L13+4
 741 0042 F0BC     		pop	{r4, r5, r6, r7}
 742 0044 FFF7FEBF 		b	chprintf.constprop.0
 743              	.L12:
 744 0048 1346     		mov	r3, r2
 745 004a F3E7     		b	.L5
 746              	.L8:
 747 004c 0B46     		mov	r3, r1
 748 004e F1E7     		b	.L5
 749              	.L14:
 750              		.align	2
 751              	.L13:
 752 0050 00000000 		.word	.LC0
 753 0054 00000000 		.word	SD6
 754              		.size	I2CSensor_init, .-I2CSensor_init
 755 0058 AFF30080 		.section	.text.I2CSensor_stop,"ax",%progbits
 755      AFF30080 
ARM GAS  /tmp/ccRu2VOH.s 			page 55


 756              		.align	2
 757              		.p2align 4,,15
 758              		.global	I2CSensor_stop
 759              		.thumb
 760              		.thumb_func
 761              		.type	I2CSensor_stop, %function
 762              	I2CSensor_stop:
 763              		@ args = 0, pretend = 0, frame = 0
 764              		@ frame_needed = 0, uses_anonymous_args = 0
 765 0000 0246     		mov	r2, r0
 766 0002 38B5     		push	{r3, r4, r5, lr}
 767 0004 0023     		movs	r3, #0
 768 0006 0D46     		mov	r5, r1
 769 0008 0446     		mov	r4, r0
 770 000a 02F80C3B 		strb	r3, [r2], #12
 771 000e 0548     		ldr	r0, .L20
 772 0010 0549     		ldr	r1, .L20+4
 773 0012 FFF7FEFF 		bl	chprintf.constprop.0
 774 0016 15B1     		cbz	r5, .L16
 775 0018 6068     		ldr	r0, [r4, #4]
 776 001a FFF7FEFF 		bl	i2cStop
 777              	.L16:
 778 001e 0020     		movs	r0, #0
 779 0020 38BD     		pop	{r3, r4, r5, pc}
 780              	.L21:
 781 0022 00BF     		.align	2
 782              	.L20:
 783 0024 00000000 		.word	SD6
 784 0028 18000000 		.word	.LC1
 785              		.size	I2CSensor_stop, .-I2CSensor_stop
 786 002c AFF30080 		.section	.text.I2CSensor_transact,"ax",%progbits
 787              		.align	2
 788              		.p2align 4,,15
 789              		.global	I2CSensor_transact
 790              		.thumb
 791              		.thumb_func
 792              		.type	I2CSensor_transact, %function
 793              	I2CSensor_transact:
 794              		@ args = 4, pretend = 0, frame = 0
 795              		@ frame_needed = 0, uses_anonymous_args = 0
 796 0000 2DE9F041 		push	{r4, r5, r6, r7, r8, lr}
 797 0004 0446     		mov	r4, r0
 798 0006 84B0     		sub	sp, sp, #16
 799 0008 0078     		ldrb	r0, [r0]	@ zero_extendqisi2
 800 000a 9DF82850 		ldrb	r5, [sp, #40]	@ zero_extendqisi2
 801 000e 8846     		mov	r8, r1
 802 0010 1646     		mov	r6, r2
 803 0012 1F46     		mov	r7, r3
 804 0014 0028     		cmp	r0, #0
 805 0016 2BD0     		beq	.L23
 806 0018 6068     		ldr	r0, [r4, #4]
 807 001a FFF7FEFF 		bl	i2cAcquireBus
 808 001e A368     		ldr	r3, [r4, #8]
 809 0020 6068     		ldr	r0, [r4, #4]
 810 0022 6178     		ldrb	r1, [r4, #1]	@ zero_extendqisi2
 811 0024 0293     		str	r3, [sp, #8]
 812 0026 0195     		str	r5, [sp, #4]
ARM GAS  /tmp/ccRu2VOH.s 			page 56


 813 0028 0097     		str	r7, [sp]
 814 002a 4246     		mov	r2, r8
 815 002c 3346     		mov	r3, r6
 816 002e FFF7FEFF 		bl	i2cMasterTransmitTimeout
 817 0032 0546     		mov	r5, r0
 818 0034 6068     		ldr	r0, [r4, #4]
 819 0036 FFF7FEFF 		bl	i2cReleaseBus
 820 003a 4DB9     		cbnz	r5, .L26
 821 003c 04F10C02 		add	r2, r4, #12
 822 0040 1048     		ldr	r0, .L27
 823 0042 1149     		ldr	r1, .L27+4
 824 0044 FFF7FEFF 		bl	chprintf.constprop.0
 825 0048 2846     		mov	r0, r5
 826              	.L25:
 827 004a 04B0     		add	sp, sp, #16
 828              		@ sp needed
 829 004c BDE8F081 		pop	{r4, r5, r6, r7, r8, pc}
 830              	.L26:
 831 0050 6068     		ldr	r0, [r4, #4]
 832 0052 FFF7FEFF 		bl	i2cGetErrors
 833 0056 0D4A     		ldr	r2, .L27+8
 834 0058 0D49     		ldr	r1, .L27+12
 835 005a 0346     		mov	r3, r0
 836 005c 1360     		str	r3, [r2]
 837 005e 0948     		ldr	r0, .L27
 838 0060 04F10C02 		add	r2, r4, #12
 839 0064 FFF7FEFF 		bl	chprintf.constprop.0
 840 0068 2846     		mov	r0, r5
 841 006a 04B0     		add	sp, sp, #16
 842              		@ sp needed
 843 006c BDE8F081 		pop	{r4, r5, r6, r7, r8, pc}
 844              	.L23:
 845 0070 04F10C02 		add	r2, r4, #12
 846 0074 0348     		ldr	r0, .L27
 847 0076 0749     		ldr	r1, .L27+16
 848 0078 FFF7FEFF 		bl	chprintf.constprop.0
 849 007c 6FF06200 		mvn	r0, #98
 850 0080 E3E7     		b	.L25
 851              	.L28:
 852 0082 00BF     		.align	2
 853              	.L27:
 854 0084 00000000 		.word	SD6
 855 0088 40000000 		.word	.LC3
 856 008c 00000000 		.word	.LANCHOR0
 857 0090 2C000000 		.word	.LC2
 858 0094 54000000 		.word	.LC4
 859              		.size	I2CSensor_transact, .-I2CSensor_transact
 860 0098 AFF30080 		.section	.text.I2CSensor_transact_buf,"ax",%progbits
 860      AFF30080 
 861              		.align	2
 862              		.p2align 4,,15
 863              		.global	I2CSensor_transact_buf
 864              		.thumb
 865              		.thumb_func
 866              		.type	I2CSensor_transact_buf, %function
 867              	I2CSensor_transact_buf:
 868              		@ args = 0, pretend = 0, frame = 0
ARM GAS  /tmp/ccRu2VOH.s 			page 57


 869              		@ frame_needed = 0, uses_anonymous_args = 0
 870 0000 10B5     		push	{r4, lr}
 871 0002 82B0     		sub	sp, sp, #8
 872 0004 0C46     		mov	r4, r1
 873 0006 C369     		ldr	r3, [r0, #28]
 874 0008 8169     		ldr	r1, [r0, #24]
 875 000a 0092     		str	r2, [sp]
 876 000c 2246     		mov	r2, r4
 877 000e FFF7FEFF 		bl	I2CSensor_transact
 878 0012 02B0     		add	sp, sp, #8
 879              		@ sp needed
 880 0014 10BD     		pop	{r4, pc}
 881              		.size	I2CSensor_transact_buf, .-I2CSensor_transact_buf
 882 0016 00BFAFF3 		.section	.bss.errors,"aw",%nobits
 882      0080AFF3 
 882      0080
 883              		.align	2
 884              		.set	.LANCHOR0,. + 0
 885              		.type	errors, %object
 886              		.size	errors, 4
 887              	errors:
 888 0000 00000000 		.space	4
 889              		.section	.rodata.str1.4,"aMS",%progbits,1
 890              		.align	2
 891              	.LC0:
 892 0000 53746172 		.ascii	"Starting sensor %s...\012\000"
 892      74696E67 
 892      2073656E 
 892      736F7220 
 892      25732E2E 
 893 0017 00       		.space	1
 894              	.LC1:
 895 0018 53746F70 		.ascii	"Stopping sensor %s\012\000"
 895      70696E67 
 895      2073656E 
 895      736F7220 
 895      25730A00 
 896              	.LC2:
 897 002c 4932433A 		.ascii	"I2C:%s TRXERR(%d)\012\000"
 897      25732054 
 897      52584552 
 897      52282564 
 897      290A00
 898 003f 00       		.space	1
 899              	.LC3:
 900 0040 4932433A 		.ascii	"I2C:%s TRX SUCCESS\012\000"
 900      25732054 
 900      52582053 
 900      55434345 
 900      53530A00 
 901              	.LC4:
 902 0054 4932433A 		.ascii	"I2C:%s INACTIVE\012\000"
 902      25732049 
 902      4E414354 
 902      4956450A 
 902      00
 903              		.comm	__gnu_lto_v1,1,1
ARM GAS  /tmp/ccRu2VOH.s 			page 58


 904 0065 000000   		.ident	"GCC: (GNU Tools for ARM Embedded Processors) 4.8.4 20140526 (release) [ARM/embedded-4_8-br
ARM GAS  /tmp/ccRu2VOH.s 			page 59


DEFINED SYMBOLS
                            *ABS*:0000000000000000 i2c_sensor.c
     /tmp/ccRu2VOH.s:671    .text.chprintf.constprop.0:0000000000000000 $t
     /tmp/ccRu2VOH.s:676    .text.chprintf.constprop.0:0000000000000000 chprintf.constprop.0
     /tmp/ccRu2VOH.s:695    .text.chprintf.constprop.0:0000000000000020 $d
     /tmp/ccRu2VOH.s:698    .text.I2CSensor_init:0000000000000000 $t
     /tmp/ccRu2VOH.s:704    .text.I2CSensor_init:0000000000000000 I2CSensor_init
     /tmp/ccRu2VOH.s:752    .text.I2CSensor_init:0000000000000050 $d
     /tmp/ccRu2VOH.s:756    .text.I2CSensor_stop:0000000000000000 $t
     /tmp/ccRu2VOH.s:762    .text.I2CSensor_stop:0000000000000000 I2CSensor_stop
     /tmp/ccRu2VOH.s:783    .text.I2CSensor_stop:0000000000000024 $d
     /tmp/ccRu2VOH.s:787    .text.I2CSensor_transact:0000000000000000 $t
     /tmp/ccRu2VOH.s:793    .text.I2CSensor_transact:0000000000000000 I2CSensor_transact
     /tmp/ccRu2VOH.s:854    .text.I2CSensor_transact:0000000000000084 $d
     /tmp/ccRu2VOH.s:861    .text.I2CSensor_transact_buf:0000000000000000 $t
     /tmp/ccRu2VOH.s:867    .text.I2CSensor_transact_buf:0000000000000000 I2CSensor_transact_buf
     /tmp/ccRu2VOH.s:883    .bss.errors:0000000000000000 $d
     /tmp/ccRu2VOH.s:887    .bss.errors:0000000000000000 errors
     /tmp/ccRu2VOH.s:890    .rodata.str1.4:0000000000000000 $d
                            *COM*:0000000000000001 __gnu_lto_v1
     /tmp/ccRu2VOH.s:697    .text.chprintf.constprop.0:0000000000000024 $t
     /tmp/ccRu2VOH.s:755    .text.I2CSensor_init:0000000000000058 $t
     /tmp/ccRu2VOH.s:786    .text.I2CSensor_stop:000000000000002c $t
     /tmp/ccRu2VOH.s:860    .text.I2CSensor_transact:0000000000000098 $t

UNDEFINED SYMBOLS
chvprintf
SD6
i2cStop
i2cAcquireBus
i2cMasterTransmitTimeout
i2cReleaseBus
i2cGetErrors
