ARM GAS  /tmp/cc7MSwG5.s 			page 1


   1              		.syntax unified
   2              		.cpu cortex-m4
   3              		.eabi_attribute 27, 3
   4              		.eabi_attribute 28, 1
   5              		.fpu fpv4-sp-d16
   6              		.eabi_attribute 20, 1
   7              		.eabi_attribute 21, 1
   8              		.eabi_attribute 23, 3
   9              		.eabi_attribute 24, 1
  10              		.eabi_attribute 25, 1
  11              		.eabi_attribute 26, 1
  12              		.eabi_attribute 30, 2
  13              		.eabi_attribute 34, 1
  14              		.eabi_attribute 18, 4
  15              		.thumb
  16              		.file	"i2c_sensor.c"
  17              		.section	.gnu.lto_.jmpfuncs.1ae193ab3895ea03,"",%progbits
  18 0000 789C6362 		.ascii	"x\234cb`b\300\006\214\031\031\030\202\2014\033\0033"
  18      6062C006 
  18      8C191918 
  18      8281341B 
  18      0333
  19 0012 90C5CC0C 		.ascii	"\220\305\314\014d\226\001i\006\006\3062\2204P\023S\004"
  19      64960169 
  19      0606C632 
  19      90345013 
  19      5304
  20 0024 63262388 		.ascii	"c&#\210\315\310\310\314T\315\360\253\241\243A \223\221"
  20      CDC8C8CC 
  20      54CDF0AB 
  20      A1A34120 
  20      9391
  21 0036 31172CC6 		.ascii	"1\027,\306\000\026\231\001\022a\222c`\234\3330\303!"
  21      00169901 
  21      12619263 
  21      609CDB30 
  21      C321
  22 0048 9391196A 		.ascii	"\223\221\031j6s=^\015,r\014\302\020\015\254P\015,`7"
  22      36733D5E 
  22      0D2C720C 
  22      C2100DAC 
  22      500D2C60 
  23 005d E0D3C326 		.ascii	"\340\323\303&\307\240\015\321\303\016\325\303*\017\266"
  23      C7A00DD1 
  23      C30ED5C3 
  23      2A0FB6
  24 006c AF8C9181 		.ascii	"\257\214\221\201\005\237F\0169\006\007\210FN\270\337"
  24      059F460E 
  24      39060788 
  24      464EB8DF 
  25 007c 19C1086C 		.ascii	"\031\301\010l\020\334\303@\006s\031\\\232\235\235\025"
  25      10DCC340 
  25      0673195C 
  25      9A9D9D15 
  26 008c 6A38AA12 		.ascii	"j8\252\022&\020C\320\323\310\331J\265X\301\323\317\321"
  26      261043D0 
  26      D3C8D94A 
ARM GAS  /tmp/cc7MSwG5.s 			page 2


  26      B558C1D3 
  26      CFD1
  27 009e 39C433CC 		.ascii	"9\3043\314\225\213A<\270$\261\250$3/]\24185\2578\277"
  27      958B413C 
  27      B824B1A8 
  27      24332F5D 
  27      A13835AF 
  28 00b4 4841B558 		.ascii	"HA\265XOO\217\213A$\270$\277\240\000E\234\213A\030\252"
  28      4F4F8F8B 
  28      4124B824 
  28      BFA00045 
  28      9C8B4118 
  29 00c9 3D2428C2 		.ascii	"=$(\3025(HC5E\223\213\001\000\345\003Ei"
  29      35284843 
  29      3545938B 
  29      0100E503 
  29      4569
  30              		.text
  31              		.section	.gnu.lto_.inline.1ae193ab3895ea03,"",%progbits
  32 0000 789C6D50 		.ascii	"x\234mP1N\303@\020\2349\357y\015N\210\025!\271A\212"
  32      314EC340 
  32      109C39EF 
  32      790D4E88 
  32      1521B941 
  33 0015 3BBF828E 		.ascii	";\277\202\216\232\232\037\004\036\202\224\022\012\252"
  33      9A9A1F04 
  33      1E829412 
  33      0AAA
  34 0023 34F9004F 		.ascii	"4\371\000O@\312\027\370\001\242\342\005\324\354\256"
  34      40CA17F8 
  34      01A2E205 
  34      D4ECAE
  35 0032 B9244878 		.ascii	"\271$Hx\245\335\325ynfn\022\022\376\373^9\315\032\322"
  35      A5DDD579 
  35      6E666E12 
  35      12FEFB5E 
  35      39CD1AD2 
  36 0046 5E2140F5 		.ascii	"^!@\365nu\300\022\371\002\250\236n\275\252Y\000\010"
  36      6E75C012 
  36      F902A89E 
  36      6EBDAA59 
  36      0008
  37 0058 5D90F08B 		.ascii	"]\220\360\213\247p\231\033\0200\030\372w\024@\377\366"
  37      A770991B 
  37      103018FA 
  37      771440FF 
  37      F6
  38 0069 A2586C9F 		.ascii	"\242Xl\237\371\027#\230\367\024\336\337\361\201\347"
  38      F9172398 
  38      F714DEDF 
  38      F181E7
  39 0078 AEB32E5B 		.ascii	"\256\263.[\\\243\267\314/\205n\306\004\331\255\006\360"
  39      5CA3B7CC 
  39      2F856EC6 
  39      04D9AD06 
  39      F0
  40 0089 B19214DD 		.ascii	"\261\222\024\335Q\251\205\200FT\0303\306k*\202\261\215"
ARM GAS  /tmp/cc7MSwG5.s 			page 3


  40      51A98580 
  40      46541833 
  40      C66B2A82 
  40      B18D
  41 009b B3F571E5 		.ascii	"\263\365q\345\241\017\311\251\205E\251)/0\261.!o\306"
  41      A10FC9A9 
  41      8545A929 
  41      2F30B12E 
  41      216FC6
  42 00ae 0EDCEBE0 		.ascii	"\016\334\353\340R>\220\277}o?oB\326\"h\\\326R\021+\374"
  42      523E90BF 
  42      7D6F3F6F 
  42      42D62268 
  42      5CD65211 
  43 00c4 C612568A 		.ascii	"\306\022V\212\245\263\245M\235\"+U\376)f\227\026\205"
  43      A5B3A54D 
  43      9D222B55 
  43      FE296697 
  43      1685
  44 00d6 3BD94742 		.ascii	";\331GB\325\007\353\023\0132uoM\254\356\017\332Y\032"
  44      D507EB13 
  44      0B32756F 
  44      4DACEE0F 
  44      DA591A
  45 00e9 4732FC00 		.ascii	"G2\374\000\335\0343\233"
  45      DD1C339B 
  46              		.text
  47              		.section	.gnu.lto_.pureconst.1ae193ab3895ea03,"",%progbits
  48 0000 789C6362 		.ascii	"x\234cb`b\340e\200\0006\006\011F\011f)\026)VIvI\000"
  48      6062E065 
  48      80003606 
  48      09460966 
  48      29162956 
  49 0018 05B000C2 		.ascii	"\005\260\000\302"
  50              		.text
  51              		.section	.gnu.lto_chprintf.1ae193ab3895ea03,"",%progbits
  52 0000 789C8550 		.ascii	"x\234\205P\315J\002Q\024>\337\0355uc\333v\342\0034\213"
  52      CD4A0251 
  52      143EDF1D 
  52      357563DB 
  52      76E20334 
  53 0015 22E80D7A 		.ascii	"\"\350\015z\000\203Z\3058\216z\011\035\321Q\260\026"
  53      00835AC5 
  53      388E7A09 
  53      1DD151B0 
  53      16
  54 0026 5EC1C245 		.ascii	"^\301\302E\013ig\021)\321:\244\027\030\202\332DI\273"
  54      0B696711 
  54      29D13AA4 
  54      171882DA 
  54      4449BB
  55 0039 162D2497 		.ascii	"\026-$\227\265h\321*\202\351\336\031\024\372\201\016"
  55      B568D12A 
  55      82E9DE19 
  55      14FA810E 
  56 0049 DC7B7EBE 		.ascii	"\334{~\276s\276\363\303\210\321OY\220o\010\2425\251"
  56      73BEF3C3 
ARM GAS  /tmp/cc7MSwG5.s 			page 4


  56      88D14F59 
  56      906F08A2 
  56      35A9
  57 005b A11158F7 		.ascii	"\241\021X\367\236\250\025e\2002\010\324dhnB\245\262"
  57      9EA81565 
  57      803208D4 
  57      64686E42 
  57      A5B2
  58 006d 140D84DB 		.ascii	"\024\015\204\333\035_O\036\321\023n\273/>=\017\340\220"
  58      1D5F4F1E 
  58      D1136EBB 
  58      2F3E3D0F 
  58      E090
  59 007f B42B2013 		.ascii	"\264+ \023\264!\035$}\305B\337\373\250Z\321uOon!\016"
  59      B4211D24 
  59      7DC542DF 
  59      FBA85AD1 
  59      754F6F6E 
  60 0095 45EBCDF3 		.ascii	"E\353\315\363\022\034\032\243\325\377\012/\230\373\354"
  60      121C1AA3 
  60      D5FF0A2F 
  60      98FBEC
  61 00a4 794FC3F7 		.ascii	"yO\303\367\203W\364XLC\021\024\222\037\"d\340\014)\225"
  61      8357F458 
  61      4C431114 
  61      921F2264 
  61      E00C2995 
  62 00b8 13A6B624 		.ascii	"\023\246\266$O\032\030H\177\0325\375\241\323\362W\233"
  62      4F1A1848 
  62      7F1A35FD 
  62      A1D3F257 
  62      9B
  63 00c9 AC8329AD 		.ascii	"\254\203)\255\215ho\3343\015\234#,\321]\372\020\035"
  63      8D686FDC 
  63      330D9C23 
  63      2CD15DFA 
  63      101D
  64 00db 31CF1132 		.ascii	"1\317\0212\341\247\313\310\016Gx\312\344g\251\2514\""
  64      E1A7CBC8 
  64      0E4778CA 
  64      E467A9A9 
  64      3422
  65 00ed 2E3BD288 		.ascii	".;\322\210\366\307G\223x\200\344\021\231\021\314\231"
  65      F6C74793 
  65      7880E411 
  65      9911CC99 
  66 00fd 088E9B87 		.ascii	"\010\216\233\207\226G( \340\210\252\222\366\370\370"
  66      96472820 
  66      E088AA92 
  66      F6F8F8
  67 010c 77C798A9 		.ascii	"w\307\230\251H\377\356\310\021'\272\243\253\027\026"
  67      48FFEEC8 
  67      1127BAA3 
  67      AB1716
  68 011b 04027099 		.ascii	"\004\002p\231.EG\235[\312\003\265\372'\332l\214\340"
  68      2E45479D 
  68      5BCA03B5 
ARM GAS  /tmp/cc7MSwG5.s 			page 5


  68      FA27DA6C 
  68      8CE0
  69 012d 5469B983 		.ascii	"Ti\271\203\334Q\315\261\244\027\354\242\245\233v\266"
  69      DC51CDB1 
  69      A417ECA2 
  69      A59B76B6 
  70 013d A167ADBA 		.ascii	"\241g\255\272n\026x\206\333U\335\251\324J\333\2724\352"
  70      6E167886 
  70      DB55DDA9 
  70      D44ADBBA 
  70      34EA
  71 014f 4685DBB5 		.ascii	"F\205\333\265\252\004\312\025^rr\213\005bF9\221\263"
  71      AA04CA15 
  71      5E72728B 
  71      05624639 
  71      91B3
  72 0161 2B45C371 		.ascii	"+E\303q\254\354V\246\341X\325/\251H\201#"
  72      ACEC56A6 
  72      E158D52F 
  72      A9488123 
  73              		.text
  74              		.section	.gnu.lto_I2CSensor_transact.part.0.1ae193ab3895ea03,"",%progbits
  75 0000 789C9D93 		.ascii	"x\234\235\223?hTA\020\306\347\333}wy\211\177\242`\300"
  75      3F685441 
  75      10C6E7DB 
  75      7D777989 
  75      7FA260C0 
  76 0014 03912328 		.ascii	"\003\221#((\201\004\257\022+C\264\270&\205\\D+\271{"
  76      288104AF 
  76      122B43B4 
  76      B826855C 
  76      442BB97B 
  77 0028 1C618B33 		.ascii	"\034a\2133\360\336)\301\0247\027\345\020A9\254b4\220"
  77      F0DE29C1 
  77      143717E5 
  77      104139AC 
  77      623490
  78 003b 10249080 		.ascii	"\020$\220\200\001C\260\260\271\312B0bie\032+-\004+\203"
  78      0143B0B0 
  78      B9CA4230 
  78      6269651A 
  78      2B2D042B 
  79 0050 BACEBE77 		.ascii	"\272\316\276w!\211\24482\260\363-\363\34673\313\356"
  79      2189A438 
  79      32B0F32D 
  79      F3E63733 
  79      CBEE
  80 0062 53A4E87F 		.ascii	"S\244\350\177\033\220\265!\341k\242H\021\274\346\206"
  80      1B90B521 
  80      E16BA248 
  80      11BCE686 
  81 0072 6C3CA858 		.ascii	"l<\250X\025\264\323\272\257\001\267!P\315S\032\265\233"
  81      15B4D3BA 
  81      AF01B721 
  81      50CD531A 
  81      B59B
  82 0084 7070573F 		.ascii	"ppW?-0?\335\374\372\345-\270\301\365\037\326\366\032"
ARM GAS  /tmp/cc7MSwG5.s 			page 6


  82      2D303FDD 
  82      FCFAE52D 
  82      B8C1F51F 
  82      D6F61A
  83 0097 489793A0 		.ascii	"H\227\223\240\000t\003\006\360cQ\330\3336\001\3715s"
  83      00740306 
  83      F06351D8 
  83      DB3601F9 
  83      3573
  84 00a9 F73CFFB6 		.ascii	"\367<\377\266V\033hE\247v\260l\202y\373b\257\230\365"
  84      561B6845 
  84      A776B06C 
  84      8279FB62 
  84      AF98F5
  85 00bc 3626DDB2 		.ascii	"6&\335\262\007\353v\246\243n\315\326\263\306\223\014"
  85      07EB76A6 
  85      A36ECDD6 
  85      B3C6930C 
  86 00cc CF4F37F9 		.ascii	"\317O7\371\257\265\222\345):\327\331\234\255\365w/2"
  86      AFB592E5 
  86      293AD7D9 
  86      9CADF577 
  86      2F32
  87 00de 8F76C894 		.ascii	"\217v\310\224\242\241\016\311\265\306R\346\375\036\362"
  87      A2A10EC9 
  87      B5C652E6 
  87      FD1EF2
  88 00ed E2BE6465 		.ascii	"\342\276de\327IW\025oZ\373\353\233\237\006*\200\"\203"
  88      D7495715 
  88      6F5AFBEB 
  88      9B9F062A 
  88      802283
  89 0100 B416E7F2 		.ascii	"\264\026\347\362R\364@\216\222-b\001\375T\304b\354_"
  89      52F4408E 
  89      922D6201 
  89      FD54C462 
  89      EC5F
  90 0112 C67E493C 		.ascii	"\306~I<\271\332b\005\361\356\236\013\002\211\3521\251"
  90      B9DA6205 
  90      F1EE9E0B 
  90      0289EA31 
  90      A9
  91 0123 E2F4034D 		.ascii	"\342\364\003Mo\335_{\274\242\213X\225W2\0165E\367\244"
  91      6FDD5F7B 
  91      BCA28B58 
  91      9557320E 
  91      3545F7A4 
  92 0137 FC002DB3 		.ascii	"\374\000-\263\330\317\264A\327s\232\2553\0373\360\307"
  92      D8CFB441 
  92      D7739AAD 
  92      331F33F0 
  92      C7
  93 0148 01376077 		.ascii	"\0017`w<Ui\367]|\244F\353|R\203h\212\266\370\241\003"
  93      3C5569F7 
  93      5D7CA446 
  93      EB7C5283 
  93      688AB6F8 
ARM GAS  /tmp/cc7MSwG5.s 			page 7


  94 015e 7A022449 		.ascii	"z\002$II\204\337\010|\250\002\325Nt\321\031\346?\022"
  94      4984DF08 
  94      7CA802D5 
  94      4E74D119 
  94      E63F12
  95 0171 3D7C9A86 		.ascii	"=|\232\206\347x\346\262\301\021j\177\225Y\014\216&\345"
  95      E778E6B2 
  95      C1116A7F 
  95      95590C8E 
  95      26E5
  96 0183 C7A0E371 		.ascii	"\307\240\343q?\311\213u_\264\013~&\355\246\361\346l"
  96      3FC98B75 
  96      5FB40B7E 
  96      26EDA6F1 
  96      E66C
  97 0195 DB5053DF 		.ascii	"\333PS\337\327O\270C\302e\273\177\242\357Jh\356\226"
  97      D74FB843 
  97      C265BB7F 
  97      A2EF4A68 
  97      EE96
  98 01a7 C368C8E4 		.ascii	"\303h\310\344\202[Q\371v4\021\016\006\244\303\311@V"
  98      825B51F9 
  98      7634110E 
  98      06A4C3C9 
  98      4056
  99 01b9 495745AB 		.ascii	"IWE\253\223\245tT-V\357D~9\014'\302h0\267\275\271p<"
  99      93A57454 
  99      2D56EF44 
  99      7E390C27 
  99      C26830B7 
 100 01d1 9F1BB974 		.ascii	"\237\033\271t6\312\346G\207G\012\371\353W{\350\037\234"
 100      36CAE647 
 100      87470AF9 
 100      EB577BE8 
 100      1F9C
 101 01e3 CFC7E2   		.ascii	"\317\307\342"
 102              		.text
 103              		.section	.gnu.lto_I2CSensor_init.1ae193ab3895ea03,"",%progbits
 104 0000 789C9D53 		.ascii	"x\234\235SMh\023A\024~o\366'\3516i\2326iB\025\011\242"
 104      4D681341 
 104      147E6FF6 
 104      27E93669 
 104      9A366942 
 105 0017 0711230A 		.ascii	"\007\021#\012\342Q\017^=\265\001\305\203\324P\302\036"
 105      E2510F5E 
 105      3DB501C5 
 105      83D450C2 
 105      1E
 106 0028 5A21291E 		.ascii	"Z!)\036\354\241S\267JA\224\340\251(\036J\261\007)\230"
 106      ECA153B7 
 106      4A4194E0 
 106      A9281E4A 
 106      B1072998 
 107 003c 9BC18BAD 		.ascii	"\233\301\213\255\"i\023\254\364\246's\252\250!\027/"
 107      226913AC 
 107      F4A62773 
 107      AAA82117 
ARM GAS  /tmp/cc7MSwG5.s 			page 8


 107      2F
 108 004d B552E39B 		.ascii	"\265R\343\233\235\331\255M\003\025\007\366\315\2337"
 108      9DD9AD4D 
 108      031507F6 
 108      CD9B37
 109 005c EFFBE67B 		.ascii	"\357\373\346{3\373\0300h\037\227\351\333\324\001\316"
 109      33FB1830 
 109      681F97E9 
 109      DBD401CE 
 110 006c D08C0140 		.ascii	"\320\214\001@V\\\007\230\0162\324\245\243Ig%\2503c\275"
 110      565C0798 
 110      0E32D4A5 
 110      A3496725 
 110      A83363BD 
 111 0080 0AC02DF3 		.ascii	"\012\300-\363\215\006<d0\315\251\270\313\007\001Z\232"
 111      8D063C64 
 111      30CDA9B8 
 111      CB07015A 
 111      9A
 112 0091 88220D10 		.ascii	"\210\"\015\020\246\230\246\033&N]EA\217Ga\236\363G\365"
 112      A698A61B 
 112      264E5D45 
 112      418F4761 
 112      9EF347F5 
 113 00a5 77B58709 		.ascii	"w\265\207\011^\347E\376\273\325B\033IH\022!\213p\205"
 113      5EE745FE 
 113      BBD5421B 
 113      49481221 
 113      8B7085
 114 00b8 16187427 		.ascii	"\026\030t'\206{\225\275`\313\365V\253\261P<v\030a\004"
 114      867B95BD 
 114      60CBF556 
 114      ABB1503C 
 114      76186104 
 115 00cc E7894AC7 		.ascii	"\347\211J\3071\004\223\014\006\3110\213\214\026&\243"
 115      3104930C 
 115      06C9308B 
 115      8C1626A3 
 116 00dc 47C81851 		.ascii	"G\310\030Q \222>\362\314~\362\264\030\031=N\306H(xR"
 116      20923EF2 
 116      CC7EF2B4 
 116      18193D4E 
 116      C6482878 
 117 00f1 2C06C998 		.ascii	",\006\311\230Do\300\014\347\305\224\334\001\241\205"
 117      446FC00C 
 117      E7C594DC 
 117      01A185
 118 0100 C630D945 		.ascii	"\3060\331E\0132\310h\322\336\303\235\362Ve`\004\027"
 118      0B32C868 
 118      D2DEC39D 
 118      F2566560 
 118      0417
 119 0112 D08053B0 		.ascii	"\320\200S\260\304i\014\021\351Ix.\334\3636\006\236\300"
 119      C4690C11 
 119      E949782E 
 119      DCF33606 
 119      9EC0
ARM GAS  /tmp/cc7MSwG5.s 			page 9


 120 0124 63921ECC 		.ascii	"c\222\036\314\241.J\350r\205\337P\205\210\210\341\227"
 120      A12E4AE8 
 120      7285DF50 
 120      858888E1 
 120      97
 121 0135 2356BA70 		.ascii	"#V\272p\210\2656W\215I\326]*\2533\225\344\312\011\311"
 121      88B53657 
 121      8D49D65D 
 121      2AAB3395 
 121      E4CA09C9 
 122 0149 0258AE0E 		.ascii	"\002X\256\016\264\003\2413\220)`P\002?\356\007vw\006"
 122      B403A133 
 122      90296050 
 122      023FEE07 
 122      767706
 123 015c 6A0A68B9 		.ascii	"j\012h\271\300\362V5\336\016\014u\006\352~\235!\364"
 123      C0F25635 
 123      DE0E0C75 
 123      06EA7E9D 
 123      21F4
 124 016e EAACED03 		.ascii	"\352\254\355\003\207;\203\015ujX\325\371\317@S\001#"
 124      873B830D 
 124      756A58D5 
 124      F9CF4053 
 124      0123
 125 0180 F29A33A4 		.ascii	"\362\2323\244\377\333[\020o\327t\276|e\222%\207\361"
 125      FFDB5B10 
 125      6FD774BE 
 125      7C659225 
 125      87F1
 126 0192 9CB84A8A 		.ascii	"\234\270J\212\256\225z\366<\350\265\335\007\275p\300"
 126      AE957AF6 
 126      3CE8B5DD 
 126      07BD70C0 
 127 01a2 83120B78 		.ascii	"\203\022\013x^L\2209\263\316\367\015\364\216H\320\021"
 127      5E4C9039 
 127      B3CEF70D 
 127      F48E48D0 
 127      11
 128 01b3 0204DE8F 		.ascii	"\002\004\336\217\234\241+\241\256\220Z^\377\364\265"
 128      9CA12BA1 
 128      AE905A5E 
 128      FFF4B5
 129 01c2 449516E7 		.ascii	"D\225\026\347\276\346\205\372s\330G\033\256\302Ww\233"
 129      BEE685FA 
 129      73D8471B 
 129      AEC25777 
 129      9B
 130 01d3 3E674CEA 		.ascii	">gL\352\321)CPk\212y\025f\032\323\347\374$\261\325\263"
 130      D1294350 
 130      6B8A7915 
 130      661AD3E7 
 130      FC24B1D5 
 131 01e8 DB399F40 		.ascii	"\3339\237@\352\000`\215g\001\022\246-UL!\307\000ja\215"
 131      EA00608D 
 131      670112A6 
 131      2D554C21 
ARM GAS  /tmp/cc7MSwG5.s 			page 10


 131      C7006A61 
 132 01fd C09B2B9F 		.ascii	"\300\233+\237K\276\034\231\334\365W\353e\350V\345\377"
 132      4BBE1C99 
 132      DCF557EB 
 132      65E856E5 
 132      FF
 133 020e DF747EAC 		.ascii	"\337t~\254\371\211I\357\016\313\245\356\377m\012b\351"
 133      F98949EF 
 133      0ECBA5EE 
 133      FF6D0A62 
 133      E9
 134 021f D010DBCE 		.ascii	"\320\020\333\316\257\265C\3361\203\223p\233zT\021\266"
 134      AFB543DE 
 134      31839370 
 134      9B7A5411 
 134      B6
 135 0230 CC0318DD 		.ascii	"\314\003\030\335\361\001\356-\237\220\004\000\223\260"
 135      F101EE2D 
 135      9F900400 
 135      93B0
 136 023e CD6779AF 		.ascii	"\315gy\257\215\221\254\352\037\031\341/\011\334;\206"
 136      8D91ACEA 
 136      1F19E12F 
 136      09DC3B86 
 137 024e 019528A2 		.ascii	"\001\225(\242s\234\357P4z\004\006\237\362\271\2136\366"
 137      739CEF50 
 137      347A0406 
 137      9FF2B98B 
 137      36F6
 138 0260 81DA2521 		.ascii	"\201\332%!6\366\003l\300t}\225y\334r\014\023\357\242"
 138      36F6036C 
 138      C0747D95 
 138      79DC720C 
 138      13EFA2
 139 0273 255A2C7E 		.ascii	"%Z,~)o\337\032\315\027N\333g\263\327\013\243\343\205"
 139      296FDF1A 
 139      CD174EDB 
 139      67B3D70B 
 139      A3E385
 140 0286 9BF97416 		.ascii	"\233\371t\026\320N\014M\214\344'\354\361\\J\006S\307"
 140      D04E0C4D 
 140      8CE427EC 
 140      F15C4A06 
 140      53C7
 141 0298 0BE974DA 		.ascii	"\013\351t\332\202?|\327%\013"
 141      823F7CD7 
 141      250B
 142              		.text
 143              		.section	.gnu.lto_I2CSensor_stop.1ae193ab3895ea03,"",%progbits
 144 0000 789C6D51 		.ascii	"x\234mQ=K\003A\024\234\267w\227\304\363\003\213\010"
 144      3D4B0341 
 144      149CB777 
 144      97C4F303 
 144      8B08
 145 0012 2218D208 		.ascii	"\"\030\322\010j\304@\032[\013\377\201\006\264\012z\204"
 145      6AC4401A 
 145      5B0BFF81 
ARM GAS  /tmp/cc7MSwG5.s 			page 11


 145      06B40A7A 
 145      84
 146 0023 B0858924 		.ascii	"\260\205\211$ba\212l4\212\245\245D,l-\024l\014i\214"
 146      62618A6C 
 146      348AA5A5 
 146      442C6C2D 
 146      146C0C69 
 147 0038 9D8D8A4D 		.ascii	"\235\215\212M\012m\304V+\0335 \361\355\335EE]\270{\217"
 147      0A6DC456 
 147      2B1B3520 
 147      F1EDDD45 
 147      455DB87B 
 148 004d B99979B3 		.ascii	"\271\231y\263\357\004\004~\237\004?\367\004Lp%\013$"
 148      EF04047E 
 148      9F043FF7 
 148      044C7025 
 148      0B24
 149 005f 76AF8172 		.ascii	"v\257\201rH\010\243\036\201\262\315f\034\252\307 \323"
 149      4808A31E 
 149      81B2CD66 
 149      1CAAC720 
 149      D3
 150 0070 834D22DD 		.ascii	"\203M\"\335\200P\022\206I\245\005rMND\343\241\335>>"
 150      80501286 
 150      49A50572 
 150      4D4E44E3 
 150      A1DD3E3E 
 151 0084 DD7A0CD8 		.ascii	"\335z\014\330\006-\023,HB\220;\012q\247I\026*J\355F"
 151      062D132C 
 151      4842903B 
 151      0A71A749 
 151      162A4AED 
 152 0099 01C795CC 		.ascii	"\001\307\225\314\361[;%I\350j\\a\243\366\326\034X\244"
 152      F15B3B25 
 152      49E86A5C 
 152      61A3F6D6 
 152      1C58A4
 153 00ac 430E11C3 		.ascii	"C\016\021\303\221\3423%I\354\243J\222\214\014\031\363"
 153      91E23325 
 153      49ECA34A 
 153      928C0C19 
 153      F3
 154 00bd 5C4D77DA 		.ascii	"\\Mw\332\2227\024\032q/\304\342\326\346\353\313\220"
 154      9237141A 
 154      712FC4E2 
 154      D6E6EBCB 
 154      90
 155 00ce A7CE9055 		.ascii	"\247\316\220U\304:\317\367m\336\003\222\254\377}\350"
 155      C43ACFF7 
 155      6DDE0392 
 155      ACFF7DE8 
 156 00de 7B0F37D8 		.ascii	"{\0177\330n\214y\006@\021-\265\243\372%\005\034\237"
 156      6E8C7906 
 156      40112DB5 
 156      A3FA2505 
 156      1C9F
 157 00f0 E321EA8C 		.ascii	"\343!\352\214\305\301e\022>Q\243{J}0\032\212`\360@\355"
ARM GAS  /tmp/cc7MSwG5.s 			page 12


 157      C5C16512 
 157      3E51A37B 
 157      4A7D301A 
 157      8A60F040 
 158 0105 4D4BEA82 		.ascii	"MK\352\202\377\225\203H\262\201KT\236/\316\207;\351"
 158      FF958348 
 158      B2814B54 
 158      9E2FCE87 
 158      3BE9
 159 0117 823A41F7 		.ascii	"\202:A\367\317\177\220$\003\365\210\336\301]\255\032"
 159      CF7F9024 
 159      03F588DE 
 159      C15DAD1A 
 160 0127 EEF04231 		.ascii	"\356\360B1\214\363\3568y\231o\221\372\233^|E\2574F\377"
 160      8CF3EE38 
 160      79996F91 
 160      FA9B5E7C 
 160      45AF3446 
 161 013c 44EF717C 		.ascii	"D\357q|\002;I\352\355L2\335u\337\242\374\360d{\032m"
 161      023B49EA 
 161      ED4C32DD 
 161      75DFA2FC 
 161      F0647B1A 
 162 0151 D9D78932 		.ascii	"\331\327\2112\307\367e\202V\016\314\344\345Z:_\210\313"
 162      C7F76582 
 162      560ECCE4 
 162      E55A3A5F 
 162      88CB
 163 0163 84932AA4 		.ascii	"\204\223*\244\263\205\\~\322Axv5\267\262\"\263\231\250"
 163      B3855C7E 
 163      D2417876 
 163      35B7B222 
 163      B399A8
 164 0176 0745470A 		.ascii	"\007EG\0126>\001\236\002}\367"
 164      363E019E 
 164      027DF7
 165              		.text
 166              		.section	.gnu.lto_I2CSensor_transact.1ae193ab3895ea03,"",%progbits
 167 0000 789C7D54 		.ascii	"x\234}TOHTA\030\377\276yo\336\256\353\237]\377l\353"
 167      4F485441 
 167      18FFBE79 
 167      6FDEAEEB 
 167      9F5DFF6C 
 168 0015 6AFE4910 		.ascii	"j\376I\020,A\311N\325%\250\016]:\210\202u\011{\312\362"
 168      2C41C94E 
 168      D525A80E 
 168      5D3A8882 
 168      75097BCA 
 169 002a 0E26EC6A 		.ascii	"\016&\354j\207<8\352R\035$\226\010R\313RB\210.\325!"
 169      873C38EA 
 169      521D2496 
 169      0852CB52 
 169      42882ED5 
 170 003f 9022582F 		.ascii	"\220\"X/aHI\227\312N\242\020A\021\236\"$\332\276\231"
 170      61484997 
 170      CA4EA210 
 170      41119E22 
ARM GAS  /tmp/cc7MSwG5.s 			page 13


 170      24DABE99 
 171 0053 79EFE9E6 		.ascii	"y\357\351\346\342\300\373f\346\233\3577\277\337\367"
 171      E2C0FB66 
 171      E69BEF37 
 171      BFDFF7
 172 0062 CDCC63C0 		.ascii	"\315\314c\300\340\377\326M\3371\016p\222z\014\002\262"
 172      E0FFD64D 
 172      DF310E70 
 172      927A0C02 
 172      B2
 173 0073 CC7B80B1 		.ascii	"\314{\200\261 c\206X\001\020!+c\200(1\230\371\262\236"
 173      20638658 
 173      0110212B 
 173      63802831 
 173      98F9B29E 
 174 0087 66FC633B 		.ascii	"f\374c;\315L\344:\212c@\017,=\300\000\242\354\001a\224"
 174      CD4CE43A 
 174      8A63400F 
 174      2C3DC000 
 174      A2EC0161 
 175 009c 1926B702 		.ascii	"\031&\267\0028z\001%\015k\202y!n\257/|\3352\247\357"
 175      387A0125 
 175      0D6B8279 
 175      216EAF2F 
 175      7CDD32A7 
 176 00b1 2CA5E7C4 		.ascii	",\245\347\304\237\\\016\321A\222T\215`#\364\320\004"
 176      9F5C0ED1 
 176      4192548D 
 176      6023F4D0 
 176      04
 177 00c2 1B55C74C 		.ascii	"\033U\307LB\014\340\216H\005\316d\247\257\337\212\213"
 177      420CE08E 
 177      4805CE64 
 177      A7AFDF8A 
 177      8B
 178 00d3 B9F18CF8 		.ascii	"\271\361\214\370KX\007\015\006\207\012Bw\265\247,\273"
 178      4B58070D 
 178      06870A42 
 178      77B5A72C 
 178      BB
 179 00e4 9ECB4D3E 		.ascii	"\236\313M>Oo\3274 \020\306\220\206\343\000\242E#3@\206"
 179      4F6FD734 
 179      2010C690 
 179      86E300A2 
 179      45233340 
 180 00f9 17491322 		.ascii	"\027I\023\"c\025\223\011\224\320*+\245Q\260\214FFX\216"
 180      63159309 
 180      94D02A2B 
 180      A551B08C 
 180      4646588E 
 181 010d 2264A09C 		.ascii	"\"d\240\234\246f\005\031^\005\275\370\010\233 *\221"
 181      A6660519 
 181      5E05BDF8 
 181      089B202A 
 181      91
 182 011e 3169E2E4 		.ascii	"1i\342\344\231'O-M\212\210\230C\232$7\202\324G\255\213"
 182      99274F2D 
ARM GAS  /tmp/cc7MSwG5.s 			page 14


 182      4D8A8898 
 182      439A2437 
 182      82D447AD 
 183 0133 ACAC4C37 		.ascii	"\254\254L72\331\033\357`\374\313\342\306\026\366\342"
 183      32D91BEF 
 183      60FCCBE2 
 183      C616F6E2 
 184 0143 027248A0 		.ascii	"\002rH\240\325\012G\034\014\335\203\031J\2428\201\\"
 184      D50A471C 
 184      0CDD8319 
 184      4AA23881 
 184      5C
 185 0154 2653A252 		.ascii	"&S\242R\270\354\027b\031\322?\306\302>D\206\204\362"
 185      B8EC1762 
 185      19D23FC6 
 185      C23E4486 
 185      84F2
 186 0166 CE12E9AC 		.ascii	"\316\022\351\254V\364\346\2777>3W\203\226\012\240\201"
 186      56F4E6BF 
 186      373E3357 
 186      83960AA0 
 186      81
 187 0177 D4121850 		.ascii	"\324\022\030Pt\234\350\306\204\020\303{)=\316UHg[{\361"
 187      749CE8C6 
 187      8410C37B 
 187      293DCE55 
 187      48675B7B 
 188 018c B1028EC0 		.ascii	"\261\002\216\300\266\270)\"\016\226\332n\000\355\344"
 188      B6B82922 
 188      0E96DA6E 
 188      00EDE4
 189 019b 60198064 		.ascii	"`\031\200d\234\332\374\306ud\002\213\362\366_+\220\223"
 189      9CDAFCC6 
 189      7564028B 
 189      F2F65F2B 
 189      9093
 190 01ad 472091CF 		.ascii	"G \221\317.{\270\220\302\205\013\227\201\355@~N\374"
 190      2E7BB890 
 190      C2850B97 
 190      81ED407E 
 190      4EFC
 191 01bf 621E86C2 		.ascii	"b\036\206\302B\332ix\256\322\204\004\345\271\302\011"
 191      42DA6978 
 191      AED28404 
 191      E5B9C209 
 192 01cf 57E745CF 		.ascii	"W\347E\317\023Q\\\021W\343l`/\241\341\027aF,\373;U\371"
 192      13515C11 
 192      57E36C60 
 192      2FA1E117 
 192      61462CFB 
 193 01e6 6528B75D 		.ascii	"e(\267]M\224\260\322Q\256\250+\024\033\255W\350\364"
 193      4D94B0D2 
 193      51AEA82B 
 193      141BAD57 
 193      E8F4
 194 01f8 1637B77C 		.ascii	"\0267\267|\261\321\274\302\214\354_\370\266B\2057\\"
 194      B1D1BCC2 
ARM GAS  /tmp/cc7MSwG5.s 			page 15


 194      8CEC5FF8 
 194      B6428537 
 194      5C
 195 0209 C6A82ABC 		.ascii	"\306\250*\274\274\022K\017\337\204}qr\257\312\374Ka"
 195      BC124B0F 
 195      DF847D71 
 195      72AFCAFC 
 195      4B61
 196 021b C2833A7D 		.ascii	"\302\203:}\341\350\361y\201\261<!\257\3669!\251\344"
 196      E1E8F179 
 196      81B13C21 
 196      AFF63921 
 196      A9E4
 197 022d BC078BFB 		.ascii	"\274\007\213\373R\252l4])1\007\243*\325\267\2312\035"
 197      52AA6C34 
 197      5D293107 
 197      A32AD5B7 
 197      99321D
 198 0240 A8B7A5A8 		.ascii	"\250\267\245\250\003~|L?h\311\020sqq\005\332\236\370"
 198      037E7C4C 
 198      3F68C910 
 198      73717105 
 198      DA9EF8
 199 0253 3EF9DAAF 		.ascii	">\371\332\257n\355\010\\s\344\375yB\262\304]:\225\352"
 199      6EED085C 
 199      73E4FD79 
 199      42B2C45D 
 199      3A95EA
 200 0266 C2B761D7 		.ascii	"\302\267a\327C_\205\033\331\343{j\025\267\365mw=\342"
 200      435F851B 
 200      D9E37B6A 
 200      15B7F56D 
 200      773DE2
 201 0279 13816B06 		.ascii	"\023\201k\006\320r\003\245w\212\316\335r\260\266\036"
 201      D07203A5 
 201      778ACEDD 
 201      72B0B61E 
 202 0289 5A66C5D4 		.ascii	"Zf\305\324)\007\017\202\273JBH\237\203u^\021\271zYz"
 202      29070F82 
 202      BB4A4248 
 202      9F83755E 
 202      11B97A59 
 203 029e 6C41C630 		.ascii	"lA\3060\250,A\357)\032>i\275M\253:;\356`\203\207\016"
 203      A82C41EF 
 203      291A3E69 
 203      BD4DAB3A 
 203      3BEE6083 
 204 02b4 A847FF81 		.ascii	"\250G\377\201\376\224rE\025b\015\220\216\213\337\177"
 204      FE947245 
 204      15620D90 
 204      8E8BDF7F 
 205 02c4 D147780B 		.ascii	"\321Gx\013\345/\002e\224\274Q\3213I\347j\1772\325\356"
 205      E52F0265 
 205      94BC51D1 
 205      3349E76A 
 205      7F32D5EE 
 206 02d8 74D89752 		.ascii	"t\330\227R\375WR\203\3116\033\202\375\311\344`2\325"
ARM GAS  /tmp/cc7MSwG5.s 			page 16


 206      FD575283 
 206      C9361B82 
 206      FDC9E460 
 206      32D5
 207 02ea 76D44A0D 		.ascii	"v\324J\015\365\016\015\247*\317u\234>\321\234j\354\352"
 207      F50E0DA7 
 207      2ACF759C 
 207      3ED19C6A 
 207      ECEA
 208 02fc EC39DBD9 		.ascii	"\3549\333\331\331\322\334w8\004\377\000\274\2734f"
 208      D9D2DC77 
 208      3804FF00 
 208      BCBB3466 
 209              		.text
 210              		.section	.gnu.lto_I2CSensor_transact_buf.1ae193ab3895ea03,"",%progbits
 211 0000 789C6590 		.ascii	"x\234e\220\275J\003A\024\205\317\271\263\023\326J\033"
 211      BD4A0341 
 211      1485CFB9 
 211      B313D64A 
 211      1B
 212 0011 113B6B03 		.ascii	"\021;k\003\011\344\031|\204\010\261\022]\3020\205\011"
 212      09E4197C 
 212      8408B112 
 212      5DC23085 
 212      09
 213 0022 EC824D8A 		.ascii	"\354\202M\212L\304\3022h#\332\350\013\350\003\330\330"
 213      4CC4C232 
 213      6823DAE8 
 213      0BE803D8 
 213      D8
 214 0033 59887F5D 		.ascii	"Y\210\177]\260\362\021\3042Mrgu\005\315\300=g.\334\357"
 214      B0F211C4 
 214      324D7267 
 214      7505CDC0 
 214      3D672EDC 
 215 0048 CC650482 		.ascii	"\314e\004\202\377g]k\215Z\3524\240\214\237\201Q*d\274"
 215      FF675D6B 
 215      8D5AEA34 
 215      A08C9F81 
 215      512A64BC 
 216 005c 80180A87 		.ascii	"\200\030\012\207;,go\345\376c6\2739}\270z$\227\204\007"
 216      3B2C676F 
 216      E5FE6336 
 216      BB397DB8 
 216      7A249784 
 217 0071 84812792 		.ascii	"\204\201'\222(V[\326T$\3256\002\026\307!\2147\200\254"
 217      28565BD6 
 217      5424D536 
 217      0216C721 
 217      8C3780AC 
 218 0085 C4DBAA31 		.ascii	"\304\333\2521s\233\022\335<\341\350}\362\365i\366xM"
 218      739B12DD 
 218      3CE1E87D 
 218      F2F569F6 
 218      784D
 219 0097 0B4753C7 		.ascii	"\013GS\307\246\346\\\342b\024B\270\243\2478JG\335\224"
 219      A6E65CE2 
ARM GAS  /tmp/cc7MSwG5.s 			page 17


 219      621442B8 
 219      A3A7384A 
 219      47DD94
 220 00aa AFEFB3DA 		.ascii	"\257\357\263\3329\222\257\313\025\227\374\341\316j\213"
 220      3992AFCB 
 220      1597FCE1 
 220      CE6A8B
 221 00b9 5C05BEE0 		.ascii	"\\\005\276\340<t*,\035`\032N\302\212g\222\375L\270H"
 221      3C742A2C 
 221      1D601A4E 
 221      C28A6792 
 221      FD4CB848 
 222 00cd 1A47ABA1 		.ascii	"\032G\253\241\216\032d\2017\360\227\370Ni\353\264\356"
 222      8E1A6481 
 222      37F097F8 
 222      4E69EBB4 
 222      EE
 223 00de 1FBF7275 		.ascii	"\037\277ru+\367\207\335\274h\372V\266[t{E?od\230\003"
 223      2BF787DD 
 223      BC68FA56 
 223      B65B747B 
 223      453F6F64 
 224 00f4 C527435D 		.ascii	"\305'C]"
 225              		.text
 226              		.section	.gnu.lto_.symbol_nodes.1ae193ab3895ea03,"",%progbits
 227 0000 789C4DCF 		.ascii	"x\234M\317\275M\003A\020\305\3617on\3607\224\340\006"
 227      BD4D0341 
 227      10C5F137 
 227      6F6EF037 
 227      94E006
 228 0013 08298236 		.ascii	"\010)\2026\250\344\035\034\370\216\003#\032\000!\\\003"
 228      A8E41D1C 
 228      F88E0323 
 228      1A00215C 
 228      03
 229 0024 0D60626A 		.ascii	"\015`bj@8%'\261\014\267\266\305\262\311\177~#M\260\004"
 229      40382527 
 229      B10CB7B6 
 229      C5B2C97F 
 229      7E234DB0 
 230 0039 716AD83D 		.ascii	"qj\330=\376\230\200\373w@\2327g\274\243l\317\207\306"
 230      FE9880FB 
 230      77409A37 
 230      67BCA36C 
 230      CF87C6
 231 004c E28ADD04 		.ascii	"\342\212\335\004\236S\334o\037\033\343\005\345\377X"
 231      9E53DC6F 
 231      1F1BE305 
 231      E5FF58
 232 005b 51456694 		.ascii	"QEf\224\264B\316K*\362\326\032\352`\307\2624\253\251"
 232      B442CE4B 
 232      2AF2D61A 
 232      EA60C7B2 
 232      34ABA9
 233 006e 5ED68CEA 		.ascii	"^\326\214\352g]S\203\25495\314\272\245FY7\3248\253\245"
 233      675D5383 
 233      AC3935CC 
ARM GAS  /tmp/cc7MSwG5.s 			page 18


 233      BAA54659 
 233      37D438AB 
 234 0083 267F720C 		.ascii	"&\177r\014Q}l\272\016\260\330\266\217ej\367\361\347"
 234      517D6CBA 
 234      0EB0D8B6 
 234      8F656AF7 
 234      F1E7
 235 0095 54075EDB 		.ascii	"T\007^\333\257\251\027]\223\213\021\026/'\036GX=\255"
 235      AFA9175D 
 235      938B1116 
 235      2F271E47 
 235      583DAD
 236 00a8 CDE310CB 		.ascii	"\315\343\020\313\331\333\324c\202\252N\035cU\177\207"
 236      D9DBD463 
 236      82AA4E1D 
 236      63557F87 
 237 00b8 473A4B35 		.ascii	"G:K5|\266\307\336\213\3555~\001\310\311^\336"
 237      7CB6C7DE 
 237      8BED357E 
 237      01C8C95E 
 237      DE
 238              		.text
 239              		.section	.gnu.lto_.refs.1ae193ab3895ea03,"",%progbits
 240 0000 789C6362 		.ascii	"x\234cb`b\020f\200\000FF&&Ff fabbbedcbb\000\000\004"
 240      60621066 
 240      80004646 
 240      26264666 
 240      20666162 
 241 001e 120041   		.ascii	"\022\000A"
 242              		.text
 243              		.section	.gnu.lto_.decls.1ae193ab3895ea03,"",%progbits
 244 0000 789CBD5D 		.ascii	"x\234\275]y|\024U\236\257\252>rr*\212\216;\366\034\316"
 244      797C1455 
 244      9EAFAA3E 
 244      72722A8A 
 244      8E3BF61C 
 245 0015 FA715602 		.ascii	"\372qV\002\001\025gvUL@\331\001\365\223DG?\237\335m"
 245      01156776 
 245      554C40D9 
 245      01F59344 
 245      473F9FDD 
 246 002a 8B4E077A 		.ascii	"\213N\007zL\322\241\273\002q\377\231\342\012\202#\004"
 246      4CD2A1BB 
 246      0271FF99 
 246      E20A8223 
 246      04
 247 003b 2486FBF0 		.ascii	"$\206\373\360\300s8D\015\341lX\010\227\002\001\344\212"
 247      C0733844 
 247      0DE16C58 
 247      08970201 
 247      E48A
 248 004d 9188A2E8 		.ascii	"\221\210\242\350*\020\020\271\204\354\357\375^U\367"
 248      2A1010B9 
 248      84ECEFFD 
 248      5E55F7
 249 005c AB4A55F7 		.ascii	"\253JU\367\253\350l\177>\357\345Uu\275\357\373]\357"
 249      ABE86C7F 
ARM GAS  /tmp/cc7MSwG5.s 			page 19


 249      3EEFE555 
 249      75BDEFFB 
 249      5DEF
 250 006e F77EEFA8 		.ascii	"\367~\357\250\216$HB\253K\020\332\3413\257\\\020j\262"
 250      8E244842 
 250      AB4B10DA 
 250      E133AF5C 
 250      106AB2
 251 0081 05214D10 		.ascii	"\005!M\020\204\373 AQpCZ\002\351\006I\020n\204t\023"
 251      84FB2041 
 251      5170435A 
 251      02E90649 
 251      106E8474 
 252 0096 A49B21DD 		.ascii	"\244\233!\335\002\351\237 \335\012\311\007\351\327\220"
 252      02E99F20 
 252      DD0AC907 
 252      E9D790
 253 00a5 6E83443E 		.ascii	"n\203D>]!\365\205\362\277C\272\012\251\027\340\377\022"
 253      5D21F585 
 253      F2BF43BA 
 253      0AA917E0 
 253      FF12
 254 00b7 521F4803 		.ascii	"R\037H\003!\335\013\351!H\017C\032\006\3511H\005\220"
 254      21DD0BE9 
 254      21480F43 
 254      1A06E931 
 254      480590
 255 00ca FE031281 		.ascii	"\376\003\022\201\370/\370\373\264K0|\010^\026\241\313"
 255      F82FF8FB 
 255      B44B307C 
 255      085E16A1 
 255      CB
 256 00db 45F175DA 		.ascii	"E\361u\332d\270\016B\032\001\251\004\322\037 \215\204"
 256      64B80E42 
 256      1A01A904 
 256      D21F208D 
 256      84
 257 00ec 344AABEF 		.ascii	"4J\253\357\326\352>\244\265;Pkc0\271'\031\333 \364v"
 257      D6EA3EA4 
 257      B53B506B 
 257      6330B927 
 257      19DB20F4 
 258 0101 83BF0D42 		.ascii	"\203\277\015B\242\215\255\220v\011T&\177\201\272g\341"
 258      A28DAD90 
 258      76095426 
 258      7F81BA67 
 258      E1
 259 0112 9947200D 		.ascii	"\231G \015\207\364\214\313(\233~\220D\270n\223h\033"
 259      87F48CCB 
 259      289B7E90 
 259      44B86E93 
 259      681B
 260 0124 048FB44D 		.ascii	"\004\217\264MH!\374\\\226(o\354\207\310\347zS\233^x"
 260      4821FC5C 
 260      96286FEC 
 260      87C8E77A 
 260      539B5E78 
ARM GAS  /tmp/cc7MSwG5.s 			page 20


 261 0138 A64CA4B4 		.ascii	"\246L\244\264\233\333\3743\244\343\002\2255\241\215"
 261      9BDBFC33 
 261      A4E30295 
 261      35A18D
 262 0147 B4A7D3A1 		.ascii	"\264\247\323\241\353\206\320\221\246\321\361\004\244"
 262      EB86D091 
 262      A6D1F104 
 262      A4
 263 0154 2248A721 		.ascii	"\"H\247!\025B:\017\351\202F\337U\215\276t(\247\003F"
 263      15423A0F 
 263      E98246DF 
 263      558DBE74 
 263      28A70346 
 264 0168 06A42C48 		.ascii	"\006\244,H= u\201\324\015ROWG\232\211>\273i\264\375"
 264      3D207581 
 264      D40D524F 
 264      57479A89 
 264      3EBB69B4 
 265 017d 59D3BB4E 		.ascii	"Y\323\273N\337YF.\272\215\364\323\354\243\024\356\017"
 265      DF59462E 
 265      BA8DF4D3 
 265      ECA314EE 
 265      0F
 266 018e 75517912 		.ascii	"uQy\022HB\217N\243K\303%\364\020\273 \3277C\366\013"
 266      48428F4E 
 266      A34BC325 
 266      F410BB20 
 266      D73743F6 
 267 01a3 8BF6892D 		.ascii	"\213\366\211-\3714\235\3502#\230\267k\362\0215|\217"
 267      F9349DE8 
 267      322398B7 
 267      6BF21135 
 267      7C8F
 268 01b5 46234B9F 		.ascii	"F#K\237N\003\2217\221c\031\224\013!y\241\\\016\177\207"
 268      4E039137 
 268      91631994 
 268      0B2179A1 
 268      5C0E7F87 
 269 01c9 43AA85E7 		.ascii	"C\252\205\347\302.#/\272\235\023^*\340\336\237$\212"
 269      C22E232F 
 269      BA9D135E 
 269      2AE0DE9F 
 269      248A
 270 01db 5F689271 		.ascii	"_h\222q\233&\373_j\366\\\240\331\3670W\242O\244i\366"
 270      9B26FB5F 
 270      6AF65CA0 
 270      D9F73057 
 270      A24FA469 
 271 01f0 F03B48B7 		.ascii	"\360;H\267C\372=\244\177\206t\207\005\257}4\332t;\324"
 271      43FA3DA4 
 271      7F867487 
 271      05AF7D34 
 271      DA743BD4 
 272 0204 F9180DF7 		.ascii	"\371\030\015\367o\325l\231\325i\037\255\257\021\230"
 272      6FD56C99 
 272      D5691FAD 
 272      AF1198
ARM GAS  /tmp/cc7MSwG5.s 			page 21


 273 0213 0190DD05 		.ascii	"\001\220\335\005\351n\023f\2260UU\307\253\213\253\325"
 273      E96E1366 
 273      96305555 
 273      C7AB8BAB 
 273      D5
 274 0224 87B777ED 		.ascii	"\207\267w\355)\314P\341\343\333\016\222|R\224\305\256"
 274      29CC50E1 
 274      E3DB0E92 
 274      7C5294C5 
 274      AE
 275 0235 19426C30 		.ascii	"\031Bl0\226\2623\204\303\3044n\023^U\325\232\326\255"
 275      96B23384 
 275      C3C4346E 
 275      135E55D5 
 275      9AD6AD
 276 0248 674FBA54 		.ascii	"gO\272T5]\026_\026{BS\003E\341\016\341M\250Y\243\252"
 276      355D165F 
 276      167B4253 
 276      0345E10E 
 276      E14DA859 
 277 025e 2FFF4614 		.ascii	"/\377F\024:~R#\313\342\253\242\004\371R@\224\305\327"
 277      3A7E5223 
 277      CBE2ABA2 
 277      04F95240 
 277      94C5D7
 278 0271 C43B685B 		.ascii	"\304;h[j\354\322\344l\325M\357\013\3327\026\237_\011"
 278      6AECD2E4 
 278      6CD54DEF 
 278      0BDA3716 
 278      9F5F09
 279 0284 8B818FD8 		.ascii	"\213\201\217\330\325m\257\336\244.\336,Z\261\005\017"
 279      D56DAFDE 
 279      A42EDE2C 
 279      5AB1050F 
 280 0294 884CFBAA 		.ascii	"\210L\373\252\244\267O\354G\022\206\211VT\032\237\222"
 280      A4B74FEC 
 280      47128689 
 280      56541A9F 
 280      92
 281 02a5 C5B791C8 		.ascii	"\305\267\221\310w\314D\356\247D\276\303E\344\307\333"
 281      77CC44EE 
 281      A744BEC3 
 281      45E4C7DB 
 282 02b5 7688EACC 		.ascii	"v\210\352\314l\003\2157\010\265Hc5\020\251d\010\317"
 282      6C038D37 
 282      08B54863 
 282      3510A964 
 282      08CF
 283 02c7 25BE8993 		.ascii	"%\276\211\223\342\323)q'\024q\251\372\3409q<\324\221"
 283      E2D32971 
 283      271471A9 
 283      FAE03971 
 283      3CD491
 284 02da C5956206 		.ascii	"\305\225b\006p1]\024\015\355\313\242'\203%\001\257\365"
 284      70315D14 
 284      0DEDCBA2 
 284      27832501 
ARM GAS  /tmp/cc7MSwG5.s 			page 22


 284      AFF5
 285 02ec 07081E7E 		.ascii	"\007\010\036~\255\025\210\343\357f\335\036\251\271B"
 285      AD1588E3 
 285      EF66DD1E 
 285      A9B942
 286 02fb BC014B2E 		.ascii	"\274\001K.\264.\270q\177\226^6\360\242\221\337\372Z"
 286      B42EB871 
 286      7F965E36 
 286      F0A291DF 
 286      FA5A
 287 030d ACF7EC04 		.ascii	"\254\367\354\004\371\351:\234\230 \277e\352\337\177"
 287      F9E93A9C 
 287      9820BF65 
 287      EADF7F
 288 031c 0F7614AF 		.ascii	"\017v\024\257\240\332V\220\305\325\342m\220\213F\352"
 288      A0DA5690 
 288      C5D5E26D 
 288      908B46EA 
 289 032c C58C44A1 		.ascii	"\305\214D\241]$j\\k\022\000\007\266FL\335\264\205\003"
 289      5D246A5C 
 289      6B120007 
 289      B6464CDD 
 289      B48503
 290 033f D1A8D7A2 		.ascii	"\321\250\327\242$/v\220\244h\222d\012Z\234<k'\362\017"
 290      242F7690 
 290      A4689264 
 290      0A5A9C3C 
 290      6B27F20F 
 291 0353 C42C0626 		.ascii	"\304,\006&.\370\225\224\024Y|<\321\235\355 \226' $a"
 291      2EF89594 
 291      14597C3C 
 291      D19DED20 
 291      96272024 
 292 0368 BC246AE6 		.ascii	"\274$j\346k\365\270V4\340\031L\267u\353\345\331\035"
 292      6BF5B856 
 292      34E0194C 
 292      B775EBE5 
 292      D91D
 293 037a FB97C176 		.ascii	"\373\227\301v)qv\304l\3464!YlH\202\262\365\247Ke\023"
 293      297176C4 
 293      6CE63421 
 293      596C4882 
 293      B2F5A74B 
 294 0390 2B95E71C 		.ascii	"+\225\347\034K\305\307JE}WU3\274)\272\263\312\323\235"
 294      4BC5C74A 
 294      457D5755 
 294      33BC29BA 
 294      B3CAD39D 
 295 03a4 D7CEDCD3 		.ascii	"\327\316\334\323$N\300\356\274\013\215\360\240da\315"
 295      244EC0EE 
 295      BC0B8DF0 
 295      A06461CD 
 296 03b4 5C502D3B 		.ascii	"\\P-;\267\254\324<\303n\204\372\244\323Pu\273\353i\307"
 296      B7ACD43C 
 296      C36E84FA 
 296      A4D35075 
 296      BBEB69C7 
ARM GAS  /tmp/cc7MSwG5.s 			page 23


 297 03c8 6842A02F 		.ascii	"hB\240/$s\307\360\232:\206\327h\354pIZ\272H\334\213"
 297      2473C7F0 
 297      9A3A86D7 
 297      68EC7049 
 297      5ABA48DC 
 298 03dd F857ED0E 		.ascii	"\370W\355\016\271H\023\376\337\353\331\331\303N{\303"
 298      B94813FE 
 298      DFEBD9D9 
 298      C34E7BC3 
 299 03ed A4B6C86B 		.ascii	"\244\266\310kX;X\303:\305cX\351,\236\300\032\026Ww\333"
 299      583B58C3 
 299      3AC56358 
 299      E92C9EC0 
 299      1A165777 
 300 0402 95A4A31C 		.ascii	"\225\244\243\034\261\340\212\213\213\303b\026\253c\011"
 300      B1E08A8B 
 300      8BC36216 
 300      AB6309
 301 0411 E21FA79C 		.ascii	"\342\037\247\2348\352\"\311\331\370\224C9\3325\377\320"
 301      38EA22C9 
 301      D9F89443 
 301      39DA35FF 
 301      D0
 302 0422 D952F7C1 		.ascii	"\331R\367\301\035h\325\307\321\252\227\273,\307\015"
 302      1D68D5C7 
 302      D1AA97BB 
 302      2CC70D
 303 0431 1EA0A95B 		.ascii	"\036\240\251[7i=\355\004B5t\032\252n\332\272{\221\246"
 303      37693DED 
 303      04423574 
 303      1AAA6EDA 
 303      BA7B91A6 
 304 0445 9308B4D9 		.ascii	"\223\010\264\331e\356ii\246\236\226f\264\374\264\214"
 304      65EE6969 
 304      A69E9666 
 304      B4FCB48C 
 305 0455 44411BCC 		.ascii	"DA\033\314\377\341\217s\331S\013\333+>rq\330Rw\026O"
 305      FFE18F73 
 305      D9530BDB 
 305      2B3E7271 
 305      D8527716 
 306 046a 606DE927 		.ascii	"`m\351'\367\212S\311\314\351\270\203\276\376\035\313"
 306      F78A53C9 
 306      CCE9B883 
 306      BEFE1DCB 
 307 047a D53EC75C 		.ascii	"\325>\307\\\371X\256R\367\220d\343\352\367\311X\322"
 307      F958AE52 
 307      F79064E3 
 307      EAF7C958 
 307      D2
 308 048b 8208F338 		.ascii	"\202\010\3638\331)\226\317\261,\037\342a\271\267\255"
 308      D92996CF 
 308      B12C1FE2 
 308      61B9B7AD 
 309 049b 227F1ACB 		.ascii	"\"\177\032\313?&cy\353\317\310\362\025\226\345O\035"
 309      3F266379 
 309      EBCFC8F2 
ARM GAS  /tmp/cc7MSwG5.s 			page 24


 309      1596E54F 
 309      1D
 310 04ac B3EC138C 		.ascii	"\263\354\023\214\037\275G\311\3422\361W\220\3070\337"
 310      1FBD47C9 
 310      E232F157 
 310      90C730DF 
 311 04bc 8EF921CC 		.ascii	"\216\371!\314?\301\374[\314\317b~\031\362\224t\276\311"
 311      3FC1FC5B 
 311      CCCF627E 
 311      19F29474 
 311      BEC9
 312 04ce D2F905D2 		.ascii	"\322\371\005\322\271\264\223\201\236\032\273\266-\273"
 312      B9B49381 
 312      9E1ABBB6 
 312      2DBB
 313 04dc 46D6274E 		.ascii	"F\326'N\336\024nk\305\261=\"\272\255\211\022\231\016"
 313      DE146E6B 
 313      C5B13D22 
 313      BAAD8912 
 313      990E
 314 04ee 2E721BDD 		.ascii	".r\033\335VJ\030IX\206U&K\246iU}\365\365dZE\356\247"
 314      564A1849 
 314      58865526 
 314      4BA66955 
 314      7DF5F564 
 315 0506 9E563554 		.ascii	"\236V5T/\260\235\373\261S\272\305\242\336\366\365q\026"
 315      2FB09DFB 
 315      B153BAC5 
 315      A2DEF6F5 
 315      7116
 316 0518 62CD5745 		.ascii	"b\315WE\237,\376\015\351_kM\277=\206$|\210U\246\233"
 316      9F2CFE0D 
 316      E95F6B4D 
 316      BF3D8624 
 316      7C8855A6 
 317 052d E93F2FFB 		.ascii	"\351?/\373\350\335\324\324_\370\032'\205\262\370\274"
 317      E8DDD4D4 
 317      5FF81A27 
 317      85B2F8BC 
 318 053d 940580CD 		.ascii	"\224\005\200\315q\300N\005\352\261\037\203\333\373\246"
 318      71C04E05 
 318      EAB11F83 
 318      DBFBA6
 319 054c 14845B07 		.ascii	"\024\204[\007\312O\350\362\223\272-T\227/\241,>\347"
 319      CA4FE8F2 
 319      93BA2D54 
 319      972FA12C 
 319      3EE7
 320 055e 90850146 		.ascii	"\220\205\001F\022\276\305*sL\262hm\371\252\365\027\263"
 320      12BEC52A 
 320      734CB268 
 320      6DF9AAF5 
 320      17B3
 321 0570 55B53BFD 		.ascii	"U\265;\375*\265@\256h\352\224\305Z\224\310\333\036\035"
 321      2AB540AE 
 321      68EA94C5 
 321      5A94C8DB 
ARM GAS  /tmp/cc7MSwG5.s 			page 25


 321      1E1D
 322 0582 B67312B9 		.ascii	"\266s\022\271\326\010\026\255\203\275\353\030\314g\000"
 322      D60816AD 
 322      83BDEB18 
 322      CC6700
 323 0591 7B71DB7C 		.ascii	"{q\333|$\216\177h_\273o\267\036\332/\2210J\360\230\007"
 323      248E7F68 
 323      5FBB6FB7 
 323      1EDA2F91 
 323      304AF098 
 324 05a6 F713E609 		.ascii	"\367\023\346\011f\352\361W\0226\361pb\033b\022\265\354"
 324      66EAF157 
 324      1236F170 
 324      621B6212 
 324      B5EC
 325 05b8 BDA5011C 		.ascii	"\275\245\001\034\361\024/G7\335\216\215-5\253\266\351"
 325      F1142F47 
 325      37DD8E8D 
 325      2D35ABB6 
 325      E9
 326 05c9 D4DE3BA9 		.ascii	"\324\336;\251j\227r\251\266~W\035_O\365\352\315\027"
 326      6A9772A9 
 326      B67E571D 
 326      5F4FF5EA 
 326      CD17
 327 05db 63F353BD 		.ascii	"c\363S\275\244\371\267;X\326\331\223\367\321\346\337"
 327      A4F9B73B 
 327      58D6D993 
 327      F7D1E6DF 
 328 05eb E66AFED8 		.ascii	"\346j\376\330\236Y\035\233\227\305\373z%\323_\323\251"
 328      9E591D9B 
 328      97C5FB7A 
 328      25D35FD3 
 328      A9
 329 05fc 33B72FC2 		.ascii	"3\267/\302F\226\243\005\035\360\232\325w?;)\325cm&\204"
 329      4696A305 
 329      1DF09AD5 
 329      773F3B29 
 329      D5636D26 
 330 0611 6E8953DF 		.ascii	"n\211S\337)\003\0066c\367\277\211\232\322i\370\3141"
 330      29030636 
 330      63F7BF89 
 330      9AD269F8 
 330      CC31
 331 0623 A2D18ACF 		.ascii	"\242\321\212\317\356\301.A\301N\360\200\331\317Ub\337"
 331      EEC12E41 
 331      C14EF080 
 331      D9CF5562 
 331      DF
 332 0634 B3605F3B 		.ascii	"\263`_;\0063R\366\003\013\366\035\017\230}\274\030\273"
 332      063352F6 
 332      030BF61D 
 332      0F987DBC 
 332      18BB
 333 0646 C882B539 		.ascii	"\310\202\2659\0063Rv\231\005;\317\003f\037\000\305~"
 333      06335276 
 333      99053BCF 
ARM GAS  /tmp/cc7MSwG5.s 			page 26


 333      03661F00 
 333      C57E
 334 0658 64C12E39 		.ascii	"d\301.9\0063Rv\215\005\273\312\003\346\263\247\254f"
 334      06335276 
 334      8D05BBCA 
 334      03E6B3A7 
 334      AC66
 335 066a 1F03362E 		.ascii	"\037\0036.\315)\230\221\262\231,\330$\036\260\333\355"
 335      CD299891 
 335      B2992CD8 
 335      241EB0DB 
 335      ED
 336 067b 299BC582 		.ascii	")\233\305\202Mq\014f\244\354%\026\354\005\036\260\276"
 336      4D710C66 
 336      A4EC2516 
 336      EC051EB0 
 336      BE
 337 068c F694CD66 		.ascii	"\366\224\315f\301f8\0063R6\227\005\253\345\001\033h"
 337      C1663806 
 337      33523697 
 337      05ABE501 
 337      1B68
 338 069e 4FD97C16 		.ascii	"O\331|\026l\216c0#e+X\260\005<`\017\330S\366.\013\266"
 338      6C8E6330 
 338      23652B58 
 338      B0053C60 
 338      0FD853F6 
 339 06b5 D8319891 		.ascii	"\3301\230\221\262\367X\260Wx\300\036\266\247\354\003"
 339      B2F758B0 
 339      5778C01E 
 339      B6A7EC03 
 340 06c5 166CA963 		.ascii	"\026l\251c0#e\253Y\2607y\300\036\263\247l\015\013\366"
 340      302365AB 
 340      59B03779 
 340      C01EB3A7 
 340      6C0D0BF6 
 341 06d9 8E633023 		.ascii	"\216c0#e\353X\260\345<`O\332S\266\201\005[\345\030\314"
 341      65EB58B0 
 341      E53C604F 
 341      DA53B681 
 341      055BE518 
 342 06ee 48D95E16 		.ascii	"H\331^\026\254\236\007\354i\013\312\342\037\253zd\230"
 342      AC9E07EC 
 342      690BCAE2 
 342      1FAB7A64 
 342      98
 343 06ff 7E4B62A6 		.ascii	"~Kb\246Mk\322\364\000\307\341\030-$06\2449\215\310\014"
 343      4D6BD2F4 
 343      00C7E118 
 343      2D243036 
 343      A4398DC8 
 344 0714 7C9340F9 		.ascii	"|\223@\371\2265\3328O\243\325-<\210I\006\300\271\333"
 344      9635DA38 
 344      4FA3D52D 
 344      3C884906 
 344      C0B9DB
 345 0727 98D0F743 		.ascii	"\230\320\367C\307`&S&`\235\332\357!\333\203\022\263"
ARM GAS  /tmp/cc7MSwG5.s 			page 27


 345      C7602653 
 345      26609DDA 
 345      EF21DB83 
 345      12B3
 346 0739 1FD3DBFA 		.ascii	"\037\323\333\372Y\230\372Jd\253\347;)#N\005-\353%\272"
 346      5998FA4A 
 346      64ABE73B 
 346      29234E05 
 346      2DEB25BA 
 347 074d D37320CD 		.ascii	"\323s \315j\247\021\001\222W\265\263\204oXK8\302#\246"
 347      6AA71101 
 347      9257B5B3 
 347      846F584B 
 347      38C223A6 
 348 0761 2443FBB1 		.ascii	"$C\373\261m\363oT[c\"\377\376\323\332\231\037\3513\204"
 348      6DF36F54 
 348      5B6322FF 
 348      FED3DA99 
 348      1FE93384 
 349 0775 369C21B4 		.ascii	"6\234!\264\246\231C\314\006\207[P\020\210\231\3310\264"
 349      A69943CC 
 349      06875B50 
 349      108899D9 
 349      30B4
 350 0787 9C32A800 		.ascii	"\2342\250\000c<|k\3032U\235\340u\300\310\276\017uF~"
 350      633C7C6B 
 350      C332559D 
 350      E075C0C8 
 350      BE0F7546 
 351 079c 4046DA7E 		.ascii	"@F\332~\006F.9f\344v\023#\261\333\2353\022\327\310\025"
 351      06462E39 
 351      66E47613 
 351      23B1DB9D 
 351      3312D7C8 
 352 07b1 64645CFA 		.ascii	"dd\\\372OgdJ\272SF\3722\214\340\204\255\017\235\260"
 352      4F67644A 
 352      BA5346FA 
 352      328CE084 
 352      AD0F9DB0 
 353 07c5 5D27CC4C 		.ascii	"]'\314L>a#\364\250\256\353"
 353      3E6123F4 
 353      A8AEEB
 354 07d0 8C6B1247 		.ascii	"\214k\022Gv\222\225\016r;\325LI\215]\3309_\233\203\323"
 354      7692950E 
 354      723BD54C 
 354      498D5DD8 
 354      395F9B83 
 355 07e5 EDA81AA4 		.ascii	"\355\250\032\244\235\324u\350\0365\274Y\273\320\021"
 355      9DD475E8 
 355      1E35BC59 
 355      BBD011
 356 07f4 51B0BA9F 		.ascii	"Q\260\272\237\0046>\266\352y}\201\340~\014\036~\"\\"
 356      04363EB6 
 356      EA797D81 
 356      E07E0C1E 
 356      7E225C
 357 0807 D32EC753 		.ascii	"\323.\307S\372\231\007t\363\230\342\"\034\275\336\301"
ARM GAS  /tmp/cc7MSwG5.s 			page 28


 357      FA990774 
 357      F398E222 
 357      1CBDDEC1 
 358 0817 3C3A35A5 		.ascii	"<:5\245_\325YN\342\037\030\310\314V\346(\376'Vv\261"
 358      5FD5594E 
 358      E21F18C8 
 358      CC56E628 
 358      FE275676 
 359 082c 0FE7B280 		.ascii	"\017\347\262\200\276\015r\250q\2348\021\2451\335E\226"
 359      BE0D72A8 
 359      719C3811 
 359      A531DD45 
 359      96
 360 083d 8E3698A4 		.ascii	"\2166\230\244\301\261\276\360\021V\231\351\352\260t"
 360      C1B1BEF0 
 360      115699E9 
 360      EAB074
 361 084c B4F7263A 		.ascii	"\264\367&:\301'_q\254/\030\226\216dq\201$i\260\235\025"
 361      C1275F71 
 361      AC2F1896 
 361      8E647181 
 361      2469B09D 
 362 0861 A8418709 		.ascii	"\250A\207\011\372dq\226\213\014U\265.f}\026f\372\216"
 362      FA647196 
 362      8B0C55B5 
 362      2E667D16 
 362      66FA8E
 363 0874 85EF6385 		.ascii	"\205\357c\205\037\273\262k\276H\350\267X\022y\200\015"
 363      1FBBB26B 
 363      BE48E8B7 
 363      58127980 
 363      0D
 364 0885 20E23B59 		.ascii	" \342;Y\273gh\222\237\215\222\377\312F\362\017\330\001"
 364      BB676892 
 364      9F8D92FF 
 364      CA46F20F 
 364      D801
 365 0897 49C205AC 		.ascii	"I\302\005\2542\257\243\344\267\337L%?\217K\362\037["
 365      32AFA3E4 
 365      B7DF4C25 
 365      3F8F4BF2 
 365      1F5B
 366 08a9 4A7E9E73 		.ascii	"J~\236s\311kx\007\023\213v\262\270\3101\230/\231\032"
 366      C96B7807 
 366      138B76B2 
 366      B8C83198 
 366      2F991A
 367 08bc E7316A5C 		.ascii	"\3471j\\\200j\\\350\"\213\355\213\214\312|.\303\244"
 367      806A5CE8 
 367      228BED8B 
 367      8CCA7C2E 
 367      C3A4
 368 08ce 4C83E4B4 		.ascii	"L\203\344\264\242\355|U\215\275\270\333\350C_4\3439"
 368      A2ED7C55 
 368      8DBDB8DB 
 368      E8435F34 
 368      E339
ARM GAS  /tmp/cc7MSwG5.s 			page 29


 369 08e0 9C652EDC 		.ascii	"\234e.\334\215\"\241\036g\216c0\237\001l\3754\2765s"
 369      8D22A11E 
 369      678E6330 
 369      9F016CFD 
 369      34BE3573 
 370 08f4 35BEDEDD 		.ascii	"5\276\336\335\035\205\362*\266\373\272\331\\\336\177"
 370      1D85F22A 
 370      B6FBBAD9 
 370      5CDE7F
 371 0903 BB69B238 		.ascii	"\273i\2628\016-\361u\016{\201\001\346D\006.zS\273\375"
 371      0E2DF175 
 371      0E7B8101 
 371      E644062E 
 371      7A53BBFD 
 372 0917 348E9A44 		.ascii	"4\216\232D\324I\254\345\212\276\206N#\335/\315p)\003"
 372      D449ACE5 
 372      8ABE864E 
 372      23DD2FCD 
 372      702903
 373 092a 7123DC35 		.ascii	"q#\3345\2165t\243`\364\315\204\0062\304\256@\236Ne\230"
 373      8E3574A3 
 373      60F4CD84 
 373      0632C4AE 
 373      409E4E65 
 374 093f C7042A19 		.ascii	"\307\004*\031\306\020_g\014\361M4\304\267\320\020\337"
 374      C6105F67 
 374      0CF14D34 
 374      C4B7D010 
 374      DF
 375 0950 C17C196B 		.ascii	"\301|\031k\216v\243\374r\027\023\272\376\340\230o\237"
 375      8E76A3FC 
 375      721713BA 
 375      FEE0986F 
 375      9F
 376 0961 493B76CD 		.ascii	"I;v\315,e\233\271\312c{\366\213\022\304\253\377\241"
 376      2C659BB9 
 376      CA637BF6 
 376      8B12C4AB 
 376      FFA1
 377 0973 419BE7D0 		.ascii	"A\233\347\320%\361\311\231N\021\215\326\3346\315\020"
 377      25F1C999 
 377      4E118DD6 
 377      DC36CD10 
 378 0983 11CCE481 		.ascii	"\021\314\344\201{\300\202@\253\017\273\243\001\276\003"
 378      7BC08240 
 378      AB0FBBA3 
 378      01BE03
 379 0992 6728F325 		.ascii	"g(\363%\242\240\205\230/\306\3745\314O`\376\025\346"
 379      A2A08598 
 379      2FC6FC35 
 379      CC4F60FE 
 379      15E6
 380 09a4 5F637E06 		.ascii	"_c~\006\363\363\230_\306\274\035\363i\250\342:\314\227"
 380      F3F3985F 
 380      C6BC1DF3 
 380      69A8E23A 
 380      CC97
ARM GAS  /tmp/cc7MSwG5.s 			page 30


 381 09b6 60FE0AE6 		.ascii	"`\376\012\346\257a\376>\346\365<\006@=$\263\332<7\323"
 381      AF61FE3E 
 381      E6F53C06 
 381      403D24B3 
 381      DA3C37D3 
 382 09ca E9069241 		.ascii	"\351\006\222A\226\255+\027m\231!\2768A\335\336W\367"
 382      96AD2B17 
 382      6D9921BE 
 382      3841DDDE 
 382      57F7
 383 09dc 354B7910 		.ascii	"5Ky\020\223t\247Y\304\227;\3310\211GW\353\261\375\025"
 383      9374A759 
 383      C4973BD9 
 383      30894757 
 383      EBB1FD15 
 384 09f0 993F4B74 		.ascii	"\231?Kt\265\3361\033f\3014\306\005C\011k\344A\264\232"
 384      B5DE311B 
 384      66C134C6 
 384      0543096B 
 384      E441B49A 
 385 0a04 9E5BDBD9 		.ascii	"\236[\333\331t\306\316f\240\235\315D[\231\205\371\032"
 385      74C6CE66 
 385      A09DCD44 
 385      5B9985F9 
 385      1A
 386 0a15 B4897598 		.ascii	"\264\211u\230o\342\261\214\347\331Y\355\336L}\237\365"
 386      6FE2B18C 
 386      E7D959ED 
 386      DE4C7D9F 
 386      F5
 387 0a26 67898426 		.ascii	"g\211\204&3\244NAR\247J\206\301\363p\246\323mh\243\260"
 387      33A44E41 
 387      52A74A86 
 387      C1F370A6 
 387      D36D68A3 
 388 0a3b 4FB4CFC6 		.ascii	"O\264\317\306Yt\232P\215s\266I\343S\314\331b\227\275"
 388      59749A50 
 388      8D73B649 
 388      E353CCD9 
 388      6297BD
 389 0a4e 922C36BA 		.ascii	"\222,6\272\322\310pb2\030\016\020<\301\005\225\0153"
 389      D2C87062 
 389      32180E10 
 389      3CC10595 
 389      0D33
 390 0a60 A673D5DD 		.ascii	"\246s\325\335\310.4\271\237dD\303\263\005\222p2\223"
 390      C82E34B9 
 390      9F6444C3 
 390      B3059270 
 390      3293
 391 0a72 8E08EE8C 		.ascii	"\216\010\356\214\304\275\263\211{\"\363\350\345\304"
 391      C4BDB389 
 391      7B22F3E8 
 391      E5C4
 392 0a80 6DFDED03 		.ascii	"m\375\355\003r\231\364\034i\2028Y\334\211c\305.\227"
 392      7299F41C 
 392      69823859 
ARM GAS  /tmp/cc7MSwG5.s 			page 31


 392      DC8963C5 
 392      2E97
 393 0a92 CBB29A24 		.ascii	"\313\262\232$L\3102\011\337j\246i\2775\030k\337F\006"
 393      4CC83209 
 393      DF6AA669 
 393      BF35186B 
 393      DF4606
 394 0aa5 67AB7DB9 		.ascii	"g\253}\271\370\241\350\337\306\005\337\272j\315\327"
 394      F8A1E8DF 
 394      C605DFBA 
 394      6ACDD7
 395 0ab4 B7BC83A1 		.ascii	"\267\274\203\241\342~\034\370bY\251w\216-pb3\032o!\322"
 395      E27E1CF8 
 395      6259A977 
 395      8E2D7062 
 395      331A6F21 
 396 0ac9 3E8820BB 		.ascii	">\210 \273\235\202H\302\021\254r\304\024\232\304\326"
 396      9D8248C2 
 396      11AC72C4 
 396      149AC4D6 
 397 0ad9 57E309ED 		.ascii	"W\343\011\355#\\a\311\306F\032\200\353\201\311\3618"
 397      235C61C9 
 397      C6461A80 
 397      EB81C9F1 
 397      38
 398 0aea 66E70293 		.ascii	"f\347\002\223\2754\214\245G\264\2775\2039\364\243\373"
 398      BD348CA5 
 398      47B4BF35 
 398      8339F4A3 
 398      FB
 399 0afb E3313639 		.ascii	"\343169\345\002\303\275c<C\037\213\035\240\304Q\260"
 399      E502C3BD 
 399      633C431F 
 399      8B1DA0C4 
 399      51B0
 400 0b0d 761EB024 		.ascii	"v\036\260$K\215\207Y\260I\331N\301\214\224\035e\301"
 400      4B8D8759 
 400      B049D94E 
 400      C18C941D 
 400      65C1
 401 0b1f 5EE0014B 		.ascii	"^\340\001K\262 \327\3228?\345\2511\233-`\\\034t\031"
 401      B220D7D2 
 401      383FE5A9 
 401      319B2D60 
 401      5C1C7419 
 402 0b33 8E1B99F6 		.ascii	"\216\033\231\366\216\017\332\220\205\253\231\211\240"
 402      8E0FDA90 
 402      85AB9989 
 402      A0
 403 0b40 29E57923 		.ascii	")\345y#\255\017\324\321s/_\273p\363'\333\330\007LM\023"
 403      AD0FD4D1 
 403      732F5FBB 
 403      70F327DB 
 403      D8074C4D 
 404 0b55 C2EC9A3E 		.ascii	"\302\354\232>\355\312\262\261\365\016\337I\302\"\307"
 404      EDCAB2B1 
 404      F50EDF49 
ARM GAS  /tmp/cc7MSwG5.s 			page 32


 404      C222C7
 405 0b64 02366AEB 		.ascii	"\0026j\353X\265!\372z\203\007\316g\241/\253\017\333"
 405      58B521FA 
 405      7A8307CE 
 405      67A12FAB 
 405      0FDB
 406 0b76 A165B119 		.ascii	"\241e\261\031\035\337'8\006~\212y+\346\3071\377\002"
 406      1DDF2738 
 406      067E8A79 
 406      2BE6C731 
 406      FF02
 407 0b88 F32F313F 		.ascii	"\363/1?\211y\033;N\376cP%ay\266\311\333\032\035S\252"
 407      89791B3B 
 407      4EFE6350 
 407      256179B6 
 407      C9DB1A1D 
 408 0b9e 7EA892B1 		.ascii	"~\250\222\261\316n\326o\343p\233~I\035\356ytR\037\230"
 408      CE6ED66F 
 408      E3709B7E 
 408      491DEE79 
 408      74521F98 
 409 0bb2 EC845AE5 		.ascii	"\354\204Z\345?\212\335\255\\\354\332\316c5vah\357!\324"
 409      3F8ADDAD 
 409      5CECDACE 
 409      63357661 
 409      68EF21D4 
 410 0bc6 20BBB38D 		.ascii	" \273\263\215\207\376\325\270\271\250\2725_v\365\300"
 410      87FED5B8 
 410      B9A8BA35 
 410      5F76F5C0 
 411 0bd6 92E1E43A 		.ascii	"\222\341\344:\335E\262\261\377+\256\304>@vF\242\320"
 411      DD45B2B1 
 411      FF2BAEC4 
 411      3E407646 
 411      A2D0
 412 0be8 EE8AF3F1 		.ascii	"\356\212\363\361\241\231\017S\303Z\331v\007\215tE\325"
 412      A1990F53 
 412      C35AD976 
 412      078D7445 
 412      D5
 413 0bf9 E5A5D449 		.ascii	"\345\245\324I\302\036>\270\275n;<\253S\221\026\026\321"
 413      C21E3EB8 
 413      BD6E3B3C 
 413      AB539116 
 413      16D1
 414 0c0b 1A9F77DE 		.ascii	"\032\237w\336\222\260\210\003_^\232\242M\277\307\271"
 414      92B08803 
 414      5F5E9AA2 
 414      4DBFC7B9 
 415 0c1b 89494CEB 		.ascii	"\211IL\353\222r\3704\002\021\241Mt\233\206\316\005\307"
 415      9272F834 
 415      0211A14D 
 415      749B86CE 
 415      05C7
 416 0c2d B76BC7FB 		.ascii	"\267k\307\373\334)\007\317\211\023b+\217o\227\346\250"
 416      DC2907CF 
 416      8913622B 
ARM GAS  /tmp/cc7MSwG5.s 			page 33


 416      8F6F97E6 
 416      A8
 417 0c3e B1892ED4 		.ascii	"\261\211.\324\323\204\244\261>\230\030\276\326\303\023"
 417      D384A4B1 
 417      3E9818BE 
 417      D6C313
 418 0c4d B8CF4766 		.ascii	"\270\317Gf\010\015\016cW\215\256w\011\033du`2\006\\"
 418      080D0E63 
 418      578DAE77 
 418      091B6475 
 418      6032065C 
 419 0c61 8B1CC3F9 		.ascii	"\213\034\303\371\014p\357\031\341^\346\201\263\033\325"
 419      0C70EF19 
 419      E15EE681 
 419      B31BD5
 420 0c70 01EE0323 		.ascii	"\001\356\003#\334R\307pF\352V\033\341\336\342\201\263"
 420      DC52C770 
 420      46EA561B 
 420      E1DEE281 
 420      B3
 421 0c81 1BD6016E 		.ascii	"\033\326\001n\215\021n\231c8#u\353\214p\357\362\300"
 421      8D116E99 
 421      63382375 
 421      EB8C70EF 
 421      F2C0
 422 0c93 590DED56 		.ascii	"Y\015\355V\037\326\200eq\222\233\230W\265\233x\260)"
 422      1FD68065 
 422      71929B98 
 422      57B59B78 
 422      B029
 423 0ca5 983F8FF9 		.ascii	"\230?\217\371\013\230O\307|\006\346/\2729&S\252\233"
 423      0B984FC7 
 423      7C06E62F 
 423      BA392653 
 423      AA9B
 424 0cb7 994CD577 		.ascii	"\231L\325w\341\230\334\354M\272\320b\240;\361\352\243"
 424      E198DCEC 
 424      4DBAD062 
 424      A03BF1EA 
 424      A3
 425 0cc8 2CBE8EDD 		.ascii	",\276\216\335\342\015<\375;\001'~[\321\013\357\303\374"
 425      E20D3CFD 
 425      3B01277E 
 425      5BD10BEF 
 425      C3FC
 426 0cda 7BCC2F61 		.ascii	"{\314/a~\025\363v\236\251\340\222\304\011a\203\177a"
 426      7E15F376 
 426      9EA9E092 
 426      C4096183 
 426      7F61
 427 0cec 5D30D924 		.ascii	"]0\331$\325\352?\027w\015=4\200:\267S\017<\333m\355"
 427      D5EA3F17 
 427      770D3D34 
 427      803AB753 
 427      0F3CDB6D 
 428 0d01 81BBA720 		.ascii	"\201\273\247 \365%\267#RW\307I\275Q\003\230\353\230"
 428      F525B723 
ARM GAS  /tmp/cc7MSwG5.s 			page 34


 428      5257C749 
 428      BD510398 
 428      EB98
 429 0d13 D47936A4 		.ascii	"\324y6\244\336\220\202\3249\316H5\036\035&\000\013\034"
 429      DE9082D4 
 429      39CE4835 
 429      1E1D2600 
 429      0B1C
 430 0d25 93BAD086 		.ascii	"\223\272\320\206\324\353R\220:\337\031\251\263E#\260"
 430      D4EB5290 
 430      3ADF19A9 
 430      B34523B0 
 431 0d35 2C2E764C 		.ascii	",.vL\352\022\033R{\246 uQ\202\324ta2\235\267\253\343"
 431      EA121B52 
 431      7BA62075 
 431      5182D474 
 431      61329DB7 
 432 0d4b C4D14926 		.ascii	"\304\321I&\377x\276@\026_v\247\223e\236.\266\247\003"
 432      FF78BE40 
 432      165F76A7 
 432      93659E2E 
 432      B6A703
 433 0d5e C8037AD3 		.ascii	"\310\003z\323\264\254\227D\256E\002\375e\235S\233~\215"
 433      B4AC9744 
 433      AE4502FD 
 433      659D539B 
 433      7E8D
 434 0d70 C3E26B6E 		.ascii	"\303\342kn\262\332p\3044\326r\2566\274\3416\25564\270"
 434      B2DA70C4 
 434      34D672AE 
 434      36BCE136 
 434      AD3634B8 
 435 0d84 257A37F5 		.ascii	"%z7\365Z\303\327],\326\032\272X\2565\\\350\342|\255"
 435      5AC3D75D 
 435      2CD61ABA 
 435      58AE355C 
 435      E8E27CAD 
 436 0d98 21419A2C 		.ascii	"!A\232,\276\211~\364-\267\365Z\303\255\302B5v\246\365"
 436      BE897EF4 
 436      2DB7F55A 
 436      C3ADC242 
 436      3576A6F5 
 437 0dac D2E9AF7B 		.ascii	"\322\351\257{\277MVt\325k\355\177\0357^4\315\256\334"
 437      BF4D5674 
 437      D56BED7F 
 437      1D375E34 
 437      CDAEDC
 438 0dbf F656B2D2 		.ascii	"\366V\262\322m?\273\342\335\200l:\327v\023]/|\017\203"
 438      6D3FBBE2 
 438      DD806C3A 
 438      D776135D 
 438      2F7C0F83 
 439 0dd3 9F935D1D 		.ascii	"\237\223]\035\356?\022B\352\315\301\317\373\215\270"
 439      EE3F1242 
 439      EACDC1CF 
 439      FB8DB8
 440 0de2 6E509F3A 		.ascii	"nP\237:\364\201)PC\343;\334\257\237\233vT\256v\265~"
ARM GAS  /tmp/cc7MSwG5.s 			page 35


 440      F4812950 
 440      43E33BDC 
 440      AF9F9B76 
 440      54AE76B5 
 441 0df7 FFDCF098 		.ascii	"\377\334\360\230,\256s\223=\260\365f*_\244\253\033\353"
 441      2CAE7393 
 441      3DB0F566 
 441      2A5FA4AB 
 441      1BEB
 442 0e09 B9A8AC6D 		.ascii	"\271\250\254m\324\266I\226\343[~\033E\035\262\023q\225"
 442      D4B64996 
 442      E35B7E1B 
 442      451DB213 
 442      7195
 443 0e1b 1EAFD237 		.ascii	"\036\257\3227jeq\233c0\237\025\330\016\004;\310\003"
 443      6A65719B 
 443      63309F15 
 443      D80E043B 
 443      C803
 444 0e2d 66BF52A2 		.ascii	"f\277R\242\203\321\227\031\233\035\203\371L\342K\274"
 444      83D19719 
 444      9B1D83F9 
 444      4CE24BBC 
 445 0e3d B9B31123 		.ascii	"\271\263\021#\206\030\346\2330\337\314\023=\254q3+\001"
 445      8618E69B 
 445      30DFCC13 
 445      3DAC7133 
 445      2B01
 446 0e4f E37137B3 		.ascii	"\343q7\263\336\271\330\255>\254\341\312\342j\354\254"
 446      DEB9D8AD 
 446      3EACE1CA 
 446      E26AECAC 
 447 0e5f 0D3C24AD 		.ascii	"\015<$\255J\220\024\1779\2129\007E>\222P\333\315\330"
 447      4A90147F 
 447      398A3907 
 447      453E9250 
 447      DBCDD8
 448 0e72 937E2BBC 		.ascii	"\223~+\274\242\2523\261\273\177CdLa$a!>\267\302}\253"
 448      A2AA33B1 
 448      BB7F4364 
 448      4C612461 
 448      213EB7C2 
 449 0e88 4DAC8F8D 		.ascii	"M\254\217\215\321\312j]cv\215H\333\202\3409EE\215\242"
 449      D1CA6A5D 
 449      63768D48 
 449      DB82E039 
 449      45458DA2 
 450 0e9c DF09AF91 		.ascii	"\337\011\257\221\376q\350\213\307\036\326\234\236}%"
 450      FE71E88B 
 450      C71ED69C 
 450      9E7D25
 451 0eab 8DBF2D6E 		.ascii	"\215\277-n\303\017\273h\216j\301\225Kc\347\324\304&"
 451      C30FBB68 
 451      8E6AC195 
 451      4B63E7D4 
 451      C426
 452 0ebd AAEDED7F 		.ascii	"\252\355\355\177\025\034\2749\270+\265\233\262\377\361"
ARM GAS  /tmp/cc7MSwG5.s 			page 36


 452      151CBC39 
 452      B82BB59B 
 452      B2FFF1
 453 0ecc 88F8B0F1 		.ascii	"\210\370\260\361\331op\330\330\215^j]\267\224S4#\014"
 453      D96F70D8 
 453      D88D5E6A 
 453      5DB79453 
 453      34230C
 454 0edf A1A3C9DC 		.ascii	"\241\243\311\334\377?.\366\321\273\251{\377\221\367"
 454      FF3F2EF6 
 454      D1BBA97B 
 454      FF91F7
 455 0eee 1A44B53A 		.ascii	"\032D\265:\233\016[P\311%i\200V#T\312\336\037k\376~"
 455      9B0E5B50 
 455      C9256980 
 455      562354CA 
 455      DE1F6BFE 
 456 0f03 35856BC0 		.ascii	"5\205k\300\305\315\355\310\216\023\270t\003\\\313\342"
 456      C5CDEDC8 
 456      8E13B874 
 456      035CCBE2 
 457 0f13 8EBF8D61 		.ascii	"\216\277\215a\365\343!.\035k`B\262M\327\216\374e\015"
 457      F5E3212E 
 457      1D6B6042 
 457      B24DD78E 
 457      FC650D
 458 0f26 2E881C46 		.ascii	".\210\034F\321\326vO)Z#\216,\036E\367\332l\026o\333"
 458      D1D6764F 
 458      295A238E 
 458      2C1E45F7 
 458      DA6C166F 
 459 0f3b 5C74AFCD 		.ascii	"\\t\257\315\\\002\276tt\241\263=\213\326\366\227/\337"
 459      5C02BE74 
 459      74A1B33D 
 459      8BD6F697 
 459      2FDF
 460 0f4d 4C47AE4F 		.ascii	"LG\256O1\224\330\327\275S\241\304g\346P\242\211n\\|"
 460      3194D8D7 
 460      BD53A1C4 
 460      67E650A2 
 460      896E5C7C 
 461 0f61 C6154CB4 		.ascii	"\306\025L\264t\357\030L\234\354n\031L\264u7\006\023"
 461      74EF184C 
 461      9CEC6E19 
 461      4CB47537 
 461      0613
 462 0f73 DAED2B89 		.ascii	"\332\355+\211\333.\346\366\224\036\361\333n\346v]\342"
 462      DB2EE6F6 
 462      941EF1DB 
 462      6EE6765D 
 462      E2
 463 0f84 B687B188 		.ascii	"\266\207\261\210\244\021\311gLDr\034\235\334\3476\021"
 463      A411C967 
 463      4C44721C 
 463      9DDCE736 
 463      11
 464 0f95 896ED8CD 		.ascii	"\211n\330\315\2355l\260\246M\245"
ARM GAS  /tmp/cc7MSwG5.s 			page 37


 464      9D356CB0 
 464      A64DA5
 465 0fa0 1B707B9A 		.ascii	"\033p{\232c4\177Z\007\314\216k5\266\376\250\350\263"
 465      63347F5A 
 465      07CC8E6B 
 465      35B6FEA8 
 465      E8B3
 466 0fb2 3039C3A3 		.ascii	"09\303\243\262x\026\330H\365\024\276\341\333aU\346("
 466      B27816D8 
 466      48F514BE 
 466      E1DB6155 
 466      E628
 467 0fc4 DAE4F75C 		.ascii	"\332\344\367\\6\271\362h\255\303}\264\266C\344\014\303"
 467      36B9F268 
 467      ADC37DB4 
 467      B643E40C 
 467      C3
 468 0fd5 05B4C797 		.ascii	"\005\264\307\227{t\312\036/\233\355\361H\035\332\343"
 468      7B74CA1E 
 468      2F9BEDF1 
 468      481DDAE3 
 469 0fe5 652E7B5C 		.ascii	"e.{\\\326\203\261=\355^C\017K\303\373\250\207\321\360"
 469      D683B13D 
 469      ED5E430F 
 469      4BC3FBA8 
 469      87D1F0
 470 0ff8 784CE932 		.ascii	"xL\3512cJW\320"
 470      634A57D0 
 471 1000 947EB431 		.ascii	"\224~\2641%I8\206\374\177\337i\037\271\352h\255\266"
 471      25493886 
 471      FC7FDF69 
 471      1FB9EA68 
 471      ADB6
 472 1012 324E7F20 		.ascii	"2N\177 \340+3\236\263 )\266\372h\326\212\247\371U\371"
 472      E02B339E 
 472      B32029B6 
 472      FA68D68A 
 472      A7F955F9 
 473 1026 E251A2CA 		.ascii	"\342Q\242\312j\017Q\345\271\316\251r\212\307\244\312"
 473      6A0F51E5 
 473      B9CEA972 
 473      8AC7A4CA 
 474 1036 2B5495E4 		.ascii	"+T\225\344~jU\216\357\331Q\2253zZ\252\362\225\236\316"
 474      7E6A558E 
 474      EFD95195 
 474      337A5AAA 
 474      F2959ECE 
 475 104a 5599204E 		.ascii	"U\231 N\026\247z\210*\237\367\330\251ruO\016UZ\205\224"
 475      16A77A88 
 475      2A9FF7D8 
 475      A972754F 
 475      0E555A85 
 476 105f 4C7BB4A5 		.ascii	"L{\264\245\363h4?`\3647\301C\362I\036\303\012\371\377"
 476      F368343F 
 476      60F437C1 
 476      43F2491E 
 476      C30AF9FF 
ARM GAS  /tmp/cc7MSwG5.s 			page 38


 477 1073 F434AFC7 		.ascii	"\3644\257\307\323\276\312 %:\265\220\014\313.\0349\303"
 477      D3BECA20 
 477      253AB590 
 477      0CCB2E1C 
 477      39C3
 478 1085 AE467D84 		.ascii	"\256F}\204\3155w\332\250\3464/tv\3765\266\261\256\027"
 478      CD3577DA 
 478      A8E6342F 
 478      7476FE35 
 478      B6B1AE17 
 479 1099 B1815A0F 		.ascii	"\261\201Z\017Q\341\201\016\334v\352t\3061\036.\222\354"
 479      51E1810E 
 479      DC76EA74 
 479      C6311E2E 
 479      92EC
 480 10ab 59AF6A5E 		.ascii	"Y\257j^\250\355\334\256\300\275\2167\314\243\200qB\225"
 480      A8EDDCAE 
 480      C0BD8E37 
 480      CCA38071 
 480      4295
 481 10bd 24ECD777 		.ascii	"$\354\327wG\233\315\257;\320W\243\355\345\322\272\240"
 481      479BCDAF 
 481      3BD057A3 
 481      EDE5D2BA 
 481      A0
 482 10ce FEA8B613 		.ascii	"\376\250\266\023>\317\203a\361uf\321\324J\246wE;\034"
 482      3ECF8361 
 482      F17566D1 
 482      D44AA677 
 482      453B1C
 483 10e1 DF59791D 		.ascii	"\337Yy\035\207\034\222\234\333o\272\326V\276~\205\252"
 483      871C929C 
 483      DB6FBAD6 
 483      56BE7E85 
 483      AA
 484 10f2 4ED28FBB 		.ascii	"N\322\217\273\253\325\352\355o$\364\331]\307\220\022"
 484      ABD5EAED 
 484      6F24F4D9 
 484      5DC79012 
 485 1102 FA7C9FEA 		.ascii	"\372|\237\352s1\352s\265\211hn\230\326\226\251\365\377"
 485      7331EA73 
 485      B589686E 
 485      98D696A9 
 485      F5FF
 486 1114 8201EE2B 		.ascii	"\202\001\356+\010\264\271\323@u\323^\247\277\206\262"
 486      08B4B9D3 
 486      4075D35E 
 486      A7BF86B2 
 487 1124 14817675 		.ascii	"\024\201vu\020\243\313d`.\243\201\2712\022\205\366v"
 487      10A3CB64 
 487      602EA381 
 487      B9321285 
 487      F676
 488 1136 E30FDFFD 		.ascii	"\343\017\337\375\314\017K\302A\263\302\014\034\031\342"
 488      CC0F4BC2 
 488      41B3C20C 
 488      1C19E2
ARM GAS  /tmp/cc7MSwG5.s 			page 39


 489 1145 779B70A3 		.ascii	"w\233p\243)\274^;\015GG\211f\036\0230 \032-\367\307"
 489      29BC5E3B 
 489      0D474789 
 489      661E1330 
 489      201A2DF7 
 490 115a 66DC3DA7 		.ascii	"f\334=\247`'x\300\222\274uY\273p\021\357\312\206E,\324"
 490      602778C0 
 490      92BC7559 
 490      BB7011EF 
 490      CA86452C 
 491 116f BA71E3CE 		.ascii	"\272q\343\316\177%\021n\352xh\245\207/\036Z\3451\377"
 491      7F25116E 
 491      EA7868A5 
 491      872F1E5A 
 491      E531FF
 492 1182 D6C26E8C 		.ascii	"\326\302n\214\207\310\375\324\361\320\005\316s\257\261"
 492      87C8FDD4 
 492      F1D005CE 
 492      73AFB1
 493 1191 B8B7E89D 		.ascii	"\270\267\350\235`\346\343/w\334G\303\365z\017n\274^"
 493      60E6E32F 
 493      77DC47C3 
 493      F57A0F6E 
 493      BC5E
 494 11a3 9F7A9E61 		.ascii	"\237z\236a\300\301\265\0003\375\253\366 \375kR\323?"
 494      C0C1B500 
 494      33FDABF6 
 494      20FD6B52 
 494      D33F
 495 11b5 7142AC5E 		.ascii	"qB\254^{\205]\337A\331\201$\220\272\274\316\337\210"
 495      7B855DDF 
 495      41D98124 
 495      90BABCCE 
 495      DF88
 496 11c7 B79ABE3B 		.ascii	"\267\232\276;L\301>t\014\3463\200\255a\301\232x\300"
 496      4CC13E74 
 496      0CE63380 
 496      AD61C19A 
 496      78C0
 497 11d9 92EC8BAD 		.ascii	"\222\354\213\255c\301>v\014f\244l\003\013v\224\007,"
 497      63C13E76 
 497      0C66A46C 
 497      030B7694 
 497      072C
 498 11eb C99ED85E 		.ascii	"\311\236\330^\026\354\230c0\237\225z\205\016\326!\213"
 498      16EC9863 
 498      309F957A 
 498      850ED621 
 498      8B
 499 11fc 6B31A459 		.ascii	"k1\244Y\207a\301\006\314c\230o\306|\013\346\215<\341"
 499      8761C106 
 499      CC63986F 
 499      C67C0BE6 
 499      8D3CE1
 500 120f C2071E26 		.ascii	"\302\007\036&\\\370\034\011^\3259\213\001\177\265q\343"
 500      5CF81C09 
 500      5ED5398B 
ARM GAS  /tmp/cc7MSwG5.s 			page 40


 500      017FB571 
 500      E3
 501 1220 F13FAEE9 		.ascii	"\361?\256\3518=\242\362\260\243`'K\3017\216)\360\261"
 501      383DA2F2 
 501      B0A36027 
 501      4BC1378E 
 501      29F0B1
 502 1233 14C4AEEC 		.ascii	"\024\304\256\354\246o\330\351K\017\247\315x\216\216"
 502      A66FD8E9 
 502      4B0FA7CD 
 502      788E8E
 503 1242 BB8D8F5D 		.ascii	"\273\215\217]\333\015Q\265\016\366\203c0\343:F\315\036"
 503      DB0D51B5 
 503      0EF68363 
 503      30E33A46 
 503      CD1E
 504 1254 064CEDE5 		.ascii	"\006L\355\345\024L\337\036KX\004\265\205\367\320\026"
 504      144CDF1E 
 504      4B5804B5 
 504      85F7D016 
 505 1264 DE479DEF 		.ascii	"\336G\235\357\300\374C\314wc\276\327\030\200N\356e\036"
 505      C0FC43CC 
 505      7763BED7 
 505      18804EEE 
 505      651E
 506 1276 30A97364 		.ascii	"0\251sdP\023^T\340\305\265\323\355rV\267s{9\035n\014"
 506      50135E54 
 506      E0C5B5D3 
 506      ED7256B7 
 506      737B391D 
 507 128c BA25E14B 		.ascii	"\272%\341K\325\006\375\267.0\210Z\314\203\230\344\265"
 507      D506FDB7 
 507      2E30885A 
 507      CC8398E4 
 507      B5
 508 129d 89F73E35 		.ascii	"\211\367>5\307qVnZbi\213\273\373MOQw\177\030\335\375"
 508      C771566E 
 508      5A62698B 
 508      BBFB4D4F 
 508      51777F18 
 509 12b3 D25EA9DD 		.ascii	"\322^\251\335\275d\344\021\0107\273\373K\373\351\222"
 509      BD64E411 
 509      0837BBFB 
 509      4BFBE992 
 510 12c3 1297BBBF 		.ascii	"\022\227\273\277\272\237u\367\2628\215.Su\332\335_\333"
 510      BA9F75F7 
 510      B2388D2E 
 510      5375DADD 
 510      5FDB
 511 12d5 1F775DB2 		.ascii	"\037w]\262X\343\030\314g\000\2539\310\370\301w\251\232"
 511      58E318CC 
 511      6700AB39 
 511      C8F8C177 
 511      A99A
 512 12e7 3AEDEE67 		.ascii	":\355\356g\262`\365\216\301\214\224\315:\310\2609\225"
 512      B260F58E 
 512      C18C94CD 
ARM GAS  /tmp/cc7MSwG5.s 			page 41


 512      3AC8B039 
 512      95
 513 12f8 87CD24EE 		.ascii	"\207\315$\356\376%\226\262u<\224%9\0001\233\005\213"
 513      FE2596B2 
 513      753C9425 
 513      3900319B 
 513      058B
 514 130a F180D99D 		.ascii	"\361\200\331\235l\004\260\271,\330\026\307`F\312\346"
 514      6C04B0B9 
 514      2CD816C7 
 514      6046CAE6 
 515 131a B360DB79 		.ascii	"\263`\333y\300|\366\224-d\301v;\006\363Yu\011\372a{"
 515      C07CF694 
 515      2D64C176 
 515      3B06F359 
 515      7509FA61 
 516 132f 942C7E82 		.ascii	"\224,~\202n\261\005\235\325\247\230\037\303\3743\314"
 516      6EB1059D 
 516      D5A7981F 
 516      C3FC33CC 
 517 133f 3FC7FC0B 		.ascii	"?\307\374\013\314\277\304\374$\346\337`\376-\217s;\304"
 517      CCBFC4FC 
 517      24E6DF60 
 517      FE2D8F73 
 517      3BC4
 518 1351 3AB7FD8E 		.ascii	":\267\375\216]QrF\230\235\233OpQ\241\005\027\002Nc>"
 518      5D517246 
 518      989D9B4F 
 518      7051A105 
 518      17024E63 
 519 1366 0B899C83 		.ascii	"\013\211\234\203\371\\\314\027a\376\026\346\357`\276"
 519      F95CCC17 
 519      61FE16E6 
 519      EF60BE
 520 1375 0CF30398 		.ascii	"\014\363\003\230\037\344b\207\335\210:\3451\355\000"
 520      1FE46287 
 520      DD883AE5 
 520      31ED00
 521 1384 381B875B 		.ascii	"8\033\207[\353N]:+\316\240/D\320\337\322<\324KL\215"
 521      EB4E5D3A 
 521      2BCEA02F 
 521      44D0DFD2 
 521      3CD44B4C 
 522 1399 986412DF 		.ascii	"\230d\022\337v2]\255\316\326\017%\3646\234IxR\257\237"
 522      76325DAD 
 522      CED60F25 
 522      F4369C49 
 522      7852AF9F 
 523 13ad A5917FD6 		.ascii	"\245\221\177\326\343\364H\3029\217\365\221\204\314\270"
 523      E3F448C2 
 523      398FF591 
 523      84CCB8
 524 13bc 868F9919 		.ascii	"\206\217\231\0310\264\232\302\361\300`s\376\242v\276"
 524      30B49AC2 
 524      F1C06073 
 524      FEA276BE 
 525 13cc 891E5DFE 		.ascii	"\211\036]\376\202G\036I\216.\377PLdK\261\276q\214\225"
ARM GAS  /tmp/cc7MSwG5.s 			page 42


 525      82471E49 
 525      8E2EFF50 
 525      4C644BB1 
 525      BE718C95 
 526 13e0 D4F89A18 		.ascii	"\324\370\232\030\343\333\207\306\267\037\315\356\000"
 526      E3DB87C6 
 526      B71FCDEE 
 526      00
 527 13ed E607A921 		.ascii	"\346\007\251!\242a\265a~\036\363\013<F\366\221\333\372"
 527      A261B561 
 527      7E1EF30B 
 527      3C46F691 
 527      DBFA
 528 13ff DCB3249C 		.ascii	"\334\263$\2341\215\240\332~\342\202+\227.\210\263&\250"
 528      318DA0DA 
 528      7EE2822B 
 528      972E88B3 
 528      26A8
 529 1411 0FD3BA92 		.ascii	"\017\323\272\2220\365\006\362\334N\333mA\255\005\334"
 529      30F506F2 
 529      DC4EDB6D 
 529      41AD05DC 
 530 1421 16AC5197 		.ascii	"\026\254Q\227WO\352\356\246\373wB\222j\032A\227<\035"
 530      574FEAEE 
 530      A6FB7742 
 530      926A1A41 
 530      973C1D
 531 1434 360617B7 		.ascii	"6\006\027\267\306\326\036\316\256\031\327\332\336~+"
 531      C6D61ECE 
 531      AE19D7DA 
 531      DE7E2B
 532 1443 FFC1F06B 		.ascii	"\377\301\360k\036\323\357P\022\252\342\027ZO\263\371"
 532      1ED3EF50 
 532      12AAE217 
 532      5A4FB3F9 
 533 1453 B5DA8E3F 		.ascii	"\265\332\216?Ti\276>nx\336\024j3\335\242\003Y\325^v"
 533      5469BE3E 
 533      6E78DE14 
 533      6A33DDA2 
 533      0359D55E 
 534 1468 89C9A480 		.ascii	"\211\311\244\200\0317X)@\255\015j\242\227\305+\350\024"
 534      19375829 
 534      40AD0D6A 
 534      A297C52B 
 534      E814
 535 147a AE7A928A 		.ascii	"\256z\222\212^\253\326L\252\035B\215-F`\373j\207\230"
 535      5EABD64C 
 535      AA1D428D 
 535      2D4660FB 
 535      6A8798
 536 148d 6AF31AB3 		.ascii	"j\363\032\263\372\352\021\362\353\346z\246_\004A\261"
 536      FAEA11F2 
 536      EBE67AA6 
 536      5F0441B1 
 537 149d 69F52ED0 		.ascii	"i\365.\320\235c\332\035V\245h\020\345\251U\\\265\215"
 537      9D63DA1D 
 537      56A56810 
ARM GAS  /tmp/cc7MSwG5.s 			page 43


 537      E5A9555C 
 537      B58D
 538 14af A958EFA0 		.ascii	"\251X\357\240b\033\255x\034\177\333\341L\012\311\034"
 538      621BAD78 
 538      1C7FDBE1 
 538      4C0AC91C 
 539 14bf 67485DB4 		.ascii	"gH]\264\023+\022]H\302\332\024-j\032\3236\271_P'u\027"
 539      132B125D 
 539      48C2DA14 
 539      2D6A1AD3 
 539      36B95F50 
 540 14d6 D1F004AD 		.ascii	"\321\360\004\255\226A\235\223\275V\346\273\262\305\332"
 540      96419D93 
 540      BD56E6BB 
 540      B2C5DA
 541 14e5 7C93ED69 		.ascii	"|\223\355i\277\344Mf\277\332Y)\223\3754Z\333O\235\331"
 541      BFE44D66 
 541      BFDA5929 
 541      93FD345A 
 541      DB4F9DD9 
 542 14f9 7E6ABD3C 		.ascii	"~j\275<\366\323\364\237\275\365S[\037#0S\315d\007\032"
 542      F6D3F49F 
 542      BDF5535B 
 542      1F233053 
 542      CD64071A 
 543 150d 399A8C4C 		.ascii	"9\232\214L=\336\2565\215\3219\035E\326z\206\274\344"
 543      3DDEAE35 
 543      8DD1391D 
 543      45D67A86 
 543      BCE4
 544 151f AB9E696F 		.ascii	"\253\236io\237\356s \262EIEf\356\302\251\272\274\325"
 544      9FEE7320 
 544      B2454945 
 544      66EEC2A9 
 544      BABCD5
 545 1532 AF8B4B42 		.ascii	"\257\213KB\213\265\210\027\231E\274\220K\304m\244\332"
 545      8BB58817 
 545      9945BC90 
 545      4BC46DA4 
 545      DA
 546 1543 563C0733 		.ascii	"V<\0073\315\233\274\032k\370l\027=\203\004-\264U\015"
 546      CD9BBC1A 
 546      6BF86C17 
 546      3D83042D 
 546      B4550D
 547 1556 DB450F25 		.ascii	"\333E\017%\272(\314/\03448c[\242\301\357y\032\264\263"
 547      BA28CC2F 
 547      1C343863 
 547      5BA2C1EF 
 547      791AB4B3 
 548 156a 05BBE634 		.ascii	"\005\273\3464\015\276f\331}j\2669\357>\313\223\332\202"
 548      0DBE66D9 
 548      7D6AB639 
 548      EF3ECB93 
 548      DA82
 549 157c 59F7D6BA 		.ascii	"Y\367\326\272\276h\255\353z\263\256\227q\351\372\002"
 549      BE68ADEB 
ARM GAS  /tmp/cc7MSwG5.s 			page 44


 549      7AB3AE97 
 549      71E9FA02 
 550 158c E94E0DE8 		.ascii	"\351N\015\350\253\336\364\232\252%\321\331\312\270\256"
 550      ABDEF49A 
 550      AA25D1D9 
 550      CAB8AE
 551 159b 21ACE4A9 		.ascii	"!\254\344\251g'z;*5\201\2552\212\376\317\242\253\316"
 551      67277A3B 
 551      2A3581AD 
 551      328AFECF 
 551      A2ABCE
 552 15ae 4D3B634D 		.ascii	"M;cM\353\305\323\233<s\324\315\226\347r\222,+\2551\353"
 552      EBC5D39B 
 552      3C73D4CD 
 552      96E77292 
 552      2C2BAD31 
 553 15c3 6015AB03 		.ascii	"`\025\253\003\355\360\220v\315{\232p\343\345}\267\254"
 553      EDF09076 
 553      CD7B9A70 
 553      E3E57DB7 
 553      AC
 554 15d4 C64D9C0D 		.ascii	"\306M\234\015^2\353\337|\243\303\323\204\332\246\312"
 554      5E32EBDF 
 554      7CA3C3D3 
 554      84DAA6CA 
 555 15e4 CAEFC8E6 		.ascii	"\312\357\310\346\353&\304\330i\302\220\305!\246\365"
 555      EB26C4D8 
 555      69C290C5 
 555      21A6F5
 556 15f3 9821A61F 		.ascii	"\230!\246\037T8wMRk\322\361\276$\234\270\321\270\363"
 556      5438774D 
 556      526BD2F1 
 556      BE249CB8 
 556      D1B8F3
 557 1606 C9D47BE8 		.ascii	"\311\324{\350W6_\014I\204w[\274\267u|\322d\211\247M"
 557      57365F0C 
 557      4984775B 
 557      BCB7757C 
 557      D26489A7 
 558 161b 14EA0F35 		.ascii	"\024\352\0175vP\332\354\270\322\332_\336w\307\354w\325"
 558      7650DAEC 
 558      B8D2DA5F 
 558      DE77C7EC 
 558      77D5
 559 162d 8978EAD3 		.ascii	"\211x\352\323|\3463I\340\264\303\254\265C\356,3=\227"
 559      7CE63349 
 559      E0B4C3AC 
 559      B543EE2C 
 559      333D97
 560 1640 6CE8D965 		.ascii	"l\350\331e\341\313kb\207\246N\277I]2>\326\336~\277\331"
 560      E1CB6B62 
 560      87A64EBF 
 560      495D323E 
 560      D6DE7EBF 
 561 1655 7AC826A5 		.ascii	"z\310&\245m\240\312A\310\270\336\326\204\354\261$\244"
 561      6DA0CA41 
 561      C8B8DED6 
ARM GAS  /tmp/cc7MSwG5.s 			page 45


 561      84ECB124 
 561      A4
 562 1666 7DEADFE2 		.ascii	"}\352\337\342\204PF%a\232\015B\223%\302\221\235\177"
 562      84504625 
 562      619A0D42 
 562      9325C291 
 562      9D7F
 563 1678 B3632599 		.ascii	"\263c%\2317\332o\305J\374b\261\307\350\215R\3750|g~"
 563      37DA6FC5 
 563      4AFC62B1 
 563      C7E88D52 
 563      FD307C67 
 564 168d 455D12E6 		.ascii	"E]\022\346\3330\332l\311\350U\013Q\275o\203\320bD\370"
 564      DB30DA6C 
 564      C9E8550B 
 564      51BD6F83 
 564      D06244F8 
 565 16a1 B5B084D8 		.ascii	"\265\260\204\330_\335\322s\177\372\373xb\177\352\305"
 565      5FDDD273 
 565      7FFAFB78 
 565      627FEAC5 
 566 16b1 76B1DDA5 		.ascii	"v\261\335\245\377W\252\027n\322Q4i\231\376\343\024A"
 566      FF57AA17 
 566      6ED25134 
 566      6999FEE3 
 566      1441
 567 16c3 3C964024 		.ascii	"<\226@$h\352>\230\204,\371=y{IU\177lo\027Ej9\2628\033"
 567      68EA3E98 
 567      842CF93D 
 567      797B4955 
 567      7F6C6F17 
 568 16dd 1D3003D6 		.ascii	"\0350\003\326A\364\263\265\011\305\223Z\035\301\024"
 568      41F4B3B5 
 568      09C5935A 
 568      1DC114
 569 16ec AEF3778C 		.ascii	"\256\363w\214\343F%f\013\317\263A\377\020\3737M\277"
 569      E3462566 
 569      0BCFB341 
 569      FF10FB37 
 569      4DBF
 570 16fe F0660BA6 		.ascii	"\360f\013\246\217\335\243\237%\246\007\246I\005qwv\265"
 570      8FDDA39F 
 570      25A607A6 
 570      49057177 
 570      76B5
 571 1710 4ED8D622 		.ascii	"N\330\326\".\330\256\326\2276\265\370%r\322l\326\204"
 571      2ED8AED6 
 571      9736B5F8 
 571      2572D26C 
 571      D684
 572 1722 53AE1FEF 		.ascii	"S\256\037\357\377\312\226b\262n`W\353\033\333Z\344\240"
 572      FFCA9662 
 572      B26E6057 
 572      EB1BDB5A 
 572      E4A0
 573 1734 BA5DADFF 		.ascii	"\272]\255\377\265\255\265#\211t\276\265\255\265?I\255"
 573      B5ADB523 
ARM GAS  /tmp/cc7MSwG5.s 			page 46


 573      8974BEB5 
 573      ADB53F49 
 573      AD
 574 1745 EF6C6B7D 		.ascii	"\357lk}\224\244\326)\333Z\311\374\343i\333Z\273\222"
 574      94A4D629 
 574      DB5AC9FC 
 574      E369DB5A 
 574      BB92
 575 1757 48E38C6D 		.ascii	"H\343\214m\255EI(lc\246\255w\345\214\012\227\005s\002"
 575      AD454928 
 575      6C63A6AD 
 575      77E58C0A 
 575      97057302 
 576 176b E1E26773 		.ascii	"\341\342gs\212\203cr\002\243B#B\341h\216\022\251,\177"
 576      8A836372 
 576      02A34223 
 576      42E1688E 
 576      12A92C7F 
 577 177f 26070AA3 		.ascii	"&\007\012\243\344\322\234Py\240\264\2628\230\023\015"
 577      E4D29C50 
 577      79A0B4B2 
 577      3898130D 
 578 178f 46427269 		.ascii	"FBri\237QBv!\226\362#\2411\301\210\367\241G\036\367"
 578      9F514276 
 578      2196F223 
 578      A131C188 
 578      F7A1471E 
 579 17a4 E509DDD8 		.ascii	"\345\011\335\330{O\014/\312\315\251\214FrJC#rF\006\002"
 579      7B4F0C2F 
 579      CACDA98C 
 579      46724A43 
 579      23724606 
 580 17b9 3972A4EC 		.ascii	"9r\244\354\316\362py\360\316\240<\"\2243\240\317\300"
 580      CEF27079 
 580      F0CEA03C 
 580      229433A0 
 580      CFC0
 581 17cb 3E0312B0 		.ascii	">\003\022\260J"
 581      4A
 582 17d0 7171B004 		.ascii	"qq\260\004`\275\321\320\177\007\375\312o\261\246\261"
 582      60BDD1D0 
 582      7F07FDCA 
 582      6FB1A6B1 
 583 17e0 06F36CA8 		.ascii	"\006\363l\250\\\201g\323*\341\357@\2772 \311\303e2\260"
 583      5C8167D3 
 583      2AE1EF40 
 583      BF3220C9 
 583      C36532B0 
 584 17f4 531ECCF1 		.ascii	"S\036\314\361\003\274\\Y\252\370\225g+\202Q\250\234"
 584      03BC5C59 
 584      AAF89567 
 584      2B8251A8 
 584      9C
 585 1805 E1F76BD5 		.ascii	"\341\367k\325=c#!%\350\216\004\345\342\207S\211\"\242"
 585      3D632321 
 585      25E88E04 
 585      E5E28753 
ARM GAS  /tmp/cc7MSwG5.s 			page 47


 585      8922A2
 586 1818 E4548423 		.ascii	"\344T\204#J4gP\301\360\274\341U\360dYE\2504\030\211"
 586      4A346750 
 586      C1F0BCE1 
 586      55F06459 
 586      45A83418 
 587 182d E63C9497 		.ascii	"\346<\224\227\007\217\353\350\236\262\350H\277\222\006"
 587      078FEBE8 
 587      9EB2E848 
 587      BF9206
 588 183c 0DF4CFF5 		.ascii	"\015\364\317\365+\320\226VrUT*\256\221Ae GC:\013\201"
 588      2BD09656 
 588      7255542A 
 588      AE914165 
 588      2047433A 
 589 1852 51D167A3 		.ascii	"Q\321g\243q\262I9T\006\"J\257\32403)'\244\350\006x\305"
 589      71B24939 
 589      5406224A 
 589      AFD43033 
 589      2927A4E8 
 590 1869 0DF88A17 		.ascii	"\015\370\212\027\231R<\204+\3055\246L\271\333Q\213\301"
 590      99523C84 
 590      2BC535A6 
 590      4CB9DB51 
 590      8BC1
 591 187b 31C17285 		.ascii	"1\301r\205\264\327\025K\376h\2702\022\200F\263\331\313"
 591      B4D7154B 
 591      FE68B832 
 591      128046B3 
 591      D9CB
 592 188d EEF4A234 		.ascii	"\356\364\2424\024U\202\345\301\210_\351j\274\221\026"
 592      145582E5 
 592      C1885FE9 
 592      6ABC9116 
 593 189d 2CF59707 		.ascii	",\365\227\007\253\224te\024!\003\344\020\030\345\247"
 593      AB947465 
 593      142103E4 
 593      1018E5A7 
 594 18ad E501CEF8 		.ascii	"\345\001\316\370\017\214*&\266Q\201p\360\247\"\022\034"
 594      0F8C2A26 
 594      B6518170 
 594      F0A72212 
 594      1C
 595 18be 93A65444 		.ascii	"\223\246TDBa?\275\014\205\323\002\341r\005\276\275\327"
 595      42613FBD 
 595      0C85D302 
 595      E17205BE 
 595      BDD7
 596 18d0 B10A4705 		.ascii	"\261\012G\005\302\221 \300g\221\333DQ\001\245\352\337"
 596      C29120C0 
 596      6791DB44 
 596      5101A5EA 
 596      DF
 597 18e1 3A87E21F 		.ascii	":\207\342\037sO\031 \245G\202#\301\034A\335\321~wC\272"
 597      734F1920 
 597      A5478223 
 597      C11C41DD 
ARM GAS  /tmp/cc7MSwG5.s 			page 48


 597      D17E7743 
 598 18f6 07D24048 		.ascii	"\007\322@H\367\272\242\271}!\365\203\224\013\251?\244"
 598      F7BAA2B9 
 598      7D21F583 
 598      940BA93F 
 598      A4
 599 1907 0190EE82 		.ascii	"\001\220\356\202\004\317\345\302s\271\360\\.<\327\037"
 599      04CFE5C2 
 599      73B9F05C 
 599      2E3CD71F 
 600 1917 9EEBDF4F 		.ascii	"\236\353\337O\212\014\220\"wI\221\273\245\310=Rd\240"
 600      8A0C9022 
 600      774991BB 
 600      A5C83D52 
 600      64A0
 601 1929 14B9D715 		.ascii	"\024\271\327\025\351\327\027R?\2514\002\177\372{*\374"
 601      E9D71752 
 601      3FA93402 
 601      7FFA7B2A 
 601      FC
 602 193a 406D1A11 		.ascii	"@m\032\021\314X\020x\205?\\Z\034\214\270\003\243\344"
 602      CC581078 
 602      853F5C5A 
 602      1C8CB803 
 602      A3E4
 603 194c 0891965C 		.ascii	"\010\221\226\\\026LW\242\212\254\200\352\340K,\245)"
 603      164C57A2 
 603      8AAC80EA 
 603      E04B2CA5 
 603      29
 604 195d 65E1627A 		.ascii	"e\341bz]R*\217\214\246)\221`I\024\345H\012\336H\361"
 604      5D522A8F 
 604      8CA62991 
 604      604914E5 
 604      480ADE48 
 605 1972 B360BCE9 		.ascii	"\263`\274\351\301\252\220\002\354\007\275c\225\360\210"
 605      C1AA9002 
 605      EC07BD63 
 605      95F088
 606 1981 BF5464A1 		.ascii	"\277Td\241j\313\344\3503\360dp,)\270*\374\225]\251:"
 606      6ACBE4E8 
 606      33F06470 
 606      2C29B82A 
 606      FC955DA9 
 607 1996 A3A873BF 		.ascii	"\243\250s\277\322-\256`z'\243\302?V\016)\241\362\221"
 607      D22DAE60 
 607      7A27A3C2 
 607      3F560E29 
 607      A1F291
 608 19a9 DDF4DBA3 		.ascii	"\335\364\333\243+\203\225\320zw\346I\274\225Y\341\207"
 608      2B8395D0 
 608      7A77E649 
 608      BC9559E1 
 608      87
 609 19ba 66B1E8C1 		.ascii	"f\261\350\301\"\334\010V\004\313\241\257\217\364\224"
 609      22DC0856 
 609      04CBA1AF 
ARM GAS  /tmp/cc7MSwG5.s 			page 49


 609      8FF494
 610 19c9 55826AFB 		.ascii	"U\202j\373;\262\2312\245\212\270\2102\212\016\177\303"
 610      3BB29932 
 610      A58AB888 
 610      328A0E7F 
 610      C3
 611 19da 63894922 		.ascii	"c\211I\"\022\260P\206\246\004\364\301s\204\322L\302"
 611      12B05086 
 611      A604F4C1 
 611      7384D24C 
 611      C2
 612 19eb BD5C8A96 		.ascii	"\275\\\212\226\0047+\302\341\322,0_\335\2243\240L\373"
 612      04372BC2 
 612      E1D22C30 
 612      5FDD9433 
 612      A04CFB
 613 19fe 04ED0128 		.ascii	"\004\355\001(9\350\203p\033\213\344\373\261T\234\301"
 613      39E88370 
 613      1B8BE4FB 
 613      B1549CC1 
 614 1a0e 28427BF0 		.ascii	"(B{\360\271\214h\261&\376\214\302|\377\343\217\014}"
 614      B98C68B1 
 614      26FE8CC2 
 614      7CFFE38F 
 614      0C7D
 615 1a20 6468511A 		.ascii	"dhQ\032\224\012\213\036},\035\376\026\014\036\224\377"
 615      940A8B1E 
 615      7D2C1DFE 
 615      160C1E94 
 615      FF
 616 1a31 94071F71 		.ascii	"\224\007\037q\326A\221+\322A\273\204\312\241\323\353"
 616      D641912B 
 616      D241BB84 
 616      CAA1D3EB 
 617 1a41 62CD841E 		.ascii	"b\315\204\036\241\025\323\365b\306h]\011P\012\204+\241"
 617      A115D3F5 
 617      62C6685D 
 617      09500A84 
 617      2BA1
 618 1a53 9B44D247 		.ascii	"\233D\322G\373GT\226\224\004#\236\321~%\\\221\006\217"
 618      FB475496 
 618      9404239E 
 618      D17E255C 
 618      91068F
 619 1a66 442A9408 		.ascii	"D*\224\010\374\215\024\303\337\214\321\345a%T\362,\240"
 619      FC8D14C3 
 619      DF8CD1E5 
 619      612554F2 
 619      2CA0
 620 1a78 8CF6D3A2 		.ascii	"\214\366\323\242w4\010\243\374\031o\0101\273\206+\025"
 620      773408A3 
 620      FC196F08 
 620      31BB862B 
 620      15
 621 1a89 A6596F18 		.ascii	"\246Yo\030\013Rh\204\024\036\361\307T\214\200tr\362"
 621      0B526884 
 621      141EF1C7 
ARM GAS  /tmp/cc7MSwG5.s 			page 50


 621      548C8074 
 621      72F2
 622 1a9b 86170E2D 		.ascii	"\206\027\016-\314),\002o^\326?\267d@\337~U\001\302\315"
 622      CC292C02 
 622      6F5ED63F 
 622      B76440DF 
 622      7E5501C2 
 623 1ab0 E385830A 		.ascii	"\343\205\203\012\212\374E\340\355\362\203%Ra\201\224"
 623      8AFC45E0 
 623      EDF28325 
 623      52618194 
 624 1ac0 5FE07AB0 		.ascii	"_\340z\260\240\300\225W\320\017R.\244\376\356\207\212"
 624      A0C09557 
 624      D00F522E 
 624      A4FEEE87 
 624      8A
 625 1ad1 1E2BF054 		.ascii	"\036+\360TF\345\210\342\361?\010\212\352E\007\234hN"
 625      46E588E2 
 625      F13F088A 
 625      EA45079C 
 625      684E
 626 1ae3 2837E08F 		.ascii	"(7\340\217\006\313\243\341\010@u\033\232\233W\210\027"
 626      06CBA3E1 
 626      0840751B 
 626      9A9B5788 
 626      17
 627 1af4 D4EED387 		.ascii	"\324\356\323\207>2(\257h\350\023\203\335C\363\207\015"
 627      3E3228AF 
 627      68E81383 
 627      DD43F387 
 627      0D
 628 1b05 763FF878 		.ascii	"v?\370x\341S)-j\214\014\366P\031\205/\3000@\353\000"
 628      E153292D 
 628      6A8C0CF6 
 628      5019852F 
 628      C03040EB 
 629 1b1a 7B8F33CF 		.ascii	"{\2173\317\005\235K.#z\272\376A9\032,\014\202\234\312"
 629      059D4B2E 
 629      237ABAFE 
 629      41391A2C 
 629      0C829CCA 
 630 1b2e 1518230B 		.ascii	"\025\030#\013\361\213\033\255n\302\300\231\2567\350"
 630      F18B1BAD 
 630      6EC2C099 
 630      AE37E8
 631 1b3d 8282ABA4 		.ascii	"\202\202\253\244L\261b1 d%XT\322\344\342\342H0\032\315"
 631      4CB16231 
 631      20642558 
 631      54D2E4E2 
 631      E248301A 
 632 1b52 E719CDA9 		.ascii	"\347\031\315\251\353*,\032\336?7g\330\260\374\034\300"
 632      EB2A2C1A 
 632      DE3F3767 
 632      D8B0FC1C 
 632      C0
 633 1b63 19D30FB1 		.ascii	"\031\323\017\261KK\211\247\315\200\033\264\305\\'\301"
 633      4B4B89A7 
ARM GAS  /tmp/cc7MSwG5.s 			page 51


 633      CD801BB4 
 633      C55C27C1 
 634 1b73 010040E5 		.ascii	"\001\000@\345L\370\243\031}&\340hV\237N\212\304\354"
 634      4CF8A319 
 634      7D26E068 
 634      569F4E8A 
 634      C4EC
 635 1b85 0936B5FB 		.ascii	"\0116\265\373.\244Du\342/z\222\275*x\022k\016{4\357"
 635      2EA44475 
 635      E22F7A92 
 635      BD2A7812 
 635      6B0E7B34 
 636 1b9a 4F83F3B3 		.ascii	"O\203\363\263\000/\\A\235V\346\243\217\015\1774\177"
 636      002F5C41 
 636      9D56E6A3 
 636      8F0D7F34 
 636      7F
 637 1bab B01FBEBD 		.ascii	"\260\037\276\275N+\026\016\007U\372\363\007?14op\017"
 637      4E2B160E 
 637      0755FAF3 
 637      073F3134 
 637      6F700F
 638 1bbe C3BD871F 		.ascii	"\303\275\207\037-,J\013Co\206\252Y\201\322p\340\031"
 638      2D2C4A0B 
 638      436F86AA 
 638      5981D270 
 638      E019
 639 1bd0 7FB42218 		.ascii	"\177\264\"\030,\356\012\200\305\225\312\263\201g\003"
 639      2CEE0A80 
 639      C595CAB3 
 639      816703
 640 1bdf A580D9B5 		.ascii	"\245\200\331\265\260(\337\237\377x\321S\376\274\247"
 640      B028DF9F 
 640      FF78D153 
 640      FEBCA7
 641 1bee F2860DEE 		.ascii	"\362\206\015\3561dPa\021s\355\317\275\336|\247\337\335"
 641      31645061 
 641      1173EDCF 
 641      BDDE7CA7 
 641      DFDD
 642 1c00 FE7B3309 		.ascii	"\376{3\011\202\037!\010Gy\341\362\222\320Ho\000\377"
 642      821F2108 
 642      4779E1F2 
 642      92D0486F 
 642      00FF
 643 1c12 1009681E 		.ascii	"\020\011h\036\302\033\214D\302\221\2503\253\321\034"
 643      C21B8C44 
 643      C291A833 
 643      ABD11C
 644 1c21 23C8B2A7 		.ascii	"#\310\262\2476t\202g\016F\202\345d\010\366\322[\031"
 644      36748267 
 644      0E4682E5 
 644      6408F6D2 
 644      5B19
 645 1c33 D00651B9 		.ascii	"\320\006Q\271\026\010\000Iz @\212n\362UF\244\252\270"
 645      16080049 
 645      7A20408A 
ARM GAS  /tmp/cc7MSwG5.s 			page 52


 645      6EF25546 
 645      A4AAB8
 646 1c46 4C26DC67 		.ascii	"L&\334g(zi\210S\363\300|\310\200\252*\332S\375\200C"
 646      287A6988 
 646      53F3C07C 
 646      C880AA2A 
 646      DA53FD80 
 647 1c5b E8CA1F3E 		.ascii	"\350\312\037>\310O\3155\336Y\363\012\334\217\344\027"
 647      C84FCD35 
 647      DE59F30A 
 647      DC8FE417 
 648 1c6b 15B81E1B 		.ascii	"\025\270\036\033T\340\036\336\227d\375\006\025\270\206"
 648      54E01EDE 
 648      9764FD06 
 648      15B886
 649 1c7a E4157869 		.ascii	"\344\025xi/p\207J\002\021o(:*T\002~1XZ\022*/\016Vy\307"
 649      2F70874A 
 649      02116F28 
 649      3A2A5402 
 649      7E31585A 
 650 1c95 04034A38 		.ascii	"\004\003J8\3223\216\356\247OC\\\006\027\221*\222+U\304"
 650      D2338EEE 
 650      A74F435C 
 650      0617912A 
 650      922B55C4 
 651 1ca9 D2F586DC 		.ascii	"\322\365\206\334\217\016*\350G\262\\W!x\205B\342\025"
 651      8F0E2AE8 
 651      47B25C57 
 651      21788542 
 651      E215
 652 1cbb F20A3C45 		.ascii	"\362\012<E\005C\013\007\273\207\014\003\012@4i$H\002"
 652      05430B07 
 652      BB870C03 
 652      0A403469 
 652      244802
 653 1cce 27E52663 		.ascii	"'\345&c\240G\251z\260\262\304\023!\371ML\237\211\310"
 653      A047A97A 
 653      B0B2C413 
 653      21F94D4C 
 653      9F89C8
 654 1ce1 E55139A0 		.ascii	"\345Q9\240\364\251\000W\322\247\257\227\366\253\256"
 654      F4A90057 
 654      D2A7AF97 
 654      F6ABAE
 655 1cf0 890742E5 		.ascii	"\211\007B\345!\305[\214\375 k\004\364\324A\264\213\271"
 655      21C55B8C 
 655      FD206B04 
 655      F4D441B4 
 655      8BB9
 656 1d02 94AA11AE 		.ascii	"\224\252\021\256H\325\210LZ\341\021h\241+\353l\300\237"
 656      48D5884C 
 656      5AE11168 
 656      A12BEB6C 
 656      C09F
 657 1d14 920C6EF5 		.ascii	"\222\014n\365\354\330\030T\016@\345\300\015\035\277"
 657      ECD81854 
 657      0E40E5C0 
ARM GAS  /tmp/cc7MSwG5.s 			page 53


 657      0D1DBF
 658 1d23 222ED951 		.ascii	"\".\331Q\310,GF\2221n\214\214\343TW\277\177dye\300\257"
 658      C82C4746 
 658      92316E8C 
 658      8CE35457 
 658      BF7F6479 
 659 1d3a 5D66FDEB 		.ascii	"]f\375\353\210\312P\251rg\250\374>\022\354jw!\004\033"
 659      88CA50A9 
 659      7267A8FC 
 659      3E12EC6A 
 659      7721041B 
 660 1d4e 435D4B1A 		.ascii	"C]K\032H\251\020\310\314\206\277\017\005\225\301h\247"
 660      48A910C8 
 660      CC86BF0F 
 660      0595C168 
 660      A7
 661 1d5f 5DE0A220 		.ascii	"]\340\242 X\032\004f\037\254\214\366\206\253\3412\214"
 661      581A0466 
 661      1FAC8CF6 
 661      86ABE132 
 661      8C
 662 1d70 80912242 		.ascii	"\200\221\"BbYH)\242R%\217\015\012\214\256\014E\310c"
 662      62594829 
 662      A252258F 
 662      0D0A8CAE 
 662      0C45C863 
 663 1d84 433BE372 		.ascii	"C;\343r\320\321\203\323\241\023\012\315\357\270\012"
 663      D0D183D3 
 663      A1130ACD 
 663      EFB80A
 664 1d93 F3EFFE3F 		.ascii	"\363\357\376?\330_\257\""
 664      D85FAF22 
 665              		.text
 666              		.section	.gnu.lto_.symtab.1ae193ab3895ea03,"",%progbits
 667 0000 49324353 		.ascii	"I2CSensor_init\000\000\000\000\000\000\000\000\000\000"
 667      656E736F 
 667      725F696E 
 667      69740000 
 667      00000000 
 668 0018 0000FD02 		.ascii	"\000\000\375\002\000\000I2CSensor_stop\000\000\000\000"
 668      00004932 
 668      4353656E 
 668      736F725F 
 668      73746F70 
 669 0030 00000000 		.ascii	"\000\000\000\000\000\000\000\000\025\003\000\000I2C"
 669      00000000 
 669      15030000 
 669      493243
 670 003f 53656E73 		.ascii	"Sensor_transact\000\000\000\000\000\000\000\000\000"
 670      6F725F74 
 670      72616E73 
 670      61637400 
 670      00000000 
 671 0057 0000001E 		.ascii	"\000\000\000\036\003\000\000I2CSensor_transact_buf\000"
 671      03000049 
 671      32435365 
 671      6E736F72 
ARM GAS  /tmp/cc7MSwG5.s 			page 54


 671      5F747261 
 672 0075 00000000 		.ascii	"\000\000\000\000\000\000\000\000\000\000\000.\003\000"
 672      00000000 
 672      0000002E 
 672      0300
 673 0083 00534436 		.ascii	"\000SD6\000\000\002\000\000\000\000\000\000\000\000"
 673      00000200 
 673      00000000 
 673      000000
 674 0092 005E0300 		.ascii	"\000^\003\000\000chvprintf\000\000\002\000\000\000\000"
 674      00636876 
 674      7072696E 
 674      74660000 
 674      02000000 
 675 00a7 00000000 		.ascii	"\000\000\000\000\0009\003\000\000i2cStop\000\000\002"
 675      00390300 
 675      00693263 
 675      53746F70 
 675      000002
 676 00ba 00000000 		.ascii	"\000\000\000\000\000\000\000\000\000H\003\000\000i2"
 676      00000000 
 676      00480300 
 676      006932
 677 00c9 63476574 		.ascii	"cGetErrors\000\000\002\000\000\000\000\000\000\000\000"
 677      4572726F 
 677      72730000 
 677      02000000 
 677      00000000 
 678 00de 004C0300 		.ascii	"\000L\003\000\000i2cReleaseBus\000\000\002\000\000\000"
 678      00693263 
 678      52656C65 
 678      61736542 
 678      75730000 
 679 00f6 00000000 		.ascii	"\000\000\000\000\000\000P\003\000\000i2cMasterTrans"
 679      00005003 
 679      00006932 
 679      634D6173 
 679      74657254 
 680 010e 6D697454 		.ascii	"mitTimeout\000\000\002\000\000\000\000\000\000\000\000"
 680      696D656F 
 680      75740000 
 680      02000000 
 680      00000000 
 681 0123 00520300 		.ascii	"\000R\003\000\000i2cAcquireBus\000\000\002\000\000\000"
 681      00693263 
 681      41637175 
 681      69726542 
 681      75730000 
 682 013b 00000000 		.ascii	"\000\000\000\000\000\000\\\003\000\000"
 682      00005C03 
 682      0000
 683              		.text
 684              		.section	.gnu.lto_.opts,"",%progbits
 685 0000 272D6D63 		.ascii	"'-mcpu=cortex-m4' '-mfloat-abi=hard' '-mfpu=fpv4-sp"
 685      70753D63 
 685      6F727465 
 685      782D6D34 
ARM GAS  /tmp/cc7MSwG5.s 			page 55


 685      2720272D 
 686 0033 2D643136 		.ascii	"-d16' '-mno-thumb-interwork' '-mthumb' '-O2' '-fomi"
 686      2720272D 
 686      6D6E6F2D 
 686      7468756D 
 686      622D696E 
 687 0066 742D6672 		.ascii	"t-frame-pointer' '-falign-functions=16' '-ffunction"
 687      616D652D 
 687      706F696E 
 687      74657227 
 687      20272D66 
 688 0099 2D736563 		.ascii	"-sections' '-fdata-sections' '-fno-common' '-flto' "
 688      74696F6E 
 688      73272027 
 688      2D666461 
 688      74612D73 
 689 00cc 272D6673 		.ascii	"'-fsingle-precision-constant'\000"
 689      696E676C 
 689      652D7072 
 689      65636973 
 689      696F6E2D 
 690              		.text
 691              		.section	.text.chprintf.constprop.1,"ax",%progbits
 692              		.align	2
 693              		.p2align 4,,15
 694              		.thumb
 695              		.thumb_func
 696              		.type	chprintf.constprop.1, %function
 697              	chprintf.constprop.1:
 698              		@ args = 4, pretend = 12, frame = 8
 699              		@ frame_needed = 0, uses_anonymous_args = 1
 700 0000 0EB4     		push	{r1, r2, r3}
 701 0002 00B5     		push	{lr}
 702 0004 82B0     		sub	sp, sp, #8
 703 0006 03AA     		add	r2, sp, #12
 704 0008 0548     		ldr	r0, .L2
 705 000a 52F8041B 		ldr	r1, [r2], #4
 706 000e 0192     		str	r2, [sp, #4]
 707 0010 FFF7FEFF 		bl	chvprintf
 708 0014 02B0     		add	sp, sp, #8
 709              		@ sp needed
 710 0016 5DF804EB 		ldr	lr, [sp], #4
 711 001a 03B0     		add	sp, sp, #12
 712 001c 7047     		bx	lr
 713              	.L3:
 714 001e 00BF     		.align	2
 715              	.L2:
 716 0020 00000000 		.word	SD6
 717              		.size	chprintf.constprop.1, .-chprintf.constprop.1
 718 0024 AFF30080 		.section	.text.I2CSensor_init,"ax",%progbits
 718      AFF30080 
 718      AFF30080 
 719              		.align	2
 720              		.p2align 4,,15
 721              		.global	I2CSensor_init
 722              		.thumb
 723              		.thumb_func
ARM GAS  /tmp/cc7MSwG5.s 			page 56


 724              		.type	I2CSensor_init, %function
 725              	I2CSensor_init:
 726              		@ args = 12, pretend = 0, frame = 0
 727              		@ frame_needed = 0, uses_anonymous_args = 0
 728              		@ link register save eliminated.
 729 0000 F0B4     		push	{r4, r5, r6, r7}
 730 0002 059F     		ldr	r7, [sp, #20]
 731 0004 4160     		str	r1, [r0, #4]
 732 0006 049E     		ldr	r6, [sp, #16]
 733 0008 069D     		ldr	r5, [sp, #24]
 734 000a 4270     		strb	r2, [r0, #1]
 735 000c 0121     		movs	r1, #1
 736 000e 0024     		movs	r4, #0
 737 0010 8361     		str	r3, [r0, #24]
 738 0012 8760     		str	r7, [r0, #8]
 739 0014 0170     		strb	r1, [r0]
 740 0016 C661     		str	r6, [r0, #28]
 741 0018 0473     		strb	r4, [r0, #12]
 742 001a 2978     		ldrb	r1, [r5]	@ zero_extendqisi2
 743 001c B1B1     		cbz	r1, .L8
 744 001e 2346     		mov	r3, r4
 745 0020 0446     		mov	r4, r0
 746              	.L7:
 747 0022 2173     		strb	r1, [r4, #12]
 748 0024 15F8011F 		ldrb	r1, [r5, #1]!	@ zero_extendqisi2
 749 0028 0133     		adds	r3, r3, #1
 750 002a 0134     		adds	r4, r4, #1
 751 002c DAB2     		uxtb	r2, r3
 752 002e 59B1     		cbz	r1, .L12
 753 0030 0A2B     		cmp	r3, #10
 754 0032 F6D1     		bne	.L7
 755              	.L5:
 756 0034 0344     		add	r3, r3, r0
 757 0036 0021     		movs	r1, #0
 758 0038 1973     		strb	r1, [r3, #12]
 759 003a 00F10C02 		add	r2, r0, #12
 760 003e 0449     		ldr	r1, .L13
 761 0040 0448     		ldr	r0, .L13+4
 762 0042 F0BC     		pop	{r4, r5, r6, r7}
 763 0044 FFF7FEBF 		b	chprintf.constprop.1
 764              	.L12:
 765 0048 1346     		mov	r3, r2
 766 004a F3E7     		b	.L5
 767              	.L8:
 768 004c 0B46     		mov	r3, r1
 769 004e F1E7     		b	.L5
 770              	.L14:
 771              		.align	2
 772              	.L13:
 773 0050 00000000 		.word	.LC0
 774 0054 00000000 		.word	SD6
 775              		.size	I2CSensor_init, .-I2CSensor_init
 776 0058 AFF30080 		.section	.text.I2CSensor_stop,"ax",%progbits
 776      AFF30080 
 777              		.align	2
 778              		.p2align 4,,15
 779              		.global	I2CSensor_stop
ARM GAS  /tmp/cc7MSwG5.s 			page 57


 780              		.thumb
 781              		.thumb_func
 782              		.type	I2CSensor_stop, %function
 783              	I2CSensor_stop:
 784              		@ args = 0, pretend = 0, frame = 0
 785              		@ frame_needed = 0, uses_anonymous_args = 0
 786 0000 0246     		mov	r2, r0
 787 0002 38B5     		push	{r3, r4, r5, lr}
 788 0004 0023     		movs	r3, #0
 789 0006 0D46     		mov	r5, r1
 790 0008 0446     		mov	r4, r0
 791 000a 02F80C3B 		strb	r3, [r2], #12
 792 000e 0548     		ldr	r0, .L20
 793 0010 0549     		ldr	r1, .L20+4
 794 0012 FFF7FEFF 		bl	chprintf.constprop.1
 795 0016 15B1     		cbz	r5, .L16
 796 0018 6068     		ldr	r0, [r4, #4]
 797 001a FFF7FEFF 		bl	i2cStop
 798              	.L16:
 799 001e 0020     		movs	r0, #0
 800 0020 38BD     		pop	{r3, r4, r5, pc}
 801              	.L21:
 802 0022 00BF     		.align	2
 803              	.L20:
 804 0024 00000000 		.word	SD6
 805 0028 18000000 		.word	.LC1
 806              		.size	I2CSensor_stop, .-I2CSensor_stop
 807 002c AFF30080 		.section	.text.I2CSensor_transact,"ax",%progbits
 808              		.align	2
 809              		.p2align 4,,15
 810              		.global	I2CSensor_transact
 811              		.thumb
 812              		.thumb_func
 813              		.type	I2CSensor_transact, %function
 814              	I2CSensor_transact:
 815              		@ args = 4, pretend = 0, frame = 0
 816              		@ frame_needed = 0, uses_anonymous_args = 0
 817 0000 2DE9F041 		push	{r4, r5, r6, r7, r8, lr}
 818 0004 0446     		mov	r4, r0
 819 0006 84B0     		sub	sp, sp, #16
 820 0008 0078     		ldrb	r0, [r0]	@ zero_extendqisi2
 821 000a 9DF82850 		ldrb	r5, [sp, #40]	@ zero_extendqisi2
 822 000e 8846     		mov	r8, r1
 823 0010 1646     		mov	r6, r2
 824 0012 1F46     		mov	r7, r3
 825 0014 28B3     		cbz	r0, .L23
 826 0016 6068     		ldr	r0, [r4, #4]
 827 0018 FFF7FEFF 		bl	i2cAcquireBus
 828 001c A368     		ldr	r3, [r4, #8]
 829 001e 6068     		ldr	r0, [r4, #4]
 830 0020 6178     		ldrb	r1, [r4, #1]	@ zero_extendqisi2
 831 0022 0293     		str	r3, [sp, #8]
 832 0024 0195     		str	r5, [sp, #4]
 833 0026 0097     		str	r7, [sp]
 834 0028 4246     		mov	r2, r8
 835 002a 3346     		mov	r3, r6
 836 002c FFF7FEFF 		bl	i2cMasterTransmitTimeout
ARM GAS  /tmp/cc7MSwG5.s 			page 58


 837 0030 0546     		mov	r5, r0
 838 0032 6068     		ldr	r0, [r4, #4]
 839 0034 FFF7FEFF 		bl	i2cReleaseBus
 840 0038 1DB9     		cbnz	r5, .L26
 841 003a 2846     		mov	r0, r5
 842              	.L24:
 843 003c 04B0     		add	sp, sp, #16
 844              		@ sp needed
 845 003e BDE8F081 		pop	{r4, r5, r6, r7, r8, pc}
 846              	.L26:
 847 0042 6068     		ldr	r0, [r4, #4]
 848 0044 FFF7FEFF 		bl	i2cGetErrors
 849 0048 0A4A     		ldr	r2, .L27
 850 004a 0B49     		ldr	r1, .L27+4
 851 004c 0346     		mov	r3, r0
 852 004e 1360     		str	r3, [r2]
 853 0050 0A48     		ldr	r0, .L27+8
 854 0052 04F10C02 		add	r2, r4, #12
 855 0056 FFF7FEFF 		bl	chprintf.constprop.1
 856 005a 2846     		mov	r0, r5
 857 005c 04B0     		add	sp, sp, #16
 858              		@ sp needed
 859 005e BDE8F081 		pop	{r4, r5, r6, r7, r8, pc}
 860              	.L23:
 861 0062 04F10C02 		add	r2, r4, #12
 862 0066 0548     		ldr	r0, .L27+8
 863 0068 0549     		ldr	r1, .L27+12
 864 006a FFF7FEFF 		bl	chprintf.constprop.1
 865 006e 6FF06200 		mvn	r0, #98
 866 0072 E3E7     		b	.L24
 867              	.L28:
 868              		.align	2
 869              	.L27:
 870 0074 00000000 		.word	.LANCHOR0
 871 0078 2C000000 		.word	.LC2
 872 007c 00000000 		.word	SD6
 873 0080 40000000 		.word	.LC3
 874              		.size	I2CSensor_transact, .-I2CSensor_transact
 875 0084 AFF30080 		.section	.text.I2CSensor_transact_buf,"ax",%progbits
 875      AFF30080 
 875      AFF30080 
 876              		.align	2
 877              		.p2align 4,,15
 878              		.global	I2CSensor_transact_buf
 879              		.thumb
 880              		.thumb_func
 881              		.type	I2CSensor_transact_buf, %function
 882              	I2CSensor_transact_buf:
 883              		@ args = 0, pretend = 0, frame = 0
 884              		@ frame_needed = 0, uses_anonymous_args = 0
 885 0000 10B5     		push	{r4, lr}
 886 0002 82B0     		sub	sp, sp, #8
 887 0004 0C46     		mov	r4, r1
 888 0006 C369     		ldr	r3, [r0, #28]
 889 0008 8169     		ldr	r1, [r0, #24]
 890 000a 0092     		str	r2, [sp]
 891 000c 2246     		mov	r2, r4
ARM GAS  /tmp/cc7MSwG5.s 			page 59


 892 000e FFF7FEFF 		bl	I2CSensor_transact
 893 0012 02B0     		add	sp, sp, #8
 894              		@ sp needed
 895 0014 10BD     		pop	{r4, pc}
 896              		.size	I2CSensor_transact_buf, .-I2CSensor_transact_buf
 897 0016 00BFAFF3 		.section	.bss.errors,"aw",%nobits
 897      0080AFF3 
 897      0080
 898              		.align	2
 899              		.set	.LANCHOR0,. + 0
 900              		.type	errors, %object
 901              		.size	errors, 4
 902              	errors:
 903 0000 00000000 		.space	4
 904              		.section	.rodata.str1.4,"aMS",%progbits,1
 905              		.align	2
 906              	.LC0:
 907 0000 53746172 		.ascii	"Starting sensor %s...\012\000"
 907      74696E67 
 907      2073656E 
 907      736F7220 
 907      25732E2E 
 908 0017 00       		.space	1
 909              	.LC1:
 910 0018 53746F70 		.ascii	"Stopping sensor %s\012\000"
 910      70696E67 
 910      2073656E 
 910      736F7220 
 910      25730A00 
 911              	.LC2:
 912 002c 4932433A 		.ascii	"I2C:%s TRXERR(%d)\012\000"
 912      25732054 
 912      52584552 
 912      52282564 
 912      290A00
 913 003f 00       		.space	1
 914              	.LC3:
 915 0040 4932433A 		.ascii	"I2C:%s INACTIVE\012\000"
 915      25732049 
 915      4E414354 
 915      4956450A 
 915      00
 916              		.comm	__gnu_lto_v1,1,1
 917 0051 000000   		.ident	"GCC: (GNU Tools for ARM Embedded Processors) 4.8.4 20140526 (release) [ARM/embedded-4_8-br
ARM GAS  /tmp/cc7MSwG5.s 			page 60


DEFINED SYMBOLS
                            *ABS*:0000000000000000 i2c_sensor.c
     /tmp/cc7MSwG5.s:692    .text.chprintf.constprop.1:0000000000000000 $t
     /tmp/cc7MSwG5.s:697    .text.chprintf.constprop.1:0000000000000000 chprintf.constprop.1
     /tmp/cc7MSwG5.s:716    .text.chprintf.constprop.1:0000000000000020 $d
     /tmp/cc7MSwG5.s:719    .text.I2CSensor_init:0000000000000000 $t
     /tmp/cc7MSwG5.s:725    .text.I2CSensor_init:0000000000000000 I2CSensor_init
     /tmp/cc7MSwG5.s:773    .text.I2CSensor_init:0000000000000050 $d
     /tmp/cc7MSwG5.s:777    .text.I2CSensor_stop:0000000000000000 $t
     /tmp/cc7MSwG5.s:783    .text.I2CSensor_stop:0000000000000000 I2CSensor_stop
     /tmp/cc7MSwG5.s:804    .text.I2CSensor_stop:0000000000000024 $d
     /tmp/cc7MSwG5.s:808    .text.I2CSensor_transact:0000000000000000 $t
     /tmp/cc7MSwG5.s:814    .text.I2CSensor_transact:0000000000000000 I2CSensor_transact
     /tmp/cc7MSwG5.s:870    .text.I2CSensor_transact:0000000000000074 $d
     /tmp/cc7MSwG5.s:876    .text.I2CSensor_transact_buf:0000000000000000 $t
     /tmp/cc7MSwG5.s:882    .text.I2CSensor_transact_buf:0000000000000000 I2CSensor_transact_buf
     /tmp/cc7MSwG5.s:898    .bss.errors:0000000000000000 $d
     /tmp/cc7MSwG5.s:902    .bss.errors:0000000000000000 errors
     /tmp/cc7MSwG5.s:905    .rodata.str1.4:0000000000000000 $d
                            *COM*:0000000000000001 __gnu_lto_v1
     /tmp/cc7MSwG5.s:718    .text.chprintf.constprop.1:0000000000000024 $t
     /tmp/cc7MSwG5.s:776    .text.I2CSensor_init:0000000000000058 $t
     /tmp/cc7MSwG5.s:807    .text.I2CSensor_stop:000000000000002c $t
     /tmp/cc7MSwG5.s:875    .text.I2CSensor_transact:0000000000000084 $t

UNDEFINED SYMBOLS
chvprintf
SD6
i2cStop
i2cAcquireBus
i2cMasterTransmitTimeout
i2cReleaseBus
i2cGetErrors
