ARM GAS  /tmp/ccR5pkYg.s 			page 1


   1              		.syntax unified
   2              		.cpu cortex-m4
   3              		.eabi_attribute 27, 3
   4              		.eabi_attribute 28, 1
   5              		.fpu fpv4-sp-d16
   6              		.eabi_attribute 20, 1
   7              		.eabi_attribute 21, 1
   8              		.eabi_attribute 23, 3
   9              		.eabi_attribute 24, 1
  10              		.eabi_attribute 25, 1
  11              		.eabi_attribute 26, 1
  12              		.eabi_attribute 30, 2
  13              		.eabi_attribute 34, 1
  14              		.eabi_attribute 18, 4
  15              		.thumb
  16              		.file	"lsm303.c"
  17              		.section	.gnu.lto_.jmpfuncs.73b9e9e3cdd29560,"",%progbits
  18 0000 789C6362 		.ascii	"x\234cb`b\300\006\016Cif\006~f\226\006\246LF\020\207"
  18      6062C006 
  18      0E436966 
  18      067E6696 
  18      06A64C46 
  19 0016 29823193 		.ascii	")\2021\223\221\221\011\306\000I\2630\340\222b\207kc"
  19      919109C6 
  19      0049B330 
  19      E0926287 
  19      6B63
  20 0028 6660602C 		.ascii	"f``,\003S\314e\020S\301\212\230\214\030\300\312\030"
  20      0353CC65 
  20      1053C18A 
  20      988C18C0 
  20      CA18
  21 003a D0553161 		.ascii	"\320U1a\252bbF\263\211\021\306`\003jaFw\"\262,\003\000"
  21      AA626246 
  21      B38911C6 
  21      60036A61 
  21      467722B2 
  22 0051 3F8B0F38 		.ascii	"?\213\0178"
  23              		.text
  24              		.section	.gnu.lto_.inline.73b9e9e3cdd29560,"",%progbits
  25 0000 789C6362 		.ascii	"x\234cb`b\300\006\026Aif\0061\275\213\014\214\214\014"
  25      6062C006 
  25      16416966 
  25      0631BD8B 
  25      0C8C8C0C 
  26 0014 8C400E93 		.ascii	"\214@\016\223B\303/F\006\256\003v`=\254|@\351\011~\014"
  26      42C32F46 
  26      06AE0376 
  26      603DAC7C 
  26      40E9097E 
  27 0029 0C2CBC50 		.ascii	"\014,\274P\006\207 \003\003\373\004?\030\304\"\300\304"
  27      06872003 
  27      03FB043F 
  27      18C422C0 
  27      C4
  28 003a C0B38B91 		.ascii	"\300\263\213\221\221\011l\032#\330H\366\231'X\030\330"
  28      91096C1A 
ARM GAS  /tmp/ccR5pkYg.s 			page 2


  28      23D848F6 
  28      99275818 
  28      D8
  29 004b E7E73131 		.ascii	"\347\34711p\200\315d\204\030\305L\254B\006\000dJ\027"
  29      7080CD64 
  29      8418C54C 
  29      AC420600 
  29      644A17
  30 005e DC       		.ascii	"\334"
  31              		.text
  32              		.section	.gnu.lto_.pureconst.73b9e9e3cdd29560,"",%progbits
  33 0000 789C6362 		.ascii	"x\234cb`b`g\200\000f\006)&)f)\000\001\321\000b"
  33      60626067 
  33      80006606 
  33      29262966 
  33      290001D1 
  34              		.text
  35              		.section	.gnu.lto_lsm303_init.73b9e9e3cdd29560,"",%progbits
  36 0000 789CA554 		.ascii	"x\234\245TML\023A\024~o\272KK\177(\205*1!\332p\320\203"
  36      4D4C1341 
  36      147E6FBA 
  36      4B4B7F28 
  36      852A3121 
  37 0018 82086AB8 		.ascii	"\202\010j\270!\352\305('Q\361djC\232M,F\012\036\344"
  37      21EAC528 
  37      2751F164 
  37      6A439A4D 
  37      2C460A1E 
  38 002d C0148810 		.ascii	"\300\024\210\020/6\234\032\214\007BL\375!z\340\202$"
  38      2F369C1A 
  38      8C07424C 
  38      FD217AE0 
  38      8224
  39 003f 6A636282 		.ascii	"jcb\202QDo\230h\322\243\211\036H\274qp}3\263\333vK\011"
  39      51446F98 
  39      68D2A389 
  39      1E48BC71 
  39      707D33B3 
  40 0057 5536E9FC 		.ascii	"U6\351\374\3547\337\367\336\373\346u\0310(\177\366\321"
  40      EC37DFF7 
  40      DEFBE675 
  40      1930287F 
  40      F6D1
  41 0069 EFB41BE0 		.ascii	"\357\264\033\3402\315\350\002d\351O\000)\017C\024\013"
  41      32CDE802 
  41      64E94F00 
  41      290F4314 
  41      0B
  42 007a 40186338 		.ascii	"@\030c8v\025\305Q\275\005\3468\237\311\277\233\272\337"
  42      7615C551 
  42      BD05E638 
  42      9FC9BF9B 
  42      BADF
  43 008c 742FCFD3 		.ascii	"t/\317\323\374\217i\242\201$\032F\210!\364\323\006="
  43      FC8F69A2 
  43      81241A46 
  43      8821F4D3 
ARM GAS  /tmp/ccR5pkYg.s 			page 3


  43      063D
  44 009e 7262E88C 		.ascii	"rb\350\214\242\230\271\327\337>k\031>\2313\315n\311"
  44      A298B9D7 
  44      DF3E6B19 
  44      3E9933CD 
  44      6EC9
  45 00b0 8B54E425 		.ascii	"\213T\344%\320I\314\245s/\177x\370\014Om\230f\320@\027"
  45      D049CCA5 
  45      732F7F78 
  45      F80C4F6D 
  45      9866D040 
  46 00c5 83234562 		.ascii	"\203#Eb\277\"\372\266\006$\336\262\266b\207#VG5,\236"
  46      BF22FAB6 
  46      0624DEB2 
  46      B6628723 
  46      5647352C 
  47 00da CE7DFFB5 		.ascii	"\316}\377\265\202\305p\032\203\256\"1\242\210\232\223"
  47      82C5701A 
  47      83AE2231 
  47      A2889A93 
  48 00ea F882E5F2 		.ascii	"\370\202\345\362\246\2710\377\371\340\001\015\2428\207"
  48      A6B930FF 
  48      F9E0010D 
  48      A23887
  49 00f9 2DA08381 		.ascii	"-\240\203\201\272\2336\363\264\361b\002\321Goj\3744"
  49      BA9B36F3 
  49      B4F16202 
  49      D1476F6A 
  49      FC34
  50 010b B8033478 		.ascii	"\270\0034x\352\350\035\013\322\340\012\011\240A\000"
  50      EAE81D0B 
  50      D2E00A09 
  50      A04100
  51 011a 8D0208D3 		.ascii	"\215\002\010\323;\255\231\230O\210)|\207I\312*\022\305"
  51      3BAD9998 
  51      4F88297C 
  51      8749CA2A 
  51      12C5
  52 012c 47B48F62 		.ascii	"G\264\217bV\216\012\213I\253\372h\024\267u\011\231\230"
  52      568E0A8B 
  52      49ABFA68 
  52      14B77509 
  52      9998
  53 013e 5DAB30FE 		.ascii	"]\2530\376*3\025\210\3423\324A\321\366C\367C\2369E6"
  53      2A331588 
  53      E233D441 
  53      D1F643F7 
  53      439E3945 
  54 0153 D079813F 		.ascii	"\320y\201?v\333pV\302\347\035\360\373\365\251\240\302"
  54      76DB7056 
  54      C2E71DF0 
  54      FBF5A9A0 
  54      C2
  55 0164 E3A83D80 		.ascii	"\343\250=\200\331\024\347\365\006\326\216\302&\237\026"
  55      D914E7F5 
  55      06D68EC2 
  55      269F16
ARM GAS  /tmp/ccR5pkYg.s 			page 4


  56 0173 2BAFBA23 		.ascii	"+\257\272#a\205\327\262`\025&\246]6G'\232\000\365v\245"
  56      6185D7B2 
  56      601526A6 
  56      5D364727 
  56      9A00F576 
  57 0188 774E01AD 		.ascii	"wN\001\255\260\300\3519A\200JK\234\361\325\332.\022"
  57      B0C0E939 
  57      41804A4B 
  57      9CF1D5DA 
  57      2E12
  58 019a 4FE94C98 		.ascii	"O\351L\230\033hK\271-\251ZtHU\223\024\221\267\215\236"
  58      1B684BB9 
  58      2DA95A74 
  58      48559314 
  58      91B78D9E 
  59 01ae DD2EFAF8 		.ascii	"\335.\372\370\346\304\374WfG\367\215\302\035\272\234"
  59      E6C4FC57 
  59      6647F78D 
  59      C21DBA9C 
  60 01be C3F05450 		.ascii	"\303\360TPo\031\350\247\300D\013\304\321+\350u\222z"
  60      6F19E8A7 
  60      C0440BC4 
  60      D12BE875 
  60      927A
  61 01d0 BDB4DDA5 		.ascii	"\275\264\335\245\304r\301\012\277Tp[\012\277\211\023"
  61      C472C10A 
  61      BF54705B 
  61      0ABF8913 
  62 01e0 AC2C81E5 		.ascii	"\254,\201\345\022~[\" %<\226\304b\215\201\365\225%J"
  62      127E5B22 
  62      20253C96 
  62      C4628D81 
  62      F595254A 
  63 01f4 FEDE6B30 		.ascii	"\376\336k0\313\227t\245\000P\360(\024\263\342Piq\254"
  63      CB9774A5 
  63      0050F028 
  63      14B3E250 
  63      6971AC
  64 0207 8B639032 		.ascii	"\213c\2202\244\010B\245\241C\236\243\307\244\020\215"
  64      A40842A5 
  64      A1439EA3 
  64      C7A4108D 
  65 0217 76BF4905 		.ascii	"v\277I\005\003\303VZ\331\2429\241*\315qmkNC\265\346"
  65      03C3565A 
  65      D9A239A1 
  65      2ACD716D 
  65      6B4E43B5 
  66 022c 68E51205 		.ascii	"h\345\022\005s\032\2535G\377\027sB\322\2340eH\021*\232"
  66      731AAB35 
  66      47FF1773 
  66      42D29C30 
  66      6548112A 
  67 0241 93DD6ACE 		.ascii	"\223\335j\316R\346C\223\243\325\256P{Z\211\035\333\341"
  67      52E64393 
  67      A3D5AE50 
  67      7B5A891D 
  67      DBE1
ARM GAS  /tmp/ccR5pkYg.s 			page 5


  68 0253 DE652F16 		.ascii	"\336e/\026\022\224\015\037Q\305.-\355R\025\035\252\207"
  68      12940D1F 
  68      51C52E2D 
  68      ED52151D 
  68      AA87
  69 0265 64FD77F3 		.ascii	"d\375w\363\317On\251\177O\314\352 j\016y\226)\212\250"
  69      CF4F6EA9 
  69      7F4FCCEA 
  69      206A0E79 
  69      96298AA8 
  70 0279 70AF95CB 		.ascii	"p\257\225\313\332\177\344\242\355T\341\372.U\235\025"
  70      DA7FE4A2 
  70      ED54E1FA 
  70      2E559D15 
  71 0289 8255E19B 		.ascii	"\202U\341\233.\273G\232+\225\030\252X\342\333\237\254"
  71      2EBB479A 
  71      2B9518AA 
  71      58E2DB9F 
  71      AC
  72 029a F4BB791C 		.ascii	"\364\273y\034\026\3714\332\337\305\0220[\006~\201T\376"
  72      16F934DA 
  72      DFC51230 
  72      5B067E81 
  72      54FE
  73 02ac A3B71050 		.ascii	"\243\267\020P\245\323G\327@\037d\0211tv\310\270=0\224"
  73      A5D347D7 
  73      401F6411 
  73      317476C8 
  73      B83D3094 
  74 02c0 3C7A2399 		.ascii	"<z#\231\350l\357l\213\201/90\230<ssdp\270\255\275d\335"
  74      E86CEF6C 
  74      8B812F39 
  74      30983C73 
  74      736470B8 
  75 02d8 A10F4613 		.ascii	"\241\017F\023\003=r\354\255I\016G\207G\222\276\013\027"
  75      033D72EC 
  75      AD490E47 
  75      874792BE 
  75      0B17
  76 02ea 7B8974AD 		.ascii	"{\211t\255\247\265\037\354u/\255\377\002RI\246^"
  76      A7B51FEC 
  76      752FADFF 
  76      025249A6 
  76      5E
  77              		.text
  78              		.section	.gnu.lto_lsm303_readAcceleration.73b9e9e3cdd29560,"",%progbits
  79 0000 789C6D52 		.ascii	"x\234mRMHTQ\024\376\276{\337\317\314\274\211\022\244"
  79      4D485451 
  79      14FEBE7B 
  79      DFCFCCBC 
  79      8912A4
  80 0013 3605E22A 		.ascii	"6\005\342*\210~\300U\013wn\335\215P\253\030\007y<\320"
  80      887EC055 
  80      0B776EDD 
  80      8D50AB18 
  80      07793CD0 
  81 0027 8DA32D74 		.ascii	"\215\243-t\341\235f\012\027\026\203+Q7\"RT\320V\260"
ARM GAS  /tmp/ccR5pkYg.s 			page 6


  81      E19D660A 
  81      1716832B 
  81      51372252 
  81      54D056B0 
  82 003b C54842B3 		.ascii	"\305HB\263Qq%\266\032\202\226A[\025|\236;\367Met\340"
  82      517125B6 
  82      1A829641 
  82      5B157C9E 
  82      3BF74D65 
  83 0051 DDF3FF9D 		.ascii	"\335\363\377\235\237w\024\024\376\245a\371F\305|[8\003"
  83      9F771414 
  83      FEA561F9 
  83      46C57C5B 
  83      3803
  84 0063 50350F80 		.ascii	"P5\017\200ZN\321s\202v\302n\316Sz\351+`\012~#\204)\372"
  84      5A4ED173 
  84      8276C26E 
  84      CE537AE9 
  84      2B600A7E 
  85 007b A4B58358 		.ascii	"\244\265\203XP\332\363\271\360\224\026N\015b\303\230"
  85      50DAF3B9 
  85      F094164E 
  85      0D62C398 
  86 008b E5CECBE3 		.ascii	"\345\316\313\3437\267L\3074\315E\2322\241\024\356'*"
  86      37B74CC7 
  86      34CD459A 
  86      32A114EE 
  86      272A
  87 009d C4135198 		.ascii	"\304\023Q\230\3532\305\253\235t3\233\255\235\237m\232"
  87      EB32C5AB 
  87      9D74339B 
  87      AD9D9F6D 
  87      9A
  88 00ae 6553FB95 		.ascii	"eS\373\225\246\327\023j\205\233\177\022\007\\\242w5"
  88      A6D7136A 
  88      859B7F12 
  88      075CA277 
  88      35
  89 00bf F1936A75 		.ascii	"\361\223ju\322\364\363\207\346\3605\242\314\015\016"
  89      D2F4F387 
  89      E6F035A2 
  89      CC0D0E
  90 00ce 4AB93237 		.ascii	"J\27127\205{t<\340\024\021\312\303<\022zQ\346.f\341"
  90      857B743C 
  90      E01411CA 
  90      C33C127A 
  90      51E62E66 
  91 00e3 423E1A52 		.ascii	"B>\032R}\300\351\316\013[W\250$\257\314\\\242\022\246"
  91      7DC0E9CE 
  91      0B5B57A8 
  91      24AFCC5C 
  91      A212A6
  92 00f6 C7A8218B 		.ascii	"\307\250!\213\320\373x\261\275\362\355N\231[\364q\037"
  92      D0FB78B1 
  92      BDF2ED4E 
  92      995BF471 
  92      1F
ARM GAS  /tmp/ccR5pkYg.s 			page 7


  93 0107 1F8DD033 		.ascii	"\037\215\3203\231\364\036\336[\361qB\177\015\253\322"
  93      99F41EDE 
  93      5BF17142 
  93      7F0DABD2 
  94 0117 6E1033B4 		.ascii	"n\0203\264m\207\335f\307\263\251\255%\367{\004\253\341"
  94      6D87DD66 
  94      C7B3A9AD 
  94      25F77B04 
  94      ABE1
  95 0129 9D7509EC 		.ascii	"\235u\011\354Y\375\355\027\337\341\306\314\317cN:\316"
  95      59FDED17 
  95      DFE1C6CC 
  95      CF634E3A 
  95      CE
  96 013a 5077242E 		.ascii	"Pw$.\377\177\330\277\266y\210W\255\273=\200h\036gf\321"
  96      FF7FD8BF 
  96      B6798857 
  96      ADBB3D80 
  96      681E6766 
  97 014f DC4858A8 		.ascii	"\334HX\250dA\202\332-\350\266\212@V\022\331\312\365"
  97      644182DA 
  97      2DE8B68A 
  97      405612D9 
  97      CAF5
  98 0161 C5FAF977 		.ascii	"\305\372\371w\335K,\306d\026\346h\214\036\344\237\353"
  98      DD4B2CC6 
  98      6416E668 
  98      8C1EE49F 
  98      EB
  99 0172 36F67ED4 		.ascii	"6\366~\324\242^\030c9\233\214N\3402\344\016\266\265"
  99      A25E1863 
  99      399B8C4E 
  99      E032E40E 
  99      B6B5
 100 0184 20E87678 		.ascii	" \350vx\002\025\323S\022\025\351\365\327\005\213\342"
 100      0215D353 
 100      1215E9F5 
 100      D7058BE2 
 101 0194 DB351EA1 		.ascii	"\3335\036\241\3269-\364@\262\273,I\203\215\320*}#\323"
 101      D6392DF4 
 101      40B2BB2C 
 101      49838DD0 
 101      2A7D23D3 
 102 01a8 C9F389E9 		.ascii	"\311\363\211\351\352\303\311\352\324\320\243\241\007"
 102      EAC3C9EA 
 102      D4D0A3A1 
 102      07
 103 01b5 153009AA 		.ascii	"\0250\011\2523\345\231\331\352%(+\212p"
 103      33E599D9 
 103      EA25282B 
 103      8A70
 104              		.text
 105              		.section	.gnu.lto_lsm303_readMagnetometer.73b9e9e3cdd29560,"",%progbits
 106 0000 789C6D52 		.ascii	"x\234mRMK[A\024=g\346}$\276\010\012R\020\272\020W\005"
 106      4D4B5B41 
 106      143D67E6 
 106      7D24BE08 
ARM GAS  /tmp/ccR5pkYg.s 			page 8


 106      0A5210BA 
 107 0017 B1155C15 		.ascii	"\261\025\\\025\354\256?!\202]\2254\310\343A\335\030"
 107      ECAE3F21 
 107      825D9534 
 107      C8E341DD 
 107      18
 108 0028 EBA22E9C 		.ascii	"\353\242.\234\230 .R\010B)(HD\004)\005q\027p\223\202"
 108      98202E52 
 108      08422928 
 108      48440429 
 108      05711770 
 109 003e A89B56DC 		.ascii	"\250\233V\334\325]h)\270\360\027\004iz'\363\322\326"
 109      D55D6829 
 109      B8F01704 
 109      697A27F3 
 109      D2D6
 110 0050 E28537F7 		.ascii	"\342\2057\367c\3569\367\343\215\202\302\377\362L\276"
 110      63EE39F7 
 110      E38D82C2 
 110      FFF24CBE 
 111 0060 BC841F8A 		.ascii	"\274\204\037\212f\000\252\372W\240\234Q\364\234\241"
 111      6600AAFA 
 111      57A09C51 
 111      F49CA1
 112 006f 9DF139E3 		.ascii	"\235\3619\343)];\003\314\200_\015ar>i\343 V\225\366"
 112      295D3B03 
 112      CC805F0D 
 112      61723E69 
 112      E3205695 
 113 0084 7CAEBEA0 		.ascii	"|\256\276\240\245S\343\3305f\263\275\377\375\232\037"
 113      A553E3D8 
 113      3566B3BD 
 113      FFFD9A1F 
 114 0094 4CABDC30 		.ascii	"L\253\3340\267\335.\231PJ\217\020EbN\034fzJ\361n/=l"
 114      B7DD2E99 
 114      504A8F10 
 114      45624E1C 
 114      667A4AF1 
 115 00ac BDF5FEF4 		.ascii	"\275\365\376\364\335\250i\254\325\315/\201&\324\012"
 115      DDA869AC 
 115      D5CD2F81 
 115      26D40A
 116 00bb 0FFE22C7 		.ascii	"\017\376\"\307\034\322\273\213<T\255v\267[;\252vF\007"
 116      1CD2BB8B 
 116      3C54AD76 
 116      B75B3BAA 
 116      764607
 117 00ce 89027739 		.ascii	"\211\002w9.\005\013\334\023\355\321\351\200\013D(\007"
 117      2E050BDC 
 117      13EDD1E9 
 117      800B4428 
 117      07
 118 00df B348E845 		.ascii	"\263H\350E\351u.M\027\361Q\225\372c\316w\267\260\205"
 118      E9752E4D 
 118      17F15195 
 118      FA63CE77 
 118      B7B085
ARM GAS  /tmp/ccR5pkYg.s 			page 9


 119 00f2 ED8AE494 		.ascii	"\355\212\344\224\271\363T\242\364,5d\031\372\013\326"
 119      B9F354A2 
 119      F42C3564 
 119      19FA0BD6 
 120 0102 9ACD1FDF 		.ascii	"\232\315\037\337t\201\373\3641\211OF\344\245\014;\201"
 120      7481FBF4 
 120      31894F46 
 120      E4A50C3B 
 120      81
 121 0113 8FD67C9A 		.ascii	"\217\326|\232\320\337\306\2264\034\304\014m\343a\257"
 121      D0DFC696 
 121      341CC40C 
 121      6DE361AF 
 122 0123 DD57E9E0 		.ascii	"\335W\351\3406\222\3713\204\365p`\257\204\267S9\256"
 122      3692F933 
 122      84F57060 
 122      AF84B753 
 122      39AE
 123 0135 CD39DE98 		.ascii	"\3159\336\230\331\025\274\225\226S\326c\311\313\336"
 123      D915BC95 
 123      9653D663 
 123      C9CBDE
 124 0144 4FFBCF42 		.ascii	"O\373\317B/\260\336z\324'\210V\3201\033f(\341@1M\022"
 124      2FB0DE7A 
 124      D4278856 
 124      D0311B66 
 124      28E14031 
 125 015a D65E41B7 		.ascii	"\326^A\267W\004\262\223\310V\256lT\016k3}`.&\3234'\263"
 125      5704B293 
 125      C856AE6C 
 125      540E6B33 
 125      7D602E26 
 126 0172 F4203F5E 		.ascii	"\364 ?^\237\343\344g9\352\2471\226\267\223\312\025\034"
 126      9FE3E467 
 126      39EAA731 
 126      96B793CA 
 126      151C
 127 0184 421E4353 		.ascii	"B\036CS\013\203>\017\257\240bzJ\262\"}s\324\240\245"
 127      0B833E0F 
 127      AFA0627A 
 127      4AB2227D 
 127      73D4A0A5 
 128 0198 F1ED222F 		.ascii	"\361\355\"/Qn\357\354\261O\223>\317\274\264X\015\255"
 128      516EEFEC 
 128      B14F933E 
 128      CFBCB458 
 128      0DAD
 129 01aa 33FC7C31 		.ascii	"3\374|1Y\236_,=y]Z\230\236\232~\\\004\223\240\264TX"
 129      599E5F2C 
 129      3D795D5A 
 129      989E9A7E 
 129      5C0493A0 
 130 01c1 7A53FA0D 		.ascii	"zS\372\015dY\2164"
 130      64598E34 
 131              		.text
 132              		.section	.gnu.lto_.symbol_nodes.73b9e9e3cdd29560,"",%progbits
 133 0000 789C45C8 		.ascii	"x\234E\310\315\015@@\024\304\361y\363V\035\012P\344"
ARM GAS  /tmp/ccR5pkYg.s 			page 10


 133      CD0D4040 
 133      14C4F179 
 133      F3561D0A 
 133      50E4
 134 0012 5B4B102E 		.ascii	"[K\020.*pQ\212\273&\\%\032\220\370Za.\277\374\207 \002"
 134      2A70518A 
 134      BB265C25 
 134      1A90F85A 
 134      612EBFFC 
 135 0029 DED1D380 		.ascii	"\336\321\323\200~\006\314\206F\222C\340L\231\323\344"
 135      7E06CC86 
 135      469243E0 
 135      4C99D3E4 
 136 0039 7F1968FC 		.ascii	"\177\031h\374SJ\232\306\364^\244\240\271\257\024\011"
 136      534A9AC6 
 136      F45EA4A0 
 136      B9AF1409 
 137 0049 966A4D1F 		.ascii	"\226jM\037\353[\207\251\215\216\335%\257\336\267L5\212"
 137      EB5B87A9 
 137      8D8EDD25 
 137      AFDEB74C 
 137      358A
 138 005b 13A5F526 		.ascii	"\023\245\365&\325"
 138      D5
 139              		.text
 140              		.section	.gnu.lto_.refs.73b9e9e3cdd29560,"",%progbits
 141 0000 789C6362 		.ascii	"x\234cb`b`g\200\000&\006\006FFF\006\000\000\333\000"
 141      60626067 
 141      80002606 
 141      06464646 
 141      060000DB 
 142 0015 11       		.ascii	"\021"
 143              		.text
 144              		.section	.gnu.lto_.decls.73b9e9e3cdd29560,"",%progbits
 145 0000 789CBD5C 		.ascii	"x\234\275\\{t\024E\272\357\356\231d2$\033\036^\025]"
 145      7B741445 
 145      BAEFEE99 
 145      6432241B 
 145      1E5E155D 
 146 0014 EF75F6AE 		.ascii	"\357u\366\256\336\303qW\363\000\005\216\367*\331\004"
 146      DEC37157 
 146      F300058E 
 146      F72AD904 
 147 0024 84BDBC4E 		.ascii	"\204\275\274N\022<p\356\271gh'\0352kf&\333\323\201\360"
 147      123C70EE 
 147      B9676827 
 147      1D326B66 
 147      26DBD381 
 148 0039 970D48AE 		.ascii	"\227\015H\256\240\204\230\200<\026\020\226\247\212("
 148      A0849880 
 148      3C161096 
 148      A78A28
 149 0048 02022EE8 		.ascii	"\002\002.\350\340\003\302cy\210<\002\213\214{\005y\210"
 149      E003C263 
 149      79883C02 
 149      8B8C7B05 
 149      7988
ARM GAS  /tmp/ccR5pkYg.s 			page 11


 150 005a 021A4081 		.ascii	"\002\032@\201\344~\365u\367Lu\247{\246;\272w\316\251"
 150      E47EF575 
 150      F74C75A7 
 150      7BA63BBA 
 150      77CEA9
 151 006d 6FAA6BAA 		.ascii	"o\252k\252~\365}_}\365\325W\325\225p\014\307\354c\031"
 151      7EF57D5F 
 151      7DF5D557 
 151      D595700C 
 151      C7EC6319 
 152 0081 A6033E0F 		.ascii	"\246\003>\017<\3050\333\263\030\306\3150\314\023\220"
 152      3CC530DB 
 152      B318C6CD 
 152      30CC1390 
 153 0091 5C909641 		.ascii	"\\\220\226A\332\004\311\303(\237\014H\367r\014\363{"
 153      DA04C9C3 
 153      289F0C48 
 153      F7720CF3 
 153      7B
 154 00a2 486590C6 		.ascii	"He\220\306B\362C\002\010\346\017\034\243\373\220zw3"
 154      42F24302 
 154      08E60F1C 
 154      A3FB907A 
 154      7733
 155 00b4 CA6FB990 		.ascii	"\312o\271\220r \365\202\262\251PP\015\351\277 _\015"
 155      7220F582 
 155      B2A95050 
 155      0DE9BF20 
 155      5F0D
 156 00c6 29C4297D 		.ascii	")\304)}\334\305)}\223>\377\005\362\377\014\251\020\322"
 156      DCC5297D 
 156      933EFF05 
 156      F2FF0CA9 
 156      10D2
 157 00d8 0048614E 		.ascii	"\000HaN\341!\002\337\343!\325@\032\007)\023\312~\015"
 157      E12102DF 
 157      E321D540 
 157      1A072913 
 157      CA7E0D
 158 00eb DF0590FA 		.ascii	"\337\005\220\372Cz\020\322\243\220\036\347\024\376\357"
 158      437A10D2 
 158      A3901EE7 
 158      14FEEF
 159 00fa 55F9237C 		.ascii	"U\371#|f\250<\026A*\2064\030\322S\006\236\211\\9\252"
 159      66A83C16 
 159      412A8634 
 159      18D25306 
 159      9E895C39 
 160 010f CC1ACF53 		.ascii	"\314\032\317SU^\011/\032_\032\237\032\037\004\206\360"
 160      555E092F 
 160      1A5F1A9F 
 160      1A1F0486 
 160      F0
 161 0120 F06B35FF 		.ascii	"\360k5\377{\265O\222\037\015d\224\241\237\262\237\320"
 161      7BB54F92 
 161      1F0D6494 
 161      A19FB29F 
ARM GAS  /tmp/ccR5pkYg.s 			page 12


 161      D0
 162 0131 CFA3AA9C 		.ascii	"\317\243\252\234\034\223\034\003\222\177\032\310\030"
 162      1C931C03 
 162      927F1AC8 
 162      18
 163 013e 433FBD98 		.ascii	"C?\275\230\227e\370\370Z\240\223\261,\317\346z\031\231"
 163      9765F8F8 
 163      5AA093B1 
 163      2CCFE67A 
 163      1999
 164 0150 C35C8E97 		.ascii	"\303\\\216\227\361A\205\007\231\025\262\334\030\237"
 164      F1418507 
 164      9915B2DC 
 164      189F
 165 015e 3E9BF5F1 		.ascii	">\233\365\361\3542\266\027 \365f\231\207\230\327\240"
 165      EC32B617 
 165      20F56699 
 165      8798D7A0 
 166 016e 55A32C4F 		.ascii	"U\243,O\275\203\351\374I\013\3120<\273\022\260xv\005"
 166      BD83E9FC 
 166      490BCA30 
 166      3CBB12B0 
 166      787605
 167 0181 FB90D285 		.ascii	"\373\220\322\205\034;R\341SJ\031\265\334\344\363+f)"
 167      1C3B52E1 
 167      534A19B5 
 167      DCE4F32B 
 167      6629
 168 0193 F4196BDD 		.ascii	"\364\031k\335\270\225\225\353s<L=<\311\361\351S{\317"
 168      B89595EB 
 168      733C4C3D 
 168      3CC9F1E9 
 168      537BCF
 169 01a6 4F7695A5 		.ascii	"Ov\225\245\365\304&\330\217\035\312\342xv\015\353\001"
 169      F5C426D8 
 169      8F1DCAE2 
 169      78760DEB 
 169      01
 170 01b7 EE7FC3EA 		.ascii	"\356\177\303\352\340m`\020~\336\200\266:n\267\2729\245"
 170      E06D6010 
 170      7EDE80B6 
 170      3A6EB7BA 
 170      39A5
 171 01c9 3405B72E 		.ascii	"4\005\267.\0065\3778\213hno\262\250$Q\304R\025\207%"
 171      0635FF38 
 171      8B686E6F 
 171      B2A82451 
 171      C4521587 
 172 01de 4AB55122 		.ascii	"J\265Q\"\217\2547\231\351`u\035\320|\361\354Z\366A\240"
 172      8FAC3799 
 172      E960751D 
 172      D07CF1EC 
 172      5AF641A0 
 173 01f2 6FB22ED3 		.ascii	"o\262.\323f\0343\222U\325n&\244\232Mv\233\253=hJ?\371"
 173      661C3392 
 173      55D56E26 
 173      A49A4D76 
ARM GAS  /tmp/ccR5pkYg.s 			page 13


 173      9BAB3D68 
 174 0209 FD16A274 		.ascii	"\375\026\242t/\363\002*l\245\234F\351\361\326\3727\177"
 174      2FF3022A 
 174      6CA59C46 
 174      E9F1D6FA 
 174      377F
 175 021b 23CB593C 		.ascii	"#\313Y<\273\211%\022M\326+\336>N\363\314%\003\020g\013"
 175      BB892512 
 175      4DD62BDE 
 175      3E4EF3CC 
 175      25031067 
 176 0230 E2BCCBEA 		.ascii	"\342\274\313\352\201TQ)\245\300\263V!\255\002\323\324"
 176      81545129 
 176      A5C0B356 
 176      21AD02D3 
 176      D4
 177 0241 E59818EB 		.ascii	"\345\230\030\353TmY\264\332\342\237\2748\347\036y\351"
 177      546D59B4 
 177      DAE29FBC 
 177      38E71E79 
 177      E9
 178 0252 876C3633 		.ascii	"\207l63\223\310\273\264^\036\332\222k2Cb.\015l@R\364"
 178      93C8BBB4 
 178      5E1EDA92 
 178      6B324362 
 178      2E0D6C40 
 179 0268 F5FB8FAC 		.ascii	"\365\373\217\254b\247\3112\374\360>\316\275Y\234^\370"
 179      62A7C932 
 179      FCF03ECE 
 179      BD599C5E 
 179      F8
 180 0279 B4403C1B 		.ascii	"\264@<\033c9\240;\214\323\355\312\302\034\331\255\224"
 180      6339A03B 
 180      8CD3EDCA 
 180      C21CD9AD 
 180      94
 181 028a A79F703F 		.ascii	"\247\237p?\234Xr\267\034\217\261\266g\\\374\364\247"
 181      9C5872B7 
 181      1C8FB1B6 
 181      675CFCF4 
 181      A7
 182 029b C70A70D0 		.ascii	"\307\012p\320>\306Y\267\207\353\322\264\333e\234v\207"
 182      3EC659B7 
 182      87EBD2B4 
 182      DB659C76 
 182      87
 183 02ac EABB13AE 		.ascii	"\352\273\023\256w\331\232xG\270\3163/\316\231N\275\363"
 183      77D99A78 
 183      47B8CE33 
 183      2FCE994E 
 183      BDF3
 184 02be 9C7EEEA9 		.ascii	"\234~\356\251\305\337%\213]T\361\024W\242\330M\025\317"
 184      C5DF258B 
 184      5D54F114 
 184      57A2D84D 
 184      15CF
 185 02d0 4E166750 		.ascii	"N\026gP&\221\322\376vQ\023\270\005'\360n\213\011\314"
ARM GAS  /tmp/ccR5pkYg.s 			page 14


 185      2691D2FE 
 185      765113B8 
 185      0527F06E 
 185      8B09CC
 186 02e3 B31B1223 		.ascii	"\263\033\022#\331\245\031\034_\337\360\345Y\266y\232"
 186      D9A5191C 
 186      5FDFF0E5 
 186      59B6799A 
 187 02f3 DC926F66 		.ascii	"\334\222of\214P\205\245\314h\274\006\230\223\030\324"
 187      8C5085A5 
 187      CC68BC06 
 187      989318D4 
 188 0303 D8F613AC 		.ascii	"\330\366\023\254\317\304\342tUy\3668\210\221\256\026"
 188      CFC4E274 
 188      5579F638 
 188      8891AE16 
 189 0313 A977C268 		.ascii	"\251w\302h\222\213O\240I\236\260e\222\353O\314uf\222"
 189      928B4FA0 
 189      499EB065 
 189      92EB4FCC 
 189      756692
 190 0326 B12BC7C8 		.ascii	"\261+\307\310\032v\012\355q\241\253K\366\0307\332c\353"
 190      1A760AED 
 190      71A1AB4B 
 190      F61837DA 
 190      63EB
 191 0338 3CB4C7B8 		.ascii	"<\264\307\270-{\\\345\242lO-[\35725\274O\\z\303\263"
 191      2D7B5CE5 
 191      A26C4F2D 
 191      5BEF3235 
 191      BC4F5C7A 
 192 034e 634A71CA 		.ascii	"cJq\312\224\276@S\372\273\345Zp\014\345?\321\345\305"
 192      94BE4053 
 192      FABBE55A 
 192      700CE53F 
 192      D1E5C5
 193 0361 60C389B9 		.ascii	"`\303\211\271\350\325T/\256\030R\242\256OCp3\324j\360"
 193      E8D5542F 
 193      AE1852A2 
 193      AE4F4370 
 193      33D46AF0 
 194 0375 C90E762A 		.ascii	"\311\016v*\272\262\013\350\307O\273L\027\004\033P\315"
 194      BAB20BE8 
 194      C74FBB4C 
 194      17041B50 
 194      CD
 195 0386 33B70D44 		.ascii	"3\267\015D\337r\011\201\316\271\214\013\202\307\260"
 195      DF720981 
 195      CEB98C0B 
 195      82C7B0
 196 0395 2078F44E 		.ascii	" x\364N\336\343MfH`\333\235qZ\035<\203Q\201:F\315\024"
 196      DEE34D66 
 196      4860DB9D 
 196      715A1D3C 
 196      8351813A 
 197 03ac E8A31508 		.ascii	"\350\243\025\010sq\377\273\354\325\251\362\374|\373"
 197      7371FFBB 
ARM GAS  /tmp/ccR5pkYg.s 			page 15


 197      ECD5A9F2 
 197      FC7CFB
 198 03bb 06DC7C82 		.ascii	"\006\334|\202\030\360U4\340\216\256\031p\233\321\200"
 198      18F05534 
 198      E08EAE19 
 198      709BD180 
 199 03cb 6F2A06DC 		.ascii	"o*\006\334f\313\200\033\334\235\015x\261\333\324\200"
 199      66CB801B 
 199      DC9D0D78 
 199      B1DBD480 
 200 03db DF723B37 		.ascii	"\337r;7\3406\312\200\257\241\001_\2674\340\217\3356"
 200      E036CA80 
 200      AFA1015F 
 200      B734E08F 
 200      DD36
 201 03ed 0C38CBC4 		.ascii	"\0148\313\304\200\251\376\224\236NbO\177c\177\005\364"
 201      80A9FE94 
 201      9E4E624F 
 201      7F637F05 
 201      F4
 202 03fe 3CD22B40 		.ascii	"<\322+@\023\037\2169\3406\332\227\342\241(\244\244+"
 202      131F8E39 
 202      E036DA97 
 202      E2A128A4 
 202      A42B
 203 0410 63526199 		.ascii	"cRa\231\231\012ip\024\242\203Dw\255\330\335\216\256"
 203      990A6970 
 203      14A28344 
 203      77ADD8DD 
 203      8EAE
 204 0422 5A566CC1 		.ascii	"ZVl\301\311%\316\246f\354\203yw\022\033\230\302\221"
 204      C925CEA6 
 204      66EC8379 
 204      77121B98 
 204      C291
 205 0434 218C7792 		.ascii	"!\214w\222\366\2021\276\2623?.\332\221\302l|P\0129\266"
 205      F68231BE 
 205      B2333F2E 
 205      DA91C26C 
 205      7C500A39 
 206 0449 E1E41296 		.ascii	"\341\344\022\226Ha\266\227`\265\366=\0222\304\217|u"
 206      4861B697 
 206      60B5F63D 
 206      1232C48F 
 206      7C75
 207 045b EEACEA5E 		.ascii	"\356\254\352^\3529\022)\255\312H\033)\351\2018f\035"
 207      EA391229 
 207      ADCA481B 
 207      29E98138 
 207      661D
 208 046d 3699C119 		.ascii	"6\231\301\031\226\2456\336\247\224\246[\224\344\330"
 208      96A536DE 
 208      A794A65B 
 208      94E4D8
 209 047c F5335EB9 		.ascii	"\3653^\271)\307\244\253A\264\310\232G\274\030\277g\267"
 209      29C7A4AB 
 209      41B4C89A 
ARM GAS  /tmp/ccR5pkYg.s 			page 16


 209      47BC18BF 
 209      67B7
 210 048e 2CF7E0D9 		.ascii	",\367\340\331Y\310\361%s\216\227\016\262\302\341\230"
 210      59C8F125 
 210      738E970E 
 210      B2C2E198 
 211 049e DBD8A4D1 		.ascii	"\333\330\244\321\300q|\373\325\226{\347#r\243\015\266"
 211      C0717CFB 
 211      D5967BE7 
 211      2372A30D 
 211      B6
 212 04af A7C68ED4 		.ascii	"\247\306\216\324/\266\025\243.uk\335\227$\3058~1\326"
 212      2FB615A3 
 212      2E756BDD 
 212      9724C538 
 212      7E31D6
 213 04c2 1BBDF15C 		.ascii	"\033\275\361\\\224\342\243\314\264z\327\303p\314>l2"
 213      94E2A3CC 
 213      B47AD7C3 
 213      70CC3E6C 
 213      32
 214 04d3 BFB314F1 		.ascii	"\277\263\024\361_*R\314\267%\305MU\012\236\235\303e"
 214      5F2A52CC 
 214      B725C54D 
 214      550A9E9D 
 214      C365
 215 04e5 03ECD104 		.ascii	"\003\354\321\004\254\335\211\244\307k\337\231\323\310"
 215      ACDD89A4 
 215      C76BDF99 
 215      D3C8
 216 04f3 6B60A71C 		.ascii	"k`\247\034\203\371t`\315\273\0269\\0\027\\?w\317v\024"
 216      83F97460 
 216      CDBB1639 
 216      5C30175C 
 216      3F77CF76 
 217 0508 7F294ECC 		.ascii	"\177)N\3147=?\313\304\334\344\261!\210\365\304\204Q"
 217      373D3FCB 
 217      C4DCE4B1 
 217      2188F5C4 
 217      8451
 218 051a 3978DFD6 		.ascii	"9x\337\326wdyF\246f\237\231V\202p\3146\354l\245qd\027"
 218      77647946 
 218      A6669F99 
 218      568270CC 
 218      36EC6CA5 
 219 0531 B41F7C58 		.ascii	"\264\037|X\031\331\225\266Fv\363\336y\366\3543S\353"
 219      19D995B6 
 219      4676F3DE 
 219      79F6EC33 
 219      53EB
 220 0543 BE02BB6F 		.ascii	"\276\002\273o\307\356_7v\277\351\317\347\237P\272\177"
 220      C7EE5F37 
 220      76BFE9CF 
 220      E79F50BA 
 220      7F
 221 0554 DD56F7A7 		.ascii	"\335V\367\247\017\230l\341x\366\211;S\016_\373\345>"
 221      0F986CE1 
ARM GAS  /tmp/ccR5pkYg.s 			page 17


 221      78F6893B 
 221      530E5FFB 
 221      E53E
 222 0566 AF6227EB 		.ascii	"\257b'\353\320\200Z\262\214\303\367d6\335\027>S\025"
 222      D0805AB2 
 222      8CC3F764 
 222      36DD173E 
 222      5315
 223 0578 38E65096 		.ascii	"8\346P\226\306}\227\354\027\304\334\361\344k8R\032\017"
 223      C67D97EC 
 223      17C4DCF1 
 223      E46B3852 
 223      1A0F
 224 058a 471C23EA 		.ascii	"G\034#\352\215\370\352\001\234\021\012X\253\0350KC\232"
 224      8DF8EA01 
 224      9C110A58 
 224      AB1D304B 
 224      439A
 225 059c 1AFB9E06 		.ascii	"\032\373\236\006;\345\030L\317\3315\032\354\013;`=\254"
 225      3BE5184C 
 225      CFD9351A 
 225      EC0B3B60 
 225      3DAC
 226 05ae 39BB4183 		.ascii	"9\273A\203\235q\014\246\347\354G\032\354\274\035\260"
 226      9D710CA6 
 226      E7EC471A 
 226      ECBC1DB0 
 227 05be DED69CDD 		.ascii	"\336\326\234\335\242\301.9\006\323s\326N\203]\261\003"
 227      A2C12E39 
 227      06D373D6 
 227      4E835DB1 
 227      03
 228 05cf E6B3E6AC 		.ascii	"\346\263\346\254\361S\012\254\3151\230\236\263&\032"
 228      F1530AAC 
 228      CD31989E 
 228      B3261A
 229 05de EC073B60 		.ascii	"\354\007;`}\2549\233C\203\335v\014\246\347\354\025\032"
 229      7DAC399B 
 229      4383DD76 
 229      0CA6E7EC 
 229      151A
 230 05f0 6C8AD706 		.ascii	"l\212\327\006X\2765g\363i\260\351\216\301\364\234-\244"
 230      58BE3567 
 230      F369B0E9 
 230      8EC1F49C 
 230      2DA4
 231 0602 C166D801 		.ascii	"\301f\330\001\033`\315\331\"\032l\226c0=go\323`/\333"
 231      1B60CDD9 
 231      221A6C96 
 231      63303D67 
 231      6FD3602F 
 232 0617 011B64CD 		.ascii	"\001\033d\315\331;4\330\034\307`z\3166\322`\363\354"
 232      D93B34D8 
 232      1CC7607A 
 232      CE36D260 
 232      F3EC
 233 0629 800DB5E6 		.ascii	"\200\015\265\346\354]\032l\241c0=g[h\260\305v\300F["
ARM GAS  /tmp/ccR5pkYg.s 			page 18


 233      EC5D1A6C 
 233      A163303D 
 233      675B68B0 
 233      C576C046 
 234 063e 73F61E0D 		.ascii	"s\366\036\015\266\3241\230\236\263m4\330r;`c\2559{\237"
 234      B6D43198 
 234      9EB36D34 
 234      D8723B60 
 234      63AD397B 
 235 0653 065BED18 		.ascii	"\006[\355\030L\317\331A\032\354\015;`\343M8K|\314\332"
 235      4CCFD941 
 235      1AEC0D3B 
 235      60E34D38 
 235      4B7CCCDA 
 236 0667 9165FA35 		.ascii	"\221e\3725\216\332\254\255\363j\001\216\3035\232Ib\274"
 236      8EDAACAD 
 236      F36A018E 
 236      C3359A49 
 236      62BC
 237 0679 E3751A91 		.ascii	"\343u\032\221\351\344&q\362}\357\251\353\274\022\254"
 237      E9E42671 
 237      F27DEFA9 
 237      EBBC12AC 
 238 0689 6EB18398 		.ascii	"n\261\203\230b\001\\\270\213\212|c\216\301\014\246L"
 238      62015CB8 
 238      8B8A7C63 
 238      8EC10CA6 
 238      4C
 239 069a C074A153 		.ascii	"\300t\241S\342\350?\226\372\304\203\274`\342\250\367"
 239      E2E83F96 
 239      FAC483BC 
 239      60E2A8F7 
 240 06aa 04BDCDEB 		.ascii	"\004\275\315\353\362\354E\216l\341\277\346\274\011."
 240      F2EC458E 
 240      6CE1BFE6 
 240      BC092E
 241 06b9 94BC9653 		.ascii	"\224\274\226S\216\014Z\274\372\003\207\304']S+K8O[\302"
 241      8E0C5ABC 
 241      FA0387C4 
 241      275D532B 
 241      4B384F5B 
 242 06ce 5FEDA829 		.ascii	"_\355\250)\305\322~z\327\"<\317\264\377^d\301\365\203"
 242      C5D27E7A 
 242      D7223CCF 
 242      B4FF5E64 
 242      C1F583
 243 06e1 EA06E132 		.ascii	"\352\006\3412n\020>\363\032#\314M\016\337\214@\034f"
 243      6E103EF3 
 243      1A23CC4D 
 243      0EDF8C40 
 243      1C66
 244 06f3 94C2EC58 		.ascii	"\224\302\354X\305:\246\000[<~\377\326u\262<-\323\211"
 244      C53AA600 
 244      5B3C7EFF 
 244      D675B23C 
 244      2DD389
 245 0706 1C2DAA1C 		.ascii	"\034-\252\034m(\307\231\237A\216K\216\345\350c\220#"
ARM GAS  /tmp/ccR5pkYg.s 			page 19


 245      6D28C799 
 245      9F418E4B 
 245      8EE5E863 
 245      9023
 246 0718 D6C7B91C 		.ascii	"\326\307\271\034\307U9~D9\332~\0069n;\226#\237\222\003"
 246      C755397E 
 246      4439DA7E 
 246      06396E3B 
 246      96239F92 
 247 072d 776B8F28 		.ascii	"wk\217(\273\265;\230\246\324\2735\302O\007w\207\341"
 247      BBB53B98 
 247      A6D4BB35 
 247      C24F0777 
 247      87E1
 248 073f 7C7B0F39 		.ascii	"|{\0179r$\3056\016?\366P[\\\331\336\026\367\262\252"
 248      7224C536 
 248      0E3FF650 
 248      5B5CD9DE 
 248      16F7B2AA 
 249 0753 B1A92EA2 		.ascii	"\261\251.\242\261\347\273\231\034\011\333Bj\335\371"
 249      B1E7BB99 
 249      1C09DB42 
 249      6ADDF9
 250 0762 F17AF5F8 		.ascii	"\361z\365\370g:B\315\3542T\363\236\315\312\353\306\027"
 250      673A42CD 
 250      EC3254F3 
 250      9ECDCAEB 
 250      C617
 251 0774 10A8A99B 		.ascii	"\020\250\251\233q\0243\015\203\230\251\037Dx$=\335 "
 251      7114330D 
 251      8398A91F 
 251      4478243D 
 251      DD20
 252 0786 3B6EF639 		.ascii	";n\3669\265\204<x\230\377\367v\034\263\010\331'\003"
 252      B5843C78 
 252      98FFF776 
 252      1CB308D9 
 252      2703
 253 0798 E870814A 		.ascii	"\350p\201J\032\320o\267\252\213\2132H\313\177\022\342"
 253      1AD06FB7 
 253      AA8B8B32 
 253      48CB7F12 
 253      E2
 254 07a9 D4D88617 		.ascii	"\324\330\206\027\265c\232'\311\362\262\366'\302\035"
 254      B5639A27 
 254      C9F2B2F6 
 254      27C21D
 255 07b8 DAEBFC60 		.ascii	"\332\353\374`%v\257bu/\243@\033:\215p\227\016V>\350"
 255      2576AF62 
 255      752FA340 
 255      1B3A8D70 
 255      970E563E 
 256 07cd AA2089   		.ascii	"\252 \211"
 257 07d0 0FC7ECEC 		.ascii	"\017\307\354\354fc\021\361\245\032\255\033\217\330<"
 257      666311F1 
 257      A51AAD1B 
 257      8FD83C
ARM GAS  /tmp/ccR5pkYg.s 			page 20


 258 07df 9C491C42 		.ascii	"\234I\034B\236\353\335\202\312\230\347\"\307w{\014\312"
 258      9EEBDD82 
 258      CA98E722 
 258      C7777B0C 
 258      CA
 259 07f0 B071C8D3 		.ascii	"\260q\310\323\212M\026\272:\035\337\035\274G9e!?\331"
 259      8A4D16BA 
 259      3A1DDF1D 
 259      BC473965 
 259      213FD9
 260 0803 38E4D11D 		.ascii	"8\344\321\035\337\361\354\"\216Sa\273\252O\335\020&"
 260      DFF1EC22 
 260      8E5361BB 
 260      AA4FDD10 
 260      26
 261 0814 F9036817 		.ascii	"\371\003h\027\211\027\026\273t\307\374\347\035\353\336"
 261      891716BB 
 261      74C7FCE7 
 261      1DEBDE
 262 0823 47EB3E76 		.ascii	"G\353>vs\357\"V\341_9\316\375\316\2107\210\216\345\324"
 262      73EF2256 
 262      E15F39CE 
 262      FDCE8837 
 262      888EE5D4 
 263 0837 ACE5BE55 		.ascii	"\254\345\276U\2165\355\307 L\231t\355v\230K\261\325"
 263      8E35EDC7 
 263      204C9974 
 263      ED76984B 
 263      B1D5
 264 0849 5CA28029 		.ascii	"\\\242\200)\006\377|\266S0\237\016l{\203\311q\261rD"
 264      06FF7CB6 
 264      53309F0E 
 264      6C7B83C9 
 264      71B17244 
 265 085d 6EB5B0AC 		.ascii	"n\265\260\254rQ\241\322l;\375\247\330\235\036\331\277"
 265      7251A1D2 
 265      6C3BFDA7 
 265      D89D1ED9 
 265      BF
 266 086e 48B514E5 		.ascii	"H\265\024\345dt\201c<\275<W\032t\036i\205\035\270A\266"
 266      64748163 
 266      3CBD3C57 
 266      1A741E69 
 266      851DB841 
 267 0883 0D2F79AE 		.ascii	"\015/y\256\015F\210\201\352\2378\362fh1\322W\221\256"
 267      0D468881 
 267      EA9F38F2 
 267      666831D2 
 267      5791AE
 268 0896 40FA25D2 		.ascii	"@\372%\322\263H\317!\375\026\351\367H\177@\332\216\364"
 268      B348CF21 
 268      FD16E9F7 
 268      487F40DA 
 268      8EF4
 269 08a8 1517B645 		.ascii	"\025\027\266E\272\014\351r\244+\221\256A\372:m\336V"
 269      BA0CE972 
 269      A42B91AE 
ARM GAS  /tmp/ccR5pkYg.s 			page 21


 269      41FA3A6D 
 269      DE56
 270 08ba E3A24CB5 		.ascii	"\343\242L\265\304\304\324f]c\227\017\315\217&\017\315"
 270      C4C4D466 
 270      5D63970F 
 270      CD8F260F 
 270      CD
 271 08cb 79768963 		.ascii	"yv\211c0_*M6R\232lBM6\2436\326\352'\362\332l\3555N\212"
 271      305F2A4D 
 271      36529A6C 
 271      424D36A3 
 271      36D6EA27 
 272 08e6 89672D42 		.ascii	"\211g-B\374\263\257\316y\026\310\261\347]\332\016h\243"
 272      FCB3AFCE 
 272      7916C8B1 
 272      E75DDA0E 
 272      68A3
 273 08f8 1130ED06 		.ascii	"\0210\355\006M\257\223v\301p\343ByGe5&\353\351\271\262"
 273      4DAF9376 
 273      C170E342 
 273      79476535 
 273      26EBE9B9 
 274 090d CD71DF29 		.ascii	"\315q\337)U8\203R\341\213\250\302\227P\205\353\320d"
 274      55388352 
 274      E18BA8C2 
 274      975085EB 
 274      D064
 275 091f DEA615C9 		.ascii	"\336\246\025\311\26339\303}\023\375\013\263\024\235"
 275      B33339C3 
 275      7D13FD0B 
 275      B3149D
 276 092e 275E72B7 		.ascii	"'^r\267\0355\271p\242\274*J\261(\315{\277\365\276\265"
 276      1D35B970 
 276      A2BC2A4A 
 276      B128CD7B 
 276      BFF5BEB5 
 277 0942 B8746C74 		.ascii	"\270tlt\221\001\270\231m\\\241\347p\206\303s\203!sL"
 277      9101B899 
 277      6D5CA1E7 
 277      7086C373 
 277      8321734C 
 278 0956 438E8D17 		.ascii	"C\216\215\027\220)v2\353\033\256\037e\247M\223\327\344"
 278      90297632 
 278      EB1BAE1F 
 278      65A74D93 
 278      D7E4
 279 0968 AB91855C 		.ascii	"\253\221\205\\/\367Y\223\\\004{h\030\\\202\357\330&"
 279      2FF75993 
 279      5C047B68 
 279      185C82EF 
 279      D826
 280 097a E545EA56 		.ascii	"\345E\352V\364\262ssL\3577\244\207\211\267\326o\376"
 280      F4B27373 
 280      4CEF37A4 
 280      8789B7D6 
 280      6FFE
 281 098c 2D46A0DB 		.ascii	"-F\240\333\020\350\325.\0035\317\\\255\\\224\370\000"
ARM GAS  /tmp/ccR5pkYg.s 			page 22


 281      10E8D52E 
 281      0335CF5C 
 281      AD5C94F8 
 281      00
 282 099d 81D6E418 		.ascii	"\201\326\344\030\325\3502\3049.}\234\343\362&3\035\035"
 282      D5E832C4 
 282      392E7D9C 
 282      E3F22633 
 282      1D1D
 283 09af 2EE61F58 		.ascii	".\346\037X\031\3020\343\200\351$J\027\373\220\001\273"
 283      19C230E3 
 283      80E9244A 
 283      17FB9001 
 283      BB
 284 09c0 AD1A9B76 		.ascii	"\255\032\233v\303d\213\035\023\320!\352L v\353$\372"
 284      C3648B1D 
 284      13D021EA 
 284      4C2076EB 
 284      24FA
 285 09d2 3205EC43 		.ascii	"2\005\354C;`)\216\241\347.y\325\362\035\326\322\264"
 285      3B60298E 
 285      A1E72E79 
 285      D5F21DD6 
 285      D2B4
 286 09e4 57AFE25B 		.ascii	"W\257\342[\317\356\376wr\0210\375\365\253=.{\327\257"
 286      CFEEFE77 
 286      721130FD 
 286      F5AB3D2E 
 286      7BD7AF
 287 09f7 F6B98CEF 		.ascii	"\366\271\214\357\271\367\343\365\253}\266\242\265\353"
 287      B9F7E3F5 
 287      AB7DB6A2 
 287      B5EB
 288 0a05 663180D9 		.ascii	"f1\200\331m\304\204\313\350\235\024\346\330\205\335"
 288      6DC484CB 
 288      E89D14E6 
 288      D885DD
 289 0a14 4F28B71A 		.ascii	"O(\267\032\017b\320y\340\027\351o5\352p\010\177\207"
 289      0F62D079 
 289      E017E96F 
 289      35EA7008 
 289      7F87
 290 0a26 8DFC6F38 		.ascii	"\215\374o8\200\374\037N\317\377\363\323b\233\325wz8"
 290      80FC1F4E 
 290      CFFFF3D3 
 290      629BD577 
 290      7A38
 291 0a38 99A6A5DC 		.ascii	"\231\246\245\3346\360\354E\274\"bg\023\360w\224\344"
 291      36F0EC45 
 291      BC226267 
 291      13F07794 
 291      E4
 292 0a49 B0F3A055 		.ascii	"\260\363\240Uek\213\362N\346(\316\3273\216\301|:\260"
 292      656B8BF2 
 292      4EE628CE 
 292      D7338EC1 
 292      7C3AB0
ARM GAS  /tmp/ccR5pkYg.s 			page 23


 293 0a5c F768B00B 		.ascii	"\367h\260\013v\300\254\0261\000\333F\203}\343\030L\317"
 293      76C0AC16 
 293      3100DB46 
 293      837DE318 
 293      4CCF
 294 0a6e D9FB34D8 		.ascii	"\331\3734\330wv\300\254N+\001\354 \015v\3031\230\317"
 294      7776C0AC 
 294      4E2B01EC 
 294      200D76C3 
 294      3198CF
 295 0a81 CC4A984E 		.ascii	"\314J\230NF\306\263\237\341\256\341\010\256\224\307"
 295      46C6B39F 
 295      E1AEE108 
 295      AE94C7
 296 0a90 919E40FA 		.ascii	"\221\236@\3727\244\237#\215\333\011\272\016\320\013"
 296      37A49F23 
 296      8DDB09BA 
 296      0ED00B
 297 0a9f FC2D6478 		.ascii	"\374-dx_\327,\006\334\336\326\263_<\256\234\376\032"
 297      5FD72C06 
 297      DCDED6B3 
 297      5F3CAE9C 
 297      FE1A
 298 0ab1 D658A20F 		.ascii	"\326X\242\017+\016\276\2449\230\226\353\224\003\037"
 298      2B0EBEA4 
 298      399896EB 
 298      94031F
 299 0ac0 CD41ECE6 		.ascii	"\315A\354\346~\345\344R\273\350\375\202\021\317\356"
 299      7EE5E452 
 299      BBE8FD82 
 299      11CFEE
 300 0acf D52C2D5C 		.ascii	"\325,-\\\332\237\375\366x\015l\266c0\335\365\353X\343"
 300      DA9FFDF6 
 300      780D6CB6 
 300      6330DDF5 
 300      EB58E3
 301 0ae2 010A6C81 		.ascii	"\001\012l\201c\260\036\235,B\261\205\277\242-\354\307"
 301      63B01E9D 
 301      2C42B185 
 301      BFA22DEC 
 301      C7
 302 0af3 31FF5FA4 		.ascii	"1\377_\244g\221\236CzA\037\220.\3155\256\273\212\217"
 302      67919E43 
 302      7A411F90 
 302      2ECD35AE 
 302      BB8A8F
 303 0b06 A55093CE 		.ascii	"\245P\223\316\230\261\213k5\266-\364\330n\310u\272j"
 303      98B18B6B 
 303      35B62DF4 
 303      D86EC875 
 303      BA6A
 304 0b18 E9C61616 		.ascii	"\351\306\026\026\325]_i\213j\013\306b[\355 \246\330"
 304      D55D5F69 
 304      8B6A0BC6 
 304      625BED20 
 304      A6D8
 305 0b2a 896EFCDC 		.ascii	"\211n\374\334\370:\300\314\333s4o\211Uc\3078e\325\270"
ARM GAS  /tmp/ccR5pkYg.s 			page 24


 305      F83AC0CC 
 305      DB73346F 
 305      895563C7 
 305      3865D5B8 
 306 0b3e 8AABC607 		.ascii	"\212\253\306\007\271\351W\015N/#\317\266\031W\215\037"
 306      B9E9570D 
 306      4E2F23CF 
 306      B619578D 
 306      1F
 307 0b4f 0EE3AAD1 		.ascii	"\016\343\252\321fk\325\270}x\216\272ST\274\315^d\241"
 307      666BD5B8 
 307      7D788EBA 
 307      5354BCCD 
 307      5E64A1
 308 0b62 ADCBEEBE 		.ascii	"\255\313\356\276\3750\345\272\0168\006\363\351\300\032"
 308      FD30E5BA 
 308      0E3806F3 
 308      E9C01A
 309 0b71 8F526087 		.ascii	"\217R`\207\355\200\245p\367M4\330q\307`z\316\346\320"
 309      ED80A570 
 309      F74D34D8 
 309      71C7607A 
 309      CEE6D0
 310 0b84 60A7EC80 		.ascii	"`\247\354\200\245p\367\257\320`q\307`z\316\346\323`"
 310      A570F7AF 
 310      D06071C7 
 310      607ACEE6 
 310      D360
 311 0b96 5FDA01B3 		.ascii	"_\332\001\263z\205\003`\013i\260s\216\301\364\234-\242"
 311      7A850360 
 311      0B69B073 
 311      8EC1F49C 
 311      2DA2
 312 0ba8 C1BEB603 		.ascii	"\301\276\266\003\346\263\346l\011\015v\3251\230\317"
 312      E6B3E66C 
 312      090D76D5 
 312      3198CF
 313 0bb7 6C4A281F 		.ascii	"lJ(\037zF\361\3545t\213\327\321Y\375\200\364&\322\333"
 313      7A46F1EC 
 313      35748BD7 
 313      D159FD80 
 313      F426D2DB 
 314 0bcb 483B904E 		.ascii	"H;\220Nq\023:\015\351t\244\377\203t\206\333\206s\273"
 314      71133A0D 
 314      E974A4FF 
 314      837486DB 
 314      8673BB
 315 0bde 423BB7EB 		.ascii	"B;\267\353\216]QJA\222\177\"\303\263\037b\304\367\021"
 315      8E5D514A 
 315      41927F22 
 315      C3B31F62 
 315      C4F711
 316 0bf1 5EE13D82 		.ascii	"^\341=\202T\306}\362t\244\033P\220-H?B\372\011\322]"
 316      54C67DF2 
 316      74A41B50 
 316      902D483F 
 316      42FA09D2 
ARM GAS  /tmp/ccR5pkYg.s 			page 25


 317 0c06 48BF417A 		.ascii	"H\277Az\331\216\257\336\236\274\370\013\373q7\331n\257"
 317      D98EAFDE 
 317      9EBCF80B 
 317      FB7137D9 
 317      6EAF
 318 0c18 ECF295F2 		.ascii	"\354\362\225\3623{g;\275\223\1771\276J}k2\013\357o\337"
 318      337B673B 
 318      BD937F31 
 318      BE4A7D6B 
 318      320BEF6F 
 319 0c2d ECB45275 		.ascii	"\354\264Ru\351(|zw6\275$)\356\030No\230\305\222\210"
 319      E9287C7A 
 319      7736BD24 
 319      29EE184E 
 319      6F98C592 
 320 0c42 A227D388 		.ascii	"\242'\323\210\036\275\267\362.V\255;VC\310VYjr\367\304"
 320      1EBDB7F2 
 320      2E56AD3B 
 320      5643C856 
 320      596A72F7 
 321 0c57 9CEE1D0F 		.ascii	"\234\356\035\017\326\260\322{\263;\371\2767\307\233"
 321      D6B0D27B 
 321      B33BF9BE 
 321      37C79B
 322 0c66 CC744BD8 		.ascii	"\314tK\330\326,\243\010\272^\323\270<X\346\332n\264"
 322      D62CA308 
 322      BA5ED3B8 
 322      3C58E6DA 
 322      6EB4
 323 0c78 B072538E 		.ascii	"\260rS\216!&#a\210\025O\257\270)\323n\262\243\301\024"
 323      21262361 
 323      88154FAF 
 323      B829D36E 
 323      B2A3C114 
 324 0c8c 6F93AF55 		.ascii	"o\223\257U\220\025\233@r\314|\307X>\2139\302\350\377"
 324      90159B40 
 324      72CC7CC7 
 324      583E8B39 
 324      C2E8FF
 325 0c9f 70936757 		.ascii	"p\223gW\3414Y\215\023d#\322mH_\302\031\3752\322\271"
 325      E134598D 
 325      136423D2 
 325      6D485FC2 
 325      19FD32D2 
 326 0cb4 48E7D3B3 		.ascii	"H\347\323\263\373~f\211\2744\036\277\375\343\356?\222"
 326      FB7E6689 
 326      BC341EBF 
 326      FDE3EE3F 
 326      92
 327 0cc5 8336B9A3 		.ascii	"\2036\271\243\3439\346.f\256:x2+)\307\336V\232\372\223"
 327      E339E62E 
 327      66AE3A78 
 327      322B29C7 
 327      DE569AFA 
 328 0cda FB2ECCB9 		.ascii	"\373.\314\271\224\2778H\033Lx4\200\272\244\351\037\272"
 328      94BF3848 
 328      1B4C7834 
ARM GAS  /tmp/ccR5pkYg.s 			page 26


 328      80BAA4E9 
 328      1FBA
 329 0cec B9E33EC5 		.ascii	"\271\343>\305\362\227\270I0\361a\367\364\301\204\016"
 329      F297B849 
 329      30F161F7 
 329      F4C1840E 
 330 0cfc 8730B2CC 		.ascii	"\2070\262\314m\010&\216\355\304`\202\224\247\177_zj"
 330      6D08268E 
 330      EDC46082 
 330      94A77F5F 
 330      7A6A
 331 0d0e E71CF585 		.ascii	"\347\034\365\205\201\362w\265{\221\005\322V\355P\326"
 331      81F277B5 
 331      7B9105D2 
 331      56ED50D6 
 332 0d1e FDD16CBA 		.ascii	"\375\321l\272\255\200\034\373|\010q\362\012\330\021"
 332      AD801CFB 
 332      7C0871F2 
 332      0AD811
 333 0d2d 5B603E6B 		.ascii	"[`>k\260\266\372\206\344}\004\331\326\337{\356\\\373"
 333      B0B6FA86 
 333      E47D04D9 
 333      D6DF7BEE 
 333      5CFB
 334 0d3f 109E36AD 		.ascii	"\020\2366\255A_r\332\240Q\373@\315{\026\347!\320\033"
 334      415F72DA 
 334      A051FB40 
 334      CD7B16E7 
 334      21D01B
 335 0d52 0874B6BB 		.ascii	"\010t\266\273\321)1\006\237\304\350}\022<\312\035\352"
 335      D1293106 
 335      9FC4E87D 
 335      123CCA1D 
 335      EA
 336 0d63 4779230A 		.ascii	"Gy#\012%\3171]j\3031\337\0325i\266i\030d\251H\260\264"
 336      25CF315D 
 336      6AC331DF 
 336      1A3569B6 
 336      691864A9 
 337 0d7a D65F2EC2 		.ascii	"\326_.\302\253\004\232fn9F\244\3674\020\262\356l\320"
 337      AB049A66 
 337      6E3946A4 
 337      F73410B2 
 337      EE6CD0
 338 0d8d B9C7F97A 		.ascii	"\271\307\371z\3172Z\357\315x\366\035\307\376q\203\205"
 338      CF325AEF 
 338      CD78F61D 
 338      C7FE7183 
 338      85
 339 0d9e 7FD464E3 		.ascii	"\177\324d\343\230\031=\0142\350z5\223\241\207N\206\037"
 339      98193D0C 
 339      32E87A35 
 339      93A1874E 
 339      861F
 340 0db0 87906D19 		.ascii	"\207\220m\031\341\214c\232\355`Y^\226\223c\267\000\313"
 340      E18C639A 
 340      ED60595E 
ARM GAS  /tmp/ccR5pkYg.s 			page 27


 340      969363B7 
 340      00CB
 341 0dc2 4217FA13 		.ascii	"B\027\372\023k\"\332\026\307\312\330j\241\014\355\317"
 341      6B22DA16 
 341      C7CAD86A 
 341      A10CEDCF 
 342 0dd2 C63866B1 		.ascii	"\3068f\261Q\000\323\203r\335\245:\3355\215X;jc\013j"
 342      5100D383 
 342      72DDA53A 
 342      DD358D58 
 342      3B6A630B 
 343 0de7 63B52DB0 		.ascii	"c\265-\260\361&`f\037\332I\361\354\237\335\304_/G\217"
 343      F1266066 
 343      1FDA49F1 
 343      EC9FDDC4 
 343      5F2F478F 
 344 0dfb BC12E96A 		.ascii	"\274\022\351j\244o!]\217t\023\322\315H\377b'&[\234\\"
 344      A46F215D 
 344      8F7413D2 
 344      CD48FF62 
 344      27265B9C 
 345 0e10 B8548F9C 		.ascii	"\270T\217\234\010l\022\317\352\315\027\3433\317\216"
 345      086C12CF 
 345      EACD17E3 
 345      33CF8E
 346 0e1f 491E1473 		.ascii	"I\036\024s\314\372\036\372\231\376\000\263\\\226\233"
 346      CCFA1EFA 
 346      99FE00B3 
 346      5C969B
 347 0e2e C83A7188 		.ascii	"\310:q\210lB\207*}q\314v\254\267\320}\277)O*GJc\371"
 347      6C42872A 
 347      7D71CC76 
 347      ACB7D07D 
 347      BF294F2A 
 348 0e46 2FC25085 		.ascii	"/\302P\205\035\216\331\221\246\0312\2556\273\371\337"
 348      1D8ED991 
 348      A61932AD 
 348      36BBF9DF 
 349 0e56 BDB55383 		.ascii	"\275\265S\203\026c3\303\3553\224Em\266}gv\276\326\356"
 349      166333C3 
 349      ED339445 
 349      6DB67D67 
 349      76BED6EE 
 350 0e6a A09D760C 		.ascii	"\240\235v\014\363o\314Jb\210o\325O\357\341V\326=&\005"
 350      F36FCC4A 
 350      62886FD5 
 350      4FEFE156 
 350      D63D2605 
 351 0e7e 97AACE63 		.ascii	"\227\252\316cn\335?rP\026\324\330F\241E\276\0141\230"
 351      6EDD3F72 
 351      5016D4D8 
 351      46A145BE 
 351      0C3198
 352 0e91 83B574AF 		.ascii	"\203\265t\257~-Ut\227f\230\216\233\016\223\274AP\007"
 352      7E2D5574 
 352      9766988E 
 352      9B0E93BC 
ARM GAS  /tmp/ccR5pkYg.s 			page 28


 352      415007
 353 0ea4 08C2670C 		.ascii	"\010\302g\014e\367\330\032\240SIM_F\340=]\323\230Uo"
 353      65F7D81A 
 353      A053494D 
 353      5F46E03D 
 353      5DD39855 
 354 0eb9 AAA0FB4D 		.ascii	"\252\240\373M5\326\256jLQ\004\307\\\263)\332ag\242\361"
 354      35D6AE6A 
 354      4C5104C7 
 354      5CB329DA 
 354      6167A2F1 
 355 0ecd EC216333 		.ascii	"\354!c3'\242Y\365\246\212\366Yg\321\342\215\361\025"
 355      27A259F5 
 355      A68AF659 
 355      67D1E28D 
 355      F115
 356 0edf 9FBE24B3 		.ascii	"\237\276$\263\215S\342\035\035\367;\260\207\326\024"
 356      8D53E21D 
 356      1DF73BB0 
 356      87D614
 357 0eee B195125B 		.ascii	"\261\225\022[X\265<i\342\006\354M\373\206\236z\245k"
 357      58B53C69 
 357      E206EC4D 
 357      FB869E7A 
 357      A56B
 358 0f00 727D6E26 		.ascii	"r}n&W\354\366q+\271,\376 \207@\305\215f~\2226\363t\336"
 358      57ECF671 
 358      2BB92CFE 
 358      208740C5 
 358      8D667E92 
 359 0f18 4A0DCD2D 		.ascii	"J\015\315-\237g\271\351\372\006\235Q;\227Nl\235s\323"
 359      9F67B9E9 
 359      FA069D51 
 359      3B974E6C 
 359      9D73D3
 360 0f2b AF310D6A 		.ascii	"\2571\015jYi\241\226\363z\265\374+\263L\226?\005'\271"
 360      5969A196 
 360      F37AB5FC 
 360      2BB34C96 
 360      3F0527B9 
 361 0f3f ACCF3C39 		.ascii	"\254\317<96E\226oA\004\303jSjc\002\304\314\356\360\345"
 361      3645966F 
 361      4104C36A 
 361      536A6302 
 361      C4CCEEF0 
 362 0f54 860A3796 		.ascii	"\206\0127\226M\010n\220\200\254\322V\022|\235\224\300"
 362      4D086E90 
 362      80ACD256 
 362      127C9D94 
 362      C0
 363 0f65 D06A4B8A 		.ascii	"\320jK\212V\227,[\221\201\262j\365\215e\253\246\024"
 363      56972C5B 
 363      9181B26A 
 363      F58D65AB 
 363      A614
 364 0f77 7D7D6BD9 		.ascii	"}}k\331\2525E_\227\251\221\271\263D\014N\024\304h^\260"
 364      AA35455F 
ARM GAS  /tmp/ccR5pkYg.s 			page 29


 364      97A991B9 
 364      B3440C4E 
 364      14C4685E 
 365 0f8c 30E08F0A 		.ascii	"0\340\217\012\341hD|\244\212\311\036VX\\\206\017~)\363"
 365      E168447C 
 365      A48AC91E 
 365      56585C86 
 365      0F7E29F3 
 366 0fa0 A991637C 		.ascii	"\251\221c|\305L\367dQT\342%!k\330\310\242\342\362aO"
 366      C54CF764 
 366      5154E225 
 366      216BD8C8 
 366      A2E2F261 
 367 0fb5 0F760F2B 		.ascii	"\017v\017+\031>\330\375\2731e\3432\360\207\007\362j"
 367      193ED8FD 
 367      BB3165E3 
 367      32F08707 
 367      F26A
 368 0fc7 A3621E2F 		.ascii	"\243b\036/\206\036\016G\302\302\303\002\377L0/\030\016"
 368      861E0E47 
 368      C2C2C302 
 368      FF4C302F 
 368      180E
 369 0fd9 54D75608 		.ascii	"T\327V\010yQ\251\"\030\226\240\003O-|\017\360K\375R"
 369      7951A922 
 369      1896A003 
 369      4F2D7C0F 
 369      F04BFD52 
 370 0fed 540EF181 		.ascii	"T\016\361\201\252`X\310\363W\010\225|m\265\344\227&"
 370      AA6058C8 
 370      F3570895 
 370      7C6DB5E4 
 370      9726
 371 0fff D7       		.ascii	"\327"
 372 1000 085168EC 		.ascii	"\010Qh\354\365\373\325\346\036\276\242B\024\242\321"
 372      F5FBD5E6 
 372      1EBEA242 
 372      14A2D1
 373 100f 92BCAA48 		.ascii	"\222\274\252HH\310\013D*&\347U\010\023\363\240\3413"
 373      48C80B44 
 373      2A26E755 
 373      0813F3A0 
 373      E133
 374 1021 C148344F 		.ascii	"\301H4O\022k\303\317\346A\246\212\257\316\253\211\210"
 374      126BC3CF 
 374      E641A68A 
 374      AFCEAB89 
 374      88
 375 1032 5234AFAC 		.ascii	"R4\257\254|D\337\302\274\341\303K\362@\240\211\005("
 375      7C44DFC2 
 375      BCE1C34B 
 375      F240A089 
 375      0528
 376 1044 77757505 		.ascii	"wuu\005\201\205\002E\033\205v\34046\001\000\032w\203"
 376      81850245 
 376      1B8576E0 
 376      34360100 
ARM GAS  /tmp/ccR5pkYg.s 			page 30


 376      1A7783
 377 1057 2F14DF2F 		.ascii	"/\024\337/u\003\034\377\230\221\303F\016+\317\"\331"
 377      75031CFF 
 377      9891C346 
 377      0E2BCF22 
 377      D9
 378 1068 B2F251A3 		.ascii	"\262\362Q\243\011\266\277tpQ\311\270_\220\234\2429\177"
 378      09B6BF74 
 378      7051C9B8 
 378      5F909CA2 
 378      397F
 379 107a F958FAA9 		.ascii	"\371X\372\251t,\266\034>\252\370?\007\227d\003^\244"
 379      742CB61C 
 379      3EAAF83F 
 379      07976403 
 379      5EA4
 380 108c 2614A920 		.ascii	"&\024\251 \200\243F\217\030U2\330\017\277\336\241f\313"
 380      80A3468F 
 380      185532D8 
 380      0FBFDEA1 
 380      66CB
 381 109e 4680C2FD 		.ascii	"F\200\302\375%\203\237\036V<\270\247\256l\350\250\262"
 381      25839F1E 
 381      563CB8A7 
 381      AE6CE8A8 
 381      B2
 382 10af 724FA4C6 		.ascii	"rO\244\306O\232f\0215\365-\004\004Ec$\233\035\250\216"
 382      4F9A6611 
 382      35F52D04 
 382      04456324 
 382      9B1DA88E 
 383 10c3 049EF547 		.ascii	"\004\236\365Gk\004\241\"\027:\251\250\225&\007&\007"
 383      6B04A122 
 383      173AA9A8 
 383      95260726 
 383      07
 384 10d4 AAA19FDC 		.ascii	"\252\241\237\334\262\362\022\177\311\230\362q\376\342"
 384      B2F2127F 
 384      C998F271 
 384      FEE2
 385 10e2 71C5C307 		.ascii	"q\305\303\007\367\034RTVN=\373\013\377\311XR\360\230"
 385      F71C5254 
 385      564E3DFB 
 385      0BFFC958 
 385      52F098
 386 10f5 7F603782 		.ascii	"\177`7\202\340G\010\"eq$\\\031\234\220\031\300/\242"
 386      E0470822 
 386      6571245C 
 386      199C9019 
 386      C02FA2
 387 1108 95CA6A7E 		.ascii	"\225\312j~B\024\314H\020\305\210\030\355\233N\265\242"
 387      4214CC48 
 387      10C58818 
 387      ED9B4EB5 
 387      A2
 388 1119 94D06CA0 		.ascii	"\224\320l\240*$\325\021c\011\325JB\235_\312\300\357"
 388      2A24D511 
ARM GAS  /tmp/ccR5pkYg.s 			page 31


 388      6309D54A 
 388      429D5FCA 
 388      C0EF
 389 112b 018E10A2 		.ascii	"\001\216\020\242\223\243\232\331t\227\252D\201\257\210"
 389      93A39AD9 
 389      7497AA44 
 389      81AF88
 390 113a FAFF582B 		.ascii	"\372\377X+\324\202\270=\002U~]Q?g\310\201*b5Y\012\204"
 390      D482B83D 
 390      02557E5D 
 390      513F67C8 
 390      812A6235 
 391 1151 5FF226E0 		.ascii	"_\362&\3402k\374a\241N\202\257\032Q\2308\324\006\252"
 391      326BFC61 
 391      A14E82AF 
 391      1A519838 
 391      D406AA
 392 1164 629A45A5 		.ascii	"b\232E\245#\212G\324A\315PM\260\232\314\311\247\212"
 392      238A47D4 
 392      41CD504D 
 392      B09ACCC9 
 392      A78A
 393 1176 8BA1BAC6 		.ascii	"\213\241\272\306\277G\252\021\203\021\277\202\033\214"
 393      BF47AA11 
 393      8311BF82 
 393      1B8C
 394 1184 7840C5A0 		.ascii	"x@\305\240\016i\240c\374\252@D\024\310,'\305~\260\213"
 394      0E69A063 
 394      FCAA4044 
 394      14C82C27 
 394      C57EB08B 
 395 1198 8054F71F 		.ascii	"\200T\367\037]C\361O\354\037\"J\020\205\0110\211\375"
 395      5D43F14F 
 395      EC1F224A 
 395      10850930 
 395      89FD
 396 11aa 922B5AF0 		.ascii	"\222+Z\360\030\244\376\220\006@\032\350\212\026\346"
 396      18A4FE90 
 396      06401AE8 
 396      8A16E6
 397 11b9 432A8054 		.ascii	"C*\200T\010\251/\244~\220\036\205\004\365\012\241^!"
 397      08A92FA4 
 397      7E901E85 
 397      04F50AA1 
 397      5E21
 398 11cb D42B847A 		.ascii	"\324+\204z}\241^\337\002N\354\307\211\217r\342c\234"
 398      7DA15EDF 
 398      024EECC7 
 398      898F72E2 
 398      639C
 399 11dd D89F1307 		.ascii	"\330\237\023\007p\342@\227X\220\017\251\200\253\026"
 399      70E24097 
 399      58900FA9 
 399      80AB16
 400 11ec E1AB6F46 		.ascii	"\341\253oF\215\037\270\365\020\015O\022D\370\216TW\010"
 400      8D1FB8F5 
 400      100D4F12 
ARM GAS  /tmp/ccR5pkYg.s 			page 32


 400      44F88E54 
 400      5708
 401 11fe A23B50C5 		.ascii	"\242;P\305\213D\355|H\310\222\324y\010?b\316#)\323\010"
 401      8B44ED7C 
 401      48C892D4 
 401      79083F62 
 401      CE2329D3 
 402 1213 9ED1163D 		.ascii	"\236\321\026=\222(TFQ\217$\223\021\212N\200\037\325"
 402      92285446 
 402      518F2493 
 402      118A4E80 
 402      1FD5
 403 1225 E901BE45 		.ascii	"\351\001\276E\315e\212\025\223\341\247,\241.(\201Z\204"
 403      CD658A15 
 403      93E1A72C 
 403      A12E2881 
 403      5A84
 404 1237 CC4952E4 		.ascii	"\314IR\344\231?\324d\013\023\205\260\024\342\243\317"
 404      993FD464 
 404      0B1385B0 
 404      14E2A3CF 
 405 1247 129B9E44 		.ascii	"\022\233\236D2\256\032\177m\256fI\325\301(x\252\356"
 405      32AE1A7F 
 405      6DAE6649 
 405      D5C12878 
 405      AAEE
 406 1259 946D9112 		.ascii	"\224m\221\022o\215\177\022\037\224\202\341\011\335`"
 406      6F8D7F12 
 406      1F9482E1 
 406      09DD60
 407 1268 6A4627A0 		.ascii	"jF'\240\275e`\026\012\204\032!\014\216q\002\324\002"
 407      BD656016 
 407      0A841A21 
 407      0C8E7102 
 407      D402
 408 127a 8B27F5BB 		.ascii	"\213'\365\273\021\336\370j\034g(\254\211D\252=!\305"
 408      11DEF86A 
 408      1C6728AC 
 408      8944AA3D 
 408      21C5
 409 128c 4AE13B32 		.ascii	"J\341;2),\210\231!\264\262\376\216\214V\345\011\206"
 409      292C8899 
 409      21B4B2FE 
 409      8E8C56E5 
 409      0986
 410 129e AC976AB7 		.ascii	"\254\227j\267\240\002A\024\302\001PP\246R\344\205IK"
 410      A0024114 
 410      C2015050 
 410      A652E485 
 410      494B
 411 12b0 FCAA5F42 		.ascii	"\374\252_B\377\001s\\\363\037$\353&?y\305\272\212\020"
 411      FF01735C 
 411      F31F24EB 
 411      263F79C5 
 411      BA8A10
 412 12c3 4FD4EA95 		.ascii	"O\324\352\225\264\334\020\247>\030\351\220~uu\260,\204"
 412      B4DC10A7 
ARM GAS  /tmp/ccR5pkYg.s 			page 33


 412      3E18E990 
 412      7E7575B0 
 412      2C84
 413 12d5 40E38003 		.ascii	"@\343\200\003|=\236\016\006d\316+\036Q6\254\014\000"
 413      7C3D9E0E 
 413      0664CE2B 
 413      1E5136AC 
 413      0C00
 414 12e7 949695FD 		.ascii	"\224\226\225\375\362\013\352\210\023\356U2\242\310_"
 414      F20BEA88 
 414      13EE5532 
 414      A2C85F
 415 12f6 06C3CB87 		.ascii	"\006\303\313\207\374\3450kJ\204J\256\270\324=\262\244"
 415      FCE5306B 
 415      4A844AAE 
 415      B8D43DB2 
 415      A4
 416 1307 BCD435BA 		.ascii	"\274\3245\272\250\324=\"\237\220\202\242R\327\220\342"
 416      A8D43D22 
 416      9F9082A2 
 416      52D790E2 
 417 1317 D2CC2856 		.ascii	"\322\314(Vt\007+\003bf0Z\025\254\224\274Q\241\2722\030"
 417      74072B03 
 417      6266305A 
 417      15AC94BC 
 417      51A1BA32 
 418 132c AE10EA32 		.ascii	"\256\020\3522'\012\001)\"\366Jp\346Wj\203\023\202\007"
 418      270A0129 
 418      22F64A70 
 418      E6576A83 
 418      138207
 419 133f B18E50A9 		.ascii	"\261\216P\251\216,\223ZG\256\342\322\002H\205\356QE"
 419      8E2C935A 
 419      47AEE2D2 
 419      024885EE 
 419      5145
 420 1351 A5058414 		.ascii	"\245\005\204\024r%\245\2562(,+-t\025\027\227f\224\227"
 420      7225A5AE 
 420      32282C2B 
 420      2D741517 
 420      97669497 
 421 1365 0E2B1BEC 		.ascii	"\016+\033\354\0362\034\230\001\015{\211g\012\206\210"
 421      1E321C98 
 421      010D7B89 
 421      670A8688 
 422 1375 5D92AF48 		.ascii	"]\222\257H\255\344&\326\233!\325\375\256\2662C$\264"
 422      ADE426D6 
 422      9B21D5FD 
 422      AEB63243 
 422      24B4
 423 1387 A7B63657 		.ascii	"\247\2666WGC}\363\373>\022`\214%0\363\224\034\030.\037"
 423      47437DF3 
 423      FB3E1260 
 423      8C2530F3 
 423      941C182E 
 424 139c 0828EBB3 		.ascii	"\010(\353\2637\304OPr\231\312*\231\2056\015\231\034"
 424      37C44F50 
ARM GAS  /tmp/ccR5pkYg.s 			page 34


 424      7299CA2A 
 424      9985360D 
 424      991C
 425 13ae FE99DA4A 		.ascii	"\376\231\332J\177 R\013\216C\314\011Q\0170\214<\364"
 425      7F20520B 
 425      8E43CC09 
 425      510F308C 
 425      3CF4
 426 13c0 5889B990 		.ascii	"X\211\271\220\232\023\023e\242V\226\255v\027\014\007"
 426      9A131365 
 426      A25696AD 
 426      76170C07 
 427 13d0 2517E433 		.ascii	"%\027\3443+\220!\017t^\004v\341\201\256\311\367\335"
 427      2B90210F 
 427      745E0476 
 427      E181AEC9 
 427      F7DD
 428 13e2 6A35624E 		.ascii	"j5bNE\201\200\000\336\214\227\202\221pF\230\224\320"
 428      45818000 
 428      DE8C9782 
 428      91704698 
 428      94D0
 429 13f4 BF8EE027 		.ascii	"\277\216\340'\204\005\011F\034\230\270\213\212:D>\034"
 429      84050946 
 429      1C98B88B 
 429      8A3A443E 
 429      1C
 430 1405 E503921F 		.ascii	"\345\003\222\037x\314M\026\223n\275$J)&l\377\037yr~"
 430      78CC4D16 
 430      936EBD24 
 430      4A29266C 
 430      FF1F7972 
 431 141a AF       		.ascii	"\257"
 432              		.text
 433              		.section	.gnu.lto_.symtab.73b9e9e3cdd29560,"",%progbits
 434 0000 6C736D33 		.ascii	"lsm303_init\000\000\000\000\000\000\000\000\000\000"
 434      30335F69 
 434      6E697400 
 434      00000000 
 434      00000000 
 435 0015 00001A02 		.ascii	"\000\000\032\002\000\000lsm303_readAcceleration\000"
 435      00006C73 
 435      6D333033 
 435      5F726561 
 435      64416363 
 436 0033 00000000 		.ascii	"\000\000\000\000\000\000\000\000\000\000\000J\002\000"
 436      00000000 
 436      0000004A 
 436      0200
 437 0041 006C736D 		.ascii	"\000lsm303_readMagnetometer\000\000\000\000\000\000"
 437      3330335F 
 437      72656164 
 437      4D61676E 
 437      65746F6D 
 438 005f 00000000 		.ascii	"\000\000\000\000\000\000S\002\000\000I2CSensor_tran"
 438      00005302 
 438      00004932 
ARM GAS  /tmp/ccR5pkYg.s 			page 35


 438      4353656E 
 438      736F725F 
 439 0077 73616374 		.ascii	"sact_buf\000\000\002\000\000\000\000\000\000\000\000"
 439      5F627566 
 439      00000200 
 439      00000000 
 439      000000
 440 008a 00580200 		.ascii	"\000X\002\000\000I2CSensor_init\000\000\002\000\000"
 440      00493243 
 440      53656E73 
 440      6F725F69 
 440      6E697400 
 441 00a2 00000000 		.ascii	"\000\000\000\000\000\000\000_\002\000\000"
 441      0000005F 
 441      020000
 442              		.text
 443              		.section	.gnu.lto_.opts,"",%progbits
 444 0000 272D6D63 		.ascii	"'-mcpu=cortex-m4' '-mfloat-abi=hard' '-mfpu=fpv4-sp"
 444      70753D63 
 444      6F727465 
 444      782D6D34 
 444      2720272D 
 445 0033 2D643136 		.ascii	"-d16' '-mno-thumb-interwork' '-mthumb' '-O2' '-fomi"
 445      2720272D 
 445      6D6E6F2D 
 445      7468756D 
 445      622D696E 
 446 0066 742D6672 		.ascii	"t-frame-pointer' '-falign-functions=16' '-ffunction"
 446      616D652D 
 446      706F696E 
 446      74657227 
 446      20272D66 
 447 0099 2D736563 		.ascii	"-sections' '-fdata-sections' '-fno-common' '-flto' "
 447      74696F6E 
 447      73272027 
 447      2D666461 
 447      74612D73 
 448 00cc 272D6673 		.ascii	"'-fsingle-precision-constant'\000"
 448      696E676C 
 448      652D7072 
 448      65636973 
 448      696F6E2D 
 449              		.text
 450              		.section	.text.lsm303_init,"ax",%progbits
 451              		.align	2
 452              		.p2align 4,,15
 453              		.global	lsm303_init
 454              		.thumb
 455              		.thumb_func
 456              		.type	lsm303_init, %function
 457              	lsm303_init:
 458              		@ args = 0, pretend = 0, frame = 32
 459              		@ frame_needed = 0, uses_anonymous_args = 0
 460 0000 2DE9F04F 		push	{r4, r5, r6, r7, r8, r9, r10, fp, lr}
 461 0004 304E     		ldr	r6, .L2
 462 0006 314D     		ldr	r5, .L2+4
 463 0008 DFF8C4C0 		ldr	ip, .L2+8
ARM GAS  /tmp/ccR5pkYg.s 			page 36


 464 000c 0446     		mov	r4, r0
 465 000e 0F46     		mov	r7, r1
 466 0010 9346     		mov	fp, r2
 467 0012 96E80700 		ldmia	r6, {r0, r1, r2}
 468 0016 8DB0     		sub	sp, sp, #52
 469 0018 06AE     		add	r6, sp, #24
 470 001a 03C6     		stmia	r6!, {r0, r1}
 471 001c 110C     		lsrs	r1, r2, #16
 472 001e 26F8022B 		strh	r2, [r6], #2	@ movhi
 473 0022 0491     		str	r1, [sp, #16]
 474 0024 95E80700 		ldmia	r5, {r0, r1, r2}
 475 0028 09AD     		add	r5, sp, #36
 476 002a 03C5     		stmia	r5!, {r0, r1}
 477 002c 9CF80010 		ldrb	r1, [ip]	@ zero_extendqisi2
 478 0030 25F8022B 		strh	r2, [r5], #2	@ movhi
 479 0034 9946     		mov	r9, r3
 480 0036 01F1300E 		add	lr, r1, #48
 481 003a 06AB     		add	r3, sp, #24
 482 003c 0131     		adds	r1, r1, #1
 483 003e 0293     		str	r3, [sp, #8]
 484 0040 0591     		str	r1, [sp, #20]
 485 0042 049B     		ldr	r3, [sp, #16]
 486 0044 04F15600 		add	r0, r4, #86
 487 0048 4FF03208 		mov	r8, #50
 488 004c 4FEA124A 		lsr	r10, r2, #16
 489 0050 5FFA8EFE 		uxtb	lr, lr
 490 0054 8DE80101 		stmia	sp, {r0, r8}
 491 0058 5A46     		mov	r2, fp
 492 005a 2046     		mov	r0, r4
 493 005c 3946     		mov	r1, r7
 494 005e 3370     		strb	r3, [r6]
 495 0060 85F800A0 		strb	r10, [r5]
 496 0064 04F14203 		add	r3, r4, #66
 497 0068 059D     		ldr	r5, [sp, #20]
 498 006a 8CF80050 		strb	r5, [ip]
 499 006e 8DF821E0 		strb	lr, [sp, #33]
 500 0072 8DF82DE0 		strb	lr, [sp, #45]
 501 0076 04F12005 		add	r5, r4, #32
 502 007a FFF7FEFF 		bl	I2CSensor_init
 503 007e 09AE     		add	r6, sp, #36
 504 0080 04F16603 		add	r3, r4, #102
 505 0084 3946     		mov	r1, r7
 506 0086 4A46     		mov	r2, r9
 507 0088 2846     		mov	r0, r5
 508 008a 0093     		str	r3, [sp]
 509 008c 0296     		str	r6, [sp, #8]
 510 008e 04F14C03 		add	r3, r4, #76
 511 0092 CDF80480 		str	r8, [sp, #4]
 512 0096 FFF7FEFF 		bl	I2CSensor_init
 513 009a 2026     		movs	r6, #32
 514 009c 2723     		movs	r3, #39
 515 009e 84F84330 		strb	r3, [r4, #67]
 516 00a2 84F84260 		strb	r6, [r4, #66]
 517 00a6 2046     		mov	r0, r4
 518 00a8 0221     		movs	r1, #2
 519 00aa 0022     		movs	r2, #0
 520 00ac FFF7FEFF 		bl	I2CSensor_transact_buf
ARM GAS  /tmp/ccR5pkYg.s 			page 37


 521 00b0 0022     		movs	r2, #0
 522 00b2 2846     		mov	r0, r5
 523 00b4 84F84C60 		strb	r6, [r4, #76]
 524 00b8 84F84D20 		strb	r2, [r4, #77]
 525 00bc 0221     		movs	r1, #2
 526 00be FFF7FEFF 		bl	I2CSensor_transact_buf
 527 00c2 0DB0     		add	sp, sp, #52
 528              		@ sp needed
 529 00c4 BDE8F08F 		pop	{r4, r5, r6, r7, r8, r9, r10, fp, pc}
 530              	.L3:
 531              		.align	2
 532              	.L2:
 533 00c8 00000000 		.word	.LC0
 534 00cc 0C000000 		.word	.LC1
 535 00d0 00000000 		.word	.LANCHOR0
 536              		.size	lsm303_init, .-lsm303_init
 537 00d4 AFF30080 		.section	.text.lsm303_readAcceleration,"ax",%progbits
 537      AFF30080 
 537      AFF30080 
 538              		.align	2
 539              		.p2align 4,,15
 540              		.global	lsm303_readAcceleration
 541              		.thumb
 542              		.thumb_func
 543              		.type	lsm303_readAcceleration, %function
 544              	lsm303_readAcceleration:
 545              		@ args = 0, pretend = 0, frame = 0
 546              		@ frame_needed = 0, uses_anonymous_args = 0
 547 0000 F8B5     		push	{r3, r4, r5, r6, r7, lr}
 548 0002 0E46     		mov	r6, r1
 549 0004 0546     		mov	r5, r0
 550 0006 69B1     		cbz	r1, .L5
 551 0008 0024     		movs	r4, #0
 552 000a A827     		movs	r7, #168
 553              	.L6:
 554 000c 85F84270 		strb	r7, [r5, #66]
 555 0010 2846     		mov	r0, r5
 556 0012 0121     		movs	r1, #1
 557 0014 0622     		movs	r2, #6
 558 0016 FFF7FEFF 		bl	I2CSensor_transact_buf
 559 001a 0134     		adds	r4, r4, #1
 560 001c E4B2     		uxtb	r4, r4
 561 001e B442     		cmp	r4, r6
 562 0020 0346     		mov	r3, r0
 563 0022 F3D1     		bne	.L6
 564              	.L5:
 565 0024 1846     		mov	r0, r3
 566 0026 F8BD     		pop	{r3, r4, r5, r6, r7, pc}
 567              		.size	lsm303_readAcceleration, .-lsm303_readAcceleration
 568 0028 AFF30080 		.section	.text.lsm303_readMagnetometer,"ax",%progbits
 568      AFF30080 
 569              		.align	2
 570              		.p2align 4,,15
 571              		.global	lsm303_readMagnetometer
 572              		.thumb
 573              		.thumb_func
 574              		.type	lsm303_readMagnetometer, %function
ARM GAS  /tmp/ccR5pkYg.s 			page 38


 575              	lsm303_readMagnetometer:
 576              		@ args = 0, pretend = 0, frame = 0
 577              		@ frame_needed = 0, uses_anonymous_args = 0
 578 0000 2DE9F041 		push	{r4, r5, r6, r7, r8, lr}
 579 0004 0D46     		mov	r5, r1
 580 0006 0646     		mov	r6, r0
 581 0008 79B1     		cbz	r1, .L12
 582 000a 00F12008 		add	r8, r0, #32
 583 000e 0024     		movs	r4, #0
 584 0010 A827     		movs	r7, #168
 585              	.L13:
 586 0012 86F84C70 		strb	r7, [r6, #76]
 587 0016 4046     		mov	r0, r8
 588 0018 0121     		movs	r1, #1
 589 001a 0622     		movs	r2, #6
 590 001c FFF7FEFF 		bl	I2CSensor_transact_buf
 591 0020 0134     		adds	r4, r4, #1
 592 0022 E4B2     		uxtb	r4, r4
 593 0024 AC42     		cmp	r4, r5
 594 0026 0346     		mov	r3, r0
 595 0028 F3D1     		bne	.L13
 596              	.L12:
 597 002a 1846     		mov	r0, r3
 598 002c BDE8F081 		pop	{r4, r5, r6, r7, r8, pc}
 599              		.size	lsm303_readMagnetometer, .-lsm303_readMagnetometer
 600              		.section	.rodata.str1.4,"aMS",%progbits,1
 601              		.align	2
 602              	.LC0:
 603 0000 4C534D33 		.ascii	"LSM303_A-X\000"
 603      30335F41 
 603      2D5800
 604 000b 00       		.space	1
 605              	.LC1:
 606 000c 4C534D33 		.ascii	"LSM303_M-X\000"
 606      30335F4D 
 606      2D5800
 607 0017 00       		.section	.bss.sensCount,"aw",%nobits
 608              		.set	.LANCHOR0,. + 0
 609              		.type	sensCount, %object
 610              		.size	sensCount, 1
 611              	sensCount:
 612 0000 00       		.space	1
 613              		.comm	__gnu_lto_v1,1,1
 614              		.ident	"GCC: (GNU Tools for ARM Embedded Processors) 4.8.4 20140526 (release) [ARM/embedded-4_8-br
ARM GAS  /tmp/ccR5pkYg.s 			page 39

