ARM GAS  /tmp/ccM9GzNE.s 			page 1


   1              		.syntax unified
   2              		.cpu cortex-m4
   3              		.eabi_attribute 27, 3
   4              		.eabi_attribute 28, 1
   5              		.fpu fpv4-sp-d16
   6              		.eabi_attribute 20, 1
   7              		.eabi_attribute 21, 1
   8              		.eabi_attribute 23, 3
   9              		.eabi_attribute 24, 1
  10              		.eabi_attribute 25, 1
  11              		.eabi_attribute 26, 1
  12              		.eabi_attribute 30, 2
  13              		.eabi_attribute 34, 1
  14              		.eabi_attribute 18, 4
  15              		.thumb
  16              		.file	"lsm303.c"
  17              		.section	.gnu.lto_.jmpfuncs.bc892aa275a5fc75,"",%progbits
  18 0000 789C6362 		.ascii	"x\234cb`b\300\006\216Cif\006ff\226\006\246LF\020\207"
  18      6062C006 
  18      8E436966 
  18      06666696 
  18      06A64C46 
  19 0016 29823193 		.ascii	")\2021\223\221\221\011\306\000I\2630\340\222b\207kc"
  19      919109C6 
  19      0049B330 
  19      E0926287 
  19      6B63
  20 0028 6660602C 		.ascii	"f``,\203\311\310A\314\005s\230\214\030\300\012\031\260"
  20      83C9C841 
  20      CC057398 
  20      8C18C00A 
  20      19B0
  21 003a A893C550 		.ascii	"\250\223\305P\307\304\214f\033#\214\301\006\324\213"
  21      C7C48C66 
  21      1B238CC1 
  21      06D48B
  22 0049 E14C6459 		.ascii	"\341LdY\006\000\257\016\020\000"
  22      0600AF0E 
  22      1000
  23              		.text
  24              		.section	.gnu.lto_.inline.bc892aa275a5fc75,"",%progbits
  25 0000 789C6362 		.ascii	"x\234cb`b\300\006\026@if\0061\275\213\014\214\214\014"
  25      6062C006 
  25      16406966 
  25      0631BD8B 
  25      0C8C8C0C 
  26 0014 8C400E93 		.ascii	"\214@\016\223B\303/F\006\256\003v`=\254|@\351\011~\014"
  26      42C32F46 
  26      06AE0376 
  26      603DAC7C 
  26      40E9097E 
  27 0029 0C2CBC50 		.ascii	"\014,\274P\006\207 \003\003\373\004? \023L`\360\231"
  27      06872003 
  27      03FB043F 
  27      20134C60 
  27      F099
  28 003b 18787631 		.ascii	"\030xv122\201\315b\004\033\310>\363\004\013\003\373"
ARM GAS  /tmp/ccM9GzNE.s 			page 2


  28      323281CD 
  28      62041BC8 
  28      3EF3040B 
  28      03FB
  29 004d FC3C2606 		.ascii	"\374<&\006\016\260\211\214\020\203\230\211U\310\000"
  29      0EB0898C 
  29      10839889 
  29      55C800
  30 005c 00A30716 		.ascii	"\000\243\007\026\036"
  30      1E
  31              		.text
  32              		.section	.gnu.lto_.pureconst.bc892aa275a5fc75,"",%progbits
  33 0000 789C6362 		.ascii	"x\234cb`b`g\200\000f\006)&)f)\000\001\321\000b"
  33      60626067 
  33      80006606 
  33      29262966 
  33      290001D1 
  34              		.text
  35              		.section	.gnu.lto_lsm303_init.bc892aa275a5fc75,"",%progbits
  36 0000 789CA554 		.ascii	"x\234\245TML\023A\024~o\272KK\177\240E\224H\002i8\350"
  36      4D4C1341 
  36      147E6FBA 
  36      4B4B7FA0 
  36      45944802 
  37 0017 41410435 		.ascii	"AA\0045\334\200\350\305('Q\361djC\310&\026#\005\017"
  37      DC80E8C5 
  37      282751F1 
  37      646A43C8 
  37      26162305 
  38 002c 72600A44 		.ascii	"r`\012D\210\027\033\2744\030c\0101\365\207\350\301K"
  38      88171BBC 
  38      34186308 
  38      31F587E8 
  38      C14B
  39 003e 35511B13 		.ascii	"5Q\033\023\023\214\"\030/\230h\322\243\211\0368sp}3"
  39      138C2218 
  39      2F9868D2 
  39      A3891E38 
  39      73707D33 
  40 0052 B3DB764B 		.ascii	"\263\333vK\011U6\351\354\314\274\367}\337{\337L\227"
  40      095536E9 
  40      ECCCBCF7 
  40      7DDF7BDF 
  40      4C97
  41 0064 0183D267 		.ascii	"\001\203\322g?\375z\334\000\027\350\215.@\226\374\014"
  41      3FFD7ADC 
  41      0017E88D 
  41      2E4096FC 
  41      0C
  42 0075 90F03044 		.ascii	"\220\3600D1\001\204\011\206\023\227P\244\352-\260\300"
  42      31018409 
  42      86139750 
  42      A4EA2DB0 
  42      C0
  43 0086 F95CEEFD 		.ascii	"\371\\\356\375\314\235\206\3339\236\344\177L\023\015"
  43      CC9D86DB 
  43      399EE47F 
ARM GAS  /tmp/ccM9GzNE.s 			page 3


  43      4C130D
  44 0095 24D27A84 		.ascii	"$\322z\204(\302\000-\320#_\014\235*\012\231}\363}MK"
  44      28C2002D 
  44      D0235F0C 
  44      9D2A0A99 
  44      7DF37D4D 
  45 00aa F1E9AC69 		.ascii	"\361\351\254ivK\\\270,.\206N`6\231}\371\323\303\347"
  45      764B5CB8 
  45      2C2E864E 
  45      6036997D 
  45      F9D3C3E7 
  46 00be 7862C334 		.ascii	"xb\3034k\015t18\\\000\016(\240o\253 \341^i\313\266\034"
  46      6B0D7431 
  46      385C000E 
  46      28A06FAB 
  46      20E15E69 
  47 00d5 A13A2A41 		.ascii	"\241:*A\361d\366\307\357e,\310i\014\272\012\300\260"
  47      F164F6C7 
  47      EF652CC8 
  47      690CBA0A 
  47      C0B0
  48 00e7 026A4EE0 		.ascii	"\002jN\340s\226\315\231\346\322\342\332\201&\015\"\270"
  48      7396CD99 
  48      E6D2E2DA 
  48      81260D22 
  48      B8
  49 00f8 802DA083 		.ascii	"\200-\240\203\201\272\233\026\213\264\360b\014\321G"
  49      81BA9B16 
  49      8BB4F062 
  49      0CD147
  50 0107 3B557E1A 		.ascii	";U~\032\334\001\032<5\264\307\202b/$\366\352\304^#\345"
  50      DC011A3C 
  50      35B4C782 
  50      622F24F6 
  50      EAC45E23 
  51 011c 3FA67CE1 		.ascii	"?\246|\3416LS-\341\010>\244u\004\323rT\261\2504\250"
  51      364C532D 
  51      E1083EA4 
  51      7504D372 
  51      54B1A834 
  52 0131 9F467146 		.ascii	"\237FqF\347\221\211\267k\005&_\247f\002\021|\212:(X"
  52      E79189B7 
  52      6B05265F 
  52      A7660211 
  52      7C8A3A28 
  53 0146 3374DFE7 		.ascii	"3t\337\347\251\036j\236\362E\374\221\333\016\247e\370"
  53      A91E6A9E 
  53      F245FC91 
  53      DB0EA765 
  53      F8
  54 0157 8C23FC61 		.ascii	"\214#\374a}\246V\305\207P\273\007\363\011\316\203\006"
  54      7DA656C5 
  54      8750BB07 
  54      F309CE83 
  54      06
  55 0168 568FC326 		.ascii	"V\217\303&\237\0253\257:\031a\200\327j|\005\246f]6F"
  55      9F1533AF 
ARM GAS  /tmp/ccM9GzNE.s 			page 4


  55      3A196180 
  55      D76A7C05 
  55      A6665D36 
  56 017d 279808EA 		.ascii	"'\230\010\352\355\212\357\264\012\264\302\022\247\347"
  56      ED8AEFB4 
  56      0AB4C212 
  56      A7E7
  57 018b 38055459 		.ascii	"8\005TY\"\307Wm{G8\3053en\240M\345\266\250\252\321A"
  57      22C7576D 
  57      7B4738C5 
  57      33656EA0 
  57      4DE5B6A8 
  58 01a2 55495104 		.ascii	"UIQ\004\336V=\275\235\372\344\346\324\3427f\253\373"
  58      DE563DBD 
  58      9DFAE4E6 
  58      D4E23766 
  58      ABFB
  59 01b4 C6E1269D 		.ascii	"\306\341&\235\313!x\"\240\327\015\364\2230\301\002C"
  59      CB217822 
  59      A0D70DF4 
  59      9330C102 
  59      43
  60 01c5 E815F01A 		.ascii	"\350\025\360\032\011\275R|\311%\305f\336\012\277dp["
  60      09BD527C 
  60      C925C566 
  60      DE0ABF64 
  60      705B
  61 01d7 0C77AB0C 		.ascii	"\014w\253\014\254-O\201\245\024~\233\" )<\026\305W\242"
  61      AC2D4F81 
  61      A5147E9B 
  61      2220293C 
  61      16C557A2 
  62 01eb 0896A728 		.ascii	"\010\226\247(\372S\257\302<\317\350\212\001 \357Q(j"
  62      FA53AFC2 
  62      3CCFE88A 
  62      0120EF51 
  62      286A
  63 01fd E9506B43 		.ascii	"\351PkCX#\215m\022U\222\212X\324u\310\\z\036\270\015"
  63      58238D6D 
  63      1255928A 
  63      58D475C8 
  63      5C7A1EB8 
  64 0212 DC63DF39 		.ascii	"\334c\3379\311b`\275UZ\272`P\260B\203\\\333\032\024"
  64      C96260BD 
  64      555ABA60 
  64      50B04283 
  64      5CDB1A14 
  65 0226 AAD420AD 		.ascii	"\252\324 \255\224\"oP]\245\006\351\377bP\3206\250YT"
  65      94226F50 
  65      5DA506E9 
  65      FF6250D0 
  65      36A85954 
  66 023a 492A650D 		.ascii	"I*e\015Jo5(\223\372\330\340\270r\027\211\304*\356\350"
  66      4A6F3528 
  66      93FAD8E0 
  66      B8721789 
  66      C42AEEE8 
ARM GAS  /tmp/ccM9GzNE.s 			page 5


  67 024e 0EE72FEF 		.ascii	"\016\347/\357d\276H)\037V\015g2\273dE\007\353A\351\301"
  67      64BE4829 
  67      1F560D67 
  67      32BB6445 
  67      07EB41E9 
  68 0263 ADDCB313 		.ascii	"\255\334\263\023[<\330\033\265n\022]\022\231\313\024"
  68      5B3CD81B 
  68      B56E125D 
  68      1299CB14 
  69 0273 4474B8CF 		.ascii	"Dt\270\317\252e\365?j\321v\352p}\227\254\316\016\301"
  69      AA65F53F 
  69      6AD176EA 
  69      707D97AC 
  69      CE0EC1
  70 0286 EAF06D97 		.ascii	"\352\360m\227}O\032\313\265\030,\333\342\273_\254\370"
  70      7D4F1ACB 
  70      B5182CDB 
  70      E2BB5FAC 
  70      F8
  71 0297 FB790C5E 		.ascii	"\373y\014^\360Y\264\277\217E\301tI\360\013$r\237\274"
  71      F059B4BF 
  71      8F45C174 
  71      49F00B24 
  71      729FBC
  72 02aa 7941554E 		.ascii	"yAUN?\035\003}\230\205b\350\324\210qcp$~\344j<\326\331"
  72      3F1D037D 
  72      988562E8 
  72      D4887163 
  72      70247EE4 
  73 02c2 DED91605 		.ascii	"\336\331\026\005_|p8~\362\332\330\360h[{\321\274C\037"
  73      5F7C7038 
  73      7EF2DAD8 
  73      F0685B7B 
  73      D1BC431F 
  74 02d6 8EC4067B 		.ascii	"\216\304\006{\345\330W\025\037\215\214\216\305}g\317"
  74      E5D85715 
  74      1F8D8C8E 
  74      C57D67CF 
  75 02e6 F511E872 		.ascii	"\365\021\350ro\353\000\330\363>\232\377\005y\246\245"
  75      6FEB00D8 
  75      F33E9AFF 
  75      0579A6A5 
  76 02f6 EE       		.ascii	"\356"
  77              		.text
  78              		.section	.gnu.lto_lsm303_readAcceleration.bc892aa275a5fc75,"",%progbits
  79 0000 789C6D52 		.ascii	"x\234mRMHTQ\024\376\276{\337\317\314\274\211\022\244"
  79      4D485451 
  79      14FEBE7B 
  79      DFCFCCBC 
  79      8912A4
  80 0013 3605E22A 		.ascii	"6\005\342*\210~\300U\013wn\335\215P\253\030\007y<\320"
  80      887EC055 
  80      0B776EDD 
  80      8D50AB18 
  80      07793CD0 
  81 0027 8DA32D74 		.ascii	"\215\243-t\341\235f\012\027\026\203+Q7\"RT\320V\260"
  81      E19D660A 
ARM GAS  /tmp/ccM9GzNE.s 			page 6


  81      1716832B 
  81      51372252 
  81      54D056B0 
  82 003b C54842B3 		.ascii	"\305HB\263Qq%\266\032\202\226A[\025|\236;\367Met\340"
  82      517125B6 
  82      1A829641 
  82      5B157C9E 
  82      3BF74D65 
  83 0051 DDF3FF9D 		.ascii	"\335\363\377\235\237w\024\024\376\245a\371F\305|[8\003"
  83      9F771414 
  83      FEA561F9 
  83      46C57C5B 
  83      3803
  84 0063 50350F80 		.ascii	"P5\017\200ZN\321s\202v\302n\316Sz\351+`\012~#\204)\372"
  84      5A4ED173 
  84      8276C26E 
  84      CE537AE9 
  84      2B600A7E 
  85 007b A4B58358 		.ascii	"\244\265\203XP\332\363\271\360\224\026N\015b\303\230"
  85      50DAF3B9 
  85      F094164E 
  85      0D62C398 
  86 008b E5CECBE3 		.ascii	"\345\316\313\3437\267L\3074\315E\2322\241\024\356'*"
  86      37B74CC7 
  86      34CD459A 
  86      32A114EE 
  86      272A
  87 009d C4135198 		.ascii	"\304\023Q\230\3532\305\253\235t3\233\255\235\237m\232"
  87      EB32C5AB 
  87      9D74339B 
  87      AD9D9F6D 
  87      9A
  88 00ae 6553FB95 		.ascii	"eS\373\225\246\327\023j\205\233\177\022\007\\\242w5"
  88      A6D7136A 
  88      859B7F12 
  88      075CA277 
  88      35
  89 00bf F1936A75 		.ascii	"\361\223ju\322\364\363\207\346\3605\242\314\015\016"
  89      D2F4F387 
  89      E6F035A2 
  89      CC0D0E
  90 00ce 4AB93237 		.ascii	"J\27127\205{t<\340\024\021\312\303<\022zQ\346.f\341"
  90      857B743C 
  90      E01411CA 
  90      C33C127A 
  90      51E62E66 
  91 00e3 423E1A52 		.ascii	"B>\032R}\300\351\316\013[W\250$\257\314\\\242\022\246"
  91      7DC0E9CE 
  91      0B5B57A8 
  91      24AFCC5C 
  91      A212A6
  92 00f6 C7A8218B 		.ascii	"\307\250!\213\320\373x\261\275\362\355N\231[\364q\037"
  92      D0FB78B1 
  92      BDF2ED4E 
  92      995BF471 
  92      1F
  93 0107 1F8DD033 		.ascii	"\037\215\3203\231\364\036\336[\361qB\177\015\253\322"
ARM GAS  /tmp/ccM9GzNE.s 			page 7


  93      99F41EDE 
  93      5BF17142 
  93      7F0DABD2 
  94 0117 6E1033B4 		.ascii	"n\0203\264m\207\335f\307\263\251\255%\367{\004\253\341"
  94      6D87DD66 
  94      C7B3A9AD 
  94      25F77B04 
  94      ABE1
  95 0129 9D7509EC 		.ascii	"\235u\011\354Y\375\355\027\337\341\306\314\317cN:\316"
  95      59FDED17 
  95      DFE1C6CC 
  95      CF634E3A 
  95      CE
  96 013a 5077242E 		.ascii	"Pw$.\377\177\330\277\266y\210W\255\273=\200h\036gf\321"
  96      FF7FD8BF 
  96      B6798857 
  96      ADBB3D80 
  96      681E6766 
  97 014f DC4858A8 		.ascii	"\334HX\250dA\202\332-\350\266\212@V\022\331\312\365"
  97      644182DA 
  97      2DE8B68A 
  97      405612D9 
  97      CAF5
  98 0161 C5FAF977 		.ascii	"\305\372\371w\335K,\306d\026\346h\214\036\344\237\353"
  98      DD4B2CC6 
  98      6416E668 
  98      8C1EE49F 
  98      EB
  99 0172 36F67ED4 		.ascii	"6\366~\324\242^\030c9\233\214N\3402\344\016\266\265"
  99      A25E1863 
  99      399B8C4E 
  99      E032E40E 
  99      B6B5
 100 0184 20E87678 		.ascii	" \350vx\002\025\323S\022\025\351\365\327\005\213\342"
 100      0215D353 
 100      1215E9F5 
 100      D7058BE2 
 101 0194 DB351EA1 		.ascii	"\3335\036\241\3269-\364@\262\273,I\203\215\320*}#\323"
 101      D6392DF4 
 101      40B2BB2C 
 101      49838DD0 
 101      2A7D23D3 
 102 01a8 C9F389E9 		.ascii	"\311\363\211\351\352\303\311\352\324\320\243\241\007"
 102      EAC3C9EA 
 102      D4D0A3A1 
 102      07
 103 01b5 153009AA 		.ascii	"\0250\011\2523\345\231\331\352%(+\212p"
 103      33E599D9 
 103      EA25282B 
 103      8A70
 104              		.text
 105              		.section	.gnu.lto_lsm303_readMagnetometer.bc892aa275a5fc75,"",%progbits
 106 0000 789C6D52 		.ascii	"x\234mRMK[A\024=g\346}$\276\010\012R\020\272\020W\005"
 106      4D4B5B41 
 106      143D67E6 
 106      7D24BE08 
 106      0A5210BA 
ARM GAS  /tmp/ccM9GzNE.s 			page 8


 107 0017 B1155C15 		.ascii	"\261\025\\\025\354\256?!\202]\2254\310\343A\335\030"
 107      ECAE3F21 
 107      825D9534 
 107      C8E341DD 
 107      18
 108 0028 EBA22E9C 		.ascii	"\353\242.\234\230 .R\010B)(HD\004)\005q\027p\223\202"
 108      98202E52 
 108      08422928 
 108      48440429 
 108      05711770 
 109 003e A89B56DC 		.ascii	"\250\233V\334\325]h)\270\360\027\004iz'\363\322\326"
 109      D55D6829 
 109      B8F01704 
 109      697A27F3 
 109      D2D6
 110 0050 E28537F7 		.ascii	"\342\2057\367c\3569\367\343\215\202\302\377\362L\276"
 110      63EE39F7 
 110      E38D82C2 
 110      FFF24CBE 
 111 0060 BC841F8A 		.ascii	"\274\204\037\212f\000\252\372W\240\234Q\364\234\241"
 111      6600AAFA 
 111      57A09C51 
 111      F49CA1
 112 006f 9DF139E3 		.ascii	"\235\3619\343)];\003\314\200_\015ar>i\343 V\225\366"
 112      295D3B03 
 112      CC805F0D 
 112      61723E69 
 112      E3205695 
 113 0084 7CAEBEA0 		.ascii	"|\256\276\240\245S\343\3305f\263\275\377\375\232\037"
 113      A553E3D8 
 113      3566B3BD 
 113      FFFD9A1F 
 114 0094 4CABDC30 		.ascii	"L\253\3340\267\335.\231PJ\217\020EbN\034fzJ\361n/=l"
 114      B7DD2E99 
 114      504A8F10 
 114      45624E1C 
 114      667A4AF1 
 115 00ac BDF5FEF4 		.ascii	"\275\365\376\364\335\250i\254\325\315/\201&\324\012"
 115      DDA869AC 
 115      D5CD2F81 
 115      26D40A
 116 00bb 0FFE22C7 		.ascii	"\017\376\"\307\034\322\273\213<T\255v\267[;\252vF\007"
 116      1CD2BB8B 
 116      3C54AD76 
 116      B75B3BAA 
 116      764607
 117 00ce 89027739 		.ascii	"\211\002w9.\005\013\334\023\355\321\351\200\013D(\007"
 117      2E050BDC 
 117      13EDD1E9 
 117      800B4428 
 117      07
 118 00df B348E845 		.ascii	"\263H\350E\351u.M\027\361Q\225\372c\316w\267\260\205"
 118      E9752E4D 
 118      17F15195 
 118      FA63CE77 
 118      B7B085
 119 00f2 ED8AE494 		.ascii	"\355\212\344\224\271\363T\242\364,5d\031\372\013\326"
ARM GAS  /tmp/ccM9GzNE.s 			page 9


 119      B9F354A2 
 119      F42C3564 
 119      19FA0BD6 
 120 0102 9ACD1FDF 		.ascii	"\232\315\037\337t\201\373\3641\211OF\344\245\014;\201"
 120      7481FBF4 
 120      31894F46 
 120      E4A50C3B 
 120      81
 121 0113 8FD67C9A 		.ascii	"\217\326|\232\320\337\306\2264\034\304\014m\343a\257"
 121      D0DFC696 
 121      341CC40C 
 121      6DE361AF 
 122 0123 DD57E9E0 		.ascii	"\335W\351\3406\222\3713\204\365p`\257\204\267S9\256"
 122      3692F933 
 122      84F57060 
 122      AF84B753 
 122      39AE
 123 0135 CD39DE98 		.ascii	"\3159\336\230\331\025\274\225\226S\326c\311\313\336"
 123      D915BC95 
 123      9653D663 
 123      C9CBDE
 124 0144 4FFBCF42 		.ascii	"O\373\317B/\260\336z\324'\210V\3201\033f(\341@1M\022"
 124      2FB0DE7A 
 124      D4278856 
 124      D0311B66 
 124      28E14031 
 125 015a D65E41B7 		.ascii	"\326^A\267W\004\262\223\310V\256lT\016k3}`.&\3234'\263"
 125      5704B293 
 125      C856AE6C 
 125      540E6B33 
 125      7D602E26 
 126 0172 F4203F5E 		.ascii	"\364 ?^\237\343\344g9\352\2471\226\267\223\312\025\034"
 126      9FE3E467 
 126      39EAA731 
 126      96B793CA 
 126      151C
 127 0184 421E4353 		.ascii	"B\036CS\013\203>\017\257\240bzJ\262\"}s\324\240\245"
 127      0B833E0F 
 127      AFA0627A 
 127      4AB2227D 
 127      73D4A0A5 
 128 0198 F1ED222F 		.ascii	"\361\355\"/Qn\357\354\261O\223>\317\274\264X\015\255"
 128      516EEFEC 
 128      B14F933E 
 128      CFBCB458 
 128      0DAD
 129 01aa 33FC7C31 		.ascii	"3\374|1Y\236_,=y]Z\230\236\232~\\\004\223\240\264TX"
 129      599E5F2C 
 129      3D795D5A 
 129      989E9A7E 
 129      5C0493A0 
 130 01c1 7A53FA0D 		.ascii	"zS\372\015dY\2164"
 130      64598E34 
 131              		.text
 132              		.section	.gnu.lto_.symbol_nodes.bc892aa275a5fc75,"",%progbits
 133 0000 789C45C8 		.ascii	"x\234E\310\315\015@@\024\304\361y\363V\035\012P\344"
 133      CD0D4040 
ARM GAS  /tmp/ccM9GzNE.s 			page 10


 133      14C4F179 
 133      F3561D0A 
 133      50E4
 134 0012 5B4B102E 		.ascii	"[K\020.*pQ\212\273&\\%\032\220\370Za.\277\374\207 \002"
 134      2A70518A 
 134      BB265C25 
 134      1A90F85A 
 134      612EBFFC 
 135 0029 DED1D380 		.ascii	"\336\321\323\200~\006\314\206F\222C\340L\231\323\344"
 135      7E06CC86 
 135      469243E0 
 135      4C99D3E4 
 136 0039 7F1968FC 		.ascii	"\177\031h\374SJ\232\306\364^\244\240\271\257\024\011"
 136      534A9AC6 
 136      F45EA4A0 
 136      B9AF1409 
 137 0049 966A4D1F 		.ascii	"\226jM\037\353[\207\251\215\216\335%\257\336\267L5\212"
 137      EB5B87A9 
 137      8D8EDD25 
 137      AFDEB74C 
 137      358A
 138 005b 13A5F526 		.ascii	"\023\245\365&\325"
 138      D5
 139              		.text
 140              		.section	.gnu.lto_.refs.bc892aa275a5fc75,"",%progbits
 141 0000 789C6362 		.ascii	"x\234cb`b`g\200\000&\006\006FFF\006\000\000\333\000"
 141      60626067 
 141      80002606 
 141      06464646 
 141      060000DB 
 142 0015 11       		.ascii	"\021"
 143              		.text
 144              		.section	.gnu.lto_.decls.bc892aa275a5fc75,"",%progbits
 145 0000 789CBD5C 		.ascii	"x\234\275\\{t\024U\232\257\252\356<\232d\302\303U\321"
 145      7B741455 
 145      9AAFAAEE 
 145      3C9A64C2 
 145      C355D1
 146 0013 71D79E9D 		.ascii	"q\327\236\235q\017\307\031\315\003\0248\356*L\002\222"
 146      710FC719 
 146      CD031438 
 146      EE2A4C02 
 146      92
 147 0024 5D029C24 		.ascii	"]\002\234$\314\201=gOSvW\222\036\323\351Lu\005\302_"
 147      CC813D67 
 147      4F537657 
 147      921ED3E9 
 147      4C7505C2 
 148 0039 1641B282 		.ascii	"\026A\262\202\0021\001y\014 \014O\025Q\004\2048\200"
 148      02310179 
 148      0C200C4F 
 148      15510484 
 148      3880
 149 004b 8DF208A0 		.ascii	"\215\362\010\240<\304 \217ah\035A\036\343\014\240\021"
 149      3CC4208F 
 149      61681D41 
 149      1EE30CA0 
ARM GAS  /tmp/ccM9GzNE.s 			page 11


 149      11
 150 005c 1048F6BB 		.ascii	"\020H\366\273_Uu\337\252TuWEg\373\234\373\365\255\333"
 150      5F5575DF 
 150      AA547557 
 150      4567FB9C 
 150      FBF5ADDB 
 151 0070 F7FEEEF7 		.ascii	"\367\376\356\367}\367\373\276\373\250\233p\014\307\354"
 151      7DF7FBBE 
 151      FBA89B70 
 151      0CC7EC
 152 007f 6619A60B 		.ascii	"f\031\246\013>\363G2\314\233\231\014\343f\030\346IH"
 152      3EF34732 
 152      CC9B990C 
 152      E36618E6 
 152      4948
 153 0091 2E482B20 		.ascii	".H+ m\201\224\301(\2374H\367s\014S\004\251\004R)\244"
 153      6D8194C1 
 153      289F3448 
 153      F7730C53 
 153      04A90452 
 154 00a7 89900082 		.ascii	"\211\220\000\202\011p\214\356C\352\335\313(\277\345"
 154      09708CEE 
 154      43EADDCB 
 154      28BFE5
 155 00b6 40CA86D4 		.ascii	"@\312\206\324\017\312\032\240\240\032\322x\310W@\252"
 155      0FCA1AA0 
 155      A01AD278 
 155      C85740AA 
 156 00c6 E4943EEE 		.ascii	"\344\224>\356\341\224\276I\237\377\002\371\177\206T"
 156      E194BE49 
 156      9FFF02F9 
 156      7F8654
 157 00d5 006908A4 		.ascii	"\000i\010\244*N\341!\010\337\377\015\351\267\220\312"
 157      2A4EE121 
 157      08DFFF0D 
 157      E9B790CA 
 158 00e5 20A543D9 		.ascii	" \245C\331\317\341;\037\322`H\017Az\014\322\023\234"
 158      CFE13B1F 
 158      D260480F 
 158      417A0CD2 
 158      139C
 159 00f7 C2FFFD2A 		.ascii	"\302\377\375*\177\245\3523\341\361)H\303\015\274\022"
 159      7FA5EA33 
 159      E1F12948 
 159      C30DBC12 
 160 0107 79B25559 		.ascii	"y\262UY5^\033T\036\011\017\032?\032\177Z\377\004\206"
 160      355E1B54 
 160      1E090F1A 
 160      3F1A7F5A 
 160      FF0486
 161 011a F4FD7335 		.ascii	"\364\375s5_\244\366E\362\377\011\244\330\320O\311\017"
 161      5FA4F645 
 161      F2FF09A4 
 161      D8D04FC9 
 161      0F
 162 012b E8E73155 		.ascii	"\350\3471U>\216I\350\236\344\307\001\031k\350\247\037"
 162      3E8E49E8 
ARM GAS  /tmp/ccM9GzNE.s 			page 12


 162      9EE4C701 
 162      196BE8A7 
 162      1F
 163 013c F3B20C1F 		.ascii	"\363\262\014\037o\033t2\201\345\331\034\017#s\230\313"
 163      6F1B7432 
 163      81E5D91C 
 163      0F237398 
 163      CB
 164 014d F6305EA8 		.ascii	"\3660^\250\360\020\263J\226\233b3\346\262^\236]\301"
 164      F010B34A 
 164      969B6233 
 164      E6B25E9E 
 164      5DC1
 165 015f F603A4FE 		.ascii	"\366\003\244\376,\3630\363\032\264j\222\345\206\273"
 165      2CF330F3 
 165      1AB46A92 
 165      E586BB
 166 016e 98EE9F94 		.ascii	"\230\356\237\224\240\014\303\263\253\001\213gW\261\017"
 166      A00CC3B3 
 166      AB018B67 
 166      57B10F
 167 017d 2B5DC8D1 		.ascii	"+]\310\321\366\200W)e\324r\223\317\317\230\345\320g"
 167      F6805729 
 167      65D47293 
 167      CFCF98E5 
 167      D067
 168 018f F4E4E656 		.ascii	"\364\344\346VVn\314\316`\032\341I\216\315h\350\2770"
 168      566ECCCE 
 168      601AE149 
 168      8ECD68E8 
 168      BF30
 169 01a1 D155A6D6 		.ascii	"\321U\246\326\023\033g?z4\223\343\331ul\006p\377KV\007"
 169      131B673F 
 169      7A3493E3 
 169      D9756C06 
 169      70FF4B56 
 170 01b6 6F0383F0 		.ascii	"o\003\203\360\363\006\264\325q\333\352\346\224\322$"
 170      F306B4D5 
 170      71DBEAE6 
 170      94D224
 171 01c5 DCBA18D4 		.ascii	"\334\272\030\324\374\023,\242\271=\211\242\242x\021"
 171      FC132CA2 
 171      B93D89A2 
 171      A27811
 172 01d4 4B552C8E 		.ascii	"KU,\216\227j\243D\036YO\"\323\305\352:\240\371\342\331"
 172      976AA344 
 172      1E594F22 
 172      D3C5EA3A 
 172      A0F9E2D9 
 173 01e8 F5EC4340 		.ascii	"\365\354C@\337d]\246\3158f\014\253\252\335LH5\233\350"
 173      DF645DA6 
 173      CD38660C 
 173      ABAADD4C 
 173      48359BE8 
 174 01fc 36477BD0 		.ascii	"6G{\320\224~\372\333mD\351\036\346\005T\330j9\205\322"
 174      947EFADB 
 174      6D44E91E 
ARM GAS  /tmp/ccM9GzNE.s 			page 13


 174      E60554D8 
 174      6A3985D2 
 175 0210 63271BDF 		.ascii	"c'\033\337\374\245,g\362\354\026\226H4U\257x\3738-\263"
 175      FCA52C67 
 175      F2EC1696 
 175      483455AF 
 175      78FB382D 
 176 0225 960D419C 		.ascii	"\226\015A\234m\210\363.\253\007RE\245\224\002\317Z\205"
 176      6D88F32E 
 176      AB075245 
 176      A59402CF 
 176      5A85
 177 0237 940A4C51 		.ascii	"\224\012LQ\227c\242\254S\265e\322j\213\355yq\336}\362"
 177      9763A2AC 
 177      53B565D2 
 177      6A8BED79 
 177      71DE7DF2 
 178 024b F20FD82C 		.ascii	"\362\017\330,f\026\221wy\243<\252-\307\304C\242.\015"
 178      66169177 
 178      79A33CAA 
 178      2DC7C443 
 178      A22E0D
 179 025e 6C4842F4 		.ascii	"lHB\364\215\207\332\327\260\323e\031~\330\211\2767\233"
 179      8D87DAD7 
 179      B0D36519 
 179      7ED889BE 
 179      379B
 180 0270 D30B9F12 		.ascii	"\323\013\237\022\210g\243,\007t\227\321\335\256.\316"
 180      8867A32C 
 180      077497D1 
 180      DDAE2ECE 
 181 0280 96DD4A79 		.ascii	"\226\335Jyj\207\273yj\331\275r,\312\332\366\270\330"
 181      6A87BB79 
 181      6AD9BD72 
 181      2CCADAF6 
 181      B8D8
 182 0292 D94F3ECB 		.ascii	"\331O>\313\307A\333\215^w\200\353\221\333\3553\272\335"
 182      C741DB8D 
 182      5E7780EB 
 182      91DBED33 
 182      BADD
 183 02a4 D1C6DE84 		.ascii	"\321\306\336\204\353}\266\034\257\235\353\356y1\316"
 183      EB7DB61C 
 183      AF9DEBEE 
 183      7931CE
 184 02b3 D4F52E72 		.ascii	"\324\365.rz\337S\213\277I\024\273\250\342i\256x\261"
 184      7ADF538B 
 184      BF4914BB 
 184      A8E269AE 
 184      78B1
 185 02c5 9B2A9E9B 		.ascii	"\233*\236\233(N\243L\"\251\375\355\243\034\270\015\035"
 185      284EA34C 
 185      22A9FDED 
 185      A31CB80D 
 185      1D
 186 02d6 78BF8503 		.ascii	"x\277\205\003\363\354\246\370H\366\310\203c\033\347"
 186      F3ECA6F8 
ARM GAS  /tmp/ccM9GzNE.s 			page 14


 186      48F6C883 
 186      631BE7
 187 02e5 7C799E6D 		.ascii	"|y\236m\231.\267\345\231\031#Ta)3\232\244\001f\307\007"
 187      992EB7E5 
 187      99192354 
 187      6129339A 
 187      A40166C7 
 188 02fa 35BAE314 		.ascii	"5\272\343\024\3535\2618]U\236=\001b\244\252E\352\235"
 188      EB35B138 
 188      5D559E3D 
 188      0162A4AA 
 188      45EA9D
 189 030d 329AE4D2 		.ascii	"2\232\344\322Sh\222\247l\231\344\306S\363\235\231d\364"
 189      536892A7 
 189      6C99E4C6 
 189      53F39D99 
 189      64F4
 190 031f EA67640E 		.ascii	"\352gd\016;\203\366\270\330\325#{\214\031\355\361\344"
 190      3B83F6B8 
 190      D8D5237B 
 190      8C19EDF1 
 190      E4
 191 0330 02B4C798 		.ascii	"\002\264\307\230-{\\\343\242lO-\333\35025\274=.\275"
 191      2D7B5CE3 
 191      A26C4F2D 
 191      DBE83235 
 191      BC3D2EBD 
 192 0344 E1D931A5 		.ascii	"\341\3311\245\030eJ\237\243)}a9\027|\206\362\237\352"
 192      18654A9F 
 192      A3297D61 
 192      39177C86 
 192      F29FEA
 193 0357 F164B0E9 		.ascii	"\361d\260\351\324|\214jj\024W\014)^\327\253!\270\031"
 193      D47C8C6A 
 193      6A14570C 
 193      295ED7AB 
 193      21B819
 194 036a 6A36D8B3 		.ascii	"j6\330\263\213m\300Pv\011\343\370Y\227\351\204`\003"
 194      8B6DC050 
 194      7609E3F8 
 194      5997E984 
 194      6003
 195 037c AA65D6F6 		.ascii	"\252e\326\366\241\030[\276F\240\013.\343\204\220a\230"
 195      A1185BBE 
 195      46A00B2E 
 195      E3849061 
 195      98
 196 038d 1032F441 		.ascii	"\0202\364A>\303\223\310\220\005mo\306iu\210\014F\005"
 196      3EC393C8 
 196      90056D6F 
 196      C6697588 
 196      0C4605
 197 03a0 EA183553 		.ascii	"\352\0305S\240\227V \370\342\241w\331k\015\362\302<"
 197      A0975620 
 197      F8E2A177 
 197      D96B0DF2 
 197      C23C
ARM GAS  /tmp/ccM9GzNE.s 			page 15


 198 03b2 FB06DC72 		.ascii	"\373\006\334r\212\030\36054\340\256\236\031p\207\321"
 198      8A18F035 
 198      34E0AE9E 
 198      197087D1 
 199 03c2 806F2906 		.ascii	"\200o)\006\334a\313\200\347\270\273\033\360R\267\251"
 199      DC61CB80 
 199      E7B8BB1B 
 199      F052B7A9 
 200 03d2 01BFE576 		.ascii	"\001\277\345vn\300\035\224\001\177\207\006|\335\322"
 200      6EC01D94 
 200      017F8706 
 200      7CDDD2
 201 03e1 8077BB6D 		.ascii	"\200w\273m\030p\246\211\001S\375)=\235\306\236\376\304"
 201      1870A689 
 201      0153FD29 
 201      3D9DC69E 
 201      FEC4
 202 03f3 FE0CE845 		.ascii	"\376\014\350E\244W\201\306?\034s\330m\264/%BQH\211P"
 202      A45781C6 
 202      3F1C73D8 
 202      6DB42F25 
 202      42514889 
 203 0408 C624C332 		.ascii	"\306$\30323\025\322\3408\254\016\342\335\235\304\356"
 203      3315D2E0 
 203      38AC0EE2 
 203      DD9DC4EE 
 204 0418 76F5D4B2 		.ascii	"v\365\324\262\242\213N/s\346\232\321\367\027\334Ml`"
 204      A28B4E2F 
 204      73E69AD1 
 204      F717DC4D 
 204      6C60
 205 042a 1A478630 		.ascii	"\032G\2060\326M\332K\306\365\225\035\377\270lG\012\263"
 205      D64DDA4B 
 205      C6F5951D 
 205      FFB86C47 
 205      0AB3
 206 043c F14129E4 		.ascii	"\361A)\344\350\246\323\313X\"\205\331^\202\325\332\367"
 206      E8A6D3CB 
 206      582285D9 
 206      5E82D5DA 
 206      F7
 207 044d 89CB106B 		.ascii	"\211\313\020k\377\352\302y5\2744rd\245\264&-\345JI\017"
 207      FFEAC279 
 207      35BC3472 
 207      64A5B426 
 207      2DE54A49 
 208 0462 C4311BB0 		.ascii	"\3041\033\260\311L\3160-u\360^\2454\325\244$G\257\237"
 208      C94CCE30 
 208      2D75F05E 
 208      A534D5A4 
 208      2447AF9F 
 209 0476 F3C8CDD9 		.ascii	"\363\310\315\331&]\015\243E\326\"\342\345\330}\373e"
 209      265D0DA3 
 209      45D622E2 
 209      E5D87DFB 
 209      65
 210 0487 B90FCFCE 		.ascii	"\271\017\317\316F\216\2776\347x\3710+\034\216\271\203"
ARM GAS  /tmp/ccM9GzNE.s 			page 16


 210      468EBF36 
 210      E778F930 
 210      2B1C8EB9 
 210      83
 211 0498 4D9A0C1C 		.ascii	"M\232\014\034\307v\\k\273\177!\"7\331`\273!\332\336"
 211      C7765C6B 
 211      BB7F2122 
 211      37D960BB 
 211      21DADE
 212 04ab B8D4D61A 		.ascii	"\270\324\326\032u\271[\353\276(!\306\211\313\321\376"
 212      75B95BEB 
 212      BE2821C6 
 212      89CBD1FE 
 213 04bb 188DE7A3 		.ascii	"\030\215\347\243\024\037\246\247\324\273\036\206c>\302"
 213      141FA6A7 
 213      D4BB1E86 
 213      633EC2
 214 04ca 260BBB4B 		.ascii	"&\013\273K\021\373\251\"\305B[R\334R\245\340\331y\\"
 214      11FBA922 
 214      C5425B52 
 214      DC52A5E0 
 214      D9795C
 215 04dd 16C01E8F 		.ascii	"\026\300\036\217\303\332u$=^\347\336\354&^\003;\343"
 215      C3DA7524 
 215      3D5EE7DE 
 215      EC265E03 
 215      3BE3
 216 04ef 18CCAB03 		.ascii	"\030\314\253\003k\331\267\304\341\204\271\350\372\205"
 216      6BD9B7C4 
 216      E184B9E8 
 216      FA85
 217 04fd FB76A0F8 		.ascii	"\373v\240\370\313\3211\337\314\370Q\034sK\206\015A\254"
 217      CBD131DF 
 217      CCF8511C 
 217      734B860D 
 217      41AC
 218 050f 1D1346E5 		.ascii	"\035\023F\345\310\003\255\357\310\362\314t\315>\323"
 218      C803ADEF 
 218      C8F2CC74 
 218      CD3ED3
 219 051e AD04E198 		.ascii	"\255\004\341\230\355\330\331j\343\310.\352<\362\210"
 219      EDD8D96A 
 219      E3C82EEA 
 219      3CF288
 220 052d 32B2AB6D 		.ascii	"2\262\253m\215\354\326\203\013\354\331g\272\326}\000"
 220      8DECD683 
 220      0BECD967 
 220      BAD67D00 
 221 053d BBEFC4EE 		.ascii	"\273\357\304\356_7v\277\345\017\027\237T\272\177\335"
 221      5F3776BF 
 221      E50F179F 
 221      54BA7FDD 
 222 054d 56F7670F 		.ascii	"V\367g\017\233l\341x\366\311\273\223\016_\347\225\001"
 222      9B6CE178 
 222      F6C9BB93 
 222      0E5FE795 
 222      01
ARM GAS  /tmp/ccM9GzNE.s 			page 17


 223 055e AF62271B 		.ascii	"\257b'\033\320\200\3322\215\303\367T\026\335\027>S\025"
 223      D080DA32 
 223      8DC3F754 
 223      16DD173E 
 223      5315
 224 0570 38E668A6 		.ascii	"8\346h\246\306}\217\354\027\304\334\365\324k8R\032\017"
 224      C67D8FEC 
 224      17C4DCF5 
 224      D46B3852 
 224      1A0F
 225 0582 ED8E11F5 		.ascii	"\355\216\021\365F|\3550z\204\002v\322\016\230\245!5"
 225      467CED30 
 225      7A840276 
 225      D20E98A5 
 225      2135
 226 0594 44BFA5C1 		.ascii	"D\277\245\301\3168\006\323s\366\035\015\366\271\035"
 226      CE3806D3 
 226      73F61D0D 
 226      F6B91D
 227 05a3 B03ED69C 		.ascii	"\260>\326\234\335\240\301\3169\006\323s\366=\015v\321"
 227      DDA0C1CE 
 227      3906D373 
 227      F63D0D76 
 227      D1
 228 05b4 0E587F6B 		.ascii	"\016X\177k\316n\323`_;\006\323s\326I\203]\265\003\346"
 228      CE6ED360 
 228      5F3B06D3 
 228      73D64983 
 228      5DB503E6 
 229 05c8 B5E6ACE9 		.ascii	"\265\346\254\351\023\012\254\3031\230\236\263f\032\354"
 229      130AACC3 
 229      31989EB3 
 229      661AEC
 230 05d7 A61DB001 		.ascii	"\246\035\260\001\326\234\315\243\301\3568\006\323s\366"
 230      D69CCDA3 
 230      C1EE3806 
 230      D373F6
 231 05e6 0A0D36CD 		.ascii	"\012\0156\315c\003,\317\232\263\2054\330\014\307`z\316"
 231      63032CCF 
 231      9AB38534 
 231      D80CC760 
 231      7ACE
 232 05f8 16D36033 		.ascii	"\026\323`3\355\200\015\261\346l\011\0156\3331\230\236"
 232      ED800DB1 
 232      E66C090D 
 232      36DB3198 
 232      9E
 233 0609 B3B769B0 		.ascii	"\263\267i\260\227\355\200\015\263\346\354\035\032l\236"
 233      97ED800D 
 233      B3E6EC1D 
 233      1A6C9E
 234 0618 63303D67 		.ascii	"c0=g\233i\260\005v\300FYs\366.\015\266\3301\230\236"
 234      9B69B005 
 234      76C04659 
 234      73F62E0D 
 234      B6D83198 
 235 062d B36D34D8 		.ascii	"\263m4\330R;`\343\2549{\217\006[\356\030L\317\331v\032"
ARM GAS  /tmp/ccM9GzNE.s 			page 18


 235      523B60E3 
 235      AC397B8F 
 235      065BEE18 
 235      4CCFD976 
 236 0642 6CA51DB0 		.ascii	"l\245\035\260\011\326\234\355\244\301\326:\006\323s"
 236      09D69CED 
 236      A4C1D63A 
 236      06D373
 237 0651 7684067B 		.ascii	"v\204\006{\303\016\330$\023\316\342\037\263vd\232~\215"
 237      C30ED824 
 237      13CEE21F 
 237      B376649A 
 237      7E8D
 238 0663 A3366B1B 		.ascii	"\2436k\033<\332\002\307\341\034\315$0\336\3618]\221"
 238      3CDA02C7 
 238      E11CCD24 
 238      30DEF138 
 238      5D91
 239 0675 E9E426EB 		.ascii	"\351\344&\353\344\007\336S\347ye\261\272\315\016b\222"
 239      E407DE53 
 239      E77965B1 
 239      BACD0E62 
 239      92
 240 0686 0970F13E 		.ascii	"\011p\361>j\345\033u\014f0e\002\246[:\305\217\376\243"
 240      6AE51B75 
 240      0C663065 
 240      02A65B3A 
 240      C58FFEA3 
 241 069a C94F3CC8 		.ascii	"\311O<\310\013&\216zO\320\337\274.\317^\346\310\026"
 241      0B268E7A 
 241      4FD0DFBC 
 241      2ECF5EE6 
 241      C816
 242 06ac FEAF9C27 		.ascii	"\376\257\234'\316\205\222\327r\312\221A\233G\177\340"
 242      CE8592D7 
 242      72CA9141 
 242      9B477FE0 
 243 06bc 10FFA46A 		.ascii	"\020\377\244jje\011\027iK\370\330\216\232\222L\355g"
 243      6A650917 
 243      694BF8D8 
 243      8E9A924C 
 243      ED67
 244 06ce F72DC1F3 		.ascii	"\367-\301\363L\373\357E\026]?\242n\020\256\340\006\341"
 244      4CFBEF45 
 244      165D3FA2 
 244      6E10AEE0 
 244      06E1
 245 06e0 538F7185 		.ascii	"S\217q\205\271\305\341\233\021X\207\031\2450;V\261^"
 245      B9C5E19B 
 245      11588719 
 245      A5303B56 
 245      B15E
 246 06f2 53802D9E 		.ascii	"S\200-\236x\260u\203,OOw\"G\233*G\007\312q\356G\220"
 246      78B07583 
 246      2C4F4F77 
 246      22479B2A 
 246      4707CA71 
ARM GAS  /tmp/ccM9GzNE.s 			page 19


 247 0709 E36BC772 		.ascii	"\343k\307r\0140\310\021\035\340\\\216\023\252\034\337"
 247      0C30C811 
 247      1DE05C8E 
 247      13AA1CDF 
 248 0719 A31C1D3F 		.ascii	"\243\034\035?\202\034w\034\313\221G\311\201\273\265"
 248      821C771C 
 248      CB9147C9 
 248      81BBB5
 249 0728 4795DDDA 		.ascii	"G\225\335\332]Ls\362\335\032\341\247\213\273\313p\276"
 249      5D4C73F2 
 249      DD1AE1A7 
 249      8BBBCB70 
 249      BE
 250 0739 7D801C39 		.ascii	"}\200\0349\222b\033\207\037\007\250-\256lo\213{E\325"
 250      92621B87 
 250      1F07A82D 
 250      AE6C6F8B 
 250      7B45D5
 251 074c 58838B68 		.ascii	"X\203\213h\354\371^&G\302\266\220N\356\335\275Q=\376"
 251      ECF95E26 
 251      47C2B690 
 251      4EEEDDBD 
 251      513DFE
 252 075f 998150B3 		.ascii	"\231\201P\263z\014\325r`\253\362\272\361\005\004j\356"
 252      7A0CD572 
 252      60ABF2BA 
 252      F105046A 
 252      EE
 253 0770 651CC574 		.ascii	"e\034\305t\303 \246\353\007\021\036IO7\310\216\233}"
 253      C320A6EB 
 253      07111E49 
 253      4F37C88E 
 253      9B7D
 254 0782 4E2D210F 		.ascii	"N-!\017\031\314\377{;\216Y\202\354\223\001t8A%\014\350"
 254      19CCFF7B 
 254      3B8E5982 
 254      EC930174 
 254      3841250C 
 255 0797 57ADEAE4 		.ascii	"W\255\352\344\242\014\322\312\037\204\330\020\335\364"
 255      A20CD2CA 
 255      1F84D810 
 255      DDF4
 256 07a5 A2764CF3 		.ascii	"\242vL\363\024\231^\326\377@\270\243\007\235\037\254"
 256      14995ED6 
 256      FF40B8A3 
 256      079D1FAC 
 257 07b5 44EF57AC 		.ascii	"D\357W\254\356e\024hS\267\021\356\321\301\312\373=\025"
 257      EE651468 
 257      53B711EE 
 257      D1C1CAFB 
 257      3D15
 258 07c7 24FEE198 		.ascii	"$\376\341\230\275\275lL\""
 258      BDBD6C4C 
 258      22
 259 07d0 DE64A375 		.ascii	"\336d\243u\343Q\233\2073\361C\310\013\375\333P\031\013"
 259      E3519B87 
 259      33F143C8 
ARM GAS  /tmp/ccM9GzNE.s 			page 20


 259      0BFDDB50 
 259      190B
 260 07e2 5CE4F8EE 		.ascii	"\\\344\370\356\200A\0316\016yNb\223\305\256n\307wG\356"
 260      80411936 
 260      0E794E62 
 260      93C5AE6E 
 260      C77747EE 
 261 07f6 534E59C8 		.ascii	"SNY\310O6\016yt\307w<\273\204\343T\330\236\352S7\204"
 261      4F360E79 
 261      74C7773C 
 261      BB84E354 
 261      D89EEA53 
 262 080c 09FE00DA 		.ascii	"\011\376\000\332E\326\013K]\272c\376\213\216u\357\245"
 262      45D60B4B 
 262      5DBA63FE 
 262      8B8E75EF 
 262      A5
 263 081d 751FBD75 		.ascii	"u\037\275up\011\253\360\257\034\347~c\304\033F\257\345"
 263      7009ABF0 
 263      AF1CE77E 
 263      63C41B46 
 263      AFE5
 264 082f D4ACE5BE 		.ascii	"\324\254\345\276U\2166\037\302E\230\342t\235v\230K\262"
 264      558E361F 
 264      C24598E2 
 264      749D7698 
 264      4BB2
 265 0841 D55CA680 		.ascii	"\325\\\246\200)\006\377|\226S0\257\016l\307\034\223"
 265      2906FF7C 
 265      965330AF 
 265      0E6CC71C 
 265      93
 266 0852 E362E588 		.ascii	"\343b\345\210\334jbY\343\242\226Js\355\364\237dw\332"
 266      DC6A6259 
 266      E3A2964A 
 266      73EDF49F 
 266      6477DA
 267 0865 7E68896A 		.ascii	"~h\211j)\312\311\350\"\307xzy\256\316\321E\244Uv\340"
 267      29CAC9E8 
 267      22C7787A 
 267      79AECED1 
 267      45A45576 
 268 087a 86D936BC 		.ascii	"\206\3316\274\304\2716\030!.T\177\317\2217CK\221\276"
 268      C4B93618 
 268      212E547F 
 268      CF913743 
 268      4B91BE
 269 088d 8A7415D2 		.ascii	"\212t\025\322/\221\236Gz\001\351\337\221~\213\364&\322"
 269      2F919E47 
 269      7A01E9DF 
 269      917E8BF4 
 269      26D2
 270 089f 4EA4AFB8 		.ascii	"N\244\257\270\260-\322\025HW\"]\215t\035\322\327i\363"
 270      B02DD215 
 270      4857225D 
 270      8D741DD2 
 270      D769F3
ARM GAS  /tmp/ccM9GzNE.s 			page 21


 271 08b2 B61A17C5 		.ascii	"\266\032\027\305\325\342\216\251y]S\217\017\315\217"
 271      D5E28EA9 
 271      795D538F 
 271      0FCD8F
 272 08c1 270ECD79 		.ascii	"'\016\315yv\231c0o2M6Q\232lFM\266\2406\326\353\035y"
 272      76996330 
 272      6F324D36 
 272      519A6C46 
 272      4DB6A036 
 273 08d9 7D96F61A 		.ascii	"}\226\366\032'\211\343Y\213\020\373\364\253\013\031"
 273      2789E359 
 273      8B10FBF4 
 273      AB0B19
 274 08e8 8BE4E8F3 		.ascii	"\213\344\350\363.m\007\264\331\010\230r\203\246\327"
 274      2E6D07B4 
 274      D9089872 
 274      83A6D7
 275 08f7 49A760B8 		.ascii	"I\247`\270q\241\274\243\262\032\223\215\264\257lw\334"
 275      71A1BCA3 
 275      B21A938D 
 275      B4AF6C77 
 275      DC
 276 0908 775215CE 		.ascii	"wR\025\316\244T\370\"\252\360%T\341\0064\231\267iE\362"
 276      A454F822 
 276      AAF02554 
 276      E1063499 
 276      B76945F2 
 277 091c EC2CCE70 		.ascii	"\354,\316p\337D\377\302,I\347\361\227\334\035\307M."
 277      DF44FFC2 
 277      2C49E7F1 
 277      97DC1DC7 
 277      4D2E
 278 092e 9C28AF8A 		.ascii	"\234(\257\212\222LJ\013v\236|`=N\035\233]d\000ne\031"
 278      924C4A0B 
 278      769E7C60 
 278      3D4E1D9B 
 278      5D64006E 
 279 0944 67E8799C 		.ascii	"g\350y\234\341\360\334`\310\0343'\333\306\013\310$;"
 279      E1F0DC60 
 279      C81C3327 
 279      DBC60BC8 
 279      243B
 280 0956 998D73AE 		.ascii	"\231\215s\256\037g\247O\227\327\345\251+\013\271Q\036"
 280      1F67A74F 
 280      97D7E5A9 
 280      2B0BB951 
 280      1E
 281 0967 B02E3109 		.ascii	"\260.1\011\366\3210\2708\337\321-\312\213\324V\214\262"
 281      F6D130B8 
 281      38DFD12D 
 281      CA8BD456 
 281      8CB2
 282 0979 F3B34DEF 		.ascii	"\363\263M\3577\244\206\211\235l\334\372+\\\201nG\240"
 282      37A48689 
 282      9D6CDCFA 
 282      2B5C816E 
 282      47A0
ARM GAS  /tmp/ccM9GzNE.s 			page 22


 283 098b 577B0CD4 		.ascii	"W{\014\3242k\255rQ\342}\004Z\227mT\243\313\260\316q"
 283      326BAD72 
 283      51E27D04 
 283      5A976D54 
 283      A3CBB0CE 
 284 09a0 E9D7392E 		.ascii	"\351\3279.O\"\323\325\345b\376\201\225a\031f\0340\235"
 284      4F22D3D5 
 284      E562FE81 
 284      95611966 
 284      1C309D
 285 09b3 44A9D63E 		.ascii	"D\251\326>d\300\356\250\306\246\3350\331f\307\004t\210"
 285      64C0EEA8 
 285      C6A6DD30 
 285      D966C704 
 285      7488
 286 09c5 3A1388DE 		.ascii	":\023\210\336>\215\261L\001\373\300\016X\222c\350\371"
 286      3E8DB14C 
 286      01FBC00E 
 286      589263E8 
 286      F9
 287 09d6 CB5EB57C 		.ascii	"\313^\265|\207\265<\345\325\253X\353\371\375\377N.\002"
 287      87B53CE5 
 287      D5AB58EB 
 287      F9FDFF4E 
 287      2E02
 288 09e8 A6BE7E75 		.ascii	"\246\276~u\300e\357\372\325G.\343{\356Cx\375\352#[\253"
 288      C065EFFA 
 288      D5472EE3 
 288      7BEE4378 
 288      FDEA235B 
 289 09fd B5EB666B 		.ascii	"\265\353fk\000\263\333\210\361\220\321?!\314g\227\366"
 289      00B3DB88 
 289      F190D13F 
 289      21CC6797 
 289      F6
 290 0a0e 3FA9DC6A 		.ascii	"?\251\334j<\202\213\316\303?I}\253Q\207C\370;f\344\177"
 290      3C828BCE 
 290      C33F497D 
 290      AB518743 
 290      F83B66E4 
 291 0a23 D361E4FF 		.ascii	"\323a\344\377Xj\376\237\237\036\335\252\276\323Cg\232"
 291      586AFE9F 
 291      9F1EDDAA 
 291      BED34367 
 291      9A
 292 0a34 9E74DBC0 		.ascii	"\236t\333\300\263\227\361\212\210\235M\300\027(\311"
 292      B397F18A 
 292      889D4DC0 
 292      1728C9
 293 0a43 31E78B56 		.ascii	"1\347\213V\225\255m\312;\231\343\350\257\347\034\203"
 293      95AD6DCA 
 293      3B99E3E8 
 293      AFE71C83 
 294 0a53 797560EF 		.ascii	"yu`\357\321`\227\354\200YMb\000\266\235\006\373\233"
 294      D16097EC 
 294      80594D62 
 294      00B69D06 
ARM GAS  /tmp/ccM9GzNE.s 			page 23


 294      FB9B
 295 0a65 63303D67 		.ascii	"c0=g;i\260o\354\200Y\235V\002\330\021\032\354\206c0"
 295      3B69B06F 
 295      EC80599D 
 295      5602D811 
 295      1AEC8663 
 296 0a7a AF999530 		.ascii	"\257\231\2250\335\214\214g?\305]C;\316\224'\220\236"
 296      DD8C8C67 
 296      3FC55D43 
 296      3BCE9427 
 296      909E
 297 0a8c 42FA27A4 		.ascii	"B\372'\244\177F\032\263\263\350:LO\360\267\221\341\217"
 297      7F461AB3 
 297      B3E83A4C 
 297      4FF0B791 
 297      E18F
 298 0a9e 7A663110 		.ascii	"zf1\020\366Z\317\177\376\204r\372k\230c\211>\2548\370"
 298      F65ACF7F 
 298      FE8472FA 
 298      6B986389 
 298      3EAC38F8 
 299 0ab2 92E6607A 		.ascii	"\222\346`z\216S\016\2744\007\321[\207\224\223K\355\242"
 299      8E530EBC 
 299      3407D15B 
 299      8794934B 
 299      EDA2
 300 0ac4 F70B463C 		.ascii	"\367\013F<\273W\263\264\345\322\241\254\267'i`s\035"
 300      BB57B3B4 
 300      E5D2A1AC 
 300      B7276960 
 300      731D
 301 0ad6 83E9AE5F 		.ascii	"\203\351\256_G\233\016S`\213\034\203\365\351f\021\212"
 301      479B0E53 
 301      608B1C83 
 301      F5E96611 
 301      8A
 302 0ae7 2D7C8CB6 		.ascii	"-|\214\266p\010\307\374/H\317#\275\200\364\222~A\272"
 302      7008C7FC 
 302      2F48CF23 
 302      BD80F492 
 302      7E41BA
 303 0afa 3CC738EF 		.ascii	"<\3078\357*1\226BM\004c\306.\256\325\330\266\321c\273"
 303      2A319642 
 303      4D0463C6 
 303      2EAED5D8 
 303      B6D163BB 
 304 0b0e 29C7E9AC 		.ascii	")\307\351\254\245\033[\230T\367}\245M\252m\270\026k"
 304      A51B5B98 
 304      54F77DA5 
 304      4DAA6DB8 
 304      166B
 305 0b20 B5839864 		.ascii	"\265\203\230d'\272\371\317\306\327\001f\321\236\243"
 305      27BAF9CF 
 305      C6D70166 
 305      D19EA3
 306 0b2f 798BCF1A 		.ascii	"y\213\317\032\273&*\263\3065\2345\336\317I=kpz\031y"
 306      BB262AB3 
ARM GAS  /tmp/ccM9GzNE.s 			page 24


 306      C6359C35 
 306      DECF493D 
 306      6B707A19 
 307 0b44 B6C3386B 		.ascii	"\266\3038k\334<\206\263F\207\255Y\343\316\261y\352N"
 307      DC3C86B3 
 307      4687AD59 
 307      E3CEB179 
 307      EA4E
 308 0b56 51893607 		.ascii	"Q\2116\007\221\205\216\036\207\373\316cT\350:\354\030"
 308      91858E1E 
 308      87FBCE63 
 308      54E83AEC 
 308      18
 309 0b67 CCAB036B 		.ascii	"\314\253\003k:N\201\035\263\003\226$\3347\323`'\034"
 309      3A4E811D 
 309      B3039624 
 309      DC37D360 
 309      271C
 310 0b79 83E9399B 		.ascii	"\203\3519\233G\203\235\261\003\226$\334\277B\203\305"
 310      47839DB1 
 310      039624DC 
 310      BF4283C5 
 311 0b89 1C83E939 		.ascii	"\034\203\3519[H\203}i\007\314\352\025\016\200-\246\301"
 311      5B48837D 
 311      6907CCEA 
 311      150E802D 
 311      A6C1
 312 0b9b 2E3806D3 		.ascii	".8\006\323s\266\204\006\373\253\0350\2575g\313h\260"
 312      73B68406 
 312      FBAB1D30 
 312      AF3567CB 
 312      68B0
 313 0bad 6B8EC1BC 		.ascii	"k\216\301\274f.\241|h\217\342\331\3570,^\307`u\023\351"
 313      662EA17C 
 313      688FE2D9 
 313      EF302C5E 
 313      C7607513 
 314 0bc2 2DA47790 		.ascii	"-\244w\220v!\235\346&t:\322\031H\377\027\351L\267\215"
 314      76219DE6 
 314      26743AD2 
 314      1948FF17 
 314      E94CB78D 
 315 0bd6 E076950E 		.ascii	"\340v\225\016n\327\035\207\242\244\202$\376D\206g?\300"
 315      6ED71D87 
 315      A2A48224 
 315      FE448667 
 315      3FC0
 316 0be8 15DF8778 		.ascii	"\025\337\207x\205\267\035\251\214\373\344\031H7\241"
 316      85B71DA9 
 316      8CFBE419 
 316      4837A1
 317 0bf7 20DB907E 		.ascii	" \333\220~\210t\017\322}H\377\206\364\212\235X\275#"
 317      88740FD2 
 317      7D48FF86 
 317      F48A9D58 
 317      BD23
 318 0c09 71F117F6 		.ascii	"q\361\027\366\343n\262\335^\335\343+\345\347\016\316"
ARM GAS  /tmp/ccM9GzNE.s 			page 25


 318      E36EB2DD 
 318      5EDDE32B 
 318      E5E70ECE 
 319 0c19 757A27FF 		.ascii	"uz'\377rl\215\372\326d6\336\337\276\325m\246\352\321"
 319      726C8DFA 
 319      D66436DE 
 319      DFBED56D 
 319      A6EAD1
 320 0c2c 51F88CDE 		.ascii	"Q\370\214\336ljI\222\3341\2341g6KV\024}\231&\214\350"
 320      6C6A4992 
 320      DC319C31 
 320      67364B56 
 320      147D9926 
 321 0c42 FD9577B1 		.ascii	"\375\225w\261j\335\011\032B\226\312R\263\273/\346t\357"
 321      6ADD091A 
 321      4296CA52 
 321      B3BB2FE6 
 321      74EF
 322 0c54 78B08695 		.ascii	"x\260\206\225\336[\334\211\367\275\331\236D\246W\334"
 322      DE5BDC89 
 322      F7BDD99E 
 322      44A657DC 
 323 0c64 B6661B45 		.ascii	"\266f\033E\320\365\232\"\344\3014\327q\243\215\225\233"
 323      D0F59A22 
 323      E4C134D7 
 323      71A38D95 
 323      9B
 324 0c75 B30D6B32 		.ascii	"\263\015k2\262\014\261\342\351\0257e\332\315v4\230\344"
 324      B20CB1E2 
 324      E9153765 
 324      DACD7634 
 324      98E4
 325 0c87 6DF27701 		.ascii	"m\362w\0012c\023H\216Y\350\030\313k\341#\214\376\017"
 325      32631348 
 325      8E59E818 
 325      CB6BE123 
 325      8CFE0F
 326 0c9a 3779760D 		.ascii	"7yv\015\272\311Zt\220\315H\267#}\011=\372e\244\363\221"
 326      BAC95A74 
 326      90CD48B7 
 326      237D093D 
 326      FA65A4F3 
 327 0caf 2EA4BDFB 		.ascii	".\244\275\373Af\231\274<\026\273\363\375\376\337\221"
 327      416699BC 
 327      3C16BBF3 
 327      FDFEDF91 
 328 0cbf 8336B9AB 		.ascii	"\2036\271\253\3539\346\036f\276:x2+)\307\336V\232\372"
 328      EB39E61E 
 328      66BE3A78 
 328      322B29C7 
 328      DE569AFA 
 329 0cd3 BDFB1ECC 		.ascii	"\275\373\036\314\271\224\2778H\271\230\310\320\000\352"
 329      B994BF38 
 329      48B998C8 
 329      D000EA
 330 0ce2 13A67FF4 		.ascii	"\023\246\177\364\326\321\007\024\313_\346&\213\211\017"
 330      D6D10714 
ARM GAS  /tmp/ccM9GzNE.s 			page 26


 330      CB5FE626 
 330      8B890F
 331 0cf1 7AA75E4C 		.ascii	"z\247^L\350p\010#+\334\206\305\304\351\275\270\230 "
 331      E8700823 
 331      2BDC86C5 
 331      C4E9BDB8 
 331      9820
 332 0d03 E5A9DF97 		.ascii	"\345\251\337\227^\335;O}a\240\374]\355Ad\201\264U;\224"
 332      5EDD3B4F 
 332      7D61A0FC 
 332      5DED4164 
 332      81B4553B 
 333 0d18 757F349B 		.ascii	"u\1774\233j+ G\257\215$A^\001k\267\005\346\265\006\273"
 333      6A2B2047 
 333      AF8D2441 
 333      5E016BB7 
 333      05E6B506 
 334 0d2d D9382771 		.ascii	"\3318'q\037A\266\365\367\236{\327?\214\247M\3530\226"
 334      1F41B6F5 
 334      F79E7BD7 
 334      3F8CA74D 
 334      EB3096
 335 0d40 9C3568D4 		.ascii	"\2345h\324>P\313\201\245\271\010\364\006\002\235\357"
 335      3E50CB81 
 335      A5B908F4 
 335      06029DEF 
 336 0d50 6D0C4A8C 		.ascii	"m\014J\214!&1\372\230\004\217r\227\372Q\336\210B\311"
 336      212631FA 
 336      98048F72 
 336      97FA51DE 
 336      8842C9
 337 0d63 734C8FDA 		.ascii	"sL\217\332p\314\337\215\2324\3334\014\263T$X\332\305"
 337      70CCDF8D 
 337      9A34DB34 
 337      0CB35424 
 337      58DAC5
 338 0d76 9F2EC1AB 		.ascii	"\237.\301\253\004\232fn;F\244\3674r\364\316\3369\272"
 338      049A666E 
 338      3B46A4F7 
 338      3472F4CE 
 338      DE39BA
 339 0d89 F0B8501F 		.ascii	"\360\270P\037Y\306\351\243\031\317\276\3438>n\262\210"
 339      59C6E9A3 
 339      19CFBEE3 
 339      383E6EB2 
 339      88
 340 0d9a 8F9A6C1C 		.ascii	"\217\232l\0343\263\217A\006]\257f2\364\321\311\3209"
 340      33B38F41 
 340      065DAF66 
 340      32F4D1C9 
 340      D039
 341 0dac 926CCB08 		.ascii	"\222l\313\010g\034\323b\007\313\362\262\234\034mz\372"
 341      671CD362 
 341      07CBF2B2 
 341      9C1C6D7A 
 341      FA
 342 0dbd ED4916BA 		.ascii	"\355I\026\272\320\237X\023\321\2669VF\253\2052\264?"
ARM GAS  /tmp/ccM9GzNE.s 			page 27


 342      D09F5813 
 342      D1B63956 
 342      46AB8532 
 342      B43F
 343 0dcf 1BE398A5 		.ascii	"\033\343\230\245F\001L\017\312u\227\352t\3274\242\315"
 343      46014C0F 
 343      CA7597EA 
 343      74D734A2 
 343      CD
 344 0de0 4F136D6C 		.ascii	"O\023mlCm\254\265\0056\311\004\314\354C\007)\236\375"
 344      436DACB5 
 344      0536C904 
 344      CCEC4307 
 344      299EFD
 345 0df3 839BC4EB 		.ascii	"\203\233\304\353\225\030\221W#]\213\364-\244\033\221"
 345      95189157 
 345      235D8BF4 
 345      2DA41B91 
 346 0e03 6E41BA15 		.ascii	"nA\272\025\351\037\355\254\311\226&&.5\"\307\0276<;"
 346      E91FEDAC 
 346      C9962626 
 346      2E3522C7 
 346      17363C3B 
 347 0e17 3E7110CC 		.ascii	">q\020\3141\033\373\350=\371\027\314JYn&\363\300Q\262"
 347      311BFBE8 
 347      3DF917CC 
 347      4A596E26 
 347      F3C051B2 
 348 0e2b C91CA560 		.ascii	"\311\034\245`q\314\016\254\267\330\375\240i\237j\217"
 348      71CC0EAC 
 348      B7D8FDA0 
 348      699F6A8F 
 349 0e3b 4A63F98F 		.ascii	"Jc\371\217\302(\245;\216\331\225\242\231\312\324\277"
 349      C228A53B 
 349      8ED995A2 
 349      99CAD4BF 
 350 0e4b 31ABC9C8 		.ascii	"1\253\311\310\277\3258\243\217[\231h\230$\315T!w\272"
 350      BFD538A3 
 350      8F5B9968 
 350      9824CD54 
 350      2177BA
 351 0e5e 75FF3941 		.ascii	"u\3779A\231\301\242\233\2056\371\012,z\034L^{\364\223"
 351      99C1A29B 
 351      8536F90A 
 351      2C7A1C4C 
 351      5E7BF493 
 352 0e72 97224CFC 		.ascii	"\227\"L\374A\275!d\320[\233\251\336\344M\202\2521\236"
 352      41BD2164 
 352      D05B9BA9 
 352      DEE44D82 
 352      AA319E
 353 0e85 8DE2DA71 		.ascii	"\215\342\332q\267-\215\235\371\237\376\332\201H\014"
 353      B72D8D9D 
 353      F99FFEDA 
 353      81480C
 354 0e94 81A96686 		.ascii	"\201\251f\206\213u*;\346\032\263\352M\025\264\315Tc"
 354      8B752A3B 
ARM GAS  /tmp/ccM9GzNE.s 			page 28


 354      E61AB3EA 
 354      4D15B4CD 
 354      5463
 355 0ea6 9DAAC614 		.ascii	"\235\252\306\024E@p\267)\332\307\316D\343\331\203\306"
 355      454070B7 
 355      29DAC7CE 
 355      44E3D983 
 355      C6
 356 0eb7 664E44B3 		.ascii	"fND\263\352M\025\355Pw\321bM\261U\237\274$\263M\323"
 356      EA4D15ED 
 356      5077D162 
 356      4DB1559F 
 356      BC24B34D 
 357 0ecc 625D5D0F 		.ascii	"b]]\017:\260\207cI\0263\312dn\325\262\335\304\357T\251"
 357      3AB08763 
 357      491633CA 
 357      646ED5B2 
 357      DDC4EF54 
 358 0ee1 52D853A7 		.ascii	"R\330S\247A\351\232\\'\314\344\212\3369a%\227\305_\300"
 358      41E99A5C 
 358      27CCE48A 
 358      DE396125 
 358      97C55FC0 
 359 0ef5 E05F441A 		.ascii	"\340_D\032\315\274\2356s\325\023-\331V\327\302\226\317"
 359      CDBC9D36 
 359      73D5132D 
 359      D956D7C2 
 359      96CF
 360 0f07 B3DD747D 		.ascii	"\263\335t}\203\316\250\255B7\266\276p\323\357\015\015"
 360      83CEA8AD 
 360      4237B6BE 
 360      70D3EF0D 
 360      0D
 361 0f18 6A99DFD7 		.ascii	"j\231\337\327\\-\177\321\253\345_\231\025\262\374\011"
 361      5C2D7FD1 
 361      ABE55F99 
 361      15B2FC09 
 362 0f28 44AD1503 		.ascii	"D\255\025\003\026\310\321i\262|\033\226\014\254\346"
 362      16C8D169 
 362      B27C1B96 
 362      0CACE6
 363 0f37 52ABE220 		.ascii	"R\253\342 fvG\340\316\251p\023\330\270\340\006\011\310"
 363      667647E0 
 363      CEA97013 
 363      D8B8E006 
 363      09C8
 364 0f49 B46825C1 		.ascii	"\264h%\301\371\204\004\206V\333\222\264\372\312\262"
 364      F9840486 
 364      56DB92B4 
 364      FACAB2
 365 0f58 151928AB 		.ascii	"\025\031(\253V\027,[5'\351\353\242e\253cI\372\272D\215"
 365      56172C5B 
 365      3527E9EB 
 365      A265AB63 
 365      49FABA44 
 366 0f6d CCDD4562 		.ascii	"\314\335Ebp\262 Fr\203\005~_D\250\211\204\305G\253\230"
 366      70B22046 
ARM GAS  /tmp/ccM9GzNE.s 			page 29


 366      7283057E 
 366      5F44A889 
 366      84C547AB 
 367 0f82 ACE282C2 		.ascii	"\254\342\202\3022|\360I\351O\217\031\357-dz'\212\"\022"
 367      327CF049 
 367      E94F8F19 
 367      EF2D647A 
 367      278A2212 
 368 0f96 2F0999C5 		.ascii	"/\011\231\305c\206\027\226\027\377"
 368      63861796 
 368      17FF
 369 0fa0 6684BBB8 		.ascii	"f\204\273\270h\364\010\367\257\307\227ML\303\037~\221"
 369      68F408F7 
 369      AFC7974D 
 369      4CC31F7E 
 369      91
 370 0fb1 5B171173 		.ascii	"[\027\021sy1\364HM\270FxD\340\237\011\346\006k\374\325"
 370      7931F448 
 370      4DB84678 
 370      44E09F09 
 370      E6066BFC 
 371 0fc6 75012137 		.ascii	"u\001!7\"\005\2025\022t\220Q\007\337C|\322\240$\225"
 371      22058235 
 371      12749051 
 371      07DF437C 
 371      D2A02495 
 372 0fda 43BCBF2A 		.ascii	"C\274\277*X#\344\372\002B\005_W-\371\244\251\265B\004"
 372      5823E4FA 
 372      0242055F 
 372      572DF9A4 
 372      A9B54204 
 373 0fee 1A7B7C3E 		.ascii	"\032{|>\265y\006\037\010\210B$R\224[\025\016\011"
 373      B579061F 
 373      08884224 
 373      52945B15 
 373      0E09
 374 1000 B9FE7060 		.ascii	"\271\376p`jn@\230\234\013\015\237\011\206#\271\222X"
 374      6A6E4098 
 374      9C0B0D9F 
 374      098623B9 
 374      9258
 375 1012 57F36C2E 		.ascii	"W\363l.d\252\370\352\334\332\260(Er\313\312K\006\026"
 375      64AAF8EA 
 375      DCDAB028 
 375      4572CBCA 
 375      4B0616
 376 1025 E48E1E5D 		.ascii	"\344\216\036]\224\013\002M\316G\271\253\253\003\004"
 376      940B024D 
 376      CE47B9AB 
 376      AB0304
 377 1034 160A146D 		.ascii	"\026\012\024m\024\330\201\323\330\004\000h\334\013\276"
 377      14D881D3 
 377      D8040068 
 377      DC0BBE
 378 1043 507C9FD4 		.ascii	"P|\237\324\013p|\343\307\024\217).\317$\331\262\362"
 378      0B707CE3 
 378      C7148F29 
ARM GAS  /tmp/ccM9GzNE.s 			page 30


 378      2ECF24D9 
 378      B2F2
 379 1055 B1E308B6 		.ascii	"\261\343\010\266\257t\304\360\242\211?!9Es\276\362\011"
 379      AF74C4F0 
 379      A2893F21 
 379      394573BE 
 379      F209
 380 1067 F453E904 		.ascii	"\364S\351\004l9zl\341\177\215(\312\002\274pm(\034 \200"
 380      6C397A6C 
 380      E17F8D28 
 380      CA02BC70 
 380      6D281C20 
 381 107c 63C7958C 		.ascii	"c\307\225\214-\032\341\203_\357R\263e%\240p_\321\210"
 381      2D1AE183 
 381      5FEF52B3 
 381      6525A070 
 381      5FD188
 382 108f DF14178E 		.ascii	"\337\024\027\216\350\253+\0335\266\254<#\\\353#M3\211"
 382      E8AB2B1B 
 382      35B6AC3C 
 382      235CEB23 
 382      4D3389
 383 10a2 9A061600 		.ascii	"\232\006\026\000\202\2421\222\315\362W\207\375\317\372"
 383      82A23192 
 383      CDF25787 
 383      FDCFFA
 384 10b1 22B58210 		.ascii	"\"\265\202\020\310\201N\002u\322T\377T\1775\364\223"
 384      C8814E02 
 384      75D254FF 
 384      547F35F4 
 384      93
 385 10c2 53565EE4 		.ascii	"SV^\344+\032_>\321W8\261p\364\210\276#\207\227\225S"
 385      2B1A5F3E 
 385      D15738B1 
 385      70F488BE 
 385      23879795 
 386 10d7 CFBE827F 		.ascii	"\317\276\202\1772\226\344?\356\033\332\213 \370\020"
 386      3296E43F 
 386      EE1BDA8B 
 386      20F810
 387 10e6 82485918 		.ascii	"\202HY\030\256\251\010V\246\373\361\213h\245\242\232"
 387      AEA90856 
 387      A6FBF18B 
 387      68A5A29A 
 388 10f6 AF8C8019 		.ascii	"\257\214\200\031\011\242\030\026#\003S\251V\224\342"
 388      09A21816 
 388      230353A9 
 388      5694E2
 389 1105 9AF55785 		.ascii	"\232\365W\205\244zb,\241:I\250\367Ii\370=\304\021Bd"
 389      A47A622C 
 389      A13A49A8 
 389      F74969F8 
 389      3DC41142 
 390 111a 6A44339B 		.ascii	"jD3\233\336R\225(\360\201\210\357wuB\035\210\333\307"
 390      DE529528 
 390      F08188EF 
 390      7775421D 
ARM GAS  /tmp/ccM9GzNE.s 			page 31


 390      88DBC7
 391 112d 5FE5D315 		.ascii	"_\345\323\025\015r\206\354\257\"V\223\251@\370$O\034"
 391      0D7286EC 
 391      AF225693 
 391      A940F824 
 391      4F1C
 392 113f 2EBDD657 		.ascii	".\275\326W#\324K\360U+\012\223G\331@ULsxiIaI=\324\014"
 392      23D44BF0 
 392      552B0A93 
 392      47D94055 
 392      4C737869 
 393 1159 D506AB89 		.ascii	"\325\006\253\211O>]X\010\3255\3763\244Z1\030\366)\270"
 393      4F3E5D58 
 393      08D535FE 
 393      33A45A31 
 393      18F629B8 
 394 116d C17006A8 		.ascii	"\301p\006\250\030\324!\015u\214_\345\017\213\002\361"
 394      18D4210D 
 394      758C5FE5 
 394      0F8B02F1 
 395 117d 7252EC03 		.ascii	"rR\354\003\273\360K\365\377\3213\024\337\344\301!\242"
 395      BBF04BF5 
 395      FFD13314 
 395      DFE4C121 
 395      A2
 396 118e 0451A804 		.ascii	"\004Q\250\004'\366I\256H\376\343\220\006C\032\002i\250"
 396      27F649AE 
 396      48FEE390 
 396      06431A02 
 396      69A8
 397 11a0 2B529007 		.ascii	"+R\220\007)\037R\001\244\201\220\006Az\014\022\324+"
 397      291F5201 
 397      A4819006 
 397      417A0C12 
 397      D42B
 398 11b2 807A0550 		.ascii	"\200z\005P\257\000\352\015\204z\003\3639q\020'>\306"
 398      AF00EA0D 
 398      847A03F3 
 398      39711027 
 398      3EC6
 399 11c4 898F73E2 		.ascii	"\211\217s\342`N\034\302\211C]b~\036\244|\256Z\204\257"
 399      604E1CC2 
 399      89435D62 
 399      7E1EA47C 
 399      AE5A84AF 
 400 11d8 8169B53E 		.ascii	"\201i\265>\3406\203hx\212 \302w\270: \210n\177\025/"
 400      E0368368 
 400      788A20C2 
 400      77B83A20 
 400      886E7F15 
 401 11ed 12B5F321 		.ascii	"\022\265\363!!SR\375\020~\304\\\206\244\270\021<\243"
 401      215352FD 
 401      107EC45C 
 401      86A4B811 
 401      3CA3
 402 11ff 2D6648A2 		.ascii	"-fH\242P\021A=\222LZ(R\011?\252\356\001\261E\315\245"
 402      5011413D 
ARM GAS  /tmp/ccM9GzNE.s 			page 32


 402      924C5A28 
 402      52093FAA 
 402      EE01B145 
 403 1215 8B81A9F0 		.ascii	"\213\201\251\360S\246P\037\224@-B\372\024)\374\314o"
 403      53A6501F 
 403      94402D42 
 403      FA1429FC 
 403      CC6F
 404 1227 6BB384C9 		.ascii	"k\263\204\311B\215\024\342#\317\022\233\236B2\256Z_"
 404      428D14E2 
 404      23CF129B 
 404      9E4232AE 
 404      5A5F
 405 1239 5D8E6649 		.ascii	"]\216fI\325\301\010D\252\336\224m\221\022O\255o\012"
 405      D5C10844 
 405      AADE946D 
 405      91124FAD 
 405      6F0A
 406 124b 1F948235 		.ascii	"\037\224\2025\225\275\3005#\225hoi\230\205\002\241V"
 406      95BDC035 
 406      2395686F 
 406      69988502 
 406      A156
 407 125d A881C058 		.ascii	"\250\201\300X\011\265\300\342I\375^\2047\276\032\307"
 407      09B5C0E2 
 407      49FD5E84 
 407      37BE1AC7 
 408 126d 190A6BC3 		.ascii	"\031\012k\303\341\352\214\220b\245\360\035\236R#\210"
 408      E1EA8C90 
 408      62A5F01D 
 408      9E522388 
 409 127d E921B4B2 		.ascii	"\351!\264\262\301\216\214V\345\011\206\254\237j\267"
 409      C18E8C56 
 409      E50986AC 
 409      9F6AB7
 410 128c A0024114 		.ascii	"\240\002A\024j\374\240\240t\245\310\003NK\342\252O\302"
 410      6AFCA0A0 
 410      74A5C803 
 410      4E4BE2AA 
 410      4FC2
 411 129e F8013EAE 		.ascii	"\370\001>\256\305\017\222u\223\237<b} \304\023\265z"
 411      C50F9275 
 411      939F3C62 
 411      7D20C413 
 411      B57A
 412 12b0 242D37D2 		.ascii	"$-7\322i\014F:rP}=L\013!\3208\340\000_O\244\202\001"
 412      690C463A 
 412      72507D3D 
 412      4C0B21D0 
 412      38E0005F 
 413 12c8 99730B4B 		.ascii	"\231s\013K\312\212\313\000@iY1(/\277\236\004\341~E%"
 413      CA8ACB00 
 413      40695931 
 413      282FBF9E 
 413      04E17E45 
 414 12dd C37D6530 		.ascii	"\303}e0\274|\310W\016^S$Tp\205\245\3561E\345\245\256"
 414      BC7CC857 
ARM GAS  /tmp/ccM9GzNE.s 			page 33


 414      0E5E5324 
 414      547085A5 
 414      EE3145E5 
 415 12f3 71C34BDD 		.ascii	"q\303K\335%y\204\344\017/u\215,,M\217`Ew\260\302/\246"
 415      257984E4 
 415      0F2F758D 
 415      2C2C4D8F 
 415      604577B0 
 416 130a 072355C1 		.ascii	"\007#U\301\012\311\023\021\252+\2025\001\241>}\262\340"
 416      0AC91311 
 416      AA2B8235 
 416      01A13E7D 
 416      B2E0
 417 131c 97C262BF 		.ascii	"\227\302b\2778g>\2456\004!x\020\353\011\225\352\311"
 417      38673EA5 
 417      36042178 
 417      10EB0995 
 417      EAC9
 418 132e 34A975E4 		.ascii	"4\251u\344*,\315\207T\340\036;\2744\237\220\002\256"
 418      2A2CCD87 
 418      54E01E3B 
 418      BC349F90 
 418      02AE
 419 1340 A8D45506 		.ascii	"\250\324U\006\205e\245\005\256\302\302\322\264\362\322"
 419      8565A505 
 419      AEC2C2D2 
 419      B4F2D2
 420 134f E2B211EE 		.ascii	"\342\262\021\356\221\243\201\031\320\260\207D\246`\210"
 420      91A38119 
 420      D0B08744 
 420      A66088
 421 135e D825F90A 		.ascii	"\330%\371\012\327Inb\275iR\375\257\353*\322DB\373js"
 421      D7496E62 
 421      BD6952FD 
 421      AFEB2AD2 
 421      4442FB6A 
 422 1373 73752434 		.ascii	"su$40o\340\243~\306X\002\236\247\344\300py\277_\231"
 422      306FE0A3 
 422      7EC65802 
 422      9EA7E4C0 
 422      7079BF5F 
 423 1388 9F3D21BE 		.ascii	"\237=!\276R\311\245+\263d&\3324d\262\371g\352*|\376"
 423      52C9A52B 
 423      B36426DA 
 423      3464B2F9 
 423      67EA2A7C 
 424 139d 701D040E 		.ascii	"p\035\004\0161;D=\3000\362\320c\005\346BjN\214\227\211"
 424      313B443D 
 424      C030F2D0 
 424      6305E642 
 424      6A4E8C97 
 425 13b2 5A5996DA 		.ascii	"ZY\226\332]\260&(\271 \237\036@\206\356U\213\211\371"
 425      5DB02628 
 425      B9209F1E 
 425      4086EE55 
 425      8B89F9
 426 13c5 0CF7FB05 		.ascii	"\014\367\373\005\210^\274\024\014\327\244\325\220\022"
ARM GAS  /tmp/ccM9GzNE.s 			page 34


 426      885EBC14 
 426      0CD7A4D5 
 426      9012
 427 13d3 FAD712BE 		.ascii	"\372\327\022\276\262F\220`\204\241\323{\250U\206\310"
 427      B2469060 
 427      84A1D37B 
 427      A85586C8 
 428 13e3 D74478BF 		.ascii	"\327Dx\277\344\003\236r\022\305\244\033\017Y\225\024"
 428      E4039E72 
 428      12C5A41B 
 428      0F599514 
 429 13f3 1236FF0F 		.ascii	"\0226\377\017\032\037`N"
 429      1A1F604E 
 430              		.text
 431              		.section	.gnu.lto_.symtab.bc892aa275a5fc75,"",%progbits
 432 0000 6C736D33 		.ascii	"lsm303_init\000\000\000\000\000\000\000\000\000\000"
 432      30335F69 
 432      6E697400 
 432      00000000 
 432      00000000 
 433 0015 00001A02 		.ascii	"\000\000\032\002\000\000lsm303_readAcceleration\000"
 433      00006C73 
 433      6D333033 
 433      5F726561 
 433      64416363 
 434 0033 00000000 		.ascii	"\000\000\000\000\000\000\000\000\000\000\000D\002\000"
 434      00000000 
 434      00000044 
 434      0200
 435 0041 006C736D 		.ascii	"\000lsm303_readMagnetometer\000\000\000\000\000\000"
 435      3330335F 
 435      72656164 
 435      4D61676E 
 435      65746F6D 
 436 005f 00000000 		.ascii	"\000\000\000\000\000\000M\002\000\000I2CSensor_tran"
 436      00004D02 
 436      00004932 
 436      4353656E 
 436      736F725F 
 437 0077 73616374 		.ascii	"sact_buf\000\000\002\000\000\000\000\000\000\000\000"
 437      5F627566 
 437      00000200 
 437      00000000 
 437      000000
 438 008a 00520200 		.ascii	"\000R\002\000\000I2CSensor_init\000\000\002\000\000"
 438      00493243 
 438      53656E73 
 438      6F725F69 
 438      6E697400 
 439 00a2 00000000 		.ascii	"\000\000\000\000\000\000\000Y\002\000\000"
 439      00000059 
 439      020000
 440              		.text
 441              		.section	.gnu.lto_.opts,"",%progbits
 442 0000 272D6D63 		.ascii	"'-mcpu=cortex-m4' '-mfloat-abi=hard' '-mfpu=fpv4-sp"
 442      70753D63 
 442      6F727465 
ARM GAS  /tmp/ccM9GzNE.s 			page 35


 442      782D6D34 
 442      2720272D 
 443 0033 2D643136 		.ascii	"-d16' '-mno-thumb-interwork' '-mthumb' '-O2' '-fomi"
 443      2720272D 
 443      6D6E6F2D 
 443      7468756D 
 443      622D696E 
 444 0066 742D6672 		.ascii	"t-frame-pointer' '-falign-functions=16' '-ffunction"
 444      616D652D 
 444      706F696E 
 444      74657227 
 444      20272D66 
 445 0099 2D736563 		.ascii	"-sections' '-fdata-sections' '-fno-common' '-flto' "
 445      74696F6E 
 445      73272027 
 445      2D666461 
 445      74612D73 
 446 00cc 272D6673 		.ascii	"'-fsingle-precision-constant'\000"
 446      696E676C 
 446      652D7072 
 446      65636973 
 446      696F6E2D 
 447              		.text
 448              		.section	.text.lsm303_init,"ax",%progbits
 449              		.align	2
 450              		.p2align 4,,15
 451              		.global	lsm303_init
 452              		.thumb
 453              		.thumb_func
 454              		.type	lsm303_init, %function
 455              	lsm303_init:
 456              		@ args = 0, pretend = 0, frame = 24
 457              		@ frame_needed = 0, uses_anonymous_args = 0
 458 0000 2DE9F04F 		push	{r4, r5, r6, r7, r8, r9, r10, fp, lr}
 459 0004 2F4A     		ldr	r2, .L2
 460 0006 304B     		ldr	r3, .L2+4
 461 0008 DFF8C0C0 		ldr	ip, .L2+8
 462 000c 0446     		mov	r4, r0
 463 000e 0F46     		mov	r7, r1
 464 0010 07CA     		ldmia	r2, {r0, r1, r2}
 465 0012 8BB0     		sub	sp, sp, #44
 466 0014 04AE     		add	r6, sp, #16
 467 0016 03C6     		stmia	r6!, {r0, r1}
 468 0018 4FEA124A 		lsr	r10, r2, #16
 469 001c 26F8022B 		strh	r2, [r6], #2	@ movhi
 470 0020 93E80700 		ldmia	r3, {r0, r1, r2}
 471 0024 07AD     		add	r5, sp, #28
 472 0026 03C5     		stmia	r5!, {r0, r1}
 473 0028 9CF80090 		ldrb	r9, [ip]	@ zero_extendqisi2
 474 002c 25F8022B 		strh	r2, [r5], #2	@ movhi
 475 0030 04F15601 		add	r1, r4, #86
 476 0034 4FF03208 		mov	r8, #50
 477 0038 04AB     		add	r3, sp, #16
 478 003a 4FEA124B 		lsr	fp, r2, #16
 479 003e 09F1300E 		add	lr, r9, #48
 480 0042 5FFA8EFE 		uxtb	lr, lr
 481 0046 0091     		str	r1, [sp]
ARM GAS  /tmp/ccM9GzNE.s 			page 36


 482 0048 0293     		str	r3, [sp, #8]
 483 004a CDF80480 		str	r8, [sp, #4]
 484 004e 2046     		mov	r0, r4
 485 0050 3946     		mov	r1, r7
 486 0052 04F14203 		add	r3, r4, #66
 487 0056 86F800A0 		strb	r10, [r6]
 488 005a 85F800B0 		strb	fp, [r5]
 489 005e 09F10109 		add	r9, r9, #1
 490 0062 1D22     		movs	r2, #29
 491 0064 8CF80090 		strb	r9, [ip]
 492 0068 8DF819E0 		strb	lr, [sp, #25]
 493 006c 8DF825E0 		strb	lr, [sp, #37]
 494 0070 04F12005 		add	r5, r4, #32
 495 0074 FFF7FEFF 		bl	I2CSensor_init
 496 0078 04F16603 		add	r3, r4, #102
 497 007c 07AA     		add	r2, sp, #28
 498 007e 3946     		mov	r1, r7
 499 0080 2846     		mov	r0, r5
 500 0082 0093     		str	r3, [sp]
 501 0084 0292     		str	r2, [sp, #8]
 502 0086 04F14C03 		add	r3, r4, #76
 503 008a CDF80480 		str	r8, [sp, #4]
 504 008e 1E22     		movs	r2, #30
 505 0090 FFF7FEFF 		bl	I2CSensor_init
 506 0094 2026     		movs	r6, #32
 507 0096 2723     		movs	r3, #39
 508 0098 84F84330 		strb	r3, [r4, #67]
 509 009c 84F84260 		strb	r6, [r4, #66]
 510 00a0 2046     		mov	r0, r4
 511 00a2 0221     		movs	r1, #2
 512 00a4 0022     		movs	r2, #0
 513 00a6 FFF7FEFF 		bl	I2CSensor_transact_buf
 514 00aa 0022     		movs	r2, #0
 515 00ac 2846     		mov	r0, r5
 516 00ae 84F84C60 		strb	r6, [r4, #76]
 517 00b2 84F84D20 		strb	r2, [r4, #77]
 518 00b6 0221     		movs	r1, #2
 519 00b8 FFF7FEFF 		bl	I2CSensor_transact_buf
 520 00bc 0BB0     		add	sp, sp, #44
 521              		@ sp needed
 522 00be BDE8F08F 		pop	{r4, r5, r6, r7, r8, r9, r10, fp, pc}
 523              	.L3:
 524 00c2 00BF     		.align	2
 525              	.L2:
 526 00c4 00000000 		.word	.LC0
 527 00c8 0C000000 		.word	.LC1
 528 00cc 00000000 		.word	.LANCHOR0
 529              		.size	lsm303_init, .-lsm303_init
 530              		.section	.text.lsm303_readAcceleration,"ax",%progbits
 531              		.align	2
 532              		.p2align 4,,15
 533              		.global	lsm303_readAcceleration
 534              		.thumb
 535              		.thumb_func
 536              		.type	lsm303_readAcceleration, %function
 537              	lsm303_readAcceleration:
 538              		@ args = 0, pretend = 0, frame = 0
ARM GAS  /tmp/ccM9GzNE.s 			page 37


 539              		@ frame_needed = 0, uses_anonymous_args = 0
 540 0000 F8B5     		push	{r3, r4, r5, r6, r7, lr}
 541 0002 0E46     		mov	r6, r1
 542 0004 0546     		mov	r5, r0
 543 0006 69B1     		cbz	r1, .L5
 544 0008 0024     		movs	r4, #0
 545 000a A827     		movs	r7, #168
 546              	.L6:
 547 000c 85F84270 		strb	r7, [r5, #66]
 548 0010 2846     		mov	r0, r5
 549 0012 0121     		movs	r1, #1
 550 0014 0622     		movs	r2, #6
 551 0016 FFF7FEFF 		bl	I2CSensor_transact_buf
 552 001a 0134     		adds	r4, r4, #1
 553 001c E4B2     		uxtb	r4, r4
 554 001e B442     		cmp	r4, r6
 555 0020 0346     		mov	r3, r0
 556 0022 F3D1     		bne	.L6
 557              	.L5:
 558 0024 1846     		mov	r0, r3
 559 0026 F8BD     		pop	{r3, r4, r5, r6, r7, pc}
 560              		.size	lsm303_readAcceleration, .-lsm303_readAcceleration
 561 0028 AFF30080 		.section	.text.lsm303_readMagnetometer,"ax",%progbits
 561      AFF30080 
 562              		.align	2
 563              		.p2align 4,,15
 564              		.global	lsm303_readMagnetometer
 565              		.thumb
 566              		.thumb_func
 567              		.type	lsm303_readMagnetometer, %function
 568              	lsm303_readMagnetometer:
 569              		@ args = 0, pretend = 0, frame = 0
 570              		@ frame_needed = 0, uses_anonymous_args = 0
 571 0000 2DE9F041 		push	{r4, r5, r6, r7, r8, lr}
 572 0004 0D46     		mov	r5, r1
 573 0006 0646     		mov	r6, r0
 574 0008 79B1     		cbz	r1, .L12
 575 000a 00F12008 		add	r8, r0, #32
 576 000e 0024     		movs	r4, #0
 577 0010 A827     		movs	r7, #168
 578              	.L13:
 579 0012 86F84C70 		strb	r7, [r6, #76]
 580 0016 4046     		mov	r0, r8
 581 0018 0121     		movs	r1, #1
 582 001a 0622     		movs	r2, #6
 583 001c FFF7FEFF 		bl	I2CSensor_transact_buf
 584 0020 0134     		adds	r4, r4, #1
 585 0022 E4B2     		uxtb	r4, r4
 586 0024 AC42     		cmp	r4, r5
 587 0026 0346     		mov	r3, r0
 588 0028 F3D1     		bne	.L13
 589              	.L12:
 590 002a 1846     		mov	r0, r3
 591 002c BDE8F081 		pop	{r4, r5, r6, r7, r8, pc}
 592              		.size	lsm303_readMagnetometer, .-lsm303_readMagnetometer
 593              		.section	.rodata.str1.4,"aMS",%progbits,1
 594              		.align	2
ARM GAS  /tmp/ccM9GzNE.s 			page 38


 595              	.LC0:
 596 0000 4C534D33 		.ascii	"LSM303_A-X\000"
 596      30335F41 
 596      2D5800
 597 000b 00       		.space	1
 598              	.LC1:
 599 000c 4C534D33 		.ascii	"LSM303_M-X\000"
 599      30335F4D 
 599      2D5800
 600 0017 00       		.section	.bss.sensCount,"aw",%nobits
 601              		.set	.LANCHOR0,. + 0
 602              		.type	sensCount, %object
 603              		.size	sensCount, 1
 604              	sensCount:
 605 0000 00       		.space	1
 606              		.comm	__gnu_lto_v1,1,1
 607              		.ident	"GCC: (GNU Tools for ARM Embedded Processors) 4.8.4 20140526 (release) [ARM/embedded-4_8-br
ARM GAS  /tmp/ccM9GzNE.s 			page 39


DEFINED SYMBOLS
                            *ABS*:0000000000000000 lsm303.c
     /tmp/ccM9GzNE.s:449    .text.lsm303_init:0000000000000000 $t
     /tmp/ccM9GzNE.s:455    .text.lsm303_init:0000000000000000 lsm303_init
     /tmp/ccM9GzNE.s:526    .text.lsm303_init:00000000000000c4 $d
     /tmp/ccM9GzNE.s:531    .text.lsm303_readAcceleration:0000000000000000 $t
     /tmp/ccM9GzNE.s:537    .text.lsm303_readAcceleration:0000000000000000 lsm303_readAcceleration
     /tmp/ccM9GzNE.s:562    .text.lsm303_readMagnetometer:0000000000000000 $t
     /tmp/ccM9GzNE.s:568    .text.lsm303_readMagnetometer:0000000000000000 lsm303_readMagnetometer
     /tmp/ccM9GzNE.s:594    .rodata.str1.4:0000000000000000 $d
     /tmp/ccM9GzNE.s:604    .bss.sensCount:0000000000000000 sensCount
     /tmp/ccM9GzNE.s:605    .bss.sensCount:0000000000000000 $d
                            *COM*:0000000000000001 __gnu_lto_v1

UNDEFINED SYMBOLS
I2CSensor_init
I2CSensor_transact_buf
