ARM GAS  /tmp/ccTCnjU0.s 			page 1


   1              		.syntax unified
   2              		.cpu cortex-m4
   3              		.eabi_attribute 27, 3
   4              		.eabi_attribute 28, 1
   5              		.fpu fpv4-sp-d16
   6              		.eabi_attribute 20, 1
   7              		.eabi_attribute 21, 1
   8              		.eabi_attribute 23, 3
   9              		.eabi_attribute 24, 1
  10              		.eabi_attribute 25, 1
  11              		.eabi_attribute 26, 1
  12              		.eabi_attribute 30, 2
  13              		.eabi_attribute 34, 1
  14              		.eabi_attribute 18, 4
  15              		.thumb
  16              		.file	"memstreams.c"
  17              		.section	.gnu.lto_.jmpfuncs.4aa2501408548899,"",%progbits
  18 0000 789C6362 		.ascii	"x\234cb`b\300\006T\2404+\0033##\023;33\003\003c\031"
  18      6062C006 
  18      54A0342B 
  18      03332323 
  18      133B3333 
  19 0018 23588899 		.ascii	"#X\210\231\035\310\201\363Y\370\031\000\032\264\001"
  19      1DC881F3 
  19      59F81900 
  19      1AB401
  20 0027 55       		.ascii	"U"
  21              		.text
  22              		.section	.gnu.lto_.inline.4aa2501408548899,"",%progbits
  23 0000 789C6362 		.ascii	"x\234cb`b\300\006\032\031!4+\003\003/\017#3\003\220"
  23      6062C006 
  23      1A192134 
  23      2B03032F 
  23      0F233303 
  24 0015 CBEC0026 		.ascii	"\313\354\000&\023\300\244\002\027\333\004=\006\216\013"
  24      13C0A402 
  24      17DB043D 
  24      068E0B
  25 0024 7A4C0C8C 		.ascii	"zL\014\214/\330Y $\210\340\00039\030X\026\310\36300"
  25      2FD85920 
  25      2488E000 
  25      33391858 
  25      16C8F330 
  26 0039 DE601760 		.ascii	"\336`\027`\002\223\014L\033\370%@\00622\360pC\315\203"
  26      02930C4C 
  26      1BF82540 
  26      063232F0 
  26      7043CD83 
  27 004d 98D4C008 		.ascii	"\230\324\300\0105\220\271C\234\201\375\207\032\026\003"
  27      3590B943 
  27      9C81FD87 
  27      1A1603
  28 005c 996788E3 		.ascii	"\231g\210\3436\220\211AP\222\221\005\305@&F\210M@S\271"
  28      36908941 
  28      50929105 
  28      C5402646 
  28      884D4053 
ARM GAS  /tmp/ccTCnjU0.s 			page 2


  29 0071 81DA1838 		.ascii	"\201\332\0308>\340t&\323\005~\036\220\3212 \256\002"
  29      3EE07426 
  29      D3057E1E 
  29      90D13220 
  29      AE02
  30 0083 58500124 		.ascii	"XP\001$\250\0012\201\205\027h\304\004?\020dF\330\002"
  30      A8013281 
  30      851768C4 
  30      043F1064 
  30      46D802
  31 0096 0D061A58 		.ascii	"\015\006\032X\302\302\300\301\316\310\300\304\332\241"
  31      C2C2C0C1 
  31      CEC8C0C4 
  31      DAA1
  32 00a4 CEC0BDC2 		.ascii	"\316\300\275\302\015\0221\000-\3633\312"
  32      0D123100 
  32      2DF333CA 
  33              		.text
  34              		.section	.gnu.lto_.pureconst.4aa2501408548899,"",%progbits
  35 0000 789C6362 		.ascii	"x\234cb`b\340f\200\000V\006)F)&)f)\026)\000\004)\000"
  35      6062E066 
  35      80005606 
  35      29462926 
  35      29662916 
  36 0019 A1       		.ascii	"\241"
  37              		.text
  38              		.section	.gnu.lto_put.4aa2501408548899,"",%progbits
  39 0000 789C8D92 		.ascii	"x\234\215\2229K\003A\024\307\337\177f7\211&\036\205"
  39      394B0341 
  39      14C7DF7F 
  39      66378926 
  39      1E85
  40 0012 1FC05AC1 		.ascii	"\037\300Z\301-D\375\014\366\006\264\314E\\d]\310\005"
  40      2D44FD0C 
  40      F606B4CC 
  40      455C645D 
  40      C805
  41 0024 56D9180B 		.ascii	"V\331\030\013\301&\205\205\027\210\215\202\210\0076"
  41      C1268585 
  41      17888D82 
  41      880736
  42 0033 96294404 		.ascii	"\226)D\004\017\264\324*\020\320\306\306\316\312\370"
  42      0FB4D42A 
  42      10D0C6C6 
  42      CECAF8
  43 0042 66D65D41 		.ascii	"f\326]AD\035\3307\2177\363\373\277cV\220\240\357k\224"
  43      441DD837 
  43      8F37F3FB 
  43      BF635690 
  43      A0EF6B94 
  44 0056 BF710E4F 		.ascii	"\277q\016O\360\016\223 \032\267D\265\230\020\3066\310"
  44      F00E9320 
  44      1AB744B5 
  44      9810C636 
  44      C8
  45 0067 EB96AFD7 		.ascii	"\353\226\257\327D^B\302\360\343\006\240\034\002U\205"
  45      445E42C2 
ARM GAS  /tmp/ccTCnjU0.s 			page 3


  45      F0E306A0 
  45      1C025585 
  46 0077 34509D81 		.ascii	"4P\235\201V9\022\315V\247s\270z\261w\200u\321\013\262"
  46      563912CD 
  46      56A773B8 
  46      7AB17780 
  46      75D10BB2 
  47 008b 41120EC8 		.ascii	"A\022\016\310d\017\021e\242lDL\231.>@\\\305\022\312"
  47      640F1165 
  47      A26C444C 
  47      992E3E40 
  47      5CC512CA 
  48 009f 306ED292 		.ascii	"0n\322\222\3475\006\2112Zn\212\255\312\222\204P\273"
  48      E7350689 
  48      325A6E8A 
  48      ADCA9284 
  48      50BB
  49 00b1 BCA1C5C7 		.ascii	"\274\241\305\307\263\366\035R\330\341\022\3630\207i"
  49      B3F61D52 
  49      D8E112F3 
  49      308769
  50 00c0 C886DCA4 		.ascii	"\310\206\334\244\015\3300\362\220\323\274\233\272\220"
  50      0DD830F2 
  50      90D3BC9B 
  50      BA90
  51 00ce 3482C614 		.ascii	"4\202\306\024t\027\017\220\310oH\300\\\322\371s\255"
  51      74170F90 
  51      C86F48C0 
  51      5CD2F973 
  51      AD
  52 00df 27CCC2D4 		.ascii	"'\314\302\324\327\234\222\220\304\263\320\265\274\265"
  52      D79C9290 
  52      C4B3D0B5 
  52      BCB5
  53 00ed 9B612D51 		.ascii	"\233a-Q-,~\026\026a-\365\225\372n\310\304\030\323\342"
  53      2D2C7E16 
  53      16612DF5 
  53      95FA6EC8 
  53      C418D3E2 
  54 0101 2C7675DC 		.ascii	",vu\334\347\207Y\241\346y^\324F\204o(\025\237\316\243"
  54      E78759A1 
  54      E6795ED4 
  54      46846F28 
  54      159FCEA3 
  55 0115 CB6F66ED 		.ascii	"\313of\355\251\025*\304\207i\237/\367\377\331\022g^"
  55      A9152AC4 
  55      87699F2F 
  55      F7FFD912 
  55      675E
  56 0127 96019560 		.ascii	"\226\001\225`P]\222\360\3473\351\037\374O\213\361`\022"
  56      505D92F0 
  56      E733E91F 
  56      FC4F8BF1 
  56      6012
  57 0139 867E957B 		.ascii	"\206~\225{\376\035TX\037?\020\024B\357\235\317\205\252"
  57      FE1D5458 
  57      1F3F1014 
ARM GAS  /tmp/ccTCnjU0.s 			page 4


  57      42EF9DCF 
  57      85AA
  58 014b 783919D0 		.ascii	"x9\031\3201\"\271u\232P\317\012\005\252\266\306\254"
  58      3122B975 
  58      9A50CF0A 
  58      05AAB6C6 
  58      AC
  59 015c 59D7C959 		.ascii	"Y\327\311Y\0317\273`es\025+3k\247m\267h\225\012\345"
  59      1937BB60 
  59      6573152B 
  59      336BA76D 
  59      B768950A 
  60 0171 F9398B9D 		.ascii	"\3719\213\235J\252`\273\345\242\345\344\234b\251\220"
  60      4AAA60BB 
  60      E5A2E5E4 
  60      9C62A990 
  61 0181 4B39C591 		.ascii	"K9\305\221\014}\000x\030\221m"
  61      0C7D0078 
  61      18916D
  62              		.text
  63              		.section	.gnu.lto_get.4aa2501408548899,"",%progbits
  64 0000 789C8552 		.ascii	"x\234\205R1K\034Q\020\236\357\275\335\275\365r\242\202"
  64      314B1C51 
  64      109EEFBD 
  64      DDBDF572 
  64      A282
  65 0012 D846522A 		.ascii	"\330FR*d\213 \230\237`\257A\313\273\3638\227\260\036"
  65      648B2098 
  65      9F60AF41 
  65      CBBBF338 
  65      97B01E
  66 0025 DCA96075 		.ascii	"\334\251`u\357<\003\202\010bcH\004\025\261\021DA\264"
  66      EF3C0382 
  66      08626348 
  66      0415B111 
  66      4441B4
  67 0038 48656161 		.ascii	"Heaaq\212vjuV\202\205\230>d3\263\347\256$\004\035\330"
  67      718A766A 
  67      75568285 
  67      983E6433 
  67      B3E7AE24 
  68 004f 796F67E6 		.ascii	"yog\346\373\346\233\331U\244\350_\373\300\317'\016\177"
  68      FBE69BD9 
  68      55A4E85F 
  68      FBC0CF27 
  68      0E7F
  69 0061 E4133641 		.ascii	"\344\0236A-\237\023\325\\\245\254u\220I\353\237\015"
  69      2D9F13D5 
  69      5CA5AC75 
  69      9049EB9F 
  69      0D
  70 0072 2293D1B0 		.ascii	"\"\223\321\260Zq\013\220\013\201\252J[\250\216AH\360"
  70      5A710B90 
  70      0B81AA4A 
  70      5BA88E41 
  70      48F0
  71 0084 8E368D59 		.ascii	"\2166\215Yin\337]a\325\034\3276\314\2570\004|p\303A"
ARM GAS  /tmp/ccTCnjU0.s 			page 5


  71      696EDF5D 
  71      61D51CD7 
  71      36CCAF30 
  71      047C70C3 
  72 0099 501E34CA 		.ascii	"P\0364\312/p\243C\341o\005{\352\270\031\206\215\203"
  72      2F70A343 
  72      E16F057B 
  72      EAB81986 
  72      8D83
  73 00ab C7DB5D74 		.ascii	"\307\333]t\265\203|h\215\000d\363\315r\304\245\330\331"
  73      B5837C68 
  73      8D0064F3 
  73      CD72C4A5 
  73      D8D9
  74 00bd AEB836CA 		.ascii	"\256\2706\312b\223\273\245%\234\221R&\260i\336\230\345"
  74      6293BBA5 
  74      259C9152 
  74      26B069DE 
  74      98E5
  75 00cf DE5686A4 		.ascii	"\336V\206\244\033\3330{Q:\002%\247>\243\271\233\257"
  75      1BDB307B 
  75      513A0225 
  75      A73EA3B9 
  75      9BAF
  76 00e1 F717C862 		.ascii	"\367\027\310b\213\307,\302\356\247>\037\316w\372\306"
  76      8BC72CC2 
  76      EEA73E1F 
  76      CE77FAC6 
  77 00f1 92524568 		.ascii	"\222REh\221\346F\202r\211@\001\355\277\211!\316K\220"
  77      91E64682 
  77      72894001 
  77      EDBF8921 
  77      CE4B90
  78 0104 18734A27 		.ascii	"\030sJ'w\265\366\244\013\243\236'\035a\271\274\317H"
  78      77B5F6A4 
  78      0BA39E27 
  78      1D61B9BC 
  78      CF48
  79 0116 CBD57D33 		.ascii	"\313\325}3\321\222\212\210\355\377\023\253DK}\261~\224"
  79      D1928A88 
  79      EDFF13AB 
  79      444B7DB1 
  79      7E94
  80 0128 60DCA254 		.ascii	"`\334\242T:\221\306\037_z\342p\033\223\324\2141\035"
  80      3A91C61F 
  80      5F7AE270 
  80      1B93D48C 
  80      311D
  81 013a BC7B2E12 		.ascii	"\274{.\022\"\373\231`\241\276\267\3646.M3\\\362\016"
  81      22FB9960 
  81      A1BEB7F4 
  81      362E4D33 
  81      5CF20E
  82 014d 5A930EB5 		.ascii	"Z\223\016\265\022\375\264\303\370\316W\006ex\004z\250"
  82      12FDB4C3 
  82      F8CE5706 
  82      6578047A 
ARM GAS  /tmp/ccTCnjU0.s 			page 6


  82      A8
  83 015e 1F2CE998 		.ascii	"\037,\351\2301\303\375\343I\255h\353\227\374\313Hq\004"
  83      31C3FDE3 
  83      49AD68EB 
  83      97FCCB48 
  83      7104
  84 0170 BA260891 		.ascii	"\272&\010\221\376\035>\031\252j\355\260\233q\272q\230"
  84      FE1D3E19 
  84      AA6AEDB0 
  84      9B71BA71 
  84      98
  85 0181 914F0601 		.ascii	"\221O\006\001\311\300\003\336D)(x\371\322\370\2547^"
  85      C9C003DE 
  85      44292878 
  85      F9D2F8AC 
  85      375E
  86 0193 98F1F213 		.ascii	"\230\361\362\023~\316/U\274\251\362\364\344g\217/3\331"
  86      7ECE2F55 
  86      BCA9F2F4 
  86      E4678F2F 
  86      33D9
  87 01a5 B25F9AAE 		.ascii	"\262_\232\256xA!\250L\225\013\331\240\362>O\310\375"
  87      784121A8 
  87      4C950BD9 
  87      A0F23E4F 
  87      C8FD
  88 01b7 011B9C9D 		.ascii	"\001\033\234\235\325"
  88      D5
  89              		.text
  90              		.section	.gnu.lto_reads.4aa2501408548899,"",%progbits
  91 0000 789C8D50 		.ascii	"x\234\215P;H\003A\020\235\267{w\2111A\005k\2616\340"
  91      3B480341 
  91      109DB77B 
  91      77893141 
  91      056BB136 
  92 0015 822096D6 		.ascii	"\202 \226\326\366\012Z&\227x9\344\014$Q\020\013/\306"
  92      F60A5A26 
  92      977839E4 
  92      0C245110 
  92      0B2FC6
  93 0028 226263AD 		.ascii	"\"bc\255 hi\241\226\012\026\026\026\026~\020,\324&\001"
  93      206869A1 
  93      960A1616 
  93      16167E10 
  93      2CD42601 
  94 003c B1D6526C 		.ascii	"\261\326Rl\342\354\305U\021Q\027\366\315\356\233y\363"
  94      E2ECC555 
  94      115117F6 
  94      CDEE9B79 
  94      F3
  95 004d 1324E8FB 		.ascii	"\023$\350\373\031\342;\312\364\010[\330\004\261~IT\215"
  95      19E23BCA 
  95      F4085BD8 
  95      04B17E49 
  95      548D
  96 005f 0B216F14 		.ascii	"\013!o\024\205\011\353\270\217\302\244\204\325\246-"
  96      8509EBB8 
ARM GAS  /tmp/ccTCnjU0.s 			page 7


  96      8FC2A484 
  96      D5A62D
  97 006e 403F08B4 		.ascii	"@?\010\264$\244\205\245)DI\366\305I\263\325\332{>z\250"
  97      24A485A5 
  97      294449F6 
  97      C549B3D5 
  97      DA7B3E7A 
  98 0083 A3A70B14 		.ascii	"\243\247\013\024\200\004\002\300\"\037dkp4\304\230\243"
  98      800402C0 
  98      221F646B 
  98      7034C498 
  98      A3
  99 0094 38BFD0C1 		.ascii	"8\277\320\301 \022\374\025I\355Hi\340c\323J\030\256"
  99      2012FC15 
  99      49ED4869 
  99      E063D34A 
  99      18AE
 100 00a6 F713B9D1 		.ascii	"\367\023\271\321w\234Q\227\233\200\320V^\320\362\375"
 100      779C5197 
 100      9B80D056 
 100      5ED0F2FD 
 101 00b6 CB562A83 		.ascii	"\313V*\203m\356\324\203\225\246\001\037r\2236\340\303"
 101      6DEED483 
 101      95A6011F 
 101      729336E0 
 101      C3
 102 00c7 F22026D9 		.ascii	"\362 &\331\332QCY\230\371\264\346\240\323H\354\337$"
 102      DA514359 
 102      98F9B4E6 
 102      A0D348EC 
 102      DF24
 103 00d9 F890D456 		.ascii	"\370\220\324Vk;0\032\307\323\221\034tF\247\217\325\324"
 103      6B3B301A 
 103      C7D3911C 
 103      7446A78F 
 103      D5D4
 104 00eb 173AF6B9 		.ascii	"\027:\366\271\306qH\272Qr\202G6\235\0366zMl<*\213\237"
 104      C67148BA 
 104      51728247 
 104      369D1E36 
 104      7A4D6C3C 
 105 0102 CB8ACFB2 		.ascii	"\313\212\317\262k\265i#\351`UT\365\212\2346G\264H\257"
 105      6BB56923 
 105      E9605554 
 105      F58A9C36 
 105      47B448AF 
 106 0116 613DECF6 		.ascii	"a=\354\366\341\270\357\315zHD\241\234.\326\236\365\266"
 106      E1B8EFCD 
 106      7A4844A1 
 106      9C2ED69E 
 106      F5B6
 107 0128 D1655224 		.ascii	"\321eR$\323\264\033\206:\376\357\201\353\322\250R,\364"
 107      D3B41B86 
 107      3AFEEF81 
 107      EBD2A852 
 107      2CF4
 108 013a B48BB38D 		.ascii	"\264\213\263\215\265\311\377\345a)\3215U\233-\307\344"
ARM GAS  /tmp/ccTCnjU0.s 			page 8


 108      B5C9FFE5 
 108      6129D135 
 108      559B2DC7 
 108      E4
 109 014b 8A1C7704 		.ascii	"\212\034w\004^\225`p\344\371\023\364\256\240\227\244"
 109      5E956070 
 109      E4F913F4 
 109      AEA097A4 
 110 015b E71E5685 		.ascii	"\347\036V\205b\220Wn1\267\240r\371y\345\026\374\254"
 110      6290576E 
 110      31B7A072 
 110      F979E516 
 110      FCAC
 111 016d 5F2CAB4A 		.ascii	"_,\253JinvF\361c>S\362\213se\025\344\203r\245\224\317"
 111      696E7646 
 111      F1633E53 
 111      F28B7365 
 111      15E48372 
 112 0184 04E54197 		.ascii	"\004\345A\227\336\000\247y\210\374"
 112      DE00A779 
 112      88FC
 113              		.text
 114              		.section	.gnu.lto_writes.4aa2501408548899,"",%progbits
 115 0000 789C8D50 		.ascii	"x\234\215P\277K\303@\024~\337]\222\326\332\250\177\201"
 115      BF4BC340 
 115      147EDF5D 
 115      92D6DAA8 
 115      7F81
 116 0012 382B7820 		.ascii	"8+x \210\233\273\273\005\035\333\264\246Ab\240QA\034"
 116      889BBBBB 
 116      051DDBB4 
 116      A64162A0 
 116      51411C
 117 0025 9A5A07C5 		.ascii	"\232Z\007\305\305Q\352\344\342 \242\253C\007\007\007"
 117      C551EAE4 
 117      E220A2AB 
 117      43070707 
 118 0035 177F4117 		.ascii	"\027\177A\027\235\012\342\350(\210\213\276K\214\212"
 118      9D0AE2E8 
 118      28888BBE 
 118      4B8C8A
 119 0044 887A70DF 		.ascii	"\210zp\337\273\373\336\373\336/A\202\276\2371\276\223"
 119      BBFBDEFB 
 119      DE2F4182 
 119      BE9F31BE 
 119      93
 120 0055 4C4FB085 		.ascii	"LO\260\205I\020\333\227D\215\254\020\262\243(\312\031"
 120      4910DB97 
 120      448DAC10 
 120      B2A328CA 
 120      19
 121 0066 ED418AF2 		.ascii	"\355A\212\362\022FB\033\200~\020\250.\244\201\372,\342"
 121      1246421B 
 121      807E10A8 
 121      2EA481FA 
 121      2CE2
 122 0078 24C7E2B4 		.ascii	"$\307\342\264\373\372z\324~\272_@?\310\007\011\370\200"
ARM GAS  /tmp/ccTCnjU0.s 			page 9


 122      FBFA7AD4 
 122      7EBA5F40 
 122      3FC80709 
 122      F880
 123 008a 411EC8D4 		.ascii	"A\036\310\324`i\3100GY~\241\207A\344\370+\362\332ak"
 123      6069C830 
 123      47597EA1 
 123      8741E4F8 
 123      2BF2DA61 
 124 009f E063D27A 		.ascii	"\340c\322z\024m\017\0219\361w\232QW+@h+/h\355\356\244"
 124      146D0F11 
 124      39F1779A 
 124      51572B40 
 124      682B2F68 
 125 00b6 6517B1C7 		.ascii	"e\027\261\307\215\2720Fh\330\203\334\245\026<\030.\304"
 125      8DBA3046 
 125      68D883DC 
 125      A5163C18 
 125      2EC4
 126 00c8 0C5B33EE 		.ascii	"\014[3\356\247\204t<\255\271\356M%\346o\022|H\232\233"
 126      A784743C 
 126      ADB9EE4D 
 126      25E66F12 
 126      7C489A9B 
 127 00dc CD7DA41A 		.ascii	"\315}\244\032\313\325\221\034tNg\017\015\373\013\235"
 127      CBD5911C 
 127      744E670F 
 127      0DFB0B9D 
 128 00ec F9DCE234 		.ascii	"\371\334\3424$u\224,\360\310i\247\317w}il6.\213\237"
 128      2475942C 
 128      F0C869A7 
 128      CF777D69 
 128      6C362E8B 
 129 0101 CB8ACFB2 		.ascii	"\313\212\317\262[\315\271T\322\303\252\270\352\025Y"
 129      5BCDB954 
 129      D2C3AAB8 
 129      EA1559
 130 0110 0947B44A 		.ascii	"\011G\264J/\321F4\340\301r\336\233\215\343r.8]&\231"
 130      2FD14634 
 130      E0C172DE 
 130      9B8DE372 
 130      2E385D26 
 131 0125 7567F7A3 		.ascii	"ug\367\243j~\204\016\242H\307\377=\360\206LU6\013]\355"
 131      6A7E840E 
 131      A248C7FF 
 131      3DF0864C 
 131      55360B5D 
 132 013a E26C5309 		.ascii	"\342lS\011\371\277<,%\272\241F\367\321Js\305\216[\002"
 132      F9BF3C2C 
 132      25BAA146 
 132      F7D14A73 
 132      C58E5B02 
 133 014e AF4A3058 		.ascii	"\257J0X\362\360\021zW\320K\322s\217\253j\340W\224\023"
 133      F2F0117A 
 133      57D04BD2 
 133      738FAB6A 
 133      E0579413 
ARM GAS  /tmp/ccTCnjU0.s 			page 10


 134 0162 945754B9 		.ascii	"\224WT\271\262\254\234\252W\362\202P-\326\226\026\346"
 134      B2AC9CAA 
 134      57F28250 
 134      2DD69616 
 134      E6
 135 0173 153F968B 		.ascii	"\025?\226\2135/X\012\225_\361\303\305Z\245\350\207\243"
 135      352F580A 
 135      955FF1C3 
 135      C55AA5E8 
 135      87A3
 136 0185 0EBD01B7 		.ascii	"\016\275\001\267a\2104"
 136      618834
 137              		.text
 138              		.section	.gnu.lto_msObjectInit.4aa2501408548899,"",%progbits
 139 0000 789C8D90 		.ascii	"x\234\215\2201K\003A\020\205\347\315]B@\374\001V\012"
 139      314B0341 
 139      1085E7CD 
 139      5D4240FC 
 139      01560A
 140 0013 96825B89 		.ascii	"\226\202[\211?\304\010Z^.Gr\310zp\227\004\304\"\033"
 140      3FC4085A 
 140      5E2E4772 
 140      C87A7097 
 140      04C4221B 
 141 0027 15EC2465 		.ascii	"\025\354$eP\024l-\242e\312\364\242`ggz{\015A\210\263"
 141      50146C2D 
 141      A265CAF4 
 141      A2606767 
 141      7A7B0D41 
 142 003d B7B18929 		.ascii	"\267\261\211)2\260o\206a\276\267;\313\3044\037kr\356"
 142      32B06F86 
 142      61BEB73B 
 142      CBC4341F 
 142      6B72EE
 143 0050 40B42B19 		.ascii	"@\264+\031\036\201\273\257D\235\022\003\266 P\233\321"
 143      1E81BBAF 
 143      449D1203 
 143      B620509B 
 143      D1
 144 0061 3E443EFB 		.ascii	">D>\373\310\303\321t\332\177\272\354\377\340\226W\030"
 144      C8C3D174 
 144      DA7FBAEC 
 144      FFE09657 
 144      18
 145 0072 1AE48BA0 		.ascii	"\032\344\213\240(\302%\021O\246\012taLw\203(\314\251"
 145      28C22511 
 145      4FA60A74 
 145      614C7783 
 145      28CCA9
 146 0085 B2A8B5DA 		.ascii	"\262\250\265\332\007\333\354\275\320\331\344\374\363"
 146      07DBECBD 
 146      D0D9E4FC 
 146      F3
 147 0092 6A3DC03D 		.ascii	"j=\300=\012\264E\017Fb5\006\335\3205b\240\006>\220\354"
 147      0AB4450F 
 147      46623506 
 147      DDD03562 
ARM GAS  /tmp/ccTCnjU0.s 			page 11


 147      A0063E90 
 148 00a7 5E5A7117 		.ascii	"^Zq\027\323)ML\317\230=\031\323\360\363\226\370<\217"
 148      D3294D4C 
 148      CF983D19 
 148      D3F0F396 
 148      F83C8F
 149 00ba BFC698F7 		.ascii	"\277\306\230\367\361\026\3738\243\232\205-\331\373\376"
 149      F116FB38 
 149      A39A852D 
 149      D9FBFE
 150 00c9 4FFA8B49 		.ascii	"O\372\213I\236\221EG\016\226'\275\031Y\312\311\301\373"
 150      9E914547 
 150      0E9627BD 
 150      1959CAC9 
 150      C1FB
 151 00db F2A45BD1 		.ascii	"\362\244[\321v\362\352\215:\243\217M\307\376EYV\222"
 151      76F2EA8D 
 151      3AA38F4D 
 151      C7FE4559 
 151      5692
 152 00ed FFB4C48E 		.ascii	"\377\264\304\216\252':RaR=Q\325\250\245\302z\\\211\223"
 152      AA273A52 
 152      61523D51 
 152      D5A8A5C2 
 152      7A5C8993 
 153 0101 4C35D2E6 		.ascii	"L5\322\346\361\221\222\242\025\244q\322\314\224\216"
 153      F19192A2 
 153      15A471D2 
 153      CC948E
 154 0110 74D648A3 		.ascii	"t\326H\243@g\333!\375\002\352nt4"
 154      4067DB21 
 154      FD02EA6E 
 154      7434
 155              		.text
 156              		.section	.gnu.lto_.symbol_nodes.4aa2501408548899,"",%progbits
 157 0000 789C4DC8 		.ascii	"x\234M\310\271\021\2000\020CQi\327\246OZ\240\0019\204"
 157      B9118030 
 157      10435169 
 157      D7A64F5A 
 157      A0013984 
 158 0014 8C02189A 		.ascii	"\214\002\030\232!\247\007n\252`\010\354\300J\376<\031"
 158      21A7076E 
 158      AA6008EC 
 158      C04AFE3C 
 158      19
 159 0025 0C1DCAEC 		.ascii	"\014\035\312\354\244\200q\005\244ih\355\242X\361\240"
 159      A4807105 
 159      A46968ED 
 159      A258F1A0 
 160 0035 ACE24E79 		.ascii	"\254\342Ny\305\207\012\205s\317x\023A\316\227\212\371"
 160      C5870A85 
 160      73CF7813 
 160      41CE978A 
 160      F9
 161 0046 4D896E0D 		.ascii	"M\211n\015\226\355\243{.~\265\221%\246"
 161      96EDA37B 
 161      2E7EB591 
ARM GAS  /tmp/ccTCnjU0.s 			page 12


 161      25A6
 162              		.text
 163              		.section	.gnu.lto_.refs.4aa2501408548899,"",%progbits
 164 0000 789C6362 		.ascii	"x\234cb`b\340g\200\000F\026&V\026V&f&&&\006&F\006\000"
 164      6062E067 
 164      80004616 
 164      26561656 
 164      26662626 
 165 001a 032D0037 		.ascii	"\003-\0007"
 166              		.text
 167              		.section	.gnu.lto_.decls.4aa2501408548899,"",%progbits
 168 0000 789CBD58 		.ascii	"x\234\275X]l\024U\024\276w\366\247]\331 \022%\345\305"
 168      5D6C1455 
 168      14BE77F6 
 168      A75DD920 
 168      1225E5C5 
 169 0014 16051F30 		.ascii	"\026\005\0370t\002V\303\213 \351\003\365\241jT\214/"
 169      740256C3 
 169      8B20E903 
 169      F5A16A54 
 169      8C2F
 170 0026 6633DD4E 		.ascii	"f3\335N\333\325\356Ovf\301\352\003\227\252@\220\207"
 170      DBD5EE4F 
 170      7666C1EA 
 170      0397AA40 
 170      9087
 171 0038 8221D810 		.ascii	"\202!\330\020h\013\342_B\240%\010\246 K\213\244\241"
 171      680BE25F 
 171      42A02508 
 171      A6204B8B 
 171      A4A1
 172 004a A0454445 		.ascii	"\240EDE\004\027\302\237\177\241\245`)\245Y\317\275s"
 172      0417C29F 
 172      7FA1A560 
 172      29A559CF 
 172      BD73
 173 005c 6777663A 		.ascii	"gwf:\263\273\345\301\233\236\351\235\231{\276s\346|"
 173      B3BBE5C1 
 173      9B9EE99D 
 173      997BBE73 
 173      E67C
 174 006e E7DC735B 		.ascii	"\347\334s[\001\011\310/ \224\206q\361!\204\236\201\271"
 174      0109C82F 
 174      20948671 
 174      F121849E 
 174      81B9
 175 0080 1721B408 		.ascii	"\027!\264\010e\007\275\357\000\351\0069\002r\012\344"
 175      6507BDEF 
 175      00E90639 
 175      02720AE4 
 176 0090 3C880F23 		.ascii	"<\210\017#\004?h&F\246A\327\026\201\354\000\361\200"
 176      043F6826 
 176      46A641D7 
 176      1681EC00 
 176      F180
 177 00a2 F481F482 		.ascii	"\364\201\364\202\\\004I\201\354\006q\201\214\202\214"
 177      5C044981 
ARM GAS  /tmp/ccTCnjU0.s 			page 13


 177      EC067181 
 177      8C828C
 178 00b1 818C200D 		.ascii	"\201\214 \015\207\352\201y\364\025\310\0013$\263\355"
 178      87EA8179 
 178      F415C801 
 178      3324B3ED 
 179 00c1 E3BA5341 		.ascii	"\343\272SA\3749\360]\034w\334\200\335\315\177\037\266"
 179      FC39F05D 
 179      1C77DC80 
 179      DDCD7F1F 
 179      B6
 180 00d2 E0D2EF29 		.ascii	"\340\322\357)6\340,\261`\225\202\322\003x\"\246\300"
 180      36E02CB1 
 180      609582D2 
 180      037822A6 
 180      C0
 181 00e3 757DFCDD 		.ascii	"u}\374\335w \375 ',\370\247,\370\213s\340\033\343!p"
 181      7720FD20 
 181      272CF8A7 
 181      2CF88B73 
 181      E01BE321 
 182 00f8 5D1DFF1C 		.ascii	"]\035\377\034\310Y\220_-\370\3479\3665\003\246\036\017"
 182      C859905F 
 182      2DF8E739 
 182      F63503A6 
 182      1E0F
 183 010a FAFC2AC7 		.ascii	"\372\374*\307\323\261\307y\034t=\027\334x@\274 Ex\""
 183      D3B1C779 
 183      1C743D17 
 183      DC7840BC 
 183      20457822 
 184 011e 97A5681B 		.ascii	"\227\245h\033I\016\246\276\2754\210[I\362}\222N\257"
 184      490EA6BE 
 184      BD34885B 
 184      49F27D92 
 184      4EAF
 185 0130 4433D026 		.ascii	"D3\320&\002\243}5!X\365\241\265\374\246\252\017\210"
 185      02A37D35 
 185      2158F5A1 
 185      B5FCA6AA 
 185      0F88
 186 0142 791D4B78 		.ascii	"y\035Kx\252\017\225\261\211\337\207\334\2001\007}BH"
 186      AA0F95B1 
 186      89DF87DC 
 186      8031077D 
 186      4248
 187 0154 4B6A6874 		.ascii	"Kjht\375\263\204\024Kx\007\366\301\367\255\302\030\315"
 187      FDB38414 
 187      4B7807F6 
 187      C1F7ADC2 
 187      18CD
 188 0166 455F806E 		.ascii	"E_\200n\013!\227\036\027\320\304Q8\366\241\343G;q3\370"
 188      0B21971E 
 188      17D0C451 
 188      38F6A1E3 
 188      473B7133 
 189 017b 23E1CF18 		.ascii	"#\341\317\030\372^@\227\360\247x\356\244\241F\372\367"
ARM GAS  /tmp/ccTCnjU0.s 			page 14


 189      FA5E4097 
 189      F0A778EE 
 189      A4A146FA 
 189      F7
 190 018c 2F646E7E 		.ascii	"/dn~\311\200\006-@\022\366\372\214>\262{}\001E\203["
 190      C980062D 
 190      4012F6FA 
 190      8C3EB27B 
 190      7D014583 
 191 01a1 6AE90EAD 		.ascii	"j\351\016\255(\274\222?\2417E\350\177\327\263\373L\012"
 191      28BC923F 
 191      A13745E8 
 191      7FD7B3FB 
 191      4C0A
 192 01b3 B11DCF60 		.ascii	"\261\035\317`3\027\3133x\260x\212>g\201j&\251\235\244"
 192      3317CB33 
 192      78B0788A 
 192      3E67816A 
 192      26A99DA4 
 193 01c7 E4E36CA0 		.ascii	"\344\343l\240\212u\004l\210\371\272]O\262@\355f\201"
 193      8A75046C 
 193      88F9BA5D 
 193      4FB240ED 
 193      6681
 194 01d9 BA6B17F1 		.ascii	"\272k\027\361\202\200F>\334\246E\274\213\0015\013\326"
 194      8280463E 
 194      DCA645BC 
 194      8B01350B 
 194      D6
 195 01ea 88634BC4 		.ascii	"\210cK\304\2619\002\3545\237\244\315\371[\310Z\011/"
 195      B13902EC 
 195      359FA4CD 
 195      F95BC85A 
 195      092F
 196 01fc 73651404 		.ascii	"se\024\004\264\336b~6\332A\310\306\324\321K}\230Lg\221"
 196      B4DE627E 
 196      36DA41C8 
 196      C6D4D14B 
 196      7D984C67 
 197 0211 12500B5B 		.ascii	"\022P\013[\323\201Km#\314\026q=\322\372F\211\036\241"
 197      D3814B6D 
 197      23CC1671 
 197      3DD2FA46 
 197      891EA1
 198 0224 8FAC5AA6 		.ascii	"\217\254Z\246`h\253`<\201vRB\017]~\251J\253\025\224"
 198      6068AB60 
 198      3C817652 
 198      420F5D7E 
 198      A94AAB15 
 199 0239 C316FF82 		.ascii	"\303\026\377\202}\330T?Z\325&\017\034\363\267\254J\245"
 199      7DD8543F 
 199      5AD5260F 
 199      1CF3B7AC 
 199      4AA5
 200 024b D3A5A68A 		.ascii	"\323\245\246\212\325@\235R\343\240MjX\"\264\3116Bd\250"
 200      D5409D52 
 200      E3A04D6A 
ARM GAS  /tmp/ccTCnjU0.s 			page 15


 200      5822B4C9 
 200      364264A8 
 201 025f B68AAFDE 		.ascii	"\266\212\257\336\017\336H\270;gx\034\276\323I\211{\367"
 201      0FDE48B8 
 201      3B67781C 
 201      BED34989 
 201      7BF7
 202 0271 8DED770E 		.ascii	"\215\355w\016\215\0037\033\311\275t\332e\26395\027R"
 202      8D03371B 
 202      C9BD74DA 
 202      65B33935 
 202      1752
 203 0283 F5C31B7F 		.ascii	"\365\303\033\177\032\346\033H/#\353\304\204,\364X\262"
 203      1AE61B48 
 203      2F23EBC4 
 203      842CF458 
 203      B2
 204 0294 D063CE2C 		.ascii	"\320c\316,\217/;\241\345\367\240s\371\3658\227\337\024"
 204      8F2F3BA1 
 204      E5F7A073 
 204      F9F53897 
 204      DF14
 205 02a6 B42EEBB1 		.ascii	"\264.\353\261\226\022N(}x\212\301\237\014V\257\226E"
 205      96124E28 
 205      7D788AC1 
 205      9F0C56AF 
 205      9645
 206 02b8 16CE4EDB 		.ascii	"\026\316N\333g\365\007\027\266\316$\355\202\211\267"
 206      67F50717 
 206      B6CE24ED 
 206      8289B7
 207 02c7 2385A475 		.ascii	"#\205\244u\247\\\245y \240\263\014\332Y\213\371\311"
 207      A75CA579 
 207      20A0B30C 
 207      DA598BF9 
 207      C9
 208 02d8 D57EA66A 		.ascii	"\325~\246jZ\200\177\313\243\326k\250\206fr\230eI/\317"
 208      5A807FCB 
 208      A3D66BA8 
 208      86667298 
 208      65492FCF 
 209 02ec 12272D1E 		.ascii	"\022'-\036\231\343\266YrP\356#\203\300\213\245\030z"
 209      99E3B659 
 209      7250EE23 
 209      83C08BA5 
 209      187A
 210 02fe 7384F887 		.ascii	"s\204\370\207\002\211\312\354uI\307\275N\302{\360\234"
 210      0289CAEC 
 210      7549C7BD 
 210      4EC27BF0 
 210      9C
 211 030f FCFB9193 		.ascii	"\374\373\221\223'g&C\366\005\373\002\035\265\024\350"
 211      27672643 
 211      F605FB02 
 211      1DB514E8 
 212 031f A942883E 		.ascii	"\251B\210>L\031\243\326%|2\217\326\031\003\321\267u"
 212      4C19A3D6 
ARM GAS  /tmp/ccTCnjU0.s 			page 16


 212      257C328F 
 212      D61903D1 
 212      B775
 213 0331 A225FC7D 		.ascii	"\242%\374}\036\265\\D;i\361\250\3742\221\350\366T\262"
 213      1EB55C44 
 213      3B69F1A8 
 213      FC3291E8 
 213      F654B2
 214 0344 6D4DBFFD 		.ascii	"mM\277\375v \341E\2178F\370\202\231k\023\277\323\321"
 214      7620E145 
 214      8F3846F8 
 214      82996B13 
 214      BFD3D1
 215 0357 068A5266 		.ascii	"\006\212Rf\330D\332\261\016\3600\312\354\"[6\237\234"
 215      D844DAB1 
 215      0EF030CA 
 215      EC225B36 
 215      9F9C
 216 0369 CF3AD945 		.ascii	"\317:\331E<\035`\266\270\314<\344\205\241~\\\006UM\211"
 216      3C1D60B6 
 216      B8CC3CE4 
 216      85A17E5C 
 216      06554D89 
 217 037d 8192E4D6 		.ascii	"\201\222\344\326c~\342\326\236#\023\234i\314B\355\340"
 217      637EE2D6 
 217      9E23139C 
 217      69CC42ED 
 217      E0
 218 038e 6FB27375 		.ascii	"o\262su\033\024t\017\266s\037\026`\203i\2221=\215e\315"
 218      1B14740F 
 218      B6731F16 
 218      60836992 
 218      313D8D65 
 219 03a3 E7E0AD8D 		.ascii	"\347\340\255\215\207\346e\022\376\203\321\371\247\325"
 219      87E66512 
 219      FE83D1F9 
 219      A7D5
 220 03b1 CB31A94C 		.ascii	"\3131\251L{\232\337\307\361\223\376\026\311\262\321"
 220      7B9ADFC7 
 220      F193FE16 
 220      C9B2D1
 221 03c0 D14A7362 		.ascii	"\321Jsb\346\237l\356\013h\037\213)5d\267\234O\265\301"
 221      E69F6CEE 
 221      0B681F8B 
 221      293564B7 
 221      9C4FB5C1 
 222 03d4 17988C93 		.ascii	"\027\230\214\223.B|^\213\361\236\034\306\007\215\306"
 222      2E427C5E 
 222      8BF19E1C 
 222      C6078DC6 
 223 03e4 BB276DBC 		.ascii	"\273'm\274,\257\361\3559\214\017g\215k=>\257\361\342"
 223      2CAFF1ED 
 223      398C0F67 
 223      8D6B3D3E 
 223      AFF1E2
 224 03f7 C97DF9C1 		.ascii	"\311}\371\301\034\306o\263\242\317P\2515\337\3119Pf"
 224      1CC66FB3 
ARM GAS  /tmp/ccTCnjU0.s 			page 17


 224      A2CF50A9 
 224      35DFC939 
 224      5066
 225 0409 49001D4E 		.ascii	"I\000\035N\302\177\343Yp\275\301\2567\331\365\026\\"
 225      C27FE359 
 225      70BDC1AE 
 225      37D9F516 
 225      5C
 226 041a 33C3C9A7 		.ascii	"3\303\311\247kF6\222\214\215\313\367\233\012\311.8\036"
 226      6B463692 
 226      8C8DCBF7 
 226      9B0AC92E 
 226      381E
 227 042c 497A173B 		.ascii	"Iz\027;:i0\033j\365\336\326_\010X>\252t\260\201I\203"
 227      3A69301B 
 227      6AF5DED6 
 227      5F08583E 
 227      AA74B081 
 228 0442 E5F0ECC7 		.ascii	"\345\360\354\307B\300\246\331xf7\214\233\225\204\257"
 228      42C0A6D9 
 228      7866378C 
 228      9B9584AF 
 229 0452 B0FE7695 		.ascii	"\260\376v\225\2219\302\256\243\354:\306\256\343\205"
 229      9139C2AE 
 229      A3EC3AC6 
 229      AEE385
 230 0461 D09BCAD2 		.ascii	"\320\233\312\322\233iq\374\230cmyyZ\3409\227\355y\347"
 230      9B6971FC 
 230      98636D79 
 230      795AE039 
 230      97ED79E7 
 231 0475 CA709F1B 		.ascii	"\312p\237\033\376\216uk\246\004t\235-;\357\330\233R"
 231      FE8E756B 
 231      A604749D 
 231      2D3BEFD8 
 231      9B52
 232 0487 D8D209FB 		.ascii	"\330\322\011\373XQ\334a\225\340\254f8\362$;\327\360"
 232      5851DC61 
 232      95E0AC66 
 232      38F2243B 
 232      D7F0
 233 0499 2396D60D 		.ascii	"#\226\326\015\357\346Qe\237\303-\266e\233\350\275B\324"
 233      EFE65165 
 233      9FC32DB6 
 233      659BE8BD 
 233      42D4
 234 04ab F4333574 		.ascii	"\36435t\300\367\3321\361\262~\207\270\236\211\267fa"
 234      C0F7DA31 
 234      F1B27E87 
 234      B89E89B7 
 234      6661
 235 04bd 42E34CED 		.ascii	"B\343L\355I}\375\373\346\222V\322C\377\312O\227\020"
 235      497DFDFB 
 235      E69256D2 
 235      43FFCA4F 
 235      9710
 236 04cf B20B5BBA 		.ascii	"\262\013[\272'\034\013&ZgD\010h\203\033\353\254\010"
ARM GAS  /tmp/ccTCnjU0.s 			page 18


 236      271C0B26 
 236      5A674408 
 236      68831BEB 
 236      AC08
 237 04e1 A8156E38 		.ascii	"\250\025n8A\217\242\016\367VRlM\234u\202\343\311J\302"
 237      418FA20E 
 237      F756526C 
 237      4D9C7582 
 237      E3C94AC2 
 238 04f5 4B6C19B7 		.ascii	"Kl\031\2670\274\303md\230\033\376\322\350E\227\333\362"
 238      30BCC36D 
 238      64981BFE 
 238      D2E84597 
 238      DBF2
 239 0507 CF0CF378 		.ascii	"\317\014\363x\014u\220\201\201\324\225\277\006\334\253"
 239      0C759081 
 239      81D495BF 
 239      06DCAB
 240 0516 E8BF36E8 		.ascii	"\350\2776\350\201\001\303W]g9\375/\0138\205\267\355"
 240      8101C357 
 240      5D6739FD 
 240      2F0B3885 
 240      B7ED
 241 0528 83882FA1 		.ascii	"\203\210/\241\243\002\355%k\223\317\351\232tk{\027\335"
 241      A302ED25 
 241      6B93CFE9 
 241      9A746B7B 
 241      17DD
 242 053a 257024DC 		.ascii	"%p$\334\213\265\356\245\035d\230\322\215\354\333\323"
 242      8BB5EEA5 
 242      1D6498D2 
 242      8DECDBD3 
 243 054a 586B2FDA 		.ascii	"Xk/\332y\226\275\275\231};\204\265\375_\373\333\217"
 243      7996BDBD 
 243      997D3B84 
 243      B5FD5FFB 
 243      DB8F
 244 055c BDBD957D 		.ascii	"\275\275\225};\206\365\015\272[\347\326\262\265\323"
 244      3B86F50D 
 244      BA5BE7D6 
 244      B2B5D3
 245 056b 083BD559 		.ascii	"\010;\325Y\233\220=M>-6D\303\262\030\214\3266\211\265"
 245      9B903D4D 
 245      3E2D3644 
 245      C3B2188C 
 245      D63689B5 
 246 057f F27231D8 		.ascii	"\362r1\330\020\252\011E\025Q\215'\"o\2110Y.\305C\321"
 246      10AA0945 
 246      15518D27 
 246      226F8930 
 246      592EC543 
 247 0594 842286E5 		.ascii	"\204\"\206\345\260\242\306e)\254\224\007QU>\255\270"
 247      B0A2C665 
 247      29AC9407 
 247      51553EAD 
 247      B8
 248 05a5 2AC6A271 		.ascii	"*\306\242qU\021\227\274\\]Y\3756\254\014\307B\215r\\"
ARM GAS  /tmp/ccTCnjU0.s 			page 19


 248      551197BC 
 248      5C5D59FD 
 248      36AC0CC7 
 248      428D725C 
 249 05b9 11975656 		.ascii	"\021\227VV\302r\265)&+\345\015\310\023V\352\003\252"
 249      C272B529 
 249      262BE50D 
 249      C81356EA 
 249      03AA
 250 05cb 77E90BCB 		.ascii	"w\351\013\313\312*\321l1\241\304E)\036\236\027\211F"
 250      CA2AD16C 
 250      31A1C445 
 250      291E9E17 
 250      8946
 251 05dd E479B254 		.ascii	"\344y\262T\023\022C\221`c\242V\026\025\2656\024QA\243"
 251      13124391 
 251      6063A256 
 251      1615B536 
 251      145141A3 
 252 05f1 087E3DB5 		.ascii	"\010~=\265 \240V\344X\034\226\300\241\210,\006j\345"
 252      20A056E4 
 252      581C96C0 
 252      A1882C06 
 252      6AE5
 253 0603 3A29D1A8 		.ascii	":)\321\250\006ts\276@\200\253\027%`\2620\240\302\023"
 253      067473BE 
 253      4080AB17 
 253      2560B230 
 253      A0C213
 254 0616 3E73C512 		.ascii	">s\305\022\252\020\212\341\032W\275\254.`\350\215\241"
 254      AA108AE1 
 254      1A57BDAC 
 254      2E60E88D 
 254      A1
 255 0627 1AB13E18 		.ascii	"\032\261>\030\264X\251(_X^at\014\254\000\266W\011\275"
 255      B458A928 
 255      5F585E61 
 255      740CAC00 
 255      B65709BD 
 256 063b 2307540F 		.ascii	"#\007T\017\304\250V\021jb8\342]\021\017\251\262r?!n"
 256      C4A85611 
 256      6A6238E2 
 256      5D110FA9 
 256      B2723F21 
 257 0650 40FE6A39 		.ascii	"@\376j9\034\2157\275\302\036\320\033m\366Z\365\253\036"
 257      1C8D37BD 
 257      C21ED01B 
 257      6DF65AF5 
 257      AB1E
 258 0662 06EBA676 		.ascii	"\006\353\246v\\\313\303\252\267&QW'\307\335\324\274"
 258      5CCBC3AA 
 258      B7265157 
 258      27C7DDD4 
 258      BC
 259 0673 4B8E2ADE 		.ascii	"K\216*\336h]\235\"\253\376\260\362b\315\233rP}>\022"
 259      685D9D22 
 259      ABFEB0F2 
ARM GAS  /tmp/ccTCnjU0.s 			page 20


 259      62CD9B72 
 259      507D3E12 
 260 0687 525D6125 		.ascii	"R]a%\226;\272\361P\244\236F\027\336E\022\215\215Eu\221"
 260      963BBAF1 
 260      50A49E46 
 260      17DE4512 
 260      8D8D4575 
 261 069c 32252607 		.ascii	"2%&\007\361|/x\025\2145\301\013\265!\036]\341n\224\245"
 261      F17C2F78 
 261      158C35C1 
 261      0BB5211E 
 261      5DE16E94 
 262 06b1 BAFF003C 		.ascii	"\272\377\000<'R+"
 262      27522B
 263              		.text
 264              		.section	.gnu.lto_.symtab.4aa2501408548899,"",%progbits
 265 0000 6D734F62 		.ascii	"msObjectInit\000\000\000\000\000\000\000\000\000\000"
 265      6A656374 
 265      496E6974 
 265      00000000 
 265      00000000 
 266 0016 0000DD00 		.ascii	"\000\000\335\000\000\000"
 266      0000
 267              		.text
 268              		.section	.gnu.lto_.opts,"",%progbits
 269 0000 272D6D63 		.ascii	"'-mcpu=cortex-m4' '-mfloat-abi=hard' '-mfpu=fpv4-sp"
 269      70753D63 
 269      6F727465 
 269      782D6D34 
 269      2720272D 
 270 0033 2D643136 		.ascii	"-d16' '-mno-thumb-interwork' '-mthumb' '-O2' '-fomi"
 270      2720272D 
 270      6D6E6F2D 
 270      7468756D 
 270      622D696E 
 271 0066 742D6672 		.ascii	"t-frame-pointer' '-falign-functions=16' '-ffunction"
 271      616D652D 
 271      706F696E 
 271      74657227 
 271      20272D66 
 272 0099 2D736563 		.ascii	"-sections' '-fdata-sections' '-fno-common' '-flto' "
 272      74696F6E 
 272      73272027 
 272      2D666461 
 272      74612D73 
 273 00cc 272D6673 		.ascii	"'-fsingle-precision-constant'\000"
 273      696E676C 
 273      652D7072 
 273      65636973 
 273      696F6E2D 
 274              		.text
 275              		.section	.text.put,"ax",%progbits
 276              		.align	2
 277              		.p2align 4,,15
 278              		.thumb
 279              		.thumb_func
 280              		.type	put, %function
ARM GAS  /tmp/ccTCnjU0.s 			page 21


 281              	put:
 282              		@ args = 0, pretend = 0, frame = 0
 283              		@ frame_needed = 0, uses_anonymous_args = 0
 284              		@ link register save eliminated.
 285 0000 C368     		ldr	r3, [r0, #12]
 286 0002 8268     		ldr	r2, [r0, #8]
 287 0004 9A42     		cmp	r2, r3
 288 0006 06D0     		beq	.L3
 289 0008 4268     		ldr	r2, [r0, #4]
 290 000a D154     		strb	r1, [r2, r3]
 291 000c C368     		ldr	r3, [r0, #12]
 292 000e 0133     		adds	r3, r3, #1
 293 0010 C360     		str	r3, [r0, #12]
 294 0012 0020     		movs	r0, #0
 295 0014 7047     		bx	lr
 296              	.L3:
 297 0016 6FF00100 		mvn	r0, #1
 298 001a 7047     		bx	lr
 299              		.size	put, .-put
 300              		.section	.text.get,"ax",%progbits
 301              		.align	2
 302              		.p2align 4,,15
 303              		.thumb
 304              		.thumb_func
 305              		.type	get, %function
 306              	get:
 307              		@ args = 0, pretend = 0, frame = 0
 308              		@ frame_needed = 0, uses_anonymous_args = 0
 309              		@ link register save eliminated.
 310 0000 0269     		ldr	r2, [r0, #16]
 311 0002 C168     		ldr	r1, [r0, #12]
 312 0004 9142     		cmp	r1, r2
 313 0006 0346     		mov	r3, r0
 314 0008 04D0     		beq	.L7
 315 000a 4168     		ldr	r1, [r0, #4]
 316 000c 885C     		ldrb	r0, [r1, r2]	@ zero_extendqisi2
 317 000e 0132     		adds	r2, r2, #1
 318 0010 1A61     		str	r2, [r3, #16]
 319 0012 7047     		bx	lr
 320              	.L7:
 321 0014 6FF00100 		mvn	r0, #1
 322 0018 7047     		bx	lr
 323              		.size	get, .-get
 324 001a 00BFAFF3 		.section	.text.reads,"ax",%progbits
 324      0080
 325              		.align	2
 326              		.p2align 4,,15
 327              		.thumb
 328              		.thumb_func
 329              		.type	reads, %function
 330              	reads:
 331              		@ args = 0, pretend = 0, frame = 0
 332              		@ frame_needed = 0, uses_anonymous_args = 0
 333 0000 38B5     		push	{r3, r4, r5, lr}
 334 0002 0446     		mov	r4, r0
 335 0004 0846     		mov	r0, r1
 336 0006 2369     		ldr	r3, [r4, #16]
ARM GAS  /tmp/ccTCnjU0.s 			page 22


 337 0008 E568     		ldr	r5, [r4, #12]
 338 000a 6168     		ldr	r1, [r4, #4]
 339 000c ED1A     		subs	r5, r5, r3
 340 000e AA42     		cmp	r2, r5
 341 0010 38BF     		it	cc
 342 0012 1546     		movcc	r5, r2
 343 0014 1944     		add	r1, r1, r3
 344 0016 2A46     		mov	r2, r5
 345 0018 FFF7FEFF 		bl	memcpy
 346 001c 2369     		ldr	r3, [r4, #16]
 347 001e 2B44     		add	r3, r3, r5
 348 0020 2361     		str	r3, [r4, #16]
 349 0022 2846     		mov	r0, r5
 350 0024 38BD     		pop	{r3, r4, r5, pc}
 351              		.size	reads, .-reads
 352 0026 00BFAFF3 		.section	.text.writes,"ax",%progbits
 352      0080AFF3 
 352      0080
 353              		.align	2
 354              		.p2align 4,,15
 355              		.thumb
 356              		.thumb_func
 357              		.type	writes, %function
 358              	writes:
 359              		@ args = 0, pretend = 0, frame = 0
 360              		@ frame_needed = 0, uses_anonymous_args = 0
 361 0000 38B5     		push	{r3, r4, r5, lr}
 362 0002 C368     		ldr	r3, [r0, #12]
 363 0004 8568     		ldr	r5, [r0, #8]
 364 0006 0446     		mov	r4, r0
 365 0008 ED1A     		subs	r5, r5, r3
 366 000a 4068     		ldr	r0, [r0, #4]
 367 000c AA42     		cmp	r2, r5
 368 000e 38BF     		it	cc
 369 0010 1546     		movcc	r5, r2
 370 0012 1844     		add	r0, r0, r3
 371 0014 2A46     		mov	r2, r5
 372 0016 FFF7FEFF 		bl	memcpy
 373 001a E368     		ldr	r3, [r4, #12]
 374 001c 2B44     		add	r3, r3, r5
 375 001e E360     		str	r3, [r4, #12]
 376 0020 2846     		mov	r0, r5
 377 0022 38BD     		pop	{r3, r4, r5, pc}
 378              		.size	writes, .-writes
 379 0024 AFF30080 		.section	.text.msObjectInit,"ax",%progbits
 379      AFF30080 
 379      AFF30080 
 380              		.align	2
 381              		.p2align 4,,15
 382              		.global	msObjectInit
 383              		.thumb
 384              		.thumb_func
 385              		.type	msObjectInit, %function
 386              	msObjectInit:
 387              		@ args = 0, pretend = 0, frame = 0
 388              		@ frame_needed = 0, uses_anonymous_args = 0
 389              		@ link register save eliminated.
ARM GAS  /tmp/ccTCnjU0.s 			page 23


 390 0000 10B4     		push	{r4}
 391 0002 4160     		str	r1, [r0, #4]
 392 0004 044C     		ldr	r4, .L11
 393 0006 0460     		str	r4, [r0]
 394 0008 0021     		movs	r1, #0
 395 000a 8260     		str	r2, [r0, #8]
 396 000c C360     		str	r3, [r0, #12]
 397 000e 0161     		str	r1, [r0, #16]
 398 0010 5DF8044B 		ldr	r4, [sp], #4
 399 0014 7047     		bx	lr
 400              	.L12:
 401 0016 00BF     		.align	2
 402              	.L11:
 403 0018 00000000 		.word	.LANCHOR0
 404              		.size	msObjectInit, .-msObjectInit
 405 001c AFF30080 		.section	.rodata.vmt,"a",%progbits
 406              		.align	2
 407              		.set	.LANCHOR0,. + 0
 408              		.type	vmt, %object
 409              		.size	vmt, 16
 410              	vmt:
 411 0000 00000000 		.word	writes
 412 0004 00000000 		.word	reads
 413 0008 00000000 		.word	put
 414 000c 00000000 		.word	get
 415              		.comm	__gnu_lto_v1,1,1
 416              		.ident	"GCC: (GNU Tools for ARM Embedded Processors) 4.8.4 20140526 (release) [ARM/embedded-4_8-br
ARM GAS  /tmp/ccTCnjU0.s 			page 24

