ARM GAS  /tmp/ccCpdpMR.s 			page 1


   1              		.syntax unified
   2              		.cpu cortex-m4
   3              		.eabi_attribute 27, 3
   4              		.eabi_attribute 28, 1
   5              		.fpu fpv4-sp-d16
   6              		.eabi_attribute 20, 1
   7              		.eabi_attribute 21, 1
   8              		.eabi_attribute 23, 3
   9              		.eabi_attribute 24, 1
  10              		.eabi_attribute 25, 1
  11              		.eabi_attribute 26, 1
  12              		.eabi_attribute 30, 2
  13              		.eabi_attribute 34, 1
  14              		.eabi_attribute 18, 4
  15              		.thumb
  16              		.file	"mpxm2102.c"
  17              		.section	.gnu.lto_.jmpfuncs.3e1530ca02905d8d,"",%progbits
  18 0000 789C6362 		.ascii	"x\234cb`b\300\006\270\24143\003###\023##\220\011\000"
  18      6062C006 
  18      B8A13433 
  18      03232323 
  18      13232390 
  19 0016 01F2001A 		.ascii	"\001\362\000\032"
  20              		.text
  21              		.section	.gnu.lto_.inline.3e1530ca02905d8d,"",%progbits
  22 0000 789C6362 		.ascii	"x\234cb`b\300\006\242\24143\003\003+\013##\003#\204"
  22      6062C006 
  22      A2A13433 
  22      03032B0B 
  22      23230323 
  23 0015 CDC0B640 		.ascii	"\315\300\266@\236\211\201e\201<\013H\222\221\201\225"
  23      9E898165 
  23      813C0B48 
  23      92918195 
  24 0025 1743EEC3 		.ascii	"\027C\356\303jF\260$\023\003\247\024T\222\211\355\300"
  24      6A46B024 
  24      1303A714 
  24      549289ED 
  24      C0
  25 0036 6E468834 		.ascii	"nF\2104H)\017P\347\004?\006\0007\031\007\345"
  25      48290F50 
  25      E7043F06 
  25      00371907 
  25      E5
  26              		.text
  27              		.section	.gnu.lto_.pureconst.3e1530ca02905d8d,"",%progbits
  28 0000 789C6362 		.ascii	"x\234cb`b`g\200\000f\006\006F\006&\011\000\000\371\000"
  28      60626067 
  28      80006606 
  28      06460626 
  28      090000F9 
  29 0015 2A       		.ascii	"*"
  30              		.text
  31              		.section	.gnu.lto_mpxmRawtoV.3e1530ca02905d8d,"",%progbits
  32 0000 789C6362 		.ascii	"x\234cb`b@\007\222@\274\017\210E\201\230\221\231\201"
  32      60624007 
  32      9240BC0F 
ARM GAS  /tmp/ccCpdpMR.s 			page 2


  32      88458198 
  32      919981
  33 0013 9169C239 		.ascii	"\221i\3029\006\206F\016&FF\020\203\201\221\241\236\211"
  33      0686460E 
  33      26464610 
  33      838191A1 
  33      9E89
  34 0025 B13E9211 		.ascii	"\261>\222\021\254v=\323\201\007\377\377\257\333\323"
  34      AC763DD3 
  34      8107FFFF 
  34      AFDBD3
  35 0034 7288898D 		.ascii	"r\210\211\215\2211\227\021h\\&#\0033\220`d\001\021@"
  35      91319711 
  35      685C2623 
  35      03339060 
  35      64011140 
  36 0048 25AC0C2D 		.ascii	"%\254\014-\015\015\023\024\030\030\222\301ZB\200$\310"
  36      0D0D1314 
  36      181892C1 
  36      5A428024 
  36      C8
  37 0059 9C504626 		.ascii	"\234PF&\020\315|\226\241\351]\363\377\027\214\211\214"
  37      10CD7C96 
  37      A1E95DF3 
  37      FF178C89 
  37      8C
  38 006a 0B195919 		.ascii	"\013\031Y\031\322\031\231\322A\272\200\242+\230aB\314"
  38      D21999D2 
  38      41BA80A2 
  38      2B986142 
  38      CC
  39 007b 40519050 		.ascii	"@Q\220PsW3\027L\214\005(,\3050\263\241\243a\302\206"
  39      73573317 
  39      4C8C0528 
  39      2CC530B3 
  39      A1A361C2 
  40 0090 FFFFFF03 		.ascii	"\377\377\377\003\2654\200\300\20333/3B\354\275\310\000"
  40      B53480C0 
  40      8333332F 
  40      3342ECBD 
  40      C800
  41 00a2 379305E2 		.ascii	"7\223\005\342\261\020\2408\320J\220\217\205]\2122\313"
  41      B110A038 
  41      D04A908F 
  41      855D8A32 
  41      CB
  42 00b3 528B8AF5 		.ascii	"R\213\212\365s\013*r\215\014\015\214\364\222\031\000"
  42      730B2A72 
  42      8D0C0D8C 
  42      F4921900 
  43 00c3 F48A39BC 		.ascii	"\364\2129\274"
  44              		.text
  45              		.section	.gnu.lto_mpxmVToPressure.3e1530ca02905d8d,"",%progbits
  46 0000 789C6362 		.ascii	"x\234cb`b@\007\222@\274\013\210E\201\230\221\231\201"
  46      60624007 
  46      9240BC0B 
  46      88458198 
ARM GAS  /tmp/ccCpdpMR.s 			page 3


  46      919981
  47 0013 9169C239 		.ascii	"\221i\3029\006\206F\016&FF\020\203\201\221\241\236\211"
  47      0686460E 
  47      26464610 
  47      838191A1 
  47      9E89
  48 0025 B13E9211 		.ascii	"\261>\222\021\254v=\323\201\007\377\377\257\373\320"
  48      AC763DD3 
  48      8107FFFF 
  48      AFFBD0
  49 0034 72899995 		.ascii	"r\211\231\225\2211\227\021h\\&#\0033\210\000\002V\206"
  49      91319711 
  49      685C2623 
  49      03338800 
  49      025686
  50 0047 96868609 		.ascii	"\226\206\206\011\012\014\014\311`n\010\220\004\031\021"
  50      0A0C0CC9 
  50      606E0890 
  50      041911
  51 0056 CAC804A2 		.ascii	"\312\310\004\242\231\31724\317m~~\2231\221q!#+C:#S:"
  51      99CF3234 
  51      CF6D7E7E 
  51      93319171 
  51      21232B43 
  52 006e 23A314C3 		.ascii	"#\243\024\303\314\206\216\206\011\034\014\014\015 p"
  52      CC868E86 
  52      091C0C0C 
  52      0D2070
  53 007d 60F2C605 		.ascii	"`\362\306\005\214\020\303\200\252\273\232\271`j\231"
  53      8C10C380 
  53      AABB9AB9 
  53      606A99
  54 008c 81CAA16A 		.ascii	"\201\312\241j-`j\237\2359\005U{\221\001n(3\304S!\214"
  54      2D606A9F 
  54      9D390555 
  54      7B91016E 
  54      2833C453 
  55 00a2 8C203B41 		.ascii	"\214 ;A\276\025v)\312,K-*\326\317-\250\3105240\322K"
  55      BE157629 
  55      CA2C4B2D 
  55      2AD6CF2D 
  55      A8C83532 
  56 00ba 66000043 		.ascii	"f\000\000C\027:I"
  56      173A49
  57              		.text
  58              		.section	.gnu.lto_mpxmRawToPressure.3e1530ca02905d8d,"",%progbits
  59 0000 789C5D8F 		.ascii	"x\234]\217\273J\003Q\020\206\347?\233M\326T\202 hc\236"
  59      BB4A0351 
  59      1086E73F 
  59      9B4DD654 
  59      82206863 
  60 0015 C04B2A1F 		.ascii	"\300K*\037\300\316NV\301r]$l\261(\021T\260\310\211G"
  60      C0CE4E56 
  60      C1725D24 
  60      6CB12811 
  60      54B0C889 
  61 002a 21582D2A 		.ascii	"!X-*\210\205\022\021\301*\342\033l\253x\301\322.\004"
ARM GAS  /tmp/ccCpdpMR.s 			page 4


  61      88851211 
  61      C12AE21B 
  61      6CAB78C1 
  61      D22E04
  62 003d D4CE0710 		.ascii	"\324\316\007\020a\235\331Ka\016\234\177\016g\276\231"
  62      619DD94B 
  62      610E9C7F 
  62      0E67BE99 
  63 004d F94791A2 		.ascii	"\371G\221\242\3413\301w\015D5\216\260\010*z!j;\012\220"
  63      E133C177 
  63      0D44358E 
  63      B0082A7A 
  63      216A3B0A 
  64 0062 07815A0A 		.ascii	"\007\201Z\012\255U\244\354\235\212\373I\322;=\034\224"
  64      AD55A4EC 
  64      9D8AFB49 
  64      D23B3D1C 
  64      94
  65 0073 468010DC 		.ascii	"F\200\020\334.\000\331\"e\026TD\034\021\206m:\320:\252"
  65      2E00D922 
  65      65165444 
  65      1C11866D 
  65      3AD03AAA 
  66 0087 4DD1A5EE 		.ascii	"M\321\245\356G\361\331\307\003:\307\3727I,\316+E\343"
  66      47F1D9C7 
  66      033AC7FA 
  66      37492CCE 
  66      2B45E3
  67 009a 201FFF9C 		.ascii	" \037\377\234x\270\306\220\277\214pY\305\3142\2479Z"
  67      78B8C690 
  67      BF8C7059 
  67      C5CC32A7 
  67      395A
  68 00ac CFB4FF6D 		.ascii	"\317\264\377mz\312\303\025lj@5d\336+\225\212\017{\217"
  68      7ACAC315 
  68      6C6A4035 
  68      64DE2B95 
  68      8A0F7B8F 
  69 00c0 7E74478F 		.ascii	"~tG\217\006\260|d3\230\012\2449\227\336\232\001\012"
  69      06B07C64 
  69      33980AA4 
  69      3997DE9A 
  69      010A
  70 00d2 B2CCB07C 		.ascii	"\262\314\260|\232\013\363\365\216\334\2618\221tZVah"
  70      9A0BF3F5 
  70      8EDCB138 
  70      91745A56 
  70      6168
  71 00e4 92CEB95D 		.ascii	"\222\316\271]\344\020i9\361\311}\027\331\216\\yd\252"
  71      E4106939 
  71      F1C97D17 
  71      D98E5C79 
  71      64AA
  72 00f6 1E6ED26E 		.ascii	"\036n\322n\016\3439;_\260\237O\2179\373F\355\356b1\330"
  72      0EE3393B 
  72      5FB09F4F 
  72      8F39FB46 
ARM GAS  /tmp/ccCpdpMR.s 			page 5


  72      EDEE6231 
  73 010b C9F67339 		.ascii	"\311\366s9\303\033\311\326c\013\315`{\275\2715\023n"
  73      C31BC9D6 
  73      630BCD60 
  73      7BBDB935 
  73      136E
  74 011d EE86F5B9 		.ascii	"\356\206\365\271\331\372\264OUy/y;\356\306\312\037E"
  74      D9FAB44F 
  74      55792F79 
  74      3BEEC6CA 
  74      1F45
  75 012f 2960A7   		.ascii	")`\247"
  76              		.text
  77              		.section	.gnu.lto_.symbol_nodes.3e1530ca02905d8d,"",%progbits
  78 0000 789C6362 		.ascii	"x\234cb`bpd\200\002&\206z\006\206\011\347\030\030\352"
  78      60627064 
  78      80022686 
  78      7A068609 
  78      E71818EA 
  79 0014 EBE77530 		.ascii	"\353\347u021\3263\"\361\230\352\231\020<F\346zf\010"
  79      3231D633 
  79      22F198EA 
  79      99103C46 
  79      E67A6608 
  80 0028 AFA18191 		.ascii	"\257\241\201\221\231\211\231a\361\203\177\212\014\000"
  80      99899961 
  80      F1837F8A 
  80      0C00
  81 0036 4EA41266 		.ascii	"N\244\022f"
  82              		.text
  83              		.section	.gnu.lto_.refs.3e1530ca02905d8d,"",%progbits
  84 0000 789C6362 		.ascii	"x\234cb`b`d\200\002\000\000F\000\006"
  84      60626064 
  84      80020000 
  84      460006
  85              		.text
  86              		.section	.gnu.lto_.decls.3e1530ca02905d8d,"",%progbits
  87 0000 789C9D53 		.ascii	"x\234\235S\317k\023A\024~oS$I%*B\321S\203V)\205fm\021"
  87      CF6B1341 
  87      147E6F53 
  87      2449252A 
  87      42D15383 
  88 001a 41042F0A 		.ascii	"A\004/\012\366$*6x\013c\262\322@\223\224\335M\253\267"
  88      F6242A36 
  88      780B63B2 
  88      D2409394 
  88      DD4DABB7 
  89 002e 470FB1E8 		.ascii	"G\017\261\350\241!\240\242\007I\265\241U+)\026\322b"
  89      A121A0A2 
  89      0749B5A1 
  89      552B2916 
  89      D262
  90 0040 8DE618A1 		.ascii	"\215\346\030\241\376\011J@\274\347\017\020\2663\223"
  90      FE094A40 
  90      BCE70F10 
  90      B63393
  91 004f DDFCD824 		.ascii	"\335\374\330$\245\372`\230\2317\337\373\336{\363\315"
ARM GAS  /tmp/ccCpdpMR.s 			page 6


  91      A5FA6098 
  91      9937DFFB 
  91      DE7BF3CD 
  92 005f 28A0C01E 		.ascii	"(\240\300\036\000X\334\316\014\000T\371\232Op\025Z&"
  92      0058DCCE 
  92      0C0054F9 
  92      9A4F7015 
  92      5A26
  93 0071 F62B7C14 		.ascii	"\366+|\024\371(\361\361\031\272M\234+66d\373\320\366"
  93      F928F1F1 
  93      19BA4D9C 
  93      2B363664 
  93      FBD0F6
  94 0084 8B79C385 		.ascii	"\213y\303\205/\332\376v\254\343\333raK6\257\303\275"
  94      2FDAFE76 
  94      ACE3DB72 
  94      614B36AF 
  94      C3BD
  95 0096 CB47D93E 		.ascii	"\313G\331>S\332j\022\261;\256\330axM\233\265Z\341\361"
  95      53DA6A12 
  95      B13BAED8 
  95      61784D9B 
  95      B55AE1F1 
  96 00aa F269CA2F 		.ascii	"\362i\312/V,\353\033\005a\010\236\021\267|\206\010M"
  96      562CEB1B 
  96      0561089E 
  96      11B77C86 
  96      084D
  97 00bc 86213FDC 		.ascii	"\206!?\334C\206\001\037\004\345\342\250O\246\002`\370"
  97      4386011F 
  97      04E5E2A8 
  97      4FA60260 
  97      F8
  98 00cd 0687E4CA 		.ascii	"\006\207\344\312#\023\201\017\226\210\026\21124\272"
  98      2313810F 
  98      96881689 
  98      3234BA
  99 00dc 1E0027EA 		.ascii	"\036\000'\352\270\023%0\347`\225([\373\271\363[!\362"
  99      B8132530 
  99      E7609528 
  99      5BFBB9F3 
  99      5B21F2
 100 00ef 325C45E1 		.ascii	"2\\E\341\277\2020\006\357x\316,\217?\213=.\360\360\324"
 100      BF823006 
 100      EF78CE2C 
 100      8F3F8B3D 
 100      2EF0F0D4 
 101 0103 DB99B5CB 		.ascii	"\333\231\265\313\222z]R\023\"/t\015\307l\"\206\036_"
 101      927A5D52 
 101      13222F74 
 101      0DC76C22 
 101      861E5F
 102 0116 3BB1DC3B 		.ascii	";\261\334;\000\301&\217\355\205ey\340\337\300\014\247"
 102      00C1268F 
 102      ED856579 
 102      E0DFC00C 
 102      A7
ARM GAS  /tmp/ccCpdpMR.s 			page 7


 103 0127 5B210A3C 		.ascii	"[!\012<ue\037\201\267D9~\337\205S\224G\247\375\347\022"
 103      75651F81 
 103      B744397E 
 103      DF855394 
 103      47A7FDE7 
 104 013c B582C33D 		.ascii	"\265\202\303=\373j\240\270\235\207\202\320\245\274w"
 104      FB6AA0B8 
 104      9D8782D0 
 104      A5BC77
 105 014b 7B4AAA02 		.ascii	"{J\252\002\235A.u\344\361\007T\334r\327\353\225_\261"
 105      9D412E75 
 105      E4F10754 
 105      DC72D7EB 
 105      955FB1
 106 015e 2AD52D6B 		.ascii	"*\325-k9\357=\274\324\233\235RK\254\253\331W\275\232"
 106      39EF3DBC 
 106      D49B9D52 
 106      4BACABD9 
 106      57BD9A
 107 0171 CDD2CB1F 		.ascii	"\315\322\313\037\330\250W\201\367\022Q\354S\263\335"
 107      D8A85781 
 107      F71251EC 
 107      53B3DD
 108 0180 54CF3EFB 		.ascii	"T\317>\373\305\330\325}\352\3563_\253\344\264F\237\342"
 108      C5D8D57D 
 108      EAEE335F 
 108      ABE4B446 
 108      9FE2
 109 0192 3588A7AA 		.ascii	"5\210\247\252\300FO=h\213\2156n\231\341G\316\304\260"
 109      C0464F3D 
 109      688B8D36 
 109      6E99E147 
 109      CEC4B0
 110 01a5 F43F5A94 		.ascii	"\364?Z\224\016\256q\273\273\306Z\266\362\342\317w\\"
 110      0EAE71BB 
 110      BBC65AB6 
 110      F2E2CF77 
 110      5C
 111 01b6 CAD15FF1 		.ascii	"\312\321_\361z\\j\014\370\372\252\261k\253\321\274\373"
 111      7A5C6A0C 
 111      F8FAAAB1 
 111      6BABD1BC 
 111      FB
 112 01c7 AFE8FE35 		.ascii	"\257\350\3765\014\277t&\034\204'\342\013q\366\251j\240"
 112      0CBF7426 
 112      1C8427E2 
 112      0B71F6A9 
 112      6AA0
 113 01d9 41D18FBE 		.ascii	"A\321\217\276\214\203\315\260\223\327\365\370\274\246"
 113      8C83CDB0 
 113      93D7F5F8 
 113      BCA6
 114 01e7 1B6A62EE 		.ascii	"\033jb\356abr\342\302d(\012#j\332\320U\246'\306\223"
 114      616272E2 
 114      C264280A 
 114      236ADAD0 
 114      55A627C6 
ARM GAS  /tmp/ccCpdpMR.s 			page 8


 115 01fc A9A436AE 		.ascii	"\251\2446\256\261\373q5\236\214\316\246c\232j\230\261"
 115      B1FB7135 
 115      9E8CCEA6 
 115      639A6A98 
 115      B1
 116 020d 78D20CCD 		.ascii	"x\322\014\315\2007\315\347\211K\021\363\310\215\233"
 116      8037CDE7 
 116      894B11F3 
 116      C88D9B
 117 021c D3C16B70 		.ascii	"\323\301kp\361\200\240\004\213\316\304\223\232\032\211"
 117      F180A004 
 117      8BCEC493 
 117      9A1A89
 118 022b 690F587A 		.ascii	"i\017Xz\326\214\230\217\3464\203\223\370#\021\207\306"
 118      D68C988F 
 118      E6348393 
 118      F8231187 
 118      C6
 119 023c 2F0AB8C3 		.ascii	"/\012\270\303\026\314T\330\243\263\205cb\033\276\233"
 119      16CC54D8 
 119      A3B38563 
 119      621BBE9B 
 120 024c BAA56B86 		.ascii	"\272\245k\206\221\3265\234?a\003Z>\177\323\023\336\007"
 120      91D6359C 
 120      3F61035A 
 120      3E7FD313 
 120      DE07
 121 025e 6CD71A36 		.ascii	"l\327\0326"
 122              		.text
 123              		.section	.gnu.lto_.symtab.3e1530ca02905d8d,"",%progbits
 124 0000 6D70786D 		.ascii	"mpxmRawtoV\000\000\000\000\000\000\000\000\000\000\000"
 124      52617774 
 124      6F560000 
 124      00000000 
 124      00000000 
 125 0015 00A10000 		.ascii	"\000\241\000\000\000mpxmVToPressure\000\000\000\000"
 125      006D7078 
 125      6D56546F 
 125      50726573 
 125      73757265 
 126 002d 00000000 		.ascii	"\000\000\000\000\000\000\000\000\257\000\000\000mpx"
 126      00000000 
 126      AF000000 
 126      6D7078
 127 003c 6D526177 		.ascii	"mRawToPressure\000\000\000\000\000\000\000\000\000\000"
 127      546F5072 
 127      65737375 
 127      72650000 
 127      00000000 
 128 0054 0000B600 		.ascii	"\000\000\266\000\000\000mpxmRawToV\000\000\002\000\000"
 128      00006D70 
 128      786D5261 
 128      77546F56 
 128      00000200 
 129 0069 00000000 		.ascii	"\000\000\000\000\000\000\000\272\000\000\000"
 129      000000BA 
 129      000000
ARM GAS  /tmp/ccCpdpMR.s 			page 9


 130              		.text
 131              		.section	.gnu.lto_.opts,"",%progbits
 132 0000 272D6D63 		.ascii	"'-mcpu=cortex-m4' '-mfloat-abi=hard' '-mfpu=fpv4-sp"
 132      70753D63 
 132      6F727465 
 132      782D6D34 
 132      2720272D 
 133 0033 2D643136 		.ascii	"-d16' '-mno-thumb-interwork' '-mthumb' '-O2' '-fomi"
 133      2720272D 
 133      6D6E6F2D 
 133      7468756D 
 133      622D696E 
 134 0066 742D6672 		.ascii	"t-frame-pointer' '-falign-functions=16' '-ffunction"
 134      616D652D 
 134      706F696E 
 134      74657227 
 134      20272D66 
 135 0099 2D736563 		.ascii	"-sections' '-fdata-sections' '-fno-common' '-flto' "
 135      74696F6E 
 135      73272027 
 135      2D666461 
 135      74612D73 
 136 00cc 272D6673 		.ascii	"'-fsingle-precision-constant'\000"
 136      696E676C 
 136      652D7072 
 136      65636973 
 136      696F6E2D 
 137              		.text
 138              		.section	.text.mpxmRawtoV,"ax",%progbits
 139              		.align	2
 140              		.p2align 4,,15
 141              		.global	mpxmRawtoV
 142              		.thumb
 143              		.thumb_func
 144              		.type	mpxmRawtoV, %function
 145              	mpxmRawtoV:
 146              		@ args = 0, pretend = 0, frame = 0
 147              		@ frame_needed = 0, uses_anonymous_args = 0
 148              		@ link register save eliminated.
 149 0000 07EE900A 		fmsr	s15, r0	@ int
 150 0004 B8EEE70A 		fsitos	s0, s15
 151 0008 DFED027A 		flds	s15, .L2
 152 000c 20EE270A 		fmuls	s0, s0, s15
 153 0010 7047     		bx	lr
 154              	.L3:
 155 0012 00BF     		.align	2
 156              	.L2:
 157 0014 3333533A 		.word	978531123
 158              		.size	mpxmRawtoV, .-mpxmRawtoV
 159 0018 AFF30080 		.section	.text.mpxmVToPressure,"ax",%progbits
 159      AFF30080 
 160              		.align	2
 161              		.p2align 4,,15
 162              		.global	mpxmVToPressure
 163              		.thumb
 164              		.thumb_func
 165              		.type	mpxmVToPressure, %function
ARM GAS  /tmp/ccCpdpMR.s 			page 10


 166              	mpxmVToPressure:
 167              		@ args = 0, pretend = 0, frame = 0
 168              		@ frame_needed = 0, uses_anonymous_args = 0
 169              		@ link register save eliminated.
 170 0000 9FED047A 		flds	s14, .L5
 171 0004 DFED047A 		flds	s15, .L5+4
 172 0008 80EE070A 		fdivs	s0, s0, s14
 173 000c 20EE270A 		fmuls	s0, s0, s15
 174 0010 7047     		bx	lr
 175              	.L6:
 176 0012 00BF     		.align	2
 177              	.L5:
 178 0014 4E62A03F 		.word	1067475534
 179 0018 9A99CA42 		.word	1120573850
 180              		.size	mpxmVToPressure, .-mpxmVToPressure
 181 001c AFF30080 		.section	.text.mpxmRawToPressure,"ax",%progbits
 182              		.align	2
 183              		.p2align 4,,15
 184              		.global	mpxmRawToPressure
 185              		.thumb
 186              		.thumb_func
 187              		.type	mpxmRawToPressure, %function
 188              	mpxmRawToPressure:
 189              		@ args = 0, pretend = 0, frame = 0
 190              		@ frame_needed = 0, uses_anonymous_args = 0
 191 0000 08B5     		push	{r3, lr}
 192 0002 FFF7FEFF 		bl	mpxmRawToV
 193 0006 06EE900A 		fmsr	s13, r0	@ int
 194 000a 9FED057A 		flds	s14, .L8
 195 000e DFED057A 		flds	s15, .L8+4
 196 0012 B8EEE60A 		fsitos	s0, s13
 197 0016 80EE070A 		fdivs	s0, s0, s14
 198 001a 20EE270A 		fmuls	s0, s0, s15
 199 001e 08BD     		pop	{r3, pc}
 200              	.L9:
 201              		.align	2
 202              	.L8:
 203 0020 4E62A03F 		.word	1067475534
 204 0024 9A99CA42 		.word	1120573850
 205              		.size	mpxmRawToPressure, .-mpxmRawToPressure
 206              		.comm	__gnu_lto_v1,1,1
 207 0028 AFF30080 		.ident	"GCC: (GNU Tools for ARM Embedded Processors) 4.8.4 20140526 (release) [ARM/embedded-4_8-br
 207      AFF30080 
ARM GAS  /tmp/ccCpdpMR.s 			page 11

