ARM GAS  /tmp/cc0VoMkl.s 			page 1


   1              		.syntax unified
   2              		.cpu cortex-m4
   3              		.eabi_attribute 27, 3
   4              		.eabi_attribute 28, 1
   5              		.fpu fpv4-sp-d16
   6              		.eabi_attribute 20, 1
   7              		.eabi_attribute 21, 1
   8              		.eabi_attribute 23, 3
   9              		.eabi_attribute 24, 1
  10              		.eabi_attribute 25, 1
  11              		.eabi_attribute 26, 1
  12              		.eabi_attribute 30, 2
  13              		.eabi_attribute 34, 1
  14              		.eabi_attribute 18, 4
  15              		.thumb
  16              		.file	"ms5607.c"
  17              		.section	.gnu.lto_.jmpfuncs.23c9c213ab130717,"",%progbits
  18 0000 789CAD8D 		.ascii	"x\234\255\215\301\015\2000\014\003\355\244(+2\000\237"
  18      C10D8030 
  18      0C03EDA4 
  18      282B3200 
  18      9F
  19 0011 2ED019D9 		.ascii	".\320\031\331\012\222\206H<\350\217|l\311\366E \370"
  19      0A928648 
  19      3CE88F7C 
  19      6CC9F645 
  19      20F8
  20 0023 BAEBD106 		.ascii	"\272\353\321\006\323\206\316\360\262\263\223,\343C\253"
  20      D386CEF0 
  20      B2B3932C 
  20      E343AB
  21 0032 48010E86 		.ascii	"H\001\016\206\310\310\341\354\310\231C\225,2\213\336"
  21      C8C8E1EC 
  21      C8994395 
  21      2C328BDE 
  22 0042 E78A1A3F 		.ascii	"\347\212\032?m\253\360\025\227\015B\302\017\347\254"
  22      6DABF015 
  22      970D42C2 
  22      0FE7AC
  23 0051 297F3070 		.ascii	")\1770p\003\365\212\023a"
  23      03F58A13 
  23      61
  24              		.text
  25              		.section	.gnu.lto_.inline.23c9c213ab130717,"",%progbits
  26 0000 789C7D4E 		.ascii	"x\234}N!\016\0021\020\234\335\366\332\302\301\301\201"
  26      210E0231 
  26      109CDDF6 
  26      DAC2C1C1 
  26      81
  27 0011 260848F8 		.ascii	"&\010H\370\015\032\201$\001~\201\"'\020(4\317 \341\003"
  27      0D1A8124 
  27      017E8122 
  27      27102834 
  27      CF20E103 
  28 0025 C8D30483 		.ascii	"\310\323\004\203#|\001\303\266MO\021\332t\332\235\235"
  28      237C01C3 
  28      B64D4F11 
ARM GAS  /tmp/cc0VoMkl.s 			page 2


  28      DA74DA9D 
  28      9D
  29 0036 992E83F1 		.ascii	"\231.\203\361k\215(\336\032\371\344DD\3605O\037o\203"
  29      6B8D28DE 
  29      1AF9E444 
  29      44F0354F 
  29      1F6F83
  30 0049 F6E54AC1 		.ascii	"\366\345J\301\244\273\004U\367\000W\002\3668O[\2040"
  30      A4BB0455 
  30      F7005702 
  30      F6384F5B 
  30      8430
  31 005b 45F2C831 		.ascii	"E\362\3101\347q0\250\216\324^\241\320*S\237^\026\266"
  31      E77130A8 
  31      8ED45EA1 
  31      D02A539F 
  31      5E16B6
  32 006e 9A054156 		.ascii	"\232\005AV\210\310\007hs\307\007di\263\240-)i\321:\275"
  32      88C80768 
  32      73C70764 
  32      69B3A02D 
  32      2969D13A 
  33 0083 B8E1B8E1 		.ascii	"\270\341\270\341B\024\305<\001\267<<\025\006\365\212"
  33      4214C53C 
  33      01B73C3C 
  33      1506F58A 
  34 0093 A1ABE14E 		.ascii	"\241\253\341N~\332k\315\001\003\301\340\233\353G\364"
  34      7EDA6BCD 
  34      0103C1E0 
  34      9BEB47F4 
  35 00a3 6E2B98C5 		.ascii	"n+\230\305\321\301\271Ok&\371\323\302\027\011\276#\330"
  35      D1C1B94F 
  35      6B26F9D3 
  35      C21709BE 
  35      23D8
  36              		.text
  37              		.section	.gnu.lto_.pureconst.23c9c213ab130717,"",%progbits
  38 0000 789C6362 		.ascii	"x\234cb`b\340d\200\000\026\006)&\011f)\026)\000\002"
  38      6062E064 
  38      80001606 
  38      29260966 
  38      29162900 
  39 0015 D80081   		.ascii	"\330\000\201"
  40              		.text
  41              		.section	.gnu.lto_ms5607_init.23c9c213ab130717,"",%progbits
  42 0000 789C8D54 		.ascii	"x\234\215TMHTQ\024>\347\275y\343\233?\307\251\031GG"
  42      4D485451 
  42      143EE7BD 
  42      79E39B3F 
  42      C7A91947 
  43 0015 2C71D322 		.ascii	",q\323\"5\313~6\011AmZ\264J\311 \212i\220\341-\306\300"
  43      35CB7E36 
  43      09416D5A 
  43      B44AC920 
  43      8A6990E1 
  44 002c A91609CD 		.ascii	"\251\026\011\315\035\307d\010\304!\010\304\010\224("
  44      1DC76408 
ARM GAS  /tmp/cc0VoMkl.s 			page 3


  44      C42108C4 
  44      089428
  45 003b 2D2CFBD9 		.ascii	"-,\373\331\270\011\306V\026\330\337\316r1m\332\004\021"
  45      B809C656 
  45      16D8DFCE 
  45      72316DDA 
  45      0411
  46 004d 141852BD 		.ascii	"\024\030R\275\316}\367\335qf\232\320\013s\356\337\371"
  46      CE7DF7DD 
  46      71669AD0 
  46      0B73EEDF 
  46      F9
  47 005e BEF39D73 		.ascii	"\276\363\235s\356<\005\024\250\034\335\364;\353\004"
  47      EE3C0514 
  47      A81CDDF4 
  47      3BEB04
  48 006d 384C333A 		.ascii	"8L3:\001\225\334k\200\264\256\240C,T\261X\324\035\212"
  48      0195DC6B 
  48      80B4AEA0 
  48      432C54B1 
  48      58D41D8A 
  49 0081 3AB608C0 		.ascii	":\266\010\300\334Z\306\007\314\253!\362s@H)\252C\303"
  49      DC5AC607 
  49      CCAB21F2 
  49      73404829 
  49      AA43C3
  50 0094 D469E474 		.ascii	"\324i\344t\216V\230f\354F\341\332\370X\370z\201\345"
  50      8E569866 
  50      EC46E1DA 
  50      F858F87A 
  50      81E5
  51 00a6 D81FD344 		.ascii	"\330\037\323D\003)p\020!\206\320G\033\324\255I\301r"
  51      03297010 
  51      2186D047 
  51      1BD4AD49 
  51      C172
  52 00b8 2502C91E 		.ascii	"%\002\311\036\315\016\253S\354\227i\252\026\254\245"
  52      CD0EAB53 
  52      EC9769AA 
  52      16ACA5
  53 00c7 2A2C81E5 		.ascii	"*,\201\345\270|.\277v&\227\3162\323L\031\250*\320\266"
  53      B87C2EBF 
  53      762697CE 
  53      32D34C19 
  53      A82AD0B6 
  54 00db 01EB1330 		.ascii	"\001\353\0230O\265h\371\337?\026\220\215\262\3647\323"
  54      4FB568F9 
  54      DF3F1690 
  54      8DB2F437 
  54      D3
  55 00ec F41BE850 		.ascii	"\364\033\350P`\357f2\347\225|\3014\347fr\273v\"Dq\006"
  55      60EF6632 
  55      E7957CC1 
  55      34E76672 
  55      BB762244 
  56 0102 5B41A379 		.ascii	"[A\243y\232f'\315wh\326\301@\315\215\011D\017\255\234"
  56      9A6627CD 
ARM GAS  /tmp/cc0VoMkl.s 			page 4


  56      7768D6C1 
  56      40CD8D09 
  56      440FAD9C 
  57 0116 5E32353E 		.ascii	"^25>2z-\235)~2j\200\266\020$\343\012qS\317\267a2\356"
  57      327A2D9D 
  57      297E326A 
  57      80B61024 
  57      E30A7153 
  58 012f 066E1AF9 		.ascii	"\006n\032\3716\302WM\3344\333qhh0\302X\256%\212wi/O"
  58      36C2574D 
  58      DC34DB71 
  58      686830C2 
  58      58AE258A 
  59 0147 6396C41E 		.ascii	"c\226\304\036\262\324\232^ThR\227a\370\371\317\327j"
  59      B2D49A5E 
  59      54685297 
  59      61F8F9CF 
  59      D76A
  60 0159 14EF2397 		.ascii	"\024\357#\227\307\335w@\327m6q\204\352C\336t\377rb\334"
  60      C7DD7740 
  60      D76D3671 
  60      84EA43DE 
  60      74FF7262 
  61 016e 27EEE3A8 		.ascii	"'\356\343\250\335\202\3114cuT\203!XgY\276\362\210*\363"
  61      DD82C934 
  61      63755483 
  61      21586759 
  61      BEF2882A 
  62 0183 22C8E22D 		.ascii	"\"\310\342-C&\253J\214\223`\374\322\201\202\357\270"
  62      4326AB4A 
  62      8C9360FC 
  62      D28182EF 
  62      B8
  63 0194 B8D80A13 		.ascii	"\270\330\012\023\201+\310t\233L\353,#k\2079F\303G\027"
  63      812BC874 
  63      9B4CEB2C 
  63      236B8739 
  63      46C34717 
  64 01a8 2209EEE3 		.ascii	"\"\011\356\343\252\221\315 \234\345\275\236Y[Q$\225"
  64      AA91CD20 
  64      9CE5BD9E 
  64      595B5124 
  64      95
  65 01b9 6708AE50 		.ascii	"g\010\256P\331w\303\003\016=g\240\227$\021\314\027G"
  65      D977C303 
  65      0E3D67A0 
  65      972411CC 
  65      1747
  66 01cb 3787D75A 		.ascii	"7\207\327Z\320\363\245}\265(\236\026\305x-\206\032\233"
  66      D0F3A57D 
  66      B5289E16 
  66      C5782D86 
  66      1A9B
  67 01dd E12361FC 		.ascii	"\341#a\374\325)\260\202\342\236WR\370,\012\335\246\270"
  67      D529B082 
  67      E29E5752 
  67      F82C0ADD 
ARM GAS  /tmp/cc0VoMkl.s 			page 5


  67      A6B8
  68 01ef E934B0AE 		.ascii	"\3514\260\256:E\311_\362\015L\262\005M0\000\024\253"
  68      3A45C95F 
  68      F20D4CB2 
  68      054D3000 
  68      14AB
  69 0201 1788D971 		.ascii	"\027\210\331q(\2658\326\306\321O\012)\002g\331\266\204"
  69      28B538D6 
  69      C6D14F0A 
  69      290267D9 
  69      B684
  70 0213 96238DEF 		.ascii	"\226#\215\357\024c\273|\030\026\205\201AA\334K-\247"
  70      1463BB7C 
  70      18168581 
  70      4141DC4B 
  70      2DA7
  71 0225 3FAFCA2B 		.ascii	"?\257\312+\236\231y_\254T N\177\017\336\301\251\362"
  71      9E99795F 
  71      AC54204E 
  71      7F0FDEC1 
  71      A9F2
  72 0237 16DA55EF 		.ascii	"\026\332U\357\246\033;\001\327&%\260\332RL\204\230y"
  72      A61B3B01 
  72      D72625B0 
  72      DA524C84 
  72      9879
  73 0249 36A38557 		.ascii	"6\243\205W\203\377d\023\212\331)S6\366\353\261&\205"
  73      83FF6413 
  73      8AD92953 
  73      36F6EBB1 
  73      2685
  74 025b E4D65B22 		.ascii	"\344\326[\"\276f\346?\240\224\030\214\363\010eO%D\247"
  74      BE66E63F 
  74      A094188C 
  74      F308654F 
  74      2544A7
  75 026e 563C530E 		.ascii	"V<S\016LY\300\325\307~\351S\337\016m\033\352OmR\375"
  75      4C59C0D5 
  75      C77EE953 
  75      DF0E6D1B 
  75      EA4F6D52 
  76 0283 72F5B688 		.ascii	"r\365\266\210\253\222+\034\027\3022\017\213\022\032"
  76      AB922B1C 
  76      17C2320F 
  76      8B121A
  77 0292 E89483C2 		.ascii	"\350\224\203\302\272\360^}\033\221W\215e\221\237\340"
  77      BAF05E7D 
  77      1B91578D 
  77      65919FE0 
  78 02a2 5642E3FF 		.ascii	"VB\343\377BG\210\257\"\373&+z\244J\273\272H\317F\273"
  78      424788AF 
  78      22FB262B 
  78      7AA44ABB 
  78      BA48CF46 
  79 02b7 1AAA4755 		.ascii	"\032\252GU\355\332\207\212\255j\022\0012\346\247\342"
  79      EDDA878A 
  79      AD6A1201 
ARM GAS  /tmp/cc0VoMkl.s 			page 6


  79      32E6A7E2 
  80 02c7 BB6896EF 		.ascii	"\273h\226\357B\012\353E\007\320\347^]\202\221\317i\217"
  80      420AEB45 
  80      07D0E75E 
  80      5D8291CF 
  80      698F
  81 02d9 74133E5A 		.ascii	"t\023>ZQ\373\012H\2242\253\022\213\272\244q\250&\276"
  81      51FB0A48 
  81      9432AB12 
  81      8BBAA471 
  81      A826BE
  82 02ec 472FBE28 		.ascii	"G/\276(\245_\243\375\360\214eQ|\214\336A\272\260\354"
  82      A55FA3FD 
  82      F08C6551 
  82      7C8CDE41 
  82      BAB0EC
  83 02ff 16B79CA1 		.ascii	"\026\267\234\241Q2\366P\3633>^\251\300\261A\343r\377"
  83      5132F650 
  83      F3333E5E 
  83      A9C0B141 
  83      E372FF
  84 0312 60724F22 		.ascii	"`rO\"y\340`\347\241\216\030x\222\375\003\311\243\027"
  84      79E060E7 
  84      A18E1878 
  84      92FD03C9 
  84      A317
  85 0324 2E0D5CEC 		.ascii	".\015\\\354\350,Y\357s\014D\023\375h\270N\234\344\216"
  85      E82C59EF 
  85      730C4413 
  85      FD68B84E 
  85      9CE48E
  86 0337 ED7DF017 		.ascii	"\355}\360\027[Em\030"
  86      5B456D18 
  87              		.text
  88              		.section	.gnu.lto_ms5607_stop.23c9c213ab130717,"",%progbits
  89 0000 789C6362 		.ascii	"x\234cb`b@\007\222@|\005\210\205\201\230\221\231\201"
  89      60624007 
  89      92407C05 
  89      88858198 
  89      919981
  90 0013 9169C239 		.ascii	"\221i\3029\006\206F\016&FF\020\203\201\221\241\236\211"
  90      0686460E 
  90      26464610 
  90      838191A1 
  90      9E89
  91 0025 B13E9211 		.ascii	"\261>\222\021\254v=\323\201\007\377\377\257\333\321"
  91      AC763DD3 
  91      8107FFFF 
  91      AFDBD1
  92 0034 FA8B958D 		.ascii	"\372\213\225\215\2211\227\021h\\&#\003\013\220\005\222"
  92      91319711 
  92      685C2623 
  92      030B9005 
  92      92
  93 0045 67656869 		.ascii	"gehih\230\240\300\300\220\014V\035\002$AF\20422\201"
  93      6898A0C0 
  93      C0900C56 
ARM GAS  /tmp/cc0VoMkl.s 			page 7


  93      1D022441 
  93      46843232 
  94 005a 68E6B30C 		.ascii	"h\346\263\014M\277\232\277\337bJd\\\310\310\312\220"
  94      4DBF9ABF 
  94      DF624A64 
  94      5CC8C8CA 
  94      90
  95 006b CEC854CD 		.ascii	"\316\310T\315P\005\324\255\315\260\252\001\010b3\031"
  95      5005D4AD 
  95      CDB0AA01 
  95      08623319 
  96 007b 196733CC 		.ascii	"\031g3\314b\314ddJgd\214\000\322\314`+\223\030\221\334"
  96      62CC6464 
  96      4A67648C 
  96      00D2CC60 
  96      2B931891 
  97 0090 7A9EA1F5 		.ascii	"z\236\241\365\2006D?\003C5\303\257\206\216\006\201L"
  97      8036443F 
  97      034335C3 
  97      AF868E06 
  97      814C
  98 00a2 46966446 		.ascii	"F\226dF\210\242t\220^\226L\220\354E\206\306\007\367"
  98      88A27490 
  98      5E964C90 
  98      EC4586C6 
  98      07F7
  99 00b4 B8204A41 		.ascii	"\270 JA\206\261\301\214\010\001\252\005\272\006\024"
  99      86B1C18C 
  99      0801AA05 
  99      BA0614
 100 00c3 0E822E45 		.ascii	"\016\202.E\231e\251E\305\372\271\305\246f\006\346z\311"
 100      9965A945 
 100      C5FAB9C5 
 100      A66606E6 
 100      7AC9
 101 00d5 0C00EEED 		.ascii	"\014\000\356\3556\374"
 101      36FC
 102              		.text
 103              		.section	.gnu.lto_ms5607_reset.23c9c213ab130717,"",%progbits
 104 0000 789C6362 		.ascii	"x\234cb`b@\007\222@l\300\310\300 \014\244\031\231\031"
 104      60624007 
 104      92406CC0 
 104      C8C0200C 
 104      A4199919 
 105 0014 1899269C 		.ascii	"\030\231&\234c`h\344`bd\0041\030\030\031\352\231\030"
 105      636068E4 
 105      60626404 
 105      31181819 
 105      EA9918
 106 0027 EB2319C1 		.ascii	"\353#\031\301j\3273\035x\360\377\377\272{\255\227\330"
 106      6AD7331D 
 106      78F0FFFF 
 106      BA7BAD97 
 106      D8
 107 0038 D9991873 		.ascii	"\331\231\030s\031\031X\0302\031\031\330\200\004H\236"
 107      19195818 
 107      321919D8 
ARM GAS  /tmp/cc0VoMkl.s 			page 8


 107      8004489E 
 108 0048 95A1A5A1 		.ascii	"\225\241\245\241a\202\002\003C2Xu\010\220\004\031\021"
 108      61820203 
 108      43325875 
 108      08900419 
 108      11
 109 0059 CAC804A2 		.ascii	"\312\310\004\242\231\31724\355\2301O,\221q!#+\203.\303"
 109      99CF3234 
 109      ED98314F 
 109      2C917121 
 109      232B832E 
 110 006e 9A062008 		.ascii	"\232\006 \010\314dd\322fX\005b\362f22\317f\230\305\230"
 110      CC6464D2 
 110      66580562 
 110      F2663232 
 110      CF6698C5 
 111 0083 C9C892CE 		.ascii	"\311\310\222\316\310\024\001\244Y\301v&A\254f\000\211"
 111      C81401A4 
 111      59C17626 
 111      41AC6600 
 111      89
 112 0094 B0C15D0D 		.ascii	"\260\301]\015\3421\311\001\031@S\1775?\277\314\0021"
 112      E231C901 
 112      1940537F 
 112      353FBFCC 
 112      0231
 113 00a6 369D91A5 		.ascii	"6\235\221\245\232\241\012\350&\250\241\263\201\312\330"
 113      9AA10AE8 
 113      26A8A1B3 
 113      81CAD8
 114 00b5 B19BCA88 		.ascii	"\261\233\312\210\010\202\363\014m\007Xa\006\260U3\374"
 114      0882F30C 
 114      6D075861 
 114      06B05533 
 114      FC
 115 00c6 6AE86810 		.ascii	"j\350h\020\310d\344H\206*\002\232\012\266\217\021b-"
 115      C864E448 
 115      862A029A 
 115      0AB68F11 
 115      622D
 116 00d8 03D0BF9C 		.ascii	"\003\320\277\234\014\014\027\031\030\341z \346\204\000"
 116      0C0C1719 
 116      18E17A20 
 116      E68400
 117 00e7 D5037D0A 		.ascii	"\325\003}\012\012cA\227\242\314\262\324\242b\375\334"
 117      0A634197 
 117      A2CCB2D4 
 117      A262FDDC 
 118 00f7 62533303 		.ascii	"bS3\003s\275d\006\000 \264E\207"
 118      73BD6406 
 118      0020B445 
 118      87
 119              		.text
 120              		.section	.gnu.lto_ms5607_readPressureTemperature.23c9c213ab130717,"",%progbits
 121 0000 789CAD58 		.ascii	"x\234\255XkL\024W\024\276wf\366\301S\020+/A\304\027"
 121      6B4C1457 
 121      14BE7766 
ARM GAS  /tmp/cc0VoMkl.s 			page 9


 121      F6C15310 
 121      2B2F41C4 
 122 0015 82B03E41 		.ascii	"\202\260>A\305\007*\342\333H\004bM\377\254\210\270M"
 122      C5072AE2 
 122      DB480462 
 122      4DFFAC88 
 122      B84D
 123 0027 B486C536 		.ascii	"\264\206\3056\251i\034\\b\250\321\270\177\232P\333\244"
 123      A9691C5C 
 123      62A8D1B8 
 123      7F9A50DB 
 123      A4
 124 0038 126AD5FA 		.ascii	"\022j\325\372\252\245\032\333\264\351j\032\252I\037"
 124      AAA51ADB 
 124      B4E96A1A 
 124      AA491F
 125 0047 DAFA831A 		.ascii	"\332\372\203\032\322\220\230\324V\032%\232\232\015m"
 125      D29098D4 
 125      561A259A 
 125      9A0D6D
 126 0056 DC9E73E7 		.ascii	"\334\236s\347\336\273\314\354\032\246\215\233pv\356"
 126      DEBBCCEC 
 126      1AA68D9B 
 126      7076EE
 127 0065 77CEF9CE 		.ascii	"w\316\371\316\353\336\235\031\024\242\020\353\347\025"
 127      EBDE9D19 
 127      14A210EB 
 127      E715
 128 0073 F8FB298D 		.ascii	"\370\373)\215\220Z\370\246nB\225\340\017\204\264\271"
 128      905AF8A6 
 128      6E4295E0 
 128      0F84B4B9 
 129 0083 1545BDE3 		.ascii	"\025E\275\343!z\242\353\313|\242'\253\212\366\331u\002"
 129      217AA2EB 
 129      CB7CA227 
 129      AB8AF6D9 
 129      7502
 130 0095 4B477F12 		.ascii	"KG\177\022,5\3520\254\034\212\363x/\342\256\247.\300"
 130      2C35EA30 
 130      AC1C8AF3 
 130      782FE2AE 
 130      A72EC0
 131 00a8 9DD465E0 		.ascii	"\235\324e\340.J\361\202Pr@Q5\207\323E\017\274L1Zb!\351"
 131      2E4AF182 
 131      50724051 
 131      3587D345 
 131      0FBC4C31 
 132 00c0 D243C181 		.ascii	"\322C\301\201\223\367~\247mz\250\375\204\376O$B\251"
 132      93F77EA7 
 132      6D7AA8FD 
 132      84FE4F24 
 132      42A9
 133 00d2 8F4266E3 		.ascii	"\217Bf\343(i\244d+,h\026\373RTs\252\206o\350\375\232"
 133      2869A464 
 133      2B2C6816 
 133      FB525473 
 133      AA866FE8 
ARM GAS  /tmp/cc0VoMkl.s 			page 10


 134 00e8 605B871E 		.ascii	"`[\207\036\211\034`^\223\354x\351\301PO\357\321l\375"
 134      891C605E 
 134      93EC78E9 
 134      C1504FEF 
 134      D16CFD
 135 00fb C4C1A0FE 		.ascii	"\304\301\240\376\014\002\372\250\252\220\342\250g\201"
 135      0C02FAA8 
 135      AA90E2A8 
 135      6781
 136 0109 E1A9C5F5 		.ascii	"\341\251\305\365\354\357M\226\0015\205\314\266\351\366"
 136      ECEF4D96 
 136      013585CC 
 136      B6E9F6
 137 0118 ABD9ADDC 		.ascii	"\253\331\255\334\246\333\320\241\224\340!\275m(\022"
 137      A6DBD0A1 
 137      94E021BD 
 137      6D2812
 138 0127 19E3A30E 		.ascii	"\031\343\243\016\205TF\375\252\014?w<?\375\366\256\216"
 138      855446FD 
 138      AA0C3F77 
 138      3C3FFDF6 
 138      AE8E
 139 0139 40480F47 		.ascii	"@H\017G\".\346\266\314\236[\350/s[ \321j\233\211\206"
 139      222EE6B6 
 139      CC9E5BE8 
 139      2F735B20 
 139      D16A9B89 
 140 014e CDF5ADB6 		.ascii	"\315\365\255\266\3516lv\3330\232\333E%4\020\211|w\251"
 140      E9366C76 
 140      DB309ADB 
 140      45253410 
 140      897C77A9 
 141 0162 FD6ED136 		.ascii	"\375n\3216\215\356\246\304I|\324\351&^z\222\026\222"
 141      8DEEA6C4 
 141      497CD4E9 
 141      265E7A92 
 141      1692
 142 0174 2458B852 		.ascii	"$X\270R@\270S9\222\216\213\261|1\036\027\231|\221\005"
 142      40B85339 
 142      928E8BB1 
 142      7C311E17 
 142      997C9105 
 143 0188 8B846C10 		.ascii	"\213\204l\020\2119(rq9\001\257\362P\344\243\230\210"
 143      89392872 
 143      713901AF 
 143      F250E4A3 
 143      9888
 144 019a 58015E4D 		.ascii	"X\001^M\002\247S\340T\210\310dD\246\240\230\212\313"
 144      02A753E0 
 144      5488C864 
 144      44A6A098 
 144      8ACB
 145 01ac 6978351D 		.ascii	"ix5\035E\021\212\031\210\025\343U\0118\235\001\247\231"
 145      45118A19 
 145      8815E355 
 145      09389D01 
 145      A799
ARM GAS  /tmp/cc0VoMkl.s 			page 11


 146 01be B0482A45 		.ascii	"\260H*E\244\014\205\007\340\213\000\317Bx6\2464\007"
 146      A40C8507 
 146      E08B00CF 
 146      427836A6 
 146      3407
 147 01d0 C55C14F3 		.ascii	"\305\\\024\363@w\011t\363QW\216\326\025(\026\340r!\032"
 147      40770974 
 147      F351578E 
 147      D6152816 
 147      E072211A 
 148 01e4 2C425189 		.ascii	",BQ\211b1\212%`\177\026\354\227\242\30124\255B\261\034"
 148      62318A25 
 148      607F16EC 
 148      97A2C132 
 148      34AD42B1 
 149 01f9 972BD060 		.ascii	"\227+\320`%\212j\024\253P\324\200\375y\260_\015\213"
 149      258A6A14 
 149      AB50D480 
 149      FD79B05F 
 149      0D8B
 150 020b E43528D6 		.ascii	"\3445(\326\242X\207b=\212\015`\320\003\006\033a\221"
 150      A2588762 
 150      3D8A0D60 
 150      D003061B 
 150      6191
 151 021d B209C566 		.ascii	"\262\011\305f\024\265(\266@\277i=\010\245\001\2270\015"
 151      14B528B6 
 151      40BF693D 
 151      08A50197 
 151      300D
 152 022f 07698721 		.ascii	"\007i\207!\026xi\027\270xi7\223\330\\\202c\204O\035"
 152      16786917 
 152      B8786937 
 152      93D85C82 
 152      63844F1D 
 153 0243 483CFAF5 		.ascii	"H<\372\365T\301o\365{r\360j\347o\003\212\227^\246\016"
 153      54C16FF5 
 153      7B72F06A 
 153      E76F038A 
 153      975EA60E 
 154 0257 524ACEE9 		.ascii	"RJ\316\351\360\251\365\321\324\022\3621^\246\370\350"
 154      F0A9F5D1 
 154      D412F231 
 154      5EA6F8E8 
 155 0267 98F7C871 		.ascii	"\230\367\310q\030|Z3\325p\003\244\263\261o\247\306\370"
 155      187C5A33 
 155      D57003A4 
 155      B3B16FA7 
 155      C6F8
 156 0279 1149949B 		.ascii	"\021I\224\233\001W\251[\341\002h\207\003\367\217l3h"
 156      0157A95B 
 156      E1026887 
 156      03F78F6C 
 156      3368
 157 028b 9BA9733F 		.ascii	"\233\251s?y\023\266\005'\375\012\314\306\306g\245\321"
 157      7913B605 
 157      27FD0ACC 
ARM GAS  /tmp/cc0VoMkl.s 			page 12


 157      C6C667A5 
 157      D1
 158 029c 9DF52339 		.ascii	"\235\365#9\024\312\025\004\356\375dX\357\320\323|4\243"
 158      14CA1504 
 158      EEFD6458 
 158      EFD0D37C 
 158      34A3
 159 02ae 911B012B 		.ascii	"\221\033\001+\213gl\317T\002-\030\207^\355\003\307\273"
 159      8B676CCF 
 159      54022D18 
 159      875EED03 
 159      C7BB
 160 02c0 A9E14788 		.ascii	"\251\341G\210t{\251\221*2\307\361;\3008\223\245y5\374"
 160      747BA991 
 160      2A32C7F1 
 160      3BC03893 
 160      A57935FC 
 161 02d4 62AB27A2 		.ascii	"b\253'\242\372'Gv\211\344\223X\365.N\3723\035\205\225"
 161      FA274776 
 161      89E49358 
 161      F52E4EFA 
 161      331D8595 
 162 02e8 57DFA977 		.ascii	"W\337\251w&\010\206\024YGV#UE\371\300\314;\300\002d"
 162      26088614 
 162      59475623 
 162      5545F9C0 
 162      CC3BC002 
 163 02fd 8B81B3D2 		.ascii	"\213\201\263\322\231F\205:s0\241\300\347\201\026A\226"
 163      9946853A 
 163      7330A1C0 
 163      E7811641 
 163      96
 164 030e 0A7CD051 		.ascii	"\012|\320Q\243\374\276\373/\264\3745\306\340\006>\350"
 164      A3FCBEFB 
 164      2FB4FC35 
 164      C6E0063E 
 164      E8
 165 031f CE10E1D2 		.ascii	"\316\020\341\322\355\216\316\234\345X\360lF\035N\364"
 165      ED8ECE9C 
 165      E558F06C 
 165      461D4EF4 
 166 032f F47F99E8 		.ascii	"\364\177\231\350\325\007/|\2428\215s\227?TDr\343m\316"
 166      D5072F7C 
 166      A2388D73 
 166      973F5444 
 166      72E36DCE 
 167 0343 A3CBCE3C 		.ascii	"\243\313\316<2\201\017\352%\344\006\371\346\376\265"
 167      32810FEA 
 167      25E406F9 
 167      E6FEB5
 168 0352 5F7A55A9 		.ascii	"_zU\251@\037\323}\241\036\202\335\361\340\251\355\357"
 168      401FD37D 
 168      A11E82DD 
 168      F1E0A9ED 
 168      EF
 169 0363 1BEC53E5 		.ascii	"\033\354S\345q?\305\342\234a\362,\223\347\231\274\310"
 169      713FC5E2 
ARM GAS  /tmp/cc0VoMkl.s 			page 13


 169      9C61F22C 
 169      93E799BC 
 169      C8
 170 0374 E425267B 		.ascii	"\344%&{\330\317\200h#\320g\225\222\231\220\223\261k"
 170      D8CF8068 
 170      23D06795 
 170      92999093 
 170      B16B
 171 0386 CC85B346 		.ascii	"\314\205\263F>\014<\203\256\337b\251d\2039\313\373\274"
 171      3E0C3C83 
 171      AEDF62A9 
 171      648339CB 
 171      FBBC
 172 0398 2AA01C40 		.ascii	"*\240\034@\231W\232a\336\377I\216P\345\3060S\013\363"
 172      99579A61 
 172      DEFF498E 
 172      50E5C630 
 172      530BF3
 173 03ab 15493301 		.ascii	"\025I3\001\314-\314y\2002/73\017t\004\276P\204.\237"
 173      CC2DCC79 
 173      80322F37 
 173      330F7404 
 173      BE50842E 
 174 03c0 05CEE311 		.ascii	"\005\316\343\021\033\005<1&\242b\211\270G\230\026\200"
 174      1B053C31 
 174      26A26289 
 174      B8479816 
 174      80
 175 03d1 B5412B03 		.ascii	"\265A+\003Nb\274\005\006ix0,\025\205\202\266\353y-\272"
 175      4E62BC05 
 175      06697830 
 175      2C158582 
 175      B6EB792D 
 176 03e6 20339BDC 		.ascii	" 3\233\334\214\0156\0252\005Ps\213\362\205jj\014\263"
 176      8C0D3615 
 176      32055073 
 176      8BF2856A 
 176      6A0CB3
 177 03f9 B5454F25 		.ascii	"\265EO%\31540\2670O\007\324\334\242\0072\221\"\026x"
 177      CD3430B7 
 177      304F07D4 
 177      DCA20732 
 177      91221678 
 178 040d 3A8FF8AA 		.ascii	":\217\370\252\200g\304D|n\213\212\301\332\322\242\022"
 178      8067C444 
 178      7C6E8B8A 
 178      C1DAD2A2 
 178      12
 179 041e C65B6C90 		.ascii	"\306[l\220\366=\034\222\212\231\2146\227\237/\277\217"
 179      F63D1C92 
 179      8A998C36 
 179      979F2FBF 
 179      8F
 180 042f 4E887FBE 		.ascii	"N\210\177\276\242g5Q\263\304\275\"\267Y)\360\031\225"
 180      A2673551 
 180      B3C4BD22 
 180      B75929F0 
ARM GAS  /tmp/cc0VoMkl.s 			page 14


 180      1995
 181 0441 063E92F5 		.ascii	"\006>\222\365\224\001>\262\326\267\243\211z\330\354"
 181      94013EB2 
 181      D6B7A389 
 181      7AD8EC
 182 0450 CA8CAC3A 		.ascii	"\312\214\254:\037\365iB1\313\224\325[v\262rX\262z,\263"
 182      1FF56942 
 182      31CB94D5 
 182      5B76B272 
 182      58B27A2C 
 183 0465 9A0D7C2C 		.ascii	"\232\015|,\362aY\365\034\206z\030za\304\366\234\013"
 183      F26159F5 
 183      1C867A18 
 183      7A61C4F6 
 183      9C0B
 184 0477 2AC69629 		.ascii	"*\306\226)\346\"s\235\007Zv\240o\215\341\273!\374($"
 184      E622739D 
 184      075A76A0 
 184      6F8DE1BB 
 184      21FC2824 
 185 048b 1DE79B12 		.ascii	"\035\347\233\022\256\260\223p\314\206\221\011\227\003"
 185      AEB09370 
 185      CC869109 
 185      9703
 186 0499 9F9170E0 		.ascii	"\237\221p\340S\011V\000\316\374t\335\315\023\030\312"
 186      53095600 
 186      CEFC74DD 
 186      CD1318CA 
 187 04a9 10CA05A6 		.ascii	"\020\312\005\246\360\357P;\361UK\374\350\016\\\010\204"
 187      F0EF503B 
 187      F1554BFC 
 187      E80E5C08 
 187      84
 188 04ba 96862D62 		.ascii	"\226\206-b\250\321\260\243\201aiZ\011*\326\225*\321"
 188      A8D1B0A3 
 188      8161695A 
 188      092AD695 
 188      2AD1
 189 04cc B068198B 		.ascii	"\260h\031\213Y\322\225\234^\036\235%\240\341\023\177"
 189      59D2959C 
 189      5E1E9D25 
 189      A0E1137F 
 190 04dc 7C43122D 		.ascii	"|C\022-5U\260\320N\001\326\263<,#/\003>\336\300\350"
 190      3555B0D0 
 190      4E01D6B3 
 190      3C2C232F 
 190      033EDEC0 
 191 04f1 E6AC029C 		.ascii	"\346\254\002\2347P\213i\340\362\377\321@\353\371\213"
 191      37508B69 
 191      E0F2FFD1 
 191      40EBF98B 
 192 0501 36700510 		.ascii	"6p\005\020Z\032\270\222\241\261\015\254\006\025k\240"
 192      5A1AB892 
 192      A1B10DAC 
 192      06156BA0 
 193 0511 4E4507A3 		.ascii	"NE\007\243u\254bYWs\376\355\002\256\001\015\307z\216"
 193      75AC6259 
ARM GAS  /tmp/cc0VoMkl.s 			page 15


 193      5773FEED 
 193      02AE010D 
 193      C77A8E
 194 0524 95087435 		.ascii	"\225\010t5\234rK\3205\014\255\341A\037H\336\265\240"
 194      9C724BD0 
 194      350CADE1 
 194      411F48DE 
 194      B5A0
 195 0536 C2A00EA8 		.ascii	"\302\240\016\250\225\212SyE\346\264\216Y,\341n\217%"
 195      958A5379 
 195      45E6B48E 
 195      592CE16E 
 195      8F25
 196 0548 BE1E54DC 		.ascii	"\276\036T\334M1\212\036\014\354\024\312\015\240g\330"
 196      4D318A1E 
 196      0CEC14CA 
 196      0DA067D8 
 197 0558 E9C0D7C7 		.ascii	"\351\300\327\307J\005\272\021\016\216%\251M\200\346"
 197      4A05BA11 
 197      0E8E25A9 
 197      4D80E6
 198 0567 9077E1FE 		.ascii	"\220w\341\376\033\274\025\201\327\"x\301\305O\350\372"
 198      1BBC1581 
 198      D72278C1 
 198      C54FE8FA 
 199 0577 6037351E 		.ascii	"`75\036\203\201\344\346\220\313\260\347\023I\000M\374"
 199      8381E4E6 
 199      90CBB0E7 
 199      1349004D 
 199      FC
 200 0588 8188DBF7 		.ascii	"\201\210\333\367&\036\374\3361\217\210\264\031\262\262"
 200      261EFCDE 
 200      318F88B4 
 200      19B2B2
 201 0597 04AF0574 		.ascii	"\004\257\005t\364\340\301D\233\3015\036\274\026\357"
 201      F4E0C144 
 201      9BC1351E 
 201      BC16EF
 202 05a6 FEED7F5E 		.ascii	"\376\355\177^{\362\255l\326\026\264\313\033\261G\341"
 202      7BF2AD6C 
 202      D616B4CB 
 202      1BB147E1 
 203 05b6 EEAF916B 		.ascii	"\356\257\221kEx\367\277\031~&v>\360\266A\010x\033M1"
 203      4578F7BF 
 203      197E2676 
 203      3EF0B641 
 203      08781B4D 
 204 05cb F9304EC3 		.ascii	"\3710N\303\313\201\317\014\214\376\357(}}\034z'\371"
 204      CB81CF0C 
 204      8CFEEF28 
 204      7D7D1C7A 
 204      27F9
 205 05dd A318E9EF 		.ascii	"\243\030\351\357\206#ai\330PB\212Gi\036/:)NF\365#3j"
 205      86236169 
 205      D850428A 
 205      47691E2F 
 205      3A294E46 
ARM GAS  /tmp/cc0VoMkl.s 			page 16


 206 05f5 10815CFC 		.ascii	"\020\201\\\374\345\343\372 \177\2442\356J\363H\217\336"
 206      E5E3FA20 
 206      7FA432EE 
 206      4AF3488F 
 206      DE
 207 0606 81FF6D60 		.ascii	"\201\377m`\214#\224\335\026\345m\3226p\370$\177&\304"
 207      8C2394DD 
 207      16E56DD2 
 207      3670F824 
 207      7F26C4
 208 0619 08F2B7A8 		.ascii	"\010\362\267\250\016\0361\201\033\267Wzu\213\357\365"
 208      0E1E3181 
 208      1BB7577A 
 208      758BEFF5 
 209 0629 A616BF67 		.ascii	"\246\026\277g\267\177~\371\254\212\262F\222\274\267"
 209      B77F7EF9 
 209      AC8AB246 
 209      92BCB7
 210 0638 A5C9EFDF 		.ascii	"\245\311\357\337\327\322T\355m\365\272[\233v\357\305"
 210      D7D254ED 
 210      6DF5BA5B 
 210      9B76EFC5 
 211 0648 0BA7BFD5 		.ascii	"\013\247\277\325\333\272\317\257\265\266x\337\320\366"
 211      DBBACFAF 
 211      B5B678DF 
 211      D0F6
 212 0656 82505FDB 		.ascii	"\202P_\333\271S\3637\355\361+;\3524\264r0\277\177\001"
 212      B953F337 
 212      EDF12B3B 
 212      EA34B472 
 212      30BF7F01 
 213 066a CFAAD9BF 		.ascii	"\317\252\331\277"
 214              		.text
 215              		.section	.gnu.lto_.symbol_nodes.23c9c213ab130717,"",%progbits
 216 0000 789C4DCB 		.ascii	"x\234M\313\261\015\3020\020\205\341w\357\354\304L\221"
 216      B10DC230 
 216      1085E177 
 216      EFECC44C 
 216      91
 217 0011 512F2210 		.ascii	"Q/\"\020\007*&H\343QR\3201\001\005(mf@(\016`\256\371"
 217      072A2648 
 217      E35152D0 
 217      31010528 
 217      6D664028 
 218 0029 F53DE908 		.ascii	"\365=\351\010\342\216\317qO\003.7\300l\034\304\267\204"
 218      E28ECF71 
 218      4F032E37 
 218      C06C1CC4 
 218      B784
 219 003b 33654793 		.ascii	"3eG\223\262\362@\343\037\2174-\224Hs\033\333V\244\247"
 219      B2F240E3 
 219      1F8F342D 
 219      9448731B 
 219      DB56A4A7 
 220 004f F9A28156 		.ascii	"\371\242\201V\025\235iu\321\211\026~RTH\375\322(<\272"
 220      159D6975 
 220      D189167E 
ARM GAS  /tmp/cc0VoMkl.s 			page 17


 220      525448FD 
 220      D2283CBA 
 221 0063 781D5559 		.ascii	"x\035UY#=^\242\3521\255u\337\3560\347\006L\317m\317"
 221      233D5EA2 
 221      EA31AD75 
 221      DFEE30E7 
 221      064CCF6D 
 222 0078 8FEB9E1B 		.ascii	"\217\353\236\033\220\342\322\340\015\215\334@\354"
 222      90E2D2E0 
 222      0D8DDC40 
 222      EC
 223              		.text
 224              		.section	.gnu.lto_.refs.23c9c213ab130717,"",%progbits
 225 0000 789C6362 		.ascii	"x\234cb`b`g\200\000&\006\006FFF\006\000\000\333\000"
 225      60626067 
 225      80002606 
 225      06464646 
 225      060000DB 
 226 0015 11       		.ascii	"\021"
 227              		.text
 228              		.section	.gnu.lto_.decls.23c9c213ab130717,"",%progbits
 229 0000 789CBD5C 		.ascii	"x\234\275\\\013t\024\305\232\356\356\231$3Inx\270\272"
 229      0B7414C5 
 229      9AEEEE99 
 229      2433496E 
 229      78B8BA
 230 0013 E8BA3A77 		.ascii	"\350\272:wW\357q\257W\362\000\021\326\273\002&(\034"
 230      57EF71AF 
 230      57F20011 
 230      D6BB0226 
 230      281C
 231 0025 79B849BC 		.ascii	"y\270I\274\213{\216;\2663\0352k\222\231\333\323\201"
 231      8B7B8E3B 
 231      B6331D32 
 231      6B9299DB 
 231      D381
 232 0037 70CEDD63 		.ascii	"p\316\335cCHx(\030\022\220\200\200\361\012\210/\224"
 232      43487828 
 232      18129080 
 232      80F10A88 
 232      2F94
 233 0049 97800761 		.ascii	"\227\200\007a\360\001\021\224\247 \340\203\321+\010"
 233      F0011194 
 233      A720E083 
 233      D12B08
 234 0058 7271018D 		.ascii	"rq\001\215\2101d\377\372\273{\246\272\323=\323\035\275"
 234      883164FF 
 234      FABB7BA6 
 234      BAD33DD3 
 234      1DBD
 235 006a 3BE7544D 		.ascii	";\347TMu\245\352\253\377\377\353\377\377\372\253\272"
 235      75A5EAAB 
 235      FFFFEBFF 
 235      FFFAABBA 
 236 007a 261CC331 		.ascii	"&\034\303138\206\351\206\317\347\3671\314\027\036\206"
 236      333886E9 
 236      86CFE7F7 
ARM GAS  /tmp/cc0VoMkl.s 			page 18


 236      31CC171E 
 236      86
 237 008b C96018E6 		.ascii	"\311`\030\346.HnH\317B\332\010)\013\322\020F\371x!]"
 237      2E486E48 
 237      CF42DA08 
 237      290BD210 
 237      46F97821 
 238 00a0 077D8643 		.ascii	"\007}\206C\272\017\322\277Cz\010R\020R\030\222\004\351"
 238      BA0FD2BF 
 238      437A0852 
 238      10521892 
 238      04E9
 239 00b2 4F905868 		.ascii	"O\220Xh's\214\356C\372]\307(\177\313\203\224\013\251"
 239      27738CEE 
 239      43FA5DC7 
 239      287FCB83 
 239      940BA9
 240 00c5 3FA78C51 		.ascii	"?\247\214Q\005\225\017Cy:\244zN\031\337\005\351\032"
 240      05950F43 
 240      793AA47A 
 240      4E19DF05 
 240      E91A
 241 00d7 4EA1E306 		.ascii	"N\241\343\006\370\376GH\003!\025A\"t\023\272\032\340"
 241      F8FE4748 
 241      03211541 
 241      227413BA 
 241      1AE0
 242 00e9 5B80D408 		.ascii	"[\200\324\010\351\277 m\005\234\337\020\034V\301\370"
 242      E9BF206D 
 242      059CDF10 
 242      1C56C1F8 
 243 00f9 6728DF06 		.ascii	"g(\337\006\251\020\322\315\234\202y\235J\357C\3528\204"
 243      A910D2CD 
 243      9C82799D 
 243      4AEF43EA 
 243      3884
 244 010b CEA190FE 		.ascii	"\316\241\220\376\025\322\357\0154\017W\307y\330@\307"
 244      15D2EF0D 
 244      340F57C7 
 244      79D840C7 
 245 011b 4C481175 		.ascii	"LH\021u\034V\035\207S\333\207\325\362\275\220\2156\340"
 245      1C561D87 
 245      53DB87D5 
 245      F2BD908D 
 245      36E0
 246 012d 119965AB 		.ascii	"\021\231e\253x\244/\341\235\360\244\341jr\327\370!\335"
 246      78A42FE1 
 246      9DF0A4E1 
 246      6A72D7F8 
 246      21DD
 247 013f 09FD1AFE 		.ascii	"\011\375\032\376}*\335d\314\011\006l2\0277\300\367,"
 247      7D2ADD64 
 247      CC09066C 
 247      321737C0 
 247      F72C
 248 0151 2E295F32 		.ascii	".)_2F\003\2449\\R\276\231\352\034h2\366\020\032\230"
 248      4603A439 
ARM GAS  /tmp/cc0VoMkl.s 			page 19


 248      5C52BE99 
 248      EA1C6832 
 248      F6101A98 
 249 0165 9EB4D074 		.ascii	"\236\264\320t4\251r\370\037\370\236\017\251\031R-%o"
 249      34A972F8 
 249      1FF89E0F 
 249      A919522D 
 249      256F
 250 0177 A21F1914 		.ascii	"\242\037\031\024\255D\326\377\002\351V\225'MO\376\244"
 250      AD44D6FF 
 250      02E95695 
 250      274D4FFE 
 250      A4
 251 0188 EA0819F7 		.ascii	"\352\010\031\367?\340{\"\244\3774\360\321\237\231/\303"
 251      3FE07B22 
 251      A4FF34F0 
 251      D19F992F 
 251      C3
 252 0199 C7D70E4C 		.ascii	"\307\327\016LLdy6\317K\246\210\224r\275\214\017\032"
 252      4C647936 
 252      CF4BA688 
 252      9472BD8C 
 252      0F1A
 253 01ab DCCCAC90 		.ascii	"\334\314\254\220\345\246x\303\223\254\217g\237e\373"
 253      E5A678C3 
 253      93AC8F67 
 253      9F65FB
 254 01ba 836406B0 		.ascii	"\203d\006\260\314o\231\027\240W\223,O\277\212\351\371"
 254      CC6F9917 
 254      A057932C 
 254      4FBF8AE9 
 254      F9
 255 01cb 490BCA30 		.ascii	"I\013\3120<\273\022\260xv\005\373[e\0109v8\350Sj\031"
 255      3CBB12B0 
 255      787605FB 
 255      5B650839 
 255      7638E853 
 256 01e1 B5DEE4F3 		.ascii	"\265\336\344\363k\246\015\306\214\035\333\260\205\225"
 256      6BA60DC6 
 256      8C1DDBB0 
 256      8595
 257 01ef 1B73B398 		.ascii	"\033s\263\230Fx\222\343\015\323\007\264&\207\362h#\261"
 257      467892E3 
 257      0DD307B4 
 257      2687F268 
 257      23B1
 258 0201 09F26307 		.ascii	"\011\362c\007<\034\317\256f\263\200\372[Y\035\274\015"
 258      3C1CCFAE 
 258      66B380FA 
 258      5B591DBC 
 258      0D
 259 0212 0C42CF4B 		.ascii	"\014B\317K\320WG\355\0267\247\324\246\240\326\305\240"
 259      D05747ED 
 259      1637A7D4 
 259      A6A0D6C5 
 259      A0
 260 0223 26DDC922 		.ascii	"&\335\311\"\232\333\233\254*IT\261T\3031\211Zm\226\310"
ARM GAS  /tmp/cc0VoMkl.s 			page 20


 260      9ADB9BAC 
 260      2A4954B1 
 260      54C33189 
 260      5A6D96C8 
 261 0237 23EB4D16 		.ascii	"#\353M\026\272Y\335\0004]<\3732{3\344\257\260.\323n"
 261      BA59DD00 
 261      345D3CFB 
 261      327B33E4 
 261      AFB02ED3 
 262 024c 1C339E55 		.ascii	"\0343\236U\305n\306\244ZL\016\233\247=hB\377\370\273"
 262      C56EC6A4 
 262      5A4C0E9B 
 262      A73D6842 
 262      FFF8BB
 263 025f CD44E85E 		.ascii	"\315D\350^f\026\012l\245\234F\350\361c\215\257\334*"
 263      66160A6C 
 263      A59C46E8 
 263      F1638DAF 
 263      DC2A
 264 0271 CB1E9EDD 		.ascii	"\313\036\236\335\310\022\216\246\352\005o\037\247e\316"
 264      C8128EA6 
 264      EA056F1F 
 264      A765CE
 265 0280 F2A188B3 		.ascii	"\362\241\210\263\031q^g\365@*\253\224P\340Yk\220V\200"
 265      19715E67 
 265      F5402AAB 
 265      9450E059 
 265      6B905680 
 266 0294 69DA724C 		.ascii	"i\332rL\214u*6\017-\266\370\273\217/\270Vn{\213\315"
 266      8C752A36 
 266      0F2DB6F8 
 266      BB8F2FB8 
 266      566E7B8B 
 267 02a9 61E6107E 		.ascii	"a\346\020~\333\032\345\321\355y&\026\022si`C\223\254"
 267      DB1AE5D1 
 267      ED792616 
 267      12736960 
 267      4393AC
 268 02bc AFDD7B78 		.ascii	"\257\335{x\025[/\313\360\207mh{s9=\363i\201x6\306r\220"
 268      155B2FCB 
 268      F0876D68 
 268      7B73393D 
 268      F3698178 
 269 02d4 EF309ADB 		.ascii	"\3570\232\333\205%\271\262[\251Oop\227\217/\377{9\036"
 269      8525B9B2 
 269      5BA94F6F 
 269      70978F2F 
 269      FF7B391E 
 270 02e8 636D5B5C 		.ascii	"cm[\\\374\304\301\217\012q\322\336A\253\333\315\365"
 270      FCC4C18F 
 270      0A71D2DE 
 270      41ABDBCD 
 270      F5
 271 02f9 CAEC7619 		.ascii	"\312\354v\031\315\356@c\037B\365.[\206w\230\353iyq\316"
 271      CDEE4063 
 271      1F42F52E 
 271      5B867798 
ARM GAS  /tmp/cc0VoMkl.s 			page 21


 271      EB697971 
 272 030e D4F4CE70 		.ascii	"\324\364\316pz\333S\253\277MV\273\250\352i\256D\265"
 272      7ADB53AB 
 272      BF4D56BB 
 272      A8EA69AE 
 272      44B5
 273 0320 9BAA7E32 		.ascii	"\233\252~2Y\235A\251DJ\375\333E\031p;\032\360{\026\006"
 273      599D41A9 
 273      444AFDDB 
 273      4519703B 
 273      1AF07B16 
 274 0335 CCB3EB13 		.ascii	"\314\263\353\0233\331+\013\216\257\235\367\345)\266"
 274      33D92B0B 
 274      8EAF9DF7 
 274      E529B6
 275 0344 A55E6E2F 		.ascii	"\245^n/0SFh\302Rj\364\260\006\230\233\230\324\330\233"
 275      30534668 
 275      C2526AF4 
 275      B006989B 
 275      98D4D89B 
 276 0358 C7599F89 		.ascii	"\307Y\237\211\306\351\232\362\354Q`#]+\322\356\270Q"
 276      C6E99AF2 
 276      EC516023 
 276      5D2BD2EE 
 276      B851
 277 036a 25971D47 		.ascii	"%\227\035G\225<nK%\327\036_\350L%c\027>\"k\330\247\250"
 277      953C6E4B 
 277      25D71E5F 
 277      E84C2563 
 277      173E226B 
 278 0381 8F4B5CBD 		.ascii	"\217K\\\275\322\307\270Q\037\217-B}\214\333\322\307"
 278      D2C7B851 
 278      1F8F2D42 
 278      7D8CDBD2 
 278      C7
 279 0392 552E4AF7 		.ascii	"U.J\367\324\272\265.S\305{\327\245W<;\252\024\247T\351"
 279      D4BAB52E 
 279      53C57BD7 
 279      A5573C3B 
 279      AA14A754 
 280 03a7 7354A52F 		.ascii	"sT\245/,\327\202\217\220\377\343\275^\014\326\037_\210"
 280      2CD7828F 
 280      90FFE3BD 
 280      5E0CD61F 
 280      5F88
 281 03b9 5E4DF5E2 		.ascii	"^M\365\342\212\"%\332\3724\0047C\255\006\357\356`\247"
 281      8A2225DA 
 281      FA340437 
 281      43AD06EF 
 281      EE60A7
 282 03cc A32BFB1A 		.ascii	"\243+\373\032\375\370\011\227\351\202`\003\252e\316"
 282      FDF80997 
 282      E9826003 
 282      AA65CE
 283 03db D661E85B 		.ascii	"\326a\350[\316!\320i\227qA\3102,\010Yz'\237\345M\026"
 283      CE21D069 
 283      977141C8 
ARM GAS  /tmp/cc0VoMkl.s 			page 22


 283      322C0859 
 283      7A279FE5 
 284 03f1 4840DE87 		.ascii	"H@\336\207q\332\034<\203Q\200:B\315\004\350\243\005"
 284      71DA1C3C 
 284      8351803A 
 284      42CD04E8 
 284      A305
 285 0403 08B6B8F7 		.ascii	"\010\266\270\367u\366\342t\271\265\300\276\002\267\034"
 285      75F6E274 
 285      B9B5C0BE 
 285      02B71C
 286 0412 270A7C11 		.ascii	"'\012|\021\025\270\273w\012\334aT\340NE\201;l)\360<"
 286      15B8BB77 
 286      0ADC6154 
 286      E04E4581 
 286      3B6C29F0 
 287 0427 774F055E 		.ascii	"wO\005^\3466U\340W\335\316\025\270\203R\340\357Q\201"
 287      E63655E0 
 287      57DDCE15 
 287      B88352E0 
 287      EF5181
 288 043a 2F592AF0 		.ascii	"/Y*\360;n\033\012\3541Q`j<e\244\217q\244O\330_C~\006"
 288      3B6E1B0A 
 288      EC315160 
 288      6A3C65A4 
 288      8F71A44F 
 289 0453 F30B9027 		.ascii	"\363\013\220'>\034\263\317m\324/\305CQHIW\306\244\302"
 289      3E1CB3CF 
 289      6DD42FC5 
 289      43514849 
 289      57C6A4C2 
 290 0467 325315D2 		.ascii	"2S\025\322\341\010D\007\211\341\216\341p;z\253Y\261"
 290      E1084407 
 290      89E18EE1 
 290      703B7AAB 
 290      59B1
 291 0479 C51F2F77 		.ascii	"\305\037/wf\232\261\355\213\256&:0\215#S\030\357\301"
 291      669AB1ED 
 291      8BAE263A 
 291      308D2353 
 291      18EFC1
 292 048c EDD7C6F8 		.ascii	"\355\327\306\370\312\216}\234\265\303\205\331\374 \027"
 292      CA8E7D9C 
 292      B5C385D9 
 292      FC2017
 293 049b 726CFDC7 		.ascii	"rl\375\307\313Y\302\205\331^\202\325\372\367M\360\020"
 293      CB59C285 
 293      D95E82D5 
 293      FAF74DF0 
 293      10
 294 04ac 3FFCD5E9 		.ascii	"?\374\325\351S\252{i\344H\244\264*#m\244\244\007\342"
 294      53AA7B69 
 294      E448A4B4 
 294      2A236DA4 
 294      A407E2
 295 04bf 9835D865 		.ascii	"\2305\330e6gX\226:x\237R\233nQ\222c\227Nz\345\346\\"
 295      36675896 
ARM GAS  /tmp/cc0VoMkl.s 			page 23


 295      3A789F52 
 295      9B6E5192 
 295      63974E7A 
 296 04d6 93A146D0 		.ascii	"\223\241F\320,k\036\361l\374\332\367d\271/\317\316E"
 296      2C6B1EF1 
 296      6CFCDAF7 
 296      64B92FCF 
 296      CE45
 297 04e8 8ACF9953 		.ascii	"\212\317\231S\3346\302\012\207c\272\260K\223\201\342"
 297      DC36C20A 
 297      8763BAB0 
 297      4B9381E2 
 298 04f8 F89B17DB 		.ascii	"\370\233\027\333\257kE\344&\033dO\217\035n\\f+Fmsk\303"
 298      AF6B45E4 
 298      261B644F 
 298      8F1D6E5C 
 298      662B466D 
 299 050f 9724D938 		.ascii	"\227$\3318z66\000\275\361B\344\342\355\314\264r\327"
 299      7A363600 
 299      BDF142E4 
 299      E2EDCCB4 
 299      72D7
 300 0521 C370CCFB 		.ascii	"\303p\314\373\330\245\265'\027\361\177P\270h\265\305"
 300      D8A5B527 
 300      17F17F50 
 300      B868B5C5 
 301 0531 45A7CA05 		.ascii	"E\247\312\005\317.\340r\000\366H\002\326\256!\351\361"
 301      CF2EE072 
 301      00F64802 
 301      D6AE21E9 
 301      F1
 302 0542 AEECCC6D 		.ascii	"\256\354\314m\3425\260O\035\203\371t`-\273\226:\\0\027"
 302      E235B04F 
 302      1D83F974 
 302      602DBB96 
 302      3A5C3017 
 303 0556 5F3A7DED 		.ascii	"_:}\355\233\310~\033\032\346+Y\277\210an\314\262\301"
 303      9BC87E1B 
 303      1AE62B59 
 303      BF88616E 
 303      CCB2C1
 304 0569 88B561C2 		.ascii	"\210\265a\302\254\354\277~\313:Y\236\235\251\351g\246"
 304      ACECBF7E 
 304      CB3A599E 
 304      9DA9E967 
 304      A6
 305 057a 15231CB3 		.ascii	"\025#\034\263\025\007[i\234\331\305W\366\337\246\314"
 305      15075B69 
 305      9CD9C557 
 305      F6DFA6CC 
 306 058a EC4A5B33 		.ascii	"\354J[3\273i\317\"{\372\231\251\015\037\304\341\257"
 306      BB69CF22 
 306      7BFA99A9 
 306      0D1FC4E1 
 306      AF
 307 059b E0F02F1A 		.ascii	"\340\360/\032\207\337\370\3473w)\303\277hk\370\023\373"
 307      87DFF8E7 
ARM GAS  /tmp/cc0VoMkl.s 			page 24


 307      337729C3 
 307      BF686BF8 
 307      13FB
 308 05ad 4CB6703C 		.ascii	"L\266p<{\327\325)\247\357\312\371[\236\301A\326\240"
 308      7BD7D529 
 308      A7EFCAF9 
 308      5B9EC141 
 308      D6A0
 309 05bf 02B57B8C 		.ascii	"\002\265{\214\3237<\207\036\013\237\251\006\034s\300"
 309      D3373C87 
 309      1E0B9FA9 
 309      061C73C0 
 310 05cf A351DF2B 		.ascii	"\243Q\337+\375\0056w\014\177\001gJ\243\341\260cD\275"
 310      FD053677 
 310      0C7F0167 
 310      4AA3E1B0 
 310      6344BD
 311 05e2 125FDC87 		.ascii	"\022_\334\207\026\241\200\035\263\003f\251H\323c\337"
 311      16A1801D 
 311      B30366A9 
 311      48D363DF 
 312 05f2 D1609F3A 		.ascii	"\321`\237:\006\323S\366=\015\366\271\035\260\276\326"
 312      06D353F6 
 312      3D0DF6B9 
 312      1DB0BED6 
 313 0602 94FD4083 		.ascii	"\224\375@\203\235t\014\246\247\354G\032\354\214\035"
 313      9D740CA6 
 313      A7EC471A 
 313      EC8C1D
 314 0611 B001D694 		.ascii	"\260\001\326\224\375D\203\235s\014\246\247\354\012\015"
 314      FD44839D 
 314      730CA6A7 
 314      EC0A0D
 315 0620 76C10E98 		.ascii	"v\301\016\230\317\232\262\246\203\024X\207c0=e\3154"
 315      CF9AB2A6 
 315      83145887 
 315      63303D65 
 315      CD34
 316 0632 D8653B60 		.ascii	"\330e;`\267XS\266\200\006\353r\014\246\247\354)\032"
 316      B75853B6 
 316      8006EB72 
 316      0CA6A7EC 
 316      291A
 317 0644 6C9AD706 		.ascii	"l\232\327\006X\2015e\2554X\203c0=eKh\260\331v\300\206"
 317      58813565 
 317      AD345883 
 317      63303D65 
 317      4B68B0D9 
 318 065b 5A53B694 		.ascii	"ZS\266\224\006\233\353\030LO\331k4\330|;`#\254)[G\203"
 318      069BEB18 
 318      4C4FD96B 
 318      34D87C3B 
 318      6023AC29 
 319 0672 2D700CA6 		.ascii	"-p\014\246\247l\003\015\266\310\016\330hk\312^\247\301"
 319      A76C030D 
 319      B6C80ED8 
 319      686BCA5E 
ARM GAS  /tmp/cc0VoMkl.s 			page 25


 319      A7C1
 320 0684 963806D3 		.ascii	"\2268\006\323S\266\231\006[f\007\354~k\312\336\240\301"
 320      53B69906 
 320      5B6607EC 
 320      7E6BCADE 
 320      A0C1
 321 0696 DA1C83E9 		.ascii	"\332\034\203\351)\333J\203=g\007l\2425e\333h\260\347"
 321      29DB4A83 
 321      3D67076C 
 321      A23565DB 
 321      68B0E7
 322 06a9 1D83E929 		.ascii	"\035\203\351)\333O\203\275d\007\354a\023\312\022\037"
 322      DB4F83BD 
 322      6407EC61 
 322      13CA121F 
 323 06b9 B37E6499 		.ascii	"\263~d\231~\201\2436kk\274Z\200\343p\215f\222\030\353"
 323      7E81A336 
 323      6B6BBC5A 
 323      80E3708D 
 323      669218EB 
 324 06cd BC4E2332 		.ascii	"\274N#2\035\337$N\276\376\015u\235W\202\325\315v\020"
 324      1DDF244E 
 324      BEFE0D75 
 324      9D5782D5 
 324      CD7610
 325 06e0 532C804B 		.ascii	"S,\200KvQ\221o\3141\230A\225\011\230.tJ\034\375\307"
 325      7651916F 
 325      CC319841 
 325      9509982E 
 325      744A1CFD 
 326 06f5 529F7890 		.ascii	"R\237x\220\027L\034\365\236`\200y[\236=\313\221-\374"
 326      174C1CF5 
 326      9E608079 
 326      5B9E3DCB 
 326      912DFC
 327 0708 5F396F82 		.ascii	"_9o\202\012\245\254\225\224#\203v\257\376\300!\361I"
 327      0AA5AC95 
 327      94238376 
 327      AFFEC021 
 327      F149
 328 071a D7D54A13 		.ascii	"\327\325J\023\316\320\232\360\201\0351\245X\332O\354"
 328      CED09AF0 
 328      811D31A5 
 328      58DA4FEC 
 329 072a 5A8AE799 		.ascii	"Z\212\347\231\366\337\213,\276\264_\335 \234\307\015"
 329      F6DF8B2C 
 329      BEB45FDD 
 329      209CC70D 
 330 073a C2875E63 		.ascii	"\302\207^c\204\271\321\341\233\021\210\303\214\\\230"
 330      84B9D1E1 
 330      9B1188C3 
 330      8C5C98
 331 0749 1DAB58C7 		.ascii	"\035\253X\307\024\240\213Go\334\262F\226\3533\235\360"
 331      14A08B47 
 331      6FDCB246 
 331      96EB339D 
 331      F0
ARM GAS  /tmp/cc0VoMkl.s 			page 26


 332 075a D1AEF2D1 		.ascii	"\321\256\362\321\201|\234\374\005\3708\347\230\217["
 332      817C9CFC 
 332      05F838E7 
 332      988F5B
 333 0769 0C7CC46E 		.ascii	"\014|\304nq\316\307Q\225\217\037\221\217\216_\200\217"
 333      71CEC751 
 333      958F1F91 
 333      8F8E5F80 
 333      8F
 334 077a 2EC77C14 		.ascii	".\307|\024P|\340nm\240\262[\273\212iN\275[#\364tsW\031"
 334      507CE06E 
 334      6DA0B25B 
 334      BB8A694E 
 334      BD5B23F4 
 335 0792 CEB77793 		.ascii	"\316\267w\223#GRm\343\360c7\265\305\225\355mq\317\253"
 335      2347526D 
 335      E3F06337 
 335      B5C595ED 
 335      6D71CFAB 
 336 07a6 129BEE22 		.ascii	"\022\233\356\"\022\233\221mr$l\013\351\330\316w\326"
 336      129B916D 
 336      72246C0B 
 336      E9D8CE77 
 336      D6
 337 07b7 AAC73F0D 		.ascii	"\252\307?\015\0105\247\327P-\2737)\257\033g!Ps\266q"
 337      0835A7D7 
 337      502DBB37 
 337      29AF1B67 
 337      215073B6 
 338 07cc 16330D93 		.ascii	"\0263\015\223"
 339 07d0 98A99F44 		.ascii	"\230\251\237Dx$#\375@v\334\354cj\015y\310b\376\337\373"
 339      782423FD 
 339      4076DCEC 
 339      636A0D79 
 339      C862FEDF 
 340 07e5 71CC5224 		.ascii	"q\314R$\237L\240\303\005*\251@\277\333\242..\312$=\367"
 340      9F4CA0C3 
 340      052AA940 
 340      BFDBA22E 
 340      2ECA243D 
 341 07fa B310A7C7 		.ascii	"\263\020\247\307\326?\256\035\323\014'\313\313\313?"
 341      D63FAE1D 
 341      D30C27CB 
 341      CBCB3F
 342 0809 13EEC01E 		.ascii	"\023\356\300\036\347\007+\261\353\024\255\233\217\014"
 342      E7072BB1 
 342      EB14AD9B 
 342      8F0C
 343 0817 ADEF31C3 		.ascii	"\255\3571\303\275:X\331\336[F\022\037\216\331\231mc"
 343      BD3A58D9 
 343      DE5B4612 
 343      1F8ED999 
 343      6D63
 344 0829 11F1A59A 		.ascii	"\021\361\245\232\255\037\006\332<\234I\034B\236\036"
 344      AD1F06DA 
 344      3C9C491C 
 344      429E1E
ARM GAS  /tmp/cc0VoMkl.s 			page 27


 345 0838 D08EC258 		.ascii	"\320\216\302X\344\"\307w\273\015\302\260q\310s\014\273"
 345      E422C777 
 345      BB0DC2B0 
 345      71C8730C 
 345      BB
 346 0849 2C71F538 		.ascii	",q\3658\276\333\177\255r\312B\376d\343\220Gw|\307\263"
 346      BEDB7FAD 
 346      72CA42FE 
 346      64E39047 
 346      777CC7B3 
 347 085d 4B394E85 		.ascii	"K9N\205\355\255<uS\230\244\017\240]$^X\346\322\035\363"
 347      EDAD3C75 
 347      5398A40F 
 347      A05D245E 
 347      58E6D21D 
 348 0872 9F712C7B 		.ascii	"\237q,{\037-\373X\347\236\245\254B\277r\234\373\255"
 348      1F2DFB58 
 348      E79EA5AC 
 348      42BF729C 
 348      FBAD
 349 0884 116F041D 		.ascii	"\021o\004\035\313\251E\313}\253\034k\336\213A\230bt"
 349      CBA945CB 
 349      7DAB1C6B 
 349      DE8B4198 
 349      6274
 350 0896 57EC1097 		.ascii	"W\354\020\227b\253\271\\\001S\024~F\216S0\237\016\354"
 350      62ABB95C 
 350      0153147E 
 350      468E5330 
 350      9F0EEC
 351 08a9 CD7926C7 		.ascii	"\315y&\307\305\312\021\271\325\302\262\312E\205JO\332"
 351      C5CA11B9 
 351      D5C2B2CA 
 351      45854A4F 
 351      DA
 352 08ba 193FC5EE 		.ascii	"\031?\305\356\364\360\336\245\252\246('\243\213\035"
 352      F4F0DEA5 
 352      AAA62827 
 352      A38B1D
 353 08c9 E3E9F9B9 		.ascii	"\343\351\371\2710O\347\221V\330\201\033a[\361\222\347"
 353      304FE791 
 353      56D8811B 
 353      615BF192 
 353      E7
 354 08da DAA08418 		.ascii	"\332\240\204\030\250>\315\2217C\3130\177\006\363\025"
 354      A83ECD91 
 354      3743CB30 
 354      7F06F315 
 355 08ea 987F89F9 		.ascii	"\230\177\211\371)\314Oc\376\277\230\177\207\371e\314"
 355      29CC4F63 
 355      FEBF987F 
 355      87F965CC 
 356 08fa AF60FE94 		.ascii	"\257`\376\224\013\373b\376,\346\317a\276\022\363\325"
 356      0BFB62FE 
 356      2CE6CF61 
 356      BE12F3D5 
 357 090a 98BF48AB 		.ascii	"\230\277H\253\267\325\274(\246\2260L\315\352\232z}h"
ARM GAS  /tmp/cc0VoMkl.s 			page 28


 357      B7D5BC28 
 357      A696304C 
 357      CDEA9A7A 
 357      7D68
 358 091c 7E247968 		.ascii	"~$yh\316\263\313\035\203\371RI\262\211\222d3J\262\005"
 358      CEB3CB1D 
 358      83F95249 
 358      B2899264 
 358      334AB205 
 359 0930 A5F1B2DE 		.ascii	"\245\361\262\336\220_\316\321^\343\2440<k\026\342\037"
 359      905FCED1 
 359      5EE3A430 
 359      3C6B16E2 
 359      1F
 360 0941 7E753A6B 		.ascii	"~u:k\261\034\233\341\322v@\033\214\200i7hz\231\\\021"
 360      B11C9BE1 
 360      D276401B 
 360      8C806937 
 360      687A995C 
 361 0956 0C372E94 		.ascii	"\0147.\224wTVs\262\226\266\225\255\216\307N)\302\331"
 361      77545673 
 361      B296B695 
 361      AD8EC74E 
 361      29C2D9
 362 0969 94081F47 		.ascii	"\224\010\037G\021>\201\"\\\203*\363\032-H\236\235\303"
 362      113E8122 
 362      5C832AF3 
 362      1A2D489E 
 362      9DC3
 363 097b 19EE9BE8 		.ascii	"\031\356\233\350_\230\245\030<\361\222\273\343\210\311"
 363      5F98A518 
 363      3CF192BB 
 363      E388C9
 364 098a 8513E555 		.ascii	"\205\023\345UQ\212Ei\321\266c\327\277\214K\307\006\027"
 364      518A4569 
 364      D1B663D7 
 364      BF8C4BC7 
 364      0617
 365 099c 9980CE1C 		.ascii	"\231\200\316\034\343\012\275\2003\034\236\033\024\231"
 365      E30ABD80 
 365      331C9E1B 
 365      1499
 366 09aa 63E6E5DA 		.ascii	"c\346\345\332x\001\231b'\263v\336\245#l}\275\274\272"
 366      78019962 
 366      27B376DE 
 366      A5236C7D 
 366      BDBCBA
 367 09bd 408D2CE4 		.ascii	"@\215,\344F\371\226\325\311E\260\257\206\301%\350\216"
 367      46F996D5 
 367      C945B0AF 
 367      86C125E8 
 367      8E
 368 09ce 6D545EA4 		.ascii	"mT^\244nA/\2730\327\364~Cz\230\370\261\306M\277\303"
 368      6E412FBB 
 368      30D7F47E 
 368      437A98F8 
 368      B1C64DBF 
ARM GAS  /tmp/cc0VoMkl.s 			page 29


 369 09e3 08742B02 		.ascii	"\010t+\002=\323k\240\2269\317+\027%\266#\320\352\\\243"
 369      3DD36BA0 
 369      9639CF2B 
 369      1725B623 
 369      D0EA5CA3 
 370 09f7 185D8638 		.ascii	"\030]\2068\307\245\217s\\\336d\241\273\333\305\374\015"
 370      C7A58F73 
 370      5CDE64A1 
 370      BBDBC5FC 
 370      0D
 371 0a08 1B431866 		.ascii	"\033C\030f\2340\035G\351b\0372a]\252\262i7L6\333Q\001"
 371      9C301D47 
 371      E9621F32 
 371      615DAAB2 
 371      69374C36 
 372 0a1f 1DA24E05 		.ascii	"\035\242N\005b?}\214\276L\001{\313\016X\212c\350\205"
 372      623F7D8C 
 372      BE4C017B 
 372      CB0E588A 
 372      63E885
 373 0a32 CB9FB17C 		.ascii	"\313\237\261|\207\325\226\366\352U|\313\251\367~O.\002"
 373      87D596F6 
 373      EA557CCB 
 373      A9F77E4F 
 373      2E02
 374 0a44 A6BF7EB5 		.ascii	"\246\277~\265\333e\357\372\325\373.\343{\356\275x\375"
 374      DB65EFFA 
 374      D5FB2EE3 
 374      7BEEBD78 
 374      FD
 375 0a55 EA7D5BD1 		.ascii	"\352}[\321\332%\263\030\300\3546b\302e\014H2\363\321"
 375      DA25B318 
 375      C0EC3662 
 375      C2650C48 
 375      32F3D1
 376 0a68 D7EFDDA5 		.ascii	"\327\357\335\245\334j\334\217A\347\276_\245\277\325"
 376      DC6ADC8F 
 376      41E7BE5F 
 376      A5BFD5
 377 0a77 A8C321F4 		.ascii	"\250\303!\364\0352\322\277~\037\322\177(=\3753\352c"
 377      1D32D2BF 
 377      7E1FD27F 
 377      283DFD33 
 377      EA63
 378 0a89 9BD4777A 		.ascii	"\233\324wzhL\365)\267\015<{\026\257\210\330\331\004"
 378      684CF529 
 378      B70D3C7B 
 378      16AF88D8 
 378      D904
 379 0a9b 7C819C1C 		.ascii	"|\201\234\034r\036\264\252dmV\336\311\034A{=\351\030"
 379      721EB4AA 
 379      646D56DE 
 379      C91C417B 
 379      3DE918
 380 0aae CCA7037B 		.ascii	"\314\247\003{\203\006\373\332\016\230\325\"\006`[i\260"
 380      8306FBDA 
 380      0E98D522 
ARM GAS  /tmp/cc0VoMkl.s 			page 30


 380      06605B69 
 380      B0
 381 0abf 6F1C83E9 		.ascii	"o\034\203\351)\333F\203}k\007\314\352\264\022\300\366"
 381      29DB4683 
 381      7D6B07CC 
 381      EAB412C0 
 381      F6
 382 0ad0 D3603F38 		.ascii	"\323`?8\006\363\231i\011\323C\311x\366C\3345\034\306"
 382      06F39969 
 382      09D343C9 
 382      78F643DC 
 382      351CC6
 383 0ae3 95F228E6 		.ascii	"\225\362(\346\3071\377\004\363\3170\217\333\011\272"
 383      C731FF04 
 383      F3CF308F 
 383      DB09BA
 384 0af2 F6D10BFC 		.ascii	"\366\321\013\374OH\360\373\275\323\030p{[N}~\247r\372"
 384      4F48F0FB 
 384      BDD31870 
 384      7B5B4E7D 
 384      7EA772FA 
 385 0b06 6B586389 		.ascii	"kXc\211<\254(\370\222\246\240>\317)\005>\232\202X\347"
 385      3CAC28F8 
 385      92A6A03E 
 385      CF29053E 
 385      9A8258E7 
 386 0b1a 5EE5E452 		.ascii	"^\345\344R\273\350=\313\210g\367j\226\026.\355\315y"
 386      BBE83DCB 
 386      8867F76A 
 386      96162EED 
 386      CD79
 387 0b2c ED610DEC 		.ascii	"\355a\015\354I\307`\272\353\327\261\246}\024\330b\307"
 387      49C760BA 
 387      EBD7B1A6 
 387      7D14D862 
 387      C7
 388 0b3d 607D7B68 		.ascii	"`}{h\204\242\013\037\240.\354\3059\377\013\346\2470"
 388      84A20B1F 
 388      A02EECC5 
 388      39FF0BE6 
 388      A730
 389 0b4f 3F8DF9D7 		.ascii	"?\215\371\327\372\200\264-\317\270\356*>\226BM:c\306"
 389      FA80B42D 
 389      CFB8EE2A 
 389      3E96424D 
 389      3A63C6
 390 0b62 2EAED5DC 		.ascii	".\256\325\334\266\323s\273>\317\351\252\245\233[XTw"
 390      B6D373BB 
 390      3ECFE9AA 
 390      A59B5B58 
 390      5477
 391 0b74 7DA52DAA 		.ascii	"}\245-\252\355\030\213m\261\203\230b'\272\3413\343\353"
 391      ED188B6D 
 391      B1839862 
 391      27BAE133 
 391      E3EB
 392 0b86 00336FCF 		.ascii	"\0003o\317\321\264%V\215\035\017*\253\306E\\5\266\347"
ARM GAS  /tmp/cc0VoMkl.s 			page 31


 392      D1B42556 
 392      8D1D0F2A 
 392      ABC6455C 
 392      35B6E7
 393 0b99 A55F3538 		.ascii	"\245_58=\217<\333a\\5.\037\302U\243\303\326\252\321"
 393      3D8F3CDB 
 393      615C352E 
 393      1FC255A3 
 393      C3D6AAD1 
 394 0bad 756881BA 		.ascii	"uh\201\272ST\274\315\036$\241\243\327\356\376\312!\312"
 394      5354BCCD 
 394      1E24A1A3 
 394      D7EEFECA 
 394      21CA
 395 0bbf 75ED730C 		.ascii	"u\355s\014\346\323\2015\035\241\300\016\331\001K\341"
 395      E6D38135 
 395      1DA1C00E 
 395      D9014BE1 
 396 0bcf EE9B69B0 		.ascii	"\356\233i\260\243\216\301\364\224-\240\301>\265\003"
 396      A38EC1F4 
 396      942DA0C1 
 396      3EB503
 397 0bde 96C2DD3F 		.ascii	"\226\302\335?E\203\305\035\203\351)k\245\301\276\264"
 397      4583C51D 
 397      83E9296B 
 397      A5C1BEB4 
 398 0bee 0366F50A 		.ascii	"\003f\365\012\007\300\226\320`\247\035\203\351)[J\203"
 398      07C096D0 
 398      60A71D83 
 398      E9295B4A 
 398      83
 399 0bff FDD50E98 		.ascii	"\375\325\016\230\317\232\262\3454\330E\307`>3\223P>"
 399      CF9AB2E5 
 399      34D845C7 
 399      603E3393 
 399      503E
 400 0c11 B445F1EC 		.ascii	"\264E\361\354\367\350\026/\241\263\272\214y'\346]\230"
 400      F7E8162F 
 400      A1B3BA8C 
 400      7927E65D 
 400      98
 401 0c22 77633ECD 		.ascii	"wc>\315M\362z\314\0330\237\211\371l\267\015\347v\201"
 401      4DF27ACC 
 401      1B309F89 
 401      F96CB70D 
 401      E77681
 402 0c35 766E971C 		.ascii	"vn\227\034\273\242\224\214$\177\"\303\263oa\304\367"
 402      BBA2948C 
 402      247F22C3 
 402      B36F61C4 
 402      F7
 403 0c46 365EE13D 		.ascii	"6^\341=\214\271\214\373\344\006\314\327##\2331\177\033"
 403      8CB98CFB 
 403      E406CCD7 
 403      23239B31 
 403      7F1B
 404 0c58 F37731DF 		.ascii	"\363w1\337\205\3717\230\237\267\343\253\337L^\374\205"
ARM GAS  /tmp/cc0VoMkl.s 			page 32


 404      85F93798 
 404      9FB7E3AB 
 404      DF4C5EFC 
 404      85
 405 0c69 FDB89B6C 		.ascii	"\375\270\233l\267W\366\372J\371\311=O:\275\223\1776"
 405      B757F6FA 
 405      4AF9C93D 
 405      4F3ABD93 
 405      7F36
 406 0c7b BE4A7D6B 		.ascii	"\276J}k2\027\357ow\366X\251zu\024\336\320\207M\317I"
 406      3217EF6F 
 406      77F658A9 
 406      7A7514DE 
 406      D0874DCF 
 407 0c90 8A3B860D 		.ascii	"\212;\206\015\363\346\262$\242\350\3074\241G\037\240"
 407      F3E6B224 
 407      A2E8C734 
 407      A1471FA0 
 408 0ca0 BC8B55DB 		.ascii	"\274\213U\333N\324\020rT\222\232\335\375\260\244{\307"
 408      4ED41072 
 408      54929ADD 
 408      FDB0A47B 
 408      C7
 409 0cb1 832DACE4 		.ascii	"\203-\254\344\336\342N\276\357\315\365&\013\331\011"
 409      DEE24EBE 
 409      EFCDF526 
 409      0BD909
 410 0cc0 DD9A6B64 		.ascii	"\335\232kdA7j\032\227\007\313\\\307\017\355\254\334"
 410      41376A1A 
 410      9707CB5C 
 410      C70FEDAC 
 410      DC
 411 0cd1 9C6B88C9 		.ascii	"\234k\210\311H\030bE\323SnJ\265\233\355H0\305\333\344"
 411      48186245 
 411      D3536E4A 
 411      B59BED48 
 411      30C5DBE4 
 412 0ce5 EF8364C5 		.ascii	"\357\203d\305&\220\034\323\352\030\313ga#\214\376\207"
 412      26901CD3 
 412      EA18CB67 
 412      61238CFE 
 412      87
 413 0cf6 9B3CBB0A 		.ascii	"\233<\273\012\315\344y4\220\015\230o\305\374\011\264"
 413      CDE47934 
 413      900D986F 
 413      C5FC09B4 
 414 0d06 E8F9982F 		.ascii	"\350\371\230/\304\274\225\266\356\033\231\345r[<\336"
 414      C4BC95B6 
 414      EE1B99E5 
 414      725B3CDE 
 415 0d16 F5E37B51 		.ascii	"\365\343{Qr\320&ww?\306\\\303,T'Of%\345\330\333JRO\273"
 415      72D02677 
 415      773FC65C 
 415      C32C5427 
 415      4F6625E5 
 416 0d30 AFC1924B 		.ascii	"\257\301\222K\371\305A\332`\"q\335xtR\365\017t\236\271"
 416      F9C541DA 
ARM GAS  /tmp/cc0VoMkl.s 			page 33


 416      602271DD 
 416      787452F5 
 416      0F749EB9 
 417 0d44 098F4696 		.ascii	"\011\217F\226\273I,\361V\237\364\261\204\016\206\320"
 417      BB492CF1 
 417      569FF4B1 
 417      840E86D0 
 418 0d54 F1ACDB10 		.ascii	"\361\254\333\020Kt\222\237\260\222\332\364/K\273W\220"
 418      4B74929F 
 418      B092DAF4 
 418      2F4BBB57 
 418      90
 419 0d65 9BE2DA4F 		.ascii	"\233\342\332Oj\367\340\360\244\247:\230\254\373\275"
 419      6AF7E0F0 
 419      A4A73A98 
 419      ACFBBD
 420 0d74 6CBA5D80 		.ascii	"l\272]\200\034\233\177\331#\317\311\325\354eu\236rv"
 420      1C9B7FD9 
 420      23CFC9D5 
 420      EC65759E 
 420      7276
 421 0d86 A436EDB1 		.ascii	"\2446\355\261\365_\345\330`\236\2670\030\355wn\034s"
 421      F55FE5D8 
 421      609EB730 
 421      18ED776E 
 421      1C73
 422 0d98 D0C8826E 		.ascii	"\320\310\202n\3244K\024p\320r\256\325\205\022\031\230"
 422      D4344B14 
 422      70D072AE 
 422      D5851219 
 422      98
 423 0da9 4DEE6E1B 		.ascii	"M\356n\033\321\034\305\255rl\301\007,1\000\304:a\007"
 423      D11CC5AD 
 423      726CC107 
 423      2C3100C4 
 423      3A6107
 424 0dbc CB326295 		.ascii	"\3132b\225c\213:<r\243&\333\266\021\255i\354x\215c\341"
 424      638B3A3C 
 424      72A326DB 
 424      B611AD69 
 424      EC788D63 
 425 0dd1 BE6A215C 		.ascii	"\276j!\\\355\014\215c\3168fA/\216\326\214\326\002M9"
 425      ED0C8D63 
 425      CE386641 
 425      2F8ED68C 
 425      D6024D39 
 426 0de5 0CF4EBCF 		.ascii	"\014\364\353\317t\0119\353\0343\260\336\202\201>\011"
 426      740939EB 
 426      1C33B0DE 
 426      82813E09 
 427 0df5 062EF650 		.ascii	"\006.\366Pp\263\243d\263w>f\037\332\364x\366\317n\342"
 427      70B3A364 
 427      B3773E66 
 427      1FDAF478 
 427      F6CF6EE2 
 428 0e09 849E4337 		.ascii	"\204\236C7\263\022\363\0270\177\011\363W0_k'\270X\226"
 428      B312F317 
ARM GAS  /tmp/cc0VoMkl.s 			page 34


 428      307F09F3 
 428      57305F6B 
 428      27B85896 
 429 0e1d F4C0AA6B 		.ascii	"\364\300\252kI\254\320\211g\365\012\007\317>\220<\341"
 429      49ACD089 
 429      67F50A07 
 429      CF3E903C 
 429      E1
 430 0e2e 8475D3E0 		.ascii	"\204u\323\340>nb\236\223\345f\342\340\016\221\335\323"
 430      3E6E629E 
 430      93E566E2 
 430      E00E91DD 
 430      D3
 431 0e3f 68059B63 		.ascii	"h\005\233cf\366\305W\245\356\033MiP)P:\313\233\204\321"
 431      66F6C557 
 431      A5EE1B4D 
 431      69502950 
 431      3ACB9B84 
 432 0e54 CAF01C33 		.ascii	"\312\360\0343;M7$R\355v\351\241\001\332v\267\311\330"
 432      3B4D3724 
 432      52ED76E9 
 432      A101DA76 
 432      B7C9D8
 433 0e67 CD706D4A 		.ascii	"\315pmJ\345\3457\314J2\317\25766\364u+\216\227I1\232"
 433      E5E537CC 
 433      4A32CFAF 
 433      3636F475 
 433      2B8E9749 
 434 0e7d 2AAB4D6E 		.ascii	"*\253Mn\335\177\022P<z\354u\241]>\017A\200\003g\036"
 434      DD7F1250 
 434      3C7AEC75 
 434      A15D3E0F 
 434      41800367 
 435 0e92 D33B7345 		.ascii	"\323;sE\006\352\203\207\231\251\374\250M\236\306\376"
 435      06EA8387 
 435      99A9FCA8 
 435      4D9EC6FE 
 436 0ea2 9131E522 		.ascii	"\2211\345\"yQ\014B1\267\207l\362\373\262VZC\032h\012"
 436      79510C42 
 436      31B7876C 
 436      F2FBB256 
 436      5A431A68 
 437 0eb7 A094B512 		.ascii	"\240\224\265\022\313\230\314\3523}\315fU\356\014\252"
 437      CB98CCEA 
 437      337DCD66 
 437      55EE0CAA 
 438 0ec7 F3C9B35B 		.ascii	"\363\311\263[0d\333nk>\237&\023\243\220\370\022\002"
 438      3064DB6E 
 438      6B3E9F26 
 438      13A390F8 
 438      1202
 439 0ed9 6FB79C18 		.ascii	"o\267\234\030\225N\363\211\261\032M\345`\247\351\304"
 439      954EF389 
 439      B11A4DE5 
 439      60A7E9C4 
 440 0ee9 7CE27C62 		.ascii	"|\342|b\3367\233\030\203\204\326\233K\250\313(\241="
 440      DE379B18 
ARM GAS  /tmp/cc0VoMkl.s 			page 35


 440      8384D69B 
 440      4BA8CB28 
 440      A13D
 441 0efb A92564C5 		.ascii	"\251%d\305\252U7\225\302\275\246\254>\2653\267iZ\274"
 441      AA553795 
 441      C2BDA6AC 
 441      3EB533B7 
 441      695ABC
 442 0f0e BBFB4607 		.ascii	"\273\373F\007\274\036L\241\204<;D\357\002\224G\203$"
 442      BC1E4CA1 
 442      843C3B44 
 442      EF029447 
 442      8324
 443 0f20 62E69238 		.ascii	"b\346\2228 \030$q\300\226\256t\220nC\210\351\237@\\"
 443      20182471 
 443      C096AE74 
 443      906E4388 
 443      E99F405C 
 444 0f34 EB5E4328 		.ascii	"\353^C(\207\001\214\263j\267\3236\272YI\335\252\227"
 444      87018CB3 
 444      6AB7D336 
 444      BA5949DD 
 444      AA97
 445 0f46 2AAB233D 		.ascii	"*\253#=\245\036o\212\2578\370\204\314:\226\373g)\"9"
 445      A51E6F8A 
 445      AF38F884 
 445      CC3A96FB 
 445      67292239 
 446 0f5a 2536B2EA 		.ascii	"%6\262\352\0317\361\325\252?K\343\253\2773\314\224\306"
 446      1937F1D5 
 446      AA3F4BE3 
 446      ABBF33CC 
 446      94C6
 447 0f6c D75FCCF8 		.ascii	"\327_\314\370\212u\035\265\342\313\342\347?\004\352"
 447      8A751DB5 
 447      E2CBE2E7 
 447      3F04EA
 448 0f7b A4519DE2 		.ascii	"\244Q\235\342\264:Y,)\211gu#`\371<\327M\2677\310\214"
 448      B43A592C 
 448      29896775 
 448      2360F93C 
 448      D74DB737 
 449 0f91 DA27F520 		.ascii	"\332'\365 \353\234\233~ij\020\313\343\375\314"
 449      EB9C9B7E 
 449      696A10CB 
 449      E3FDCC
 450 0fa0 C5F28DA9 		.ascii	"\305\362\215\251X\272?\351\315t\237O)\027\325\353\031"
 450      58BA3FE9 
 450      CD749F4F 
 450      2917D5EB 
 450      19
 451 0fb1 E85A6241 		.ascii	"\350ZbA\327\267\246t5\235\224=\216=]GJ\262\214\342O"
 451      D7B7A674 
 451      359D943D 
 451      8E3D5D47 
 451      4AB28CE2 
 452 0fc6 375DE65A 		.ascii	"7]\346Z\367\202\005\033\235\246\326\264h\333\231\341"
ARM GAS  /tmp/cc0VoMkl.s 			page 36


 452      F782051B 
 452      9DA6D6B4 
 452      68DB99E1 
 453 0fd6 ADEBE419 		.ascii	"\255\353\344\031\263\345+\335\217\261\366\025\257\313"
 453      B3E52BDD 
 453      8FB1F615 
 453      AFCB
 454 0fe4 C809D115 		.ascii	"\310\011\321\025\003%[-(\351\326S\362O\314\263\262|"
 454      03255B2D 
 454      28E9D653 
 454      F24FCCB3 
 454      B27C
 455 0ff6 10429833 		.ascii	"\020B\2303\323\360w\352d\317"
 455      D3F077EA 
 455      64CF
 456 1000 D2CDDEA8 		.ascii	"\322\315\336\250\305\026\273\022(fK\030\301\233\226"
 456      C516BB12 
 456      28664B18 
 456      C19B96
 457 100f A1E0916A 		.ascii	"\241\340\221jU&\006]%\221\262\025'\3233\022\272j\350"
 457      5526065D 
 457      2591B215 
 457      27D33312 
 457      BA6AE8
 458 1022 B52E45AF 		.ascii	"\265.E\257z\313^\304$\255z\315\260\354\325\234b\254"
 458      7ACB5EC4 
 458      24AD7ACD 
 458      B0ECD59C 
 458      62AC
 459 1034 06CB5E9F 		.ascii	"\006\313^\237\245\030\253\321\262\327\371\024\275f&"
 459      A518ABD1 
 459      B2D7F914 
 459      BD6626
 460 1043 7B5984F1 		.ascii	"{Y\204\361\003\364\233\006\236\235\225\3414\212\237"
 460      03F49B06 
 460      9E9D95E1 
 460      348A9F
 461 1052 9D611EC5 		.ascii	"\235a\036\305kj\241\"\305\032\345Y\354\264\265\327'"
 461      6B6AA122 
 461      C51AE559 
 461      ECB4B5D7 
 461      27
 462 1063 E2B1115A 		.ascii	"\342\261\021ZC\372\267\315;\367j\367q\347d\020\210\003"
 462      43FAB7CD 
 462      3BF76AF7 
 462      71E76410 
 462      8803
 463 1075 06AD7300 		.ascii	"\006\255s\000\326\3262\347zrD?\027\201\216\031\200x"
 463      D6D632E7 
 463      7A72443F 
 463      17818E19 
 463      8078
 464 1087 D66338A1 		.ascii	"\326c8\241\362\350O\250<\312\375X\374(\367c=\312Q\025"
 464      F2E84FA8 
 464      3CCAFD58 
 464      FC28F763 
 464      3DCA5115 
ARM GAS  /tmp/cc0VoMkl.s 			page 37


 465 109b F93CC6FC 		.ascii	"\371<\306\374\254\276\206)\354J1\205M\226\023\337\221"
 465      ACBE8629 
 465      EC4A3185 
 465      4D9613DF 
 465      91
 466 10ac A2D77CCB 		.ascii	"\242\327|\313^d~\255z5'{1W\227\210\241\311\202\030\315"
 466      5E647EAD 
 466      7A35277B 
 466      31579788 
 466      A1C98218 
 467 10c1 0F1505FC 		.ascii	"\017\025\005\374Q\241&\032\026\007V29c\212\212\313\360"
 467      51A1261A 
 467      16075632 
 467      39638A8A 
 467      CBF0
 468 10d3 C12F65DE 		.ascii	"\301/e\336;\376\001_1\323'Y\025\225xI\360\214\031?\262"
 468      3BFE015F 
 468      31D32759 
 468      15957849 
 468      F08C193F 
 469 10e8 B87CCC1F 		.ascii	"\270|\314\037F\271\307\224\214\035\345\276\373\201\262"
 469      46B9C794 
 469      8C1DE5BE 
 469      FB81B2
 470 10f7 0733F00F 		.ascii	"\0073\360\0177\345\327F\305|^\254\276\255&\\#\334&\360"
 470      37E5D746 
 470      C57C5EAC 
 470      BEAD265C 
 470      23DC26F0 
 471 110b 8F84F243 		.ascii	"\217\204\362C5\201\252\332\240\220\037\225\202\241\032"
 471      3581AADA 
 471      A0901F95 
 471      82A11A
 472 111a 0906C8AA 		.ascii	"\011\006\310\252\205\357\241~ip\212\306\325|\2402T#"
 472      85EFA17E 
 472      69708AC6 
 472      D57CA032 
 472      5423
 473 112c E4FB8342 		.ascii	"\344\373\203B\005_[%\371\245\251\021!\012\235\275~\277"
 473      055F5B25 
 473      F9A5A911 
 473      210A9DBD 
 473      7EBF
 474 113e DA3D8B0F 		.ascii	"\332=\213\017\006E!\032-\311\257\014W\013\371\201pp"
 474      0645211A 
 474      2DC9AF0C 
 474      570BF981 
 474      7070
 475 1150 6A7E5098 		.ascii	"j~P\230\234\017\035\037\011\205\243\371\222X[\363h>"
 475      9C0F1D1F 
 475      0985A3F9 
 475      92585BF3 
 475      683E
 476 1162 142AF9AA 		.ascii	"\024*\371\252\374HX\224\242\371e\345\343\006\025\345"
 476      FC485894 
 476      A2F965E5 
 476      E30615E5 
ARM GAS  /tmp/cc0VoMkl.s 			page 38


 477 1172 8F1D5B92 		.ascii	"\217\035[\222\017\014M.D\276\253\252\202\004\026*\024"
 477      0F0C4D2E 
 477      44BEABAA 
 477      8204162A 
 477      14
 478 1183 6914D981 		.ascii	"i\024\331\201\323\310\004\000\350\234\015_\310\276_"
 478      D3C80400 
 478      E89C0D5F 
 478      C8BE5F
 479 1192 CA061CFF 		.ascii	"\312\006\034\377\003\343\307\214\037S\356!\305\262\362"
 479      03E3C78C 
 479      1F53EE21 
 479      C5B2F2
 480 11a1 09F7136C 		.ascii	"\011\367\023l\177\351\250\221%\017\376\212\224\024\311"
 480      7FE9A891 
 480      250FFE8A 
 480      9414C9
 481 11b0 F9CB27D2 		.ascii	"\371\313'\322O\245\023\261\347\330\011\305\367\215*"
 481      4FA513B1 
 481      E7D809C5 
 481      F78D2A
 482 11bf C901BC70 		.ascii	"\311\001\274p\244:\034$\200\023\356\0377\241d\224\037"
 482      A43A1C24 
 482      8013EE1F 
 482      37A16494 
 482      1F
 483 11d0 FE7A955A 		.ascii	"\376z\225Z,\033\007\002\367\227\214\372\303\230\342"
 483      2C1B0702 
 483      F7978CFA 
 483      C398E2
 484 11df 51FD7475 		.ascii	"Q\375tu\243'\224\225g\205#~\322\325C\3044\250\010\020"
 484      A3279495 
 484      6785237E 
 484      D2D543C4 
 484      34A80810 
 485 11f3 14899162 		.ascii	"\024\211\221bN\240*\034x\324\037\215\010B0\017\006\011"
 485      4EA02A1C 
 485      78D41F8D 
 485      0842300F 
 485      0609
 486 1205 D64A5303 		.ascii	"\326JS\003S\003U0N^Yy\211\277\344\201\362\007\375\305"
 486      53035530 
 486      4E5E5979 
 486      89BFE481 
 486      F207FDC5 
 487 1219 0F168F1D 		.ascii	"\017\026\217\035\325\357\236\221e\345\324\263\277\350"
 487      D5EF9E91 
 487      65E5D4B3 
 487      BFE8
 488 1227 EF8C3585 		.ascii	"\357\2145\205C\374\303\262\011\202\037!\010\227\305"
 488      43FCC3B2 
 488      09821F21 
 488      0897C5
 489 1236 E19A8AD0 		.ascii	"\341\232\212\320\244\314\000~\021\251TT\361\223\242"
 489      A4CC007E 
 489      11A95454 
 489      F193A2
ARM GAS  /tmp/cc0VoMkl.s 			page 39


 490 1245 A0468228 		.ascii	"\240F\202(\206\305\350\240t\242\025\245\204d\003\225"
 490      86C5E8A0 
 490      74A215A5 
 490      84640395 
 491 1255 D5521D51 		.ascii	"\325R\035Q\226\352ZI\250\363K\031\370=\324\021BtjTS"
 491      96EA5A49 
 491      A8F34B19 
 491      F83DD411 
 491      42746A54 
 492 126a 9B3E52A5 		.ascii	"\233>R\245(\360\301\250\377\217\265B-\260\3337P\351"
 492      28F0C1A8 
 492      FF8FB542 
 492      2DB0DB37 
 492      50E9
 493 127c D7550D76 		.ascii	"\327U\015v\206\034\250$Z\343Q \374\2227\001\227\031"
 493      861CA824 
 493      5AE35120 
 493      FC923701 
 493      9719
 494 128e F1D70875 		.ascii	"\361\327\010u\022|EDa\362h\033\250\212j\216,\035W<\256"
 494      127C4544 
 494      61F2681B 
 494      A88A6A8E 
 494      2C1D573C 
 495 12a3 0E5A5647 		.ascii	"\016ZVGBU\304&\357-.\206\346\032\375YRD\014\205\375"
 495      4255C426 
 495      EF2D2E86 
 495      E61AFD59 
 495      52440C85 
 496 12b8 0A6E289C 		.ascii	"\012n(\234\005\"\006qH\303\034\343W\006\302\242@\254"
 496      05220671 
 496      48C31CE3 
 496      5706C2A2 
 496      40AC
 497 12ca 9C54FB41 		.ascii	"\234T\373A/\002R\335\277\365\016\305?\371\216j\"\004"
 497      2F0252DD 
 497      BFF50EC5 
 497      3FF98E6A 
 497      2204
 498 12dc 51980446 		.ascii	"Q\230\004F\354\227\\\321\302!\220\356\2004\024\3220"
 498      EC975CD1 
 498      C22190EE 
 498      803414D2 
 498      30
 499 12ed 57B4A800 		.ascii	"W\264\250\000R!\244\"H\203 \015\206t;$hW\004\355\212"
 499      5221A422 
 499      4883200D 
 499      86743B24 
 499      685704ED 
 500 1302 A05D11B4 		.ascii	"\240]\021\264\033\004\355\006\025r\342`N\274\235\023"
 500      1B04ED06 
 500      1572E260 
 500      4EBC9D13 
 501 1312 8770E21D 		.ascii	"\207p\342\035\2348\224\023\207\271\304\302\002H\205"
 501      9C389413 
 501      87B9C4C2 
 501      024885
ARM GAS  /tmp/cc0VoMkl.s 			page 40


 502 1321 5C95085F 		.ascii	"\\\225\010_\2032\"~\2406\213Hx\212 \302w\270*(\210\356"
 502      8332227E 
 502      A0368B48 
 502      788A20C2 
 502      77B82A28 
 503 1337 40252F12 		.ascii	"@%/\022\261\363\325\202GR\355\020\376\210\245,I1#xF"
 503      B1F3D582 
 503      4752ED10 
 503      FE88A52C 
 503      49312378 
 504 134c 5DCC9244 		.ascii	"]\314\222D\241\"\212r$\205\214\352\350$\370\243j\036"
 504      A1228A72 
 504      24858CEA 
 504      E824F8A3 
 504      6A1E
 505 135e E05BD452 		.ascii	"\340[\324R\246\030\234\012\177\362\010u!\011\304\"d"
 505      A6189C0A 
 505      7FF20875 
 505      2109C422 
 505      64
 506 136f 4E91C28F 		.ascii	"N\221\302\217\374w$G\230,\324H\325|\364Q\242\323SH\301"
 506      FC772447 
 506      982CD448 
 506      D57CF451 
 506      A2D35348 
 507 1384 15F1D7E6 		.ascii	"\025\361\327\346i\232T\025\212\202\247\352C\351\026"
 507      699A5415 
 507      8A82A7EA 
 507      43E916
 508 1393 A9F146FC 		.ascii	"\251\361F\374S\370\220\024\252\231\224\015\246\031\235"
 508      53F89014 
 508      AA99940D 
 508      A6199D
 509 13a2 84FA9681 		.ascii	"\204\372\226\201E\250\020\"B\0158\306I\320\0124\236"
 509      45A81022 
 509      420D38C6 
 509      49D00A34 
 509      9E
 510 13b3 B4CF26B4 		.ascii	"\264\317&\264\361U8\317P\031\011\207\253\262\252\025"
 510      F15538CF 
 510      50190987 
 510      ABB2AA15 
 511 13c3 2D85EFF0 		.ascii	"-\205\357\360\224\032A\314\254F-\273\303\221\322\252"
 511      941A41CC 
 511      AC462DBB 
 511      C391D2AA 
 512 13d3 34C194F5 		.ascii	"4\301\224\365W\365\026D \210BM\000\004\224\251Ty\301"
 512      57F51644 
 512      2088424D 
 512      000494A9 
 512      5479C1
 513 13e6 68895FF5 		.ascii	"h\211_\365K\350?\300\3065\377A\212n\362'\257X\027\254"
 513      4BE83FC0 
 513      C635FF41 
 513      8A6EF227 
 513      AF5817AC 
 514 13fa E68958BD 		.ascii	"\346\211X\275\222V\272\307\251\017\306\374\236\301u"
ARM GAS  /tmp/cc0VoMkl.s 			page 41


 514      9256BAC7 
 514      A90FC6FC 
 514      9EC175
 515 1409 75B02C54 		.ascii	"u\260,T\203\304\001\007\350\2723\035\014\360\234_<\256"
 515      83C40107 
 515      E8BA331D 
 515      0CF09C5F 
 515      3CAE
 516 141b 6C4C1900 		.ascii	"lL\031\000(=+\006\027\024\326\021'\334\277d\334H\177"
 516      283D2B06 
 516      1714D611 
 516      27DCBF64 
 516      DC487F
 517 142e 194C2F5F 		.ascii	"\031L/_\355/\007\253)\021*\270\342R\367\370\222\362"
 517      ED2F07AB 
 517      29112AB8 
 517      E252F7F8 
 517      92F2
 518 1440 52D7FD23 		.ascii	"R\327\375#K\335\343\012HV8\262\324uOqif\024\033\272"
 518      4BDDE30A 
 518      485638B2 
 518      D4754F71 
 518      6966141B 
 519 1455 43150131 		.ascii	"C\025\00113\024\255\014UH\336\250PU\021\252\011\012"
 519      3314AD0C 
 519      5548DEA8 
 519      505511AA 
 519      090A
 520 1467 75999385 		.ascii	"u\231\223\205\200\024\026\373'(\363+\255\301\011\301"
 520      801416FB 
 520      2728F32B 
 520      ADC109C1 
 521 1477 83584772 		.ascii	"\203XGr\251\216,\223\332@\256\342\322BHE\356\011#K\013"
 521      A98E2C93 
 521      DA40AEE2 
 521      D2424845 
 521      EE09234B 
 522 148c 4956C495 		.ascii	"IV\304\225\224\272\312\240\262\254\264\310U\\\\\232"
 522      94BACAA0 
 522      B2ACB4C8 
 522      555C5C9A 
 523 149c 515E3AA6 		.ascii	"Q^:\246l\224\373\236\261@\014H\330K<S\250\232\350%\371"
 523      6C94FB9E 
 523      B1400C48 
 523      D84B3C53 
 523      A89AE825 
 524 14b1 0AD74A6E 		.ascii	"\012\327Jn\242\275\031R\335\335\265\025\031\"\311\373"
 524      A2BD1952 
 524      DDDDB515 
 524      1922C9FB 
 525 14c1 696B7375 		.ascii	"iksu\364\366!\005w\014\0140\306\032\260<\245\004\223"
 525      F4F62105 
 525      770C0C30 
 525      C61AB03C 
 525      A50493
 526 14d4 A72CDEAE 		.ascii	"\247,\336\256\000_\345\251\342\243R\271P\035\361\222"
 526      005FE5A9 
ARM GAS  /tmp/cc0VoMkl.s 			page 42


 526      E2A352B9 
 526      501DF192 
 527 14e4 C2FD6481 		.ascii	"\302\375d\201\364 ,\314\264GT\0139j\307PMHb\2533\203"
 527      F4202CCC 
 527      B447540B 
 527      396AC750 
 527      4D4862AB 
 528 14fa 08EC7984 		.ascii	"\010\354y\204\217\012#a\2023\374w\203\312im\242R8\222"
 528      8F0A2361 
 528      8233FC77 
 528      83CA696D 
 528      A2523892 
 529 150e 4532E037 		.ascii	"E2\3407W\255\003TA\272!\361\300\007q\234ZQ \003\013"
 529      57AD0354 
 529      41BA21F1 
 529      C007719C 
 529      5A512003 
 530 1523 222F41D1 		.ascii	"\"/A\321\023Q\353r\244d\3455Tl!\3625Q> \371\037\251"
 530      1351EB72 
 530      A464E535 
 530      546C21F2 
 530      35513E20 
 531 153a ADC84B56 		.ascii	"\255\310KV\023\222\362\350p#\034\351\337\263Sv\240\262"
 531      1392F2E8 
 531      70231CE9 
 531      DFB35376 
 531      A0B2
 532 154c BC325856 		.ascii	"\2742XV%\010\021/\341\2758\\[\203f<d\260f\306\244\364"
 532      2508112F 
 532      E1BD385C 
 532      5B83663C 
 532      64B066C6 
 533 1562 7F8B5F59 		.ascii	"\177\213_YI"
 533      49
 534              		.text
 535              		.section	.gnu.lto_.symtab.23c9c213ab130717,"",%progbits
 536 0000 6D733536 		.ascii	"ms5607_init\000\000\000\000\000\000\000\000\000\000"
 536      30375F69 
 536      6E697400 
 536      00000000 
 536      00000000 
 537 0015 00001A02 		.ascii	"\000\000\032\002\000\000ms5607_stop\000\000\000\000"
 537      00006D73 
 537      35363037 
 537      5F73746F 
 537      70000000 
 538 002a 00000000 		.ascii	"\000\000\000\000\000\000\000\000?\002\000\000ms5607"
 538      00000000 
 538      3F020000 
 538      6D733536 
 538      3037
 539 003c 5F726573 		.ascii	"_reset\000\000\000\000\000\000\000\000\000\000\000\000"
 539      65740000 
 539      00000000 
 539      00000000 
 539      0000
 540 004e 4B020000 		.ascii	"K\002\000\000ms5607_readPressureTemperature\000\000"
ARM GAS  /tmp/cc0VoMkl.s 			page 43


 540      6D733536 
 540      30375F72 
 540      65616450 
 540      72657373 
 541 0072 00000000 		.ascii	"\000\000\000\000\000\000\000\000\000\000Q\002\000\000"
 541      00000000 
 541      00005102 
 541      0000
 542 0080 49324353 		.ascii	"I2CSensor_transact_buf\000\000\002\000\000\000\000\000"
 542      656E736F 
 542      725F7472 
 542      616E7361 
 542      63745F62 
 543 009e 00000000 		.ascii	"\000\000\000\000]\002\000\000I2CSensor_init\000\000"
 543      5D020000 
 543      49324353 
 543      656E736F 
 543      725F696E 
 544 00b6 02000000 		.ascii	"\002\000\000\000\000\000\000\000\000\000d\002\000\000"
 544      00000000 
 544      00006402 
 544      0000
 545 00c4 49324353 		.ascii	"I2CSensor_stop\000\000\002\000\000\000\000\000\000\000"
 545      656E736F 
 545      725F7374 
 545      6F700000 
 545      02000000 
 546 00dc 00006F02 		.ascii	"\000\000o\002\000\000I2CSensor_transact\000\000\002"
 546      00004932 
 546      4353656E 
 546      736F725F 
 546      7472616E 
 547 00f7 00000000 		.ascii	"\000\000\000\000\000\000\000\000\000t\002\000\000ch"
 547      00000000 
 547      00740200 
 547      006368
 548 0106 54686453 		.ascii	"ThdSleep\000\000\002\000\000\000\000\000\000\000\000"
 548      6C656570 
 548      00000200 
 548      00000000 
 548      000000
 549 0119 007C0200 		.ascii	"\000|\002\000\000"
 549      00
 550              		.text
 551              		.section	.gnu.lto_.opts,"",%progbits
 552 0000 272D6D63 		.ascii	"'-mcpu=cortex-m4' '-mfloat-abi=hard' '-mfpu=fpv4-sp"
 552      70753D63 
 552      6F727465 
 552      782D6D34 
 552      2720272D 
 553 0033 2D643136 		.ascii	"-d16' '-mno-thumb-interwork' '-mthumb' '-O2' '-fomi"
 553      2720272D 
 553      6D6E6F2D 
 553      7468756D 
 553      622D696E 
 554 0066 742D6672 		.ascii	"t-frame-pointer' '-falign-functions=16' '-ffunction"
 554      616D652D 
ARM GAS  /tmp/cc0VoMkl.s 			page 44


 554      706F696E 
 554      74657227 
 554      20272D66 
 555 0099 2D736563 		.ascii	"-sections' '-fdata-sections' '-fno-common' '-flto' "
 555      74696F6E 
 555      73272027 
 555      2D666461 
 555      74612D73 
 556 00cc 272D6673 		.ascii	"'-fsingle-precision-constant'\000"
 556      696E676C 
 556      652D7072 
 556      65636973 
 556      696F6E2D 
 557              		.text
 558              		.section	.text.ms5607_init,"ax",%progbits
 559              		.align	2
 560              		.p2align 4,,15
 561              		.global	ms5607_init
 562              		.thumb
 563              		.thumb_func
 564              		.type	ms5607_init, %function
 565              	ms5607_init:
 566              		@ args = 0, pretend = 0, frame = 16
 567              		@ frame_needed = 0, uses_anonymous_args = 0
 568 0000 F0B5     		push	{r4, r5, r6, r7, lr}
 569 0002 214B     		ldr	r3, .L5
 570 0004 214E     		ldr	r6, .L5+4
 571 0006 0446     		mov	r4, r0
 572 0008 8E46     		mov	lr, r1
 573 000a 1746     		mov	r7, r2
 574 000c 93E80700 		ldmia	r3, {r0, r1, r2}
 575 0010 89B0     		sub	sp, sp, #36
 576 0012 05AB     		add	r3, sp, #20
 577 0014 03C3     		stmia	r3!, {r0, r1}
 578 0016 3078     		ldrb	r0, [r6]	@ zero_extendqisi2
 579 0018 1A70     		strb	r2, [r3]
 580 001a 4FF0C80C 		mov	ip, #200
 581 001e 04F13803 		add	r3, r4, #56
 582 0022 05AD     		add	r5, sp, #20
 583 0024 7146     		mov	r1, lr
 584 0026 00F1010E 		add	lr, r0, #1
 585 002a 0093     		str	r3, [sp]
 586 002c 0295     		str	r5, [sp, #8]
 587 002e 3A46     		mov	r2, r7
 588 0030 0025     		movs	r5, #0
 589 0032 00F13007 		add	r7, r0, #48
 590 0036 CDF804C0 		str	ip, [sp, #4]
 591 003a 2046     		mov	r0, r4
 592 003c 86F800E0 		strb	lr, [r6]
 593 0040 04F13403 		add	r3, r4, #52
 594 0044 8DF81B70 		strb	r7, [sp, #27]
 595 0048 8DF81D50 		strb	r5, [sp, #29]
 596 004c 8DF81E50 		strb	r5, [sp, #30]
 597 0050 FFF7FEFF 		bl	I2CSensor_init
 598 0054 2546     		mov	r5, r4
 599 0056 04F10A07 		add	r7, r4, #10
 600 005a A126     		movs	r6, #161
ARM GAS  /tmp/cc0VoMkl.s 			page 45


 601              	.L3:
 602 005c 84F83460 		strb	r6, [r4, #52]
 603 0060 0222     		movs	r2, #2
 604 0062 2046     		mov	r0, r4
 605 0064 0121     		movs	r1, #1
 606 0066 FFF7FEFF 		bl	I2CSensor_transact_buf
 607 006a 94F83820 		ldrb	r2, [r4, #56]	@ zero_extendqisi2
 608 006e 94F83930 		ldrb	r3, [r4, #57]	@ zero_extendqisi2
 609 0072 03EB0223 		add	r3, r3, r2, lsl #8
 610 0076 2B84     		strh	r3, [r5, #32]	@ movhi
 611 0078 0235     		adds	r5, r5, #2
 612 007a 0136     		adds	r6, r6, #1
 613 007c BD42     		cmp	r5, r7
 614 007e F6B2     		uxtb	r6, r6
 615 0080 ECD1     		bne	.L3
 616 0082 0020     		movs	r0, #0
 617 0084 09B0     		add	sp, sp, #36
 618              		@ sp needed
 619 0086 F0BD     		pop	{r4, r5, r6, r7, pc}
 620              	.L6:
 621              		.align	2
 622              	.L5:
 623 0088 00000000 		.word	.LANCHOR0
 624 008c 00000000 		.word	.LANCHOR1
 625              		.size	ms5607_init, .-ms5607_init
 626              		.section	.text.ms5607_stop,"ax",%progbits
 627              		.align	2
 628              		.p2align 4,,15
 629              		.global	ms5607_stop
 630              		.thumb
 631              		.thumb_func
 632              		.type	ms5607_stop, %function
 633              	ms5607_stop:
 634              		@ args = 0, pretend = 0, frame = 0
 635              		@ frame_needed = 0, uses_anonymous_args = 0
 636 0000 08B5     		push	{r3, lr}
 637 0002 FFF7FEFF 		bl	I2CSensor_stop
 638 0006 0020     		movs	r0, #0
 639 0008 08BD     		pop	{r3, pc}
 640              		.size	ms5607_stop, .-ms5607_stop
 641 000a 00BFAFF3 		.section	.text.ms5607_reset,"ax",%progbits
 641      0080
 642              		.align	2
 643              		.p2align 4,,15
 644              		.global	ms5607_reset
 645              		.thumb
 646              		.thumb_func
 647              		.type	ms5607_reset, %function
 648              	ms5607_reset:
 649              		@ args = 0, pretend = 0, frame = 0
 650              		@ frame_needed = 0, uses_anonymous_args = 0
 651              		@ link register save eliminated.
 652 0000 1E23     		movs	r3, #30
 653 0002 80F83430 		strb	r3, [r0, #52]
 654 0006 0121     		movs	r1, #1
 655 0008 0022     		movs	r2, #0
 656 000a FFF7FEBF 		b	I2CSensor_transact_buf
ARM GAS  /tmp/cc0VoMkl.s 			page 46


 657              		.size	ms5607_reset, .-ms5607_reset
 658 000e 00BF     		.section	.text.ms5607_readPressureTemperature,"ax",%progbits
 659              		.align	2
 660              		.p2align 4,,15
 661              		.global	ms5607_readPressureTemperature
 662              		.thumb
 663              		.thumb_func
 664              		.type	ms5607_readPressureTemperature, %function
 665              	ms5607_readPressureTemperature:
 666              		@ args = 0, pretend = 0, frame = 8
 667              		@ frame_needed = 0, uses_anonymous_args = 0
 668 0000 2DE9F047 		push	{r4, r5, r6, r7, r8, r9, r10, lr}
 669 0004 5823     		movs	r3, #88
 670 0006 84B0     		sub	sp, sp, #16
 671 0008 80F83430 		strb	r3, [r0, #52]
 672 000c 8A46     		mov	r10, r1
 673 000e 9146     		mov	r9, r2
 674 0010 0121     		movs	r1, #1
 675 0012 0022     		movs	r2, #0
 676 0014 8046     		mov	r8, r0
 677 0016 0446     		mov	r4, r0
 678 0018 FFF7FEFF 		bl	I2CSensor_transact_buf
 679 001c 0025     		movs	r5, #0
 680 001e 0746     		mov	r7, r0
 681 0020 6420     		movs	r0, #100
 682 0022 FFF7FEFF 		bl	chThdSleep
 683 0026 04F8345F 		strb	r5, [r4, #52]!
 684 002a 0326     		movs	r6, #3
 685 002c 2146     		mov	r1, r4
 686 002e 0122     		movs	r2, #1
 687 0030 03AB     		add	r3, sp, #12
 688 0032 4046     		mov	r0, r8
 689 0034 0096     		str	r6, [sp]
 690 0036 FFF7FEFF 		bl	I2CSensor_transact
 691 003a 4823     		movs	r3, #72
 692 003c 88F83430 		strb	r3, [r8, #52]
 693 0040 2A46     		mov	r2, r5
 694 0042 0121     		movs	r1, #1
 695 0044 0743     		orrs	r7, r7, r0
 696 0046 4046     		mov	r0, r8
 697 0048 FFF7FEFF 		bl	I2CSensor_transact_buf
 698 004c 0743     		orrs	r7, r7, r0
 699 004e 6420     		movs	r0, #100
 700 0050 FFF7FEFF 		bl	chThdSleep
 701 0054 88F83450 		strb	r5, [r8, #52]
 702 0058 2146     		mov	r1, r4
 703 005a 0096     		str	r6, [sp]
 704 005c 4046     		mov	r0, r8
 705 005e 0122     		movs	r2, #1
 706 0060 02AB     		add	r3, sp, #8
 707 0062 FFF7FEFF 		bl	I2CSensor_transact
 708 0066 0743     		orrs	r7, r7, r0
 709 0068 6AD1     		bne	.L11
 710 006a 9DF80D10 		ldrb	r1, [sp, #13]	@ zero_extendqisi2
 711 006e 9DF80CC0 		ldrb	ip, [sp, #12]	@ zero_extendqisi2
 712 0072 9DF80E70 		ldrb	r7, [sp, #14]	@ zero_extendqisi2
 713 0076 B8F82860 		ldrh	r6, [r8, #40]
ARM GAS  /tmp/cc0VoMkl.s 			page 47


 714 007a B8F82430 		ldrh	r3, [r8, #36]
 715 007e 9DF80920 		ldrb	r2, [sp, #9]	@ zero_extendqisi2
 716 0082 9DF80850 		ldrb	r5, [sp, #8]	@ zero_extendqisi2
 717 0086 B8F82000 		ldrh	r0, [r8, #32]
 718 008a 9DF80A40 		ldrb	r4, [sp, #10]	@ zero_extendqisi2
 719 008e 0902     		lsls	r1, r1, #8
 720 0090 01EB0C41 		add	r1, r1, ip, lsl #16
 721 0094 3944     		add	r1, r1, r7
 722 0096 A1EB0621 		sub	r1, r1, r6, lsl #8
 723 009a 01FB03F3 		mul	r3, r1, r3
 724 009e 002B     		cmp	r3, #0
 725 00a0 4FEA0222 		lsl	r2, r2, #8
 726 00a4 4FEA0040 		lsl	r0, r0, #16
 727 00a8 B8BF     		it	lt
 728 00aa 7F33     		addlt	r3, r3, #127
 729 00ac 02EB0542 		add	r2, r2, r5, lsl #16
 730 00b0 00EBE313 		add	r3, r0, r3, asr #7
 731 00b4 2244     		add	r2, r2, r4
 732 00b6 82FB0323 		smull	r2, r3, r2, r3
 733 00ba 002A     		cmp	r2, #0
 734 00bc 73F10000 		sbcs	r0, r3, #0
 735 00c0 49DB     		blt	.L24
 736              	.L13:
 737 00c2 B8F82660 		ldrh	r6, [r8, #38]
 738 00c6 B8F82200 		ldrh	r0, [r8, #34]
 739 00ca 540D     		lsrs	r4, r2, #21
 740 00cc 01FB06F2 		mul	r2, r1, r6
 741 00d0 002A     		cmp	r2, #0
 742 00d2 B8BF     		it	lt
 743 00d4 3F32     		addlt	r2, r2, #63
 744 00d6 44EAC324 		orr	r4, r4, r3, lsl #11
 745 00da 5D15     		asrs	r5, r3, #21
 746 00dc 4304     		lsls	r3, r0, #17
 747 00de 03EBA212 		add	r2, r3, r2, asr #6
 748 00e2 A61A     		subs	r6, r4, r2
 749 00e4 65EBE277 		sbc	r7, r5, r2, asr #31
 750 00e8 002E     		cmp	r6, #0
 751 00ea 77F10003 		sbcs	r3, r7, #0
 752 00ee 2BDB     		blt	.L25
 753              	.L15:
 754 00f0 B8F82A30 		ldrh	r3, [r8, #42]
 755 00f4 DFED1B7A 		flds	s15, .L26
 756 00f8 01FB03F1 		mul	r1, r1, r3
 757 00fc F40B     		lsrs	r4, r6, #15
 758 00fe C915     		asrs	r1, r1, #23
 759 0100 44EA4744 		orr	r4, r4, r7, lsl #17
 760 0104 01F5FA61 		add	r1, r1, #2000
 761 0108 07EE101A 		fmsr	s14, r1	@ int
 762 010c 06EE104A 		fmsr	s12, r4	@ int
 763 0110 B8EEC77A 		fsitos	s14, s14
 764 0114 F8EEC66A 		fsitos	s13, s12
 765 0118 27EE277A 		fmuls	s14, s14, s15
 766 011c 66EEA77A 		fmuls	s15, s13, s15
 767 0120 88ED0B7A 		fsts	s14, [r8, #44]
 768 0124 C8ED0C7A 		fsts	s15, [r8, #48]
 769 0128 BAF1000F 		cmp	r10, #0
 770 012c 01D0     		beq	.L16
ARM GAS  /tmp/cc0VoMkl.s 			page 48


 771 012e CAED007A 		fsts	s15, [r10]
 772              	.L16:
 773 0132 B9F1000F 		cmp	r9, #0
 774 0136 03D0     		beq	.L11
 775 0138 D8F82C30 		ldr	r3, [r8, #44]	@ float
 776 013c C9F80030 		str	r3, [r9]	@ float
 777              	.L11:
 778 0140 0020     		movs	r0, #0
 779 0142 04B0     		add	sp, sp, #16
 780              		@ sp needed
 781 0144 BDE8F087 		pop	{r4, r5, r6, r7, r8, r9, r10, pc}
 782              	.L25:
 783 0148 47F6FF72 		movw	r2, #32767
 784 014c 0023     		movs	r3, #0
 785 014e B618     		adds	r6, r6, r2
 786 0150 47EB0307 		adc	r7, r7, r3
 787 0154 CCE7     		b	.L15
 788              	.L24:
 789 0156 044C     		ldr	r4, .L26+4
 790 0158 0025     		movs	r5, #0
 791 015a 1219     		adds	r2, r2, r4
 792 015c 43EB0503 		adc	r3, r3, r5
 793 0160 AFE7     		b	.L13
 794              	.L27:
 795 0162 00BF     		.align	2
 796              	.L26:
 797 0164 0AD7233C 		.word	1008981770
 798 0168 FFFF1F00 		.word	2097151
 799              		.size	ms5607_readPressureTemperature, .-ms5607_readPressureTemperature
 800 016c AFF30080 		.section	.rodata
 801              		.align	2
 802              		.set	.LANCHOR0,. + 0
 803              	.LC0:
 804 0000 4D533536 		.ascii	"MS5607-X\000"
 804      30372D58 
 804      00
 805 0009 0000     		.space	2
 806 000b 00       		.section	.bss.sensCount,"aw",%nobits
 807              		.set	.LANCHOR1,. + 0
 808              		.type	sensCount, %object
 809              		.size	sensCount, 1
 810              	sensCount:
 811 0000 00       		.space	1
 812              		.comm	__gnu_lto_v1,1,1
 813              		.ident	"GCC: (GNU Tools for ARM Embedded Processors) 4.8.4 20140526 (release) [ARM/embedded-4_8-br
ARM GAS  /tmp/cc0VoMkl.s 			page 49

