ARM GAS  /tmp/ccwXRxw7.s 			page 1


   1              		.syntax unified
   2              		.cpu cortex-m4
   3              		.eabi_attribute 27, 3
   4              		.eabi_attribute 28, 1
   5              		.fpu fpv4-sp-d16
   6              		.eabi_attribute 20, 1
   7              		.eabi_attribute 21, 1
   8              		.eabi_attribute 23, 3
   9              		.eabi_attribute 24, 1
  10              		.eabi_attribute 25, 1
  11              		.eabi_attribute 26, 1
  12              		.eabi_attribute 30, 2
  13              		.eabi_attribute 34, 1
  14              		.eabi_attribute 18, 4
  15              		.thumb
  16              		.file	"ms5607.c"
  17              		.section	.gnu.lto_.jmpfuncs.1c0eb68ee7df4850,"",%progbits
  18 0000 789CAD8D 		.ascii	"x\234\255\215\301\015\2000\014\003\355\244(+2\000\237"
  18      C10D8030 
  18      0C03EDA4 
  18      282B3200 
  18      9F
  19 0011 2ED019D9 		.ascii	".\320\031\331\012\222\206H<\350\217|l\311\366E \370"
  19      0A928648 
  19      3CE88F7C 
  19      6CC9F645 
  19      20F8
  20 0023 BAEBD106 		.ascii	"\272\353\321\006\323\206\316\360\262\263\223,\343C\253"
  20      D386CEF0 
  20      B2B3932C 
  20      E343AB
  21 0032 48010E86 		.ascii	"H\001\016\206\310\310\341\354\310\231C\225,2\213\336"
  21      C8C8E1EC 
  21      C8994395 
  21      2C328BDE 
  22 0042 E78A1A3F 		.ascii	"\347\212\032?m\253\360\025\227\015B\302\017\347\254"
  22      6DABF015 
  22      970D42C2 
  22      0FE7AC
  23 0051 297F3070 		.ascii	")\1770p\003\365\212\023a"
  23      03F58A13 
  23      61
  24              		.text
  25              		.section	.gnu.lto_.inline.1c0eb68ee7df4850,"",%progbits
  26 0000 789C6362 		.ascii	"x\234cb`b\300\006d\031!4\013\003\267\3624FFF\006\020"
  26      6062C006 
  26      64192134 
  26      0B03B7F2 
  26      34464646 
  27 0016 9F49E5CE 		.ascii	"\237I\345\316+6\006\256\035\273\031\301\232Xx\031\031"
  27      2B3606AE 
  27      1DBB19C1 
  27      9A587819 
  27      19
  28 0027 982FF033 		.ascii	"\230/\36030p\01020\260O\360\203A\240B\0066>\230\036"
  28      30700832 
  28      30B04FF0 
ARM GAS  /tmp/ccwXRxw7.s 			page 2


  28      8341A042 
  28      06363E98 
  29 003c 20665B20 		.ascii	" f[ \017\326\300\314\003\344\203T03p\012\302\344\031"
  29      0FD6C0CC 
  29      03E48354 
  29      3033700A 
  29      C2E419
  30 004f 5FB033B0 		.ascii	"_\2603\260w\250\203\025\260\362\001\025\201\014`a\273"
  30      77A88315 
  30      B0F20115 
  30      810C6061 
  30      BB
  31 0060 CCF09D81 		.ascii	"\314\360\235\201\221\2351#\2021\223\221\031(\305\230"
  31      919D3123 
  31      82319391 
  31      1928C598 
  32 0070 0E6331C1 		.ascii	"\016c1\301\305\230\340b`\243\030!\346\001\011\216\200"
  32      C598E062 
  32      60A31821 
  32      E601098E 
  32      80
  33 0081 2FCB9919 		.ascii	"/\313\231\031\004z\242\231\030X:\204\033\2006\265\261"
  33      047AA299 
  33      18583A84 
  33      1B8036B5 
  33      B1
  34 0092 B0308149 		.ascii	"\2600\201I\260\000\023\003\323\011\016\001\010\011\322"
  34      B0001303 
  34      D3090E01 
  34      0809D2
  35 00a1 CD0E2459 		.ascii	"\315\016$Y!Ng`\342\006\231\006w\011\036)\006\000\362"
  35      214E6760 
  35      E2069906 
  35      77091E29 
  35      0600F2
  36 00b4 AA23A0   		.ascii	"\252#\240"
  37              		.text
  38              		.section	.gnu.lto_.pureconst.1c0eb68ee7df4850,"",%progbits
  39 0000 789C6362 		.ascii	"x\234cb`b\340d\200\000\026\006)&\011f)\026)\000\002"
  39      6062E064 
  39      80001606 
  39      29260966 
  39      29162900 
  40 0015 D80081   		.ascii	"\330\000\201"
  41              		.text
  42              		.section	.gnu.lto_ms5607_init.1c0eb68ee7df4850,"",%progbits
  43 0000 789C8D54 		.ascii	"x\234\215TMHTQ\024>\347\275y\343\374:N\3158:b\211\333"
  43      4D485451 
  43      143EE7BD 
  43      79E3FC3A 
  43      4ECD383A 
  44 0017 D42CFBD9 		.ascii	"\324,\373\331$\004\265i\321*%\203(\246A\206\267\030"
  44      2404B569 
  44      D12A2583 
  44      28A64186 
  44      B718
  45 0029 03A75A24 		.ascii	"\003\247Z$4w|\"\203 \014A F\240\210e\277Vn\244\010\306"
ARM GAS  /tmp/ccwXRxw7.s 			page 3


  45      34777C22 
  45      83200C41 
  45      2046A088 
  45      65BF566E 
  46 0040 561658BA 		.ascii	"V\026X\272\012\311\305D\320&\210\240V\"\275\316}\367"
  46      0AC9C544 
  46      D02688A0 
  46      5622BDCE 
  46      7DF7
  47 0052 DD71669A 		.ascii	"\335qf\232\320\013s\356\337\371\276\363\235s\356<\005"
  47      D00B73EE 
  47      DFF9BEF3 
  47      9D73EE3C 
  47      05
  48 0063 14A81CDD 		.ascii	"\024\250\034\335\364\273\344\0048A3:\001\225\334\007"
  48      F4BBE404 
  48      3841333A 
  48      0195DC07 
  49 0073 808C4B41 		.ascii	"\200\214KA\207X\250b\261\344r(\352\370\022\000\363h"
  49      8758A862 
  49      B1E47228 
  49      EAF81200 
  49      F368
  50 0085 861F984F 		.ascii	"\206\037\230OC\344\347\200\220VT\207\206\351\013\310"
  50      43E4E780 
  50      90565487 
  50      86E90BC8 
  51 0095 E91CAD30 		.ascii	"\351\034\2550\315\330\355\302\354\330xd\254\300r\354"
  51      CDD8EDC2 
  51      ECD87864 
  51      ACC072EC 
  52 00a5 8F69A28E 		.ascii	"\217i\242\216\0248\204\020G\350\243\015\272\254I\301"
  52      14388410 
  52      47E8A30D 
  52      BAAC49C1 
  53 00b5 722502C9 		.ascii	"r%\002\311\236\315\015\253Sl\3134U\013\326R\025\226"
  53      9ECD0DAB 
  53      536CCB34 
  53      550BD652 
  53      1596
  54 00c7 C4725C3E 		.ascii	"\304r\\>\227_\273\230\313d\231i\246uT\025h\333\206\365"
  54      975FBB98 
  54      CB649969 
  54      A6755415 
  54      68DB86F5 
  55 00db 0998B75A 		.ascii	"\011\230\267Z\264\374\247\337\213\310FY\346\247i\006"
  55      B4FCA7DF 
  55      8BC84659 
  55      E6A76906 
  56 00eb 74742870 		.ascii	"tt(ph'\231\363J\276`\232[3\253\315\373\021b\370\000"
  56      682799F3 
  56      4ABE609A 
  56      5B33ABCD 
  56      FB1162F8 
  57 0100 5B41A379 		.ascii	"[A\243y\232f'\31534\273@G\315\203ID/\255\234>25~2\256"
  57      9A6627CD 
  57      3334BB40 
ARM GAS  /tmp/ccwXRxw7.s 			page 4


  57      47CD8349 
  57      442FAD9C 
  58 011a 5A3A5302 		.ascii	"Z:S\002d\324 m!D\306\035\346\246\236o#d<\015\3344\362"
  58      64D4206D 
  58      2144C61D 
  58      E6A69E6F 
  58      23643C0D 
  59 0131 6D94AF9A 		.ascii	"m\224\257\232\270i\266\343\320\320`\204\261\\K\014g"
  59      B869B6E3 
  59      D0D06084 
  59      B15C4B0C 
  59      67
  60 0142 692F4FE3 		.ascii	"i/O\343\226\304\036\262\324\232^ThRW`\370\315\304{5"
  60      96C41EB2 
  60      D49A5E54 
  60      68525760 
  60      F8CDC47B 
  61 0157 860F91CB 		.ascii	"\206\017\221\313\343\356\373\240\353\036\2338I\365!"
  61      E3EEFBA0 
  61      EB1E9B38 
  61      49F521
  62 0166 6FBA7FB7 		.ascii	"o\272\177\2678\346\027\367\011\324\356\302d\206\261"
  62      38E617F7 
  62      09D4EEC2 
  62      6486B1
  63 0175 3AAAC110 		.ascii	":\252\301\020l\262,_yE\225y\021d\361V\300\310\252\022"
  63      6CB22C5F 
  63      79459579 
  63      1164F156 
  63      C0C8AA12 
  64 0189 E32418BF 		.ascii	"\343$\030\277t\240\340;#.v\303D\340\0122\227M\246u\226"
  64      74A0E03B 
  64      232E76C3 
  64      44E00A32 
  64      974DA675 
  65 019e 91B5C313 		.ascii	"\221\265\303\023F\303O\027\"\011\356\343\256\221\315"
  65      46C34F17 
  65      2209EEE3 
  65      AE91CD
  66 01ad 209CE5BD 		.ascii	" \234\345\275i<^W$\225w\010nR\331\017\300#\016\275\254"
  66      693C5E57 
  66      24957708 
  66      6E52D90F 
  66      C0230EBD 
  67 01c2 A38F2411 		.ascii	"\243\217$\021\314\237@\017\207\327Z\320+\245}\265(^"
  67      CC9F400F 
  67      87D75AD0 
  67      2BA57DB5 
  67      285E
  68 01d4 16C5F82C 		.ascii	"\026\305\370,\206\032\233\3413a\002\325)\260\202\342"
  68      861A9BE1 
  68      336102D5 
  68      29B082E2 
  69 01e4 BE4F52F8 		.ascii	"\276OR\370-\012\227Mq\307\251c]u\212\222\277\344G\230"
  69      2D0A974D 
  69      71C7A963 
  69      5D758A92 
ARM GAS  /tmp/ccwXRxw7.s 			page 5


  69      BFE44798 
  70 01f8 648B9A60 		.ascii	"d\213\232`\000(V/\030\267\343Pj\011\254M`\200\024R\004"
  70      0028562F 
  70      18B7E350 
  70      6A09AC4D 
  70      60801452 
  71 020d CEB26719 		.ascii	"\316\262g\031-G\032\277(\306^\3710,\012\035C\202\270"
  71      2D471ABF 
  71      28C65EF9 
  71      302C0A1D 
  71      4382B8
  72 0220 975A4E7F 		.ascii	"\227ZN\177^\225W\334x\275V\254T0A\177\017\336\301\251"
  72      5E9557DC 
  72      78BD56AC 
  72      5430417F 
  72      0FDEC1A9 
  73 0234 F216DA55 		.ascii	"\362\026\332U\357\246\033;\001\367\016%\260\332RL\204"
  73      EFA61B3B 
  73      01F70E25 
  73      B0DA524C 
  73      84
  74 0245 987936A3 		.ascii	"\230y6\243\205\371\301\177\262\011\307\355\224)\033"
  74      85F9C17F 
  74      B209C7ED 
  74      94291B
  75 0254 FBF55893 		.ascii	"\373\365X\223Br\353-\021?\214\257\353(%\206\022<B\331"
  75      4272EB2D 
  75      113F8CAF 
  75      EB282586 
  75      123C42D9 
  76 0268 5309D3A9 		.ascii	"S\011\323\251\025\317\224\003\323\026p\343y@\372\324"
  76      15CF9403 
  76      D31670E3 
  76      7940FAD4 
  77 0278 B743DBB6 		.ascii	"\267C\333\266\372\363;T\277\\\275-\342\226\344\212$"
  77      FAF33B54 
  77      BF5CBD2D 
  77      E296E48A 
  77      24
  78 0289 8430E369 		.ascii	"\2040\343iQB\003\235rP\304%\2747V\243\362\252\261,\362"
  78      5142039D 
  78      7250C425 
  78      BC3756A3 
  78      F2AAB12C 
  79 029e 0BDC4D68 		.ascii	"\013\334Mh\374_\350(\361Ud\337dE\217ViW\027\351\331"
  79      FC5FE828 
  79      F15564DF 
  79      64458F56 
  79      695717E9 
  80 02b3 6E5743F5 		.ascii	"nWC\365\250\252]\373p\261UM\"\200\261\360\245\370.\232"
  80      A8AA5DFB 
  80      70B1554D 
  80      2280B1F0 
  80      A5F82E9A 
  81 02c7 E5BB90C2 		.ascii	"\345\273\220\302z\321\001\364\271W\227a\344[\306+\335"
  81      7AD101F4 
  81      B9579761 
ARM GAS  /tmp/ccwXRxw7.s 			page 6


  81      E45BC62B 
  81      DD
  82 02d8 848F56D4 		.ascii	"\204\217V\324\276\016\022\245\314\251\304\242.k\034"
  82      BE0E12A5 
  82      CCA9C4A2 
  82      2E6B1C
  83 02e7 AA89EFD1 		.ascii	"\252\211\357\321\333\357J\351\327\350\010,\260,\212"
  83      DBEF4AE9 
  83      D7E8082C 
  83      B02C8A
  84 02f6 8FD11A64 		.ascii	"\217\321\032d\012\257<\342\22634J\306\036j\276\341\347"
  84      0AAF3CE2 
  84      9633344A 
  84      C61E6ABE 
  84      E1E7
  85 0308 950A9E1E 		.ascii	"\225\012\236\036\324o\364\017\246\016&SG\217u\036\357"
  85      D46FF40F 
  85      A60E2653 
  85      478F751E 
  85      EF
  86 0319 888337D5 		.ascii	"\210\2037\325?\220:u\365\372\300\265\216\316\222\365"
  86      3F903A75 
  86      F5FAC0B5 
  86      8ECE92F5 
  87 0329 61C7402C 		.ascii	"a\307@,\331\217\272\373\3549\356\330\336\007\177\001"
  87      D98FBAFB 
  87      EC39EED8 
  87      DE077F01 
  88 0339 9D396CA0 		.ascii	"\2359l\240"
  89              		.text
  90              		.section	.gnu.lto_ms5607_stop.1c0eb68ee7df4850,"",%progbits
  91 0000 789C6362 		.ascii	"x\234cb`b@\007\222@|\005\210\205\201\230\221\231\201"
  91      60624007 
  91      92407C05 
  91      88858198 
  91      919981
  92 0013 9169C239 		.ascii	"\221i\3029\006\206F\016&FF\020\203\201\221\241\236\211"
  92      0686460E 
  92      26464610 
  92      838191A1 
  92      9E89
  93 0025 B13E9211 		.ascii	"\261>\222\021\254v=\323\201\007\377\377\257\233\324"
  93      AC763DD3 
  93      8107FFFF 
  93      AF9BD4
  94 0034 FA88858D 		.ascii	"\372\210\205\215\2211\227\021h\\&#\003\013\220\005\222"
  94      91319711 
  94      685C2623 
  94      030B9005 
  94      92
  95 0045 67656869 		.ascii	"gehih\230\240\300\300\220\014V\035\002$AF\20422\201"
  95      6898A0C0 
  95      C0900C56 
  95      1D022441 
  95      46843232 
  96 005a 68E6B30C 		.ascii	"h\346\263\014M\277\232W\337bJd\\\310\310\312\220\316"
  96      4DBF9A57 
ARM GAS  /tmp/ccwXRxw7.s 			page 7


  96      DF624A64 
  96      5CC8C8CA 
  96      90CE
  97 006c C854CD50 		.ascii	"\310T\315P\005\324\255\315\260\252\001\010b3\031\031"
  97      05D4ADCD 
  97      B0AA0108 
  97      62331919 
  98 007c 6733CC62 		.ascii	"g3\314b\314ddJgd\214\000\322\314`+\223\030\221\334z"
  98      CC64644A 
  98      67648C00 
  98      D2CC602B 
  98      931891DC 
  99 0091 9EA1F580 		.ascii	"\236\241\365\2006D?\003C5\303\257\206\216\006\201LF"
  99      36443F03 
  99      4335C3AF 
  99      868E0681 
  99      4C46
 100 00a3 96644688 		.ascii	"\226dF\210\242t\220^\226L\220\354E\206\306\007\247\271"
 100      A274905E 
 100      964C90EC 
 100      4586C607 
 100      A7B9
 101 00b5 204A4186 		.ascii	" JA\206\261\301\214\010\001\252\005\272\006\024\016"
 101      B1C18C08 
 101      01AA05BA 
 101      06140E
 102 00c4 822E4599 		.ascii	"\202.E\231e\251E\305\372\271\305\246f\006\346z\311\014"
 102      65A945C5 
 102      FAB9C5A6 
 102      6606E67A 
 102      C90C
 103 00d6 00871B36 		.ascii	"\000\207\0336^"
 103      5E
 104              		.text
 105              		.section	.gnu.lto_ms5607_reset.1c0eb68ee7df4850,"",%progbits
 106 0000 789C6362 		.ascii	"x\234cb`b@\007\222@l\300\310\300 \014\244\031\231\031"
 106      60624007 
 106      92406CC0 
 106      C8C0200C 
 106      A4199919 
 107 0014 1899269C 		.ascii	"\030\231&\234c`h\344`bd\0041\030\030\031\352\231\030"
 107      636068E4 
 107      60626404 
 107      31181819 
 107      EA9918
 108 0027 EB2319C1 		.ascii	"\353#\031\301j\3273\035x\360\377\377\272\035\255\277"
 108      6AD7331D 
 108      78F0FFFF 
 108      BA1DADBF 
 109 0037 58D99918 		.ascii	"X\331\231\030s\031\031X\0302\031\031\330\200\004H\236"
 109      73191958 
 109      18321919 
 109      D8800448 
 109      9E
 110 0048 95A1A5A1 		.ascii	"\225\241\245\241a\202\002\003C2Xu\010\220\004\031\021"
 110      61820203 
 110      43325875 
ARM GAS  /tmp/ccwXRxw7.s 			page 8


 110      08900419 
 110      11
 111 0059 CAC804A2 		.ascii	"\312\310\004\242\231\31724\355\3301],\221q!#+\203.\303"
 111      99CF3234 
 111      EDD8315D 
 111      2C917121 
 111      232B832E 
 112 006e 9A062008 		.ascii	"\232\006 \010\314dd\322fX\005b\362f22\317f\230\305\230"
 112      CC6464D2 
 112      66580562 
 112      F2663232 
 112      CF6698C5 
 113 0083 C9C892CE 		.ascii	"\311\310\222\316\310\024\001\244Y\301v&A\254f\000\211"
 113      C81401A4 
 113      59C17626 
 113      41AC6600 
 113      89
 114 0094 B0C15D0D 		.ascii	"\260\301]\015\3421\311\001\031@S\1775\377\276\304\002"
 114      E231C901 
 114      1940537F 
 114      35FFBEC4 
 114      02
 115 00a5 31369D91 		.ascii	"16\235\221\245\232\241\012\350&\250\241\263\201\312"
 115      A59AA10A 
 115      E826A8A1 
 115      B381CA
 116 00b4 D8B19BCA 		.ascii	"\330\261\233\312\210\010\202\363\014m\007Xa\006\260"
 116      880882F3 
 116      0C6D0758 
 116      6106B0
 117 00c3 5533FC6A 		.ascii	"U3\374j\350h\020\310d\344H\206*\002\232\012\266\217"
 117      E86810C8 
 117      64E44886 
 117      2A029A0A 
 117      B68F
 118 00d5 11622D03 		.ascii	"\021b-\003\320\277\234\014\014\027\031\030\341z \346"
 118      D0BF9C0C 
 118      0C171918 
 118      E17A20E6 
 119 00e5 8400D503 		.ascii	"\204\000\325\003}\012\012cA\227\242\314\262\324\242"
 119      7D0A0A63 
 119      4197A2CC 
 119      B2D4A2
 120 00f4 62FDDC62 		.ascii	"b\375\334bS3\003s\275d\006\000E!E\263"
 120      53330373 
 120      BD640600 
 120      452145B3 
 121              		.text
 122              		.section	.gnu.lto_ms5607_readPressureTemperature.1c0eb68ee7df4850,"",%progbits
 123 0000 789CAD57 		.ascii	"x\234\255Wkl\024U\024\276wvfw\373\246\200\245\017Z\332"
 123      6B6C1455 
 123      14BE7776 
 123      6677FBA6 
 123      80A50F5A 
 124 0015 F268E983 		.ascii	"\362h\351\203my\224G\201\026\3123\324D\223\222`\342"
 124      6D799447 
 124      8116CA33 
ARM GAS  /tmp/ccwXRxw7.s 			page 9


 124      D4449392 
 124      60E2
 125 0027 9FA5D4BA 		.ascii	"\237\245\324\272&\020\322-\232\310\217N\331\206T\003"
 125      2610D22D 
 125      9AC88F4E 
 125      D9865403 
 126 0037 CD6AFC51 		.ascii	"\315j\374Q\321D\232\242\210\210\225`\310\372d\333h)"
 126      D1449AA2 
 126      88889560 
 126      C8FA64DB 
 126      6829
 127 0049 3F449426 		.ascii	"?D\224&\022\323\230\015&\240T\015\341\0076\005Y\317"
 127      12D3980D 
 127      26A0540D 
 127      E1073605 
 127      59CF
 128 005b B9AFED4C 		.ascii	"\271\257\355L\227tc\230\244g\347~\347\234\357\274\356"
 128      97746398 
 128      A467E77E 
 128      E79CEFBC 
 128      EE
 129 006c EDCC6844 		.ascii	"\355\314hD#\366\353y\370+\316 \344i\370\245nB\265\340"
 129      23F6EB79 
 129      F82BCE20 
 129      E469F8A5 
 129      6E42B5E0 
 130 0080 55423ADD 		.ascii	"UB:\335\232\346\030\365\0203\331\365U\0011S\035\232"
 130      9AE618F5 
 130      1033D9F5 
 130      55013153 
 130      1D9A
 131 0092 FED91081 		.ascii	"\376\331\020\201\2451\226\002K\235\032\334\312\320\234"
 131      A5319602 
 131      4B9D1ADC 
 131      CAD09C
 132 00a1 27861177 		.ascii	"'\206\021w\335w\001\356\244.\216\273(\305\033BI\207"
 132      DD7701EE 
 132      A42E8EBB 
 132      28C51B42 
 132      4987
 133 00b3 E6D00DA7 		.ascii	"\346\320\015\247\213v<G1ZR1\3513\303\301\310w\277\366"
 133      8B763C47 
 133      315A5231 
 133      E933C3C1 
 133      C877BFF6 
 134 00c7 50F3E491 		.ascii	"P\363\344\221\240\371(\032\245>\012y\315\245\244\231"
 134      A0F9281A 
 134      A53E0A79 
 134      CDA5A499 
 135 00d7 923DB0A0 		.ascii	"\222=\260\240\331\354GsX\023\345\236\341\373\306\210"
 135      D9EC4773 
 135      5813E59E 
 135      E1FBC688 
 136 00e7 D9158E46 		.ascii	"\331\025\216F\353\230WQ\"^f0\374\357_#\324|\323\354"
 136      EB985751 
 136      225E6630 
 136      FCEF5F23 
ARM GAS  /tmp/ccwXRxw7.s 			page 10


 136      D47CD3EC 
 137 00fb BC1B8D66 		.ascii	"\274\033\215f\370\250C#e1\307B\356\250\307u\2748\234"
 137      F8A84323 
 137      6531C742 
 137      EEA8C775 
 137      BC389C
 138 010e 1AECEC36 		.ascii	"\032\354\3546\243\321\016\037\3255R\235\240[\310\352"
 138      A3D10E1F 
 138      D535529D 
 138      A05BC8EA 
 139 011e 5693A0DB 		.ascii	"V\223\240\333\227G\337\3125O\0363\217D\242\321\005>"
 139      9747DFCA 
 139      354F1E33 
 139      8F44A2D1 
 139      053E
 140 0130 6A68A436 		.ascii	"jh\2446\346Y\317=\335q=/\015\037\317\231\322P\210Y\237"
 140      E659CF3D 
 140      DD713D2F 
 140      0D1FCF99 
 140      D2508859 
 141 0145 60CC9FAC 		.ascii	"`\314\237\254\2516$\3506ju\3331\223\333\200\026\206"
 141      A93624E8 
 141      366A75DB 
 141      3193DB80 
 141      1686
 142 0157 A2DE1DB8 		.ascii	"\242\336\035\270\366\220>\243\323\375\2248\211\217:"
 142      F6903EA3 
 142      D3FD9438 
 142      898F3A
 143 0166 DDC44BDF 		.ascii	"\335\304K\337\247\305$\005\026\2564\020\356t\201d\342"
 143      A7C52405 
 143      16AE3410 
 143      EE748164 
 143      E2
 144 0177 62B65864 		.ascii	"b\266Xd\341b\236Xd\303\")\007Dr.\212<\\\316\307\273"
 144      E1629E58 
 144      64C32229 
 144      0744722E 
 144      8A3C5CCE 
 145 018d 7C140528 		.ascii	"|\024\005(\026 V\210wE\340t\032\234\212\021Y\210\310"
 145      16205688 
 145      7745E074 
 145      1A9C8A11 
 145      5988C8
 146 01a0 22148B71 		.ascii	"\"\024\213q\271\004\357JP\224\242X\212X\031\336\225"
 146      B904EF4A 
 146      5094A258 
 146      8A5819DE 
 146      95
 147 01b1 83D31970 		.ascii	"\203\323\031p\252\200EJ%\"\313Px\000>\007p\025\302\325"
 147      AA80454A 
 147      2522CB50 
 147      78003E07 
 147      7015C2D5 
 148 01c5 98D27214 		.ascii	"\230\322r\024+P\254\004\335\000\350V\241\256\006\255"
 148      2B50AC04 
 148      DD00E856 
ARM GAS  /tmp/ccwXRxw7.s 			page 11


 148      A1AE06AD 
 149 01d5 57A35883 		.ascii	"W\243X\203\313\265h\260\016E-\212\365(6\200\375Y\260"
 149      CBB568B0 
 149      0E452D8A 
 149      F5283680 
 149      FD59B0
 150 01e8 DF088BD4 		.ascii	"\337\010\213\324:\024\365(6\001|\036\340\315\260Hk@"
 150      3A14F528 
 150      36017C1E 
 150      E0CDB048 
 150      6B40
 151 01fa B115C536 		.ascii	"\261\025\3056\024\333Q\354\204\326\321] \264F\\Bc\015"
 151      14DB51EC 
 151      84D6D15D 
 151      20B4465C 
 151      42630D
 152 020d D205F328 		.ascii	"\322\005\363(\364\322>\360\363\322~&\261O\004'\002W"
 152      F4D23EF0 
 152      F3D27E26 
 152      B14F0427 
 152      0257
 153 021f 13483C8D 		.ascii	"\023H<\215\273\251\206\277\216\357\311\221P\350\275"
 153      BBA986BF 
 153      8EEFC991 
 153      50E8BD
 154 022e 2C2FBD40 		.ascii	",/\275@\015RI>6\341z\326G\323\313\311Gx\233\346\243"
 154      0D52493E 
 154      36E17AD6 
 154      47D3CBC9 
 154      47789BE6 
 155 0243 19EF9013 		.ascii	"\031\357\220\0230\302Y\255T\307Qf\262\001\356\245|\220"
 155      30C259AD 
 155      54C75166 
 155      B201EEA5 
 155      7C90
 156 0255 8824ABB1 		.ascii	"\210$\253\261\342*}\017\334\000\353d\340\301u\203\323"
 156      E22A7D0F 
 156      DC00EB64 
 156      E0C17583 
 156      D3
 157 0266 B652E761 		.ascii	"\266R\347a\362*\014X\220~\015f\263\343\263\322\330\036"
 157      F22A0C58 
 157      907E0D66 
 157      B3E3B3D2 
 157      D81E
 158 0278 F9811C0D 		.ascii	"\371\201\034\015\347I\002\367a2iv\233\263|tN\2630\002"
 158      E74902F7 
 158      61326976 
 158      9BB37C74 
 158      4EB33002 
 159 028c 56168F6F 		.ascii	"V\026\217o\264t\002\035\230\213^]\221h2w#Dy=\325L5\225"
 159      B474021D 
 159      988B5E5D 
 159      91683277 
 159      2344793D 
 160 02a4 62D63EB0 		.ascii	"b\326>\260\235\307\262\014\365\336\214hO\260x\"\213"
 160      9DC7B20C 
ARM GAS  /tmp/ccwXRxw7.s 			page 12


 160      F5DE8C68 
 160      4FB07822 
 160      8B
 161 02b5 3F7DEC45 		.ascii	"?}\354E\231{\012+\336%H\257\323\031XE\361\275fo\222"
 161      997B0A2B 
 161      DE2548AF 
 161      D3195845 
 161      F1BD666F 
 162 02ca 64485375 		.ascii	"dHSud7S\207\254\036\230E\003X\200\0349nV:\3238\240\316"
 162      64375387 
 162      AC1E9845 
 162      0358801C 
 162      396E563A 
 163 02e2 5C4C28F0 		.ascii	"\\L(\360y\240M\222\245\003\0374\224\227?\361d\313\337"
 163      79A04D92 
 163      A5031F34 
 163      94973FF1 
 163      64CBDF
 164 02f5 C1E71639 		.ascii	"\301\347\0269\326?G\206\313Ltr\326,g\203g+\352p\240"
 164      D63F4786 
 164      CB4C7472 
 164      D62C6783 
 164      672BEA70 
 165 030a C7FB69E2 		.ascii	"\307\373i\342\023\275\361\333\023\237(N\343\341\371"
 165      13BDF1DB 
 165      139F284E 
 165      E3E1F9
 166 0319 539A4C2E 		.ascii	"S\232L.+\301y\364%2\217y\300\007\365\0222B\276\275="
 166      2BC179F4 
 166      25328F79 
 166      C007F512 
 166      3242BEBD 
 167 032e 7861D8A1 		.ascii	"xa\330\241\024\350c\371\007\277\033\202\215z\360\314"
 167      14E863F9 
 167      07BF1B82 
 167      8D7AF0CC 
 168 033e 8E4DDCBA 		.ascii	"\216M\334\272\341P\207\3754\213s\206\311\263L\236cr"
 168      E15087FD 
 168      348B7386 
 168      C9B34C9E 
 168      6372
 169 0350 80C9F3EC 		.ascii	"\200\311\363\354\370\313\006\002qv%\251\200l\370~\261"
 169      F8CB0602 
 169      717625A9 
 169      806CF87E 
 169      B1
 170 0361 96CC5AF8 		.ascii	"\226\314Z\370w\340\021\364\373*K\"\007\314Y\306\347"
 170      77E011F4 
 170      FB2A4B22 
 170      07CC59C6 
 170      E7
 171 0372 1C12CA05 		.ascii	"\034\022\312\005\224y\315\342\346c\237\346JU\3364fj"
 171      9479CDE2 
 171      E6639FE6 
 171      4A55DE34 
 171      666A
 172 0384 63BEA868 		.ascii	"c\276\250h\346\203\271\2159\037P\346\345f\346\201\356"
ARM GAS  /tmp/ccwXRxw7.s 			page 13


 172      E683B98D 
 172      391F50E6 
 172      E566E681 
 172      EE
 173 0395 C0179AD4 		.ascii	"\300\027\232\324\025\260\300\371\"b\263\204\027L\213"
 173      15B0C0F9 
 173      2262B384 
 173      174C8B
 174 03a4 A8D9221E 		.ascii	"\250\331\"\036\220\246\205`\315iU\300\"\306[\310I{o"
 174      90A68560 
 174      CD6955C0 
 174      22C65BC8 
 174      497B6F
 175 03b7 4F2845B1 		.ascii	"O(E\261\244\355{\\\213>Q\231-l\305\006[\012Y\004\250"
 175      A4ED7B5C 
 175      8B3E5199 
 175      2D6CC506 
 175      5B0A5904 
 176 03cc B5450552 		.ascii	"\265E\005R\265x\032\263\275E\367\025\315\0220\2671\227"
 176      B5781AB3 
 176      BD45F715 
 176      CD1230B7 
 176      3197
 177 03de 006A6DD1 		.ascii	"\000jm\321\035\225H)\013\\\"\"\276$\341\245\323\">\266"
 177      1D954829 
 177      0B5C2222 
 177      BE24E1A5 
 177      D3223EB6 
 178 03f2 4565606D 		.ascii	"Ee`mkQ9\343-\343\244\023\267\357*E\005\243\315\023'"
 178      6B5139E3 
 178      2DE3A413 
 178      B7EF2A45 
 178      05A3CD13 
 179 0407 CBEFA3F3 		.ascii	"\313\357\243\363\343\237\254\330)M\326mq/\252mV\011"
 179      E39FACD8 
 179      294DD66D 
 179      712FAA6D 
 179      5609
 180 0419 7C2CF0EB 		.ascii	"|,\360\353\201\017T=\313\000g~\370\036\303.\332!\212"
 180      810F543D 
 180      CB00677E 
 180      F81EC32E 
 180      DA218A
 181 042c 56197B98 		.ascii	"V\031{\230Y\021O/t\347w]*\252,\351\275A\023\311\317"
 181      59114F2F 
 181      74E7775D 
 181      2AAA2CE9 
 181      BD4113C9 
 182 0441 B04F42E5 		.ascii	"\260OB\345W\015\204<?U\377r\206z\030z<pKe\275\002T\354"
 182      570D843C 
 182      3F55FF72 
 182      867A187A 
 182      3C704B65 
 183 0459 E442589D 		.ascii	"\344BX\235\330\363]\011\006L{-Cl\215\320\370\210\362"
 183      D8F35D09 
 183      064C7B2D 
 183      436C8DD0 
ARM GAS  /tmp/ccwXRxw7.s 			page 14


 183      F888F2
 184 046c 5D65497A 		.ascii	"]eIzm\"9\333\367\345=\225s\015\360\211\236\306\032\275"
 184      6D2239DB 
 184      F7E53D95 
 184      730DF089 
 184      9EC61ABD 
 185 0480 1A70DE53 		.ascii	"\032p\336S\221\034\354\2249R\271\346\177\364\314\276"
 185      911CEC94 
 185      3952B9E6 
 185      7FF4CCBE 
 186 0490 976EAA62 		.ascii	"\227n\252b\326\002\241\255g\353\030*{vO\231\326\202"
 186      D602A1AD 
 186      67EB182A 
 186      7B764F99 
 186      D682
 187 04a2 8AF78CCA 		.ascii	"\212\367\214\312\216\305\352X\317\262\256\025\374{%"
 187      8EC5EA58 
 187      CFB2AE15 
 187      FC7B25
 188 04b1 BC013402 		.ascii	"\274\0014\002\033\357\251\220\350F\330\261\266\240u"
 188      1BEFA990 
 188      E846D8B1 
 188      B6A075
 189 04c0 0CDD2082 		.ascii	"\014\335 \202~\243\202\326\203\012\203\032X\254\251"
 189      7EA382D6 
 189      830A831A 
 189      58ACA9
 190 04cf F102C603 		.ascii	"\361\002\306\003/H\375&0a\330\207\201\177z*%\272\031"
 190      2F48FD26 
 190      3061D887 
 190      817F7A2A 
 190      25BA19
 191 04e2 66680BD0 		.ascii	"fh\013\320\000h.y\033\236\010\301k\270I\341\033\010"
 191      00682E79 
 191      1B9E08C1 
 191      6BB849E1 
 191      1B08
 192 04f4 AFF0D078 		.ascii	"\257\360\320x?\345\257e@r\345\256\213\333\213\356&\201"
 192      3FE5AF65 
 192      4072E5AE 
 192      8BDB8BEE 
 192      2681
 193 0506 267E73E5 		.ascii	"&~s\345\003\245A\004\177\320\343\221\221\266BV\266\340"
 193      03A54104 
 193      7FD0E391 
 193      91B64256 
 193      B6E0
 194 0518 DB009D29 		.ascii	"\333\000\235)x\340\265\300\244j\347v\360\021\016U\302"
 194      78E0B5C0 
 194      A46AE776 
 194      F0110E55 
 194      C2
 195 0529 387279E8 		.ascii	"8ry\350\324\224L\203\311\011f\252\213L\267\343\303\253"
 195      D4944C83 
 195      C90966AA 
 195      8B4CB7E3 
 195      C3AB
ARM GAS  /tmp/ccwXRxw7.s 			page 15


 196 053b EBCFC14B 		.ascii	"\353\317\301K\227Usw\242]\376\224\315\011\017/\235\014"
 196      97557377 
 196      A25DFE94 
 196      CD090F2F 
 196      9D0C
 197 054d 96E2C3EB 		.ascii	"\226\342\303\353JhRny\340\355\204\020\360\031\226f\361"
 197      4A68526E 
 197      79E0ED84 
 197      10F01996 
 197      66F1
 198 055f 619CDCCB 		.ascii	"a\234\334\313\300G\036\243\3779F\277+\016\275\223\374"
 198      C0471EA3 
 198      FF3946BF 
 198      2B0EBD93 
 198      FC
 199 0570 5186F4BF 		.ascii	"Q\206\364\277\204\036L(\303\306rR6C\247E\321)q2\332"
 199      841E4C28 
 199      C3C67252 
 199      3643A745 
 199      D1297132 
 200 0585 3535A346 		.ascii	"55\243F\031\310%\336\234\207\306\305\033\001\377\327"
 200      19C825DE 
 200      9C87C6C5 
 200      1B01FFD7 
 201 0595 BA925C30 		.ascii	"\272\222\\0\273\361\373\2251NQ\366\333\224?\222\316"
 201      BBF1FB95 
 201      314E51F6 
 201      DB943F92 
 201      CE
 202 05a6 C8847CA5 		.ascii	"\310\204|\245\301\010\3523\265\011\336\220\200\033\367"
 202      C108EA33 
 202      B509DE90 
 202      801BF7
 203 05b5 62E69636 		.ascii	"b\346\2266\337\313-m~\317~\377\252\232\252\325\313\232"
 203      DFCB2D6D 
 203      7ECF7EFF 
 203      AA9AAAD5 
 203      CB9A
 204 05c7 49EAC1B6 		.ascii	"I\352\301\266\026\277\377P[\313\026o\273\327\335\336"
 204      16BFFF50 
 204      5BCB166F 
 204      BBD7DDDE 
 205 05d7 B2FF20DE 		.ascii	"\262\377 \3368\375\355\336\366C~\275\275\315\373\212"
 205      38FDEDDE 
 205      F6437EBD 
 205      BDCDFB8A 
 206 05e7 7E1085BF 		.ascii	"~\020\205\277\345\200_\333\327\244\243\205\301|\376"
 206      E5805FDB 
 206      D7A4A385 
 206      C17CFE
 207 05f6 03FF7C81 		.ascii	"\003\377|\201\013"
 207      0B
 208              		.text
 209              		.section	.gnu.lto_.symbol_nodes.1c0eb68ee7df4850,"",%progbits
 210 0000 789C4DCB 		.ascii	"x\234M\3131\022\2020\020\205\341\267o\023\210\247\340"
 210      31128230 
 210      1085E1B7 
ARM GAS  /tmp/ccwXRxw7.s 			page 16


 210      6F1388A7 
 210      E0
 211 0011 A88BA204 		.ascii	"\250\213\242\004;O@\223\243P\330y\002\013\035[\316\240"
 211      3B4F4093 
 211      A350D879 
 211      020B1D5B 
 211      CEA0
 212 0023 0E418DDB 		.ascii	"\016A\215\333\374\363\275\231%\210+>\307-\0158]\000"
 212      FCF3BD99 
 212      25882B3E 
 212      C72D0D38 
 212      5D00
 213 0035 B37110FF 		.ascii	"\263q\020\377\0228S\356hRVv4\376qO\323B\351ine\333\212"
 213      123853EE 
 213      68525676 
 213      34FE714F 
 213      D342E969 
 214 004d 1C68BE28 		.ascii	"\034h\276(\322\252\242#\255.\032h\341'E\205\324\317"
 214      D2AAA223 
 214      AD2E1A68 
 214      E1274585 
 214      D4CF
 215 005f 8DC2A38B 		.ascii	"\215\302\243\213\347Q\2255\322\355)\252\036\323R\367"
 215      E7519535 
 215      D2ED29AA 
 215      1ED352F7 
 216 006f ED068FDC 		.ascii	"\355\006\217\334\200\351\276\356\371q\331s\003R\234"
 216      80E9BEEE 
 216      F971D973 
 216      03529C
 217 007e 1BBC01EC 		.ascii	"\033\274\001\354gAa"
 217      674161
 218              		.text
 219              		.section	.gnu.lto_.refs.1c0eb68ee7df4850,"",%progbits
 220 0000 789C6362 		.ascii	"x\234cb`b`g\200\000&\006\006FFF\006\000\000\333\000"
 220      60626067 
 220      80002606 
 220      06464646 
 220      060000DB 
 221 0015 11       		.ascii	"\021"
 222              		.text
 223              		.section	.gnu.lto_.decls.1c0eb68ee7df4850,"",%progbits
 224 0000 789CBD5C 		.ascii	"x\234\275\\\013t\024\305\232\356\356\231$3Inx\270\272"
 224      0B7414C5 
 224      9AEEEE99 
 224      2433496E 
 224      78B8BA
 225 0013 E8BA3A77 		.ascii	"\350\272:wW\357\341^\257\344\001\"\256w\005LP8\362p"
 225      57EFE15E 
 225      AFE40122 
 225      AE77054C 
 225      5038F270 
 226 0027 93782FEE 		.ascii	"\223x/\3569\356\330\316t\310\254If\354\351`8\347\356"
 226      39EED8CE 
 226      74C8AC49 
 226      66ECE960 
 226      38E7EE
ARM GAS  /tmp/ccwXRxw7.s 			page 17


 227 003a B121243C 		.ascii	"\261!$<\024\014\011H@\036\341\012\210/\224\227\200\007"
 227      140C0948 
 227      401EE10A 
 227      882F9497 
 227      8007
 228 004c 657C4104 		.ascii	"e|A\004\345)\010\370`\364\012\202\\\\@#b\014\331\277"
 228      E52908F8 
 228      60F40A82 
 228      5C5C4023 
 228      620CD9BF 
 229 0060 FEEE9EA9 		.ascii	"\376\356\236\251\356t\317tG\357\3169US]\251\372\352"
 229      EE74CF74 
 229      47EFCE39 
 229      55535DA9 
 229      FAEA
 230 0072 FFFFFAFF 		.ascii	"\377\377\372\377\277\376\252\256\011\307p\314t\216a"
 230      BFFEAAAE 
 230      09C770CC 
 230      748E61
 231 0081 BAE173FC 		.ascii	"\272\341s\374\036\206\371\302\3030\031\014\303\334\001"
 231      1E86F9C2 
 231      C330190C 
 231      C3DC01
 232 0090 C90D6905 		.ascii	"\311\015i\005\244M\220\262 \015e\224\217\027\3225\320"
 232      A44D90B2 
 232      200D6594 
 232      8F17D235 
 232      D0
 233 00a1 6738A47B 		.ascii	"g8\244{ \375\007\244\007 \005!\205!I\220\376\014\211"
 233      20FD07A4 
 233      07200521 
 233      85214990 
 233      FE0C89
 234 00b4 857632C7 		.ascii	"\205v2\307\350>\244\3375\214\362\267<H\271\220\372s"
 234      E83EA4DF 
 234      358CF2B7 
 234      3C48B990 
 234      FA73
 235 00c6 CA185550 		.ascii	"\312\030UP\371 \224\247A\252\347\224\361]\220\256\342"
 235      F92094A7 
 235      41AAE794 
 235      F15D90AE 
 235      E2
 236 00d7 143AAE83 		.ascii	"\024:\256\203\357\177\2064\010R\021$B7\241\253\001\276"
 236      EF7F8634 
 236      08521124 
 236      4237A1AB 
 236      01BE
 237 00e9 05488D90 		.ascii	"\005H\215\220\376\013\3226\300\371\015\301a\025\214"
 237      FE0BD236 
 237      C0F90DC1 
 237      61158C
 238 00f8 7F85F2CD 		.ascii	"\177\205\362\315\220\012!\335\310)\230\327\250\364>"
 238      900A21DD 
 238      C82998D7 
 238      A8F43E
 239 0107 A08E43E8 		.ascii	"\240\216C\350\034\006\351\337 \375\301@\363pu\234\007"
ARM GAS  /tmp/ccwXRxw7.s 			page 18


 239      1C06E9DF 
 239      20FDC140 
 239      F370759C 
 239      07
 240 0118 0D74CC80 		.ascii	"\015t\314\200\024Q\307a\325q8\265}X-\337\015\331h\003"
 240      1451C761 
 240      D57138B5 
 240      7D582DDF 
 240      0DD96803 
 241 012c 1E9159B6 		.ascii	"\036\221Y\266\212G\372\022\336\011O\032\256&w\215\037"
 241      8A47FA12 
 241      DE094F1A 
 241      AE26778D 
 241      1F
 242 013d D29DD0AF 		.ascii	"\322\235\320\257\341\337\243\322M\306\234`\300&sq\035"
 242      E1DFA3D2 
 242      4DC69C60 
 242      C0267371 
 242      1D
 243 014e 7CCFE492 		.ascii	"|\317\344\222\362%c4@\232\315%\345\233\251\316\201&"
 243      F2256334 
 243      409ACD25 
 243      E59BA9CE 
 243      8126
 244 0160 630FA181 		.ascii	"c\017\241\201\351I\013MG\223*\207\377\201\357y\220\232"
 244      E9490B4D 
 244      47932A87 
 244      FF81EF79 
 244      909A
 245 0172 21D552F2 		.ascii	"!\325R\362&\372\221A\321Jd\375[H7\251<iz\362gUG\310"
 245      26FA9141 
 245      D14A64FD 
 245      5B4837A9 
 245      3C697AF2 
 246 018a B87F82EF 		.ascii	"\270\177\202\357\211\220\376\323\300G\177f\236\014\037"
 246      8990FED3 
 246      C0477F66 
 246      9E0C1F
 247 0199 5F3B3031 		.ascii	"_;01\221\345\331</\231\"R\312\3652>hp#\263R\226\233"
 247      91E5D93C 
 247      2F992252 
 247      CAF5323E 
 247      687023B3 
 248 01b0 E20D4FB2 		.ascii	"\342\015O\262>\236]\301\366\007\311\014`\231\3371\317"
 248      3E9E5DC1 
 248      F607C90C 
 248      6099DF31 
 248      CF
 249 01c1 41AF2659 		.ascii	"A\257&Y\236v\005\323\363\223\026\224axv\025`\361\354"
 249      9E7605D3 
 249      F3931694 
 249      61787615 
 249      60F1EC
 250 01d4 4AF677CA 		.ascii	"J\366w\312\020r\354P\320\247\3242j\275\311\347\327L"
 250      1072EC50 
 250      D0A7D432 
 250      6ABDC9E7 
ARM GAS  /tmp/ccwXRxw7.s 			page 19


 250      D74C
 251 01e6 1B8C193B 		.ascii	"\033\214\031;\272q++7\346f1\215\360$\307\033\246\015"
 251      BA712B2B 
 251      37E66631 
 251      8DF024C7 
 251      1BA60D
 252 01f9 684D0EE5 		.ascii	"hM\016\345\321Fb\023\344\307\366{8\236]\303f\001\365"
 252      D1466213 
 252      E4C7F67B 
 252      389E5DC3 
 252      6601F5
 253 020c 37B13A78 		.ascii	"7\261:x\033\030\204\236\027\240\257\216\332\255nN\251"
 253      1B18849E 
 253      17A0AF8E 
 253      DAAD6E4E 
 253      A9
 254 021d 4D41AD8B 		.ascii	"MA\255\213AM\272\235E4\2677YU\222\250b\251\206c\022"
 254      414DBA9D 
 254      4534B737 
 254      595592A8 
 254      62A98663 
 255 0232 B5DA2C91 		.ascii	"\265\332,\221G\326\233,t\263\272\001h\272x\366E\366"
 255      47D69B2C 
 255      74B3BA01 
 255      68BA78F6 
 255      45F6
 256 0244 46C85F62 		.ascii	"F\310_b]\246\3358f<\253\212\335\214I\265\230\0346O{"
 256      5DA6DD38 
 256      663CAB8A 
 256      DD8C49B5 
 256      981C364F 
 257 0259 D084FEF1 		.ascii	"\320\204\376\361w[\210\320\275\314L\024\330*9\215\320"
 257      775B88D0 
 257      BDCC4C14 
 257      D82A398D 
 257      D0
 258 026a E3471B5F 		.ascii	"\343G\033_\272I\226=<\273\211%\034M\321\013\336>N\313"
 258      BA49963D 
 258      3CBB8925 
 258      1C4DD10B 
 258      DE3E4ECB 
 259 027e EC65C310 		.ascii	"\354e\303\020g\013\342\274\312\352\201TV)\241\300\263"
 259      670BE2BC 
 259      CAEA8154 
 259      5629A1C0 
 259      B3
 260 028f D620AD00 		.ascii	"\326 \255\000\323\264\345\230\030\353Tl\036Zl\361w\037"
 260      D3B4E598 
 260      18EB546C 
 260      1E5A6CF1 
 260      771F
 261 02a1 9F7FB5DC 		.ascii	"\237\177\265\334\366\026\233\303\314&\374\2665\312\243"
 261      F6169BC3 
 261      CC26FCB6 
 261      35CAA3
 262 02b0 DBF34C2C 		.ascii	"\333\363L,$\346\322\300\206%Y_\267\347\320j\266^\226"
 262      24E6D2C0 
ARM GAS  /tmp/ccwXRxw7.s 			page 20


 262      8625595F 
 262      B7E7D06A 
 262      B65E96
 263 02c3 E10F6FA0 		.ascii	"\341\017o\240\355\315\341\364\314\247\005\342\331\030"
 263      EDCDE1F4 
 263      CCA705E2 
 263      D918
 264 02d1 CB41FEA6 		.ascii	"\313A\376\246\321\334\316/\316\225\335J}z\203\273tl"
 264      D1DCCE2F 
 264      CE95DD4A 
 264      7D7A83BB 
 264      746C
 265 02e3 D93FCAF1 		.ascii	"\331?\312\361\030k\333\342\342\307\017|T\210\223\366"
 265      186BDBE2 
 265      E2C70F7C 
 265      548893F6 
 266 02f3 0E5ADD2E 		.ascii	"\016Z\335.\256Wf\267\323hv\373\033\373\020\252w\332"
 266      AE5766B7 
 266      D36876FB 
 266      1BFB10AA 
 266      77DA
 267 0305 32BC435C 		.ascii	"2\274C\\O\313\213s\246\246w\232\323\333\236Z\375m\262"
 267      4FCB8B73 
 267      A6A6779A 
 267      D3DB9E5A 
 267      FD6DB2
 268 0318 DA45554F 		.ascii	"\332EUOu%\252\335T\365\223\311\352\014J%R\352\337N\312"
 268      7525AADD 
 268      54F593C9 
 268      EA0C4A25 
 268      52EADF4E 
 269 032d 80DBD180 		.ascii	"\200\333\321\200\337\2630`\236\335\220\230\311^Yp|\335"
 269      DFB33060 
 269      9EDD9098 
 269      C95E5970 
 269      7CDD
 270 033f DC2F4FB2 		.ascii	"\334/O\262-\365r{\201\2312B\023\226R\243\0075\300\334"
 270      2DF5727B 
 270      81993242 
 270      139652A3 
 270      0735C0DC 
 271 0353 C4A4C65E 		.ascii	"\304\244\306^?\306\372L4N\327\224g\217\000\033\351Z"
 271      3FC6FA4C 
 271      344ED794 
 271      678F001B 
 271      E95A
 272 0365 9176C78C 		.ascii	"\221v\307\214*\271\364\030\252\3441[*\271\356\330\002"
 272      2AB9F418 
 272      AAE4315B 
 272      2AB9EED8 
 272      02
 273 0376 672A193B 		.ascii	"g*\031;\377\021Y\303>E}\\\354\352\225>\306\215\372x"
 273      FF1159C3 
 273      3E457D5C 
 273      ECEA953E 
 273      C68DFA78 
 274 038a 7421EA63 		.ascii	"t!\352c\334\226>\256vQ\272\247\326\255s\231*\336\273"
ARM GAS  /tmp/ccwXRxw7.s 			page 21


 274      DC963EAE 
 274      7651BAA7 
 274      D6AD7399 
 274      2ADEBB
 275 039d 2EBDE2D9 		.ascii	".\275\342\331Q\2458\245J\237\243*}a\271\026|\204\374"
 275      51A538A5 
 275      4A9FA32A 
 275      7D61B916 
 275      7C84FC
 276 03b0 1FEBF562 		.ascii	"\037\353\365b\260\341\330\002\364j\252\027W\024)\321"
 276      B0E1D802 
 276      F46AAA17 
 276      571429D1 
 277 03c0 D6A721B8 		.ascii	"\326\247!\270\031j5x\367Mv\032\272\262\257\321\217\037"
 277      196A3578 
 277      F74D761A 
 277      BAB2AFD1 
 277      8F1F
 278 03d2 77992E08 		.ascii	"w\231.\0106\240Zfo\273\015}\313Y\004:\3452.\010Y\206"
 278      36A05A66 
 278      6FBB0D7D 
 278      CB59043A 
 278      E5322E08 
 279 03e8 05214BEF 		.ascii	"\005!K\357\344\263\274\311\002\011\310\3730N\233\203"
 279      E4B3BCC9 
 279      0209C8FB 
 279      304E9B83 
 280 03f8 67300A50 		.ascii	"g0\012PG\250\231\000}\264\000\301\026\367\274\312^\230"
 280      47A89900 
 280      7DB400C1 
 280      16F7BCCA 
 280      5E98
 281 040a 26B716D8 		.ascii	"&\267\026\330W\340\226cD\201/\240\002w\367N\201;\214"
 281      57E09663 
 281      44812FA0 
 281      0277F74E 
 281      813B8C
 282 041d 0ADCA928 		.ascii	"\012\334\251(p\207-\005\236\353\356\251\300K\335\246"
 282      70872D05 
 282      9EEBEEA9 
 282      C04BDDA6 
 283 042d 0AFCB2DB 		.ascii	"\012\374\262\333\271\002wP\012\374=*\360EK\005~\307"
 283      B9027750 
 283      0AFC3D2A 
 283      F0454B05 
 283      7EC7
 284 043f 6D43813D 		.ascii	"mC\201=&\012L\215\247\214\3641\216\364\011\373k\310"
 284      260A4C8D 
 284      A78CF431 
 284      8EF409FB 
 284      6BC8
 285 0451 4F637E1E 		.ascii	"Oc~\036\362\304\207c\366\272\215\372\245x(\012)\351"
 285      F2C48763 
 285      F6BA8DFA 
 285      A578280A 
 285      29E9
 286 0463 CA985458 		.ascii	"\312\230TXf\252B:\034\206\350 1\334Q\034\356\315\336"
ARM GAS  /tmp/ccwXRxw7.s 			page 22


 286      66AA423A 
 286      1C86E820 
 286      31DC511C 
 286      EECDDE
 287 0476 6A566CD1 		.ascii	"jVl\321\307\313\234\231fl\373\302+\211\016L\345\310"
 287      C7CB9C99 
 287      666CFBC2 
 287      2B890E4C 
 287      E5C8
 288 0488 14C67B70 		.ascii	"\024\306{p\373\2651\276\262c\037g\354pa6?\310\205\034"
 288      FBB531BE 
 288      B2631F67 
 288      EC706136 
 288      3FC8851C 
 289 049c DBF0F132 		.ascii	"\333\360\3612\226pa\266\227`\265\376}\023<\304\017}"
 289      967061B6 
 289      9760B5FE 
 289      7D133CC4 
 289      0F7D
 290 04ae 75EAA4EA 		.ascii	"u\352\244\352^\0329\022)\255\316H\033)\351\2018f-v\231"
 290      5E1A3912 
 290      29ADCE48 
 290      1B29E981 
 290      38662D76 
 291 04c3 C51996A5 		.ascii	"\305\031\226\245\016\336\247\324\246[\224\344\330\305"
 291      0EDEA7D4 
 291      A65B94E4 
 291      D8C5
 292 04d1 135EB939 		.ascii	"\023^\2719\327d\250\0214\313\232G<\023\277\372=Y\356"
 292      D764A811 
 292      34CB9A47 
 292      3C13BFFA 
 292      3D59EE
 293 04e4 CBB37390 		.ascii	"\313\263s\220\342\263\346\024\267\215\260\302\341\230"
 293      E2B3E614 
 293      B78DB0C2 
 293      E198
 294 04f2 2EECD264 		.ascii	".\354\322d\2408\376\372\205\366kZ\021\271\311\006\331"
 294      A038FEFA 
 294      85F66B5A 
 294      11B9C906 
 294      D9
 295 0503 D362871A 		.ascii	"\323b\207\032\227\332\212Q\333\334\332\360%I6\216\234"
 295      97DA8A51 
 295      DBDCDAF0 
 295      2549368E 
 295      9C
 296 0514 890D406F 		.ascii	"\211\015@o\274\000\271x;3\255\334\3650\034\363>vi\355"
 296      BC00B978 
 296      3B33ADDC 
 296      F5301CF3 
 296      3E7669ED 
 297 0528 C945FC9F 		.ascii	"\311E\374\237\024.Zmq\321\251r\301\263\363\271\034\200"
 297      142E5A6D 
 297      71D1A972 
 297      C1B3F3B9 
 297      1C80
ARM GAS  /tmp/ccwXRxw7.s 			page 23


 298 053a 3D9C80B5 		.ascii	"=\234\200\265kHz\274\313;r\233x\015\354S\307`>\035X"
 298      6B487ABC 
 298      CB3B729B 
 298      780DEC53 
 298      C7603E1D 
 299 054f CBCE250E 		.ascii	"\313\316%\016\027\314E\027O]\375:\262\337\206\206\371"
 299      17CC4517 
 299      4F5DFD3A 
 299      B2DF8686 
 299      F9
 300 0560 52D62F62 		.ascii	"R\326/b\230\233\262l0bm\2300+\373\256\335\272^\226g"
 300      989BB26C 
 300      30626D98 
 300      302BFBAE 
 300      DDBA5E96 
 301 0575 656AFA99 		.ascii	"ej\372\231i\305\010\307l\303\301V\031gv\321\345}7+3"
 301      69C508C7 
 301      6CC3C156 
 301      196776D1 
 301      E57D372B 
 302 058a BBCAD6CC 		.ascii	"\273\312\326\314n\336\275\320\236~fj\303\007q\370\313"
 302      6EDEBDD0 
 302      9E7E666A 
 302      C30771F8 
 302      CB
 303 059b 38FCF3C6 		.ascii	"8\374\363\306\3417\375\345\364\035\312\360\317\333\032"
 303      E137FDE5 
 303      F41DCAF0 
 303      CFDB1A
 304 05aa FEF85E93 		.ascii	"\376\370^\223-\034\317\336qe\312\351\273|n\340r\034"
 304      2D1CCFDE 
 304      7165CAE9 
 304      BB7C6EE0 
 304      721C
 305 05bc 642D2A50 		.ascii	"d-*P\273\3078}\303s\350\261\360\231j\3001\373=\032\365"
 305      BBC7387D 
 305      C373E8B1 
 305      F0996AC0 
 305      31FB3D1A 
 306 05d1 BDD25F60 		.ascii	"\275\322_`\363\315\341\317\341Li4\034r\214\250W\342"
 306      F3CDE1CF 
 306      E14C6934 
 306      1C728CA8 
 306      57E2
 307 05e3 0B7BD122 		.ascii	"\013{\321\"\024\260\243v\300,\025iZ\354;\032\354S\307"
 307      14B0A376 
 307      C02C1569 
 307      5AEC3B1A 
 307      EC53C7
 308 05f6 607ACABE 		.ascii	"`z\312\276\247\301>\267\003\326\327\232\262\037h\260"
 308      A7C13EB7 
 308      03D6D79A 
 308      B21F68B0 
 309 0606 138EC1F4 		.ascii	"\023\216\301\364\224\375H\203\235\266\0036\300\232\262"
 309      94FD4883 
 309      9DB60336 
 309      C09AB2
ARM GAS  /tmp/ccwXRxw7.s 			page 24


 310 0615 9F68B0B3 		.ascii	"\237h\260\263\216\301\364\224]\246\301\316\333\001\363"
 310      8EC1F494 
 310      5DA6C1CE 
 310      DB01F3
 311 0624 5953D674 		.ascii	"YS\326t\200\002\353p\014\246\247\254\231\006\273d\007"
 311      8002EB70 
 311      0CA6A7AC 
 311      9906BB64 
 311      07
 312 0635 6CA03565 		.ascii	"l\2405e\363i\260.\307`z\312\236\242\301\246zm\200\025"
 312      F369B02E 
 312      C7607ACA 
 312      9EA2C1A6 
 312      7A6D8015 
 313 0649 5853D64A 		.ascii	"XS\326J\20358\006\323S\266\230\006\233e\007l\2305eK"
 313      83353806 
 313      D353B698 
 313      069B6507 
 313      6C983565 
 314 065e 68B0398E 		.ascii	"h\2609\216\301\364\224\275B\203\315\263\0036\302\232"
 314      C1F494BD 
 314      4283CDB3 
 314      0336C29A 
 315 066e B2F534D8 		.ascii	"\262\3654\330|\307`z\3126\322`\013\355\200\215\266\246"
 315      7CC7607A 
 315      CA36D260 
 315      0BED808D 
 315      B6A6
 316 0680 EC551A6C 		.ascii	"\354U\032l\261c0=e[h\260\245v\300\356\265\246\3545\032"
 316      B163303D 
 316      655B68B0 
 316      A576C0EE 
 316      B5A6EC35 
 317 0695 ACCD3198 		.ascii	"\254\3151\230\236\262m4\3303v\300&ZS\366\006\015\366"
 317      9EB26D34 
 317      D83376C0 
 317      265A53F6 
 317      060DF6
 318 06a8 AC63303D 		.ascii	"\254c0=e\373h\260\027\354\200=hBY\342c\326\217,\323"
 318      65FB68B0 
 318      17EC803D 
 318      684259E2 
 318      63D68F2C 
 319 06bd CF71D466 		.ascii	"\317q\324fm\255W\013p\034\256\321L\022c\275\327iD\246"
 319      6DAD570B 
 319      701CAED1 
 319      4C1263BD 
 319      D76944A6 
 320 06d1 E39BC4C9 		.ascii	"\343\233\304\311\327\276\246\256\363J\260\272\305\016"
 320      D7BEA6AE 
 320      F34AB0BA 
 320      C50E
 321 06df 628A0570 		.ascii	"b\212\005p\361N*\362\2159\0063\2502\001\323\205N\211"
 321      F14E2AF2 
 321      8D390633 
 321      A83201D3 
 321      854E89
ARM GAS  /tmp/ccwXRxw7.s 			page 25


 322 06f2 A3FF58EA 		.ascii	"\243\377X\352\023\017\362\202\211\243\336\023\0140o"
 322      130FF282 
 322      89A3DE13 
 322      0C306F
 323 0701 CBB36738 		.ascii	"\313\263g8\262\205\377\033\347MP\241\224\265\222rd\320"
 323      B285FF1B 
 323      E74D50A1 
 323      94B59272 
 323      64D0
 324 0713 EED51F38 		.ascii	"\356\325\0378$>\351\272Zi\302iZ\023>\260#\246\024K\373"
 324      243EE9BA 
 324      5A69C269 
 324      5A133EB0 
 324      23A6144B 
 325 0728 F19D4BF0 		.ascii	"\361\235K\360<\323\376{\221E\027\367\251\033\204s\270"
 325      3CD3FE7B 
 325      914517F7 
 325      A91B8473 
 325      B8
 326 0739 41F8D06B 		.ascii	"A\370\320k\214079|3\002q\230\221\013\263c\025\353\230"
 326      8C303739 
 326      7C330271 
 326      98910BB3 
 326      6315EB98 
 327 074d 0274F1C8 		.ascii	"\002t\361\310\365[\327\312r}\246\023>\332U>:\220\217"
 327      F55BD7CA 
 327      727DA613 
 327      3EDA553E 
 327      3A908F
 328 0760 13BF001F 		.ascii	"\023\277\000\037g\035\3631\320\300Gl\240s>\216\250|"
 328      671DF331 
 328      D0C0476C 
 328      A0733E8E 
 328      A87C
 329 0772 FC887C74 		.ascii	"\374\210|t\374\002|t9\346\243\200\342\003wk\203\224"
 329      FC027C74 
 329      39E6A380 
 329      E203776B 
 329      8394
 330 0784 DDDA154C 		.ascii	"\335\332\025Ls\352\335\032\241\247\233\273\302p\276"
 330      73EADD1A 
 330      A1A79BBB 
 330      C270BE
 331 0793 BD8B1C39 		.ascii	"\275\213\0349\222j\033\207\037\273\250-\256lo\213{N"
 331      926A1B87 
 331      1FBBA82D 
 331      AE6C6F8B 
 331      7B4E
 332 07a5 95D83417 		.ascii	"\225\3304\027\221\330\364l\223#a[HGw\274\263N=\376i"
 332      91D8F46C 
 332      9323615B 
 332      484777BC 
 332      B34E3DFE 
 333 07ba 40A8D9BD 		.ascii	"@\250\331\275\206j\331\265Yy\3358\023\201\232\263\215"
 333      866AD9B5 
 333      5979DD38 
 333      13819AB3 
ARM GAS  /tmp/ccwXRxw7.s 			page 26


 333      8D
 334 07cb B3986998 		.ascii	"\263\230i\230\304"
 334      C4
 335 07d0 4CFD24C2 		.ascii	"L\375$\302#\031\351\007\262\343f\037Sk\310C\026\363"
 335      2319E907 
 335      B2E3661F 
 335      536BC843 
 335      16F3
 336 07e2 FFDE8F63 		.ascii	"\377\336\217c\226 \371d\002\035.PI\005\372\375VuqQ&"
 336      9620F964 
 336      021D2E50 
 336      4905FAFD 
 336      56757151 
 337 07f7 E9999F85 		.ascii	"\351\231\237\2058-\266\341q\355\230f8Y^^\374\231p\373"
 337      382DB6E1 
 337      71ED9866 
 337      38595E5E 
 337      FC9970FB 
 338 080b 773B3F58 		.ascii	"w;?X\211]\243h\335<dhC\217\031\356\325\301\312\366\336"
 338      895DA368 
 338      DD3C6468 
 338      438F19EE 
 338      D5C1CAF6 
 339 0820 3292F870 		.ascii	"2\222\370p\314\216l\033\213\210/\325l\3750\310\346\341"
 339      CC8E6C1B 
 339      8B882FD5 
 339      6CFD30C8 
 339      E6E1
 340 0832 4CE210F2 		.ascii	"L\342\020\362\324\200v\024\306B\0279\276\333e\020\206"
 340      D4807614 
 340      C6421739 
 340      BEDB6510 
 340      86
 341 0843 8D439EA3 		.ascii	"\215C\236\243\330e\261\253\307\361\335\276\253\225S"
 341      D865B1AB 
 341      C7F1DDBE 
 341      AB9553
 342 0852 16F2271B 		.ascii	"\026\362'\033\207<\272\343;\236]\302q*lo\345\251\233"
 342      873CBAE3 
 342      3B9E5DC2 
 342      712A6C6F 
 342      E5A99B
 343 0865 C2247D00 		.ascii	"\302$}\000\355\"\361\302R\227\356\230\377\264c\331\373"
 343      ED22F1C2 
 343      5297EE98 
 343      FFB463D9 
 343      FB
 344 0876 68D9C73A 		.ascii	"h\331\307:w/a\025\372\225\343\334o\215x#\350XN-Z\356"
 344      772F6115 
 344      FA95E3DC 
 344      6F8D7823 
 344      E8584E2D 
 345 088c 5BE558F3 		.ascii	"[\345X\363\036\014\302\024\243\273l\207\270\024[\315"
 345      1E0CC214 
 345      A3BB6C87 
 345      B8145BCD 
 346 089c 650A98A2 		.ascii	"e\012\230\242\360\323s\234\202\371t`\257\31759.V\216"
ARM GAS  /tmp/ccwXRxw7.s 			page 27


 346      F0D3739C 
 346      82F97460 
 346      AFCF3539 
 346      2E568E
 347 08af C8AD1696 		.ascii	"\310\255\026\226\325.*Tz\322\316\370)v\247\207\366,"
 347      D52E2A54 
 347      7AD2CEF8 
 347      2976A787 
 347      F62C
 348 08c1 51354539 		.ascii	"Q5E9\031]\344\030O\317\317\371\271:\217\264\322\016"
 348      195DE418 
 348      4FCFCFF9 
 348      B93A8FB4 
 348      D20E
 349 08d3 DC08DB8A 		.ascii	"\334\010\333\212\227<\327\006%\304@\365i\216\274\031"
 349      973CD706 
 349      25C440F5 
 349      698EBC19 
 350 08e3 5A8AF972 		.ascii	"Z\212\371r\314Wb\376%\346'1?\205\371\377b\376\035\346"
 350      CC5762FE 
 350      25E62731 
 350      3F85F9FF 
 350      62FE1DE6 
 351 08f7 9730BF8C 		.ascii	"\2270\277\214\371S.\354\213\371\012\314\237\301|\025"
 351      F9532EEC 
 351      8BF90ACC 
 351      9FC17C15 
 352 0907 E66B307F 		.ascii	"\346k0\177\236Vo\253yQL-a\230\232\3255\365\372\320\374"
 352      9E566FAB 
 352      79514C2D 
 352      61989AD5 
 352      35F5FAD0 
 353 091c 70F2D09C 		.ascii	"p\362\320\234g\2279\006\363\245\222d\023%\311f\224d"
 353      67973906 
 353      F3A59264 
 353      1325C966 
 353      9464
 354 092e 0B4AE345 		.ascii	"\013J\343E\275!\277\230\243\275\306Iax\326,\304?\374"
 354      BD21BF98 
 354      A3BDC649 
 354      6178D62C 
 354      C43FFC
 355 0941 EA54D622 		.ascii	"\352T\326\"96\335\245\355\2006\032\001\323n\320\364"
 355      3936DDA5 
 355      ED80361A 
 355      01D36ED0 
 355      F4
 356 0952 32B92C18 		.ascii	"2\271,\030n\\(\357\250\254\346d\035m+\333\034\217\235"
 356      6E5C28EF 
 356      A8ACE664 
 356      1D6D2BDB 
 356      1C8F9D
 357 0965 5284B328 		.ascii	"R\204\263(\021>\216\"|\002E\270\026U\346\025Z\220<;"
 357      113E8E22 
 357      7C0245B8 
 357      1655E615 
 357      5A903C3B 
ARM GAS  /tmp/ccwXRxw7.s 			page 28


 358 0979 9B33DC37 		.ascii	"\2333\3347\321\2770K1x\342%w\307a\223\013'\312\253\242"
 358      D1BF304B 
 358      3178E225 
 358      77C76193 
 358      0B27CAAB 
 359 098e 148BD2C2 		.ascii	"\024\213\322\3027\216^\373\".\035\033]d\002:s\214+\364"
 359      378E5EFB 
 359      222E1D1B 
 359      5D64023A 
 359      738C2BF4 
 360 09a2 7CCE7078 		.ascii	"|\316pxnPd\216\231\233k\343\005d\212\235\314\272\271"
 360      6E50648E 
 360      999B6BE3 
 360      05648A9D 
 360      CCBAB9
 361 09b5 170FB3F5 		.ascii	"\027\017\263\365\365\362\232\0025\262\220\033\345\201"
 361      F5F29A02 
 361      35B2901B 
 361      E581
 362 09c3 6B928B60 		.ascii	"k\222\213`_\015\203K\320\035\333\244\274H\335\212^v"
 362      5F0D834B 
 362      D01DDBA4 
 362      BC48DD8A 
 362      5E76
 363 09d5 41AEE9FD 		.ascii	"A\256\351\375\206\3640\361\243\215\233\177\217\021\350"
 363      86F430F1 
 363      A38D9B7F 
 363      8F11E8
 364 09e4 36045ADE 		.ascii	"6\004Z\336k\240\226\331\317*\027%\266#\320\232\\\243"
 364      6BA096D9 
 364      CF2A1725 
 364      B623D09A 
 364      5CA3
 365 09f6 185D8638 		.ascii	"\030]\2068\307\245\217s\\\336d\241\273\333\305\374\035"
 365      C7A58F73 
 365      5CDE64A1 
 365      BBDBC5FC 
 365      1D
 366 0a07 1B431866 		.ascii	"\033C\030f\2340\035G\351b\0372a]\252\262i7L\266\330"
 366      9C301D47 
 366      E9621F32 
 366      615DAAB2 
 366      69374CB6 
 367 0a1c 51011DA2 		.ascii	"Q\001\035\242N\005b?}\214\276L\001{\313\016X\212c\350"
 367      4E05623F 
 367      7D8CBE4C 
 367      017BCB0E 
 367      588A63E8 
 368 0a30 05CB965B 		.ascii	"\005\313\226[\276\303jK{\365*\276\365\344{\177 \027"
 368      BEC36A4B 
 368      7BF52ABE 
 368      F5E47B7F 
 368      2017
 369 0a42 01D35FBF 		.ascii	"\001\323_\277\332\345\262w\375\352}\227\361=\367\036"
 369      DAE5B277 
 369      FDEA7D97 
 369      F13DF71E 
ARM GAS  /tmp/ccwXRxw7.s 			page 29


 370 0a52 BC7EF5BE 		.ascii	"\274~\365\276\255h\355\242Y\014`v\0331\3412\006$\231"
 370      AD68EDA2 
 370      590C6076 
 370      1B31E132 
 370      062499
 371 0a65 F9E8EBF7 		.ascii	"\371\350\353\367\356Pn5\356\303\240s\357\257\322\337"
 371      EE506E35 
 371      EEC3A073 
 371      EFAFD2DF 
 372 0a75 6AD4E110 		.ascii	"j\324\341\020\372\016\032\351\337\260\027\351?\230\236"
 372      FA0E1AE9 
 372      DFB017E9 
 372      3F989E
 373 0a84 FEE9F5B1 		.ascii	"\376\351\365\261\315\352;=4\246\372\224\333\006\236"
 373      CDEA3B3D 
 373      34A6FA94 
 373      DB069E
 374 0a93 3D835744 		.ascii	"=\203WD\354l\002\276@N\016:\017ZU\262\266(\357d\016"
 374      EC6C02BE 
 374      404E0E3A 
 374      0F5A55B2 
 374      B628EF64 
 375 0aa8 A3BD9E70 		.ascii	"\243\275\236p\014\346\323\201\275F\203}m\007\314j\021"
 375      0CE6D381 
 375      BD46837D 
 375      6D07CC6A 
 375      11
 376 0ab9 03B06D34 		.ascii	"\003\260m4\3307\216\301\364\224\275A\203}k\007\314\352"
 376      D8378EC1 
 376      F494BD41 
 376      837D6B07 
 376      CCEA
 377 0acb B412C0F6 		.ascii	"\264\022\300\366\321`?8\006\363\231i\011\323C\311x\366"
 377      D1603F38 
 377      06F39969 
 377      09D343C9 
 377      78F6
 378 0add 43DC351C 		.ascii	"C\3345\034\302\225\362\010\346\3070\377\004\363\317"
 378      C295F208 
 378      E6C730FF 
 378      04F3CF
 379 0aec 308FDB09 		.ascii	"0\217\333\011\272\366\322\013\374OH\360\373\275\323"
 379      BAF6D20B 
 379      FC4F48F0 
 379      FBBDD3
 380 0afb 18707B5B 		.ascii	"\030p{[O~~\273r\372kXc\211<\254(\370\222\246\240>\317"
 380      4F7E7EBB 
 380      72FA6B58 
 380      63893CAC 
 380      28F892A6 
 381 0b12 29053E9A 		.ascii	")\005>\232\202X\347\036\345\344R\273\350=\323\210g\367"
 381      8258E71E 
 381      E5E452BB 
 381      E83DD388 
 381      67F7
 382 0b24 6A96162E 		.ascii	"j\226\026.\355\311y\345A\015\354I\307`\272\353\327\261"
 382      EDC979E5 
ARM GAS  /tmp/ccwXRxw7.s 			page 30


 382      410DEC49 
 382      C760BAEB 
 382      D7B1
 383 0b36 A6BD14D8 		.ascii	"\246\275\024\330\"\307`}{h\204\242\013\037\240.\354"
 383      22C7607D 
 383      7B6884A2 
 383      0B1FA02E 
 383      EC
 384 0b47 C139FF2B 		.ascii	"\3019\377+\346'1?\205\371\327\372\200\264-\317\270\356"
 384      E627313F 
 384      85F9D7FA 
 384      80B42DCF 
 384      B8EE
 385 0b59 2A3E9642 		.ascii	"*>\226BM:c\306.\256\325\334\266\323s\273!\317\351\252"
 385      4D3A63C6 
 385      2EAED5DC 
 385      B6D373BB 
 385      21CFE9AA 
 386 0b6d A59B5B58 		.ascii	"\245\233[XTw~\245-\252\355\030\213m\265\203\230b'\272"
 386      54777EA5 
 386      2DAAED18 
 386      8B6DB583 
 386      986227BA 
 387 0b81 F133E3EB 		.ascii	"\3613\343\353\0003o\317\321\264%V\2157\357WV\215\013"
 387      00336FCF 
 387      D1B42556 
 387      8D37EF57 
 387      568D0B
 388 0b94 B86A6CCF 		.ascii	"\270jl\317K\277jpz\036y\266\303\270j\\:\210\253F\207"
 388      4BBF6A70 
 388      7A1E79B6 
 388      C3B86A5C 
 388      3A88AB46 
 389 0ba9 AD55A3EB 		.ascii	"\255U\243\353\340|u\247\250x\233\335HBG\257\335\375"
 389      E07C75A7 
 389      A8789BDD 
 389      484247AF 
 389      DDFD
 390 0bbb E58394EB 		.ascii	"\345\203\224\353\332\353\030\314\247\003k:L\201\035"
 390      DAEB18CC 
 390      A7036B3A 
 390      4C811D
 391 0bca B40396C2 		.ascii	"\264\003\226\302\3357\323`G\034\203\351)\233O\203}j"
 391      DD37D360 
 391      471C83E9 
 391      299B4F83 
 391      7D6A
 392 0bdc 072C85BB 		.ascii	"\007,\205\273\177\212\006\213;\006\323S\326J\203}i\007"
 392      7F8A068B 
 392      3B06D353 
 392      D64A837D 
 392      6907
 393 0bee CCEA150E 		.ascii	"\314\352\025\016\200-\246\301N9\006\323S\266\204\006"
 393      802DA6C1 
 393      4E3906D3 
 393      53B68406 
 394 0bfe FB9B1D30 		.ascii	"\373\233\0350\2375e\313h\260\013\216\301|f&\241|h\213"
ARM GAS  /tmp/ccwXRxw7.s 			page 31


 394      9F3565CB 
 394      68B00B8E 
 394      C17C6626 
 394      A17C688B 
 395 0c12 E2D9EFD1 		.ascii	"\342\331\357\321-^Dgu\011\363N\314\2730\357\306|\252"
 395      2D5E4467 
 395      7509F34E 
 395      CCBB30EF 
 395      C67CAA
 396 0c25 9BE4F598 		.ascii	"\233\344\365\2307`>\003\363Yn\033\316\355<\355\334."
 396      37603E03 
 396      F3596E1B 
 396      CEED3CED 
 396      DC2E
 397 0c37 3A764529 		.ascii	":vE)\031I\376D\206g\337\302\210\357m\274\302{\010s\031"
 397      1949FE44 
 397      8667DFC2 
 397      88EF6DBC 
 397      C27B0873 
 398 0c4c F7C90D98 		.ascii	"\367\311\015\230o@F\266`\3766\346\357b\276\023\363o"
 398      6F4046B6 
 398      60FE36E6 
 398      EF62BE13 
 398      F36F
 399 0c5e 303F67C7 		.ascii	"0?g\307W\277\236\274\370\013\373q7\331n\257\352\365"
 399      57BF9EBC 
 399      F80BFB71 
 399      37D96EAF 
 399      EAF5
 400 0c70 95F213BB 		.ascii	"\225\362\023\273\237tz'\377L|\265\372\326d\016\336\337"
 400      9F747A27 
 400      FF4C7CB5 
 400      FAD6640E 
 400      DEDF
 401 0c82 EEECB152 		.ascii	"\356\354\261R\365\352(\274\241\017\233\236\223\024w"
 401      F5EA28BC 
 401      A10F9B9E 
 401      931477
 402 0c91 0C1BE6CE 		.ascii	"\014\033\346\316aID\321\217iB\217>@y\027\253\266\235"
 402      614944D1 
 402      8F69428F 
 402      3E407917 
 402      ABB69D
 403 0ca4 A821E4A8 		.ascii	"\250!\344\250$5\273\373aI\367\216\007[X\311\275\305"
 403      2435BBFB 
 403      6149F78E 
 403      075B58C9 
 403      BDC5
 404 0cb6 9D7CDF9B 		.ascii	"\235|\337\233\353M\026\262\023\2725\307\310\202n\324"
 404      EB4D16B2 
 404      13BA35C7 
 404      C8826ED4 
 405 0cc6 342E0F96 		.ascii	"4.\017\226\271\216\037\332Y\2719\327\020\223\2210\304"
 405      B98E1FDA 
 405      59B939D7 
 405      10939130 
 405      C4
ARM GAS  /tmp/ccwXRxw7.s 			page 32


 406 0cd7 8AA6A7DC 		.ascii	"\212\246\247\334\224j7\333\221`\212\267\311\337\007"
 406      946A37DB 
 406      91608AB7 
 406      C9DF07
 407 0ce6 C98A4D20 		.ascii	"\311\212M 9\246\3251\226\317\302F\030\375\0177yv5\232"
 407      39A6D531 
 407      96CFC246 
 407      18FD0F37 
 407      7976359A 
 408 0cfa C9B36820 		.ascii	"\311\263h \0331\337\206\371\023h\321\3630_\200y+m\335"
 408      1B31DF86 
 408      F91368D1 
 408      F3305F80 
 408      792B6DDD 
 409 0d0e D733CBE4 		.ascii	"\3273\313\344\266x\274\353\307\363\217\220\2036\271"
 409      B678BCEB 
 409      C7F38F90 
 409      8336B9
 410 0d1d BBFB31E6 		.ascii	"\273\3731\346*f\201:y2+)\307\336V\222z\332}\025\226"
 410      2A66813A 
 410      79322B29 
 410      C7DE5692 
 410      7ADA7D15 
 411 0d32 5CCA2F0E 		.ascii	"\\\312/\016\322\006\023\211\353\306\243\223\252\277"
 411      D2061389 
 411      EBC6A393 
 411      AABF
 412 0d40 BFF3F40D 		.ascii	"\277\363\364\015x4\262\314Mb\211\267\372\244\217%t0"
 412      7834B2CC 
 412      4D6289B7 
 412      FAA48F25 
 412      7430
 413 0d52 848E156E 		.ascii	"\204\216\025nC,\321I~\302Jj\323\277,\355^In\212k?\251"
 413      432CD149 
 413      7EC24A6A 
 413      D3BF2CED 
 413      5E496E8A 
 414 0d69 DD8DC393 		.ascii	"\335\215\303\223\236\352`\262\356\367\262\351v\001r"
 414      9EEA60B2 
 414      EEF7B2E9 
 414      760172
 415 0d78 6CDE258F 		.ascii	"l\336%\217<;W\263\2275y\312\331\221\332\264\307\326"
 415      3C3B57B3 
 415      973579CA 
 415      D991DAB4 
 415      C7D6
 416 0d8a 7FB56383 		.ascii	"\177\265c\203y\326\302`\264\337\271q\314\001#\013\272"
 416      79D6C260 
 416      B4DFB971 
 416      CC01230B 
 416      BA
 417 0d9b 51D32C51 		.ascii	"Q\323,Q\300A\313\331V\027JdP6\271\273mDs\024\267\312"
 417      C041CBD9 
 417      56174A64 
 417      5036B9BB 
 417      6D447314 
 418 0db1 B1F91FB0 		.ascii	"\261\371\037\260\304\000\020\353\270\035,\313\210U\216"
ARM GAS  /tmp/ccwXRxw7.s 			page 33


 418      C40010EB 
 418      B81D2CCB 
 418      88558E
 419 0dc0 2DECF0C8 		.ascii	"-\354\360\310\215\232l\333F\264\246\261\343\265\216"
 419      8D9A6CDB 
 419      46B4A6B1 
 419      E3B58E
 420 0dcf 85FBB285 		.ascii	"\205\373\262\205p\26534\2169\355\230\005\2758Z3Z\013"
 420      70B53334 
 420      8E39ED98 
 420      05BD385A 
 420      335A0B
 421 0de2 34E530D0 		.ascii	"4\3450\320\257?\323%\344\254w\314\300\006\013\006\372"
 421      AF3FD325 
 421      E4AC77CC 
 421      C0060B06 
 421      FA
 422 0df3 2418B8D0 		.ascii	"$\030\270\320C\301\315\216\222\315\336\371\230}h\323"
 422      43C1CD8E 
 422      92CDDEF9 
 422      987D68D3 
 423 0e03 E3D9BFB8 		.ascii	"\343\331\277\270\211\023z\006\335\314*\314\237\303\374"
 423      89137A06 
 423      DDCC2ACC 
 423      9FC3FC
 424 0e12 05CC5FC2 		.ascii	"\005\314_\302|\235\235\340bi\322\003\253\256%\261B'"
 424      7C9D9DE0 
 424      6269D203 
 424      ABAE25B1 
 424      4227
 425 0e24 9ED52B1C 		.ascii	"\236\325+\034<{_\362\204\023\326M\203\373\270\201yF"
 425      3C7B5FF2 
 425      8413D64D 
 425      83FBB881 
 425      7946
 426 0e36 969B8983 		.ascii	"\226\233\211\203\333OvO\243\025l\216\231\321\027_\225"
 426      DB4F764F 
 426      A3156C8E 
 426      99D1175F 
 426      95
 427 0e47 BAAF37A5 		.ascii	"\272\2577\245A\245@\351,o\026F+\303s\314\2544\335\220"
 427      41A540E9 
 427      2C6F1646 
 427      2BC373CC 
 427      AC34DD90 
 428 0e5b 48B5DBC5 		.ascii	"H\265\333\305\007\006h\333\335&c7\303\265)\225\227\337"
 428      070668DB 
 428      DD266337 
 428      C3B52995 
 428      97DF
 429 0e6d 30ABC83C 		.ascii	"0\253\310<\277\334\330\320\327\2558^&\305h\252\2546"
 429      BFDCD8D0 
 429      D7AD385E 
 429      26C568AA 
 429      AC36
 430 0e7f BB75FF49 		.ascii	"\273u\377I@\361\350\261&\241]>\007A\200\003g\036\323"
 430      40F1E8B1 
ARM GAS  /tmp/ccwXRxw7.s 			page 34


 430      26A15D3E 
 430      07418003 
 430      671ED3
 431 0e92 3B734506 		.ascii	";sE\006\352\203\207\231\241\374\250M\236\312>\302\230"
 431      EA838799 
 431      A1FCA84D 
 431      9ECA3EC2 
 431      98
 432 0ea3 7291BC28 		.ascii	"r\221\274(\006\241\230\333C6\371}Y+\255!\0154\005P\312"
 432      06A198DB 
 432      4336F97D 
 432      592BAD21 
 432      0D340550 
 433 0eb8 5A89654C 		.ascii	"Z\211eLfuy_\263Y\225;\203\352|\362\354V\014\331\266"
 433      6675795F 
 433      B359953B 
 433      83EA7CF2 
 433      EC560CD9 
 434 0ecd DB9ACFA7 		.ascii	"\333\232\317\247\311\304($\276\200\300\333-'F\245\323"
 434      C9C42824 
 434      BE80C0DB 
 434      2D2746A5 
 434      D3
 435 0ede 7C62AC46 		.ascii	"|b\254FS9\330a:1\257:\237\230\367\315&\306 \241\015"
 435      5339D861 
 435      3A31AF3A 
 435      9F98F7CD 
 435      26C620A1 
 436 0ef3 E612EA32 		.ascii	"\346\022\3522Jhwj\011Y\261j\325M\245p\217)\253\347\234"
 436      4A68776A 
 436      0959B16A 
 436      D54DA570 
 436      8F29ABE7 
 437 0f08 B37A2085 		.ascii	"\263z \205\016\362\354P\275\007P\036\015\202\210\231"
 437      0EF2EC50 
 437      BD07501E 
 437      0D828899 
 438 0f18 0B62BF60 		.ascii	"\013b\277`\020\304~[\252\322A\272\015%\226\177\034q"
 438      10C47E5B 
 438      AAD241BA 
 438      0D25967F 
 438      1C71
 439 0f2a AD7B0DA5 		.ascii	"\255{\015\245\374\305\216\334&V\355v\312F7+\241[\365"
 439      FCC58EDC 
 439      2656ED76 
 439      CA46372B 
 439      A15BF5
 440 0f3d 526575B8 		.ascii	"Reu\270\247\320\343M\361\225\007\236\220\331\246\251"
 440      A7D0E34D 
 440      F195079E 
 440      90D9A6A9 
 441 0f4d F1EEEEEB 		.ascii	"\361\356\356\353\035\310\375\263\024\201\234\022\032"
 441      1DC8FDB3 
 441      14819C12 
 441      1A
 442 0f5a 59F58C9B 		.ascii	"Y\365\214\233\270j\325\235\245q\325\337\031fJ\343\353"
 442      B86AD59D 
ARM GAS  /tmp/ccwXRxw7.s 			page 35


 442      A571D5DF 
 442      19664AE3 
 442      EB
 443 0f6b AF667CC5 		.ascii	"\257f|\305\272\216X\361e\361\353\037\002u\302\250Nq"
 443      BA8E58F1 
 443      65F1EB1F 
 443      0275C2A8 
 443      4E71
 444 0f7d 5A9D2C56 		.ascii	"Z\235,V\224\304\263\272\017\260|\236\343\246\333\033"
 444      94C4B3BA 
 444      0FB07C9E 
 444      E3A6DB1B 
 445 0f8d 64466D93 		.ascii	"dFm\223z\220u\326M\27735\210\345\361~\346b\371"
 445      7A9075D6 
 445      4DBF3335 
 445      88E5F17E 
 445      E662F9
 446 0fa0 C6542CDD 		.ascii	"\306T,\335\237\364f\272\317\245\224\213\352\364\014"
 446      9FF466BA 
 446      CFA5948B 
 446      EAF40C
 447 0faf 742DB6A0 		.ascii	"t-\266\240\353[S\272\232N\310\036\307\326\337\221\222"
 447      EB5B53BA 
 447      9A4EC81E 
 447      C7D6DF91 
 447      92
 448 0fc0 2CA3F8D3 		.ascii	",\243\370\323M\227\271\326=g\301F\247\2515-|\343\364"
 448      4D97B9D6 
 448      3D67C146 
 448      A7A9352D 
 448      7CE3F4
 449 0fd3 F0D6F5F2 		.ascii	"\360\326\365\362\364Y\362\345\356\307X\373\212\327e"
 449      F459F2E5 
 449      EEC758FB 
 449      8AD765
 450 0fe2 E484E88A 		.ascii	"\344\204\350\212\201\222m\026\224t\353)\371\027f\205"
 450      81926D16 
 450      9474EB29 
 450      F9176685 
 451 0ff2 2C1F8008 		.ascii	",\037\200\010f\321\300\205rl\252,\377\324"
 451      66D1C085 
 451      726CAA2C 
 451      FFD4
 452 1000 DDCDB25A 		.ascii	"\335\315\262Zd\2613\001b\266\200\021\270\251\031\012"
 452      64B13301 
 452      62B68011 
 452      B8A9190A 
 453 1010 DC443621 		.ascii	"\334D6!\022\203\252\2228\331\212\221i\031\011U5\364"
 453      1283AA92 
 453      38D98A91 
 453      69190955 
 453      35F4
 454 1022 5A9FA257 		.ascii	"Z\237\242W\275e/b\221V\275\246[\366jN1V\203e\257\317"
 454      BD652F62 
 454      9156BDA6 
 454      5BF66A4E 
 454      31568365 
ARM GAS  /tmp/ccwXRxw7.s 			page 36


 455 1038 528CD568 		.ascii	"R\214\325h\331\353\\\212^3\222\275,\202\370\001\372"
 455      D9EB5C8A 
 455      5E3392BD 
 455      2C82F801 
 455      FA
 456 1049 2D03CFCE 		.ascii	"-\003\317\316\314p\032\303\317\3120\217\3415\255P\221"
 456      CC701AC3 
 456      CFCA308F 
 456      E135AD50 
 456      91
 457 105a 628DF24C 		.ascii	"b\215\362Lv\352\272k\023\321\330\010\255!\375\313\346"
 457      76EABA6B 
 457      13D1D808 
 457      AD21FDCB 
 457      E6
 458 106b 1D7BB4DB 		.ascii	"\035{\264\333\270\2633\010\304~\203\3229\000kk\231}"
 458      B8B33308 
 458      C47E83D2 
 458      39006B6B 
 458      997D
 459 107d 2D39A09F 		.ascii	"-9\240\237\203@G\015@<\3531\234Oy\364\347S\036\345v"
 459      8340470D 
 459      403CEB31 
 459      9C4F79F4 
 459      E7531EE5 
 460 1092 2C7E94DB 		.ascii	",~\224\333\261\036\345\240\212|\036c~V_\303\024v\245"
 460      B11EE5A0 
 460      8A7C1E63 
 460      7E565FC3 
 460      1476A5
 461 10a5 98C226CB 		.ascii	"\230\302&\313\211\357H\321k\236e/2\277V\275\232\223"
 461      89EF48D1 
 461      6B9E652F 
 461      32BF56BD 
 461      9A93
 462 10b7 BD982B4B 		.ascii	"\275\230+K\304\320dA\214\346\207\212\002\376\250P\023"
 462      C4D06441 
 462      8CE6878A 
 462      02FEA850 
 462      13
 463 10c8 0D8B832A 		.ascii	"\015\213\203*\231\2341E\305e\370\340\2272\357\036\177"
 463      999C3145 
 463      C565F8E0 
 463      9732EF1E 
 463      7F
 464 10d9 9FAF98E9 		.ascii	"\237\257\230\351\223\254\212J\274$x\306\214\037Y\\>"
 464      93AC8A4A 
 464      BC2478C6 
 464      8C1F595C 
 464      3E
 465 10ea E68FA3DC 		.ascii	"\346\217\243\334cJ\306\216r\337y_\331\375\031\370\207"
 465      634AC68E 
 465      72DF795F 
 465      D9FD19F8 
 465      87
 466 10fb 1BF26BA3 		.ascii	"\033\362k\243b>/V\337\\\023\256\021n\026\370\207B\371"
 466      623E2F56 
ARM GAS  /tmp/ccwXRxw7.s 			page 37


 466      DF5C13AE 
 466      116E16F8 
 466      8742F9
 467 110e A19A4055 		.ascii	"\241\232@UmP\310\217J\301P\215\004\003d\325\302\367"
 467      6D50C88F 
 467      4AC1508D 
 467      040364D5 
 467      C2F7
 468 1120 30BF3424 		.ascii	"0\2774$E\343j>P\031\252\021\362\375A\241\202\257\255"
 468      45E36A3E 
 468      5019AA11 
 468      F2FD41A1 
 468      82AFAD
 469 1133 92FCD294 		.ascii	"\222\374\322\224\210\020\205\316^\277_\355\236\305\007"
 469      881085CE 
 469      5EBF5FED 
 469      9EC507
 470 1142 83A2108D 		.ascii	"\203\242\020\215\226\344W\206\253\205\374@88%?(L\316"
 470      96E45786 
 470      AB85FC40 
 470      3838253F 
 470      284CCE
 471 1155 878E0F85 		.ascii	"\207\216\017\205\302\321|I\254\255y8\037\012\225|U~"
 471      C2D17C49 
 471      ACAD7938 
 471      1F0A957C 
 471      557E
 472 1167 242C4AD1 		.ascii	"$,J\321\374\262\362q\203\213\362\307\216-\311\007\206"
 472      FCB2F271 
 472      838BF2C7 
 472      8E2DC907 
 472      86
 473 1178 261722DF 		.ascii	"&\027\"\337UUA\002\013\025\2124\212\354\300id\002\000"
 473      55554102 
 473      0B158A34 
 473      8AECC069 
 473      640200
 474 118b 74CE862F 		.ascii	"t\316\206/d\337/e\003\216\377\276\361c\306\217)\367"
 474      64DF2F65 
 474      038EFFBE 
 474      F163C68F 
 474      29F7
 475 119d 906259F9 		.ascii	"\220bY\371\204{\011\266\277t\324\310\222\373\177EJ\212"
 475      847B09B6 
 475      BF74D4C8 
 475      92FB7F45 
 475      4A8A
 476 11af E4FCE513 		.ascii	"\344\374\345\023\351\247\322\211\330s\354\204\342{F"
 476      E9A7D289 
 476      D873EC84 
 476      E27B46
 477 11be 95E4005E 		.ascii	"\225\344\000^8R\035\016\022\300\011\367\216\233P2\312"
 477      38521D0E 
 477      12C009F7 
 477      8E9B5032 
 477      CA
 478 11cf 0F7FBD42 		.ascii	"\017\177\275B-\226\215\003\201\373KF\375qL\361\250~"
ARM GAS  /tmp/ccwXRxw7.s 			page 38


 478      2D968D03 
 478      81FB4B46 
 478      FD714CF1 
 478      A87E
 479 11e1 BABAD113 		.ascii	"\272\272\321\023\312\312\263\302\021?\351\352!b\032"
 479      CACAB3C2 
 479      113FE9EA 
 479      21621A
 480 11f0 5C04088A 		.ascii	"\\\004\010\212\304H1'P\025\016<\354\217F\004!\230\007"
 480      C4483127 
 480      50150E3C 
 480      EC8F4604 
 480      219807
 481 1203 83046BA5 		.ascii	"\203\004k\245)\201)\201*\030'\257\254\274\304_r_\371"
 481      29812981 
 481      2A1827AF 
 481      ACBCC45F 
 481      725FF9
 482 1216 FDFEE2FB 		.ascii	"\375\376\342\373\213\307\216\352w\327\310\262r\352\331"
 482      8BC78EEA 
 482      77D7C8B2 
 482      72EAD9
 483 1225 5FF40FC6 		.ascii	"_\364\017\306\232\302\241\376\333\262\011\202\037!\010"
 483      9AC2A1FE 
 483      DBB20982 
 483      1F2108
 484 1234 97C5E19A 		.ascii	"\227\305\341\232\212\320\244\314\000~\021\251TT\361"
 484      8AD0A4CC 
 484      007E11A9 
 484      5454F1
 485 1243 93A2A046 		.ascii	"\223\242\240F\202(\206\305\350\340t\242\025\245\204"
 485      822886C5 
 485      E8E074A2 
 485      15A584
 486 1252 640395D5 		.ascii	"d\003\225\325R\035Q\226\352ZI\250\363K\031\370=\314"
 486      521D5196 
 486      EA5A49A8 
 486      F34B19F8 
 486      3DCC
 487 1264 1142744A 		.ascii	"\021BtJTS\233>R\245(\360\301\250\377\221Z\241\026\330"
 487      54539B3E 
 487      52A528F0 
 487      C1A8FF91 
 487      5AA116D8 
 488 1278 ED1BA8F4 		.ascii	"\355\033\250\364\353\252\2068C\016T\022\255\361(\020"
 488      EBAA8638 
 488      430E5412 
 488      ADF12810 
 489 1288 7EC99B80 		.ascii	"~\311\233\200\313\214\370k\204:\011\276\"\2420y\264"
 489      CB8CF86B 
 489      843A09BE 
 489      22A23079 
 489      B4
 490 1299 0D544535 		.ascii	"\015TE5G\226\216+\036W\007-\253#\241*b\223w\027\027"
 490      47968E2B 
 490      1E57072D 
 490      AB23A12A 
ARM GAS  /tmp/ccwXRxw7.s 			page 39


 490      62937717 
 491 12ae 43738DFE 		.ascii	"Cs\215\376,)\"\206\302~\0057\024\316\002\021\2038\244"
 491      2C292286 
 491      C27E0537 
 491      14CE0211 
 491      8338A4
 492 12c1 DB1CE357 		.ascii	"\333\034\343W\006\302\242@\254\234T\373A/\002R\335\277"
 492      06C2A240 
 492      AC9C54FB 
 492      412F0252 
 492      DDBF
 493 12d3 F70EC53F 		.ascii	"\367\016\305?\371\326j\"\004Q\230\004F\354\227\\\321"
 493      F9D66A22 
 493      04519804 
 493      46EC975C 
 493      D1
 494 12e4 C2A1906E 		.ascii	"\302\241\220n\2054\014\322m\256hQ\001\244BHE\220\006"
 494      85340CD2 
 494      6DAE6851 
 494      01A44248 
 494      459006
 495 12f7 431A02E9 		.ascii	"C\032\002\351\026H\320\256\010\332\025A\273\"h7\030"
 495      1648D0AE 
 495      08DA1541 
 495      BB226837 
 495      18
 496 1308 DA0D2EE4 		.ascii	"\332\015.\344\304!\234x\013'\016\345\304[9q\030'\336"
 496      C4219C78 
 496      0B270EE5 
 496      C45B3971 
 496      1827DE
 497 131b E6120B0B 		.ascii	"\346\022\013\013 \025rU\"|\015\316\210\370\201\332,"
 497      20157255 
 497      227C0DCE 
 497      88F881DA 
 497      2C
 498 132c 22E14705 		.ascii	"\"\341G\005\021\276\303UAAt\007*y\221\210\235\257\026"
 498      11BEC355 
 498      41417407 
 498      2A799188 
 498      9DAF16
 499 133f 3C926A87 		.ascii	"<\222j\207\360G,eI\212\031\3013\352b\226$\012\025Q\224"
 499      F0472C65 
 499      498A19C1 
 499      33EA6296 
 499      240A1551 
 500 1354 23296454 		.ascii	"#)dTG'\301\037U\363\000\337\242\2262\305\340\024\370"
 500      4727C11F 
 500      55F300DF 
 500      A29632C5 
 500      E014F8
 501 1367 9347A80B 		.ascii	"\223G\250\013I \026!\363Q)\374\320\177Gr\204\311B\215"
 501      49201621 
 501      F35129FC 
 501      D07F4772 
 501      84C9428D 
 502 137b 54CD471F 		.ascii	"T\315G\037&:\375()\270\"\376\332<M\223\252BQ\360T}("
ARM GAS  /tmp/ccwXRxw7.s 			page 40


 502      263AFD28 
 502      29B822FE 
 502      DA3C4D93 
 502      AA4251F0 
 503 1392 DD2235DE 		.ascii	"\335\"5\336\210\377Q>$\205j&e\203iF'\241\276e`\021*"
 503      88FF513E 
 503      24856A26 
 503      65836946 
 503      27A1BE65 
 504 13a9 84885003 		.ascii	"\204\210P\003\216q\022\264\002\215'\355\263\011m|\025"
 504      8E7112B4 
 504      028D27ED 
 504      B3096D7C 
 504      15
 505 13ba CE335446 		.ascii	"\3163TF\302\341\252\254jEK\341;\374h\215 fV\243\226"
 505      C2E1AAAC 
 505      6A454BE1 
 505      3BFC688D 
 505      206656A3 
 506 13cf DDEA4869 		.ascii	"\335\352HiU\232`\312\372\253z\013\"\020D\241&\000\002"
 506      559A60CA 
 506      FAAB7A0B 
 506      221044A1 
 506      260002
 507 13e2 CA54AABC 		.ascii	"\312T\252\274`\264\304\257\372%\364\037`\343\232\377"
 507      60B4C4AF 
 507      FA25F41F 
 507      60E39AFF 
 508 13f2 204537F9 		.ascii	" E7\371\223W\254\013V\363D\254^I+\335\345\324\007c~"
 508      9357AC0B 
 508      56F344AC 
 508      5E492BDD 
 508      E5D40763 
 509 1407 D790BA3A 		.ascii	"\327\220\272:X\026\252A\342\200\003t\335\236\016\006"
 509      5816AA41 
 509      E2800374 
 509      DD9E0E06 
 510 1417 78CE2F1E 		.ascii	"x\316/\036W6\246\014\000\224\236\025C\012\012\353\210"
 510      5736A60C 
 510      00949E15 
 510      430A0AEB 
 510      88
 511 1428 13EE5F32 		.ascii	"\023\356_2n\244\277\014\246\227\257\366\227\203\325"
 511      6EA4BF0C 
 511      A697AFF6 
 511      9783D5
 512 1437 9408155C 		.ascii	"\224\010\025\\q\251{|Iy\251\353\336\221\245\356q\005"
 512      71A97B7C 
 512      4979A9EB 
 512      DE91A5EE 
 512      7105
 513 1449 242B1C59 		.ascii	"$+\034Y\352\272\253\27043\212\015\335\241\212\200\230"
 513      EABAABB8 
 513      34338A0D 
 513      DDA18A80 
 513      98
 514 145a 198A5686 		.ascii	"\031\212V\206*$oT\250\252\010\325\004\205\272\314\311"
ARM GAS  /tmp/ccwXRxw7.s 			page 41


 514      2A246F54 
 514      A8AA08D5 
 514      0485BACC 
 514      C9
 515 146b 42400A8B 		.ascii	"B@\012\213\375\023\224\371\225\326\340\204\340A\254"
 515      FD1394F9 
 515      95D6E084 
 515      E041AC
 516 147a 23B95447 		.ascii	"#\271TG\226Im Wqi!\244\"\367\204\221\245\205$+\342J"
 516      96496D20 
 516      57716921 
 516      A422F784 
 516      91A58524 
 517 1491 4A5D6550 		.ascii	"J]ePYVZ\344*..\315(/\035S6\312}\327X \006$\354%\236"
 517      59565AE4 
 517      2A2E2ECD 
 517      282F1D53 
 517      36CA7DD7 
 518 14ac 29544DF4 		.ascii	")TM\364\222|\205k%7\321\336\014\251\356\316\332\212"
 518      927C856B 
 518      2537D1DE 
 518      0CA9EECE 
 518      DA8A
 519 14be 0C91E4FD 		.ascii	"\014\221\344\375\264\265\271:z\313\320\202[\007\005"
 519      B4B5B93A 
 519      7ACBD082 
 519      5B0705
 520 14cd 18630D58 		.ascii	"\030c\015X\236R\202\311S\026oW\200\257\362T\361Q\251"
 520      9E5282C9 
 520      53166F57 
 520      80AFF254 
 520      F151A9
 521 14e0 5CA88E78 		.ascii	"\\\250\216xI\341^\262@z\020\026f\332#\252\205\034\265"
 521      49E15EB2 
 521      407A1016 
 521      66DA23AA 
 521      851CB5
 522 14f3 63A82624 		.ascii	"c\250&$\261\325\231A\004\366<\304G\205\2210\301\031"
 522      B1D59941 
 522      04F63CC4 
 522      47859130 
 522      C119
 523 1505 FE3B41E5 		.ascii	"\376;A\345\2646Q)\034\311\"\031\360\233\253\326\001"
 523      B4365129 
 523      1CC92219 
 523      F09BABD6 
 523      01
 524 1516 AA205D97 		.ascii	"\252 ]\227x\340\2038N\255(\220\201\005\221\227\240\350"
 524      78E08338 
 524      4EAD2890 
 524      81059197 
 524      A0E8
 525 1528 89A87539 		.ascii	"\211\250u9R\262\362**\266\020\371\232(\037\220\374\017"
 525      52B2F22A 
 525      2AB610F9 
 525      9A281F90 
 525      FC0F
ARM GAS  /tmp/ccwXRxw7.s 			page 42


 526 153a D556E425 		.ascii	"\325V\344%\253\011Iyt\270\021\216\364\357\331);PY^\031"
 526      AB094979 
 526      74B8118E 
 526      F4EFD929 
 526      3B50595E 
 527 154f 2CAB1284 		.ascii	",\253\022\204\210\227\360^\034\256\255A3\036:D3cR\372"
 527      8897F05E 
 527      1CAEAD41 
 527      331E3A44 
 527      336352FA 
 528 1563 3FD3C458 		.ascii	"?\323\304X\253"
 528      AB
 529              		.text
 530              		.section	.gnu.lto_.symtab.1c0eb68ee7df4850,"",%progbits
 531 0000 6D733536 		.ascii	"ms5607_init\000\000\000\000\000\000\000\000\000\000"
 531      30375F69 
 531      6E697400 
 531      00000000 
 531      00000000 
 532 0015 00001A02 		.ascii	"\000\000\032\002\000\000ms5607_stop\000\000\000\000"
 532      00006D73 
 532      35363037 
 532      5F73746F 
 532      70000000 
 533 002a 00000000 		.ascii	"\000\000\000\000\000\000\000\000?\002\000\000ms5607"
 533      00000000 
 533      3F020000 
 533      6D733536 
 533      3037
 534 003c 5F726573 		.ascii	"_reset\000\000\000\000\000\000\000\000\000\000\000\000"
 534      65740000 
 534      00000000 
 534      00000000 
 534      0000
 535 004e 4B020000 		.ascii	"K\002\000\000ms5607_readPressureTemperature\000\000"
 535      6D733536 
 535      30375F72 
 535      65616450 
 535      72657373 
 536 0072 00000000 		.ascii	"\000\000\000\000\000\000\000\000\000\000Q\002\000\000"
 536      00000000 
 536      00005102 
 536      0000
 537 0080 49324353 		.ascii	"I2CSensor_transact_buf\000\000\002\000\000\000\000\000"
 537      656E736F 
 537      725F7472 
 537      616E7361 
 537      63745F62 
 538 009e 00000000 		.ascii	"\000\000\000\000]\002\000\000I2CSensor_init\000\000"
 538      5D020000 
 538      49324353 
 538      656E736F 
 538      725F696E 
 539 00b6 02000000 		.ascii	"\002\000\000\000\000\000\000\000\000\000d\002\000\000"
 539      00000000 
 539      00006402 
 539      0000
ARM GAS  /tmp/ccwXRxw7.s 			page 43


 540 00c4 49324353 		.ascii	"I2CSensor_stop\000\000\002\000\000\000\000\000\000\000"
 540      656E736F 
 540      725F7374 
 540      6F700000 
 540      02000000 
 541 00dc 00006F02 		.ascii	"\000\000o\002\000\000I2CSensor_transact\000\000\002"
 541      00004932 
 541      4353656E 
 541      736F725F 
 541      7472616E 
 542 00f7 00000000 		.ascii	"\000\000\000\000\000\000\000\000\000t\002\000\000ch"
 542      00000000 
 542      00740200 
 542      006368
 543 0106 54686453 		.ascii	"ThdSleep\000\000\002\000\000\000\000\000\000\000\000"
 543      6C656570 
 543      00000200 
 543      00000000 
 543      000000
 544 0119 007C0200 		.ascii	"\000|\002\000\000"
 544      00
 545              		.text
 546              		.section	.gnu.lto_.opts,"",%progbits
 547 0000 272D6D63 		.ascii	"'-mcpu=cortex-m4' '-mfloat-abi=hard' '-mfpu=fpv4-sp"
 547      70753D63 
 547      6F727465 
 547      782D6D34 
 547      2720272D 
 548 0033 2D643136 		.ascii	"-d16' '-mno-thumb-interwork' '-mthumb' '-O2' '-fomi"
 548      2720272D 
 548      6D6E6F2D 
 548      7468756D 
 548      622D696E 
 549 0066 742D6672 		.ascii	"t-frame-pointer' '-falign-functions=16' '-ffunction"
 549      616D652D 
 549      706F696E 
 549      74657227 
 549      20272D66 
 550 0099 2D736563 		.ascii	"-sections' '-fdata-sections' '-fno-common' '-flto' "
 550      74696F6E 
 550      73272027 
 550      2D666461 
 550      74612D73 
 551 00cc 272D6673 		.ascii	"'-fsingle-precision-constant'\000"
 551      696E676C 
 551      652D7072 
 551      65636973 
 551      696F6E2D 
 552              		.text
 553              		.section	.text.ms5607_init,"ax",%progbits
 554              		.align	2
 555              		.p2align 4,,15
 556              		.global	ms5607_init
 557              		.thumb
 558              		.thumb_func
 559              		.type	ms5607_init, %function
 560              	ms5607_init:
ARM GAS  /tmp/ccwXRxw7.s 			page 44


 561              		@ args = 0, pretend = 0, frame = 16
 562              		@ frame_needed = 0, uses_anonymous_args = 0
 563 0000 F0B5     		push	{r4, r5, r6, r7, lr}
 564 0002 214B     		ldr	r3, .L5
 565 0004 214E     		ldr	r6, .L5+4
 566 0006 0446     		mov	r4, r0
 567 0008 8E46     		mov	lr, r1
 568 000a 1746     		mov	r7, r2
 569 000c 93E80700 		ldmia	r3, {r0, r1, r2}
 570 0010 89B0     		sub	sp, sp, #36
 571 0012 05AB     		add	r3, sp, #20
 572 0014 03C3     		stmia	r3!, {r0, r1}
 573 0016 3078     		ldrb	r0, [r6]	@ zero_extendqisi2
 574 0018 1A70     		strb	r2, [r3]
 575 001a 4FF0C80C 		mov	ip, #200
 576 001e 04F13803 		add	r3, r4, #56
 577 0022 05AD     		add	r5, sp, #20
 578 0024 7146     		mov	r1, lr
 579 0026 00F1010E 		add	lr, r0, #1
 580 002a 0093     		str	r3, [sp]
 581 002c 0295     		str	r5, [sp, #8]
 582 002e 3A46     		mov	r2, r7
 583 0030 0025     		movs	r5, #0
 584 0032 00F13007 		add	r7, r0, #48
 585 0036 CDF804C0 		str	ip, [sp, #4]
 586 003a 2046     		mov	r0, r4
 587 003c 86F800E0 		strb	lr, [r6]
 588 0040 04F13403 		add	r3, r4, #52
 589 0044 8DF81B70 		strb	r7, [sp, #27]
 590 0048 8DF81D50 		strb	r5, [sp, #29]
 591 004c 8DF81E50 		strb	r5, [sp, #30]
 592 0050 FFF7FEFF 		bl	I2CSensor_init
 593 0054 2546     		mov	r5, r4
 594 0056 04F10A07 		add	r7, r4, #10
 595 005a A126     		movs	r6, #161
 596              	.L3:
 597 005c 84F83460 		strb	r6, [r4, #52]
 598 0060 0222     		movs	r2, #2
 599 0062 2046     		mov	r0, r4
 600 0064 0121     		movs	r1, #1
 601 0066 FFF7FEFF 		bl	I2CSensor_transact_buf
 602 006a 94F83820 		ldrb	r2, [r4, #56]	@ zero_extendqisi2
 603 006e 94F83930 		ldrb	r3, [r4, #57]	@ zero_extendqisi2
 604 0072 03EB0223 		add	r3, r3, r2, lsl #8
 605 0076 2B84     		strh	r3, [r5, #32]	@ movhi
 606 0078 0235     		adds	r5, r5, #2
 607 007a 0136     		adds	r6, r6, #1
 608 007c BD42     		cmp	r5, r7
 609 007e F6B2     		uxtb	r6, r6
 610 0080 ECD1     		bne	.L3
 611 0082 0020     		movs	r0, #0
 612 0084 09B0     		add	sp, sp, #36
 613              		@ sp needed
 614 0086 F0BD     		pop	{r4, r5, r6, r7, pc}
 615              	.L6:
 616              		.align	2
 617              	.L5:
ARM GAS  /tmp/ccwXRxw7.s 			page 45


 618 0088 00000000 		.word	.LANCHOR0
 619 008c 00000000 		.word	.LANCHOR1
 620              		.size	ms5607_init, .-ms5607_init
 621              		.section	.text.ms5607_stop,"ax",%progbits
 622              		.align	2
 623              		.p2align 4,,15
 624              		.global	ms5607_stop
 625              		.thumb
 626              		.thumb_func
 627              		.type	ms5607_stop, %function
 628              	ms5607_stop:
 629              		@ args = 0, pretend = 0, frame = 0
 630              		@ frame_needed = 0, uses_anonymous_args = 0
 631 0000 08B5     		push	{r3, lr}
 632 0002 FFF7FEFF 		bl	I2CSensor_stop
 633 0006 0020     		movs	r0, #0
 634 0008 08BD     		pop	{r3, pc}
 635              		.size	ms5607_stop, .-ms5607_stop
 636 000a 00BFAFF3 		.section	.text.ms5607_reset,"ax",%progbits
 636      0080
 637              		.align	2
 638              		.p2align 4,,15
 639              		.global	ms5607_reset
 640              		.thumb
 641              		.thumb_func
 642              		.type	ms5607_reset, %function
 643              	ms5607_reset:
 644              		@ args = 0, pretend = 0, frame = 0
 645              		@ frame_needed = 0, uses_anonymous_args = 0
 646              		@ link register save eliminated.
 647 0000 1E23     		movs	r3, #30
 648 0002 80F83430 		strb	r3, [r0, #52]
 649 0006 0121     		movs	r1, #1
 650 0008 0022     		movs	r2, #0
 651 000a FFF7FEBF 		b	I2CSensor_transact_buf
 652              		.size	ms5607_reset, .-ms5607_reset
 653 000e 00BF     		.section	.text.ms5607_readPressureTemperature,"ax",%progbits
 654              		.align	2
 655              		.p2align 4,,15
 656              		.global	ms5607_readPressureTemperature
 657              		.thumb
 658              		.thumb_func
 659              		.type	ms5607_readPressureTemperature, %function
 660              	ms5607_readPressureTemperature:
 661              		@ args = 0, pretend = 0, frame = 8
 662              		@ frame_needed = 0, uses_anonymous_args = 0
 663 0000 2DE9F047 		push	{r4, r5, r6, r7, r8, r9, r10, lr}
 664 0004 5823     		movs	r3, #88
 665 0006 84B0     		sub	sp, sp, #16
 666 0008 80F83430 		strb	r3, [r0, #52]
 667 000c 8A46     		mov	r10, r1
 668 000e 9146     		mov	r9, r2
 669 0010 0121     		movs	r1, #1
 670 0012 0022     		movs	r2, #0
 671 0014 8046     		mov	r8, r0
 672 0016 0446     		mov	r4, r0
 673 0018 FFF7FEFF 		bl	I2CSensor_transact_buf
ARM GAS  /tmp/ccwXRxw7.s 			page 46


 674 001c 0025     		movs	r5, #0
 675 001e 0746     		mov	r7, r0
 676 0020 6420     		movs	r0, #100
 677 0022 FFF7FEFF 		bl	chThdSleep
 678 0026 04F8345F 		strb	r5, [r4, #52]!
 679 002a 0326     		movs	r6, #3
 680 002c 2146     		mov	r1, r4
 681 002e 0122     		movs	r2, #1
 682 0030 03AB     		add	r3, sp, #12
 683 0032 4046     		mov	r0, r8
 684 0034 0096     		str	r6, [sp]
 685 0036 FFF7FEFF 		bl	I2CSensor_transact
 686 003a 4823     		movs	r3, #72
 687 003c 88F83430 		strb	r3, [r8, #52]
 688 0040 2A46     		mov	r2, r5
 689 0042 0121     		movs	r1, #1
 690 0044 0743     		orrs	r7, r7, r0
 691 0046 4046     		mov	r0, r8
 692 0048 FFF7FEFF 		bl	I2CSensor_transact_buf
 693 004c 0743     		orrs	r7, r7, r0
 694 004e 6420     		movs	r0, #100
 695 0050 FFF7FEFF 		bl	chThdSleep
 696 0054 88F83450 		strb	r5, [r8, #52]
 697 0058 2146     		mov	r1, r4
 698 005a 0096     		str	r6, [sp]
 699 005c 4046     		mov	r0, r8
 700 005e 0122     		movs	r2, #1
 701 0060 02AB     		add	r3, sp, #8
 702 0062 FFF7FEFF 		bl	I2CSensor_transact
 703 0066 0743     		orrs	r7, r7, r0
 704 0068 55D1     		bne	.L11
 705 006a 9DF80D30 		ldrb	r3, [sp, #13]	@ zero_extendqisi2
 706 006e 9DF80CC0 		ldrb	ip, [sp, #12]	@ zero_extendqisi2
 707 0072 9DF80940 		ldrb	r4, [sp, #9]	@ zero_extendqisi2
 708 0076 9DF80E70 		ldrb	r7, [sp, #14]	@ zero_extendqisi2
 709 007a 9DF80850 		ldrb	r5, [sp, #8]	@ zero_extendqisi2
 710 007e 9DF80A00 		ldrb	r0, [sp, #10]	@ zero_extendqisi2
 711 0082 B8F82860 		ldrh	r6, [r8, #40]
 712 0086 B8F82420 		ldrh	r2, [r8, #36]
 713 008a B8F82010 		ldrh	r1, [r8, #32]
 714 008e 1B02     		lsls	r3, r3, #8
 715 0090 03EB0C43 		add	r3, r3, ip, lsl #16
 716 0094 2402     		lsls	r4, r4, #8
 717 0096 3B44     		add	r3, r3, r7
 718 0098 04EB0544 		add	r4, r4, r5, lsl #16
 719 009c A3EB0623 		sub	r3, r3, r6, lsl #8
 720 00a0 0444     		add	r4, r4, r0
 721 00a2 B8F82A00 		ldrh	r0, [r8, #42]
 722 00a6 03FB02F2 		mul	r2, r3, r2
 723 00aa 002A     		cmp	r2, #0
 724 00ac 03FB00F3 		mul	r3, r3, r0
 725 00b0 B8BF     		it	lt
 726 00b2 7F32     		addlt	r2, r2, #127
 727 00b4 0904     		lsls	r1, r1, #16
 728 00b6 002B     		cmp	r3, #0
 729 00b8 01EBE212 		add	r2, r1, r2, asr #7
 730 00bc 34DB     		blt	.L23
ARM GAS  /tmp/ccwXRxw7.s 			page 47


 731              	.L13:
 732 00be DB15     		asrs	r3, r3, #23
 733 00c0 03F5FA63 		add	r3, r3, #2000
 734 00c4 07EE103A 		fmsr	s14, r3	@ int
 735 00c8 F8EEC77A 		fsitos	s15, s14
 736 00cc 9FED197A 		flds	s14, .L25
 737 00d0 84FB0245 		smull	r4, r5, r4, r2
 738 00d4 67EE877A 		fmuls	s15, s15, s14
 739 00d8 002C     		cmp	r4, #0
 740 00da 75F10003 		sbcs	r3, r5, #0
 741 00de C8ED0B7A 		fsts	s15, [r8, #44]
 742 00e2 1CDB     		blt	.L24
 743              	.L14:
 744 00e4 2E11     		asrs	r6, r5, #4
 745 00e6 07EE106A 		fmsr	s14, r6	@ int
 746 00ea DFED137A 		flds	s15, .L25+4
 747 00ee F8EEC76A 		fsitos	s13, s14
 748 00f2 9FED107A 		flds	s14, .L25
 749 00f6 E6EE877A 		vfma.f32	s15, s13, s14
 750 00fa C8ED0C7A 		fsts	s15, [r8, #48]
 751 00fe BAF1000F 		cmp	r10, #0
 752 0102 01D0     		beq	.L15
 753 0104 CAED007A 		fsts	s15, [r10]
 754              	.L15:
 755 0108 B9F1000F 		cmp	r9, #0
 756 010c 03D0     		beq	.L11
 757 010e D8F82C30 		ldr	r3, [r8, #44]	@ float
 758 0112 C9F80030 		str	r3, [r9]	@ float
 759              	.L11:
 760 0116 0020     		movs	r0, #0
 761 0118 04B0     		add	sp, sp, #16
 762              		@ sp needed
 763 011a BDE8F087 		pop	{r4, r5, r6, r7, r8, r9, r10, pc}
 764              	.L24:
 765 011e 14F1FF34 		adds	r4, r4, #-1
 766 0122 45F10F05 		adc	r5, r5, #15
 767 0126 DDE7     		b	.L14
 768              	.L23:
 769 0128 03F5FF03 		add	r3, r3, #8355840
 770 012c 03F5FF43 		add	r3, r3, #32640
 771 0130 7F33     		adds	r3, r3, #127
 772 0132 C4E7     		b	.L13
 773              	.L26:
 774              		.align	2
 775              	.L25:
 776 0134 0AD7233C 		.word	1008981770
 777 0138 1F8524C2 		.word	3257173279
 778              		.size	ms5607_readPressureTemperature, .-ms5607_readPressureTemperature
 779 013c AFF30080 		.section	.rodata
 780              		.align	2
 781              		.set	.LANCHOR0,. + 0
 782              	.LC0:
 783 0000 4D533536 		.ascii	"MS5607-X\000"
 783      30372D58 
 783      00
 784 0009 0000     		.space	2
 785 000b 00       		.section	.bss.sensCount,"aw",%nobits
ARM GAS  /tmp/ccwXRxw7.s 			page 48


 786              		.set	.LANCHOR1,. + 0
 787              		.type	sensCount, %object
 788              		.size	sensCount, 1
 789              	sensCount:
 790 0000 00       		.space	1
 791              		.comm	__gnu_lto_v1,1,1
 792              		.ident	"GCC: (GNU Tools for ARM Embedded Processors) 4.8.4 20140526 (release) [ARM/embedded-4_8-br
ARM GAS  /tmp/ccwXRxw7.s 			page 49


DEFINED SYMBOLS
                            *ABS*:0000000000000000 ms5607.c
     /tmp/ccwXRxw7.s:554    .text.ms5607_init:0000000000000000 $t
     /tmp/ccwXRxw7.s:560    .text.ms5607_init:0000000000000000 ms5607_init
     /tmp/ccwXRxw7.s:618    .text.ms5607_init:0000000000000088 $d
     /tmp/ccwXRxw7.s:622    .text.ms5607_stop:0000000000000000 $t
     /tmp/ccwXRxw7.s:628    .text.ms5607_stop:0000000000000000 ms5607_stop
     /tmp/ccwXRxw7.s:637    .text.ms5607_reset:0000000000000000 $t
     /tmp/ccwXRxw7.s:643    .text.ms5607_reset:0000000000000000 ms5607_reset
     /tmp/ccwXRxw7.s:654    .text.ms5607_readPressureTemperature:0000000000000000 $t
     /tmp/ccwXRxw7.s:660    .text.ms5607_readPressureTemperature:0000000000000000 ms5607_readPressureTemperature
     /tmp/ccwXRxw7.s:776    .text.ms5607_readPressureTemperature:0000000000000134 $d
     /tmp/ccwXRxw7.s:780    .rodata:0000000000000000 $d
     /tmp/ccwXRxw7.s:789    .bss.sensCount:0000000000000000 sensCount
     /tmp/ccwXRxw7.s:790    .bss.sensCount:0000000000000000 $d
                            *COM*:0000000000000001 __gnu_lto_v1
     /tmp/ccwXRxw7.s:779    .text.ms5607_readPressureTemperature:000000000000013c $t

UNDEFINED SYMBOLS
I2CSensor_init
I2CSensor_transact_buf
I2CSensor_stop
chThdSleep
I2CSensor_transact
