ARM GAS  /tmp/ccBg6PAR.s 			page 1


   1              		.syntax unified
   2              		.cpu cortex-m4
   3              		.eabi_attribute 27, 3
   4              		.eabi_attribute 28, 1
   5              		.fpu fpv4-sp-d16
   6              		.eabi_attribute 20, 1
   7              		.eabi_attribute 21, 1
   8              		.eabi_attribute 23, 3
   9              		.eabi_attribute 24, 1
  10              		.eabi_attribute 25, 1
  11              		.eabi_attribute 26, 1
  12              		.eabi_attribute 30, 2
  13              		.eabi_attribute 34, 1
  14              		.eabi_attribute 18, 4
  15              		.thumb
  16              		.file	"ms5607.c"
  17              		.section	.gnu.lto_.jmpfuncs.5ab12fc88ea716e9,"",%progbits
  18 0000 789CAD8D 		.ascii	"x\234\255\2151\016\2000\014\003\355\244(_\344\013]\030"
  18      310E8030 
  18      0C03EDA4 
  18      285FE40B 
  18      5D18
  19 0012 FB467E05 		.ascii	"\373F~\005IC$\006\272\221\305\226l_\004\202\257\273"
  19      49432406 
  19      BA91C596 
  19      6C5F0482 
  19      AFBB
  20 0024 1E6D306D 		.ascii	"\036m0m\350\014/;;\3112>\264\212\024\340`\210\214\034"
  20      E80C2F3B 
  20      3BC9323E 
  20      B48A14E0 
  20      60888C1C 
  21 0038 CE8E9C39 		.ascii	"\316\216\2349T\311\"\263\350}\256\250\361\323\266\012"
  21      54C922B3 
  21      E87DAEA8 
  21      F1D3B60A 
  22 0048 5F71D920 		.ascii	"_q\331 $\374p\316\232\362\007\0037\372\236\023u"
  22      24FC70CE 
  22      9AF20703 
  22      37FA9E13 
  22      75
  23              		.text
  24              		.section	.gnu.lto_.inline.5ab12fc88ea716e9,"",%progbits
  25 0000 789C7D4E 		.ascii	"x\234}N\261\015\3020\020\274\177;\266!\020\010\364P"
  25      B10DC230 
  25      10BC7F3B 
  25      B6211008 
  25      F450
  26 0012 80C436D4 		.ascii	"\200\3046\324\014\200\004l\001\024(%\0255c e\001\012"
  26      0C80046C 
  26      01142825 
  26      15356320 
  26      65010A
  27 0025 8A0CC000 		.ascii	"\212\014\300\000\010\211\035x\333r*\204-\237\375\367"
  27      08891D78 
  27      DB722A84 
  27      2D9FFDF7 
ARM GAS  /tmp/ccBg6PAR.s 			page 2


  28 0035 77E76730 		.ascii	"w\347g0~\255\011\305[#\237]\210\010\276\346\371\363"
  28      7EAD09C5 
  28      5B239F5D 
  28      8808BEE6 
  28      F9F3
  29 0047 6DD0BDD5 		.ascii	"m\320\275\325\024L\272OP\315\000p%`\317\313\264E\010"
  29      144CBA4F 
  29      50CD0070 
  29      2560CFCB 
  29      B44508
  30 005a 53248F1C 		.ascii	"S$\217\034s\235\006\203\352I\355\025\012\2352\365\351"
  30      739D0683 
  30      EA49ED15 
  30      0A9D32F5 
  30      E9
  31 006b 6561AB45 		.ascii	"ea\253E\020d\205\210|\2006\037\034\210,mW\264#%-\332"
  31      10648588 
  31      7C80361F 
  31      1C882C6D 
  31      57B42325 
  32 0081 A417B71C 		.ascii	"\244\027\267\034\267\\\210\242\230'\340\216\364\250"
  32      B75C88A2 
  32      9827E08E 
  32      F4A8
  33 008f 3546CD9A 		.ascii	"5F\315\232\241\253\361^\276:i\315\001\003\301\340\273"
  33      A1ABF15E 
  33      BE3A69CD 
  33      0103C1E0 
  33      BB
  34 00a0 1B46F476 		.ascii	"\033F\364v+\230\305\331\301\271\217kG\371\323\302\027"
  34      2B98C5D9 
  34      C1B98F6B 
  34      47F9D3C2 
  34      17
  35 00b1 FAC823B5 		.ascii	"\372\310#\265"
  36              		.text
  37              		.section	.gnu.lto_.pureconst.5ab12fc88ea716e9,"",%progbits
  38 0000 789C6362 		.ascii	"x\234cb`b\340d\200\000\026\006)&\011f)\026)\000\002"
  38      6062E064 
  38      80001606 
  38      29260966 
  38      29162900 
  39 0015 D80081   		.ascii	"\330\000\201"
  40              		.text
  41              		.section	.gnu.lto_ms5607_init.5ab12fc88ea716e9,"",%progbits
  42 0000 789C8D54 		.ascii	"x\234\215TMHTQ\024>\347\275y\343\233?\307\251\031GG"
  42      4D485451 
  42      143EE7BD 
  42      79E39B3F 
  42      C7A91947 
  43 0015 2C71D322 		.ascii	",q\323\"5\313~6\011AmZ\264J\311 \212i\220\341-\306\300"
  43      35CB7E36 
  43      09416D5A 
  43      B44AC920 
  43      8A6990E1 
  44 002c A91609CD 		.ascii	"\251\026\011\315\035\307d\010\304!\010\304\010\224("
  44      1DC76408 
ARM GAS  /tmp/ccBg6PAR.s 			page 3


  44      C42108C4 
  44      089428
  45 003b 2D2CFBD9 		.ascii	"-,\373\331\270\011\306V\026\330\337\316r1m\332\004\021"
  45      B809C656 
  45      16D8DFCE 
  45      72316DDA 
  45      0411
  46 004d 141852BD 		.ascii	"\024\030R\275\316}\367\335qf\232\320\013s\356\337\371"
  46      CE7DF7DD 
  46      71669AD0 
  46      0B73EEDF 
  46      F9
  47 005e BEF39D73 		.ascii	"\276\363\235s\356<\005\024\250\034\335\364;\353\004"
  47      EE3C0514 
  47      A81CDDF4 
  47      3BEB04
  48 006d 384C333A 		.ascii	"8L3:\001\225\334k\200\264\256\240C,T\261X\324\035\212"
  48      0195DC6B 
  48      80B4AEA0 
  48      432C54B1 
  48      58D41D8A 
  49 0081 3AB608C0 		.ascii	":\266\010\300\334Z\306\007\314\253!\362s@H)\252C\303"
  49      DC5AC607 
  49      CCAB21F2 
  49      73404829 
  49      AA43C3
  50 0094 D469E474 		.ascii	"\324i\344t\216V\230f\354F\341\332\370X\370z\201\345"
  50      8E569866 
  50      EC46E1DA 
  50      F858F87A 
  50      81E5
  51 00a6 D81FD344 		.ascii	"\330\037\323D\003)p\020!\206\320G\033\324\255I\301r"
  51      03297010 
  51      2186D047 
  51      1BD4AD49 
  51      C172
  52 00b8 2502C91E 		.ascii	"%\002\311\036\315\016\253S\354\227i\252\026\254\245"
  52      CD0EAB53 
  52      EC9769AA 
  52      16ACA5
  53 00c7 2A2C81E5 		.ascii	"*,\201\345\270|.\277v&\227\3162\323L\031\250*\320\266"
  53      B87C2EBF 
  53      762697CE 
  53      32D34C19 
  53      A82AD0B6 
  54 00db 01EB1330 		.ascii	"\001\353\0230O\265h\371\337?\026\220\215\262\3647\323"
  54      4FB568F9 
  54      DF3F1690 
  54      8DB2F437 
  54      D3
  55 00ec F41BE850 		.ascii	"\364\033\350P`\357f2\347\225|\3014\347fr\273v\"Dq\006"
  55      60EF6632 
  55      E7957CC1 
  55      34E76672 
  55      BB762244 
  56 0102 5B41A379 		.ascii	"[A\243y\232f'\315wh\326\301@\315\215\011D\017\255\234"
  56      9A6627CD 
ARM GAS  /tmp/ccBg6PAR.s 			page 4


  56      7768D6C1 
  56      40CD8D09 
  56      440FAD9C 
  57 0116 5E32353E 		.ascii	"^25>2z-\235)~2j\200\266\020$\343\012qS\317\267a2\356"
  57      327A2D9D 
  57      297E326A 
  57      80B61024 
  57      E30A7153 
  58 012f 066E1AF9 		.ascii	"\006n\032\3716\302WM\3344\333qhh0\302X\256%\212wi/O"
  58      36C2574D 
  58      DC34DB71 
  58      686830C2 
  58      58AE258A 
  59 0147 6396C41E 		.ascii	"c\226\304\036\262\324\232^ThR\227a\370\371\317\327j"
  59      B2D49A5E 
  59      54685297 
  59      61F8F9CF 
  59      D76A
  60 0159 14EF2397 		.ascii	"\024\357#\227\307\335w@\327m6q\204\352C\336t\377rb\334"
  60      C7DD7740 
  60      D76D3671 
  60      84EA43DE 
  60      74FF7262 
  61 016e 27EEE3A8 		.ascii	"'\356\343\250\335\202\3114cuT\203!XgY\276\362\210*\363"
  61      DD82C934 
  61      63755483 
  61      21586759 
  61      BEF2882A 
  62 0183 22C8E22D 		.ascii	"\"\310\342-C&\253J\214\223`\374\322\201\202\357\270"
  62      4326AB4A 
  62      8C9360FC 
  62      D28182EF 
  62      B8
  63 0194 B8D80A13 		.ascii	"\270\330\012\023\201+\310t\233L\353,#k\2079F\303G\027"
  63      812BC874 
  63      9B4CEB2C 
  63      236B8739 
  63      46C34717 
  64 01a8 2209EEE3 		.ascii	"\"\011\356\343\252\221\315 \234\345\275\236Y[Q$\225"
  64      AA91CD20 
  64      9CE5BD9E 
  64      595B5124 
  64      95
  65 01b9 6708AE50 		.ascii	"g\010\256P\331w\303\003\016=g\240\227$\021\314\027G"
  65      D977C303 
  65      0E3D67A0 
  65      972411CC 
  65      1747
  66 01cb 3787D75A 		.ascii	"7\207\327Z\320\363\245}\265(\236\026\305x-\206\032\233"
  66      D0F3A57D 
  66      B5289E16 
  66      C5782D86 
  66      1A9B
  67 01dd E12361FC 		.ascii	"\341#a\374\325)\260\202\342\236WR\370,\012\335\246\270"
  67      D529B082 
  67      E29E5752 
  67      F82C0ADD 
ARM GAS  /tmp/ccBg6PAR.s 			page 5


  67      A6B8
  68 01ef E934B0AE 		.ascii	"\3514\260\256:E\311_\362\015L\262\005M0\000\024\253"
  68      3A45C95F 
  68      F20D4CB2 
  68      054D3000 
  68      14AB
  69 0201 1788D971 		.ascii	"\027\210\331q(\2658\326\306\321O\012)\002g\331\266\204"
  69      28B538D6 
  69      C6D14F0A 
  69      290267D9 
  69      B684
  70 0213 96238DEF 		.ascii	"\226#\215\357\024c\273|\030\026\205\201AA\334K-\247"
  70      1463BB7C 
  70      18168581 
  70      4141DC4B 
  70      2DA7
  71 0225 3FAFCA2B 		.ascii	"?\257\312+\236\231y_\254T N\177\017\336\301\251\362"
  71      9E99795F 
  71      AC54204E 
  71      7F0FDEC1 
  71      A9F2
  72 0237 16DA55EF 		.ascii	"\026\332U\357\246\033;\001\327&%\260\332RL\204\230y"
  72      A61B3B01 
  72      D72625B0 
  72      DA524C84 
  72      9879
  73 0249 36A38557 		.ascii	"6\243\205W\203\377d\023\212\331)S6\366\353\261&\205"
  73      83FF6413 
  73      8AD92953 
  73      36F6EBB1 
  73      2685
  74 025b E4D65B22 		.ascii	"\344\326[\"\276f\346?\240\224\030\214\363\010eO%D\247"
  74      BE66E63F 
  74      A094188C 
  74      F308654F 
  74      2544A7
  75 026e 563C530E 		.ascii	"V<S\016LY\300\325\307~\351S\337\016m\033\352OmR\375"
  75      4C59C0D5 
  75      C77EE953 
  75      DF0E6D1B 
  75      EA4F6D52 
  76 0283 72F5B688 		.ascii	"r\365\266\210\253\222+\034\027\3022\017\213\022\032"
  76      AB922B1C 
  76      17C2320F 
  76      8B121A
  77 0292 E89483C2 		.ascii	"\350\224\203\302\272\360^}\033\221W\215e\221\237\340"
  77      BAF05E7D 
  77      1B91578D 
  77      65919FE0 
  78 02a2 5642E3FF 		.ascii	"VB\343\377BG\210\257\"\373&+z\244J\273\272H\317F\273"
  78      424788AF 
  78      22FB262B 
  78      7AA44ABB 
  78      BA48CF46 
  79 02b7 1AAA4755 		.ascii	"\032\252GU\355\332\207\212\255j\022\0012\346\247\342"
  79      EDDA878A 
  79      AD6A1201 
ARM GAS  /tmp/ccBg6PAR.s 			page 6


  79      32E6A7E2 
  80 02c7 BB6896EF 		.ascii	"\273h\226\357B\012\353E\007\320\347^]\202\221\317i\217"
  80      420AEB45 
  80      07D0E75E 
  80      5D8291CF 
  80      698F
  81 02d9 74133E5A 		.ascii	"t\023>ZQ\373\012H\2242\253\022\213\272\244q\250&\276"
  81      51FB0A48 
  81      9432AB12 
  81      8BBAA471 
  81      A826BE
  82 02ec 472FBE28 		.ascii	"G/\276(\245_\243\375\360\214eQ|\214\336A\272\260\354"
  82      A55FA3FD 
  82      F08C6551 
  82      7C8CDE41 
  82      BAB0EC
  83 02ff 16B79CA1 		.ascii	"\026\267\234\241Q2\366P\3633>^\251\300\261A\343r\377"
  83      5132F650 
  83      F3333E5E 
  83      A9C0B141 
  83      E372FF
  84 0312 60724F22 		.ascii	"`rO\"y\340`\347\241\216\030x\222\375\003\311\243\027"
  84      79E060E7 
  84      A18E1878 
  84      92FD03C9 
  84      A317
  85 0324 2E0D5CEC 		.ascii	".\015\\\354\350,Y\357s\014D\023\375h\270N\234\344\216"
  85      E82C59EF 
  85      730C4413 
  85      FD68B84E 
  85      9CE48E
  86 0337 ED7DF017 		.ascii	"\355}\360\027[Em\030"
  86      5B456D18 
  87              		.text
  88              		.section	.gnu.lto_ms5607_stop.5ab12fc88ea716e9,"",%progbits
  89 0000 789C6362 		.ascii	"x\234cb`b@\007\222@|\005\210\205\201\230\221\231\201"
  89      60624007 
  89      92407C05 
  89      88858198 
  89      919981
  90 0013 9169C239 		.ascii	"\221i\3029\006\206F\016&FF\020\203\201\221\241\236\211"
  90      0686460E 
  90      26464610 
  90      838191A1 
  90      9E89
  91 0025 B13E9211 		.ascii	"\261>\222\021\254v=\323\201\007\377\377\257\333\321"
  91      AC763DD3 
  91      8107FFFF 
  91      AFDBD1
  92 0034 FA8B958D 		.ascii	"\372\213\225\215\2211\227\021h\\&#\003\013\220\005\222"
  92      91319711 
  92      685C2623 
  92      030B9005 
  92      92
  93 0045 67656869 		.ascii	"gehih\230\240\300\300\220\014V\035\002$AF\20422\201"
  93      6898A0C0 
  93      C0900C56 
ARM GAS  /tmp/ccBg6PAR.s 			page 7


  93      1D022441 
  93      46843232 
  94 005a 68E6B30C 		.ascii	"h\346\263\014M\277\232\277\337bJd\\\310\310\312\220"
  94      4DBF9ABF 
  94      DF624A64 
  94      5CC8C8CA 
  94      90
  95 006b CEC854CD 		.ascii	"\316\310T\315P\005\324\255\315\260\252\001\010b3\031"
  95      5005D4AD 
  95      CDB0AA01 
  95      08623319 
  96 007b 196733CC 		.ascii	"\031g3\314b\314ddJgd\214\000\322\314`+\223\030\221\334"
  96      62CC6464 
  96      4A67648C 
  96      00D2CC60 
  96      2B931891 
  97 0090 7A9EA1F5 		.ascii	"z\236\241\365\2006D?\003C5\303\257\206\216\006\201L"
  97      8036443F 
  97      034335C3 
  97      AF868E06 
  97      814C
  98 00a2 46966446 		.ascii	"F\226dF\210\242t\220^\226L\220\354E\206\306\007\367"
  98      88A27490 
  98      5E964C90 
  98      EC4586C6 
  98      07F7
  99 00b4 B8204A41 		.ascii	"\270 JA\206\261\301\214\010\001\252\005\272\006\024"
  99      86B1C18C 
  99      0801AA05 
  99      BA0614
 100 00c3 0E822E45 		.ascii	"\016\202.E\231e\251E\305\372\271\305\246f\006\346z\311"
 100      9965A945 
 100      C5FAB9C5 
 100      A66606E6 
 100      7AC9
 101 00d5 0C00EEED 		.ascii	"\014\000\356\3556\374"
 101      36FC
 102              		.text
 103              		.section	.gnu.lto_ms5607_reset.5ab12fc88ea716e9,"",%progbits
 104 0000 789C6362 		.ascii	"x\234cb`b@\007\222@l\300\310\300 \014\244\031\231\031"
 104      60624007 
 104      92406CC0 
 104      C8C0200C 
 104      A4199919 
 105 0014 1899269C 		.ascii	"\030\231&\234c`h\344`bd\0041\030\030\031\352\231\030"
 105      636068E4 
 105      60626404 
 105      31181819 
 105      EA9918
 106 0027 EB2319C1 		.ascii	"\353#\031\301j\3273\035x\360\377\377\272{\255\227\330"
 106      6AD7331D 
 106      78F0FFFF 
 106      BA7BAD97 
 106      D8
 107 0038 D9991873 		.ascii	"\331\231\030s\031\031X\0302\031\031\330\200\004H\236"
 107      19195818 
 107      321919D8 
ARM GAS  /tmp/ccBg6PAR.s 			page 8


 107      8004489E 
 108 0048 95A1A5A1 		.ascii	"\225\241\245\241a\202\002\003C2Xu\010\220\004\031\021"
 108      61820203 
 108      43325875 
 108      08900419 
 108      11
 109 0059 CAC804A2 		.ascii	"\312\310\004\242\231\31724\355\2301O,\221q!#+\203.\303"
 109      99CF3234 
 109      ED98314F 
 109      2C917121 
 109      232B832E 
 110 006e 9A062008 		.ascii	"\232\006 \010\314dd\322fX\005b\362f22\317f\230\305\230"
 110      CC6464D2 
 110      66580562 
 110      F2663232 
 110      CF6698C5 
 111 0083 C9C892CE 		.ascii	"\311\310\222\316\310\024\001\244Y\301v&A\254f\000\211"
 111      C81401A4 
 111      59C17626 
 111      41AC6600 
 111      89
 112 0094 B0C15D0D 		.ascii	"\260\301]\015\3421\311\001\031@S\1775?\277\314\0021"
 112      E231C901 
 112      1940537F 
 112      353FBFCC 
 112      0231
 113 00a6 369D91A5 		.ascii	"6\235\221\245\232\241\012\350&\250\241\263\201\312\330"
 113      9AA10AE8 
 113      26A8A1B3 
 113      81CAD8
 114 00b5 B19BCA88 		.ascii	"\261\233\312\210\010\202\363\014m\007Xa\006\260U3\374"
 114      0882F30C 
 114      6D075861 
 114      06B05533 
 114      FC
 115 00c6 6AE86810 		.ascii	"j\350h\020\310d\344H\206*\002\232\012\266\217\021b-"
 115      C864E448 
 115      862A029A 
 115      0AB68F11 
 115      622D
 116 00d8 03D0BF9C 		.ascii	"\003\320\277\234\014\014\027\031\030\341z \346\204\000"
 116      0C0C1719 
 116      18E17A20 
 116      E68400
 117 00e7 D5037D0A 		.ascii	"\325\003}\012\012cA\227\242\314\262\324\242b\375\334"
 117      0A634197 
 117      A2CCB2D4 
 117      A262FDDC 
 118 00f7 62533303 		.ascii	"bS3\003s\275d\006\000 \264E\207"
 118      73BD6406 
 118      0020B445 
 118      87
 119              		.text
 120              		.section	.gnu.lto_ms5607_readPressureTemperature.5ab12fc88ea716e9,"",%progbits
 121 0000 789CAD58 		.ascii	"x\234\255X}l\025U\026\277wf^\337G\013-R\004Z\300\002"
 121      7D6C1555 
 121      16BF7766 
ARM GAS  /tmp/ccBg6PAR.s 			page 9


 121      5EDF470B 
 121      2D52045A 
 122 0016 2AA5504A 		.ascii	"*\245PJ+\264\"\362\241V@T\020l\221\"(\217\322\302\223"
 122      2BB422F2 
 122      A1564054 
 122      106C9122 
 122      288FD2C2 
 123 002b 6D97F4D5 		.ascii	"m\227\364\325\335d\315\246S_\203\325@y\377\230 K\242"
 123      DD64CDA6 
 123      535F83D5 
 123      4079FF98 
 123      204BA2
 124 003e A48BA808 		.ascii	"\244\213\250\010\310v\241\355v?^\311\006t\263~Ec\212"
 124      C876A1ED 
 124      763F5EC9 
 124      0674B37E 
 124      45638A
 125 0051 69769B98 		.ascii	"iv\233\230\005\227\262\264\021\027\033\226\360\366\234"
 125      0597B2B4 
 125      11171B96 
 125      F0F69C
 126 0060 33F7DEE9 		.ascii	"3\367\336\351\0145\214\011\015\236\231\373;\347\374"
 126      0C358C09 
 126      0D9E99FB 
 126      3BE7FC
 127 006f CEC73D77 		.ascii	"\316\307=wf\236\032\323\230\373\257\011\376\373O&c\233"
 127      669E1AD3 
 127      98FBAF09 
 127      FEFB4F26 
 127      639B
 128 0081 E0CA5319 		.ascii	"\340\312S\031\327\342\2370\326\030\3204\375\313\002"
 128      D7E29F30 
 128      D618D034 
 128      FDCB02
 129 0090 6686427F 		.ascii	"f\206B\177\234\302\3144]3\232g\300*\005e\232\241\371"
 129      9CC2CC34 
 129      5D339A67 
 129      C02A0565 
 129      9AA1F9
 130 00a3 86AD7C3C 		.ascii	"\206\255|<\305rI\321\374\277?\315\000\017\364\246\002"
 130      C57249D1 
 130      FCBF3FCD 
 130      000FF4A6 
 130      02
 131 00b4 EEE7010B 		.ascii	"\356\347\001\013\017h\301\375g\020\017]\365\003\036"
 131      0F68C1FD 
 131      67100F5D 
 131      F5031E
 132 00c3 E4210B0F 		.ascii	"\344!\013\017q\2167\214\263\006M7|)\376@0\304\033*8"
 132      718E378C 
 132      B3064D37 
 132      7C29FE40 
 132      30C41B2A 
 133 00d8 66356A1A 		.ascii	"f5j\032;h&\342}\207\276\371\2267\232\211\246\267\314"
 133      3B6826E2 
 133      7D87BEF9 
 133      96379A89 
ARM GAS  /tmp/ccBg6PAR.s 			page 10


 133      A6B7CC
 134 00eb EBC924E7 		.ascii	"\353\311$\347\021\016\025drV\311\331zX\360\011t\321"
 134      110E1564 
 134      7256C9D9 
 134      7A58F009 
 134      74D1
 135 00fd 74674996 		.ascii	"tgI\226o\342\300\262xc\263\231L6\220\327T/^f<\321vf"
 135      6FE2C0B2 
 135      7863B399 
 135      4C3690D7 
 135      542F5E66 
 136 0115 CF44F3AD 		.ascii	"\317D\363\255\227\343\346\015\010\030\341\272\306\362"
 136      97E3E60D 
 136      0818E1BA 
 136      C6F2
 137 0123 6CCF1CCB 		.ascii	"l\317\034\313\323\030\321\263\367L\232\012hh\254\320"
 137      D318D1B3 
 137      F74C9A0A 
 137      6868ACD0 
 138 0133 A3DB3F9C 		.ascii	"\243\333?\234n\305\036\335\006w\215\212\3572\033\007"
 138      6EC51EDD 
 138      06778D8A 
 138      EF321B07 
 139 0143 93C9F408 		.ascii	"\223\311\364\010\367il\241\355\267\324\362\013\214\344"
 139      F7696CA1 
 139      EDB7D4F2 
 139      0B8CE4
 140 0152 677EBEBD 		.ascii	"g~\276\2759\2260\207\222I?\271-\361\346\226\270\342"
 140      39963087 
 140      92493FB9 
 140      2DF1E696 
 140      B8E2
 141 0164 6C0B245A 		.ascii	"l\013$Z\3521\321\357\235\365-\367\3506\344t[\351\321"
 141      EA31D1EF 
 141      9DF52DF7 
 141      E836E474 
 141      5BE9D1
 142 0177 ED9AD36D 		.ascii	"\355\232\323m\265G\2677\316\356u\225W\356\321\263\375"
 142      B547B737 
 142      CEEE7595 
 142      57EED1B3 
 142      FD
 143 0188 95169767 		.ascii	"\225\026\227g\305\255<\217k\211\276d\362\357'\232\376"
 143      C5AD3C8F 
 143      6B89BE64 
 143      F2EF279A 
 143      FE
 144 0199 965BC759 		.ascii	"\226[\307Y\230\037\341\323`@\303\374(\\u\270\036\207"
 144      981FE1D3 
 144      6040C3FC 
 144      285C75B8 
 144      1E87
 145 01ab AB9FD770 		.ascii	"\253\237\327p\026d\021\236\222\012\310!@F\303\302\237"
 145      1664119E 
 145      920AC821 
 145      4046C3C2 
 145      9F
ARM GAS  /tmp/ccBg6PAR.s 			page 11


 146 01bc 01223046 		.ascii	"\001\"0F \231\270\030'\026\023q\221%\026\331\260\010"
 146      2099B818 
 146      27161371 
 146      912516D9 
 146      B008
 147 01ce 4E02119A 		.ascii	"N\002\021\232\214b\012.\357\302\273\034\024SQLCl:\336"
 147      8C620A2E 
 147      EFC2BB1C 
 147      1453514C 
 147      436C3ADE 
 148 01e2 DD0D4E87 		.ascii	"\335\015N\207\301\351\036D\356Ed\006\212\\\\\316\304"
 148      C1E91E44 
 148      EE456406 
 148      8A5C5CCE 
 148      C4
 149 01f3 BB3C14B3 		.ascii	"\273<\024\263P\314F,\037\357\346\200\323\273\340T\000"
 149      50CC462C 
 149      1FEFE680 
 149      D3BBE054 
 149      00
 150 0204 8BD4B988 		.ascii	"\213\324\271\210\024\242(\002\370\004\300\367!<\017"
 150      14A22802 
 150      F804C0F7 
 150      213C0F
 151 0213 539A8FA2 		.ascii	"S\232\217\242\030E\011\350\332@w?\352\026\240\365\003"
 151      184509E8 
 151      DA40773F 
 151      EA16A0F5 
 151      03
 152 0224 2816E2F2 		.ascii	"(\026\342\362A4X\204b1\212%(\226\212\326<\204\006\017"
 152      41345884 
 152      62318A25 
 152      28968AD6 
 152      3C84060F 
 153 0238 A3E92328 		.ascii	"\243\351#(Jq\371(\032,C\261\034\305\012\024\217\211"
 153      4A71F928 
 153      1A2C43B1 
 153      1CC50A14 
 153      8F89
 154 024a 16AE846B 		.ascii	"\026\256\204k;\\\037G\360\011\020iO\242X%:\273\032\341"
 154      3B5C1F47 
 154      F0091069 
 154      4FA25825 
 154      3ABB1AE1 
 155 025e A750AC01 		.ascii	"\247P\254\0011j\255\210\3624\"e\210\224\013\236up\355"
 155      316AAD88 
 155      F2342265 
 155      88940B9E 
 155      7570ED
 156 0271 84EB33E2 		.ascii	"\204\3533\342\272\036-*\320b\203\360y\026\221\215\210"
 156      BA1E2D2A 
 156      D06283F0 
 156      7916918D 
 156      88
 157 0282 6C123ECF 		.ascii	"l\022>\317\211\032\237Gp3\2120\212-(*Ql\005\203\223"
 157      891A9F47 
 157      70338A30 
ARM GAS  /tmp/ccBg6PAR.s 			page 12


 157      8A2D282A 
 157      516C0583 
 158 0297 6050058B 		.ascii	"`P\005\213\321\325(\266\243\210\240\330\001{\016\377"
 158      D1D528B6 
 158      A388A0D8 
 158      017B0EFF 
 159 02a7 6AB8568B 		.ascii	"j\270V\213K\230\024\037k\202\031\313\011\363\203\340"
 159      4B98141F 
 159      6B8219CB 
 159      09F383E0 
 160 02b7 12E6AD24 		.ascii	"\022\346\255$q\203\031\216\030\374\225\201\304\207h"
 160      7183198E 
 160      18FC9581 
 160      C48768
 161 02c6 39D7F0AA 		.ascii	"9\327\360\252\177\314^\356\330w\276O\013\363.\356c\371"
 161      7FCC5EEE 
 161      D877BE4F 
 161      0BF32EEE 
 161      63F9
 162 02d8 EC7D13FE 		.ascii	"\354}\023\376\326Dx\372,\366\036\336\216\212\360\214"
 162      D64478FA 
 162      2CF61EDE 
 162      8E8AF08C 
 163 02e8 DFB0FD30 		.ascii	"\337\260\3750\224c\266q?\016\347\0354\222[\2705\232"
 163      9463B671 
 163      3F0EE71D 
 163      34925BB8 
 163      359A
 164 02fa 8884D4A0 		.ascii	"\210\204\324\240\342*}=\334\000\355\265\330\205\335"
 164      E22A7D3D 
 164      DC00EDB5 
 164      D885DD
 165 0309 1B2CDA6D 		.ascii	"\033,\332m<\370\022\373\025\214\246 \375\023\230\215"
 165      3CF812FB 
 165      158CA620 
 165      FD13988D 
 166 0319 1D9995DB 		.ascii	"\035\231\225\333S\377)\333\225\310\226\004\251/\261"
 166      53FF29DB 
 166      95C89604 
 166      A92FB1
 167 0328 6B66B399 		.ascii	"kf\263\231\021\341\231\225\302\010X)\236ut\322\031\264"
 167      11E19995 
 167      C2085829 
 167      9E7574D2 
 167      19B4
 168 033a 601C7A35 		.ascii	"`\034z5\365\355o\345\226\037c\312\355\316J\256\251\034"
 168      F5ED6FE5 
 168      961F63CA 
 168      EDCE4AAE 
 168      A91C
 169 034c D3B05FE3 		.ascii	"\323\260_\343)\315\216\241\333[=\223\325_\331\275]&"
 169      29CD8EA1 
 169      DB5B3D93 
 169      D55FD9BD 
 169      5D26
 170 035e 3F9AAAF7 		.ascii	"?\232\252\367\013\322/\370-XE\365\373\314}A\311\220"
 170      0BD22FF8 
ARM GAS  /tmp/ccBg6PAR.s 			page 13


 170      2D5845F5 
 170      FBCC7D41 
 170      C990
 171 0370 A1EA9850 		.ascii	"\241\352\230P\311uY>0\213\016P\200\211r\303\251t\322"
 171      C975593E 
 171      308B0E50 
 171      808972C3 
 171      A974D2
 172 0383 E8506716 		.ascii	"\350Pg\026&\024\353\214\325I2\210\232\001\035\265\312"
 172      2614EB8C 
 172      D5493288 
 172      9A011DB5 
 172      CA
 173 0394 EFB9705B 		.ascii	"\357\271p[\313_am\\\337\233\255ce\270L\257[\347\314"
 173      CB5F616D 
 173      5CDF9BAD 
 173      6365B84C 
 173      AF5BE7CC 
 174 03a8 721C7842 		.ascii	"r\034xB\256\326\216\276\363Sv\264\343\342m\337Q\334"
 174      AED68EBE 
 174      F35376B4 
 174      E3E26DDF 
 174      51DC
 175 03ba 8DF74FFE 		.ascii	"\215\367O\376V\223\311M\364\270\037\007\275\354G\026"
 175      5693C94D 
 175      F4B81F07 
 175      BDEC4716 
 176 03ca F06DC306 		.ascii	"\360m\303\006|\310\376z\241\373\334\031])\320\307\361"
 176      7CC8FE7A 
 176      A1FBDC19 
 176      5D29D0C7 
 176      F1
 177 03db 7A2D8760 		.ascii	"z-\207`_\026\340\251\355\355\351\357\321\325q?Lq\336"
 177      5F16E0A9 
 177      EDEDE9EF 
 177      D1D5713F 
 177      4C71DE
 178 03ee 257984E4 		.ascii	"%y\204\344Q\222\307I\236 \331F\362$=\014d3!Hv>\233\015"
 178      5192C749 
 178      9E20D946 
 178      F2243D0C 
 178      64332148 
 179 0406 9959B3E3 		.ascii	"\231Y\263\343,\237\332y9v\003z\377\025%4\011\314)\373"
 179      2C9FDA79 
 179      3976037A 
 179      FF152534 
 179      09CC29FB 
 180 041a A3BA8426 		.ascii	"\243\272\204&\003J^\031\226y\357\007YR5\345&f\356b>"
 180      034A5E19 
 180      9679EF07 
 180      595235E5 
 180      2666EE62 
 181 042f A568EE02 		.ascii	"\245h\356\002s\027s\016\240\344\025 \363Xs\354\017\232"
 181      7317730E 
 181      A0E41520 
 181      F35873EC 
 181      0F9A
ARM GAS  /tmp/ccBg6PAR.s 			page 14


 182 0441 D44DA5C0 		.ascii	"\324M\245\3009\"b\245\204\247\335\024QsE\254\225\246"
 182      392262A5 
 182      84A7DD14 
 182      517345AC 
 182      95A6
 183 0453 D3B76123 		.ascii	"\323\267a#\220V\005\274\233x\247[\244C\375CJq\217\244"
 183      905605BC 
 183      9B78A75B 
 183      A443FD43 
 183      4A718FA4 
 184 0467 3DF8632D 		.ascii	"=\370c-:\2462\273\027\314]\205\314\000\324\331\242)"
 184      3AA632BB 
 184      17CC5D85 
 184      CC00D4D9 
 184      A229
 185 0479 52957B13 		.ascii	"R\225{\023\263\273EW\025\315L0w1\347\001\352l\321E\225"
 185      B3BB4557 
 185      15CD4C30 
 185      7731E701 
 185      EA6CD145 
 186 048e C82C0A9C 		.ascii	"\310,\012\234'\"\276 \341\3317E\374\321\026\345\203"
 186      2722BE20 
 186      E1D93745 
 186      FCD116E5 
 186      83
 187 049f B5AB4573 		.ascii	"\265\253Es\2107\337\"\355\271<\250\024\005D\233-NY4"
 187      8837DF22 
 187      EDB93CA8 
 187      1405449B 
 187      2D4E5934 
 188 04b3 C2278D7C 		.ascii	"\302'\215|\312\354\023\0332\\qO\2511\233\013|V\245\261"
 188      CAEC131B 
 188      325C714F 
 188      A9319B0B 
 188      7C56A5B1 
 189 04c7 B7553D85 		.ascii	"\267U=\205\200\017\257\365U;\321\"\332\273B+\253}\003"
 189      800FAFF5 
 189      553BD122 
 189      DABB422B 
 189      AB7D03
 190 04da 3D8654DC 		.ascii	"=\206T\334\347\310\352\327^\262\362\271\262\372Ne5\017"
 190      E7C8EAD7 
 190      5EB2F2B9 
 190      B2FA4E65 
 190      350F
 191 04ec F828F26B 		.ascii	"\370(\362k\252\352\371\204\026\021zl\330x\026\203\212"
 191      AAEAF984 
 191      16117A6C 
 191      D8781683 
 191      8A
 192 04fd D8C6CB7D 		.ascii	"\330\306\313}Q\271\226\200\226\216\365g\351b\032\206"
 192      51B99680 
 192      968EF567 
 192      E9621A86 
 193 050d 0612CAF1 		.ascii	"\006\022\312\361~G\302%^\022v\017\314y\225\360\002\340"
 193      7E47C225 
 193      5E12760F 
ARM GAS  /tmp/ccBg6PAR.s 			page 15


 193      CC7995F0 
 193      02E0
 194 051f 136D3CA6 		.ascii	"\023m<\246\300\007\000'\2771\"\374\340\035R\265\360"
 194      C0070027 
 194      BF3122FC 
 194      E01D52B5 
 194      F0
 195 0530 A7774B77 		.ascii	"\247wKw\005\267[\360 \360\271\272\265\210P\331-{R\027"
 195      05B75BF0 
 195      20F0B9BA 
 195      B58850D9 
 195      2D7B5217 
 196 0544 838AD852 		.ascii	"\203\212\330Rd\267\354\032\226P\306\213\005\275:7KA"
 196      64B7EC1A 
 196      9650C68B 
 196      05BD3A37 
 196      4B41
 197 0556 23B6FBBB 		.ascii	"#\266\373\273\017\025\321C\216\002\026x)\300}\220/\252"
 197      0F15D143 
 197      8E021678 
 197      29C07D90 
 197      2FAA
 198 0568 C80F039F 		.ascii	"\310\017\003\237\350\336\357\024\370\010\340\216\243"
 198      E8DEEF14 
 198      F808E08E 
 198      A3
 199 0575 1C1F2B55 		.ascii	"\034\037+U\245\216\340\015^\202\273O\336\237U%\217\002"
 199      A58EE00D 
 199      5E82BB4F 
 199      DE9F5525 
 199      8F02
 200 0587 9FAB7BCB 		.ascii	"\237\253{\313\010\225\335\273\254L\227\203\212\330\374"
 200      0895DDBB 
 200      AC4C9783 
 200      8AD8FC
 201 0596 EA19A0D2 		.ascii	"\352\031\240\322]A\031/\027\364[$\374\030h\360m\323"
 201      5D41192F 
 201      17F45B24 
 201      FC1868F0 
 201      6DD3
 202 05a8 74BEFBF5 		.ascii	"t\276\373\365\263\212\250\004Y\2147\017\014\377\012"
 202      B38AA804 
 202      598C370F 
 202      0CFF0A
 203 05b7 29E706BB 		.ascii	")\347\006\2738^\307Db\355-\331\352}\323.\336\"_\311"
 203      385EC744 
 203      62ED2DD9 
 203      EA7DD32E 
 203      DE225FC9 
 204 05cb B7C84A1A 		.ascii	"\267\310J\032\372b+\347XW\013\354\324\000\261>N\307"
 204      FA622BE7 
 204      58570BEC 
 204      D400B13E 
 204      4EC7
 205 05dd B348A4F0 		.ascii	"\263H\244\3606\227\370\023\240\"\353=\272\204\236\004"
 205      3697F813 
 205      A022EB3D 
ARM GAS  /tmp/ccBg6PAR.s 			page 16


 205      BA849E04 
 206 05ed 94DEE5D8 		.ascii	"\224\336\345\330\300\200l\312\013R\275\012,\004\377"
 206      C0806CCA 
 206      0B52BD0A 
 206      2C04FF
 207 05fc 5F5A7225 		.ascii	"_Zr%\272\032b\323yZd\225\277\207v\313\322=\005j\322"
 207      BA1A62D3 
 207      795A6495 
 207      BF8776CB 
 207      D23D056A 
 208 0611 650C7BB6 		.ascii	"e\014{\266Y\2525\240\265\036#*\374Z\032\2535\"\3047"
 208      59AA35A0 
 208      B51E232A 
 208      FC5A1AAB 
 208      3522C437 
 209 0625 7688A765 		.ascii	"v\210\247e\010M\322\324IU\031h]4\345\324\3372z\233\377"
 209      084DD2D4 
 209      49551968 
 209      5D34E5D4 
 209      DF327A9B 
 210 063a ABBBED6C 		.ascii	"\253\273\355l\232TP\177\003\337\276\226\264\376x\303"
 210      9A54507F 
 210      03DFBE96 
 210      B4FE78C3 
 211 064a F036FBD8 		.ascii	"\3606\373\330\177Su\332\275\201\226I\252\315\235\242"
 211      7F5375DA 
 211      BD819649 
 211      AACD9DA2 
 212 065a CD03B2CD 		.ascii	"\315\003\262\315\353\304\323\303\370^g\"\321+-\360\235"
 212      EBC4D3C3 
 212      F85E6722 
 212      D12B2DF0 
 212      9D
 213 066b 3148119E 		.ascii	"1H\021\236!\203uB\361C\313d\251X\017:\212\236\316\354"
 213      21837542 
 213      F143CB64 
 213      A9580F3A 
 213      8A9ECEEC 
 214 067f 59B05415 		.ascii	"Y\260T\025\240U\025X\320\006\352E\205\240\371\237M\363"
 214      A0551558 
 214      D006EA45 
 214      85A0F99F 
 214      4DF3
 215 0691 ACA4519B 		.ascii	"\254\244Q\233S-U\033A\353\242\331D\275\330(+L\261>\\"
 215      532D551B 
 215      41EBA2D9 
 215      44BDD828 
 215      2B4CB13E 
 216 06a6 E0B97D78 		.ascii	"\340\271}x\357\0049s\317\321\003Q\027lG\366\346I\305"
 216      EF043973 
 216      CFD10351 
 216      176C47F6 
 216      E649C5
 217 06b9 F3F0AE71 		.ascii	"\363\360\256q\035\200\315\204j\342\000\330\217\2100"
 217      1D80CD84 
 217      6AE200D8 
 217      8F8830
ARM GAS  /tmp/ccBg6PAR.s 			page 17


 218 06c8 A8E8008C 		.ascii	"\250\350\000\214\223/\006\373\203e\013\251\271\3609"
 218      932F06FB 
 218      83650BA9 
 218      B9F039
 219 06d7 A566BD12 		.ascii	"\245f\275\022T\344#\032\322\217\225X\252\255\240%\354"
 219      54E4231A 
 219      D28F9558 
 219      AAADA025 
 219      EC
 220 06e8 9D58FBDE 		.ascii	"\235X\373\336\231\022\255\202\\EC\256*\366j\300\263"
 220      9912AD82 
 220      5C4543AE 
 220      2AF66AC0 
 220      B3
 221 06f9 D81BF021 		.ascii	"\330\033\360!\030\377\014w\2241\234\\3q\272\277\225"
 221      18FF0C77 
 221      94319C5C 
 221      3371BABF 
 221      95
 222 070a 5BBFC780 		.ascii	"[\277\307\200\346\243A\277e/\236\014A\320\214\374d\220"
 222      E6A341BF 
 222      652F9E0C 
 222      41D08CFC 
 222      6490
 223 071c DF91D522 		.ascii	"\337\221\325\"|\227\335\216\355\220\227\010o\027\027"
 223      7C97DD8E 
 223      ED909708 
 223      6F1717
 224 072b 01FCD6E1 		.ascii	"\001\374\326\341\343!\217\341\015\021>B\217\206K\335"
 224      E3218FE1 
 224      0D113E42 
 224      8F864BDD 
 225 073b FFB41F0D 		.ascii	"\377\264\037\015;\320n\262=\257\347\030\207\303\242"
 225      3BD06EB2 
 225      3DAFE718 
 225      87C3A2
 226 074a 5F6F870F 		.ascii	"_o\207\017\302\265\306\365\316\237\301\320\370z\273"
 226      C2B5C6F5 
 226      CE9FC1D0 
 226      F87ABB
 227 0759 369F631A 		.ascii	"6\237c\032L\277\336\004o\236rcw\327N\030\002\337\245"
 227      4CBFDE04 
 227      6F9E7263 
 227      77D74E18 
 227      02DFA5
 228 076c AEADE798 		.ascii	"\256\255\347\230NC\313\230~\240\035lW\031\227:\241\242"
 228      4E43CB98 
 228      7EA01D6C 
 228      5719973A 
 228      A1A2
 229 077e 553E1A0C 		.ascii	"U>\032\014?\353\316\305/\332\217:n\310G9$\330\010\271"
 229      3FEBCEC5 
 229      2FDA8F3A 
 229      6EC84739 
 229      24D808B9 
 230 0792 A643AE8E 		.ascii	"\246C\256\216\340\224\2345N\001\034'\312\363\007;\317"
 230      E0949C35 
ARM GAS  /tmp/ccBg6PAR.s 			page 18


 230      4E011C27 
 230      CAF3073B 
 230      CF
 231 07a3 1A579E68 		.ascii	"\032W\236h\030d\377\316C\372\257;\222C\312\260v\026"
 231      1864FFCE 
 231      43FAAF3B 
 231      9243CAB0 
 231      7616
 232 07b5 CBBBC53E 		.ascii	"\313\273\305>\210\356\245\216\220Q\315\360\214je\240"
 232      88EEA58E 
 232      9051CDF0 
 232      8C6A65A0 
 233 07c5 90F8417D 		.ascii	"\220\370A}\272_\374L\260\276\261"
 233      BA5FFC4C 
 233      B0BEB1
 234 07d0 E6B136B3 		.ascii	"\346\2616\263\031\377G$1\016S\266\272\224\237\263\306"
 234      19FF4724 
 234      310E53B6 
 234      BA949FB3 
 234      C6
 235 07e1 BEE643E2 		.ascii	"\276\346C\342w\016FP/\3272\230`\340\306\307\317\230"
 235      770E4650 
 235      2FD73298 
 235      60E0C6C7 
 235      CF98
 236 07f3 D2BAC82F 		.ascii	"\322\272\310/\252\352\242\0055\321\371\305sK\346T\262"
 236      AAEAA205 
 236      35D1F9C5 
 236      734BE654 
 236      B2
 237 0804 B49D7555 		.ascii	"\264\235uU\321\350\213uU\245\341\372p\240\276\252f'"
 237      D1E88B75 
 237      55A5E1FA 
 237      70A0BEAA 
 237      6627
 238 0816 DEA444EB 		.ascii	"\336\244D\353\303\365/F\215\372\272\360/\215\235 \364"
 238      C3F52F46 
 238      8DFABAF0 
 238      2F8D9D20 
 238      F4
 239 0827 9F57571B 		.ascii	"\237WW\033\321\252\332\250VV\244m-3\320\320G\256z}\321"
 239      D1AADAA8 
 239      5656A46D 
 239      2D33D0D0 
 239      47AE7A7D 
 240 083c 0EA3BE70 		.ascii	"\016\243\276p\307\374\377\003V\263\362T"
 240      C7FCFF03 
 240      56B3F254 
 241              		.text
 242              		.section	.gnu.lto_.symbol_nodes.5ab12fc88ea716e9,"",%progbits
 243 0000 789C4DCB 		.ascii	"x\234M\313\261\015\3020\020\205\341w\357\354\304L\221"
 243      B10DC230 
 243      1085E177 
 243      EFECC44C 
 243      91
 244 0011 512F2210 		.ascii	"Q/\"\020\007*&H\343QR\3201\001\005(mf@(\016`\256\371"
 244      072A2648 
ARM GAS  /tmp/ccBg6PAR.s 			page 19


 244      E35152D0 
 244      31010528 
 244      6D664028 
 245 0029 F53DE908 		.ascii	"\365=\351\010\342\216\317qO\003.7\300l\034\304\267\204"
 245      E28ECF71 
 245      4F032E37 
 245      C06C1CC4 
 245      B784
 246 003b 33654793 		.ascii	"3eG\223\262\362@\343\037\2174-\224Hs\033\333V\244\247"
 246      B2F240E3 
 246      1F8F342D 
 246      9448731B 
 246      DB56A4A7 
 247 004f F9A28156 		.ascii	"\371\242\201V\025\235iu\321\211\026~RTH\375\322(<\272"
 247      159D6975 
 247      D189167E 
 247      525448FD 
 247      D2283CBA 
 248 0063 781D5559 		.ascii	"x\035UY#=^\242\3521\255u\337\3560\347\006L\317m\317"
 248      233D5EA2 
 248      EA31AD75 
 248      DFEE30E7 
 248      064CCF6D 
 249 0078 8FEB9E1B 		.ascii	"\217\353\236\033\220\342\322\340\015\215\334@\354"
 249      90E2D2E0 
 249      0D8DDC40 
 249      EC
 250              		.text
 251              		.section	.gnu.lto_.refs.5ab12fc88ea716e9,"",%progbits
 252 0000 789C6362 		.ascii	"x\234cb`b`g\200\000&\006\006FFF\006\000\000\333\000"
 252      60626067 
 252      80002606 
 252      06464646 
 252      060000DB 
 253 0015 11       		.ascii	"\021"
 254              		.text
 255              		.section	.gnu.lto_.decls.5ab12fc88ea716e9,"",%progbits
 256 0000 789CBD5C 		.ascii	"x\234\275\\\013t\024\305\232\356\356\231$3Inx\270\272"
 256      0B7414C5 
 256      9AEEEE99 
 256      2433496E 
 256      78B8BA
 257 0013 E8BA3A77 		.ascii	"\350\272:wW\357q\257W\362\000\021\326\273\002&(\034"
 257      57EF71AF 
 257      57F20011 
 257      D6BB0226 
 257      281C
 258 0025 79B849BC 		.ascii	"y\270I\274\213{\216;\2663\0352k\222\231\333\323\201"
 258      8B7B8E3B 
 258      B6331D32 
 258      6B9299DB 
 258      D381
 259 0037 70CEDD63 		.ascii	"p\316\335cCHx(\030\022\220\200\200\361\012\210/\224"
 259      43487828 
 259      18129080 
 259      80F10A88 
 259      2F94
ARM GAS  /tmp/ccBg6PAR.s 			page 20


 260 0049 97800761 		.ascii	"\227\200\007a\360\001\021\224\247 \340\203\321+\010"
 260      F0011194 
 260      A720E083 
 260      D12B08
 261 0058 7271018D 		.ascii	"rq\001\215\2101d\377\372\273{\246\272\323=\323\035\275"
 261      883164FF 
 261      FABB7BA6 
 261      BAD33DD3 
 261      1DBD
 262 006a 3BE7544D 		.ascii	";\347TMu\245\352\253\377\377\353\377\377\372\253\272"
 262      75A5EAAB 
 262      FFFFEBFF 
 262      FFFAABBA 
 263 007a 261CC331 		.ascii	"&\034\303138\206\351\206\317\347\3671\314\027\036\206"
 263      333886E9 
 263      86CFE7F7 
 263      31CC171E 
 263      86
 264 008b C96018E6 		.ascii	"\311`\030\346.HnH\317B\332\010)\013\322\020F\371x!]"
 264      2E486E48 
 264      CF42DA08 
 264      290BD210 
 264      46F97821 
 265 00a0 077D8643 		.ascii	"\007}\206C\272\017\322\277Cz\010R\020R\030\222\004\351"
 265      BA0FD2BF 
 265      437A0852 
 265      10521892 
 265      04E9
 266 00b2 4F905868 		.ascii	"O\220Xh's\214\356C\372]\307(\177\313\203\224\013\251"
 266      27738CEE 
 266      43FA5DC7 
 266      287FCB83 
 266      940BA9
 267 00c5 3FA78C51 		.ascii	"?\247\214Q\005\225\017Cy:\244zN\031\337\005\351\032"
 267      05950F43 
 267      793AA47A 
 267      4E19DF05 
 267      E91A
 268 00d7 4EA1E306 		.ascii	"N\241\343\006\370\376GH\003!\025A\"t\023\272\032\340"
 268      F8FE4748 
 268      03211541 
 268      227413BA 
 268      1AE0
 269 00e9 5B80D408 		.ascii	"[\200\324\010\351\277 m\005\234\337\020\034V\301\370"
 269      E9BF206D 
 269      059CDF10 
 269      1C56C1F8 
 270 00f9 6728DF06 		.ascii	"g(\337\006\251\020\322\315\234\202y\235J\357C\3528\204"
 270      A910D2CD 
 270      9C82799D 
 270      4AEF43EA 
 270      3884
 271 010b CEA190FE 		.ascii	"\316\241\220\376\025\322\357\0154\017W\307y\330@\307"
 271      15D2EF0D 
 271      340F57C7 
 271      79D840C7 
 272 011b 4C481175 		.ascii	"LH\021u\034V\035\207S\333\207\325\362\275\220\2156\340"
ARM GAS  /tmp/ccBg6PAR.s 			page 21


 272      1C561D87 
 272      53DB87D5 
 272      F2BD908D 
 272      36E0
 273 012d 119965AB 		.ascii	"\021\231e\253x\244/\341\235\360\244\341jr\327\370!\335"
 273      78A42FE1 
 273      9DF0A4E1 
 273      6A72D7F8 
 273      21DD
 274 013f 09FD1AFE 		.ascii	"\011\375\032\376}*\335d\314\011\006l2\0277\300\367,"
 274      7D2ADD64 
 274      CC09066C 
 274      321737C0 
 274      F72C
 275 0151 2E295F32 		.ascii	".)_2F\003\2449\\R\276\231\352\034h2&\374y\010\035LO"
 275      4603A439 
 275      5C52BE99 
 275      EA1C6832 
 275      26FC7908 
 276 0168 7A685A9A 		.ascii	"zhZ\232 \375\017\244\371\220\232!\325R\362&\372\221"
 276      20FD0FA4 
 276      F9909A21 
 276      D552F226 
 276      FA91
 277 017a 41D14A64 		.ascii	"A\321Jd\375/\220nUy\322\364\344O\252\216\220q\377\003"
 277      FD2F906E 
 277      5579D2F4 
 277      E44FAA8E 
 277      9071FF03 
 278 018e BE2742FA 		.ascii	"\276'B\372O\003\037\375\231\3712||\355\300\304D\226"
 278      4F031FFD 
 278      99F9327C 
 278      7CEDC0C4 
 278      4496
 279 01a0 67F3BC64 		.ascii	"g\363\274d\212H)\327\313\370\240\301\315\314\012Yn\212"
 279      8A4829D7 
 279      CBF8A0C1 
 279      CDCC0A59 
 279      6E8A
 280 01b2 373CC9FA 		.ascii	"7<\311\372x\366Y\266?Hf\000\313\374\226y\001z5\311\362"
 280      78F659B6 
 280      3F486600 
 280      CBFC9679 
 280      017A35C9 
 281 01c7 F4AB989E 		.ascii	"\364\253\230\236\237\264\240\014\303\263+\001\213gW"
 281      9FB4A00C 
 281      C3B32B01 
 281      8B6757
 282 01d6 B0BF5586 		.ascii	"\260\277U\206\220c\207\203>\245\226Q\353M>\277f\332"
 282      90638783 
 282      3EA59651 
 282      EB4D3EBF 
 282      66DA
 283 01e8 60CCD8B1 		.ascii	"`\314\330\261\015[X\27117\213i\204'9\3360}@kr(\2176"
 283      0D5B58B9 
 283      31378B69 
 283      842739DE 
ARM GAS  /tmp/ccBg6PAR.s 			page 22


 283      307D406B 
 284 0200 129B203F 		.ascii	"\022\233 ?v\300\303\361\354j6\013\250\277\225\325\301"
 284      76C0C3F1 
 284      EC6A360B 
 284      A8BF95D5 
 284      C1
 285 0211 DBC020F4 		.ascii	"\333\300 \364\274\004}u\324nqsJm\012j]\014j\322\235"
 285      BC047D75 
 285      D46E7173 
 285      4A6D0A6A 
 285      5D0C6AD2 
 286 0226 2CA2B9BD 		.ascii	",\242\271\275\311\252\222D\025K5\034\223\250\325f\211"
 286      C9AA9244 
 286      154B351C 
 286      93A8D566 
 286      89
 287 0237 3CB2DE64 		.ascii	"<\262\336d\241\233\325\015@\323\305\263/\2637C\376\012"
 287      A19BD50D 
 287      40D3C5B3 
 287      2FB33743 
 287      FE0A
 288 0249 EB32EDC6 		.ascii	"\3532\355\3061\343YU\354fL\252\305\344\260y\332\203"
 288      31E35955 
 288      EC664CAA 
 288      C5E4B079 
 288      DA83
 289 025b 26F48FBF 		.ascii	"&\364\217\277\333L\204\356ef\241\300V\312i\204\036?"
 289      DB4C84EE 
 289      6566A1C0 
 289      56CA6984 
 289      1E3F
 290 026d D6F8CAAD 		.ascii	"\326\370\312\255\262\354\341\331\215,\341h\252^\360"
 290      B2ECE1D9 
 290      8D2CE168 
 290      AA5EF0
 291 027c F6715AE6 		.ascii	"\366qZ\346,\037\2128\233\021\347uV\017\244\262J\011"
 291      2C1F8A38 
 291      9B11E775 
 291      560FA4B2 
 291      4A09
 292 028e 059EB506 		.ascii	"\005\236\265\006i\005\230\246-\307\304X\247b\363\320"
 292      690598A6 
 292      2DC7C458 
 292      A762F3D0 
 293 029e 628BBFFB 		.ascii	"b\213\277\373\370\202k\345\266\267\330\034f\016\341"
 293      F8826BE5 
 293      B6B7D81C 
 293      660EE1
 294 02ad B7AD511E 		.ascii	"\267\255Q\036\335\236gb!1\227\00664\311\372\332\275"
 294      DD9E6762 
 294      21319706 
 294      3634C9FA 
 294      DABD
 295 02bf 8757B1F5 		.ascii	"\207W\261\365\262\014\177\330\206\2667\227\3233\237"
 295      B20C7FD8 
 295      86B63797 
 295      D3339F
ARM GAS  /tmp/ccBg6PAR.s 			page 23


 296 02ce 16886763 		.ascii	"\026\210gc,\007\371\016\243\271]X\222+\273\225\372\364"
 296      2C07F90E 
 296      A3B95D58 
 296      922BBB95 
 296      FAF4
 297 02e0 0677F9F8 		.ascii	"\006w\371\370\362\277\227\3431\326\266\305\305O\034"
 297      F2BF97E3 
 297      31D6B6C5 
 297      C54F1C
 298 02ef FCA81027 		.ascii	"\374\250\020'\355\035\264\272\335\\\257\314n\227\321"
 298      ED1DB4BA 
 298      DD5CAFCC 
 298      6E97D1
 299 02fe EC0E34F6 		.ascii	"\354\0164\366!T\357\262ex\207\271\236\226\027\347LM"
 299      2154EFB2 
 299      657887B9 
 299      9E9617E7 
 299      4C4D
 300 0310 EF0CA7B7 		.ascii	"\357\014\247\267=\265\372\333d\265\213\252\236\346J"
 300      3DB5FADB 
 300      64B58BAA 
 300      9EE64A
 301 031f 54BBA9EA 		.ascii	"T\273\251\352'\223\325\031\224J\244\324\277]\224\001"
 301      2793D519 
 301      944AA4D4 
 301      BF5D9401 
 302 032f B7A301BF 		.ascii	"\267\243\001\277ga\300<\273>1\223\275\262\340\370\332"
 302      6761C03C 
 302      BB3E3193 
 302      BDB2E0F8 
 302      DA
 303 0340 795F9E62 		.ascii	"y_\236b[\352\345\366\0023e\204&,\245F\017k\200\271\211"
 303      5BEAE5F6 
 303      02336584 
 303      262CA546 
 303      0F6B80B9 
 304 0355 498DBD79 		.ascii	"I\215\275y\234\365\231h\234\256)\317\036\0056\322\265"
 304      9CF59968 
 304      9CAE29CF 
 304      1E0536D2 
 304      B5
 305 0366 22ED8E1B 		.ascii	"\"\355\216\033Ur\331qT\311\343\266Tr\355\361\205\316"
 305      5572D971 
 305      54C9E3B6 
 305      5472EDF1 
 305      85CE
 306 0378 543276E1 		.ascii	"T2v\341#\262\206}\212\372\270\304\325+}\214\033\365"
 306      23B2867D 
 306      8AFAB8C4 
 306      D52B7D8C 
 306      1BF5
 307 038a F1D822D4 		.ascii	"\361\330\"\324\307\270-}\\\345\242tO\255[\3532U\274"
 307      C7B82D7D 
 307      5CE5A274 
 307      4FAD5BEB 
 307      3255BC
 308 039d 775D7AC5 		.ascii	"w]z\305\263\243JqJ\225>GU\372\302r-\370\010\371?\336"
ARM GAS  /tmp/ccBg6PAR.s 			page 24


 308      B3A34A71 
 308      4A953E47 
 308      55FAC272 
 308      2DF808F9 
 309 03b3 EBC560FD 		.ascii	"\353\305`\375\361\205\350\325T/\256(R\242\255OCp3\324"
 309      F185E8D5 
 309      542FAE28 
 309      52A2AD4F 
 309      437033D4 
 310 03c7 6AF0EE0E 		.ascii	"j\360\356\016v:\272\262\257\321\217\237p\231.\0106\240"
 310      763ABAB2 
 310      AFD18F9F 
 310      70992E08 
 310      36A0
 311 03d9 5AE66C1D 		.ascii	"Z\346l\035\206\276\345\034\002\235v\031\027\204,\303"
 311      86BEE51C 
 311      029D7619 
 311      17842CC3 
 312 03e9 8290A577 		.ascii	"\202\220\245w\362Y\336d\201\004\344}\030\247\315\301"
 312      F259DE64 
 312      8104E47D 
 312      18A7CDC1 
 313 03f9 331805A8 		.ascii	"3\030\005\250#\324L\200>Z\200`\213{_g/N\227[\013\354"
 313      23D44C80 
 313      3E5A8060 
 313      8B7B5F67 
 313      2F4E975B 
 314 040f 2B70CB71 		.ascii	"+p\313q\242\300\027Q\201\273{\247\300\035F\005\356T"
 314      A2C01751 
 314      81BB7BA7 
 314      C01D4605 
 314      EE54
 315 0421 14B8C396 		.ascii	"\024\270\303\226\002\317s\367T\340enS\005~\325\355\\"
 315      02CF73F7 
 315      54E0656E 
 315      53057ED5 
 315      ED5C
 316 0433 813B2805 		.ascii	"\201;(\005\376\036\025\370\222\245\002\277\343\266\241"
 316      FE1E15F8 
 316      92A502BF 
 316      E3B6A1
 317 0442 C01E1305 		.ascii	"\300\036\023\005\246\306SF\372\030G\372\204\3755\344"
 317      A6C65346 
 317      FA1847FA 
 317      84FD35E4 
 318 0452 6730BF00 		.ascii	"g0\277\000y\342\3031\373\334F\375R<\024\205\224teL*"
 318      79E2C331 
 318      FBDC46FD 
 318      523C1485 
 318      9474654C 
 319 0467 2C335521 		.ascii	",3U!\035\216@t\220\030\356\030\016\267\243\267\232\025"
 319      1D8E4074 
 319      9018EE18 
 319      0EB7A3B7 
 319      9A15
 320 0479 5BFCF172 		.ascii	"[\374\361rg\246\031\333\276\350j\242\003\32382\205\361"
 320      67A619DB 
ARM GAS  /tmp/ccBg6PAR.s 			page 25


 320      BEE86AA2 
 320      03D33832 
 320      85F1
 321 048b 1EDC7E6D 		.ascii	"\036\334~m\214\257\354\330\307Y;\\\230\315\017r!\307"
 321      8CAFECD8 
 321      C7593B5C 
 321      98CD0F72 
 321      21C7
 322 049d D67FBC9C 		.ascii	"\326\177\274\234%\\\230\355%X\255\177\337\004\017\361"
 322      255C98ED 
 322      2558AD7F 
 322      DF040FF1 
 323 04ad C35F9D3E 		.ascii	"\303_\235>\245\272\227F\216DJ\2532\322FJz \216Y\203"
 323      A5BA9746 
 323      8E444AAB 
 323      32D2464A 
 323      7A208E59 
 324 04c2 5D667386 		.ascii	"]fs\206e\251\203\367)\265\351\026%9v\351\244Wn\3165"
 324      65A983F7 
 324      29B5E916 
 324      253976E9 
 324      A4576ECE 
 325 04d7 196A04CD 		.ascii	"\031j\004\315\262\346\021\317\306\257}O\226\373\362"
 325      B2E611CF 
 325      C6AF7D4F 
 325      96FBF2
 326 04e6 EC5CA4F8 		.ascii	"\354\\\244\370\2349\305m#\254p8\246\013\2734\031(\216"
 326      9C39C56D 
 326      23AC7038 
 326      A60BBB34 
 326      19288E
 327 04f9 BF79B1FD 		.ascii	"\277y\261\375\272VDn\262A\366\364\330\341\306e\266b"
 327      BA56446E 
 327      B241F6F4 
 327      D8E1C665 
 327      B662
 328 050b D436B736 		.ascii	"\3246\2676|I\222\215\243gc\003\320\033/D.\336\316L+"
 328      7C49928D 
 328      A3676303 
 328      D01B2F44 
 328      2EDECE4C 
 329 0520 773D0CC7 		.ascii	"w=\014\307\274\217]Z{r\021\377\007\205\213V[\\t\252"
 329      BC8F5D5A 
 329      7B7211FF 
 329      07858B56 
 329      5B5C74AA 
 330 0534 5CF0EC02 		.ascii	"\\\360\354\002.\007`\217$`\355\032\222\036\357\312\316"
 330      2E07608F 
 330      2460ED1A 
 330      921EEFCA 
 330      CE
 331 0545 DC265E03 		.ascii	"\334&^\003\373\3241\230O\007\326\262k\251\303\005s\361"
 331      FBD43198 
 331      4F07D6B2 
 331      6BA9C305 
 331      73F1
 332 0557 A5D3D7BE 		.ascii	"\245\323\327\276\211\354\267\241a\276\222\365\213\030"
ARM GAS  /tmp/ccBg6PAR.s 			page 26


 332      89ECB7A1 
 332      61BE92F5 
 332      8B18
 333 0565 E6C62C1B 		.ascii	"\346\306,\033\214X\033&\314\312\376\353\267\254\223"
 333      8C581B26 
 333      CCCAFEEB 
 333      B7AC93
 334 0574 E5D9999A 		.ascii	"\345\331\231\232~fZ1\3021[q\260\225\306\231]|e\377m"
 334      7E665A31 
 334      C2315B71 
 334      B095C699 
 334      5D7C65FF 
 335 0589 CACCAEB4 		.ascii	"\312\314\256\2645\263\233\366,\262\247\237\231\332\360"
 335      35B39BF6 
 335      2CB2A79F 
 335      99DAF0
 336 0598 411CFE0A 		.ascii	"A\034\376\012\016\377\242q\370\215\177>s\2272\374\213"
 336      0EFFA271 
 336      F88D7F3E 
 336      739732FC 
 336      8B
 337 05a9 B6863FB1 		.ascii	"\266\206?\261\317d\013\307\263w]\235r\372\256\234\277"
 337      CF640BC7 
 337      B3775D9D 
 337      72FAAE9C 
 337      BF
 338 05ba E5191C64 		.ascii	"\345\031\034d\015*P\273\3078}\303s\350\261\360\231j"
 338      0D2A50BB 
 338      C7387DC3 
 338      73E8B1F0 
 338      996A
 339 05cc C031073C 		.ascii	"\3001\007<\032\365\275\322_`s\307\360\027p\2464\032"
 339      1AF5BDD2 
 339      5F6073C7 
 339      F01770A6 
 339      341A
 340 05de 0E3B46D4 		.ascii	"\016;F\324+\361\305}h\021\012\3301;`\226\2124=\366\035"
 340      2BF1C57D 
 340      68110AD8 
 340      313B6096 
 340      8A343DF6 
 341 05f3 0DF6A963 		.ascii	"\015\366\251c0=e\337\323`\237\333\001\353kM\331\017"
 341      303D65DF 
 341      D3609FDB 
 341      01EB6B4D 
 341      D90F
 342 0605 34D849C7 		.ascii	"4\330I\307`z\312~\244\301\316\330\001\033`M\331O4\330"
 342      607ACA7E 
 342      A4C1CED8 
 342      011B604D 
 342      D94F34D8 
 343 0619 39C7607A 		.ascii	"9\307`z\312\256\320`\027\354\200\371\254)k:H\201u8\006"
 343      CAAED060 
 343      17EC80F9 
 343      AC296B3A 
 343      48817538 
 344 062e D353D64C 		.ascii	"\323S\326L\203]\266\003v\2135e\013h\260.\307`z\312\236"
ARM GAS  /tmp/ccBg6PAR.s 			page 27


 344      835DB603 
 344      768B3565 
 344      0B68B02E 
 344      C7607ACA 
 345 0643 A2C1A679 		.ascii	"\242\301\246ym\200\025XS\326J\20358\006\323S\266\204"
 345      6D801558 
 345      53D64A83 
 345      353806D3 
 345      53B684
 346 0656 069B6D07 		.ascii	"\006\233m\007l\2505eKi\260\271\216\301\364\224\275F"
 346      6CA83565 
 346      4B69B0B9 
 346      8EC1F494 
 346      BD46
 347 0668 83CDB703 		.ascii	"\203\315\267\0036\302\232\262u4\330\002\307`z\3126\320"
 347      36C29AB2 
 347      7534D802 
 347      C7607ACA 
 347      36D0
 348 067a 608BEC80 		.ascii	"`\213\354\200\215\266\246\354u\032l\211c0=e\233i\260"
 348      8DB6A6EC 
 348      751A6C89 
 348      63303D65 
 348      9B69B0
 349 068d 6576C0EE 		.ascii	"ev\300\356\267\246\354\015\032\254\3151\230\236\262"
 349      B7A6EC0D 
 349      1AACCD31 
 349      989EB2
 350 069c AD34D873 		.ascii	"\2554\330sv\300&ZS\266\215\006{\3361\230\236\262\375"
 350      76C0265A 
 350      53B68D06 
 350      7BDE3198 
 350      9EB2FD
 351 06af 34D84B76 		.ascii	"4\330Kv\300\0366\241,\3611\353G\226\351\0278j\263\266"
 351      C01E36A1 
 351      2CF131EB 
 351      4796E917 
 351      386AB3B6 
 352 06c3 C6AB0538 		.ascii	"\306\253\0058\016\327h&\211\261\316\3534\"\323\361M"
 352      0ED76826 
 352      89B1CEEB 
 352      3422D3F1 
 352      4D
 353 06d4 E2E4EBDF 		.ascii	"\342\344\353\337P\327y%X\335l\0071\305\002\270d\027"
 353      50D77925 
 353      58DD6C07 
 353      31C502B8 
 353      6417
 354 06e6 15F9C61C 		.ascii	"\025\371\306\034\203\031T\231\200\351B\247\304\321\177"
 354      83195499 
 354      80E942A7 
 354      C4D17F
 355 06f5 2CF58907 		.ascii	",\365\211\007y\301\304Q\357\011\006\230\267\345\331"
 355      79C1C451 
 355      EF090698 
 355      B7E5D9
 356 0704 B31CD9C2 		.ascii	"\263\034\331\302\377\225\363&\250P\312ZI92h\367\352"
ARM GAS  /tmp/ccBg6PAR.s 			page 28


 356      FF95F326 
 356      A850CA5A 
 356      49393268 
 356      F7EA
 357 0716 0F1C129F 		.ascii	"\017\034\022\237t]\2554\341\014\255\011\037\330\021"
 357      745DAD34 
 357      E10CAD09 
 357      1FD811
 358 0725 538AA5FD 		.ascii	"S\212\245\375\304\256\245x\236i\377\275\310\342K\373"
 358      C4AEA578 
 358      9E69FFBD 
 358      C8E24BFB 
 359 0735 D50DC279 		.ascii	"\325\015\302y\334 |\3505F\230\033\035\276\031\2018\314"
 359      DC207CE8 
 359      3546981B 
 359      1DBE1981 
 359      38CC
 360 0747 C885D9B1 		.ascii	"\310\205\331\261\212uL\001\272x\364\306-kd\271>\323"
 360      8A754C01 
 360      BA78F4C6 
 360      2D6B64B9 
 360      3ED3
 361 0759 091FED2A 		.ascii	"\011\037\355*\037\035\310\307\311_\200\217s\216\371"
 361      1F1DC8C7 
 361      C95F808F 
 361      738EF9
 362 0768 B8C5C047 		.ascii	"\270\305\300G\354\026\347|\034U\371\370\021\371\350"
 362      EC16E77C 
 362      1C55F9F8 
 362      11F9E8
 363 0777 F805F8E8 		.ascii	"\370\005\370\350r\314G\001\305\007\356\326\006*\273"
 363      72CC4701 
 363      C507EED6 
 363      062ABB
 364 0786 B5AB98E6 		.ascii	"\265\253\230\346\324\2735BO7w\225\341|{79r$\3256\016"
 364      D4BB3542 
 364      4F377795 
 364      E17C7B37 
 364      397224D5 
 365 079c 3F76535B 		.ascii	"?vS[\\\331\336\026\367\274*\261\351.\"\261\031\331&"
 365      5CD9DE16 
 365      F7BC2AB1 
 365      E92E22B1 
 365      19D926
 366 07af 47C2B690 		.ascii	"G\302\266\220\216\355|g\255z\374\323\200Psz\015\325"
 366      8EED7C67 
 366      AD7AFCD3 
 366      8050737A 
 366      0DD5
 367 07c1 B27B93F2 		.ascii	"\262{\223\362\272q\026\0025g\033g1\3230"
 367      BA711602 
 367      35671B67 
 367      31D330
 368 07d0 8999FA49 		.ascii	"\211\231\372I\204G2\322\017d\307\315>\246\326\220\207"
 368      844732D2 
 368      0F64C7CD 
 368      3EA6D690 
ARM GAS  /tmp/ccBg6PAR.s 			page 29


 368      87
 369 07e1 2CE6FFBD 		.ascii	",\346\377\275\037\307,E\362\311\004:\\\240\222\012\364"
 369      1FC72C45 
 369      F2C9043A 
 369      5CA0920A 
 369      F4
 370 07f2 BB2DEAE2 		.ascii	"\273-\352\342\242L\322s?\013qzl\375\343\3321\315p\262"
 370      A24CD273 
 370      3F0B717A 
 370      6CFDE3DA 
 370      31CD70B2 
 371 0806 BCBCFC33 		.ascii	"\274\274\3743\341\016\354q~\260\022\273N\321\272\371"
 371      E10EEC71 
 371      7EB012BB 
 371      4ED1BAF9 
 372 0816 C8D0FA1E 		.ascii	"\310\320\372\0363\334\253\203\225\355\275e$\361\341"
 372      33DCAB83 
 372      95EDBD65 
 372      24F1E1
 373 0825 989DD936 		.ascii	"\230\235\3316\026\021_\252\331\372a\240\315\303\231"
 373      16115FAA 
 373      D9FA61A0 
 373      CDC399
 374 0834 C421E4E9 		.ascii	"\304!\344\351\001\355(\214E.r|\267\333 \014\033\207"
 374      01ED288C 
 374      452E727C 
 374      B7DB200C 
 374      1B87
 375 0846 3CC7B0CB 		.ascii	"<\307\260\313\022W\217\343\273\375\327*\247,\344O6\016"
 375      12578FE3 
 375      BBFDD72A 
 375      A72CE44F 
 375      360E
 376 0858 7974C777 		.ascii	"yt\307w<\273\224\343T\330\336\312S7\205I\372\000\332"
 376      3CBB94E3 
 376      54D8DECA 
 376      53378549 
 376      FA00DA
 377 086b 45E28565 		.ascii	"E\342\205e.\3351\377\031\307\262\367\321\262\217u\356"
 377      2EDD31FF 
 377      19C7B2F7 
 377      D1B28F75 
 377      EE
 378 087c 59CA2AF4 		.ascii	"Y\312*\364+\307\271\337\032\361F\320\261\234Z\264\334"
 378      2BC7B9DF 
 378      1AF146D0 
 378      B19C5AB4 
 378      DC
 379 088d B7CAB1E6 		.ascii	"\267\312\261\346\275\030\204)Fw\305\016q)\266\232\313"
 379      BD188429 
 379      4677C50E 
 379      7129B69A 
 379      CB
 380 089e 153045E1 		.ascii	"\0250E\341g\3448\005\363\351\300\336\234gr\\\254\034"
 380      67E43805 
 380      F3E9C0DE 
 380      9C67725C 
ARM GAS  /tmp/ccBg6PAR.s 			page 30


 380      AC1C
 381 08b0 915B2D2C 		.ascii	"\221[-,\253\\T\250\364\244\235\361S\354N\017\357]\252"
 381      AB5C54A8 
 381      F4A49DF1 
 381      53EC4E0F 
 381      EF5DAA
 382 08c3 6A8A7232 		.ascii	"j\212r2\272\3301\236\236\237\013\363t\036i\205\035\270"
 382      BAD8319E 
 382      9E9F0BF3 
 382      741E6985 
 382      1DB8
 383 08d5 11B6152F 		.ascii	"\021\266\025/y\256\015J\210\201\352\323\034y3\264\014"
 383      79AE0D4A 
 383      8881EAD3 
 383      1C7933B4 
 383      0C
 384 08e6 F367305F 		.ascii	"\363g0_\201\371\227\230\237\302\3744\346\377\213\371"
 384      81F99798 
 384      9FC2FC34 
 384      E6FF8BF9 
 385 08f6 77985FC6 		.ascii	"w\230_\306\374\012\346O\271\260/\346\317b\376\034\346"
 385      FC0AE64F 
 385      B9B02FE6 
 385      CF62FE1C 
 385      E6
 386 0907 2B315F8D 		.ascii	"+1_\215\371\213\264z[\315\213bj\011\303\324\254\256"
 386      F98BB47A 
 386      5BCD8B62 
 386      6A09C3D4 
 386      ACAE
 387 0919 A9D787E6 		.ascii	"\251\327\207\346G\222\207\346<\273\3341\230/\225$\233"
 387      479287E6 
 387      3CBBDC31 
 387      982F9524 
 387      9B
 388 092a 284936A3 		.ascii	"(I6\243$[P\032/\353\015\371\345\034\3555N\012\303\263"
 388      245B501A 
 388      2FEB0DF9 
 388      E51CED35 
 388      4E0AC3B3 
 389 093e 6621FEE1 		.ascii	"f!\376\341W\247\263\026\313\261\031.m\007\264\301\010"
 389      57A7B316 
 389      CBB1192E 
 389      6D07B4C1 
 389      08
 390 094f 987683A6 		.ascii	"\230v\203\246\227\311\025\301p\343ByGe5'ki[\331\352"
 390      97C915C1 
 390      70E34279 
 390      47653527 
 390      6B695BD9 
 391 0964 78EC9422 		.ascii	"x\354\224\"\234M\211\360q\024\341\023(\3025\2502\257"
 391      9C4D89F0 
 391      7114E113 
 391      28C235A8 
 391      32AF
 392 0976 D182E4D9 		.ascii	"\321\202\344\3319\234\341\276\211\376\205Y\212\301\023"
 392      399CE1BE 
ARM GAS  /tmp/ccBg6PAR.s 			page 31


 392      89FE8559 
 392      8AC113
 393 0985 2FB93B8E 		.ascii	"/\271;\216\230\\8Q^\025\245X\224\026m;v\375\313\270"
 393      985C3851 
 393      5E15A558 
 393      94166D3B 
 393      76FDCBB8 
 394 0999 746C7091 		.ascii	"tlp\221\011\350\3141\256\320\0138\303\341\271A\2219"
 394      09E8CC31 
 394      AED00B38 
 394      C3E1B941 
 394      9139
 395 09ab 665EAE8D 		.ascii	"f^\256\215\027\220)v2k\347]:\302\326\327\313\253\013"
 395      17902976 
 395      326BE75D 
 395      3AC2D6D7 
 395      CBAB0B
 396 09be D4C8426E 		.ascii	"\324\310Bn\224oY\235\\\004\373j\030\\\202\356\330F\345"
 396      946F599D 
 396      5C04FB6A 
 396      185C82EE 
 396      D846E5
 397 09d1 45EA16F4 		.ascii	"E\352\026\364\262\013sM\3577\244\207\211\037k\334\364"
 397      B20B734D 
 397      EF37A487 
 397      891F6BDC 
 397      F4
 398 09e2 3B8C40B7 		.ascii	";\214@\267\"\3203\275\006j\231\363\274rQb;\002\255\316"
 398      22D033BD 
 398      066A99F3 
 398      BC725162 
 398      3B02ADCE 
 399 09f6 358AD165 		.ascii	"5\212\321e\210s\\\3728\307\345M\026\272\273]\314\337"
 399      88735CFA 
 399      38C7E54D 
 399      16BABB5D 
 399      CCDF
 400 0a08 B0318461 		.ascii	"\2601\204a\306\011\323q\224.\366!\023\326\245*\233v"
 400      C609D371 
 400      942EF621 
 400      13D6A52A 
 400      9B76
 401 0a1a C364B31D 		.ascii	"\303d\263\035\025\320!\352T \366\323\307\350\313\024"
 401      15D021EA 
 401      5420F6D3 
 401      C7E8CB14 
 402 0a2a B0B7EC80 		.ascii	"\260\267\354\200\2458\206^\270\374\031\313wXmi\257^"
 402      A538865E 
 402      B8FC19CB 
 402      77586D69 
 402      AF5E
 403 0a3c C5B79C7A 		.ascii	"\305\267\234z\357\367\344\"`\372\353W\273]\366\256_"
 403      EFF7E422 
 403      60FAEB57 
 403      BB5DF6AE 
 403      5F
 404 0a4d BDEF32BE 		.ascii	"\275\3572\276\347\336\213\327\257\336\267\025\255]2"
ARM GAS  /tmp/ccBg6PAR.s 			page 32


 404      E7DE8BD7 
 404      AFDEB715 
 404      AD5D32
 405 0a5c 8B01CC6E 		.ascii	"\213\001\314n#&\\\306\200$3\037}\375\336]\312\255\306"
 405      23265CC6 
 405      8024331F 
 405      7DFDDE5D 
 405      CAADC6
 406 0a6f FD1874EE 		.ascii	"\375\030t\356\373U\372[\215:\034B\337!#\375\353\367"
 406      FB55FA5B 
 406      8D3A1C42 
 406      DF2123FD 
 406      EBF7
 407 0a81 21FD87D2 		.ascii	"!\375\207\322\323?\243>\266I}\247\207\306T\237r\333"
 407      D33FA33E 
 407      B6497DA7 
 407      87C6549F 
 407      72DB
 408 0a93 C0B367F1 		.ascii	"\300\263g\361\212\210\235M\300\027\310\311!\347A\253"
 408      8A889D4D 
 408      C017C8C9 
 408      21E741AB 
 409 0aa3 4AD666E5 		.ascii	"J\326f\345\235\314\021\264\327\223\216\301|:\2607h\260"
 409      9DCC11B4 
 409      D7938EC1 
 409      7C3AB037 
 409      68B0
 410 0ab5 AFED8059 		.ascii	"\257\355\200Y-b\000\266\225\006\373\3061\230\236\262"
 410      2D6200B6 
 410      9506FBC6 
 410      31989EB2 
 411 0ac5 6D34D8B7 		.ascii	"m4\330\267v\300\254N+\001l?\015\366\203c0\237\231\226"
 411      76C0AC4E 
 411      2B016C3F 
 411      0DF68363 
 411      309F9996 
 412 0ad9 303D948C 		.ascii	"0=\224\214g?\304]\303a\\)\217b~\034\363O0\377\014\363"
 412      673FC45D 
 412      C3615C29 
 412      8F627E1C 
 412      F34F30FF 
 413 0aef B89DA06B 		.ascii	"\270\235\240k\037\275\300\377\204\004\277\337;\215\001"
 413      1FBDC0FF 
 413      8404BFDF 
 413      3B8D01
 414 0afe B7B7E5D4 		.ascii	"\267\267\345\324\347w*\247\277\2065\226\310\303\212"
 414      E7772AA7 
 414      BF863596 
 414      C8C38A
 415 0b0d 822F690A 		.ascii	"\202/i\012\352\363\234R\340\243)\210u\356UN.\265\213"
 415      EAF39C52 
 415      E0A32988 
 415      75EE554E 
 415      2EB58B
 416 0b20 DEB38C78 		.ascii	"\336\263\214xv\257fi\341\322\336\234\327\036\326\300"
 416      76AF6669 
 416      E1D2DE9C 
ARM GAS  /tmp/ccBg6PAR.s 			page 33


 416      D71ED6C0 
 417 0b30 9E740CA6 		.ascii	"\236t\014\246\273~\035k\332G\201-v\014\326\267\207F"
 417      BB7E1D6B 
 417      DA47812D 
 417      760CD6B7 
 417      8746
 418 0b42 28BAF001 		.ascii	"(\272\360\001\352\302^\234\363\277`~\012\363\323\230"
 418      EAC25E9C 
 418      F3BF607E 
 418      0AF3D398 
 419 0b52 7FAD0F48 		.ascii	"\177\255\017H\333\362\214\353\256\342c)\324\2443f\354"
 419      DBF28CEB 
 419      AEE26329 
 419      D4A43366 
 419      EC
 420 0b63 E25ACD6D 		.ascii	"\342Z\315m;=\267\353\363\234\256Z\272\271\205Eu\327"
 420      3B3DB7EB 
 420      F39CAE5A 
 420      BAB98545 
 420      75D7
 421 0b75 57DAA2DA 		.ascii	"W\332\242\332\216\261\330\026;\210)v\242\033>3\276\016"
 421      8EB1D816 
 421      3B882976 
 421      A21B3E33 
 421      BE0E
 422 0b87 30F3F61C 		.ascii	"0\363\366\034M[b\325\330\361\240\262j\\\304Uc{^\372"
 422      4D5B62D5 
 422      D8F1A0B2 
 422      6A5CC455 
 422      637B5EFA 
 423 0b9b 5583D3F3 		.ascii	"U\203\323\363\310\263\035\306U\343\362!\\5:l\255\032"
 423      C8B31DC6 
 423      55E3F221 
 423      5C353A6C 
 423      AD1A
 424 0bad 5D8716A8 		.ascii	"]\207\026\250;E\305\333\354A\022:z\355\356\257\034\242"
 424      3B45C5DB 
 424      EC41123A 
 424      7AEDEEAF 
 424      1CA2
 425 0bbf 5CD73EC7 		.ascii	"\\\327>\307`>\035X\323\021\012\354\220\035\260\024\356"
 425      603E1D58 
 425      D3110AEC 
 425      901DB014 
 425      EE
 426 0bd0 BE99063B 		.ascii	"\276\231\006;\352\030LO\331\002\032\354S;`)\334\375"
 426      EA184C4F 
 426      D9021AEC 
 426      533B6029 
 426      DCFD
 427 0be2 533458DC 		.ascii	"S4X\3341\230\236\262V\032\354K;`V\257p\000l\011\015"
 427      31989EB2 
 427      561AEC4B 
 427      3B6056AF 
 427      70006C09 
 428 0bf7 76DA3198 		.ascii	"v\3321\230\236\262\2454\330_\355\200\371\254)[N\203"
 428      9EB2A534 
ARM GAS  /tmp/ccBg6PAR.s 			page 34


 428      D85FED80 
 428      F9AC295B 
 428      4E83
 429 0c09 5D740CE6 		.ascii	"]t\014\34633\011\345C[\024\317~\217n\361\022:\253\313"
 429      333309E5 
 429      435B14CF 
 429      7E8F6EF1 
 429      123AABCB 
 430 0c1d 987762DE 		.ascii	"\230wb\336\205y7\346\323\334$\257\307\274\001\363\231"
 430      857937E6 
 430      D3DC24AF 
 430      C7BC01F3 
 430      99
 431 0c2e 98CF76DB 		.ascii	"\230\317v\333pn\027h\347v\311\261+J\311H\362'2<\373"
 431      706E1768 
 431      E776C9B1 
 431      2B4AC948 
 431      F227323C 
 432 0c43 16467C6F 		.ascii	"\026F|o\343\025\336\303\230\313\270On\300|=2\262\031"
 432      E315DEC3 
 432      98CBB84F 
 432      6EC07C3D 
 432      32B219
 433 0c56 F3B7317F 		.ascii	"\363\2671\177\027\363]\230\177\203\371y;\276\372\315"
 433      17F35D98 
 433      7F83F979 
 433      3BBEFACD 
 434 0c66 E4C55FD8 		.ascii	"\344\305_\330\217\273\311v{e\257\257\224\237\334\363"
 434      8FBBC976 
 434      7B65AFAF 
 434      949FDCF3 
 435 0c76 A4D33BF9 		.ascii	"\244\323;\371g\343\253\324\267&s\361\376vg\217\225\252"
 435      67E3ABD4 
 435      B72673F1 
 435      FE76678F 
 435      95AA
 436 0c88 5747E10D 		.ascii	"WG\341\015}\330\364\234\244\270c\3300o.K\"\212~L\023"
 436      7DD8F49C 
 436      A4B863D8 
 436      306F2E4B 
 436      228A7E4C 
 437 0c9d 7AF401CA 		.ascii	"z\364\001\312\273X\265\355D\015!G%\251\331\335\017K"
 437      BB58B5ED 
 437      440D2147 
 437      25A9D9DD 
 437      0F4B
 438 0caf BA773CD8 		.ascii	"\272w<\330\302J\356-\356\344\373\336\\o\262\220\235"
 438      C24AEE2D 
 438      EEE4FBDE 
 438      5C6FB290 
 438      9D
 439 0cc0 D0ADB946 		.ascii	"\320\255\271F\026t\243\246qy\260\314u\374\320\316\312"
 439      1674A3A6 
 439      7179B0CC 
 439      75FCD0CE 
 439      CA
 440 0cd1 CDB98698 		.ascii	"\315\271\206\230\214\204!V4=\345\246T\273\331\216\004"
ARM GAS  /tmp/ccBg6PAR.s 			page 35


 440      8C842156 
 440      343DE5A6 
 440      54BBD98E 
 440      04
 441 0ce2 53BC4DFE 		.ascii	"S\274M\376>HVl\002\3111\255\216\261|\0266\302\350\177"
 441      3E48566C 
 441      02C931AD 
 441      8EB17C16 
 441      36C2E87F 
 442 0cf6 B8C9B3AB 		.ascii	"\270\311\263\253\320L\236G\003\331\200\371V\314\237"
 442      D04C9E47 
 442      03D980F9 
 442      56CC9F
 443 0d05 408B9E8F 		.ascii	"@\213\236\217\371B\314[i\353\276\221Y.\267\305\343]"
 443      F942CC5B 
 443      69EBBE91 
 443      592EB7C5 
 443      E35D
 444 0d17 3FBE1725 		.ascii	"?\276\027%\007mrw\367c\3145\314Bu\362dVR\216\275\255"
 444      076D7277 
 444      F763CC35 
 444      CC4275F2 
 444      6456528E 
 445 0d2d 24F5B4FB 		.ascii	"$\365\264\373\032,\271\224_\034\244\015&\022\327\215"
 445      1A2CB994 
 445      5F1CA40D 
 445      2612D78D 
 446 0d3d 472755FF 		.ascii	"G'U\377@\347\231\233\360hd\271\233\304\022o\365I\037"
 446      40E7999B 
 446      F06864B9 
 446      9BC4126F 
 446      F5491F
 447 0d50 4BE86008 		.ascii	"K\350`\010\035\317\272\015\261D'\371\011+\251M\377\262"
 447      1DCFBA0D 
 447      B14427F9 
 447      092BA94D 
 447      FFB2
 448 0d62 B47B05B9 		.ascii	"\264{\005\271)\256\375\244v\017\016Oz\252\203\311\272"
 448      29AEFDA4 
 448      760F0E4F 
 448      7AAA83C9 
 448      BA
 449 0d73 DFCBA6DB 		.ascii	"\337\313\246\333\005\310\261\371\227=\362\234\\\315"
 449      05C8B1F9 
 449      973DF29C 
 449      5CCD
 450 0d81 5E56E729 		.ascii	"^V\347)gGj\323\036[\377U\216\015\346y\013\203\321~\347"
 450      67476AD3 
 450      1E5BFF55 
 450      8E0DE679 
 450      0B83D17E 
 451 0d96 C631078D 		.ascii	"\3061\007\215,\350FM\263D\001\007-\347Z](\221\201\331"
 451      2CE8464D 
 451      B3440107 
 451      2DE75A5D 
 451      289181D9 
 452 0daa E4EEB611 		.ascii	"\344\356\266\021\315Q\334*\307\026|\300\022\003@\254"
ARM GAS  /tmp/ccBg6PAR.s 			page 36


 452      CD51DC2A 
 452      C7167CC0 
 452      120340AC 
 453 0dba 1376B02C 		.ascii	"\023v\260,#V9\266\250\303#7j\262m\033\321\232\306\216"
 453      235639B6 
 453      A8C32337 
 453      6AB26D1B 
 453      D19AC68E 
 454 0dce D73816EE 		.ascii	"\3278\026\356\253\026\302\325\316\3208\346\214c\026"
 454      AB16C2D5 
 454      CED038E6 
 454      8C6316
 455 0ddd F4E268CD 		.ascii	"\364\342h\315h-\320\224\303@\277\376L\227\220\263\316"
 455      682DD094 
 455      C340BFFE 
 455      4C9790B3 
 455      CE
 456 0dee 3103EB2D 		.ascii	"1\003\353-\030\350\223`\340b\017\0057;J6{\347c\366\241"
 456      18E89360 
 456      E0620F05 
 456      373B4A36 
 456      7BE763F6 
 457 0e03 4D8F67FF 		.ascii	"M\217g\377\354&N\3509t3+1\177\001\363\2270\177\005\363"
 457      EC264EE8 
 457      3974332B 
 457      317F01F3 
 457      97307F05 
 458 0e18 B576828B 		.ascii	"\265v\202\213eI\017\254\272\226\304\012\235xV\257p\360"
 458      65490FAC 
 458      BA96C40A 
 458      9D7856AF 
 458      70F0
 459 0e2a EC03C913 		.ascii	"\354\003\311\023NX7\015\356\343&\3469Yn&\016\356\020"
 459      4E58370D 
 459      EEE326E6 
 459      39596E26 
 459      0EEE10
 460 0e3d D93D8D56 		.ascii	"\331=\215V\2609ff_|U\352\276\321\224\006\225\002\245"
 460      B0396666 
 460      5F7C55EA 
 460      BED19406 
 460      9502A5
 461 0e50 B3BC4918 		.ascii	"\263\274I\030\255\014\3171\263\323tC\"\325n\227\036"
 461      AD0CCF31 
 461      B3D37443 
 461      22D56E97 
 461      1E
 462 0e61 1AA06D77 		.ascii	"\032\240mw\233\214\335\014\327\246T^~\303\254$\363\374"
 462      9B8CDD0C 
 462      D7A6545E 
 462      7EC3AC24 
 462      F3FC
 463 0e73 6A63435F 		.ascii	"jcC_\267\342x\231\024\243\251\262\332\344\326\375'\001"
 463      B7E27899 
 463      14A3A9B2 
 463      DAE4D6FD 
 463      2701
ARM GAS  /tmp/ccBg6PAR.s 			page 37


 464 0e85 C5A3C75E 		.ascii	"\305\243\307^\027\332\345\363\020\0048p\3461\2753Wd"
 464      17DAE5F3 
 464      10043870 
 464      E631BD33 
 464      5764
 465 0e97 A03E7898 		.ascii	"\240>x\230\231\312\217\332\344i\354\037\031S.\222\027"
 465      99CA8FDA 
 465      E469EC1F 
 465      19532E92 
 465      17
 466 0ea8 C5201473 		.ascii	"\305 \024s{\310&\277/k\2455\244\201\246\000JY+\261\214"
 466      7BC826BF 
 466      2F6BA535 
 466      A481A600 
 466      4A592BB1 
 467 0ebd C9AC3ED3 		.ascii	"\311\254>\323\327lV\345\316\240:\237<\273\005C\266\355"
 467      D76C56E5 
 467      CEA03A9F 
 467      3CBB0543 
 467      B6ED
 468 0ecf B6E6F369 		.ascii	"\266\346\363i21\012\211/!\360v\313\211Q\3514\237\030"
 468      32310A89 
 468      2F21F076 
 468      CB8951E9 
 468      349F18
 469 0ee2 ABD1540E 		.ascii	"\253\321T\016v\232N\314'\316'\346}\263\2111Hh\275\271"
 469      769A4ECC 
 469      27CE27E6 
 469      7DB38931 
 469      4868BDB9 
 470 0ef6 84BA8C12 		.ascii	"\204\272\214\022\332\223ZBV\254ZuS)\334k\312\352S;s"
 470      DA935A42 
 470      56AC5A75 
 470      5329DC6B 
 470      CAEA533B 
 471 0f0b 9BA6C5BB 		.ascii	"\233\246\305\273\273ot\300\353\301\024J\310\263C\364"
 471      BB6F74C0 
 471      EBC1144A 
 471      C8B343F4 
 472 0f1b 2E407934 		.ascii	".@y4H\"f.\211\003\202A\022\007l\351J\007\3516\204\230"
 472      4822662E 
 472      89038241 
 472      12076CE9 
 472      4A07E936 
 473 0f31 FE09C4B5 		.ascii	"\376\011\304\265\3565\204r\030\3008\253v;m\243\233\225"
 473      EE358472 
 473      18C038AB 
 473      763B6DA3 
 473      9B95
 474 0f43 D4AD7AA9 		.ascii	"\324\255z\251\262:\322S\352\361\246\370\212\203O\310"
 474      B23AD253 
 474      EAF1A6F8 
 474      8A834FC8 
 475 0f53 AC63B97F 		.ascii	"\254c\271\177\226\"\222Sb#\253\236q\023_\255\372\263"
 475      96229253 
 475      6223AB9E 
 475      71135FAD 
ARM GAS  /tmp/ccBg6PAR.s 			page 38


 475      FAB3
 476 0f65 34BEFA3B 		.ascii	"4\276\372;\303Li|\375\305\214\257X\327Q+\276,~\376C"
 476      C34C697C 
 476      FDC58CAF 
 476      58D7512B 
 476      BE2C7EFE 
 477 0f7a A04E1AD5 		.ascii	"\240N\032\325)N\253\223\305\222\222xV7\002\226\317s"
 477      294EAB93 
 477      C5929278 
 477      56370296 
 477      CF73
 478 0f8c DD747B83 		.ascii	"\335t{\203\314\250}R\017\262\316\271\351\227\246\006"
 478      CCA87D52 
 478      0FB2CEB9 
 478      E997A606 
 479 0f9c B13CDECF 		.ascii	"\261<\336\317"
 480 0fa0 5C2CDF98 		.ascii	"\\,\337\230\212\245\373\223\336L\367\371\224rQ\275\236"
 480      8AA5FB93 
 480      DE4CF7F9 
 480      947251BD 
 480      9E
 481 0fb1 81AE2516 		.ascii	"\201\256%\026t}kJW\323I\331\343\330\323u\244$\313(\376"
 481      747D6B4A 
 481      57D349D9 
 481      E3D8D375 
 481      A424CB28 
 482 0fc6 74D365AE 		.ascii	"t\323e\256u/X\260\321ijM\213\266\235\031\336\272N\236"
 482      752F58B0 
 482      D1696A4D 
 482      8BB69D19 
 482      DEBA4E9E 
 483 0fda 315BBED2 		.ascii	"1[\276\322\375\030k_\361\272\214\234\020]1P\262\325"
 483      FD186B5F 
 483      F1BA8C9C 
 483      105D3150 
 483      B2D5
 484 0fec 82926E3D 		.ascii	"\202\222n=%\377\304<+\313\007!\20493\015\177\247N\366"
 484      25FFC43C 
 484      2BCB0721 
 484      8439330D 
 484      7FA74EF6 
 485 1000 2CDDEC8D 		.ascii	",\335\354\215Zl\261+\201b\266\204\021\274i\031\012\036"
 485      5A6CB12B 
 485      8162B684 
 485      11BC6919 
 485      0A1E
 486 1012 A9566562 		.ascii	"\251Veb\320U\022)[q2=#\241\253\206^\353R\364\252\267"
 486      D0551229 
 486      5B71323D 
 486      23A1AB86 
 486      5EEB52F4 
 487 1028 EC454CD2 		.ascii	"\354EL\322\252\327\014\313^\315)\306j\260\354\365Y\212"
 487      AAD70CCB 
 487      5ECD29C6 
 487      6AB0ECF5 
 487      598A
 488 103a B11A2D7B 		.ascii	"\261\032-{\235O\321kf\262\227E\030?@\277i\340\331Y\031"
ARM GAS  /tmp/ccBg6PAR.s 			page 39


 488      9D4FD16B 
 488      66B29745 
 488      183F40BF 
 488      69E0D959 
 489 104f 4EA3F8D9 		.ascii	"N\243\370\331\031\346Q\274\246\026*R\254Q\236\305N["
 489      19E651BC 
 489      A6162A52 
 489      AC519EC5 
 489      4E5B
 490 1061 7B7D221E 		.ascii	"{}\"\036\033\2415\244\177\333\274s\257v\037wN\006\201"
 490      1BA135A4 
 490      7FDBBC73 
 490      AF761F77 
 490      4E0681
 491 1074 3860D03A 		.ascii	"8`\320:\007`m-s\256'G\364s\021\350\230\001\210g=\206"
 491      07606D2D 
 491      73AE2747 
 491      F47311E8 
 491      98018867 
 492 108a 132A8FFE 		.ascii	"\023*\217\376\204\312\243\334\217\305\217r?\326\243"
 492      84CAA3DC 
 492      8FC58F72 
 492      3FD6A3
 493 1099 1C5591CF 		.ascii	"\034U\221\317c\314\317\352k\230\302\256\024S\330d9\361"
 493      63CCCFEA 
 493      6B98C2AE 
 493      1453D864 
 493      39F1
 494 10ab 1D297ACD 		.ascii	"\035)z\315\267\354E\346\327\252Ws\262\027su\211\030"
 494      B7EC45E6 
 494      D7AA5773 
 494      B2177375 
 494      8918
 495 10bd 9A2C88D1 		.ascii	"\232,\210\321\374PQ\300\037\025j\242aq`%\2233\246\250"
 495      FC5051C0 
 495      1F156AA2 
 495      61716025 
 495      9333A6A8 
 496 10d1 B80C1FFC 		.ascii	"\270\014\037\374R\346\275\343\037\360\0253}\222UQ\211"
 496      52E6BDE3 
 496      1FF01533 
 496      7D925551 
 496      89
 497 10e2 9704CF98 		.ascii	"\227\004\317\230\361#\213\313\307\374a\224{L\311\330"
 497      F1238BCB 
 497      C7FC6194 
 497      7B4CC9D8 
 498 10f2 51EEBB1F 		.ascii	"Q\356\273\037({0\003\377pS~mT\314\347\305\352\333j\302"
 498      287B3003 
 498      FF70537E 
 498      6D54CCE7 
 498      C5EADB6A 
 499 1107 35C26D02 		.ascii	"5\302m\002\377H(?T\023\250\252\015\012\371Q)\030\252"
 499      FF48283F 
 499      5413A8AA 
 499      0D0AF951 
 499      2918AA
ARM GAS  /tmp/ccBg6PAR.s 			page 40


 500 111a 916080AC 		.ascii	"\221`\200\254Z\370\036\352\227\006\247h\\\315\007*C"
 500      5AF81EEA 
 500      9706A768 
 500      5CCD072A 
 500      43
 501 112b 3542BE3F 		.ascii	"5B\276?(T\360\265U\222_\232\032\021\242\320\331\353"
 501      2854F0B5 
 501      55925F9A 
 501      1A11A2D0 
 501      D9EB
 502 113d F7ABDDB3 		.ascii	"\367\253\335\263\370`P\024\242\321\222\374\312p\265"
 502      F8605014 
 502      A2D192FC 
 502      CA70B5
 503 114c 901F0807 		.ascii	"\220\037\010\007\247\346\007\205\311\371\320\361\221"
 503      A7E60785 
 503      C9F9D0F1 
 503      91
 504 1159 50389A2F 		.ascii	"P8\232/\211\2655\217\346C\241\222\257\312\217\204E)"
 504      89B5358F 
 504      E643A192 
 504      AFCA8F84 
 504      4529
 505 116b 9A5F563E 		.ascii	"\232_V>nPQ\376\330\261%\371\300\320\344B\344\273\252"
 505      6E5051FE 
 505      D8B125F9 
 505      C0D0E442 
 505      E4BBAA
 506 117e 2A4860A1 		.ascii	"*H`\241B\221F\221\0358\215L\000\200\316\331\360\205"
 506      42914691 
 506      1D388D4C 
 506      0080CED9 
 506      F085
 507 1190 ECFBA56C 		.ascii	"\354\373\245l\300\361?0~\314\3701\345\036R,+\237p?\301"
 507      C0F13F30 
 507      7ECCF831 
 507      E51E522C 
 507      2B9F703F 
 508 11a5 F6978E1A 		.ascii	"\366\227\216\032Y\362\340\257HI\221\234\277|\"\375T"
 508      59F2E0AF 
 508      4849919C 
 508      BF7C22FD 
 508      54
 509 11b6 3A117B8E 		.ascii	":\021{\216\235P|\337\250\222\034\300\013G\252\303A\002"
 509      9D507CDF 
 509      A8921CC0 
 509      0B47AAC3 
 509      4102
 510 11c8 38E1FE71 		.ascii	"8\341\376q\023JF\371\341\257W\251\305\262q p\177\311"
 510      134A46F9 
 510      E1AF57A9 
 510      C5B27120 
 510      707FC9
 511 11db A83F8C29 		.ascii	"\250?\214)\036\325OW7zBYyV8\342']=DL\203\212\000A\221"
 511      1ED54F57 
 511      377A4259 
 511      795638E2 
ARM GAS  /tmp/ccBg6PAR.s 			page 41


 511      275D3D44 
 512 11f5 1829E604 		.ascii	"\030)\346\004\252\302\201G\375\321\210 \004\363`\220"
 512      AAC28147 
 512      FDD18820 
 512      04F36090 
 513 1205 60AD3435 		.ascii	"`\2554505P\005\343\344\225\225\227\370K\036(\177\320"
 513      30355005 
 513      E3E49595 
 513      97F84B1E 
 513      287FD0
 514 1218 5FFC60F1 		.ascii	"_\374`\361\330Q\375\356\031YVN=\373\213\376\316XS8\304"
 514      D851FDEE 
 514      1959564E 
 514      3DFB8BFE 
 514      CE585338 
 515 122d 3F2C9B20 		.ascii	"?,\233 \370\021\202pY\034\256\251\010M\312\014\340\027"
 515      F8118270 
 515      591CAEA9 
 515      084DCA0C 
 515      E017
 516 123f 914A4515 		.ascii	"\221JE\025?)\012j$\210bX\214\016J'ZQJH6PY-\325\021e"
 516      3F290A6A 
 516      24886258 
 516      8C0E4A27 
 516      5A514A48 
 517 125a A9AE9584 		.ascii	"\251\256\225\204:\277\224\201\337C\035!D\247F5\265\351"
 517      3ABF9481 
 517      DF431D21 
 517      44A74635 
 517      B5E9
 518 126c 23558A02 		.ascii	"#U\212\002\037\214\372\377X+\324\002\273}\003\225~]"
 518      1F8CFAFF 
 518      582BD402 
 518      BB7D0395 
 518      7E5D
 519 127e D56067C8 		.ascii	"\325`g\310\201J\2425\036\005\302/y\023p\231\021\177"
 519      814AA235 
 519      1E05C22F 
 519      79137099 
 519      117F
 520 1290 8D5027C1 		.ascii	"\215P'\301WD\024&\217\266\201\252\250\346\310\322q\305"
 520      57441426 
 520      8FB681AA 
 520      A8E6C8D2 
 520      71C5
 521 12a2 E3EAA065 		.ascii	"\343\352\240eu$TEl\362\336\342bh\256\321\237%E\304P"
 521      75245445 
 521      6CF2DEE2 
 521      6268AED1 
 521      9F2545C4 
 522 12b7 D8AFE086 		.ascii	"\330\257\340\206\302Y b\020\2074\3141~e ,\012\304\312"
 522      C2592062 
 522      108734CC 
 522      317E6520 
 522      2C0AC4CA 
 523 12cb 49B51FF4 		.ascii	"I\265\037\364\" \325\375[\357P\374\223\357\250&B\020"
 523      2220D5FD 
ARM GAS  /tmp/ccBg6PAR.s 			page 42


 523      5BEF50FC 
 523      93EFA826 
 523      4210
 524 12dd 854960C4 		.ascii	"\205I`\304~\311\025-\034\002\351\016HC!\015sE\213\012"
 524      7EC9152D 
 524      1C02E90E 
 524      4843210D 
 524      73458B0A 
 525 12f1 2015422A 		.ascii	" \025B*\2024\010\322`H\267C\202vE\320\256\010\332\025"
 525      823408D2 
 525      6048B743 
 525      827645D0 
 525      AE08DA15 
 526 1305 41BB41D0 		.ascii	"A\273A\320nP!'\016\346\304\3339q\010'\336\301\211C9"
 526      6E502127 
 526      0EE6C4DB 
 526      39710827 
 526      DEC18943 
 527 131a 71984B2C 		.ascii	"q\230K,,\200T\310U\211\3605(#\342\007j\263\210\204\247"
 527      2C8054C8 
 527      5589F035 
 527      2823E207 
 527      6AB38884 
 528 132f 08227C87 		.ascii	"\010\"|\207\253\202\202\350\016T\362\"\021;_-x$\325"
 528      AB8282E8 
 528      0E54F222 
 528      113B5F2D 
 528      7824D5
 529 1342 0EE18F58 		.ascii	"\016\341\217X\312\222\0243\202g\324\305,I\024*\242("
 529      CA921433 
 529      8267D4C5 
 529      2C49142A 
 529      A228
 530 1354 4752C8A8 		.ascii	"GR\310\250\216N\202?\252\346\001\276E-e\212\301\251"
 530      8E4E823F 
 530      AAE601BE 
 530      452D658A 
 530      C1A9
 531 1366 F0278F50 		.ascii	"\360'\217P\027\222@,B\346\024)\374\310\177Gr\204\311"
 531      1792402C 
 531      42E61429 
 531      FCC87F47 
 531      7284C9
 532 1379 428D54CD 		.ascii	"B\215T\315G\037%:=\205\024\\\021\177m\236\246IU\241"
 532      471F253A 
 532      3D85145C 
 532      117F6D9E 
 532      A64955A1 
 533 138d 2878AA3E 		.ascii	"(x\252>\224n\221\032o\304?\205\017I\241\232I\331`\232"
 533      946E911A 
 533      6FC43F85 
 533      0F49A19A 
 533      49D9609A 
 534 13a1 D149A86F 		.ascii	"\321I\250o\031X\204\012!\"\324\200c\234\004\255@\343"
 534      1958840A 
 534      2122D480 
 534      639C04AD 
ARM GAS  /tmp/ccBg6PAR.s 			page 43


 534      40E3
 535 13b3 49FB6C42 		.ascii	"I\373lB\033_\205\363\014\225\221p\270*\253Z\321R\370"
 535      1B5F85F3 
 535      0C959170 
 535      B82AAB5A 
 535      D152F8
 536 13c6 0E4FA911 		.ascii	"\016O\251\021\304\314j\324\262;\034)\255J\023LY\177"
 536      C4CC6AD4 
 536      B23B1C29 
 536      AD4A134C 
 536      597F
 537 13d8 556F4104 		.ascii	"UoA\004\202(\324\004@@\231J\225\027\214\226\370U\277"
 537      8228D404 
 537      4040994A 
 537      95178C96 
 537      F855BF
 538 13eb 84FE036C 		.ascii	"\204\376\003l\\\363\037\244\350&\177\362\212u\301j\236"
 538      5CF31FA4 
 538      E8267FF2 
 538      8A75C16A 
 538      9E
 539 13fc 88D52B69 		.ascii	"\210\325+i\245{\234\372`\314\357\031\\W\007\313B5H\034"
 539      A57B9CFA 
 539      60CCEF19 
 539      5C5707CB 
 539      4235481C 
 540 1410 7080AE3B 		.ascii	"p\200\256;\323\301\000\317\371\305\343\312\306\224\001"
 540      D3C100CF 
 540      F9C5E3CA 
 540      C69401
 541 141f 80D2B362 		.ascii	"\200\322\263bpAa\035q\302\375K\306\215\364\227\301\364"
 541      7041611D 
 541      71C2FD4B 
 541      C68DF497 
 541      C1F4
 542 1431 F2D5FE72 		.ascii	"\362\325\376r\260\232\022\241\202+.u\217/)/u\335?\262"
 542      B09A12A1 
 542      822B2E75 
 542      8F2F292F 
 542      75DD3FB2 
 543 1445 D43DAE80 		.ascii	"\324=\256\200d\205#K]\367\024\227fF\261\241;T\021\020"
 543      6485234B 
 543      5DF71497 
 543      6646B1A1 
 543      3B541110 
 544 1459 3343D1CA 		.ascii	"3C\321\312P\205\344\215\012U\025\241\232\240P\2279Y"
 544      5085E48D 
 544      0A5515A1 
 544      9AA05097 
 544      3959
 545 146b 084861B1 		.ascii	"\010Ha\261\177\2022\277\322\032\234\020<\210u$\227\352"
 545      7F8232BF 
 545      D21A9C10 
 545      3C887524 
 545      97EA
 546 147d C832A90D 		.ascii	"\3102\251\015\344*.-\204T\344\2360\262\264\220dE\\I"
 546      E42A2E2D 
ARM GAS  /tmp/ccBg6PAR.s 			page 44


 546      8454E49E 
 546      30B2B490 
 546      64455C49 
 547 1491 A9AB0C2A 		.ascii	"\251\253\014*\313J\213\\\305\305\245\031\345\245c\312"
 547      CB4A8B5C 
 547      C5C5A519 
 547      E5A563CA 
 548 14a1 46B9EF19 		.ascii	"F\271\357\031\013\304\200\204\275\3043\205\252\211^"
 548      0BC48084 
 548      BDC43385 
 548      AA895E
 549 14b0 92AF70AD 		.ascii	"\222\257p\255\344&\332\233!\325\335][\221!\222\274\237"
 549      E426DA9B 
 549      21D5DD5D 
 549      5B912192 
 549      BC9F
 550 14c2 B6365747 		.ascii	"\2666WGo\037Rp\307\300\000c\254\001\313SJ0y\312\342"
 550      6F1F5270 
 550      C7C00063 
 550      AC01CB53 
 550      4A3079CA 
 551 14d7 ED0AF055 		.ascii	"\355\012\360U\236*>*\225\013\325\021/)\334O\026H\017"
 551      9E2A3E2A 
 551      950BD511 
 551      2F29DC4F 
 551      16480F
 552 14ea C2C24C7B 		.ascii	"\302\302L{D\265\220\243v\014\325\204$\266:3\210\300"
 552      44B590A3 
 552      760CD584 
 552      24B63A33 
 552      88C0
 553 14fc 9E47F8A8 		.ascii	"\236G\370\2500\022&8\303\1777\250\234\326&*\205#Y$\003"
 553      30122638 
 553      C37F37A8 
 553      9CD6262A 
 553      85235924 
 554 1511 7E73D53A 		.ascii	"~s\325:@\025\244\033\022\017|\020\307\251\025\0052\260"
 554      4015A41B 
 554      120F7C10 
 554      C7A91505 
 554      32B0
 555 1523 20F21214 		.ascii	" \362\022\024=\021\265.GJV^C\305\026\"_\023\345\003"
 555      3D11B52E 
 555      474A565E 
 555      43C51622 
 555      5F13E503 
 556 1537 92FF91DA 		.ascii	"\222\377\221\332\212\274d5!)\217\0167\302\221\376=;"
 556      8ABC6435 
 556      21298F0E 
 556      37C291FE 
 556      3D3B
 557 1549 65072ACB 		.ascii	"e\007*\313+\203eU\202\020\361\022\336\213\303\2655h"
 557      2B836555 
 557      8210F112 
 557      DE8BC3B5 
 557      3568
 558 155b C643066B 		.ascii	"\306C\006kfLJ\377\007~\243YI"
ARM GAS  /tmp/ccBg6PAR.s 			page 45


 558      664C4AFF 
 558      077EA359 
 558      49
 559              		.text
 560              		.section	.gnu.lto_.symtab.5ab12fc88ea716e9,"",%progbits
 561 0000 6D733536 		.ascii	"ms5607_init\000\000\000\000\000\000\000\000\000\000"
 561      30375F69 
 561      6E697400 
 561      00000000 
 561      00000000 
 562 0015 00001A02 		.ascii	"\000\000\032\002\000\000ms5607_stop\000\000\000\000"
 562      00006D73 
 562      35363037 
 562      5F73746F 
 562      70000000 
 563 002a 00000000 		.ascii	"\000\000\000\000\000\000\000\000?\002\000\000ms5607"
 563      00000000 
 563      3F020000 
 563      6D733536 
 563      3037
 564 003c 5F726573 		.ascii	"_reset\000\000\000\000\000\000\000\000\000\000\000\000"
 564      65740000 
 564      00000000 
 564      00000000 
 564      0000
 565 004e 4B020000 		.ascii	"K\002\000\000ms5607_readPressureTemperature\000\000"
 565      6D733536 
 565      30375F72 
 565      65616450 
 565      72657373 
 566 0072 00000000 		.ascii	"\000\000\000\000\000\000\000\000\000\000Q\002\000\000"
 566      00000000 
 566      00005102 
 566      0000
 567 0080 49324353 		.ascii	"I2CSensor_transact_buf\000\000\002\000\000\000\000\000"
 567      656E736F 
 567      725F7472 
 567      616E7361 
 567      63745F62 
 568 009e 00000000 		.ascii	"\000\000\000\000]\002\000\000I2CSensor_init\000\000"
 568      5D020000 
 568      49324353 
 568      656E736F 
 568      725F696E 
 569 00b6 02000000 		.ascii	"\002\000\000\000\000\000\000\000\000\000d\002\000\000"
 569      00000000 
 569      00006402 
 569      0000
 570 00c4 49324353 		.ascii	"I2CSensor_stop\000\000\002\000\000\000\000\000\000\000"
 570      656E736F 
 570      725F7374 
 570      6F700000 
 570      02000000 
 571 00dc 00006F02 		.ascii	"\000\000o\002\000\000I2CSensor_transact\000\000\002"
 571      00004932 
 571      4353656E 
 571      736F725F 
ARM GAS  /tmp/ccBg6PAR.s 			page 46


 571      7472616E 
 572 00f7 00000000 		.ascii	"\000\000\000\000\000\000\000\000\000t\002\000\000ch"
 572      00000000 
 572      00740200 
 572      006368
 573 0106 54686453 		.ascii	"ThdSleep\000\000\002\000\000\000\000\000\000\000\000"
 573      6C656570 
 573      00000200 
 573      00000000 
 573      000000
 574 0119 007C0200 		.ascii	"\000|\002\000\000"
 574      00
 575              		.text
 576              		.section	.gnu.lto_.opts,"",%progbits
 577 0000 272D6D63 		.ascii	"'-mcpu=cortex-m4' '-mfloat-abi=hard' '-mfpu=fpv4-sp"
 577      70753D63 
 577      6F727465 
 577      782D6D34 
 577      2720272D 
 578 0033 2D643136 		.ascii	"-d16' '-mno-thumb-interwork' '-mthumb' '-O2' '-fomi"
 578      2720272D 
 578      6D6E6F2D 
 578      7468756D 
 578      622D696E 
 579 0066 742D6672 		.ascii	"t-frame-pointer' '-falign-functions=16' '-ffunction"
 579      616D652D 
 579      706F696E 
 579      74657227 
 579      20272D66 
 580 0099 2D736563 		.ascii	"-sections' '-fdata-sections' '-fno-common' '-flto' "
 580      74696F6E 
 580      73272027 
 580      2D666461 
 580      74612D73 
 581 00cc 272D6673 		.ascii	"'-fsingle-precision-constant'\000"
 581      696E676C 
 581      652D7072 
 581      65636973 
 581      696F6E2D 
 582              		.text
 583              		.section	.text.ms5607_init,"ax",%progbits
 584              		.align	2
 585              		.p2align 4,,15
 586              		.global	ms5607_init
 587              		.thumb
 588              		.thumb_func
 589              		.type	ms5607_init, %function
 590              	ms5607_init:
 591              		@ args = 0, pretend = 0, frame = 16
 592              		@ frame_needed = 0, uses_anonymous_args = 0
 593 0000 F0B5     		push	{r4, r5, r6, r7, lr}
 594 0002 214B     		ldr	r3, .L5
 595 0004 214E     		ldr	r6, .L5+4
 596 0006 0446     		mov	r4, r0
 597 0008 8E46     		mov	lr, r1
 598 000a 1746     		mov	r7, r2
 599 000c 93E80700 		ldmia	r3, {r0, r1, r2}
ARM GAS  /tmp/ccBg6PAR.s 			page 47


 600 0010 89B0     		sub	sp, sp, #36
 601 0012 05AB     		add	r3, sp, #20
 602 0014 03C3     		stmia	r3!, {r0, r1}
 603 0016 3078     		ldrb	r0, [r6]	@ zero_extendqisi2
 604 0018 1A70     		strb	r2, [r3]
 605 001a 4FF0C80C 		mov	ip, #200
 606 001e 04F13803 		add	r3, r4, #56
 607 0022 05AD     		add	r5, sp, #20
 608 0024 7146     		mov	r1, lr
 609 0026 00F1010E 		add	lr, r0, #1
 610 002a 0093     		str	r3, [sp]
 611 002c 0295     		str	r5, [sp, #8]
 612 002e 3A46     		mov	r2, r7
 613 0030 0025     		movs	r5, #0
 614 0032 00F13007 		add	r7, r0, #48
 615 0036 CDF804C0 		str	ip, [sp, #4]
 616 003a 2046     		mov	r0, r4
 617 003c 86F800E0 		strb	lr, [r6]
 618 0040 04F13403 		add	r3, r4, #52
 619 0044 8DF81B70 		strb	r7, [sp, #27]
 620 0048 8DF81D50 		strb	r5, [sp, #29]
 621 004c 8DF81E50 		strb	r5, [sp, #30]
 622 0050 FFF7FEFF 		bl	I2CSensor_init
 623 0054 2546     		mov	r5, r4
 624 0056 04F10A07 		add	r7, r4, #10
 625 005a A126     		movs	r6, #161
 626              	.L3:
 627 005c 84F83460 		strb	r6, [r4, #52]
 628 0060 0222     		movs	r2, #2
 629 0062 2046     		mov	r0, r4
 630 0064 0121     		movs	r1, #1
 631 0066 FFF7FEFF 		bl	I2CSensor_transact_buf
 632 006a 94F83820 		ldrb	r2, [r4, #56]	@ zero_extendqisi2
 633 006e 94F83930 		ldrb	r3, [r4, #57]	@ zero_extendqisi2
 634 0072 03EB0223 		add	r3, r3, r2, lsl #8
 635 0076 2B84     		strh	r3, [r5, #32]	@ movhi
 636 0078 0235     		adds	r5, r5, #2
 637 007a 0136     		adds	r6, r6, #1
 638 007c BD42     		cmp	r5, r7
 639 007e F6B2     		uxtb	r6, r6
 640 0080 ECD1     		bne	.L3
 641 0082 0020     		movs	r0, #0
 642 0084 09B0     		add	sp, sp, #36
 643              		@ sp needed
 644 0086 F0BD     		pop	{r4, r5, r6, r7, pc}
 645              	.L6:
 646              		.align	2
 647              	.L5:
 648 0088 00000000 		.word	.LANCHOR0
 649 008c 00000000 		.word	.LANCHOR1
 650              		.size	ms5607_init, .-ms5607_init
 651              		.section	.text.ms5607_stop,"ax",%progbits
 652              		.align	2
 653              		.p2align 4,,15
 654              		.global	ms5607_stop
 655              		.thumb
 656              		.thumb_func
ARM GAS  /tmp/ccBg6PAR.s 			page 48


 657              		.type	ms5607_stop, %function
 658              	ms5607_stop:
 659              		@ args = 0, pretend = 0, frame = 0
 660              		@ frame_needed = 0, uses_anonymous_args = 0
 661 0000 08B5     		push	{r3, lr}
 662 0002 FFF7FEFF 		bl	I2CSensor_stop
 663 0006 0020     		movs	r0, #0
 664 0008 08BD     		pop	{r3, pc}
 665              		.size	ms5607_stop, .-ms5607_stop
 666 000a 00BFAFF3 		.section	.text.ms5607_reset,"ax",%progbits
 666      0080
 667              		.align	2
 668              		.p2align 4,,15
 669              		.global	ms5607_reset
 670              		.thumb
 671              		.thumb_func
 672              		.type	ms5607_reset, %function
 673              	ms5607_reset:
 674              		@ args = 0, pretend = 0, frame = 0
 675              		@ frame_needed = 0, uses_anonymous_args = 0
 676              		@ link register save eliminated.
 677 0000 1E23     		movs	r3, #30
 678 0002 80F83430 		strb	r3, [r0, #52]
 679 0006 0121     		movs	r1, #1
 680 0008 0022     		movs	r2, #0
 681 000a FFF7FEBF 		b	I2CSensor_transact_buf
 682              		.size	ms5607_reset, .-ms5607_reset
 683 000e 00BF     		.section	.text.ms5607_readPressureTemperature,"ax",%progbits
 684              		.align	2
 685              		.p2align 4,,15
 686              		.global	ms5607_readPressureTemperature
 687              		.thumb
 688              		.thumb_func
 689              		.type	ms5607_readPressureTemperature, %function
 690              	ms5607_readPressureTemperature:
 691              		@ args = 0, pretend = 0, frame = 16
 692              		@ frame_needed = 0, uses_anonymous_args = 0
 693 0000 2DE9F04F 		push	{r4, r5, r6, r7, r8, r9, r10, fp, lr}
 694 0004 87B0     		sub	sp, sp, #28
 695 0006 5823     		movs	r3, #88
 696 0008 80F83430 		strb	r3, [r0, #52]
 697 000c 0291     		str	r1, [sp, #8]
 698 000e 9346     		mov	fp, r2
 699 0010 0121     		movs	r1, #1
 700 0012 0022     		movs	r2, #0
 701 0014 8046     		mov	r8, r0
 702 0016 0446     		mov	r4, r0
 703 0018 FFF7FEFF 		bl	I2CSensor_transact_buf
 704 001c 0025     		movs	r5, #0
 705 001e 0646     		mov	r6, r0
 706 0020 6E20     		movs	r0, #110
 707 0022 FFF7FEFF 		bl	chThdSleep
 708 0026 04F8345F 		strb	r5, [r4, #52]!
 709 002a 0327     		movs	r7, #3
 710 002c 2146     		mov	r1, r4
 711 002e 0122     		movs	r2, #1
 712 0030 05AB     		add	r3, sp, #20
ARM GAS  /tmp/ccBg6PAR.s 			page 49


 713 0032 4046     		mov	r0, r8
 714 0034 0097     		str	r7, [sp]
 715 0036 FFF7FEFF 		bl	I2CSensor_transact
 716 003a 4823     		movs	r3, #72
 717 003c 88F83430 		strb	r3, [r8, #52]
 718 0040 2A46     		mov	r2, r5
 719 0042 0121     		movs	r1, #1
 720 0044 0643     		orrs	r6, r6, r0
 721 0046 4046     		mov	r0, r8
 722 0048 FFF7FEFF 		bl	I2CSensor_transact_buf
 723 004c 0643     		orrs	r6, r6, r0
 724 004e 6E20     		movs	r0, #110
 725 0050 FFF7FEFF 		bl	chThdSleep
 726 0054 88F83450 		strb	r5, [r8, #52]
 727 0058 2146     		mov	r1, r4
 728 005a 0097     		str	r7, [sp]
 729 005c 4046     		mov	r0, r8
 730 005e 0122     		movs	r2, #1
 731 0060 04AB     		add	r3, sp, #16
 732 0062 FFF7FEFF 		bl	I2CSensor_transact
 733 0066 3043     		orrs	r0, r6, r0
 734 0068 40F08180 		bne	.L11
 735 006c 9DF81570 		ldrb	r7, [sp, #21]	@ zero_extendqisi2
 736 0070 9DF814A0 		ldrb	r10, [sp, #20]	@ zero_extendqisi2
 737 0074 9DF81600 		ldrb	r0, [sp, #22]	@ zero_extendqisi2
 738 0078 B8F82810 		ldrh	r1, [r8, #40]
 739 007c B8F82A90 		ldrh	r9, [r8, #42]
 740 0080 B8F82420 		ldrh	r2, [r8, #36]
 741 0084 B8F82030 		ldrh	r3, [r8, #32]
 742 0088 9DF810C0 		ldrb	ip, [sp, #16]	@ zero_extendqisi2
 743 008c CDF80CC0 		str	ip, [sp, #12]
 744 0090 3F02     		lsls	r7, r7, #8
 745 0092 07EB0A4A 		add	r10, r7, r10, lsl #16
 746 0096 8244     		add	r10, r10, r0
 747 0098 AAEB012A 		sub	r10, r10, r1, lsl #8
 748 009c 0AFB09F9 		mul	r9, r10, r9
 749 00a0 0AFB02F2 		mul	r2, r10, r2
 750 00a4 4FEAE959 		asr	r9, r9, #23
 751 00a8 9DF81140 		ldrb	r4, [sp, #17]	@ zero_extendqisi2
 752 00ac B8F82660 		ldrh	r6, [r8, #38]
 753 00b0 9DF81200 		ldrb	r0, [sp, #18]	@ zero_extendqisi2
 754 00b4 B8F82250 		ldrh	r5, [r8, #34]
 755 00b8 9FED2F7A 		flds	s14, .L23
 756 00bc D211     		asrs	r2, r2, #7
 757 00be 09FB09F1 		mul	r1, r9, r9
 758 00c2 02EB0342 		add	r2, r2, r3, lsl #16
 759 00c6 039B     		ldr	r3, [sp, #12]
 760 00c8 C1EB011C 		rsb	ip, r1, r1, lsl #4
 761 00cc 2402     		lsls	r4, r4, #8
 762 00ce 11EB8C0C 		adds	ip, r1, ip, lsl #2
 763 00d2 04EB0344 		add	r4, r4, r3, lsl #16
 764 00d6 4FEA4101 		lsl	r1, r1, #1
 765 00da 4FEAE273 		asr	r3, r2, #31
 766 00de 0444     		add	r4, r4, r0
 767 00e0 48BF     		it	mi
 768 00e2 0CF10F0C 		addmi	ip, ip, #15
 769 00e6 0AFB06F6 		mul	r6, r10, r6
ARM GAS  /tmp/ccBg6PAR.s 			page 50


 770 00ea 521A     		subs	r2, r2, r1
 771 00ec 63EBE173 		sbc	r3, r3, r1, asr #31
 772 00f0 04FB03F3 		mul	r3, r4, r3
 773 00f4 E117     		asrs	r1, r4, #31
 774 00f6 B611     		asrs	r6, r6, #6
 775 00f8 06EB4546 		add	r6, r6, r5, lsl #17
 776 00fc 02FB0131 		mla	r1, r2, r1, r3
 777 0100 A4FB0223 		umull	r2, r3, r4, r2
 778 0104 0B44     		add	r3, r3, r1
 779 0106 540D     		lsrs	r4, r2, #21
 780 0108 F717     		asrs	r7, r6, #31
 781 010a 4FEA2C1C 		asr	ip, ip, #4
 782 010e 44EAC324 		orr	r4, r4, r3, lsl #11
 783 0112 5D15     		asrs	r5, r3, #21
 784 0114 B6EB0C06 		subs	r6, r6, ip
 785 0118 67EBEC77 		sbc	r7, r7, ip, asr #31
 786 011c A41B     		subs	r4, r4, r6
 787 011e 65EB0705 		sbc	r5, r5, r7
 788 0122 E20B     		lsrs	r2, r4, #15
 789 0124 0AFB0AFA 		mul	r10, r10, r10
 790 0128 42EA4542 		orr	r2, r2, r5, lsl #17
 791 012c 06EE102A 		fmsr	s12, r2	@ int
 792 0130 09F5FA69 		add	r9, r9, #2000
 793 0134 4FEADA7A 		lsr	r10, r10, #31
 794 0138 CAEB0909 		rsb	r9, r10, r9
 795 013c F8EEC67A 		fsitos	s15, s12
 796 0140 06EE109A 		fmsr	s12, r9	@ int
 797 0144 F8EEC66A 		fsitos	s13, s12
 798 0148 67EE877A 		fmuls	s15, s15, s14
 799 014c 029B     		ldr	r3, [sp, #8]
 800 014e C8ED0C7A 		fsts	s15, [r8, #48]
 801 0152 26EE877A 		fmuls	s14, s13, s14
 802 0156 88ED0B7A 		fsts	s14, [r8, #44]
 803 015a 0BB1     		cbz	r3, .L14
 804 015c C3ED007A 		fsts	s15, [r3]
 805              	.L14:
 806 0160 BBF1000F 		cmp	fp, #0
 807 0164 03D0     		beq	.L11
 808 0166 D8F82C30 		ldr	r3, [r8, #44]	@ float
 809 016a CBF80030 		str	r3, [fp]	@ float
 810              	.L11:
 811 016e 0020     		movs	r0, #0
 812 0170 07B0     		add	sp, sp, #28
 813              		@ sp needed
 814 0172 BDE8F08F 		pop	{r4, r5, r6, r7, r8, r9, r10, fp, pc}
 815              	.L24:
 816 0176 00BF     		.align	2
 817              	.L23:
 818 0178 0AD7233C 		.word	1008981770
 819              		.size	ms5607_readPressureTemperature, .-ms5607_readPressureTemperature
 820 017c AFF30080 		.section	.rodata
 821              		.align	2
 822              		.set	.LANCHOR0,. + 0
 823              	.LC0:
 824 0000 4D533536 		.ascii	"MS5607-X\000"
 824      30372D58 
 824      00
ARM GAS  /tmp/ccBg6PAR.s 			page 51


 825 0009 0000     		.space	2
 826 000b 00       		.section	.bss.sensCount,"aw",%nobits
 827              		.set	.LANCHOR1,. + 0
 828              		.type	sensCount, %object
 829              		.size	sensCount, 1
 830              	sensCount:
 831 0000 00       		.space	1
 832              		.comm	__gnu_lto_v1,1,1
 833              		.ident	"GCC: (GNU Tools for ARM Embedded Processors) 4.8.4 20140526 (release) [ARM/embedded-4_8-br
ARM GAS  /tmp/ccBg6PAR.s 			page 52


DEFINED SYMBOLS
                            *ABS*:0000000000000000 ms5607.c
     /tmp/ccBg6PAR.s:584    .text.ms5607_init:0000000000000000 $t
     /tmp/ccBg6PAR.s:590    .text.ms5607_init:0000000000000000 ms5607_init
     /tmp/ccBg6PAR.s:648    .text.ms5607_init:0000000000000088 $d
     /tmp/ccBg6PAR.s:652    .text.ms5607_stop:0000000000000000 $t
     /tmp/ccBg6PAR.s:658    .text.ms5607_stop:0000000000000000 ms5607_stop
     /tmp/ccBg6PAR.s:667    .text.ms5607_reset:0000000000000000 $t
     /tmp/ccBg6PAR.s:673    .text.ms5607_reset:0000000000000000 ms5607_reset
     /tmp/ccBg6PAR.s:684    .text.ms5607_readPressureTemperature:0000000000000000 $t
     /tmp/ccBg6PAR.s:690    .text.ms5607_readPressureTemperature:0000000000000000 ms5607_readPressureTemperature
     /tmp/ccBg6PAR.s:818    .text.ms5607_readPressureTemperature:0000000000000178 $d
     /tmp/ccBg6PAR.s:821    .rodata:0000000000000000 $d
     /tmp/ccBg6PAR.s:830    .bss.sensCount:0000000000000000 sensCount
     /tmp/ccBg6PAR.s:831    .bss.sensCount:0000000000000000 $d
                            *COM*:0000000000000001 __gnu_lto_v1
     /tmp/ccBg6PAR.s:820    .text.ms5607_readPressureTemperature:000000000000017c $t

UNDEFINED SYMBOLS
I2CSensor_init
I2CSensor_transact_buf
I2CSensor_stop
chThdSleep
I2CSensor_transact
