ARM GAS  /tmp/cc08we4M.s 			page 1


   1              		.syntax unified
   2              		.cpu cortex-m4
   3              		.eabi_attribute 27, 3
   4              		.eabi_attribute 28, 1
   5              		.fpu fpv4-sp-d16
   6              		.eabi_attribute 20, 1
   7              		.eabi_attribute 21, 1
   8              		.eabi_attribute 23, 3
   9              		.eabi_attribute 24, 1
  10              		.eabi_attribute 25, 1
  11              		.eabi_attribute 26, 1
  12              		.eabi_attribute 30, 2
  13              		.eabi_attribute 34, 1
  14              		.eabi_attribute 18, 4
  15              		.thumb
  16              		.file	"ms5607.c"
  17              		.section	.gnu.lto_.jmpfuncs.8bc2f57ba27af434,"",%progbits
  18 0000 789CAD8D 		.ascii	"x\234\255\215\313\015\2000\014Cc\247(+\262B\027\350"
  18      CB0D8030 
  18      0C4363A7 
  18      282BB242 
  18      17E8
  19 0012 28CCC458 		.ascii	"(\314\304X$\265*q\000N\344\222\217\355\027\032\355\251"
  19      24B52A71 
  19      004EE492 
  19      8FED171A 
  19      EDA9
  20 0024 00F566E1 		.ascii	"\000\365f\341\315\372\334\270\243\243\004\015\031\214"
  20      CDFADCB8 
  20      A3A3040D 
  20      198C
  21 0032 25792606 		.ascii	"%y&\006\252q(8=<\025t\312\010\031\323\2177j\375\214"
  21      AA712838 
  21      3D3C1574 
  21      CA0819D3 
  21      8F376AFD 
  22 0047 6D893779 		.ascii	"m\2117y\215E\020\374\310\353\007\346\027\210]'\272\022"
  22      8D4510FC 
  22      C8EB07E6 
  22      17885D27 
  22      BA12
  23 0059 CA       		.ascii	"\312"
  24              		.text
  25              		.section	.gnu.lto_.inline.8bc2f57ba27af434,"",%progbits
  26 0000 789C6362 		.ascii	"x\234cb`b\300\006d\031!4\013\003\267\3624FFF\006\020"
  26      6062C006 
  26      64192134 
  26      0B03B7F2 
  26      34464646 
  27 0016 9F49E5CE 		.ascii	"\237I\345\316+6\006\256\035\273\031\301\232Xx\031\031"
  27      2B3606AE 
  27      1DBB19C1 
  27      9A587819 
  27      19
  28 0027 982FF033 		.ascii	"\230/\36030p\01020\260O\360\203A\240B\0066>\230\036"
  28      30700832 
  28      30B04FF0 
ARM GAS  /tmp/cc08we4M.s 			page 2


  28      8341A042 
  28      06363E98 
  29 003c 20665B20 		.ascii	" f[ \017\326\300\314\003\344\203T03p\012\302\344\031"
  29      0FD6C0CC 
  29      03E48354 
  29      3033700A 
  29      C2E419
  30 004f 5FB033B0 		.ascii	"_\2603\260w\250\203\025\260\362\001\025\201\014`a{\304"
  30      77A88315 
  30      B0F20115 
  30      810C6061 
  30      7BC4
  31 0061 F0878191 		.ascii	"\360\207\201\221\2351#\2021\223\221\031(\305\230\016"
  31      9D312382 
  31      31939119 
  31      28C5980E 
  32 0071 6331C1C5 		.ascii	"c1\301\305\230\340b`\243\030!\346\001\011\216\274O?"
  32      98E06260 
  32      A31821E6 
  32      01098EBC 
  32      4F3F
  33 0083 9819047A 		.ascii	"\230\031\004z\242\231\030X:\204\033\2006\265\261\260"
  33      A2991858 
  33      3A841B80 
  33      36B5B1B0 
  34 0093 308149B0 		.ascii	"0\201I\260\000\023\003\323\011\016\001\010\011\322\315"
  34      001303D3 
  34      090E0108 
  34      09D2CD
  35 00a2 0E245921 		.ascii	"\016$Y!Ng`\342\006\231\006w\011\036)\006\000*M$!"
  35      4E6760E2 
  35      06990677 
  35      091E2906 
  35      002A4D24 
  36              		.text
  37              		.section	.gnu.lto_.pureconst.8bc2f57ba27af434,"",%progbits
  38 0000 789C6362 		.ascii	"x\234cb`b\340d\200\000\026\006)&\011f)\026)\000\002"
  38      6062E064 
  38      80001606 
  38      29260966 
  38      29162900 
  39 0015 D80081   		.ascii	"\330\000\201"
  40              		.text
  41              		.section	.gnu.lto_ms5607_init.8bc2f57ba27af434,"",%progbits
  42 0000 789C8D54 		.ascii	"x\234\215TMHTQ\024>\347\275y\343\374:N\3158:b\211\333"
  42      4D485451 
  42      143EE7BD 
  42      79E3FC3A 
  42      4ECD383A 
  43 0017 D42CFBD9 		.ascii	"\324,\373\331$\004\265i\321*%\203(\246A\206\267\030"
  43      2404B569 
  43      D12A2583 
  43      28A64186 
  43      B718
  44 0029 03A75A24 		.ascii	"\003\247Z$4w|\"\203 \014A F\240\210e\277Vn\244\010\306"
  44      34777C22 
  44      83200C41 
ARM GAS  /tmp/cc08we4M.s 			page 3


  44      2046A088 
  44      65BF566E 
  45 0040 561658BA 		.ascii	"V\026X\272\012\311\305D\320&\210\240V\"\275\316}\367"
  45      0AC9C544 
  45      D02688A0 
  45      5622BDCE 
  45      7DF7
  46 0052 DD71669A 		.ascii	"\335qf\232\320\013s\356\337\371\276\363\235s\356<\005"
  46      D00B73EE 
  46      DFF9BEF3 
  46      9D73EE3C 
  46      05
  47 0063 14A81CDD 		.ascii	"\024\250\034\335\364\273\344\0048A3:\001\225\334\007"
  47      F4BBE404 
  47      3841333A 
  47      0195DC07 
  48 0073 808C4B41 		.ascii	"\200\214KA\207X\250b\261\344r(\352\370\022\000\363h"
  48      8758A862 
  48      B1E47228 
  48      EAF81200 
  48      F368
  49 0085 861F984F 		.ascii	"\206\037\230OC\344\347\200\220VT\207\206\351\013\310"
  49      43E4E780 
  49      90565487 
  49      86E90BC8 
  50 0095 E91CAD30 		.ascii	"\351\034\2550\315\330\355\302\354\330xd\254\300r\354"
  50      CDD8EDC2 
  50      ECD87864 
  50      ACC072EC 
  51 00a5 8F69A28E 		.ascii	"\217i\242\216\0248\204\020G\350\243\015\272\254I\301"
  51      14388410 
  51      47E8A30D 
  51      BAAC49C1 
  52 00b5 722502C9 		.ascii	"r%\002\311\236\315\015\253Sl\3134U\013\326R\025\226"
  52      9ECD0DAB 
  52      536CCB34 
  52      550BD652 
  52      1596
  53 00c7 C4725C3E 		.ascii	"\304r\\>\227_\273\230\313d\231i\246uT\025h\333\206\365"
  53      975FBB98 
  53      CB649969 
  53      A6755415 
  53      68DB86F5 
  54 00db 0998B75A 		.ascii	"\011\230\267Z\264\374\247\337\213\310FY\346\247i\006"
  54      B4FCA7DF 
  54      8BC84659 
  54      E6A76906 
  55 00eb 74742870 		.ascii	"tt(ph'\231\363J\276`\232[3\253\315\373\021b\370\000"
  55      682799F3 
  55      4ABE609A 
  55      5B33ABCD 
  55      FB1162F8 
  56 0100 5B41A379 		.ascii	"[A\243y\232f'\31534\273@G\315\203ID/\255\234>25~2\256"
  56      9A6627CD 
  56      3334BB40 
  56      47CD8349 
  56      442FAD9C 
ARM GAS  /tmp/cc08we4M.s 			page 4


  57 011a 5A3A5302 		.ascii	"Z:S\002d\324 m!D\306\035\346\246\236o#d<\015\3344\362"
  57      64D4206D 
  57      2144C61D 
  57      E6A69E6F 
  57      23643C0D 
  58 0131 6D94AF9A 		.ascii	"m\224\257\232\270i\266\343\320\320`\204\261\\K\014g"
  58      B869B6E3 
  58      D0D06084 
  58      B15C4B0C 
  58      67
  59 0142 692F4FE3 		.ascii	"i/O\343\226\304\036\262\324\232^ThRW`\370\315\304{5"
  59      96C41EB2 
  59      D49A5E54 
  59      68525760 
  59      F8CDC47B 
  60 0157 860F91CB 		.ascii	"\206\017\221\313\343\356\373\240\353\036\2338I\365!"
  60      E3EEFBA0 
  60      EB1E9B38 
  60      49F521
  61 0166 6FBA7FB7 		.ascii	"o\272\177\2678\346\027\367\011\324\356\302d\206\261"
  61      38E617F7 
  61      09D4EEC2 
  61      6486B1
  62 0175 3AAAC110 		.ascii	":\252\301\020l\262,_yE\225y\021d\361V\300\310\252\022"
  62      6CB22C5F 
  62      79459579 
  62      1164F156 
  62      C0C8AA12 
  63 0189 E32418BF 		.ascii	"\343$\030\277t\240\340;#.v\303D\340\0122\227M\246u\226"
  63      74A0E03B 
  63      232E76C3 
  63      44E00A32 
  63      974DA675 
  64 019e 91B5C313 		.ascii	"\221\265\303\023F\303O\027\"\011\356\343\256\221\315"
  64      46C34F17 
  64      2209EEE3 
  64      AE91CD
  65 01ad 209CE5BD 		.ascii	" \234\345\275i<^W$\225w\010nR\331\017\300#\016\275\254"
  65      693C5E57 
  65      24957708 
  65      6E52D90F 
  65      C0230EBD 
  66 01c2 A38F2411 		.ascii	"\243\217$\021\314\237@\017\207\327Z\320+\245}\265(^"
  66      CC9F400F 
  66      87D75AD0 
  66      2BA57DB5 
  66      285E
  67 01d4 16C5F82C 		.ascii	"\026\305\370,\206\032\233\3413a\002\325)\260\202\342"
  67      861A9BE1 
  67      336102D5 
  67      29B082E2 
  68 01e4 BE4F52F8 		.ascii	"\276OR\370-\012\227Mq\307\251c]u\212\222\277\344G\230"
  68      2D0A974D 
  68      71C7A963 
  68      5D758A92 
  68      BFE44798 
  69 01f8 648B9A60 		.ascii	"d\213\232`\000(V/\030\267\343Pj\011\254M`\200\024R\004"
ARM GAS  /tmp/cc08we4M.s 			page 5


  69      0028562F 
  69      18B7E350 
  69      6A09AC4D 
  69      60801452 
  70 020d CEB26719 		.ascii	"\316\262g\031-G\032\277(\306^\3710,\012\035C\202\270"
  70      2D471ABF 
  70      28C65EF9 
  70      302C0A1D 
  70      4382B8
  71 0220 975A4E7F 		.ascii	"\227ZN\177^\225W\334x\275V\254T0A\177\017\336\301\251"
  71      5E9557DC 
  71      78BD56AC 
  71      5430417F 
  71      0FDEC1A9 
  72 0234 F216DA55 		.ascii	"\362\026\332U\357\246\033;\001\367\016%\260\332RL\204"
  72      EFA61B3B 
  72      01F70E25 
  72      B0DA524C 
  72      84
  73 0245 987936A3 		.ascii	"\230y6\243\205\371\301\177\262\011\307\355\224)\033"
  73      85F9C17F 
  73      B209C7ED 
  73      94291B
  74 0254 FBF55893 		.ascii	"\373\365X\223Br\353-\021?\214\257\353(%\206\022<B\331"
  74      4272EB2D 
  74      113F8CAF 
  74      EB282586 
  74      123C42D9 
  75 0268 5309D3A9 		.ascii	"S\011\323\251\025\317\224\003\323\026p\343y@\372\324"
  75      15CF9403 
  75      D31670E3 
  75      7940FAD4 
  76 0278 B743DBB6 		.ascii	"\267C\333\266\372\363;T\277\\\275-\342\226\344\212$"
  76      FAF33B54 
  76      BF5CBD2D 
  76      E296E48A 
  76      24
  77 0289 8430E369 		.ascii	"\2040\343iQB\003\235rP\304%\2747V\243\362\252\261,\362"
  77      5142039D 
  77      7250C425 
  77      BC3756A3 
  77      F2AAB12C 
  78 029e 0BDC4D68 		.ascii	"\013\334Mh\374_\350(\361Ud\337dE\217ViW\027\351\331"
  78      FC5FE828 
  78      F15564DF 
  78      64458F56 
  78      695717E9 
  79 02b3 6E5743F5 		.ascii	"nWC\365\250\252]\373p\261UM\"\200\261\360\245\370.\232"
  79      A8AA5DFB 
  79      70B1554D 
  79      2280B1F0 
  79      A5F82E9A 
  80 02c7 E5BB90C2 		.ascii	"\345\273\220\302z\321\001\364\271W\227a\344[\306+\335"
  80      7AD101F4 
  80      B9579761 
  80      E45BC62B 
  80      DD
ARM GAS  /tmp/cc08we4M.s 			page 6


  81 02d8 848F56D4 		.ascii	"\204\217V\324\276\016\022\245\314\251\304\242.k\034"
  81      BE0E12A5 
  81      CCA9C4A2 
  81      2E6B1C
  82 02e7 AA89EFD1 		.ascii	"\252\211\357\321\333\357J\351\327\350\010,\260,\212"
  82      DBEF4AE9 
  82      D7E8082C 
  82      B02C8A
  83 02f6 8FD11A64 		.ascii	"\217\321\032d\012\257<\342\22634J\306\036j\276\341\347"
  83      0AAF3CE2 
  83      9633344A 
  83      C61E6ABE 
  83      E1E7
  84 0308 950A9E1E 		.ascii	"\225\012\236\036\324o\364\017\246\016&SG\217u\036\357"
  84      D46FF40F 
  84      A60E2653 
  84      478F751E 
  84      EF
  85 0319 888337D5 		.ascii	"\210\2037\325?\220:u\365\372\300\265\216\316\222\365"
  85      3F903A75 
  85      F5FAC0B5 
  85      8ECE92F5 
  86 0329 61C7402C 		.ascii	"a\307@,\331\217\272\373\3549\356\330\336\007\177\001"
  86      D98FBAFB 
  86      EC39EED8 
  86      DE077F01 
  87 0339 9D396CA0 		.ascii	"\2359l\240"
  88              		.text
  89              		.section	.gnu.lto_ms5607_stop.8bc2f57ba27af434,"",%progbits
  90 0000 789C6362 		.ascii	"x\234cb`b@\007\222@|\005\210\205\201\230\221\231\201"
  90      60624007 
  90      92407C05 
  90      88858198 
  90      919981
  91 0013 9169C239 		.ascii	"\221i\3029\006\206F\016&FF\020\203\201\221\241\236\211"
  91      0686460E 
  91      26464610 
  91      838191A1 
  91      9E89
  92 0025 B13E9211 		.ascii	"\261>\222\021\254v=\323\201\007\377\377\257\233\324"
  92      AC763DD3 
  92      8107FFFF 
  92      AF9BD4
  93 0034 FA88858D 		.ascii	"\372\210\205\215\2211\227\021h\\&#\003\013\220\005\222"
  93      91319711 
  93      685C2623 
  93      030B9005 
  93      92
  94 0045 67656869 		.ascii	"gehih\230\240\300\300\220\014V\035\002$AF\20422\201"
  94      6898A0C0 
  94      C0900C56 
  94      1D022441 
  94      46843232 
  95 005a 68E6B30C 		.ascii	"h\346\263\014M\277\232W\337bJd\\\310\310\312\220\316"
  95      4DBF9A57 
  95      DF624A64 
  95      5CC8C8CA 
ARM GAS  /tmp/cc08we4M.s 			page 7


  95      90CE
  96 006c C854CD50 		.ascii	"\310T\315P\005\324\255\315\260\252\001\010b3\031\031"
  96      05D4ADCD 
  96      B0AA0108 
  96      62331919 
  97 007c 6733CC62 		.ascii	"g3\314b\314ddJgd\214\000\322\314`+\223\030\221\334z"
  97      CC64644A 
  97      67648C00 
  97      D2CC602B 
  97      931891DC 
  98 0091 9EA1F580 		.ascii	"\236\241\365\2006D?\003C5\303\257\206\216\006\201LF"
  98      36443F03 
  98      4335C3AF 
  98      868E0681 
  98      4C46
  99 00a3 96644688 		.ascii	"\226dF\210\242t\220^\226L\220\354E\206\306\007\247\271"
  99      A274905E 
  99      964C90EC 
  99      4586C607 
  99      A7B9
 100 00b5 204A4186 		.ascii	" JA\206\261\301\214\010\001\252\005\272\006\024\016"
 100      B1C18C08 
 100      01AA05BA 
 100      06140E
 101 00c4 822E4599 		.ascii	"\202.E\231e\251E\305\372\271\305\246f\006\346z\311\014"
 101      65A945C5 
 101      FAB9C5A6 
 101      6606E67A 
 101      C90C
 102 00d6 00871B36 		.ascii	"\000\207\0336^"
 102      5E
 103              		.text
 104              		.section	.gnu.lto_ms5607_reset.8bc2f57ba27af434,"",%progbits
 105 0000 789C6362 		.ascii	"x\234cb`b@\007\222@l\300\310\300 \014\244\031\231\031"
 105      60624007 
 105      92406CC0 
 105      C8C0200C 
 105      A4199919 
 106 0014 1899269C 		.ascii	"\030\231&\234c`h\344`bd\0041\030\030\031\352\231\030"
 106      636068E4 
 106      60626404 
 106      31181819 
 106      EA9918
 107 0027 EB2319C1 		.ascii	"\353#\031\301j\3273\035x\360\377\377\272\035\255\277"
 107      6AD7331D 
 107      78F0FFFF 
 107      BA1DADBF 
 108 0037 58D99918 		.ascii	"X\331\231\030s\031\031X\0302\031\031\330\200\004H\236"
 108      73191958 
 108      18321919 
 108      D8800448 
 108      9E
 109 0048 95A1A5A1 		.ascii	"\225\241\245\241a\202\002\003C2Xu\010\220\004\031\021"
 109      61820203 
 109      43325875 
 109      08900419 
 109      11
ARM GAS  /tmp/cc08we4M.s 			page 8


 110 0059 CAC804A2 		.ascii	"\312\310\004\242\231\31724\355\3301],\221q!#+\203.\303"
 110      99CF3234 
 110      EDD8315D 
 110      2C917121 
 110      232B832E 
 111 006e 9A062008 		.ascii	"\232\006 \010\314dd\322fX\005b\362f22\317f\230\305\230"
 111      CC6464D2 
 111      66580562 
 111      F2663232 
 111      CF6698C5 
 112 0083 C9C892CE 		.ascii	"\311\310\222\316\310\024\001\244Y\301v&A\254f\000\211"
 112      C81401A4 
 112      59C17626 
 112      41AC6600 
 112      89
 113 0094 B0C15D0D 		.ascii	"\260\301]\015\3421\311\001\031@S\1775\377\276\304\002"
 113      E231C901 
 113      1940537F 
 113      35FFBEC4 
 113      02
 114 00a5 31369D91 		.ascii	"16\235\221\245\232\241\012\350&\250\241\263\201\312"
 114      A59AA10A 
 114      E826A8A1 
 114      B381CA
 115 00b4 D8B19BCA 		.ascii	"\330\261\233\312\210\010\202\363\014m\007Xa\006\260"
 115      880882F3 
 115      0C6D0758 
 115      6106B0
 116 00c3 5533FC6A 		.ascii	"U3\374j\350h\020\310d\344H\206*\002\232\012\266\217"
 116      E86810C8 
 116      64E44886 
 116      2A029A0A 
 116      B68F
 117 00d5 11622D03 		.ascii	"\021b-\003\320\277\234\014\014\027\031\030\341z \346"
 117      D0BF9C0C 
 117      0C171918 
 117      E17A20E6 
 118 00e5 8400D503 		.ascii	"\204\000\325\003}\012\012cA\227\242\314\262\324\242"
 118      7D0A0A63 
 118      4197A2CC 
 118      B2D4A2
 119 00f4 62FDDC62 		.ascii	"b\375\334bS3\003s\275d\006\000E!E\263"
 119      53330373 
 119      BD640600 
 119      452145B3 
 120              		.text
 121              		.section	.gnu.lto_ms5607_readPressureTemperature.8bc2f57ba27af434,"",%progbits
 122 0000 789CAD58 		.ascii	"x\234\255XkL\024W\024\276wfvY\026((V\021P\020_\210 "
 122      6B4C1457 
 122      14BE7766 
 122      76591628 
 122      28561150 
 123 0018 A282EF8A 		.ascii	"\242\202\357\212\212\210\342[T4\232tE\252\253\325\030"
 123      8A88E25B 
 123      54349A74 
 123      45AAABD5 
 123      18
ARM GAS  /tmp/cc08we4M.s 			page 9


 124 0029 166D527F 		.ascii	"\026mR\1770\270\304\242\221-6MC\255\211\022Z\251\265"
 124      30B8C4A2 
 124      912D364D 
 124      43AD8912 
 124      5AA9B5
 125 003c 961AAA62 		.ascii	"\226\032\252b\325\006LK\365G[[\371\241\015i\211\246"
 125      D5064C4B 
 125      F5475B5B 
 125      F9A10D69 
 125      89A6
 126 004e 62C5AAD1 		.ascii	"b\305\252\321V\011\255n\317\271s\357]v\304\270m\334"
 126      5609AD6E 
 126      CFB973EF 
 126      5D76C4B8 
 126      6DDC
 127 0060 C43373BF 		.ascii	"\3043s\277\363\372\316\271\347\316\214(D!\346_\031\374"
 127      F3FACEB9 
 127      E7CE8C28 
 127      4421E65F 
 127      19FC
 128 0072 DBDE9B90 		.ascii	"\333\336\233\220\225p\245!\204*\225\337\023RjS\024\265"
 128      9570A521 
 128      842A95DF 
 128      13526A53 
 128      14B5
 129 0084 2595E876 		.ascii	"%\225\350v\373\331\201D\017U\025\255|8\254\254(C5\305"
 129      FBD98144 
 129      0F5515AD 
 129      7C38ACAC 
 129      284335C5 
 130 0098 D26D65A1 		.ascii	"\322me\241V\303\305\252\004}q\236\000nk\015\001<\210"
 130      56C3C5AA 
 130      047D719E 
 130      006E6B0D 
 130      013C88
 131 00ab DA0CDCA6 		.ascii	"\332\014\334\246\004\357oF\334\3760\010\360`j7p;\245"
 131      04EF6F46 
 131      DCFE3008 
 131      F0606A37 
 131      703BA5
 132 00be 78432829 		.ascii	"xC()QT\315b\015\262\005\333i\311J\212\254B\023H\265"
 132      5154CD62 
 132      0DB205DB 
 132      69C94A8A 
 132      AC421348 
 133 00d3 DE58D9F6 		.ascii	"\336X\331\366\315/\036\252\037\332Y\251?\361z\251\223"
 133      CD2F1EAA 
 133      1FDA59A9 
 133      3FF17AA9 
 133      93
 134 00e4 02FF3E94 		.ascii	"\002\377>\224\024P\222\017\013\032\305.\212\352_\220"
 134      1450920F 
 134      0B1AC52E 
 134      8AEA5F90 
 135 00f4 E1D9F8D0 		.ascii	"\341\331\370\320rA/k\364z\2471\257A\201x\351\225\215"
 135      72412F6B 
 135      F47AA731 
ARM GAS  /tmp/cc08we4M.s 			page 10


 135      AF418178 
 135      E9958D
 136 0107 8FFFB840 		.ascii	"\217\377\270@\365w\364\322{^o\270\223\252\012I\3629"
 136      F577F4D2 
 136      7B5E6FB8 
 136      93AA0A49 
 136      F239
 137 0119 C61B8E5A 		.ascii	"\306\033\216Z\217\216'\233C+K\313u\257\267\304I5\205"
 137      8F8E279B 
 137      432B4BCB 
 137      75AFB7C4 
 137      493585
 138 012c A405E8D6 		.ascii	"\244\005\350\326\340\357\226\021\240\333\231]\357F\353"
 138      E0EF9611 
 138      A0DB995D 
 138      EF46EB
 139 013b 87F6EA3B 		.ascii	"\207\366\352;\333\274\3368'\265(d\262\3173\323\360\264"
 139      DBBCDE38 
 139      27B52864 
 139      B2CF33D3 
 139      F0B4
 140 014d F5E879AE 		.ascii	"\365\350y\256\271\242\177\267\206B\316\314\000s~\345"
 140      B9A27FB7 
 140      8642CECC 
 140      00737EE5 
 141 015d 4F756680 		.ascii	"Ouf\200n?\371\273e\007\350\326\342\357\226\033\240\333"
 141      6E3FF9BB 
 141      6507E8D6 
 141      E2EF961B 
 141      A0DB
 142 016f 83E6B74D 		.ascii	"\203\346\267M\345-\016\320s\337[\036\223\347\262\347"
 142      E52D0ED0 
 142      73DF5B1E 
 142      93E7B2E7 
 143 017f 79D6298D 		.ascii	"y\326)\215\320\377\003u\227\036Q\007%\016z\224&\300"
 143      D0FF0375 
 143      971E5107 
 143      250E7A94 
 143      26C0
 144 0191 A839E831 		.ascii	"\2509\3501\270Z\351fJl\304I\255v@>\002$\014\026A\341"
 144      B85AE966 
 144      4A6CC449 
 144      AD76403E 
 144      02240C16 
 145 01a7 206C111C 		.ascii	" l\021\034\211\304E\037\276\210\302E\177\276\210\206"
 145      89C4451F 
 145      BE88C245 
 145      7FBE8886 
 146 01b7 45700C08 		.ascii	"Ep\014\010{,\212\001\270\034\210wq(\342Q\014B,\001\357"
 146      7B2C8A01 
 146      B81C8877 
 146      7128E251 
 146      0C422C01 
 147 01cc 0683532D 		.ascii	"\006\203S-8\015Ad(\"\303P\014\307e\"\336\215@\221\204"
 147      380D4164 
 147      2822C350 
 147      0CC76522 
ARM GAS  /tmp/cc08we4M.s 			page 11


 147      DE8D4091 
 148 01e1 622462C9 		.ascii	"b$b\311x\227\002NG\300i\024,BR\021\031\215\"\015\340"
 148      7897024E 
 148      47C06914 
 148      2C425211 
 148      198D220D 
 149 01f6 3A80C720 		.ascii	":\200\307 <\026)\215C\221\216\"\003t\307A7\036u\023"
 149      3C16298D 
 149      43918E22 
 149      0374C741 
 149      371E7513 
 150 020a D07A228A 		.ascii	"\320z\"\212I\270\234\214\006SPLE\361\012\212i\274%\231"
 150      49B89C8C 
 150      0653504C 
 150      45F10A8A 
 150      69BC2599 
 151 021e 703D01D7 		.ascii	"p=\001\327\351\010\316\000\021:\023E\026\357\324,\204"
 151      E908CE00 
 151      113A1345 
 151      16EFD42C 
 151      84
 152 022f B34184CD 		.ascii	"\263A\204\315\346\0169p=\005\3279\374:\027-r\321b\036"
 152      E60E3970 
 152      3D05D739 
 152      FC3A172D 
 152      72D1621E 
 153 0243 B798CFA9 		.ascii	"\267\230\317\251,@p!\212E(\026\243X\002\272z\320-\205"
 153      2C407021 
 153      8A452816 
 153      A35802BA 
 153      7AD02D85 
 154 0257 C54B7928 		.ascii	"\305Ky(\226\243X\201\"\037\305*\330\032\272\032\204"
 154      96A35881 
 154      221FC52A 
 154      D81ABA1A 
 154      84
 155 0268 B20697B0 		.ascii	"\262\006\227\260\221\026R\006#\020\357\240\325\340\347"
 155      91165206 
 155      2310EFA0 
 155      D5E0E7
 156 0277 A0354CE2 		.ascii	"\2405L\342>\020\234\000\370\345\201\304g\3252\252\340"
 156      3E109C00 
 156      F8E581C4 
 156      67D532AA 
 156      E0
 157 0288 55FD8EEC 		.ascii	"U\375\216\354lh8\330\327AOS\013I!\237\352\360[\354\244"
 157      6C6838D8 
 157      D7414F53 
 157      0B49219F 
 157      EAF05BEC 
 158 029d E123C927 		.ascii	"\341#\311'x\033\346\244\021\037\220\37502\275\326S+"
 158      781BE6A4 
 158      111F90FD 
 158      3032BDD6 
 158      532B
 159 02af 8E4E6F36 		.ascii	"\216No60k\25118\210\330\345\030\341*<\037n j\227\373"
 159      306BA931 
ARM GAS  /tmp/cc08we4M.s 			page 12


 159      3888D8E5 
 159      18E12A3C 
 159      1F6E206A 
 160 02c5 EFCB1623 		.ascii	"\357\313\026#\354zj\333A\336\204\001\342A\317\201Yd"
 160      EC7A6ADB 
 160      41DE8401 
 160      E241CF81 
 160      5964
 161 02d7 CF51A96F 		.ascii	"\317Q\251o&\177 \273\032cD\000\373\016\322\245\227\353"
 161      267F20BB 
 161      1A634400 
 161      FB0ED2A5 
 161      97EB
 162 02e9 114EDAA7 		.ascii	"\021N\332\247\200\033AT\226\317\030\354p\002\035x\031"
 162      801B4154 
 162      96CF18EC 
 162      70021D78 
 162      19
 163 02fa BDCADABC 		.ascii	"\275\312\332\274v\303\215\020\351\325\267\200*\222b"
 163      76C38D10 
 163      E9D5B780 
 163      2A9262
 164 0309 E87B148C 		.ascii	"\350{\024\214\3731\232\015U\327\332\224\027X=\021\325"
 164      FB319A0D 
 164      55D7DA94 
 164      17583D11 
 164      D5
 165 031a D7EEDD20 		.ascii	"\327\356\335 \310\207\261\352\203x\320\313\3649Qy\365"
 165      C887B1EA 
 165      8378D0CB 
 165      F4395179 
 165      F5
 166 032b 557A55B0 		.ascii	"UzU\260\210\020.\013\211*\240\252(\037\"\363\016\260"
 166      88102E0B 
 166      892AA0AA 
 166      281F22F3 
 166      0EB0
 167 033d 04FDC57E 		.ascii	"\004\375\305~\263\332\231F\205:\243\221\220\373\264"
 167      B3DA9946 
 167      853AA391 
 167      90FBB4
 168 034c BB48048B 		.ascii	"\273H\004\213\200x\353\2217\226\337\371b\313\31716\256"
 168      8078EB91 
 168      3796DFF9 
 168      62CBCF31 
 168      36AE
 169 035e 6D6F4DA4 		.ascii	"moM\244H\027\031\350\326\371\263\354\003\236\300\325"
 169      481719E8 
 169      D6F9B3EC 
 169      039EC0D5 
 170 036e D8D18A1A 		.ascii	"\330\321\212\032\372\037\266\364\312\365\027\276\245"
 170      FA1FB6F4 
 170      CAF517BE 
 170      A5
 171 037b B81DFF1C 		.ascii	"\270\035\377\034\377P\021\354\242\002\334\220\352@6"
 171      FF5011EC 
 171      A202DC90 
ARM GAS  /tmp/cc08we4M.s 			page 13


 171      EA4036
 172 038a A43FC483 		.ascii	"\244?\304\203\202\011\271@\276no\252oV\245\002}\374"
 172      8209B940 
 172      BE6E6FAA 
 172      6F56A502 
 172      7DFC
 173 039c DE7ECB20 		.ascii	"\336~\313 YK*\236\332\326\316\033WTy\334kY\236#L\036"
 173      594B2A9E 
 173      DAD6CE1B 
 173      575479DC 
 173      6B599E23 
 174 03b2 65F21893 		.ascii	"e\362\030\223uL\036g\262\236=\006D\037!|t\012I\006N"
 174      754C1E67 
 174      B29E3D06 
 174      441F217C 
 174      740A4906 
 175 03c7 C6D8F817 		.ascii	"\306\330\370\027\316\032y\307\375\004\332\336\302\250"
 175      CE1A79C7 
 175      FD04DADE 
 175      C2A8
 176 03d5 C4ACE7BC 		.ascii	"\304\254\347\274\217\251\002\212\005\224yE\030\346\255"
 176      8FA9028A 
 176      05947945 
 176      18E6AD
 177 03e4 9F470BD5 		.ascii	"\237G\013\325\200\247\"SS\344\2232\314@07E\216\003\224"
 177      80A72253 
 177      53E49332 
 177      CC403037 
 177      458E0394 
 178 03f8 79D998B9 		.ascii	"y\331\230\271\273\334\375\245\"t\361,q\034\317X \340"
 178      BBDCFDA5 
 178      2274F12C 
 178      711CCF58 
 178      20E0
 179 040a 414F6554 		.ascii	"AOeTL\031\267\010\323\004\2606\302\312\204\203Y\334"
 179      4C19B708 
 179      D304B036 
 179      C2CA8483 
 179      59DC
 180 041c 04236855 		.ascii	"\004#hU{\247T\014\021a\253\237\325\242\317$\263\241"
 180      7BA7540C 
 180      1161AB9F 
 180      D5A2CF24 
 180      B3A1
 181 042e 606E2A64 		.ascii	"`n*d\030\240\376-\032(T\303\237\212ln\321C\031&\021"
 181      18A0FE2D 
 181      1A2854C3 
 181      9F8A6C6E 
 181      D1431926 
 182 0443 CC4D9147 		.ascii	"\314M\221G\000\352\337\242[\222H\022K<\202g\334(\340"
 182      00EADFA2 
 182      5B924812 
 182      4B3C8267 
 182      DC28E0
 183 0456 914F657C 		.ascii	"\221Oe|f\213\222\301\332\324\242\024\0267\331\010\332"
 183      668B92C1 
 183      DAD4A214 
ARM GAS  /tmp/cc08we4M.s 			page 14


 183      1637D908 
 183      DA
 184 0467 D97E4F2A 		.ascii	"\331~O*F\261\2601\374|\271\2344\266\347\363\345;\254"
 184      46B1B031 
 184      FC7CB99C 
 184      34B6E7F3 
 184      E53BAC
 185 047a 76CD94F7 		.ascii	"v\315\224\367\244\034\263T\210\307\022\357q\037\226"
 185      A41CB354 
 185      88C712EF 
 185      711F96
 186 0489 F58C069C 		.ascii	"\365\214\006\234\371\341\027\015\373\321\022^\264d\234"
 186      F9E1170D 
 186      FBD1125E 
 186      B4649C
 187 0498 C6CC061B 		.ascii	"\306\314\006\033\364\032n\335\324\204b\214\037\275}"
 187      F41A6EDD 
 187      D484628C 
 187      1FBD7D
 188 04a7 34107E16 		.ascii	"4\020~\026\363NH~c!\240\301O\326?\216\241i\014\255p"
 188      F34E487E 
 188      6321A0C1 
 188      4FD63F8E 
 188      A1690CAD 
 189 04bc DF90ACD3 		.ascii	"\337\220\254\323A\305\316/\244\325\210\231o\006\030"
 189      41C5CE2F 
 189      A4D58899 
 189      6F0618
 190 04cb 30EDA570 		.ascii	"0\355\245p>\032\015\035\027\244\357x?\322\023\003\341"
 190      3E1A0D1D 
 190      17A4EF78 
 190      3FD21303 
 190      E1
 191 04dc 6C9ECBFB 		.ascii	"l\236\313\373\222\363\004\210\307{\352k\364D\300\215"
 191      92F30488 
 191      C77BEA6B 
 191      F444C08D 
 192 04ec 9E727230 		.ascii	"\236rr0)\221B9\351\177\364\314<K\327d1\223!\240\251"
 192      29914239 
 192      E97FF4CC 
 192      3C4BD764 
 192      319321A0 
 193 0501 6753182A 		.ascii	"gS\030*zv_\232N\005\225\3213*:\346\253\343\025\306z"
 193      7A765F9A 
 193      4E0595D1 
 193      332A3AE6 
 193      ABE315C6 
 194 0516 2A8FBF56 		.ascii	"*\217\277V\300\323@\203\217\316\262\033M\2776\313H\031"
 194      C0D34083 
 194      8FCEB21B 
 194      4DBF36CB 
 194      4819
 195 0528 18463B78 		.ascii	"\030F;x\240\373;u\031\325\310\255~*\353DGE\214|x\236"
 195      A0FB3B75 
 195      19D5C8AD 
 195      7E2AEB44 
 195      47458C7C 
ARM GAS  /tmp/cc08we4M.s 			page 15


 196 053e E00FC616 		.ascii	"\340\017\306\026\361`\314d\273\227\316\233v\267\002"
 196      F160CC64 
 196      BB97CE9B 
 196      76B702
 197 054d 0E6D3B8B 		.ascii	"\016m;\213:\235\015Z\032\247p\230\012|\006\250\214b"
 197      3A9D0D5A 
 197      1AA77098 
 197      0A7C06A8 
 197      8C62
 198 055f 5401CD04 		.ascii	"T\001\315\004\224\275\231\260\2056\321\225\215B\235"
 198      94BD99B0 
 198      8536D195 
 198      8D429D
 199 056e 05163CFE 		.ascii	"\005\026<\376\243\212D\201\316\202\334\254~E8\024\011"
 199      A38A4481 
 199      CE82DCAC 
 199      7E453814 
 199      09
 200 057f 55366899 		.ascii	"U6h\231\303n\231b6+>\233\2757~kz\334\034*\024\254x\333"
 200      C36E9962 
 200      362B3E9B 
 200      BD377E6B 
 200      7ADC1C2A 
 201 0597 CD3DDD4E 		.ascii	"\315=\335N\213\257\007\026\362W\210\312Z[\343\211\225"
 201      8BAF0716 
 201      F25788CA 
 201      5A5BE389 
 201      95
 202 05a8 3D38C57B 		.ascii	"=8\305{\320.z\220\303\007T\373S%\234h\255\007\336h7"
 202      D02E7A90 
 202      C30754FB 
 202      53259C68 
 202      AD07DE68 
 203 05bd 598639CC 		.ascii	"Y\2069\314 \207+\352<\003\204b.\350XvY\362kB\225\013"
 203      20872BEA 
 203      3C038462 
 203      2EE85876 
 203      59F26B42 
 204 05d3 5A598101 		.ascii	"ZY\201\001\315cE\344\012jV\343\335\346\336\355>\343"
 204      CD6345E4 
 204      0A6A56E3 
 204      DDE6DEED 
 204      3EE3
 205 05e5 89123B39 		.ascii	"\211\022;9\237\035\026\205G\273\356I\026\212\005\360"
 205      9F1D1685 
 205      47BBEE49 
 205      168A05F0 
 206 05f5 5032CDD5 		.ascii	"P2\315\325B\206R>Ww\344\350,\002\025\262\262\300^\360"
 206      4286523E 
 206      5777E4E8 
 206      2C0215B2 
 206      B2C05EF0 
 207 0609 C9EA3E76 		.ascii	"\311\352>v\213\301\202\253y\343;\220\266\241\\\002z"
 207      8BC182AB 
 207      79E33B90 
 207      B6A15C02 
 207      7A
ARM GAS  /tmp/cc08we4M.s 			page 16


 208 061a 867DECBE 		.ascii	"\206}\354\276\353I\021\350R fJ\236\007h4y\037>\013*"
 208      EB4911E8 
 208      5220664A 
 208      9E076834 
 208      791F3E0B 
 209 062f 2F61D709 		.ascii	"/a\327\011\301\255\327\033\317w\324P\343\353\034\202"
 209      C1ADD71B 
 209      CF77D450 
 209      E3EB1C82 
 210 063f 5CBC1764 		.ascii	"\\\274\027d\330\363\303\025\014\232\236\317\226\370"
 210      D8F3C315 
 210      0C9A9ECF 
 210      96F8
 211 064d AAC8E3C9 		.ascii	"\252\310\343\311\037xRE\246\345\300\312\224|\005\240"
 211      1F785245 
 211      A6E5C0CA 
 211      947C05A0 
 212 065d CF4B0E7D 		.ascii	"\317K\016}\355\222-\311\007\037\356\220\310\215\341"
 212      ED922DC9 
 212      071FEE90 
 212      C88DE1
 213 066c 77A81BD3 		.ascii	"w\250\033\323J{\200L5\3164\237\035\303\333Mg\276\225"
 213      4A7B804C 
 213      35CE349F 
 213      1DC3DB4D 
 213      67BE95
 214 067f 9D5D8576 		.ascii	"\235]\205v\003|\343w\225P\030Z\265\365\304\253\260\363"
 214      037CE377 
 214      9550185A 
 214      B5F5C4AB 
 214      B0F3
 215 0691 5AEBA9AD 		.ascii	"Z\353\251\2550\003\226\263\247\327]%\012\0336B\324\333"
 215      300396B3 
 215      A7D75D25 
 215      0A1B3642 
 215      D4DB
 216 06a3 F5AFC3F1 		.ascii	"\365\257\303\361\320\316\236\332\000\027\013\233\213"
 216      D0CE9EDA 
 216      00170B9B 
 216      8B
 217 06b0 20D29488 		.ascii	" \322\224\210\337<\027;\037\211g$0)\005R\341@\312/\013"
 217      DF3C173B 
 217      1F896724 
 217      30290552 
 217      E140CA2F 
 218 06c5 63614C93 		.ascii	"caL\223\015\247\211\021\272\354#\264\332D\010\015\203"
 218      0DA78911 
 218      BAEC23B4 
 218      DA44080D 
 218      83
 219 06d6 C9EF4918 		.ascii	"\311\357I\030\376\347\316\256Ni\270f$Iz\316\336\360"
 219      FEE7CEAE 
 219      4E69B866 
 219      24497ACE 
 219      DEF0
 220 06e8 3685F4C0 		.ascii	"6\205\364\300huwFkD\";\377/\327\371\016\376!i\274\213"
 220      68757746 
ARM GAS  /tmp/cc08we4M.s 			page 17


 220      6B44223B 
 220      FF2FD7F9 
 220      0EFE2169 
 221 06fe C7917ABD 		.ascii	"\307\221z\275\034\377&\304\"vS\326\230\224?\222\322"
 221      1CFF26C4 
 221      227653D6 
 221      98943F92 
 221      D2
 222 070f B63BE253 		.ascii	"\266;\342S\0303\310?\375\344\301\320Cl\234\336^YE\316"
 222      1833C83F 
 222      FDE4C1D0 
 222      436C9CDE 
 222      5E5945CE 
 223 0723 ED8545AE 		.ascii	"\355\205E\256\324\315\256\364\214\321\343G\025\220\320"
 223      D4CDAEF4 
 223      8CD1E347 
 223      1590D0
 224 0732 AD45852E 		.ascii	"\255E\205.\327\266\242\302,G\261\303V\\\270y+\336X]"
 224      D7B6A2C2 
 224      2C47B1C3 
 224      565CB879 
 224      2BDE585D 
 225 0746 C58EE26D 		.ascii	"\305\216\342m.\255\270\310\361\206\266\025\205\253p"
 225      2EADB8C8 
 225      F186B615 
 225      85AB70
 226 0755 8B4BC91B 		.ascii	"\213K\311\033\243\254\313\323\320\310\302\334\324\342"
 226      A3ACCBD3 
 226      D0C8C2DC 
 226      D4E2
 227 0763 319BB4E2 		.ascii	"1\233\264\342\264M\351\377\002\241\315c/"
 227      B44DE9FF 
 227      02A1CD63 
 227      2F
 228              		.text
 229              		.section	.gnu.lto_.symbol_nodes.8bc2f57ba27af434,"",%progbits
 230 0000 789C4DCB 		.ascii	"x\234M\3131\022\2020\020\205\341\267o\023\210\247\340"
 230      31128230 
 230      1085E1B7 
 230      6F1388A7 
 230      E0
 231 0011 A88BA204 		.ascii	"\250\213\242\004;O@\223\243P\330y\002\013\035[\316\240"
 231      3B4F4093 
 231      A350D879 
 231      020B1D5B 
 231      CEA0
 232 0023 0E418DDB 		.ascii	"\016A\215\333\374\363\275\231%\210+>\307-\0158]\000"
 232      FCF3BD99 
 232      25882B3E 
 232      C72D0D38 
 232      5D00
 233 0035 B37110FF 		.ascii	"\263q\020\377\0228S\356hRVv4\376qO\323B\351ine\333\212"
 233      123853EE 
 233      68525676 
 233      34FE714F 
 233      D342E969 
 234 004d 1C68BE28 		.ascii	"\034h\276(\322\252\242#\255.\032h\341'E\205\324\317"
ARM GAS  /tmp/cc08we4M.s 			page 18


 234      D2AAA223 
 234      AD2E1A68 
 234      E1274585 
 234      D4CF
 235 005f 8DC2A38B 		.ascii	"\215\302\243\213\347Q\2255\322\355)\252\036\323R\367"
 235      E7519535 
 235      D2ED29AA 
 235      1ED352F7 
 236 006f ED068FDC 		.ascii	"\355\006\217\334\200\351\276\356\371q\331s\003R\234"
 236      80E9BEEE 
 236      F971D973 
 236      03529C
 237 007e 1BBC01EC 		.ascii	"\033\274\001\354gAa"
 237      674161
 238              		.text
 239              		.section	.gnu.lto_.refs.8bc2f57ba27af434,"",%progbits
 240 0000 789C6362 		.ascii	"x\234cb`b`g\200\000&\006\006FFF\006\000\000\333\000"
 240      60626067 
 240      80002606 
 240      06464646 
 240      060000DB 
 241 0015 11       		.ascii	"\021"
 242              		.text
 243              		.section	.gnu.lto_.decls.8bc2f57ba27af434,"",%progbits
 244 0000 789CBD5C 		.ascii	"x\234\275\\\013t\024\305\232\356\356\231$3Inx\270\272"
 244      0B7414C5 
 244      9AEEEE99 
 244      2433496E 
 244      78B8BA
 245 0013 E8BA3A77 		.ascii	"\350\272:wW\357\341^\257\344\001\"\256w\005LP8\362p"
 245      57EFE15E 
 245      AFE40122 
 245      AE77054C 
 245      5038F270 
 246 0027 93782FEE 		.ascii	"\223x/\3569\356\330\316t\310\254If\354\351`8\347\356"
 246      39EED8CE 
 246      74C8AC49 
 246      66ECE960 
 246      38E7EE
 247 003a B121243C 		.ascii	"\261!$<\024\014\011H@\036\341\012\210/\224\227\200\007"
 247      140C0948 
 247      401EE10A 
 247      882F9497 
 247      8007
 248 004c 657C4104 		.ascii	"e|A\004\345)\010\370`\364\012\202\\\\@#b\014\331\277"
 248      E52908F8 
 248      60F40A82 
 248      5C5C4023 
 248      620CD9BF 
 249 0060 FEEE9EA9 		.ascii	"\376\356\236\251\356t\317tG\357\3169US]\251\372\352"
 249      EE74CF74 
 249      47EFCE39 
 249      55535DA9 
 249      FAEA
 250 0072 FFFFFAFF 		.ascii	"\377\377\372\377\277\376\252\256\011\307p\314t\216a"
 250      BFFEAAAE 
 250      09C770CC 
ARM GAS  /tmp/cc08we4M.s 			page 19


 250      748E61
 251 0081 BAE173FC 		.ascii	"\272\341s\374\036\206\371\302\3030\031\014\303\334\001"
 251      1E86F9C2 
 251      C330190C 
 251      C3DC01
 252 0090 C90D6905 		.ascii	"\311\015i\005\244M\220\262 \015e\224\217\027\3225\320"
 252      A44D90B2 
 252      200D6594 
 252      8F17D235 
 252      D0
 253 00a1 6738A47B 		.ascii	"g8\244{ \375\007\244\007 \005!\205!I\220\376\014\211"
 253      20FD07A4 
 253      07200521 
 253      85214990 
 253      FE0C89
 254 00b4 857632C7 		.ascii	"\205v2\307\350>\244\3375\214\362\267<H\271\220\372s"
 254      E83EA4DF 
 254      358CF2B7 
 254      3C48B990 
 254      FA73
 255 00c6 CA185550 		.ascii	"\312\030UP\371 \224\247A\252\347\224\361]\220\256\342"
 255      F92094A7 
 255      41AAE794 
 255      F15D90AE 
 255      E2
 256 00d7 143AAE83 		.ascii	"\024:\256\203\357\177\2064\010R\021$B7\241\253\001\276"
 256      EF7F8634 
 256      08521124 
 256      4237A1AB 
 256      01BE
 257 00e9 05488D90 		.ascii	"\005H\215\220\376\013\3226\300\371\015\301a\025\214"
 257      FE0BD236 
 257      C0F90DC1 
 257      61158C
 258 00f8 7F85F2CD 		.ascii	"\177\205\362\315\220\012!\335\310)\230\327\250\364>"
 258      900A21DD 
 258      C82998D7 
 258      A8F43E
 259 0107 A08E43E8 		.ascii	"\240\216C\350\034\006\351\337 \375\301@\363pu\234\007"
 259      1C06E9DF 
 259      20FDC140 
 259      F370759C 
 259      07
 260 0118 0D74CC80 		.ascii	"\015t\314\200\024Q\307a\325q8\265}X-\337\015\331h\003"
 260      1451C761 
 260      D57138B5 
 260      7D582DDF 
 260      0DD96803 
 261 012c 1E9159B6 		.ascii	"\036\221Y\266\212G\372\022\336\011O\032\256&w\215\037"
 261      8A47FA12 
 261      DE094F1A 
 261      AE26778D 
 261      1F
 262 013d D29DD0AF 		.ascii	"\322\235\320\257\341\337\243\322M\306\234`\300&sq\035"
 262      E1DFA3D2 
 262      4DC69C60 
 262      C0267371 
ARM GAS  /tmp/cc08we4M.s 			page 20


 262      1D
 263 014e 7CCFE492 		.ascii	"|\317\344\222\362%c4@\232\315%\345\233\251\316\201&"
 263      F2256334 
 263      409ACD25 
 263      E59BA9CE 
 263      8126
 264 0160 63C29F87 		.ascii	"c\302\237\207\320\301\364\244\207\246\245\011\322\377"
 264      D0C1F4A4 
 264      87A6A509 
 264      D2FF
 265 016e 409A07A9 		.ascii	"@\232\007\251\031R-%o\242\037\031\024\255D\326\277\205"
 265      19522D25 
 265      6FA21F19 
 265      14AD44D6 
 265      BF85
 266 0180 7493CA93 		.ascii	"t\223\312\223\246'\177Vu\204\214\373'\370\236\010\351"
 266      A6277F56 
 266      75848CFB 
 266      27F89E08 
 266      E9
 267 0191 3F0D7CF4 		.ascii	"?\015|\364g\346\311\360\361\265\003\023\023Y\236\315"
 267      67E6C9F0 
 267      F1B50313 
 267      13599ECD 
 268 01a1 F3922922 		.ascii	"\363\222)\"\245\\/\343\203\00672+e\271)\336\360$\353"
 268      A55C2FE3 
 268      83063732 
 268      2B65B929 
 268      DEF024EB 
 269 01b5 E3D9156C 		.ascii	"\343\331\025l\177\220\314\000\226\371\035\363\034\364"
 269      7F90CC00 
 269      96F91DF3 
 269      1CF4
 270 01c3 6A92E569 		.ascii	"j\222\345iW0=?iA\031\206gW\001\026\317\256d\177\247"
 270      57303D3F 
 270      69411986 
 270      67570116 
 270      CFAE647F 
 271 01d8 0C21C70E 		.ascii	"\014!\307\016\005}J-\243\326\233|~\315\264\301\230\261"
 271      057D4A2D 
 271      A3D69B7C 
 271      7ECDB4C1 
 271      98B1
 272 01ea A31BB7B2 		.ascii	"\243\033\267\262rcn\026\323\010Or\274a\332\200\326\344"
 272      72636E16 
 272      D3084F72 
 272      BC61DA80 
 272      D6E4
 273 01fc 501E6D24 		.ascii	"P\036m$6A~l\277\207\343\3315l\026P\177\023\253\203\267"
 273      36417E6C 
 273      BF87E3D9 
 273      356C1650 
 273      7F13AB83 
 274 0211 8141E879 		.ascii	"\201A\350y\001\372\352\250\335\352\346\224\332\024\324"
 274      01FAEAA8 
 274      DDEAE694 
 274      DA14D4
ARM GAS  /tmp/cc08we4M.s 			page 21


 275 0220 BA18D4A4 		.ascii	"\272\030\324\244\333YDs{\223U%\211*\226j8&Q\253\315"
 275      DB594473 
 275      7B935525 
 275      892A966A 
 275      382651AB 
 276 0235 127964BD 		.ascii	"\022yd\275\311B7\253\033\200\246\213g_do\204\374%\326"
 276      C94237AB 
 276      1B80A68B 
 276      675F646F 
 276      84FC25D6 
 277 0249 65DA8D63 		.ascii	"e\332\215c\306\263\252\330\315\230T\213\311a\363\264"
 277      C6B3AAD8 
 277      CD98548B 
 277      C961F3B4 
 278 0259 074DE81F 		.ascii	"\007M\350\037\177\267\205\010\335\313\314D\201\255\222"
 278      7FB78508 
 278      DDCBCC44 
 278      81AD92
 279 0268 D3083D7E 		.ascii	"\323\010=~\264\361\245\233d\331\303\263\233X\302\321"
 279      B4F1A59B 
 279      64D9C3B3 
 279      9B58C2D1 
 280 0278 14BDE0ED 		.ascii	"\024\275\340\355\343\264\314^6\014q\266 \316\253\254"
 280      E3B4CC5E 
 280      360C71B6 
 280      20CEABAC 
 281 0288 1E486595 		.ascii	"\036He\225\022\012<k\015\322\0120M[\216\211\261N\305"
 281      120A3C6B 
 281      0DD20A30 
 281      4D5B8E89 
 281      B14EC5
 282 029b E6A1C516 		.ascii	"\346\241\305\026\177\367\361\371W\313mo\2619\314l\302"
 282      7FF7F1F9 
 282      57CB6D6F 
 282      B139CC6C 
 282      C2
 283 02ac 6F5BA33C 		.ascii	"o[\243<\272=\317\304Bb.\015lX\222\365u{\016\255f\353"
 283      BA3DCFC4 
 283      42622E0D 
 283      6C5892F5 
 283      757B0EAD 
 284 02c2 6519FEF0 		.ascii	"e\031\376\360\006\332\336\034N\317|Z \236\215\261\034"
 284      06DADE1C 
 284      4ECF7C5A 
 284      209E8DB1 
 284      1C
 285 02d3 E46F1ACD 		.ascii	"\344o\032\315\355\374\342\\\331\255\324\2477\270K\307"
 285      EDFCE25C 
 285      D9ADD4A7 
 285      37B84BC7 
 286 02e3 96FDA31C 		.ascii	"\226\375\243\034\217\261\266-.~\374\300G\2058i\357\240"
 286      8FB1B62D 
 286      2E7EFCC0 
 286      47853869 
 286      EFA0
 287 02f5 D5EDE27A 		.ascii	"\325\355\342zev;\215f\267\277\261\017\241z\247-\303"
 287      65763B8D 
ARM GAS  /tmp/cc08we4M.s 			page 22


 287      66B7BFB1 
 287      0FA17AA7 
 287      2DC3
 288 0307 3BC4F5B4 		.ascii	";\304\365\264\2748gjz\2479\275\355\251\325\337&\253"
 288      BC38676A 
 288      7AA739BD 
 288      EDA9D5DF 
 288      26AB
 289 0319 5D54F554 		.ascii	"]T\365TW\242\332MU?\231\254\316\240T\"\245\376\355\244"
 289      57A2DA4D 
 289      553F99AC 
 289      CEA05422 
 289      A5FEEDA4 
 290 032d 0CB81D0D 		.ascii	"\014\270\035\015\370=\013\003\346\331\015\211\231\354"
 290      F83D0B03 
 290      E6D90D89 
 290      99EC
 291 033b 9505C7D7 		.ascii	"\225\005\307\327\315\375\362$\333R/\267\027\230)#4a"
 291      CDFDF224 
 291      DB522FB7 
 291      17982923 
 291      3461
 292 034d 29357A50 		.ascii	")5zP\003\314MLj\354\365c\254\317D\343tMy\366\010\260"
 292      03CC4D4C 
 292      6AECF563 
 292      ACCF44E3 
 292      744D79F6 
 293 0363 91AE1569 		.ascii	"\221\256\025iw\314\250\222K\217\241J\036\263\245\222"
 293      77CCA892 
 293      4B8FA14A 
 293      1EB3A592 
 294 0373 EB8E2D70 		.ascii	"\353\216-p\246\222\261\363\037\2215\354S\324\307\305"
 294      A692B1F3 
 294      1F9135EC 
 294      53D4C7C5 
 295 0383 AE5EE963 		.ascii	"\256^\351c\334\250\217G\027\242>\306m\351\343j\027\245"
 295      DCA88F47 
 295      17A23EC6 
 295      6DE9E36A 
 295      17A5
 296 0395 7B6ADD3A 		.ascii	"{j\335:\227\251\342\275\353\322+\236\035U\212S\252\364"
 296      97A9E2BD 
 296      EBD22B9E 
 296      1D558A53 
 296      AAF4
 297 03a7 39AAD217 		.ascii	"9\252\322\027\226k\301G\310\377\261^/\006\033\216-@"
 297      966BC147 
 297      C8FFB15E 
 297      2F061B8E 
 297      2D40
 298 03b9 AFA67A71 		.ascii	"\257\246zqE\221\022m}\032\202\233\241V\203w\337d\247"
 298      4591126D 
 298      7D1A829B 
 298      A1568377 
 298      DF64A7
 299 03cc A12BFB1A 		.ascii	"\241+\373\032\375\370q\227\351\202`\003\252e\366\266"
 299      FDF87197 
ARM GAS  /tmp/cc08we4M.s 			page 23


 299      E9826003 
 299      AA65F6B6 
 300 03dc DBD0B79C 		.ascii	"\333\320\267\234E\240S.\343\202\220eX\020\262\364N>"
 300      45A0532E 
 300      E3829065 
 300      5810B2F4 
 300      4E3E
 301 03ee CB9B2C90 		.ascii	"\313\233,\220\200\274\017\343\2649x\006\243\000u\204"
 301      80BC0FE3 
 301      B4397806 
 301      A3007584 
 302 03fe 9A09D047 		.ascii	"\232\011\320G\013\020lq\317\253\354\205irk\201}\005"
 302      0B106C71 
 302      CFABEC85 
 302      69726B81 
 302      7D05
 303 0410 6E394614 		.ascii	"n9F\024\370\002*pw\357\024\270\303\250\300\235\212\002"
 303      F8022A70 
 303      77EF14B8 
 303      C3A8C09D 
 303      8A02
 304 0422 77D852E0 		.ascii	"w\330R\340\271\356\236\012\274\324m\252\300/\273\235"
 304      B9EE9E0A 
 304      BCD46DAA 
 304      C02FBB9D 
 305 0432 2B7007A5 		.ascii	"+p\007\245\300\337\243\002_\264T\340w\3346\024\330c"
 305      C0DFA302 
 305      5FB454E0 
 305      77DC3614 
 305      D863
 306 0444 A2C0D478 		.ascii	"\242\300\324x\312H\037\343H\237\260\277\206\3744\346"
 306      CA481FE3 
 306      489FB0BF 
 306      86FC34E6 
 307 0454 E7214F7C 		.ascii	"\347!O|8f\257\333\250_\212\207\242\220\222\256\214I"
 307      3866AFDB 
 307      A85F8A87 
 307      A29092AE 
 307      8C49
 308 0466 8565A62A 		.ascii	"\205e\246*\244\303a\210\016\022\303\035\305\341\336"
 308      A4C36188 
 308      0E12C31D 
 308      C5E1DE
 309 0475 ECAD66C5 		.ascii	"\354\255f\305\026}\274\314\231i\306\266/\274\222\350"
 309      167DBCCC 
 309      9969C6B6 
 309      2FBC92E8 
 310 0485 C0548E4C 		.ascii	"\300T\216La\274\007\267_\033\343+;\366q\306\016\027"
 310      61BC07B7 
 310      5F1BE32B 
 310      3BF671C6 
 310      0E17
 311 0497 66F3835C 		.ascii	"f\363\203\\\310\261\015\037/c\011\027f{\011V\353\337"
 311      C8B10D1F 
 311      2F630917 
 311      667B0956 
 311      EBDF
ARM GAS  /tmp/cc08we4M.s 			page 24


 312 04a9 37C143FC 		.ascii	"7\301C\374\320W\247N\252\356\245\221#\221\322\352\214"
 312      D057A74E 
 312      AAEEA591 
 312      2391D2EA 
 312      8C
 313 04ba B491921E 		.ascii	"\264\221\222\036\210c\326b\227Y\234aY\352\340}Jm\272"
 313      8863D662 
 313      97599C61 
 313      59EAE07D 
 313      4A6DBA
 314 04cd 45498E5D 		.ascii	"EI\216]<\341\225\233sM\206\032A\263\254y\3043\361\253"
 314      3CE1959B 
 314      734D861A 
 314      41B3AC79 
 314      C433F1AB 
 315 04e1 DF93E5BE 		.ascii	"\337\223\345\276<;\007)>kNq\333\010+\034\216\351\302"
 315      3C3B0729 
 315      3E6B4E71 
 315      DB082B1C 
 315      8EE9C2
 316 04f4 2E4D068A 		.ascii	".M\006\212\343\257_h\277\246\025\221\233l\220=-v\250"
 316      E3AF5F68 
 316      BFA61591 
 316      9B6C903D 
 316      2D76A8
 317 0507 71A9AD18 		.ascii	"q\251\255\030\265\315\255\015_\222d\343\310\231\330"
 317      B5CDAD0D 
 317      5F9264E3 
 317      C899D8
 318 0516 00F4C60B 		.ascii	"\000\364\306\013\220\213\2673\323\312]\017\3031\357"
 318      908BB733 
 318      D3CA5D0F 
 318      C331EF
 319 0525 6397D69E 		.ascii	"c\227\326\236\\\304\377I\341\242\325\026\027\235*\027"
 319      5CC4FF49 
 319      E1A2D516 
 319      179D2A17 
 320 0535 3C3B9FCB 		.ascii	"<;\237\313\001\330\303\011X\273\206\244\307\273\274"
 320      01D8C309 
 320      58BB86A4 
 320      C7BBBC
 321 0544 23B789D7 		.ascii	"#\267\211\327\300>u\014\346\323\201\265\354\\\342p\301"
 321      C03E750C 
 321      E6D381B5 
 321      EC5CE270 
 321      C1
 322 0555 5C74F1D4 		.ascii	"\\t\361\324\325\257#\373mh\230/e\375\"\206\271)\313"
 322      D5AF23FB 
 322      6D68982F 
 322      65FD2286 
 322      B929CB
 323 0568 0623D686 		.ascii	"\006#\326\206\011\263\262\357\332\255\353eyV\246\246"
 323      09B3B2EF 
 323      DAADEB65 
 323      7956A6A6 
 324 0578 9F99568C 		.ascii	"\237\231V\214p\3146\034l\225qf\027]\336w\2632\263\253"
 324      70CC361C 
ARM GAS  /tmp/cc08we4M.s 			page 25


 324      6C957166 
 324      175DDE77 
 324      B332B3AB 
 325 058c 6CCDECE6 		.ascii	"l\315\354\346\335\013\355\351g\2466|\020\207\277\214"
 325      DD0BEDE9 
 325      67A6367C 
 325      1087BF8C 
 326 059c C33F6F1C 		.ascii	"\303?o\034~\323_N\337\241\014\377\274\255\341\217\357"
 326      7ED35F4E 
 326      DFA10CFF 
 326      BCADE18F 
 326      EF
 327 05ad 35D9C2F1 		.ascii	"5\331\302\361\354\035W\246\234\276\313\347\006.\307"
 327      EC1D57A6 
 327      9CBECBE7 
 327      062EC7
 328 05bc 41D6A202 		.ascii	"A\326\242\002\265{\214\3237<\207\036\013\237\251\006"
 328      B57B8CD3 
 328      373C871E 
 328      0B9FA906 
 329 05cc 1CB3DFA3 		.ascii	"\034\263\337\243Q\337+\375\0056\337\034\376\034\316"
 329      51DF2BFD 
 329      0536DF1C 
 329      FE1CCE
 330 05db 9446C321 		.ascii	"\224F\303!\307\210z%\276\260\027-B\001;j\007\314R\221"
 330      C7887A25 
 330      BEB0172D 
 330      42013B6A 
 330      07CC5291 
 331 05ef A6C5BEA3 		.ascii	"\246\305\276\243\301>u\014\246\247\354{\032\354s;`}"
 331      C13E750C 
 331      A6A7EC7B 
 331      1AEC733B 
 331      607D
 332 0601 AD29FB81 		.ascii	"\255)\373\201\006;\341\030LO\331\2174\330i;`\003\254"
 332      063BE118 
 332      4C4FD98F 
 332      34D8693B 
 332      6003AC
 333 0614 29FB8906 		.ascii	")\373\211\006;\353\030LO\331e\032\354\274\0350\2375"
 333      3BEB184C 
 333      4FD9651A 
 333      ECBC1D30 
 333      9F35
 334 0626 654D0728 		.ascii	"eM\007(\260\016\307`z\312\232i\260Kv\300\006ZS6\237"
 334      B00EC760 
 334      7ACA9A69 
 334      B04B76C0 
 334      065A5336 
 335 063b 06EB720C 		.ascii	"\006\353r\014\246\247\354)\032l\252\327\006X\2015e\255"
 335      A6A7EC29 
 335      1A6CAAD7 
 335      06588135 
 335      65AD
 336 064d 34588363 		.ascii	"4X\203c0=e\213i\260Yv\300\206YS\266\204\006\233\343"
 336      303D658B 
 336      69B05976 
ARM GAS  /tmp/cc08we4M.s 			page 26


 336      C0865953 
 336      B684069B 
 337 0662 184C4FD9 		.ascii	"\030LO\331+4\330<;`#\254)[O\203\315w\014\246\247l#\015"
 337      2B34D83C 
 337      3B6023AC 
 337      295B4F83 
 337      CD770CA6 
 338 067a B6D00ED8 		.ascii	"\266\320\016\330hk\312^\245\301\026;\006\323S\266\205"
 338      686BCA5E 
 338      A5C1163B 
 338      06D353B6 
 338      85
 339 068b 065B6A07 		.ascii	"\006[j\007\354^k\312^\243\301\332\034\203\351)\333F"
 339      EC5E6BCA 
 339      5EA3C1DA 
 339      1C83E929 
 339      DB46
 340 069d 833D6307 		.ascii	"\203=c\007l\2425eo\320`\317:\006\323S\266\217\006{\301"
 340      6CA23565 
 340      6FD060CF 
 340      3A06D353 
 340      B68F067B 
 341 06b2 0ED88326 		.ascii	"\016\330\203&\224%>f\375\3102\375\034Gm\326\326z\265"
 341      94253E66 
 341      FDC832FD 
 341      1C476DD6 
 341      D67AB5
 342 06c5 00C7E11A 		.ascii	"\000\307\341\032\315$1\326{\235Fd:\276I\234|\355k\352"
 342      CD2431D6 
 342      7B9D4664 
 342      3ABE499C 
 342      7CED6BEA 
 343 06d9 3AAF04AB 		.ascii	":\257\004\253[\354 \246X\000\027\357\244\"\337\230c"
 343      5BEC20A6 
 343      580017EF 
 343      A422DF98 
 343      63
 344 06ea 30832A13 		.ascii	"0\203*\0230]\350\2248\372\217\245>\361 /\2308\352=\301"
 344      305DE894 
 344      38FA8FA5 
 344      3EF1202F 
 344      9838EA3D 
 345 06ff 00F3B63C 		.ascii	"\000\363\266<{\206#[\370\277q\336\004\025JY+)G\006\355"
 345      7B86235B 
 345      F8BF71DE 
 345      04154A59 
 345      2B294706 
 346 0714 5EFD8143 		.ascii	"^\375\201C\342\223\256\253\225&\234\2465\341\003;bJ"
 346      E293AEAB 
 346      95269CA6 
 346      35E1033B 
 346      624A
 347 0726 B1B41FDF 		.ascii	"\261\264\037\337\271\004\3173\355\277\027Ytq\237\272"
 347      B904CF33 
 347      EDBF1759 
 347      74719FBA 
 348 0736 4138871B 		.ascii	"A8\207\033\204\017\275\306\010s\223\3037#\020\207\031"
ARM GAS  /tmp/cc08we4M.s 			page 27


 348      840FBDC6 
 348      087393C3 
 348      37231087 
 348      19
 349 0747 B9303B56 		.ascii	"\2710;V\261\216)@\027\217\\\277u\255,\327g:\341\243"
 349      B18E2940 
 349      178F5CBF 
 349      75AD2CD7 
 349      673AE1A3 
 350 075b 5DE5A303 		.ascii	"]\345\243\003\3718\361\013\360q\3261\037\003\015|\304"
 350      F938F10B 
 350      F071D631 
 350      1F030D7C 
 350      C4
 351 076c 063AE7E3 		.ascii	"\006:\347\343\210\312\307\217\310G\307/\300G\227c>\012"
 351      88CAC78F 
 351      C847C72F 
 351      C0479763 
 351      3E0A
 352 077e 283E70B7 		.ascii	"(>p\2676H\331\255]\3014\247\336\255\021z\272\271+\014"
 352      3648D9AD 
 352      5DC134A7 
 352      DEAD117A 
 352      BAB92B0C 
 353 0792 E7DBBBC8 		.ascii	"\347\333\273\310\221#\251\266q\370\261\213\332\342\312"
 353      9123A9B6 
 353      71F8B18B 
 353      DAE2CA
 354 07a1 F6B6B8E7 		.ascii	"\366\266\270\347T\211Ms\021\211M\31769\022\266\205t"
 354      54894D73 
 354      11894DCF 
 354      363912B6 
 354      8574
 355 07b3 74C73BEB 		.ascii	"t\307;\353\324\343\237\006\204\232\335k\250\226]\233"
 355      D4E39F06 
 355      849ADD6B 
 355      A8965D9B 
 356 07c3 95D78D33 		.ascii	"\225\327\2153\021\2509\3338\213\231\206I"
 356      11A839DB 
 356      388B9986 
 356      49
 357 07d0 CCD44F22 		.ascii	"\314\324O\"<\222\221~ ;n\3661\265\206<d1\377\357\375"
 357      3C92917E 
 357      203B6EF6 
 357      31B5863C 
 357      6431FFEF 
 358 07e5 38660992 		.ascii	"8f\011\222O&\320\341\002\225T\240\337oU\027\027e\222"
 358      4F26D0E1 
 358      029554A0 
 358      DF6F5517 
 358      176592
 359 07f8 9EF95988 		.ascii	"\236\371Y\210\323b\033\036\327\216i\206\223\345\345"
 359      D3621B1E 
 359      D78E6986 
 359      93E5E5
 360 0807 C59F09B7 		.ascii	"\305\237\011\267\177\267\363\203\225\3305\212\326\315"
 360      7FB7F383 
ARM GAS  /tmp/cc08we4M.s 			page 28


 360      95D8358A 
 360      D6CD
 361 0815 438636F4 		.ascii	"C\2066\364\230\341^\035\254l\357-#\211\017\307\354\310"
 361      98E15E1D 
 361      AC6CEF2D 
 361      23890FC7 
 361      ECC8
 362 0827 B6B188F8 		.ascii	"\266\261\210\370R\315\326\017\203l\036\316$\016!O\015"
 362      52CDD60F 
 362      836C1ECE 
 362      240E214F 
 362      0D
 363 0838 6847612C 		.ascii	"hGa,t\221\343\273]\006a\3308\3449\212]\026\273z\034"
 363      7491E3BB 
 363      5D0661D8 
 363      38E4398A 
 363      5D16BB7A 
 364 084d DFEDBB5A 		.ascii	"\337\355\273Z9e!\177\262q\310\243;\276\343\331%\034"
 364      3965217F 
 364      B271C8A3 
 364      3BBEE3D9 
 364      251C
 365 085f A7C2F656 		.ascii	"\247\302\366V\236\272)L\322\007\320.\022/,u\351\216"
 365      9EBA294C 
 365      D207D02E 
 365      122F2C75 
 365      E98E
 366 0871 F94F3B96 		.ascii	"\371O;\226\275\217\226}\254s\367\022V\241_9\316\375"
 366      BD8F967D 
 366      AC73F712 
 366      56A15F39 
 366      CEFD
 367 0883 D6883782 		.ascii	"\326\2107\202\216\345\324\242\345\276U\2165\357\301"
 367      8EE5D4A2 
 367      E5BE558E 
 367      35EFC1
 368 0892 204C31BA 		.ascii	" L1\272\313v\210K\261\325\\\246\200)\012?=\307)\230"
 368      CB76884B 
 368      B1D55CA6 
 368      80290A3F 
 368      3DC72998 
 369 08a6 4F07F6FA 		.ascii	"O\007\366\372\\\223\343b\345\210\334jaY\355\242B\245"
 369      5C93E362 
 369      E588DC6A 
 369      6159EDA2 
 369      42A5
 370 08b8 27ED8C9F 		.ascii	"'\355\214\237bwzh\317\022US\224\223\321E\216\361\364"
 370      62777A68 
 370      CF125553 
 370      9493D145 
 370      8EF1F4
 371 08cb FC9C9FAB 		.ascii	"\374\234\237\253\363H+\355\300\215\260\255x\311smPB"
 371      F3482BED 
 371      C08DB0AD 
 371      78C9736D 
 371      5042
 372 08dd 0C549FE6 		.ascii	"\014T\237\346\310\233\241\245\230/\307|%\346_b~\022"
ARM GAS  /tmp/cc08we4M.s 			page 29


 372      C89BA1A5 
 372      982FC77C 
 372      25E65F62 
 372      7E12
 373 08ef F35398FF 		.ascii	"\363S\230\377/\346\337a~\011\363\313\230?\345\302\276"
 373      2FE6DF61 
 373      7E09F3CB 
 373      983FE5C2 
 373      BE
 374 0900 98AFC0FC 		.ascii	"\230\257\300\374\031\314Wa\276\006\363\347i\365\266"
 374      19CC5761 
 374      BE06F3E7 
 374      69F5B6
 375 090f 9A17C5D4 		.ascii	"\232\027\305\324\022\206\251Y]S\257\017\315\017'\017"
 375      1286A959 
 375      5D53AF0F 
 375      CD0F270F 
 376 091f CD797699 		.ascii	"\315yv\231c0_*I6Q\222lFI\266\2404^\324\033\362\2139"
 376      63305F2A 
 376      49365192 
 376      6C4649B6 
 376      A0345ED4 
 377 0937 DA6B9C14 		.ascii	"\332k\234\024\206g\315B\374\303\257Ne-\222c\323]\332"
 377      8667CD42 
 377      FCC3AF4E 
 377      652D9263 
 377      D35DDA
 378 094a 0E68A311 		.ascii	"\016h\243\0210\355\006M/\223\313\202\341\306\205\362"
 378      30ED064D 
 378      2F93CB82 
 378      E1C685F2 
 379 095a 8ECA6A4E 		.ascii	"\216\312jN\326\321\266\262\315\361\330)E8\213\022\341"
 379      D6D1B6B2 
 379      CDF1D829 
 379      45388B12 
 379      E1
 380 096b E328C227 		.ascii	"\343(\302'P\204kQe^\241\005\311\263\2639\303}\023\375"
 380      50846B51 
 380      655EA105 
 380      C9B3B339 
 380      C37D13FD 
 381 097f 0BB31483 		.ascii	"\013\263\024\203'^rw\0346\271p\242\274*J\261(-|\343"
 381      275E7277 
 381      1C36B970 
 381      A2BC2A4A 
 381      B1282D7C 
 382 0994 E8B52FE2 		.ascii	"\350\265/\342\322\261\321E&\2403\307\270B\317\347\014"
 382      D2B1D145 
 382      26A033C7 
 382      B842CFE7 
 382      0C
 383 09a5 87E70645 		.ascii	"\207\347\006E\346\230\271\2716^@\246\330\311\254\233"
 383      E698B9B9 
 383      365E40A6 
 383      D8C9AC9B 
 384 09b5 7BF1305B 		.ascii	"{\3610[_/\257)P#\013\271Q\036\270&\271\010\366\3250"
 384      5F2FAF29 
ARM GAS  /tmp/cc08we4M.s 			page 30


 384      50230BB9 
 384      511EB826 
 384      B908F6D5 
 385 09ca B804DDB1 		.ascii	"\270\004\335\261M\312\213\324\255\350e\027\344\232\336"
 385      4DCA8BD4 
 385      ADE86517 
 385      E49ADE
 386 09d9 6F480F13 		.ascii	"oH\017\023?\332\270\371\367\030\201nC\240\345\275\006"
 386      3FDAB8F9 
 386      F718816E 
 386      43A0E5BD 
 386      06
 387 09ea 6A99FDAC 		.ascii	"j\231\375\254rQb;\002\255\3115\212\321e\210s\\\3728"
 387      7251623B 
 387      02ADC935 
 387      8AD16588 
 387      735CFA38 
 388 09fe C7E54D16 		.ascii	"\307\345M\026\272\273]\314\337\2611\204a\306\011\323"
 388      BABB5DCC 
 388      DFB13184 
 388      61C609D3 
 389 0a0e 71942EF6 		.ascii	"q\224.\366!\023\326\245*\233v\303d\213\035\025\320!"
 389      2113D6A5 
 389      2A9B76C3 
 389      648B1D15 
 389      D021
 390 0a20 EA5420F6 		.ascii	"\352T \366\323\307\350\313\024\260\267\354\200\2458"
 390      D3C7E8CB 
 390      14B0B7EC 
 390      80A538
 391 0a2f 865EB06C 		.ascii	"\206^\260l\271\345;\254\266\264W\257\342[O\276\367\007"
 391      B9E53BAC 
 391      B6B457AF 
 391      E25B4FBE 
 391      F707
 392 0a41 721130FD 		.ascii	"r\0210\375\365\253].{\327\257\336w\031\337s\357\301"
 392      F5AB5D2E 
 392      7BD7AFDE 
 392      7719DF73 
 392      EFC1
 393 0a53 EB57EFDB 		.ascii	"\353W\357\333\212\326.\232\305\000f\267\021\023.c@\222"
 393      8AD62E9A 
 393      C50066B7 
 393      11132E63 
 393      4092
 394 0a65 998FBE7E 		.ascii	"\231\217\276~\357\016\345V\343>\014:\367\376*\375\255"
 394      EF0EE556 
 394      E33E0C3A 
 394      F7FE2AFD 
 394      AD
 395 0a76 461D0EA1 		.ascii	"F\035\016\241\357\240\221\376\015{\221\376\203\351\351"
 395      EFA091FE 
 395      0D7B91FE 
 395      83E9E9
 396 0a85 9F5E1FDB 		.ascii	"\237^\037\333\254\276\323Cc\252O\271m\340\3313xE\304"
 396      ACBED343 
 396      63AA4FB9 
ARM GAS  /tmp/cc08we4M.s 			page 31


 396      6DE0D933 
 396      7845C4
 397 0a98 CE26E00B 		.ascii	"\316&\340\013\344\344\240\363\240U%k\213\362N\3460\332"
 397      E4E4A0F3 
 397      A055256B 
 397      8BF24EE6 
 397      30DA
 398 0aaa EB09C760 		.ascii	"\353\011\307`>\035\330k4\330\327v\300\254\0261\000\333"
 398      3E1DD86B 
 398      34D8D776 
 398      C0AC1631 
 398      00DB
 399 0abc 46837DE3 		.ascii	"F\203}\343\030LO\331\0334\330\267v\300\254N+\001l\037"
 399      184C4FD9 
 399      1B34D8B7 
 399      76C0AC4E 
 399      2B016C1F 
 400 0ad0 0DF68363 		.ascii	"\015\366\203c0\237\231\2260=\224\214g?\304]\303!\\)"
 400      309F9996 
 400      303D948C 
 400      673FC45D 
 400      C3215C29 
 401 0ae4 8F607E0C 		.ascii	"\217`~\014\363O0\377\014\363\270\235\240k/\275\300\377"
 401      F34F30FF 
 401      0CF3B89D 
 401      A06B2FBD 
 401      C0FF
 402 0af6 8404BFDF 		.ascii	"\204\004\277\337;\215\001\267\267\365\344\347\267+\247"
 402      3B8D01B7 
 402      B7F5E4E7 
 402      B72BA7
 403 0b05 BF863596 		.ascii	"\277\2065\226\310\303\212\202/i\012\352\363\234R\340"
 403      C8C38A82 
 403      2F690AEA 
 403      F39C52E0 
 404 0b15 A3298875 		.ascii	"\243)\210u\356QN.\265\213\3363\215xv\257fi\341\322\236"
 404      EE514E2E 
 404      B58BDE33 
 404      8D7876AF 
 404      6669E1D2 
 405 0b2a 9C571ED4 		.ascii	"\234W\036\324\300\236t\014\246\273~\035k\332K\201-r"
 405      C09E740C 
 405      A6BB7E1D 
 405      6BDA4B81 
 405      2D72
 406 0b3c 0CD6B787 		.ascii	"\014\326\267\207F(\272\360\001\352\302\036\234\363\277"
 406      4628BAF0 
 406      01EAC21E 
 406      9CF3BF
 407 0b4b 627E12F3 		.ascii	"b~\022\363S\230\177\255\017H\333\362\214\353\256\342"
 407      53987FAD 
 407      0F48DBF2 
 407      8CEBAEE2 
 408 0b5b 6329D4A4 		.ascii	"c)\324\2443f\354\342Z\315m;=\267\033\362\234\256Z\272"
 408      3366ECE2 
 408      5ACD6D3B 
 408      3DB71BF2 
ARM GAS  /tmp/cc08we4M.s 			page 32


 408      9CAE5ABA 
 409 0b6f B9854575 		.ascii	"\271\205Eu\347W\332\242\332\216\261\330V;\210)v\242"
 409      E757DAA2 
 409      DA8EB1D8 
 409      563B8829 
 409      76A2
 410 0b81 1B3F33BE 		.ascii	"\033?3\276\0160\363\366\034M[b\325x\363~e\325\270\200"
 410      0E30F3F6 
 410      1C4D5B62 
 410      D578F37E 
 410      65D5B880 
 411 0b95 ABC6F6BC 		.ascii	"\253\306\366\274\364\253\006\247\347\221g;\214\253\306"
 411      F4AB06A7 
 411      E791673B 
 411      8CABC6
 412 0ba4 A583B86A 		.ascii	"\245\203\270jt\330Z5\272\016\316Ww\212\212\267\331\215"
 412      74D85A35 
 412      BA0ECE57 
 412      778A8AB7 
 412      D98D
 413 0bb6 2474F4DA 		.ascii	"$t\364\332\335_>H\271\256\275\216\301|:\260\246\303"
 413      DD5F3E48 
 413      B9AEBD8E 
 413      C17C3AB0 
 413      A6C3
 414 0bc8 14D8413B 		.ascii	"\024\330A;`)\334}3\015v\3041\230\236\262\3714\330\247"
 414      6029DC7D 
 414      330D76C4 
 414      31989EB2 
 414      F934D8A7 
 415 0bdc 76C052B8 		.ascii	"v\300R\270\373\247h\260\270c0=e\2554\330\227v\300\254"
 415      FBA768B0 
 415      B863303D 
 415      65AD34D8 
 415      9776C0AC 
 416 0bf0 5EE100D8 		.ascii	"^\341\000\330b\032\354\224c0=eKh\260\277\331\001\363"
 416      621AEC94 
 416      63303D65 
 416      4B68B0BF 
 416      D901F3
 417 0c03 5953B68C 		.ascii	"YS\266\214\006\273\340\030\314gf\022\312\207\266(\236"
 417      06BBE018 
 417      CC676612 
 417      CA87B628 
 417      9E
 418 0c14 FD1EDDE2 		.ascii	"\375\036\335\342EtV\2270\357\304\274\013\363n\314\247"
 418      45745697 
 418      30EFC4BC 
 418      0BF36ECC 
 418      A7
 419 0c25 BA495E8F 		.ascii	"\272I^\217y\003\34630\237\345\266\341\334\316\323\316"
 419      7903E633 
 419      309FE5B6 
 419      E1DCCED3 
 419      CE
 420 0c36 EDA26357 		.ascii	"\355\242cW\224\222\221\344Odx\366-\214\370\336\306+"
 420      949291E4 
ARM GAS  /tmp/cc08we4M.s 			page 33


 420      4F6478F6 
 420      2D8CF8DE 
 420      C62B
 421 0c48 BC873097 		.ascii	"\274\2070\227q\237\334\200\371\006dd\013\346oc\376."
 421      719FDC80 
 421      F9066464 
 421      0BE66F63 
 421      FE2E
 422 0c5a E63B31FF 		.ascii	"\346;1\377\006\363sv|\365\353\311\213\277\260\037w\223"
 422      06F37376 
 422      7CF5EBC9 
 422      8BBFB01F 
 422      7793
 423 0c6c EDF6AA5E 		.ascii	"\355\366\252^_)?\261\373I\247w\362\317\304W\253oM\346"
 423      5F293FB1 
 423      FB49A777 
 423      F2CFC457 
 423      AB6F4DE6 
 424 0c80 E0FDEDCE 		.ascii	"\340\375\355\316\036+U\257\216\302\033\372\260\3519"
 424      1E2B55AF 
 424      8EC21BFA 
 424      B0E939
 425 0c8f 4971C7B0 		.ascii	"Iq\307\260a\356\034\226D\024\375\230&\364\350\003\224"
 425      61EE1C96 
 425      4414FD98 
 425      26F4E803 
 425      94
 426 0ca0 77B16ADB 		.ascii	"w\261j\333\211\032B\216JR\263\273\037\226t\357x\260"
 426      891A428E 
 426      4A52B3BB 
 426      1F9674EF 
 426      78B0
 427 0cb2 8595DC5B 		.ascii	"\205\225\334[\334\311\367\275\271\336d!;\241[s\214,"
 427      DCC9F7BD 
 427      B9DE6421 
 427      3BA15B73 
 427      8C2C
 428 0cc4 E8464DE3 		.ascii	"\350FM\343\362`\231\353\370\241\235\225\233s\0151\031"
 428      F26099EB 
 428      F8A19D95 
 428      9B730D31 
 428      19
 429 0cd5 0943AC68 		.ascii	"\011C\254hz\312M\251v\263\035\011\246x\233\374}\220"
 429      7ACA4DA9 
 429      76B31D09 
 429      A6789BFC 
 429      7D90
 430 0ce7 ACD80492 		.ascii	"\254\330\004\222cZ\035c\371,l\204\321\377p\223gW\243"
 430      635A1D63 
 430      F92C6C84 
 430      D1FF7093 
 430      6757A3
 431 0cfa 993C8B06 		.ascii	"\231<\213\006\262\021\363m\230?\201\026=\017\363\005"
 431      B211F36D 
 431      983F8116 
 431      3D0FF305 
 432 0d0a 98B7D2D6 		.ascii	"\230\267\322\326}=\263Ln\213\307\273~<\377\0109h\223"
ARM GAS  /tmp/cc08we4M.s 			page 34


 432      7D3DB34C 
 432      6E8BC7BB 
 432      7E3CFF08 
 432      396893
 433 0d1d BBBB1F63 		.ascii	"\273\273\037c\256b\026\250\223'\263\222r\354m%\251\247"
 433      AE6216A8 
 433      9327B392 
 433      72EC6D25 
 433      A9A7
 434 0d2f DD5761C9 		.ascii	"\335Wa\311\245\374\342 m0\221\270n<:\251\372\373;O\337"
 434      A5FCE220 
 434      6D3091B8 
 434      6E3C3AA9 
 434      FAFB3B4F 
 435 0d44 804723CB 		.ascii	"\200G#\313\334$\226x\253O\372XB\007C\350X\3416\304\022"
 435      DC249678 
 435      AB4FFA58 
 435      420743E8 
 435      58E136C4 
 436 0d59 9DE427AC 		.ascii	"\235\344'\254\2446\375\313\322\356\225\344\246\270\366"
 436      A436FDCB 
 436      D2EE95E4 
 436      A6B8F6
 437 0d68 93DADD38 		.ascii	"\223\332\3358<\351\251\016&\353~/\233n\027 \307\346"
 437      3CE9A90E 
 437      26EB7E2F 
 437      9B6E1720 
 437      C7E6
 438 0d7a 5DF2C8B3 		.ascii	"]\362\310\263s5{Y\223\247\234\035\251M{l\375W;6\230"
 438      73357B59 
 438      93A79C1D 
 438      A94D7B6C 
 438      FD573B36 
 439 0d8f 672D0C46 		.ascii	"g-\014F\373\235\033\307\0340\262\240\0335\315\022\005"
 439      FB9D1BC7 
 439      1C30B2A0 
 439      1B35CD12 
 439      05
 440 0da0 1CB49C6D 		.ascii	"\034\264\234mu\241D\006e\223\273\333F4Gq\253\034\233"
 440      75A14406 
 440      6593BBDB 
 440      46344771 
 440      AB1C9B
 441 0db3 FF014B0C 		.ascii	"\377\001K\014\000\261\216\333\301\262\214X\345\330\302"
 441      00B18EDB 
 441      C1B28C58 
 441      E5D8C2
 442 0dc2 0E8FDCA8 		.ascii	"\016\217\334\250\311\266mDk\032;^\353X\270/[\010W;C"
 442      C9B66D44 
 442      6B1A3B5E 
 442      EB58B82F 
 442      5B08573B 
 443 0dd7 E398D38E 		.ascii	"\343\230\323\216Y\320\213\2435\243\265@S\016\003\375"
 443      59D08BA3 
 443      35A3B540 
 443      530E03FD 
 444 0de7 FA335D42 		.ascii	"\3723]B\316z\307\014l\260`\240O\202\201\013=\024\334"
ARM GAS  /tmp/cc08we4M.s 			page 35


 444      CE7AC70C 
 444      6CB060A0 
 444      4F82810B 
 444      3D14DC
 445 0dfa EC28D9EC 		.ascii	"\354(\331\354\235\217\331\2076=\236\375\213\2338\241"
 445      9D8FD987 
 445      363D9EFD 
 445      8B9B38A1 
 446 0e0a 67D0CDAC 		.ascii	"g\320\315\254\302\3749\314_\300\374%\314\327\331\011"
 446      C2FC39CC 
 446      5FC0FC25 
 446      CCD7D909 
 447 0e1a 2E96263D 		.ascii	".\226&=\260\352Z\022+t\342Y\275\302\301\263\367%O8a"
 447      B0EA5A12 
 447      2B74E259 
 447      BDC2C1B3 
 447      F7254F38 
 448 0e2f DD34B88F 		.ascii	"\3354\270\217\033\230gd\271\2318\270\375d\3674Z\301"
 448      1B986764 
 448      B99938B8 
 448      FD64F734 
 448      5AC1
 449 0e41 E698197D 		.ascii	"\346\230\031}\361U\251\373zS\032T\012\224\316\362fa"
 449      F155A9FB 
 449      7A531A54 
 449      0A94CEF2 
 449      6661
 450 0e53 B4323CC7 		.ascii	"\2642<\307\314J\323\015\211T\273]|`\200\266\335m2v3"
 450      CC4AD30D 
 450      8954BB5D 
 450      7C6080B6 
 450      DD6D3276 
 451 0e68 5C9B5279 		.ascii	"\\\233Ry\371\015\263\212\314\363\313\215\015}\335\212"
 451      F90DB38A 
 451      CCF3CB8D 
 451      0D7DDD8A 
 452 0e78 E365528C 		.ascii	"\343eR\214\246\312j\263[\367\237\004\024\217\036k\022"
 452      A6CA6AB3 
 452      5BF79F04 
 452      148F1E6B 
 452      12
 453 0e89 DAE57310 		.ascii	"\332\345s\020\0048p\3461\2753Wd\240>x\230\031\312\217"
 453      043870E6 
 453      31BD3357 
 453      64A03E78 
 453      9819CA8F 
 454 0e9d DAE4A9EC 		.ascii	"\332\344\251\354#\214)\027\311\213b\020\212\271=d\223"
 454      238C2917 
 454      C98B6210 
 454      8AB93D64 
 454      93
 455 0eae DF97B5D2 		.ascii	"\337\227\265\322\032\322@S\000\245\254\225X\306dV\227"
 455      1AD24053 
 455      00A5AC95 
 455      58C66456 
 455      97
 456 0ebf F7359B55 		.ascii	"\3675\233U\2713\250\316'\317n\305\220m\273\255\371|"
ARM GAS  /tmp/cc08we4M.s 			page 36


 456      B933A8CE 
 456      27CF6EC5 
 456      906DBBAD 
 456      F97C
 457 0ed1 9A4C8C42 		.ascii	"\232L\214B\342\013\010\274\335rbT:\315'\306j4\225\203"
 457      E20B08BC 
 457      DD726254 
 457      3ACD27C6 
 457      6A349583 
 458 0ee5 1DA613F3 		.ascii	"\035\246\023\363\252\363\211y\337lb\014\022\332`.\241"
 458      AAF38979 
 458      DF6C620C 
 458      12DA602E 
 458      A1
 459 0ef6 2EA38476 		.ascii	".\243\204v\247\226\220\025\253V\335T\012\367\230\262"
 459      A7969015 
 459      AB56DD54 
 459      0AF798B2 
 460 0f06 7ACE39AB 		.ascii	"z\3169\253\007R\350 \317\016\325{\000\345\321 \210\230"
 460      0752E820 
 460      CF0ED57B 
 460      00E5D120 
 460      8898
 461 0f18 B920F60B 		.ascii	"\271 \366\013\006A\354\267\245*\035\244\333Pb\371\307"
 461      0641ECB7 
 461      A52A1DA4 
 461      DB5062F9 
 461      C7
 462 0f29 11D7BAD7 		.ascii	"\021\327\272\327P\312_\354\310mb\325n\247lt\263\022"
 462      50CA5FEC 
 462      C86D62D5 
 462      6EA76C74 
 462      B312
 463 0f3b BA552F55 		.ascii	"\272U/UV\207{\012=\336\024_y\340\011\231m\232\032\357"
 463      56877B0A 
 463      3DDE145F 
 463      79E00999 
 463      6D9A1AEF 
 464 0f4f EEBEDE81 		.ascii	"\356\276\336\201\334?K\021\310)\241\221U\317\270\211"
 464      DC3F4B11 
 464      C829A191 
 464      55CFB889 
 465 0f5f AB56DD59 		.ascii	"\253V\335Y\032W\375\235a\2464\276\376j\306W\254\353"
 465      1A57FD9D 
 465      61A634BE 
 465      FE6AC657 
 465      ACEB
 466 0f71 88155F16 		.ascii	"\210\025_\026\277\376!P'\214\352\024\247\325\311bEI"
 466      BFFE2150 
 466      278CEA14 
 466      A7D5C962 
 466      4549
 467 0f83 3CABFB00 		.ascii	"<\253\373\000\313\3479n\272\275Af\3246\251\007Yg\335"
 467      CBE7396E 
 467      BABD4166 
 467      D436A907 
 467      5967DD
ARM GAS  /tmp/cc08we4M.s 			page 37


 468 0f96 F43B5383 		.ascii	"\364;S\203X\036\357g.\226"
 468      581EEF67 
 468      2E96
 469 0fa0 6F4CC5D2 		.ascii	"oL\305\322\375Io\246\373\\J\271\250N\317@\327b\013\272"
 469      FD496FA6 
 469      FB5C4AB9 
 469      A84ECF40 
 469      D7620BBA 
 470 0fb4 BE35A5AB 		.ascii	"\2765\245\253\351\204\354ql\375\035)\3112\212?\335t"
 470      E984EC71 
 470      6CFD1D29 
 470      C9328A3F 
 470      DD74
 471 0fc6 996BDD73 		.ascii	"\231k\335s\026lt\232Z\323\3027N\017o]/O\237%_\356~\214"
 471      166C749A 
 471      5AD3C237 
 471      4E0F6F5D 
 471      2F4F9F25 
 472 0fde B5AF785D 		.ascii	"\265\257x]FN\210\256\030(\331fAI\267\236\222\177aV\310"
 472      464E88AE 
 472      1828D966 
 472      4149B79E 
 472      927F6156 
 473 0ff3 F2018860 		.ascii	"\362\001\210`\026\015\\(\307\246\312\362O"
 473      160D5C28 
 473      C7A6CAF2 
 473      4F
 474 1000 DDDD2CAB 		.ascii	"\335\335,\253E\026;\023 f\013\030\201\233\232\241\300"
 474      45163B13 
 474      20660B18 
 474      819B9AA1 
 474      C0
 475 1011 4D641322 		.ascii	"Md\023\"1\250*\211\223\255\030\231\226\221PUC\257\365"
 475      31A82A89 
 475      93AD1899 
 475      96915055 
 475      43AFF5
 476 1024 297AD55B 		.ascii	")z\325[\366\"\026i\325k\272e\257\346\024c5X\366\372"
 476      F6221669 
 476      D56BBA65 
 476      AFE61463 
 476      3558F6FA 
 477 1038 2CC5588D 		.ascii	",\305X\215\226\275\316\245\3505#\331\313\"\210\037\240"
 477      96BDCEA5 
 477      E83523D9 
 477      CB22881F 
 477      A0
 478 1049 DF32F0EC 		.ascii	"\3372\360\354\314\014\2471\374\254\014\363\030^\323"
 478      CC0CA731 
 478      FCAC0CF3 
 478      185ED3
 479 1058 0A1529D6 		.ascii	"\012\025)\326(\317d\247\256\2736\021\215\215\320\032"
 479      28CF64A7 
 479      AEBB3611 
 479      8D8DD01A 
 480 1068 D2BF6CDE 		.ascii	"\322\277l\336\261G\273\215;;\203@\3547(\235\003\260"
 480      B147BB8D 
ARM GAS  /tmp/cc08we4M.s 			page 38


 480      3B3B8340 
 480      EC37289D 
 480      03B0
 481 107a B696D9D7 		.ascii	"\266\226\331\327\222\003\3729\010t\324\000\304\263\036"
 481      9203FA39 
 481      0874D400 
 481      C4B31E
 482 1089 C3F99447 		.ascii	"\303\371\224G\177>\345Qn\307\342G\271\035\353Q\016\252"
 482      7F3EE551 
 482      6EC7E247 
 482      B91DEB51 
 482      0EAA
 483 109b C8E731E6 		.ascii	"\310\3471\346g\3655LaW\212)l\262\234\370\216\024\275"
 483      67F5354C 
 483      61578A29 
 483      6CB29CF8 
 483      8E14BD
 484 10ae E659F622 		.ascii	"\346Y\366\"\363k\325\2539\331\213\271\262D\014M\026"
 484      F36BD5AB 
 484      39D98BB9 
 484      B2440C4D 
 484      16
 485 10bf C4687EA8 		.ascii	"\304h~\250(\340\217\0125\321\2608\250\222\311\031ST"
 485      28E08F0A 
 485      35D1B038 
 485      A892C919 
 485      5354
 486 10d1 5C860F7E 		.ascii	"\\\206\017~)\363\356\361\367\371\212\231>\311\252\250"
 486      29F3EEF1 
 486      F7F98A99 
 486      3EC9AAA8 
 487 10e1 C44B8267 		.ascii	"\304K\202g\314\370\221\305\345c\3768\312=\246d\354("
 487      CCF891C5 
 487      E563FE38 
 487      CA3DA664 
 487      EC28
 488 10f3 F79DF795 		.ascii	"\367\235\367\225\335\237\201\177\270!\2776*\346\363"
 488      DD9F817F 
 488      B821BF36 
 488      2AE6F3
 489 1102 62F5CD35 		.ascii	"b\365\3155\341\032\341f\201\177(\224\037\252\011T\325"
 489      E11AE166 
 489      817F2894 
 489      1FAA0954 
 489      D5
 490 1113 0685FCA8 		.ascii	"\006\205\374\250\024\014\325H0@V-|\017\363KCR4\256\346"
 490      140CD548 
 490      3040562D 
 490      7C0FF34B 
 490      435234AE 
 491 1128 0395A11A 		.ascii	"\003\225\241\032!\337\037\024*\370\332*\311/M\211\010"
 491      21DF1F14 
 491      2AF8DA2A 
 491      C92F4D89 
 491      08
 492 1139 51E8ECF5 		.ascii	"Q\350\354\365\373\325\356Y|0(\012\321hI~e\270Z\310\017"
 492      FBD5EE59 
ARM GAS  /tmp/cc08we4M.s 			page 39


 492      7C30280A 
 492      D168497E 
 492      65B85AC8 
 493 114e 848353F2 		.ascii	"\204\203S\362\203\302\344|\350\370P(\034\315\227\304"
 493      83C2E47C 
 493      E8F85028 
 493      1CCD97C4 
 494 115e DA9A87F3 		.ascii	"\332\232\207\363\241P\311W\345G\302\242\024\315/+\037"
 494      A150C957 
 494      E547C2A2 
 494      14CD2F2B 
 494      1F
 495 116f 37B8287F 		.ascii	"7\270(\177\354\330\222|`hr!\362]U\025$\260P\241H\243"
 495      ECD8927C 
 495      60687221 
 495      F25D5515 
 495      24B050A1 
 496 1185 C80E9C46 		.ascii	"\310\016\234F&\000@\347l\370B\366\375R6\340\370\357"
 496      260040E7 
 496      6CF842F6 
 496      FD5236E0 
 496      F8EF
 497 1197 1B3F66FC 		.ascii	"\033?f\374\230r\017)\226\225O\270\227`\373KG\215,\271"
 497      98720F29 
 497      96954FB8 
 497      9760FB4B 
 497      478D2CB9 
 498 11ab FF57A4A4 		.ascii	"\377W\244\244H\316_>\221~*\235\210=\307N(\276gTI\016"
 498      48CE5F3E 
 498      917E2A9D 
 498      883DC74E 
 498      28BE6754 
 499 11c1 E08523D5 		.ascii	"\340\205#\325\341 \001\234p\357\270\011%\243\374\360"
 499      E120019C 
 499      70EFB809 
 499      25A3FCF0 
 500 11d1 D72BD462 		.ascii	"\327+\324b\3318\020\270\277d\324\037\307\024\217\352"
 500      D93810B8 
 500      BF64D41F 
 500      C7148FEA 
 501 11e1 A7AB1B3D 		.ascii	"\247\253\033=\241\254<+\034\361\223\256\036\"\246\301"
 501      A1AC3C2B 
 501      1CF193AE 
 501      1E22A6C1 
 502 11f1 4580A048 		.ascii	"E\200\240H\214\024s\002U\341\300\303\376hD\020\202y"
 502      8C147302 
 502      55E1C0C3 
 502      FE684410 
 502      8279
 503 1203 3048B056 		.ascii	"0H\260V\232\022\230\022\250\202q\362\312\312K\374%\367"
 503      9A129812 
 503      A88271F2 
 503      CACA4BFC 
 503      25F7
 504 1215 95DFEF2F 		.ascii	"\225\337\357/\276\277x\354\250~w\215,+\247\236\375E"
 504      BEBF78EC 
 504      A87E778D 
ARM GAS  /tmp/cc08we4M.s 			page 40


 504      2C2BA79E 
 504      FD45
 505 1227 FF60AC29 		.ascii	"\377`\254)\034\352\277-\233 \370\021\202pY\034\256\251"
 505      1CEABF2D 
 505      9B20F811 
 505      8270591C 
 505      AEA9
 506 1239 084DCA0C 		.ascii	"\010M\312\014\340\027\221JE\025?)\012j$\210bX\214\016"
 506      E017914A 
 506      45153F29 
 506      0A6A2488 
 506      62588C0E 
 507 124d 4E275A51 		.ascii	"N'ZQJH6PY-\325\021e\251\256\225\204:\277\224\201\337"
 507      4A483650 
 507      592DD511 
 507      65A9AE95 
 507      843ABF94 
 508 1263 C31C2144 		.ascii	"\303\034!D\247D5\265\351#U\212\002\037\214\372\037\251"
 508      A74435B5 
 508      E923558A 
 508      021F8CFA 
 508      1FA9
 509 1275 156A81DD 		.ascii	"\025j\201\335\276\201J\277\256j\2103\344@%\321\032\217"
 509      BE814ABF 
 509      AE6A8833 
 509      E44025D1 
 509      1A8F
 510 1287 02E197BC 		.ascii	"\002\341\227\274\011\270\314\210\277F\250\223\340+\""
 510      09B8CC88 
 510      BF46A893 
 510      E02B22
 511 1296 0A9347DB 		.ascii	"\012\223G\333@UTsd\351\270\342qu\320\262:\022\252\""
 511      40555473 
 511      64E9B8E2 
 511      7175D0B2 
 511      3A12AA22 
 512 12aa 36797771 		.ascii	"6ywq14\327\350\317\222\"b(\354WpC\341,\0201\210C\272"
 512      3134D7E8 
 512      CF922262 
 512      28EC5770 
 512      43E12C10 
 513 12c2 CD317E65 		.ascii	"\3151~e ,\012\304\312I\265\037\364\" \325\375{\357P"
 513      202C0AC4 
 513      CA49B51F 
 513      F42220D5 
 513      FD7BEF50 
 514 12d6 FC936FAD 		.ascii	"\374\223o\255&B\020\205I`\304~\311\025-\034\012\351"
 514      26421085 
 514      4960C47E 
 514      C9152D1C 
 514      0AE9
 515 12e8 5648C320 		.ascii	"VH\303 \335\346\212\026\025@*\204T\004i0\244!\220n\201"
 515      DDE68A16 
 515      15402A84 
 515      54046930 
 515      A421906E 
 516 12fd 04ED8AA0 		.ascii	"\004\355\212\240]\021\264+\202v\203\241\335\340BN\034"
ARM GAS  /tmp/cc08we4M.s 			page 41


 516      5D11B42B 
 516      827683A1 
 516      DDE0424E 
 516      1C
 517 130e C289B770 		.ascii	"\302\211\267p\342PN\274\225\023\207q\342m.\261\260\000"
 517      E2504EBC 
 517      95138771 
 517      E26D2EB1 
 517      B000
 518 1320 52215725 		.ascii	"R!W%\302\327\340\214\210\037\250\315\"\022~T\020\341"
 518      C2D7E08C 
 518      881FA8CD 
 518      22127E54 
 518      10E1
 519 1332 3B5C1514 		.ascii	";\\\025\024Dw\240\222\027\211\330\371j\301#\251v\010"
 519      4477A092 
 519      1789D8F9 
 519      6AC123A9 
 519      7608
 520 1344 7FC45296 		.ascii	"\177\304R\226\244\230\021<\243.fI\242P\021E9\222BFu"
 520      A498113C 
 520      A32E6649 
 520      A2501145 
 520      39924246 
 521 1359 7412FC51 		.ascii	"t\022\374Q5\017\360-j)S\014N\201?y\204\272\220\004b"
 521      350FF02D 
 521      6A29530C 
 521      4E813F79 
 521      84BA9004 
 522 136e 11321F95 		.ascii	"\0212\037\225\302\017\375w$G\230,\324H\325|\364a\242"
 522      C20FFD77 
 522      2447982C 
 522      D448D57C 
 522      F461A2
 523 1381 D38F9282 		.ascii	"\323\217\222\202+\342\257\315\3234\251*\024\005O\325"
 523      2BE2AFCD 
 523      D334A92A 
 523      14054FD5 
 524 1391 87D22D52 		.ascii	"\207\322-R\343\215\370\037\345CR\250fR6\230ft\022\352"
 524      E38DF81F 
 524      E54352A8 
 524      66523698 
 524      667412EA 
 525 13a5 5B0616A1 		.ascii	"[\006\026\241B\210\0105\340\030'A+\320x\322>\233\320"
 525      42880835 
 525      E0182741 
 525      2BD078D2 
 525      3E9BD0
 526 13b8 C657E13C 		.ascii	"\306W\341<Ce$\034\256\312\252V\264\024\276\303\217\326"
 526      4365241C 
 526      AECAAA56 
 526      B414BEC3 
 526      8FD6
 527 13ca 08626635 		.ascii	"\010bf5j\331\255\216\224V\245\011\246\254\277\252\267"
 527      6AD9AD8E 
 527      9456A509 
 527      A6ACBFAA 
ARM GAS  /tmp/cc08we4M.s 			page 42


 527      B7
 528 13db 20024114 		.ascii	" \002A\024j\002 \240L\245\312\013FK\374\252_B\377\001"
 528      6A0220A0 
 528      4CA5CA0B 
 528      464BFCAA 
 528      5F42FF01 
 529 13ef 36AEF90F 		.ascii	"6\256\371\017Rt\223?y\305\272`5O\304\352\225\264\322"
 529      5274933F 
 529      79C5BA60 
 529      354FC4EA 
 529      95B4D2
 530 1402 5D4E7D30 		.ascii	"]N}0\346w\015\251\253\203e\241\032$\0168@\327\355\351"
 530      E6770DA9 
 530      AB8365A1 
 530      1A240E38 
 530      40D7EDE9 
 531 1416 6080E7FC 		.ascii	"`\200\347\374\342qec\312\000@\351Y1\244\240\260\216"
 531      E2716563 
 531      CA0040E9 
 531      5931A4A0 
 531      B08E
 532 1428 38E1FE25 		.ascii	"8\341\376%\343F\372\313`z\371j\1779XM\211P\301\025\227"
 532      E346FACB 
 532      607AF96A 
 532      7F39584D 
 532      8950C115 
 533 143d BAC79794 		.ascii	"\272\307\227\224\227\272\356\035Y\352\036W@\262\302"
 533      97BAEE1D 
 533      59EA1E57 
 533      40B2C2
 534 144c 91A5AEBB 		.ascii	"\221\245\256\273\212K3\243\330\320\035\252\010\210\231"
 534      8A4B33A3 
 534      D8D01DAA 
 534      088899
 535 145b A16865A8 		.ascii	"\241he\250B\362F\205\252\212PMP\250\313\234,\004\244"
 535      42F24685 
 535      AA8A504D 
 535      50A8CB9C 
 535      2C04A4
 536 146e B0D83F41 		.ascii	"\260\330?A\231_i\015N\010\036\304:\222Kud\231\324\006"
 536      995F690D 
 536      4E081EC4 
 536      3A924B75 
 536      6499D406 
 537 1482 72159716 		.ascii	"r\025\227\026B*rO\030YZH\262\"\256\244\324U\006\225"
 537      422A724F 
 537      18595A48 
 537      B222AEA4 
 537      D4550695 
 538 1496 65A545AE 		.ascii	"e\245E\256\342\342\322\214\362\3221e\243\334w\215\005"
 538      E2E2D28C 
 538      F2D23165 
 538      A3DC778D 
 538      05
 539 14a7 6240C25E 		.ascii	"b@\302^\342\231B\325D/\311W\270Vr\023\355\315\220\352"
 539      E29942D5 
 539      442FC957 
ARM GAS  /tmp/cc08we4M.s 			page 43


 539      B8567213 
 539      EDCD90EA 
 540 14bb EEACADC8 		.ascii	"\356\254\255\310\020I\336O[\233\253\243\267\014-\270"
 540      1049DE4F 
 540      5B9BABA3 
 540      B70C2DB8 
 541 14cb 75508031 		.ascii	"uP\2001\326\200\345)%\230<e\361v\005\370*O\025\037\225"
 541      D680E529 
 541      25983C65 
 541      F17605F8 
 541      2A4F151F 
 542 14e0 CA85EA88 		.ascii	"\312\205\352\210\227\024\356%\013\244\007aa\246=\242"
 542      9714EE25 
 542      0BA40761 
 542      61A63DA2 
 543 14f0 5AC8513B 		.ascii	"Z\310Q;\206jB\022[\235\031D`\317C|T\030\011\023\234"
 543      866A4212 
 543      5B9D1944 
 543      60CF437C 
 543      54180913 
 544 1505 E1BF1354 		.ascii	"\341\277\023TNk\023\225\302\221,\222\001\277\271j\035"
 544      4E6B1395 
 544      C2912C92 
 544      01BFB96A 
 544      1D
 545 1516 A00AD275 		.ascii	"\240\012\322u\211\007>\210\343\324\212\002\031X\020"
 545      89073E88 
 545      E3D48A02 
 545      195810
 546 1525 79098A9E 		.ascii	"y\011\212\236\210Z\227#%+\257\242b\013\221\257\211\362"
 546      885A9723 
 546      252BAFA2 
 546      620B91AF 
 546      89F2
 547 1537 01C9FF50 		.ascii	"\001\311\377PmE^\262\232\220\224G\207\033\341H\377\236"
 547      6D455EB2 
 547      9A909447 
 547      871BE148 
 547      FF9E
 548 1549 9DB20395 		.ascii	"\235\262\003\225\345\225\301\262*A\210x\011\357\305"
 548      E595C1B2 
 548      2A418878 
 548      09EFC5
 549 1558 E1DA1A34 		.ascii	"\341\332\0324\343\241C43&\245\377\003\307\010X\253"
 549      E3A14334 
 549      3326A5FF 
 549      03C70858 
 549      AB
 550              		.text
 551              		.section	.gnu.lto_.symtab.8bc2f57ba27af434,"",%progbits
 552 0000 6D733536 		.ascii	"ms5607_init\000\000\000\000\000\000\000\000\000\000"
 552      30375F69 
 552      6E697400 
 552      00000000 
 552      00000000 
 553 0015 00001A02 		.ascii	"\000\000\032\002\000\000ms5607_stop\000\000\000\000"
 553      00006D73 
ARM GAS  /tmp/cc08we4M.s 			page 44


 553      35363037 
 553      5F73746F 
 553      70000000 
 554 002a 00000000 		.ascii	"\000\000\000\000\000\000\000\000?\002\000\000ms5607"
 554      00000000 
 554      3F020000 
 554      6D733536 
 554      3037
 555 003c 5F726573 		.ascii	"_reset\000\000\000\000\000\000\000\000\000\000\000\000"
 555      65740000 
 555      00000000 
 555      00000000 
 555      0000
 556 004e 4B020000 		.ascii	"K\002\000\000ms5607_readPressureTemperature\000\000"
 556      6D733536 
 556      30375F72 
 556      65616450 
 556      72657373 
 557 0072 00000000 		.ascii	"\000\000\000\000\000\000\000\000\000\000Q\002\000\000"
 557      00000000 
 557      00005102 
 557      0000
 558 0080 49324353 		.ascii	"I2CSensor_transact_buf\000\000\002\000\000\000\000\000"
 558      656E736F 
 558      725F7472 
 558      616E7361 
 558      63745F62 
 559 009e 00000000 		.ascii	"\000\000\000\000]\002\000\000I2CSensor_init\000\000"
 559      5D020000 
 559      49324353 
 559      656E736F 
 559      725F696E 
 560 00b6 02000000 		.ascii	"\002\000\000\000\000\000\000\000\000\000d\002\000\000"
 560      00000000 
 560      00006402 
 560      0000
 561 00c4 49324353 		.ascii	"I2CSensor_stop\000\000\002\000\000\000\000\000\000\000"
 561      656E736F 
 561      725F7374 
 561      6F700000 
 561      02000000 
 562 00dc 00006F02 		.ascii	"\000\000o\002\000\000I2CSensor_transact\000\000\002"
 562      00004932 
 562      4353656E 
 562      736F725F 
 562      7472616E 
 563 00f7 00000000 		.ascii	"\000\000\000\000\000\000\000\000\000t\002\000\000ch"
 563      00000000 
 563      00740200 
 563      006368
 564 0106 54686453 		.ascii	"ThdSleep\000\000\002\000\000\000\000\000\000\000\000"
 564      6C656570 
 564      00000200 
 564      00000000 
 564      000000
 565 0119 007C0200 		.ascii	"\000|\002\000\000"
 565      00
ARM GAS  /tmp/cc08we4M.s 			page 45


 566              		.text
 567              		.section	.gnu.lto_.opts,"",%progbits
 568 0000 272D6D63 		.ascii	"'-mcpu=cortex-m4' '-mfloat-abi=hard' '-mfpu=fpv4-sp"
 568      70753D63 
 568      6F727465 
 568      782D6D34 
 568      2720272D 
 569 0033 2D643136 		.ascii	"-d16' '-mno-thumb-interwork' '-mthumb' '-O2' '-fomi"
 569      2720272D 
 569      6D6E6F2D 
 569      7468756D 
 569      622D696E 
 570 0066 742D6672 		.ascii	"t-frame-pointer' '-falign-functions=16' '-ffunction"
 570      616D652D 
 570      706F696E 
 570      74657227 
 570      20272D66 
 571 0099 2D736563 		.ascii	"-sections' '-fdata-sections' '-fno-common' '-flto' "
 571      74696F6E 
 571      73272027 
 571      2D666461 
 571      74612D73 
 572 00cc 272D6673 		.ascii	"'-fsingle-precision-constant'\000"
 572      696E676C 
 572      652D7072 
 572      65636973 
 572      696F6E2D 
 573              		.text
 574              		.section	.text.ms5607_init,"ax",%progbits
 575              		.align	2
 576              		.p2align 4,,15
 577              		.global	ms5607_init
 578              		.thumb
 579              		.thumb_func
 580              		.type	ms5607_init, %function
 581              	ms5607_init:
 582              		@ args = 0, pretend = 0, frame = 16
 583              		@ frame_needed = 0, uses_anonymous_args = 0
 584 0000 F0B5     		push	{r4, r5, r6, r7, lr}
 585 0002 214B     		ldr	r3, .L5
 586 0004 214E     		ldr	r6, .L5+4
 587 0006 0446     		mov	r4, r0
 588 0008 8E46     		mov	lr, r1
 589 000a 1746     		mov	r7, r2
 590 000c 93E80700 		ldmia	r3, {r0, r1, r2}
 591 0010 89B0     		sub	sp, sp, #36
 592 0012 05AB     		add	r3, sp, #20
 593 0014 03C3     		stmia	r3!, {r0, r1}
 594 0016 3078     		ldrb	r0, [r6]	@ zero_extendqisi2
 595 0018 1A70     		strb	r2, [r3]
 596 001a 4FF0C80C 		mov	ip, #200
 597 001e 04F13803 		add	r3, r4, #56
 598 0022 05AD     		add	r5, sp, #20
 599 0024 7146     		mov	r1, lr
 600 0026 00F1010E 		add	lr, r0, #1
 601 002a 0093     		str	r3, [sp]
 602 002c 0295     		str	r5, [sp, #8]
ARM GAS  /tmp/cc08we4M.s 			page 46


 603 002e 3A46     		mov	r2, r7
 604 0030 0025     		movs	r5, #0
 605 0032 00F13007 		add	r7, r0, #48
 606 0036 CDF804C0 		str	ip, [sp, #4]
 607 003a 2046     		mov	r0, r4
 608 003c 86F800E0 		strb	lr, [r6]
 609 0040 04F13403 		add	r3, r4, #52
 610 0044 8DF81B70 		strb	r7, [sp, #27]
 611 0048 8DF81D50 		strb	r5, [sp, #29]
 612 004c 8DF81E50 		strb	r5, [sp, #30]
 613 0050 FFF7FEFF 		bl	I2CSensor_init
 614 0054 2546     		mov	r5, r4
 615 0056 04F10A07 		add	r7, r4, #10
 616 005a A126     		movs	r6, #161
 617              	.L3:
 618 005c 84F83460 		strb	r6, [r4, #52]
 619 0060 0222     		movs	r2, #2
 620 0062 2046     		mov	r0, r4
 621 0064 0121     		movs	r1, #1
 622 0066 FFF7FEFF 		bl	I2CSensor_transact_buf
 623 006a 94F83820 		ldrb	r2, [r4, #56]	@ zero_extendqisi2
 624 006e 94F83930 		ldrb	r3, [r4, #57]	@ zero_extendqisi2
 625 0072 03EB0223 		add	r3, r3, r2, lsl #8
 626 0076 2B84     		strh	r3, [r5, #32]	@ movhi
 627 0078 0235     		adds	r5, r5, #2
 628 007a 0136     		adds	r6, r6, #1
 629 007c BD42     		cmp	r5, r7
 630 007e F6B2     		uxtb	r6, r6
 631 0080 ECD1     		bne	.L3
 632 0082 0020     		movs	r0, #0
 633 0084 09B0     		add	sp, sp, #36
 634              		@ sp needed
 635 0086 F0BD     		pop	{r4, r5, r6, r7, pc}
 636              	.L6:
 637              		.align	2
 638              	.L5:
 639 0088 00000000 		.word	.LANCHOR0
 640 008c 00000000 		.word	.LANCHOR1
 641              		.size	ms5607_init, .-ms5607_init
 642              		.section	.text.ms5607_stop,"ax",%progbits
 643              		.align	2
 644              		.p2align 4,,15
 645              		.global	ms5607_stop
 646              		.thumb
 647              		.thumb_func
 648              		.type	ms5607_stop, %function
 649              	ms5607_stop:
 650              		@ args = 0, pretend = 0, frame = 0
 651              		@ frame_needed = 0, uses_anonymous_args = 0
 652 0000 08B5     		push	{r3, lr}
 653 0002 FFF7FEFF 		bl	I2CSensor_stop
 654 0006 0020     		movs	r0, #0
 655 0008 08BD     		pop	{r3, pc}
 656              		.size	ms5607_stop, .-ms5607_stop
 657 000a 00BFAFF3 		.section	.text.ms5607_reset,"ax",%progbits
 657      0080
 658              		.align	2
ARM GAS  /tmp/cc08we4M.s 			page 47


 659              		.p2align 4,,15
 660              		.global	ms5607_reset
 661              		.thumb
 662              		.thumb_func
 663              		.type	ms5607_reset, %function
 664              	ms5607_reset:
 665              		@ args = 0, pretend = 0, frame = 0
 666              		@ frame_needed = 0, uses_anonymous_args = 0
 667              		@ link register save eliminated.
 668 0000 1E23     		movs	r3, #30
 669 0002 80F83430 		strb	r3, [r0, #52]
 670 0006 0121     		movs	r1, #1
 671 0008 0022     		movs	r2, #0
 672 000a FFF7FEBF 		b	I2CSensor_transact_buf
 673              		.size	ms5607_reset, .-ms5607_reset
 674 000e 00BF     		.section	.text.ms5607_readPressureTemperature,"ax",%progbits
 675              		.align	2
 676              		.p2align 4,,15
 677              		.global	ms5607_readPressureTemperature
 678              		.thumb
 679              		.thumb_func
 680              		.type	ms5607_readPressureTemperature, %function
 681              	ms5607_readPressureTemperature:
 682              		@ args = 0, pretend = 0, frame = 8
 683              		@ frame_needed = 0, uses_anonymous_args = 0
 684 0000 2DE9F047 		push	{r4, r5, r6, r7, r8, r9, r10, lr}
 685 0004 5823     		movs	r3, #88
 686 0006 84B0     		sub	sp, sp, #16
 687 0008 80F83430 		strb	r3, [r0, #52]
 688 000c 8A46     		mov	r10, r1
 689 000e 9146     		mov	r9, r2
 690 0010 0121     		movs	r1, #1
 691 0012 0022     		movs	r2, #0
 692 0014 8046     		mov	r8, r0
 693 0016 0446     		mov	r4, r0
 694 0018 FFF7FEFF 		bl	I2CSensor_transact_buf
 695 001c 0025     		movs	r5, #0
 696 001e 0746     		mov	r7, r0
 697 0020 9620     		movs	r0, #150
 698 0022 FFF7FEFF 		bl	chThdSleep
 699 0026 04F8345F 		strb	r5, [r4, #52]!
 700 002a 0326     		movs	r6, #3
 701 002c 2146     		mov	r1, r4
 702 002e 0122     		movs	r2, #1
 703 0030 03AB     		add	r3, sp, #12
 704 0032 4046     		mov	r0, r8
 705 0034 0096     		str	r6, [sp]
 706 0036 FFF7FEFF 		bl	I2CSensor_transact
 707 003a 4823     		movs	r3, #72
 708 003c 88F83430 		strb	r3, [r8, #52]
 709 0040 2A46     		mov	r2, r5
 710 0042 0121     		movs	r1, #1
 711 0044 0743     		orrs	r7, r7, r0
 712 0046 4046     		mov	r0, r8
 713 0048 FFF7FEFF 		bl	I2CSensor_transact_buf
 714 004c 0743     		orrs	r7, r7, r0
 715 004e 9620     		movs	r0, #150
ARM GAS  /tmp/cc08we4M.s 			page 48


 716 0050 FFF7FEFF 		bl	chThdSleep
 717 0054 88F83450 		strb	r5, [r8, #52]
 718 0058 2146     		mov	r1, r4
 719 005a 0096     		str	r6, [sp]
 720 005c 4046     		mov	r0, r8
 721 005e 0122     		movs	r2, #1
 722 0060 02AB     		add	r3, sp, #8
 723 0062 FFF7FEFF 		bl	I2CSensor_transact
 724 0066 0743     		orrs	r7, r7, r0
 725 0068 70D1     		bne	.L11
 726 006a 9DF80D10 		ldrb	r1, [sp, #13]	@ zero_extendqisi2
 727 006e 9DF80C40 		ldrb	r4, [sp, #12]	@ zero_extendqisi2
 728 0072 9DF80E00 		ldrb	r0, [sp, #14]	@ zero_extendqisi2
 729 0076 B8F82820 		ldrh	r2, [r8, #40]
 730 007a B8F82A30 		ldrh	r3, [r8, #42]
 731 007e 0902     		lsls	r1, r1, #8
 732 0080 01EB0441 		add	r1, r1, r4, lsl #16
 733 0084 0144     		add	r1, r1, r0
 734 0086 A1EB0221 		sub	r1, r1, r2, lsl #8
 735 008a 01FB03F3 		mul	r3, r1, r3
 736 008e AB42     		cmp	r3, r5
 737 0090 67DB     		blt	.L24
 738              	.L12:
 739 0092 B8F82450 		ldrh	r5, [r8, #36]
 740 0096 B8F82040 		ldrh	r4, [r8, #32]
 741 009a 9DF80920 		ldrb	r2, [sp, #9]	@ zero_extendqisi2
 742 009e 9DF80870 		ldrb	r7, [sp, #8]	@ zero_extendqisi2
 743 00a2 9DF80A60 		ldrb	r6, [sp, #10]	@ zero_extendqisi2
 744 00a6 01FB05F5 		mul	r5, r1, r5
 745 00aa 002D     		cmp	r5, #0
 746 00ac B8BF     		it	lt
 747 00ae 7F35     		addlt	r5, r5, #127
 748 00b0 DB15     		asrs	r3, r3, #23
 749 00b2 2404     		lsls	r4, r4, #16
 750 00b4 1202     		lsls	r2, r2, #8
 751 00b6 04EBE514 		add	r4, r4, r5, asr #7
 752 00ba 02EB0742 		add	r2, r2, r7, lsl #16
 753 00be 03F5FA60 		add	r0, r3, #2000
 754 00c2 03FB03F3 		mul	r3, r3, r3
 755 00c6 3244     		add	r2, r2, r6
 756 00c8 5B00     		lsls	r3, r3, #1
 757 00ca E517     		asrs	r5, r4, #31
 758 00cc E41A     		subs	r4, r4, r3
 759 00ce 65EBE375 		sbc	r5, r5, r3, asr #31
 760 00d2 D717     		asrs	r7, r2, #31
 761 00d4 04FB07F3 		mul	r3, r4, r7
 762 00d8 02FB0535 		mla	r5, r2, r5, r3
 763 00dc A4FB0223 		umull	r2, r3, r4, r2
 764 00e0 2B44     		add	r3, r3, r5
 765 00e2 002A     		cmp	r2, #0
 766 00e4 73F10004 		sbcs	r4, r3, #0
 767 00e8 41DB     		blt	.L25
 768              	.L14:
 769 00ea 540D     		lsrs	r4, r2, #21
 770 00ec 44EAC324 		orr	r4, r4, r3, lsl #11
 771 00f0 5D15     		asrs	r5, r3, #21
 772 00f2 2646     		mov	r6, r4
ARM GAS  /tmp/cc08we4M.s 			page 49


 773 00f4 2F46     		mov	r7, r5
 774 00f6 002E     		cmp	r6, #0
 775 00f8 77F10003 		sbcs	r3, r7, #0
 776 00fc 2ADB     		blt	.L26
 777              	.L15:
 778 00fe F40B     		lsrs	r4, r6, #15
 779 0100 44EA4744 		orr	r4, r4, r7, lsl #17
 780 0104 07EE904A 		fmsr	s15, r4	@ int
 781 0108 9FED1C7A 		flds	s14, .L27
 782 010c B8EEE76A 		fsitos	s12, s15
 783 0110 01FB01F1 		mul	r1, r1, r1
 784 0114 A0EBD171 		sub	r1, r0, r1, lsr #31
 785 0118 FBEE047A 		fconsts	s15, #180
 786 011c E6EE077A 		vfma.f32	s15, s12, s14
 787 0120 06EE101A 		fmsr	s12, r1	@ int
 788 0124 F8EEC66A 		fsitos	s13, s12
 789 0128 C8ED0C7A 		fsts	s15, [r8, #48]
 790 012c 26EE877A 		fmuls	s14, s13, s14
 791 0130 88ED0B7A 		fsts	s14, [r8, #44]
 792 0134 BAF1000F 		cmp	r10, #0
 793 0138 01D0     		beq	.L16
 794 013a CAED007A 		fsts	s15, [r10]
 795              	.L16:
 796 013e B9F1000F 		cmp	r9, #0
 797 0142 03D0     		beq	.L11
 798 0144 D8F82C30 		ldr	r3, [r8, #44]	@ float
 799 0148 C9F80030 		str	r3, [r9]	@ float
 800              	.L11:
 801 014c 0020     		movs	r0, #0
 802 014e 04B0     		add	sp, sp, #16
 803              		@ sp needed
 804 0150 BDE8F087 		pop	{r4, r5, r6, r7, r8, r9, r10, pc}
 805              	.L26:
 806 0154 47F6FF72 		movw	r2, #32767
 807 0158 0023     		movs	r3, #0
 808 015a A618     		adds	r6, r4, r2
 809 015c 45EB0307 		adc	r7, r5, r3
 810 0160 CDE7     		b	.L15
 811              	.L24:
 812 0162 03F5FF03 		add	r3, r3, #8355840
 813 0166 03F5FF43 		add	r3, r3, #32640
 814 016a 7F33     		adds	r3, r3, #127
 815 016c 91E7     		b	.L12
 816              	.L25:
 817 016e 044C     		ldr	r4, .L27+4
 818 0170 0025     		movs	r5, #0
 819 0172 1219     		adds	r2, r2, r4
 820 0174 43EB0503 		adc	r3, r3, r5
 821 0178 B7E7     		b	.L14
 822              	.L28:
 823 017a 00BF     		.align	2
 824              	.L27:
 825 017c 0AD7233C 		.word	1008981770
 826 0180 FFFF1F00 		.word	2097151
 827              		.size	ms5607_readPressureTemperature, .-ms5607_readPressureTemperature
 828 0184 AFF30080 		.section	.rodata
 828      AFF30080 
ARM GAS  /tmp/cc08we4M.s 			page 50


 828      AFF30080 
 829              		.align	2
 830              		.set	.LANCHOR0,. + 0
 831              	.LC0:
 832 0000 4D533536 		.ascii	"MS5607-X\000"
 832      30372D58 
 832      00
 833 0009 0000     		.space	2
 834 000b 00       		.section	.bss.sensCount,"aw",%nobits
 835              		.set	.LANCHOR1,. + 0
 836              		.type	sensCount, %object
 837              		.size	sensCount, 1
 838              	sensCount:
 839 0000 00       		.space	1
 840              		.comm	__gnu_lto_v1,1,1
 841              		.ident	"GCC: (GNU Tools for ARM Embedded Processors) 4.8.4 20140526 (release) [ARM/embedded-4_8-br
ARM GAS  /tmp/cc08we4M.s 			page 51


DEFINED SYMBOLS
                            *ABS*:0000000000000000 ms5607.c
     /tmp/cc08we4M.s:575    .text.ms5607_init:0000000000000000 $t
     /tmp/cc08we4M.s:581    .text.ms5607_init:0000000000000000 ms5607_init
     /tmp/cc08we4M.s:639    .text.ms5607_init:0000000000000088 $d
     /tmp/cc08we4M.s:643    .text.ms5607_stop:0000000000000000 $t
     /tmp/cc08we4M.s:649    .text.ms5607_stop:0000000000000000 ms5607_stop
     /tmp/cc08we4M.s:658    .text.ms5607_reset:0000000000000000 $t
     /tmp/cc08we4M.s:664    .text.ms5607_reset:0000000000000000 ms5607_reset
     /tmp/cc08we4M.s:675    .text.ms5607_readPressureTemperature:0000000000000000 $t
     /tmp/cc08we4M.s:681    .text.ms5607_readPressureTemperature:0000000000000000 ms5607_readPressureTemperature
     /tmp/cc08we4M.s:825    .text.ms5607_readPressureTemperature:000000000000017c $d
     /tmp/cc08we4M.s:829    .rodata:0000000000000000 $d
     /tmp/cc08we4M.s:838    .bss.sensCount:0000000000000000 sensCount
     /tmp/cc08we4M.s:839    .bss.sensCount:0000000000000000 $d
                            *COM*:0000000000000001 __gnu_lto_v1
     /tmp/cc08we4M.s:828    .text.ms5607_readPressureTemperature:0000000000000184 $t

UNDEFINED SYMBOLS
I2CSensor_init
I2CSensor_transact_buf
I2CSensor_stop
chThdSleep
I2CSensor_transact
