ARM GAS  /tmp/ccANXSdL.s 			page 1


   1              		.syntax unified
   2              		.cpu cortex-m4
   3              		.eabi_attribute 27, 3
   4              		.eabi_attribute 28, 1
   5              		.fpu fpv4-sp-d16
   6              		.eabi_attribute 20, 1
   7              		.eabi_attribute 21, 1
   8              		.eabi_attribute 23, 3
   9              		.eabi_attribute 24, 1
  10              		.eabi_attribute 25, 1
  11              		.eabi_attribute 26, 1
  12              		.eabi_attribute 30, 2
  13              		.eabi_attribute 34, 1
  14              		.eabi_attribute 18, 4
  15              		.thumb
  16              		.file	"ms5607.c"
  17              		.section	.gnu.lto_.jmpfuncs.f6b580b975e7f808,"",%progbits
  18 0000 789CAD8D 		.ascii	"x\234\255\215\321\021\2000\010CIZ\217\025]\241\013t"
  18      D1118030 
  18      0843495A 
  18      8F155DA1 
  18      0B74
  19 0012 46C7129A 		.ascii	"F\307\022\232\343\364C\375\222\237\300%y\320hO\003H"
  19      E3F443FD 
  19      929FC025 
  19      79D0684F 
  19      0348
  20 0024 BB79EB36 		.ascii	"\273y\3536\326\305\035\003ih\211\242\227\325\2421\221"
  20      D6C51D03 
  20      696889A2 
  20      97D5A231 
  20      91
  21 0035 C2A9E2CA 		.ascii	"\302\251\342\312\360P\261QA(\030y\274Q\363\247oe\336"
  21      F050B151 
  21      41281879 
  21      BC51F3A7 
  21      6F65DE
  22 0048 EC5A9370 		.ascii	"\354Z\223p\301?0\277@\354\004A\264\023."
  22      C13F30BF 
  22      40EC0441 
  22      B4132E
  23              		.text
  24              		.section	.gnu.lto_.inline.f6b580b975e7f808,"",%progbits
  25 0000 789C6362 		.ascii	"x\234cb`b\300\006d\031!4\013\003\267\3624FFF\006\020"
  25      6062C006 
  25      64192134 
  25      0B03B7F2 
  25      34464646 
  26 0016 9F49E5CE 		.ascii	"\237I\345\316+6\006\256\035\273\031\301\232Xx\031\031"
  26      2B3606AE 
  26      1DBB19C1 
  26      9A587819 
  26      19
  27 0027 982FF033 		.ascii	"\230/\36030p\01020\260O\360\203A\240B\0066>\230\036"
  27      30700832 
  27      30B04FF0 
  27      8341A042 
ARM GAS  /tmp/ccANXSdL.s 			page 2


  27      06363E98 
  28 003c 20665B20 		.ascii	" f[ \017\326\300\314\003\344\203T03p\012\302\344\031"
  28      0FD6C0CC 
  28      03E48354 
  28      3033700A 
  28      C2E419
  29 004f 5FB033B0 		.ascii	"_\2603\260w\250\203\025\260\362\001\025\201\014`a{\304"
  29      77A88315 
  29      B0F20115 
  29      810C6061 
  29      7BC4
  30 0061 F0878191 		.ascii	"\360\207\201\221\2351#\2021\223\221\031(\305\230\016"
  30      9D312382 
  30      31939119 
  30      28C5980E 
  31 0071 6331C1C5 		.ascii	"c1\301\305\230\340b`\243\030!\346\001\011\216\274O?"
  31      98E06260 
  31      A31821E6 
  31      01098EBC 
  31      4F3F
  32 0083 9819047A 		.ascii	"\230\031\004z\242\231\030X:\204\033\2006\265\261\260"
  32      A2991858 
  32      3A841B80 
  32      36B5B1B0 
  33 0093 308149B0 		.ascii	"0\201I\260\000\023\003\323\011\016\001\010\011\322\315"
  33      001303D3 
  33      090E0108 
  33      09D2CD
  34 00a2 0E245921 		.ascii	"\016$Y!Ng`\342\006\231\006w\011\036)\006\000*M$!"
  34      4E6760E2 
  34      06990677 
  34      091E2906 
  34      002A4D24 
  35              		.text
  36              		.section	.gnu.lto_.pureconst.f6b580b975e7f808,"",%progbits
  37 0000 789C6362 		.ascii	"x\234cb`b\340d\200\000\026\006)&\011f)\026)\000\002"
  37      6062E064 
  37      80001606 
  37      29260966 
  37      29162900 
  38 0015 D80081   		.ascii	"\330\000\201"
  39              		.text
  40              		.section	.gnu.lto_ms5607_init.f6b580b975e7f808,"",%progbits
  41 0000 789C8D54 		.ascii	"x\234\215TMHTQ\024>\347\275y\343\374:N\3158:b\211\333"
  41      4D485451 
  41      143EE7BD 
  41      79E3FC3A 
  41      4ECD383A 
  42 0017 D42CFBD9 		.ascii	"\324,\373\331$\004\265i\321*%\203(\246A\206\267\030"
  42      2404B569 
  42      D12A2583 
  42      28A64186 
  42      B718
  43 0029 03A75A24 		.ascii	"\003\247Z$4w|\"\203 \014A F\240\210e\277Vn\244\010\306"
  43      34777C22 
  43      83200C41 
  43      2046A088 
ARM GAS  /tmp/ccANXSdL.s 			page 3


  43      65BF566E 
  44 0040 561658BA 		.ascii	"V\026X\272\012\311\305D\320&\210\240V\"\275\316}\367"
  44      0AC9C544 
  44      D02688A0 
  44      5622BDCE 
  44      7DF7
  45 0052 DD71669A 		.ascii	"\335qf\232\320\013s\356\337\371\276\363\235s\356<\005"
  45      D00B73EE 
  45      DFF9BEF3 
  45      9D73EE3C 
  45      05
  46 0063 14A81CDD 		.ascii	"\024\250\034\335\364\273\344\0048A3:\001\225\334\007"
  46      F4BBE404 
  46      3841333A 
  46      0195DC07 
  47 0073 808C4B41 		.ascii	"\200\214KA\207X\250b\261\344r(\352\370\022\000\363h"
  47      8758A862 
  47      B1E47228 
  47      EAF81200 
  47      F368
  48 0085 861F984F 		.ascii	"\206\037\230OC\344\347\200\220VT\207\206\351\013\310"
  48      43E4E780 
  48      90565487 
  48      86E90BC8 
  49 0095 E91CAD30 		.ascii	"\351\034\2550\315\330\355\302\354\330xd\254\300r\354"
  49      CDD8EDC2 
  49      ECD87864 
  49      ACC072EC 
  50 00a5 8F69A28E 		.ascii	"\217i\242\216\0248\204\020G\350\243\015\272\254I\301"
  50      14388410 
  50      47E8A30D 
  50      BAAC49C1 
  51 00b5 722502C9 		.ascii	"r%\002\311\236\315\015\253Sl\3134U\013\326R\025\226"
  51      9ECD0DAB 
  51      536CCB34 
  51      550BD652 
  51      1596
  52 00c7 C4725C3E 		.ascii	"\304r\\>\227_\273\230\313d\231i\246uT\025h\333\206\365"
  52      975FBB98 
  52      CB649969 
  52      A6755415 
  52      68DB86F5 
  53 00db 0998B75A 		.ascii	"\011\230\267Z\264\374\247\337\213\310FY\346\247i\006"
  53      B4FCA7DF 
  53      8BC84659 
  53      E6A76906 
  54 00eb 74742870 		.ascii	"tt(ph'\231\363J\276`\232[3\253\315\373\021b\370\000"
  54      682799F3 
  54      4ABE609A 
  54      5B33ABCD 
  54      FB1162F8 
  55 0100 5B41A379 		.ascii	"[A\243y\232f'\31534\273@G\315\203ID/\255\234>25~2\256"
  55      9A6627CD 
  55      3334BB40 
  55      47CD8349 
  55      442FAD9C 
  56 011a 5A3A5302 		.ascii	"Z:S\002d\324 m!D\306\035\346\246\236o#d<\015\3344\362"
ARM GAS  /tmp/ccANXSdL.s 			page 4


  56      64D4206D 
  56      2144C61D 
  56      E6A69E6F 
  56      23643C0D 
  57 0131 6D94AF9A 		.ascii	"m\224\257\232\270i\266\343\320\320`\204\261\\K\014g"
  57      B869B6E3 
  57      D0D06084 
  57      B15C4B0C 
  57      67
  58 0142 692F4FE3 		.ascii	"i/O\343\226\304\036\262\324\232^ThRW`\370\315\304{5"
  58      96C41EB2 
  58      D49A5E54 
  58      68525760 
  58      F8CDC47B 
  59 0157 860F91CB 		.ascii	"\206\017\221\313\343\356\373\240\353\036\2338I\365!"
  59      E3EEFBA0 
  59      EB1E9B38 
  59      49F521
  60 0166 6FBA7FB7 		.ascii	"o\272\177\2678\346\027\367\011\324\356\302d\206\261"
  60      38E617F7 
  60      09D4EEC2 
  60      6486B1
  61 0175 3AAAC110 		.ascii	":\252\301\020l\262,_yE\225y\021d\361V\300\310\252\022"
  61      6CB22C5F 
  61      79459579 
  61      1164F156 
  61      C0C8AA12 
  62 0189 E32418BF 		.ascii	"\343$\030\277t\240\340;#.v\303D\340\0122\227M\246u\226"
  62      74A0E03B 
  62      232E76C3 
  62      44E00A32 
  62      974DA675 
  63 019e 91B5C313 		.ascii	"\221\265\303\023F\303O\027\"\011\356\343\256\221\315"
  63      46C34F17 
  63      2209EEE3 
  63      AE91CD
  64 01ad 209CE5BD 		.ascii	" \234\345\275i<^W$\225w\010nR\331\017\300#\016\275\254"
  64      693C5E57 
  64      24957708 
  64      6E52D90F 
  64      C0230EBD 
  65 01c2 A38F2411 		.ascii	"\243\217$\021\314\237@\017\207\327Z\320+\245}\265(^"
  65      CC9F400F 
  65      87D75AD0 
  65      2BA57DB5 
  65      285E
  66 01d4 16C5F82C 		.ascii	"\026\305\370,\206\032\233\3413a\002\325)\260\202\342"
  66      861A9BE1 
  66      336102D5 
  66      29B082E2 
  67 01e4 BE4F52F8 		.ascii	"\276OR\370-\012\227Mq\307\251c]u\212\222\277\344G\230"
  67      2D0A974D 
  67      71C7A963 
  67      5D758A92 
  67      BFE44798 
  68 01f8 648B9A60 		.ascii	"d\213\232`\000(V/\030\267\343Pj\011\254M`\200\024R\004"
  68      0028562F 
ARM GAS  /tmp/ccANXSdL.s 			page 5


  68      18B7E350 
  68      6A09AC4D 
  68      60801452 
  69 020d CEB26719 		.ascii	"\316\262g\031-G\032\277(\306^\3710,\012\035C\202\270"
  69      2D471ABF 
  69      28C65EF9 
  69      302C0A1D 
  69      4382B8
  70 0220 975A4E7F 		.ascii	"\227ZN\177^\225W\334x\275V\254T0A\177\017\336\301\251"
  70      5E9557DC 
  70      78BD56AC 
  70      5430417F 
  70      0FDEC1A9 
  71 0234 F216DA55 		.ascii	"\362\026\332U\357\246\033;\001\367\016%\260\332RL\204"
  71      EFA61B3B 
  71      01F70E25 
  71      B0DA524C 
  71      84
  72 0245 987936A3 		.ascii	"\230y6\243\205\371\301\177\262\011\307\355\224)\033"
  72      85F9C17F 
  72      B209C7ED 
  72      94291B
  73 0254 FBF55893 		.ascii	"\373\365X\223Br\353-\021?\214\257\353(%\206\022<B\331"
  73      4272EB2D 
  73      113F8CAF 
  73      EB282586 
  73      123C42D9 
  74 0268 5309D3A9 		.ascii	"S\011\323\251\025\317\224\003\323\026p\343y@\372\324"
  74      15CF9403 
  74      D31670E3 
  74      7940FAD4 
  75 0278 B743DBB6 		.ascii	"\267C\333\266\372\363;T\277\\\275-\342\226\344\212$"
  75      FAF33B54 
  75      BF5CBD2D 
  75      E296E48A 
  75      24
  76 0289 8430E369 		.ascii	"\2040\343iQB\003\235rP\304%\2747V\243\362\252\261,\362"
  76      5142039D 
  76      7250C425 
  76      BC3756A3 
  76      F2AAB12C 
  77 029e 0BDC4D68 		.ascii	"\013\334Mh\374_\350(\361Ud\337dE\217ViW\027\351\331"
  77      FC5FE828 
  77      F15564DF 
  77      64458F56 
  77      695717E9 
  78 02b3 6E5743F5 		.ascii	"nWC\365\250\252]\373p\261UM\"\200\261\360\245\370.\232"
  78      A8AA5DFB 
  78      70B1554D 
  78      2280B1F0 
  78      A5F82E9A 
  79 02c7 E5BB90C2 		.ascii	"\345\273\220\302z\321\001\364\271W\227a\344[\306+\335"
  79      7AD101F4 
  79      B9579761 
  79      E45BC62B 
  79      DD
  80 02d8 848F56D4 		.ascii	"\204\217V\324\276\016\022\245\314\251\304\242.k\034"
ARM GAS  /tmp/ccANXSdL.s 			page 6


  80      BE0E12A5 
  80      CCA9C4A2 
  80      2E6B1C
  81 02e7 AA89EFD1 		.ascii	"\252\211\357\321\333\357J\351\327\350\010,\260,\212"
  81      DBEF4AE9 
  81      D7E8082C 
  81      B02C8A
  82 02f6 8FD11A64 		.ascii	"\217\321\032d\012\257<\342\22634J\306\036j\276\341\347"
  82      0AAF3CE2 
  82      9633344A 
  82      C61E6ABE 
  82      E1E7
  83 0308 950A9E1E 		.ascii	"\225\012\236\036\324o\364\017\246\016&SG\217u\036\357"
  83      D46FF40F 
  83      A60E2653 
  83      478F751E 
  83      EF
  84 0319 888337D5 		.ascii	"\210\2037\325?\220:u\365\372\300\265\216\316\222\365"
  84      3F903A75 
  84      F5FAC0B5 
  84      8ECE92F5 
  85 0329 61C7402C 		.ascii	"a\307@,\331\217\272\373\3549\356\330\336\007\177\001"
  85      D98FBAFB 
  85      EC39EED8 
  85      DE077F01 
  86 0339 9D396CA0 		.ascii	"\2359l\240"
  87              		.text
  88              		.section	.gnu.lto_ms5607_stop.f6b580b975e7f808,"",%progbits
  89 0000 789C6362 		.ascii	"x\234cb`b@\007\222@|\005\210\205\201\230\221\231\201"
  89      60624007 
  89      92407C05 
  89      88858198 
  89      919981
  90 0013 9169C239 		.ascii	"\221i\3029\006\206F\016&FF\020\203\201\221\241\236\211"
  90      0686460E 
  90      26464610 
  90      838191A1 
  90      9E89
  91 0025 B13E9211 		.ascii	"\261>\222\021\254v=\323\201\007\377\377\257\233\324"
  91      AC763DD3 
  91      8107FFFF 
  91      AF9BD4
  92 0034 FA88858D 		.ascii	"\372\210\205\215\2211\227\021h\\&#\003\013\220\005\222"
  92      91319711 
  92      685C2623 
  92      030B9005 
  92      92
  93 0045 67656869 		.ascii	"gehih\230\240\300\300\220\014V\035\002$AF\20422\201"
  93      6898A0C0 
  93      C0900C56 
  93      1D022441 
  93      46843232 
  94 005a 68E6B30C 		.ascii	"h\346\263\014M\277\232W\337bJd\\\310\310\312\220\316"
  94      4DBF9A57 
  94      DF624A64 
  94      5CC8C8CA 
  94      90CE
ARM GAS  /tmp/ccANXSdL.s 			page 7


  95 006c C854CD50 		.ascii	"\310T\315P\005\324\255\315\260\252\001\010b3\031\031"
  95      05D4ADCD 
  95      B0AA0108 
  95      62331919 
  96 007c 6733CC62 		.ascii	"g3\314b\314ddJgd\214\000\322\314`+\223\030\221\334z"
  96      CC64644A 
  96      67648C00 
  96      D2CC602B 
  96      931891DC 
  97 0091 9EA1F580 		.ascii	"\236\241\365\2006D?\003C5\303\257\206\216\006\201LF"
  97      36443F03 
  97      4335C3AF 
  97      868E0681 
  97      4C46
  98 00a3 96644688 		.ascii	"\226dF\210\242t\220^\226L\220\354E\206\306\007\247\271"
  98      A274905E 
  98      964C90EC 
  98      4586C607 
  98      A7B9
  99 00b5 204A4186 		.ascii	" JA\206\261\301\214\010\001\252\005\272\006\024\016"
  99      B1C18C08 
  99      01AA05BA 
  99      06140E
 100 00c4 822E4599 		.ascii	"\202.E\231e\251E\305\372\271\305\246f\006\346z\311\014"
 100      65A945C5 
 100      FAB9C5A6 
 100      6606E67A 
 100      C90C
 101 00d6 00871B36 		.ascii	"\000\207\0336^"
 101      5E
 102              		.text
 103              		.section	.gnu.lto_ms5607_reset.f6b580b975e7f808,"",%progbits
 104 0000 789C6362 		.ascii	"x\234cb`b@\007\222@l\300\310\300 \014\244\031\231\031"
 104      60624007 
 104      92406CC0 
 104      C8C0200C 
 104      A4199919 
 105 0014 1899269C 		.ascii	"\030\231&\234c`h\344`bd\0041\030\030\031\352\231\030"
 105      636068E4 
 105      60626404 
 105      31181819 
 105      EA9918
 106 0027 EB2319C1 		.ascii	"\353#\031\301j\3273\035x\360\377\377\272\035\255\277"
 106      6AD7331D 
 106      78F0FFFF 
 106      BA1DADBF 
 107 0037 58D99918 		.ascii	"X\331\231\030s\031\031X\0302\031\031\330\200\004H\236"
 107      73191958 
 107      18321919 
 107      D8800448 
 107      9E
 108 0048 95A1A5A1 		.ascii	"\225\241\245\241a\202\002\003C2Xu\010\220\004\031\021"
 108      61820203 
 108      43325875 
 108      08900419 
 108      11
 109 0059 CAC804A2 		.ascii	"\312\310\004\242\231\31724\355\3301],\221q!#+\203.\303"
ARM GAS  /tmp/ccANXSdL.s 			page 8


 109      99CF3234 
 109      EDD8315D 
 109      2C917121 
 109      232B832E 
 110 006e 9A062008 		.ascii	"\232\006 \010\314dd\322fX\005b\362f22\317f\230\305\230"
 110      CC6464D2 
 110      66580562 
 110      F2663232 
 110      CF6698C5 
 111 0083 C9C892CE 		.ascii	"\311\310\222\316\310\024\001\244Y\301v&A\254f\000\211"
 111      C81401A4 
 111      59C17626 
 111      41AC6600 
 111      89
 112 0094 B0C15D0D 		.ascii	"\260\301]\015\3421\311\001\031@S\1775\377\276\304\002"
 112      E231C901 
 112      1940537F 
 112      35FFBEC4 
 112      02
 113 00a5 31369D91 		.ascii	"16\235\221\245\232\241\012\350&\250\241\263\201\312"
 113      A59AA10A 
 113      E826A8A1 
 113      B381CA
 114 00b4 D8B19BCA 		.ascii	"\330\261\233\312\210\010\202\363\014m\007Xa\006\260"
 114      880882F3 
 114      0C6D0758 
 114      6106B0
 115 00c3 5533FC6A 		.ascii	"U3\374j\350h\020\310d\344H\206*\002\232\012\266\217"
 115      E86810C8 
 115      64E44886 
 115      2A029A0A 
 115      B68F
 116 00d5 11622D03 		.ascii	"\021b-\003\320\277\234\014\014\027\031\030\341z \346"
 116      D0BF9C0C 
 116      0C171918 
 116      E17A20E6 
 117 00e5 8400D503 		.ascii	"\204\000\325\003}\012\012cA\227\242\314\262\324\242"
 117      7D0A0A63 
 117      4197A2CC 
 117      B2D4A2
 118 00f4 62FDDC62 		.ascii	"b\375\334bS3\003s\275d\006\000E!E\263"
 118      53330373 
 118      BD640600 
 118      452145B3 
 119              		.text
 120              		.section	.gnu.lto_ms5607_readPressureTemperature.f6b580b975e7f808,"",%progbits
 121 0000 789CAD58 		.ascii	"x\234\255XkL\024W\024\276wfvY\026\354\242X\345\241\250"
 121      6B4C1457 
 121      14BE7766 
 121      765916EC 
 121      A258E5A1 
 122 0015 F8420411 		.ascii	"\370B\004\021\025|+\276\360\201/\024\025\215&])\305"
 122      157C2BBE 
 122      F0812F14 
 122      158D265D 
 122      29C5
 123 0027 D56A088B 		.ascii	"\325j\010\213mR\1778\270\304`#[l\372\303\332&\225`\245"
ARM GAS  /tmp/ccANXSdL.s 			page 9


 123      6D527F38 
 123      B8C46023 
 123      5B6CFAC3 
 123      DA269560 
 124 003c D65A6AA8 		.ascii	"\326Zj\250\202U\0330-\342\217V[\371\241\015i\211\246"
 124      82551B30 
 124      2DE28F56 
 124      5BF9A10D 
 124      6989A6
 125 004f 62C5AA51 		.ascii	"b\305\252Q\253\304V\267\347\334\271\367.;b\3306n\342"
 125      ABC456B7 
 125      E7DCB9F7 
 125      2E3B62D8 
 125      366EE2
 126 0062 99B9DF79 		.ascii	"\231\271\337y}\347\334sgF\024\242\020\363\257\024\376"
 126      7DE7DC73 
 126      674614A2 
 126      10F3AF14 
 126      FE
 127 0073 6DEF43C8 		.ascii	"m\357C\310Z\270\3220B\225\212\037\011)\261)\212\332"
 127      5AB8D230 
 127      42958A1F 
 127      0929B129 
 127      8ADA
 128 0085 924274BB 		.ascii	"\222Bt\273\375L\034\321\303UE+\033\011++\312pM\261t"
 128      FD4C1CD1 
 128      C355452B 
 128      1B092B2B 
 128      CA704DB1 
 129 009a 5959A8D5 		.ascii	"YY\250\325p\261*!_\237#\200\333Z\303\000\017\2416\003"
 129      70B12A21 
 129      5F9F2380 
 129      DB5AC300 
 129      0FA13603 
 130 00ae B729A107 		.ascii	"\267)\241\007\232\020\267?\012\001<\224\332\015\334"
 130      9A10B73F 
 130      0A013C94 
 130      DA0DDC
 131 00bd 4E29DE10 		.ascii	"N)\336\020Jv*\252f\261\206\330B\355t\347Z\212\254\302"
 131      4A762AAA 
 131      66B186D8 
 131      42ED74E7 
 131      5A8AACC2 
 132 00d1 E349A5DE 		.ascii	"\343I\245\336P\321\366\375\257^\252\037\334U\241?\363"
 132      50D1F6FD 
 132      AF5EAA1F 
 132      DC55A13F 
 132      F3
 133 00e2 F9A88B02 		.ascii	"\371\250\213\002\377\276\224\344Q\222\013\013\032\305"
 133      FFBE94E4 
 133      51920B0B 
 133      1AC5
 134 00f0 2E8A1A58 		.ascii	".\212\032X\220\341\331\360\310\322\254\2276\370|3\231"
 134      90E1D9F0 
 134      C8D2AC97 
 134      36F87C33 
 134      99
ARM GAS  /tmp/ccANXSdL.s 			page 10


 135 0101 D79060BC 		.ascii	"\327\220`\274\364\212\206\247\1776S\375}\275\344\236"
 135      F48A86A7 
 135      7F3653FD 
 135      7DBDE49E 
 136 0111 CFE77051 		.ascii	"\317\347pQU!\211~\307\301\206\243\326\255\343\311\246"
 136      5521897E 
 136      C7C186A3 
 136      D6ADE3C9 
 136      A6
 137 0122 F08A9232 		.ascii	"\360\212\2222\335\347\333\351\242\232BR\203t\253\017"
 137      DDE7DBE9 
 137      A29A4252 
 137      8374AB0F 
 138 0132 744B0FD2 		.ascii	"tK\017\322\355\364\356\017b\364\203{\365]m>\337 \027"
 138      EDF4EE0F 
 138      62F4837B 
 138      F55D6D3E 
 138      DF2017
 139 0145 B52864AA 		.ascii	"\265(d\252\3373\303\360\264u\353y\266\251<\272KC!gF"
 139      DF33C3F0 
 139      B475EB79 
 139      B6A93CBA 
 139      4B432167 
 140 015a 9039BF0D 		.ascii	"\2209\277\015\244:'H\267\237\003\3352\203tk\011t\313"
 140      A43A2748 
 140      B79F03DD 
 140      3283746B 
 140      0974CB
 141 016d 0AD2ED41 		.ascii	"\012\322\355A\323{\246\362\262\203\364\334w\336k\362"
 141      D37BA6F2 
 141      B283F4DC 
 141      77DE6BF2 
 142 017d 5CD59367 		.ascii	"\\\325\223g\215\322\000\375\377\270\346\322c\352\244"
 142      8DD200FD 
 142      FFB8E6D2 
 142      63EAA4
 143 018c C4498FD2 		.ascii	"\304I\217\322x\0305'=\006W+\335J\211\215\270\250\325"
 143      78183527 
 143      3D06572B 
 143      DD4A898D 
 143      B8A8D5
 144 019f 0EC8A780 		.ascii	"\016\310\247\200\364\202E\210\003\204-\202#\221\270"
 144      F4824588 
 144      03842D82 
 144      2391B8
 145 01ae E8CB1751 		.ascii	"\350\313\027Q\270\210\346\213\030X\204\306\202\260\017"
 145      B888E68B 
 145      185884C6 
 145      82B00F
 146 01bd 40311097 		.ascii	"@1\020\227qx7\010\305`\024C\020\213\307\273\241\340"
 146      71783708 
 146      C5601443 
 146      108BC7BB 
 146      A1E0
 147 01cf 540D4EC3 		.ascii	"T\015N\303\020\031\216\310\010\024#q\231\200w\243P$"
 147      10198EC8 
 147      08142371 
ARM GAS  /tmp/ccANXSdL.s 			page 11


 147      998077A3 
 147      5024
 148 01e1 A2188D58 		.ascii	"\242\030\215X\022\336%\203\323\021p\032\003\213\260"
 148      12DE2583 
 148      D311701A 
 148      038BB0
 149 01f0 1444C6A2 		.ascii	"\024D\306\242H\005\270\006\340q\010\217GJ\023P\244\241"
 149      4805B806 
 149      E071088F 
 149      474A1350 
 149      A4A1
 150 0202 4807DD71 		.ascii	"H\007\335q\320MD\335$\264\236\214b\012.\247\242\301"
 150      D04D44DD 
 150      24B49E8C 
 150      620A2EA7 
 150      A2C1
 151 0214 3414D351 		.ascii	"4\024\323Q\314@1\223\267$\003\256'\340:\013\301\331"
 151      CC403193 
 151      B72403AE 
 151      27E03A0B 
 151      C1D9
 152 0226 20C2E7A0 		.ascii	" \302\347\240\230\313;5\017\341L\020\275\346s\207\005"
 152      98CB3B35 
 152      0FE14C10 
 152      BDE67387 
 152      05
 153 0237 70AD83EB 		.ascii	"p\255\203\353B~]\204\026Yh\261\230[,\341T\226\"\270"
 153      427E5D84 
 153      165968B1 
 153      985B2CE1 
 153      549622B8 
 154 024b 0CC57214 		.ascii	"\014\305r\024\331(V\200\256\026t+a\361J\016\212\325"
 154      D9285680 
 154      AE16742B 
 154      61F14A0E 
 154      8AD5
 155 025d 28D6A0C8 		.ascii	"(\326\240\310E\261\016\266\206\256\007\241l\300%l\244"
 155      45B10EB6 
 155      86AE07A1 
 155      6CC0256C 
 155      A4
 156 026e 8594C208 		.ascii	"\205\224\302\010\014v\322J\360s\322*&q\037\010N\000"
 156      0C76D24A 
 156      F073D22A 
 156      26711F08 
 156      4E00
 157 0280 FC7240E2 		.ascii	"\374r@\342\263j\025U\360\252\376@v\325\327\177\322\317"
 157      B36A1555 
 157      F0AAFE40 
 157      76D5D77F 
 157      D2CF
 158 0292 494F510B 		.ascii	"IOQ\013I&_\350\360\313vQ\307h\3629\336\366r\321\210"
 158      49265FE8 
 158      F0CB7651 
 158      C768F239 
 158      DEF672D1 
 159 02a7 8FC80118 		.ascii	"\217\310\001\030\231\336\005\324\212\243\323\207\015"
ARM GAS  /tmp/ccANXSdL.s 			page 12


 159      99DE05D4 
 159      8AA3D387 
 159      0D
 160 02b4 CC466A0C 		.ascii	"\314Fj\014\016\"v9F\270r\344\302\015D}\342\371\373\262"
 160      0E227639 
 160      46B872E4 
 160      C20D447D 
 160      E2F9FBB2 
 161 02c8 C5085B40 		.ascii	"\305\010[@m;\310;0@<\350Y0\213\354>*\365\317\344E\262"
 161      6D3BC83B 
 161      30403CE8 
 161      59308BEC 
 161      3E2AF5CF 
 162 02df BB215604 		.ascii	"\273!V\004\260\357 O\3642=\302E\373\346q#\210\312\362"
 162      B0EF204F 
 162      F4323DC2 
 162      45FBE671 
 162      2388CAF2 
 163 02f3 1983ED20 		.ascii	"\031\203\355 \320\201W\321\253\264\315g7\334\010\221"
 163      D08157D1 
 163      ABB4CD67 
 163      37DC0891 
 164 0303 5EFDF2A8 		.ascii	"^\375\362\250\")\2067S0\356\317h\326\357\277\326\246"
 164      22298637 
 164      5330EECF 
 164      68D6EFBF 
 164      D6A6
 165 0315 BCC4EA89 		.ascii	"\274\304\352\211\250\276z\357&A\276\027\253>\204\007"
 165      A8BE7AEF 
 165      2641BE17 
 165      AB3E8407 
 166 0325 BD4C7B88 		.ascii	"\275L{\210\312\253\337\257\357\017\025\021\034\262\220"
 166      CAABDFAF 
 166      EF0F1511 
 166      1CB290
 167 0334 A83CAA8A 		.ascii	"\250<\252\212\362!2\357\000K\020-\366\233\325\3164*"
 167      F22132EF 
 167      004B102D 
 167      F69BD5CE 
 167      342A
 168 0346 D4198384 		.ascii	"\324\031\203\204<\247<E\"X\004\304+@\336X~\347\313-"
 168      3CA73C45 
 168      225804C4 
 168      2B40DE58 
 168      7EE7CB2D 
 169 035a 7F81B171 		.ascii	"\177\201\261qm{\253\"E\272\310`\267.\220e_\360\004\256"
 169      6D7BAB22 
 169      45BAC860 
 169      B72E9065 
 169      5FF004AE 
 170 036e C68E9657 		.ascii	"\306\216\226W\321\377\260\245W\256\277\364-\305\355"
 170      D1FFB0A5 
 170      57AEBFF4 
 170      2DC5ED
 171 037d F8E7F821 		.ascii	"\370\347\370!E\260\213\012rC*\203\331\220h\210\007\005"
 171      45B08B0A 
 171      72432A83 
ARM GAS  /tmp/ccANXSdL.s 			page 13


 171      D9906888 
 171      0705
 172 038f 13D24CBE 		.ascii	"\023\322L\276ko\254mR\245\002}\002\336~\253 YK\012\236"
 172      6B6FAC6D 
 172      52A5027D 
 172      02DE7EAB 
 172      20594B0A 
 173 03a4 DAD6CE1B 		.ascii	"\332\326\316\033WTy\334\253Y\236#L\036e\362\030\223"
 173      575479DC 
 173      AB599E23 
 173      4C1E65F2 
 173      1893
 174 03b6 354C1E67 		.ascii	"5L\036g\262\226=\006D\037!|L2I\002N\306\330\004\026"
 174      B2963D06 
 174      441F217C 
 174      4C324902 
 174      4EC6D804 
 175 03cb CE1A79C7 		.ascii	"\316\032y\307\363\014\332\336\302\250\304\026p\336\307"
 175      F30CDADE 
 175      C2A8C416 
 175      70DEC7
 176 03da 54010D00 		.ascii	"T\001\015\000\224yE\030\346\255_\305\010\325\300\347"
 176      94794518 
 176      E6AD5FC5 
 176      08D5C0E7 
 177 03ea 225353E4 		.ascii	"\"SS\344\2232L\034\230\233\"\017\002\224y\331\230\271"
 177      93324C1C 
 177      989B220F 
 177      029479D9 
 177      98B9
 178 03fc A7CCF38D 		.ascii	"\247\314\363\215\"t\203Y\342A<c\236\200\207<\227Q1e"
 178      22748359 
 178      E2413C63 
 178      9E80873C 
 178      97513165 
 179 0410 DC264CE3 		.ascii	"\334&L\343\301\332\010+\023\016eq\343\215\240\373\333"
 179      C1DA082B 
 179      130E6571 
 179      E38DA0FB 
 179      DB
 180 0421 3BA56298 		.ascii	";\245b\230\010[\371\242\026})\231\015\007sS!#\000\015"
 180      085BF9A2 
 180      167D2999 
 180      0D077353 
 180      2123000D 
 181 0435 6C519C50 		.ascii	"lQ\234P\215|.\262\271E\217d\230\00407E\036\005h`\213"
 181      8D7C2EB2 
 181      B9458F64 
 181      98043037 
 181      451E0568 
 182 044b 6E492289 		.ascii	"nI\"\211,\361(\236q\263\200G?\227\361\205-J\002kS\213"
 182      2CF1289E 
 182      71B38047 
 182      3F97F185 
 182      2D4A026B 
 183 0461 9259DC24 		.ascii	"\222Y\334$#hg\373=\251\030\303\302\306\362\363\345v"
 183      236867FB 
ARM GAS  /tmp/ccANXSdL.s 			page 14


 183      3DA918C3 
 183      C2C6F2F3 
 183      E576
 184 0473 D101DD9F 		.ascii	"\321\001\335\237/\377a\265k\246\274'\345\230\245@<\226"
 184      2FFF61B5 
 184      6BA6BC27 
 184      E598A540 
 184      3C96
 185 0485 F85DCF61 		.ascii	"\370]\317aY\317X\300\231\037~\321\260\037\335\311\213"
 185      59CF58C0 
 185      991F7ED1 
 185      B01FDDC9 
 185      8B
 186 0496 968C5399 		.ascii	"\226\214S\231\331P\203^\375\255\233\232P\214\013\240"
 186      D950835E 
 186      FDAD9B9A 
 186      508C0BA0 
 187 04a6 B78F06C3 		.ascii	"\267\217\006\303\317b\336\011\311o<\0044\370\311\372"
 187      CF62DE09 
 187      C96F3C04 
 187      34F8C9FA 
 188 04b6 27303495 		.ascii	"'04\225\241\345\236\033\222u\032\250\330\371\205\264"
 188      A1E59E1B 
 188      92751AA8 
 188      D8F985B4 
 189 04c6 1A31F34D 		.ascii	"\0321\363M\007\003\246\275\344\340\243Q\337\321,}'\006"
 189      0703A6BD 
 189      E4E0A351 
 189      DFD12C7D 
 189      2706
 190 04d8 909E1C0C 		.ascii	"\220\236\034\014g\363\\\336\227\234'A<\336S\177\243"
 190      67F35CDE 
 190      979C2741 
 190      3CDE537F 
 190      A3
 191 04e9 27036EF4 		.ascii	"'\003n\364\224\223\203I\211\024\312)\377\243g\346Y\272"
 191      94938349 
 191      8914CA29 
 191      FFA367E6 
 191      59BA
 192 04fb 268B990A 		.ascii	"&\213\231\012\001M=\233\306P\321\263\373\322t:\250\214"
 192      014D3D9B 
 192      C650D1B3 
 192      FBD2743A 
 192      A88C
 193 050d 9E51D131 		.ascii	"\236Q\3211\177\0353\030\353\351<\376F\001\317\004\015"
 193      7F1D3318 
 193      EBE93CFE 
 193      4601CF04 
 193      0D
 194 051e 3E3A4B6F 		.ascii	">:Ko4\376\326$#\245c\030\355\242#\340\331\251\221[\375"
 194      34FED624 
 194      23A56318 
 194      EDA223E0 
 194      D9A9915B 
 195 0533 55D6888E 		.ascii	"U\326\210\216\362X\371\354<\301\237\213-\342\271\230"
 195      F258F9EC 
ARM GAS  /tmp/ccANXSdL.s 			page 15


 195      3CC19F8B 
 195      2DE2B998 
 196 0543 C1362F8D 		.ascii	"\3016/\215\367\354n9\234\331v\026t\026\233\263T\316"
 196      F7EC6E39 
 196      9CD97616 
 196      74169BB3 
 196      54CE
 197 0555 E03015F8 		.ascii	"\3400\025\370lP\031\265\250\002\232\003({1a\007m\242"
 197      6C5019B5 
 197      A8029A03 
 197      287B3161 
 197      076DA2
 198 0568 299B857A 		.ascii	")\233\205z.X\360\370\217\313\023\004:\017r\263\362\025"
 198      2E58F0F8 
 198      8FCB1304 
 198      3A0F72B3 
 198      F215
 199 057a E1502454 		.ascii	"\341P$T\231\240e\016{d\212\371\254\366L\366\332\370"
 199      99A0650E 
 199      7B648AF9 
 199      ACF64CF6 
 199      DAF8
 200 058c BDF16953 		.ascii	"\275\361iS\270P\260\332m\207\036v9,\376\036X\310_a*"
 200      B850B0DA 
 200      6D871E76 
 200      392CFE1E 
 200      58C85F61 
 201 05a1 EB6C9577 		.ascii	"\353l\225w\240\354A\035\357A\273\350\301\002>\237\332"
 201      A0EC411D 
 201      EF41BBE8 
 201      C1023E9F 
 201      DA
 202 05b2 439570A2 		.ascii	"C\225p\242\325^x\276\337d\031\0262\203\005\\Q\343\215"
 202      D55E78BE 
 202      DF641916 
 202      3283055C 
 202      51E38D
 203 05c5 138A45A0 		.ascii	"\023\212E\240c\331\273\226l\250\262@++0\240\305\254"
 203      63D9BB96 
 203      6CA8B240 
 203      2B2B30A0 
 203      C5AC
 204 05d7 882C41CD 		.ascii	"\210,A\315j\274\332<{<\247\275Qb#\227\260\263\242\360"
 204      6ABCDA3C 
 204      7B3CA7BD 
 204      51622397 
 204      B0B3A2F0 
 205 05eb 68D7BD49 		.ascii	"h\327\275IB\261\024\236I\246\261Z\306P\312\307\352\216"
 205      42B1149E 
 205      49A6B15A 
 205      C650CAC7 
 205      EA8E
 206 05fd 9C9CE5A0 		.ascii	"\234\234\345\240BV\026\330\013>X]\247.\033,\270\232"
 206      425616D8 
 206      0B3E585D 
 206      A72E1B2C 
 206      B89A
ARM GAS  /tmp/ccANXSdL.s 			page 16


 207 060f 37BEC3F3 		.ascii	"7\276\303\363\206P\256\000=\303>\363\334\365&\013t%"
 207      8650AE00 
 207      3DC33EF3 
 207      DCF5260B 
 207      7425
 208 0621 103325CF 		.ascii	"\0203%\317\0014\206|\010_\005\025\227\260\353\204\340"
 208      0134867C 
 208      085F0515 
 208      97B0EB84 
 208      E0
 209 0632 D6EB0DE7 		.ascii	"\326\353\015\347:\252\250\361q\016A.\334\0131\354\371"
 209      3AAAA8F1 
 209      710E412E 
 209      DC0B31EC 
 209      F9
 210 0643 D90A054D 		.ascii	"\331\012\005M\367GK|T\344\360\344\017\274)\"\323j`e"
 210      F7474B7C 
 210      54E4F0E4 
 210      0FBC2922 
 210      D36A6065 
 211 0657 4ABE06D0 		.ascii	"J\276\006\320\236\222C_\237\310\226\344\202\017wH\340"
 211      9E92435F 
 211      9FC896E4 
 211      820F7748 
 211      E0
 212 0668 C6F03BD8 		.ascii	"\306\360;\330\205i\205=H\246\032g\232\313N\341\355\306"
 212      8569853D 
 212      48A61A67 
 212      9ACB4EE1 
 212      EDC6
 213 067a D3E76567 		.ascii	"\323\347eg\327\241\335@\377\370]%\024\206Vm=\361\032"
 213      D7A1DD40 
 213      FFF85D25 
 213      1486566D 
 213      3DF11A
 214 068d ECBCD65A 		.ascii	"\354\274\326ZW\0103`9sj\323U\242\260a#D\275]\373&\034"
 214      57083360 
 214      39736AD3 
 214      55A2B061 
 214      2344BD5D 
 215 06a4 0FED4CDD 		.ascii	"\017\355L\335&\270X\330\\\204\220\306\004\374\344\271"
 215      26B858D8 
 215      5C8490C6 
 215      04FCE4B9 
 216 06b4 D0F9583C 		.ascii	"\320\371X<\"\201I\011\220r\000\251\200,\214\2051M6\234"
 216      22814909 
 216      907200A9 
 216      802C8C85 
 216      314D369C 
 217 06c8 2646E8B2 		.ascii	"&F\350\262\237\320z\023!4\014%\177$b\370_:\237tJ\303"
 217      9FD07A13 
 217      21340C25 
 217      7F2462F8 
 217      5F3A9F74 
 218 06de 0DA34962 		.ascii	"\015\243Ib\017{\303\333\024\326\015\243\365]\031m\020"
 218      0F7BC3DB 
 218      14D60DA3 
ARM GAS  /tmp/ccANXSdL.s 			page 17


 218      F55D196D 
 218      10
 219 06ef 89ECFC7F 		.ascii	"\211\354\374\177\\\347:\370w\244\361*\236@j\3652\374"
 219      5CE73AF8 
 219      77A4F12A 
 219      9E406AF5 
 219      32FC
 220 0701 93108BD8 		.ascii	"\223\020\213\330EYeR\376DJ\332\356\210/a\314 \377\362"
 220      45596552 
 220      FE444ADA 
 220      EE882F61 
 220      CC20FFF2 
 221 0715 9303430F 		.ascii	"\223\003C\017\261qz{\317-r\275\225_\344N\331\352NK\037"
 221      B1717A7B 
 221      CF2D72BD 
 221      955FE44E 
 221      D9EA4E4B 
 222 072a 3B714C1E 		.ascii	";qL\036\011/,\312w\273\267\027\345\317u\026;m\305\371"
 222      092F2CCA 
 222      77BBB717 
 222      E5CF7516 
 222      3B6DC5F9 
 223 073e 5B0BF1C6 		.ascii	"[\013\361\306\352.v\026owk\305E\316\267\265B\024\356"
 223      EA2E7616 
 223      6F776BC5 
 223      45CEB7B5 
 223      4214EE
 224 0751 FC6D6E25 		.ascii	"\374mn%g\234\362z\216\206F\026\346\246\026\217\333\242"
 224      679CF27A 
 224      8E864616 
 224      E6A6168F 
 224      DBA2
 225 0763 15A76E49 		.ascii	"\025\247nI\373\027Ifc\245"
 225      FB174966 
 225      63A5
 226              		.text
 227              		.section	.gnu.lto_.symbol_nodes.f6b580b975e7f808,"",%progbits
 228 0000 789C4DCB 		.ascii	"x\234M\3131\022\2020\020\205\341\267o\023\210\247\340"
 228      31128230 
 228      1085E1B7 
 228      6F1388A7 
 228      E0
 229 0011 A88BA204 		.ascii	"\250\213\242\004;O@\223\243P\330y\002\013\035[\316\240"
 229      3B4F4093 
 229      A350D879 
 229      020B1D5B 
 229      CEA0
 230 0023 0E418DDB 		.ascii	"\016A\215\333\374\363\275\231%\210+>\307-\0158]\000"
 230      FCF3BD99 
 230      25882B3E 
 230      C72D0D38 
 230      5D00
 231 0035 B37110FF 		.ascii	"\263q\020\377\0228S\356hRVv4\376qO\323B\351ine\333\212"
 231      123853EE 
 231      68525676 
 231      34FE714F 
 231      D342E969 
ARM GAS  /tmp/ccANXSdL.s 			page 18


 232 004d 1C68BE28 		.ascii	"\034h\276(\322\252\242#\255.\032h\341'E\205\324\317"
 232      D2AAA223 
 232      AD2E1A68 
 232      E1274585 
 232      D4CF
 233 005f 8DC2A38B 		.ascii	"\215\302\243\213\347Q\2255\322\355)\252\036\323R\367"
 233      E7519535 
 233      D2ED29AA 
 233      1ED352F7 
 234 006f ED068FDC 		.ascii	"\355\006\217\334\200\351\276\356\371q\331s\003R\234"
 234      80E9BEEE 
 234      F971D973 
 234      03529C
 235 007e 1BBC01EC 		.ascii	"\033\274\001\354gAa"
 235      674161
 236              		.text
 237              		.section	.gnu.lto_.refs.f6b580b975e7f808,"",%progbits
 238 0000 789C6362 		.ascii	"x\234cb`b`g\200\000&\006\006FFF\006\000\000\333\000"
 238      60626067 
 238      80002606 
 238      06464646 
 238      060000DB 
 239 0015 11       		.ascii	"\021"
 240              		.text
 241              		.section	.gnu.lto_.decls.f6b580b975e7f808,"",%progbits
 242 0000 789CBD5C 		.ascii	"x\234\275\\\013t\024\305\232\356\356\231$3Inx\270\272"
 242      0B7414C5 
 242      9AEEEE99 
 242      2433496E 
 242      78B8BA
 243 0013 E8BA3A77 		.ascii	"\350\272:wW\357\341^\257\344\001\"\256w\005LP8\362p"
 243      57EFE15E 
 243      AFE40122 
 243      AE77054C 
 243      5038F270 
 244 0027 93782FEE 		.ascii	"\223x/\3569\356\330\316t\310\254If\354\351`8\347\356"
 244      39EED8CE 
 244      74C8AC49 
 244      66ECE960 
 244      38E7EE
 245 003a B121243C 		.ascii	"\261!$<\024\014\011H@\036\341\012\210/\224\227\200\007"
 245      140C0948 
 245      401EE10A 
 245      882F9497 
 245      8007
 246 004c 657C4104 		.ascii	"e|A\004\345)\010\370`\364\012\202\\\\@#b\014\331\277"
 246      E52908F8 
 246      60F40A82 
 246      5C5C4023 
 246      620CD9BF 
 247 0060 FEEE9EA9 		.ascii	"\376\356\236\251\356t\317tG\357\3169US]\251\372\352"
 247      EE74CF74 
 247      47EFCE39 
 247      55535DA9 
 247      FAEA
 248 0072 FFFFFAFF 		.ascii	"\377\377\372\377\277\376\252\256\011\307p\314t\216a"
 248      BFFEAAAE 
ARM GAS  /tmp/ccANXSdL.s 			page 19


 248      09C770CC 
 248      748E61
 249 0081 BAE173FC 		.ascii	"\272\341s\374\036\206\371\302\3030\031\014\303\334\001"
 249      1E86F9C2 
 249      C330190C 
 249      C3DC01
 250 0090 C90D6905 		.ascii	"\311\015i\005\244M\220\262 \015e\224\217\027\3225\320"
 250      A44D90B2 
 250      200D6594 
 250      8F17D235 
 250      D0
 251 00a1 6738A47B 		.ascii	"g8\244{ \375\007\244\007 \005!\205!I\220\376\014\211"
 251      20FD07A4 
 251      07200521 
 251      85214990 
 251      FE0C89
 252 00b4 857632C7 		.ascii	"\205v2\307\350>\244\3375\214\362\267<H\271\220\372s"
 252      E83EA4DF 
 252      358CF2B7 
 252      3C48B990 
 252      FA73
 253 00c6 CA185550 		.ascii	"\312\030UP\371 \224\247A\252\347\224\361]\220\256\342"
 253      F92094A7 
 253      41AAE794 
 253      F15D90AE 
 253      E2
 254 00d7 143AAE83 		.ascii	"\024:\256\203\357\177\2064\010R\021$B7\241\253\001\276"
 254      EF7F8634 
 254      08521124 
 254      4237A1AB 
 254      01BE
 255 00e9 05488D90 		.ascii	"\005H\215\220\376\013\3226\300\371\015\301a\025\214"
 255      FE0BD236 
 255      C0F90DC1 
 255      61158C
 256 00f8 7F85F2CD 		.ascii	"\177\205\362\315\220\012!\335\310)\230\327\250\364>"
 256      900A21DD 
 256      C82998D7 
 256      A8F43E
 257 0107 A08E43E8 		.ascii	"\240\216C\350\034\006\351\337 \375\301@\363pu\234\007"
 257      1C06E9DF 
 257      20FDC140 
 257      F370759C 
 257      07
 258 0118 0D74CC80 		.ascii	"\015t\314\200\024Q\307a\325q8\265}X-\337\015\331h\003"
 258      1451C761 
 258      D57138B5 
 258      7D582DDF 
 258      0DD96803 
 259 012c 1E9159B6 		.ascii	"\036\221Y\266\212G\372\022\336\011O\032\256&w\215\037"
 259      8A47FA12 
 259      DE094F1A 
 259      AE26778D 
 259      1F
 260 013d D29DD0AF 		.ascii	"\322\235\320\257\341\337\243\322M\306\234`\300&sq\035"
 260      E1DFA3D2 
 260      4DC69C60 
ARM GAS  /tmp/ccANXSdL.s 			page 20


 260      C0267371 
 260      1D
 261 014e 7CCFE492 		.ascii	"|\317\344\222\362%c4@\232\315%\345\233\251\316\201&"
 261      F2256334 
 261      409ACD25 
 261      E59BA9CE 
 261      8126
 262 0160 63C29F87 		.ascii	"c\302\237\207\320\301\364\244\207\246\245\011\322\377"
 262      D0C1F4A4 
 262      87A6A509 
 262      D2FF
 263 016e 409A07A9 		.ascii	"@\232\007\251\031R-%o\242\037\031\024\255D\326\277\205"
 263      19522D25 
 263      6FA21F19 
 263      14AD44D6 
 263      BF85
 264 0180 7493CA93 		.ascii	"t\223\312\223\246'\177Vu\204\214\373'\370\236\010\351"
 264      A6277F56 
 264      75848CFB 
 264      27F89E08 
 264      E9
 265 0191 3F0D7CF4 		.ascii	"?\015|\364g\346\311\360\361\265\003\023\023Y\236\315"
 265      67E6C9F0 
 265      F1B50313 
 265      13599ECD 
 266 01a1 F3922922 		.ascii	"\363\222)\"\245\\/\343\203\00672+e\271)\336\360$\353"
 266      A55C2FE3 
 266      83063732 
 266      2B65B929 
 266      DEF024EB 
 267 01b5 E3D9156C 		.ascii	"\343\331\025l\177\220\314\000\226\371\035\363\034\364"
 267      7F90CC00 
 267      96F91DF3 
 267      1CF4
 268 01c3 6A92E569 		.ascii	"j\222\345iW0=?iA\031\206gW\001\026\317\256d\177\247"
 268      57303D3F 
 268      69411986 
 268      67570116 
 268      CFAE647F 
 269 01d8 0C21C70E 		.ascii	"\014!\307\016\005}J-\243\326\233|~\315\264\301\230\261"
 269      057D4A2D 
 269      A3D69B7C 
 269      7ECDB4C1 
 269      98B1
 270 01ea A31BB7B2 		.ascii	"\243\033\267\262rcn\026\323\010Or\274a\332\200\326\344"
 270      72636E16 
 270      D3084F72 
 270      BC61DA80 
 270      D6E4
 271 01fc 501E6D24 		.ascii	"P\036m$6A~l\277\207\343\3315l\026P\177\023\253\203\267"
 271      36417E6C 
 271      BF87E3D9 
 271      356C1650 
 271      7F13AB83 
 272 0211 8141E879 		.ascii	"\201A\350y\001\372\352\250\335\352\346\224\332\024\324"
 272      01FAEAA8 
 272      DDEAE694 
ARM GAS  /tmp/ccANXSdL.s 			page 21


 272      DA14D4
 273 0220 BA18D4A4 		.ascii	"\272\030\324\244\333YDs{\223U%\211*\226j8&Q\253\315"
 273      DB594473 
 273      7B935525 
 273      892A966A 
 273      382651AB 
 274 0235 127964BD 		.ascii	"\022yd\275\311B7\253\033\200\246\213g_do\204\374%\326"
 274      C94237AB 
 274      1B80A68B 
 274      675F646F 
 274      84FC25D6 
 275 0249 65DA8D63 		.ascii	"e\332\215c\306\263\252\330\315\230T\213\311a\363\264"
 275      C6B3AAD8 
 275      CD98548B 
 275      C961F3B4 
 276 0259 074DE81F 		.ascii	"\007M\350\037\177\267\205\010\335\313\314D\201\255\222"
 276      7FB78508 
 276      DDCBCC44 
 276      81AD92
 277 0268 D3083D7E 		.ascii	"\323\010=~\264\361\245\233d\331\303\263\233X\302\321"
 277      B4F1A59B 
 277      64D9C3B3 
 277      9B58C2D1 
 278 0278 14BDE0ED 		.ascii	"\024\275\340\355\343\264\314^6\014q\266 \316\253\254"
 278      E3B4CC5E 
 278      360C71B6 
 278      20CEABAC 
 279 0288 1E486595 		.ascii	"\036He\225\022\012<k\015\322\0120M[\216\211\261N\305"
 279      120A3C6B 
 279      0DD20A30 
 279      4D5B8E89 
 279      B14EC5
 280 029b E6A1C516 		.ascii	"\346\241\305\026\177\367\361\371W\313mo\2619\314l\302"
 280      7FF7F1F9 
 280      57CB6D6F 
 280      B139CC6C 
 280      C2
 281 02ac 6F5BA33C 		.ascii	"o[\243<\272=\317\304Bb.\015lX\222\365u{\016\255f\353"
 281      BA3DCFC4 
 281      42622E0D 
 281      6C5892F5 
 281      757B0EAD 
 282 02c2 6519FEF0 		.ascii	"e\031\376\360\006\332\336\034N\317|Z \236\215\261\034"
 282      06DADE1C 
 282      4ECF7C5A 
 282      209E8DB1 
 282      1C
 283 02d3 E46F1ACD 		.ascii	"\344o\032\315\355\374\342\\\331\255\324\2477\270K\307"
 283      EDFCE25C 
 283      D9ADD4A7 
 283      37B84BC7 
 284 02e3 96FDA31C 		.ascii	"\226\375\243\034\217\261\266-.~\374\300G\2058i\357\240"
 284      8FB1B62D 
 284      2E7EFCC0 
 284      47853869 
 284      EFA0
 285 02f5 D5EDE27A 		.ascii	"\325\355\342zev;\215f\267\277\261\017\241z\247-\303"
ARM GAS  /tmp/ccANXSdL.s 			page 22


 285      65763B8D 
 285      66B7BFB1 
 285      0FA17AA7 
 285      2DC3
 286 0307 3BC4F5B4 		.ascii	";\304\365\264\2748gjz\2479\275\355\251\325\337&\253"
 286      BC38676A 
 286      7AA739BD 
 286      EDA9D5DF 
 286      26AB
 287 0319 5D54F554 		.ascii	"]T\365TW\242\332MU?\231\254\316\240T\"\245\376\355\244"
 287      57A2DA4D 
 287      553F99AC 
 287      CEA05422 
 287      A5FEEDA4 
 288 032d 0CB81D0D 		.ascii	"\014\270\035\015\370=\013\003\346\331\015\211\231\354"
 288      F83D0B03 
 288      E6D90D89 
 288      99EC
 289 033b 9505C7D7 		.ascii	"\225\005\307\327\315\375\362$\333R/\267\027\230)#4a"
 289      CDFDF224 
 289      DB522FB7 
 289      17982923 
 289      3461
 290 034d 29357A50 		.ascii	")5zP\003\314MLj\354\365c\254\317D\343tMy\366\010\260"
 290      03CC4D4C 
 290      6AECF563 
 290      ACCF44E3 
 290      744D79F6 
 291 0363 91AE1569 		.ascii	"\221\256\025iw\314\250\222K\217\241J\036\263\245\222"
 291      77CCA892 
 291      4B8FA14A 
 291      1EB3A592 
 292 0373 EB8E2D70 		.ascii	"\353\216-p\246\222\261\363\037\2215\354S\324\307\305"
 292      A692B1F3 
 292      1F9135EC 
 292      53D4C7C5 
 293 0383 AE5EE963 		.ascii	"\256^\351c\334\250\217G\027\242>\306m\351\343j\027\245"
 293      DCA88F47 
 293      17A23EC6 
 293      6DE9E36A 
 293      17A5
 294 0395 7B6ADD3A 		.ascii	"{j\335:\227\251\342\275\353\322+\236\035U\212S\252\364"
 294      97A9E2BD 
 294      EBD22B9E 
 294      1D558A53 
 294      AAF4
 295 03a7 39AAD217 		.ascii	"9\252\322\027\226k\301G\310\377\261^/\006\033\216-@"
 295      966BC147 
 295      C8FFB15E 
 295      2F061B8E 
 295      2D40
 296 03b9 AFA67A71 		.ascii	"\257\246zqE\221\022m}\032\202\233\241V\203w\337d\247"
 296      4591126D 
 296      7D1A829B 
 296      A1568377 
 296      DF64A7
 297 03cc A12BFB1A 		.ascii	"\241+\373\032\375\370q\227\351\202`\003\252e\366\266"
ARM GAS  /tmp/ccANXSdL.s 			page 23


 297      FDF87197 
 297      E9826003 
 297      AA65F6B6 
 298 03dc DBD0B79C 		.ascii	"\333\320\267\234E\240S.\343\202\220eX\020\262\364N>"
 298      45A0532E 
 298      E3829065 
 298      5810B2F4 
 298      4E3E
 299 03ee CB9B2C90 		.ascii	"\313\233,\220\200\274\017\343\2649x\006\243\000u\204"
 299      80BC0FE3 
 299      B4397806 
 299      A3007584 
 300 03fe 9A09D047 		.ascii	"\232\011\320G\013\020lq\317\253\354\205irk\201}\005"
 300      0B106C71 
 300      CFABEC85 
 300      69726B81 
 300      7D05
 301 0410 6E394614 		.ascii	"n9F\024\370\002*pw\357\024\270\303\250\300\235\212\002"
 301      F8022A70 
 301      77EF14B8 
 301      C3A8C09D 
 301      8A02
 302 0422 77D852E0 		.ascii	"w\330R\340\271\356\236\012\274\324m\252\300/\273\235"
 302      B9EE9E0A 
 302      BCD46DAA 
 302      C02FBB9D 
 303 0432 2B7007A5 		.ascii	"+p\007\245\300\337\243\002_\264T\340w\3346\024\330c"
 303      C0DFA302 
 303      5FB454E0 
 303      77DC3614 
 303      D863
 304 0444 A2C0D478 		.ascii	"\242\300\324x\312H\037\343H\237\260\277\206\3744\346"
 304      CA481FE3 
 304      489FB0BF 
 304      86FC34E6 
 305 0454 E7214F7C 		.ascii	"\347!O|8f\257\333\250_\212\207\242\220\222\256\214I"
 305      3866AFDB 
 305      A85F8A87 
 305      A29092AE 
 305      8C49
 306 0466 8565A62A 		.ascii	"\205e\246*\244\303a\210\016\022\303\035\305\341\336"
 306      A4C36188 
 306      0E12C31D 
 306      C5E1DE
 307 0475 ECAD66C5 		.ascii	"\354\255f\305\026}\274\314\231i\306\266/\274\222\350"
 307      167DBCCC 
 307      9969C6B6 
 307      2FBC92E8 
 308 0485 C0548E4C 		.ascii	"\300T\216La\274\007\267_\033\343+;\366q\306\016\027"
 308      61BC07B7 
 308      5F1BE32B 
 308      3BF671C6 
 308      0E17
 309 0497 66F3835C 		.ascii	"f\363\203\\\310\261\015\037/c\011\027f{\011V\353\337"
 309      C8B10D1F 
 309      2F630917 
 309      667B0956 
ARM GAS  /tmp/ccANXSdL.s 			page 24


 309      EBDF
 310 04a9 37C143FC 		.ascii	"7\301C\374\320W\247N\252\356\245\221#\221\322\352\214"
 310      D057A74E 
 310      AAEEA591 
 310      2391D2EA 
 310      8C
 311 04ba B491921E 		.ascii	"\264\221\222\036\210c\326b\227Y\234aY\352\340}Jm\272"
 311      8863D662 
 311      97599C61 
 311      59EAE07D 
 311      4A6DBA
 312 04cd 45498E5D 		.ascii	"EI\216]<\341\225\233sM\206\032A\263\254y\3043\361\253"
 312      3CE1959B 
 312      734D861A 
 312      41B3AC79 
 312      C433F1AB 
 313 04e1 DF93E5BE 		.ascii	"\337\223\345\276<;\007)>kNq\333\010+\034\216\351\302"
 313      3C3B0729 
 313      3E6B4E71 
 313      DB082B1C 
 313      8EE9C2
 314 04f4 2E4D068A 		.ascii	".M\006\212\343\257_h\277\246\025\221\233l\220=-v\250"
 314      E3AF5F68 
 314      BFA61591 
 314      9B6C903D 
 314      2D76A8
 315 0507 71A9AD18 		.ascii	"q\251\255\030\265\315\255\015_\222d\343\310\231\330"
 315      B5CDAD0D 
 315      5F9264E3 
 315      C899D8
 316 0516 00F4C60B 		.ascii	"\000\364\306\013\220\213\2673\323\312]\017\3031\357"
 316      908BB733 
 316      D3CA5D0F 
 316      C331EF
 317 0525 6397D69E 		.ascii	"c\227\326\236\\\304\377I\341\242\325\026\027\235*\027"
 317      5CC4FF49 
 317      E1A2D516 
 317      179D2A17 
 318 0535 3C3B9FCB 		.ascii	"<;\237\313\001\330\303\011X\273\206\244\307\273\274"
 318      01D8C309 
 318      58BB86A4 
 318      C7BBBC
 319 0544 23B789D7 		.ascii	"#\267\211\327\300>u\014\346\323\201\265\354\\\342p\301"
 319      C03E750C 
 319      E6D381B5 
 319      EC5CE270 
 319      C1
 320 0555 5C74F1D4 		.ascii	"\\t\361\324\325\257#\373mh\230/e\375\"\206\271)\313"
 320      D5AF23FB 
 320      6D68982F 
 320      65FD2286 
 320      B929CB
 321 0568 0623D686 		.ascii	"\006#\326\206\011\263\262\357\332\255\353eyV\246\246"
 321      09B3B2EF 
 321      DAADEB65 
 321      7956A6A6 
 322 0578 9F99568C 		.ascii	"\237\231V\214p\3146\034l\225qf\027]\336w\2632\263\253"
ARM GAS  /tmp/ccANXSdL.s 			page 25


 322      70CC361C 
 322      6C957166 
 322      175DDE77 
 322      B332B3AB 
 323 058c 6CCDECE6 		.ascii	"l\315\354\346\335\013\355\351g\2466|\020\207\277\214"
 323      DD0BEDE9 
 323      67A6367C 
 323      1087BF8C 
 324 059c C33F6F1C 		.ascii	"\303?o\034~\323_N\337\241\014\377\274\255\341\217\357"
 324      7ED35F4E 
 324      DFA10CFF 
 324      BCADE18F 
 324      EF
 325 05ad 35D9C2F1 		.ascii	"5\331\302\361\354\035W\246\234\276\313\347\006.\307"
 325      EC1D57A6 
 325      9CBECBE7 
 325      062EC7
 326 05bc 41D6A202 		.ascii	"A\326\242\002\265{\214\3237<\207\036\013\237\251\006"
 326      B57B8CD3 
 326      373C871E 
 326      0B9FA906 
 327 05cc 1CB3DFA3 		.ascii	"\034\263\337\243Q\337+\375\0056\337\034\376\034\316"
 327      51DF2BFD 
 327      0536DF1C 
 327      FE1CCE
 328 05db 9446C321 		.ascii	"\224F\303!\307\210z%\276\260\027-B\001;j\007\314R\221"
 328      C7887A25 
 328      BEB0172D 
 328      42013B6A 
 328      07CC5291 
 329 05ef A6C5BEA3 		.ascii	"\246\305\276\243\301>u\014\246\247\354{\032\354s;`}"
 329      C13E750C 
 329      A6A7EC7B 
 329      1AEC733B 
 329      607D
 330 0601 AD29FB81 		.ascii	"\255)\373\201\006;\341\030LO\331\2174\330i;`\003\254"
 330      063BE118 
 330      4C4FD98F 
 330      34D8693B 
 330      6003AC
 331 0614 29FB8906 		.ascii	")\373\211\006;\353\030LO\331e\032\354\274\0350\2375"
 331      3BEB184C 
 331      4FD9651A 
 331      ECBC1D30 
 331      9F35
 332 0626 654D0728 		.ascii	"eM\007(\260\016\307`z\312\232i\260Kv\300\006ZS6\237"
 332      B00EC760 
 332      7ACA9A69 
 332      B04B76C0 
 332      065A5336 
 333 063b 06EB720C 		.ascii	"\006\353r\014\246\247\354)\032l\252\327\006X\2015e\255"
 333      A6A7EC29 
 333      1A6CAAD7 
 333      06588135 
 333      65AD
 334 064d 34588363 		.ascii	"4X\203c0=e\213i\260Yv\300\206YS\266\204\006\233\343"
 334      303D658B 
ARM GAS  /tmp/ccANXSdL.s 			page 26


 334      69B05976 
 334      C0865953 
 334      B684069B 
 335 0662 184C4FD9 		.ascii	"\030LO\331+4\330<;`#\254)[O\203\315w\014\246\247l#\015"
 335      2B34D83C 
 335      3B6023AC 
 335      295B4F83 
 335      CD770CA6 
 336 067a B6D00ED8 		.ascii	"\266\320\016\330hk\312^\245\301\026;\006\323S\266\205"
 336      686BCA5E 
 336      A5C1163B 
 336      06D353B6 
 336      85
 337 068b 065B6A07 		.ascii	"\006[j\007\354^k\312^\243\301\332\034\203\351)\333F"
 337      EC5E6BCA 
 337      5EA3C1DA 
 337      1C83E929 
 337      DB46
 338 069d 833D6307 		.ascii	"\203=c\007l\2425eo\320`\317:\006\323S\266\217\006{\301"
 338      6CA23565 
 338      6FD060CF 
 338      3A06D353 
 338      B68F067B 
 339 06b2 0ED88326 		.ascii	"\016\330\203&\224%>f\375\3102\375\034Gm\326\326z\265"
 339      94253E66 
 339      FDC832FD 
 339      1C476DD6 
 339      D67AB5
 340 06c5 00C7E11A 		.ascii	"\000\307\341\032\315$1\326{\235Fd:\276I\234|\355k\352"
 340      CD2431D6 
 340      7B9D4664 
 340      3ABE499C 
 340      7CED6BEA 
 341 06d9 3AAF04AB 		.ascii	":\257\004\253[\354 \246X\000\027\357\244\"\337\230c"
 341      5BEC20A6 
 341      580017EF 
 341      A422DF98 
 341      63
 342 06ea 30832A13 		.ascii	"0\203*\0230]\350\2248\372\217\245>\361 /\2308\352=\301"
 342      305DE894 
 342      38FA8FA5 
 342      3EF1202F 
 342      9838EA3D 
 343 06ff 00F3B63C 		.ascii	"\000\363\266<{\206#[\370\277q\336\004\025JY+)G\006\355"
 343      7B86235B 
 343      F8BF71DE 
 343      04154A59 
 343      2B294706 
 344 0714 5EFD8143 		.ascii	"^\375\201C\342\223\256\253\225&\234\2465\341\003;bJ"
 344      E293AEAB 
 344      95269CA6 
 344      35E1033B 
 344      624A
 345 0726 B1B41FDF 		.ascii	"\261\264\037\337\271\004\3173\355\277\027Ytq\237\272"
 345      B904CF33 
 345      EDBF1759 
 345      74719FBA 
ARM GAS  /tmp/ccANXSdL.s 			page 27


 346 0736 4138871B 		.ascii	"A8\207\033\204\017\275\306\010s\223\3037#\020\207\031"
 346      840FBDC6 
 346      087393C3 
 346      37231087 
 346      19
 347 0747 B9303B56 		.ascii	"\2710;V\261\216)@\027\217\\\277u\255,\327g:\341\243"
 347      B18E2940 
 347      178F5CBF 
 347      75AD2CD7 
 347      673AE1A3 
 348 075b 5DE5A303 		.ascii	"]\345\243\003\3718\361\013\360q\3261\037\003\015|\304"
 348      F938F10B 
 348      F071D631 
 348      1F030D7C 
 348      C4
 349 076c 063AE7E3 		.ascii	"\006:\347\343\210\312\307\217\310G\307/\300G\227c>\012"
 349      88CAC78F 
 349      C847C72F 
 349      C0479763 
 349      3E0A
 350 077e 283E70B7 		.ascii	"(>p\2676H\331\255]\3014\247\336\255\021z\272\271+\014"
 350      3648D9AD 
 350      5DC134A7 
 350      DEAD117A 
 350      BAB92B0C 
 351 0792 E7DBBBC8 		.ascii	"\347\333\273\310\221#\251\266q\370\261\213\332\342\312"
 351      9123A9B6 
 351      71F8B18B 
 351      DAE2CA
 352 07a1 F6B6B8E7 		.ascii	"\366\266\270\347T\211Ms\021\211M\31769\022\266\205t"
 352      54894D73 
 352      11894DCF 
 352      363912B6 
 352      8574
 353 07b3 74C73BEB 		.ascii	"t\307;\353\324\343\237\006\204\232\335k\250\226]\233"
 353      D4E39F06 
 353      849ADD6B 
 353      A8965D9B 
 354 07c3 95D78D33 		.ascii	"\225\327\2153\021\2509\3338\213\231\206I"
 354      11A839DB 
 354      388B9986 
 354      49
 355 07d0 CCD44F22 		.ascii	"\314\324O\"<\222\221~ ;n\3661\265\206<d1\377\357\375"
 355      3C92917E 
 355      203B6EF6 
 355      31B5863C 
 355      6431FFEF 
 356 07e5 38660992 		.ascii	"8f\011\222O&\320\341\002\225T\240\337oU\027\027e\222"
 356      4F26D0E1 
 356      029554A0 
 356      DF6F5517 
 356      176592
 357 07f8 9EF95988 		.ascii	"\236\371Y\210\323b\033\036\327\216i\206\223\345\345"
 357      D3621B1E 
 357      D78E6986 
 357      93E5E5
 358 0807 C59F09B7 		.ascii	"\305\237\011\267\177\267\363\203\225\3305\212\326\315"
ARM GAS  /tmp/ccANXSdL.s 			page 28


 358      7FB7F383 
 358      95D8358A 
 358      D6CD
 359 0815 438636F4 		.ascii	"C\2066\364\230\341^\035\254l\357-#\211\017\307\354\310"
 359      98E15E1D 
 359      AC6CEF2D 
 359      23890FC7 
 359      ECC8
 360 0827 B6B188F8 		.ascii	"\266\261\210\370R\315\326\017\203l\036\316$\016!O\015"
 360      52CDD60F 
 360      836C1ECE 
 360      240E214F 
 360      0D
 361 0838 6847612C 		.ascii	"hGa,t\221\343\273]\006a\3308\3449\212]\026\273z\034"
 361      7491E3BB 
 361      5D0661D8 
 361      38E4398A 
 361      5D16BB7A 
 362 084d DFEDBB5A 		.ascii	"\337\355\273Z9e!\177\262q\310\243;\276\343\331%\034"
 362      3965217F 
 362      B271C8A3 
 362      3BBEE3D9 
 362      251C
 363 085f A7C2F656 		.ascii	"\247\302\366V\236\272)L\322\007\320.\022/,u\351\216"
 363      9EBA294C 
 363      D207D02E 
 363      122F2C75 
 363      E98E
 364 0871 F94F3B96 		.ascii	"\371O;\226\275\217\226}\254s\367\022V\241_9\316\375"
 364      BD8F967D 
 364      AC73F712 
 364      56A15F39 
 364      CEFD
 365 0883 D6883782 		.ascii	"\326\2107\202\216\345\324\242\345\276U\2165\357\301"
 365      8EE5D4A2 
 365      E5BE558E 
 365      35EFC1
 366 0892 204C31BA 		.ascii	" L1\272\313v\210K\261\325\\\246\200)\012?=\307)\230"
 366      CB76884B 
 366      B1D55CA6 
 366      80290A3F 
 366      3DC72998 
 367 08a6 4F07F6FA 		.ascii	"O\007\366\372\\\223\343b\345\210\334jaY\355\242B\245"
 367      5C93E362 
 367      E588DC6A 
 367      6159EDA2 
 367      42A5
 368 08b8 27ED8C9F 		.ascii	"'\355\214\237bwzh\317\022US\224\223\321E\216\361\364"
 368      62777A68 
 368      CF125553 
 368      9493D145 
 368      8EF1F4
 369 08cb FC9C9FAB 		.ascii	"\374\234\237\253\363H+\355\300\215\260\255x\311smPB"
 369      F3482BED 
 369      C08DB0AD 
 369      78C9736D 
 369      5042
ARM GAS  /tmp/ccANXSdL.s 			page 29


 370 08dd 0C549FE6 		.ascii	"\014T\237\346\310\233\241\245\230/\307|%\346_b~\022"
 370      C89BA1A5 
 370      982FC77C 
 370      25E65F62 
 370      7E12
 371 08ef F35398FF 		.ascii	"\363S\230\377/\346\337a~\011\363\313\230?\345\302\276"
 371      2FE6DF61 
 371      7E09F3CB 
 371      983FE5C2 
 371      BE
 372 0900 98AFC0FC 		.ascii	"\230\257\300\374\031\314Wa\276\006\363\347i\365\266"
 372      19CC5761 
 372      BE06F3E7 
 372      69F5B6
 373 090f 9A17C5D4 		.ascii	"\232\027\305\324\022\206\251Y]S\257\017\315\017'\017"
 373      1286A959 
 373      5D53AF0F 
 373      CD0F270F 
 374 091f CD797699 		.ascii	"\315yv\231c0_*I6Q\222lFI\266\2404^\324\033\362\2139"
 374      63305F2A 
 374      49365192 
 374      6C4649B6 
 374      A0345ED4 
 375 0937 DA6B9C14 		.ascii	"\332k\234\024\206g\315B\374\303\257Ne-\222c\323]\332"
 375      8667CD42 
 375      FCC3AF4E 
 375      652D9263 
 375      D35DDA
 376 094a 0E68A311 		.ascii	"\016h\243\0210\355\006M/\223\313\202\341\306\205\362"
 376      30ED064D 
 376      2F93CB82 
 376      E1C685F2 
 377 095a 8ECA6A4E 		.ascii	"\216\312jN\326\321\266\262\315\361\330)E8\213\022\341"
 377      D6D1B6B2 
 377      CDF1D829 
 377      45388B12 
 377      E1
 378 096b E328C227 		.ascii	"\343(\302'P\204kQe^\241\005\311\263\2639\303}\023\375"
 378      50846B51 
 378      655EA105 
 378      C9B3B339 
 378      C37D13FD 
 379 097f 0BB31483 		.ascii	"\013\263\024\203'^rw\0346\271p\242\274*J\261(-|\343"
 379      275E7277 
 379      1C36B970 
 379      A2BC2A4A 
 379      B1282D7C 
 380 0994 E8B52FE2 		.ascii	"\350\265/\342\322\261\321E&\2403\307\270B\317\347\014"
 380      D2B1D145 
 380      26A033C7 
 380      B842CFE7 
 380      0C
 381 09a5 87E70645 		.ascii	"\207\347\006E\346\230\271\2716^@\246\330\311\254\233"
 381      E698B9B9 
 381      365E40A6 
 381      D8C9AC9B 
 382 09b5 7BF1305B 		.ascii	"{\3610[_/\257)P#\013\271Q\036\270&\271\010\366\3250"
ARM GAS  /tmp/ccANXSdL.s 			page 30


 382      5F2FAF29 
 382      50230BB9 
 382      511EB826 
 382      B908F6D5 
 383 09ca B804DDB1 		.ascii	"\270\004\335\261M\312\213\324\255\350e\027\344\232\336"
 383      4DCA8BD4 
 383      ADE86517 
 383      E49ADE
 384 09d9 6F480F13 		.ascii	"oH\017\023?\332\270\371\367\030\201nC\240\345\275\006"
 384      3FDAB8F9 
 384      F718816E 
 384      43A0E5BD 
 384      06
 385 09ea 6A99FDAC 		.ascii	"j\231\375\254rQb;\002\255\3115\212\321e\210s\\\3728"
 385      7251623B 
 385      02ADC935 
 385      8AD16588 
 385      735CFA38 
 386 09fe C7E54D16 		.ascii	"\307\345M\026\272\273]\314\337\2611\204a\306\011\323"
 386      BABB5DCC 
 386      DFB13184 
 386      61C609D3 
 387 0a0e 71942EF6 		.ascii	"q\224.\366!\023\326\245*\233v\303d\213\035\025\320!"
 387      2113D6A5 
 387      2A9B76C3 
 387      648B1D15 
 387      D021
 388 0a20 EA5420F6 		.ascii	"\352T \366\323\307\350\313\024\260\267\354\200\2458"
 388      D3C7E8CB 
 388      14B0B7EC 
 388      80A538
 389 0a2f 865EB06C 		.ascii	"\206^\260l\271\345;\254\266\264W\257\342[O\276\367\007"
 389      B9E53BAC 
 389      B6B457AF 
 389      E25B4FBE 
 389      F707
 390 0a41 721130FD 		.ascii	"r\0210\375\365\253].{\327\257\336w\031\337s\357\301"
 390      F5AB5D2E 
 390      7BD7AFDE 
 390      7719DF73 
 390      EFC1
 391 0a53 EB57EFDB 		.ascii	"\353W\357\333\212\326.\232\305\000f\267\021\023.c@\222"
 391      8AD62E9A 
 391      C50066B7 
 391      11132E63 
 391      4092
 392 0a65 998FBE7E 		.ascii	"\231\217\276~\357\016\345V\343>\014:\367\376*\375\255"
 392      EF0EE556 
 392      E33E0C3A 
 392      F7FE2AFD 
 392      AD
 393 0a76 461D0EA1 		.ascii	"F\035\016\241\357\240\221\376\015{\221\376\203\351\351"
 393      EFA091FE 
 393      0D7B91FE 
 393      83E9E9
 394 0a85 9F5E1FDB 		.ascii	"\237^\037\333\254\276\323Cc\252O\271m\340\3313xE\304"
 394      ACBED343 
ARM GAS  /tmp/ccANXSdL.s 			page 31


 394      63AA4FB9 
 394      6DE0D933 
 394      7845C4
 395 0a98 CE26E00B 		.ascii	"\316&\340\013\344\344\240\363\240U%k\213\362N\3460\332"
 395      E4E4A0F3 
 395      A055256B 
 395      8BF24EE6 
 395      30DA
 396 0aaa EB09C760 		.ascii	"\353\011\307`>\035\330k4\330\327v\300\254\0261\000\333"
 396      3E1DD86B 
 396      34D8D776 
 396      C0AC1631 
 396      00DB
 397 0abc 46837DE3 		.ascii	"F\203}\343\030LO\331\0334\330\267v\300\254N+\001l\037"
 397      184C4FD9 
 397      1B34D8B7 
 397      76C0AC4E 
 397      2B016C1F 
 398 0ad0 0DF68363 		.ascii	"\015\366\203c0\237\231\2260=\224\214g?\304]\303!\\)"
 398      309F9996 
 398      303D948C 
 398      673FC45D 
 398      C3215C29 
 399 0ae4 8F607E0C 		.ascii	"\217`~\014\363O0\377\014\363\270\235\240k/\275\300\377"
 399      F34F30FF 
 399      0CF3B89D 
 399      A06B2FBD 
 399      C0FF
 400 0af6 8404BFDF 		.ascii	"\204\004\277\337;\215\001\267\267\365\344\347\267+\247"
 400      3B8D01B7 
 400      B7F5E4E7 
 400      B72BA7
 401 0b05 BF863596 		.ascii	"\277\2065\226\310\303\212\202/i\012\352\363\234R\340"
 401      C8C38A82 
 401      2F690AEA 
 401      F39C52E0 
 402 0b15 A3298875 		.ascii	"\243)\210u\356QN.\265\213\3363\215xv\257fi\341\322\236"
 402      EE514E2E 
 402      B58BDE33 
 402      8D7876AF 
 402      6669E1D2 
 403 0b2a 9C571ED4 		.ascii	"\234W\036\324\300\236t\014\246\273~\035k\332K\201-r"
 403      C09E740C 
 403      A6BB7E1D 
 403      6BDA4B81 
 403      2D72
 404 0b3c 0CD6B787 		.ascii	"\014\326\267\207F(\272\360\001\352\302\036\234\363\277"
 404      4628BAF0 
 404      01EAC21E 
 404      9CF3BF
 405 0b4b 627E12F3 		.ascii	"b~\022\363S\230\177\255\017H\333\362\214\353\256\342"
 405      53987FAD 
 405      0F48DBF2 
 405      8CEBAEE2 
 406 0b5b 6329D4A4 		.ascii	"c)\324\2443f\354\342Z\315m;=\267\033\362\234\256Z\272"
 406      3366ECE2 
 406      5ACD6D3B 
ARM GAS  /tmp/ccANXSdL.s 			page 32


 406      3DB71BF2 
 406      9CAE5ABA 
 407 0b6f B9854575 		.ascii	"\271\205Eu\347W\332\242\332\216\261\330V;\210)v\242"
 407      E757DAA2 
 407      DA8EB1D8 
 407      563B8829 
 407      76A2
 408 0b81 1B3F33BE 		.ascii	"\033?3\276\0160\363\366\034M[b\325x\363~e\325\270\200"
 408      0E30F3F6 
 408      1C4D5B62 
 408      D578F37E 
 408      65D5B880 
 409 0b95 ABC6F6BC 		.ascii	"\253\306\366\274\364\253\006\247\347\221g;\214\253\306"
 409      F4AB06A7 
 409      E791673B 
 409      8CABC6
 410 0ba4 A583B86A 		.ascii	"\245\203\270jt\330Z5\272\016\316Ww\212\212\267\331\215"
 410      74D85A35 
 410      BA0ECE57 
 410      778A8AB7 
 410      D98D
 411 0bb6 2474F4DA 		.ascii	"$t\364\332\335_>H\271\256\275\216\301|:\260\246\303"
 411      DD5F3E48 
 411      B9AEBD8E 
 411      C17C3AB0 
 411      A6C3
 412 0bc8 14D8413B 		.ascii	"\024\330A;`)\334}3\015v\3041\230\236\262\3714\330\247"
 412      6029DC7D 
 412      330D76C4 
 412      31989EB2 
 412      F934D8A7 
 413 0bdc 76C052B8 		.ascii	"v\300R\270\373\247h\260\270c0=e\2554\330\227v\300\254"
 413      FBA768B0 
 413      B863303D 
 413      65AD34D8 
 413      9776C0AC 
 414 0bf0 5EE100D8 		.ascii	"^\341\000\330b\032\354\224c0=eKh\260\277\331\001\363"
 414      621AEC94 
 414      63303D65 
 414      4B68B0BF 
 414      D901F3
 415 0c03 5953B68C 		.ascii	"YS\266\214\006\273\340\030\314gf\022\312\207\266(\236"
 415      06BBE018 
 415      CC676612 
 415      CA87B628 
 415      9E
 416 0c14 FD1EDDE2 		.ascii	"\375\036\335\342EtV\2270\357\304\274\013\363n\314\247"
 416      45745697 
 416      30EFC4BC 
 416      0BF36ECC 
 416      A7
 417 0c25 BA495E8F 		.ascii	"\272I^\217y\003\34630\237\345\266\341\334\316\323\316"
 417      7903E633 
 417      309FE5B6 
 417      E1DCCED3 
 417      CE
 418 0c36 EDA26357 		.ascii	"\355\242cW\224\222\221\344Odx\366-\214\370\336\306+"
ARM GAS  /tmp/ccANXSdL.s 			page 33


 418      949291E4 
 418      4F6478F6 
 418      2D8CF8DE 
 418      C62B
 419 0c48 BC873097 		.ascii	"\274\2070\227q\237\334\200\371\006dd\013\346oc\376."
 419      719FDC80 
 419      F9066464 
 419      0BE66F63 
 419      FE2E
 420 0c5a E63B31FF 		.ascii	"\346;1\377\006\363sv|\365\353\311\213\277\260\037w\223"
 420      06F37376 
 420      7CF5EBC9 
 420      8BBFB01F 
 420      7793
 421 0c6c EDF6AA5E 		.ascii	"\355\366\252^_)?\261\373I\247w\362\317\304W\253oM\346"
 421      5F293FB1 
 421      FB49A777 
 421      F2CFC457 
 421      AB6F4DE6 
 422 0c80 E0FDEDCE 		.ascii	"\340\375\355\316\036+U\257\216\302\033\372\260\3519"
 422      1E2B55AF 
 422      8EC21BFA 
 422      B0E939
 423 0c8f 4971C7B0 		.ascii	"Iq\307\260a\356\034\226D\024\375\230&\364\350\003\224"
 423      61EE1C96 
 423      4414FD98 
 423      26F4E803 
 423      94
 424 0ca0 77B16ADB 		.ascii	"w\261j\333\211\032B\216JR\263\273\037\226t\357x\260"
 424      891A428E 
 424      4A52B3BB 
 424      1F9674EF 
 424      78B0
 425 0cb2 8595DC5B 		.ascii	"\205\225\334[\334\311\367\275\271\336d!;\241[s\214,"
 425      DCC9F7BD 
 425      B9DE6421 
 425      3BA15B73 
 425      8C2C
 426 0cc4 E8464DE3 		.ascii	"\350FM\343\362`\231\353\370\241\235\225\233s\0151\031"
 426      F26099EB 
 426      F8A19D95 
 426      9B730D31 
 426      19
 427 0cd5 0943AC68 		.ascii	"\011C\254hz\312M\251v\263\035\011\246x\233\374}\220"
 427      7ACA4DA9 
 427      76B31D09 
 427      A6789BFC 
 427      7D90
 428 0ce7 ACD80492 		.ascii	"\254\330\004\222cZ\035c\371,l\204\321\377p\223gW\243"
 428      635A1D63 
 428      F92C6C84 
 428      D1FF7093 
 428      6757A3
 429 0cfa 993C8B06 		.ascii	"\231<\213\006\262\021\363m\230?\201\026=\017\363\005"
 429      B211F36D 
 429      983F8116 
 429      3D0FF305 
ARM GAS  /tmp/ccANXSdL.s 			page 34


 430 0d0a 98B7D2D6 		.ascii	"\230\267\322\326}=\263Ln\213\307\273~<\377\0109h\223"
 430      7D3DB34C 
 430      6E8BC7BB 
 430      7E3CFF08 
 430      396893
 431 0d1d BBBB1F63 		.ascii	"\273\273\037c\256b\026\250\223'\263\222r\354m%\251\247"
 431      AE6216A8 
 431      9327B392 
 431      72EC6D25 
 431      A9A7
 432 0d2f DD5761C9 		.ascii	"\335Wa\311\245\374\342 m0\221\270n<:\251\372\373;O\337"
 432      A5FCE220 
 432      6D3091B8 
 432      6E3C3AA9 
 432      FAFB3B4F 
 433 0d44 804723CB 		.ascii	"\200G#\313\334$\226x\253O\372XB\007C\350X\3416\304\022"
 433      DC249678 
 433      AB4FFA58 
 433      420743E8 
 433      58E136C4 
 434 0d59 9DE427AC 		.ascii	"\235\344'\254\2446\375\313\322\356\225\344\246\270\366"
 434      A436FDCB 
 434      D2EE95E4 
 434      A6B8F6
 435 0d68 93DADD38 		.ascii	"\223\332\3358<\351\251\016&\353~/\233n\027 \307\346"
 435      3CE9A90E 
 435      26EB7E2F 
 435      9B6E1720 
 435      C7E6
 436 0d7a 5DF2C8B3 		.ascii	"]\362\310\263s5{Y\223\247\234\035\251M{l\375W;6\230"
 436      73357B59 
 436      93A79C1D 
 436      A94D7B6C 
 436      FD573B36 
 437 0d8f 672D0C46 		.ascii	"g-\014F\373\235\033\307\0340\262\240\0335\315\022\005"
 437      FB9D1BC7 
 437      1C30B2A0 
 437      1B35CD12 
 437      05
 438 0da0 1CB49C6D 		.ascii	"\034\264\234mu\241D\006e\223\273\333F4Gq\253\034\233"
 438      75A14406 
 438      6593BBDB 
 438      46344771 
 438      AB1C9B
 439 0db3 FF014B0C 		.ascii	"\377\001K\014\000\261\216\333\301\262\214X\345\330\302"
 439      00B18EDB 
 439      C1B28C58 
 439      E5D8C2
 440 0dc2 0E8FDCA8 		.ascii	"\016\217\334\250\311\266mDk\032;^\353X\270/[\010W;C"
 440      C9B66D44 
 440      6B1A3B5E 
 440      EB58B82F 
 440      5B08573B 
 441 0dd7 E398D38E 		.ascii	"\343\230\323\216Y\320\213\2435\243\265@S\016\003\375"
 441      59D08BA3 
 441      35A3B540 
 441      530E03FD 
ARM GAS  /tmp/ccANXSdL.s 			page 35


 442 0de7 FA335D42 		.ascii	"\3723]B\316z\307\014l\260`\240O\202\201\013=\024\334"
 442      CE7AC70C 
 442      6CB060A0 
 442      4F82810B 
 442      3D14DC
 443 0dfa EC28D9EC 		.ascii	"\354(\331\354\235\217\331\2076=\236\375\213\2338\241"
 443      9D8FD987 
 443      363D9EFD 
 443      8B9B38A1 
 444 0e0a 67D0CDAC 		.ascii	"g\320\315\254\302\3749\314_\300\374%\314\327\331\011"
 444      C2FC39CC 
 444      5FC0FC25 
 444      CCD7D909 
 445 0e1a 2E96263D 		.ascii	".\226&=\260\352Z\022+t\342Y\275\302\301\263\367%O8a"
 445      B0EA5A12 
 445      2B74E259 
 445      BDC2C1B3 
 445      F7254F38 
 446 0e2f DD34B88F 		.ascii	"\3354\270\217\033\230gd\271\2318\270\375d\3674Z\301"
 446      1B986764 
 446      B99938B8 
 446      FD64F734 
 446      5AC1
 447 0e41 E698197D 		.ascii	"\346\230\031}\361U\251\373zS\032T\012\224\316\362fa"
 447      F155A9FB 
 447      7A531A54 
 447      0A94CEF2 
 447      6661
 448 0e53 B4323CC7 		.ascii	"\2642<\307\314J\323\015\211T\273]|`\200\266\335m2v3"
 448      CC4AD30D 
 448      8954BB5D 
 448      7C6080B6 
 448      DD6D3276 
 449 0e68 5C9B5279 		.ascii	"\\\233Ry\371\015\263\212\314\363\313\215\015}\335\212"
 449      F90DB38A 
 449      CCF3CB8D 
 449      0D7DDD8A 
 450 0e78 E365528C 		.ascii	"\343eR\214\246\312j\263[\367\237\004\024\217\036k\022"
 450      A6CA6AB3 
 450      5BF79F04 
 450      148F1E6B 
 450      12
 451 0e89 DAE57310 		.ascii	"\332\345s\020\0048p\3461\2753Wd\240>x\230\031\312\217"
 451      043870E6 
 451      31BD3357 
 451      64A03E78 
 451      9819CA8F 
 452 0e9d DAE4A9EC 		.ascii	"\332\344\251\354#\214)\027\311\213b\020\212\271=d\223"
 452      238C2917 
 452      C98B6210 
 452      8AB93D64 
 452      93
 453 0eae DF97B5D2 		.ascii	"\337\227\265\322\032\322@S\000\245\254\225X\306dV\227"
 453      1AD24053 
 453      00A5AC95 
 453      58C66456 
 453      97
ARM GAS  /tmp/ccANXSdL.s 			page 36


 454 0ebf F7359B55 		.ascii	"\3675\233U\2713\250\316'\317n\305\220m\273\255\371|"
 454      B933A8CE 
 454      27CF6EC5 
 454      906DBBAD 
 454      F97C
 455 0ed1 9A4C8C42 		.ascii	"\232L\214B\342\013\010\274\335rbT:\315'\306j4\225\203"
 455      E20B08BC 
 455      DD726254 
 455      3ACD27C6 
 455      6A349583 
 456 0ee5 1DA613F3 		.ascii	"\035\246\023\363\252\363\211y\337lb\014\022\332`.\241"
 456      AAF38979 
 456      DF6C620C 
 456      12DA602E 
 456      A1
 457 0ef6 2EA38476 		.ascii	".\243\204v\247\226\220\025\253V\335T\012\367\230\262"
 457      A7969015 
 457      AB56DD54 
 457      0AF798B2 
 458 0f06 7ACE39AB 		.ascii	"z\3169\253\007R\350 \317\016\325{\000\345\321 \210\230"
 458      0752E820 
 458      CF0ED57B 
 458      00E5D120 
 458      8898
 459 0f18 B920F60B 		.ascii	"\271 \366\013\006A\354\267\245*\035\244\333Pb\371\307"
 459      0641ECB7 
 459      A52A1DA4 
 459      DB5062F9 
 459      C7
 460 0f29 11D7BAD7 		.ascii	"\021\327\272\327P\312_\354\310mb\325n\247lt\263\022"
 460      50CA5FEC 
 460      C86D62D5 
 460      6EA76C74 
 460      B312
 461 0f3b BA552F55 		.ascii	"\272U/UV\207{\012=\336\024_y\340\011\231m\232\032\357"
 461      56877B0A 
 461      3DDE145F 
 461      79E00999 
 461      6D9A1AEF 
 462 0f4f EEBEDE81 		.ascii	"\356\276\336\201\334?K\021\310)\241\221U\317\270\211"
 462      DC3F4B11 
 462      C829A191 
 462      55CFB889 
 463 0f5f AB56DD59 		.ascii	"\253V\335Y\032W\375\235a\2464\276\376j\306W\254\353"
 463      1A57FD9D 
 463      61A634BE 
 463      FE6AC657 
 463      ACEB
 464 0f71 88155F16 		.ascii	"\210\025_\026\277\376!P'\214\352\024\247\325\311bEI"
 464      BFFE2150 
 464      278CEA14 
 464      A7D5C962 
 464      4549
 465 0f83 3CABFB00 		.ascii	"<\253\373\000\313\3479n\272\275Af\3246\251\007Yg\335"
 465      CBE7396E 
 465      BABD4166 
 465      D436A907 
ARM GAS  /tmp/ccANXSdL.s 			page 37


 465      5967DD
 466 0f96 F43B5383 		.ascii	"\364;S\203X\036\357g.\226"
 466      581EEF67 
 466      2E96
 467 0fa0 6F4CC5D2 		.ascii	"oL\305\322\375Io\246\373\\J\271\250N\317@\327b\013\272"
 467      FD496FA6 
 467      FB5C4AB9 
 467      A84ECF40 
 467      D7620BBA 
 468 0fb4 BE35A5AB 		.ascii	"\2765\245\253\351\204\354ql\375\035)\3112\212?\335t"
 468      E984EC71 
 468      6CFD1D29 
 468      C9328A3F 
 468      DD74
 469 0fc6 996BDD73 		.ascii	"\231k\335s\026lt\232Z\323\3027N\017o]/O\237%_\356~\214"
 469      166C749A 
 469      5AD3C237 
 469      4E0F6F5D 
 469      2F4F9F25 
 470 0fde B5AF785D 		.ascii	"\265\257x]FN\210\256\030(\331fAI\267\236\222\177aV\310"
 470      464E88AE 
 470      1828D966 
 470      4149B79E 
 470      927F6156 
 471 0ff3 F2018860 		.ascii	"\362\001\210`\026\015\\(\307\246\312\362O"
 471      160D5C28 
 471      C7A6CAF2 
 471      4F
 472 1000 DDDD2CAB 		.ascii	"\335\335,\253E\026;\023 f\013\030\201\233\232\241\300"
 472      45163B13 
 472      20660B18 
 472      819B9AA1 
 472      C0
 473 1011 4D641322 		.ascii	"Md\023\"1\250*\211\223\255\030\231\226\221PUC\257\365"
 473      31A82A89 
 473      93AD1899 
 473      96915055 
 473      43AFF5
 474 1024 297AD55B 		.ascii	")z\325[\366\"\026i\325k\272e\257\346\024c5X\366\372"
 474      F6221669 
 474      D56BBA65 
 474      AFE61463 
 474      3558F6FA 
 475 1038 2CC5588D 		.ascii	",\305X\215\226\275\316\245\3505#\331\313\"\210\037\240"
 475      96BDCEA5 
 475      E83523D9 
 475      CB22881F 
 475      A0
 476 1049 DF32F0EC 		.ascii	"\3372\360\354\314\014\2471\374\254\014\363\030^\323"
 476      CC0CA731 
 476      FCAC0CF3 
 476      185ED3
 477 1058 0A1529D6 		.ascii	"\012\025)\326(\317d\247\256\2736\021\215\215\320\032"
 477      28CF64A7 
 477      AEBB3611 
 477      8D8DD01A 
 478 1068 D2BF6CDE 		.ascii	"\322\277l\336\261G\273\215;;\203@\3547(\235\003\260"
ARM GAS  /tmp/ccANXSdL.s 			page 38


 478      B147BB8D 
 478      3B3B8340 
 478      EC37289D 
 478      03B0
 479 107a B696D9D7 		.ascii	"\266\226\331\327\222\003\3729\010t\324\000\304\263\036"
 479      9203FA39 
 479      0874D400 
 479      C4B31E
 480 1089 C3F99447 		.ascii	"\303\371\224G\177>\345Qn\307\342G\271\035\353Q\016\252"
 480      7F3EE551 
 480      6EC7E247 
 480      B91DEB51 
 480      0EAA
 481 109b C8E731E6 		.ascii	"\310\3471\346g\3655LaW\212)l\262\234\370\216\024\275"
 481      67F5354C 
 481      61578A29 
 481      6CB29CF8 
 481      8E14BD
 482 10ae E659F622 		.ascii	"\346Y\366\"\363k\325\2539\331\213\271\262D\014M\026"
 482      F36BD5AB 
 482      39D98BB9 
 482      B2440C4D 
 482      16
 483 10bf C4687EA8 		.ascii	"\304h~\250(\340\217\0125\321\2608\250\222\311\031ST"
 483      28E08F0A 
 483      35D1B038 
 483      A892C919 
 483      5354
 484 10d1 5C860F7E 		.ascii	"\\\206\017~)\363\356\361\367\371\212\231>\311\252\250"
 484      29F3EEF1 
 484      F7F98A99 
 484      3EC9AAA8 
 485 10e1 C44B8267 		.ascii	"\304K\202g\314\370\221\305\345c\3768\312=\246d\354("
 485      CCF891C5 
 485      E563FE38 
 485      CA3DA664 
 485      EC28
 486 10f3 F79DF795 		.ascii	"\367\235\367\225\335\237\201\177\270!\2776*\346\363"
 486      DD9F817F 
 486      B821BF36 
 486      2AE6F3
 487 1102 62F5CD35 		.ascii	"b\365\3155\341\032\341f\201\177(\224\037\252\011T\325"
 487      E11AE166 
 487      817F2894 
 487      1FAA0954 
 487      D5
 488 1113 0685FCA8 		.ascii	"\006\205\374\250\024\014\325H0@V-|\017\363KCR4\256\346"
 488      140CD548 
 488      3040562D 
 488      7C0FF34B 
 488      435234AE 
 489 1128 0395A11A 		.ascii	"\003\225\241\032!\337\037\024*\370\332*\311/M\211\010"
 489      21DF1F14 
 489      2AF8DA2A 
 489      C92F4D89 
 489      08
 490 1139 51E8ECF5 		.ascii	"Q\350\354\365\373\325\356Y|0(\012\321hI~e\270Z\310\017"
ARM GAS  /tmp/ccANXSdL.s 			page 39


 490      FBD5EE59 
 490      7C30280A 
 490      D168497E 
 490      65B85AC8 
 491 114e 848353F2 		.ascii	"\204\203S\362\203\302\344|\350\370P(\034\315\227\304"
 491      83C2E47C 
 491      E8F85028 
 491      1CCD97C4 
 492 115e DA9A87F3 		.ascii	"\332\232\207\363\241P\311W\345G\302\242\024\315/+\037"
 492      A150C957 
 492      E547C2A2 
 492      14CD2F2B 
 492      1F
 493 116f 37B8287F 		.ascii	"7\270(\177\354\330\222|`hr!\362]U\025$\260P\241H\243"
 493      ECD8927C 
 493      60687221 
 493      F25D5515 
 493      24B050A1 
 494 1185 C80E9C46 		.ascii	"\310\016\234F&\000@\347l\370B\366\375R6\340\370\357"
 494      260040E7 
 494      6CF842F6 
 494      FD5236E0 
 494      F8EF
 495 1197 1B3F66FC 		.ascii	"\033?f\374\230r\017)\226\225O\270\227`\373KG\215,\271"
 495      98720F29 
 495      96954FB8 
 495      9760FB4B 
 495      478D2CB9 
 496 11ab FF57A4A4 		.ascii	"\377W\244\244H\316_>\221~*\235\210=\307N(\276gTI\016"
 496      48CE5F3E 
 496      917E2A9D 
 496      883DC74E 
 496      28BE6754 
 497 11c1 E08523D5 		.ascii	"\340\205#\325\341 \001\234p\357\270\011%\243\374\360"
 497      E120019C 
 497      70EFB809 
 497      25A3FCF0 
 498 11d1 D72BD462 		.ascii	"\327+\324b\3318\020\270\277d\324\037\307\024\217\352"
 498      D93810B8 
 498      BF64D41F 
 498      C7148FEA 
 499 11e1 A7AB1B3D 		.ascii	"\247\253\033=\241\254<+\034\361\223\256\036\"\246\301"
 499      A1AC3C2B 
 499      1CF193AE 
 499      1E22A6C1 
 500 11f1 4580A048 		.ascii	"E\200\240H\214\024s\002U\341\300\303\376hD\020\202y"
 500      8C147302 
 500      55E1C0C3 
 500      FE684410 
 500      8279
 501 1203 3048B056 		.ascii	"0H\260V\232\022\230\022\250\202q\362\312\312K\374%\367"
 501      9A129812 
 501      A88271F2 
 501      CACA4BFC 
 501      25F7
 502 1215 95DFEF2F 		.ascii	"\225\337\357/\276\277x\354\250~w\215,+\247\236\375E"
 502      BEBF78EC 
ARM GAS  /tmp/ccANXSdL.s 			page 40


 502      A87E778D 
 502      2C2BA79E 
 502      FD45
 503 1227 FF60AC29 		.ascii	"\377`\254)\034\352\277-\233 \370\021\202pY\034\256\251"
 503      1CEABF2D 
 503      9B20F811 
 503      8270591C 
 503      AEA9
 504 1239 084DCA0C 		.ascii	"\010M\312\014\340\027\221JE\025?)\012j$\210bX\214\016"
 504      E017914A 
 504      45153F29 
 504      0A6A2488 
 504      62588C0E 
 505 124d 4E275A51 		.ascii	"N'ZQJH6PY-\325\021e\251\256\225\204:\277\224\201\337"
 505      4A483650 
 505      592DD511 
 505      65A9AE95 
 505      843ABF94 
 506 1263 C31C2144 		.ascii	"\303\034!D\247D5\265\351#U\212\002\037\214\372\037\251"
 506      A74435B5 
 506      E923558A 
 506      021F8CFA 
 506      1FA9
 507 1275 156A81DD 		.ascii	"\025j\201\335\276\201J\277\256j\2103\344@%\321\032\217"
 507      BE814ABF 
 507      AE6A8833 
 507      E44025D1 
 507      1A8F
 508 1287 02E197BC 		.ascii	"\002\341\227\274\011\270\314\210\277F\250\223\340+\""
 508      09B8CC88 
 508      BF46A893 
 508      E02B22
 509 1296 0A9347DB 		.ascii	"\012\223G\333@UTsd\351\270\342qu\320\262:\022\252\""
 509      40555473 
 509      64E9B8E2 
 509      7175D0B2 
 509      3A12AA22 
 510 12aa 36797771 		.ascii	"6ywq14\327\350\317\222\"b(\354WpC\341,\0201\210C\272"
 510      3134D7E8 
 510      CF922262 
 510      28EC5770 
 510      43E12C10 
 511 12c2 CD317E65 		.ascii	"\3151~e ,\012\304\312I\265\037\364\" \325\375{\357P"
 511      202C0AC4 
 511      CA49B51F 
 511      F42220D5 
 511      FD7BEF50 
 512 12d6 FC936FAD 		.ascii	"\374\223o\255&B\020\205I`\304~\311\025-\034\012\351"
 512      26421085 
 512      4960C47E 
 512      C9152D1C 
 512      0AE9
 513 12e8 5648C320 		.ascii	"VH\303 \335\346\212\026\025@*\204T\004i0\244!\220n\201"
 513      DDE68A16 
 513      15402A84 
 513      54046930 
 513      A421906E 
ARM GAS  /tmp/ccANXSdL.s 			page 41


 514 12fd 04ED8AA0 		.ascii	"\004\355\212\240]\021\264+\202v\203\241\335\340BN\034"
 514      5D11B42B 
 514      827683A1 
 514      DDE0424E 
 514      1C
 515 130e C289B770 		.ascii	"\302\211\267p\342PN\274\225\023\207q\342m.\261\260\000"
 515      E2504EBC 
 515      95138771 
 515      E26D2EB1 
 515      B000
 516 1320 52215725 		.ascii	"R!W%\302\327\340\214\210\037\250\315\"\022~T\020\341"
 516      C2D7E08C 
 516      881FA8CD 
 516      22127E54 
 516      10E1
 517 1332 3B5C1514 		.ascii	";\\\025\024Dw\240\222\027\211\330\371j\301#\251v\010"
 517      4477A092 
 517      1789D8F9 
 517      6AC123A9 
 517      7608
 518 1344 7FC45296 		.ascii	"\177\304R\226\244\230\021<\243.fI\242P\021E9\222BFu"
 518      A498113C 
 518      A32E6649 
 518      A2501145 
 518      39924246 
 519 1359 7412FC51 		.ascii	"t\022\374Q5\017\360-j)S\014N\201?y\204\272\220\004b"
 519      350FF02D 
 519      6A29530C 
 519      4E813F79 
 519      84BA9004 
 520 136e 11321F95 		.ascii	"\0212\037\225\302\017\375w$G\230,\324H\325|\364a\242"
 520      C20FFD77 
 520      2447982C 
 520      D448D57C 
 520      F461A2
 521 1381 D38F9282 		.ascii	"\323\217\222\202+\342\257\315\3234\251*\024\005O\325"
 521      2BE2AFCD 
 521      D334A92A 
 521      14054FD5 
 522 1391 87D22D52 		.ascii	"\207\322-R\343\215\370\037\345CR\250fR6\230ft\022\352"
 522      E38DF81F 
 522      E54352A8 
 522      66523698 
 522      667412EA 
 523 13a5 5B0616A1 		.ascii	"[\006\026\241B\210\0105\340\030'A+\320x\322>\233\320"
 523      42880835 
 523      E0182741 
 523      2BD078D2 
 523      3E9BD0
 524 13b8 C657E13C 		.ascii	"\306W\341<Ce$\034\256\312\252V\264\024\276\303\217\326"
 524      4365241C 
 524      AECAAA56 
 524      B414BEC3 
 524      8FD6
 525 13ca 08626635 		.ascii	"\010bf5j\331\255\216\224V\245\011\246\254\277\252\267"
 525      6AD9AD8E 
 525      9456A509 
ARM GAS  /tmp/ccANXSdL.s 			page 42


 525      A6ACBFAA 
 525      B7
 526 13db 20024114 		.ascii	" \002A\024j\002 \240L\245\312\013FK\374\252_B\377\001"
 526      6A0220A0 
 526      4CA5CA0B 
 526      464BFCAA 
 526      5F42FF01 
 527 13ef 36AEF90F 		.ascii	"6\256\371\017Rt\223?y\305\272`5O\304\352\225\264\322"
 527      5274933F 
 527      79C5BA60 
 527      354FC4EA 
 527      95B4D2
 528 1402 5D4E7D30 		.ascii	"]N}0\346w\015\251\253\203e\241\032$\0168@\327\355\351"
 528      E6770DA9 
 528      AB8365A1 
 528      1A240E38 
 528      40D7EDE9 
 529 1416 6080E7FC 		.ascii	"`\200\347\374\342qec\312\000@\351Y1\244\240\260\216"
 529      E2716563 
 529      CA0040E9 
 529      5931A4A0 
 529      B08E
 530 1428 38E1FE25 		.ascii	"8\341\376%\343F\372\313`z\371j\1779XM\211P\301\025\227"
 530      E346FACB 
 530      607AF96A 
 530      7F39584D 
 530      8950C115 
 531 143d BAC79794 		.ascii	"\272\307\227\224\227\272\356\035Y\352\036W@\262\302"
 531      97BAEE1D 
 531      59EA1E57 
 531      40B2C2
 532 144c 91A5AEBB 		.ascii	"\221\245\256\273\212K3\243\330\320\035\252\010\210\231"
 532      8A4B33A3 
 532      D8D01DAA 
 532      088899
 533 145b A16865A8 		.ascii	"\241he\250B\362F\205\252\212PMP\250\313\234,\004\244"
 533      42F24685 
 533      AA8A504D 
 533      50A8CB9C 
 533      2C04A4
 534 146e B0D83F41 		.ascii	"\260\330?A\231_i\015N\010\036\304:\222Kud\231\324\006"
 534      995F690D 
 534      4E081EC4 
 534      3A924B75 
 534      6499D406 
 535 1482 72159716 		.ascii	"r\025\227\026B*rO\030YZH\262\"\256\244\324U\006\225"
 535      422A724F 
 535      18595A48 
 535      B222AEA4 
 535      D4550695 
 536 1496 65A545AE 		.ascii	"e\245E\256\342\342\322\214\362\3221e\243\334w\215\005"
 536      E2E2D28C 
 536      F2D23165 
 536      A3DC778D 
 536      05
 537 14a7 6240C25E 		.ascii	"b@\302^\342\231B\325D/\311W\270Vr\023\355\315\220\352"
 537      E29942D5 
ARM GAS  /tmp/ccANXSdL.s 			page 43


 537      442FC957 
 537      B8567213 
 537      EDCD90EA 
 538 14bb EEACADC8 		.ascii	"\356\254\255\310\020I\336O[\233\253\243\267\014-\270"
 538      1049DE4F 
 538      5B9BABA3 
 538      B70C2DB8 
 539 14cb 75508031 		.ascii	"uP\2001\326\200\345)%\230<e\361v\005\370*O\025\037\225"
 539      D680E529 
 539      25983C65 
 539      F17605F8 
 539      2A4F151F 
 540 14e0 CA85EA88 		.ascii	"\312\205\352\210\227\024\356%\013\244\007aa\246=\242"
 540      9714EE25 
 540      0BA40761 
 540      61A63DA2 
 541 14f0 5AC8513B 		.ascii	"Z\310Q;\206jB\022[\235\031D`\317C|T\030\011\023\234"
 541      866A4212 
 541      5B9D1944 
 541      60CF437C 
 541      54180913 
 542 1505 E1BF1354 		.ascii	"\341\277\023TNk\023\225\302\221,\222\001\277\271j\035"
 542      4E6B1395 
 542      C2912C92 
 542      01BFB96A 
 542      1D
 543 1516 A00AD275 		.ascii	"\240\012\322u\211\007>\210\343\324\212\002\031X\020"
 543      89073E88 
 543      E3D48A02 
 543      195810
 544 1525 79098A9E 		.ascii	"y\011\212\236\210Z\227#%+\257\242b\013\221\257\211\362"
 544      885A9723 
 544      252BAFA2 
 544      620B91AF 
 544      89F2
 545 1537 01C9FF50 		.ascii	"\001\311\377PmE^\262\232\220\224G\207\033\341H\377\236"
 545      6D455EB2 
 545      9A909447 
 545      871BE148 
 545      FF9E
 546 1549 9DB20395 		.ascii	"\235\262\003\225\345\225\301\262*A\210x\011\357\305"
 546      E595C1B2 
 546      2A418878 
 546      09EFC5
 547 1558 E1DA1A34 		.ascii	"\341\332\0324\343\241C43&\245\377\003\307\010X\253"
 547      E3A14334 
 547      3326A5FF 
 547      03C70858 
 547      AB
 548              		.text
 549              		.section	.gnu.lto_.symtab.f6b580b975e7f808,"",%progbits
 550 0000 6D733536 		.ascii	"ms5607_init\000\000\000\000\000\000\000\000\000\000"
 550      30375F69 
 550      6E697400 
 550      00000000 
 550      00000000 
 551 0015 00001A02 		.ascii	"\000\000\032\002\000\000ms5607_stop\000\000\000\000"
ARM GAS  /tmp/ccANXSdL.s 			page 44


 551      00006D73 
 551      35363037 
 551      5F73746F 
 551      70000000 
 552 002a 00000000 		.ascii	"\000\000\000\000\000\000\000\000?\002\000\000ms5607"
 552      00000000 
 552      3F020000 
 552      6D733536 
 552      3037
 553 003c 5F726573 		.ascii	"_reset\000\000\000\000\000\000\000\000\000\000\000\000"
 553      65740000 
 553      00000000 
 553      00000000 
 553      0000
 554 004e 4B020000 		.ascii	"K\002\000\000ms5607_readPressureTemperature\000\000"
 554      6D733536 
 554      30375F72 
 554      65616450 
 554      72657373 
 555 0072 00000000 		.ascii	"\000\000\000\000\000\000\000\000\000\000Q\002\000\000"
 555      00000000 
 555      00005102 
 555      0000
 556 0080 49324353 		.ascii	"I2CSensor_transact_buf\000\000\002\000\000\000\000\000"
 556      656E736F 
 556      725F7472 
 556      616E7361 
 556      63745F62 
 557 009e 00000000 		.ascii	"\000\000\000\000]\002\000\000I2CSensor_init\000\000"
 557      5D020000 
 557      49324353 
 557      656E736F 
 557      725F696E 
 558 00b6 02000000 		.ascii	"\002\000\000\000\000\000\000\000\000\000d\002\000\000"
 558      00000000 
 558      00006402 
 558      0000
 559 00c4 49324353 		.ascii	"I2CSensor_stop\000\000\002\000\000\000\000\000\000\000"
 559      656E736F 
 559      725F7374 
 559      6F700000 
 559      02000000 
 560 00dc 00006F02 		.ascii	"\000\000o\002\000\000I2CSensor_transact\000\000\002"
 560      00004932 
 560      4353656E 
 560      736F725F 
 560      7472616E 
 561 00f7 00000000 		.ascii	"\000\000\000\000\000\000\000\000\000t\002\000\000ch"
 561      00000000 
 561      00740200 
 561      006368
 562 0106 54686453 		.ascii	"ThdSleep\000\000\002\000\000\000\000\000\000\000\000"
 562      6C656570 
 562      00000200 
 562      00000000 
 562      000000
 563 0119 007C0200 		.ascii	"\000|\002\000\000"
ARM GAS  /tmp/ccANXSdL.s 			page 45


 563      00
 564              		.text
 565              		.section	.gnu.lto_.opts,"",%progbits
 566 0000 272D6D63 		.ascii	"'-mcpu=cortex-m4' '-mfloat-abi=hard' '-mfpu=fpv4-sp"
 566      70753D63 
 566      6F727465 
 566      782D6D34 
 566      2720272D 
 567 0033 2D643136 		.ascii	"-d16' '-mno-thumb-interwork' '-mthumb' '-O2' '-fomi"
 567      2720272D 
 567      6D6E6F2D 
 567      7468756D 
 567      622D696E 
 568 0066 742D6672 		.ascii	"t-frame-pointer' '-falign-functions=16' '-ffunction"
 568      616D652D 
 568      706F696E 
 568      74657227 
 568      20272D66 
 569 0099 2D736563 		.ascii	"-sections' '-fdata-sections' '-fno-common' '-flto' "
 569      74696F6E 
 569      73272027 
 569      2D666461 
 569      74612D73 
 570 00cc 272D6673 		.ascii	"'-fsingle-precision-constant'\000"
 570      696E676C 
 570      652D7072 
 570      65636973 
 570      696F6E2D 
 571              		.text
 572              		.section	.text.ms5607_init,"ax",%progbits
 573              		.align	2
 574              		.p2align 4,,15
 575              		.global	ms5607_init
 576              		.thumb
 577              		.thumb_func
 578              		.type	ms5607_init, %function
 579              	ms5607_init:
 580              		@ args = 0, pretend = 0, frame = 16
 581              		@ frame_needed = 0, uses_anonymous_args = 0
 582 0000 F0B5     		push	{r4, r5, r6, r7, lr}
 583 0002 214B     		ldr	r3, .L5
 584 0004 214E     		ldr	r6, .L5+4
 585 0006 0446     		mov	r4, r0
 586 0008 8E46     		mov	lr, r1
 587 000a 1746     		mov	r7, r2
 588 000c 93E80700 		ldmia	r3, {r0, r1, r2}
 589 0010 89B0     		sub	sp, sp, #36
 590 0012 05AB     		add	r3, sp, #20
 591 0014 03C3     		stmia	r3!, {r0, r1}
 592 0016 3078     		ldrb	r0, [r6]	@ zero_extendqisi2
 593 0018 1A70     		strb	r2, [r3]
 594 001a 4FF0C80C 		mov	ip, #200
 595 001e 04F13803 		add	r3, r4, #56
 596 0022 05AD     		add	r5, sp, #20
 597 0024 7146     		mov	r1, lr
 598 0026 00F1010E 		add	lr, r0, #1
 599 002a 0093     		str	r3, [sp]
ARM GAS  /tmp/ccANXSdL.s 			page 46


 600 002c 0295     		str	r5, [sp, #8]
 601 002e 3A46     		mov	r2, r7
 602 0030 0025     		movs	r5, #0
 603 0032 00F13007 		add	r7, r0, #48
 604 0036 CDF804C0 		str	ip, [sp, #4]
 605 003a 2046     		mov	r0, r4
 606 003c 86F800E0 		strb	lr, [r6]
 607 0040 04F13403 		add	r3, r4, #52
 608 0044 8DF81B70 		strb	r7, [sp, #27]
 609 0048 8DF81D50 		strb	r5, [sp, #29]
 610 004c 8DF81E50 		strb	r5, [sp, #30]
 611 0050 FFF7FEFF 		bl	I2CSensor_init
 612 0054 2546     		mov	r5, r4
 613 0056 04F10A07 		add	r7, r4, #10
 614 005a A126     		movs	r6, #161
 615              	.L3:
 616 005c 84F83460 		strb	r6, [r4, #52]
 617 0060 0222     		movs	r2, #2
 618 0062 2046     		mov	r0, r4
 619 0064 0121     		movs	r1, #1
 620 0066 FFF7FEFF 		bl	I2CSensor_transact_buf
 621 006a 94F83820 		ldrb	r2, [r4, #56]	@ zero_extendqisi2
 622 006e 94F83930 		ldrb	r3, [r4, #57]	@ zero_extendqisi2
 623 0072 03EB0223 		add	r3, r3, r2, lsl #8
 624 0076 2B84     		strh	r3, [r5, #32]	@ movhi
 625 0078 0235     		adds	r5, r5, #2
 626 007a 0136     		adds	r6, r6, #1
 627 007c BD42     		cmp	r5, r7
 628 007e F6B2     		uxtb	r6, r6
 629 0080 ECD1     		bne	.L3
 630 0082 0020     		movs	r0, #0
 631 0084 09B0     		add	sp, sp, #36
 632              		@ sp needed
 633 0086 F0BD     		pop	{r4, r5, r6, r7, pc}
 634              	.L6:
 635              		.align	2
 636              	.L5:
 637 0088 00000000 		.word	.LANCHOR0
 638 008c 00000000 		.word	.LANCHOR1
 639              		.size	ms5607_init, .-ms5607_init
 640              		.section	.text.ms5607_stop,"ax",%progbits
 641              		.align	2
 642              		.p2align 4,,15
 643              		.global	ms5607_stop
 644              		.thumb
 645              		.thumb_func
 646              		.type	ms5607_stop, %function
 647              	ms5607_stop:
 648              		@ args = 0, pretend = 0, frame = 0
 649              		@ frame_needed = 0, uses_anonymous_args = 0
 650 0000 08B5     		push	{r3, lr}
 651 0002 FFF7FEFF 		bl	I2CSensor_stop
 652 0006 0020     		movs	r0, #0
 653 0008 08BD     		pop	{r3, pc}
 654              		.size	ms5607_stop, .-ms5607_stop
 655 000a 00BFAFF3 		.section	.text.ms5607_reset,"ax",%progbits
 655      0080
ARM GAS  /tmp/ccANXSdL.s 			page 47


 656              		.align	2
 657              		.p2align 4,,15
 658              		.global	ms5607_reset
 659              		.thumb
 660              		.thumb_func
 661              		.type	ms5607_reset, %function
 662              	ms5607_reset:
 663              		@ args = 0, pretend = 0, frame = 0
 664              		@ frame_needed = 0, uses_anonymous_args = 0
 665              		@ link register save eliminated.
 666 0000 1E23     		movs	r3, #30
 667 0002 80F83430 		strb	r3, [r0, #52]
 668 0006 0121     		movs	r1, #1
 669 0008 0022     		movs	r2, #0
 670 000a FFF7FEBF 		b	I2CSensor_transact_buf
 671              		.size	ms5607_reset, .-ms5607_reset
 672 000e 00BF     		.section	.text.ms5607_readPressureTemperature,"ax",%progbits
 673              		.align	2
 674              		.p2align 4,,15
 675              		.global	ms5607_readPressureTemperature
 676              		.thumb
 677              		.thumb_func
 678              		.type	ms5607_readPressureTemperature, %function
 679              	ms5607_readPressureTemperature:
 680              		@ args = 0, pretend = 0, frame = 8
 681              		@ frame_needed = 0, uses_anonymous_args = 0
 682 0000 2DE9F047 		push	{r4, r5, r6, r7, r8, r9, r10, lr}
 683 0004 5823     		movs	r3, #88
 684 0006 84B0     		sub	sp, sp, #16
 685 0008 80F83430 		strb	r3, [r0, #52]
 686 000c 8A46     		mov	r10, r1
 687 000e 9146     		mov	r9, r2
 688 0010 0121     		movs	r1, #1
 689 0012 0022     		movs	r2, #0
 690 0014 8046     		mov	r8, r0
 691 0016 0446     		mov	r4, r0
 692 0018 FFF7FEFF 		bl	I2CSensor_transact_buf
 693 001c 0025     		movs	r5, #0
 694 001e 0746     		mov	r7, r0
 695 0020 C820     		movs	r0, #200
 696 0022 FFF7FEFF 		bl	chThdSleep
 697 0026 04F8345F 		strb	r5, [r4, #52]!
 698 002a 0326     		movs	r6, #3
 699 002c 2146     		mov	r1, r4
 700 002e 0122     		movs	r2, #1
 701 0030 03AB     		add	r3, sp, #12
 702 0032 4046     		mov	r0, r8
 703 0034 0096     		str	r6, [sp]
 704 0036 FFF7FEFF 		bl	I2CSensor_transact
 705 003a 4823     		movs	r3, #72
 706 003c 88F83430 		strb	r3, [r8, #52]
 707 0040 2A46     		mov	r2, r5
 708 0042 0121     		movs	r1, #1
 709 0044 0743     		orrs	r7, r7, r0
 710 0046 4046     		mov	r0, r8
 711 0048 FFF7FEFF 		bl	I2CSensor_transact_buf
 712 004c 0743     		orrs	r7, r7, r0
ARM GAS  /tmp/ccANXSdL.s 			page 48


 713 004e C820     		movs	r0, #200
 714 0050 FFF7FEFF 		bl	chThdSleep
 715 0054 88F83450 		strb	r5, [r8, #52]
 716 0058 2146     		mov	r1, r4
 717 005a 0096     		str	r6, [sp]
 718 005c 4046     		mov	r0, r8
 719 005e 0122     		movs	r2, #1
 720 0060 02AB     		add	r3, sp, #8
 721 0062 FFF7FEFF 		bl	I2CSensor_transact
 722 0066 0743     		orrs	r7, r7, r0
 723 0068 6FD1     		bne	.L11
 724 006a 9DF80D40 		ldrb	r4, [sp, #13]	@ zero_extendqisi2
 725 006e 9DF80C70 		ldrb	r7, [sp, #12]	@ zero_extendqisi2
 726 0072 9DF80E60 		ldrb	r6, [sp, #14]	@ zero_extendqisi2
 727 0076 B8F82850 		ldrh	r5, [r8, #40]
 728 007a 9DF80920 		ldrb	r2, [sp, #9]	@ zero_extendqisi2
 729 007e B8F82A30 		ldrh	r3, [r8, #42]
 730 0082 9DF80800 		ldrb	r0, [sp, #8]	@ zero_extendqisi2
 731 0086 9DF80A10 		ldrb	r1, [sp, #10]	@ zero_extendqisi2
 732 008a 2402     		lsls	r4, r4, #8
 733 008c 04EB0744 		add	r4, r4, r7, lsl #16
 734 0090 3444     		add	r4, r4, r6
 735 0092 A4EB0524 		sub	r4, r4, r5, lsl #8
 736 0096 1202     		lsls	r2, r2, #8
 737 0098 04FB03F3 		mul	r3, r4, r3
 738 009c 02EB0042 		add	r2, r2, r0, lsl #16
 739 00a0 002B     		cmp	r3, #0
 740 00a2 0A44     		add	r2, r2, r1
 741 00a4 5FDB     		blt	.L26
 742              	.L12:
 743 00a6 B8F82410 		ldrh	r1, [r8, #36]
 744 00aa B8F82000 		ldrh	r0, [r8, #32]
 745 00ae 04FB01F1 		mul	r1, r4, r1
 746 00b2 0029     		cmp	r1, #0
 747 00b4 4FEAE353 		asr	r3, r3, #23
 748 00b8 B8BF     		it	lt
 749 00ba 7F31     		addlt	r1, r1, #127
 750 00bc 03F5FA65 		add	r5, r3, #2000
 751 00c0 0004     		lsls	r0, r0, #16
 752 00c2 00EBE110 		add	r0, r0, r1, asr #7
 753 00c6 B5F5FA6F 		cmp	r5, #2000
 754 00ca 4FEAE071 		asr	r1, r0, #31
 755 00ce 40DB     		blt	.L27
 756 00d0 0024     		movs	r4, #0
 757              	.L14:
 758 00d2 2D1B     		subs	r5, r5, r4
 759 00d4 07EE905A 		fmsr	s15, r5	@ int
 760 00d8 02FB01F1 		mul	r1, r2, r1
 761 00dc D517     		asrs	r5, r2, #31
 762 00de F8EEE77A 		fsitos	s15, s15
 763 00e2 9FED2A7A 		flds	s14, .L30
 764 00e6 00FB0511 		mla	r1, r0, r5, r1
 765 00ea A2FB0023 		umull	r2, r3, r2, r0
 766 00ee 67EE877A 		fmuls	s15, s15, s14
 767 00f2 0B44     		add	r3, r3, r1
 768 00f4 002A     		cmp	r2, #0
 769 00f6 73F10001 		sbcs	r1, r3, #0
ARM GAS  /tmp/ccANXSdL.s 			page 49


 770 00fa C8ED0B7A 		fsts	s15, [r8, #44]
 771 00fe 3FDB     		blt	.L28
 772              	.L15:
 773 0100 540D     		lsrs	r4, r2, #21
 774 0102 44EAC324 		orr	r4, r4, r3, lsl #11
 775 0106 5D15     		asrs	r5, r3, #21
 776 0108 2646     		mov	r6, r4
 777 010a 2F46     		mov	r7, r5
 778 010c 002E     		cmp	r6, #0
 779 010e 77F10003 		sbcs	r3, r7, #0
 780 0112 2EDB     		blt	.L29
 781              	.L16:
 782 0114 F40B     		lsrs	r4, r6, #15
 783 0116 44EA4744 		orr	r4, r4, r7, lsl #17
 784 011a 07EE904A 		fmsr	s15, r4	@ int
 785 011e 9FED1B7A 		flds	s14, .L30
 786 0122 F8EEE76A 		fsitos	s13, s15
 787 0126 FBEE047A 		fconsts	s15, #180
 788 012a E6EE877A 		vfma.f32	s15, s13, s14
 789 012e C8ED0C7A 		fsts	s15, [r8, #48]
 790 0132 BAF1000F 		cmp	r10, #0
 791 0136 01D0     		beq	.L17
 792 0138 CAED007A 		fsts	s15, [r10]
 793              	.L17:
 794 013c B9F1000F 		cmp	r9, #0
 795 0140 03D0     		beq	.L11
 796 0142 D8F82C30 		ldr	r3, [r8, #44]	@ float
 797 0146 C9F80030 		str	r3, [r9]	@ float
 798              	.L11:
 799 014a 0020     		movs	r0, #0
 800 014c 04B0     		add	sp, sp, #16
 801              		@ sp needed
 802 014e BDE8F087 		pop	{r4, r5, r6, r7, r8, r9, r10, pc}
 803              	.L27:
 804 0152 03FB03F3 		mul	r3, r3, r3
 805 0156 5B00     		lsls	r3, r3, #1
 806 0158 04FB04F4 		mul	r4, r4, r4
 807 015c C01A     		subs	r0, r0, r3
 808 015e 61EBE371 		sbc	r1, r1, r3, asr #31
 809 0162 E40F     		lsrs	r4, r4, #31
 810 0164 B5E7     		b	.L14
 811              	.L26:
 812 0166 03F5FF03 		add	r3, r3, #8355840
 813 016a 03F5FF43 		add	r3, r3, #32640
 814 016e 7F33     		adds	r3, r3, #127
 815 0170 99E7     		b	.L12
 816              	.L29:
 817 0172 47F6FF72 		movw	r2, #32767
 818 0176 0023     		movs	r3, #0
 819 0178 A618     		adds	r6, r4, r2
 820 017a 45EB0307 		adc	r7, r5, r3
 821 017e C9E7     		b	.L16
 822              	.L28:
 823 0180 0348     		ldr	r0, .L30+4
 824 0182 0021     		movs	r1, #0
 825 0184 1218     		adds	r2, r2, r0
 826 0186 43EB0103 		adc	r3, r3, r1
ARM GAS  /tmp/ccANXSdL.s 			page 50


 827 018a B9E7     		b	.L15
 828              	.L31:
 829              		.align	2
 830              	.L30:
 831 018c 0AD7233C 		.word	1008981770
 832 0190 FFFF1F00 		.word	2097151
 833              		.size	ms5607_readPressureTemperature, .-ms5607_readPressureTemperature
 834 0194 AFF30080 		.section	.rodata
 834      AFF30080 
 834      AFF30080 
 835              		.align	2
 836              		.set	.LANCHOR0,. + 0
 837              	.LC0:
 838 0000 4D533536 		.ascii	"MS5607-X\000"
 838      30372D58 
 838      00
 839 0009 0000     		.space	2
 840 000b 00       		.section	.bss.sensCount,"aw",%nobits
 841              		.set	.LANCHOR1,. + 0
 842              		.type	sensCount, %object
 843              		.size	sensCount, 1
 844              	sensCount:
 845 0000 00       		.space	1
 846              		.comm	__gnu_lto_v1,1,1
 847              		.ident	"GCC: (GNU Tools for ARM Embedded Processors) 4.8.4 20140526 (release) [ARM/embedded-4_8-br
ARM GAS  /tmp/ccANXSdL.s 			page 51


DEFINED SYMBOLS
                            *ABS*:0000000000000000 ms5607.c
     /tmp/ccANXSdL.s:573    .text.ms5607_init:0000000000000000 $t
     /tmp/ccANXSdL.s:579    .text.ms5607_init:0000000000000000 ms5607_init
     /tmp/ccANXSdL.s:637    .text.ms5607_init:0000000000000088 $d
     /tmp/ccANXSdL.s:641    .text.ms5607_stop:0000000000000000 $t
     /tmp/ccANXSdL.s:647    .text.ms5607_stop:0000000000000000 ms5607_stop
     /tmp/ccANXSdL.s:656    .text.ms5607_reset:0000000000000000 $t
     /tmp/ccANXSdL.s:662    .text.ms5607_reset:0000000000000000 ms5607_reset
     /tmp/ccANXSdL.s:673    .text.ms5607_readPressureTemperature:0000000000000000 $t
     /tmp/ccANXSdL.s:679    .text.ms5607_readPressureTemperature:0000000000000000 ms5607_readPressureTemperature
     /tmp/ccANXSdL.s:831    .text.ms5607_readPressureTemperature:000000000000018c $d
     /tmp/ccANXSdL.s:835    .rodata:0000000000000000 $d
     /tmp/ccANXSdL.s:844    .bss.sensCount:0000000000000000 sensCount
     /tmp/ccANXSdL.s:845    .bss.sensCount:0000000000000000 $d
                            *COM*:0000000000000001 __gnu_lto_v1
     /tmp/ccANXSdL.s:834    .text.ms5607_readPressureTemperature:0000000000000194 $t

UNDEFINED SYMBOLS
I2CSensor_init
I2CSensor_transact_buf
I2CSensor_stop
chThdSleep
I2CSensor_transact
