ARM GAS  /tmp/cc6EVXCY.s 			page 1


   1              		.syntax unified
   2              		.cpu cortex-m4
   3              		.eabi_attribute 27, 3
   4              		.eabi_attribute 28, 1
   5              		.fpu fpv4-sp-d16
   6              		.eabi_attribute 20, 1
   7              		.eabi_attribute 21, 1
   8              		.eabi_attribute 23, 3
   9              		.eabi_attribute 24, 1
  10              		.eabi_attribute 25, 1
  11              		.eabi_attribute 26, 1
  12              		.eabi_attribute 30, 2
  13              		.eabi_attribute 34, 1
  14              		.eabi_attribute 18, 4
  15              		.thumb
  16              		.file	"nvic.c"
  17              		.section	.gnu.lto_.jmpfuncs.8532c4dddabc7731,"",%progbits
  18 0000 789C6362 		.ascii	"x\234cb`b\300\0068\24043\0033##\0233\003\000\001\203"
  18      6062C006 
  18      38A03433 
  18      03332323 
  18      13330300 
  19 0016 001A     		.ascii	"\000\032"
  20              		.text
  21              		.section	.gnu.lto_.inline.8532c4dddabc7731,"",%progbits
  22 0000 789C6362 		.ascii	"x\234cb`b\300\006R\24143\003\003\027'#\023##\210\003"
  22      6062C006 
  22      52A13433 
  22      03031727 
  22      23132323 
  23 0016 2258D83E 		.ascii	"\"X\330>\3501\260-\220gb`\272\300\317\302\000\344q\000"
  23      E831B02D 
  23      90676260 
  23      BAC0CFC2 
  23      00E47100 
  24 002a 45398072 		.ascii	"E9\200r\034\354@U %\314,\013\344!J\200\262, =@KXY\030"
  24      1CEC4055 
  24      2025CC2C 
  24      0BE4214A 
  24      80B22C20 
  25 0044 19C1A630 		.ascii	"\031\301\2460\003\365!\031\000\002\000\375\357\011\371"
  25      03F52119 
  25      000200FD 
  25      EF09F9
  26              		.text
  27              		.section	.gnu.lto_.pureconst.8532c4dddabc7731,"",%progbits
  28 0000 789C6362 		.ascii	"x\234cb`b`g\200\000f\006)F)&)\000\001\313\000`"
  28      60626067 
  28      80006606 
  28      29462926 
  28      290001CB 
  29              		.text
  30              		.section	.gnu.lto_nvicEnableVector.8532c4dddabc7731,"",%progbits
  31 0000 789C9D51 		.ascii	"x\234\235Q;O\002A\020\236\331\343\344\200\004KB%\261"
  31      3B4F0241 
  31      109ED9E3 
  31      E480044B 
ARM GAS  /tmp/cc6EVXCY.s 			page 2


  31      4225B1
  32 0013 35B27616 		.ascii	"5\262v\026\026F\215\205\005\215\301DK8\010\\\024\316"
  32      16468D85 
  32      058DC144 
  32      4B38085C 
  32      14CE
  33 0025 0012AD38 		.ascii	"\000\022\25588l\254\250Q\203\304\316\370h\2156\006+"
  33      386CACA8 
  33      5183C4CE 
  33      F8688D36 
  33      062B
  34 0037 0B34FE03 		.ascii	"\0134\376\003jM\264 \261\004g\227\207\221\020\0137\271"
  34      6A4DB420 
  34      B1046797 
  34      8791100B 
  34      37B9
  35 0049 9DD737DF 		.ascii	"\235\3277\337\314w\313\200\301\350\361\323\027\243\364"
  35      CC77CB80 
  35      C1E8F1D3 
  35      17A3F4
  36 0058 2A595400 		.ascii	"*YT\000Y\345\031\240\2501D\341\000B\201aa\013\005\024"
  36      59E519A0 
  36      A83144E1 
  36      00428161 
  36      610B0514 
  37 006c A7A16E59 		.ascii	"\247\241nY\225\326a\355\324\177tV\252X\235n\027\015"
  37      95D661ED 
  37      D47F7456 
  37      AA589D6E 
  37      170D
  38 007e 24D26504 		.ascii	"$\322e\004\035a\223\002\014H\303\034\277\247\334\260"
  38      1D619302 
  38      0C48C31C 
  38      BFA7DCB0 
  39 008e 8756B77B 		.ascii	"\207V\267{\362R\375\362y\021S\242\307@E\021\227J!:\311"
  39      F252FDF2 
  39      791153A2 
  39      C7404511 
  39      974A213A 
  40 00a3 736810C1 		.ascii	"sh\020\301:\015qQ\000nqyD\232\332U(\323\340\000\210"
  40      3A0D7151 
  40      006E7179 
  40      449ADA55 
  40      28D3E000 
  41 00b8 2974C274 		.ascii	")t\302t\213\3556\220\011\2534\241\364n\177\266Y\004"
  41      8BED3690 
  41      09AB34A1 
  41      F46E7FB6 
  41      5904
  42 00ca CF518504 		.ascii	"\317Q\205\004\262\004\022\242\011\366\2252H)\224\025"
  42      B20412A2 
  42      09F69532 
  42      48299415 
  43 00da 8BA982AE 		.ascii	"\213\251\202\256\011\215\265^a\026.\255r\321\232\247"
  43      098DB55E 
  43      61162EAD 
  43      72D19AA7 
ARM GAS  /tmp/cc6EVXCY.s 			page 3


  44 00ea C20C5C08 		.ascii	"\302\014\\\010w\322\300\211c\250\022\324)\360\232\325"
  44      77D2C089 
  44      63A812D4 
  44      29F09AD5 
  45 00fa B02DAFD4 		.ascii	"\260-\257\324\244I%Q\354)JP\367\300S\344\260k\273\375"
  45      A4492551 
  45      EC294A50 
  45      F7C053E4 
  45      B06BBBFD 
  46 010e 385CC149 		.ascii	"8\\\301Iu\321\004\252\234W\372\260\337pP\323d/u\334"
  46      75D104AA 
  46      9C57FAB0 
  46      DF7050D3 
  46      642F75DC 
  47 0122 0FD77351 		.ascii	"\017\327sQV\302\247`dq\267L\243\300\364\211\356\206"
  47      56C2A760 
  47      6471B74C 
  47      A3C0F489 
  47      EE86
  48 0134 441E2A8F 		.ascii	"D\036*\217Q\263`\240\353G\215\373o5\330\327\340\034"
  48      51B360A0 
  48      EB478DFB 
  48      6F35D8D7 
  48      E01C
  49 0146 AAF148CA 		.ascii	"\252\361H\312\247\333\232\357\377\254l\034\353+\024"
  49      A7DB9AEF 
  49      FFAC6C1C 
  49      EB2B14
  50 0155 5B9DFE1F 		.ascii	"[\235\376\037\032\2340-@O(\360\213<i\246\342\\7c\007"
  50      1A9C302D 
  50      404F28F0 
  50      8B3C69A6 
  50      E25C3763 
  51 016a 3C16CF73 		.ascii	"<\026\317s=iD\0153\313s\231\275\3646''\031\331\341\273"
  51      3D69440D 
  51      33CB7399 
  51      BDF43627 
  51      2719D9E1 
  52 017f 66269725 		.ascii	"f&\227%L*e\246\371\322zh%\264\317\323yC\017\352\240"
  52      4C2A65A6 
  52      F9D27A68 
  52      25B4CFD3 
  52      79430FEA 
  53 0194 A48373DF 		.ascii	"\244\203s\337P\236\235K"
  53      509E9D4B 
  54              		.text
  55              		.section	.gnu.lto_nvicDisableVector.8532c4dddabc7731,"",%progbits
  56 0000 789C7D90 		.ascii	"x\234}\220\277/CQ\024\307\317\367\276\367\3322\020\243"
  56      BF2F4351 
  56      14C7CFF7 
  56      BEF7DA32 
  56      10A3
  57 0012 49C32211 		.ascii	"I\303\"\021\2751\031\014\202\030\014]\244\022\306z\232"
  57      BD31190C 
  57      82180C5D 
  57      A412C67A 
  57      9A
ARM GAS  /tmp/cc6EVXCY.s 			page 4


  58 0023 F685F649 		.ascii	"\366\205\366I\2130\365\325\353h\350`P\026\215M\374\334"
  58      8B30F5D5 
  58      EB68E860 
  58      50168D4D 
  58      FCDC
  59 0035 8441D3BD 		.ascii	"\204A\323\275\302\314\320\020\006\203\370\003$u\356"
  59      C2CCD010 
  59      0683F803 
  59      2475EE
  60 0044 6B4B6A70 		.ascii	"kKjp\222{\317\271\337s\316\347\334\034A\202\376Z/\237"
  60      927BCFB9 
  60      DF73CEE7 
  60      DC1C4182 
  60      FE5A2F9F 
  61 0058 47104DB3 		.ascii	"G\020M\263\207F\020\205;\242\\@\000* PV \273\000U\212"
  61      87461085 
  61      3BA25C40 
  61      002A2050 
  61      5620BB00 
  62 006e 7E2A394E 		.ascii	"~*9N\241\366\372r\257\025w\313\371C\347\253^\007,0v"
  62      A1F6FA72 
  62      AF1577CB 
  62      F943E7AB 
  62      5E072C30 
  63 0083 126482E6 		.ascii	"\022d\202\346\371\201\240\347\204\336>\347\\\224k\365"
  63      F981A0E7 
  63      84DE3EE7 
  63      5C946BF5 
  64 0093 FAD3E5C5 		.ascii	"\372\323\345\305s\021=\235@RuY\3204\212\242\304d\235"
  64      73113D9D 
  64      40527559 
  64      D0348AA2 
  64      C4649D
  65 00a6 1F64A8CB 		.ascii	"\037d\250\313\247d\3560(\317\323\202\244\300l\021\276"
  65      A764EE30 
  65      28CFD382 
  65      A4C06C11 
  65      BE
  66 00b7 D597E620 		.ascii	"\325\227\346 \224\327\252\344\236\271\267;\203Q\034"
  66      94D7AAE4 
  66      9EB9B73B 
  66      83511C
  67 00c6 C1A03844 		.ascii	"\301\2408D\034P\203\271\217\250J\333\037\356;Z9\215"
  67      1C5083B9 
  67      8FA84ADB 
  67      1FEE3B5A 
  67      398D
  68 00d8 734A746F 		.ascii	"sJto\264\226\244\263\352\225\367y\345\356\351O\306\360"
  68      B496A4B3 
  68      EA95F779 
  68      E5EEE94F 
  68      C6F0
  69 00ea 64A89A26 		.ascii	"d\250\232&\350\372\007\344\343\264\022+3\015e\230N\234"
  69      E8FA07E4 
  69      E3B4122B 
  69      330D6598 
  69      4E9C
ARM GAS  /tmp/cc6EVXCY.s 			page 5


  70 00fc 7CCE19B3 		.ascii	"|\316\031\263\240\017\321\261\012\273-\030\007\264\317"
  70      A00FD1B1 
  70      0ABB2D18 
  70      07B4CF
  71 010b 089FE2F8 		.ascii	"\010\237\342\370\235\212\353ty\033\361{{XDc\037\374"
  71      9D8AEB74 
  71      791BF17B 
  71      7B584463 
  71      1FFC
  72 011d 616A453E 		.ascii	"ajE>\017y\265\367\366)\332\260\243\026\002\277\330\216"
  72      0F79B5F7 
  72      F629DAB0 
  72      A31602BF 
  72      D88E
  73 012f FFB168C2 		.ascii	"\377\261h\302\232|/\027P\301\003\345j\305\201\006\270"
  73      9A7C2F17 
  73      50C103E5 
  73      6AC58106 
  73      B8
  74 0140 65112EE3 		.ascii	"e\021.\343%\252/\214\313\204\235\214I\323^\332\222K"
  74      25AA2F8C 
  74      CB849D8C 
  74      49D35EDA 
  74      924B
  75 0152 B10D6926 		.ascii	"\261\015i&\254E\313\316\310\265\364zjYr\220\210\256"
  75      AC45CBCE 
  75      C8B5F47A 
  75      6A597290 
  75      88AE
  76 0164 C8553BBD 		.ascii	"\310U;\275\226\341\232d\322N\311\211\331\360TxS\246"
  76      96E19A64 
  76      D24EC989 
  76      D9F05478 
  76      53A6
  77 0176 362C3364 		.ascii	"6,3d\222\226\012\215|\003\347\006\203N"
  77      92960A8D 
  77      7C03E706 
  77      834E
  78              		.text
  79              		.section	.gnu.lto_nvicSetSystemHandlerPriority.8532c4dddabc7731,"",%progbits
  80 0000 789C5D50 		.ascii	"x\234]P\261J\003A\020}\263\233C\033\355\355\204\224"
  80      B14A0341 
  80      107DB39B 
  80      431BEDED 
  80      8494
  81 0012 12B7B494 		.ascii	"\022\267\264\224`e\221F\"h\231lBn\321\273\225$\006\255"
  81      60659146 
  81      2268996C 
  81      426ED1BB 
  81      952406AD 
  82 0026 B2E7053B 		.ascii	"\262\347\005;!\265V\266b\316\322V-\354\"hi\225^\374"
  82      21B556B6 
  82      62CED256 
  82      2DEC2268 
  82      69955EFC 
  83 003a 86387BC7 		.ascii	"\2068{\3075\016\314\314\333\2317\217\307\012\010\374"
  83      350ECCCC 
ARM GAS  /tmp/cc6EVXCY.s 			page 6


  83      DB99378F 
  83      C70A08FC 
  84 004a 8F0DCE5F 		.ascii	"\217\015\316_\316:'I\220\230~\000\311\252 \362\000\204"
  84      CE3A2749 
  84      90987E00 
  84      C9AA20F2 
  84      0084
  85 005c B1A0F131 		.ascii	"\261\240\3611\345\334'\361\262X.\263\257\353\367W\312"
  85      E5DC27F1 
  85      B2582EB3 
  85      AFEBF757 
  85      CA
  86 006d AA2B4411 		.ascii	"\252+D\021\261\242!H_\002~z^\200\211s\323M@\347WM\256"
  86      B1A22148 
  86      5F027E7A 
  86      5E808973 
  86      D34D40E7 
  87 0084 5EEA9084 		.ascii	"^\352\220\204\357r\216\253\237\364\371\246\326\242{"
  87      EF728EAB 
  87      9FF4F9A6 
  87      D6A27B
  88 0093 0AD023D1 		.ascii	"\012\320#\321\363Ws\2443Y\216$O\217\310\020U\3407o\373"
  88      F35773A4 
  88      33598E24 
  88      4F8FC810 
  88      55E0376F 
  89 00a8 C5A28647 		.ascii	"\305\242\206G7I\334\016/\266\360\340\341\232!q\207["
  89      3749DC0E 
  89      2FB6F0E0 
  89      E19A2171 
  89      875B
  90 00ba A64ACFAF 		.ascii	"\246J\317\257\270\357\324\255#\207\271\341v\341\233"
  90      B8EFD4AD 
  90      2387B9E1 
  90      76E19B
  91 00c9 25039448 		.ascii	"%\003\224H\002\237H\026Y\265\020-\243\311.\330\236\377"
  91      029F4816 
  91      59B5102D 
  91      A3C92ED8 
  91      9EFF
  92 00db A05D15DA 		.ascii	"\240]\025\332\250\253\264\355\\\252Nw\244th\332\306"
  92      A8ABB4ED 
  92      5CAA4E77 
  92      A47468DA 
  92      C6
  93 00ec 0ED4B07F 		.ascii	"\016\324\260\177\036\237(\006a\353T\235\331\376p\300"
  93      1E9F2806 
  93      61EB549D 
  93      D9FE70C0 
  94 00fc 9C28B2B1 		.ascii	"\234(\262\261\252\0374\366\032\027*\036\031\275\255"
  94      AA1F34F6 
  94      1A172A1E 
  94      19BDAD
  95 010b F107263F 		.ascii	"\361\007&?Nb"
  95      4E62
  96              		.text
  97              		.section	.gnu.lto_.symbol_nodes.8532c4dddabc7731,"",%progbits
ARM GAS  /tmp/cc6EVXCY.s 			page 7


  98 0000 789C6362 		.ascii	"x\234cb`b\320g\200\002\246\377\214\365\014\014\023\316"
  98      6062D067 
  98      8002A6FF 
  98      8CF50C0C 
  98      13CE
  99 0012 3130D4D7 		.ascii	"10\324\327\317\353`dj`\252gD\34262\3253!\270\014\000"
  99      CFEB6064 
  99      6A60AA67 
  99      44E23632 
  99      D53321B8 
 100 0028 5AFE0E48 		.ascii	"Z\376\016H"
 101              		.text
 102              		.section	.gnu.lto_.refs.8532c4dddabc7731,"",%progbits
 103 0000 789C6362 		.ascii	"x\234cb`b`d\200\002\000\000F\000\006"
 103      60626064 
 103      80020000 
 103      460006
 104              		.text
 105              		.section	.gnu.lto_.decls.8532c4dddabc7731,"",%progbits
 106 0000 789CAD58 		.ascii	"x\234\255Xol\024E\024\237\331\273\322\0364\245\020D"
 106      6F6C1445 
 106      149FD9BB 
 106      D21E34A5 
 106      1044
 107 0012 48482809 		.ascii	"HH(\011\250\301\300!`@\023\221r-\366>\024\233;\250\206"
 107      A8C1C021 
 107      60401391 
 107      722DF63E 
 107      149B3BA8 
 108 0027 2FD7A53D 		.ascii	"/\327\245=\355\305\366\256\271^\011\375\266m\371\247"
 108      EDC5F6AE 
 108      B95E09FD 
 108      B66DF9A7 
 109 0037 8216288A 		.ascii	"\202\026(\212\210\365\2006\"R%\030\245\030\202'I\261"
 109      88F58036 
 109      22522518 
 109      A5188227 
 109      49B1
 110 0049 11F92B6D 		.ascii	"\021\371+m\261 =B\220\020%@-X\241P\337\314\355\356\315"
 110      B1203D42 
 110      90102540 
 110      2D58A150 
 110      DFCCEDEE 
 111 005e EEDD5C77 		.ascii	"\356\335\\w\215\233\314\273\331\3337\277\371\375\336"
 111      8D9BCCBB 
 111      D9DB37BF 
 111      F9FDDE
 112 006d BC997D77 		.ascii	"\274\231}w\002\022\320\034\214\3200\\\013&!\364\264"
 112      0212D01C 
 112      8CD0305C 
 112      0B2621F4 
 112      B4
 113 007e 80901521 		.ascii	"\200\220\025!\264\010\305/\013\264\335\320\016AkG\211"
 113      B408C52F 
 113      0BB4DDD0 
 113      0E416B47 
 113      89
ARM GAS  /tmp/cc6EVXCY.s 			page 8


 114 008f 17793606 		.ascii	"\027y6\006\305\306eA\313\204\006\220(\035\3321h\035"
 114      C5C66541 
 114      CB840690 
 114      281DDA31 
 114      681D
 115 00a1 D03AA1DD 		.ascii	"\320:\241\335\205v\006\332i\031\363&\264>h\247d\177"
 115      857606DA 
 115      6919F326 
 115      B43E68A7 
 115      647F
 116 00b3 8203D3A3 		.ascii	"\202\003\323\243\257\240\265\351\346 s\217\326\315\221"
 116      AFA0B5E9 
 116      E620738F 
 116      D6CD91
 117 00c2 CEE029F8 		.ascii	"\316\340)\370\312|\004\247G\236\003\313\343\311\347"
 117      CA7C04A7 
 117      479E03CB 
 117      E3C9E7
 118 00d1 B73A5CA2 		.ascii	"\267:\\\242'M~F\306\366C\273\007m\026\2265\310\237\355"
 118      274D7E46 
 118      C6F643BB 
 118      076D1696 
 118      35C89FED 
 119 00e5 32E65168 		.ascii	"2\346Qh\337\3510\246\242f)\034\215\2666\237\304\322"
 119      DFE930A6 
 119      A266291C 
 119      8DB6369F 
 119      C4D2
 120 00f7 56696878 		.ascii	"Vihx\330\202&\242\355\022\\\341\365\222\204C\"^\364"
 120      D88226A2 
 120      ED125CE1 
 120      F5928443 
 120      225EF4
 121 010a 047A1D8B 		.ascii	"\004z\035\2138\313\206rh'\323F\205 $\342=x\242\034d"
 121      38CB8672 
 121      6827D346 
 121      852024E2 
 121      3D78A21C 
 122 011f 028F6C68 		.ascii	"\002\217lh\243$\325\223\201\005\235\2403\331\250\031"
 122      A324D593 
 122      81059DA0 
 122      33D9A819 
 123 012f A845921A 		.ascii	"\250E\222\032\243\333\327w\374\200\353\001_\304-\330"
 123      A3DBD777 
 123      FC80EB01 
 123      5FC42DD8 
 124 013f 06A3DFC4 		.ascii	"\006\243\337\304h&\372\034fm\004\204\027q\222\2052\016"
 124      6826FA1C 
 124      666D0484 
 124      17719285 
 124      320E
 125 0151 DEB7E1E8 		.ascii	"\336\267\341\350\013\222\224!\342}\024\372\000\306@"
 125      0B929421 
 125      E27D14FA 
 125      00C640
 126 0160 F5333C53 		.ascii	"\3653<S\006\022q\272\215\005\246\367\212\003A\243\217"
 126      061271BA 
ARM GAS  /tmp/cc6EVXCY.s 			page 9


 126      8D05A6F7 
 126      8A0341A3 
 126      8F
 127 0171 E50E49AD 		.ascii	"\345\016I\255\261\310\254\273\034\217\2308\332YaQ\001"
 127      B1C8ACBB 
 127      1C8F9838 
 127      DA596151 
 127      01
 128 0182 047458C7 		.ascii	"\004tX\307h:\332+I[a\015Z&KaA\011I'\365\332\215\247"
 128      683ADA2B 
 128      495B610D 
 128      5A264B61 
 128      41094927 
 129 019a 26D52A63 		.ascii	"&\325*c\307\206JG\274\005\312\260\237\214\014C\350)"
 129      C7864A47 
 129      BC05CAB0 
 129      9F8C0C43 
 129      E829
 130 01ac D44A1679 		.ascii	"\324J\026y\263\264.\033\3235F\362(\215\324\003XHL\226"
 130      B3B42E1B 
 130      D33546F2 
 130      288DD403 
 130      58484C96 
 131 01c0 C8CE1399 		.ascii	"\310\316\023\231\215u\321\341\341\251\3063\345km\246"
 131      8D75D1E1 
 131      E1A9C633 
 131      E56B6DA6 
 132 01d0 C468E8C2 		.ascii	"\304h\350\302r&iX\244m\2126\021\177\011tD|\350?i;\244"
 132      72266958 
 132      A46D8A36 
 132      117F0974 
 132      447CE83F 
 133 01e7 D7F64D52 		.ascii	"\327\366MRm\347\025m\261\354\026\320\325\344\254\230"
 133      6DE7156D 
 133      B1EC16D0 
 133      D5E4AC98 
 134 01f7 883FA61E 		.ascii	"\210?\246\036\355\206\026\352Q\\\314A*f\204a\0341\355"
 134      ED8616EA 
 134      515CCC41 
 134      2A668461 
 134      1C31ED
 135 020a 7A3147B4 		.ascii	"z1G\264b\350fi\220\242\255\322\244\035\361\315\222\241"
 135      62E86669 
 135      90A2ADD2 
 135      A41DF1CD 
 135      92A1
 136 021c 4C40F697 		.ascii	"L@\366\227\272\023\333\236\205\315\"\357\256T\003D\374"
 136      BA13DB9E 
 136      85CD22EF 
 136      AE540344 
 136      FC
 137 022d 3D9E0116 		.ascii	"=\236\001\026k\323\037\333\342\235aL\326q\275\240\215"
 137      6BD31FDB 
 137      E29D614C 
 137      D671BDA0 
 137      8D
 138 023e 98016C75 		.ascii	"\230\001lu\3476/\244;\3678\015\354{\202~\347b\335\316"
ARM GAS  /tmp/cc6EVXCY.s 			page 10


 138      E7362FA4 
 138      3BF7380D 
 138      EC7B827E 
 138      E762DDCE 
 139 0252 1D818B19 		.ascii	"\035\201\213\031\337q\250\221\3049gG\226\210\217\301"
 139      DF71A891 
 139      C4396747 
 139      96888FC1 
 140 0262 77324D69 		.ascii	"w2Mi\254\302\363N\014\220\365\213\244\360\023\361\011"
 140      ACC2F34E 
 140      0C90F58B 
 140      A4F013F1 
 140      09
 141 0273 3C2EAE5F 		.ascii	"<.\256_\222O.\352\302\333%?\312\372\344\257\325\316"
 141      924F2EEA 
 141      C2DB253F 
 141      CAFAE4AF 
 141      D5CE
 142 0285 6DAC51A2 		.ascii	"m\254Q\242\270\241\361h\013\345\302\034\210\341(VF\255"
 142      B8A1F168 
 142      0BE5C21C 
 142      88E12856 
 142      46AD
 143 0297 9D128FEC 		.ascii	"\235\022\217\354\335\363}\3714\262\235x<D\266[\027Y"
 143      DDF37DF9 
 143      34B29D78 
 143      3C44B65B 
 143      1759
 144 02a9 034064E2 		.ascii	"\003@d\342\223086\214\302J\221s\335\231\2225\366=\322"
 144      93303836 
 144      8CC24A91 
 144      73DD9992 
 144      35F63DD2 
 145 02bd 006AAE69 		.ascii	"\000j\256i(,\255\255\213tu7a)|\034+\021\354\314\222"
 145      282CADAD 
 145      8B747537 
 145      61297C1C 
 145      2B11ECCC 
 146 02d2 D334D599 		.ascii	"\3234\325\231.\342V\232u#\037\272\312B\010\312\360\034"
 146      2EE2569A 
 146      75231FBA 
 146      CA4208CA 
 146      F01C
 147 02e4 CD7A91D0 		.ascii	"\315z\221\320\2670\353\245s\023\361Y\323\313u\216\263"
 147      B730EBA5 
 147      7313F159 
 147      D3CB758E 
 147      B3
 148 02f5 5CE99AD5 		.ascii	"\\\351\232\325R\274 \354Q\032v\022\255\244,T\034\005"
 148      52BC20EC 
 148      511A7612 
 148      ADA42C54 
 148      1C05
 149 0307 344B4D77 		.ascii	"4KMw\022B\210wwq\243\310\0234J\031_\"O|\301\264\240"
 149      12428877 
 149      7771A3C8 
 149      13344A19 
ARM GAS  /tmp/cc6EVXCY.s 			page 11


 149      5F224F7C 
 150 031e 2E8EA027 		.ascii	".\216\240'\221\242\340z\202\002\315\264\232\220&*\200"
 150      91A2E07A 
 150      8202CDB4 
 150      9A90262A 
 150      80
 151 032f 24B8080A 		.ascii	"$\270\010\012D|\032\250\011\350\266\241pH\230\037\217"
 151      447C1AA8 
 151      09E8B6A1 
 151      7048981F 
 151      8F
 152 0340 5E8A7681 		.ascii	"^\212v\201\242\015\030\242\026\346\241\001\267\313\014"
 152      A20D18A2 
 152      16E6A101 
 152      B7CB0C
 153 034f B747C6B8 		.ascii	"\267G\306\270\011|nW\030n\365\026C\334xh\300\355\016"
 153      097C6E57 
 153      186EF516 
 153      43DC7868 
 153      C0ED0E
 154 0362 C36D5302 		.ascii	"\303mS\002ZRn\026>\267~\206\333\026c\334xh\300m\200"
 154      5A526E16 
 154      3EB77E86 
 154      DB1663DC 
 154      7868C06D 
 155 0377 E1F6B131 		.ascii	"\341\366\2611nV>\267\373)r<K\001\210*\207\354\357\246"
 155      6E563EB7 
 155      FB29723C 
 155      4B01882A 
 155      87ECEFA6 
 156 038b 93FC0627 		.ascii	"\223\374\006'\311\027\250I\036N\320\240\235W\011\011"
 156      C917A849 
 156      1E4ED0A0 
 156      9D570909 
 157 039b 4F048464 		.ascii	"O\004\204d\260\370`\211\210;hH\366'\300i\337\025JLF"
 157      B0F86089 
 157      883B6848 
 157      F627C069 
 157      DF154A4C 
 158 03b0 F163F220 		.ascii	"\361c\362 ELv\253\347t\343\004Y\342\237\246\203r\213"
 158      454C76AB 
 158      E774E304 
 158      59E29FA6 
 158      83728B
 159 03c3 13948634 		.ascii	"\023\224\20645*m\0112t3+\232\322yai\210\014ug\222T9"
 159      352A6D09 
 159      3274332B 
 159      9AD27961 
 159      69880C75 
 160 03db 435FEF87 		.ascii	"C_\357\207\365\200\032VJT\246$AKv\261o'\021\377L_\032"
 160      F5801A56 
 160      4A54A624 
 160      414B76B1 
 160      6F2711FF 
 161 03f2 A7F034B0 		.ascii	"\247\3604\260\277P\333C\355\257\324^\242\3667j\373\250"
 161      BF50DB43 
 161      EDAFD45E 
ARM GAS  /tmp/cc6EVXCY.s 			page 12


 161      A2F6376A 
 161      FBA8
 162 0404 BD4AED35 		.ascii	"\275J\3555j\257S{\223\332?\250\275\015V\275\306\240"
 162      6AAF537B 
 162      93DA3FA8 
 162      BD0D56BD 
 162      C6A0
 163 0416 77E23F44 		.ascii	"w\342?Db/T^T\357\3421\312(NyQ\242\014\311L\360\212p"
 163      622F545E 
 163      54EFE231 
 163      CA284E79 
 163      51A20CC9 
 164 042e BD44FC97 		.ascii	"\275D\374\227\351\005\036\340,\260JP\343\225\254 \210"
 164      E9051EE0 
 164      2CB04A50 
 164      E395AC20 
 164      88
 165 043f AA15DBA6 		.ascii	"\252\025\333\246x\311\026\371\264\027\347\210\370\036"
 165      78C916F9 
 165      B417E788 
 165      F81E
 166 044d AD2A8E5A 		.ascii	"\255*\216ZF\254*t d\316\301\204\242\242\207\026\025"
 166      46AC2A74 
 166      2064CEC1 
 166      84A2A287 
 166      1615
 167 045f 83231715 		.ascii	"\203#\027\025M\015\221\256\236\246\311\244\250PK\211"
 167      4D0D91AE 
 167      9EA6C9A4 
 167      A8504B89 
 168 046f C8FF504A 		.ascii	"\310\377PJ\010\250\203J\031L\235\233\210\237\350\335"
 168      08A8834A 
 168      194C9D9B 
 168      889FE8DD 
 169 047f 3D4CA29F 		.ascii	"=L\242\2374\015\226\243\001\273\310\202\2355\002\226"
 169      340D96A3 
 169      01BBC882 
 169      9D350296 
 170 048f C167D6CB 		.ascii	"\301g\326\313\202u\231\006\3232\273\314\202]2\002\226"
 170      82759906 
 170      D332BBCC 
 170      825D3202 
 170      96
 171 04a0 CD677685 		.ascii	"\315gv\205\005\3533\015\3062\203\367\345k\344\000\356"
 171      05EB330D 
 171      C63283F7 
 171      E56BE400 
 171      EE
 172 04b1 A707F035 		.ascii	"\247\007\3605=\226f?\311\335I|b\375,\261\033F\210\345"
 172      3D96663F 
 172      C9DD497C 
 172      62FD2CB1 
 172      1B4688E5 
 173 04c5 F04336C0 		.ascii	"\360C6\300\202\3352\002\366\014\237\331}\026\254\337"
 173      82DD3202 
 173      F60C9FD9 
 173      7D16ACDF 
ARM GAS  /tmp/cc6EVXCY.s 			page 13


 174 04d5 349896D9 		.ascii	"4\230\226\331 \013\366\267\021\2609|f\017X\260!\323"
 174      200BF6B7 
 174      11B0397C 
 174      660F58B0 
 174      21D3
 175 04e7 605A6643 		.ascii	"`ZfC,X\275\325\000\330B>\263\307,\330\006\323`\014\263"
 175      2C58BDD5 
 175      00D8423E 
 175      B3C72CD8 
 175      06D3600C 
 176 04fc A6BA48E3 		.ascii	"\246\272H\343J\365\305\034^L\216\340\207\361S{\261v"
 176      4AF5C51C 
 176      5E4C8EE0 
 176      87F1537B 
 176      B176
 177 050e 0369DC5A 		.ascii	"\003i\334Z\270n\"\376H0{\270\357\024\222\037\356\332"
 177      B86E22FE 
 177      48307BB8 
 177      EF14921F 
 177      EEDA
 178 0520 9F8D8A17 		.ascii	"\237\215\212\027\251 \365\2625$\344\356bN\014\341\324"
 178      A920F5B2 
 178      3524E4EE 
 178      624E0CE1 
 178      D4
 179 0531 DDDA4B63 		.ascii	"\335\332Kc\370\220\306\260\321H\014\013\370`M,X\223"
 179      F890C6B0 
 179      D1480C0B 
 179      F8604D2C 
 179      5893
 180 0543 6930ED82 		.ascii	"i0\355\202|\260R[)1\353!\251\345J6\273 \011\005\225"
 180      7CB0525B 
 180      2931EB21 
 180      A9E54A36 
 180      BB200905 
 181 0558 CE4DC47B 		.ascii	"\316M\304{L/\310^\316\202\304\377\356b\275@\366\016"
 181      4C2FC85E 
 181      CE82C4FF 
 181      EE62BD40 
 181      F60E
 182 056a BD6C2D0B 		.ascii	"\275l-\013\271[\304\013b]d\007_wX\205\232\220J\267\336"
 182      B95BC40B 
 182      625D6407 
 182      5F775885 
 182      9A904AB7 
 183 057f 0DDE91A6 		.ascii	"\015\336\221\246u\357\343\350\266jt\357\213\353\376"
 183      75EFE3E8 
 183      B66A74EF 
 183      8BEBFE
 184 058e 44AF5BCB 		.ascii	"D\257[\313B\356\226ptC\261\260s%\311\035\302T\304\335"
 184      42EE9670 
 184      7443B1B0 
 184      7325C91D 
 184      C254C4DD 
 185 05a2 F41FB591 		.ascii	"\364\037\265\221\300\2528\311\003G\303\256^\346h\330"
 185      C0AA38C9 
 185      0347C3AE 
ARM GAS  /tmp/cc6EVXCY.s 			page 14


 185      5EE668D8 
 186 05b2 63241337 		.ascii	"c$\0237&\3739\231\354b\353\034\021\377C\013\221\007"
 186      26FB3999 
 186      EC62EB1C 
 186      11FF430B 
 186      9107
 187 05c4 B4B87C44 		.ascii	"\264\270|D\3550\265u\002\261\015\324\256\243v\003\265"
 187      ED30B575 
 187      02B10DD4 
 187      AEA37603 
 187      B5
 188 05d5 6F53FB2E 		.ascii	"oS\373.\265\233\251}\237\332-\324n\243v;\265\037R\273"
 188      B59BA97D 
 188      9FDA2DD4 
 188      6EA3763B 
 188      B51F52BB 
 189 05e9 8BDA666A 		.ascii	"\213\332fj\303\324\266R\273\237\332/\004~9{/E9\333&"
 189      C3D4B652 
 189      BB9FDA2F 
 189      047E397B 
 189      2F4539DB 
 190 05fe C4ABC597 		.ascii	"\304\253\305\227\355\345\201J\257\2754PVk/\363\256\266"
 190      EDE5814A 
 190      AFBD3450 
 190      566B2FF3 
 190      AEB6
 191 0610 9796FB56 		.ascii	"\227\226\373V\371\002\325\366P\260\306\377\226\035:"
 191      F902D5F6 
 191      50B0C6FF 
 191      961D3A
 192 061f E56285BD 		.ascii	"\345b\205\275*\020\014U\203Oee\300o\317u\025:\012\327"
 192      2A100C55 
 192      834F6565 
 192      C06FCF75 
 192      153A0AD7 
 193 0633 D8FDAB7D 		.ascii	"\330\375\253}\245\263K\321t{Mu\320.\006+g\371\003~\357"
 193      A5B34BD1 
 193      747B4D75 
 193      D02E062B 
 193      67F9037E 
 194 0648 2CAFB8CA 		.ascii	",\257\270\312g\367\371K+j\312\274\366\352P\231\317\037"
 194      67F7F94B 
 194      2B6ACABC 
 194      F6EA5099 
 194      CF1F
 195 065a 9A5D8E32 		.ascii	"\232]\2162j\340s\336\\Oh\324+\313V\3448\320\374\024"
 195      6AE073DE 
 195      5C4F68D4 
 195      2BCB56E4 
 195      38D0FC14 
 196 066e 832A45A0 		.ascii	"\203*E\240\340\367\332=e\3367\304\232\212\220'T[\345"
 196      E0F7DA3D 
 196      65DE37C4 
 196      9A8A9027 
 196      545BE5
 197 0681 AD0690D1 		.ascii	"\255\006\220\321\036\217\002\223M&\317\367\213\253*"
 197      1E8F0293 
ARM GAS  /tmp/cc6EVXCY.s 			page 15


 197      4D26CFF7 
 197      8BAB2A
 198 0690 BCC5DED2 		.ascii	"\274\305\336\322P \210\375\326\252\240/0\216|\237\347"
 198      502088FD 
 198      D6AAA02F 
 198      308E7C9F 
 198      E7
 199 06a1 AB8E3F98 		.ascii	"\253\216?\230B\276q{C\356\332\352\220\267\262@\364\227"
 199      42BE717B 
 199      43EEDAEA 
 199      90B7B240 
 199      F497
 200 06b3 55788345 		.ascii	"Ux\203E\340\032\364\205j\323\313c\367\351\004w\241'"
 200      E01AF485 
 200      6AD3CB63 
 200      F7E90477 
 200      A127
 201 06c5 648BCD00 		.ascii	"d\213\315\000\275\227F\212\212wM\310\356(t;\335*\357"
 201      BD97468A 
 201      8A774DC8 
 201      EE28743B 
 201      DD2AEF
 202 06d8 D240D0EB 		.ascii	"\322@\320\353)\255\234\017Lm\313\212\235\016\317r\340"
 202      29AD9C0F 
 202      4C6DCB8A 
 202      9D0ECF72 
 202      E0
 203 06e9 6D75BAF3 		.ascii	"mu\272\363]6W>\330\342\374\2749V\247#\337\225\341\212"
 203      5D36573E 
 203      D8E2FCBC 
 203      3956A723 
 203      DF95E18A 
 204 06fd DD3D070F 		.ascii	"\335=\007\017\213\342\017\347\302C\346v\236\325\231"
 204      8BE20FE7 
 204      C243E676 
 204      9ED599
 205 070c BB247E3B 		.ascii	"\273$~;_p\026\2517\317[\335\313\235\256\014\267c\011"
 205      5F7016A9 
 205      37CF5BDD 
 205      CB9DAE0C 
 205      B76309
 206 071f 9D24CD51 		.ascii	"\235$\315Q\264\302\231\007\303\335.k\361\362W]i\271"
 206      B4C29907 
 206      C3DD2E6B 
 206      F1F2575D 
 206      69B9
 207 0731 4E97C365 		.ascii	"N\227\303eqCs\220\317\202\2424w\001y\350X\012\246\200"
 207      71437390 
 207      CF82A234 
 207      770179E8 
 207      580AA680 
 208 0745 983C3069 		.ascii	"\230<0i\205\205Ks]\326%\304\344\302\275\245h\251\313"
 208      85854B73 
 208      5DD625C4 
 208      E4C2BDA5 
 208      68A9CB
 209 0758 92072D37 		.ascii	"\222\007-7\317e\205g.\340\227\353\002\360\\\207\353"
ARM GAS  /tmp/cc6EVXCY.s 			page 16


 209      CF658567 
 209      2EE097EB 
 209      02F05C87 
 209      EB
 210 0769 5FE907F4 		.ascii	"_\351\007\364$"
 210      24
 211              		.text
 212              		.section	.gnu.lto_.symtab.8532c4dddabc7731,"",%progbits
 213 0000 6E766963 		.ascii	"nvicEnableVector\000\000\000\000\000\000\000\000\000"
 213      456E6162 
 213      6C655665 
 213      63746F72 
 213      00000000 
 214 0019 000000A1 		.ascii	"\000\000\000\241\000\000\000nvicDisableVector\000\000"
 214      0000006E 
 214      76696344 
 214      69736162 
 214      6C655665 
 215 0033 00000000 		.ascii	"\000\000\000\000\000\000\000\000\000\000\262\000\000"
 215      00000000 
 215      0000B200 
 215      00
 216 0040 006E7669 		.ascii	"\000nvicSetSystemHandlerPriority\000\000\000\000\000"
 216      63536574 
 216      53797374 
 216      656D4861 
 216      6E646C65 
 217 0062 00000000 		.ascii	"\000\000\000\000\000\000\000\270\000\000\000"
 217      000000B8 
 217      000000
 218              		.text
 219              		.section	.gnu.lto_.opts,"",%progbits
 220 0000 272D6D63 		.ascii	"'-mcpu=cortex-m4' '-mfloat-abi=hard' '-mfpu=fpv4-sp"
 220      70753D63 
 220      6F727465 
 220      782D6D34 
 220      2720272D 
 221 0033 2D643136 		.ascii	"-d16' '-mno-thumb-interwork' '-mthumb' '-O2' '-fomi"
 221      2720272D 
 221      6D6E6F2D 
 221      7468756D 
 221      622D696E 
 222 0066 742D6672 		.ascii	"t-frame-pointer' '-falign-functions=16' '-ffunction"
 222      616D652D 
 222      706F696E 
 222      74657227 
 222      20272D66 
 223 0099 2D736563 		.ascii	"-sections' '-fdata-sections' '-fno-common' '-flto' "
 223      74696F6E 
 223      73272027 
 223      2D666461 
 223      74612D73 
 224 00cc 272D6673 		.ascii	"'-fsingle-precision-constant'\000"
 224      696E676C 
 224      652D7072 
 224      65636973 
 224      696F6E2D 
ARM GAS  /tmp/cc6EVXCY.s 			page 17


 225              		.text
 226              		.section	.text.nvicEnableVector,"ax",%progbits
 227              		.align	2
 228              		.p2align 4,,15
 229              		.global	nvicEnableVector
 230              		.thumb
 231              		.thumb_func
 232              		.type	nvicEnableVector, %function
 233              	nvicEnableVector:
 234              		@ args = 0, pretend = 0, frame = 0
 235              		@ frame_needed = 0, uses_anonymous_args = 0
 236              		@ link register save eliminated.
 237 0000 4309     		lsrs	r3, r0, #5
 238 0002 9B00     		lsls	r3, r3, #2
 239 0004 00F16042 		add	r2, r0, #-536870912
 240 0008 03F16043 		add	r3, r3, #-536870912
 241 000c 10B4     		push	{r4}
 242 000e 03F56143 		add	r3, r3, #57600
 243 0012 0124     		movs	r4, #1
 244 0014 0901     		lsls	r1, r1, #4
 245 0016 02F56142 		add	r2, r2, #57600
 246 001a 00F01F00 		and	r0, r0, #31
 247 001e 04FA00F0 		lsl	r0, r4, r0
 248 0022 C9B2     		uxtb	r1, r1
 249 0024 82F80013 		strb	r1, [r2, #768]
 250 0028 C3F88001 		str	r0, [r3, #384]
 251 002c 1860     		str	r0, [r3]
 252 002e 5DF8044B 		ldr	r4, [sp], #4
 253 0032 7047     		bx	lr
 254              		.size	nvicEnableVector, .-nvicEnableVector
 255 0034 AFF30080 		.section	.text.nvicDisableVector,"ax",%progbits
 255      AFF30080 
 255      AFF30080 
 256              		.align	2
 257              		.p2align 4,,15
 258              		.global	nvicDisableVector
 259              		.thumb
 260              		.thumb_func
 261              		.type	nvicDisableVector, %function
 262              	nvicDisableVector:
 263              		@ args = 0, pretend = 0, frame = 0
 264              		@ frame_needed = 0, uses_anonymous_args = 0
 265              		@ link register save eliminated.
 266 0000 084B     		ldr	r3, .L3
 267 0002 4109     		lsrs	r1, r0, #5
 268 0004 10B4     		push	{r4}
 269 0006 00F01F02 		and	r2, r0, #31
 270 000a 2031     		adds	r1, r1, #32
 271 000c 0124     		movs	r4, #1
 272 000e 1844     		add	r0, r0, r3
 273 0010 9440     		lsls	r4, r4, r2
 274 0012 0022     		movs	r2, #0
 275 0014 43F82140 		str	r4, [r3, r1, lsl #2]
 276 0018 80F80023 		strb	r2, [r0, #768]
 277 001c 5DF8044B 		ldr	r4, [sp], #4
 278 0020 7047     		bx	lr
 279              	.L4:
ARM GAS  /tmp/cc6EVXCY.s 			page 18


 280 0022 00BF     		.align	2
 281              	.L3:
 282 0024 00E100E0 		.word	-536813312
 283              		.size	nvicDisableVector, .-nvicDisableVector
 284 0028 AFF30080 		.section	.text.nvicSetSystemHandlerPriority,"ax",%progbits
 284      AFF30080 
 285              		.align	2
 286              		.p2align 4,,15
 287              		.global	nvicSetSystemHandlerPriority
 288              		.thumb
 289              		.thumb_func
 290              		.type	nvicSetSystemHandlerPriority, %function
 291              	nvicSetSystemHandlerPriority:
 292              		@ args = 0, pretend = 0, frame = 0
 293              		@ frame_needed = 0, uses_anonymous_args = 0
 294              		@ link register save eliminated.
 295 0000 00F16040 		add	r0, r0, #-536870912
 296 0004 00F56D40 		add	r0, r0, #60672
 297 0008 0901     		lsls	r1, r1, #4
 298 000a C9B2     		uxtb	r1, r1
 299 000c 0176     		strb	r1, [r0, #24]
 300 000e 7047     		bx	lr
 301              		.size	nvicSetSystemHandlerPriority, .-nvicSetSystemHandlerPriority
 302              		.comm	__gnu_lto_v1,1,1
 303              		.ident	"GCC: (GNU Tools for ARM Embedded Processors) 4.8.4 20140526 (release) [ARM/embedded-4_8-br
ARM GAS  /tmp/cc6EVXCY.s 			page 19

