ARM GAS  /tmp/ccLyemJV.s 			page 1


   1              		.syntax unified
   2              		.cpu cortex-m4
   3              		.eabi_attribute 27, 3
   4              		.eabi_attribute 28, 1
   5              		.fpu fpv4-sp-d16
   6              		.eabi_attribute 20, 1
   7              		.eabi_attribute 21, 1
   8              		.eabi_attribute 23, 3
   9              		.eabi_attribute 24, 1
  10              		.eabi_attribute 25, 1
  11              		.eabi_attribute 26, 1
  12              		.eabi_attribute 30, 2
  13              		.eabi_attribute 34, 1
  14              		.eabi_attribute 18, 4
  15              		.thumb
  16              		.file	"rfm23bp.c"
  17              		.section	.gnu.lto_.jmpfuncs.2c208c4382682be9,"",%progbits
  18 0000 789C6D88 		.ascii	"x\234m\210\301\021\200 \000\303\322V@X\306uX\301\005"
  18      C1118020 
  18      00C3D256 
  18      4058C675 
  18      58C105
  19 0013 9C5FBDE3 		.ascii	"\234_\275\343I>\311\305\230\035\327\362 \262\345|\375"
  19      493EC9C5 
  19      981DD7F2 
  19      20B2E57C 
  19      FD
  20 0024 084FDDFA 		.ascii	"\010O\335\372\177\242\265\016\027*\215\223\016/@\200"
  20      7FA2B50E 
  20      172A8D93 
  20      0E2F4080 
  21 0034 0232     		.ascii	"\0022"
  22              		.text
  23              		.section	.gnu.lto_.inline.2c208c4382682be9,"",%progbits
  24 0000 789C6362 		.ascii	"x\234cb`b\300\006\254\031!4\027\003\003\0133#\003\023"
  24      6062C006 
  24      AC192134 
  24      1703030B 
  24      33230313 
  25 0014 E30B7606 		.ascii	"\343\013v\006\366\016u\260bF\006\016VFf\306\214\010"
  25      F60E75B0 
  25      6246060E 
  25      564666C6 
  25      8C08
  26 0026 C64CB02A 		.ascii	"\306L\260*\306t8\013D\262\0021\333\002y&\006\226\005"
  26      C674380B 
  26      44B20231 
  26      DB027926 
  26      069605
  27 0039 F2020C4C 		.ascii	"\362\002\014LG89\030Xf\360\260\200\344\231\030\330\371"
  27      47383918 
  27      5866F0B0 
  27      80E49918 
  27      D8F9
  28 004b 8186315D 		.ascii	"\201\2061]\340\207\250\000\002f\036\240\360\004?\006"
  28      E087A800 
  28      02661EA0 
ARM GAS  /tmp/ccLyemJV.s 			page 2


  28      F0043F06 
  29 005b 66060E76 		.ascii	"f\006\016v<\206\262\240\032\272\201\207\003l\0367P\202"
  29      3C86B2A0 
  29      1ABA8187 
  29      036C1E37 
  29      5082
  30 006d 71821F0B 		.ascii	"q\202\037\013\003;\211.b\352a\003\273\210\225\201\231"
  30      033B892E 
  30      62EA6103 
  30      BB889581 
  30      99
  31 007e 89111C06 		.ascii	"\211\021\034\0060\007\261a\210\260c\210p`\210pb\210"
  31      3007B161 
  31      88B06388 
  31      70608870 
  31      6288
  32 0090 300000C0 		.ascii	"0\000\000\300m\031\250"
  32      6D19A8
  33              		.text
  34              		.section	.gnu.lto_.pureconst.2c208c4382682be9,"",%progbits
  35 0000 789C6362 		.ascii	"x\234cb`b\020e\200\000.\006)F)&)f)\026)V\0066\006v\006"
  35      60621065 
  35      80002E06 
  35      29462926 
  35      29662916 
  36 001b 0E064E06 		.ascii	"\016\006N\006\000\014\274\000\323"
  36      000CBC00 
  36      D3
  37              		.text
  38              		.section	.gnu.lto_rfm23_init.2c208c4382682be9,"",%progbits
  39 0000 789C6362 		.ascii	"x\234cb`b@\007\222@<\033\210E\200\230\221\231\201\221"
  39      60624007 
  39      92403C1B 
  39      88458098 
  39      91998191 
  40 0014 69C23906 		.ascii	"i\3029\006\206F\016&FF\020\203\201\221\241\236\211\261"
  40      86460E26 
  40      46461083 
  40      8191A19E 
  40      89B1
  41 0026 3E9211AC 		.ascii	">\222\021\254v=\323\201\007\377\377\257\333\327r\211"
  41      763DD381 
  41      07FFFFAF 
  41      DBD77289 
  42 0036 89958931 		.ascii	"\211\225\2111\227\221\201\031H\200\244X\031Z\032\032"
  42      97918119 
  42      4880A458 
  42      195A1A1A 
  43 0046 26283030 		.ascii	"&(00$\203\025\206\000I\220\356PF&\020\315|\226\241\351"
  43      24831586 
  43      004990EE 
  43      50462610 
  43      CD7C96A1 
  44 005b F48C2EFE 		.ascii	"\364\214.\376D\306\205\214\254\014\332\014\253\032\200"
  44      44C6858C 
  44      AC0CDA0C 
  44      AB1A80
ARM GAS  /tmp/ccLyemJV.s 			page 3


  45 006a C0309311 		.ascii	"\3000\223\021h\357,\306LF\306tF\246\010 \015q[\022\304"
  45      68EF2CC6 
  45      4C46C674 
  45      46A60820 
  45      0D715B12 
  46 007f 2A8674A0 		.ascii	"*\206t\240c\030.24>X\311\005\321\007R\302\014su\010"
  46      63182E32 
  46      343E58C9 
  46      05D10752 
  46      C20C7375 
  47 0094 D05AA0C9 		.ascii	"\320Z\240\311 -B.E\231e\251E\305\372Ei\271F\306I\005"
  47      202D422E 
  47      459965A9 
  47      45C5FA45 
  47      69B946C6 
  48 00aa 7AC90C00 		.ascii	"z\311\014\000\255\372+w"
  48      ADFA2B77 
  49              		.text
  50              		.section	.gnu.lto_rfm23_TXEN.2c208c4382682be9,"",%progbits
  51 0000 789CAD91 		.ascii	"x\234\255\221\261K\0031\030\305\337\373\222\024\025"
  51      B14B0331 
  51      18C5DFFB 
  51      921415
  52 000f 0711DDA4 		.ascii	"\007\021\335\244\270\013\026tu\364OhA\307\266\250\334"
  52      B80B1674 
  52      75F44F68 
  52      41C7B6A8 
  52      DC
  53 0020 50900AAE 		.ascii	"P\220\012\256\315\301\015\335\354\254\223\2709\350\332"
  53      CDC10DDD 
  53      ECAC93B8 
  53      39E8DA
  54 002f A1607572 		.ascii	"\241`ur\261\240T\220Nuw\024\212SMr^Q)N\006\222\357%"
  54      B1A05490 
  54      4E757714 
  54      8A534D72 
  54      5E51294E 
  55 0047 7979BF90 		.ascii	"yy\277\220\010\004\277\333\226\353\037\004\226\\e\016"
  55      0804BFDB 
  55      96EB1F04 
  55      965C650E 
  56 0057 94560F88 		.ascii	"\224V\017\210gDT'\017;\247\373\005\330yE\223.\353L\030"
  56      67445427 
  56      0F3BA7FB 
  56      05D87945 
  56      932EEB4C 
  57 006c D20B100D 		.ascii	"\322\013\020\015Q\332\260\261\313\020w-\335\341x|\365"
  57      51DAB0B1 
  57      CB10772D 
  57      DDE1787C 
  57      F5
  58 007d 9E0CF4AC 		.ascii	"\236\014\364\254\260Fh7\370-\203\304\332\326*P\015\306"
  58      B0466837 
  58      F82D83C4 
  58      DAD62A50 
  58      0DC6
  59 008f A21B7D40 		.ascii	"\242\033}@\211\342\253\272G\362v;Z)\363\234\006\007"
ARM GAS  /tmp/ccLyemJV.s 			page 4


  59      89E2ABBA 
  59      47F2763B 
  59      5A29F39C 
  59      0607
  60 00a1 941D46FC 		.ascii	"\224\035F\374q\317\022\025:y\365\200\273\366\313@&i"
  60      71CF1215 
  60      3A79F580 
  60      BBF6CB40 
  60      2669
  61 00b3 A9B0A357 		.ascii	"\251\260\243W\347N\017W\003\016k\270\264I\334}^\216"
  61      E74E0F57 
  61      030E6BB8 
  61      B449DC7D 
  61      5E8E
  62 00c5 C8A05DA0 		.ascii	"\310\240]\240dB\235\3414n\331\205\210\332\203\214m6"
  62      64429DE1 
  62      346ED985 
  62      88DA838C 
  62      6D36
  63 00d7 AD469001 		.ascii	"\255F\220\001V\361\021e^\370i\205\374\246e\242\275;"
  63      56F11165 
  63      5EF86985 
  63      FCA665A2 
  63      BD3B
  64 00e9 E77DE14A 		.ascii	"\347}\341J'L\351\031a:\223\177\002\361\005\013U\205"
  64      274CE919 
  64      613A937F 
  64      02F1050B 
  64      5585
  65 00fb 1A203279 		.ascii	"\032 2y\002\215~!<A\373I\376\231'\323x&\374\315#\342"
  65      028D7E21 
  65      3C41FB49 
  65      FE9927D3 
  65      7826FCCD 
  66 0111 E18D4E79 		.ascii	"\341\215NyY+\272\203n\317[\027\267\353\321\361^\375"
  66      592BBA83 
  66      6ECF5B17 
  66      B7EBD1F1 
  66      5EFD
  67 0123 A850DFAF 		.ascii	"\250P\337\257mlV\016\327\253\370\004U\322xq"
  67      6D6C560E 
  67      D7ABF804 
  67      55D27871 
  68              		.text
  69              		.section	.gnu.lto_rfm23_RXEN.part.0.2c208c4382682be9,"",%progbits
  70 0000 789C5D50 		.ascii	"x\234]P\261J\304@\020\235\267\233h\316F\021\304Vl\017"
  70      B14AC440 
  70      109DB79B 
  70      68CE4611 
  70      C4566C0F 
  71 0014 14B4B1B2 		.ascii	"\024\264\261\262\362\023r\240v\227pj\212\023\211`cq"
  71      F21372A0 
  71      7697706A 
  71      8A138960 
  71      6371
  72 0026 13382565 		.ascii	"\0238%e\260P\320\306\303\316\306\366\300N\260T\361\007"
  72      B050D0C6 
ARM GAS  /tmp/ccLyemJV.s 			page 5


  72      C3CEC6F6 
  72      C04EB054 
  72      F107
  73 0038 249F60A9 		.ascii	"$\237`\2516qfs)t`\367=\230}\363\336\254!C\377\253-g"
  73      36716673 
  73      297460F7 
  73      3D987DF3 
  73      DEAC2143 
  74 0050 13448B82 		.ascii	"\023D\213\202\360\011^\361*\304\203qh`\025\263\300\002"
  74      F0095EF1 
  74      2AC48371 
  74      686015B3 
  74      C002
  75 0062 4A0834F0 		.ascii	"J\0104\360\214\305`\007*\3062\215\230/\312\347\313G"
  75      8CC56007 
  75      2AC6328D 
  75      982FCAE7 
  75      CB47
  76 0074 F039679F 		.ascii	"\3609g\237U5\233@\\\026@1h\033\011\02080\370k\373`\270"
  76      55359B40 
  76      5C164031 
  76      681B0910 
  76      3830F86B 
  77 008b ACAAEF5D 		.ascii	"\254\252\357]\037\350\273\226OC\346b\251\213\221\014"
  77      1FE8BB96 
  77      4F43E662 
  77      A98B910C 
  78 009b 25554B85 		.ascii	"%UK\205r\253m\010O\321v`\034\276\321Y\371\261\321\305"
  78      72AB6D08 
  78      4FD17660 
  78      1CBED159 
  78      F9B1D1C5 
  79 00af 9D24263A 		.ascii	"\235$&:\245\037\316y.\201\215Q\333\354\003j*,\021%\275"
  79      A51FCE79 
  79      2E818D51 
  79      DBEC036A 
  79      2A2C1125 
  80 00c4 D0D3F8EB 		.ascii	"\320\323\370\353\012\365\3736\335\363P\232~C\246\032"
  80      0AF5FB36 
  80      DDF3509A 
  80      7E43A61A 
  81 00d4 327D43D7 		.ascii	"2}C\327Y\241\203\002U\2678\317\331s\351[nj4\331!\232"
  81      59A18302 
  81      55B738CF 
  81      D973E95B 
  81      6E6A34D9 
  82 00ea B844A8BF 		.ascii	"\270D\250\277S_\3144\373u`]\304w\312n\017\232\204u\205"
  82      535FCC34 
  82      FB75605D 
  82      C477CA6E 
  82      0F9A8475 
  83 00ff A293968A 		.ascii	"\242\223\226\212\346\267\322\344\244\227\036\257\246"
  83      E6B7D2E4 
  83      A4971EAF 
  83      A6
  84 010c 7BFDB5F5 		.ascii	"{\375\265\365\350h%&\323;\374\005\360\013O\345"
  84      E8682526 
ARM GAS  /tmp/ccLyemJV.s 			page 6


  84      D33BFC05 
  84      F00B4FE5 
  85              		.text
  86              		.section	.gnu.lto_rfm23_RXEN.2c208c4382682be9,"",%progbits
  87 0000 789C5D4F 		.ascii	"x\234]O=K\003A\024\234\331\217\313!\026\207\330\012"
  87      3D4B0341 
  87      149CD98F 
  87      CB211687 
  87      D80A
  88 0012 76168282 		.ascii	"v\026\202\202\226\222\316\237\220\200\226\336\241\341"
  88      9692CE9F 
  88      908096DE 
  88      A1E1
  89 0020 8A809C60 		.ascii	"\212\200\234`c\221=8\341\312t\001\255l-\264\023\355"
  89      63913D38 
  89      E1CA7401 
  89      AD6C2DB4 
  89      13ED
  90 0032 D4CAC688 		.ascii	"\324\312\306\210\235\244Ji\341\037\210M\334\275\275"
  90      9DA44A69 
  90      E11F884D 
  90      DCBDBD
  91 0041 13F4C1EE 		.ascii	"\023\364\301\356\014\373\346\315\233\025\020\370_;\366"
  91      0CFBE6CD 
  91      9B1510F8 
  91      5F3BF6
  92 0050 AC1158B6 		.ascii	"\254\021X\266\310\000\024\3031\220\207B\310Q\004\263"
  92      C80014C3 
  92      31908742 
  92      C85104B3 
  93 0060 A0666D98 		.ascii	"\240fm\230EI\355\236\251<\346\241&\035\0011\020Ri\016"
  93      4549ED9E 
  93      A93CE6A1 
  93      261D0131 
  93      1052690E 
  94 0074 F659B9DD 		.ascii	"\366Y\271\335\212\307\351|~sw>\011Zd\237\220\366r-\215"
  94      8AC7E97C 
  94      7E73773E 
  94      095A649F 
  94      90F6722D 
  95 0089 C298E12A 		.ascii	"\302\230\341*\220T\302\216\275\235A\227\302\241|A\361"
  95      9054C28E 
  95      BD9D4197 
  95      C2A17C41 
  95      F1
  96 009a F5F4B072 		.ascii	"\365\364\260r\300+j\364\310=\246\374\023\263K\211Q$"
  96      C02B6AF4 
  96      C83DA6FC 
  96      13B34B89 
  96      5124
  97 00ac DF50845E 		.ascii	"\337P\204^\004\234\341\333\224&J\311\204^\334\243L)"
  97      049CE1DB 
  97      94264AC9 
  97      845EDCA3 
  97      4C29
  98 00be 9A018559 		.ascii	"\232\001\205Y[\276\342\371\376c\"\374\314:\256Ma\235"
  98      5BBEE2F9 
ARM GAS  /tmp/ccLyemJV.s 			page 7


  98      FE6322FC 
  98      CC3AAE4D 
  98      619D
  99 00d0 65435443 		.ascii	"eCTC\364%.,\004no\313\224\245Q\250he\025\327Q\342zM"
  99      F4252E2C 
  99      046E6FCB 
  99      94A551A8 
  99      686515D7 
 100 00e8 5CEF708A 		.ascii	"\\\357p\212\220\277\001u\365\223w\344\323O\325d\364"
 100      90BF0175 
 100      F59377E4 
 100      D34FD564 
 100      F4
 101 00f9 D5B183B6 		.ascii	"\325\261\203\266\347\246\226v\263\364\3640;\331\314"
 101      E7A69676 
 101      B3F4F430 
 101      3BD9CC
 102 0108 8EFA5BDB 		.ascii	"\216\372[\333\361\361F\202\037\344\016J6"
 102      F1F14682 
 102      1FE40E4A 
 102      36
 103              		.text
 104              		.section	.gnu.lto_rfm23_SHUTDOWN.2c208c4382682be9,"",%progbits
 105 0000 789C6362 		.ascii	"x\234cb`b@\0076@\234\314\310\300 \002\244\031\331\030"
 105      60624007 
 105      36409CCC 
 105      C8C02002 
 105      A419D918 
 106 0014 1899269C 		.ascii	"\030\231&\234c`h\344`bb\336#\307\320\300\305rE\237\241"
 106      636068E4 
 106      606262DE 
 106      23C7D0C0 
 106      C572459F 
 107 0029 81879991 		.ascii	"\201\207\231\221\025\"\314\002c\26022\202\030\014\214"
 107      1522CC02 
 107      63B03232 
 107      82180C8C 
 108 0039 0CF54CCC 		.ascii	"\014\365L\314,\254\214\365\221\214`\343\3263\035x\360"
 108      2CAC8CF5 
 108      918C60E3 
 108      D6331D78 
 108      F0
 109 004a FFFFBA6F 		.ascii	"\377\377\272o\255\227$\330\230\030s\301\202\254\014"
 109      AD9724D8 
 109      981873C1 
 109      82AC0C
 110 0059 2D0D0D13 		.ascii	"-\015\015\023\024 \36600\204\000I\220\336PF&\020\315"
 110      1420F630 
 110      30840049 
 110      90DE5046 
 110      2610CD
 111 006c 7C82A1E5 		.ascii	"|\202\241\345\315\301\237\262\211\214\013\031Y\031\322"
 111      CDC19FB2 
 111      898C0B19 
 111      5919D2
 112 007b 19992218 		.ascii	"\031\231\"\0303\031Q\234\030\312\310\314\260G\216\371"
 112      3319519C 
ARM GAS  /tmp/ccLyemJV.s 			page 8


 112      18CAC8CC 
 112      B0478EF9 
 113 008b 2CC3A11D 		.ascii	",\303\241\0357\3463B\324i3\254jh\001*d\2041\230`\014"
 113      37E63342 
 113      D46933AC 
 113      6A68012A 
 113      64843198 
 114 00a1 E6D90CB3 		.ascii	"\346\331\014\263\200\024\013\310\030\326\206\216\216"
 114      80140BC8 
 114      18D6868E 
 114      8E
 115 00ae 06160630 		.ascii	"\006\026\0060\023lT\022\324\344$FF(\015\011\021\220"
 115      136C5412 
 115      D4E42446 
 115      46280D09 
 115      1190
 116 00c0 0AB6060E 		.ascii	"\012\266\006\016\270\205,\014W\364\301\026\356x\244"
 116      B8852C0C 
 116      57F4C116 
 116      EE78A4
 117 00cf 41650B99 		.ascii	"Ae\013\231\261Z\310\012\016\212\213\014\215\017\376"
 117      B15AC80A 
 117      0E8A8B0C 
 117      8D0FFE
 118 00de B3402C84 		.ascii	"\263@,\204\201\020\240N\240\034\310\235B.E\231e\251"
 118      8110A04E 
 118      A01CC89D 
 118      422E4599 
 118      65A9
 119 00f0 45C5FA45 		.ascii	"E\305\372Ei\271F\306I\005z\311\014\000\\/W\371"
 119      69B946C6 
 119      49057AC9 
 119      0C005C2F 
 119      57F9
 120              		.text
 121              		.section	.gnu.lto_rfm23_readRegister.2c208c4382682be9,"",%progbits
 122 0000 789C6362 		.ascii	"x\234cb`b@\007\222@\034\015\304\"@\314\310\314\300\310"
 122      60624007 
 122      92401C0D 
 122      C42240CC 
 122      C8CCC0C8 
 123 0014 34E11C03 		.ascii	"4\341\034\003C#\007\023##\210\301\300\310P\317\304X"
 123      43230713 
 123      232388C1 
 123      C0C850CF 
 123      C458
 124 0026 1FC90856 		.ascii	"\037\311\010V\273\236\351\300\203\377\377\327m8\266"
 124      BB9EE9C0 
 124      83FFFFD7 
 124      6D38B6
 125 0035 60362323 		.ascii	"`6##\310(V\206\226\206\206\011\012\014\014\311`\005"
 125      C8285686 
 125      96868609 
 125      0A0C0CC9 
 125      6005
 126 0047 214012A4 		.ascii	"!@\022\244+\024(\011\244\231/24>\230\265\2301\221q!"
 126      2B142809 
ARM GAS  /tmp/ccLyemJV.s 			page 9


 126      A4992F32 
 126      343E98B5 
 126      98319171 
 127 005c 232B4304 		.ascii	"#+C\004c&#\334\326\020FF\220\012\220\031B.E\231e\251"
 127      632623DC 
 127      D6104646 
 127      900A9019 
 127      422E4599 
 128 0072 45C5FA45 		.ascii	"E\305\372Ei\271F\306I\005z\311\014\000\255\352 \023"
 128      69B946C6 
 128      49057AC9 
 128      0C00ADEA 
 128      2013
 129              		.text
 130              		.section	.gnu.lto_rfm23_writeRegister.2c208c4382682be9,"",%progbits
 131 0000 789C6362 		.ascii	"x\234cb`b@\007\222@\034\015\304\"@\314\310\314\300\310"
 131      60624007 
 131      92401C0D 
 131      C42240CC 
 131      C8CCC0C8 
 132 0014 34E11C03 		.ascii	"4\341\034\003C#\007\023##\210\301\300\310P\317\304X"
 132      43230713 
 132      232388C1 
 132      C0C850CF 
 132      C458
 133 0026 1FC90856 		.ascii	"\037\311\010V\273\236\351\300\203\377\377\327]:\266"
 133      BB9EE9C0 
 133      83FFFFD7 
 133      5D3AB6
 134 0035 600D2323 		.ascii	"`\015##\310(V\206\226\206\206\011\012\014\014\311`\005"
 134      C8285686 
 134      96868609 
 134      0A0C0CC9 
 134      6005
 135 0047 214012A4 		.ascii	"!@\022\244+\024(\011\244\231/24>X\275\2301\221q!#+C"
 135      2B142809 
 135      A4992F32 
 135      343E58BD 
 135      98319171 
 136 005f 04632623 		.ascii	"\004c&#\334\326\020FF\220\012\220\031B.E\231e\251E\305"
 136      DCD61046 
 136      46900A90 
 136      19422E45 
 136      9965A945 
 137 0074 FA4569B9 		.ascii	"\372Ei\271F\306I\005z\311\014\000\304~ W"
 137      46C64905 
 137      7AC90C00 
 137      C47E2057 
 138              		.text
 139              		.section	.gnu.lto_rfm23_readBurst.2c208c4382682be9,"",%progbits
 140 0000 789C6362 		.ascii	"x\234cb`b@\007\222@\034\015\304\"@\314\310\314\300\310"
 140      60624007 
 140      92401C0D 
 140      C42240CC 
 140      C8CCC0C8 
 141 0014 34E11C03 		.ascii	"4\341\034\003C#\007\023##\210\301\300\310P\317\304X"
 141      43230713 
ARM GAS  /tmp/ccLyemJV.s 			page 10


 141      232388C1 
 141      C0C850CF 
 141      C458
 142 0026 1FC90856 		.ascii	"\037\311\010V\273\236\351\300\203\377\377\327}9\266"
 142      BB9EE9C0 
 142      83FFFFD7 
 142      7D39B6
 143 0035 600F2323 		.ascii	"`\017##\310(V\206\226\206\206\011\012\014\014\311`\005"
 143      C8285686 
 143      96868609 
 143      0A0C0CC9 
 143      6005
 144 0047 214012A4 		.ascii	"!@\022\244+\024(\011\244\231/24>\330\275\2301\221q!"
 144      2B142809 
 144      A4992F32 
 144      343ED8BD 
 144      98319171 
 145 005c 232B4304 		.ascii	"#+C\004c&#\334\326\020FF\220\012\220\031B.E\231e\251"
 145      632623DC 
 145      D6104646 
 145      900A9019 
 145      422E4599 
 146 0072 45C5FA45 		.ascii	"E\305\372Ei\271F\306I\005z\311\014\000\332\200 \231"
 146      69B946C6 
 146      49057AC9 
 146      0C00DA80 
 146      2099
 147              		.text
 148              		.section	.gnu.lto_rfm23_writeBurst.2c208c4382682be9,"",%progbits
 149 0000 789C6362 		.ascii	"x\234cb`b@\007\222@\034\015\304\"@\314\310\314\300\310"
 149      60624007 
 149      92401C0D 
 149      C42240CC 
 149      C8CCC0C8 
 150 0014 34E11C03 		.ascii	"4\341\034\003C#\007\023##\210\301\300\310P\317\304X"
 150      43230713 
 150      232388C1 
 150      C0C850CF 
 150      C458
 151 0026 1FC90856 		.ascii	"\037\311\010V\273\236\351\300\203\377\377\327M9\276"
 151      BB9EE9C0 
 151      83FFFFD7 
 151      4D39BE
 152 0035 E00C2323 		.ascii	"\340\014##\310(V\206\226\206\206\011\012\014\014\311"
 152      C8285686 
 152      96868609 
 152      0A0C0CC9 
 153 0045 60052140 		.ascii	"`\005!@\022\244+\024(\011\244\231/24>8\275\2301\221"
 153      12A42B14 
 153      2809A499 
 153      2F32343E 
 153      38BD9831 
 154 005a 7121232B 		.ascii	"q!#+C\004c&#\334\326\020FF\220\012\220\031B.E\231e\251"
 154      43046326 
 154      23DCD610 
 154      4646900A 
 154      9019422E 
ARM GAS  /tmp/ccLyemJV.s 			page 11


 155 0072 45C5FA45 		.ascii	"E\305\372Ei\271F\306I\005z\311\014\000\277\240 Z"
 155      69B946C6 
 155      49057AC9 
 155      0C00BFA0 
 155      205A
 156              		.text
 157              		.section	.gnu.lto_rfm23_sendByte.2c208c4382682be9,"",%progbits
 158 0000 789C6362 		.ascii	"x\234cb`b@\007\222@\034\015\304\"@\314\310\314\300\310"
 158      60624007 
 158      92401C0D 
 158      C42240CC 
 158      C8CCC0C8 
 159 0014 34E11C03 		.ascii	"4\341\034\003C#\007\023##\210\301\300\310P\317\304X"
 159      43230713 
 159      232388C1 
 159      C0C850CF 
 159      C458
 160 0026 1FC90856 		.ascii	"\037\311\010V\273\236\351\300\203\377\377\327m9\276"
 160      BB9EE9C0 
 160      83FFFFD7 
 160      6D39BE
 161 0035 E00E2323 		.ascii	"\340\016##\310(V\206\226\206\206\011\012\014\014\311"
 161      C8285686 
 161      96868609 
 161      0A0C0CC9 
 162 0045 60052140 		.ascii	"`\005!@\022\244+\024(\011\244\231/24>\270\275\2301\221"
 162      12A42B14 
 162      2809A499 
 162      2F32343E 
 162      B8BD9831 
 163 005a 7121232B 		.ascii	"q!#+C\004c&#\334\326\020FF\220\012\220\031B.E\231e\251"
 163      43046326 
 163      23DCD610 
 163      4646900A 
 163      9019422E 
 164 0072 45C5FA45 		.ascii	"E\305\372Ei\271F\306I\005z\311\014\000\324\340 \232"
 164      69B946C6 
 164      49057AC9 
 164      0C00D4E0 
 164      209A
 165              		.text
 166              		.section	.gnu.lto_.symbol_nodes.2c208c4382682be9,"",%progbits
 167 0000 789C4DC9 		.ascii	"x\234M\311\271\015\203P\024\005\321\373\347{\201\036"
 167      B90D8350 
 167      1405D1FB 
 167      E77B811E 
 168 0010 E8F5DA60 		.ascii	"\350\365\332`\266\214\006L@\342n\250\301\205 \313\004"
 168      B68C064C 
 168      40E26EA8 
 168      C18520CB 
 168      04
 169 0021 48BCC98E 		.ascii	"H\274\311\216\006\241\217\216x`iZ%{\036\022O\234\002"
 169      06A18F8E 
 169      7860695A 
 169      257B1E12 
 169      4F9C02
 170 0034 47CCC1F7 		.ascii	"G\314\301\367\316\032\347p\033|\011|\341k`\213o\201"
ARM GAS  /tmp/ccLyemJV.s 			page 12


 170      CE1AE770 
 170      1B7C097C 
 170      E16B608B 
 170      6F81
 171 0046 1DBE07F6 		.ascii	"\035\276\007\366\270\010\034py2\223T\177\177)g\264l"
 171      B8081C70 
 171      79329354 
 171      7F7F2967 
 171      B46C
 172 0058 95FEB165 		.ascii	"\225\376\261e2j"
 172      326A
 173              		.text
 174              		.section	.gnu.lto_.refs.2c208c4382682be9,"",%progbits
 175 0000 789C6362 		.ascii	"x\234cb`b`d\200\002\000\000F\000\006"
 175      60626064 
 175      80020000 
 175      460006
 176              		.text
 177              		.section	.gnu.lto_.decls.2c208c4382682be9,"",%progbits
 178 0000 789CBD5C 		.ascii	"x\234\275\\yp\324V\232\227\324\335v\267\355\030\206"
 178      7970D456 
 178      9A97D4DD 
 178      76B7ED18 
 178      86
 179 0011 ECCE90DD 		.ascii	"\354\316\220\335T\245S\225\331\312\034\241m\303$d\263"
 179      54A55395 
 179      D9CA1CA1 
 179      6DC32464 
 179      B3
 180 0022 4900DB04 		.ascii	"I\000\333\004\327r\270\332f'\363\307V#\272\005\356\035"
 180      D772B8DA 
 180      6627F3C7 
 180      5623BA05 
 180      EE1D
 181 0034 5FD32D83 		.ascii	"_\323-\203S\265\265#\333\001&$\\\206p\205\030g'!\204"
 181      53B5B523 
 181      DB012624 
 181      5C867085 
 181      18672721 
 182 0049 09093813 		.ascii	"\011\0118\023\314\235\206d\270<\013&\020 C\002\235\373"
 182      CC9D8664 
 182      B83C0B26 
 182      10204302 
 182      9DFB
 183 005b 5CC62680 		.ascii	"\\\306&\2009\355\375\336'\251\373I\226\324\2223\265"
 183      39EDFDDE 
 183      27A9FB49 
 183      96D49233 
 183      B5
 184 006c 5DF59E9E 		.ascii	"]\365\236\236\236\337\373}\347\373\336!\311\034\303"
 184      9EDFFB7D 
 184      E7FBDE21 
 184      C91CC3
 185 007b 317FE618 		.ascii	"1\177\346\030f\000~\337\2241\214\350e\230\\\206a\036"
 185      66007EDF 
 185      94318CE8 
 185      65985C86 
ARM GAS  /tmp/ccLyemJV.s 			page 13


 185      611E
 186 008d 81C4427A 		.ascii	"\201\304Bz\201\221\1779\220^\2044\012\332>\000\351a"
 186      81917F39 
 186      905E8434 
 186      0ADA3E00 
 186      E961
 187 009f 4813204D 		.ascii	"H\023 M\2024\035\322\014H\265\220\0328f\320\217\364"
 187      82341DD2 
 187      0C48B590 
 187      1A3866D0 
 187      8FF4
 188 00b1 7343DA0E 		.ascii	"sC\332\016\251\003\322VH\033\024\374N\345J\332\220\256"
 188      A903D256 
 188      481B14FC 
 188      4EE54ADA 
 188      90AE
 189 00c3 3F81EC67 		.ascii	"?\201\354g:\014B3[\341\345\277\240\374[H\327\240\234"
 189      3A0C4233 
 189      5BE1E5BF 
 189      A0FC5B48 
 189      D7A09C
 190 00d6 84F423E8 		.ascii	"\204\364#\350\354R\360\257B\352'xP\347ce\274Q\012\257"
 190      EC52F0AF 
 190      42EA2778 
 190      50E76365 
 190      BC510AAF 
 191 00ea A43C06B2 		.ascii	"\244<\006\262\321:l\"K\256\202\235\017)\017\222\004"
 191      D13A6C22 
 191      4BAE829D 
 191      0F290F92 
 191      04
 192 00fb 7501CE9C 		.ascii	"u\001\316\234\226\213\242\245\322!8\204\026\221\345"
 192      968BA2A5 
 192      D2213884 
 192      1691E5
 193 010a 211D0D42 		.ascii	"!\035\015B\337\247\320h\202\362X\233\330\254\202\375"
 193      DFA7D068 
 193      82F2589B 
 193      D8AC82FD 
 194 011a B0A27352 		.ascii	"\260\242sR\036\007\331\243:\374\011C\324\017\253\364"
 194      1E07D9A3 
 194      3AFC0943 
 194      D40FABF4 
 195 012a 25D7521D 		.ascii	"%\327R\035\346$\245~\203r\317*u\372\337t\203v\323\015"
 195      E624A57E 
 195      8372CF2A 
 195      75FADF74 
 195      8376D30D 
 196 013e DACD3068 		.ascii	"\332\3150h7\303\240]\255A\273Z\203v\015\006\355\214"
 196      37C3A05D 
 196      AD41BB5A 
 196      83760D06 
 196      ED8C
 197 0150 7CCFCB2C 		.ascii	"|\317\313,\220\244f)9Ojb\177\3030\217\263<\233\357\203"
 197      90A46629 
 197      394F6A62 
 197      7FC3308F 
ARM GAS  /tmp/ccLyemJV.s 			page 14


 197      B33C9BEF 
 198 0165 5A52C8F3 		.ascii	"ZR\310\363a\267\0373/J\222\264T\2228\236}\201\365\202"
 198      61B71F33 
 198      2F4A92B4 
 198      5492389E 
 198      7D81F582 
 199 0179 9A397630 		.ascii	"\2329v0\020\371\311\177'?\322].\253%\350r\027\323&\265"
 199      10F9C97F 
 199      273FD25D 
 199      2EAB25E8 
 199      7217D326 
 200 018e 27935BAF 		.ascii	"'\223[\257n\277CjoN\014\014<\312\374\220y\026\260\245"
 200      6EBF436A 
 200      6F4E0C0C 
 200      3CCAFC90 
 200      7916B0A5 
 201 01a2 F6F992C4 		.ascii	"\366\371\222\304\212>\346w\312\315\244C\371)^\374*/"
 201      8A3EE677 
 201      CACDA443 
 201      F9295EFC 
 201      2A2F
 202 01b4 6E9597A5 		.ascii	"n\225\227\245\311\276\253\317<,I^\236\335\300\372\200"
 202      C9BEABCF 
 202      3C2C495E 
 202      9EDDC0FA 
 202      80
 203 01c5 9F08CBFC 		.ascii	"\237\010\313\374\224yEfr\377\375F\314\331\207>q\360"
 203      94794566 
 203      72FFFD46 
 203      CCD9873E 
 203      71F0
 204 01d7 9DAD6C33 		.ascii	"\235\255l3\260\303\263\233\020|%\270\003\317\276\302"
 204      B0C3B39B 
 204      107C25B8 
 204      03CFBEC2 
 205 01e7 FED431D4 		.ascii	"\376\3241\324\255#\235c\221\313\315\010tB\007\304\263"
 205      AD239D63 
 205      91CBCD08 
 205      744207C4 
 205      B3
 206 01f8 593EADF6 		.ascii	"Y>\255\366\340^m@\320\340\226P\272Jb\017\373[\245\206"
 206      E05E6D40 
 206      D0E09650 
 206      BA4A620F 
 206      FB5BA586 
 207 020c DC6433FF 		.ascii	"\334d3\377\357\375\214\304$\020/\261?\304\222\013G\037"
 207      EFFD8CC4 
 207      24102FB1 
 207      3FC4920B 
 207      471F
 208 021e 848A85C4 		.ascii	"\204\212\205\304\235d\345\214`\226\241\246\306Qz\032"
 208      9D64E58C 
 208      6096A1A6 
 208      C6517A1A 
 209 022e A70278D3 		.ascii	"\247\002x\323z\272\261x\340n\324S\007;\002`ztz\312\010"
 209      7ABAB178 
 209      E06ED453 
ARM GAS  /tmp/ccLyemJV.s 			page 15


 209      073B0260 
 209      7A747ACA 
 210 0243 43F87813 		.ascii	"C\370x\023\272\312\235dwM|w0Or\313\365\214\006N\363"
 210      BACA9D64 
 210      774D7C77 
 210      304F72CB 
 210      F58C064E 
 211 0258 BB9B6907 		.ascii	"\273\233i\007~\023}\013V\200K\356g\215\330\367Sd%\227"
 211      7E137D0B 
 211      56804BEE 
 211      678DD8F7 
 211      53642597 
 212 026c 4AB720CD 		.ascii	"J\267 \315~\357\222\323\033\330\026\364\230\035(\300"
 212      7EEF92D3 
 212      1BD816F4 
 212      981D28C0 
 213 027c 1ECE5000 		.ascii	"\036\316P\000s \236\335\305r\220\357\326\013q\3719\024"
 213      73209EDD 
 213      C57290EF 
 213      D60B71F9 
 213      3914
 214 028e 62B72D21 		.ascii	"b\267-!n\235m\373\221\224L\260\331\314|yH7\217\\\235"
 214      6E9D6DFB 
 214      91944CB0 
 214      D9CC7C79 
 214      48378F5C 
 215 02a3 6F31A497 		.ascii	"o1\244\227&\327\257<Y\210\212\177\013:q\314u\035\337"
 215      26D7AF3C 
 215      59888A7F 
 215      0B3A71CC 
 215      751DDF
 216 02b6 36800857 		.ascii	"6\200\010W\373\241\263\206\3537\347\017#\\\223z\013"
 216      FBA1B386 
 216      EB37E70F 
 216      235C937A 
 216      0B
 217 02c7 AED16338 		.ascii	"\256\321c8f\236\213E@\267/]\2674]\307RM\327\244\253"
 217      669E8B45 
 217      40B72F5D 
 217      B7345DC7 
 217      524DD7A4 
 218 02dc 39AAFAF7 		.ascii	"9\252\372\367\351j\027U\375Z\272\332\255\220$\267\254"
 218      E96A1755 
 218      FD5ABADA 
 218      AD9024B7 
 218      AC
 219 02ed 2F5D18D0 		.ascii	"/]\030\320\206\012Z\024\236}\233\3751\344\357\260.\303"
 219      860A5A14 
 219      9E7D9BFD 
 219      31E4EFB0 
 219      2EC3
 220 02ff 6E1CB3CB 		.ascii	"n\034\263\313\305*&3R\214RL\323\315O\215u\331\\\340"
 220      C52A2633 
 220      528C524C 
 220      D3CD4F8D 
 220      75D95CE0 
 221 0313 367FFA82 		.ascii	"6\177\372\202]\336\"\035*0\0344\340O\224\277\314P\001"
ARM GAS  /tmp/ccLyemJV.s 			page 16


 221      5DDE221D 
 221      2A301C34 
 221      E04F94BF 
 221      CC5001
 222 0326 F352D64B 		.ascii	"\363R\326K\234=\313\372\015\\K\323\224g\337\00512\265"
 222      9C3DCBFA 
 222      0D5C4BD3 
 222      9467DF05 
 222      3132B5
 223 0339 22ED4EEA 		.ascii	"\"\355N\352}o\325Y\364\275\223\266|o\375\331\266\301"
 223      7D6FD559 
 223      F4BD93B6 
 223      7C6FFDD9 
 223      B6C1
 224 034b 034813DC 		.ascii	"\003H\023\334y\366\221\2777\215\"g\264Q\204g\267\003"
 224      79F691BF 
 224      378D2267 
 224      B4518467 
 224      B703
 225 035d 12CF4E77 		.ascii	"\022\317Nw\245\350\230\207\331\304\255\265\177G\030"
 225      A5E89887 
 225      D9C4ADB5 
 225      7F4718
 226 036c 3D0D5D38 		.ascii	"=\015]8f\237K\353\303\032\206dBfL|\2004\215\344\034"
 226      669F4BEB 
 226      C31A8664 
 226      42664C7C 
 226      80348DE4 
 227 0381 F4378E39 		.ascii	"\3647\2169\206tN\246\255\257\201\313h\375\304\016#\205"
 227      86744EA6 
 227      ADAF81CB 
 227      68FDC40E 
 227      2385
 228 0393 19D829C9 		.ascii	"\031\330)\311\251`?OI\234\374\260\255\277\010\307m\022"
 228      A9603F4F 
 228      499CFCB0 
 228      ADBF08C7 
 228      6D12
 229 03a5 E3CD3A77 		.ascii	"\343\315:w\306x\243\205!\022}\242\267\367\033]h\357"
 229      C678A385 
 229      21127DA2 
 229      B7F71B5D 
 229      68EF
 230 03b7 4F32DBFB 		.ascii	"O2\333\373\311\226Dg\327:d\037'\303\026[\363\352\202"
 230      C9964467 
 230      D73A641F 
 230      27C3165B 
 230      F3EA82
 231 03ca 3FEDC379 		.ascii	"?\355\303y\025\2734[v\341\331/p\360ek\347\247l_\272"
 231      15BB345B 
 231      76E1D92F 
 231      70F0656B 
 231      E7A76C5F 
 232 03df 40A6A561 		.ascii	"@\246\245a\304\020\257\270\015\246gkxuz^\270\373A\324"
 232      C410AFB8 
 232      0DA6676B 
 232      78757A5E 
ARM GAS  /tmp/ccLyemJV.s 			page 17


 232      B8FB41D4 
 233 03f3 E2D7383D 		.ascii	"\342\3278=w\270\365\323s\266nz\316\314\216\303\3460"
 233      77B8F5D3 
 233      73B66E7A 
 233      CECC8EC3 
 233      E630
 234 0405 5520D14F 		.ascii	"U \321O\206\346FO\266$?h\273\300\255\221\022O\272x\366"
 234      86E6464F 
 234      B6243F68 
 234      BBC0AD91 
 234      124FBA78 
 235 041a 7394E26D 		.ascii	"s\224\342m\307\200~\215awv\345-\345U\260#v\300\274\246"
 235      C7807E8D 
 235      617776E5 
 235      2DE555B0 
 235      2376C0BC 
 236 042f DC2576D3 		.ascii	"\334%v\323`\357:\006\323r\266\227\006;c\007l\2709g\335"
 236      60EF3A06 
 236      D372B697 
 236      063B6307 
 236      6CB83967 
 237 0444 34D8078E 		.ascii	"4\330\007\216\301h\316\232\022\347\273\216\260Rk\336"
 237      C168CE9A 
 237      12E7BB8E 
 237      B0526BDE 
 238 0454 ED4CAB24 		.ascii	"\355L\253$5I\355Yf~\3070\330D\262l\302\263\327\331\333"
 238      3549ED59 
 238      667EC730 
 238      D844B26C 
 238      C2B3D7D9 
 239 0469 B523F3C4 		.ascii	"\265#\363\304\323\371dd\222\372\314\221\370=ed\362\354"
 239      D3F96464 
 239      92FACC91 
 239      F83D6564 
 239      F2EC
 240 047b 97285C12 		.ascii	"\227(\\\022\205#}\207\022\250\244\304\207]\271\322\302"
 240      85237D87 
 240      12A8A4C4 
 240      875DB9D2 
 240      C2
 241 048c BCD41A6C 		.ascii	"\274\324\032l\243\005\343\003\372\220r\272\213\363\313"
 241      A305E303 
 241      FA9072BA 
 241      8BF3CB
 242 049b D599F97E 		.ascii	"\325\231\371~\277k\335H\251}\237\032\036\244\371\322"
 242      BF6BDD48 
 242      A97D9F1A 
 242      1EA4F9D2 
 243 04ab BD14ADE1 		.ascii	"\275\024\255\341*-2?\244\"J\347\317q\3746s\244\376c"
 243      2A2D323F 
 243      A4224AE7 
 243      CF71FC36 
 243      73A4FE63 
 244 04bf E3406003 		.ascii	"\343@`\003\350\326\302\227\345@0\017\201\276\031\024"
 244      E8D6C297 
 244      E540300F 
 244      81BE1914 
ARM GAS  /tmp/ccLyemJV.s 			page 18


 245 04cf 085CBA40 		.ascii	"\010\\\272@\340\322\216l\227/]\030\030p1\316\032s\314"
 245      E0D28E6C 
 245      972F5D18 
 245      187031CE 
 245      1A73CC
 246 04e2 15243890 		.ascii	"\025$8\220\366?\015\223\231W\022\037\234\273\302\255"
 246      F63F0D93 
 246      9957121F 
 246      9CBBC2AD 
 247 04f2 9612CD2E 		.ascii	"\226\022\315.U\025\327\035\003\016\327\031\205c$\317"
 247      5515D71D 
 247      030ED719 
 247      856324CF 
 248 0502 10FD8612 		.ascii	"\020\375\206\022]\226\232go\262wC\336\0179E\240\331"
 248      5D969A67 
 248      6FB27743 
 248      DE0F3945 
 248      A0D9
 249 0514 6363D48D 		.ascii	"cc\324\2154\221\032\206p\017=\204\0278\006\363k\300"
 249      34911A86 
 249      700F3D84 
 249      173806F3 
 249      6BC0
 250 0526 2ED260CF 		.ascii	".\322`\317\330\001\363\233sv\211\006[\346\030L\313\331"
 250      D801F39B 
 250      73768906 
 250      5BE6184C 
 250      CBD9
 251 0538 151A6CA5 		.ascii	"\025\032l\245\035\260{\255\214\242\261Oz\015\300\263"
 251      1DB07BAD 
 251      8CA2B14F 
 251      7A0DC0B3 
 252 0548 9FE28CFB 		.ascii	"\237\342\214\373\031Z\352\002\346=\230_\304\374\022"
 252      195AEA02 
 252      E63D985F 
 252      C4FC12
 253 0557 E65730BF 		.ascii	"\346W0\277\212\371\"\216\344K0_\206\371r\216\262\257"
 253      8AF9228E 
 253      E44B305F 
 253      86F9728E 
 253      B2AF
 254 0569 C57AADAF 		.ascii	"\305z\255\257\365N\022\316\316\343zm\255\307r\275\226"
 254      F54E12CE 
 254      CEE37A6D 
 254      ADC772BD 
 254      96
 255 057a 34119570 		.ascii	"4\021\225p\277\2123_\257\351\376\3061/y\234\256\327"
 255      BF8A335F 
 255      AFE9FEC6 
 255      312F799C 
 255      AED7
 256 058c 2833E06A 		.ascii	"(3\340j\375\322)\266\245E\332X\240\016\262W\365\210"
 256      FDD229B6 
 256      A545DA58 
 256      A00EB257 
 256      F588
 257 059e 4683CC6C 		.ascii	"F\203\314lr\204\200w\346\271\274\356\031*X\207c0\375"
ARM GAS  /tmp/ccLyemJV.s 			page 19


 257      72848077 
 257      E6B9BCEE 
 257      192A5887 
 257      6330FD
 258 05b1 8855EDF8 		.ascii	"\210U\355\370\036\332\361\024\332\350\034\346k\320:"
 258      1EDAF114 
 258      DAE81CE6 
 258      6BD03A
 259 05c0 CF719AD1 		.ascii	"\317q\232\321\267\315\243\017r\362B\237\302K\357\010"
 259      B7CDA30F 
 259      72F2429F 
 259      C24BEF08 
 260 05d0 98CC8866 		.ascii	"\230\314\210fF\352fs\323D\023\036\335\226\311\231\021"
 260      46EA6673 
 260      D344131E 
 260      DD96C999 
 260      11
 261 05e1 126DE760 		.ascii	"\022m\347`,dZ1\267\273U\244\022&\275\323\275\220\030"
 261      2C645A31 
 261      B7BB55A4 
 261      1226BDD3 
 261      BD9018
 262 05f4 B9539286 		.ascii	"\271S\222\206\363\354\013\034Y2KY\031\227\314Z\034\216"
 262      F3EC0B1C 
 262      59324B59 
 262      1997CC5A 
 262      1C8E
 263 0606 790ABBBC 		.ascii	"y\012\273\274\310i\347\270\344\351\213\311\177\\\215"
 263      C869E7B8 
 263      E4E98BC9 
 263      7F5C8D
 264 0615 C8E44F99 		.ascii	"\310\344O\231\347\271\033\363\237\037\274\360\227\331"
 264      E7B91BF3 
 264      9F1FBCF0 
 264      97D9
 265 0623 32D3E146 		.ascii	"2\323\341F\2753\037J\2612\264\315G\377\001\214)\004"
 265      BD331F4A 
 265      B132B4CD 
 265      47FF018C 
 265      2904
 266 0635 1776328E 		.ascii	"\027v2\216\301\264FY~\220\332\012\330Zx\367]RN\3576"
 266      C1B44659 
 266      7E90DA0A 
 266      D85A78F7 
 266      5D524EEF 
 267 064a A3EF9FCA 		.ascii	"\243\357\237\312\322\273\342\227\254\343\2257\307\234"
 267      D2BBE297 
 267      ACE39537 
 267      C79C
 268 0658 B32387E9 		.ascii	"\263#\207\351x$\206\354\276sG\207$=\225\245.vLWi\034"
 268      782486EC 
 268      BE734787 
 268      243D95A5 
 268      2E764C57 
 269 066e F31912EB 		.ascii	"\363\031\022\353\320;\303\256\276\356\373dg\350\260"
 269      D03BC3AE 
 269      BEEEFB64 
ARM GAS  /tmp/ccLyemJV.s 			page 20


 269      67E8B0
 270 067d E50C9D5D 		.ascii	"\345\014\235]\253l\355\002\333\263T\362\021$\377r6!"
 270      AB6CED02 
 270      DBB354F2 
 270      1124FF72 
 270      3621
 271 068f DF39C817 		.ascii	"\3379\310\027o|\371\210L\276\323\026\371\363\307\014"
 271      6F7CF988 
 271      4CBED316 
 271      F9F3C70C 
 272 069f 8EBD4C37 		.ascii	"\216\275L7\352\212\365v\365\365\334\273\036\211\354"
 272      EA8AF576 
 272      F5F5DCBB 
 272      1E89EC
 273 06ae 42FFE9CD 		.ascii	"B\377\351\315\326\233\357\321\\\232\026\336k\334\367"
 273      D69BEFD1 
 273      5C9A16DE 
 273      6BDCF7
 274 06bd 7A8AFB21 		.ascii	"z\212\373!\271/\210\231x\364\025\264\224\312C\277cD"
 274      B92F8899 
 274      78F415B4 
 274      94CA43BF 
 274      6344
 275 06cf AD0F5F3C 		.ascii	"\255\017_<\206\003B\006k\366\332\000\263\010\354\227"
 275      86034206 
 275      6BF6DA00 
 275      B308EC97 
 276 06df 68B0F98E 		.ascii	"h\260\371\216\301\264\234]\241\301\026\332\0013\333"
 276      C1B49C5D 
 276      A1C116DA 
 276      0133DB
 277 06ee F500D855 		.ascii	"\365\000\330U\032l\261c0-g\327i\260V;`f\2139\000\273"
 277      1A6CB163 
 277      302D67D7 
 277      69B0563B 
 277      60668B39 
 278 0704 4983AD74 		.ascii	"I\203\255t\014\246\345\254\237\006[k\007\314o\316\331"
 278      0CA6E5AC 
 278      9F065B6B 
 278      07CC6FCE 
 278      D9
 279 0715 D27729B0 		.ascii	"\322w)\2606\307`Z\316Zi\260\377\266\003f\264\230S\300"
 279      36C7605A 
 279      CE5A69B0 
 279      FFB60366 
 279      B49853C0 
 280 0729 56D0601B 		.ascii	"V\320`\033\034\203i9[I\203m\262\003V`\316\331j\032\354"
 280      1C836939 
 280      5B49836D 
 280      B2035660 
 280      CED96A1A 
 281 073e 35C7605A 		.ascii	"5\307`Z\316\326\322`\035v\300\306\232s\266\216\006\333"
 281      CED6D260 
 281      1D76C0C6 
 281      9A73B68E 
 281      06DB
 282 0750 E6184CCB 		.ascii	"\346\030L\313\331\026\032l\247\035\260q\346\234u\320"
ARM GAS  /tmp/ccLyemJV.s 			page 21


 282      D9161A6C 
 282      A71DB071 
 282      E69C75D0 
 283 0760 607B1C83 		.ascii	"`{\034\203i9\373#\015\226\260\0036\311\234\263m4\330"
 283      6939FB23 
 283      0D96B003 
 283      36C99CB3 
 283      6D34D8
 284 0773 DB8EC1B4 		.ascii	"\333\216\301\264\234m\247\301\016\330\001+7\347l'\015"
 284      9C6DA7C1 
 284      0ED8012B 
 284      37E76C27 
 284      0D
 285 0784 76D83198 		.ascii	"v\3301\230\226\263\3354\330\237\355\200=n\316\331^\032"
 285      96B3DD34 
 285      D89FED80 
 285      3D6ECED9 
 285      5E1A
 286 0796 ACDB3198 		.ascii	"\254\3331\230\226\263n\032\354\244\035\260\031\006\234"
 286      96B36E1A 
 286      ECA41DB0 
 286      19069C
 287 07a5 A57E66CB 		.ascii	"\245~f\313\314m\034\265T?\355U\0278\016\347h&\215q\326"
 287      CC6D1CB5 
 287      543FED55 
 287      17380EE7 
 287      68268D71 
 288 07ba EB7445A6 		.ascii	"\353tE\246\221\233,\255\357\334\251\314\363\362Z\365"
 288      919B2CAD 
 288      EFDCA9CC 
 288      F3F25AF5 
 289 07ca 233B8816 		.ascii	"#;\210\026\023\340"
 289      13E0
 290 07d0 DA83D4C2 		.ascii	"\332\203\324\302\367+\307`:W>\250\337\215(K\340\344"
 290      F72BC760 
 290      3A573EA8 
 290      DF8D284B 
 290      E0E4
 291 07e2 4B09EB27 		.ascii	"K\011\353'o\3700=\325X\0329\322\270-l\2659\262\231\273"
 291      6FF8303D 
 291      D5581A39 
 291      D2B82D6C 
 291      B539B299 
 292 07f7 C6F9525C 		.ascii	"\306\371R\\\310e\265$?\211\352\365\232>\217\267\356"
 292      C865B524 
 292      3F89EAF5 
 292      9A3E8FB7 
 292      EE
 293 0808 6AE60957 		.ascii	"j\346\011WhO\270bGM\026S\373\371\203\353\360\261$%o"
 293      684FB862 
 293      474D1653 
 293      FBF983EB 
 293      F0B12425 
 294 081d 86C7927D 		.ascii	"\206\307\222}_*\373\203[\270?\270\3455<\330\263\001"
 294      5F2AFB83 
 294      5BB83FB8 
 294      E5353CD8 
ARM GAS  /tmp/ccLyemJV.s 			page 22


 294      B301
 295 082f 7462C1E6 		.ascii	"tb\301\346\237!\220\344\"@\363}C\005\272\265\260M~\222"
 295      9F2190E4 
 295      2240F37D 
 295      4305BAB5 
 295      B04D7E92 
 296 0843 DF82408B 		.ascii	"\337\202@\213u@\312\343AJ\357\254v\303b\371\320\361"
 296      7540CAE3 
 296      414AEFAC 
 296      76C362F9 
 296      D0F1
 297 0855 6FD89663 		.ascii	"o\330\226cV\373t\3262z*i\276v\2021w\346\256\035\257"
 297      56FB74D6 
 297      327A2A69 
 297      BE768231 
 297      77E6AE1D 
 298 086a 49524B96 		.ascii	"IRK\226\003{}\252\330\353w\250\235\366A\332\221\364"
 298      037B7DAA 
 298      D8EB77A8 
 298      9DF641DA 
 298      91F4
 299 087c 07A819C5 		.ascii	"\007\250\031\305\330\350X\214{ub$\356u,\306\267\212"
 299      D8E8588C 
 299      7B756224 
 299      EE752CC6 
 299      B78A
 300 088e 188B508C 		.ascii	"\030\213P\214-\177\0031\266;\026\243\200\022\003\367"
 300      2D7F0331 
 300      B63B16A3 
 300      801203F7 
 301 089e A4A3E43D 		.ascii	"\244\243\344=\251\255'\007\255.\335\223\203\367\217"
 301      A9AD2707 
 301      AD2EDD93 
 301      83F78F
 302 08ad B07EB93A 		.ascii	"\260~\271:\323fPJ\364\035Q\037\034\310/\325\274\205"
 302      D366504A 
 302      F41D511F 
 302      1CC82FD5 
 302      BC85
 303 08bf BC93BE0E 		.ascii	"\274\223\276\016g\000\005o\205|p)\203\035\370^`\315"
 303      6700056F 
 303      857C7029 
 303      831DF85E 
 303      60CD
 304 08d1 89379E7E 		.ascii	"\2117\236~^a\356Q<\263\370\236p\307\273\034\237Y\264"
 304      5E61EE51 
 304      3CB3F89E 
 304      70C7BB1C 
 304      9F59B4
 305 08e4 2F929DE3 		.ascii	"/\222\235\3439t\216S\203\234cHg\026\037\017U\216\324"
 305      39748E53 
 305      839C6348 
 305      67161F0F 
 305      558ED4
 306 08f7 0FA631BD 		.ascii	"\017\2461\275\2179\332\340\020\037\273:\312\346\271"
 306      8F39DAE0 
 306      101FBB3A 
ARM GAS  /tmp/ccLyemJV.s 			page 23


 306      CAE6B9
 307 0906 47EA30ED 		.ascii	"G\3520\355\313\221\207\344\3034\0279L\373_\2352l\234"
 307      CB9187E4 
 307      C3341739 
 307      4CFB5F9D 
 307      326C9C
 308 0919 9FDC9499 		.ascii	"\237\334\224\231v\015:L\353\276C9Ls\331:?\231\257\272"
 308      760D3A4C 
 308      EBBE4339 
 308      4C73D93A 
 308      3F99AFBA 
 309 092d 857246C6 		.ascii	"\205rF\306q\012\354P\365\2511a\232?\360c\027\231\212"
 309      710AEC50 
 309      F5A93161 
 309      9A3FF063 
 309      17998A
 310 0940 5F76694E 		.ascii	"_viNQ\237\311q\252{?\255\373\304\215\256u,\341\337\340"
 310      519FC971 
 310      AA7B3FAD 
 310      FBC48DAE 
 310      752CE1DF 
 311 0955 C8671CBD 		.ascii	"\310g\034\275@J)>y\307aT\317&T\374\312\034\207oJ\301"
 311      404A293E 
 311      79C76154 
 311      CF2654FC 
 311      CA1C876F 
 312 096b 3E11BB6C 		.ascii	">\021\273l\036\254\370C\377 +~\263-\305\277g\250\370"
 312      1EACF843 
 312      FF202B7E 
 312      B32DC5BF 
 312      67A8F8
 313 097e CDCE15AF 		.ascii	"\315\316\025\257\340\235J\237H\362\354\037\034\203\371"
 313      E09D4A9F 
 313      48F2EC1F 
 313      1C83F9
 314 098d ADACB899 		.ascii	"\255\254\270\231\262\342\353h\305-.r~\275Uk\313N\275"
 314      B2E2EB68 
 314      C52D2E72 
 314      7EBD556B 
 314      CB4EBD
 315 09a0 2D359A53 		.ascii	"-5\232S\212\246\333q)\261\374\2506~\356\267\343\033"
 315      8AA6DB71 
 315      29B1FCA8 
 315      367EEEB7 
 315      E31B
 316 09b2 169BE8B6 		.ascii	"\026\233\350\266\243\250\0229\336\034r\014\346\327\200"
 316      A3A81239 
 316      DE1C720C 
 316      E6D780
 317 09c1 ED596C70 		.ascii	"\355Ylp\352l\364^\032K/|9\346\004\322\335\241w\227\357"
 317      EA6CF45E 
 317      1A4B2F7C 
 317      39E604D2 
 317      DDA17797 
 318 09d6 B61D5FC0 		.ascii	"\266\035_\3006\311\257\274\331\360\027\230\\>\363I\255"
 318      36C9AFBC 
 318      D9F01798 
ARM GAS  /tmp/ccLyemJV.s 			page 24


 318      5C3EF349 
 318      AD
 319 09e7 79AADF2E 		.ascii	"y\252\337.\312UQ-Tm\341-7\276:\314\"\234\274\220\177"
 319      CA55512D 
 319      546DE12D 
 319      37BE3ACC 
 319      229CBC90 
 320 09fc 560F9771 		.ascii	"V\017\227q\237\241\205\353\027\214\337\3012W\214\372"
 320      9FA185EB 
 320      178CDFC1 
 320      32578CFA 
 321 0a0c 06D60E32 		.ascii	"\006\326\0162\275\356G\231\236\317\325\317\010\262f"
 321      BDEE4799 
 321      9ECFD5CF 
 321      08B266
 322 0a1b 2847DC41 		.ascii	"(G\334A9\342.t\304\335\350\210{1O\320\356h6\303\357"
 322      39E22E74 
 322      C4DDE888 
 322      7B314FD0 
 322      EE6836C3 
 323 0a30 73512BF3 		.ascii	"sQ+\363\227\034\313\355\327Y\307\214\314v\232\314\253"
 323      971CCBED 
 323      D759C78C 
 323      CC769ACC 
 323      AB
 324 0a41 B9367CCF 		.ascii	"\2716|\317\374\314\205\004\365\177\336\241l\343\344"
 324      FCCC8504 
 324      F57FDEA1 
 324      6CE3E4
 325 0a50 13FF6D8E 		.ascii	"\023\377m\216\021\265\336\334\273X\263\032\330g\007"
 325      11B5DEDC 
 325      BB58B31A 
 325      D86707
 326 0a5f 6E9C0183 		.ascii	"n\234\001\203F?\372\021\017\014e\334\200\275\214\317"
 326      463FFA11 
 326      0F0C65DC 
 326      80BD8CCF 
 327 0a6f BB3661FE 		.ascii	"\2736a\376*\346[1\357\305\374;\314/c~\023\363\005h\320"
 327      2AE65B31 
 327      EFC5FC3B 
 327      CC2F637E 
 327      13F30568 
 328 0a84 67305F86 		.ascii	"g0_\206y;\346\257`\376\006\346ob\336\211\371A\314\017"
 328      793BE6AF 
 328      60FE06E6 
 328      6F62DE89 
 328      F941CC0F 
 329 0a98 67720065 		.ascii	"gr\000e\026xc\357\373w\276\212\261\272\035\335\277)"
 329      167863EF 
 329      FB77BE8A 
 329      B1BA1DDD 
 329      BF29
 330 0aaa 4FEF791B 		.ascii	"O\357y\0339\335\011\374\240'H+\362l<\211\263xX\322{"
 330      39DD09FC 
 330      A027482B 
 330      F26C3C89 
 330      B37858D2 
ARM GAS  /tmp/ccLyemJV.s 			page 25


 331 0abf ECE86976 		.ascii	"\354\350iv\271$\035*\220\375\237gw\2728-\242v\304Xx"
 331      B9241D2A 
 331      90FD9F67 
 331      77BA382D 
 331      A276C458 
 332 0ad4 A362D40F 		.ascii	"\243b\324\017\333\326\333{\026\222z\225\355\236\264"
 332      DBD6DB7B 
 332      16927A95 
 332      ED9EB4
 333 0ae3 4EFA3E7E 		.ascii	"N\372>~\377?\345Wp\217\343h<\255\323IF\034|\340\251"
 333      FF3FE557 
 333      708FE368 
 333      3CADD349 
 333      461C7CE0 
 334 0af8 0B7389DE 		.ascii	"\013s\211\336s\362+\220\231C\334\223-\211\313\347V("
 334      73F22B90 
 334      9943DC93 
 334      2D89CBE7 
 334      5628
 335 0b0a 4E293FAB 		.ascii	"N)?\253\377\004Y89\264)\221<\370?G=\370\377\3021\230"
 335      FF045938 
 335      39B42991 
 335      3CF83F47 
 335      3DF8FFC2 
 336 0b20 5F037695 		.ascii	"_\003v\225\006\373\306\016\230\305k]\327i\260\013\216"
 336      06FBC60E 
 336      98C56B5D 
 336      D769B00B 
 336      8E
 337 0b31 C1B49CDD 		.ascii	"\301\264\234\335\244\301z\355\200Y\274\326\325O\203"
 337      A4C17AED 
 337      8059BCD6 
 337      D54F83
 338 0b40 F53906D3 		.ascii	"\3659\006\323r\266\364<\005\326o\007\314\342m\225V\032"
 338      72B6F43C 
 338      05D66F07 
 338      CCE26D95 
 338      561A
 339 0b52 6CDE6D4E 		.ascii	"l\336mN\301\264\234\255\240\301\026\331\001\363\033"
 339      C1B49CAD 
 339      A0C116D9 
 339      01F31B
 340 0b61 7066F4A3 		.ascii	"pf\364\243\007\001\317\276\207\223\324)\214Ng0\377\013"
 340      0701CFBE 
 340      8793D429 
 340      8C4E6730 
 340      FF0B
 341 0b73 E61F607E 		.ascii	"\346\037`~\016\363$\346\037c\376)\346\237\333\231\310"
 341      0EF324E6 
 341      1F63FE29 
 341      E69FDB99 
 341      C8
 342 0b84 BAE91966 		.ascii	"\272\351\031f\371m6\242\221\305\241E\357\222\017\277"
 342      F96D36A2 
 342      91C5A145 
 342      EF920FBF 
 343 0b94 D7ABD4C9 		.ascii	"\327\253\324\311\363_\037\376\027\022>2\277N\375\255"
ARM GAS  /tmp/ccLyemJV.s 			page 26


 343      F35F1FFE 
 343      17123E32 
 343      BF4EFDAD 
 344 0ba4 CBDEEBD4 		.ascii	"\313\336\353\324\027\364\261\344\362Q\214%\027l-\257"
 344      17F4B1E4 
 344      F2518C25 
 344      176C2DAF 
 345 0bb4 FB6C2ED7 		.ascii	"\373l.\327\022,\255\235T,<\374\210\034\013/b,<w[\306"
 345      122CAD9D 
 345      542C3CFC 
 345      881C0B2F 
 345      622C3C77 
 346 0bca 58A8C521 		.ascii	"X\250\305!\374]\326\363\377\3061\344\377\262\255X\330"
 346      FC5DD6F3 
 346      FFC631E4 
 346      FFB2AD58 
 346      D8
 347 0bdb 794C1B0B 		.ascii	"yL\033\013{\221\205\313C\216\205\333\217Q\016\177\311"
 347      7B9185CB 
 347      438E85DB 
 347      8F510E7F 
 347      C9
 348 0bec 31985F03 		.ascii	"1\230_\003\266\223\006\273f\007\314\352\025W\032\354"
 348      B69306BB 
 348      6607CCEA 
 348      15571AEC 
 349 0bfc 9663302D 		.ascii	"\226c0-g{i\260\346|\033`V\257\270\322`\013\034\203\371"
 349      677B69B0 
 349      E67C1B60 
 349      56AFB8D2 
 349      600B1C83 
 350 0c11 8DCCCB0C 		.ascii	"\215\314\313\014\362\016\236\275\202A\242\017\207\376"
 350      F20E9EBD 
 350      8241A20F 
 350      87FE
 351 0c1f 35CC6F60 		.ascii	"5\314o`~\013\363\001\314\233\3346BB/\035\022\236F\206"
 351      7E0BF301 
 351      CC9BDC36 
 351      42422F1D 
 351      129E4686 
 352 0c33 2F0C7543 		.ascii	"/\014uC\011#\372\243\207\344g\007\272\227\033\210>\314"
 352      0923FAA3 
 352      87E46707 
 352      BA971B88 
 352      3ECC
 353 0c45 3898E7A6 		.ascii	"8\230\347\2468hu\314\201\237\346 q\343\250|\356\255"
 353      386875CC 
 353      819FE620 
 353      71E3A87C 
 353      EEAD
 354 0c57 9E3EAFD2 		.ascii	"\236>\257\322\343\031\235\005Z\355R\216\346n\231\241"
 354      E3199D05 
 354      5AED528E 
 354      E66E99A1 
 355 0c67 82B53906 		.ascii	"\202\2659\006\363j\300\226\036\243\3006:\0063{\371\354"
 355      F36AC096 
 355      1EA3C036 
ARM GAS  /tmp/ccLyemJV.s 			page 27


 355      3A06337B 
 355      F9EC
 356 0c79 AFE80B3D 		.ascii	"\257\350\013=h\363'\335\270\024\306\374)\314\237\246"
 356      68F327DD 
 356      B814C6FC 
 356      29CC9FA6 
 357 0c89 BD80635E 		.ascii	"\275\200c^\317\327\257[/\350wL\351(\312\330\3055\263"
 357      CFD7AF5B 
 357      2FE8774C 
 357      E928CAD8 
 357      C535B3
 358 0c9c EDD7B477 		.ascii	"\355\327\264w\355\317\2671\341\370\315\275\253w\311"
 358      EDCFB731 
 358      E1F8CDBD 
 358      AB77C9
 359 0cab 7965C291 		.ascii	"ye\302\221\201a\203\356\030Q\353-\317\236o\323\274\266"
 359      816183EE 
 359      1851EB2D 
 359      CF9E6FD3 
 359      BCB6
 360 0cbd 7DD40E9E 		.ascii	"}\324\016\236\305\313\001\353\344%\202\014v\3061\230"
 360      C5CB01EB 
 360      E425820C 
 360      76C63198 
 361 0ccd 9F31FDD1 		.ascii	"\2371\375\321\237\251\361\354\036|\335p/\276\026x\014"
 361      9FA9F1EC 
 361      1E7CDD70 
 361      2FBE1678 
 361      0C
 362 0cde F3F5B805 		.ascii	"\363\365\270\005:\212\266:\206\371W\230/A[-\303|\271"
 362      3A8AB63A 
 362      86F95798 
 362      2F415B2D 
 362      C37CB9
 363 0cf1 1D8B6D4F 		.ascii	"\035\213mO\277:\010\202\340\366\342\315\241~o\223\274"
 363      BF3A0882 
 363      E0F6E2CD 
 363      A17E6F93 
 363      BC
 364 0d02 B1B87F2B 		.ascii	"\261\270\177+{\261YZ]`\373\363\270\304\371\005d{\277"
 364      7BB1595A 
 364      5D60FBF3 
 364      B8C4F905 
 364      647BBF
 365 0d15 D24DBE8D 		.ascii	"\322M\276\215\373X\347\2546\277\215[\343\326}\033w\374"
 365      FB58E7AC 
 365      36BF8D5B 
 365      E3D67D1B 
 365      77FC
 366 0d27 31BF5C9B 		.ascii	"1\277\\\233\371\313\270\236\374\301_\306]\3137\3742"
 366      F9CBB89E 
 366      FCC15FC6 
 366      5DCB37FC 
 366      32
 367 0d38 AE3FDFF0 		.ascii	"\256?\337\360\313\270\005\303\014\277\214[2L\373e\234"
 367      CBB805C3 
 367      0CBF8C5B 
ARM GAS  /tmp/ccLyemJV.s 			page 28


 367      324CFB65 
 367      9C
 368 0d49 52BD2A5D 		.ascii	"R\275*]\355\241Ti\371<*-\037\317\256u\023Wx\316m\374"
 368      EDA15469 
 368      F93C2A2D 
 368      1FCFAE75 
 368      135778CE 
 369 0d5f C11CB804 		.ascii	"\301\034\270\004\2533a\306\017\346,\275\360M\312\013"
 369      AB3361C6 
 369      0FE62CBD 
 369      F04DCA0B 
 370 0d6f B7A11776 		.ascii	"\267\241\027v\242\377=k\307\267\266\246}K\363\315\031"
 370      A2FF3D6B 
 370      C7B7B6A6 
 370      7D4BF3CD 
 370      19
 371 0d80 16A8CFCE 		.ascii	"\026\250\317\3168\246}\230\326\360\3670\277\227\244"
 371      38A67D98 
 371      D6F0F730 
 371      BF97A4
 372 0d8f D6E4D6AB 		.ascii	"\326\344\326\253g\\k\244\204[\206\342\230?`\263\027"
 372      675C6BA4 
 372      845B86E2 
 372      983F60B3 
 372      17
 373 0da0 D9BB0C49 		.ascii	"\331\273\014I*\004\345\276R\2470I\246\00610C7\205\247"
 373      2A04E5BE 
 373      52A73049 
 373      A6063130 
 373      433785A7 
 374 0db4 7F625E22 		.ascii	"\177b^\"K\266\327\347\317\033\356\226\317\027\031\213"
 374      4BB6D7E7 
 374      CF1BEE96 
 374      CF17198B 
 375 0dc4 6E8A8C1B 		.ascii	"n\212\214\033\335\232\357\275\311\327\327\311\356\304"
 375      DD9AEFBD 
 375      C9D7D7C9 
 375      EEC4
 376 0dd2 7767F296 		.ascii	"wg\362\2266%\007\006\356\262\377u\336\353n\335\327y"
 376      36250706 
 376      EEB2FF75 
 376      DEEB6EDD 
 376      D779
 377 0de4 4498D48D 		.ascii	"D\230\324\215\362\311\267Nm\333\014\325&]\216L\222\273"
 377      F2C9B74E 
 377      6DDB0CD5 
 377      265D8E4C 
 377      92BB
 378 0df6 F3EC2637 		.ascii	"\363\354&7q\207\327\334v4\266\346\337G\252\337\236\357"
 378      7187D7DC 
 378      7634B6E6 
 378      DF47AADF 
 378      9EEF
 379 0e08 4360AA9B 		.ascii	"C`\252\233\356\221\271\302\216\242\261E\322\274\341"
 379      EE91B9C2 
 379      8EA2B145 
 379      D2BCE1
ARM GAS  /tmp/ccLyemJV.s 			page 29


 380 0e17 2C0AC728 		.ascii	",\012\307(\2754>\3241XE\211\236\304\037?\033wH\352\031"
 380      BD343ED4 
 380      31584589 
 380      9EC41F3F 
 380      1B7748EA 
 381 0e2c 1818665F 		.ascii	"\030\030f_E\333\215T\244S\311;6U\322i\255\022E\266\245"
 381      45DB8D54 
 381      A453C93B 
 381      3655D269 
 381      AD1245B6 
 382 0e41 3AD93AF5 		.ascii	":\331:\365\262\35540\177\217\004K\"\237400@>\346'v\345"
 382      B2ED3430 
 382      7F8F044B 
 382      229F3430 
 382      30403EE6 
 383 0e58 985336D9 		.ascii	"\230S6\331\332\343\314R0@\365\335\034Xj\217^\232\275"
 383      DAE3CC52 
 383      3040F5DD 
 383      1C586A8F 
 383      5E9ABD
 384 0e6b 83A5694F 		.ascii	"\203\245iO&.\011\262\241TY>2\222\245Y\272\245\227e\277"
 384      262E09B2 
 384      A154593E 
 384      3292A559 
 384      BAA59765 
 385 0e80 2D59B6A6 		.ascii	"-Y\266\246\275\256\007\201\367\017I\226\375zY\336\036"
 385      BDAE0781 
 385      F70F4996 
 385      FD7A59DE 
 385      1E
 386 0e91 2CCB9664 		.ascii	",\313\226db\375\201.\026\210\336$\037\005\351\034o\203"
 386      62FD812E 
 386      1688DE24 
 386      1F05E91C 
 386      6F83
 387 0ea3 C59AF5B0 		.ascii	"\305\232\365\260\345\340T\036Y\033}\235/\377\321\014"
 387      E5E0541E 
 387      591B7D9D 
 387      2FFFD10C 
 388 0eb3 F67FDCF4 		.ascii	"\366\177\334\364\021\242\316\223\257\031\253y\225\240"
 388      11A2CE93 
 388      AF19AB79 
 388      95A0
 389 0ec1 53F3211B 		.ascii	"S\363!\033jn\226\216\0235\313+\321g\206\263\332n:5\243"
 389      6A6E968E 
 389      1335CB2B 
 389      D16786B3 
 389      DA6E3A35 
 390 0ed6 384AB701 		.ascii	"8J\267\001B\215\260\3111\313\364\335t\324\024a\214\243"
 390      428DB0C9 
 390      31CBF4DD 
 390      74D41461 
 390      8CA3
 391 0ee8 A8593745 		.ascii	"\250Y7E\360\243\206\306\352>`\034E\255,u\312\201\245"
 391      F0A386C6 
 391      EA3E601C 
 391      45AD2C75 
ARM GAS  /tmp/ccLyemJV.s 			page 30


 391      CA81A5
 392 0efb 52F73ACD 		.ascii	"R\367:\315\257\034n\250\3715z\315\277gK\363'T\315\363"
 392      AF1C6EA8 
 392      F9357ACD 
 392      BF674BF3 
 392      2754CDF3 
 393 0f0f EC717D37 		.ascii	"\354q}7+\315\247\015\266\011\371\311\320\315L\363fL"
 393      2BCDA70D 
 393      B609F9C9 
 393      D0CD4CF3 
 393      664C
 394 0f21 2AFAFA8B 		.ascii	"*\372\372\213\241\346/\016A\363\0379\322\274\342-\031"
 394      A1E62F0E 
 394      41F31F39 
 394      D2BCE22D 
 394      19
 395 0f32 2CB1C5D8 		.ascii	",\261\305\330\022\313\364\226H\332\262\304\256\264J"
 395      12CBF496 
 395      48DAB2C4 
 395      AEB44A
 396 0f41 13089CB4 		.ascii	"\023\010\234\264e\211\345\240\014V\346\230gOd\240\207"
 396      6589E5A0 
 396      0C56E698 
 396      674F64A0 
 396      87
 397 0f52 72291DDF 		.ascii	"r)\035\337:\220[\240\022<b\207\240\231\015\315\310)"
 397      3A905BA0 
 397      123C6287 
 397      A0990DCD 
 397      C829
 398 0f64 9AFFDCD0 		.ascii	"\232\377\334\320\206\255\007\025\033\312\246\341\230"
 398      86AD0715 
 398      1BCAA6E1 
 398      98
 399 0f71 6E63652E 		.ascii	"nce.\327+\363\202-e\356I\273\365W\372n\026\312|v\260"
 399      D72BF382 
 399      2D65EE49 
 399      BBF557FA 
 399      6E16CA7C 
 400 0f87 32CDE9D1 		.ascii	"2\315\351\321\312<\236R&\317~k\207\240\2312\315\310"
 400      CA3C9E52 
 400      26CF7E6B 
 400      87A09932 
 400      CDC8
 401 0f99 29CAFCAB 		.ascii	")\312\374\253\2412;"
 401      A1323B
 402 0fa0 0E3A1F10 		.ascii	"\016:\037\020W\354\014\010\235\303\177dl\243\001\375"
 402      57EC0C08 
 402      9DC37F64 
 402      6CA301FD 
 403 0fb0 DC7AD996 		.ascii	"\334z\331\226\215v\244\035\276\007\201/\017Mef\324\024"
 403      8D76A41D 
 403      BE07812F 
 403      0F4D6566 
 403      D414
 404 0fc2 41AF6955 		.ascii	"A\257iU\246\374\273\002\253o\202y\266\005\237\371e\372"
 404      A6FCBB02 
ARM GAS  /tmp/ccLyemJV.s 			page 31


 404      AB6F8279 
 404      B6059FF9 
 404      65FA
 405 0fd4 6C174F51 		.ascii	"l\027OQ\233l\177\021M\356\232pg\374\024\375\331\234"
 405      9B6C7F11 
 405      4DEE9A70 
 405      67FC14FD 
 405      D99C
 406 0fe6 6E4626AB 		.ascii	"nF&\253\0303,\311\223k\322k\273E\257\246t/\306\023\232"
 406      18332CC9 
 406      936BD26B 
 406      BB45AFA6 
 406      742FC613 
 407 0ffb 5057573D 		.ascii	"PWW=\242"
 407      A2
 408 1000 24169D23 		.ascii	"$\026\235#\304\342\201\330\254\232\242\3213\353G\205"
 408      C4E281D8 
 408      AC9AA2D1 
 408      33EB4785 
 409 1010 994981AA 		.ascii	"\231I\201\252\272\032!\020\256\213<\021\210\010s\002"
 409      BA1A2110 
 409      AE8B3C11 
 409      88087302 
 410 1020 E1AAE8CC 		.ascii	"\341\252\350\314h]< \306\032j\177\035\200BL\014\324"
 410      685D3C20 
 410      C61A6A7F 
 410      1D80424C 
 410      0CD4
 411 1032 D7C5C478 		.ascii	"\327\305\304x`|pJ\361\224FhYS\037\255& \217\025\027"
 411      607C704A 
 411      F1944668 
 411      59531FAD 
 411      26208F15 
 412 1047 4373F189 		.ascii	"Cs\361\211z!>\252\212\361\324\304g\207\304\254\307\246"
 412      7A213EAA 
 412      8AF1D4C4 
 412      6787C4AC 
 412      C7A6
 413 1059 4EF71733 		.ascii	"N\367\0273\367\004\032\342\261\000\037\253\271\257\266"
 413      F7041AE2 
 413      B1001FAB 
 413      B9AFB6
 414 1068 AE56B84F 		.ascii	"\256V\270O\340gF\003\321\332puCD\010\304\305H\264V\204"
 414      E0674603 
 414      D1DA7075 
 414      434408C4 
 414      C548B456 
 415 107d 1ED97019 		.ascii	"\036\331p\031]\024\022\307X4\256\341\201\241Z!\020\212"
 415      5D1412C7 
 415      5834AEE1 
 415      81A15A21 
 415      108A
 416 108f 08B3F886 		.ascii	"\010\263\370\206j1\244\222\363\205BJ\367AB\0012\026"
 416      6A31A492 
 416      F385424A 
 416      F7414201 
 416      3216
ARM GAS  /tmp/ccLyemJV.s 			page 32


 417 10a1 43624926 		.ascii	"CbI&\341\252\370jE\272\212\312)\243\213\002\223'\227"
 417      E1AAF86A 
 417      45BA8ACA 
 417      29A38B02 
 417      932797
 418 10b4 042ACACB 		.ascii	"\004*\312\313\346\024\006\342\365\321Puu\204P\202\012"
 418      E61406E2 
 418      F5D15075 
 418      75845082 
 418      0A
 419 10c5 9944911D 		.ascii	"\231D\221\035\270\224\230\365Q\350\234\003\227\270\310"
 419      B89498F5 
 419      51E89C03 
 419      97B8C8
 420 10d4 8B4248CC 		.ascii	"\213BH\314\001\234\320\364\251eS\313*\275\244XQ9\255"
 420      019CD0F4 
 420      A96553CB 
 420      2ABDA458 
 420      5139AD
 421 10e7 9C608782 		.ascii	"\234`\207\202\245\343K~\205\177\035_\\Y\366o\245y\244"
 421      A5E34B7E 
 421      857F1D5F 
 421      5C59F66F 
 421      A579A4
 422 10fa 583C6D4A 		.ascii	"X<mJ\371\344\322\312R\017\366\276\015`\302|u\365L>\374"
 422      F9E4D2CA 
 422      520FF6BE 
 422      0D60C27C 
 422      75F54C3E 
 423 110f 6B50B250 		.ascii	"kP\262P\033\011\205g\226\016E\272\307\312\313\246\315"
 423      1B098567 
 423      960E45BA 
 423      C7CACBA6 
 423      CD
 424 1120 290AD4F3 		.ascii	")\012\324\363\325\212xyq\261\006\3248\273>Z\027\022"
 424      D58A7879 
 424      71B106D4 
 424      38BB3E5A 
 424      1712
 425 1132 BD0D8A52 		.ascii	"\275\015\212RsB!\265\350\2312\255\2444\2305\255\362"
 425      734221B5 
 425      E89932AD 
 425      A4349835 
 425      ADF2
 426 1144 57E5A5C1 		.ascii	"W\345\245\301\354i\025\345\245\245%AO\371\364\362\222"
 426      EC6915E5 
 426      A5A52541 
 426      4FF9F4F2 
 426      92
 427 1155 A0AB0CD2 		.ascii	"\240\253\014\322\264\222 \373K\354Xx\177\252#)\272\342"
 427      B49220FB 
 427      4BEC5878 
 427      7FAA2329 
 427      BAE2
 428 1167 82E80957 		.ascii	"\202\350\011W\013|\214\235\344\236P\021\014\272'\027"
 428      0B7C8C9D 
 428      E49E5011 
ARM GAS  /tmp/ccLyemJV.s 			page 33


 428      0CBA2717 
 429 1177 FF6BD03D 		.ascii	"\377k\320=~bp2\311&\271&\004\2039\321:\302a4\002R\305"
 429      7E627032 
 429      C926B926 
 429      048339D1 
 429      3AC26134 
 430 118e E3A4E881 		.ascii	"\343\244\350\201\013\037q\205c\205D9\305u\265\263\242"
 430      0B1F7185 
 430      63854439 
 430      C575B5B3 
 430      A2
 431 119f B3B3C278 		.ascii	"\263\263\302x\031k\303WU\365\207\253\342O\304Ug\361"
 431      196BC357 
 431      55F587AB 
 431      E24FC455 
 431      67F1
 432 11b1 8A553181 		.ascii	"\212U1\201\007\032\276pUH.\217q\206\025\256\"\272\312"
 432      071ABE70 
 432      55482E8F 
 432      718615AE 
 432      22BACA
 433 11c4 AA0FD50A 		.ascii	"\252\017\325\012\215\"\\\352c\302\234l\261>F\224\206"
 433      8D225CEA 
 433      63C29C6C 
 433      B13E4694 
 433      86
 434 11d5 B7D1BA6C 		.ascii	"\267\321\272l`R\204\277>\350xDU\205\353b\002\300\347"
 434      605284BF 
 434      3EE87844 
 434      5585EB62 
 434      02C0E7
 435 11e8 926AE2D6 		.ascii	"\222j\342\326a\261\361\341\241\241\204\346<PC\004\216"
 435      61B1F1E1 
 435      A1A184E6 
 435      3C504304 
 435      8E
 436 11f9 09B36140 		.ascii	"\011\263a@\021\033\024\336\017\351\001Hc!=\350\212\027"
 436      111B14DE 
 436      0FE90148 
 436      63213DE8 
 436      8A17
 437 120b 15402A84 		.ascii	"\025@*\204T\004i4\2441\220~\001\011\332\025A\273\"h"
 437      54046934 
 437      A431907E 
 437      0109DA15 
 437      41BB2268 
 438 121f 5704ED46 		.ascii	"W\004\355FC\273\321\205\\l\014\027\373\005\027\273\237"
 438      43BBD185 
 438      5C6C0C17 
 438      FB0517BB 
 438      9F
 439 1230 8B3DC0C5 		.ascii	"\213=\300\305\306r\261\007]\261\302\002H\205\\u\014"
 439      C672B107 
 439      5DB1C202 
 439      48855C75 
 439      0C
 440 1241 2EA33DF5 		.ascii	".\243=\365!\3406\233(f\256\020\203k]uD\210\271\303U"
ARM GAS  /tmp/ccLyemJV.s 			page 34


 440      21E0369B 
 440      2866AE10 
 440      836B5D75 
 440      4488B9C3 
 441 1256 7C8C688B 		.ascii	"|\214h\213\257\021\274\2422\000\262\211c\214\005#\310"
 441      AF11BCA2 
 441      3200B289 
 441      638C0523 
 441      C8
 442 1267 2E022568 		.ascii	".\002%h\216\177\313\026k\352\"\002\336\317\252\346g"
 442      8E7FCB16 
 442      6BEA2202 
 442      DECFAAE6 
 442      67
 443 1278 C7B3C598 		.ascii	"\307\263\305\2300+\216\232%\205\254X\344\011\210.^\241"
 443      302B8E9A 
 443      2585AC58 
 443      E409882E 
 443      5EA1
 444 128a 312A8242 		.ascii	"1*\202B\204\254\271b\335\314\377\250\317\025\346\010"
 444      84ACB962 
 444      DDCCFFA8 
 444      CF15E608 
 445 129a B5620D1F 		.ascii	"\265b\015\037\307!1\227\024\\\365\241\206|\331\300\361"
 445      C7213197 
 445      145CF5A1 
 445      867CD9C0 
 445      F1
 446 12ab 50358CBC 		.ascii	"P5\214\274\2208,er\271\306W\037\232\313G\305h\355\354"
 446      90382C65 
 446      72B9C657 
 446      1F9ACB47 
 446      C568EDEC 
 447 12bf 616AF56F 		.ascii	"aj\365o\032\204\006\240>\234j\211U9\365! \213E\017\026"
 447      1A8406A0 
 447      3E9C6A89 
 447      5539F521 
 447      208B450F 
 448 12d4 A142A887 		.ascii	"\241B\250\207\301\007\235=5\015`\354\321\216\274\250"
 448      C1079D3D 
 448      350D60EC 
 448      D18EBCA8 
 449 12e4 466C24C1 		.ascii	"Fl$\301\251FF\207k\335\334Z\320\031\"\201\0105\350\\"
 449      A9464687 
 449      6BDDDC5A 
 449      D0192281 
 449      0835E85C 
 450 12f8 C01FB423 		.ascii	"\300\037\264#\234\346\020\351\371j\364-\250\254\207"
 450      9CE610E9 
 450      F96AF42D 
 450      A8AC87
 451 1307 00FE8023 		.ascii	"\000\376\200#z\2120@s\2042\000@\233BL\250\015\203\264"
 451      7A8A3040 
 451      73843200 
 451      409B424C 
 451      A80D83B4 
 452 131b 5972D543 		.ascii	"Yr\325C\231\020\201\245@\361\224\212\262\012\010\"\001"
ARM GAS  /tmp/ccLyemJV.s 			page 35


 452      991081A5 
 452      40F1948A 
 452      B20A0822 
 452      01
 453 132c 8C15B3C6 		.ascii	"\214\025\263\306\024\0246\206\211\277\222@U\011c\254"
 453      14143686 
 453      89BF9240 
 453      550963AC 
 454 133c 4498E52A 		.ascii	"D\230\345*\016\026B*\342*\202\034\204\207\342`qy0+\370"
 454      0E16422A 
 454      E22A821C 
 454      8487E260 
 454      7179302B 
 455 1351 385C8359 		.ascii	"8\\\203Y\225x\311.+\252(\236\370X\320\003\327\362\240"
 455      9578C92E 
 455      2BAA289E 
 455      F858D003 
 455      D7F2A0
 456 1364 0B22DA44 		.ascii	"\013\"\332D\247\001\014\363\211c\032\033eFB\221\032"
 456      A7010CF3 
 456      89631A1B 
 456      65464291 
 456      1A
 457 1375 9E085732 		.ascii	"\236\010W2e|\250\002\\\206\257Q\271\341\212\203\356"
 457      657CA802 
 457      5C86AF51 
 457      B9E18A83 
 457      EE
 458 1386 A9259541 		.ascii	"\251%\225AW\371\370\240{J\001\311\012\307\007]\023\201"
 458      57F9F8A0 
 458      7B4A01C9 
 458      0AC7075D 
 458      1381
 459 1398 99383674 		.ascii	"\23186tGg\205cY\321xUt\226\350\213\013\325\263\242\265"
 459      47678563 
 459      59D17855 
 459      7496E88B 
 459      0BD5B3A2 
 460 13ad 11A1316B 		.ascii	"\021\2411k\216\020\026\353b#R\350!\2715\004A\270\211"
 460      8E1016EB 
 460      622352E8 
 460      21B93504 
 460      41B889
 461 13c0 35925C6C 		.ascii	"5\222\\l\364\305\032\341J<\326'\252\245\333\344\031"
 461      F4C51AE1 
 461      4A3CD627 
 461      AAA5DBE4 
 461      19
 462 13d1 47F1746F 		.ascii	"G\361to\331T9\224\273\313J&\227z+&M\257,\231\366\313"
 462      D9543994 
 462      BBCB4A26 
 462      977A2B26 
 462      4DAF2C99 
 463 13e7 A9D9958F 		.ascii	"\251\331\225\217\207H0\315\016\312Wo\245R\310\221{G"
 463      874830CD 
 463      0ECA576F 
 463      A552C891 
ARM GAS  /tmp/ccLyemJV.s 			page 36


 463      7B47
 464 13f9 6BA3A20B 		.ascii	"k\243\242\013\212Y\021\234n\224\332\312\307K\247rB\355"
 464      8A59119C 
 464      6E94DACA 
 464      C74BA772 
 464      42ED
 465 140b 0FE4BB20 		.ascii	"\017\344\273 \334\215\252\347c\342\250\202\234tM\276"
 465      DC8DAAE7 
 465      63E2A882 
 465      9C744DBE 
 466 141b 5C540979 		.ascii	"\\T\011y\343U\015b\004\274k\204\\O\014\035\024f\203"
 466      E3550D62 
 466      04BC6B84 
 466      5C4F0C1D 
 466      146683
 467 142e 4FC1D0E4 		.ascii	"O\301\320\344#\221\230;\302\213\374\355\362\037\347"
 467      2391983B 
 467      C28BFCED 
 467      F21FE7
 468 143d C6A2A2A0 		.ascii	"\306\242\242\240\376\3253\207\257n\020\206\245\273M"
 468      FED53387 
 468      AF6E1086 
 468      A5BB4D
 469 144c 6888C198 		.ascii	"h\210\301\230\001\271b\342x\350\350\011\3275\324\212"
 469      01B962E2 
 469      78E8E809 
 469      D735D48A 
 470 145c C3A99ED8 		.ascii	"\303\251\236\330@\241\037\207\2611\341\011Qp\317\204"
 470      40A11F87 
 470      B131E109 
 470      5170CF84 
 471 146c ECFF00BE 		.ascii	"\354\377\000\276\313\005\235"
 471      CB059D
 472              		.text
 473              		.section	.gnu.lto_.symtab.2c208c4382682be9,"",%progbits
 474 0000 72666D32 		.ascii	"rfm23_init\000\000\000\000\000\000\000\000\000\000\000"
 474      335F696E 
 474      69740000 
 474      00000000 
 474      00000000 
 475 0015 00A40000 		.ascii	"\000\244\000\000\000rfm23_TXEN\000\000\000\000\000\000"
 475      0072666D 
 475      32335F54 
 475      58454E00 
 475      00000000 
 476 002a 00000000 		.ascii	"\000\000\000\000\000\000.\002\000\000rfm23_RXEN\000"
 476      00002E02 
 476      00007266 
 476      6D32335F 
 476      5258454E 
 477 003f 00000000 		.ascii	"\000\000\000\000\000\000\000\000\000\000\000=\002\000"
 477      00000000 
 477      0000003D 
 477      0200
 478 004d 0072666D 		.ascii	"\000rfm23_SHUTDOWN\000\000\000\000\000\000\000\000\000"
 478      32335F53 
 478      48555444 
ARM GAS  /tmp/ccLyemJV.s 			page 37


 478      4F574E00 
 478      00000000 
 479 0065 00000042 		.ascii	"\000\000\000B\002\000\000rfm23_readRegister\000\000"
 479      02000072 
 479      666D3233 
 479      5F726561 
 479      64526567 
 480 0080 00000000 		.ascii	"\000\000\000\000\000\000\000\000\000\000H\002\000\000"
 480      00000000 
 480      00004802 
 480      0000
 481 008e 72666D32 		.ascii	"rfm23_writeRegister\000\000\000\000\000\000\000\000"
 481      335F7772 
 481      69746552 
 481      65676973 
 481      74657200 
 482 00a9 00000000 		.ascii	"\000\000\000\000U\002\000\000rfm23_readBurst\000\000"
 482      55020000 
 482      72666D32 
 482      335F7265 
 482      61644275 
 483 00c2 00000000 		.ascii	"\000\000\000\000\000\000\000\000\000\000`\002\000\000"
 483      00000000 
 483      00006002 
 483      0000
 484 00d0 72666D32 		.ascii	"rfm23_writeBurst\000\000\000\000\000\000\000\000\000"
 484      335F7772 
 484      69746542 
 484      75727374 
 484      00000000 
 485 00e9 0000006E 		.ascii	"\000\000\000n\002\000\000rfm23_sendByte\000\000\000"
 485      02000072 
 485      666D3233 
 485      5F73656E 
 485      64427974 
 486 0101 00000000 		.ascii	"\000\000\000\000\000\000\000\000\000u\002\000\000"
 486      00000000 
 486      00750200 
 486      00
 487              		.text
 488              		.section	.gnu.lto_.opts,"",%progbits
 489 0000 272D6D63 		.ascii	"'-mcpu=cortex-m4' '-mfloat-abi=hard' '-mfpu=fpv4-sp"
 489      70753D63 
 489      6F727465 
 489      782D6D34 
 489      2720272D 
 490 0033 2D643136 		.ascii	"-d16' '-mno-thumb-interwork' '-mthumb' '-O2' '-fomi"
 490      2720272D 
 490      6D6E6F2D 
 490      7468756D 
 490      622D696E 
 491 0066 742D6672 		.ascii	"t-frame-pointer' '-falign-functions=16' '-ffunction"
 491      616D652D 
 491      706F696E 
 491      74657227 
 491      20272D66 
 492 0099 2D736563 		.ascii	"-sections' '-fdata-sections' '-fno-common' '-flto' "
ARM GAS  /tmp/ccLyemJV.s 			page 38


 492      74696F6E 
 492      73272027 
 492      2D666461 
 492      74612D73 
 493 00cc 272D6673 		.ascii	"'-fsingle-precision-constant'\000"
 493      696E676C 
 493      652D7072 
 493      65636973 
 493      696F6E2D 
 494              		.text
 495              		.section	.text.rfm23_init,"ax",%progbits
 496              		.align	2
 497              		.p2align 4,,15
 498              		.global	rfm23_init
 499              		.thumb
 500              		.thumb_func
 501              		.type	rfm23_init, %function
 502              	rfm23_init:
 503              		@ args = 0, pretend = 0, frame = 0
 504              		@ frame_needed = 0, uses_anonymous_args = 0
 505              		@ link register save eliminated.
 506 0000 0160     		str	r1, [r0]
 507 0002 0020     		movs	r0, #0
 508 0004 7047     		bx	lr
 509              		.size	rfm23_init, .-rfm23_init
 510 0006 00BFAFF3 		.section	.text.rfm23_TXEN,"ax",%progbits
 510      0080AFF3 
 510      0080
 511              		.align	2
 512              		.p2align 4,,15
 513              		.global	rfm23_TXEN
 514              		.thumb
 515              		.thumb_func
 516              		.type	rfm23_TXEN, %function
 517              	rfm23_TXEN:
 518              		@ args = 0, pretend = 0, frame = 0
 519              		@ frame_needed = 0, uses_anonymous_args = 0
 520              		@ link register save eliminated.
 521 0000 044B     		ldr	r3, .L7
 522 0002 11B9     		cbnz	r1, .L6
 523 0004 0222     		movs	r2, #2
 524 0006 1A83     		strh	r2, [r3, #24]	@ movhi
 525 0008 7047     		bx	lr
 526              	.L6:
 527 000a 0121     		movs	r1, #1
 528 000c 0222     		movs	r2, #2
 529 000e 1983     		strh	r1, [r3, #24]	@ movhi
 530 0010 5A83     		strh	r2, [r3, #26]	@ movhi
 531 0012 7047     		bx	lr
 532              	.L8:
 533              		.align	2
 534              	.L7:
 535 0014 00040240 		.word	1073873920
 536              		.size	rfm23_TXEN, .-rfm23_TXEN
 537 0018 AFF30080 		.section	.text.rfm23_RXEN,"ax",%progbits
 537      AFF30080 
 538              		.align	2
ARM GAS  /tmp/ccLyemJV.s 			page 39


 539              		.p2align 4,,15
 540              		.global	rfm23_RXEN
 541              		.thumb
 542              		.thumb_func
 543              		.type	rfm23_RXEN, %function
 544              	rfm23_RXEN:
 545              		@ args = 0, pretend = 0, frame = 0
 546              		@ frame_needed = 0, uses_anonymous_args = 0
 547              		@ link register save eliminated.
 548 0000 044B     		ldr	r3, .L13
 549 0002 11B9     		cbnz	r1, .L12
 550 0004 0122     		movs	r2, #1
 551 0006 1A83     		strh	r2, [r3, #24]	@ movhi
 552 0008 7047     		bx	lr
 553              	.L12:
 554 000a 0221     		movs	r1, #2
 555 000c 0122     		movs	r2, #1
 556 000e 1983     		strh	r1, [r3, #24]	@ movhi
 557 0010 5A83     		strh	r2, [r3, #26]	@ movhi
 558 0012 7047     		bx	lr
 559              	.L14:
 560              		.align	2
 561              	.L13:
 562 0014 00040240 		.word	1073873920
 563              		.size	rfm23_RXEN, .-rfm23_RXEN
 564 0018 AFF30080 		.section	.text.rfm23_SHUTDOWN,"ax",%progbits
 564      AFF30080 
 565              		.align	2
 566              		.p2align 4,,15
 567              		.global	rfm23_SHUTDOWN
 568              		.thumb
 569              		.thumb_func
 570              		.type	rfm23_SHUTDOWN, %function
 571              	rfm23_SHUTDOWN:
 572              		@ args = 0, pretend = 0, frame = 0
 573              		@ frame_needed = 0, uses_anonymous_args = 0
 574              		@ link register save eliminated.
 575 0000 034B     		ldr	r3, .L19
 576 0002 4FF48062 		mov	r2, #1024
 577 0006 09B9     		cbnz	r1, .L18
 578 0008 5A83     		strh	r2, [r3, #26]	@ movhi
 579 000a 7047     		bx	lr
 580              	.L18:
 581 000c 1A83     		strh	r2, [r3, #24]	@ movhi
 582 000e 7047     		bx	lr
 583              	.L20:
 584              		.align	2
 585              	.L19:
 586 0010 00040240 		.word	1073873920
 587              		.size	rfm23_SHUTDOWN, .-rfm23_SHUTDOWN
 588 0014 AFF30080 		.section	.text.rfm23_readRegister,"ax",%progbits
 588      AFF30080 
 588      AFF30080 
 589              		.align	2
 590              		.p2align 4,,15
 591              		.global	rfm23_readRegister
 592              		.thumb
ARM GAS  /tmp/ccLyemJV.s 			page 40


 593              		.thumb_func
 594              		.type	rfm23_readRegister, %function
 595              	rfm23_readRegister:
 596              		@ args = 0, pretend = 0, frame = 0
 597              		@ frame_needed = 0, uses_anonymous_args = 0
 598              		@ link register save eliminated.
 599 0000 0020     		movs	r0, #0
 600 0002 7047     		bx	lr
 601              		.size	rfm23_readRegister, .-rfm23_readRegister
 602 0004 AFF30080 		.section	.text.rfm23_writeRegister,"ax",%progbits
 602      AFF30080 
 602      AFF30080 
 603              		.align	2
 604              		.p2align 4,,15
 605              		.global	rfm23_writeRegister
 606              		.thumb
 607              		.thumb_func
 608              		.type	rfm23_writeRegister, %function
 609              	rfm23_writeRegister:
 610              		@ args = 0, pretend = 0, frame = 0
 611              		@ frame_needed = 0, uses_anonymous_args = 0
 612              		@ link register save eliminated.
 613 0000 0020     		movs	r0, #0
 614 0002 7047     		bx	lr
 615              		.size	rfm23_writeRegister, .-rfm23_writeRegister
 616 0004 AFF30080 		.section	.text.rfm23_readBurst,"ax",%progbits
 616      AFF30080 
 616      AFF30080 
 617              		.align	2
 618              		.p2align 4,,15
 619              		.global	rfm23_readBurst
 620              		.thumb
 621              		.thumb_func
 622              		.type	rfm23_readBurst, %function
 623              	rfm23_readBurst:
 624              		@ args = 0, pretend = 0, frame = 0
 625              		@ frame_needed = 0, uses_anonymous_args = 0
 626              		@ link register save eliminated.
 627 0000 0020     		movs	r0, #0
 628 0002 7047     		bx	lr
 629              		.size	rfm23_readBurst, .-rfm23_readBurst
 630 0004 AFF30080 		.section	.text.rfm23_writeBurst,"ax",%progbits
 630      AFF30080 
 630      AFF30080 
 631              		.align	2
 632              		.p2align 4,,15
 633              		.global	rfm23_writeBurst
 634              		.thumb
 635              		.thumb_func
 636              		.type	rfm23_writeBurst, %function
 637              	rfm23_writeBurst:
 638              		@ args = 0, pretend = 0, frame = 0
 639              		@ frame_needed = 0, uses_anonymous_args = 0
 640              		@ link register save eliminated.
 641 0000 0020     		movs	r0, #0
 642 0002 7047     		bx	lr
 643              		.size	rfm23_writeBurst, .-rfm23_writeBurst
ARM GAS  /tmp/ccLyemJV.s 			page 41


 644 0004 AFF30080 		.section	.text.rfm23_sendByte,"ax",%progbits
 644      AFF30080 
 644      AFF30080 
 645              		.align	2
 646              		.p2align 4,,15
 647              		.global	rfm23_sendByte
 648              		.thumb
 649              		.thumb_func
 650              		.type	rfm23_sendByte, %function
 651              	rfm23_sendByte:
 652              		@ args = 0, pretend = 0, frame = 0
 653              		@ frame_needed = 0, uses_anonymous_args = 0
 654              		@ link register save eliminated.
 655 0000 0020     		movs	r0, #0
 656 0002 7047     		bx	lr
 657              		.size	rfm23_sendByte, .-rfm23_sendByte
 658              		.comm	__gnu_lto_v1,1,1
 659 0004 AFF30080 		.ident	"GCC: (GNU Tools for ARM Embedded Processors) 4.8.4 20140526 (release) [ARM/embedded-4_8-br
 659      AFF30080 
 659      AFF30080 
ARM GAS  /tmp/ccLyemJV.s 			page 42

