ARM GAS  /tmp/ccfrJ99H.s 			page 1


   1              		.syntax unified
   2              		.cpu cortex-m4
   3              		.eabi_attribute 27, 3
   4              		.eabi_attribute 28, 1
   5              		.fpu fpv4-sp-d16
   6              		.eabi_attribute 20, 1
   7              		.eabi_attribute 21, 1
   8              		.eabi_attribute 23, 3
   9              		.eabi_attribute 24, 1
  10              		.eabi_attribute 25, 1
  11              		.eabi_attribute 26, 1
  12              		.eabi_attribute 30, 2
  13              		.eabi_attribute 34, 1
  14              		.eabi_attribute 18, 4
  15              		.thumb
  16              		.file	"rtd.c"
  17              		.section	.gnu.lto_.jmpfuncs.1ebe0a26bbfa27bb,"",%progbits
  18 0000 789C6362 		.ascii	"x\234cb`b\300\0068\24043\003###\023#\003\000\001s\000"
  18      6062C006 
  18      38A03433 
  18      03232323 
  18      13230300 
  19 0017 16       		.ascii	"\026"
  20              		.text
  21              		.section	.gnu.lto_.inline.1ebe0a26bbfa27bb,"",%progbits
  22 0000 789C6362 		.ascii	"x\234cb`b\300\006\"\24043\003\003+\013##\003#\204\315"
  22      6062C006 
  22      22A03433 
  22      03032B0B 
  22      23230323 
  23 0016 C0B6409E 		.ascii	"\300\266@\236\211\201e\201<\013H\222\221\201K\005]\216"
  23      89816581 
  23      3C0B4892 
  23      91814B05 
  23      5D8E
  24 0028 6FC16416 		.ascii	"o\301d\026\260$\023\003\217\032\272\244\320\201M\020"
  24      B0241303 
  24      8F1ABAA4 
  24      D0814D10 
  25 0038 4906000E 		.ascii	"I\006\000\016\235\006\317"
  25      9D06CF
  26              		.text
  27              		.section	.gnu.lto_.pureconst.1ebe0a26bbfa27bb,"",%progbits
  28 0000 789C6362 		.ascii	"x\234cb`b`g\200\000f\006\006F \027\000\000\341\000\022"
  28      60626067 
  28      80006606 
  28      06462017 
  28      0000E100 
  29              		.text
  30              		.section	.gnu.lto_RTD_rawToV.1ebe0a26bbfa27bb,"",%progbits
  31 0000 789C6362 		.ascii	"x\234cb`b@\007\222@\274\017\210\005\200\230\221\231"
  31      60624007 
  31      9240BC0F 
  31      88058098 
  31      9199
  32 0012 819169C2 		.ascii	"\201\221i\3029\006\206F\016&FF\020\203\201\221\241\236"
  32      39068646 
ARM GAS  /tmp/ccfrJ99H.s 			page 2


  32      0E264646 
  32      10838191 
  32      A19E
  33 0024 89B13E92 		.ascii	"\211\261>\222\021\254v=\323\201\007\377\377\257\333"
  33      11AC763D 
  33      D38107FF 
  33      FFAFDB
  34 0033 D4728B91 		.ascii	"\324r\213\221\215\2211\227\021h\\&#\0033\220`d\001\021"
  34      8D913197 
  34      11685C26 
  34      23033390 
  34      60640111 
  35 0047 4025AC0C 		.ascii	"@%\254\014-\015\015\023\024\030\030\222\301ZB\200$\310"
  35      2D0D0D13 
  35      14181892 
  35      C15A4280 
  35      24C8
  36 0059 9C504626 		.ascii	"\234PF&\020\315|\226\241\351]\363\353\027\214\211\214"
  36      10CD7C96 
  36      A1E95DF3 
  36      EB178C89 
  36      8C
  37 006a 0B195919 		.ascii	"\013\031Y\031\322\031\231\322A\272\200\242+\230aB\314"
  37      D21999D2 
  37      41BA80A2 
  37      2B986142 
  37      CC
  38 007b 40519050 		.ascii	"@Q\220PsW3\027L\214\005(,\3050\263\241\243a\302\206"
  38      73573317 
  38      4C8C0528 
  38      2CC530B3 
  38      A1A361C2 
  39 0090 FFFFFF03 		.ascii	"\377\377\377\003\2654\200\300\20333/3B\354\275\310\000"
  39      B53480C0 
  39      8333332F 
  39      3342ECBD 
  39      C800
  40 00a2 379305E2 		.ascii	"7\223\005\342\261\020\2408\320J\220\217\371\\\2122\313"
  40      B110A038 
  40      D04A908F 
  40      F95C8A32 
  40      CB
  41 00b3 528B8AF5 		.ascii	"R\213\212\365\213JR\364\222\031\000\317\2158n"
  41      8B4A52F4 
  41      921900CF 
  41      8D386E
  42              		.text
  43              		.section	.gnu.lto_RTD_vToTemp.1ebe0a26bbfa27bb,"",%progbits
  44 0000 789C5DD2 		.ascii	"x\234]\322\277K\303@\024\007\360\367\275$m\350 u\021"
  44      BF4BC340 
  44      1407F0F7 
  44      BD246DE8 
  44      207511
  45 0013 1584E2E4 		.ascii	"\025\204\342\344\244\203\377\202\177B\005\035kkK\006"
  45      A483FF82 
  45      7F42051D 
  45      6B6B4B06 
ARM GAS  /tmp/ccfrJ99H.s 			page 3


  46 0023 97281D5C 		.ascii	"\227(\035\\z\032E\253\016\301\255\203\320\"\202\233"
  46      7A1A45AB 
  46      0EC1AD83 
  46      D022829B 
  47 0033 83838B43 		.ascii	"\203\203\213CG\007\025\212\377@\235\374\017DP\214\357"
  47      4707158A 
  47      FF409DFC 
  47      0F44508C 
  47      EF
  48 0044 35770DF6 		.ascii	"5w\015\366A\336\345\340s\337\273\374P\244h\262\346\370"
  48      41DEE5E0 
  48      73DFBBFC 
  48      50A468B2 
  48      E6F8
  49 0056 FA02D10C 		.ascii	"\372\002\321\014\217p\010*~%:\360\025 7\004j)\2646!"
  49      8F70082A 
  49      7E253AF0 
  49      15203704 
  49      6A29B436 
  50 006b 148BD4D3 		.ascii	"\024\213\324\323:\036\036\237_\254\352\356a\254\177"
  50      3A1E1E9F 
  50      5FACEAEE 
  50      61AC7F
  51 007a 93040138 		.ascii	"\223\004\0018t\032T\005m\360\004\245\321\240\334\377"
  51      741A5405 
  51      6DF004A5 
  51      D1A0DCFF 
  52 008a BBDCA9FE 		.ascii	"\273\334\251\3760I\036o\342\205\002\260#Kx\235C\025"
  52      30491E6F 
  52      E28502B0 
  52      234B789D 
  52      4315
  53 009c F438D495 		.ascii	"\3648\324\225\211'-'-/\315\227\306\345\321\021oYJ!\311"
  53      89272D27 
  53      2D2FCD97 
  53      C6E5D111 
  53      6F594A21 
  54 00b1 2E5C65EE 		.ascii	".\\e\356r\272u(\031\235\027\212\332\321\375@Up\015\217"
  54      72BA7528 
  54      199D178A 
  54      DAD1FD40 
  54      55700D8F 
  55 00c5 1A500D60 		.ascii	"\032P\015`\236:\372T\307E\"-5|\356\274!\215d}\026mY"
  55      9E3AFA54 
  55      C745222D 
  55      357CEEBC 
  55      218D647D 
  56 00dc EB303776 		.ascii	"\35307v\326X\256nf\257\242\207w\327j\227\027\030\275"
  56      D658AE6E 
  56      66AFA287 
  56      77D76A97 
  56      1718BD
  57 00ef 94E9A74C 		.ascii	"\224\351\247L\267\243OX\354\245\322\036A\177\177\234"
  57      B7A34F58 
  57      ECA5D21E 
  57      417F7F9C 
  58 00ff 8C20C798 		.ascii	"\214 \307\230\344}Ks&\324\317B\265\261\236\315\035?"
ARM GAS  /tmp/ccfrJ99H.s 			page 4


  58      E47D4B73 
  58      26D4CF42 
  58      B5B19ECD 
  58      1D3F
  59 0111 5E3EF3C5 		.ascii	"^>\363\305Io\202\013\326\372\314\215\355'\374\271\254"
  59      496F820B 
  59      D6FACC8D 
  59      ED27FCB9 
  59      AC
  60 0122 BFBCFD31 		.ascii	"\277\274\3751~@\343\003\373\351\307*\003\362Z\345_\231"
  60      7E40E303 
  60      FBE9C72A 
  60      03F25AE5 
  60      5F99
  61 0134 5A0B83E6 		.ascii	"Z\013\203\346v\270\273\022\356\325\226\253\3445kA\275"
  61      76B8BB12 
  61      EED596AB 
  61      E4356B41 
  61      BD
  62 0145 FE07AE6F 		.ascii	"\376\007\256o\220\246"
  62      90A6
  63              		.text
  64              		.section	.gnu.lto_RTD_rawToTemp.1ebe0a26bbfa27bb,"",%progbits
  65 0000 789C6D92 		.ascii	"x\234m\2221K\303@\024\307\337\273$m\232V\251\213\250"
  65      314BC340 
  65      14C7DFBB 
  65      246D9A56 
  65      A98BA8
  66 0013 53711027 		.ascii	"Sq\020'\035\374\012n\256\025t\214\255-\031\\\252t\350"
  66      1DFC0A6E 
  66      AE15748C 
  66      AD2D195C 
  66      AA74E8
  67 0026 D26BA3A8 		.ascii	"\322k\243\250\325!\270u\020R\024\251 (8\270vtP\241\370"
  67      D521B875 
  67      105214A9 
  67      202838B8 
  67      767450A1 
  68 003b 05EAA420 		.ascii	"\005\352\244 8\272(\306w\315\235i\213\017\362\277\273"
  68      38BA28C6 
  68      77CD9D69 
  68      8B0FF2BF 
  68      BB
  69 004c C7EFFEEF 		.ascii	"\307\357\376\357\345\356\0300\030\215i\372*\224\236"
  69      E5EE1830 
  69      188D69FA 
  69      2A949E
  70 005b A4113540 		.ascii	"\244\0215@\346=\001\324L\206(&\200PeX]G\201\342,\264"
  70      E63D01D4 
  70      4C862826 
  70      80506558 
  70      5D4781E2 
  71 0071 38F77A7B 		.ascii	"8\367z{G\307K\334\257{\374'\010\320A2\235@\310!\254"
  71      47C74BDC 
  71      AF7BFC27 
  71      08D04132 
  71      9D40C821 
ARM GAS  /tmp/ccfrJ99H.s 			page 5


  72 0086 D10233FD 		.ascii	"\321\0023\375\201\351\303U\256Y\247\027\004W\227\336"
  72      81E9C355 
  72      AE59A717 
  72      045797DE 
  73 0096 DC18E216 		.ascii	"\334\030\342\026\202\006\016j:\011\030BbB\342`c\213"
  73      82060E6A 
  73      3A091842 
  73      6242E260 
  73      638B
  74 00a8 6A986291 		.ascii	"j\230b\221\020b\011I\012I\011\2410`\227:\310\200(G\221"
  74      10620949 
  74      0A4909A1 
  74      3060973A 
  74      C8802847 
  75 00bd 25156DAE 		.ascii	"%\025m\256\"\023\243\366\010\365\017\367\375\015\377"
  75      2213A3F6 
  75      08F50FF7 
  75      FD0DFF
  76 00cc 301BCF68 		.ascii	"0\033\317hAQD\255\210D\023\321\326l<\247l\021u\312\212"
  76      415144AD 
  76      884413D1 
  76      D66C3CA7 
  76      6C1175CA 
  77 00e1 94DB702D 		.ascii	"\224\333p-\2253(=\003M~\300\275\233\200\376\017\200"
  77      9533283D 
  77      034D7EC0 
  77      BD9B80FE 
  77      0F80
  78 00f3 8BE83D34 		.ascii	"\213\350=4\2371\354\201\370C\367\266\313d\221\260\351"
  78      9F31EC81 
  78      F843F7B6 
  78      CB6491B0 
  78      E9
  79 0104 A15231B2 		.ascii	"\241R1\262\221\036\351\177\3677\334\015\033/\372\365"
  79      911EE97F 
  79      F737DC0D 
  79      1B2FFAF5 
  80 0114 E2844B76 		.ascii	"\342\204KvJ\262\024~\304\236\272w/\272\242M\332 \351"
  80      4AB2147E 
  80      C49EBA77 
  80      2FBAA24D 
  80      DA20E9
  81 0127 F988BE1F 		.ascii	"\371\210\276\037\354\354\023\025\234\010I\325\002\377"
  81      ECEC1315 
  81      9C0849D5 
  81      02FF
  82 0135 7ADDEF83 		.ascii	"z\335\357\203d#\235+\012\265\244\251\031\231r\311&\224"
  82      64239D2B 
  82      0AB5A4A9 
  82      199972C9 
  82      2694
  83 0147 2F537032 		.ascii	"/Sp2\342\323\243\2744\266\024\233\"\\\262\235\201\343"
  83      E2D3A3BC 
  83      34B6149B 
  83      225CB29D 
  83      81E3
  84 0159 E427ED6F 		.ascii	"\344'\355o\311w\241\346\257\204\207Gx\370\\\262tUt\237"
ARM GAS  /tmp/ccfrJ99H.s 			page 6


  84      C977A1E6 
  84      AF848747 
  84      78F85CB2 
  84      7455749F 
  85 016d E2B58E2F 		.ascii	"\342\265\216/\227\234\362fi{\261\264\223_\310\201Q\316"
  85      979CF266 
  85      697BB1B4 
  85      935FC881 
  85      51CE
  86 017f 3B85C22F 		.ascii	";\205\302/\311\236\262\325"
  86      C99EB2D5 
  87              		.text
  88              		.section	.gnu.lto_.symbol_nodes.1ebe0a26bbfa27bb,"",%progbits
  89 0000 789C6362 		.ascii	"x\234cb`b\320a\200\002&\206z\006\206\011\347\030\030"
  89      6062D061 
  89      80022686 
  89      7A068609 
  89      E71818
  90 0013 EAEBE775 		.ascii	"\352\353\347u021\3263\"\361\230\352\231\020<\006\000"
  90      303231D6 
  90      3322F198 
  90      EA99103C 
  90      0600
  91 0025 0A070C43 		.ascii	"\012\007\014C"
  92              		.text
  93              		.section	.gnu.lto_.refs.1ebe0a26bbfa27bb,"",%progbits
  94 0000 789C6362 		.ascii	"x\234cb`b`d\200\002\000\000F\000\006"
  94      60626064 
  94      80020000 
  94      460006
  95              		.text
  96              		.section	.gnu.lto_.decls.1ebe0a26bbfa27bb,"",%progbits
  97 0000 789C9D52 		.ascii	"x\234\235R\317k\023Q\020\236\331\004ib\014=\225zJ\205"
  97      CF6B1351 
  97      109ED904 
  97      69620C3D 
  97      957A4A85 
  98 0014 2AA5D02C 		.ascii	"*\245\320,\202\024\274\210`AO\202\222\212\267\345\231"
  98      8214BC88 
  98      60414F82 
  98      928AB7E5 
  98      99
  99 0025 AC74A1D9 		.ascii	"\254t\241\331\224\315&E\2042V\272x\020\214\225\236D"
  99      94CD2645 
  99      843256BA 
  99      78108C95 
  99      9E44
 100 0037 4D6C4B2B 		.ascii	"MlK+*\011\012k/b\216\036r\023o\036\202\376\001\026<"
 100      2A090A6B 
 100      2F628E1E 
 100      72136F1E 
 100      82FE0116 
 101 004c 09C2FADE 		.ascii	"\011\302\372\336\346m\233l\322R\035\030\346\375\370"
 101      E66D9B6C 
 101      D2521D18 
 101      E6FDF8
 102 005b BE6FE77B 		.ascii	"\276o\347{\263\012(\320\002\000\217\307R\004\240\301"
ARM GAS  /tmp/ccfrJ99H.s 			page 7


 102      B30A28D0 
 102      02008FC7 
 102      5204A0C1 
 103 006b D7519E17 		.ascii	"\327Q\236\027`?\3701\324x\326y\272\320\037\342N\221"
 103      603FF831 
 103      D478D679 
 103      BAD01FE2 
 103      4E91
 104 007d BCB43C43 		.ascii	"\274\264<Cy.\352\233\020\276.5\0056\3113\321\305\251"
 104      792EEA9B 
 104      10BE2E35 
 104      0536C933 
 104      D1C5A9
 105 0090 CBFA3EC4 		.ascii	"\313\372>\304q\273\364\003N\264\213\347\312\272\023"
 105      71BBF403 
 105      4EB48BE7 
 105      CABA13
 106 009f E2A5E039 		.ascii	"\342\245\3409\355\356\266W\234G'\251\272\334\364\274"
 106      EDEEB657 
 106      9C4727A9 
 106      BADCF4BC 
 107 00af 4F740A46 		.ascii	"Ot\012F`\215xT\035\"\264\031\246\343p\023\031&c0\346"
 107      608D7854 
 107      1D22B419 
 107      A6E37013 
 107      19266330 
 108 00c4 2F123129 		.ascii	"/\0221)\315\360%\216\310'\020\006!\006\017\210\226\211"
 108      CDF0258E 
 108      C8271006 
 108      21060F88 
 108      9689
 109 00d6 1C9AD8E6 		.ascii	"\034\232\330\346]H\326p\300\022\230\323\260ATi\177\331"
 109      5D48D670 
 109      C01298D3 
 109      B0415469 
 109      7FD9
 110 00e8 F9A1100D 		.ascii	"\371\241\020\0151\334@q>\2150\011\257\3707+D\337S\003"
 110      31DC4071 
 110      3E8D3009 
 110      AFF8372B 
 110      44DF5303 
 111 00fc DEF0E8CA 		.ascii	"\336\360\350\312\317\234\255\363\276\362\266\257|\027"
 111      CF9CADF3 
 111      BEF2B6AF 
 111      7C17
 112 010a 799B5B38 		.ascii	"y\233[8)u\030Fb\335\272\376>\000\0101\377Z.</\002\377"
 112      29751846 
 112      62DDBAFE 
 112      3E000831 
 112      FF5A2E3C 
 113 0121 066638BB 		.ascii	"\006f8\273OQ\300\301\336\257\217\303:\321*\177\355\315"
 113      4F51C0C1 
 113      DEAF8FC3 
 113      3AD12A7F 
 113      EDCD
 114 0133 51AA6260 		.ascii	"Q\252b`\376\261\217\252aj\240\255\016\212\307\031\330"
 114      FEB18FAA 
ARM GAS  /tmp/ccfrJ99H.s 			page 8


 114      616AA0AD 
 114      0E8AC719 
 114      D8
 115 0144 1453F9D8 		.ascii	"\024S\371\330\272v\305\237\011\364\222B\263\361\257"
 115      BA76C59F 
 115      09F49242 
 115      B3F1AF
 116 0153 5FA3D23F 		.ascii	"_\243\322?\354\346\327o\211\312\275\266\347\275\270"
 116      ECE6D76F 
 116      89CABDB6 
 116      E7BDB8
 117 0162 78F44137 		.ascii	"x\364A7z\007\355cCf\327\006\231\255\320\257\026v\372"
 117      7A07ED63 
 117      4366D706 
 117      99ADD0AF 
 117      1676FA
 118 0175 55A0E623 		.ascii	"U\240\346#\352\007\364,M\005>\177>\\\031\216\356\031"
 118      EA07F42C 
 118      4D053E7F 
 118      3E5C198E 
 118      EE19
 119 0187 3D8824DB 		.ascii	"=\210$\333{\327o\264\321n>\371\375\031i\225\376x\336"
 119      7BD76FB4 
 119      D16E3EF9 
 119      FD196995 
 119      FE78DE
 120 019a 7D52E4DF 		.ascii	"}R\344\337\252\300\372\300\241\320S6\321yj\206oQ\240"
 120      AAC0FAC0 
 120      A1D05336 
 120      D1796A86 
 120      6F51A0
 121 01ad DDFF1988 		.ascii	"\335\377\031\210{x\237\037z\373\204\344\214e\224u\253"
 121      7B789F1F 
 121      7AFB84E4 
 121      8C659475 
 121      AB
 122 01be A85A762E 		.ascii	"\250Zv.\235\205q\265T\264Tf\345\247\314\202\251O\351"
 122      9D8571B5 
 122      54B45466 
 122      E5A7CC82 
 122      A94FE9
 123 01d1 EC96A11A 		.ascii	"\354\226\241\032fv\276\224\323\325\242\2353L;=\007C"
 123      6676BE94 
 123      D3D5A29D 
 123      334C3B3D 
 123      0743
 124 01e3 255ECF4E 		.ascii	"%^\317Nk\366\261\313Wg\307.\301\271CHy\226\2353L]\325"
 124      6BF6B1CB 
 124      5767C72E 
 124      C1B94348 
 124      79969D33 
 125 01fa 72FA6D56 		.ascii	"r\372mV\232\2675\373\316\202^\344\"qM\013d\342\3273"
 125      9AB735FB 
 125      CE825EE4 
 125      22714D0B 
 125      64E2D733 
 126 020e 339AC516 		.ascii	"3\232\305\0263\205\033\021^\216\213m9S\310\350\371\005"
ARM GAS  /tmp/ccfrJ99H.s 			page 9


 126      33851B11 
 126      5E8E8B6D 
 126      3953C8E8 
 126      F905
 127 0220 2C9FD8BB 		.ascii	",\237\330\273\024\373\277@+\361'"
 127      14FBBF40 
 127      2BF127
 128              		.text
 129              		.section	.gnu.lto_.symtab.1ebe0a26bbfa27bb,"",%progbits
 130 0000 5254445F 		.ascii	"RTD_rawToV\000\000\000\000\000\000\000\000\000\000\000"
 130      72617754 
 130      6F560000 
 130      00000000 
 130      00000000 
 131 0015 00A10000 		.ascii	"\000\241\000\000\000RTD_vToTemp\000\000\000\000\000"
 131      00525444 
 131      5F76546F 
 131      54656D70 
 131      00000000 
 132 002a 00000000 		.ascii	"\000\000\000\000\000\000\000\257\000\000\000RTD_raw"
 132      000000AF 
 132      00000052 
 132      54445F72 
 132      6177
 133 003c 546F5465 		.ascii	"ToTemp\000\000\000\000\000\000\000\000\000\000\000\000"
 133      6D700000 
 133      00000000 
 133      00000000 
 133      0000
 134 004e B6000000 		.ascii	"\266\000\000\000"
 135              		.text
 136              		.section	.gnu.lto_.opts,"",%progbits
 137 0000 272D6D63 		.ascii	"'-mcpu=cortex-m4' '-mfloat-abi=hard' '-mfpu=fpv4-sp"
 137      70753D63 
 137      6F727465 
 137      782D6D34 
 137      2720272D 
 138 0033 2D643136 		.ascii	"-d16' '-mno-thumb-interwork' '-mthumb' '-O2' '-fomi"
 138      2720272D 
 138      6D6E6F2D 
 138      7468756D 
 138      622D696E 
 139 0066 742D6672 		.ascii	"t-frame-pointer' '-falign-functions=16' '-ffunction"
 139      616D652D 
 139      706F696E 
 139      74657227 
 139      20272D66 
 140 0099 2D736563 		.ascii	"-sections' '-fdata-sections' '-fno-common' '-flto' "
 140      74696F6E 
 140      73272027 
 140      2D666461 
 140      74612D73 
 141 00cc 272D6673 		.ascii	"'-fsingle-precision-constant'\000"
 141      696E676C 
 141      652D7072 
 141      65636973 
 141      696F6E2D 
ARM GAS  /tmp/ccfrJ99H.s 			page 10


 142              		.text
 143              		.section	.text.RTD_rawToV,"ax",%progbits
 144              		.align	2
 145              		.p2align 4,,15
 146              		.global	RTD_rawToV
 147              		.thumb
 148              		.thumb_func
 149              		.type	RTD_rawToV, %function
 150              	RTD_rawToV:
 151              		@ args = 0, pretend = 0, frame = 0
 152              		@ frame_needed = 0, uses_anonymous_args = 0
 153              		@ link register save eliminated.
 154 0000 07EE900A 		fmsr	s15, r0	@ int
 155 0004 B8EEE70A 		fsitos	s0, s15
 156 0008 DFED027A 		flds	s15, .L2
 157 000c 20EE270A 		fmuls	s0, s0, s15
 158 0010 7047     		bx	lr
 159              	.L3:
 160 0012 00BF     		.align	2
 161              	.L2:
 162 0014 3333533A 		.word	978531123
 163              		.size	RTD_rawToV, .-RTD_rawToV
 164 0018 AFF30080 		.section	.text.RTD_vToTemp,"ax",%progbits
 164      AFF30080 
 165              		.align	2
 166              		.p2align 4,,15
 167              		.global	RTD_vToTemp
 168              		.thumb
 169              		.thumb_func
 170              		.type	RTD_vToTemp, %function
 171              	RTD_vToTemp:
 172              		@ args = 0, pretend = 0, frame = 0
 173              		@ frame_needed = 0, uses_anonymous_args = 0
 174              		@ link register save eliminated.
 175 0000 DFED0E6A 		flds	s13, .L5
 176 0004 9FED0E7A 		flds	s14, .L5+4
 177 0008 DFED0E7A 		flds	s15, .L5+8
 178 000c 30EE660A 		fsubs	s0, s0, s13
 179 0010 B1EE046A 		fconsts	s12, #20
 180 0014 60EE066A 		fmuls	s13, s0, s12
 181 0018 B3EE096A 		fconsts	s12, #57
 182 001c C6EE866A 		fdivs	s13, s13, s12
 183 0020 B7EE000A 		fconsts	s0, #112
 184 0024 37EE667A 		fsubs	s14, s14, s13
 185 0028 B0EE006A 		fconsts	s12, #0
 186 002c 80EE070A 		fdivs	s0, s0, s14
 187 0030 30EE460A 		fsubs	s0, s0, s12
 188 0034 80EE270A 		fdivs	s0, s0, s15
 189 0038 7047     		bx	lr
 190              	.L6:
 191 003a 00BF     		.align	2
 192              	.L5:
 193 003c 33335340 		.word	1079194419
 194 0040 ECCF073F 		.word	1057476588
 195 0044 48507C3B 		.word	998002760
 196              		.size	RTD_vToTemp, .-RTD_vToTemp
 197 0048 AFF30080 		.section	.text.RTD_rawToTemp,"ax",%progbits
ARM GAS  /tmp/ccfrJ99H.s 			page 11


 197      AFF30080 
 198              		.align	2
 199              		.p2align 4,,15
 200              		.global	RTD_rawToTemp
 201              		.thumb
 202              		.thumb_func
 203              		.type	RTD_rawToTemp, %function
 204              	RTD_rawToTemp:
 205              		@ args = 0, pretend = 0, frame = 0
 206              		@ frame_needed = 0, uses_anonymous_args = 0
 207              		@ link register save eliminated.
 208 0000 07EE900A 		fmsr	s15, r0	@ int
 209 0004 DFED106A 		flds	s13, .L8
 210 0008 9FED100A 		flds	s0, .L8+4
 211 000c 9FED107A 		flds	s14, .L8+8
 212 0010 B8EEE76A 		fsitos	s12, s15
 213 0014 DFED0F7A 		flds	s15, .L8+12
 214 0018 E6EE267A 		vfma.f32	s15, s12, s13
 215 001c F1EE046A 		fconsts	s13, #20
 216 0020 67EEA67A 		fmuls	s15, s15, s13
 217 0024 F3EE096A 		fconsts	s13, #57
 218 0028 C7EEA67A 		fdivs	s15, s15, s13
 219 002c B7EE006A 		fconsts	s12, #112
 220 0030 30EE670A 		fsubs	s0, s0, s15
 221 0034 F0EE006A 		fconsts	s13, #0
 222 0038 86EE000A 		fdivs	s0, s12, s0
 223 003c 30EE660A 		fsubs	s0, s0, s13
 224 0040 80EE070A 		fdivs	s0, s0, s14
 225 0044 7047     		bx	lr
 226              	.L9:
 227 0046 00BF     		.align	2
 228              	.L8:
 229 0048 3333533A 		.word	978531123
 230 004c ECCF073F 		.word	1057476588
 231 0050 48507C3B 		.word	998002760
 232 0054 333353C0 		.word	3226678067
 233              		.size	RTD_rawToTemp, .-RTD_rawToTemp
 234              		.comm	__gnu_lto_v1,1,1
 235 0058 AFF30080 		.ident	"GCC: (GNU Tools for ARM Embedded Processors) 4.8.4 20140526 (release) [ARM/embedded-4_8-br
 235      AFF30080 
ARM GAS  /tmp/ccfrJ99H.s 			page 12

