ARM GAS  /tmp/cc0rwqKo.s 			page 1


   1              		.syntax unified
   2              		.cpu cortex-m4
   3              		.eabi_attribute 27, 3
   4              		.eabi_attribute 28, 1
   5              		.fpu fpv4-sp-d16
   6              		.eabi_attribute 20, 1
   7              		.eabi_attribute 21, 1
   8              		.eabi_attribute 23, 3
   9              		.eabi_attribute 24, 1
  10              		.eabi_attribute 25, 1
  11              		.eabi_attribute 26, 1
  12              		.eabi_attribute 30, 2
  13              		.eabi_attribute 34, 1
  14              		.eabi_attribute 18, 4
  15              		.thumb
  16              		.file	"sdmmcsimple.c"
  17              		.section	.gnu.lto_.jmpfuncs.f8b6c85f7a5d0586,"",%progbits
  18 0000 789C7591 		.ascii	"x\234u\2211K\0031\024\307\337\273\264\266\275\252mm"
  18      314B0331 
  18      14C7DFBB 
  18      B4B6BDAA 
  18      6D6D
  19 0012 97A28420 		.ascii	"\227\242\204 \272\011\025'q\022\256\355V\205vQp)\366"
  19      BA091527 
  19      7112AEED 
  19      56857651 
  19      7029F6
  20 0025 94039BC8 		.ascii	"\224\003\233\310y\026\304%8ut\021\212\340\367\360C8"
  20      7916C425 
  20      38757411 
  20      8AE0F7F0 
  20      4338
  21 0037 F80DFC1E 		.ascii	"\370\015\374\036N\346.I\275\323\366\226\274\344\367"
  21      4EE62E49 
  21      BDD3F696 
  21      BCE4F7
  22 0046 7FFFBC7F 		.ascii	"\177\377\274\177\316\001\007\026};\352\370K\255\005"
  22      CE010716 
  22      7D3BEAF8 
  22      4BAD05
  23 0055 20084088 		.ascii	" \010@\210*'j\005\300I\214\025u\3160\300\270F\265#\205"
  23      2A276A05 
  23      C0498C15 
  23      75CE30C0 
  23      B846B523 
  24 006a F8E411BE 		.ascii	"\370\344\021\276\345LV\003D\012\370&g\307\001j\367\014"
  24      E54C5603 
  24      440AF826 
  24      67C7016A 
  24      F70C
  25 007c 24143635 		.ascii	"$\02465\314\201\356\317\362<\205C\315W\022N\0224\215"
  25      CC81EECF 
  25      F23C8543 
  25      CD57124E 
  25      12348D
  26 008f 51618CDA 		.ascii	"Qa\214\332o..R8\327\342\222&\361T\356\337+\325<\027"
  26      6F2E2E52 
ARM GAS  /tmp/cc0rwqKo.s 			page 2


  26      38D7E292 
  26      26F154EE 
  26      DF2BD53C 
  27 00a4 E979481A 		.ascii	"\351yH\032\226)L4\\5\3413\275k\024^L\230\365\205\363"
  27      96294C34 
  27      5C35E133 
  27      BD6B145E 
  27      4C98F585 
  28 00b9 5628BC1B 		.ascii	"V(\274\033AU\013\222!j\237\225\377\302\217\214\320\322"
  28      41550B92 
  28      216A9F95 
  28      FFC28F8C 
  28      D0D2
  29 00cb 24DBC618 		.ascii	"$\333\306\030\315s\252\304\261A]>Oe\316D\252\311\252"
  29      CD73AAC4 
  29      B1415D3E 
  29      4F65CE44 
  29      AAC9AA
  30 00de A91A4FF9 		.ascii	"\251\032O\371%\012f\025\257\313\024\305E\212YJa\213"
  30      250A6615 
  30      AFCB14C5 
  30      458A594A 
  30      618B
  31 00f0 06FBE532 		.ascii	"\006\373\3452\355 \355\237o4\001J\350b\031\2419h\267"
  31      ED20ED9F 
  31      6F34014A 
  31      E86219A1 
  31      3968B7
  32 0103 7A3DEFE8 		.ascii	"z=\357\350D\260A\233y\303p\304\272\342\236\217\\\330"
  32      44B0419B 
  32      79C370C4 
  32      BAE29E8F 
  32      5CD8
  33 0115 32A41BDC 		.ascii	"2\244\033\334\370l\360p\027\371c\326S(\362\025d\313"
  33      F86CF070 
  33      17F963D6 
  33      5328F215 
  33      64CB
  34 0127 20EB84A1 		.ascii	" \353\204\241\010]pZsk\346\011\316\375\313(\020\234"
  34      085D705A 
  34      736BE609 
  34      CEFDCB28 
  34      109C
  35 0139 B505F75D 		.ascii	"\265\005\367]\240\206t\372\375\323\276\305{j\267\273"
  35      A08674FA 
  35      FDD3BEC5 
  35      7B6AB7BB 
  36 0149 7FA0CCB7 		.ascii	"\177\240\314\267-\346#&\256\322\355\303H]t\033\271P"
  36      2DE62326 
  36      AED2EDC3 
  36      485D741B 
  36      B950
  37 015b 3712CBF8 		.ascii	"7\022\313\370u\352,\025\342\007*P\246/"
  37      75EA2C15 
  37      E2072A50 
  37      A62F
  38              		.text
ARM GAS  /tmp/cc0rwqKo.s 			page 3


  39              		.section	.gnu.lto_.inline.f8b6c85f7a5d0586,"",%progbits
  40 0000 789C8D91 		.ascii	"x\234\215\221\275\015\3020\020\205\337\235/1$\200BA"
  40      BD0DC230 
  40      1085DF9D 
  40      2F312480 
  40      4241
  41 0012 87041D23 		.ascii	"\207\004\035#\3202AjJ\250\010{PPf\004\266`\013&\240"
  41      D032416A 
  41      4AA8087B 
  41      50506604 
  41      B6600B26 
  42 0027 A2A240CC 		.ascii	"\242\242@\314\200}&? \020\330\322=\373\364\336g\331"
  42      807D263F 
  42      2010D8D2 
  42      3DFBF4DE 
  42      67D9
  43 0039 66303E8D 		.ascii	"f0>\215#\005\265\220t\0145\305\207I\355%D\003\300\224"
  43      2305B590 
  43      740C35C5 
  43      8749ED25 
  43      4403C094 
  44 004d B99FA6A7 		.ascii	"\271\237\246\247\006B\307\0228)\363\332\3120L/a\203"
  44      0642C712 
  44      3829F3DA 
  44      CA304C2F 
  44      6183
  45 005f 0B4EE47A 		.ascii	"\013N\344z\363\333\2311\274\257C\327\023\\\256RN\035"
  45      F3DB9931 
  45      BCAF43D7 
  45      135CAE52 
  45      4E1D
  46 0071 EE09765B 		.ascii	"\356\011v[=\253e\223\276\236\215\306\341\265\025\320"
  46      3DAB6593 
  46      BE9E8DC6 
  46      E1B515D0 
  47 0081 FC37AAA6 		.ascii	"\3747\252\246\035\355\227vac\022\024K\332\322\310\265"
  47      1DED9776 
  47      61631214 
  47      4BDAD2C8 
  47      B5
  48 0092 56D8344B 		.ascii	"V\3304K\252+\342\352zt\265\031#\332\3172\320\316N\205"
  48      AA2BE2EA 
  48      7A74B519 
  48      23DACF32 
  48      D0CE4E85 
  49 00a6 83F80B26 		.ascii	"\203\370\013&o\254\242a\025J\011u\361\017+\205\030\367"
  49      6FACA261 
  49      154A0975 
  49      F10F2B85 
  49      18F7
  50 00b8 829A9296 		.ascii	"\202\232\222\226_B\325\377y\000\371\250+\305"
  50      5F42D5FF 
  50      7900F9A8 
  50      2BC5
  51              		.text
  52              		.section	.gnu.lto_.pureconst.f8b6c85f7a5d0586,"",%progbits
  53 0000 789C6362 		.ascii	"x\234cb`b\340g\200\000v\006\011F)&\006f)NV.VnV\000\006"
ARM GAS  /tmp/cc0rwqKo.s 			page 4


  53      6062E067 
  53      80007606 
  53      09462926 
  53      0666294E 
  54 001b 2A009A   		.ascii	"*\000\232"
  55              		.text
  56              		.section	.gnu.lto_chprintf.f8b6c85f7a5d0586,"",%progbits
  57 0000 789C8550 		.ascii	"x\234\205P\315J\002Q\024>\337\0355uc\333v\342\0034\213"
  57      CD4A0251 
  57      143EDF1D 
  57      357563DB 
  57      76E20334 
  58 0015 22E80D7A 		.ascii	"\"\350\015z\000\203Z\3058\216z\011\035\321Q\260\026"
  58      00835AC5 
  58      388E7A09 
  58      1DD151B0 
  58      16
  59 0026 5EC1C245 		.ascii	"^\301\302E\013ig\021)\321:\244\027\030\202\332DI\273"
  59      0B696711 
  59      29D13AA4 
  59      171882DA 
  59      4449BB
  60 0039 162D2497 		.ascii	"\026-$\227\265h\321*\202\351\336\031\024\372\201\016"
  60      B568D12A 
  60      82E9DE19 
  60      14FA810E 
  61 0049 DC7B7EBE 		.ascii	"\334{~\276s\276\363\303\210\321OY\220o\010\2425\251"
  61      73BEF3C3 
  61      88D14F59 
  61      906F08A2 
  61      35A9
  62 005b A11158F7 		.ascii	"\241\021X\367\236\250\025e\2002\010\324dhnB\245\262"
  62      9EA81565 
  62      803208D4 
  62      64686E42 
  62      A5B2
  63 006d 140D84DB 		.ascii	"\024\015\204\333\035_O\036\321\023n\273/>=\017\340\220"
  63      1D5F4F1E 
  63      D1136EBB 
  63      2F3E3D0F 
  63      E090
  64 007f B42B2013 		.ascii	"\264+ \023\264!\035$}\305B\337\373\250Z\321uOon!\016"
  64      B4211D24 
  64      7DC542DF 
  64      FBA85AD1 
  64      754F6F6E 
  65 0095 45EBCDF3 		.ascii	"E\353\315\363\022\034\032\243\325\377\012/\230\373\354"
  65      121C1AA3 
  65      D5FF0A2F 
  65      98FBEC
  66 00a4 794FC3F7 		.ascii	"yO\303\367\203W\364XLC\021\024\222\037\"d\340\014)\225"
  66      8357F458 
  66      4C431114 
  66      921F2264 
  66      E00C2995 
  67 00b8 13A6B624 		.ascii	"\023\246\266$O\032\030H\177\0325\375\241\323\362W\233"
  67      4F1A1848 
ARM GAS  /tmp/cc0rwqKo.s 			page 5


  67      7F1A35FD 
  67      A1D3F257 
  67      9B
  68 00c9 AC8329AD 		.ascii	"\254\203)\255\215ho\3343\015\234#,\321]\372\020\035"
  68      8D686FDC 
  68      330D9C23 
  68      2CD15DFA 
  68      101D
  69 00db 31CF1132 		.ascii	"1\317\0212\341\247\313\310\016Gx\312\344g\251\2514\""
  69      E1A7CBC8 
  69      0E4778CA 
  69      E467A9A9 
  69      3422
  70 00ed 2E3BD288 		.ascii	".;\322\210\366\307G\223x\200\344\021\231\021\314\231"
  70      F6C74793 
  70      7880E411 
  70      9911CC99 
  71 00fd 088E9B87 		.ascii	"\010\216\233\207\226G( \340\210\252\222\366\370\370"
  71      96472820 
  71      E088AA92 
  71      F6F8F8
  72 010c 77C798A9 		.ascii	"w\307\230\251H\377\356\310\021'\272\243\253\027\026"
  72      48FFEEC8 
  72      1127BAA3 
  72      AB1716
  73 011b 04027099 		.ascii	"\004\002p\231.EG\235[\312\003\265\372'\332l\214\340"
  73      2E45479D 
  73      5BCA03B5 
  73      FA27DA6C 
  73      8CE0
  74 012d 5469B983 		.ascii	"Ti\271\203\334Q\315\261\244\027\354\242\245\233v\266"
  74      DC51CDB1 
  74      A417ECA2 
  74      A59B76B6 
  75 013d A167ADBA 		.ascii	"\241g\255\272n\026x\206\333U\335\251\324J\333\2724\352"
  75      6E167886 
  75      DB55DDA9 
  75      D44ADBBA 
  75      34EA
  76 014f 4685DBB5 		.ascii	"F\205\333\265\252\004\312\025^rr\213\005bF9\221\263"
  76      AA04CA15 
  76      5E72728B 
  76      05624639 
  76      91B3
  77 0161 2B45C371 		.ascii	"+E\303q\254\354V\246\341X\325/\251H\201#"
  77      ACEC56A6 
  77      E158D52F 
  77      A9488123 
  78              		.text
  79              		.section	.gnu.lto_sd_is_card_inserted.f8b6c85f7a5d0586,"",%progbits
  80 0000 789C5D50 		.ascii	"x\234]P\273JCA\020=gf\257\212\004\343\007\210\330\013"
  80      BB4A4341 
  80      103D6766 
  80      AF8A04E3 
  80      0788D80B 
  81 0014 06FC9604 		.ascii	"\006\374\226\004\264\324(\341\202\027\204|@6\030\301"
  81      B4D428E1 
ARM GAS  /tmp/cc0rwqKo.s 			page 6


  81      8217847C 
  81      403618C1 
  82 0024 32655011 		.ascii	"2eP\021\004+\213\344\003\264\020\261\260\211 \244I\260"
  82      042B8BE4 
  82      03B410B1 
  82      B08920A4 
  82      49B0
  83 0036 B0F333E2 		.ascii	"\260\3633\342\314^\022\304\205=3\3149\363\024\010\376"
  83      CC5E12C4 
  83      853D33CC 
  83      39F31408 
  83      FE
  84 0047 BF7DFB5B 		.ascii	"\277}\373[\0046\3152\003\245\377\001t\327D\302\3636"
  84      0436CD32 
  84      03A5FF01 
  84      74D744C2 
  84      F336
  85 0059 E2BA4E6A 		.ascii	"\342\272Nj\210\025e(\303\201t\007DG4\260s\310Td$/\337"
  85      88156528 
  85      C3817407 
  85      444734B0 
  85      73C85464 
  86 0070 F3F9F0EB 		.ascii	"\363\371\360\353r\266\272B\344\204\03208d\016&\311\320"
  86      72B6BA42 
  86      E4841A30 
  86      38640E26 
  86      C9D0
  87 0082 8BB1BF03 		.ascii	"\213\261\277\0034SJ\335\320+5(nu\214\327\331\340\256"
  87      34534ADD 
  87      D02B3528 
  87      6E758CD7 
  87      D9E0AE
  88 0095 72C47BCB 		.ascii	"r\304{\313hQw\361\030{\314)7\2706\243\007\006!\016\256"
  88      685177F1 
  88      187BCC29 
  88      37B836A3 
  88      0706210E 
  89 00aa 62407253 		.ascii	"b@rS\333c.\266\030\343b\250\213\344\320*\365\231\224"
  89      DB632EB6 
  89      18E362A8 
  89      8BE4D02A 
  89      F59994
  90 00bd CCD392C9 		.ascii	"\314\323\222\311\214t&M\364\216\267\237nuI\245\370\337"
  90      8C74264D 
  90      F48EB79F 
  90      6E7549A5 
  90      F8DF
  91 00cf CBD4A998 		.ascii	"\313\324\251\230\324\264a\315|\302O[\037&L\232)\350"
  91      D4B461CD 
  91      7CC24F5B 
  91      1F264C9A 
  91      29E8
  92 00e1 7ABB83DC 		.ascii	"z\273\203\334\216J\027\320\207\252g\321\345\336z\243"
  92      8E4A17D0 
  92      87AA67D1 
  92      E5DE7AA3 
  93 00f1 7D5214CD 		.ascii	"}R\024\315v^\234\237\235\3565\361\013\334xD\374"
ARM GAS  /tmp/cc0rwqKo.s 			page 7


  93      765E9C9F 
  93      9DEE35F1 
  93      0BDC7844 
  93      FC
  94              		.text
  95              		.section	.gnu.lto_sd_is_write_protected.f8b6c85f7a5d0586,"",%progbits
  96 0000 789C6362 		.ascii	"x\234cb`b@\007\222@\034\015\304\002@\314\310\314\300"
  96      60624007 
  96      92401C0D 
  96      C40240CC 
  96      C8CCC0
  97 0013 C834E11C 		.ascii	"\3104\341\034\003C#\007\023##\210\301\300\310P\317\304"
  97      03432307 
  97      13232388 
  97      C1C0C850 
  97      CFC4
  98 0025 581FC908 		.ascii	"X\037\311\010V\273\236\351\300\203\377\377\327M9\266"
  98      56BB9EE9 
  98      C083FFFF 
  98      D74D39B6 
  99 0035 A08F9111 		.ascii	"\240\217\221\021d\024+CKC\303\004\005\006\206d\260\202"
  99      64142B43 
  99      4B43C304 
  99      05068664 
  99      B082
 100 0047 102009D2 		.ascii	"\020 \011\322\025\012\224\004\322\314\027\031\032\037"
 100      150A9404 
 100      D2CC1719 
 100      1A1F
 101 0055 F42C664C 		.ascii	"\364,fLd\\\310\310\312\020\301\230\311\010\2675\204"
 101      645CC8C8 
 101      CA10C198 
 101      C908B735 
 101      84
 102 0066 9111A402 		.ascii	"\221\021\244\002d\006_qJnnrqfnAN\252^2\003\000\035\274"
 102      64065F71 
 102      4A6E6E72 
 102      71666E41 
 102      4EAA5E32 
 103 007e 1EE8     		.ascii	"\036\350"
 104              		.text
 105              		.section	.gnu.lto_sdmmcInitialize.f8b6c85f7a5d0586,"",%progbits
 106 0000 789CAD57 		.ascii	"x\234\255W[l\024U\030\376\317\314\356\354\356\364^\252"
 106      5B6C1455 
 106      18FECFCC 
 106      EEECEEF4 
 106      5EAA
 107 0012 A5962ED3 		.ascii	"\245\226.\323\026\212t),Tn\336\023.o\250\005\232h\210"
 107      168A7429 
 107      2C546EDE 
 107      132E6FA8 
 107      059A6888 
 108 0026 0FEB766D 		.ascii	"\017\353vm&awq\273\230\020\037\230\322\225\313\203\260"
 108      26617771 
 108      BB98101F 
 108      98D295CB 
 108      83B0
ARM GAS  /tmp/cc0rwqKo.s 			page 8


 109 0038 411F56BC 		.ascii	"A\037V\274\004DCbT\214\372\260\021\321\005Mh\203J\011"
 109      04444362 
 109      548CFAB0 
 109      11D1054D 
 109      68834A09 
 110 004c 31591A0D 		.ascii	"1Y\032\015}\320`\300\020\032\014m\252R\377s\231\231"
 110      7DD060C0 
 110      101A0C6D 
 110      AA52FF73 
 110      9999
 111 005e BDD142D2 		.ascii	"\275\321B\322I\366\2343\3779\337\177\371\316\377\237"
 111      49F69C33 
 111      FF39DF7F 
 111      F9CEFF9F 
 112 006e 332B8104 		.ascii	"3+\201\004\205\317\001\374m\253\000p\021\000R\016DJ"
 112      85CF01FC 
 112      6DAB0070 
 112      1100520E 
 112      444A
 113 0080 FE0CD0EF 		.ascii	"\376\014\320\357\226$\307\376E`\2502m\313e\342\340b"
 113      9624C7FE 
 113      4560A832 
 113      6DCB65E2 
 113      E062
 114 0092 87E434CE 		.ascii	"\207\3444\316\003\312\325\244\214r\247\244\234\253\302"
 114      03CAD5A4 
 114      8C72A7A4 
 114      9CABC2
 115 00a1 37D7D093 		.ascii	"7\327\320\223\370\246\2202\276\312%\271\351\264\352"
 115      F8A69032 
 115      BECA25B9 
 115      E9B4EA
 116 00b0 616BCBDD 		.ascii	"ak\313\335\246\334c\016TsPF\010\035\000\201\335\222"
 116      A6DC630E 
 116      54735046 
 116      081D0081 
 116      DD92
 117 00c2 EC702A2E 		.ascii	"\354p*.\267G-#\273_ \3245\271\005\216\031\306\341\321"
 117      B7472D23 
 117      BB5F20D4 
 117      35B9058E 
 117      19C6E1D1 
 118 00d6 3F6EDF24 		.ascii	"?n\337$o\277\225I\0345\376\235\232\"D'\030F\015\201"
 118      6FBF9549 
 118      1C35FE9D 
 118      9A224427 
 118      18460D81 
 119 00ea 2081E7F1 		.ascii	" \201\347\361\205h\254\223\034\371q1l2se\357\301zc\324"
 119      8568AC93 
 119      1CF97131 
 119      6C327365 
 119      EFC17A63 
 120 00ff 481A7710 		.ascii	"H\032w\020\252\023Y\002\257\215ts$)\201<\234\031\333"
 120      AA135902 
 120      AF8D7473 
 120      2429813C 
 120      9C19DB
ARM GAS  /tmp/cc0rwqKo.s 			page 9


 121 0112 7B2817E9 		.ascii	"{(\027\351\220`\341L\310\223Rftj\352\327/\023#\213\327"
 121      9060E14C 
 121      C8935266 
 121      746AEAD7 
 121      2F13238B 
 122 0127 12406B0E 		.ascii	"\022@k\016\022&\240`C\\\330H\265(s\326\321\246\036\002"
 122      1226A060 
 122      435CD848 
 122      B52873D6 
 122      D1A61E02 
 123 013b E4186981 		.ascii	"\344\030i\201F\3217Q\341|l\024\015%\307Q\322,fZE\277"
 123      46D13751 
 123      E17C6C14 
 123      0D25C751 
 123      D22C665A 
 124 0151 00275D6D 		.ascii	"\000']m\342\245\035\373\217\260\367\211\367\016\012"
 124      E2A51DFB 
 124      8FB0F789 
 124      F70E0A
 125 0160 F78B974E 		.ascii	"\367\213\227N\321\257D\241{\025mV\323f\015\325\216N"
 125      D1AF44A1 
 125      7B156D56 
 125      D3660DD5 
 125      8E4E
 126 0172 3A2181C4 		.ascii	":!\201\304h\334\012W\0034.|\266bK\267\243\233H\264\227"
 126      68DC0A57 
 126      03342E7C 
 126      B6624BB7 
 126      A39B48B4 
 127 0187 7F823DE7 		.ascii	"\177\202=\347\263W3R\200\234 Nx\007\216\364\033F5\322"
 127      B3573352 
 127      809C204E 
 127      78078EF4 
 127      1B4635D2 
 128 019b FF1A4C1A 		.ascii	"\377\032L\032\373\351\310\023&2\342(\027\036\306@/\301"
 128      FBE9C813 
 128      2632E228 
 128      171EC640 
 128      2FC1
 129 01ad 6DA0B0D4 		.ascii	"m\240\260\324\265\233\204\303|\360\261\201O\025z\210"
 129      B59B84C3 
 129      7CF0B181 
 129      4F157A88 
 130 01bd 1A70A5DA 		.ascii	"\032p\245\332K\024\212(c\210\227\004\207\275\304\305"
 130      4B148A28 
 130      63889704 
 130      87BDC4C5 
 131 01cd 90930327 		.ascii	"\220\223\003'\336\360\026\"\313K#9\224{ct\341\2620\341"
 131      DEF01622 
 131      CB4B2339 
 131      947B6374 
 131      E1B230E1 
 132 01e1 59807AD2 		.ascii	"Y\200z\322\331k\203R\241\236\212\322zxUPI\205\211\236"
 132      D96B8352 
 132      A19E8AD2 
 132      7A785550 
 132      4985899E 
ARM GAS  /tmp/cc0rwqKo.s 			page 10


 133 01f5 2881564A 		.ascii	"(\201VJ\243e\013\255\010\364\371\364\365\014) \255\314"
 133      A3650BAD 
 133      08F4F9F4 
 133      F50C2920 
 133      ADCC
 134 0207 22AD328C 		.ascii	"\"\2552\214r\016\250\024\241#\360\002\354\035\375\372"
 134      720EA814 
 134      A123F002 
 134      EC1DFDFA 
 135 0217 B840814D 		.ascii	"\270@\201MqUP\204I\327W\033(t\260\241\3330$6\250i\300"
 135      71555084 
 135      49D7571B 
 135      2874B0A1 
 135      DB302436 
 136 022e 8DAD650A 		.ascii	"\215\255e\012\216\236\222g\302\247,<\357j4\033\375\315"
 136      8E9E9267 
 136      C2A72C3C 
 136      EF6A341B 
 136      FDCD
 137 0240 8CE8A46D 		.ascii	"\214\350\244m\235W@\315\021\247\215?}?x\255\030\377"
 137      9D5740CD 
 137      11A78D3F 
 137      7D3F78AD 
 137      18FF
 138 0252 EDFDE0AB 		.ascii	"\355\375\340\2539~\217\300#\353#\351[\303b\317zI\255"
 138      397E8FC0 
 138      23EB23E9 
 138      5BC362CF 
 138      7A49AD
 139 0265 0FDA79C6 		.ascii	"\017\332y\306!\375\306\266\273e\0355\234\310\264\027"
 139      21FDC6B6 
 139      BB651D35 
 139      9CC8B417 
 140 0275 D99D1314 		.ascii	"\331\235\023\024I\201\232tR\307\365go\375IL\375uy\372"
 140      49819A74 
 140      52C7F567 
 140      6FFD494C 
 140      FD7579FA 
 141 0289 BBA6D3FF 		.ascii	"\273\246\323\377z\246\251H\377\003A\2216\250I\344\357"
 141      7AA6A948 
 141      FF034191 
 141      36A849E4 
 141      EF
 142 029a 2B3A7930 		.ascii	"+:y0L\024\261T'\365\324\350\331\221\324\373\345\242"
 142      4C14B154 
 142      27F5D4E8 
 142      D991D4FB 
 142      E5A2
 143 02ac 62CDD235 		.ascii	"b\315\3225\256\036|\014\200\257\013\362\204\357%+i\232"
 143      AE1E7C0C 
 143      80AF0BF2 
 143      84EF252B 
 143      699A
 144 02be 26FA3363 		.ascii	"&\3723c\001\235\314\245^%\251\231\206\202M\257\026\316"
 144      019DCCA5 
 144      5E25A999 
 144      86824DAF 
ARM GAS  /tmp/cc0rwqKo.s 			page 11


 144      16CE
 145 02d0 3928FE2C 		.ascii	"9(\376,s\011\215\014|\206\304\237aa\255BMt\241K\342"
 145      73098D0C 
 145      7C86C49F 
 145      6161AD42 
 145      4D74A14B 
 146 02e5 33A7AC99 		.ascii	"3\247\254\231\3258\311\230\247\221\015\302\017W\373"
 146      D538C998 
 146      A7910DC2 
 146      0F57FB
 147 02f4 ABAC2926 		.ascii	"\253\254)&\317=\010\267bt\373\027\311\335h\210\236#"
 147      CF3D08B7 
 147      6274FB17 
 147      C9DD6888 
 147      9E23
 148 0306 8390F8EB 		.ascii	"\203\220\370\353\314\027.\223\2735V\255\360\3472p\011"
 148      CC172E93 
 148      BB3556AD 
 148      F0E73270 
 148      09
 149 0317 9EEBEF9E 		.ascii	"\236\353\357\236$bR\376\260\212\036DN\300;\204\036D"
 149      246252FE 
 149      B08A1E44 
 149      4EC03B84 
 149      1E44
 150 0329 4313B76F 		.ascii	"C\023\267oZ\354\327\337\313YD\271w\0261\377P\220\207"
 150      5AECD7DF 
 150      CB5944B9 
 150      771631FF 
 150      509087
 151 033c 4DB55061 		.ascii	"M\265Pa\3120.#\244\321\013\213\3373RO\353d\036X[\320"
 151      CA302E23 
 151      A4D10B8B 
 151      DF33524F 
 151      EB641E58 
 152 0352 C4B6209D 		.ascii	"\304\266 \235\032\367\333GA\002\027{\315\301|s\240\361"
 152      1AF7DB47 
 152      4102177B 
 152      CDC17C73 
 152      A0F1
 153 0364 A3A1A1A0 		.ascii	"\243\241\241\240HM\276\235\242WD\357\262r\272\231\226"
 153      484DBE9D 
 153      A25744EF 
 153      B272BA99 
 153      96
 154 0375 31CBC2A3 		.ascii	"1\313\302\243\277\025\247\177KP@\030\303\303U\350S+"
 154      BF15A77F 
 154      4B504018 
 154      C3C355E8 
 154      532B
 155 0387 CBC5A1EC 		.ascii	"\313\305\241\354\270\315F\343\254\260\321\230\317\306"
 155      B8CD46E3 
 155      ACB0D198 
 155      CFC6
 156 0395 13A5D9D8 		.ascii	"\023\245\331\330321>(\233\226\233\362\252`\327\364U"
 156      3332313E 
 156      289B969B 
ARM GAS  /tmp/cc0rwqKo.s 			page 12


 156      F2AA60D7 
 156      F455
 157 03a7 B6D644CD 		.ascii	"\266\326D\315\267\314/\010\012*P\225N\0262\003\327\007"
 157      B7CC2F08 
 157      0A2A5095 
 157      4E163203 
 157      D707
 158 03b9 5E35176A 		.ascii	"^5\027j\270\226\207\233\232\264\303m\236\225p\233s\302"
 158      B896879B 
 158      9AB4C36D 
 158      9E95709B 
 158      73C2
 159 03cb 6DF34217 		.ascii	"m\363B\027\017wQ^\2704\315\317\\\332g\035*\032\325\377"
 159      0F77515E 
 159      B834CDCF 
 159      5CDA671D 
 159      2A1AD5FF 
 160 03df 70EEA5DF 		.ascii	"p\356\245\337\215\3733^\311\3633\307\305\326{s\021a"
 160      8DFB335E 
 160      C9F333C7 
 160      C5D67B73 
 160      1161
 161 03f1 372C2E17 		.ascii	"7,.\027\260`/\2002\235\327\2559^/\366B\234{\335nz\215"
 161      B0602F80 
 161      329DD7AD 
 161      395E2FF6 
 161      429C7BDD 
 162 0408 5A98E3DC 		.ascii	"Z\230\343\3345\027\034x\234\271\226\375g\330r\255mV"
 162      35171C78 
 162      9CB996FD 
 162      67D872AD 
 162      6D56
 163 041a D86B137E 		.ascii	"\330k\023~\\D\210\317\013o\022\356\310\222\302l\231"
 163      5C4488CF 
 163      0B6F12EE 
 163      C892C26C 
 163      99
 164 042b 1CF8EE50 		.ascii	"\034\370\356P\376m\356\231\341\026\266o\363\212\260"
 164      FE6DEE99 
 164      E116B66F 
 164      F38AB0
 165 043a 480E7A35 		.ascii	"H\016z5N|oE\320n9\324\021\024\307\016\227d\256\354\253"
 165      4E7C6F45 
 165      D06E39D4 
 165      1114C70E 
 165      9764AEEC 
 166 044f B360DCC1 		.ascii	"\263`\334\301\314\3309\257N\226z\341S\341\3412\323C"
 166      CCD839AF 
 166      4E967AE1 
 166      53E1E132 
 166      D343
 167 0461 6AD94F1D 		.ascii	"j\331O\035]N\367\031\317\247[\366>\267\323\311\274\357"
 167      5D4EF719 
 167      CFA75BF6 
 167      3EB7D3C9 
 167      BCEF
 168 0473 C96E34F4 		.ascii	"\311n4\364\225\304\367\371\216\275\317\276Y!\323\227"
ARM GAS  /tmp/cc0rwqKo.s 			page 13


 168      95C4F7F9 
 168      8EBDCFBE 
 168      5921D397 
 169 0483 B3A92BBC 		.ascii	"\263\251+\274\360\271p\265\263\250\364RSY\313\307\216"
 169      F0B970B5 
 169      B3A8F452 
 169      5359CBC7 
 169      8E
 170 0494 BCD27B71 		.ascii	"\274\322{q\372\322\363\025\231\307\3123\277\330:\314"
 170      FAD2F315 
 170      99C7CA33 
 170      BFD83ACC 
 171 04a4 CA4BA7A7 		.ascii	"\312K\247\247\206\363?z\226\337\353'\023\347\310\003"
 171      86F33F7A 
 171      96DFEB27 
 171      13E7C803 
 172 04b4 BFAC651C 		.ascii	"\277\254e\034\245?\030\2638\362\317\012G\376\034\216"
 172      A53F18B3 
 172      38F2CF0A 
 172      47FE1C8E 
 173 04c4 1EF1C245 		.ascii	"\036\361\302E\301\321\312B\216\322Y\313\264\235p3\177"
 173      C1D1CA42 
 173      8ED259CB 
 173      B49D7033 
 173      7F
 174 04d5 B8112B06 		.ascii	"\270\021+\006\025\2222/\232\343v\014\235\263\022CgN"
 174      1592322F 
 174      9AE3760C 
 174      9DB31243 
 174      674E
 175 04e7 0C583437 		.ascii	"\014X47J\026\015\367\242\214\335\233\027\361\037\022"
 175      4A160DF7 
 175      A28CDD9B 
 175      17F11F12 
 176 04f7 0532EF2E 		.ascii	"\0052\357.\003\301\023H\371\361\364\\jR\306\177%\374"
 176      03C11348 
 176      F9F1F45C 
 176      6A52C67F 
 176      25FC
 177 0509 21BBDDBF 		.ascii	"!\273\335\277?\305D\377\331\"\365\357.&\002\360|r\251"
 177      3FC544FF 
 177      D922F5EF 
 177      2E2602F0 
 177      7C72A9
 178 051c 8E5EC884 		.ascii	"\216^\310\204j\244\273V\331\327\023\016\007\373\364"
 178      6AA4BB56 
 178      D9D7130E 
 178      07FBF4
 179 052b F08EEDA1 		.ascii	"\360\216\355\241\245A(\357\013\305\364\300\366\347\242"
 179      A54128EF 
 179      0BC5F4C0 
 179      F6E7A2
 180 053a B1F852BF 		.ascii	"\261\370R\277\322\027\017\304w\366\311\241Xl\316\226"
 180      D2170FC4 
 180      77F6C9A1 
 180      586CCE96 
 181 054a F5CB366D 		.ascii	"\365\3136mZ\367\350\272@\254G\333\030\335\031\351Q\301"
ARM GAS  /tmp/cc0rwqKo.s 			page 14


 181      5AF7E8BA 
 181      40AC47DB 
 181      18DD19E9 
 181      51C1
 182 055c 92452391 		.ascii	"\222E#\221P0\256GzUh\021\262\015\221\036-\372\262fN"
 182      5030AE47 
 182      7A556811 
 182      B20D911E 
 182      2DFAB266 
 183 0571 45235A20 		.ascii	"E#Z \036\017\205w\304U\360\232K6o~v\263\271b\011\276"
 183      1E0F8577 
 183      C455F09A 
 183      4B366F7E 
 183      76B3B962 
 184 0587 2DF4AF40 		.ascii	"-\364\257@\255\015b:\027\273>\032\011\251 -\003MLn\324"
 184      AD0D623A 
 184      17BB3E1A 
 184      09A9202D 
 184      034D4C6E 
 185 059c B787B42D 		.ascii	"\267\207\264-\273\372P\245\266\011\275\211k\033b\261"
 185      BBFA50A5 
 185      B609BD89 
 185      6B1B62B1 
 186 05ac 684C8579 		.ascii	"hL\205yw[\020\312Q\375L\024\365h\271\241\374\017\320"
 186      775B10CA 
 186      51FD4C14 
 186      F568B9A1 
 186      FC0FD0
 187 05bf F2802D   		.ascii	"\362\200-"
 188              		.text
 189              		.section	.gnu.lto_sdmmGetMMCDriver.f8b6c85f7a5d0586,"",%progbits
 190 0000 789C6D50 		.ascii	"x\234mP=K\003A\020}ov\317\210\210\037`\223.\245\030"
 190      3D4B0341 
 190      107D6F76 
 190      CF88881F 
 190      60932EA5 
 191 0015 B0B1C81F 		.ascii	"\260\261\310\037\311\201)\365\"\307A\016\002\371\001"
 191      C98129F5 
 191      22C7410E 
 191      02F901
 192 0024 D9487E40 		.ascii	"\331H~@J\321&vb\300\264\226VA\204\010)\024\264\262L"
 192      4AD12676 
 192      62C0B496 
 192      56418408 
 192      2914B4B2 
 193 0039 91FF7099 		.ascii	"\221\377p\231]\211\030q`wfv\337{\363!\020\374\265\023"
 193      5D891871 
 193      60776676 
 193      DF7BF321 
 193      10FCB513 
 194 004d 3D65027B 		.ascii	"=e\002{\352\031\2012x\005z\233\"\346n\002\270-;/\301"
 194      EA198132 
 194      78057A9B 
 194      22E66E02 
 194      B82D3B2F 
 195 0062 6D1BDAEF 		.ascii	"m\033\332\357wK\372\000DW\214e\267\301\2402\226\247"
 195      774BFA00 
ARM GAS  /tmp/cc0rwqKo.s 			page 15


 195      44578C65 
 195      B7C1A032 
 195      96A7
 196 0074 AFA27878 		.ascii	"\257\242xx\177\031\216)\033DF\030\346\204\325HU\263"
 196      7F198E29 
 196      1B444618 
 196      E684D548 
 196      55B3
 197 0086 808AD077 		.ascii	"\200\212\320wnP\001\222\220\326\365\366Z1\305{3\305"
 197      6E500192 
 197      90D6F5F6 
 197      5A31C57B 
 197      33C5
 198 0098 E5E7D568 		.ascii	"\345\347\325h\3063\336*%\245\255\342H\3317\270fFIiN"
 198      C633DE2A 
 198      25A5ADE2 
 198      48D937B8 
 198      66464969 
 199 00ad D59B50EE 		.ascii	"\325\233P\356\234\253\366\237\321_\364v\177(\036\302"
 199      9CABF69F 
 199      D15FF476 
 199      7F281EC2 
 200 00bd DFE3C5CA 		.ascii	"\337\343\305\312\320A\202\370\343h\177\005\214\252\270"
 200      D04182F8 
 200      E3687F05 
 200      8CAAB8
 201 00cc 776A35ED 		.ascii	"wj5\355\354\377\002\\\023\261\241\303\231.\000\312\016"
 201      ECFF025C 
 201      13B1A1C3 
 201      992E00CA 
 201      0E
 202 00dd 7F1FA0EA 		.ascii	"\177\037\240\352\230CO\322T\026o\007~&z\244_\363N\247"
 202      98434FD2 
 202      54166F07 
 202      7E267AA4 
 202      5FF34EA7 
 203 00f1 99E74927 		.ascii	"\231\347I'\313\333\255\213\343\004Kg\251D\360"
 203      CBDBAD8B 
 203      E3044B67 
 203      A944F0
 204              		.text
 205              		.section	.gnu.lto_sdmmcGetFS.f8b6c85f7a5d0586,"",%progbits
 206 0000 789C6D50 		.ascii	"x\234mP\315J\202A\024=\347\316|\026\022\231\320\246"
 206      CD4A8241 
 206      143DE7CE 
 206      7C161299 
 206      D0A6
 207 0012 9DCB4870 		.ascii	"\235\313Hp\323\302\027I\320\245~\206|\340\007\201\017"
 207      D3C21749 
 207      D0A57E86 
 207      7CE00781 
 207      0F
 208 0023 E0183E80 		.ascii	"\340\030>\200K\251\215\355\"\242\300\225\313V\022I\202"
 208      4BA98DED 
 208      22A2C095 
 208      CB561249 
 208      82
ARM GAS  /tmp/cc0rwqKo.s 			page 16


 209 0034 4B5BB574 		.ascii	"K[\265t\3213hw&\214\212.\314\334{g\3169\367G \370k\247"
 209      D1336877 
 209      268C8A2E 
 209      CCDC7B67 
 209      CE39F747 
 210 004c 7A8E081C 		.ascii	"z\216\010\034\250g\004\312`\016\364vE\314\355\024pY"
 210      A86704CA 
 210      600EF476 
 210      45CCED14 
 210      7059
 211 005e BBDA81DB 		.ascii	"\273\332\201\3333\264_\357\226\364\001\210\256\030\313"
 211      33B45FEF 
 211      96F40188 
 211      AE18CB
 212 006d 6E8D41E5 		.ascii	"n\215A\345Q\236\3367\233\207\365\313hF\311\020\011a"
 212      519EDE37 
 212      9B87F5CB 
 212      6846C910 
 212      0961
 213 007f 98125623 		.ascii	"\230\022V#UM\002*B\337\271A\001\210Cz\246\267\327\252"
 213      554D022A 
 213      42DFB941 
 213      0188437A 
 213      A6B7D7AA 
 214 0093 50BC37AF 		.ascii	"P\2747\257\270|\033\216\027\254\363F)-\332\"N\224}\215"
 214      B87C1B8E 
 214      17ACF346 
 214      292DDA22 
 214      4E947D8D 
 215 00a7 2B269416 		.ascii	"+&\224\026MU\275\011\345\032\334\266\377\214\376G/\367"
 215      4D55BD09 
 215      E51ADCB6 
 215      FF8CFE47 
 215      2FF7
 216 00b9 4DF110FE 		.ascii	"M\361\020\376\034\257\242\014\035$\210O\306\371-0*\342"
 216      1CAFA20C 
 216      1D24884F 
 216      C6F92D30 
 216      2AE2
 217 00cb CEA995B5 		.ascii	"\316\251\225\265\263\377\013\360\227\210\015\035.t\001"
 217      B3FF0BF0 
 217      97880D1D 
 217      2E7401
 218 00da 5076F85B 		.ascii	"Pv\370[\202\252c\216=IS\271_\036\372\231\350\221~\315"
 218      82AA638E 
 218      3D4953B9 
 218      5F1EFA99 
 218      E8917ECD 
 219 00ee FB9D669A 		.ascii	"\373\235f\232\306\235$\275h\237\227b|\002\264\214E\006"
 219      C69D24BD 
 219      689F9762 
 219      7C02B48C 
 219      4506
 220              		.text
 221              		.section	.gnu.lto_sdmmcFSMounted.f8b6c85f7a5d0586,"",%progbits
 222 0000 789C6362 		.ascii	"x\234cb`b@\007\222@<\003\210\005\200\230\221\231\201"
 222      60624007 
ARM GAS  /tmp/cc0rwqKo.s 			page 17


 222      92403C03 
 222      88058098 
 222      919981
 223 0013 9169C239 		.ascii	"\221i\3029\006\206F\016&FF\020\203\201\221\241\236\211"
 223      0686460E 
 223      26464610 
 223      838191A1 
 223      9E89
 224 0025 B13E9211 		.ascii	"\261>\222\021\254v=\323\201\007\377\377\257\333vz\301"
 224      AC763DD3 
 224      8107FFFF 
 224      AFDB767A 
 224      C1
 225 0036 5D462616 		.ascii	"]F&\026&\306\\F\006f\206L\260\034+CKC\303\004\005\006"
 225      26C65C46 
 225      0666864C 
 225      B01C2B43 
 225      4B43C304 
 226 004c 86643037 		.ascii	"\206d07\004H\202\364\20722\201h\346\263\014M\267flW"
 226      044882F4 
 226      87323281 
 226      68E6B30C 
 226      4DB7666C 
 227 0061 4C645CC8 		.ascii	"Ld\\\310\310\312\220\316\310\254\315\260\252\001\010"
 227      C8CA90CE 
 227      C8ACCDB0 
 227      AA0108
 228 0070 AC819A67 		.ascii	"\254\201\232g3\314b\314ddLgd\212\000\322\020\007&1\302"
 228      33CC62CC 
 228      64644C67 
 228      648A00D2 
 228      10072631 
 229 0085 9C7791A1 		.ascii	"\234w\221\241\361\000\013\\\033D,\204\221\021d(H)_q"
 229      F1000B5C 
 229      1B442C84 
 229      91116428 
 229      48295F71 
 230 0099 4A6E6E72 		.ascii	"JnnrqfnAN\252^2\003\000\336\012*\222"
 230      71666E41 
 230      4EAA5E32 
 230      0300DE0A 
 230      2A92
 231              		.text
 232              		.section	.gnu.lto_.symbol_nodes.f8b6c85f7a5d0586,"",%progbits
 233 0000 789C4DCC 		.ascii	"x\234M\314\313N\302@\024\306\361o\276i\301+\340}\241"
 233      CB4EC240 
 233      14C6F16F 
 233      BE69C12B 
 233      E07DA1
 234 0013 892FE04B 		.ascii	"\211/\340K\371$\007\250@\025)(Z\022\027.\344M,k\027"
 234      F92407A8 
 234      40152928 
 234      5A12172E 
 234      E44D2C6B 
 235 0028 26EE358D 		.ascii	"&\3565\215;\237A\234K\343t6\277\374\347\314\034\202"
 235      3B9F419C 
 235      4BE37436 
ARM GAS  /tmp/cc0rwqKo.s 			page 18


 235      BFFCE7CC 
 235      1C82
 236 003a F850F087 		.ascii	"\370P\360\207k%\300\354\015\020\231\244\227\034QT\225"
 236      6B25C0EC 
 236      0D1099A4 
 236      971C5154 
 236      95
 237 004b CFA9624A 		.ascii	"\317\251bJa-\257):d\334'#\321\361\204\032\202\270\307"
 237      612DAF29 
 237      3A64DC27 
 237      23D1F184 
 237      1A82B8C7 
 238 005f C8D690CA 		.ascii	"\310\326\220\312\222\020\006\336P\242\332\2021%\256"
 238      921006DE 
 238      50A2DA82 
 238      3125AE
 239 006e E52DA551 		.ascii	"\345-\245Q\333w\305\330~\035\260aP\013J\323\017\273"
 239      DB77C5D8 
 239      7E1DB061 
 239      500B4AD3 
 239      0FBB
 240 0080 5DA572CA 		.ascii	"]\245r\312F\250G\312f\250\007\312V\2509e;\324=e'\324"
 240      46A847CA 
 240      66A807CA 
 240      56A83965 
 240      3BD43D65 
 241 0096 1D6537D4 		.ascii	"\035e7\324\214\322\0125\245\264Ce\224\316\177it\220"
 241      8CD20A35 
 241      A5B44365 
 241      94CE7F69 
 241      7490
 242 00a8 7CFE1ADB 		.ascii	"|\376\032\333X:[(\254\372\004\305\227\267\254L\206?"
 242      583A5B28 
 242      ACFA04C5 
 242      97B7AC4C 
 242      863F
 243 00ba E7D66565 		.ascii	"\347\326ee\341<F2\262\036\241p\002/\343\225\361\020"
 243      E13C4632 
 243      B21EA170 
 243      022FE395 
 243      F110
 244 00cc A5D37466 		.ascii	"\245\323tf=@\231\371~\235V\276\257i\355\317WgZ\357\243"
 244      3D4099F9 
 244      7E9D56BE 
 244      AF69EDCF 
 244      57675AEF 
 245 00e1 709AF7B9 		.ascii	"p\232\367\271\031\357\241\314\375\253\305\367\251\273"
 245      19EFA1CC 
 245      FDABC5F7 
 245      A9BB
 246 00ef 7DBAC01F 		.ascii	"}\272\300\037\274z\203\005"
 246      BC7A8305 
 247              		.text
 248              		.section	.gnu.lto_.refs.f8b6c85f7a5d0586,"",%progbits
 249 0000 789C6362 		.ascii	"x\234cb`bPg\200\000>fF\026&VF6&v\006\026\030d\342`\342"
 249      60625067 
 249      80003E66 
ARM GAS  /tmp/cc0rwqKo.s 			page 19


 249      46162656 
 249      46362676 
 250 001b 80B098D9 		.ascii	"\200\260\230\331\231X\231x\230x\031\000\022\357\000"
 250      99589978 
 250      98781900 
 250      12EF00
 251 002a BB       		.ascii	"\273"
 252              		.text
 253              		.section	.gnu.lto_.decls.f8b6c85f7a5d0586,"",%progbits
 254 0000 789CBD7D 		.ascii	"x\234\275}\013t\024U\266vU\365+!\221\227\250\340\240"
 254      0B741455 
 254      B67655F5 
 254      2B219197 
 254      A8E0A0
 255 0013 B63373E7 		.ascii	"\2663s\347\272\356\272\032@F\235\271sUH\002d\004\222"
 255      BAEEBA1A 
 255      40469DB9 
 255      73554802 
 255      640492
 256 0026 BF13C671 		.ascii	"\277\023\306q\255\273\376\266I:\320\327\274\354\356"
 256      ADBBFEB6 
 256      493AD0D7 
 256      BCECEE
 257 0035 20FEFF5D 		.ascii	" \376\377]k\212\207Q\021\031\010O\021B\000\345\251\210"
 257      6B8A8751 
 257      1119084F 
 257      114200E5 
 257      A988
 258 0047 409057B0 		.ascii	"@\220W\260\361A\002\021\010 \002\"$\242\240\200(!\002"
 258      F1410211 
 258      08200222 
 258      24A2A080 
 258      282102
 259 005a 0242FE7D 		.ascii	"\002B\376}\366\251\352>U\251\352>\325\316\374\275\326"
 259      F6A9EA3E 
 259      55A9EA3E 
 259      D5CEFCBD 
 259      D6
 260 006b 3975FA74 		.ascii	"9u\372t\235\357\354\275\317>\373\354\363\250jI\220\204"
 260      9DEFECBD 
 260      CF3EFBEC 
 260      F3A86A49 
 260      9084
 261 007d 884D103A 		.ascii	"\210M\020:\340\263b\206 \244u\027\204\024A\020\036\205"
 261      E0B36286 
 261      20A47517 
 261      84144110 
 261      1E85
 262 008f 703B043B 		.ascii	"p;\004;\204\305\020\226@X\001a%\204\325\020\336\202"
 262      84C51096 
 262      40580161 
 262      2584D510 
 262      DE82
 263 00a1 B006C257 		.ascii	"\260\006\302W\020\276\206P\007\3414\204o \234\201p\026"
 263      10BE8650 
 263      07E13484 
 263      6F209C81 
ARM GAS  /tmp/cc0rwqKo.s 			page 20


 263      7016
 264 00b3 C27710CE 		.ascii	"\302w\020\316CpA\370\001\302(Q\020\376\267$\010>\010"
 264      437041F8 
 264      01C22851 
 264      10FEB724 
 264      083E08
 265 00c6 E4D30342 		.ascii	"\344\323\003B\021\244\347C\270\001A\004:\266B\330\001"
 265      11A4E743 
 265      B8014104 
 265      3AB642D8 
 265      01
 266 00d7 A101C21E 		.ascii	"\241\001\302\036\010{!|\001\3418\204\026\010w\000A}"
 266      087B217C 
 266      01E13884 
 266      16087700 
 266      417D
 267 00e9 20DC05E1 		.ascii	" \334\005\341\327\020~g\247\370\031p\355\017\341q\010"
 267      D7107E67 
 267      A7F81970 
 267      ED0FE171 
 267      08
 268 00fa BF873018 		.ascii	"\277\2070\030\302\037 \374\247]\320|H}ip=\010X]\341"
 268      C21F20FC 
 268      A75DD07C 
 268      487D6970 
 268      3D08585D 
 269 010f 9AAEF098 		.ascii	"\232\256\360\230\005\3210\010\331\020r \354\203\337"
 269      05D13008 
 269      D9107220 
 269      EC83DF
 270 011e FF0CD727 		.ascii	"\377\014\327'\224\362v\245\354\027\012M\2046\302\306"
 270      94F276A5 
 270      EC170A4D 
 270      8436C2C6 
 271 012e 6C88E64A 		.ascii	"l\210\346J\332:\010?N\201\362Ih\373-\360}\267H\371'"
 271      DA3A083F 
 271      4E81F249 
 271      68FB2DF0 
 271      7DB748F9 
 272 0143 38701106 		.ascii	"8p\021\006\210\364:_W\226|P\026BLN\242\222\247\377\020"
 272      88F43A5F 
 272      57967C50 
 272      16424C4E 
 272      A292A7FF 
 273 0158 793D04D7 		.ascii	"y=\004\327\276\014/6H\177\011a\241\"g\273\"\377\021"
 273      BE0C2F36 
 273      487F0961 
 273      A12267BB 
 273      22FF11
 274 016b 904883FC 		.ascii	"\220H\203\374.\020.+m7\022\362r\355\261v\371WH\347A"
 274      2E102E2B 
 274      6D3712F2 
 274      72EDB176 
 274      F95748E7 
 275 0180 F80D84FF 		.ascii	"\370\015\204\377e\247mv\267=F\277\307\036kS?\334\237"
 275      65A76D76 
 275      B73D46BF 
ARM GAS  /tmp/cc0rwqKo.s 			page 21


 275      C71E6B53 
 275      3FDC9F
 276 0193 0FDF0B20 		.ascii	"\017\337\013 <\014\277\331H\373B\372N\010\177\201\360"
 276      3C0CBFD9 
 276      48FB42FA 
 276      4E087F81 
 276      F0
 277 01a4 BA14D303 		.ascii	"\272\024\323\003\201\321\015U\227\236\264ku\247\325"
 277      81D10D55 
 277      979EB46B 
 277      75A7D5
 278 01b3 16D32B55 		.ascii	"\026\323+U\317\210\036\366\200\374\236\020zA\350m\243"
 278      CF881EF6 
 278      80FC9E10 
 278      7A41E86D 
 278      A3
 279 01c4 727B08C2 		.ascii	"r{\010\302\237 \014\205\320E\221\303\357\024} zAdJ\332"
 279      9F200C85 
 279      D04591C3 
 279      EF147D20 
 279      7A41644A 
 280 01d9 8AE809D1 		.ascii	"\212\350\011\321\227\026E\177\010\336&\270n\200\260"
 280      9716457F 
 280      08DE26B8 
 280      6E80B0
 281 01e8 D1A6D515 		.ascii	"\321\246\325\025\242;\031:]!\272H\262TY\252\362#Mq\273"
 281      A23B193A 
 281      5D21BA48 
 281      B25459AA 
 281      F2234D71 
 282 01fd 8DD2262A 		.ascii	"\215\322&*\367\221\353\3736m\371\035J\3715B\347\362"
 282      F791EBFB 
 282      366DF91D 
 282      4AF93542 
 282      E7F2
 283 020f BD159E44 		.ascii	"\275\025\236D\345>r\375XW\236\364\001\233\256\254\250"
 283      E53E72FD 
 283      58579EF4 
 283      019BAEAC 
 283      A8
 284 0220 941595DF 		.ascii	"\224\025\225\337\311\265IW.M\230\"\313\023\345\332*"
 284      C9B54957 
 284      2E4D9822 
 284      CB13E5DA 
 284      2A
 285 0231 795863D7 		.ascii	"yXc\327\036\302t\031>\356y]S\205\227Hv\353\233r\357"
 285      1EC27419 
 285      3EEE795D 
 285      53859748 
 285      76EB9B72 
 286 0246 DE82F057 		.ascii	"\336\202\360W\321'BV\012&\322S\021\350_\2047\340V\270"
 286      D1274256 
 286      0A26D253 
 286      11E85F84 
 286      37E056B8 
 287 025a 5FF2894B 		.ascii	"_\362\211K\305T T\022;\253\035\371\320\337\377MXI\357"
 287      C5542054 
ARM GAS  /tmp/cc0rwqKo.s 			page 22


 287      123BAB1D 
 287      F9D0DFFF 
 287      4D5849EF 
 288 026e 3FA9BF8D 		.ascii	"?\251\277\215\200\222;b\251\0161Zg\243\250V\332G\001"
 288      80923B62 
 288      A90E315A 
 288      67A3A856 
 288      DA4701
 289 0281 5B22F6C0 		.ascii	"[\"\366\300\024\222(+\224\343\035J\021\267Z\302\256"
 289      1492282B 
 289      94E31D4A 
 289      11B75AC2 
 289      AE
 290 0292 94588EE0 		.ascii	"\224X\216\340\202\232\035M\364f\0100*\267XLK &J\256"
 290      829A1D4D 
 290      F4660830 
 290      2AB7584C 
 290      4B20264A 
 291 02a7 52BE354A 		.ascii	"R\2765Jj_\005`\245eRW\231\220\372\253\004\244\256\260"
 291      6A5F0560 
 291      A5655257 
 291      9990FAAB 
 291      04A4AEB0 
 292 02bb 46AA2CA9 		.ascii	"F\252,\251\000n\005\340-\313\244\276mB\352=\011H]mB"
 292      006E05E0 
 292      2DCBA4BE 
 292      6D42EA3D 
 292      09485D6D 
 293 02d0 6A4F6106 		.ascii	"jOa\006\222\332\3305ZV\376\215Zx\255]U\271\351\255\365"
 293      92DAD835 
 293      5A56FE8D 
 293      5A78AD5D 
 293      55B9E9AD 
 294 02e5 DF4DB3C9 		.ascii	"\337M\263\311r\212O|G\354\011j7X\004\320e\342\277)\230"
 294      728A4F7C 
 294      47EC096A 
 294      375804D0 
 294      65E2BF29 
 295 02fa 89610811 		.ascii	"\211a\010\021\353\240(-E\3658\262ug\272l\247\371\202"
 295      EBA0282D 
 295      45F538B2 
 295      7567BA6C 
 295      A7F982
 296 030d 064FF3B9 		.ascii	"\006O\363\271W\250\005\202#\365;\267\212rU:\323I\346"
 296      57A80582 
 296      23F53BB7 
 296      8A72553A 
 296      D349E6
 297 0320 758DD34B 		.ascii	"u\215\323K\246\267\276[5+\003I\256\303\2362A\324\322"
 297      A6B7BE5B 
 297      352B0349 
 297      AEC39E32 
 297      41D4D2
 298 0333 EC131559 		.ascii	"\354\023\025Y\262\337\325\033\010Z\264w(\235C\022\252"
 298      B2DFD51B 
 298      085AB477 
 298      289D4312 
ARM GAS  /tmp/cc0rwqKo.s 			page 23


 298      AA
 299 0344 1082906B 		.ascii	"\020\202\220kTm\264M\230\206\320\260\320Z\377\363T\327"
 299      546DB44D 
 299      9886D0B0 
 299      D05AFFF3 
 299      54D7
 300 0356 5C3932C1 		.ascii	"\\92\301\246\3224\3152`\212F&\315;\323\326>\255\202"
 300      A6D234CD 
 300      32608A46 
 300      26CD3BD3 
 300      D63EAD82 
 301 036a 555B06EB 		.ascii	"U[\006\353\256\001;\300\202\315\263\014\326[\003\366"
 301      AE013BC0 
 301      82CDB30C 
 301      D65B03F6 
 302 037a 290BB6C8 		.ascii	")\013\266\3102\230[\003\366\031\013\366\246e\260\373"
 302      32985B03 
 302      F6190BF6 
 302      A665B0FB 
 303 038a 346047AA 		.ascii	"4`G\252\322\233\237V\264H\256\222\357[\321\225\221\207"
 303      D29B9F56 
 303      B448AE92 
 303      EF5BD195 
 303      9187
 304 039c 525C62B5 		.ascii	"R\\b\265h\316#\250E\037a\355k:i\221M\247E6\255\026\331"
 304      68CE23A8 
 304      451F61ED 
 304      6B3A6991 
 304      4DA74536 
 305 03b3 5263898E 		.ascii	"Rc\211\216\016\034\\\326\3539\320\324k\304A?\255\032"
 305      0E1C5CD6 
 305      EB39D0D4 
 305      6BC4413F 
 305      AD1A
 306 03c5 6D78D535 		.ascii	"mx\3255O\216L\264\251Dm\344\001L1\325\313\310\365\252"
 306      4F8E4CB4 
 306      A9446DE4 
 306      014C31D5 
 306      CBC8F5AA 
 307 03d9 A97DE4DA 		.ascii	"\251}\344\332\017DE*\3244\030\033\023U*;kh\337jB\002"
 307      0F44452A 
 307      D434181B 
 307      13552A3B 
 307      6B68DF6A 
 308 03ef 229DA4E2 		.ascii	"\"\235\244\342\322I\305\245\225\212+5\226 \236m7\"\227"
 308      D249C5A5 
 308      958A2B35 
 308      96209E6D 
 308      372297
 309 0402 9D7A3634 		.ascii	"\235z645\033\261\241Q\223\326\372\237^\355\375\232\034"
 309      351BB1A1 
 309      5193D6FA 
 309      9F5EEDFD 
 309      9A1C
 310 0414 996C53C9 		.ascii	"\231lS\311\332\317\003\330\335\\.s\032\322\247\373T"
 310      DACF03D8 
 310      DD5C2E73 
ARM GAS  /tmp/cc0rwqKo.s 			page 24


 310      1AD2A7FB 
 310      54
 311 0425 B02F2C83 		.ascii	"\260/,\203i\225x\036\013v\212\007\254\2679e\363Y\260"
 311      6995781E 
 311      0B768A07 
 311      ACB73965 
 311      F359B0
 312 0438 7396C1B4 		.ascii	"s\226\301\264\224-`\301\332y\300\334\346\224\325\260"
 312      942D60C1 
 312      DA79C0DC 
 312      E694D5B0 
 313 0448 60D72D83 		.ascii	"`\327-\203i)[\313\202M\2228\300\3563\247l\035\0136\325"
 313      69295BCB 
 313      824D9238 
 313      C0EE33A7 
 313      6C1D0B36 
 314 045d 32184B99 		.ascii	"2\030K\231\034\251kH\203\301\210\035\351\353\230\221"
 314      1CA96B48 
 314      83C1881D 
 314      E9EB9891 
 315 046d 3E0A26AB 		.ascii	">\012&\253c_\253\345\241\376K\223\241\276Cu&%a\226\236"
 315      635FABE5 
 315      A1FE4B93 
 315      A1BE4375 
 315      26256196 
 316 0482 095DC54A 		.ascii	"\011]\305J\272\237\201L\214>\354\010\355\023\327\213"
 316      BA9F814C 
 316      8C3EEC08 
 316      ED13D78B 
 317 0492 FF02F106 		.ascii	"\377\002\361\006\361^\2107c\274\025\343z\214\337\307"
 317      F15E8837 
 317      63BC15E3 
 317      7A8CDFC7 
 318 04a2 7807C61F 		.ascii	"x\007\306\037b\334\210\361n\214\367a\274\037\343\203"
 318      62DC88F1 
 318      6E8CF761 
 318      BC1FE383 
 319 04b2 181FC2F8 		.ascii	"\030\037\302\3700\306G1>\206\361q\214[ \216~\314\004"
 319      30C64731 
 319      3E86F171 
 319      8C5B208E 
 319      7ECC04
 320 04c5 B226BEBB 		.ascii	"\262&\276\273U\373\270\316\337\322\030A\002\360\265"
 320      55FBB8CE 
 320      DFD21841 
 320      02F0B5
 321 04d4 E5363865 		.ascii	"\34568e\322\006b\002R\277\262\346\031^\210:\261w+\000"
 321      D2066202 
 321      52BFB2E6 
 321      195E883A 
 321      B1772B00 
 322 04e8 DF5826F5 		.ascii	"\337X&\365[\023R\357J@\352ik\244N\217:\261\277V\000"
 322      5B1352EF 
 322      4A40EA69 
 322      6BA44E8F 
 322      3AB1BF56 
 323 04fd CE5A26F5 		.ascii	"\316Z&\365\234\011\251\367& \365\2145R\347E\245z\253"
ARM GAS  /tmp/cc0rwqKo.s 			page 25


 323      9C09A9F7 
 323      2620F58C 
 323      3552E745 
 323      A57AAB
 324 0510 0270DE32 		.ascii	"\002p\3362\251\337\233\220\3323\001\251\337\361\373"
 324      A9DF9B90 
 324      DA3301A9 
 324      DFF1FB
 325 051f DB4FAB65 		.ascii	"\333O\253e\311\352\2002\274\266U\237\350\217\303\353"
 325      C9EA8032 
 325      BCB6559F 
 325      E88FC3EB 
 326 052f 05F4B6F7 		.ascii	"\005\364\266\367I\011\335m\015\012\241\240]\357l\277"
 326      4909DD6D 
 326      0D0AA1A0 
 326      5DEF6CBF 
 327 053f 4F9DED76 		.ascii	"O\235\355v.g\373p\325B\364\010\022N\026l\254\221Q\250"
 327      2E67FB70 
 327      D542F408 
 327      124E166C 
 327      AC9151A8 
 328 0553 BF38E7B0 		.ascii	"\2778\347\260\023\251\277\202\324\327\330\022O\0264"
 328      13A9BF82 
 328      D4D7D812 
 328      4F1634
 329 0562 303EF1AA 		.ascii	"0>\361\252(A|M\317\302\245\327\221\205k\\,\3348Vs\207"
 329      28417C4D 
 329      CFC2A5D7 
 329      91856B5C 
 329      2CDC3856 
 330 0578 DC1A115D 		.ascii	"\334\032\021]B\025N\030^\230\230p\302\360\372\247T\352"
 330      42154E18 
 330      5E989870 
 330      C2F0FAA7 
 330      54EA
 331 058a 37A09024 		.ascii	"7\240\220$\034\323\321\315\001D\250\222%\227\226\352"
 331      1CD3D1CD 
 331      0144A892 
 331      259796EA 
 332 059a BAAA6E84 		.ascii	"\272\252n\204j\222\037\207j\0331S\222p\332F\265\326"
 332      6A921F87 
 332      6A1B3153 
 332      9270DA46 
 332      B5D6
 333 05ac 9E1ACB6B 		.ascii	"\236\032\313k\213\345\211\314\255\327b\331\022\223="
 333      8BE589CC 
 333      ADD762D9 
 333      12933D
 334 05bb D91ECDB6 		.ascii	"\331\036\315\2661\331\177\217e\253\253(\344\253~\222"
 334      31D97F8F 
 334      65ABAB28 
 334      E4AB7E92 
 335 05cb C37C5856 		.ascii	"\303|XV|\342\004\211\014\007\023%\233a1IX`\027\225&"
 335      7CE20489 
 335      0C071325 
 335      9B613149 
 335      58601795 
ARM GAS  /tmp/cc0rwqKo.s 			page 26


 336 05e0 E375CB35 		.ascii	"\343u\3135\315\325\332>\347\343o\304\231\223\344\306"
 336      CDD5DA3E 
 336      E7E36FC4 
 336      9993E4C6 
 337 05f0 7E463A07 		.ascii	"~F:\007\267\210\361\373L\344\3301\321\235\250c\370\304"
 337      B788F1FB 
 337      4CE4D831 
 337      D19DA863 
 337      F8C4
 338 0602 E9C0064F 		.ascii	"\351\300\006O\367\251\226t\2727\367\030\352\036\311"
 338      F7A99674 
 338      BA37F718 
 338      EA1EC9
 339 0611 4FAC7B8B 		.ascii	"O\254{\213\216\325t\356>\267\013\263\025\253#\213a\237"
 339      8ED574EE 
 339      3EB70BB3 
 339      15AB238B 
 339      619F
 340 0623 F8E86DA6 		.ascii	"\370\350m\246\326c\216t{L'H\306e@\362\211\243b\313H"
 340      D6638E74 
 340      7B4C2748 
 340      C66540F2 
 340      89A362CB 
 341 0638 E6AE79E4 		.ascii	"\346\256y\344\306\374^\204\320\331R\032\224^b\327\352"
 341      C6FC5E84 
 341      D0D9521A 
 341      945E62D7 
 341      EA
 342 0649 B086205A 		.ascii	"\260\206 Z\221\031\021\363\2454\023>;\375&\301\034_"
 342      911911F3 
 342      A534133E 
 342      3BFD26C1 
 342      1C5F
 343 065b 548416C7 		.ascii	"T\204\026\307\2352o\375\310f#\201\031\264Skt\370\371"
 343      9D326FFD 
 343      C8662381 
 343      19B4536B 
 343      74F8F9
 344 066e F728C7AD 		.ascii	"\367(\307\255-_\265fL\002\241\372\304\032\211\030\234"
 344      2D5FB566 
 344      4C02A1FA 
 344      C41A8918 
 344      9C
 345 067f 1BF68406 		.ascii	"\033\366\204\006G\213\203\353N\372\006_\337\204\015"
 345      478B83EB 
 345      4EFA065F 
 345      DF840D
 346 068e BE387183 		.ascii	"\2768q\203O\236\024y\257iAl\0065\211g\006Uw\266\271"
 346      4F9E1479 
 346      AF69416C 
 346      06358967 
 346      065577B6 
 347 06a3 F75BB2DC 		.ascii	"\367[\262\334\235c\316\345\023\337\304\316\3073\207"
 347      9D63CEE5 
 347      13DFC4CE 
 347      C73387
 348 06b2 7AC7A1E5 		.ascii	"z\307\241\345\235\177J\327v.2W\244b\\!\021\223r^\007"
ARM GAS  /tmp/cc0rwqKo.s 			page 27


 348      9D7F4AD7 
 348      762E3257 
 348      A4625C21 
 348      1193725E 
 349 06c7 95CCA4CE 		.ascii	"\225\314\244\316\342\355\222\360\023V\27289E\232<\251"
 349      E2ED92F0 
 349      1356BA38 
 349      39459A3C 
 349      A9
 350 06d8 F5C457AD 		.ascii	"\365\304W\255\367+s\3007\220\213\233\226\001\335\232"
 350      F72B73C0 
 350      37908B9B 
 350      9601DD9A 
 351 06e8 96DDD284 		.ascii	"\226\335\322\204\263\006\012\366\202\223\003\314l\242"
 351      B3060AF6 
 351      829303CC 
 351      6CA2
 352 06f6 0D60DB58 		.ascii	"\015`\333X\260W-\203i)\333\316\202\315\344\0013\233"
 352      B0572D83 
 352      6929DBCE 
 352      82CDE401 
 352      339B
 353 0708 EA025833 		.ascii	"\352\002X3\0136\3272\030K\331\204HK\323nQ\256N\277U"
 353      0B36D732 
 353      184BD984 
 353      484BD36E 
 353      51AE4EBF 
 354 071d A896E509 		.ascii	"\250\226\345\011r\255\323L\363\004\001o\221\343\336"
 354      72ADD34C 
 354      F304016F 
 354      91E3DE
 355 072c E2133749 		.ascii	"\342\0237I\267j\273\346\301W\272\222\256I\362\023\333"
 355      B76ABBE6 
 355      C157BA92 
 355      AE49F213 
 355      DB
 356 073d E2434AD7 		.ascii	"\342CJ\327\204\373\220\271\327\2219R6\031S%G\2167\245"
 356      84FB90B9 
 356      D7913952 
 356      36195325 
 356      478E37A5 
 357 0751 C953D2D5 		.ascii	"\311S\322\325q\351\361\025q\010\257\327\333\224\303"
 357      71E9F115 
 357      7108AFD7 
 357      DB94C3
 358 0760 4D929B66 		.ascii	"M\222\233f'\246\373h\323\202\336r\355\016\221\177\251"
 358      27A6FB68 
 358      D382DE72 
 358      ED0E917F 
 358      A9
 359 0771 AAEEEC85 		.ascii	"\252\356\354\205\235\342D\354\301\021du\241\323\320"
 359      9DE244EC 
 359      C1116475 
 359      A1D3D0
 360 0780 187040B5 		.ascii	"\030p@\265\235\2730K1\006\037\"\3242\247\336\030X]\367"
 360      9DBB304B 
 360      31061F22 
ARM GAS  /tmp/cc0rwqKo.s 			page 28


 360      D432A7DE 
 360      18585DF7 
 361 0794 B274B324 		.ascii	"\262t\263$\274\213\025\326K\374\213d\032\361\201!\370"
 361      BC8B15D6 
 361      4BFC8B64 
 361      1AF18121 
 361      F8
 362 07a5 F6016591 		.ascii	"\366\001e\221\214\012\243\3162`w]\303H\302\326du\207"
 362      8C0AA3CE 
 362      3260775D 
 362      C348C2D6 
 362      647587
 363 07b8 619D72ED 		.ascii	"a\235r\355\023\267Hd\346\273M\272\227\255\240\236\247"
 363      13B74864 
 363      E6BB4DBA 
 363      97ADA09E 
 363      A7
 364 07c9 E799AD0B 		.ascii	"\347\231\255\013A7\276"
 364      4137BE
 365 07d0 C076E30F 		.ascii	"\300v\343\017,\203\2715`\027Y\260\006\0360\2679e?\262"
 365      2C83B935 
 365      601759B0 
 365      061E30B7 
 365      39653FB2 
 366 07e4 609F5806 		.ascii	"`\237X\006\323Rv\231\005\333\317\003f\264.d\364a\035"
 366      D3527699 
 366      05DBCF03 
 366      66B42E64 
 366      F4611D
 367 07f7 019FB804 		.ascii	"\001\237\270\004\307\335\245\330Roa\274\006\343\265"
 367      C7DDA5D8 
 367      526F61BC 
 367      06E3B5
 368 0806 18AFC378 		.ascii	"\030\257\303x\003\306\0331n\302x\017\306\3730\336\317"
 368      03C61B31 
 368      6EC2780F 
 368      C6FB30DE 
 368      CF
 369 0817 B66F1CAF 		.ascii	"\266o\034\257\355Ju_b\322\026\242\327vH\327\331t^[\215"
 369      ED4A755F 
 369      62D216A2 
 369      D77648D7 
 369      D9745E5B 
 370 082c 09AB84FA 		.ascii	"\011\253\204\372Cq\274\266Cz\257\255\325i\325kc\232"
 370      4371BCB6 
 370      437AAFAD 
 370      D569D56B 
 370      639A
 371 083e 017DF61F 		.ascii	"\001}\366\037?\023'M\222W\364S;\3317zD\213+\321G^Oo"
 371      3F13274D 
 371      9257F453 
 371      3BD9377A 
 371      448B2BD1 
 372 0856 7E5A053B 		.ascii	"~Z\005;o\031L\337c\325v\234\211\3558\013[d\001\306\207"
 372      6F194CDF 
 372      63D5769C 
 372      89ED380B 
ARM GAS  /tmp/cc0rwqKo.s 			page 29


 372      5B6401C6 
 373 086b 313EAAED 		.ascii	"1>\252\355}m\235\214\034u\367\031\274\330\274@H\214"
 373      7D6D9D8C 
 373      1C75F719 
 373      BCD8BC40 
 373      488C
 374 087d 68D648D3 		.ascii	"h\326H\323\244\350\352\200$\\w\352&N\326\032!Rs\002"
 374      A4E8EA80 
 374      245C77EA 
 374      264ED61A 
 374      21527302 
 375 0891 FA4222BF 		.ascii	"\372B\"\277\271\326\256\"eEu\256u\366\265H\357-\340"
 375      B9D6AE22 
 375      654575AE 
 375      75F6B548 
 375      EF2DE0
 376 08a4 82FAC416 		.ascii	"\202\372\304\026\364\233\267\272\022\372\315Z\034I\370"
 376      F49BB7BA 
 376      12FACD5A 
 376      1C49F8
 377 08b3 088B9CD4 		.ascii	"\010\213\234\324\215s\255\3657[\1775\017\221Or\215u"
 377      8D73ADF5 
 377      375B7F35 
 377      0F914F72 
 377      8D75
 378 08c5 D78D961B 		.ascii	"\327\215\226\033(Yf2<\255W\346I)*)\311MAn\356D\233r"
 378      28596632 
 378      3CAD57E6 
 378      49292A29 
 378      C94D416E 
 379 08dd 1A7BE014 		.ascii	"\032{\340\024\313`\332F\231\331\260\300\342\216\312"
 379      CB60DA46 
 379      99D9B0C0 
 379      E28ECA
 380 08ec C12567FA 		.ascii	"\301%g\372\324\243\310\316\241\362\177\236\242\327E"
 380      D4A3C8CE 
 380      A1F27F9E 
 380      A2D745
 381 08fb E2BE6874 		.ascii	"\342\276ht\221\307\237>\311\303\210i\207$-\331\334w"
 381      91C79F3E 
 381      C9C38869 
 381      87242DD9 
 381      DC77
 382 090d F33A597E 		.ascii	"\363:Y~\331\251z<\246\256\232$\234\301\312.\350\265"
 382      D9A97A3C 
 382      A6AE9A24 
 382      9CC1CA2E 
 382      E8B5
 383 091f E1E0F2FD 		.ascii	"\341\340\362\375\367Sm\270\300\245\015\3575\315\345"
 383      F7536DB8 
 383      C0A50DEF 
 383      35CDE5
 384 092e 9A0CD63A 		.ascii	"\232\014\326:\325\352\213\260\372\325\251\244\372K\372"
 384      D5EA8BB0 
 384      FAD5A9A4 
 384      FA4BFA
 385 093d EA5B569F 		.ascii	"\352[V\237y\224V\177\211\253\372\226}\263\214\224\321"
ARM GAS  /tmp/cc0rwqKo.s 			page 30


 385      7994567F 
 385      89ABFA96 
 385      7DB38C94 
 385      D1
 386 094e 64BEAE36 		.ascii	"d\276\2566\337\362\266\373\026a%WQ\201.\245\352\233"
 386      DFF2B6FB 
 386      16612557 
 386      51812EA5 
 386      EA9B
 387 0960 EFB134B6 		.ascii	"\357\2614\266.\374\256\321\337\233Q\352\223\322_`s\307"
 387      2EFCAED1 
 387      DF9B51EA 
 387      93D25F60 
 387      73C7
 388 0972 632BB1A5 		.ascii	"c+\261\245T\032&v\261\212\250U\342\213\373\260GP\260"
 388      541A2676 
 388      B18AA855 
 388      E28BFBB0 
 388      4750B0
 389 0985 2A1EB038 		.ascii	"*\036\2608\226\375G\026l\212e0-e\227Y\260i<`qv\371~"
 389      96FD4716 
 389      6C8A6530 
 389      2D659759 
 389      B0693C60 
 390 099d 62C1AA2D 		.ascii	"b\301\252-\203i)\273\306\202\315\341\001\213\263\313"
 390      836929BB 
 390      C682CDE1 
 390      018BB3CB 
 391 09ad F7330B36 		.ascii	"\3673\0136\3372\230\226\262\233,X\015\017\230\333\234"
 391      DF329896 
 391      B29B2C58 
 391      0D0F98DB 
 391      9C
 392 09be B2E90718 		.ascii	"\262\351\007\030\260%\226\301\264\224U\263`\313x\300"
 392      B02596C1 
 392      B49455B3 
 392      60CB78C0 
 393 09ce E2ECF2CD 		.ascii	"\342\354\362\315b\301VY\006\323R6\207\005[\303\003f"
 393      62C15659 
 393      06D35236 
 393      87055BC3 
 393      0366
 394 09e0 B4D7A66E 		.ascii	"\264\327\246n\000\263`\353,\203i)\233\317\202m\344\001"
 394      00B360EB 
 394      2C836929 
 394      9BCF826D 
 394      E401
 395 09f2 7BC49CB2 		.ascii	"{\304\234\262\005,\330\026\313`Z\312\326\262`\333y\300"
 395      052CD816 
 395      CB605ACA 
 395      D6B260DB 
 395      79C0
 396 0a04 1E37A76C 		.ascii	"\0367\247l\035\013\266\3032\230\226\262\015,\330G<`"
 396      1D0BB6C3 
 396      329896B2 
 396      0D2CD847 
 396      3C60
ARM GAS  /tmp/cc0rwqKo.s 			page 31


 397 0a16 C3CC29DB 		.ascii	"\303\314)\333\310\2025X\006\323R\266\211\005\333\315"
 397      C8823558 
 397      06D352B6 
 397      8905DBCD 
 398 0a26 0396674E 		.ascii	"\003\226gN\331\026\026l\217e0-e\333X\260f\036\260\277"
 398      D916166C 
 398      8F65302D 
 398      65DB58B0 
 398      661EB0BF 
 399 0a3a 9A53B69D 		.ascii	"\232S\266\235\005\373\3242\230\226\262f\026\354\010"
 399      05FBD432 
 399      9896B266 
 399      16EC08
 400 0a49 0FD8D306 		.ascii	"\017\330\323\006\224E?f~\346\217\254\257~\254\213\352"
 400      94453F66 
 400      7EE68FAC 
 400      AF7EAC8B 
 400      EA
 401 0a5a E0581CA3 		.ascii	"\340X\034\243\205\030FK\027\253\036\231\206o\342[\367"
 401      8518464B 
 401      17AB1E99 
 401      866FE25B 
 401      F7
 402 0a6b DDA28CF3 		.ascii	"\335\242\214\363\324Y=\305\203\030g\000T\016\223P\260"
 402      D4593DC5 
 402      83186700 
 402      540E9350 
 402      B0
 403 0a7c F396C174 		.ascii	"\363\226\301t\252\334\240\237\216DO\354EL\367\315`*"
 403      AADCA09F 
 403      8E444FEC 
 403      454CF7CD 
 403      602A
 404 0a8e 8FA70D96 		.ascii	"\217\247\015\226\352\216\340\231\236P\355\324L\033l"
 404      EA8EE099 
 404      9E50EDD4 
 404      4C1B6C
 405 0a9d 4C335DE2 		.ascii	"L3]\342\341!\316\270\333\322\260\000\267\016\371\317"
 405      E121CEB8 
 405      DBD2B000 
 405      B70EF9CF 
 406 0aad 1A1E5CB2 		.ascii	"\032\036\\\262_\361\3367\331\210\367\376s\027\303\225"
 406      5FF1DE37 
 406      D988F7FE 
 406      7317C395 
 407 0abd 370EA4BA 		.ascii	"7\016\244\272\263\315u\312\"\336V\204z!-Y\250\266s\255"
 407      B3CD75CA 
 407      22DE5684 
 407      7A212D59 
 407      A8B673AD 
 408 0ad1 939445BC 		.ascii	"\223\224E\274\355\010\365\252\016\312\362\021\310\177"
 408      ED08F5AA 
 408      0ECAF211 
 408      C87F
 409 0adf D6BD9230 		.ascii	"\326\275\22207M\327dF\333\207\346\336\015\364\212#\367"
 409      374DD764 
 409      46DB87E6 
ARM GAS  /tmp/cc0rwqKo.s 			page 32


 409      DE0DF48A 
 409      23F7
 410 0af1 6C5E23CB 		.ascii	"l^#\313\223\234V\032m\227\322h\037\242x\026u\022\317"
 410      939C561A 
 410      6D97D268 
 410      1FA27816 
 410      7512CF
 411 0b04 56FD2267 		.ascii	"V\375\"gB>\226[\346\343>\035\037\221\373\254\363qT\341"
 411      423E965B 
 411      E6E33E1D 
 411      1F91FBAC 
 411      F37154E1 
 412 0b18 A311F978 		.ascii	"\243\021\371x\347\037\300\307{\226\371`\317(\342\274"
 412      E71FC0C7 
 412      7B96F960 
 412      CF28E2BC 
 413 0b28 F1013A6F 		.ascii	"\361\001:o\344Z\342\337c\323-\361\037\335-\272iv\242"
 413      E45AE2DF 
 413      63D32DF1 
 413      1FDD2DBA 
 413      6976A2
 414 0b3b 099B1CB9 		.ascii	"\011\233\034\271\262\233\231l\313|\223\3556Eb\315(\261"
 414      B29B996C 
 414      CB7C93ED 
 414      364562CD 
 414      28B1
 415 0b4d ED467D8C 		.ascii	"\355F}\214\013\251\356lc\357\325\210t\020\221>J\032"
 415      0BA9EE6C 
 415      63EFD588 
 415      7410913E 
 415      4A1A
 416 0b5f A9EDDC4F 		.ascii	"\251\355\334OUJo\375\014\241>\351\324\214N]+:\265\255"
 416      554A6FFD 
 416      0CA13EE9 
 416      D48C4E5D 
 416      2B3AB5AD 
 417 0b73 085F495D 		.ascii	"\010_I]?\221\311\277\3707%\207|q\011\377\337\313I\302"
 417      3F91C9BF 
 417      F8372587 
 417      7C7109FF 
 417      DFCB49C2 
 418 0b87 67483E69 		.ascii	"gH>iA\213ceL\203\376}\2632\316\321V:\376\213\020'F\326"
 418      418B6365 
 418      4C83FE7D 
 418      B332CED1 
 418      563AFE8B 
 419 0b9f BFB250D9 		.ascii	"\277\262P\331\011z\214\214t\247\177!\334\376&\353k<"
 419      097A8C8C 
 419      74A77F21 
 419      DCFE26EB 
 419      6B3C
 420 0bb1 3BEEA46A 		.ascii	";\356\244j\327\202\014\235\357\324\302I\255\361\\M\226"
 420      D7820C9D 
 420      EFD4C249 
 420      ADF15C4D 
 420      96
 421 0bc2 91E84712 		.ascii	"\221\350G\022\344t\216!\323\035\257\265~z\200s\235("
ARM GAS  /tmp/cc0rwqKo.s 			page 33


 421      E4748E21 
 421      D31DAFB5 
 421      7E7A8073 
 421      9D28
 422 0bd4 BAFAF86D 		.ascii	"\272\372\370m\357F\024\306)\033Y}\234\234n\270\372\030"
 422      EF4614C6 
 422      291B597D 
 422      9C9C6EB8 
 422      FA18
 423 0be6 6FBD6926 		.ascii	"o\275i&\026\371\326\326i\365\261\271\017]\360!?q\254"
 423      16F9D6D6 
 423      69F5B1B9 
 423      0F5DF021 
 423      3F71AC
 424 0bf9 3755A97A 		.ascii	"7U\251zA\027\025\277\221$\0056Yyj\2320F\237O<k#n\316"
 424      411715BF 
 424      91240536 
 424      59796A9A 
 424      30469F4F 
 425 0c12 399B66D9 		.ascii	"9\233f\331y\251e\331\273Y\331G\2567-\020\011\375\006"
 425      79A965D9 
 425      BB59D947 
 425      AE372D10 
 425      09FD06
 426 0c25 4B648FB3 		.ascii	"Kd\217\263\016eT\360\255}v\241x\276G\301\277m\"\370"
 426      0E6554F0 
 426      AD7D76A1 
 426      78BE47C1 
 426      BF6D22F8 
 427 0c39 C7CD7024 		.ascii	"\307\315p$\241\036\213\264u\026|\343\235T\360m\\\202"
 427      A11E8BB4 
 427      75167CE3 
 427      9D54F06D 
 427      5C82
 428 0c4b 3F6428F8 		.ascii	"?d(\3706\353\202\217>'\020ud}\342\031\313`\356x\255"
 428      36EB828F 
 428      3E271075 
 428      647DE219 
 428      CB60EE78 
 429 0c60 D8C6B462 		.ascii	"\330\306\264b;\266\342\2176\262\340\177I\333\226{\365"
 429      3BB6E28F 
 429      36B2E07F 
 429      49DB967B 
 429      F5
 430 0c71 6DA9919C 		.ascii	"m\251\221\234\2224]\276\220#3\367\252\273\325\324\346"
 430      92345DBE 
 430      902333F7 
 430      AABBD5D4 
 430      E6
 431 0c82 1DE5D18D 		.ascii	"\035\345\321\2158\213\0165{Q$\324\336\264X\006sk\300"
 431      388B0E35 
 431      7B5124D4 
 431      DEB45806 
 431      736BC0
 432 0c95 EAA7719E 		.ascii	"\352\247q\236\012\214\236\274\354\216B9\213\365\336"
 432      0A8C9EBC 
 432      EC8E4239 
ARM GAS  /tmp/cc0rwqKo.s 			page 34


 432      8BF5DE
 433 0ca4 D0ABCBFE 		.ascii	"\320\253\313\376o\366\277(N\300\021\357\006\207\276"
 433      6FF6BF28 
 433      4EC011EF 
 433      0687BE
 434 0cb3 C0407F2A 		.ascii	"\300@\177*U\256NW\365\366\215[T\3248\242\216\243-\327"
 434      55AE4E57 
 434      F5F68D5B 
 434      54D438A2 
 434      8EA32DD7 
 435 0cc7 CFEC1211 		.ascii	"\317\354\022\021\216N|\336\322\303%\234\227i\341n\372"
 435      8E4E7CDE 
 435      D2C3259C 
 435      9769E16E 
 435      FA
 436 0cd8 8D8FAE99 		.ascii	"\215\217\256\231\013F=\270\266\231\270:Uv\302\323\206"
 436      0B463DB8 
 436      B699B83A 
 436      5576C2D3 
 436      86
 437 0ce9 5BF42302 		.ascii	"[\364#\002\225\014\243\2107\030E\354@E\224\355D\021"
 437      950CA388 
 437      371845EC 
 437      404594ED 
 437      4411
 438 0cfb 27623CD9 		.ascii	"'b<\331\316\261\377\364\202\235\231,m\263\314\267[\327"
 438      CEB1FFF4 
 438      829D992C 
 438      6DB3CCB7 
 438      5BD7
 439 0d0d 3A66D5FC 		.ascii	":f\325\374\314\316\311>\274\205C\367\314\327\250\210"
 439      CCCEC93E 
 439      BC8543F7 
 439      CCD7A888 
 440 0d1d 51FFA3EA 		.ascii	"Q\377\243\352\016\320\035\222=\226\021\265\332\3346"
 440      0ED01D92 
 440      3D9611B5 
 440      DADC36
 441 0d2c 4DE30E1C 		.ascii	"M\343\016\034\341\201{\334\200@\243\017\273'\346\023"
 441      E1817BDC 
 441      8040A30F 
 441      BB27E613 
 442 0d3c BFC6EDC7 		.ascii	"\277\306\355\307S\270A\370-\306g1\376\001\343w\320\216"
 442      53B841F8 
 442      2DC66731 
 442      FE01E377 
 442      D08E
 443 0d4e BC8BF17A 		.ascii	"\274\213\361z\214\337\303\370\003\214\0330\376\004\343"
 443      8CDFC3F8 
 443      038C1B30 
 443      FE04E3
 444 0d5d AF313E8F 		.ascii	"\2571>\217\361\025\214\257b|\035\343WP\001^M\244\000"
 444      F1158CAF 
 444      627C1DE3 
 444      5750015E 
 444      4DA400
 445 0d70 CA2830E3 		.ascii	"\312(0\343\207\243}\337B[}\002\325\177^W\275\346\235"
ARM GAS  /tmp/cc0rwqKo.s 			page 35


 445      87A37DDF 
 445      425B7D02 
 445      D57F5E57 
 445      BDE69D
 446 0d83 96743B16 		.ascii	"\226t;\026\235\266\334Vw\345\330\272\214\263\271\324"
 446      9DB6DC56 
 446      77E5D8BA 
 446      8CB3B9D4 
 447 0d93 FED9DEC3 		.ascii	"\376\331\336\303\342LYn\354G\365\337'\336\264IZDm\217"
 447      E24C596E 
 447      EC47F5DF 
 447      27DEB449 
 447      5A446D8F 
 448 0da7 89A38D4A 		.ascii	"\211\243\215J\243\036\257Y\304\267w\024=\000\370\333"
 448      A31EAF59 
 448      C4B77714 
 448      3D00F8DB 
 449 0db7 984C0EB5 		.ascii	"\230L\016\265\037\375\037\352\201\317\306\336\370\275"
 449      1FFD1FEA 
 449      81CFC6DE 
 449      F8BD
 450 0dc5 4E260971 		.ascii	"N&\011q\210\224\346\331u\207~\332N\340AB\222\237\370"
 450      8894E6D9 
 450      75877EDA 
 450      4EE04142 
 450      929FF8
 451 0dd8 20E1A513 		.ascii	" \341\245\023\263\024\245\244\207\033\256!\011\244l"
 451      B314A5A4 
 451      871BAE21 
 451      09A46C
 452 0de7 12432239 		.ascii	"\022C\"9)q\2029)q\3232\230[\003\366\023\0136\261\033"
 452      29718239 
 452      2971D332 
 452      985B03F6 
 452      130B36B1 
 453 0dfc 07589CB3 		.ascii	"\007X\234\263p\327X\260\027,\203i)\373\231\005{\211"
 453      70D758B0 
 453      172C8369 
 453      29FB9905 
 453      7B89
 454 0e0e 072CCE59 		.ascii	"\007,\316Y\270\233,\3304\313`Z\312\246\2670`\263y\300"
 454      B89B2CD8 
 454      34CB605A 
 454      CAA6B730 
 454      60B379C0 
 455 0e22 E21CEFA9 		.ascii	"\342\034\357\251f\301\026X\006\323R6\213\005{\203\007"
 455      66C11658 
 455      06D35236 
 455      8B057B83 
 455      07
 456 0e33 CC6D4099 		.ascii	"\314m@\231\321\207\355\004>\3615;\261~\363\321:-\300"
 456      D187ED04 
 456      3EF1353B 
 456      B17EF3D1 
 456      3A2DC0
 457 0e46 B806E35A 		.ascii	"\270\006\343Z\214\227`\374\006\306\3130^\201\361*\236"
 457      8C9760FC 
ARM GAS  /tmp/cc0rwqKo.s 			page 36


 457      06C6CB30 
 457      5E81F12A 
 457      9E
 458 0e57 816C163B 		.ascii	"\201l\026;\220\255\352\306a\215\342,!\265\3179\376\213"
 458      90ADEAC6 
 458      618DE22C 
 458      21B5CF39 
 458      FE8B
 459 0e69 4EA0B7D6 		.ascii	"N\240\267\326_\337\365'b>\022\237B_k\347;\205\276No"
 459      5FDFF527 
 459      623E129F 
 459      425F6BE7 
 459      3B85BE4E 
 460 0e7e 4B2EEDA5 		.ascii	"K.\355\245OL'\266%`\013\257p\272k\021\221\225N\324\026"
 460      4F4C27B6 
 460      25600BAF 
 460      70BA6B11 
 460      91954ED4 
 461 0e93 EE7A94DA 		.ascii	"\356z\224\332\302\215h\013/uKh\013\2658\204\276\315"
 461      C28D680B 
 461      2F754B68 
 461      0BB53884 
 461      BECD
 462 0ea5 7AFAD7EF 		.ascii	"z\372\327\357C\3727s\331\302\367\366im\341K\335E\005"
 462      43FA3773 
 462      D9C2F7F6 
 462      696DE14B 
 462      DD4505
 463 0eb8 33395BB8 		.ascii	"39[\270i\037\243\360\257X\006sk\300\266\260`\323y\300"
 463      691FA3F0 
 463      AF580673 
 463      6BC0B6B0 
 463      60D379C0 
 464 0ecc E29D0B66 		.ascii	"\342\235\013f\301fY\006\323R\266\235\005{\215\007,\336"
 464      C1665906 
 464      D352B69D 
 464      057B8D07 
 464      2CDE
 465 0ede B96016AC 		.ascii	"\271`\026\254\3062\230\333\250y\205N\332\341\023\267"
 465      C63298DB 
 465      A879854E 
 465      DAE113B7 
 466 0eee A091D88A 		.ascii	"\240\221\330\212]\277\036\343\3671\336\201\361\207\030"
 466      5DBF1EE3 
 466      F731DE81 
 466      F18718
 467 0efd 7FCC6312 		.ascii	"\177\314c\022\352X\223\260\004\011^\227\234\306\020"
 467      EA5893B0 
 467      04095E97 
 467      9CC610
 468 0f0c A7F3FA97 		.ascii	"\247\363\372\227\377A\367Zt\207A\210<\314(\330\305R"
 468      FF41F75A 
 468      74874188 
 468      3CCC28D8 
 468      C552
 469 0f1e B0D23205 		.ascii	"\260\3222\005n\226\202\310\365\275t+B\335\015X\243\307"
 469      6E9682C8 
ARM GAS  /tmp/cc0rwqKo.s 			page 37


 469      F5BD742B 
 469      42DD0D58 
 469      A3C7
 470 0f30 335A978D 		.ascii	"3Z\227\2157K\331\213\217\322S\260:\313`\332\327\017"
 470      374BD98B 
 470      8FD253B0 
 470      3ACB60DA 
 470      D70F
 471 0f42 4CDFC780 		.ascii	"L\337\307\200\275o\031\314\354\264\336z\324\205\015"
 471      BD6F19CC 
 471      ECB4DE7A 
 471      D4850D
 472 0f51 D8E68D18 		.ascii	"\330\346\215\0307a\274\007\343}\254\026H\302\316\356"
 472      3761BC07 
 472      E37DAC16 
 472      48C2CEEE 
 473 0f61 7ABF951A 		.ascii	"z\277\225\032G\0065fE\005^\\\263\266]\303\266\355\321"
 473      47063566 
 473      45055E5C 
 473      B3B65DC3 
 473      B6EDD1
 474 0f74 EE1C038E 		.ascii	"\356\034\003\216\333\\\273\332\347\264(\003\016\005"
 474      DB5CBBDA 
 474      E7B42803 
 474      0E05
 475 0f82 8609BA65 		.ascii	"\206\011\272eD\255\266\314n\251\321\234u?\305\203\027"
 475      44ADB6CC 
 475      6EA9D19C 
 475      753FC583 
 475      17
 476 0f93 E730C502 		.ascii	"\3470\305\002\352\"P\260\037,\203\271\005"
 476      EA2250B0 
 476      1F2C83B9 
 476      05
 477 0fa0 D30FFB74 		.ascii	"\323\017\373t\037L`p\367\357g|\026\370U\234\024\035"
 477      1F4C6070 
 477      F7EF677C 
 477      16F8559C 
 477      141D
 478 0fb2 C7B81A5B 		.ascii	"\307\270\032[f&\306oc|\020\343C\030\037\346i\261\313"
 478      6626C66F 
 478      637C10E3 
 478      43181FE6 
 478      69B1CB
 479 0fc5 22D36257 		.ascii	"\"\323bW\221\205v\013g-\265-\326v\340\360b\265\305\246"
 479      9185760B 
 479      672DB52D 
 479      D676E0F0 
 479      62B5C5A6 
 480 0fd9 E1B4E9A6 		.ascii	"\341\264\351\246eDm\213]\246KV\024lr\017\0160\243\316"
 480      65446D8B 
 480      5DA64B56 
 480      146C720F 
 480      0E30A3CE 
 481 0fed 6D2CE176 		.ascii	"m,\341vF\302?\242\204/\241\204?G\351}\301#\275"
 481      46C23FA2 
 481      842FA184 
ARM GAS  /tmp/cc0rwqKo.s 			page 38


 481      3F47E97D 
 481      C123BD
 482 1000 1F62D2E3 		.ascii	"\037b\322\343_\346n\371\352\310\237W\321\251%>\2338"
 482      5FE66EF9 
 482      EAC89F57 
 482      D1A9253E 
 482      9B38
 483 1012 A5C73F60 		.ascii	"\245\307?`\231;Ex\221>})O\020\237e\354\021cc\330\267"
 483      993B4578 
 483      913E7D29 
 483      4F109F65 
 483      EC116363 
 484 1028 237D694F 		.ascii	"#}iO!\013\304=\264\033\221L\215\344\006\225s\232VSP"
 484      210BC43D 
 484      B41B914C 
 484      8DE40695 
 484      739A5653 
 485 103d E41EA146 		.ascii	"\344\036\241F\216\\hm_u\266\367jb\376\345\233\035\177"
 485      8E5C686D 
 485      5F75B6F7 
 485      6A62FEE5 
 485      9B1D7F
 486 1050 9B3051D4 		.ascii	"\2330Q\324=\301g\217\363\340\270]\363\004\237\241C\231"
 486      3DC1678F 
 486      F3E0B85D 
 486      F3049FA1 
 486      4399
 487 1062 68817CEB 		.ascii	"h\201|\353\232\213}\250\007\366-z`/\364\264\270@\216"
 487      9A8B7DA8 
 487      07F62D7A 
 487      602FF4B4 
 487      B8408E
 488 1075 CF5AEB3D 		.ascii	"\317Z\353=\260:\372\030\3609.\017r\363\316\267L=H\235"
 488      B03AFA18 
 488      F0392E0F 
 488      72F3CEB7 
 488      4C3D489D 
 489 1089 43AC5FF3 		.ascii	"C\254_\363\233\017\324&\\\001\363\211\027\354\270J\253"
 489      9B0FD426 
 489      5C01F389 
 489      17ECB84A 
 489      AB
 490 109a A7726615 		.ascii	"\247rf\025R\331\306E\345\354\235\270\220g\376\260%\277"
 490      52D9C645 
 490      E5EC9DB8 
 490      9067FEB0 
 490      25BF
 491 10ac EA1E5A7F 		.ascii	"\352\036Z\177\362\217\357\240\352^F\325=\325S\257\272"
 491      F28FEFA0 
 491      EA5E46D5 
 491      3DD553AF 
 491      BA
 492 10bd 0E9DE63A 		.ascii	"\016\235\346:\264\232\353H\215%\024\3155k\232Kv\335"
 492      B49AEB48 
 492      8D2514CD 
 492      356B9A4B 
 492      76DD
ARM GAS  /tmp/cc0rwqKo.s 			page 39


 493 10cf 539E8FA5 		.ascii	"S\236\217\245\031\352\013\327\371\211m\270\022\230`"
 493      19EA0BD7 
 493      F9896DB8 
 493      129860
 494 10de 5BD78C92 		.ascii	"[\327\214\222\353vv\245'\366\324)>\204,$|\360\024\217"
 494      EB7676A5 
 494      27F6D429 
 494      3E842C24 
 494      7CF0148F 
 495 10f2 C9B003E3 		.ascii	"\311\260\003\343w(\265\266\244\335\256\255k\016\364"
 495      7728B5B6 
 495      A4DDAEAD 
 495      6B0EF4
 496 1101 EE3C11D3 		.ascii	"\356<\021\323\365\276\313q\272\337\004\007\237h\251"
 496      F5BECB71 
 496      BADF0407 
 496      9F68A9
 497 1110 EF628632 		.ascii	"\357b\2062\331\361\213\305\";\030\261\\\264,\0267+\026"
 497      D9F18BC5 
 497      223B18B1 
 497      5CB42C16 
 497      372B16
 498 1123 192C51AA 		.ascii	"\031,Q\2523\236H\232\3430\363\262\271H\242\347\003\270"
 498      339E489A 
 498      E330F3B2 
 498      B948A2E7 
 498      03B8
 499 1135 587A8965 		.ascii	"Xz\211e\351\012\017K\346\356\350/c\351\357\006,q\261"
 499      E90A0F4B 
 499      E6EEE82F 
 499      63E9EF06 
 499      2C71B1
 500 1148 30CDA15B 		.ascii	"0\315\241[\310\274n\231\015\267\240\375\304\374\313"
 500      C8BC6E99 
 500      0DB7A0FD 
 500      C4FCCB
 501 1157 761C5D3B 		.ascii	"v\034];0~\321\201\036\215\203c\244\375\236\355@\035"
 501      307ED181 
 501      1E8D8363 
 501      A4FD9EED 
 501      401D
 502 1169 48CF39EB 		.ascii	"H\3179\353\035\310\350\303\016\002>\361;t\256\317\363"
 502      1DC8E8C3 
 502      0E023EF1 
 502      3B74AECF 
 502      F3
 503 117a 0CFEDFC4 		.ascii	"\014\376\337\304H\212\212\2309gEI\235t\253\326B\376"
 503      488A8A98 
 503      39674549 
 503      9D74ABD6 
 503      42FE
 504 118c 56582ACB 		.ascii	"VX*\313\3258t\236%\255Ka$a*\336\367\265\375\036\303"
 504      D538749E 
 504      25AD4B61 
 504      24612ADE 
 504      F7B5FD1E 
 505 11a1 EA94CA68 		.ascii	"\352\224\312hay.8E\"\255\013\346\326\011\012*\024\375"
ARM GAS  /tmp/cc0rwqKo.s 			page 40


 505      61792E38 
 505      4522AD0B 
 505      E6D6090A 
 505      2A14FD
 506 11b4 4E7893E8 		.ascii	"Nx\223\350\315\341\257\363\206)oO0/\244\3607\313\241"
 506      CDE1AFF3 
 506      86296F4F 
 506      302FA4F0 
 506      37CBA1
 507 11c7 79672719 		.ascii	"yg'\031\364[/\264\036\335r\266\230<A,wt\374M?\342\023"
 507      F45B2FB4 
 507      1EDD72B6 
 507      983C412C 
 507      7774FC4D 
 508 11de F7C04C5A 		.ascii	"\367\300LZ\257;\022\016\371\232\205\343\350+/\006\012"
 508      AF3B120E 
 508      F99A85E3 
 508      E82B2F06 
 508      0A
 509 11ef CC7B3F3E 		.ascii	"\314{?>\032\200o\240\250q\220\021\177\351\255\206#\276"
 509      1A806FA0 
 509      A8719011 
 509      7FE9AD86 
 509      23BE
 510 1201 390C3EBF 		.ascii	"9\014>\277\346\320\215\245\207\032\350\203\354\016\236"
 510      E6D08DA5 
 510      871AE883 
 510      EC0E9E
 511 1210 B1F4F88B 		.ascii	"\261\364\370\213\346\353\347\372\021_\363>CIx\373V\343"
 511      E6EBE7FA 
 511      115FF33E 
 511      434978FB 
 511      56E3
 512 1222 115F731B 		.ascii	"\021_s\033\324\357 #\376r=\225\353_D*\227sQY\327\220"
 512      D4EF2023 
 512      FE723D95 
 512      EB5F442A 
 512      97735159 
 513 1238 60C48FDF 		.ascii	"`\304\217\337T\253\2235\034\253X\333\267\005[\207\020"
 513      54AB9335 
 513      1CAB58DB 
 513      B7055B87 
 513      10
 514 1249 9CD42847 		.ascii	"\234\324(Gm\037\305\204i\254e0\2679\330A\036\260DVY"
 514      6D1FC584 
 514      69AC6530 
 514      B739D841 
 514      1EB04456 
 515 125e 053B6619 		.ascii	"\005;f\031\314\200\262d[jc\274QK\231ED\277+\343\265"
 515      CC80B264 
 515      5B6A63BC 
 515      514B9945 
 515      44BF2BE3 
 516 1273 FE77AE96 		.ascii	"\376w\256\226\255\213\265\254O\254\212\252h\034\226"
 516      AD8BB5AC 
 516      4FAC8AAA 
 516      681C96
ARM GAS  /tmp/cc0rwqKo.s 			page 41


 517 1282 CD0FD4FE 		.ascii	"\315\017\324\3762\226\353\255\260\254xnI\261\274\215"
 517      3296EBAD 
 517      B0AC786E 
 517      49B1BC8D 
 518 1292 65F9A6DD 		.ascii	"e\371\246\335*\313q\364\3574\217\312\230\237\277\375"
 518      2ACB71F4 
 518      EF348FCA 
 518      989FBFFD 
 519 12a2 65F2DBC9 		.ascii	"e\362\333\311\351\373%<\346\242\330\344\215\357_t\241"
 519      E9FB253C 
 519      E6A2D8E4 
 519      8DEF5F74 
 519      A1
 520 12b3 4DDE8D36 		.ascii	"M\336\2156yY/\213\247e\360x\243\336\332]\361\273inb"
 520      79592F8B 
 520      A765F078 
 520      A3DEDA5D 
 520      F1BB696E 
 521 12c8 5B77F54D 		.ascii	"[w\365M\345\230\002]\205\331\210\365\357I\326\352D\256"
 521      E598025D 
 521      85D988F5 
 521      EF49D6EA 
 521      44AE
 522 12da F9C9E205 		.ascii	"\371\311\342\005\305z\3372\226\333\210PU\207b\\\372"
 522      C57ADF32 
 522      96DB8850 
 522      5587625C 
 522      FA
 523 12eb C4BD0EE2 		.ascii	"\304\275\016\342f\354C\377g?\217\377\263K\343ls)\360"
 523      66EC43FF 
 523      673F8FFF 
 523      B34BE36C 
 523      7329F0
 524 12fe C7AC356E 		.ascii	"\307\2545n\350eU\347\364\274\304\\\270\225H\366\032"
 524      E86555E7 
 524      F4BCC45C 
 524      B89548F6 
 524      1A
 525 130f 8CD762BC 		.ascii	"\214\327b\274\016\343\015\030o\305\370\003\214?\342"
 525      0EE30D18 
 525      6FC5F803 
 525      8C3FE2
 526 131e 61ED0DB6 		.ascii	"a\355\015\266\243U\243mY\234l\373\265\266\035\270\322"
 526      A355A36D 
 526      599C6CFB 
 526      B5B61DB8 
 526      D2
 527 132f 1FDF21CB 		.ascii	"\037\337!\313\377^+\320`\372>\256C\016\362^\253f\235"
 527      FF5E2BD0 
 527      60FA3EAE 
 527      430EF25E 
 527      AB669D
 528 1342 0673BED7 		.ascii	"\006s\276\327\352\210C\367^\253\315\317\273in\034\035"
 528      EA8843F7 
 528      5EABCDCF 
 528      BB696E1C 
 528      1D
ARM GAS  /tmp/cc0rwqKo.s 			page 42


 529 1353 565E3E75 		.ascii	"V^>u\254W\347\267Z\235\356e\370V\253\037z\031\276\325"
 529      AC57E7B7 
 529      5A9DEE65 
 529      F856AB1F 
 529      7A19BED5 
 530 1367 EA5A2FC3 		.ascii	"\352Z/\303\267Z\275|\233\366\255VJ\366\353\261l\007"
 530      B75ABD7C 
 530      9BF6AD56 
 530      4AF6EBB1 
 530      6C07
 531 1379 93FD662C 		.ascii	"\223\375f,\333\311d\277\033\313v1\331\365\261\354\024"
 531      DBC964BF 
 531      1BCB7631 
 531      D9F5B1EC 
 531      14
 532 138a A645E29E 		.ascii	"\246E\342\236s\217\011\311'\036\305.\360\271\303\370"
 532      738F09C9 
 532      271EC52E 
 532      F0B9C3F8 
 533 139a 8D593E71 		.ascii	"\215Y>q\252\244\323\004Ko\305\225Q\023&\220W\335\250"
 533      AAA4D304 
 533      4B6FC595 
 533      51132690 
 533      57DDA8
 534 13ad EFBF23F3 		.ascii	"\357\277#\363\331e\261\215\011\355R\013\251\361\274"
 534      D965B18D 
 534      09ED520B 
 534      A9F1BC
 535 13bc C3F2FBEF 		.ascii	"\303\362\373\357\224\345\216(5J\"\366\016\312]\267\211"
 535      94E58E28 
 535      354A22F6 
 535      0ECA5DB7 
 535      89
 536 13cd 5A2E129F 		.ascii	"Z.\022\237\330`\025\232h\036\216\034\2046I\330\303\205"
 536      D860159A 
 536      681E8E1C 
 536      843649D8 
 536      C385
 537 13df 9668E850 		.ascii	"\226h\350P\355\333~=\232Q_\213\263\374}\345E\363\015"
 537      EDDB7E3D 
 537      9A515F8B 
 537      B3FC7DE5 
 537      45F30D
 538 13f2 D478FBC1 		.ascii	"\324x\373\3010\225\304\345\326\330\002,\256\367X]|\275"
 538      3095C4E5 
 538      D6D8022C 
 538      AEF7585D 
 538      7CBD
 539 1404 C4DA8D2F 		.ascii	"\304\332\215/\364\332\222\220\027\267\206\227\216\006"
 539      F4DA9290 
 539      17B78697 
 539      8E06
 540 1412 7523892E 		.ascii	"u#\211.\215~\256\227\215\221\366\361\2779t1c\373\227"
 540      8D7EAE97 
 540      8D91F6F1 
 540      BF397431 
 540      63FB97
ARM GAS  /tmp/cc0rwqKo.s 			page 43


 541 1425 A0E22F45 		.ascii	"\240\342/E\003\371)\306\337a|\001\343\213\030\377\210"
 541      03F929C6 
 541      DF617C01 
 541      E38B18FF 
 541      88
 542 1436 F1151EF3 		.ascii	"\361\025\036\363\271\220\025\0033,H\302\331\333\014"
 542      B9901503 
 542      332C48C2 
 542      D9DB0C
 543 1445 E79E3083 		.ascii	"\347\2360\203\373L\2345I\036F\313J\302M\274o\276\303"
 543      FB4C9C35 
 543      491E46CB 
 543      4AC24DBC 
 543      6FBEC3
 544 1458 6C0AA9D4 		.ascii	"l\012\251\324\200S\310\211\362\371\027^\350.\252\213"
 544      8053C889 
 544      F2F9175E 
 544      E82EAA8B 
 545 1468 C29A623A 		.ascii	"\302\232b:\233\210?_\355<\211\\\333\032\251\206\031"
 545      9B883F5F 
 545      ED3C895C 
 545      DB1AA986 
 545      19
 546 1479 EC84D68E 		.ascii	"\354\204\326\216\216{\350\274\020\246\311\267\033\221"
 546      8E7BE8BC 
 546      10A6C9B7 
 546      1B91
 547 1487 2A2FF22B 		.ascii	"*/\362+D\202+\207\003\303\215\344\210\274\021\237\310"
 547      44822B87 
 547      03C38DE4 
 547      88BC119F 
 547      C8
 548 1498 9B9D89AC 		.ascii	"\233\235\211\254m\215l\306\327>\203jt<&t^/\225\371\236"
 548      6D8D6CC6 
 548      D73E836A 
 548      743C2674 
 548      5E2F95F9 
 549 14ad 566A7C53 		.ascii	"Vj|SyZ\211<\261\"\011\257\351\370\344\207j;w\244]\201"
 549      795A893C 
 549      B12209AF 
 549      E9F8E487 
 549      6A3B77A4 
 550 14c3 AA42A85A 		.ascii	"\252B\250Z\035\224O\024tk\257\202v\271\023\276\312\035"
 550      1D944F14 
 550      746BAF82 
 550      76B913BE 
 550      CA1D
 551 14d5 CA873E8F 		.ascii	"\312\207>\217\0009\177\023\222*c\246\214\023\235\226"
 551      00397F13 
 551      922A63A6 
 551      8C139D96 
 552 14e5 66F94607 		.ascii	"f\371F\007>k\327\267_\224p<~\305I<\312M\267\033z\224"
 552      3E6BD7B7 
 552      5F94703C 
 552      7EC5493C 
 552      CA4DB71B 
 553 14fb F10ED446 		.ascii	"\361\016\324F\260\3104\247~\246\377\264\233\346&\366"
ARM GAS  /tmp/cc0rwqKo.s 			page 44


 553      B0C834A7 
 553      7EA6FFB4 
 553      9BE626F6 
 554 150b 2A8FD62A 		.ascii	"*\217\326*^%\253|\244hr^\345\347E\304\253${m0\225\215"
 554      5E25AB7C 
 554      A468725E 
 554      E5E745C4 
 554      AB247B6D 
 555 1522 1267D1AB 		.ascii	"\022g\321\253T\227 .4R\322\326 \\\023\017\\\234\035"
 555      5497202E 
 555      3452D2D6 
 555      205C130F 
 555      5C9C1D
 556 1535 EF966F37 		.ascii	"\357\226o7\221\377\015P\355\336A=\\\302mj-u\027\376"
 556      91FF0D50 
 556      EDDE413D 
 556      5CC26D6A 
 556      2D7517FE 
 557 1549 6B5E3F15 		.ascii	"k^?\025\353\013\313X\367\0315\211\252\232\261\366\364"
 557      EB0BCB58 
 557      F7193589 
 557      AA9AB1F6 
 557      F4
 558 155a 89D39DC4 		.ascii	"\211\323\235\304\206\316p\342.(\306\2630\236\203\361"
 558      86CE70E2 
 558      2E28C6B3 
 558      309E83F1 
 559 156a 3C2787DD 		.ascii	"<'\207\335\234\342\354\274|\267P3ENx0([\305<\302L\210"
 559      9CE2ECBC 
 559      7CB75033 
 559      454E7830 
 559      285BC53C 
 560 1581 5EBB72A0 		.ascii	"^\273r\240/}\212e!\352\357\374;\022\237\014\322\002"
 560      2F7D8A65 
 560      21EAEFFC 
 560      3B129F0C 
 560      D202
 561 1593 F9C4454E 		.ascii	"\371\304EN\242o\265z\005\276J\027\201j\271T\370F\303"
 561      A26FB57A 
 561      05BE4A17 
 561      816AB954 
 561      F846C3
 562 15a6 1BC92E55 		.ascii	"\033\311.U-\277\203k\251\352M\244r\231\236\312\203\224"
 562      2DBF836B 
 562      A9EA4DA4 
 562      72999ECA 
 562      8394
 563 15b8 CA655C54 		.ascii	"\312e\\T\036jP:\032\331!Q\347\331\313\222\355h\252\177"
 563      1E6A503A 
 563      1AD92151 
 563      E7D9CB92 
 563      ED68AA7F 
 564 15cc 2363AFA5 		.ascii	"#c\257\245\353\024V\300\334F`/!\330T\036\260\304\213"
 564      EB1456C0 
 564      DC46602F 
 564      21D8541E 
 564      B0C48B
ARM GAS  /tmp/cc0rwqKo.s 			page 45


 565 15df 46746D7D 		.ascii	"Ftm}\206e0\003\312\222\335\027X\343L\274\325\241|\347"
 565      86653003 
 565      CA92DD17 
 565      58E34CBC 
 565      D5A17CE7 
 566 15f3 DF199C7D 		.ascii	"\337\031\234}\255u\2312<\255\303\341\351\275;\364\303"
 566      AD759932 
 566      3CADC3E1 
 566      E9BD3BF4 
 566      C3
 567 1604 5312BBDA 		.ascii	"S\022\273\332\002\347T\367m'3\325\335Ak\216/\\\363\345"
 567      02E754F7 
 567      6D2733D5 
 567      DD416B8E 
 567      2F5CF3E5 
 568 1618 29D281EF 		.ascii	")\322\201\357N\270\275\026O\300\233\342\011x\235\223"
 568      4EB8BD16 
 568      4FC09BE2 
 568      09789D93 
 569 1628 7F09EA3D 		.ascii	"\177\011\352=\226\255\235\226\331\262\2503\361v\014"
 569      96AD9D96 
 569      D9B2A833 
 569      F1760C
 570 1637 B7C76349 		.ascii	"\267\307cI\277\312\246\354\000&\305r=\313r\023\017\313"
 570      BFCAA6EC 
 570      0026C572 
 570      3DCB7213 
 570      0FCB
 571 1649 BF64A12C 		.ascii	"\277d\241,\036\313;\343\261\254_K\375%,\177\314\262"
 571      1ECB3BE3 
 571      B1AC5F4B 
 571      FD252C7F 
 571      CCB2
 572 165b 7CC032CB 		.ascii	"|\3002\313nA\373\211\315\250V\340`\270\022\343U\030"
 572      6E41FB89 
 572      CDA856E0 
 572      60B812E3 
 572      5518
 573 166d AFC6F82D 		.ascii	"\257\306\370-\2147b\274\015\343\217x\006\314\245\316"
 573      8C3762BC 
 573      0DE38F78 
 573      06CCA5CE 
 574 167d 4EEB34B5 		.ascii	"N\3534\265I\032j9r\223\274\007\201\367\250\307\205\233"
 574      491A6A39 
 574      7293BC07 
 574      81F7A8C7 
 574      859B
 575 168f D7FAA047 		.ascii	"\327\372\240G\270\007G\324\277\367\266x\322C\022j\260"
 575      B80747D4 
 575      BFF7B678 
 575      D243126A 
 575      B0
 576 16a0 48B37EA8 		.ascii	"H\263~\250z\257\012_\006\335\3145Tm\346|\351{m\324\033"
 576      7AAF0A5F 
 576      06DDCC35 
 576      546DE67C 
 576      E97B6DD4 
ARM GAS  /tmp/cc0rwqKo.s 			page 46


 577 16b5 ED25C49E 		.ascii	"\355%\304\236b\272!\202\363y\010\351_mL\2779\206$l\303"
 577      62BA2182 
 577      F37908E9 
 577      5F6D4CBF 
 577      3986246C 
 578 16ca 2247F4F4 		.ascii	"\"G\364\364_\362\271inb\352\257\250\217s}\352D\2671"
 578      5FF2B969 
 578      6E62EAAF 
 578      A88F737D 
 578      EA44B731 
 579 16de 0A989C47 		.ascii	"\012\230\234G\3733\256\223\322G\303\016Z\306rk\260f"
 579      FB33AE93 
 579      D247C30E 
 579      5AC6726B 
 579      B066
 580 16f0 EC541FEA 		.ascii	"\354T\037\352S\236\303\343\301\213\343\322\316\"\207"
 580      539EC3E3 
 580      C18BE3D2 
 580      CE2287
 581 16ff C6AC3C76 		.ascii	"\306\254<v\274Ky\354\370$\216\\gz\377\003F.I\270l\231"
 581      BC4B79EC 
 581      F8248E5C 
 581      677AFF03 
 581      462E49B8 
 582 1715 0B8D545A 		.ascii	"\013\215TZ\333n\236\354\255>\321E\011\353\340A4\032"
 582      DB6E9EEC 
 582      AD3ED145 
 582      09EBE041 
 582      341A
 583 1727 D88C3EAC 		.ascii	"\330\214>\2546\371\304\317\321\237>\206\306\3408\306"
 583      36F9C4CF 
 583      D19F3E86 
 583      C6E038C6 
 584 1737 2D187F89 		.ascii	"-\030\177\211\361i\036\363\360)k\306^\356\243\3667\213"
 584      F1691EF3 
 584      F0296BC6 
 584      5EEEA3F6 
 584      378B
 585 1749 EA654C6A 		.ascii	"\352eLj3C\352\001$\365 K\222$\314\300\372\254\230#\255"
 585      3343EA01 
 585      24F5204B 
 585      9224CCC0 
 585      FAAC9823 
 586 175e B05FBB72 		.ascii	"\260_\273r\355\236\366\211\362\274~\334\313\306\221"
 586      ED9EF689 
 586      F2BC7EDC 
 586      CBC691
 587 176d 6B4EC927 		.ascii	"kN\311'\236s\222%\343\271}\222Z2\376\336\251[2n\247"
 587      9E739225 
 587      E3B97D92 
 587      5A32FEDE 
 587      A95B326E 
 588 1782 7F8540F2 		.ascii	"\177\205@\362\023/\032/\356\323y\321xu\037\303E\343"
 588      132F1A2F 
 588      EED379D1 
 588      78751FC3 
 588      45E3
ARM GAS  /tmp/cc0rwqKo.s 			page 47


 589 1794 F57DB48B 		.ascii	"\365}\264\213\306\212\024\342.\325\306\210\363\211?"
 589      C68A14E2 
 589      2ED5C688 
 589      F3893F
 590 17a3 A0C82F38 		.ascii	"\240\310/8\343/\325\326Z\230\350\011\214\364\345HG\003"
 590      E32FD5D6 
 590      5A98E809 
 590      8CF4E548 
 590      4703
 591 17b5 797095F7 		.ascii	"yp\225\3671\264\253\253\317)\217\346]As\332\336'\261"
 591      31B4ABAB 
 591      CF298FE6 
 591      5D4173DA 
 591      DE27B1
 592 17c8 3935C001 		.ascii	"95\300\001\263\203\357\224"
 592      B383EF94 
 593 17d0 BD862013 		.ascii	"\275\206 \023\356\264\010\"\011S\261\310\015\275M\256"
 593      EEB40822 
 593      0953B1C8 
 593      0DBD4DAE 
 594 17e0 A767F36E 		.ascii	"\247g\363npXe\362\257#\364\331t\365\241\335\331QL\245"
 594      705865F2 
 594      AF23F4D9 
 594      74F5A1DD 
 594      D9514CA5 
 595 17f4 D2C759F1 		.ascii	"\322\307Y\361%6\313\315\364\274,=\235\267H\017f\321"
 595      2536CBCD 
 595      F4BC2C3D 
 595      9DB7480F 
 595      66D1
 596 1806 8E1E8C3E 		.ascii	"\216\036\214>\177>\031\327\011WZ\306\323t\262\310\247"
 596      7F3E19D7 
 596      09575AC6 
 596      D374B2C8 
 596      A7
 597 1817 94380AB6 		.ascii	"\2248\012\266\216\007,\316[\231\216\260`\233,\203i)"
 597      8E072CCE 
 597      5B998EB0 
 597      609B2C83 
 597      6929
 598 1829 FB9C058B 		.ascii	"\373\234\005\213\360\200\305y=\322qe8K\362\337-\246"
 598      F080C579 
 598      3DD27165 
 598      384BF2DF 
 598      2DA6
 599 183b B9CC97D0 		.ascii	"\271\314\227\320\250\266\232\225\234\3562^\0116\037"
 599      A8B69A95 
 599      9CEE325E 
 599      09361F
 600 184a FB2273A9 		.ascii	"\373\"s\251\003\364\252\2130\336\250\353\003\272\252"
 600      03F4AA8B 
 600      30DEA8EB 
 600      03BAAA
 601 1859 09616655 		.ascii	"\011afU\317t\231\277WY\367\033\370\270\226\005\254m"
 601      CF7499BF 
 601      5759F71B 
 601      F8B89605 
ARM GAS  /tmp/cc0rwqKo.s 			page 48


 601      AC6D
 602 186b AD962ACD 		.ascii	"\255\226*\315\223\311\307x\340\334\006\355e\364a;\264"
 602      93C9C778 
 602      E0DC06ED 
 602      65F4613B 
 602      B4
 603 187c 4FEC40C3 		.ascii	"O\354@\303'\273\310 8\021\343\311\030Wa\374\022\306"
 603      27BBC820 
 603      3811E3C9 
 603      185761FC 
 603      12C6
 604 188e 53309E8A 		.ascii	"S0\236\212\361l\327\275\377lTI8y\247n\254\323\032\246"
 604      F16CD7BD 
 604      FF6C5449 
 604      3879A76E 
 604      ACD31AA6 
 605 18a2 44FD50C6 		.ascii	"D\375P\306\301\016\037+\346\267\270\007\357\246\026"
 605      C10E1F2B 
 605      E6B7B807 
 605      EFA616
 606 18b1 F73517B1 		.ascii	"\3675\027\261Rgt\212B\325\362\237\305\357O\\\374\232"
 606      5267748A 
 606      42D5F29F 
 606      C5EF4F5C 
 606      FC9A
 607 18c3 BEE421CA 		.ascii	"\276\344!\312\357\274~\354?a1'[\345\250\302\310\252"
 607      EFBC7EEC 
 607      3F613127 
 607      5BE5A8C2 
 607      C8AA
 608 18d5 3ED7B87A 		.ascii	">\327\270z()\365\177\346\210\377\245'DWPI\233\276.\020"
 608      2829F57F 
 608      E688FFA5 
 608      27445750 
 608      499BBE2E 
 609 18ea 37F36C4E 		.ascii	"7\363lN\212.\011\023\177\305\005\327l7\3033\232\340"
 609      8A2E0913 
 609      7FC505D7 
 609      6C37C333 
 609      9AE0
 610 18fc 1AFD998B 		.ascii	"\032\375\231\213\346?\200\225&\375\264\375\352\313\312"
 610      E63F8095 
 610      26FDB4FD 
 610      EACBCA
 611 190b CB25DEC0 		.ascii	"\313%\336\3006}\341W\011\007\300\316\177&\274\334\245"
 611      367DE157 
 611      0907C0CE 
 611      7F26BCDC 
 611      A5
 612 191c 1BFC169E 		.ascii	"\033\374\026\236l\024q\246F~I0\374M\236\024y\367d\243"
 612      6C1471A6 
 612      467E4930 
 612      FC4D9E14 
 612      79F764A3 
 613 1930 C4FC1D89 		.ascii	"\304\374\035\211O\\D\317\331\270\222}\206q\335Ieq\234"
 613      4F5C44CF 
 613      D9B8927D 
ARM GAS  /tmp/cc0rwqKo.s 			page 49


 613      8671DD49 
 613      65719C
 614 1943 C22DB60C 		.ascii	"\302-\266\014\347\326\300m\320\302\035\2208\340\342"
 614      E7D6C06D 
 614      D0C21D90 
 614      38E0E2
 615 1952 3CC7B851 		.ascii	"<\307\270Q\013\367:\017uq\236d\334\244\205[\310\003"
 615      0BF73A0F 
 615      75719E64 
 615      DCA4855B 
 615      C803
 616 1964 17E759C6 		.ascii	"\027\347Y\306-,\234$\314D\205\260\002\247\245n\233\026"
 616      2D2C9C24 
 616      CC4485B0 
 616      02A7A56E 
 616      9B16
 617 1976 6E2E0F9C 		.ascii	"n.\017\234\321\250j\364a5\317'\256p\021\373\262\022"
 617      D1A86AF4 
 617      6135CF27 
 617      AE7011FB 
 617      B212
 618 1988 6DC72A8C 		.ascii	"m\307*\214Wc\374\026\306oc\274\006\343\265\254e1\033"
 618      5763FC16 
 618      C66F63BC 
 618      06E3B5AC 
 618      65311B
 619 199b CB96BA98 		.ascii	"\313\226\272\230\211\314\002}'5\"\2739\356\331g\015"
 619      89CC027D 
 619      273522BB 
 619      39EED967 
 619      0D
 620 19ac DDB58C5D 		.ascii	"\335\265\214]\\\214vq\011N\261>\301\370,\306\227\351"
 620      5C8C7671 
 620      094EB13E 
 620      C1F82CC6 
 620      97E9
 621 19be 260652BC 		.ascii	"&\006R\274\020\343Z\214\227\360P\277\300izPH\022\226"
 621      10E35A8C 
 621      97F050BF 
 621      C0697A50 
 621      481296
 622 19d1 E83A7974 		.ascii	"\350:ytG\370d\237]\3644\362\024\\\035X\207\367Mp\232"
 622      47F8649F 
 622      5DF434F2 
 622      145C1D58 
 622      87F74D70 
 623 19e6 6DB6E2DE 		.ascii	"m\266\342\336\211\262G\273\337\037\335H\256KP\014\267"
 623      89B247BB 
 623      DF1FDD48 
 623      AE4B500C 
 623      B7
 624 19f7 57B48798 		.ascii	"W\264\207\230\027`}\233\023\024T\230R\0161\277\373E"
 624      17607D9B 
 624      13145498 
 624      520E31BF 
 624      FB45
 625 1a09 5E6FBAA1 		.ascii	"^o\272\241*hK\031\355\355\256w\031\355\355\036\332="
ARM GAS  /tmp/cc0rwqKo.s 			page 50


 625      2A684B19 
 625      EDEDAE77 
 625      19EDED1E 
 625      DA3D
 626 1a1b 4DDDDB4D 		.ascii	"M\335\333M\321\271f\204H3\341ns\351\326\004\211 t2\336"
 626      D1B96684 
 626      4833E16E 
 626      73E9D604 
 626      89207432 
 627 1a30 662863BA 		.ascii	"f(c\272\225Mo\257s\221\216\272\325\025W\272\321\255"
 627      954D6FAF 
 627      73918EBA 
 627      D51557BA 
 627      D1AD
 628 1a42 ECAD7864 		.ascii	"\354\255xd\233\356L\231\227R\010\334n\310\355\215\335"
 628      9BEE4C99 
 628      975208DC 
 628      6EC8ED8D 
 628      DD
 629 1a53 53CDB825 		.ascii	"S\315\270%\233\210f\334~\300\301\355\036cn\257\027\351"
 629      9B8866DC 
 629      7EC0C1ED 
 629      1E636EAF 
 629      17E9
 630 1a65 B8DDC1C9 		.ascii	"\270\335\301\311\355z\344\226\376\227\251y)\205\300"
 630      ED7AE496 
 630      FE97A979 
 630      2985C0
 631 1a74 8F0CB9AD 		.ascii	"\217\014\271\255{\245\011\014\217\374sG\007y<L\260p"
 631      7BA5090C 
 631      8FFC7347 
 631      07793C4C 
 631      B070
 632 1a86 36B29183 		.ascii	"6\262\221\203\341#\306\014\337\3203\334\300\311\260"
 632      E123C60C 
 632      DFD033DC 
 632      C0C9B0
 633 1a95 EEA40253 		.ascii	"\356\244\002S\314H\233wk9~R\264\315\265\323\223\371"
 633      CC489B77 
 633      6B397E52 
 633      B4CDB5D3 
 633      93F9
 634 1aa7 D35BDB57 		.ascii	"\323[\333W}P\371\232\374\001\236\314\327s\035g\235{"
 634      7D50F99A 
 634      FC019ECC 
 634      D7731D67 
 634      9D7B
 635 1ab9 9F9E69F2 		.ascii	"\237\236i\362\250\201\376\201\006\345;\357\202\355\242"
 635      A881FE81 
 635      06E53BEF 
 635      82EDA2
 636 1ac8 F70FF6DD 		.ascii	"\367\017\366\335D_\373\210\316\305\374\276\026Wl\225"
 636      445FFB88 
 636      CEC5FCBE 
 636      16576C95 
 637 1ad8 E9C9BBE7 		.ascii	"\351\311\273\347\311\252\351g\210\261D\207\341\023\207"
 637      C9AAE967 
ARM GAS  /tmp/cc0rwqKo.s 			page 51


 637      88B14487 
 637      E11387
 638 1ae7 E87CCE21 		.ascii	"\350|\316!\372?V\370\312&OO\301|I\250\357\253]\341`"
 638      FA3F56F8 
 638      CA264F4F 
 638      C17C49A8 
 638      EFAB5DE1 
 639 1afc CA0D3573 		.ascii	"\312\0155s\332\207\304l\365Q\034ctw\352T\243AG\241z"
 639      DA87C46C 
 639      F5511C63 
 639      7477EA54 
 639      A34147A1 
 640 1b11 D3B14E8D 		.ascii	"\323\261N\2156/\332hm\007.M\024gL\252m\224/\220uC\365"
 640      362FDA68 
 640      6D072E4D 
 640      14674CAA 
 640      6D942F90 
 641 1b28 3CCC7E13 		.ascii	"<\314~\023\250\023\2355\036@\352\267\325\3641ny\376"
 641      A8139D35 
 641      1E40EAB7 
 641      D5F4316E 
 641      79FE
 642 1b3a E5ACF57B 		.ascii	"\345\254\365{\211\250\277t\221\365\254\026]\355\234"
 642      89A8BF74 
 642      91F5AC16 
 642      5DED9C
 643 1b49 EB595FBB 		.ascii	"\353Y_\273t\353YG_\301\365,\222\237x=\353\233\276\235"
 643      74EB5947 
 643      5FC1F52C 
 643      929F783D 
 643      EB9BBE9D 
 644 1b5d D7B3CEF7 		.ascii	"\327\263\316\3675\\\317\272\332\327\360\020\344\344"
 644      355CCFBA 
 644      DAD7F010 
 644      E4E4
 645 1b6b BB0C0F41 		.ascii	"\273\014\017A\316\270\313\360\020\344\202\273\014\017"
 645      CEB8CBF0 
 645      10E482BB 
 645      0C0F
 646 1b79 412EBFCB 		.ascii	"A.\277\313\360\020\344{w\031\036\202\334q\227\366\020"
 646      F010E47B 
 646      77191E82 
 646      DC7197F6 
 646      10
 647 1b8a A492BD3B 		.ascii	"\244\222\275;\226\235\312d\177\021\313\356\302d\377"
 647      969DCA64 
 647      7F11CBEE 
 647      C264FF
 648 1b99 10CB4E63 		.ascii	"\020\313Nc\262\345\273\243\331\351L\366\337c\331\267"
 648      B2E5BBA3 
 648      D9E94CF6 
 648      DF63D9B7 
 649 1ba9 30D9B5B1 		.ascii	"0\331\265\261\354\256L\366\332Xv7&{k,\273;\223\375q"
 649      ECAE4CF6 
 649      DA587637 
 649      267B6B2C 
 649      BB3B93FD 
ARM GAS  /tmp/cc0rwqKo.s 			page 52


 650 1bbe 2CBB0793 		.ascii	",\273\007\223}$\226\335\223\245;\226}\253\322\226\344"
 650      7D2496DD 
 650      93A53B96 
 650      7DABD296 
 650      E4
 651 1bcf 6BDC65C5 		.ascii	"k\334e\305\230\216\370\304S\330\247N\273\214\227\025"
 651      988EF8C4 
 651      53D8A74E 
 651      BB8C9715 
 652 1bdf CDEC55AB 		.ascii	"\315\354U\253\336^\221\301\"\311\007C\025\335\237\345"
 652      DE5E91C1 
 652      22C90743 
 652      15DD9FE5 
 653 1bef 94385E27 		.ascii	"\2248^'\354\023\253S\370\336\302\015\252x\217\336X-"
 653      EC13AB53 
 653      F8DEC20D 
 653      AA788FDE 
 653      582D
 654 1c01 D5BF4B3A 		.ascii	"\325\277K:\371\227yOO1|\360\262N\354\274\347(\011S\356"
 654      F997794F 
 654      4F317CF0 
 654      B24EECBC 
 654      E7280953 
 655 1c16 31B62473 		.ascii	"1\266$sR\214,I[\265\2419\2526\001\231g\0102\375\207"
 655      528C2C49 
 655      5BB5A139 
 655      AA360199 
 655      670832FD 
 656 1c2b 338F990D 		.ascii	"3\217\231\015Dq\026\276\346\247\350\032v\035\276PW\303"
 656      447116BE 
 656      E6A7E81A 
 656      761DBE50 
 656      57C3
 657 1c3d CD421342 		.ascii	"\315B\023B\026\030\022r\241\372G)\011Bj\364\204\020"
 657      16181272 
 657      A1FA4729 
 657      09426AF4 
 657      8410
 658 1c4f E72BFA45 		.ascii	"\347+\372E9v\252#l\205\011a\213\215\010\213lo\232*\213"
 658      3976AA23 
 658      6C850961 
 658      8B8D088B 
 658      6C6F9A2A 
 659 1c64 F404243F 		.ascii	"\364\004$?YK\215\310\322\221\361\256\011\031o\032\312"
 659      594B8DC8 
 659      D291F1AE 
 659      09196F1A 
 659      CA
 660 1c75 E7C45791 		.ascii	"\347\304W\221\377IB>\313;\021\"E\345\303\275\355\026"
 660      FF49423E 
 660      CB3B1122 
 660      45E5C3BD 
 660      ED16
 661 1c87 A9AFBE8D 		.ascii	"\251\257\276\215\014\016\253R\360Q\213N\375%\271\323"
 661      0C0EAB52 
 661      F0518B4E 
 661      FD25B9D3 
ARM GAS  /tmp/cc0rwqKo.s 			page 53


 662 1c97 2251924E 		.ascii	"\"Q\222N\030<\205,\011\237\230\210g\215V<\277\026\026"
 662      183C852C 
 662      099F9888 
 662      678D563C 
 662      BF1616
 663 1caa CB916698 		.ascii	"\313\221f\230\026]<)\202\243\322H\266(:\304{|\342;\370"
 663      165D3C29 
 663      82A3D248 
 663      B6283AC4 
 663      7B7CE23B 
 664 1cbf 8FDD27A3 		.ascii	"\217\335'\243(\352\302\315oT\376\326\2522Z\033C\244"
 664      28EAC2CD 
 664      6F54FED6 
 664      AA325A1B 
 664      43A4
 665 1cd1 6891BA95 		.ascii	"h\221\272\225\251\340'b\277R\377\270\374\224\036\350"
 665      A9E02762 
 665      BF52FFB8 
 665      FC941EE8 
 666 1ce1 691527FA 		.ascii	"i\025'\372\206+\005f\240\260^~)\322\217\026\244g\245"
 666      862B0566 
 666      A0B05E7E 
 666      29D28F16 
 666      A467A5
 667 1cf4 FFAF704D 		.ascii	"\377\257pM~I\216l\276\215\036,$\265\020'p\316\215\345"
 667      7E498E6C 
 667      BE8D1E2C 
 667      24B51027 
 667      70CE8DE5 
 668 1d08 62B55C1B 		.ascii	"b\265\\\033\243\231\376\313\370w\235h\326\374\2478\251"
 668      A399FECB 
 668      F8779D68 
 668      D6FCA738 
 668      A9
 669 1d19 6BA34608 		.ascii	"k\243F\010\364(6\255\204\034\031\036\245[\015\236\021"
 669      F42836AD 
 669      841C191E 
 669      A55B0D9E 
 669      11
 670 1d2a E7CFC736 		.ascii	"\347\317\3076\305\014\224\302|\373\012\206\371\031\370"
 670      C50C94C2 
 670      7CFB0A86 
 670      F919F8
 671 1d39 776A1713 		.ascii	"wj\027\0232\277E\303\374\343\264 \375W9r\347|\211N\022"
 671      32BF45C3 
 671      FCE3B420 
 671      FD573972 
 671      E77C894E 
 672 1d4e 1628DFC9 		.ascii	"\026(\337\311\377\367\311@\255]\240\3776G\362ld\330"
 672      FFF7C940 
 672      AD5DA0FF 
 672      3647F26C 
 672      64D8
 673 1d60 A37F3BA7 		.ascii	"\243\177;\247|\355\247\262\367E\224\275H\375m\224f\205"
 673      7CEDA7B2 
 673      F74594BD 
 673      48FD6D94 
ARM GAS  /tmp/cc0rwqKo.s 			page 54


 673      6685
 674 1d72 D8D92B3B 		.ascii	"\330\331+;\021\373SBb\267\3773\210\355\316\212Q>\020"
 674      11FB5342 
 674      62B7FF33 
 674      88EDCE8A 
 674      513E10
 675 1d85 39BA896C 		.ascii	"9\272\211l\342\253\244\321\271\363M=i\235\232c\207V"
 675      E2ABA4D1 
 675      B9F34D3D 
 675      699D9A63 
 675      8756
 676 1d97 1701E7D0 		.ascii	"\027\001\347\320\033,\016\235\363\277\354N\204\363a"
 676      1B2C0E9D 
 676      F3BFEC4E 
 676      84F361
 677 1da6 0C27C9BD 		.ascii	"\014'\311\275\215\217\265\226#]x\205U\251!\346\032\325"
 677      8D8FB596 
 677      235D7885 
 677      55A921E6 
 677      1AD5
 678 1db8 90922EE8 		.ascii	"\220\222.\350>f\267~\024S>\235\312\0364Y|\302\251\237"
 678      3E66B77E 
 678      14533E9D 
 678      CA1E3459 
 678      7CC2A99F 
 679 1dcc 69A97D71 		.ascii	"i\251}q\266=v\231\224\342\227H\223\336\226\022N\271"
 679      B63D7699 
 679      94E29748 
 679      93DE9612 
 679      4EB9
 680 1dde 8E0DED36 		.ascii	"\216\015\3556\245\230\350\205Y\251=\246\245\246\304"
 680      A598E885 
 680      59A93DA6 
 680      A5A6C4
 681 1ded 29B5D7B4 		.ascii	")\265\327\264\024\031\013Lg\226\246\245\226\306)\325"
 681      14190B4C 
 681      6796A6A5 
 681      96C629D5 
 682 1dfd 6C5AAA26 		.ascii	"lZ\252&N\251\375\246\245\310\273f\314J\035\210\225R"
 682      4EA9FDA6 
 682      A5C8BB66 
 682      CC4A1D88 
 682      9552
 683 1e0f FE9A3CDE 		.ascii	"\376\232<\336\237\377BO\3027\325&\372w^\234\335N\340"
 683      9FFF424F 
 683      C237D526 
 683      FA775E9C 
 683      DD4EE0
 684 1e22 FEF363F2 		.ascii	"\376\363c\362\355}|\237S\003\373\357\230:6\346\307a"
 684      ED7D7C9F 
 684      5303FBEF 
 684      983A36E6 
 684      C761
 685 1e34 FE9029F3 		.ascii	"\376\220)\363\304}3+\365\231i\251\3268*\177\230q>\355"
 685      C47D332B 
 685      F59969A9 
 685      D6382A7F 
ARM GAS  /tmp/cc0rwqKo.s 			page 55


 685      98713EED 
 686 1e48 85637D41 		.ascii	"\205c}A\347\320\221\243\334\231\302\203\031c\313K\375"
 686      E7D091A3 
 686      DC99C283 
 686      1963CB4B 
 686      FD
 687 1e59 1985E545 		.ascii	"\031\205\345E\317g\024\371\307e\024\216\015\214\016"
 687      CF6714F9 
 687      C765148E 
 687      0D8C0E
 688 1e68 948732C2 		.ascii	"\224\2072\302\301\312\262g2 \341\037\037\316(\366\205"
 688      C1CAB267 
 688      3220E11F 
 688      1FCE28F6 
 688      85
 689 1e79 8B4319A1 		.ascii	"\213C\031\241`aFq\361\003c\005\307\220A\005C\362\037"
 689      60614671 
 689      F1036305 
 689      C7904105 
 689      43F21F
 690 1e8c B1563250 		.ascii	"\261V2P\026\366\217\361\007\241\270}\360S\005\331\256"
 690      16F68FF1 
 690      07A1B87D 
 690      F05305D9 
 690      AE
 691 1e9d E29037FC 		.ascii	"\342\2207\374|\205\337V\024\034\347(\014\005\376\217"
 691      7C85DF56 
 691      141CE728 
 691      0C05FE8F 
 692 1ead DF59E685 		.ascii	"\337Y\346\205\273C\216\347\212K|cR\212C\001/I\330\237"
 692      BB438EE7 
 692      8A4B7C63 
 692      528A4301 
 692      2F49D89F 
 693 1ec1 CCF56449 		.ascii	"\314\365dI\201\242\3242o\260\274<\\\024\010:\262HV\227"
 693      81A2D432 
 693      6FB0BC3C 
 693      5C14083A 
 693      B2485697 
 694 1ed5 125F28EC 		.ascii	"\022_(\354-,\251\014\205\273\024\007\375~\232LA\014"
 694      2D2CA90C 
 694      85BB1407 
 694      FD7E9A4C 
 694      410C
 695 1ee7 7F59D851 		.ascii	"\177Y\330QL ]\343\312KF\373B~\027d\342\025\212\223k"
 695      4C205DE3 
 695      CA4B46FB 
 695      427E1764 
 695      E2158A93 
 696 1efc 4A912FEC 		.ascii	"J\221/\354\303\214\347\002e!\177a\330\006\327\207\022"
 696      C38CE702 
 696      65217F61 
 696      D806D787 
 696      12
 697 1f0d F133D657 		.ascii	"\3613\326W\002\\@=E\376\214\322\322Bo\250\"\000\334"
 697      025C403D 
 697      45FE8CD2 
ARM GAS  /tmp/cc0rwqKo.s 			page 56


 697      D2426FA8 
 697      2200DC
 698 1f20 A48E1891 		.ascii	"\244\216\030\221\231Y^V\034\030\223\305\003PQ\036\014"
 698      99595E56 
 698      1C1893C5 
 698      0350511E 
 698      0C
 699 1f31 8732F20B 		.ascii	"\2072\362\013F<8 c\370\360\254\214\374\274\234q\375"
 699      463C3820 
 699      63F8F0AC 
 699      8CFCBC9C 
 699      71FD
 700 1f43 3300CA5B 		.ascii	"3\000\312[RRD\340 #+\030\030\347\017\016\260B\017\245"
 700      525244E0 
 700      20232B18 
 700      18E70F0E 
 700      B0420FA5 
 701 1f57 A50B5C42 		.ascii	"\245\013\\Ba\020\2007\334\005p\274\243F\346\214\314"
 701      61108037 
 701      DC0570BC 
 701      A346E68C 
 701      CC
 702 1f68 294821C9 		.ascii	")H!\311\374\202\334<\202\355\365d\017\312z\012\177\035"
 702      FC82DC3C 
 702      82EDF564 
 702      0FCA7A0A 
 702      7F1D
 703 1f7a 945990F3 		.ascii	"\224Y\220\363\227\354t\222\314\314\035\2217<\273 \333"
 703      97EC7492 
 703      CCCC1D91 
 703      373CBB20 
 703      DB
 704 1f8b 81A56F01 		.ascii	"\201\245o\001\230B_\011\210\256\360\031o\330\351/+\362"
 704      98425F09 
 704      88AEF019 
 704      6FD8E92F 
 704      2BF2
 705 1f9d 168ECE   		.ascii	"\026\216\316"
 706 1fa0 4E86BBA1 		.ascii	"N\206\273\241y9\271\343\006dT\370J\024\366\322C\341"
 706      7939B9E3 
 706      066454F8 
 706      4A14F6D2 
 706      43E1
 707 1fb2 D2070778 		.ascii	"\322\007\007x\307T\004\312\275\341\337fT\206\202\031"
 707      C75404CA 
 707      BDE1DF66 
 707      54868219 
 708 1fc2 BE60E9FD 		.ascii	"\276`\351\375e\345e\376\373\375\276\321\201\030C\320"
 708      65E565FE 
 708      FBFDBED1 
 708      811843D0 
 709 1fd2 D4656128 		.ascii	"\324ea(\221R\011W(\022\036\030\347\356R\037\220S\346"
 709      91520957 
 709      28121E18 
 709      E7EE521F 
 709      9053E6
 710 1fe5 CFF016F9 		.ascii	"\317\360\026\371\213}\225%aT\255\020\221\210\327\253"
ARM GAS  /tmp/cc0rwqKo.s 			page 57


 710      8B7D9525 
 710      6154AD10 
 710      9188D7AB 
 711 1ff5 96778CC8 		.ascii	"\226w\214\310\315\312\3668s\013\236"
 711      CDCAF638 
 711      730B9E
 712 2000 CACBF6B8 		.ascii	"\312\313\366\270r\363\363\262\263\263<\216\274QyY\036"
 712      72F3F3B2 
 712      B3B33C8E 
 712      BC517959 
 712      1E
 713 2011 5B0E84DC 		.ascii	"[\016\204\334,\217\370$\326\326\377!\220\037-H\222\266"
 713      2C8FF824 
 713      D6D6FF21 
 713      901F2D48 
 713      92B6
 714 2023 903FEC28 		.ascii	"\220?\354(,\361\373\202\3420\373\340|\217\307><\363"
 714      2CF1FB82 
 714      E230FBE0 
 714      7C8FC73E 
 714      3CF3
 715 2035 098F7DD0 		.ascii	"\011\217}\320\020\317p\022\015\263\015\366x\272\004"
 715      10CF7012 
 715      0DB30DF6 
 715      78BA04
 716 2044 CA09EF81 		.ascii	"\312\011\357\201\"\220W(D\222\016\270\370\212l\205\301"
 716      22905728 
 716      44920EB8 
 716      F88A6C85 
 716      C1
 717 2055 FE44EC54 		.ascii	"\376D\354TC\234\205xI\330s\202\341(g\205cC\317\207T"
 717      439C8578 
 717      49D87382 
 717      E1286785 
 717      6343CF87 
 718 206a 6E52C263 		.ascii	"nR\302c\203~\037\324\221Z8\326K\323\003\255a\025\216"
 718      837E1FD4 
 718      915A38D6 
 718      4BD303AD 
 718      61158E
 719 207d 25ADE0AC 		.ascii	"%\255\340\254\360\226A\357\204KE\320?n\030\007\004m"
 719      F09641EF 
 719      844B45D0 
 719      3F6E1807 
 719      046D
 720 208f D8419E11 		.ascii	"\330A\236\021\231#\306\303\235\245\025\201\022\1770"
 720      9923C6C3 
 720      9DA51581 
 720      127F30
 721 209e 94313433 		.ascii	"\224143\023nW\311s\205+\202\244]\0217P\356\002n\303"
 721      136E57C9 
 721      73852B82 
 721      A45D1137 
 721      50EE026E 
 722 20b3 50CD1F2C 		.ascii	"P\315\037,\343\217-,\017\372\0010\215d{\241\031\012"
 722      E38F2D2C 
 722      0FFA0130 
ARM GAS  /tmp/cc0rwqKo.s 			page 58


 722      8D647BA1 
 722      190A
 723 20c5 C3E3FF33 		.ascii	"\303\343\37739\024\357\270\207K\211\344\202\3761\240"
 723      3914EFB8 
 723      874B89E4 
 723      82FE31A0 
 724 20d5 3AA431FB 		.ascii	":\2441\373?\004\341a\010\217@\370\203-4\240\037\204"
 724      3F04E161 
 724      088F40F8 
 724      832D34A0 
 724      1F84
 725 20e7 FE100640 		.ascii	"\376\020\006@x\020\302@\010\277\207\000\367\015\200"
 725      7810C240 
 725      08BF8700 
 725      F70D80
 726 20f6 FB06C07D 		.ascii	"\373\006\300}\003\340\276\007\341\276\007\373K\301\201"
 726      03E0BE07 
 726      E1BE07FB 
 726      4BC181
 727 2105 52F0F752 		.ascii	"R\360\367R\360!)\370\260\024|D\012\376\301\026\354\337"
 727      F02129F8 
 727      B0147C44 
 727      0AFEC116 
 727      ECDF
 728 2117 0F427FA9 		.ascii	"\017B\177\251$\010\227\007\035\025^\240\326E$\374\234"
 728      24089707 
 728      1D155EA0 
 728      D64524FC 
 728      9C
 729 2128 3F08D7F2 		.ascii	"?\010\327\362\222\"\177\220H\334W\352O\011+\335\323"
 729      92227F90 
 729      48DC57EA 
 729      4F092BDD 
 729      D3
 730 2139 4594EB11 		.ascii	"E\224\353\021hH\252f\220\202;\3617W\270\264\274\310"
 730      6848AA66 
 730      90823BF1 
 730      3757B8B4 
 730      BCC8
 731 214b 8FDF89FD 		.ascii	"\217\337\211\375\013\271\302A?\261\225\200@\022\216"
 731      0BB9C241 
 731      3FB19580 
 731      40128E
 732 215a D2D018F8 		.ascii	"\322\320\030\370Q\321i(\256\244\234\301\242\347\341"
 732      51D16928 
 732      AEA49CC1 
 732      A2E7E1
 733 2169 A714FFF8 		.ascii	"\247\024\377\370@\030d\344w>\027.\037\375\337\025i\376"
 733      401864E4 
 733      773E172E 
 733      1FFDDF15 
 733      69FE
 734 217b 71600D4B 		.ascii	"q`\015K}!\354\310\317\221\204\255\302[\331\225*O\310"
 734      7D21ECC8 
 734      CF9184AD 
 734      C25BD995 
 734      2A4FC8
ARM GAS  /tmp/cc0rwqKo.s 			page 59


 735 218e 5B02F6C2 		.ascii	"[\002\366\302\033\356\026U'\232\223Z\341}\316\027\010"
 735      1BEE1655 
 735      279A935A 
 735      E17DCE17 
 735      08
 736 219f 07CAC674 		.ascii	"\007\312\306tS\263\237\255\364W\002U\335\231;1\253K"
 736      53B39FAD 
 736      F4570255 
 736      DD993B31 
 736      AB4B
 737 21b1 8517AAC5 		.ascii	"\205\027\252\305\244\003\223\220\341\257\000\223\001"
 737      A4039390 
 737      E1AF0093 
 737      01
 738 21be 851DA595 		.ascii	"\205\035\245\225\320\376\011G\030\215\206\226\206\307"
 738      D0FE0947 
 738      188D8696 
 738      86C7
 739 21cc 134D2AA5 		.ascii	"\023M*\245\350p-\177\256\014\304\210H\300B)*.\320\007"
 739      E8702D7F 
 739      AE0CC488 
 739      48C04229 
 739      2A2ED007 
 740 21e0 F7114ABB 		.ascii	"\367\021J\273\020\251\370JP\335 \263\242\274\274\344"
 740      10A9F84A 
 740      50DD20B3 
 740      A2BCBCE4 
 741 21f0 614BF529 		.ascii	"aK\365)\314@\235=\225\316\005R\366\007\375e\205\300"
 741      CC409D3D 
 741      95CE0552 
 741      F607FD65 
 741      85C0
 742 2202 AD9366FD 		.ascii	"\255\223f\375\007\317H\2279\"?'\037L_\006Z\270\342\201"
 742      07CF4897 
 742      39223F27 
 742      1F4C5F06 
 742      5AB8E281 
 743 2216 FDFA8F2F 		.ascii	"\375\372\217/$*L\314k\001t\220,\177\261-\323\323\037"
 743      242A4CCC 
 743      6B017490 
 743      2C7FB12D 
 743      D3D31F
 744 2229 C20029DF 		.ascii	"\302\000)\337#\201\351\311\364d\346y\234\236\277\302"
 744      2381E9C9 
 744      F464E679 
 744      9C9EBFC2 
 745 2239 D5E32CC0 		.ascii	"\325\343,\300\213+g@~\346\220\241\036\007\\\363<6\260"
 745      8B2B6740 
 745      7EE690A1 
 745      1E075CF3 
 745      3C36B0
 746 224c C343AC9A 		.ascii	"\303C\254\232]\214\207\014\034?\236\022\342-*\365\021"
 746      5D8C870C 
 746      1C3F9E12 
 746      E22D2AF5 
 746      11
 747 225d E6B2460C 		.ascii	"\346\262F\014\362\346\203*\371JUj\244L\217}dV\201\307"
ARM GAS  /tmp/cc0rwqKo.s 			page 60


 747      F2E6832A 
 747      F94A556A 
 747      A44C8F7D 
 747      645681C7 
 748 2271 9637C863 		.ascii	"\2267\310c\037\321\217D\375\007ylC\200\230\020\336h"
 748      1FD18F44 
 748      FD07796C 
 748      43809810 
 748      DE68
 749 2283 0F141706 		.ascii	"\017\024\027\006\235\201\320\330@q85\344/)\016\224\025"
 749      9D81D0D8 
 749      40713835 
 749      E42F290E 
 749      9415
 750 2295 F9C73BC7 		.ascii	"\371\307;\307\301xY\036\354\031E\367\322\273\301\300"
 750      C178591E 
 750      EC1945F7 
 750      D2BBC1C0 
 751 22a5 C297E078 		.ascii	"\302\227\340x\022\207\307\247\006\307\303\225hrjXM\331"
 751      1287C7A7 
 751      06C7C395 
 751      68726A58 
 751      4DD9
 752 22b7 819D0A47 		.ascii	"\201\235\012GI\250\260x\214c,\211S\002\345T\327\035"
 752      49A8B078 
 752      8C632C89 
 752      5302E554 
 752      D71D
 753 22c9 DEC1D070 		.ascii	"\336\301\320p\011\025e\234\017\232\2712\004?@{\227\205"
 753      0915659C 
 753      0F9AB932 
 753      043F407B 
 753      9785
 754 22db 892B62AD 		.ascii	"\211+b\255\261)\245\244\261{\015\206\321?\337\017JV"
 754      B129A5A4 
 754      B17B0D86 
 754      D13FDF0F 
 754      4A56
 755 22ed 160EF84A 		.ascii	"\026\016\370J\250d\3560\312\374\313\210\202\0018\362"
 755      A864EE30 
 755      CAFCCB88 
 755      820138F2 
 756 22fd 94044667 		.ascii	"\224\004Fg\214),\324\215@\003\037x\344\201\201\354\250"
 756      8C292CD4 
 756      8D40031F 
 756      78E48181 
 756      ECA8
 757 230f 052310B1 		.ascii	"\005#\020\261\260\304\375\000\306\236\013\006\302~;"
 757      B0C4FD00 
 757      C69E0B06 
 757      C27E3B
 758 231e 51225B45 		.ascii	"Q\"[Ee\3306\306\037\266\215+\015\247\250\034\330 a+"
 758      65D836C6 
 758      1FB68D2B 
 758      0DA7A81C 
 758      D820612B 
 759 2332 2E0D770D 		.ascii	".\015w\015\025\201G\021\012\224V\224\370\037(D\237\202"
ARM GAS  /tmp/cc0rwqKo.s 			page 61


 759      15814711 
 759      0A945694 
 759      F81F2844 
 759      9F82
 760 2344 3A01E9D1 		.ascii	":\001\351\321\024\320\221\026\010y\211\277\022\014\373"
 760      14D09116 
 760      087989BF 
 760      120CFB
 761 2353 8BD2215D 		.ascii	"\213\322!]\021,\017Cc\370\213\210\245-\203T\227\242"
 761      112C0F43 
 761      63F88B88 
 761      A52D8354 
 761      97A2
 762 2365 404849DA 		.ascii	"@HI\332C\317\227\025\376\321\212\013\001io\240|tIy\341"
 762      43CF9715 
 762      FED18A0B 
 762      01696FA0 
 762      7C744979 
 763 237a 33C040B7 		.ascii	"3\300@\267\301$\221\345\037\027(\364\347\224\025\227"
 763      C12491E5 
 763      1F1728F4 
 763      E7941597 
 764 238a A78C2E79 		.ascii	"\247\214.y\306\213>\025I\224U\226\246\000/@Mqy\027\310"
 764      C68B3E15 
 764      49945596 
 764      A6002F40 
 764      4D717917 
 765 239f 509D8EC1 		.ascii	"P\235\216\301\303\237P\235\016\222$N\007\346QW\243+"
 765      C39F509D 
 765      0E92244E 
 765      07E65157 
 765      A32B
 766 23b1 4966E68E 		.ascii	"If\346\216\034\231\015_G\016\355A\276f\345\344\307r"
 766      1C990D5F 
 766      470EED41 
 766      BE66E5E4 
 766      C772
 767 23c3 52490E3A 		.ascii	"RI\016:(ij\012r1\375\244'\247@M\347?52\023\322\266\302"
 767      28696A0A 
 767      7231FDA4 
 767      27A7404D 
 767      E73F3532 
 768 23db 008CAFA1 		.ascii	"\000\214\257\241\242\224B_\205\2570\020~\276\033\022"
 768      A294425F 
 768      85AF3010 
 768      7EBE1B12 
 769 23eb EFF51515 		.ascii	"\357\365\025\025\005\375\241\220?tk\250\310\013b*\364"
 769      05FDA190 
 769      3F746BA8 
 769      C80B622A 
 769      F4
 770 23fc 058BA272 		.ascii	"\005\213\242r\263\203\234\213n\243?`\343\304\244\350"
 770      B3839C8B 
 770      6EA33F60 
 770      E3C4A4E8 
 771 240c A4863805 		.ascii	"\244\2068\005m*$4\215\0026\011\277B\233\342\225(s\221"
 771      6D2A2434 
ARM GAS  /tmp/cc0rwqKo.s 			page 62


 771      8D023609 
 771      BF429BE2 
 771      95287391 
 772 2420 AB188641 		.ascii	"\253\030\206A\030\237S \303\003m\374<x\265x\375\275"
 772      189F5320 
 772      C3036DFC 
 772      3C78B578 
 772      FDBD
 773 2432 25DFCD1F 		.ascii	"%\337\315\037\004m#\316Q>\246h{wc\277@\343\247\022?"
 773      046D23CE 
 773      513EA668 
 773      7B7763BF 
 773      40E3A712 
 774 2447 20500A52 		.ascii	" P\012R\266\203&\205\355 \376\260\0239\010;\210~\205"
 774      B6832685 
 774      ED20FEB0 
 774      1339083B 
 774      887E85
 775 245a 13FAAF9A 		.ascii	"\023\372\257\232\256\200\343\002\351\011]1\345\015\225"
 775      AE80E302 
 775      E9095D31 
 775      E50D95
 776 2469 570689C9 		.ascii	"W\006\211\311Kg\277v\247_\210\241\365\203\025\006\221"
 776      4B67BF76 
 776      A75F88A1 
 776      F5831506 
 776      91
 777 247a 68335CFE 		.ascii	"h3\\\376\022\264\307ipU\363R!M\301)\024\016b U\310\306"
 777      12B4C769 
 777      7055F352 
 777      214DC129 
 777      140E6220 
 778 2491 24F9FD39 		.ascii	"$\371\3759:\262\371CX\332\201\367\245\206\212\024-J"
 778      3AB2F943 
 778      58DA81F7 
 778      A5868A14 
 778      2D4A
 779 24a3 CDCF5294 		.ascii	"\315\317R\224\310\005)\242C)pE\265\260\306#\016!\204"
 779      C80529A2 
 779      43297045 
 779      B5B0C623 
 779      0E2184
 780 24b6 C75B0265 		.ascii	"\307[\002e 3u\014\003_MM\246\250\311\324g\325\021\017"
 780      2033750C 
 780      035F4D4D 
 780      A6A8C9D4 
 780      67D5110F 
 781 24ca 5285E595 		.ascii	"R\205\345\225\340\270\004S\236\365\216\256,\206\301"
 781      E0B80453 
 781      9EF58EAE 
 781      2C86C1
 782 24d9 C0F1AC37 		.ascii	"\300\361\2547\\^\341\202[\202\025\341 \\\203EpM}\266"
 782      5C5EE182 
 782      5B8215E1 
 782      205C8345 
 782      704D7DB6 
 783 24ed AC3C1C28 		.ascii	"\254<\034(~\036P\236\365\322\244\363Y\020C\3313\316"
ARM GAS  /tmp/cc0rwqKo.s 			page 63


 783      7E1E509E 
 783      F5D2A4F3 
 783      591043D9 
 783      33CE
 784 24ff 0062762D 		.ascii	"\000bv-\257\0143\325:\3131!\005FK\345\243o\031\225?"
 784      AF0C33D5 
 784      3ACB3121 
 784      05464BE5 
 784      A36F1995 
 785 2514 C853C00C 		.ascii	"\310S\300\014\014\017\332\207\026\344y\034\225!_0\334"
 785      0C0FDA87 
 785      16E4791C 
 785      95215F30 
 785      DC
 786 2525 0D352CA7 		.ascii	"\0155,\247,@\254\020t9)Td+-)\222B\025\335\311/C\375"
 786      2C40AC10 
 786      74392954 
 786      642B2D29 
 786      924215DD 
 787 253d E1A855E8 		.ascii	"\341\250U\350\202\267B\316\220|\252\256C\362G \365E"
 787      82B742CE 
 787      907CAAAE 
 787      43F24720 
 787      F545
 788 254f 968C962F 		.ascii	"\226\214\226/8\206h\3708\0376cW\257wLYe\241W\371\232"
 788      388668F8 
 788      381F3663 
 788      57AF774C 
 788      5965A157 
 789 2565 F6A7D195 		.ascii	"\366\247\321\225\201\222\360\375\201\262G\005p8\224"
 789      8192F0FD 
 789      81B24705 
 789      703894
 790 2574 5C7041C7 		.ascii	"\\pA\307Q#v\013T\233\0255<\256!\236\354\374Q\303\013"
 790      5123760B 
 790      549B1535 
 790      3CAE219E 
 790      ECFC51C3 
 791 2589 1C433CDE 		.ascii	"\034C<\336\334'\322 \206.\376\2047\033|dH\347\214, "
 791      DC27D220 
 791      862EFE84 
 791      371B7C64 
 791      48E78C2C 
 792 259e C974488E 		.ascii	"\311tH\216\314-P&#\370\305;$gx\266\222\314\033T0\254"
 792      CC2D5026 
 792      23F8C53B 
 792      246778B6 
 792      92CC1B54 
 793 25b4 1BDEFD97 		.ascii	"\033\336\375\227A\303s\262\274#\007\215\310N%H\331#"
 793      41C373B2 
 793      BC23078D 
 793      C84E2548 
 793      D923
 794 25c6 73B2B352 		.ascii	"s\262\263R \225\375\327\234\374\202\036\314-\271\203"
 794      2095FDD7 
 794      9CFC821E 
 794      CC2DB983 
ARM GAS  /tmp/cc0rwqKo.s 			page 64


 795 25d6 FF0C36A4 		.ascii	"\377\0146\244'\344\020K\221\355\315\363\344\026@FvV"
 795      27E4104B 
 795      91EDCDF3 
 795      E4164046 
 795      7656
 796 25e8 77E6A62C 		.ascii	"w\346\246,\017\261BJ\335\331#\007\015\036N\177Wj\317"
 796      0FB1424A 
 796      DDD92307 
 796      0D1E4E7F 
 796      576ACF
 797 25fb 7F2ABF20 		.ascii	"\177*\277 {\004\251x\304\023C\362\275\203\006\347z\000"
 797      7B04A978 
 797      C41343F2 
 797      BD8306E7 
 797      7A00
 798 260d 80D05490 		.ascii	"\200\320T\2203\";wT\001\241axn\346\023\331Y=\243 \271"
 798      33223B77 
 798      5401A161 
 798      786EE613 
 798      D9593DA3 
 799 2623 A3860E03 		.ascii	"\243\206\016\003\243\346\311\276\235\334\227\233\353"
 799      A3E6C9BE 
 799      9DDC979B 
 799      EB
 800 2630 1D3168E4 		.ascii	"\0351h\344S\336\334\274\354\221\024\263\027S?\214\264"
 800      53DEDCBC 
 800      EC9114B3 
 800      17533F8C 
 800      B4
 801 2641 C04941B6 		.ascii	"\300IA\266\307Q\2209l\220\307U\354-%\215\325\005\004"
 801      C7519039 
 801      6C90C755 
 801      EC2D258D 
 801      D50504
 802 2654 98A958F0 		.ascii	"\230\251X\360\302\261\005c\213\362K\374\376\012bT\362"
 802      C2B10563 
 802      8BF24BFC 
 802      FE0A6254 
 802      F2
 803 2665 C3A00E44 		.ascii	"\303\240\016D\276\271\243\377\033~%*\221Ng\032\324\245"
 803      BEB9A3FF 
 803      1B7E252A 
 803      914E671A 
 803      D4A5
 804 2677 BBCDAB4C 		.ascii	"\273\315\253L\255\2740G\031\023,\257\254 \003\2524$"
 804      ADBC3047 
 804      19132CAF 
 804      AC2003AA 
 804      3424
 805 2689 DF492061 		.ascii	"\337I a\234%\263\311\007a\314\315\3041\027\342.\324"
 805      9C25B3C9 
 805      0761CCCD 
 805      C43117E2 
 805      2ED4
 806 269b DAE40184 		.ascii	"\332\344\001\204\224\237\365\377\000\245\330\375\240"
 806      949FF5FF 
 806      00A5D8FD 
ARM GAS  /tmp/cc0rwqKo.s 			page 65


 806      A0
 807              		.text
 808              		.section	.gnu.lto_.symtab.f8b6c85f7a5d0586,"",%progbits
 809 0000 73645F69 		.ascii	"sd_is_card_inserted\000\000\000\000\000\000\000\000"
 809      735F6361 
 809      72645F69 
 809      6E736572 
 809      74656400 
 810 001b 00000000 		.ascii	"\000\000\000\000\232\002\000\000sd_is_write_protect"
 810      9A020000 
 810      73645F69 
 810      735F7772 
 810      6974655F 
 811 0036 65640000 		.ascii	"ed\000\000\000\000\000\000\000\000\000\000\000\000\375"
 811      00000000 
 811      00000000 
 811      0000FD
 812 0045 02000073 		.ascii	"\002\000\000sdmmcInitialize\000\000\000\000\000\000"
 812      646D6D63 
 812      496E6974 
 812      69616C69 
 812      7A650000 
 813 005d 00000000 		.ascii	"\000\000\000\000\000\000\001\003\000\000sdmmGetMMCD"
 813      00000103 
 813      00007364 
 813      6D6D4765 
 813      744D4D43 
 814 0072 72697665 		.ascii	"river\000\000\000\000\000\000\000\000\000\000\000\000"
 814      72000000 
 814      00000000 
 814      00000000 
 814      00
 815 0083 BB030000 		.ascii	"\273\003\000\000sdmmcGetFS\000\000\000\000\000\000\000"
 815      73646D6D 
 815      63476574 
 815      46530000 
 815      00000000 
 816 0098 00000000 		.ascii	"\000\000\000\000\000\301\003\000\000sdmmcFSMounted\000"
 816      00C10300 
 816      0073646D 
 816      6D634653 
 816      4D6F756E 
 817 00b0 00000000 		.ascii	"\000\000\000\000\000\000\000\000\000\000\000\307\003"
 817      00000000 
 817      000000C7 
 817      03
 818 00bd 00005350 		.ascii	"\000\000SPID3\000\000\002\000\000\000\000\000\000\000"
 818      49443300 
 818      00020000 
 818      00000000 
 818      00
 819 00ce 00003504 		.ascii	"\000\0005\004\000\000chvprintf\000\000\002\000\000\000"
 819      00006368 
 819      76707269 
 819      6E746600 
 819      00020000 
 820 00e3 00000000 		.ascii	"\000\000\000\000\000\000\316\003\000\000mmcDisconne"
ARM GAS  /tmp/cc0rwqKo.s 			page 66


 820      0000CE03 
 820      00006D6D 
 820      63446973 
 820      636F6E6E 
 821 00f8 63740000 		.ascii	"ct\000\000\002\000\000\000\000\000\000\000\000\000\335"
 821      02000000 
 821      00000000 
 821      0000DD
 822 0107 03000066 		.ascii	"\003\000\000f_mount\000\000\002\000\000\000\000\000"
 822      5F6D6F75 
 822      6E740000 
 822      02000000 
 822      0000
 823 0119 00000000 		.ascii	"\000\000\000\000\337\003\000\000mmcConnect\000\000\002"
 823      DF030000 
 823      6D6D6343 
 823      6F6E6E65 
 823      63740000 
 824 012e 00000000 		.ascii	"\000\000\000\000\000\000\000\000\000\027\004\000\000"
 824      00000000 
 824      00170400 
 824      00
 825 013b 63685468 		.ascii	"chThdSleep\000\000\002\000\000\000\000\000\000\000\000"
 825      64536C65 
 825      65700000 
 825      02000000 
 825      00000000 
 826 0150 00190400 		.ascii	"\000\031\004\000\000mmcStart\000\000\002\000\000\000"
 826      006D6D63 
 826      53746172 
 826      74000002 
 826      000000
 827 0163 00000000 		.ascii	"\000\000\000\000\000\000\035\004\000\000mmcObjectIn"
 827      00001D04 
 827      00006D6D 
 827      634F626A 
 827      65637449 
 828 0178 69740000 		.ascii	"it\000\000\002\000\000\000\000\000\000\000\000\000\""
 828      02000000 
 828      00000000 
 828      000022
 829 0187 0400005F 		.ascii	"\004\000\000_pal_lld_setgroupmode\000\000\002\000\000"
 829      70616C5F 
 829      6C6C645F 
 829      73657467 
 829      726F7570 
 830 01a4 00000000 		.ascii	"\000\000\000\000\000\000\000&\004\000\000"
 830      00000026 
 830      040000
 831              		.text
 832              		.section	.gnu.lto_.opts,"",%progbits
 833 0000 272D6D63 		.ascii	"'-mcpu=cortex-m4' '-mfloat-abi=hard' '-mfpu=fpv4-sp"
 833      70753D63 
 833      6F727465 
 833      782D6D34 
 833      2720272D 
 834 0033 2D643136 		.ascii	"-d16' '-mno-thumb-interwork' '-mthumb' '-O2' '-fomi"
ARM GAS  /tmp/cc0rwqKo.s 			page 67


 834      2720272D 
 834      6D6E6F2D 
 834      7468756D 
 834      622D696E 
 835 0066 742D6672 		.ascii	"t-frame-pointer' '-falign-functions=16' '-ffunction"
 835      616D652D 
 835      706F696E 
 835      74657227 
 835      20272D66 
 836 0099 2D736563 		.ascii	"-sections' '-fdata-sections' '-fno-common' '-flto' "
 836      74696F6E 
 836      73272027 
 836      2D666461 
 836      74612D73 
 837 00cc 272D6673 		.ascii	"'-fsingle-precision-constant'\000"
 837      696E676C 
 837      652D7072 
 837      65636973 
 837      696F6E2D 
 838              		.text
 839              		.section	.text.chprintf,"ax",%progbits
 840              		.align	2
 841              		.p2align 4,,15
 842              		.thumb
 843              		.thumb_func
 844              		.type	chprintf, %function
 845              	chprintf:
 846              		@ args = 4, pretend = 12, frame = 8
 847              		@ frame_needed = 0, uses_anonymous_args = 1
 848 0000 0EB4     		push	{r1, r2, r3}
 849 0002 00B5     		push	{lr}
 850 0004 82B0     		sub	sp, sp, #8
 851 0006 03AA     		add	r2, sp, #12
 852 0008 52F8041B 		ldr	r1, [r2], #4
 853 000c 0192     		str	r2, [sp, #4]
 854 000e FFF7FEFF 		bl	chvprintf
 855 0012 02B0     		add	sp, sp, #8
 856              		@ sp needed
 857 0014 5DF804EB 		ldr	lr, [sp], #4
 858 0018 03B0     		add	sp, sp, #12
 859 001a 7047     		bx	lr
 860              		.size	chprintf, .-chprintf
 861 001c AFF30080 		.section	.text.sd_is_card_inserted,"ax",%progbits
 862              		.align	2
 863              		.p2align 4,,15
 864              		.global	sd_is_card_inserted
 865              		.thumb
 866              		.thumb_func
 867              		.type	sd_is_card_inserted, %function
 868              	sd_is_card_inserted:
 869              		@ args = 0, pretend = 0, frame = 0
 870              		@ frame_needed = 0, uses_anonymous_args = 0
 871              		@ link register save eliminated.
 872 0000 034B     		ldr	r3, .L3
 873 0002 1869     		ldr	r0, [r3, #16]
 874 0004 C0F38000 		ubfx	r0, r0, #2, #1
 875 0008 80F00100 		eor	r0, r0, #1
ARM GAS  /tmp/cc0rwqKo.s 			page 68


 876 000c 7047     		bx	lr
 877              	.L4:
 878 000e 00BF     		.align	2
 879              	.L3:
 880 0010 000C0240 		.word	1073875968
 881              		.size	sd_is_card_inserted, .-sd_is_card_inserted
 882 0014 AFF30080 		.section	.text.sd_is_write_protected,"ax",%progbits
 882      AFF30080 
 882      AFF30080 
 883              		.align	2
 884              		.p2align 4,,15
 885              		.global	sd_is_write_protected
 886              		.thumb
 887              		.thumb_func
 888              		.type	sd_is_write_protected, %function
 889              	sd_is_write_protected:
 890              		@ args = 0, pretend = 0, frame = 0
 891              		@ frame_needed = 0, uses_anonymous_args = 0
 892              		@ link register save eliminated.
 893 0000 0020     		movs	r0, #0
 894 0002 7047     		bx	lr
 895              		.size	sd_is_write_protected, .-sd_is_write_protected
 896 0004 AFF30080 		.section	.text.sdmmcInitialize,"ax",%progbits
 896      AFF30080 
 896      AFF30080 
 897              		.align	2
 898              		.p2align 4,,15
 899              		.global	sdmmcInitialize
 900              		.thumb
 901              		.thumb_func
 902              		.type	sdmmcInitialize, %function
 903              	sdmmcInitialize:
 904              		@ args = 0, pretend = 0, frame = 0
 905              		@ frame_needed = 0, uses_anonymous_args = 0
 906 0000 F8B5     		push	{r3, r4, r5, r6, r7, lr}
 907 0002 0446     		mov	r4, r0
 908 0004 3E4D     		ldr	r5, .L20
 909 0006 3F4F     		ldr	r7, .L20+4
 910 0008 DFF834E1 		ldr	lr, .L20+64
 911 000c 3E48     		ldr	r0, .L20+8
 912 000e 3F4E     		ldr	r6, .L20+12
 913 0010 2160     		str	r1, [r4]
 914 0012 0023     		movs	r3, #0
 915 0014 A360     		str	r3, [r4, #8]
 916 0016 6373     		strb	r3, [r4, #13]
 917 0018 6060     		str	r0, [r4, #4]
 918 001a 2A60     		str	r2, [r5]
 919 001c 3846     		mov	r0, r7
 920 001e 4FF40041 		mov	r1, #32768
 921 0022 1922     		movs	r2, #25
 922 0024 CEF80040 		str	r4, [lr]
 923 0028 FFF7FEFF 		bl	_pal_lld_setgroupmode
 924 002c 3046     		mov	r0, r6
 925 002e 0421     		movs	r1, #4
 926 0030 2022     		movs	r2, #32
 927 0032 FFF7FEFF 		bl	_pal_lld_setgroupmode
 928 0036 3648     		ldr	r0, .L20+16
ARM GAS  /tmp/cc0rwqKo.s 			page 69


 929 0038 4FF48061 		mov	r1, #1024
 930 003c 40F29A22 		movw	r2, #666
 931 0040 FFF7FEFF 		bl	_pal_lld_setgroupmode
 932 0044 3248     		ldr	r0, .L20+16
 933 0046 4FF48051 		mov	r1, #4096
 934 004a 40F29A22 		movw	r2, #666
 935 004e FFF7FEFF 		bl	_pal_lld_setgroupmode
 936 0052 4FF40061 		mov	r1, #2048
 937 0056 40F28222 		movw	r2, #642
 938 005a 2D48     		ldr	r0, .L20+16
 939 005c FFF7FEFF 		bl	_pal_lld_setgroupmode
 940 0060 2068     		ldr	r0, [r4]
 941 0062 FFF7FEFF 		bl	mmcObjectInit
 942 0066 2068     		ldr	r0, [r4]
 943 0068 2A49     		ldr	r1, .L20+20
 944 006a FFF7FEFF 		bl	mmcStart
 945 006e 3369     		ldr	r3, [r6, #16]
 946 0070 5B07     		lsls	r3, r3, #29
 947 0072 2CD4     		bmi	.L17
 948 0074 2849     		ldr	r1, .L20+24
 949 0076 2868     		ldr	r0, [r5]
 950 0078 FFF7FEFF 		bl	chprintf
 951 007c 4FF40043 		mov	r3, #32768
 952 0080 7B83     		strh	r3, [r7, #26]	@ movhi
 953 0082 4FF4FA60 		mov	r0, #2000
 954 0086 FFF7FEFF 		bl	chThdSleep
 955 008a 2449     		ldr	r1, .L20+28
 956 008c 2868     		ldr	r0, [r5]
 957 008e FFF7FEFF 		bl	chprintf
 958 0092 2068     		ldr	r0, [r4]
 959 0094 FFF7FEFF 		bl	mmcConnect
 960 0098 2149     		ldr	r1, .L20+32
 961 009a 0746     		mov	r7, r0
 962 009c 2868     		ldr	r0, [r5]
 963 009e FFF7FEFF 		bl	chprintf
 964 00a2 DFB9     		cbnz	r7, .L18
 965 00a4 1F49     		ldr	r1, .L20+36
 966 00a6 2868     		ldr	r0, [r5]
 967 00a8 FFF7FEFF 		bl	chprintf
 968 00ac 1E48     		ldr	r0, .L20+40
 969 00ae A060     		str	r0, [r4, #8]
 970 00b0 1E49     		ldr	r1, .L20+44
 971 00b2 3A46     		mov	r2, r7
 972 00b4 FFF7FEFF 		bl	f_mount
 973 00b8 0646     		mov	r6, r0
 974 00ba 2868     		ldr	r0, [r5]
 975 00bc B6B9     		cbnz	r6, .L19
 976 00be 1C49     		ldr	r1, .L20+48
 977 00c0 FFF7FEFF 		bl	chprintf
 978 00c4 0123     		movs	r3, #1
 979 00c6 3046     		mov	r0, r6
 980 00c8 6373     		strb	r3, [r4, #13]
 981              	.L9:
 982 00ca 40B2     		sxtb	r0, r0
 983 00cc F8BD     		pop	{r3, r4, r5, r6, r7, pc}
 984              	.L17:
 985 00ce 2868     		ldr	r0, [r5]
ARM GAS  /tmp/cc0rwqKo.s 			page 70


 986 00d0 1849     		ldr	r1, .L20+52
 987 00d2 FFF7FEFF 		bl	chprintf
 988 00d6 FD20     		movs	r0, #253
 989 00d8 40B2     		sxtb	r0, r0
 990 00da F8BD     		pop	{r3, r4, r5, r6, r7, pc}
 991              	.L18:
 992 00dc 2868     		ldr	r0, [r5]
 993 00de 1649     		ldr	r1, .L20+56
 994 00e0 0122     		movs	r2, #1
 995 00e2 FFF7FEFF 		bl	chprintf
 996 00e6 0120     		movs	r0, #1
 997 00e8 40B2     		sxtb	r0, r0
 998 00ea F8BD     		pop	{r3, r4, r5, r6, r7, pc}
 999              	.L19:
 1000 00ec 1349     		ldr	r1, .L20+60
 1001 00ee FFF7FEFF 		bl	chprintf
 1002 00f2 2068     		ldr	r0, [r4]
 1003 00f4 FFF7FEFF 		bl	mmcDisconnect
 1004 00f8 A760     		str	r7, [r4, #8]
 1005 00fa FE20     		movs	r0, #254
 1006 00fc E5E7     		b	.L9
 1007              	.L21:
 1008 00fe 00BF     		.align	2
 1009              	.L20:
 1010 0100 00000000 		.word	.LANCHOR0
 1011 0104 00000240 		.word	1073872896
 1012 0108 00000000 		.word	SPID3
 1013 010c 000C0240 		.word	1073875968
 1014 0110 00080240 		.word	1073874944
 1015 0114 00000000 		.word	.LANCHOR2
 1016 0118 98000000 		.word	.LC6
 1017 011c AC000000 		.word	.LC7
 1018 0120 C0000000 		.word	.LC8
 1019 0124 20000000 		.word	.LC1
 1020 0128 00000000 		.word	.LANCHOR3
 1021 012c 3C000000 		.word	.LC2
 1022 0130 60000000 		.word	.LC4
 1023 0134 7C000000 		.word	.LC5
 1024 0138 00000000 		.word	.LC0
 1025 013c 40000000 		.word	.LC3
 1026 0140 00000000 		.word	.LANCHOR1
 1027              		.size	sdmmcInitialize, .-sdmmcInitialize
 1028 0144 AFF30080 		.section	.text.sdmmGetMMCDriver,"ax",%progbits
 1028      AFF30080 
 1028      AFF30080 
 1029              		.align	2
 1030              		.p2align 4,,15
 1031              		.global	sdmmGetMMCDriver
 1032              		.thumb
 1033              		.thumb_func
 1034              		.type	sdmmGetMMCDriver, %function
 1035              	sdmmGetMMCDriver:
 1036              		@ args = 0, pretend = 0, frame = 0
 1037              		@ frame_needed = 0, uses_anonymous_args = 0
 1038              		@ link register save eliminated.
 1039 0000 037B     		ldrb	r3, [r0, #12]	@ zero_extendqisi2
 1040 0002 0BB1     		cbz	r3, .L24
ARM GAS  /tmp/cc0rwqKo.s 			page 71


 1041 0004 0068     		ldr	r0, [r0]
 1042 0006 7047     		bx	lr
 1043              	.L24:
 1044 0008 1846     		mov	r0, r3
 1045 000a 7047     		bx	lr
 1046              		.size	sdmmGetMMCDriver, .-sdmmGetMMCDriver
 1047 000c AFF30080 		.section	.text.sdmmcGetFS,"ax",%progbits
 1048              		.align	2
 1049              		.p2align 4,,15
 1050              		.global	sdmmcGetFS
 1051              		.thumb
 1052              		.thumb_func
 1053              		.type	sdmmcGetFS, %function
 1054              	sdmmcGetFS:
 1055              		@ args = 0, pretend = 0, frame = 0
 1056              		@ frame_needed = 0, uses_anonymous_args = 0
 1057              		@ link register save eliminated.
 1058 0000 437B     		ldrb	r3, [r0, #13]	@ zero_extendqisi2
 1059 0002 0BB1     		cbz	r3, .L27
 1060 0004 8068     		ldr	r0, [r0, #8]
 1061 0006 7047     		bx	lr
 1062              	.L27:
 1063 0008 1846     		mov	r0, r3
 1064 000a 7047     		bx	lr
 1065              		.size	sdmmcGetFS, .-sdmmcGetFS
 1066 000c AFF30080 		.section	.text.sdmmcFSMounted,"ax",%progbits
 1067              		.align	2
 1068              		.p2align 4,,15
 1069              		.global	sdmmcFSMounted
 1070              		.thumb
 1071              		.thumb_func
 1072              		.type	sdmmcFSMounted, %function
 1073              	sdmmcFSMounted:
 1074              		@ args = 0, pretend = 0, frame = 0
 1075              		@ frame_needed = 0, uses_anonymous_args = 0
 1076              		@ link register save eliminated.
 1077 0000 407B     		ldrb	r0, [r0, #13]	@ zero_extendqisi2
 1078 0002 7047     		bx	lr
 1079              		.size	sdmmcFSMounted, .-sdmmcFSMounted
 1080 0004 AFF30080 		.section	.data.hsCfg,"aw",%progbits
 1080      AFF30080 
 1080      AFF30080 
 1081              		.align	2
 1082              		.type	hsCfg, %object
 1083              		.size	hsCfg, 12
 1084              	hsCfg:
 1085 0000 00000000 		.word	0
 1086 0004 00000240 		.word	1073872896
 1087 0008 0F00     		.short	15
 1088 000a 1000     		.short	16
 1089              		.section	.data.mmcCfg,"aw",%progbits
 1090              		.align	2
 1091              		.set	.LANCHOR2,. + 0
 1092              		.type	mmcCfg, %object
 1093              		.size	mmcCfg, 12
 1094              	mmcCfg:
 1095 0000 00000000 		.word	SPID3
ARM GAS  /tmp/cc0rwqKo.s 			page 72


 1096 0004 00000000 		.word	lsCfg
 1097 0008 00000000 		.word	hsCfg
 1098              		.section	.bss.serialPort,"aw",%nobits
 1099              		.align	2
 1100              		.set	.LANCHOR0,. + 0
 1101              		.type	serialPort, %object
 1102              		.size	serialPort, 4
 1103              	serialPort:
 1104 0000 00000000 		.space	4
 1105              		.section	.bss.SD,"aw",%nobits
 1106              		.align	2
 1107              		.set	.LANCHOR1,. + 0
 1108              		.type	SD, %object
 1109              		.size	SD, 4
 1110              	SD:
 1111 0000 00000000 		.space	4
 1112              		.section	.rodata.str1.4,"aMS",%progbits,1
 1113              		.align	2
 1114              	.LC0:
 1115 0000 53442F4D 		.ascii	"SD/MMC:ERROR Connect,ERR%02d\012\000"
 1115      4D433A45 
 1115      52524F52 
 1115      20436F6E 
 1115      6E656374 
 1116 001e 0000     		.space	2
 1117              	.LC1:
 1118 0020 53442F4D 		.ascii	"SD/MMC: Connection Done\012\000"
 1118      4D433A20 
 1118      436F6E6E 
 1118      65637469 
 1118      6F6E2044 
 1119 0039 000000   		.space	3
 1120              	.LC2:
 1121 003c 2F00     		.ascii	"/\000"
 1122 003e 0000     		.space	2
 1123              	.LC3:
 1124 0040 53442F4D 		.ascii	"SD/MMC:File System Mount Error\012\000"
 1124      4D433A46 
 1124      696C6520 
 1124      53797374 
 1124      656D204D 
 1125              	.LC4:
 1126 0060 53442F4D 		.ascii	"SD/MMC:File System Mounted\012\000"
 1126      4D433A46 
 1126      696C6520 
 1126      53797374 
 1126      656D204D 
 1127              	.LC5:
 1128 007c 53442F4D 		.ascii	"SD/MMC:No SD Card Found\012\000"
 1128      4D433A4E 
 1128      6F205344 
 1128      20436172 
 1128      6420466F 
 1129 0095 000000   		.space	3
 1130              	.LC6:
 1131 0098 53442F4D 		.ascii	"SD/MMC:Card Found\012\000"
 1131      4D433A43 
ARM GAS  /tmp/cc0rwqKo.s 			page 73


 1131      61726420 
 1131      466F756E 
 1131      640A00
 1132 00ab 00       		.space	1
 1133              	.LC7:
 1134 00ac 53442F4D 		.ascii	"SD/MMC:Connecting\012\000"
 1134      4D433A43 
 1134      6F6E6E65 
 1134      6374696E 
 1134      670A00
 1135 00bf 00       		.space	1
 1136              	.LC8:
 1137 00c0 53442F4D 		.ascii	"SD/MMC:End of Connection attempt\012\000"
 1137      4D433A45 
 1137      6E64206F 
 1137      6620436F 
 1137      6E6E6563 
 1138 00e2 0000     		.section	.data.lsCfg,"aw",%progbits
 1139              		.align	2
 1140              		.type	lsCfg, %object
 1141              		.size	lsCfg, 12
 1142              	lsCfg:
 1143 0000 00000000 		.word	0
 1144 0004 00000240 		.word	1073872896
 1145 0008 0F00     		.short	15
 1146 000a 3000     		.short	48
 1147              		.section	.bss.FS,"aw",%nobits
 1148              		.align	2
 1149              		.set	.LANCHOR3,. + 0
 1150              		.type	FS, %object
 1151              		.size	FS, 560
 1152              	FS:
 1153 0000 00000000 		.space	560
 1153      00000000 
 1153      00000000 
 1153      00000000 
 1153      00000000 
 1154              		.comm	__gnu_lto_v1,1,1
 1155              		.ident	"GCC: (GNU Tools for ARM Embedded Processors) 4.8.4 20140526 (release) [ARM/embedded-4_8-br
ARM GAS  /tmp/cc0rwqKo.s 			page 74


DEFINED SYMBOLS
                            *ABS*:0000000000000000 sdmmcsimple.c
     /tmp/cc0rwqKo.s:840    .text.chprintf:0000000000000000 $t
     /tmp/cc0rwqKo.s:845    .text.chprintf:0000000000000000 chprintf
     /tmp/cc0rwqKo.s:862    .text.sd_is_card_inserted:0000000000000000 $t
     /tmp/cc0rwqKo.s:868    .text.sd_is_card_inserted:0000000000000000 sd_is_card_inserted
     /tmp/cc0rwqKo.s:880    .text.sd_is_card_inserted:0000000000000010 $d
     /tmp/cc0rwqKo.s:883    .text.sd_is_write_protected:0000000000000000 $t
     /tmp/cc0rwqKo.s:889    .text.sd_is_write_protected:0000000000000000 sd_is_write_protected
     /tmp/cc0rwqKo.s:897    .text.sdmmcInitialize:0000000000000000 $t
     /tmp/cc0rwqKo.s:903    .text.sdmmcInitialize:0000000000000000 sdmmcInitialize
     /tmp/cc0rwqKo.s:1010   .text.sdmmcInitialize:0000000000000100 $d
     /tmp/cc0rwqKo.s:1029   .text.sdmmGetMMCDriver:0000000000000000 $t
     /tmp/cc0rwqKo.s:1035   .text.sdmmGetMMCDriver:0000000000000000 sdmmGetMMCDriver
     /tmp/cc0rwqKo.s:1048   .text.sdmmcGetFS:0000000000000000 $t
     /tmp/cc0rwqKo.s:1054   .text.sdmmcGetFS:0000000000000000 sdmmcGetFS
     /tmp/cc0rwqKo.s:1067   .text.sdmmcFSMounted:0000000000000000 $t
     /tmp/cc0rwqKo.s:1073   .text.sdmmcFSMounted:0000000000000000 sdmmcFSMounted
     /tmp/cc0rwqKo.s:1081   .data.hsCfg:0000000000000000 $d
     /tmp/cc0rwqKo.s:1084   .data.hsCfg:0000000000000000 hsCfg
     /tmp/cc0rwqKo.s:1090   .data.mmcCfg:0000000000000000 $d
     /tmp/cc0rwqKo.s:1094   .data.mmcCfg:0000000000000000 mmcCfg
     /tmp/cc0rwqKo.s:1142   .data.lsCfg:0000000000000000 lsCfg
     /tmp/cc0rwqKo.s:1099   .bss.serialPort:0000000000000000 $d
     /tmp/cc0rwqKo.s:1103   .bss.serialPort:0000000000000000 serialPort
     /tmp/cc0rwqKo.s:1106   .bss.SD:0000000000000000 $d
     /tmp/cc0rwqKo.s:1110   .bss.SD:0000000000000000 SD
     /tmp/cc0rwqKo.s:1113   .rodata.str1.4:0000000000000000 $d
     /tmp/cc0rwqKo.s:1139   .data.lsCfg:0000000000000000 $d
     /tmp/cc0rwqKo.s:1148   .bss.FS:0000000000000000 $d
     /tmp/cc0rwqKo.s:1152   .bss.FS:0000000000000000 FS
                            *COM*:0000000000000001 __gnu_lto_v1
     /tmp/cc0rwqKo.s:882    .text.sd_is_card_inserted:0000000000000014 $t
     /tmp/cc0rwqKo.s:1028   .text.sdmmcInitialize:0000000000000144 $t

UNDEFINED SYMBOLS
chvprintf
_pal_lld_setgroupmode
mmcObjectInit
mmcStart
chThdSleep
mmcConnect
f_mount
mmcDisconnect
SPID3
