ARM GAS  /tmp/ccCnU44R.s 			page 1


   1              		.syntax unified
   2              		.cpu cortex-m4
   3              		.eabi_attribute 27, 3
   4              		.eabi_attribute 28, 1
   5              		.fpu fpv4-sp-d16
   6              		.eabi_attribute 20, 1
   7              		.eabi_attribute 21, 1
   8              		.eabi_attribute 23, 3
   9              		.eabi_attribute 24, 1
  10              		.eabi_attribute 25, 1
  11              		.eabi_attribute 26, 1
  12              		.eabi_attribute 30, 2
  13              		.eabi_attribute 34, 1
  14              		.eabi_attribute 18, 4
  15              		.thumb
  16              		.file	"sdmmcsimple.c"
  17              		.section	.gnu.lto_.jmpfuncs.889be19d84897ea0,"",%progbits
  18 0000 789C7590 		.ascii	"x\234u\220\261J\304@\020\206g\262j\274\234z\247V\242"
  18      B14AC440 
  18      108667B2 
  18      6ABC9C7A 
  18      A756A2
  19 0013 2C8B6027 		.ascii	",\213`'\234X\211\225\220\334uQH\032\005\233\303D\011"
  19      9C588995 
  19      90DC7551 
  19      481A059B 
  19      C34409
  20 0026 985D89F1 		.ascii	"\230]\211\361@lb\347\013\010\327\370\036>\204\205o\340"
  20      406C62E7 
  20      0B08D7F8 
  20      1E3E8485 
  20      6FE0
  21 0038 7B5839C9 		.ascii	"{X9\311n\216D\317mfv\276\177f\377Y\013,\230w\236\021"
  21      6E8E44CF 
  21      6D6676BE 
  21      7F66FF59 
  21      0B2C9877 
  22 004e E08BA20D 		.ascii	"\340\213\242\015\2142\306(\235P\004\300I\211\251\311"
  22      8C32C628 
  22      9D5004C0 
  22      4989A9C9 
  23 005e 3AC704CB 		.ascii	":\307\004\313\034\351\306\354\262\362\004\337\305\264"
  23      1CE9C6EC 
  23      B2F204DF 
  23      C5B4
  24 006c E827881C 		.ascii	"\350'\210\034\360\255\230\236$\250\247\267 \343\260"
  24      F0AD989E 
  24      24A8A7B7 
  24      20E3B0
  25 007b ADE102E8 		.ascii	"\255\341\002\350\3766_\344p\244\371R\305Y\205^Jd\247"
  25      FE365FE4 
  25      70A4F952 
  25      C559855E 
  25      4A64A7
  26 008e A8E7CDC4 		.ascii	"\250\347\315\304\313\034.\264\270\243I\351\312\371\375"
  26      CB1C2EB4 
  26      B8A349E9 
ARM GAS  /tmp/ccCnU44R.s 			page 2


  26      CAF9FD
  27 009d 24F9B96C 		.ascii	"$\371\271l\372aM\330\3450\321p\305,\337\352]\345\360"
  27      FA614DD8 
  27      E530D170 
  27      C52CDFEA 
  27      5DE5F0
  28 00b0 6A96599B 		.ascii	"j\226Y\233\353\267\307\341\335\010\372ZP\231X\377\354"
  28      EBB7C7E1 
  28      DD08FA5A 
  28      509958FF 
  28      EC
  29 00c1 FD157EB4 		.ascii	"\375\025~\264\2045\255v\333HQ\177\247\371\344\016:\330"
  29      8435AD76 
  29      DB48517F 
  29      A7F9E40E 
  29      3AD8
  30 00d3 45D80ABD 		.ascii	"E\330\012\275\201\357\273\307\247J\204\236p\307Y$F\352"
  30      81EFBBC7 
  30      A74A849E 
  30      70C75924 
  30      46EA
  31 00e5 41460EEC 		.ascii	"AF\016\354\0302Jnc\021>\336\347q*|ByLP\374\007\3050"
  31      18324A6E 
  31      63113EDE 
  31      E7712A7C 
  31      42794C50 
  32 00fd CB54E680 		.ascii	"\313T\346\2005\230\215\026\256\2222\276\312\023%\205"
  32      35988D16 
  32      AE9232BE 
  32      CA132585 
  33 010d A764EC00 		.ascii	"\247d\354\0007d\030\004gA\215\367\351\266wpH\303wk,"
  33      37641804 
  33      67418DF7 
  33      E9B67770 
  33      48C3776B 
  34 0122 23A1AE9B 		.ascii	"#\241\256\233\355\343\234\036\272\313\035\3304\222\232"
  34      EDE39C1E 
  34      BACB1DD8 
  34      34929A
  35 0131 C99B46AD 		.ascii	"\311\233F\255\261\304\017\017\025\213\023"
  35      B1C40F0F 
  35      158B13
  36              		.text
  37              		.section	.gnu.lto_.inline.889be19d84897ea0,"",%progbits
  38 0000 789C8D90 		.ascii	"x\234\215\2201\016\3020\014E\277\035\267\201\026P%V"
  38      310EC230 
  38      0C45BF1D 
  38      B7811650 
  38      2556
  39 0012 24D8B801 		.ascii	"$\330\270\0013'\350\214\230\330(\367\250\020\003\022"
  39      3327E88C 
  39      98D828F7 
  39      A8100312 
  40 0022 3D021762 		.ascii	"=\002\027b\344\016\034\203\304\241iA \221Hvb\375\377"
  40      E40E1C83 
  40      C4A16941 
  40      20914876 
ARM GAS  /tmp/ccCnU44R.s 			page 3


  40      62FDFF
  41 0035 6C99C1F8 		.ascii	"l\231\301\370v.\024\262\205\3443\250(\275\316\243\226"
  41      762E14B2 
  41      85E433A8 
  41      28BDCEA3 
  41      96
  42 0046 904C00D3 		.ascii	"\220L\000\323\224\376\232\221\012\010\003K\340\254)"
  42      94FE9A91 
  42      0A08034B 
  42      E0AC29
  43 0055 A3946198 		.ascii	"\243\224a\230\336\314\0067\234\311\325V\365\235Q\034"
  43      DECC0637 
  43      9CC9D556 
  43      F59D511C 
  44 0065 B7A1EA09 		.ascii	"\267\241\352\011\316\327f\316\035\356\005v_\355\325"
  44      CED766CE 
  44      1DEE0576 
  44      5FEDD5
  45 0074 93C9587B 		.ascii	"\223\311X{\243S\370\3343\250\377\027u\010\233\222\240"
  45      A353F8DC 
  45      33A8FF17 
  45      75089B92 
  45      A0
  46 0085 DAD081A6 		.ascii	"\332\320\201\246\016\264\303\276{R\214H\333\261\351"
  46      0EB4C3BE 
  46      7B528C48 
  46      DBB1E9
  47 0094 610B4672 		.ascii	"a\013FrZ\026\240\332.\204C\362\203g\037\254\252cUJ\011"
  47      5A16A0DA 
  47      2E8443F2 
  47      83671FAC 
  47      AA63554A 
  48 00a9 71FD0F2B 		.ascii	"q\375\017+\207\030\267\031uIO/!\352\336\237\036\013"
  48      8718B719 
  48      75494F2F 
  48      21EADE9F 
  48      1E0B
  49 00bb 29FA     		.ascii	")\372"
  50              		.text
  51              		.section	.gnu.lto_.pureconst.889be19d84897ea0,"",%progbits
  52 0000 789C6362 		.ascii	"x\234cb`b\340g\200\000v\006\011F)&\006f)NV.VnV\000\006"
  52      6062E067 
  52      80007606 
  52      09462926 
  52      0666294E 
  53 001b 2A009A   		.ascii	"*\000\232"
  54              		.text
  55              		.section	.gnu.lto_chprintf.889be19d84897ea0,"",%progbits
  56 0000 789C8550 		.ascii	"x\234\205P\315J\002Q\024>\337\0355uc\333v\342\0034\213"
  56      CD4A0251 
  56      143EDF1D 
  56      357563DB 
  56      76E20334 
  57 0015 22E80D7A 		.ascii	"\"\350\015z\000\203Z\3058\216z\011\035\321Q\260\026"
  57      00835AC5 
  57      388E7A09 
  57      1DD151B0 
ARM GAS  /tmp/ccCnU44R.s 			page 4


  57      16
  58 0026 5EC1C245 		.ascii	"^\301\302E\013ig\021)\321:\244\027\030\202\332DI\273"
  58      0B696711 
  58      29D13AA4 
  58      171882DA 
  58      4449BB
  59 0039 162D2497 		.ascii	"\026-$\227\265h\321*\202\351\336\031\024\372\201\016"
  59      B568D12A 
  59      82E9DE19 
  59      14FA810E 
  60 0049 DC7B7EBE 		.ascii	"\334{~\276s\276\363\303\210\321OY\220o\010\2425\251"
  60      73BEF3C3 
  60      88D14F59 
  60      906F08A2 
  60      35A9
  61 005b A11158F7 		.ascii	"\241\021X\367\236\250\025e\2002\010\324dhnB\245\262"
  61      9EA81565 
  61      803208D4 
  61      64686E42 
  61      A5B2
  62 006d 140D84DB 		.ascii	"\024\015\204\333\035_O\036\321\023n\273/>=\017\340\220"
  62      1D5F4F1E 
  62      D1136EBB 
  62      2F3E3D0F 
  62      E090
  63 007f B42B2013 		.ascii	"\264+ \023\264!\035$}\305B\337\373\250Z\321uOon!\016"
  63      B4211D24 
  63      7DC542DF 
  63      FBA85AD1 
  63      754F6F6E 
  64 0095 45EBCDF3 		.ascii	"E\353\315\363\022\034\032\243\325\377\012/\230\373\354"
  64      121C1AA3 
  64      D5FF0A2F 
  64      98FBEC
  65 00a4 794FC3F7 		.ascii	"yO\303\367\203W\364XLC\021\024\222\037\"d\340\014)\225"
  65      8357F458 
  65      4C431114 
  65      921F2264 
  65      E00C2995 
  66 00b8 13A6B624 		.ascii	"\023\246\266$O\032\030H\177\0325\375\241\323\362W\233"
  66      4F1A1848 
  66      7F1A35FD 
  66      A1D3F257 
  66      9B
  67 00c9 AC8329AD 		.ascii	"\254\203)\255\215ho\3343\015\234#,\321]\372\020\035"
  67      8D686FDC 
  67      330D9C23 
  67      2CD15DFA 
  67      101D
  68 00db 31CF1132 		.ascii	"1\317\0212\341\247\313\310\016Gx\312\344g\251\2514\""
  68      E1A7CBC8 
  68      0E4778CA 
  68      E467A9A9 
  68      3422
  69 00ed 2E3BD288 		.ascii	".;\322\210\366\307G\223x\200\344\021\231\021\314\231"
  69      F6C74793 
  69      7880E411 
ARM GAS  /tmp/ccCnU44R.s 			page 5


  69      9911CC99 
  70 00fd 088E9B87 		.ascii	"\010\216\233\207\226G( \340\210\252\222\366\370\370"
  70      96472820 
  70      E088AA92 
  70      F6F8F8
  71 010c 77C798A9 		.ascii	"w\307\230\251H\377\356\310\021'\272\243\253\027\026"
  71      48FFEEC8 
  71      1127BAA3 
  71      AB1716
  72 011b 04027099 		.ascii	"\004\002p\231.EG\235[\312\003\265\372'\332l\214\340"
  72      2E45479D 
  72      5BCA03B5 
  72      FA27DA6C 
  72      8CE0
  73 012d 5469B983 		.ascii	"Ti\271\203\334Q\315\261\244\027\354\242\245\233v\266"
  73      DC51CDB1 
  73      A417ECA2 
  73      A59B76B6 
  74 013d A167ADBA 		.ascii	"\241g\255\272n\026x\206\333U\335\251\324J\333\2724\352"
  74      6E167886 
  74      DB55DDA9 
  74      D44ADBBA 
  74      34EA
  75 014f 4685DBB5 		.ascii	"F\205\333\265\252\004\312\025^rr\213\005bF9\221\263"
  75      AA04CA15 
  75      5E72728B 
  75      05624639 
  75      91B3
  76 0161 2B45C371 		.ascii	"+E\303q\254\354V\246\341X\325/\251H\201#"
  76      ACEC56A6 
  76      E158D52F 
  76      A9488123 
  77              		.text
  78              		.section	.gnu.lto_sd_is_card_inserted.889be19d84897ea0,"",%progbits
  79 0000 789C5D50 		.ascii	"x\234]P\273JCA\020=gf\257\212\004\343\007\210\330\013"
  79      BB4A4341 
  79      103D6766 
  79      AF8A04E3 
  79      0788D80B 
  80 0014 06FC9604 		.ascii	"\006\374\226\004\264\324(\341\202\027\204|@6\030\301"
  80      B4D428E1 
  80      8217847C 
  80      403618C1 
  81 0024 32655011 		.ascii	"2eP\021\004+\213\344\003\264\020\261\260\211 \244I\260"
  81      042B8BE4 
  81      03B410B1 
  81      B08920A4 
  81      49B0
  82 0036 B0F333E2 		.ascii	"\260\3633\342\314^\022\304\205=3\3149\363\024\010\376"
  82      CC5E12C4 
  82      853D33CC 
  82      39F31408 
  82      FE
  83 0047 BF7DFB5B 		.ascii	"\277}\373[\0046\3152\003\245\377\001t\327D\302\3636"
  83      0436CD32 
  83      03A5FF01 
  83      74D744C2 
ARM GAS  /tmp/ccCnU44R.s 			page 6


  83      F336
  84 0059 E2BA4E6A 		.ascii	"\342\272Nj\210\025e(\303\201t\007DG4\260s\310Td$/\337"
  84      88156528 
  84      C3817407 
  84      444734B0 
  84      73C85464 
  85 0070 F3F9F0EB 		.ascii	"\363\371\360\353r\266\272B\344\204\03208d\016&\311\320"
  85      72B6BA42 
  85      E4841A30 
  85      38640E26 
  85      C9D0
  86 0082 8BB1BF03 		.ascii	"\213\261\277\0034SJ\335\320+5(nu\214\327\331\340\256"
  86      34534ADD 
  86      D02B3528 
  86      6E758CD7 
  86      D9E0AE
  87 0095 72C47BCB 		.ascii	"r\304{\313hQw\361\030{\314)7\2706\243\007\006!\016\256"
  87      685177F1 
  87      187BCC29 
  87      37B836A3 
  87      0706210E 
  88 00aa 62407253 		.ascii	"b@rS\333c.\266\030\343b\250\213\344\320*\365\231\224"
  88      DB632EB6 
  88      18E362A8 
  88      8BE4D02A 
  88      F59994
  89 00bd CCD392C9 		.ascii	"\314\323\222\311\214t&M\364\216\267\237nuI\245\370\337"
  89      8C74264D 
  89      F48EB79F 
  89      6E7549A5 
  89      F8DF
  90 00cf CBD4A998 		.ascii	"\313\324\251\230\324\264a\315|\302O[\037&L\232)\350"
  90      D4B461CD 
  90      7CC24F5B 
  90      1F264C9A 
  90      29E8
  91 00e1 7ABB83DC 		.ascii	"z\273\203\334\216J\027\320\207\252g\321\345\336z\243"
  91      8E4A17D0 
  91      87AA67D1 
  91      E5DE7AA3 
  92 00f1 7D5214CD 		.ascii	"}R\024\315v^\234\237\235\3565\361\013\334xD\374"
  92      765E9C9F 
  92      9DEE35F1 
  92      0BDC7844 
  92      FC
  93              		.text
  94              		.section	.gnu.lto_sd_is_write_protected.889be19d84897ea0,"",%progbits
  95 0000 789C6362 		.ascii	"x\234cb`b@\007\222@\034\015\304\002@\314\310\314\300"
  95      60624007 
  95      92401C0D 
  95      C40240CC 
  95      C8CCC0
  96 0013 C834E11C 		.ascii	"\3104\341\034\003C#\007\023##\210\301\300\310P\317\304"
  96      03432307 
  96      13232388 
  96      C1C0C850 
  96      CFC4
ARM GAS  /tmp/ccCnU44R.s 			page 7


  97 0025 581FC908 		.ascii	"X\037\311\010V\273\236\351\300\203\377\377\327M9\266"
  97      56BB9EE9 
  97      C083FFFF 
  97      D74D39B6 
  98 0035 A08F9111 		.ascii	"\240\217\221\021d\024+CKC\303\004\005\006\206d\260\202"
  98      64142B43 
  98      4B43C304 
  98      05068664 
  98      B082
  99 0047 102009D2 		.ascii	"\020 \011\322\025\012\224\004\322\314\027\031\032\037"
  99      150A9404 
  99      D2CC1719 
  99      1A1F
 100 0055 F42C664C 		.ascii	"\364,fLd\\\310\310\312\020\301\230\311\010\2675\204"
 100      645CC8C8 
 100      CA10C198 
 100      C908B735 
 100      84
 101 0066 9111A402 		.ascii	"\221\021\244\002d\006_qJnnrqfnAN\252^2\003\000\035\274"
 101      64065F71 
 101      4A6E6E72 
 101      71666E41 
 101      4EAA5E32 
 102 007e 1EE8     		.ascii	"\036\350"
 103              		.text
 104              		.section	.gnu.lto_sdmmcInitialize.889be19d84897ea0,"",%progbits
 105 0000 789CAD56 		.ascii	"x\234\255VMl\033E\024~o\327^\333\3534ih\3234I\263,!"
 105      4D6C1B45 
 105      147E6FD7 
 105      5EDBEB34 
 105      6968D334 
 106 0018 C634697E 		.ascii	"\3064i~9\225\177\251?\267\000M\032\011\016\034\214c"
 106      39957FA9 
 106      3FB7004D 
 106      1A090E1C 
 106      8C63
 107 002a 224BB55D 		.ascii	"\"K\265]\034\027\251\342\220M\343\266\351\201\326*\034"
 107      1C17A9E2 
 107      904DE3B6 
 107      E981D62A 
 107      1C
 108 003b CCAF5A4A 		.ascii	"\314\257ZJU\011\011\212D\017\026\005\311\245HMT\321"
 108      5509098A 
 108      440F1605 
 108      C9A5484D 
 108      54D1
 109 004d 1FA14A69 		.ascii	"\037\241JiU\201\005\207\242\006U\211\012JH\001\363f"
 109      55810587 
 109      A2065589 
 109      0A4A4801 
 109      F366
 110 005f 6776FD13 		.ascii	"gv\375\023\323\364\220\225<\263\363f\276\367\276\367"
 110      D3F49095 
 110      3CB3F366 
 110      BEF7BEF7 
 111 006f CDBC1D4B 		.ascii	"\315\274\035K A\371s\210~9/\200\013\001\260\012PJ]\002"
 111      2041F973 
ARM GAS  /tmp/ccCnU44R.s 			page 8


 111      887E392F 
 111      800B01B0 
 111      0A504A5D 
 112 0084 18734B92 		.ascii	"\030sK\222c\302\017\206*\263\266JF\0077;$\247q\021\310"
 112      63C20F86 
 112      2AB3B64A 
 112      4607373B 
 112      24A77111 
 113 0099 AEA664B2 		.ascii	"\256\246d\262;%\345B\015\215\\S\317\322HA/_\345\222"
 113      3B25E542 
 113      0D8D5C53 
 113      CFD24841 
 113      2F5FE592 
 114 00ad DC6C5AF5 		.ascii	"\334lZ\365\230k\253\334\226\335c\275\250\326\213\027"
 114      986BABDC 
 114      96DD63BD 
 114      A8D68B17 
 115 00bd 91BD00C2 		.ascii	"\221\275\000\302\250$;\234\212\313\355Q\2758\372\012"
 115      A8243B9C 
 115      8ACBED51 
 115      BD38FA0A 
 116 00cd 326A720B 		.ascii	"2jr\013\0347\214\243\271\375\363\263\370\336\273\331"
 116      1C378CA3 
 116      B9FDF3B3 
 116      F8DEBBD9 
 117 00dd E431E3EF 		.ascii	"\3441\343\357|\0361\214\224F-B\020\341e\032\240nv\222"
 117      7C1E318C 
 117      94462D42 
 117      10E1651A 
 117      A06E7692 
 118 00f1 A3342F13 		.ascii	"\2434/\023\233\312\376|\340p\275\2213R\306\277\004\015"
 118      9BCAFE7C 
 118      E070BD91 
 118      3352C6BF 
 118      040D
 119 0103 A32C8156 		.ascii	"\243,\201V@\2729\022+ \217f\347\016\034)F:$\360-\207"
 119      40BA3912 
 119      2B208F66 
 119      E70E1C29 
 119      463A24F0 
 120 0119 3C2D6573 		.ascii	"<-es\371\374\315\257\222\277l|\002\201\24290\202\240"
 120      F9FCCDAF 
 120      92BF6C7C 
 120      0281A239 
 120      3082A0
 121 012c 50832E6A 		.ascii	"P\203.j\244j\2629k!\200\307\261\005\352D_\317\214\015"
 121      A46AB239 
 121      6B2180C7 
 121      B105EA44 
 121      5FCF8C0D 
 122 0140 D4288D64 		.ascii	"\324(\215d9A\226&1\323,z\215&]\272\030\264R\177\222"
 122      39419626 
 122      31D32C7A 
 122      8D265DBA 
 122      18B4527F 
 123 0155 7A9F18FB 		.ascii	"z\237\030\373\031\274M\014:D\337EFw7kzX\323\313\274"
 123      19BC4D0C 
ARM GAS  /tmp/ccCnU44R.s 			page 9


 123      3A44DF45 
 123      4677376B 
 123      7A58D3CB 
 124 016a 133F2724 		.ascii	"\023?'$I\023\235G\341n\200\245D\317Nj\331N\014\242\304"
 124      49139D47 
 124      E16E80A5 
 124      44CF4E6A 
 124      D94E0CA2 
 125 017f 7AF907D8 		.ascii	"z\371\007\330wq\372VV\012\340)t\302\007\360\376\230"
 125      7771FA56 
 125      560AE029 
 125      74C207F0 
 125      FE98
 126 0191 61AC26E5 		.ascii	"a\254&\345\337\202Ec\202\275y\"(\023\216\311\3401\223"
 126      DF824563 
 126      82BD7922 
 126      28138EC9 
 126      E03193
 127 01a4 1F46DA01 		.ascii	"\037F\332\001\006K\337\236E\016k\207\317\014zj\210!"
 127      064BDF9E 
 127      450E6B87 
 127      CF0C7A6A 
 127      8821
 128 01b6 79A095EA 		.ascii	"y\240\225\3520*\014\3415\021\257\011\371\206\321e\""
 128      302A0CE1 
 128      3511AF09 
 128      F986D165 
 128      22
 129 01c7 17C74FBD 		.ascii	"\027\307O\275\255\225#\253*#9\224\2631v\320\262\010"
 129      AD9523AB 
 129      2A233994 
 129      B33176D0 
 129      B208
 130 01d9 F203407E 		.ascii	"\362\003@~2\323\267'\245r?\253*\373\341\005\301,\253"
 130      32D3B727 
 130      A5723FAB 
 130      2AFBE105 
 130      C12CAB
 131 01ec 2CF44205 		.ascii	",\364B\005\264R\031-\333hE\240/ff\262X&\232\327\026"
 131      B452192D 
 131      DB6845A0 
 131      2F6666B2 
 131      58269AD7 
 132 0201 AD3A4276 		.ascii	"\255:Bv\016\250\026\251\023\3602$s\227\316\253\034\005"
 132      0EA816A9 
 132      13F03224 
 132      7397CEAB 
 132      1C05
 133 0213 05896B82 		.ascii	"\005\211k\202\"M\022(\214\253M\3777\026\356\376&\374"
 133      224D1228 
 133      8CAB4DFF 
 133      3716EEFE 
 133      26FC
 134 0225 0F63753B 		.ascii	"\017cu;\264qm)\020S\241\262\276,\302\376l\363\022\377"
 134      B4716D29 
 134      1053A1B2 
 134      BE2CC2FE 
ARM GAS  /tmp/ccCnU44R.s 			page 10


 134      6CF312FF 
 135 0239 B541913E 		.ascii	"\265A\221>y\022J\276\021\306\207\"\250\210\245a\\\303"
 135      79124ABE 
 135      11C68722 
 135      A888A561 
 135      5CC3
 136 024b 827E7723 		.ascii	"\202~w#\375q\2258;\326!2f\016?\005\300\327\005\271\016"
 136      FD719538 
 136      3BD62132 
 136      660E3F05 
 136      C0D705B9 
 137 0260 C3D8C504 		.ascii	"\303\330\305\004K\216e\347\002a\\\313X\245X\230:\306"
 137      4B8E65E7 
 137      02615CCB 
 137      58A55898 
 137      3AC6
 138 0272 689D919E 		.ascii	"h\235\221\2360\034f\346\353\0049\007\303\2375)Q\220"
 138      301C66E6 
 138      EB043907 
 138      C39F3529 
 138      5190
 139 0284 F12FE400 		.ascii	"\361/\344\000~m\246\325M\236\330B\227\304g\316\3323"
 139      7E6DA6D5 
 139      4D9ED842 
 139      97C467CE 
 139      DA33
 140 0296 3D34C966 		.ascii	"=4\311f\334,\263I\370\376\326X\215=e\332\213\253q'\321"
 140      DC2CB349 
 140      F8FED658 
 140      8D3D65DA 
 140      8BAB7127 
 141 02ab 9AF0CB83 		.ascii	"\232\360\313\203\024\210\235\350IH\376~\356\214\313"
 141      14889DE8 
 141      4948FE7E 
 141      EE8CCB
 142 02ba D2AED7DE 		.ascii	"\322\256\327\3365\376\\\007n\241\217\313\207\247QL\312"
 142      35FE5C07 
 142      6EA18FCB 
 142      87A7514C 
 142      CA
 143 02cb 9FD6B092 		.ascii	"\237\326\260\222p\002}\310XIL\245\347gm\365k\037\244"
 143      70027DC8 
 143      58494CA5 
 143      E7676DF5 
 143      6B1FA4
 144 02de 2A98F6CE 		.ascii	"*\230\366\316%\312\327\007\305i%/\314\2306\214\353\004"
 144      25CAD707 
 144      C569252F 
 144      CC98368C 
 144      EB04
 145 02f0 59AFC1C6 		.ascii	"Y\257\301\306\217\214\364\363al\000{\013\032\315-\310"
 145      8F8CF4F3 
 145      616C007B 
 145      0B1ACD2D 
 145      C8
 146 0301 64E6BB0B 		.ascii	"d\346\273\013\2072I\213\233\254\227\015\326K3?\244B"
 146      8732498B 
ARM GAS  /tmp/ccCnU44R.s 			page 11


 146      9BAC970D 
 146      D64B333F 
 146      A442
 147 0313 6FA35C6F 		.ascii	"o\243\\o\247\350\025\321\273\354\303\253\031\206d2M"
 147      A7E815D1 
 147      BBECC3AB 
 147      19866432 
 147      4D
 148 0324 1EFB495E 		.ascii	"\036\373I^B\366\341\240\200\232\012_\251!N\272y\026"
 148      42F6E1A0 
 148      809A0A5F 
 148      A9214EBA 
 148      7916
 149 0336 A7168AD4 		.ascii	"\247\026\212\324\250[\0215\352J\325x\246\262\032\373"
 149      A85B1135 
 149      EA4AD578 
 149      A6B21AFB 
 150 0346 6EA41727 		.ascii	"n\244\027'e+r}I\025\354\275_\025$\263\233-T\203\035"
 150      652B727D 
 150      4915ECBD 
 150      5F1524B3 
 150      9B2D5483 
 151 035b FE91A090 		.ascii	"\376\221\240\220\204\\\205\331'\221\002\314\214\277"
 151      845C85D9 
 151      279102CC 
 151      8CBF
 152 0369 692D6CA4 		.ascii	"i-l\244\265<\335\314b!\335\246\025I\267\251(\335G5\330"
 152      B53CDDCC 
 152      6221DDA6 
 152      1549B7A9 
 152      28DD4735 
 153 037e C1D36D2D 		.ascii	"\301\323m-I\227\035\363s\327\016J6\037\346\337W|\363"
 153      49971DF3 
 153      73D70E4A 
 153      361FE6DF 
 153      577CF3
 154 0391 0C12FFF9 		.ascii	"\014\022\377\371j~>\357\025(6?\030E\202\335\261\265"
 154      6A7E3EEF 
 154      1528363F 
 154      184582DD 
 154      B1B5
 155 03a3 D4CC642F 		.ascii	"\324\314d/\203r?\326\315E\254\037\323 \301Y\373-\326"
 155      83723FD6 
 155      CD45AC1F 
 155      D320C159 
 155      FB2DD6
 156 03b6 E4C524CE 		.ascii	"\344\305$\316\251\271\340\320\323&\265\205{Wlj\372\212"
 156      A9B9E0D0 
 156      D326B585 
 156      7B576C6A 
 156      FA8A
 157 03c8 A8A70B1E 		.ascii	"\250\247\013\036W\011\362\270\006\357 '\262\261\374"
 157      5709F2B8 
 157      06EF2027 
 157      B2B1FC
 158 03d7 B42C8EFF 		.ascii	"\264,\216\377z\244\364^\361,s\037\024\356\225U\021Q"
 158      7AA4F45E 
ARM GAS  /tmp/ccCnU44R.s 			page 12


 158      F12C731F 
 158      14EE9555 
 158      1151
 159 03e9 2797E140 		.ascii	"'\227\341@\356\257\363v\006\2556\241\266\240X\301-\331"
 159      EEAFF376 
 159      06AD36A1 
 159      B6A058C1 
 159      2DD9
 160 03fb B9836B6D 		.ascii	"\271\203km\030'\230\275{\201\024i\327\340s\301p\223"
 160      182798BD 
 160      7B811469 
 160      D7E073C1 
 160      7093
 161 040d C59045EE 		.ascii	"\305\220E\356`D;\331>\323\367\351\317\302>\267\262\311"
 161      60443BD9 
 161      3ED3F7E9 
 161      CFC23EB7 
 161      B2C9
 162 041f 923F3583 		.ascii	"\222?5\203\364};#\361}\316\027\366\331\267\"b\372\212"
 162      F47D3B23 
 162      F17DCE17 
 162      F6D9B722 
 162      62FA8A
 163 0432 36B54B83 		.ascii	"6\265K\203/\005\325\356%\245\227\311O\333\034\375%\245"
 163      2F05D5EE 
 163      25A597C9 
 163      4FDB1CFD 
 163      25A5
 164 0444 F7EAFD4B 		.ascii	"\367\352\375K\257}Ix\252<\267\010\357\267*/3\235\277"
 164      AF7D4978 
 164      AA3CB708 
 164      EFB72A2F 
 164      339DBF
 165 0457 527AFDF6 		.ascii	"Rz\375\366<\350\345\3155\362\300\265\315\246F\323\237"
 165      3CE8E5CD 
 165      35F2C0B5 
 165      CDA646D3 
 165      9F
 166 0468 CCD91AB5 		.ascii	"\314\331\032\265\255\210FmE\032\365hpUh\324[\256Qf\301"
 166      AD88466D 
 166      451AF568 
 166      705568D4 
 166      5BAE5166 
 167 047d 0E5D3870 		.ascii	"\016]8p\313\377\205@;\007\025R2/\232\023\205\034:V$"
 167      CBFF8540 
 167      3B071552 
 167      322F9A13 
 167      851C3A56 
 168 0492 878EA21C 		.ascii	"\207\216\242\034\250h\356T,\032\316\302k\336\233W\351"
 168      A868EE54 
 168      2C1ACEC2 
 168      6BDE9B57 
 168      E9
 169 04a3 6F3A039A 		.ascii	"o:\003\232\354\256\003\322\027H\271\371\355z\026R\246"
 169      ECAE03D2 
 169      1748B9F9 
 169      ED7A1652 
ARM GAS  /tmp/ccCnU44R.s 			page 13


 169      A6
 170 04b4 BFC6FCC1 		.ascii	"\277\306\374\301Q\367\037\317\231\246\177\012&59`\232"
 170      51F71FCF 
 170      99A67F0A 
 170      26353960 
 170      9A
 171 04c5 003CDFFC 		.ascii	"\000<\337\374\270\226]\310\310<\262]\253\036\031\212"
 171      B8965DC8 
 171      C83CB25D 
 171      AB1E198A 
 172 04d5 448223E1 		.ascii	"D\202#\341\310\356]\241\316 T\215\204\342\341\300\256"
 172      C8EE5DA1 
 172      CE20548D 
 172      84E2E1C0 
 172      AE
 173 04e6 9762F144 		.ascii	"\227b\361Dg\2672\222\010$\366\214\310\241x|\315\300"
 173      67B73292 
 173      0824F68C 
 173      C8A1787C 
 173      CDC0
 174 04f8 D6AEBEBE 		.ascii	"\326\256\276\276-On\011\304\207\364\355\261=\321!\025"
 174      2D4F6E09 
 174      C487F4ED 
 174      B13DD121 
 174      15
 175 0509 6C5B2C1A 		.ascii	"l[,\032\015\005\023\341\350\260\012-\302\266-:\244\307"
 175      0D0513E1 
 175      E8B00A2D 
 175      C2B62D3A 
 175      A4C7
 176 051b 5ED7ADA9 		.ascii	"^\327\255\251XT\017$\022\241\310\356\204\012\232\265"
 176      58540F24 
 176      12A1C8EE 
 176      840A9AB5 
 177 052b A4BFFFC5 		.ascii	"\244\277\377\305~k\305&\032\371\272{\311k\203\230.\306"
 177      7E6BC526 
 177      1AF9BA7B 
 177      C96B8398 
 177      2EC6
 178 053d 6E8D4543 		.ascii	"n\215EC*H]\240\213\311\355\341]!}`\357\010\271\324\373"
 178      2A485DA0 
 178      8BC9EDE1 
 178      5D217D60 
 178      EF08B9D4 
 179 0552 884D42DF 		.ascii	"\210MB\337\026\217\307\342*l\370\277\005\241\"\327/"
 179      168FC7E2 
 179      2A6CF8BF 
 179      05A122D7 
 179      2F
 180 0563 C4C88F5E 		.ascii	"\304\310\217^\234\312\177\177\366-;"
 180      9CCA7F7F 
 180      F62D3B
 181              		.text
 182              		.section	.gnu.lto_sdmmGetMMCDriver.889be19d84897ea0,"",%progbits
 183 0000 789C6D50 		.ascii	"x\234mP\315J\202A\024=\347\316|\032\021\232\320\306"
 183      CD4A8241 
 183      143DE7CE 
ARM GAS  /tmp/ccCnU44R.s 			page 14


 183      7C1A119A 
 183      D0C6
 184 0012 9DCB4868 		.ascii	"\235\313Hh\343\242\027I\250\245}\206|\340\007\202\017"
 184      E3A21749 
 184      A8A57D86 
 184      7CE00782 
 184      0F
 185 0023 E0183E80 		.ascii	"\340\030>\200\353\332\324.\022l\353\322\225\204\220"
 185      EBDAD42E 
 185      126CEBD2 
 185      958490
 186 0032 E022B056 		.ascii	"\340\"\260V-]\364\010\201\335\031Q2\2720s\357\2359\347"
 186      2D5DF408 
 186      81DD1951 
 186      32BA3073 
 186      EF9D39E7 
 187 0046 DC1F81E0 		.ascii	"\334\037\201\340\257U\364\024\011\034\252g\004J\177"
 187      AF55F414 
 187      091CAA67 
 187      044A7F
 188 0055 0674F744 		.ascii	"\006t\367D\314\343\004p\373v\231\205;0\264\353wK\372"
 188      CCE30470 
 188      FB769985 
 188      3B30B4EB 
 188      774BFA
 189 0068 0044478C 		.ascii	"\000DG\214e\347\222A\345Y\306\237\253\325p1\275\037"
 189      65E79241 
 189      E559C69F 
 189      ABD57031 
 189      BD1F
 190 007a 51324442 		.ascii	"Q2DB\030\246\204\325HU\223\200\212\320s\256_\002\342"
 190      18A684D5 
 190      48559380 
 190      8AD073AE 
 190      5F02E2
 191 008d 909EEBED 		.ascii	"\220\236\353\355\265\252\024\357\315+n>F\2039k|PJ\203"
 191      B5AA14EF 
 191      CD2B6E3E 
 191      4683396B 
 191      7C504A83 
 192 00a1 B68C1365 		.ascii	"\266\214\023e\337\341\226\011\245As\241\336\204rW\334"
 192      DFE19609 
 192      A54173A1 
 192      DE847257 
 192      DC
 193 00b2 B4FF82DE 		.ascii	"\264\377\202\336W7\277\245x\010\177\217WU\206\016\022"
 193      5737BFA5 
 193      78087F8F 
 193      5755860E 
 193      12
 194 00c3 C41783C2 		.ascii	"\304\027\203\302\006\030\225\361\344\324\316\264\263"
 194      061895F1 
 194      E4D4CEB4 
 194      B3
 195 00d0 FF0B7047 		.ascii	"\377\013pG\304\206\016\347\272\000(;\374\275\203\252"
 195      C4860EE7 
 195      BA00283B 
ARM GAS  /tmp/ccCnU44R.s 			page 15


 195      FCBD83AA 
 196 00e0 638E3D49 		.ascii	"c\216=IS\371~;\3623\321#\375\232s\355z\232\306\355$"
 196      53F97E3B 
 196      F233D123 
 196      FD9A73ED 
 196      7A9AC6ED 
 197 00f5 6D35AF4F 		.ascii	"m5\257Oc\374\000\240\207EK"
 197      63FC00A0 
 197      87454B
 198              		.text
 199              		.section	.gnu.lto_sdmmcGetFS.889be19d84897ea0,"",%progbits
 200 0000 789C6D50 		.ascii	"x\234mP=K\003A\020}ov\317\210\210F\260Ig)\006l,\362"
 200      3D4B0341 
 200      107D6F76 
 200      CF888846 
 200      B0496729 
 201 0018 470C6819 		.ascii	"G\014h\031O\011\0079\020\362\003\262\221\374\200\253"
 201      4F090739 
 201      10F203B2 
 201      91FC80AB 
 202 0028 B5319D58 		.ascii	"\2651\235X$\220*\205\205U\010$\012\351<+K\213\374\207"
 202      24902A85 
 202      85550824 
 202      0AE93C2B 
 202      4B8BFC87 
 203 003c CBEC4A44 		.ascii	"\313\354JD\305\201\335\231\331}\357\315\207@\360\327"
 203      C581DD99 
 203      D97DEFCD 
 203      8740F0D7 
 204 004c 4EF45408 		.ascii	"N\364T\010\224\3253\002%{\005\272\233\"\346a\002\270"
 204      94D53302 
 204      257B05BA 
 204      9B22E661 
 204      02B8
 205 005e 2DFB5982 		.ascii	"-\373Y\202\3336\264_\357\226\364\001\210\216\030\313"
 205      DB36B45F 
 205      EF96F401 
 205      888E18CB 
 206 006e CE3983CA 		.ascii	"\3169\203\312P\236?\212b\220\315\356\347\224\015\"!"
 206      509E3F8A 
 206      6290CDEE 
 206      E7940D22 
 206      21
 207 007f 0C53C26A 		.ascii	"\014S\302j\244\252I@E\3509\227\035\000qHO\365\366Zu"
 207      A4AA4940 
 207      45E83997 
 207      1D007148 
 207      4FF5F65A 
 208 0094 8AF7E605 		.ascii	"\212\367\346\0057\357\343\321\202\015\366\225\322\244"
 208      37EFE3D1 
 208      820DF695 
 208      D2A4
 209 00a2 ADE248D9 		.ascii	"\255\342H\331w\270eBi\322\234\2517\241\334\005\327\355"
 209      77B86542 
 209      69D29CA9 
 209      37A1DC05 
 209      D7ED
ARM GAS  /tmp/ccCnU44R.s 			page 16


 210 00b4 4FD15B76 		.ascii	"O\321[vw\277)\036\302\237\343\325\225\241\203\004\361"
 210      77BF291E 
 210      C29FE3D5 
 210      95A18304 
 210      F1
 211 00c5 B7D1DE1A 		.ascii	"\267\321\336\032\030U\361\350\324j\332\331\377\005\370"
 211      1855F1E8 
 211      D46ADAD9 
 211      FF05F8
 212 00d4 4BC4860E 		.ascii	"K\304\206\016\027\272\000(;\374\345\240\352\230CO\322"
 212      17BA0028 
 212      3BFCE5A0 
 212      EA98434F 
 212      D2
 213 00e5 549EF27D 		.ascii	"T\236\362}?\023=\322\257y\247}\231\246q;I\257[W\307"
 213      3F133DD2 
 213      AF79A77D 
 213      99A6713B 
 213      49AF5B57 
 214 00fa 315669F4 		.ascii	"1Vi\364D\352"
 214      44EA
 215              		.text
 216              		.section	.gnu.lto_sdmmcFSMounted.889be19d84897ea0,"",%progbits
 217 0000 789C6362 		.ascii	"x\234cb`b@\007\222@<\003\210\005\200\230\221\231\201"
 217      60624007 
 217      92403C03 
 217      88058098 
 217      919981
 218 0013 9169C239 		.ascii	"\221i\3029\006\206F\016&FF\020\203\201\221\241\236\211"
 218      0686460E 
 218      26464610 
 218      838191A1 
 218      9E89
 219 0025 B13E9211 		.ascii	"\261>\222\021\254v=\323\201\007\377\377\257\333qz\301"
 219      AC763DD3 
 219      8107FFFF 
 219      AFDB717A 
 219      C1
 220 0036 3D462616 		.ascii	"=F&\026&\306\\F\006f\206L\260\034+CKC\303\004\005\006"
 220      26C65C46 
 220      0666864C 
 220      B01C2B43 
 220      4B43C304 
 221 004c 86643037 		.ascii	"\206d07\004H\202\364\20722\201h\346\263\014M\267vlW"
 221      044882F4 
 221      87323281 
 221      68E6B30C 
 221      4DB7766C 
 222 0061 4C645CC8 		.ascii	"Ld\\\310\310\312\220\316\310\254\315\260\252\001\010"
 222      C8CA90CE 
 222      C8ACCDB0 
 222      AA0108
 223 0070 AC819A67 		.ascii	"\254\201\232g3\314b\314ddLgd\212\000\322\020\007&1\302"
 223      33CC62CC 
 223      64644C67 
 223      648A00D2 
 223      10072631 
ARM GAS  /tmp/ccCnU44R.s 			page 17


 224 0085 9C7791A1 		.ascii	"\234w\221\241\361\000\013\\\033D,\204\221\021d(H)_q"
 224      F1000B5C 
 224      1B442C84 
 224      91116428 
 224      48295F71 
 225 0099 4A6E6E72 		.ascii	"JnnrqfnAN\252^2\003\000\3545*\265"
 225      71666E41 
 225      4EAA5E32 
 225      0300EC35 
 225      2AB5
 226              		.text
 227              		.section	.gnu.lto_.symbol_nodes.889be19d84897ea0,"",%progbits
 228 0000 789C4DCC 		.ascii	"x\234M\314KR\302@\024\205\341\323\247\023\360\011\370"
 228      4B52C240 
 228      1485E1D3 
 228      A713F009 
 228      F8
 229 0011 9C68951B 		.ascii	"\234h\225\033pS\256\344 Q\210 \017\203f\250\203\354"
 229      7053AEE4 
 229      20518820 
 229      0F8366A8 
 229      83EC
 230 0023 4432D62D 		.ascii	"D2\326-\250U\316\\\203\330\235Pvz\362\327\327\267\373"
 230      A855CE5C 
 230      83D89D50 
 230      767AF2D7 
 230      D7B7FB
 231 0036 12C48B41 		.ascii	"\022\304\213A}\2706\002\026o\2004M\2578\242\314\206"
 231      7DB83602 
 231      166F8034 
 231      4DAF38A2 
 231      CC86
 232 0048 CFA9614A 		.ascii	"\317\251aJ\261\301;\312\006\306\0032\222\215\247\264"
 232      B1C13BCA 
 232      06C60332 
 232      928DA7B4 
 233 0058 10E26B46 		.ascii	"\020\342kF^C\032\237\204p\341\230\212\032\013&T\334"
 233      5E431A9F 
 233      8470E198 
 233      8A1A0B26 
 233      54DC
 234 006a E03DD56A 		.ascii	"\340=\325j\354\273a\354\277\336\262\345br\252]\017\373"
 234      ECBB61EC 
 234      BFDEB2E5 
 234      6272AA5D 
 234      0FFB
 235 007c 7D639EA8 		.ascii	"}c\236\250\255\240Gj;hI\355\004e\324n\320\003\265\027"
 235      ADA0476A 
 235      3B6849ED 
 235      0465D46E 
 235      D003B517 
 236 0090 B4A0F683 		.ascii	"\264\240\366\203\346T'hFu\377e\321C\362\361\353\332"
 236      E6542768 
 236      4675FF65 
 236      D143F2F1 
 236      EBDA
 237 00a2 4551B583 		.ascii	"EQ\265\203\225\257=\305\352\323\367\004\311\360\347"
ARM GAS  /tmp/ccCnU44R.s 			page 18


 237      95AF3DC5 
 237      EAD3F704 
 237      C9F0E7
 238 00b1 C25AE06B 		.ascii	"\302Z\340kT\272\036\243\030\227\265\253\036\241\230"
 238      54BA1EA3 
 238      1897B5AB 
 238      1EA198
 239 00c0 D41ECC36 		.ascii	"\324\036\3146}_\323\367u^\236[{\210$\363u\35737>@\261"
 239      7D5FD3F7 
 239      755E9E5B 
 239      7B8824F3 
 239      75EF3337 
 240 00d7 AC5FE5DF 		.ascii	"\254_\345\337g\325m~\211?\266kq\341"
 240      67D56D7E 
 240      893FB66B 
 240      71E1
 241              		.text
 242              		.section	.gnu.lto_.refs.889be19d84897ea0,"",%progbits
 243 0000 789C6362 		.ascii	"x\234cb`bPg\200\000>fF\026&VF6&v\006\026\030d\342`\342"
 243      60625067 
 243      80003E66 
 243      46162656 
 243      46362676 
 244 001b 80B098D9 		.ascii	"\200\260\230\331\231X\231x\230x\031\000\022\357\000"
 244      99589978 
 244      98781900 
 244      12EF00
 245 002a BB       		.ascii	"\273"
 246              		.text
 247              		.section	.gnu.lto_.decls.889be19d84897ea0,"",%progbits
 248 0000 789CBD7D 		.ascii	"x\234\275}\013t\024U\266vU\365+!\221\227\250\240(\355"
 248      0B741455 
 248      B67655F5 
 248      2B219197 
 248      A8A028ED 
 249 0014 9D997FF9 		.ascii	"\235\231\177\371\337u5\274\306q\346\316U!\017\310\025"
 249      DF7535BC 
 249      C671E6CE 
 249      55210FC8 
 249      15
 250 0025 48561266 		.ascii	"HV\022f\306\265\356\272m\221t\240\257y\331\335A\374"
 250      C6B5EEBA 
 250      6D9174A0 
 250      AF79D9DD 
 250      41FC
 251 0037 FF7FAD29 		.ascii	"\377\177\255)@\202\212\"\2047B\210\200\010\242\274#"
 251      40828A22 
 251      84374288 
 251      8008A2BC 
 251      23
 252 0048 CF40830C 		.ascii	"\317@\203\014\004P\011 /\025\210\370\004\006%D@y\345"
 252      04500920 
 252      2F1588F8 
 252      04062544 
 252      4079E5
 253 005b DF679FAA 		.ascii	"\337g\237\252\356S\225\252\356S\355\235\333k\235S\325"
 253      EE5395AA 
ARM GAS  /tmp/ccCnU44R.s 			page 19


 253      EE53ED9D 
 253      DB6B9D53 
 253      D5
 254 006c A7EB7CB5 		.ascii	"\247\353|\265\367>\373\354\263\317>\247\252%A\022\226"
 254      F73EFBEC 
 254      B3CF3EA7 
 254      AA254112 
 254      96
 255 007d 3A04A11D 		.ascii	":\004\241\035>\237\274.\010g\272\010B\212 \010\217C"
 255      3E9FBC2E 
 255      0867BA08 
 255      428A2008 
 255      8F43
 256 008f EA01C909 		.ascii	"\352\001\311\011\351MH\213!-\207\264\002\322JH\357B"
 256      E94D488B 
 256      212D87B4 
 256      02D24A48 
 256      EF42
 257 00a1 5A05E94B 		.ascii	"Z\005\351KH_Aj\200\364\015\244o!\235\203t\036\322\337"
 257      485F416A 
 257      80F40DA4 
 257      6F219D83 
 257      741ED2DF 
 258 00b5 215D84E4 		.ascii	"!]\204\344\201\364\003\244\377\224\004\374t\205$\303"
 258      81F403A4 
 258      FF9404FC 
 258      748524C3 
 259 00c5 F91C48D7 		.ascii	"\371\034H\327!\335\206\264\011h\330\016i7\244\375\220"
 259      21DD86B4 
 259      0968D80E 
 259      6937A4FD 
 259      90
 260 00d6 0E403A09 		.ascii	"\016@:\011\351SH\237C\352\001\204\334\015\351^H}\234"
 260      E953489F 
 260      43EA0184 
 260      DC0DE95E 
 260      487D9C
 261 00e9 14F35770 		.ascii	"\024\363Wp\374\015\244\201\220\3767\244G!=\014\251\237"
 261      FC0DA481 
 261      90FE37A4 
 261      47213D0C 
 261      A99F
 262 00fb 53D07DC8 		.ascii	"S\320}\310\275\322\340\330\0148\235\341\230\256\362"
 262      BDD2E0D8 
 262      0C389DE1 
 262      98AEF2
 263 010a F518647F 		.ascii	"\365\030d\177\204\364{H\377\006\351C\370\375q8>\241"
 263      84F47B48 
 263      FF06E943 
 263      F8FD7138 
 263      3EA1
 264 011c D677AA75 		.ascii	"\326w\252uO\252\364\020\272\010\013\265\220\315\224"
 264      4FAAF410 
 264      BA080BB5 
 264      90CD94
 265 012b F4F720BC 		.ascii	"\364\367 \274\270U\036\011m\277\026\005\341\001H#E\212"
 265      B8551E09 
ARM GAS  /tmp/ccCnU44R.s 			page 20


 265      6DBF1605 
 265      E1014823 
 265      458A
 266 013d 0307A1BF 		.ascii	"\003\007\241\277H\217s\014u\311\207\310Add$\252e\306"
 266      488F730C 
 266      75C987C8 
 266      41646424 
 266      AA65C6
 267 0150 0F91D500 		.ascii	"\017\221\325\0008\366bx\021\340\3744\244\371\022\255"
 267      38F66278 
 267      11E0FC34 
 267      A4F912AD 
 268 0160 EF54653E 		.ascii	"\357Te>\010NR\240\334\003\351\252\332^\203\241,\023"
 268      084E52A0 
 268      DC03E9AA 
 268      DA5E83A1 
 268      2C13
 269 0172 92175296 		.ascii	"\222\027R\226\223\266\313}N=\275\331\316X\333\215\002"
 269      93B6CB7D 
 269      4E3DBDD9 
 269      CE58DB8D 
 269      02
 270 0183 BC1CF83E 		.ascii	"\274\034\370>\004\322\357D\274\2250\024\316\357\201"
 270      04D2EF44 
 270      BC953014 
 270      CEEF81
 271 0192 940B69AE 		.ascii	"\224\013i\256\024ko\201\321\001Mg\376\335\251\327\221"
 271      146B6F81 
 271      D1014D67 
 271      FEDDA9D7 
 271      91
 272 01a3 538E98FE 		.ascii	"S\216\230\376h\372D\364\2553\224w\201\324\015\322]\016"
 272      68FA44F4 
 272      AD339477 
 272      81D40DD2 
 272      5D0E
 273 01b5 2AAB4721 		.ascii	"*\253G!\375\021\322\020H\251*\357}T\035 2$mCt\202\350"
 273      FD11D210 
 273      48A92AEF 
 273      7D541D20 
 273      32246D43 
 274 01cc C6E7AAAE 		.ascii	"\306\347\252\256\020\254\0068\256\205\264\336\241\327"
 274      10AC0638 
 274      AE85B4DE 
 274      A1D7
 275 01da 0DA22BBF 		.ascii	"\015\242+\2772\350\006\321;R\244\311N\223\027\021\375"
 275      32E806D1 
 275      3B52A4C9 
 275      4E931711 
 275      FD
 276 01eb 9D0E4A97 		.ascii	"\235\016J\227\250^G\216\333\034\372\372\333\325\372"
 276      A85E478E 
 276      DB1CFAFA 
 276      DBD5FA
 277 01fa AB848EF5 		.ascii	"\253\204\216\365\357R\371\021\325\353\310q\227\241>"
 277      EF52F911 
 277      D5EBC871 
ARM GAS  /tmp/ccCnU44R.s 			page 21


 277      97A13E
 278 0209 D17787A1 		.ascii	"\321w\207\241\256\250\326\025\325\337\311\261\311P/"
 278      AEA8D615 
 278      D5DFC9B1 
 278      C9502F
 279 0218 4D784551 		.ascii	"MxEQ&(\3655\312\320\246\316\335\204i\012|\274s;\247"
 279      2628F535 
 279      CAD0A6CE 
 279      DD84690A 
 279      7CBC733B 
 280 022d 0A2F91E2 		.ascii	"\012/\221\342\226\267\224\236=\005\341/\242,BQ\012\236"
 280      96B7949E 
 280      3D05E12F 
 280      A22C4251 
 280      0A9E
 281 023f A4A722D0 		.ascii	"\244\247\"\320o\204\245p)\\/\311\342\0221\025\010\225"
 281      6F84A570 
 281      295C2FC9 
 281      E2123115 
 281      0895
 282 0251 C48E6A46 		.ascii	"\304\216jF>\364\367\177\026V\320\353\317\032/#\240\344"
 282      3EF4F77F 
 282      1656D0EB 
 282      CF1A2F23 
 282      A0E4
 283 0263 8AD859BB 		.ascii	"\212\330Y\273\030\275g\223\250\335\264\227\012\266X"
 283      18BD6793 
 283      A8DDB497 
 283      0AB658
 284 0272 EC866748 		.ascii	"\354\206gH\242\242R\216W\250U\274Z\015\247Z\343m\004"
 284      A2A2528E 
 284      57A855BC 
 284      5A0DA75A 
 284      E36D04
 285 0285 17B4E2E8 		.ascii	"\027\264\342\350IO\206\000\263zo\212i\011\304D\311U"
 285      494F8600 
 285      B37A6F8A 
 285      6909C444 
 285      C955
 286 0297 EBB74449 		.ascii	"\353\267DI\355\255\002\254\260M\352;\026\244\336\227"
 286      EDAD02AC 
 286      B04DEA3B 
 286      16A4DE97 
 287 02a7 80D4E5F6 		.ascii	"\200\324\345\366HU$\015\300\253\002\274k\233\324\367"
 287      4855240D 
 287      C0AB02BC 
 287      6B9BD4F7 
 288 02b7 2C48ED93 		.ascii	",H\355\223\200\324\225\026\244v\027\246#\251M\235\243"
 288      80D49516 
 288      A47617A6 
 288      23A94D9D 
 288      A3
 289 02c8 75955F69 		.ascii	"u\225_i\225\32785\225\233\326\322\370\367\251\016EI"
 289      95D73835 
 289      959BD6D2 
 289      F8F7A90E 
 289      4549
ARM GAS  /tmp/ccCnU44R.s 			page 22


 290 02da 91C5D562 		.ascii	"\221\305\325bwP\273\301\"\200.\023\377Y\305L\014C\210"
 290      7750BBC1 
 290      22802E13 
 290      FF59C54C 
 290      0C4388
 291 02ed 58075569 		.ascii	"X\007Ui-\252\307\221\255{\322\025'-\027tx\272\317\203"
 291      2DAAC791 
 291      AD7BD215 
 291      272D1774 
 291      78BACF83 
 292 0301 423D101C 		.ascii	"B=\020\034i\334\263UTj\322\231N2\267s\234^2\255em\315"
 292      69DCB355 
 292      546AD299 
 292      4E32B773 
 292      9C5E32AD 
 293 0318 CC0C24B9 		.ascii	"\314\014$\271\001{\312xQO\263,\252\262d\277k\027\020"
 293      017BCA78 
 293      514FB32C 
 293      AAB264BF 
 293      6B1710
 294 032b B468EF50 		.ascii	"\264h\357P;\207$\324 \004!\327\354\266\3216a\032B\307"
 294      3B8724D4 
 294      200421D7 
 294      ECB6D136 
 294      611A42C7 
 295 033f 424BE3CD 		.ascii	"BK\343\315W=s\224\310x\207F\323T\333\200):\2314\357"
 295      573D7394 
 295      C8788746 
 295      D354DB80 
 295      293A9934 
 296 0354 495BF38C 		.ascii	"I[\363\214\006Vk\033\254\253\016\3540\0136\3276XO\035"
 296      06566B1B 
 296      ACAB0EEC 
 296      300B36D7 
 296      36584F1D 
 297 0368 D8272CD8 		.ascii	"\330',\330\"\333`^\035\3301\026\354-\333`\017\351\300"
 297      22DB605E 
 297      1DD83116 
 297      EC2DDB60 
 297      0FE9C0
 298 037b 4ED4A437 		.ascii	"N\324\2447?\243j\221R\243<\264\2743#\017\265\272\304"
 298      3FA36A91 
 298      52A33CB4 
 298      BC33230F 
 298      B5BAC4
 299 038e 6AD1ECC7 		.ascii	"j\321\354\307P\213v\343\335Wu\320\"\207A\213\034z-r"
 299      508B76E3 
 299      DD5775D0 
 299      2287418B 
 299      1C7A2D72 
 300 03a2 A4C64EDA 		.ascii	"\244\306N\332\333qpYo\344@w_3\016\372\352\325h\303k"
 300      DB717059 
 300      6FE44077 
 300      5F330EFA 
 300      EAD568C3 
 301 03b7 9EB94A64 		.ascii	"\236\271Jd\202C#\352}\036\300\024K\275\214\334\250y"
 301      824323EA 
ARM GAS  /tmp/ccCnU44R.s 			page 23


 301      7D1EC014 
 301      4BBD8CDC 
 301      A879
 302 03c9 B59752BF 		.ascii	"\265\227R\277KT\245BM\203\2711\321\244\262\247\216\366"
 302      4B54A542 
 302      4D83B931 
 302      D1A4B2A7 
 302      8EF6
 303 03db AD034840 		.ascii	"\255\003H@\244\203T<\006\251x\364R\361\244\306N\210"
 303      A483543C 
 303      06A978F4 
 303      52F1A4C6 
 303      4E88
 304 03ed F7DA85C8 		.ascii	"\367\332\205\310e\217\221\015\335\235\315\330\320\251"
 304      658F910D 
 304      DD9DCDD8 
 304      D0A9
 305 03fb 494BE34F 		.ascii	"IK\343O\257\365\234\247D^thd\035\342\001\354j-\227\331"
 305      AFF59CA7 
 305      445E7468 
 305      641DE201 
 305      EC6A2D97 
 306 0410 7BD3A7C9 		.ascii	"{\323\247\311\032\330\347\266\301\364J<\227\005\373"
 306      1AD8E7B6 
 306      C1F44A3C 
 306      9705FB
 307 041f 9A07ACA7 		.ascii	"\232\007\254\2475e\363Y\260\013\266\301\364\224-`\301"
 307      3565F359 
 307      B00BB6C1 
 307      F4942D60 
 307      C1
 308 0430 DA78C0BC 		.ascii	"\332x\300\274\326\224\325\261`7l\203\351)[\303\202M"
 308      D694D5B1 
 308      60376C83 
 308      E9295BC3 
 308      824D
 309 0442 9438C01E 		.ascii	"\2248\300\036\262\246l\035\013\366\252m0\2262%\322\260"
 309      B2A66C1D 
 309      0BF6AA6D 
 309      30963225 
 309      D2B0
 310 0454 370D0623 		.ascii	"7\015\006#v\244o`F\372(\230\242\215}-\266\207\372/,"
 310      76A46F60 
 310      46FA2898 
 310      A28D7D2D 
 310      B687FA2F 
 311 0469 86FA76CD 		.ascii	"\206\372v\315\231\224`\036c`\302pc\365\274\257\211L"
 311      9994601E 
 311      6360C270 
 311      63F5BCAF 
 311      894C
 312 047b CC3EEC08 		.ascii	"\314>\354\010-\213\353\305\337@\276A|\020\362\315\230"
 312      2D8BEBC5 
 312      DF40BE41 
 312      7C10F2CD 
 312      98
 313 048c 6FC5BC11 		.ascii	"o\305\274\021\363\035\230\357\304\374\003\314\2330\337"
ARM GAS  /tmp/ccCnU44R.s 			page 24


 313      F31D98EF 
 313      C4FC03CC 
 313      9B30DF
 314 049b 8FF941CC 		.ascii	"\217\371A\314\017a~\004\363\243\230\037\307\374$\346"
 314      0F617E04 
 314      F3A3981F 
 314      C7FC24E6 
 315 04ab 9F617E0A 		.ascii	"\237a~\012\3633\220G?V\002Y\025\337\335\252\177\322"
 315      F3339047 
 315      3F560259 
 315      15DFDDAA 
 315      7FD2
 316 04bd E06FE98C 		.ascii	"\340o\351\214 \001\370\312v\033|m\321\006b\002R\277"
 316      2001F8CA 
 316      761B7C6D 
 316      D1066202 
 316      52BF
 317 04cf B4E7195E 		.ascii	"\264\347\031^\212:\261\017\250\000\337\332&\365;\013"
 317      8A3AB10F 
 317      A800DFDA 
 317      26F53B0B 
 318 04df 52EF4F40 		.ascii	"R\357O@\3527\366H\235\026ub\377I\0058o\233\324\013\026"
 318      EA37F648 
 318      9D167562 
 318      FF490538 
 318      6F9BD40B 
 319 04f4 A43E9880 		.ascii	"\244>\230\200\324s\366H\235\033\225\352\235*\300E\333"
 319      D473F648 
 319      9D1B95EA 
 319      9D2AC045 
 319      DB
 320 0505 A47E6F41 		.ascii	"\244~oAj\367\004\244\376\235\337\337~F\253K\242\001"
 320      6AF704A4 
 320      FE9DDFDF 
 320      7E46AB4B 
 320      A201
 321 0517 EAF0DA5A 		.ascii	"\352\360\332Z{\272\037\016\257\227\320\333>(%t\267u"
 321      7BBA1F0E 
 321      AF97D0DB 
 321      3E282574 
 321      B775
 322 0529 28848236 		.ascii	"(\204\2026\243\263\275\203:\333m\\\316\366\361\232\205"
 322      A3B3BD83 
 322      3ADB6D5C 
 322      CEF6F19A 
 322      85
 323 053a E811249C 		.ascii	"\350\021$\234,8X#\243R\177y\366q7R\177\015\251\257s"
 323      2C385823 
 323      A3527F79 
 323      F6713752 
 323      7F0DA9AF 
 324 054f 249E2CE8 		.ascii	"$\236,\350`d\361gQ\202\374\272\221\205+o \013\327\271"
 324      6064F167 
 324      5182FCBA 
 324      91852B6F 
 324      200BD7B9 
 325 0563 58B8F559 		.ascii	"X\270\365Y\335=JKD\364\01058a\2304!\341\204\341\215"
ARM GAS  /tmp/ccCnU44R.s 			page 25


 325      DD3D4A4B 
 325      44F40835 
 325      38619834 
 325      21E184E1 
 326 0578 4FA8D46F 		.ascii	"O\250\324oA%I\370\314@7\007\020\241J\221<z\252\033j"
 326      412549F8 
 326      CC403707 
 326      10A14A91 
 326      3C7AAA1B 
 327 058d BA10AA49 		.ascii	"\272\020\252Iy\034\252\035\304LI\3027\016\252\265\316"
 327      791CAA1D 
 327      C44C49C2 
 327      370EAAB5 
 327      CE
 328 059e D458596B 		.ascii	"\324XYk\254Ld.\275\036+\226\230\342\027\235\321b\007"
 328      AC4C642E 
 328      BD1E2B96 
 328      98E2179D 
 328      D16207
 329 05b1 53FC7AAC 		.ascii	"S\374z\254X\213\242\220\257\306I\016\363aY\221\305\361"
 329      588BA290 
 329      AFC6490E 
 329      F3615991 
 329      C5F1
 330 05c3 12190E26 		.ascii	"\022\031\016&H\016\323j\222\260\300)\252M\306\353\226"
 330      480ED36A 
 330      92B0C029 
 330      AA4DC6EB 
 330      96
 331 05d4 EB9AABA5 		.ascii	"\353\232\253\245m\366\337\276\025gLT\232\372\232\351"
 331      6DF6DFBE 
 331      15674C54 
 331      9AFA9AE9 
 332 05e4 1C5C22C6 		.ascii	"\034\\\"\306\3573\221\317>\023\275\211:\206,N\0036x"
 332      EF3391CF 
 332      3E13BD89 
 332      3A862C4E 
 332      033678
 333 05f7 BA4FAD64 		.ascii	"\272O\255d\320\2759\237\241\356\221\362\304\272\267"
 333      D0BD399F 
 333      A1EE91F2 
 333      C4BAB7
 334 0606 E8B3BA8E 		.ascii	"\350\263\272\216\335\347na\226ju\0241,\213\217\337e"
 334      DDE76E61 
 334      966A7514 
 334      312C8B8F 
 334      DF65
 335 0618 693D664B 		.ascii	"i=fKw\307t\202\024\\\005$Y\034\031\013#Y\273\346\221"
 335      77C77482 
 335      145C0524 
 335      591C190B 
 335      2359BBE6 
 336 062d 5BF37B10 		.ascii	"[\363{\020BgIiP{\261S\257\303:\202\350\215\254\210\230"
 336      42674969 
 336      507BB153 
 336      AFC33A82 
 336      E88DAC88 
ARM GAS  /tmp/ccCnU44R.s 			page 26


 337 0642 2FA559F0 		.ascii	"/\245Y\360\331\3417\011\346\370\242*\2648\356\224u\353"
 337      D9E13709 
 337      E6F8A22A 
 337      B438EE94 
 337      75EB
 338 0654 47369B09 		.ascii	"G6\233\011\314\244\235Z\242\303\317\277D9n9\363eK\306"
 338      CCA49D5A 
 338      A2C3CFBF 
 338      44396E39 
 338      F3654BC6 
 339 0668 4410AA2C 		.ascii	"D\020\252,\326I\304\340\334r&48z\034\214;\031\033|\375"
 339      D649C4E0 
 339      DC722634 
 339      387A1C8C 
 339      3B191B7C 
 340 067d 016CF037 		.ascii	"\001l\3607\0237\370\213\023#\033\017,\210\315\240&\362"
 340      1337F88B 
 340      13231B0F 
 340      2C88CDA0 
 340      26F2
 341 068f CCA01ACE 		.ascii	"\314\240\032\3167\367|WQ\272r\314\271d\361-\354|<s\250"
 341      37F77C57 
 341      51BA72CC 
 341      B964F12D 
 341      EC7C3C73 
 342 06a4 D52E3DEF 		.ascii	"\325.=\357\374S\272\326\013\2219\"\025\343r\211\230"
 342      FC53BAD6 
 342      0B913922 
 342      15E37289 
 342      98
 343 06b5 948B06A8 		.ascii	"\224\213\006\250d&u6/\227\204\237\360\246o&\247H/Nl"
 343      64267536 
 343      2F97849F 
 343      F0A66F26 
 343      A7482F4E 
 344 06ca 39FD65CB 		.ascii	"9\375e\313\303\352\034p)rq\3336\240W\327\262[\016\340"
 344      C3EA1C70 
 344      297271DB 
 344      36A057D7 
 344      B25B0EE0 
 345 06de AC81824D 		.ascii	"\254\201\202Mrs\200YM\264\001l\033\013\366\232m0=e\333"
 345      72738059 
 345      4DB4016C 
 345      1B0BF69A 
 345      6D303D65 
 346 06f3 59B0193C 		.ascii	"Y\260\031<`VS]\000kf\301\346\330\006c)\033\0379s`\277"
 346      6056535D 
 346      006B66C1 
 346      E6D80663 
 346      291B1F39 
 347 070a A8D4A6DF 		.ascii	"\250\324\246\337)\324*\312x\245\336m\245y\202\200\227"
 347      29D42ACA 
 347      78A5DE6D 
 347      A5798280 
 347      97
 348 071b 28712F91 		.ascii	"(q/\221\305M\322\235\372\256ydJg\3225Iyb[|T\355\232"
 348      C54DD29D 
ARM GAS  /tmp/ccCnU44R.s 			page 27


 348      FAAE7964 
 348      4A67D235 
 348      4979625B 
 349 0733 701D32F7 		.ascii	"p\0352\367\0062G\352&c\252\224\310\251\003i\312+\351"
 349      063247EA 
 349      2663AA94 
 349      C8A90369 
 349      CA2BE9
 350 0746 DAB8F4E4 		.ascii	"\332\270\364\344\3628\2047\032m\312\361\003\222\227"
 350      F2388437 
 350      1A6DCAF1 
 350      039297
 351 0755 1627A6FB 		.ascii	"\026'\246\373\344\201\005=\225\372\235\"\177\250\252"
 351      E481053D 
 351      95FA9D22 
 351      7FA8AA
 352 0764 E1FCA53D 		.ascii	"\341\374\245=\342\004\354\301\021du\241\333\324\030"
 352      E204ECC1 
 352      116475A1 
 352      DBD418
 353 0773 7040B55E 		.ascii	"p@\265^\2704S5\006\037 \3242\267\321\030\330\215{\331"
 353      B8345335 
 353      061F20D4 
 353      32B7D118 
 353      D88D7BD9 
 354 0787 BA5812D6 		.ascii	"\272X\022\326\342\015\033%\376 \231N|`\010\276{D\015"
 354      E20D1B25 
 354      FE20994E 
 354      7C6008BE 
 354      7B440D
 355 079a 92516134 		.ascii	"\222Qa4\330\006\354jh\030I\330\232\254\3560\254S\256"
 355      D806EC6A 
 355      681849D8 
 355      9AACEE30 
 355      AC53AE
 356 07ad 65718B44 		.ascii	"eq\213Df\276\333\244\007\331\0334\362\364<\253\270\020"
 356      66BEDBA4 
 356      07D91B34 
 356      F2F43CAB 
 356      B810
 357 07bf 74E34B6C 		.ascii	"t\343Kl7\336e\033\314\253\003\273\314\202\355\345\001"
 357      37DE651B 
 357      CCAB03BB 
 357      CC82EDE5 
 357      01
 358 07d0 F35A53F6 		.ascii	"\363ZS\366#\013\366\241m0=eWY\260C<`fq!\263\017\353"
 358      230BF6A1 
 358      6D303D65 
 358      5759B043 
 358      3C606671 
 359 07e8 08C8E262 		.ascii	"\010\310\342b\034w\227`K\275\213\371*\314\327`\276\016"
 359      1C779760 
 359      4BBD8BF9 
 359      2ACCD760 
 359      BE0E
 360 07fa F30D98BF 		.ascii	"\363\015\230\277\217\371\001\314?\302\374 \346\207\330"
 360      8FF901CC 
ARM GAS  /tmp/ccCnU44R.s 			page 28


 360      3FC2FC20 
 360      E687D8
 361 0809 F68DE3B5 		.ascii	"\366\215\343\265]\253\355ML\332B\364\332\216\032:\233"
 361      5DABED4D 
 361      4CDA42F4 
 361      DA8E1A3A 
 361      9B
 362 081a C16BABB3 		.ascii	"\301k\253\263`\225P\1774\216\327v\324\350\265\265\270"
 362      6095507F 
 362      348ED776 
 362      D4E8B5B5 
 362      B8
 363 082b ED7A6D4C 		.ascii	"\355zmL3\240\317\376\3431q\342Dey_\255\223}kD\264\031"
 363      33A0CFFE 
 363      E33171E2 
 363      4465795F 
 363      AD937D6B 
 364 0842 893EF146 		.ascii	"\211>\361Fz\3633\032\330E\333`\306\036\253\265\343\014"
 364      7AF3331A 
 364      D845DB60 
 364      C61EABB5 
 364      E30C
 365 0854 6CC799D8 		.ascii	"l\307\231\330\"\0130?\216\371I}\357k\355`\344\250\273"
 365      220B303F 
 365      8EF9497D 
 365      EF6BED60 
 365      E4A8BB
 366 0867 CFE0C5E6 		.ascii	"\317\340\305\346\005BbD\253F\232*E\243\003\222p\303"
 366      05426244 
 366      AB469A2A 
 366      45A30392 
 366      70C3
 367 0879 6D9838D9 		.ascii	"m\2308\331k\204H\335i\350\013\211\374\346z\247\206\224"
 367      6B8448DD 
 367      69E80B89 
 367      FCE67AA7 
 367      8694
 368 088b 15D5B996 		.ascii	"\025\325\271\226Y\327#=\267\200\013*\213g\320o\336\352"
 368      59D7233D 
 368      B7800B2A 
 368      8B67D06F 
 368      DEEA
 369 089d 49E837EB 		.ascii	"I\3507\353q$a7V9k\030\347Z\032o\267\3347\027\221\317"
 369      71246137 
 369      56396B18 
 369      E75A1A6F 
 369      B7DC3717 
 370 08b3 728D7537 		.ascii	"r\215u7\314\302\015\224,+\031~cT\346\211)\032)\311M"
 370      CCC20D94 
 370      2C2B197E 
 370      6354E689 
 370      291A29C9 
 371 08c8 416EEF41 		.ascii	"An\357A\233\362\015\366\300Wl\203\351\033e\306\336\005"
 371      9BF20DF6 
 371      C0576C83 
 371      E91B65C6 
 371      DE05
ARM GAS  /tmp/ccCnU44R.s 			page 29


 372 08da 3657548E 		.ascii	"6WT\216,>\327\253\021Ev\001\225\377\323\024\243.\022"
 372      2C3ED7AB 
 372      11457601 
 372      95FFD314 
 372      A32E12
 373 08ed F745A78B 		.ascii	"\367E\247\213<\376\364Y\036F,;$i\311\346\336\233\327"
 373      3CFEF459 
 373      1E462C3B 
 373      2469C9E6 
 373      DE9BD7
 374 0900 29CACB6E 		.ascii	")\312\313n\315\343\261t\325$\341\034\336\354\222Q\033"
 374      CDE3B174 
 374      D524E11C 
 374      DEEC9251 
 374      1B
 375 0911 8EBC7DE8 		.ascii	"\216\274}\350a\252\015\227\270\264a\343\2019\\\223\301"
 375      61AA0D97 
 375      B8B461E3 
 375      81395C93 
 375      C1
 376 0922 7AB776FB 		.ascii	"z\267v\373\022\274\375\312Tr\373+\306\333\237Yy\356"
 376      12BCFDCA 
 376      5472FB2B 
 376      C6DB9F59 
 376      79EE
 377 0934 717AFB2B 		.ascii	"qz\373+\\\267?sp\246\2312Z\314\327\265\346{\273\365"
 377      5CB73F73 
 377      70A69932 
 377      5ACCD7B5 
 377      E67BBBF5 
 378 0948 A1457893 		.ascii	"\241Ex\223\237Q\201\256\244\032\233\357\2114\366^\370"
 378      9F5181AE 
 378      A41A9BEF 
 378      8934F65E 
 378      F8
 379 0959 5DA7BFB7 		.ascii	"]\247\277\267\243\324'\245\277\300\346\316'V`Ki4L\350"
 379      A3D427A5 
 379      BFC0E6CE 
 379      2756604B 
 379      69344CE8 
 380 096d 641751AF 		.ascii	"d\027Q\257\304\227\017b\217\240`5<`q,\373\217,\330+"
 380      C4970F62 
 380      8FA06035 
 380      3C60712C 
 380      FB8F2CD8 
 381 0982 B6C1F494 		.ascii	"\266\301\364\224]e\301\246\362\200\305Y\345\373\211"
 381      5D65C1A6 
 381      F280C559 
 381      E5FB89
 382 0991 05ABB50D 		.ascii	"\005\253\265\015\246\247\354:\0136\233\007,\316*\337"
 382      A6A7EC3A 
 382      0B369B07 
 382      2CCE2ADF 
 383 09a1 4D166CBE 		.ascii	"M\026l\276m0=e\267Y\260:\0360\2575e\323\0163`\213m\203"
 383      6D303D65 
 383      B759B03A 
 383      1E30AF35 
ARM GAS  /tmp/ccCnU44R.s 			page 30


 383      65D30E33 
 384 09b9 E929AB65 		.ascii	"\351)\253e\301\226\361\200\305Y\345\233\311\202\275"
 384      C196F180 
 384      C559E59B 
 384      C982BD
 385 09c8 631B4C4F 		.ascii	"c\033LO\331l\026l\025\017\230\331Z\233\266\000\314\202"
 385      D96C166C 
 385      150F98D9 
 385      5A9BB600 
 385      CC82
 386 09da ADB30DA6 		.ascii	"\255\263\015\246\247l>\013\366>\017\330c\326\224-`\301"
 386      A76C3E0B 
 386      F63E0FD8 
 386      63D6942D 
 386      60C1
 387 09ec B6D806D3 		.ascii	"\266\330\006\323S\266\206\005\333\316\003\366\2445e"
 387      53B68605 
 387      DBCE03F6 
 387      A43565
 388 09fb EB58B09D 		.ascii	"\353X\260\235\266\301\364\224m`\301v\363\200\015\265"
 388      B6C1F494 
 388      6D60C176 
 388      F3800DB5 
 389 0a0b A6EC7D16 		.ascii	"\246\354}\026l\257m0=e\233X\260\375<`\371\326\224ma"
 389      6CAF6D30 
 389      3D659B58 
 389      B0FD3C60 
 389      F9D6946D 
 390 0a20 C13EB20D 		.ascii	"\301>\262\015\246\247l\033\013\326\314\003\366\027k"
 390      A6A76C1B 
 390      0BD6CC03 
 390      F6176B
 391 0a2f CAB6B360 		.ascii	"\312\266\263`\237\330\006\323S\326\314\202\235\340\001"
 391      9FD806D3 
 391      53D6CC82 
 391      9DE001
 392 0a3e 7BC684B2 		.ascii	"{\306\204\262\350\307\312\317\374\221\365\325?\353\244"
 392      E8C7CACF 
 392      FC91F5D5 
 392      3FEBA4
 393 0a4d 393836C7 		.ascii	"986\307h!\206q\246\223]\217L\3077\361\255{oQ\307y\352"
 393      68218671 
 393      A6935D8F 
 393      4CC737F1 
 393      AD7B6F51 
 394 0a64 AC7ECD83 		.ascii	"\254~\315\203\030g\000T7\223P\260\213\266\301\014\252"
 394      18670054 
 394      379350B0 
 394      8BB6C10C 
 394      AA
 395 0a75 BCD7381D 		.ascii	"\274\3278\035\211\356\330\213X\256\233\301T\036w\033"
 395      89EED88B 
 395      58AE9BC1 
 395      541E771B 
 396 0a85 2C316CC1 		.ascii	",1l\301\263\334\241\332\241\23168\230f\272\302\303C"
 396      B3DCA1DA 
 396      A1993638 
ARM GAS  /tmp/ccCnU44R.s 			page 31


 396      9866BAC2 
 396      C343
 397 0a97 9C71F7CC 		.ascii	"\234q\367\314\336\005\270t\310\277\327\360\310\342C"
 397      DE05B874 
 397      C8BFD7F0 
 397      C8E243
 398 0aa6 AAF7BEC9 		.ascii	"\252\367\276\311A\274\367\233\235L#o\034H\015\347\233"
 398      41BCF79B 
 398      9D4C236F 
 398      1C480DE7 
 398      9B
 399 0ab7 1BD420DE 		.ascii	"\033\324 \336V\204\232\224\226,T\353\205\226\211j\020"
 399      56849A94 
 399      962C54EB 
 399      8596896A 
 399      10
 400 0ac8 6F3B42BD 		.ascii	"o;B\275f\200\262\275\005\362\037u\255$\314I34\231\331"
 400      6680B2BD 
 400      05F21F75 
 400      AD24CC49 
 400      333499D9 
 401 0adc F2A1B577 		.ascii	"\362\241\265w\003\275\342D\237\315\253\024e\242\333"
 401      03BDE244 
 401      9FCDAB14 
 401      65A2DB
 402 0aeb 4EA3ED53 		.ascii	"N\243\355S\033\355\003\024\317\242\016\342\331j\014"
 402      1BED0314 
 402      CFA20EE2 
 402      D96A0C
 403 0afa 7226E4E3 		.ascii	"r&\344\343m\333|<d\340#\362\220}>N\252|4!\037\253\377"
 403      6DDB7C3C 
 403      64E023F2 
 403      907D3E4E 
 403      AA7C3421 
 404 0b11 1BF8D868 		.ascii	"\033\370\330h\233\017v\217\"\316\033\037\241\363F\256"
 404      9B0F768F 
 404      22CE1B1F 
 404      A1F346AE 
 405 0b21 10FF470E 		.ascii	"\020\377G\016C\210\377\344~\321K\213\023M\330\224\310"
 405      4388FFE4 
 405      7ED14B8B 
 405      134DD894 
 405      C8
 406 0b32 B5FDCC64 		.ascii	"\265\375\314d[\341\233l\267\252\022kF\211m7\353c\\H"
 406      5BE19B6C 
 406      B7AA126B 
 406      46896D37 
 406      EB635C48 
 407 0b46 0DE79B7A 		.ascii	"\015\347\233z\256D\244#\210\264;i\244\326\013?\325\250"
 407      AE44A423 
 407      88B43B69 
 407      A4D60B3F 
 407      D5A8
 408 0b58 BDF51842 		.ascii	"\275\365\030B}\330\241\031\335\206Vt\353[\021\276\222"
 408      7DD8A119 
 408      DD865674 
 408      EB5B11BE 
ARM GAS  /tmp/ccCnU44R.s 			page 32


 408      92
 409 0b69 7BFD4426 		.ascii	"{\375D&\377\342_\325\022\362\305#\374\217\327\223\204"
 409      FFE25FD5 
 409      12F2C523 
 409      FC8FD793 
 409      84
 410 0b7a 63483E69 		.ascii	"cH>iA\233ceL\203\376e\263:\316\321V:\365\213\020'D\326"
 410      419B6365 
 410      4C83FE65 
 410      B33ACED1 
 410      563AF58B 
 411 0b92 4F59A8AE 		.ascii	"OY\250\256\004=AF\272o~!\334\241\003\366c<;\357\245"
 411      043D4146 
 411      BA6F7E21 
 411      DCA103F6 
 411      633C3BEF 
 412 0ba7 6A770619 		.ascii	"jw\006\031\272\330\241\205\223\212\361\374\234,#\321"
 412      BAD8A185 
 412      938AF1FC 
 412      9C2C23D1 
 413 0bb7 8F2428E9 		.ascii	"\217$(\351\034C\2467^k\375\364\010g\234(\032}\374\256"
 413      1C43A637 
 413      5E6BFDF4 
 413      08679C28 
 413      1A7DFCAE 
 414 0bcb 67130AE3 		.ascii	"g\023\012\343k\007\211>\276\230n\032}\214\027o\232\201"
 414      6B07893E 
 414      BE986E1A 
 414      7D8C176F 
 414      9A81
 415 0bdd 55BE7374 		.ascii	"U\276st\210>6\367\242\001\037\362\023G\274\251F\323"
 415      883E36F7 
 415      A2011FF2 
 415      1347BCA9 
 415      46D3
 416 0bef 0B1A54FC 		.ascii	"\013\032T\374V\222T\330d\345\251k\302\030}\262x\336"
 416      569254D8 
 416      64E5A96B 
 416      C2187DB2 
 416      78DE
 417 0c01 41DC9C0B 		.ascii	"A\334\234\013\016]\330y\211m\331{Y\331Gn\034X \022\372"
 417      0E5DD879 
 417      896DD97B 
 417      59D9476E 
 417      1C582012 
 418 0c16 4D42644F 		.ascii	"MBdO\262\016eT\360-\275\366\241x\276G\301\277g!\370"
 418      B20E6554 
 418      F02DBDF6 
 418      A178BE47 
 418      C1BF6721 
 419 0c2b 27AD7024 		.ascii	"'\255p$\241\021\253\264v\024|\323\275T\360\255\\\202"
 419      A111ABB4 
 419      76147CD3 
 419      BD54F0AD 
 419      5C82
 420 0c3d 3F6A2AF8 		.ascii	"?j*\370V\373\202\217>'\020ude\361\234m0o\274VleZ\261"
 420      56FB828F 
ARM GAS  /tmp/ccCnU44R.s 			page 33


 420      3E271075 
 420      6465F19C 
 420      6D306FBC 
 421 0c56 0D5BF147 		.ascii	"\015[\361G\007\011\370_\321\267\345\307\306\266\324"
 421      0709F85F 
 421      D1B7E5C7 
 421      C6B6D4
 422 0c65 494E3DB5 		.ascii	"IN=\265\014_(\221\031\037k\253\325\324\346\235\344\321"
 422      0C5F2891 
 422      191F6BAB 
 422      D5D4E69D 
 422      E4D1
 423 0c77 8D384187 		.ascii	"\2158A\207\272\217Q$\324\336\234\261\015\346\325\201"
 423      BA8F5124 
 423      D4DE9CB1 
 423      0DE6D581 
 424 0c87 354EE5DC 		.ascii	"5N\345\334\025\030\335y\331\025\205r\036\357{\313\250"
 424      1518DD79 
 424      D9158572 
 424      1EEF7BCB 
 424      A8
 425 0c98 2E87BE3D 		.ascii	".\207\276=4Y\034\217#\336-\016}\201\201\376\353T\245"
 425      34591C8F 
 425      23DE2D0E 
 425      7D8181FE 
 425      EB54A5
 426 0cab 365DD3DB 		.ascii	"6]\323\333\245wh\250qD\035G[n\234\333'\"\034\235\370"
 426      A57768A8 
 426      71441D47 
 426      5B6E9CDB 
 426      27221C9D 
 427 0cc0 BC6B844B 		.ascii	"\274k\204K8/\323\303\335\366\233o]\263\026\214\266q"
 427      382FD3C3 
 427      DDF69B6F 
 427      5DB3168C 
 427      B671
 428 0cd2 6D337175 		.ascii	"m3quj\234\204\247\015w\030G\004*\031F\021o1\212\330"
 428      6A9C84A7 
 428      0D771847 
 428      042A1946 
 428      116F318A 
 429 0ce7 8E8AA838 		.ascii	"\216\212\2508\211\"N\300\374E'\307\372\323$'3Y\332f"
 429      89224EC0 
 429      FC4527C7 
 429      FAD32427 
 429      3359DA66 
 430 0cfb 9B6FAFA1 		.ascii	"\233o\257\241u\254ns\223\235\223}p\007\207\356Y\307"
 430      75AC6E73 
 430      939D937D 
 430      700787EE 
 430      59C7
 431 0d0d A88851FF 		.ascii	"\250\210Q\377\203\346\016\320\025\222\217l#\352\265"
 431      83E60ED0 
 431      15928F6C 
 431      23EAB5
 432 0d1c B975AACE 		.ascii	"\271u\252\316\0358\301\003\367\244\011\201f\037vML\026"
 432      1D38C103 
ARM GAS  /tmp/ccCnU44R.s 			page 34


 432      F7A40981 
 432      661F764D 
 432      4C16
 433 0d2e BFC2E5C7 		.ascii	"\277\302\345\307\257q\201\360;\314\317c\376\003\346"
 433      AF7181F0 
 433      3BCCCF63 
 433      FE03E6
 434 0d3d ABD18EAC 		.ascii	"\253\321\216\254\305|=\346\0331\337\205\371^\314?\304"
 434      C57C3DE6 
 434      1B31DF85 
 434      F95ECC3F 
 434      C4
 435 0d4e FC2BCC2F 		.ascii	"\374+\314/b~\015\363\2371\277\201\371\024T\200\327\022"
 435      627E0DF3 
 435      9F31BF81 
 435      F9145480 
 435      D712
 436 0d60 29803A0A 		.ascii	")\200:\012L\377\341d\357w\321V\237F\365\237\333\331"
 436      4CFFE164 
 436      EF77D156 
 436      9F46F59F 
 436      DBD9
 437 0d72 A879DF48 		.ascii	"\250y\337H\206\025\213\016Kn+;s,]\306Y\\j;\366\361q"
 437      86158B0E 
 437      4B6E2B3B 
 437      732C5DC6 
 437      595C6A3B 
 438 0d89 7186A234 		.ascii	"q\206\2424\365\245\372/\213\267\035\222\036Q\337c\342"
 438      F5A5FA2F 
 438      8BB71D92 
 438      1E51DF63 
 438      E2
 439 0d9a 68A3DAA8 		.ascii	"h\243\332\250\247\352\026\361\255\035E7\000\376:&\223"
 439      A7EA16F1 
 439      AD1D4537 
 439      00FE3A26 
 439      93
 440 0dab A36D27FF 		.ascii	"\243m'\377\037\365\300gao\374\336 \223\2048DJs\235\206"
 440      1FF5C067 
 440      616FFCDE 
 440      20938438 
 440      444A739D 
 441 0dc0 4D3FADA7 		.ascii	"M?\255\247q#!)O\274\221\360\312\351\231\252R\322\315"
 441      71232129 
 441      4FBC91F0 
 441      CAE999AA 
 441      52D2CD
 442 0dd3 0DD79104 		.ascii	"\015\327\221\004R7\211!\221\354\2248\315\354\224\270"
 442      52378921 
 442      91EC9438 
 442      CDEC94B8 
 443 0de3 6D1BCCAB 		.ascii	"m\033\314\253\003\373\211\005\233\320\205\003,\316^"
 443      03FB8905 
 443      9BD08503 
 443      2CCE5E
 444 0df2 B8EB2CD8 		.ascii	"\270\353,\330$\333`z\312n\262`/\361\200\305\331\013"
 444      24DB607A 
ARM GAS  /tmp/ccCnU44R.s 			page 35


 444      CA6EB260 
 444      2FF180C5 
 444      D90B
 445 0e04 779B059B 		.ascii	"w\233\005\233j\033LO\331\2643\014\330,\036\2608\333"
 445      6A1B4C4F 
 445      D9B4330C 
 445      D82C1EB0 
 445      38DB
 446 0e16 7B6A59B0 		.ascii	"{jY\260\005\266\301\364\224\315d\301\226\362\200yM("
 446      05B6C1F4 
 446      94CD64C1 
 446      96F28079 
 446      4D28
 447 0e28 33FBB09D 		.ascii	"3\373\260\235@\026\3479\211\365\233\217\326i\001\346"
 447      4016E739 
 447      89F59B8F 
 447      D66901E6 
 448 0e38 7598D763 		.ascii	"u\230\327c\276\030\363\245\230/\303|9\346\357\360\014"
 448      BE18F3A5 
 448      982FC37C 
 448      39E6EFF0 
 448      0C
 449 0e49 6433D981 		.ascii	"d3\331\201\354\235.\034\326(N\010\251m\366\251_\264"
 449      EC9D2E1C 
 449      D6284E08 
 449      A96DF6A9 
 449      5FB4
 450 0e5b 03BDA5F1 		.ascii	"\003\275\245\361\306\276?\022\363\221x\027\372\032'"
 450      C6BE3F12 
 450      F3917817 
 450      FA1A27
 451 0e6a DF2EF475 		.ascii	"\337.\364uF[r\345c\372\304tb[\002\266\360\032\247\273"
 451      465B72E5 
 451      63FAC474 
 451      625B02B6 
 451      F01AA7BB 
 452 0e7e 161159E9 		.ascii	"\026\021Y\351Dm\341\276\307\251-|\037m\341\225.\011"
 452      446DE1BE 
 452      C7A92D7C 
 452      1F6DE195 
 452      2E09
 453 0e90 6DA11E87 		.ascii	"m\241\036\207\320\267\331H\377\372\203H\377f.[\270\361"
 453      D0B7D948 
 453      FFFA8348 
 453      FF662E5B 
 453      B8F1
 454 0ea2 A0DE16BE 		.ascii	"\240\336\026\276\324UT1\223\263\205\233\0162\012?\305"
 454      D4555431 
 454      93B3859B 
 454      0E320A3F 
 454      C5
 455 0eb3 36985707 		.ascii	"6\230W\007\266\205\005\233\306\003\026o_0\0136\3236"
 455      B685059B 
 455      C603166F 
 455      5F300B36 
 455      D336
 456 0ec5 989EB2ED 		.ascii	"\230\236\262\355,\330<\036\260x\373\202Y\260:\333`^"
ARM GAS  /tmp/ccCnU44R.s 			page 36


 456      2CD83C1E 
 456      B078FB82 
 456      59B03ADB 
 456      605E
 457 0ed7 B3E6153A 		.ascii	"\263\346\025:h\207,nA#\261\025\273~#\346;0\337\211\371"
 457      68872C6E 
 457      4123B115 
 457      BB7E23E6 
 457      3B30DF89 
 458 0eec 0798FF8D 		.ascii	"\007\230\377\215\307$4\260&a1\022\274.9\215!N\347\215"
 458      C72434B0 
 458      26613112 
 458      BC2E398D 
 458      214EE78D 
 459 0f00 2FFE95AE 		.ascii	"/\376\225\256\265\0306\203\020yXQ\260\217\245`\205m"
 459      B5183683 
 459      10795851 
 459      B08FA560 
 459      856D
 460 0f12 0ABC2C05 		.ascii	"\012\274,\005\221\033\037\323\245\010m5`\225\021\317"
 460      911B1FD3 
 460      A5086D35 
 460      609511CF 
 461 0f22 2C2E1B6F 		.ascii	",.\033o\226\3621>JO\301\032l\203\351_?0\355 \003\266"
 461      96F2313E 
 461      4A4FC11A 
 461      6C83E95F 
 461      3F30ED20 
 462 0f38 C33698D5 		.ascii	"\3036\230\325n\275\365\250\013\033\260\315\2330?\200"
 462      6EBDF5A8 
 462      0B1BB0CD 
 462      9B303F80 
 463 0f48 F947981F 		.ascii	"\371G\230\037d\265@\022\366t5\372\255\32482\2501+*\360"
 463      64B54012 
 463      F67435FA 
 463      ADD43832 
 463      A8312B2A 
 464 0f5d E25AB5ED 		.ascii	"\342Z\265\355*\266mOv\345\030p\274\326\332\3256\373"
 464      2AB66D4F 
 464      76E51870 
 464      BCD6DAD5 
 464      36FB
 465 0f6f 8C3AE050 		.ascii	"\214:\340P`\230\240\333F\324k\313\2543u\272\275\356"
 465      6098A0DB 
 465      46D46BCB 
 465      AC3375BA 
 465      BDEE
 466 0f81 5FF3E0C5 		.ascii	"_\363\340\305\331L\261\200\272\010\024\354\007\333`"
 466      D94CB180 
 466      BA0814EC 
 466      07DB60
 467 0f90 5EC1F2C3 		.ascii	"^\301\362\303>\335\007\023\030\\\375\273\211\317\002"
 467      3EDD0713 
 467      185CFDBB 
 467      89CF02
 468 0f9f BF       		.ascii	"\277"
 469 0fa0 8693A253 		.ascii	"\206\223\242S\230\327b\313\314\300\374=\314\217`~\024"
ARM GAS  /tmp/ccCnU44R.s 			page 37


 469      98D762CB 
 469      CCC0FC3D 
 469      CC8F607E 
 469      14
 470 0fb1 F3E33C2D 		.ascii	"\363\343<-vUdZ\354gd\241\315\306^K}\213\265\036>\376"
 470      7655645A 
 470      EC6764A1 
 470      CDC65E4B 
 470      7D8BB51E 
 471 0fc7 A6D66253 		.ascii	"\246\326bSq\332t\3336\242\276\305\256\322\220\025\005"
 471      71DA74DB 
 471      36A2BEC5 
 471      AED29015 
 471      05
 472 0fd8 7BB11B07 		.ascii	"{\261\033\007\230Y\3476\227p\033#\341\037Q\302WP\302"
 472      9859E736 
 472      97701B23 
 472      E11F51C2 
 472      5750C2
 473 0feb 9FA2F43E 		.ascii	"\237\242\364>\347\221\336\0171\351\245\010\223\351\343"
 473      E791DE0F 
 473      31E9A508 
 473      93E9E3
 474 0ffa 8FCA78F1 		.ascii	"\217\312x\3619\306"
 474      39C6
 475 1000 20309D9C 		.ascii	" 0\235\234}=\321ig\012\331\350\325M4\322\245QG.\320"
 475      7D3DD169 
 475      670AD9E8 
 475      D54D34D2 
 475      A551472E 
 476 1015 6E4DCFB5 		.ascii	"nM\317\2653\250\322G\250S\"\227Z\016\275s\276\347Jb"
 476      33A8D247 
 476      A8532297 
 476      5A0EBD73 
 476      BEE74A62 
 477 1029 7F95DBED 		.ascii	"\177\225\333\355\177\035?A4<B\347\2646\302g\235\272"
 477      7F1D3F41 
 477      343C42E7 
 477      B436C267 
 477      9DBA
 478 103b 47E84C3D 		.ascii	"G\350L=\272D\021\352y\253.\367\242.\320\327\350\002"
 478      BA4411EA 
 478      79AB2EF7 
 478      A22ED0D7 
 478      E802
 479 104d DDEC6633 		.ascii	"\335\354f3B\215\321_\243\013\324@\237\303\375\216\313"
 479      428DD15F 
 479      A30BD440 
 479      9FC3FD8E 
 479      CB
 480 105e 85DBBCE7 		.ascii	"\205\333\274\347]K\027\316\340\221\032\203n\323\273"
 480      5D4B17CE 
 480      E0911A83 
 480      6ED3BB
 481 106d 8BA68FDA 		.ascii	"\213\246\217\332\352.\223\305\213N2\343\376\336H\345"
 481      EA2E93C5 
 481      8B4E32E3 
ARM GAS  /tmp/ccCnU44R.s 			page 38


 481      FEDE48E5 
 482 107d 8C1AA4F2 		.ascii	"\214\032\244\362{.*g\355\301H\232\365\323\216\374K$"
 482      7B2E2A67 
 482      EDC1489A 
 482      F5D38EFC 
 482      4B24
 483 108f EBD79FFD 		.ascii	"\353\327\237\375\303j\014K\264\341s\255\237w7\232w\227"
 483      C36A0C4B 
 483      B4E173AD 
 483      9F77379A 
 483      7797
 484 10a1 6185C4A5 		.ascii	"a\205\304\245_!q\245\306N\324\025\022\253\246\271\354"
 484      5F2171A5 
 484      C64ED415 
 484      12ABA6B9 
 484      EC
 485 10b2 343C66F9 		.ascii	"4<f\371D\232\251\276pm`\330\206\241\270\004\353\252"
 485      449AA9BE 
 485      706D60D8 
 485      86A1B804 
 485      EBAA
 486 10c4 5694FCE4 		.ascii	"V\224\374\344dC-Qz\332\360)`!\341\223\237\030\237fG"
 486      64432D51 
 486      7ADAF029 
 486      6021E193 
 486      9F189F66 
 487 10d9 A62F516A 		.ascii	"\246/Qj\337'\355\367\314[u\270g\307\231\220\241\367"
 487      DF27EDF7 
 487      CC5B75B8 
 487      67C79990 
 487      A1F7
 488 10eb B5C5E97E 		.ascii	"\265\305\351~\2679EK\235\007+\224\361\256_,\226[\254"
 488      B739454B 
 488      9D072B94 
 488      F1AE5F2C 
 488      965BAC
 489 10fe 58CED916 		.ascii	"X\316\331\026\213\227\025\213\002\226(\325\035O$\315"
 489      8B97158B 
 489      029628D5 
 489      1D4F24CD 
 490 110e 7198A971 		.ascii	"q\230\251qY\212$\272@\317\305\322$\027\303\322\367<"
 490      598A24BA 
 490      40CFC5D2 
 490      2417C3D2 
 490      F73C
 491 1120 2C59FB83 		.ascii	",Y\373\203\277\214\245WMX\342ba\212\313\020I\274l\233"
 491      BF8CA557 
 491      4D58E262 
 491      618ACB10 
 491      49BC6C9B 
 492 1134 0DAFA0FF 		.ascii	"\015\257\240\377\304\034\274K8\274\335\244\341p\027"
 492      C41CBC4B 
 492      38BCDDA4 
 492      E17017
 493 1143 C95F7171 		.ascii	"\311_qq\014u\027XM\271\212\364|g\277\003\231}\330A@"
 493      0C751758 
 493      4DB98AF4 
ARM GAS  /tmp/ccCnU44R.s 			page 39


 493      7C67BF03 
 493      997DD841 
 494 1158 16CFA177 		.ascii	"\026\317\241w{\236g\364\375*FRT\304\314F'J\352u\203"
 494      7B9E67F4 
 494      FD2A4652 
 494      54C4CC46 
 494      274AEA75 
 495 116d 85FCB5B0 		.ascii	"\205\374\265\260DQjq\350<OZ\227\302H\302\304;\311u_"
 495      44516A71 
 495      E83C4F5A 
 495      97C248C2 
 495      C43BC975 
 496 1182 38FB98DE 		.ascii	"8\373\230\336N\275\031\255\254\314\001\257D\244\367"
 496      4EBD19AD 
 496      ACCC01AF 
 496      44A4F7
 497 1191 9284C909 		.ascii	"\222\204\311\011*\252\024\375/\341-\2427\307\277\312"
 497      2AAA14FD 
 497      2FE12DA2 
 497      37C7BFCA 
 498 11a1 1FAABEBE 		.ascii	"\037\252\276\276\300\272\222\312\337t\227\356%\231d"
 498      C0BA92CA 
 498      DF7497EE 
 498      259964
 499 11b0 D06FB9D4 		.ascii	"\320o\271\324\262q\313\371R\362\010\257\322\336\376"
 499      B271CBF9 
 499      52F208AF 
 499      D2DEFE
 500 11bf 57E3884F 		.ascii	"W\343\210O\334\003+i\315u%\034\362u\221\333\350;'\006"
 500      DC032B69 
 500      CD75251C 
 500      F27591DB 
 500      E83B2706 
 501 11d3 0ACC8B37 		.ascii	"\012\314\2137v\367\307W@\274\341\"#\376\374;\023\007"
 501      76F7C757 
 501      40BCE122 
 501      23FEFC3B 
 501      1307
 502 11e5 80753084 		.ascii	"\200u0\204\216:\227a,=\272\027\307RR\236x,=5\331:\200"
 502      8E3A9761 
 502      2C3DBA17 
 502      C752529E 
 502      782C3D35 
 503 11fc 6D1CF175 		.ascii	"m\034\361u/\024\224\204\245w\232\217\370\272\313dq\211"
 503      2F149484 
 503      A5779A8F 
 503      F8BACB64 
 503      7189
 504 120e 8B8CF84B 		.ascii	"\213\214\370K\215T\256\237\214T.\345\242\262ao\202\021"
 504      8D54AE9F 
 504      8C542EE5 
 504      A2B2616F 
 504      8211
 505 1220 3F7E532D 		.ascii	"?~S-O\326p\274\315\332\276\265\330:\204\340\244F9j\373"
 505      4FD670BC 
 505      CDDABEB5 
 505      D83A84E0 
ARM GAS  /tmp/ccCnU44R.s 			page 40


 505      A446396A 
 506 1235 28A62434 		.ascii	"(\246$4\332\006\363Z\203\355\347\001Kd\2255\260\303"
 506      DA06F35A 
 506      83EDE701 
 506      4B649535 
 506      B0C3
 507 1247 B6C14C28 		.ascii	"\266\301L(K\266\245\326\307\033\265\324\335*\321\357"
 507      4BB6A5D6 
 507      C71BB5D4 
 507      DD2AD1EF 
 508 1257 EA786DFC 		.ascii	"\352xm\374\235\253e\327\305ZV\026'FU4\016\313\326;Z"
 508      9DAB65D7 
 508      C55A5616 
 508      27465534 
 508      0ECBD63B 
 509 126c 7F19CB5B 		.ascii	"\177\031\313[\354\260\254znI\261\274\231e\371\206\323"
 509      ECB0AC7A 
 509      6E49B1BC 
 509      9965F986 
 509      D3
 510 127d 2ECB71F4 		.ascii	".\313q\364\357\024\217\312Xo\200\375e\362\373\300Z~"
 510      EF148FCA 
 510      586F80FD 
 510      65F2FBC0 
 510      5A7E
 511 128f A646CD72 		.ascii	"\246F\315r\237\211j\223g\356\270\354A\233\274\027m\362"
 511      9F896A93 
 511      67EEB8EC 
 511      419BBC17 
 511      6DF2
 512 12a1 C21E36B7 		.ascii	"\302\0366\267\253\020\022\366\033\255\3355\277\227\226"
 512      AB1012F6 
 512      1BADDD35 
 512      BF9796
 513 12b0 26B6753F 		.ascii	"&\266u?\277\245\356\023\240a\220\367\360\376\373\223"
 513      BFA5EE13 
 513      A06190F7 
 513      F0FEFB93 
 514 12c0 B53A91EB 		.ascii	"\265:\221\353~\022=\240X\357\333\306\362\232\021\252"
 514      7E123DA0 
 514      58EFDBC6 
 514      F29A11AA 
 515 12d0 E9508C4B 		.ascii	"\351P\214KY<\340\"n\306\207\350\377|\314\343\377\354"
 515      593CE022 
 515      6EC687E8 
 515      FF7CCCE3 
 515      FFEC
 516 12e2 D139DB5C 		.ascii	"\3219\333\\\012\274\213\265\306\333{\330\3259#/1\027"
 516      0ABC8BB5 
 516      C6DB7BD8 
 516      D539232F 
 516      3117
 517 12f4 6E1992BD 		.ascii	"n\031\222\275\022\363\3670_\215\371Z\3147a\276\003\363"
 517      12F3F730 
 517      5F8DF95A 
 517      CC3761BE 
 517      03F3
ARM GAS  /tmp/ccCnU44R.s 			page 41


 518 1306 9D3CACBD 		.ascii	"\235<\254\275\311v\264\327\321\266\324%\333~-\255\207"
 518      C976B4D7 
 518      D1B6D425 
 518      DB7E2DAD 
 518      87
 519 1317 AFF5C397 		.ascii	"\257\365\303\227\270\362\277X\0124\230\276\020\353\260"
 519      B8F2BF58 
 519      0A3498BE 
 519      10EBB0
 520 1326 8BBC586A 		.ascii	"\213\274Xj\257A\2039_,u\324ex\261\324\346\027\274\264"
 520      AF418339 
 520      5F2C75D4 
 520      6578B1D4 
 520      E617BCB4 
 521 133a 348E0EAB 		.ascii	"4\216\016\253o\177:\334\243\343k\245N\3650}\255\324"
 521      6F7F3ADC 
 521      A3E36BA5 
 521      4EF5307D 
 521      ADD4
 522 134c 373D4C5F 		.ascii	"7=L_+\325\332\303\364\265R\312]\372\327J\251\305\265"
 522      2BD5DAC3 
 522      F4B552CA 
 522      5DFAD74A 
 522      A9C5B5
 523 135f B1621753 		.ascii	"\261b\027S\274 V\354f\212\227\307\212=L\361\206Xq\012"
 523      BC2056EC 
 523      668A97C7 
 523      8A3D4CF1 
 523      8658710A 
 524 1373 D3227137 		.ascii	"\323\"q7\232\307\204$\213\307\260\013\034w\231\277\262"
 524      9AC78424 
 524      8BC7B00B 
 524      1C7799BF 
 524      B2
 525 1384 0AA62F92 		.ascii	"\012\246/\222A\023l\275\226VAM\030O\3365\243\275\200"
 525      41136CBD 
 525      9656414D 
 525      184FDE35 
 525      A3BD80
 526 1397 8ECC6797 		.ascii	"\216\314g\227\305V\006\364\241\026r\307\363.\333\357"
 526      C55606F4 
 526      A11672C7 
 526      F32EDBEF 
 527 13a7 CA53C31D 		.ascii	"\312S\303\035Qj\324\223\330K #w\211z.\022o\231`\025"
 527      516AD493 
 527      D84B2023 
 527      77897A2E 
 527      126F9960 
 528 13bc 9A681E8E 		.ascii	"\232h\036\216\034\2046I\330\315\205\226h\350\320\354"
 528      1C843649 
 528      D8CD8596 
 528      68E8D0EC 
 529 13cc 5B9311CD 		.ascii	"[\223\021\315\254\257\305\211?_\233l\275\202\031oAV"
 529      ACAFC589 
 529      3F5F9B6C 
 529      BD82196F 
 529      4156
ARM GAS  /tmp/ccCnU44R.s 			page 42


 530 13de 165B31DE 		.ascii	"\026[1\336\031\213\200\2222\333\321\317\313\254\335"
 530      198B8092 
 530      32DBD1CF 
 530      CBACDD
 531 13ed F8DCA82D 		.ascii	"\370\334\250-\011y\361\352xi\337\253\255\344\320\320"
 531      0979F1EA 
 531      7869DFAB 
 531      ADE4D0D0 
 532 13fd E821A36C 		.ascii	"\350!\243l\314\264\217\377\325\235u\214\355_\204\212"
 532      CCB48FFF 
 532      D59D758C 
 532      ED5F848A 
 533 140d 5F8F06F2 		.ascii	"_\217\006\362\020\346\3470\277\210\371\017\230\267b"
 533      10E6E730 
 533      BF88F90F 
 533      98B762
 534 141c FE238FF9 		.ascii	"\376#\217\371\234\317\212\201\031\026$\341\213\273L"
 534      9CCF8A81 
 534      191624E1 
 534      8BBB4C
 535 142b E79E3083 		.ascii	"\347\2360\203;&\316\234\250\014\245u%\341\012^7\307"
 535      3B26CE9C 
 535      A80CA575 
 535      25E10A5E 
 535      37C7
 536 143d 65358554 		.ascii	"e5\205T\357\200S\310\011\312\305I\223\272\212ZPXW\315"
 536      EF8053C8 
 536      09CAC549 
 536      93BA8A5A 
 536      505857CD 
 537 1451 6013F1E7 		.ascii	"`\023\361\347\253\035'\221kZ\"\2650\203\035\337\322"
 537      AB1D2791 
 537      6B5A22B5 
 537      30831DDF 
 537      D2
 538 1462 DEDE87CE 		.ascii	"\336\336\207\316\013a\232lJ\252\262\310\257\022\011"
 538      0B619A6C 
 538      4AAAB2C8 
 538      AF1209
 539 1471 AE1C0E0C 		.ascii	"\256\034\016\014\327\223#\362z|\"ot$\262\276%\262\031"
 539      D79323F2 
 539      7A7C226F 
 539      7424B2BE 
 539      25B219
 540 1484 DFBB0CAA 		.ascii	"\337\273\014\252\321\376\204\3201^\252\360=.\324\364"
 540      D1FE84D0 
 540      315EAAF0 
 540      3D2ED4F4 
 541 1494 96FAB890 		.ascii	"\226\372\270\220\342\306\245\350\273\365|\362C\265^"
 541      E2C6A5E8 
 541      BBF57CF2 
 541      43B55E
 542 14a3 38D1A642 		.ascii	"8\321\246BMD\2509\006(Y\024\014\261WA\037\356\204\257"
 542      4D44A839 
 542      06285914 
 542      0CB15741 
 542      1FEE84AF 
ARM GAS  /tmp/ccCnU44R.s 			page 43


 543 14b7 4ABBFAA1 		.ascii	"J\273\372\241\017\004@\311_\205\244\352X)c\273\275Y"
 543      0F0440C9 
 543      5F85A4EA 
 543      582963BB 
 543      BD59
 544 14c9 BED98ECB 		.ascii	"\276\331\216\313\372\351m\227%\034\217_r\023\217r\365"
 544      FAE96D97 
 544      251C8F5F 
 544      72138F72 
 544      F5
 545 14da DDA61E65 		.ascii	"\335\246\036e\274\035\255\033\261\312\024\267q\246\377"
 545      BC1DAD1B 
 545      B1CA14B7 
 545      71A6FF
 546 14e9 8C979626 		.ascii	"\214\227\226&\366*O\326\253^%\253|\244jr^\345\247%\304"
 546      F62A4FD6 
 546      AB5E25AB 
 546      7CA46A72 
 546      5EE5A725 
 547 14fe AB248B5D 		.ascii	"\253$\213]0\225\215\022g\323\253\324B\020\227\232(i"
 547      30958D12 
 547      67D3ABD4 
 547      4210979A 
 547      2869
 548 1510 AB106E17 		.ascii	"\253\020n\027\017\\\234%\3473\337m\"/\356\327\354\336"
 548      0F5C9C25 
 548      E733DF6D 
 548      222FEED7 
 548      ECDE
 549 1522 7E235CC2 		.ascii	"~#\\\302ub=u\227\376cn_\015\353\210m\254\207\314\232"
 549      75623D75 
 549      97FE636E 
 549      5F0DEB88 
 549      6DAC87CC 
 550 1537 4453CD58 		.ascii	"DS\315X{\312\342knbC\247\272\211\225|\035\363\351\230"
 550      7BCAE26B 
 550      6E6243A7 
 550      BA89957C 
 550      1DF3E998 
 551 154b CFC07C96 		.ascii	"\317\300|\226\233\303nNvw\014\337\315\327M\221\023\356"
 551      9BC36E4E 
 551      76770CDF 
 551      CDD74D91 
 551      13EE
 552 155d CCC9D630 		.ascii	"\314\311\3260O0\023\242kW\017\367\246\217\221\314G\375"
 552      4F3013A2 
 552      6B570FF7 
 552      A68F91CC 
 552      47FD
 553 156f 9D7E4FE2 		.ascii	"\235~O\342\2559z Y\\\340&\372\266\320\250\300?\323 "
 553      AD397A20 
 553      595CE026 
 553      FAB6D0A8 
 553      C03FD320 
 554 1583 D0422E15 		.ascii	"\320B.\025\276\265wi\262\241\252\272{\270BU\213\221"
 554      BEB57769 
 554      B2A1AABA 
ARM GAS  /tmp/ccCnU44R.s 			page 44


 554      7BB84255 
 554      8B91
 555 1595 CA25462A 		.ascii	"\312%F*\217P*\227pQyt\257\332\321\310\012\2116\317^"
 555      8F502A97 
 555      70517974 
 555      AFDAD1C8 
 555      0A8936CF 
 556 15aa 926C47D3 		.ascii	"\222lG\323\374\233[\010F\343\024v\300\274f`\223\320"
 556      FC9B5B08 
 556      46E31476 
 556      C0BC6660 
 556      93D0
 557 15bc 04BCCC03 		.ascii	"\004\274\314\003\2268hDc\353Sm\203\231P\226\354\272"
 557      96386844 
 557      63EB536D 
 557      83995096 
 557      ECBA
 558 15ce C04A77E2 		.ascii	"\300Jw\342\245\016\365;\377\312\340\254\353-\313\324"
 558      A50EF53B 
 558      FFCAE0AC 
 558      EB2DCBD4 
 559 15de E169350E 		.ascii	"\341i5\016O\253\3561\016OI<=%pNu\337q3S\335Mx\347\004"
 559      4FABEE31 
 559      0E4F493C 
 559      3D25704E 
 559      75DF7133 
 560 15f8 C2B50E4F 		.ascii	"\302\265\016O\221\016\374@\302\345\265x\002n\210'\340"
 560      910EFC40 
 560      C2E5B578 
 560      026E8827 
 560      E0
 561 1609 D56EFE10 		.ascii	"\325n\376\020\324\006\226\255F\333l\331\324\231x+\206"
 561      D40696AD 
 561      46DB6CD9 
 561      D499782B 
 561      86
 562 161a 5BE3B164 		.ascii	"[\343\261d\214\262\251+\200I\261\274\205ey\027\017\313"
 562      8CB2A92B 
 562      8049B1BC 
 562      85657917 
 562      0FCB
 563 162c BF245016 		.ascii	"\277$P\026\217\345\017\342\261l\214\245\376\022\226"
 563      8FE50FE2 
 563      B16C8CA5 
 563      FE1296
 564 163b 77B12CEF 		.ascii	"w\261,\357\263\315\262W\320\177b3\252\267p0\\\206\371"
 564      B3CDB257 
 564      D07F6233 
 564      AAB77030 
 564      5C86F9
 565 164e DB982FC7 		.ascii	"\333\230/\307|\005\346\3531\337\214\371N\236\001\263"
 565      7C05E6EB 
 565      31DF8CF9 
 565      4E9E01B3 
 566 165e DEDD214E 		.ascii	"\336\335!N\2630IC\255Dn\223\027\021\360n\365\330~\373"
 566      B3304943 
 566      AD446E93 
ARM GAS  /tmp/ccCnU44R.s 			page 45


 566      1711F06E 
 566      F5D87EFB 
 567 1672 7A2FF408 		.ascii	"z/\364\010\367\343\210Z\323\323\346N\017I\230\205U>"
 567      F7E3885A 
 567      D3D3E64E 
 567      0F499885 
 567      553E
 568 1684 320E551B 		.ascii	"2\016U\033k\360m\314\037q\015U\2339\337\272^\037\365"
 568      6BF06DCC 
 568      1F710D55 
 568      9B39DFBA 
 568      5E1FF5
 569 1697 467B08B1 		.ascii	"F{\010\261\307\210n\211\340|\036F\372\027\233\323o\215"
 569      C7886E89 
 569      E07C1E46 
 569      FA179BD3 
 569      6F8D
 570 16a9 2109EBB1 		.ascii	"!\011\353\261\312Q#\375Wd/-ML\3755\355y\252Cnt\033\243"
 570      CA5123FD 
 570      57642F2D 
 570      4D4CFD35 
 570      ED79AA43 
 571 16c1 80C979B4 		.ascii	"\200\311y\26471NJ\237\315\332o\033\313\253\303\232\276"
 571      37314E4A 
 571      9FCDDA6F 
 571      1BCBABC3 
 571      9ABE
 572 16d3 477BAA8E 		.ascii	"G{\252\216>\010w\214\007/\216K;\223\354\332\262\363"
 572      3E08778C 
 572      072F8E4B 
 572      3B93ECDA 
 572      B2F3
 573 16e5 DCEF3EED 		.ascii	"\334\357>\355\271_\034\271Zz\3767\214\\\222p\3216\027"
 573      B95F1CB9 
 573      5A7AFE37 
 573      8C5C9270 
 573      D13617
 574 16f8 3AA9B4EC 		.ascii	":\251\264\354\270}\266\247\366H\025%\354*\017\242\331"
 574      B87DB6A7 
 574      F6481525 
 574      EC2A0FA2 
 574      D9
 575 1709 C066F661 		.ascii	"\300f\366a\265I\026\217\243?}\002\215\301\247\230\177"
 575      B549168F 
 575      A33F7D02 
 575      8DC1A798 
 575      7F
 576 171a 8EF969CC 		.ascii	"\216\371i\314\277\3441\017\207X3\246\364\322\372\233"
 576      BFE4310F 
 576      875833A6 
 576      F4D2FA9B 
 577 172a 4DF53227 		.ascii	"M\3652'\365#\206\324\203Hj3K\222$\274\204\367\263c\216"
 577      F52386D4 
 577      83486A33 
 577      4B9224BC 
 577      84F7B363 
 578 173f F4C2BE76 		.ascii	"\364\302\276v\365z\237\266\011\312\334\276\334a\343"
ARM GAS  /tmp/ccCnU44R.s 			page 46


 578      F57A9FB6 
 578      09CADCBE 
 578      DC61E3
 579 174e C875B724 		.ascii	"\310u\267$\213\337\271I\310xj\257\244B\306\027\334\206"
 579      8BDFB949 
 579      C8786AAF 
 579      A442C617 
 579      DC86
 580 1760 90711BFD 		.ascii	"\220q\033\375/\002R\2368h<\267W\307\240\361\342^\246"
 580      2F02529E 
 580      38683CB7 
 580      57C7A0F1 
 580      E25EA6
 581 1773 41E3777A 		.ascii	"A\343wz\351\203\306\252\024\342\206jc\304\311\342\337"
 581      E983C6AA 
 581      14E2866A 
 581      63C4C9E2 
 581      DF
 582 1784 51E417DD 		.ascii	"Q\344\027\335\361C\265\013mL\364\004F\372J\244}/yr\224"
 582      F143B50B 
 582      6D4CF404 
 582      46FA4AA4 
 582      7D2F7972 
 583 1799 F739B0E3 		.ascii	"\3679\260\343+/\250\317\306\375\210\346\364|\257\304"
 583      2B2FA8CF 
 583      C6FD88E6 
 583      F47CAFC4 
 584 17a9 E6D40407 		.ascii	"\346\324\004\007\314\016\276\324\365\032\202\374d\027"
 584      CC0EBED4 
 584      F51A82FC 
 584      6417
 585 17b7 441226DE 		.ascii	"D\022&\336\213;n\2156\271\221\356\315\273\316a\225\311"
 585      8B3B6E8D 
 585      36B991EE 
 585      CDBBCE61 
 585      95C9
 586 17c9 DF7ED087 		.ascii	"\337~\320\207\303\265\247"
 586      C3B5A7
 587 17d0 665F8D62 		.ascii	"f_\215b\2527}\222\025_b\263\334L7\254\322\335y\263\215"
 587      AA377D92 
 587      155F62B3 
 587      DC4C37AC 
 587      D2DD79B3 
 588 17e5 6036EDE8 		.ascii	"`6\355\350\221\350\003\340\3431NXo\033O\327\311\"\237"
 588      91E803E0 
 588      E3314E58 
 588      6F1B4FD7 
 588      C9229F
 589 17f8 50E228D8 		.ascii	"P\342(\330\012\036\2608\257E:\301\202\255\266\015\246"
 589      0A1EB038 
 589      AF453AC1 
 589      82ADB60D 
 589      A6
 590 1809 A7EC5316 		.ascii	"\247\354S\026l#\017X\234\367\023\235R\207\263$\377^"
 590      6C230F58 
 590      9CF7139D 
 590      5287B324 
ARM GAS  /tmp/ccCnU44R.s 			page 47


 590      FF5E
 591 181b 628AC73A 		.ascii	"b\212\307:\204F\265\325\252\346k\036\363H\260\365\330"
 591      8446B5D5 
 591      AAE66B1E 
 591      F348B0F5 
 591      D8
 592 182c 1799431D 		.ascii	"\027\231C\035\240W<\204\361\035\367\352\373\200\341"
 592      A0573C84 
 592      F11DF7EA 
 592      FB80E1
 593 183b D68430AB 		.ascii	"\326\2040\253[O\363X\277\330\330\360\033\370\270\266"
 593      5B4FF358 
 593      BFD8D8F0 
 593      1BF8B8B6 
 594 184b 05AC6FAD 		.ascii	"\005\254o\25535\272G\203\017\363\300yM\332\313\354\303"
 594      3335BA47 
 594      830FF3C0 
 594      794DDACB 
 594      ECC3
 595 185d 766859BC 		.ascii	"vhY\274\211\206\357\026\016\202\355\230\217\367\220"
 595      8986EF16 
 595      0E82ED98 
 595      8FF790
 596 186c 7C22E693 		.ascii	"|\"\346\2230\237\214\371\313\230\327z\036\374G\243J"
 596      309F8CF9 
 596      CB98D77A 
 596      1EFC47A3 
 596      4A
 597 187d C2C97B0D 		.ascii	"\302\311{\015c\235\3360%\352\207\012\016v\370\\/\277"
 597      639DDE30 
 597      25EA870A 
 597      0E76F85C 
 597      2FBF
 598 188f C53DF200 		.ascii	"\305=\362\000\265\270\263=\304J\265\030\024\205\252"
 598      B5B8B33D 
 598      C44AB518 
 598      1485AA
 599 189e E53F8ADF 		.ascii	"\345?\212\337\037\270\370\265|\313B\224\337\271}\331"
 599      1FB8F8B5 
 599      7CCB4294 
 599      DFB97DD9 
 600 18ae BFA26276 		.ascii	"\277\242bv\266*Q\205Q4}~\303\323M=\323\376\350\215\370"
 600      B62A5185 
 600      51347D7E 
 600      C3D34D3D 
 600      D3FEE88D 
 601 18c3 5F46420C 		.ascii	"_FB\014\025\325s\313\367\365\341b\236\303M\321%\341"
 601      15D573CB 
 601      F7F5E162 
 601      9EC34DD1 
 601      25E1
 602 18d5 673EB866 		.ascii	"g>\270f\247\025\236\331\004\327\354\337Tt\177\302\253"
 602      A7159ED9 
 602      04D7ECDF 
 602      54747FC2 
 602      AB
 603 18e6 36E9276D 		.ascii	"6\351'm?\277\254\276\335\341Ml\323\233\2066M\010D\204"
ARM GAS  /tmp/ccCnU44R.s 			page 48


 603      3FBFACBE 
 603      DDE14D6C 
 603      D39B8636 
 603      4D084484 
 604 18fa B3D46318 		.ascii	"\263\324c\030\374\026\236m\022q\246F~I0\374\27581\262"
 604      FC169E6D 
 604      1271A646 
 604      7E4930FC 
 604      BD3831B2 
 605 190e F66C93C4 		.ascii	"\366l\223\304\374\037\210,.\242\373l<\311>D\270\356"
 605      FC1F882C 
 605      2EA2FB6C 
 605      3CC93E44 
 605      B8EE
 606 1920 AC1A1CA7 		.ascii	"\254\032\034\247po\332\206\363\352\3406\350\341\016"
 606      706FDA86 
 606      F3EAE036 
 606      E8E10E
 607 192f 4B1C7071 		.ascii	"K\034pq\036$|_\017\367\006\017uq\036%\334\244\207[\310"
 607      1E247C5F 
 607      0FF7060F 
 607      75711E25 
 607      DCA4875B 
 608 1944 0317E761 		.ascii	"\003\027\347a\302-,\234$\274r\237h\023NO\3356=\334T"
 608      C22D2C9C 
 608      24BC729F 
 608      68134E4F 
 608      DD363DDC 
 609 1959 1E38B351 		.ascii	"\0368\263Q\325\354\303j\236,\276\345!\366e\031\332\216"
 609      D5ECC36A 
 609      9E2CBEE5 
 609      21F66519 
 609      DA8E
 610 196b B7315F8E 		.ascii	"\2671_\216\371\012\314\337\301|%\346\357\261\226\305"
 610      F90ACCDF 
 610      C17C25E6 
 610      EFB196C5 
 611 197b 6A2CABF7 		.ascii	"j,\253\3670\023\231\031\367qL,\232\343\356}\326\321"
 611      30139919 
 611      F7714C2C 
 611      9AE3EE7D 
 611      D6D1
 612 198d BD90B18B 		.ascii	"\275\220\261\213uh\027\027\241E\334\207\371\267\230"
 612      75681717 
 612      A145DC87 
 612      F9B798
 613 199c B7D1450C 		.ascii	"\267\321E\014\244x>\346\0131_\304C\375<\267\345F!I\230"
 613      A4783EE6 
 613      0B315FC4 
 613      43FD3CB7 
 613      E5462149 
 614 19b1 779FC58A 		.ascii	"w\237\305\212\360\331^\373\350n\344\311\030\035X\201"
 614      F0D95EFB 
 614      E86EE4C9 
 614      181D5881 
 615 19c1 D7DDB65C 		.ascii	"\327\335\266\\l\305\265\023u\215\366\220?\272\220\374"
 615      6CC5B513 
ARM GAS  /tmp/ccCnU44R.s 			page 49


 615      758DF690 
 615      3FBA90FC 
 616 19d1 6E826AB8 		.ascii	"n\202j\270\274\242\337\304<\017\357\267&AE\225)u\023"
 616      BCA2DFC4 
 616      3C0FEFB7 
 616      26414595 
 616      297513
 617 19e4 F3DACFF3 		.ascii	"\363\332\317\363{\322\005UA_\313lmw\215\307lm\367\370"
 617      7BD20555 
 617      415FCB6C 
 617      6D778DC7 
 617      6C6DF7F8 
 618 19f8 FEA9DADA 		.ascii	"\376\251\332\332n\212\3015#DZ\011w\263\307\020\023$"
 618      6E8AC135 
 618      23445A09 
 618      77B3C710 
 618      1324
 619 1a0a 8230C878 		.ascii	"\2020\310x\275\251\214\351R6\275|\235\207t\324M\236"
 619      BDA98CE9 
 619      5236BD7C 
 619      9D8774D4 
 619      4D9E
 620 1a1c B8D28D2E 		.ascii	"\270\322\215.eo\305-\333te\312\272\226J\340VSn\333\367"
 620      656FC52D 
 620      DB7465CA 
 620      BA964AE0 
 620      56536EDB 
 621 1a31 BF6AC52D 		.ascii	"\277j\305-YD\264\342v\007\007\267\273\315\271\275Qb"
 621      5944B4E2 
 621      760707B7 
 621      BBCDB9BD 
 621      5162
 622 1a43 E0763B27 		.ascii	"\340v;'\267\353\221[\372g\242\326\265T\002w\232r\273"
 622      B7EB915B 
 622      FA67A2D6 
 622      B5540277 
 622      9A72BB
 623 1a56 71CA0130 		.ascii	"q\312\0010<\312\315\366v\362x\230`co\344\3378\030>h"
 623      3CCACDF6 
 623      76F27898 
 623      60636FE4 
 623      DF38183E 
 624 1a6b CEF02D23 		.ascii	"\316\360-#\303\2739\0316\354T`\252\231i\363^=\307\177"
 624      C3BB3919 
 624      36EC5460 
 624      AA9969F3 
 624      5E3DC77F 
 625 1a7f 161D739C 		.ascii	"\026\035s\234tg\376\264\226C\357\354\252\236\247\354"
 625      7467FEB4 
 625      9643EFEC 
 625      AA9EA7EC 
 626 1a8f C29DF946 		.ascii	"\302\235\371F\256\343\304\271?42M\03650>\320\240~\347"
 626      AEE3C4B9 
 626      3F34324D 
 626      1E35303E 
 626      D0A07EE7 
 627 1aa3 0DD8DEDA 		.ascii	"\015\330\336\332~\244\367&\372\006Gt.\246\367\266\031"
ARM GAS  /tmp/ccCnU44R.s 			page 50


 627      7EA4F726 
 627      FA064774 
 627      2EA6F7B6 
 627      19
 628 1ab4 B155A727 		.ascii	"\261U\247'k/\222\250\351\021\304\230g\300\220\305\034"
 628      6B2F92A8 
 628      E911C498 
 628      67C090C5 
 628      1C
 629 1ac5 83CF9963 		.ascii	"\203\317\231cx\203\325\332/\035\312\264\024,\227\204"
 629      7883D5DA 
 629      2F1DCAB4 
 629      142C9784 
 630 1ad5 0DBDF511 		.ascii	"\015\275\365\021\016\246\336\020+\247='f\253\217\341"
 630      0EA6DE10 
 630      2BA73D27 
 630      66AB8FE1 
 631 1ae5 1863B8D2 		.ascii	"\030c\270\322\240\032\333\015\024j\027\235\350\320h"
 631      A01ADB0D 
 631      146A179D 
 631      E8D068
 632 1af4 73A38DD6 		.ascii	"s\243\215\326z\370\312\004q\372\304\372&\345\022\211"
 632      7AF8CA04 
 632      71FAC4FA 
 632      26E51289 
 633 1b04 1B6AFB61 		.ascii	"\033j\373a\232,\240>\353\250\361\000\322\270\255\256"
 633      9A2CA03E 
 633      EBA8F100 
 633      D2B8ADAE 
 634 1b14 9779CBF3 		.ascii	"\227y\313\363\207\263\326\177LD}\332C\342Y\307\014w"
 634      87B3D67F 
 634      4C447DDA 
 634      43E259C7 
 634      0C77
 635 1b26 E78C677D 		.ascii	"\347\214g}\3411\304\263NN\301x\026)O\034\317:\335\273"
 635      E131C4B3 
 635      4E4EC178 
 635      16294F1C 
 635      CF3ADDBB 
 636 1b3a 633CEBAB 		.ascii	"c<\353\253\336\246\361\254K\275M7A\336\350m\272\011"
 636      DEA6F1AC 
 636      4BBD4D37 
 636      41DEE86D 
 636      BA09
 637 1b4c F2A5FB4D 		.ascii	"\362\245\373M7A\316\270\337t\023d\335\375\246\233 W"
 637      3741CEB8 
 637      DF741364 
 637      DDFDA69B 
 637      2057
 638 1b5e DD6FBA09 		.ascii	"\335o\272\011r\323\375\372M\220j\361\316Xq*S|$V\334"
 638      72D3FDFA 
 638      4D906AF1 
 638      CE58712A 
 638      537C2456 
 639 1b73 8929FE26 		.ascii	"\211)\376&V\234\306\024_\213\025\2473\3055\017D\213"
 639      569CC614 
 639      5F8B15A7 
ARM GAS  /tmp/ccCnU44R.s 			page 51


 639      33C5350F 
 639      448B
 640 1b85 EF608AE7 		.ascii	"\357`\212\347\304\212;3\305o\307\212\2730\305\353b\305"
 640      C48A3B33 
 640      C56FC78A 
 640      BB30C5EB 
 640      62C5
 641 1b97 5D99E26D 		.ascii	"]\231\342m\261\342nL\361\301Xqw\226\356X\361\235j[\222"
 641      B1E26E4C 
 641      F1C15871 
 641      7796EE58 
 641      F19D6A5B 
 642 1bac AF71C38A 		.ascii	"\257q\303\2121\035\221\305\263\330\247\276\364\230\207"
 642      311D91C5 
 642      B3D8A7BE 
 642      F49887
 643 1bbb 15ADECD5 		.ascii	"\025\255\354\325)\243\275\"\203E\222\017\206\252\272"
 643      29A3BD22 
 643      8345920F 
 643      86AABA
 644 1bca 3FD32D71 		.ascii	"?\323-q\274\317W\026_O\341{\0156\250\342\003Fc\265\304"
 644      BCCF5716 
 644      5F4FE17B 
 644      0D36A8E2 
 644      034663B5 
 645 1bdf F832E7E4 		.ascii	"\3702\347\344\337\246\375Z\212\351\203\227\015b\307"
 645      DFA6FD5A 
 645      8AE98397 
 645      0D62C7
 646 1bee 35474918 		.ascii	"5GI\030\337\307\334\222\314H1\263$\255\265\246\346\350"
 646      DFC7DC92 
 646      CC4831B3 
 646      24ADB5A6 
 646      E6E8
 647 1c00 650B9059 		.ascii	"e\013\220Y\246 \323~8\367\204\325@\024'\3605'\305\320"
 647      A620D37E 
 647      38F784D5 
 647      401427F0 
 647      3527C5D0 
 648 1c14 B0ABF18D 		.ascii	"\260\253\361\215\266:nfZ\0202\317\224\220K\265?JI\020"
 648      B63A6E66 
 648      5A1032CF 
 648      94904BB5 
 648      3F4A4910 
 649 1c28 F2869110 		.ascii	"\362\206\221\020\342|E\277\250\333N\015\204-\262 \254"
 649      E27C45BF 
 649      A8DB4E0D 
 649      842DB220 
 649      AC
 650 1c39 CE8CB0C8 		.ascii	"\316\214\260\310\366\003\257*\"\335\001\311OV\275\031"
 650      F603AF2A 
 650      22DD01C9 
 650      4F56BD19 
 651 1c49 59063296 		.ascii	"Y\0062\226[\220\261XO\306?\011o*\221f\360\373/\237\025"
 651      5B90B158 
 651      4FC63F09 
 651      6F2A9166 
ARM GAS  /tmp/ccCnU44R.s 			page 52


 651      F0FB2F9F 
 652 1c5e 61246E22 		.ascii	"a$n\"1\370v\261\017\210\034\377\023\372\375(\212\026"
 652      31F876B1 
 652      0F881CFF 
 652      13FAFD28 
 652      8A16
 653 1c70 99F89546 		.ascii	"\231\370\225F\314\032\215\232\2451D\212\026iX\221\012"
 653      CC1A8D9A 
 653      A531448A 
 653      16695891 
 653      0A
 654 1c81 8E102A8E 		.ascii	"\216\020*\216\366\327\330\233\215@\317h8\332;\224\226"
 654      F6D7D89B 
 654      8D40CF68 
 654      38DA3B94 
 654      96
 655 1c92 A9300385 		.ascii	"\2510\003\205\365\312K\221\276\264\"\335\014\374\177"
 655      F5CA4B91 
 655      BEB422DD 
 655      0CFC7F
 656 1ca1 85EBCA4B 		.ascii	"\205\353\312KJd\363]t\347\034\271\013\264i\333\354["
 656      4A64F35D 
 656      74E71CB9 
 656      0BB469DB 
 656      EC5B
 657 1cb3 6F8BB54A 		.ascii	"o\213\265J}\214f\372?\326\221\0164\353\376\265\032w"
 657      7D8C66FA 
 657      3FD6910E 
 657      34EBFEB5 
 657      1A77
 658 1cc5 89E88440 		.ascii	"\211\350\204@\367\032\323\233\220=\261#\015\341\316"
 658      F71AD39B 
 658      903DB123 
 658      0DE1CE
 659 1cd4 E971FEDE 		.ascii	"\351q\376\336\352\335X\017T\231o[\3160?\035\377\260"
 659      EADD580F 
 659      54996F5B 
 659      CE303F1D 
 659      FFB0
 660 1ce6 6B4F42E6 		.ascii	"kOB\346W\351\230\177\222V\244\377[F\256\234/Q/x\201"
 660      57E9987F 
 660      9256A4FF 
 660      5B46AE9C 
 660      2F512F78 
 661 1cfb FA9DFC43 		.ascii	"\372\235\374C\234\002\324:\005\372\177f\244\314A\354"
 661      9C02D43A 
 661      05FA7F66 
 661      A4CC41EC 
 662 1d0b 3AFD6333 		.ascii	":\375c3\365k_\215\275\317\243\354E\032\357\2424\253"
 662      F56B5F8D 
 662      BDCFA3EC 
 662      451AEFA2 
 662      34AB
 663 1d1d C4CE5AD1 		.ascii	"\304\316Z\321\201\330\017\023\022\273\356\037AlWV\214"
 663      81D80F13 
 663      12BBEE1F 
 663      416C5756 
ARM GAS  /tmp/ccCnU44R.s 			page 53


 663      8C
 664 1d2e CAE1C8C9 		.ascii	"\312\341\310\311Md\225Z#\215N\016\017\033I\353\320\034"
 664      4D64955A 
 664      238D4E0E 
 664      0F1B49EB 
 664      D01C
 665 1d40 0D7A5D04 		.ascii	"\015z]\004\234\243KY\034:\251=\225\020gc\014'\311\340"
 665      9CA34B59 
 665      1C3AA93D 
 665      95106763 
 665      0C27C9E0 
 666 1d54 FD667D1F 		.ascii	"\375f}\037M\027\246\260*\225c\255Q[S\322\005\303\307"
 666      4D17A6B0 
 666      2A9563AD 
 666      515B53D2 
 666      05C3C7
 667 1d67 EAD24D31 		.ascii	"\352\322M1\3453\250l\263Et\205\324\332fY\353\3038q\375"
 667      E533A86C 
 667      B3457485 
 667      D4DA6659 
 667      EBC33871 
 668 1d7c 468B5AFC 		.ascii	"F\213Z\374\022\331a\264Z\204S\256}1\333-)&zaUk\247e"
 668      12D961B4 
 668      5A8453AE 
 668      7D31DB2D 
 668      29267A61 
 669 1d94 ADC9716A 		.ascii	"\255\311qj\355\262\254E\254\256U\255\017,k\275\021\247"
 669      EDB2AC45 
 669      ACAE55AD 
 669      0F2C6BBD 
 669      11A7
 670 1da6 D66ECB5A 		.ascii	"\326n\313Z\344\265(\226s\323X-\365o\254\343\375Q,\310"
 670      E4B52896 
 670      73D3582D 
 670      F56FACE3 
 670      FD512CC8 
 671 1dba 01DF6A9A 		.ascii	"\001\337j\232\350\237\\q\"6\236\373\217r\261A\361\335"
 671      E89F5C71 
 671      22369EFB 
 671      8F72B141 
 671      F1DD
 672 1dcc 3F7BD97F 		.ascii	"?{\331\177R4\2601'\016\363M\226\314\023O\303\252\326"
 672      5234B031 
 672      270EF34D 
 672      96CC134F 
 672      C3AAD6
 673 1ddf 3ECB5AA7 		.ascii	">\313Z\247\342(\357~\306Or\026\217\221\203\356!#Fz3"
 673      E228EF7E 
 673      C64F7216 
 673      8F9183EE 
 673      2123467A 
 674 1df4 85011963 		.ascii	"\205\001\031c*\313\375\031\305\225%/d\224\370\307f\024"
 674      2ACBFD19 
 674      C595252F 
 674      6494F8C7 
 674      6614
 675 1e06 8F098C0A 		.ascii	"\217\011\214\012T\2062\302\301\352\212g3\340\304?.\234"
ARM GAS  /tmp/ccCnU44R.s 			page 54


 675      548632C2 
 675      C1EA8A67 
 675      33E0C43F 
 675      2E9C
 676 1e18 512A874B 		.ascii	"Q*\207KC\031\241`qFi\351#c\004W\316\240\242\234\302"
 676      4319A160 
 676      714669E9 
 676      23630457 
 676      CEA0A29C 
 677 1e2d C7ECD50C 		.ascii	"\307\354\325\014T\204\375\243\375A\250\356\034\374t"
 677      5484FDA3 
 677      FD41A8EE 
 677      1CFC74
 678 1e3c 51B6A734 		.ascii	"Q\266\2474\344\013\277P\345w\224\004\307\272\212C\201"
 678      E40BBF50 
 678      E5779404 
 678      C7BA8A43 
 678      81
 679 1e4d FFE37757 		.ascii	"\377\343wW\370\340\352\220\353\371\3222ytJi(\340#'\316"
 679      F8E0EA90 
 679      EBF9D232 
 679      79744A69 
 679      28E02327 
 680 1e62 3FE71564 		.ascii	"?\347\025dI\201\222\324\012_\260\2622\\\022\010\272"
 680      498192D4 
 680      0A5FB0B2 
 680      325C1208 
 680      BA
 681 1e73 B24851A7 		.ascii	"\262HQ\24729\024\366\025\227U\207\302\235J\203~?=MA"
 681      323914F6 
 681      15975587 
 681      C29D4A83 
 681      7E3F3D4D 
 682 1e88 0C7F45D8 		.ascii	"\014\177E\330UJ =c+\313F\311!\277\007\012\361\010\325"
 682      554A203D 
 682      632BCB46 
 682      C921BF07 
 682      0AF108D5 
 683 1e9c C931A544 		.ascii	"\3111\245D\016\313X\360|\240\"\344/\016;\340\370h\""
 683      0ECB58F0 
 683      7CA022E4 
 683      2F0E3BE0 
 683      F86822
 684 1eaf 7EC6C865 		.ascii	"~\306\310e\300\005\334\247\304\237Q^^\354\013U\005\200"
 684      C005DCA7 
 684      C49F515E 
 684      5EEC0B55 
 684      0580
 685 1ec1 9BD4E1C3 		.ascii	"\233\324\341\30333++J\003\243\263x\000\252*\203\341"
 685      33332B2B 
 685      4A03A3B3 
 685      7800AA2A 
 685      83E1
 686 1ed3 504661D1 		.ascii	"PFa\321\360\001\3753\206\015\313\312(\314\317\035\333"
 686      F001FD33 
 686      860DCBCA 
 686      28CCCF1D 
ARM GAS  /tmp/ccCnU44R.s 			page 55


 686      DB
 687 1ee4 2F03A07C 		.ascii	"/\003\240|ee%\004\016\012\262\202\201\261\376`\177;"
 687      65652504 
 687      0E0AB282 
 687      81B1FE60 
 687      7F3B
 688 1ef6 F4505A3A 		.ascii	"\364PZ:\301!\024\006\001\370\302\235\000\3077rD\356"
 688      C1211406 
 688      01F8C29D 
 688      00C73772 
 688      44EE
 689 1f08 88DCA214 		.ascii	"\210\334\242\024rZX\224\227O\260}\005\331\203\262\236"
 689      725A5894 
 689      974FB07D 
 689      05D983B2 
 689      9E
 690 1f19 C65F0765 		.ascii	"\306_\007e\026\345\376);\235\234f\346\015\317\037\226"
 690      16E5FE29 
 690      3B9D9C66 
 690      E60DCF1F 
 690      96
 691 1f2a 5D94EDC2 		.ascii	"]\224\355\302\332w\000L\261\\\006\242+~\326\027v\373"
 691      DA77004C 
 691      B15C06A2 
 691      2B7ED617 
 691      76FB
 692 1f3c 2B4A7CC5 		.ascii	"+J|\305\243\262\223\341nH~n\336\330\376\031Ur\231\312"
 692      A3B293E1 
 692      6E487E6E 
 692      DED8FE19 
 692      557299CA 
 693 1f50 5E7A285C 		.ascii	"^z(\\>\240\277otU\240\322\027\376uFu(\230!\007\313\037"
 693      3EA0BF6F 
 693      7455A0D2 
 693      17FE7546 
 693      75289821 
 694 1f67 AEA8ACF0 		.ascii	"\256\250\254\360?\354\227G\005b\014ASW\204\241FJ5\034"
 694      3FEC9747 
 694      05620C41 
 694      535784A1 
 694      464A351C 
 695 1f7b A14A7860 		.ascii	"\241Jx`\234\253\313e \247\302\237\341+\361\227\312\325"
 695      9CABCB65 
 695      20A7C29F 
 695      E12BF197 
 695      CAD5
 696 1f8d 656154AD 		.ascii	"eaT\255\020\221\210\317\247\325w\015\317\313\312.p\347"
 696      109188CF 
 696      A7D5770D 
 696      CFCBCA2E 
 696      70E7
 697 1f9f 15       		.ascii	"\025"
 698 1fa0 3D9D9F5D 		.ascii	"=\235\237]\340\311+\314\317\316\316*p\345\217\314\317"
 698      E0C92BCC 
 698      CFCECE2A 
 698      70E58FCC 
 698      CF
ARM GAS  /tmp/ccCnU44R.s 			page 56


 699 1fb1 2A70E442 		.ascii	"*p\344B\312\313*\020\377\214w\353\367(\310\217V$\247"
 699      CACB2A10 
 699      FF8C77EB 
 699      F728C88F 
 699      5624A7
 700 1fc4 8E903FEC 		.ascii	"\216\220?\354*.\363\313Aq\250spaA\201sX\346S\005\316"
 700      2A2EF3CB 
 700      4171A873 
 700      70614181 
 700      7358E653 
 701 1fda 413905C3 		.ascii	"A9\005\303H6\3241\270\240\240S\240\222\360\036(\001"
 701      4836D431 
 701      B8A0A053 
 701      A092F01E 
 701      2801
 702 1fec 798542E4 		.ascii	"y\205B\344\324\005\007\271\304Q\034\354G\304N5\304]"
 702      D40507B9 
 702      C4511CEC 
 702      47C44E35 
 702      C45D
 703 1ffe 8C87     		.ascii	"\214\207"
 704 2000 843D2718 		.ascii	"\204='\030\216rV<&\364BH\343&%<&\350\227\341\036\251"
 704      8E72563C 
 704      26F44248 
 704      E326253C 
 704      26E897E1 
 705 2016 C5637CF4 		.ascii	"\305c|\364|\240=\254\3421\244\025\334U\276\012\350\235"
 705      7CA03DAC 
 705      E231A415 
 705      DC55BE0A 
 705      E89D
 706 2028 70A80AFA 		.ascii	"p\250\012\372\307\016\345\200\240\015;\250`x\346\360"
 706      C70EE580 
 706      A00D3BA8 
 706      6078E6F0 
 707 2038 71706579 		.ascii	"qpeyU\240\314\037\014e\014\311\314\204\3135\362<\341"
 707      55A0CC1F 
 707      0C650CC9 
 707      CC84CB35 
 707      F23CE1
 708 204b AA206957 		.ascii	"\252 iW\304\015Tz\200\3330\334\346\367\266\361\307\024"
 708      C40D547A 
 708      80DB30DC 
 708      E6F7B6F1 
 708      C714
 709 205d 5706FD00 		.ascii	"W\006\375\000\230F\212}\320\014\305\341q\377\226\034"
 709      98468A7D 
 709      D00CC5E1 
 709      71FF961C 
 710 206d 8A6FECEF 		.ascii	"\212o\354\357\312\211\344\202\376\321\240:\2441\373"
 710      CA89E482 
 710      FED1A03A 
 710      A431FB
 711 207c 3D0AE977 		.ascii	"=\012\351w\220\036\203\364{G\250\177_H\375 \365\207"
 711      901E83F4 
 711      7B47A87F 
 711      5F48FD20 
ARM GAS  /tmp/ccCnU44R.s 			page 57


 711      F587
 712 208e 3400D240 		.ascii	"4\000\322@H\277\205\004\327\365\207\353\372\303u\375"
 712      48BF8504 
 712      D7F587EB 
 712      FAC375FD 
 713 209e E1BA0170 		.ascii	"\341\272\001p\335\200~Rp\240\024\374\255\024|T\012\376"
 713      DD807E52 
 713      70A014FC 
 713      AD147C54 
 713      0AFE
 714 20b0 4E0A3E26 		.ascii	"N\012>&\005\177\357\010\366\353\013\251\237T\026\204"
 714      057FEF08 
 714      F6EB0BA9 
 714      9F541684 
 715 20c0 C3005795 		.ascii	"\303\000W\225\017\250\365\020\011?\357\017\302\261\262"
 715      0FA8F510 
 715      093FEF0F 
 715      C2B1B2
 716 20cf ACC41F24 		.ascii	"\254\304\037$\022\227\313\375)a\265{z\210r=\006\015"
 716      1297CBFD 
 716      2961B57B 
 716      7A88723D 
 716      060D
 717 20e1 49D50CCE 		.ascii	"I\325\014\316\340J\374\315\023.\257,\361\343wb\377B"
 717      E04AFCCD 
 717      132EAF2C 
 717      F1E37762 
 717      FF42
 718 20f3 9E70D04F 		.ascii	"\236p\320Ol% \220\023Wyh4\374\250\3524TW\317\334\301"
 718      6C252090 
 718      13577968 
 718      34FCA8EA 
 718      345457CF 
 719 2109 9217E0A7 		.ascii	"\222\027\340\247\024\377\270@\030d\344w?\037\256\034"
 719      14FFB840 
 719      1864E477 
 719      3F1FAE1C 
 720 2119 F55F5569 		.ascii	"\365_Ui\376\261`\015\313\345\020v\344\347\311\211\243"
 720      FEB1600D 
 720      CBE51076 
 720      E4E7C989 
 720      A3
 721 212a CA57DD99 		.ascii	"\312W\335\231*O\310W\006\366\302\027\356\022U'Z\222"
 721      2A4FC857 
 721      06F6C217 
 721      EE125527 
 721      5A92
 722 213c 5AE57B5E 		.ascii	"Z\345{^\016\204\003\025\243\273h\305\317U\373\253\201"
 722      0E840315 
 722      A3BB68C5 
 722      CF55FBAB 
 722      81
 723 214d AAAECC95 		.ascii	"\252\256\314\225X\324\251\312\007\267\305S\027\236B"
 723      58D4A9CA 
 723      07B7C553 
 723      179E42
 724 215c 81BF0A4C 		.ascii	"\201\277\012L\006Tv\225WC\373'\034at\032Z\036\036G4"
ARM GAS  /tmp/ccCnU44R.s 			page 58


 724      06547695 
 724      5743FB27 
 724      1C61741A 
 724      5A1E1E47 
 725 2171 A99CA2C3 		.ascii	"\251\234\242\303\261\362\371\012\020#\"\001\013\345"
 725      B1F2F90A 
 725      10232201 
 725      0BE5
 726 217f A8B8401F 		.ascii	"\250\270@\037\\G(\355D\244\"\227\241\272AaUee\331\357"
 726      5C4728ED 
 726      44A42297 
 726      A1BA4161 
 726      556565D9 
 727 2194 6CDD4F65 		.ascii	"l\335Oe\006\356\331]\355\\ e\177\320_Q\014\334\272i"
 727      06EED95D 
 727      ED5C2065 
 727      7FD05F51 
 727      0CDCBA69 
 728 21a8 D1BFF28C 		.ascii	"\321\277\362\214t\231\303\013s\013\301\364e\240\205"
 728      7499C30B 
 728      730BC1F4 
 728      65A085
 729 21b7 2B1DD8B7 		.ascii	"+\035\330\267\337\270b\242\302\304\274\026A\007\311"
 729      DFB862A2 
 729      C2C4BC16 
 729      4107C9
 730 21c6 F2973A32 		.ascii	"\362\227:2\013\372A\352/\025\026H`z2\0132\363\013\334"
 730      0BFA41EA 
 730      2F151648 
 730      607A320B 
 730      32F30BDC 
 731 21da 057F8163 		.ascii	"\005\177\201c\201\273\010\017\236\334\376\205\2319C"
 731      81BB080F 
 731      9EDCFE85 
 731      993943
 732 21e9 0A5C70CC 		.ascii	"\012\\p\314/p\200\035\316\261kv1\317\0318n\034%\304"
 732      2F70801D 
 732      CEB16B76 
 732      31CF1938 
 732      6E1C25C4 
 733 21fd 57522E13 		.ascii	"WR.\023\346\262\206\017\362\025\202*\311\345\0325Rf"
 733      E6B2860F 
 733      F215822A 
 733      C9E51A35 
 733      5266
 734 220f 81734456 		.ascii	"\201sDVQ\201#\177P\201sx_\222\365\033T\340\310\001b"
 734      5181237F 
 734      50817378 
 734      5F92F51B 
 734      54E0C801 
 735 2224 4278A133 		.ascii	"Bx\2413PZ\034t\007Bc\002\245\341\324\220\277\2544PQ"
 735      505A1C74 
 735      07426302 
 735      A5E1D490 
 735      BFAC3450 
 736 2239 E21FE71E 		.ascii	"\342\037\347\036\013\343ee\260{\024\335G\257\006\003"
 736      0BE36565 
ARM GAS  /tmp/ccCnU44R.s 			page 59


 736      B07B14DD 
 736      47AF0603 
 737 2249 0B5F82E3 		.ascii	"\013_\202\343H\036\036\227\032\034\007G\242\311\251"
 737      481E1E97 
 737      1A1C0747 
 737      A2C9A9
 738 2258 61EDCC09 		.ascii	"a\355\314\011\354T\271\312B\305\245\243]c0\367\015\206"
 738      EC54B9CA 
 738      42C5A5A3 
 738      5D6330F7 
 738      0D86
 739 226a F64AA81F 		.ascii	"\366J\250\037ceh\335\352\020\374\000\315\\\021&\036"
 739      636568DD 
 739      EA10FC00 
 739      CD5C1126 
 739      1E
 740 227b 88BD36A6 		.ascii	"\210\2756\246\004\2226\3561\030\006\375B?\350VE8 \227"
 740      049236EE 
 740      311806FD 
 740      423FE856 
 740      45382097 
 741 228f 5181DC63 		.ascii	"Q\201\334cV\370\247\341E\375q\300)\013\214\312\030]"
 741      56F8A7E1 
 741      45FD71C0 
 741      290B8CCA 
 741      185D
 742 22a1 5C6C1878 		.ascii	"\\l\030x\006>\362\330#\003\331\301\012\006\036bX\211"
 742      063EF2D8 
 742      2303D9C1 
 742      0A061E62 
 742      5889
 743 22b3 D7019278 		.ascii	"\327\001\222x>\030\010\373\235Dw\034U\325a\307h\177"
 743      3E1808FB 
 743      9D44771C 
 743      55D561C7 
 743      687F
 744 22c5 D831B63C 		.ascii	"\3301\266<\234\242q\340\200\023Giy\270s\250\004\034"
 744      9CA271E0 
 744      80134769 
 744      79B873A8 
 744      041C
 745 22d7 8950A0BC 		.ascii	"\211P\240\274\252\314\377H1\272\022t\354O\217\236\001"
 745      AACCFF48 
 745      31BA1274 
 745      EC4F8F9E 
 745      01
 746 22e8 1D698190 		.ascii	"\035i\201\220\217\270)\301\260\277$\035\316\253\202"
 746      8FB829C1 
 746      B0BF241D 
 746      CEAB82
 747 22f7 95616803 		.ascii	"\225ah\003\177\0111\260\025p\326\251$\020RO\235\241"
 747      7F0931B0 
 747      1570D6A9 
 747      2410524F 
 747      9DA1
 748 2309 172A8AFF 		.ascii	"\027*\212\377`\307s\200s_\240rTYe\361\263\300@\227\301"
 748      60C77380 
ARM GAS  /tmp/ccCnU44R.s 			page 60


 748      735FA072 
 748      545965F1 
 748      B3C04097 
 749 231e E424CB3F 		.ascii	"\344$\313?6P\354\317\255(\255L\031U\366\254\017])rR"
 749      3650ECCF 
 749      AD28AD4C 
 749      1955F6AC 
 749      0F5D2972 
 750 2333 515D9E02 		.ascii	"Q]\236\002\274\0005\245\225\235\240@\3635\006\017{J"
 750      BC0035A5 
 750      959DA040 
 750      F335060F 
 750      7B4A
 751 2345 F335C829 		.ascii	"\3635\310)\3615\260\214z\030\235\311if\336\210\021\331"
 751      F135B08C 
 751      7A189DC9 
 751      6966DE88 
 751      11D9
 752 2357 F075C490 		.ascii	"\360u\304\220n\344kVna\254$\225\224\240_\222\246\235"
 752      6EE46B56 
 752      6E61AC24 
 752      9594A05F 
 752      92A69D
 753 236a 41299EFF 		.ascii	"A)\236\377\271 \267H;/|zD&\234;\212\0030\254\206JR\212"
 753      B920B748 
 753      3B2F7C7A 
 753      44269C3B 
 753      8A0330AC 
 754 2382 E52AB938 		.ascii	"\345*\2718\020~\241\013\022\357\223KJ\202\376P\310\037"
 754      107EA10B 
 754      12EF934B 
 754      4A82FE50 
 754      C81F
 755 2394 BA3354E2 		.ascii	"\2723T\342\0031\025\313\301\222\250\334\234 \347\222"
 755      033115CB 
 755      C192A8DC 
 755      9C20E792 
 756 23a4 BBE80FD8 		.ascii	"\273\350\017\33081)\272\251\375MAS\012'\272F\001S\204"
 756      383129BA 
 756      A9FD4D41 
 756      530A27BA 
 756      46015384 
 757 23b8 5FA14DF1 		.ascii	"_\241M\361Ht\270\304S\012\243\037\014\313)PP\000m\374"
 757      4874B8C4 
 757      530AA31F 
 757      0CCB2950 
 757      50006DFC 
 758 23cc 0238B378 		.ascii	"\0028\263x\374\255-\227\315\037\004m#>Q!\236\321\366"
 758      FCAD2D97 
 758      CD1F046D 
 758      233E5121 
 758      9ED1F6
 759 23df EEC27E81 		.ascii	"\356\302~\201\306O%\303\177\240\034\244\354\004M\012"
 759      C64F25C3 
 759      7FA01CA4 
 759      EC044D0A 
 760 23ef 3B41FC61 		.ascii	";A\374a7r\020v\021\375\012't[u]\001\207\003\322\023"
ARM GAS  /tmp/ccCnU44R.s 			page 61


 760      37721076 
 760      11FD0A27 
 760      745B755D 
 760      018703D2 
 761 2404 3AE3992F 		.ascii	":\343\231/TY\035$\226.\235\375\332\225~!\366\325\017"
 761      54591D24 
 761      962E9DFD 
 761      DA957E21 
 761      F6D50F
 762 2417 C61744A2 		.ascii	"\306\027D\242/\360\370\313\320\014\247\301Q+K\205s\012"
 762      2FF0F8CB 
 762      D00CA7C1 
 762      512B4B85 
 762      730A
 763 2429 4EA170EC 		.ascii	"N\241p\354\002\251B1\236\222\337\237\247\003\232?\204"
 763      02A94231 
 763      9E92DF9F 
 763      A7039A3F 
 763      84
 764 243a B55D785D 		.ascii	"\265]x]j\250D\325\242\324\302,U\211<pFt(\005\216\250"
 764      6AA844D5 
 764      A2D4C22C 
 764      55893C70 
 764      46742805 
 765 2450 16F678C4 		.ascii	"\026\366x\304\221\203\360xG\240\002d\246\015]\340\242"
 765      9183F078 
 765      47A00264 
 765      A60D5DE0 
 765      A2
 766 2461 69A729DA 		.ascii	"i\247)\332i\352s\332@\007g\305\225\325\340\257\004S"
 766      69EA73DA 
 766      400767C5 
 766      95D5E0AF 
 766      0453
 767 2473 9EF38DAA 		.ascii	"\236\363\215\252.\2051\300\365\234/\\Y\345\201K\202"
 767      2E8531C0 
 767      F59C2F5C 
 767      59E5814B 
 767      82
 768 2484 55E1201C 		.ascii	"U\341 \034\203%pL}\256\2422\034(}\001P\236\363\321S"
 768      8325704C 
 768      7DAEA232 
 768      1C287D01 
 768      509EF3D1 
 769 2499 F7732086 		.ascii	"\367s \206\212g\335\001\304\354\\Y\035fn\353\256\304"
 769      8A67DD01 
 769      C4EC5C59 
 769      1D666EEB 
 769      AEC4
 770 24ab 1329304A 		.ascii	"\023)0J\252\034u\307\310\302A\005E\314x0\3009\244(\277"
 770      AA1C75C7 
 770      C8C24105 
 770      45CC7830 
 770      C039A428 
 771 24c0 C0551D92 		.ascii	"\300U\035\222\203\341.\250a\271\025\001b\205\240\313"
 771      83E12EA8 
 771      61B91501 
ARM GAS  /tmp/ccCnU44R.s 			page 62


 771      6285A0CB 
 772 24d0 49A11247 		.ascii	"I\241\022GyY\211\024\252\352J~\031\342\017G\255B'\274"
 772      79598914 
 772      AAEA4A7E 
 772      19E20F47 
 772      AD4227BC 
 773 24e4 144A720A 		.ascii	"\024Jr\012\251\272\346\024\016G\352Kl\031-98\232h\370"
 773      A9BAE614 
 773      0E47EA4B 
 773      6C192D39 
 773      389A68F8 
 774 24f8 58199BB1 		.ascii	"X\031\233\261\263\3177\272\242\272\330\247~M\373\343"
 774      B3CF37BA 
 774      A2BAD8A7 
 774      7E4DFBE3 
 775 2508 A8EA4059 		.ascii	"\250\352@Y\370\341@\305\343\002\370\031j)x\236c\251"
 775      F8E140C5 
 775      E302F819 
 775      6A29789E 
 775      63A9
 776 251a 11BB036E 		.ascii	"\021\273\003n\233\0255<\236\234\202\354\302\221\303"
 776      9B15353C 
 776      9E9C82EC 
 776      C291C3
 777 2529 8A5C3905 		.ascii	"\212\\9\005\276\274\247\322 \207.\376\224/\033\\c8\317"
 777      BEBCA7D2 
 777      20872EFE 
 777      942F1B5C 
 777      6338CF
 778 253c 1D51444E 		.ascii	"\035QDN\323\341tD^\221:\007\301/\276\234\334a\331\352"
 778      D3E17444 
 778      5E913A07 
 778      C12FBE9C 
 778      DC61D9EA 
 779 2550 69FEA0A2 		.ascii	"i\376\240\242\241]\360\352?\015\032\226\233\345\033"
 779      A15DF0EA 
 779      3F0D1A96 
 779      9BE51B
 780 255f 31687876 		.ascii	"1hxv*A\312\036\221\233\235\225\002g\331\177\311-,\352"
 780      2A41CA1E 
 780      919B9D95 
 780      0267D97F 
 780      C92D2CEA 
 781 2573 C65C9237 		.ascii	"\306\\\2227\370\337\301\206t\207\022b)\262}\371\005"
 781      F8DFC186 
 781      74871262 
 781      29B27DF9 
 781      05
 782 2584 79455090 		.ascii	"yEP\220\235\325\225\271(\253\200X!\365\336\331#\006"
 782      9DD595B9 
 782      28AB8058 
 782      21F5DED9 
 782      2306
 783 2596 0D1E467F 		.ascii	"\015\036F\177W\357^\370taQ\366pr\343\341O\345\024\372"
 783      57EF5EF8 
 783      746151F6 
 783      7072E3E1 
ARM GAS  /tmp/ccCnU44R.s 			page 63


 783      4FE514FA 
 784 25aa 060DCE2B 		.ascii	"\006\015\316+\000\000BSQ\356\360\354\274\221E\204\206"
 784      00004253 
 784      51EEF0EC 
 784      BC914584 
 784      86
 785 25bb 6179994F 		.ascii	"ay\231Oegu\217\202\344\215\0342\024\214ZA\366\335\344"
 785      6567758F 
 785      82E48D1C 
 785      32148C5A 
 785      41F6DDE4 
 786 25cf BABC3CDF 		.ascii	"\272\274<\337\360A#\236\366\345\345g\217\240\230=\230"
 786      F041239E 
 786      F6E5E567 
 786      8FA0983D 
 786      98
 787 25e0 FBC3000B 		.ascii	"\373\303\000\013\234\024e\027\270\2122\207\016*\360"
 787      9C146517 
 787      B88A3287 
 787      0E2AF0
 788 25ef 94FACA49 		.ascii	"\224\372\312Icu\002\001f\252\026\274xL\321\230\222\302"
 788      63750201 
 788      66AA16BC 
 788      784CD198 
 788      92C2
 789 2601 32BFBF8A 		.ascii	"2\277\277\212\030\225\3020\250\003\221o\336\250\377"
 789      1895C230 
 789      A803916F 
 789      DEA8FF
 790 2610 825F894A 		.ascii	"\202_\211JH9\205nr=\214\232d\2068\000\306\321L\034G"
 790      4839856E 
 790      723D8C9A 
 790      64863800 
 790      C6D14C1C 
 791 2625 21EF444D 		.ascii	"!\357DMI>x\001Ra\326\377\007\007#\224\220"
 791      493E7801 
 791      5261D6FF 
 791      07072394 
 791      90
 792              		.text
 793              		.section	.gnu.lto_.symtab.889be19d84897ea0,"",%progbits
 794 0000 73645F69 		.ascii	"sd_is_card_inserted\000\000\000\000\000\000\000\000"
 794      735F6361 
 794      72645F69 
 794      6E736572 
 794      74656400 
 795 001b 00000000 		.ascii	"\000\000\000\000\227\002\000\000sd_is_write_protect"
 795      97020000 
 795      73645F69 
 795      735F7772 
 795      6974655F 
 796 0036 65640000 		.ascii	"ed\000\000\000\000\000\000\000\000\000\000\000\000\372"
 796      00000000 
 796      00000000 
 796      0000FA
 797 0045 02000073 		.ascii	"\002\000\000sdmmcInitialize\000\000\000\000\000\000"
 797      646D6D63 
ARM GAS  /tmp/ccCnU44R.s 			page 64


 797      496E6974 
 797      69616C69 
 797      7A650000 
 798 005d 00000000 		.ascii	"\000\000\000\000\000\000\376\002\000\000sdmmGetMMCD"
 798      0000FE02 
 798      00007364 
 798      6D6D4765 
 798      744D4D43 
 799 0072 72697665 		.ascii	"river\000\000\000\000\000\000\000\000\000\000\000\000"
 799      72000000 
 799      00000000 
 799      00000000 
 799      00
 800 0083 B8030000 		.ascii	"\270\003\000\000sdmmcGetFS\000\000\000\000\000\000\000"
 800      73646D6D 
 800      63476574 
 800      46530000 
 800      00000000 
 801 0098 00000000 		.ascii	"\000\000\000\000\000\276\003\000\000sdmmcFSMounted\000"
 801      00BE0300 
 801      0073646D 
 801      6D634653 
 801      4D6F756E 
 802 00b0 00000000 		.ascii	"\000\000\000\000\000\000\000\000\000\000\000\304\003"
 802      00000000 
 802      000000C4 
 802      03
 803 00bd 00005350 		.ascii	"\000\000SPID3\000\000\002\000\000\000\000\000\000\000"
 803      49443300 
 803      00020000 
 803      00000000 
 803      00
 804 00ce 00002904 		.ascii	"\000\000)\004\000\000chvprintf\000\000\002\000\000\000"
 804      00006368 
 804      76707269 
 804      6E746600 
 804      00020000 
 805 00e3 00000000 		.ascii	"\000\000\000\000\000\000\313\003\000\000mmcDisconne"
 805      0000CB03 
 805      00006D6D 
 805      63446973 
 805      636F6E6E 
 806 00f8 63740000 		.ascii	"ct\000\000\002\000\000\000\000\000\000\000\000\000\332"
 806      02000000 
 806      00000000 
 806      0000DA
 807 0107 03000066 		.ascii	"\003\000\000f_mount\000\000\002\000\000\000\000\000"
 807      5F6D6F75 
 807      6E740000 
 807      02000000 
 807      0000
 808 0119 00000000 		.ascii	"\000\000\000\000\334\003\000\000mmcConnect\000\000\002"
 808      DC030000 
 808      6D6D6343 
 808      6F6E6E65 
 808      63740000 
 809 012e 00000000 		.ascii	"\000\000\000\000\000\000\000\000\000\024\004\000\000"
ARM GAS  /tmp/ccCnU44R.s 			page 65


 809      00000000 
 809      00140400 
 809      00
 810 013b 63685468 		.ascii	"chThdSleep\000\000\002\000\000\000\000\000\000\000\000"
 810      64536C65 
 810      65700000 
 810      02000000 
 810      00000000 
 811 0150 00160400 		.ascii	"\000\026\004\000\000mmcStart\000\000\002\000\000\000"
 811      006D6D63 
 811      53746172 
 811      74000002 
 811      000000
 812 0163 00000000 		.ascii	"\000\000\000\000\000\000\032\004\000\000mmcObjectIn"
 812      00001A04 
 812      00006D6D 
 812      634F626A 
 812      65637449 
 813 0178 69740000 		.ascii	"it\000\000\002\000\000\000\000\000\000\000\000\000\037"
 813      02000000 
 813      00000000 
 813      00001F
 814 0187 040000   		.ascii	"\004\000\000"
 815              		.text
 816              		.section	.gnu.lto_.opts,"",%progbits
 817 0000 272D6D63 		.ascii	"'-mcpu=cortex-m4' '-mfloat-abi=hard' '-mfpu=fpv4-sp"
 817      70753D63 
 817      6F727465 
 817      782D6D34 
 817      2720272D 
 818 0033 2D643136 		.ascii	"-d16' '-mno-thumb-interwork' '-mthumb' '-O2' '-fomi"
 818      2720272D 
 818      6D6E6F2D 
 818      7468756D 
 818      622D696E 
 819 0066 742D6672 		.ascii	"t-frame-pointer' '-falign-functions=16' '-ffunction"
 819      616D652D 
 819      706F696E 
 819      74657227 
 819      20272D66 
 820 0099 2D736563 		.ascii	"-sections' '-fdata-sections' '-fno-common' '-flto' "
 820      74696F6E 
 820      73272027 
 820      2D666461 
 820      74612D73 
 821 00cc 272D6673 		.ascii	"'-fsingle-precision-constant'\000"
 821      696E676C 
 821      652D7072 
 821      65636973 
 821      696F6E2D 
 822              		.text
 823              		.section	.text.chprintf,"ax",%progbits
 824              		.align	2
 825              		.p2align 4,,15
 826              		.thumb
 827              		.thumb_func
 828              		.type	chprintf, %function
ARM GAS  /tmp/ccCnU44R.s 			page 66


 829              	chprintf:
 830              		@ args = 4, pretend = 12, frame = 8
 831              		@ frame_needed = 0, uses_anonymous_args = 1
 832 0000 0EB4     		push	{r1, r2, r3}
 833 0002 00B5     		push	{lr}
 834 0004 82B0     		sub	sp, sp, #8
 835 0006 03AA     		add	r2, sp, #12
 836 0008 52F8041B 		ldr	r1, [r2], #4
 837 000c 0192     		str	r2, [sp, #4]
 838 000e FFF7FEFF 		bl	chvprintf
 839 0012 02B0     		add	sp, sp, #8
 840              		@ sp needed
 841 0014 5DF804EB 		ldr	lr, [sp], #4
 842 0018 03B0     		add	sp, sp, #12
 843 001a 7047     		bx	lr
 844              		.size	chprintf, .-chprintf
 845 001c AFF30080 		.section	.text.sd_is_card_inserted,"ax",%progbits
 846              		.align	2
 847              		.p2align 4,,15
 848              		.global	sd_is_card_inserted
 849              		.thumb
 850              		.thumb_func
 851              		.type	sd_is_card_inserted, %function
 852              	sd_is_card_inserted:
 853              		@ args = 0, pretend = 0, frame = 0
 854              		@ frame_needed = 0, uses_anonymous_args = 0
 855              		@ link register save eliminated.
 856 0000 034B     		ldr	r3, .L3
 857 0002 1869     		ldr	r0, [r3, #16]
 858 0004 C0F38000 		ubfx	r0, r0, #2, #1
 859 0008 80F00100 		eor	r0, r0, #1
 860 000c 7047     		bx	lr
 861              	.L4:
 862 000e 00BF     		.align	2
 863              	.L3:
 864 0010 000C0240 		.word	1073875968
 865              		.size	sd_is_card_inserted, .-sd_is_card_inserted
 866 0014 AFF30080 		.section	.text.sd_is_write_protected,"ax",%progbits
 866      AFF30080 
 866      AFF30080 
 867              		.align	2
 868              		.p2align 4,,15
 869              		.global	sd_is_write_protected
 870              		.thumb
 871              		.thumb_func
 872              		.type	sd_is_write_protected, %function
 873              	sd_is_write_protected:
 874              		@ args = 0, pretend = 0, frame = 0
 875              		@ frame_needed = 0, uses_anonymous_args = 0
 876              		@ link register save eliminated.
 877 0000 0020     		movs	r0, #0
 878 0002 7047     		bx	lr
 879              		.size	sd_is_write_protected, .-sd_is_write_protected
 880 0004 AFF30080 		.section	.text.sdmmcInitialize,"ax",%progbits
 880      AFF30080 
 880      AFF30080 
 881              		.align	2
ARM GAS  /tmp/ccCnU44R.s 			page 67


 882              		.p2align 4,,15
 883              		.global	sdmmcInitialize
 884              		.thumb
 885              		.thumb_func
 886              		.type	sdmmcInitialize, %function
 887              	sdmmcInitialize:
 888              		@ args = 0, pretend = 0, frame = 0
 889              		@ frame_needed = 0, uses_anonymous_args = 0
 890 0000 F8B5     		push	{r3, r4, r5, r6, r7, lr}
 891 0002 0446     		mov	r4, r0
 892 0004 0023     		movs	r3, #0
 893 0006 2D4F     		ldr	r7, .L20
 894 0008 2D4E     		ldr	r6, .L20+4
 895 000a 2E4D     		ldr	r5, .L20+8
 896 000c 0160     		str	r1, [r0]
 897 000e 0846     		mov	r0, r1
 898 0010 A360     		str	r3, [r4, #8]
 899 0012 6373     		strb	r3, [r4, #13]
 900 0014 6760     		str	r7, [r4, #4]
 901 0016 2A60     		str	r2, [r5]
 902 0018 3460     		str	r4, [r6]
 903 001a FFF7FEFF 		bl	mmcObjectInit
 904 001e 2068     		ldr	r0, [r4]
 905 0020 2949     		ldr	r1, .L20+12
 906 0022 FFF7FEFF 		bl	mmcStart
 907 0026 294B     		ldr	r3, .L20+16
 908 0028 1B69     		ldr	r3, [r3, #16]
 909 002a 5B07     		lsls	r3, r3, #29
 910 002c 2DD4     		bmi	.L17
 911 002e 2849     		ldr	r1, .L20+20
 912 0030 2868     		ldr	r0, [r5]
 913 0032 FFF7FEFF 		bl	chprintf
 914 0036 274B     		ldr	r3, .L20+24
 915 0038 4FF40042 		mov	r2, #32768
 916 003c 5A83     		strh	r2, [r3, #26]	@ movhi
 917 003e 4FF4FA60 		mov	r0, #2000
 918 0042 FFF7FEFF 		bl	chThdSleep
 919 0046 2449     		ldr	r1, .L20+28
 920 0048 2868     		ldr	r0, [r5]
 921 004a FFF7FEFF 		bl	chprintf
 922 004e 2068     		ldr	r0, [r4]
 923 0050 FFF7FEFF 		bl	mmcConnect
 924 0054 2149     		ldr	r1, .L20+32
 925 0056 0746     		mov	r7, r0
 926 0058 2868     		ldr	r0, [r5]
 927 005a FFF7FEFF 		bl	chprintf
 928 005e DFB9     		cbnz	r7, .L18
 929 0060 1F49     		ldr	r1, .L20+36
 930 0062 2868     		ldr	r0, [r5]
 931 0064 FFF7FEFF 		bl	chprintf
 932 0068 1E48     		ldr	r0, .L20+40
 933 006a A060     		str	r0, [r4, #8]
 934 006c 1E49     		ldr	r1, .L20+44
 935 006e 3A46     		mov	r2, r7
 936 0070 FFF7FEFF 		bl	f_mount
 937 0074 0646     		mov	r6, r0
 938 0076 2868     		ldr	r0, [r5]
ARM GAS  /tmp/ccCnU44R.s 			page 68


 939 0078 B6B9     		cbnz	r6, .L19
 940 007a 1C49     		ldr	r1, .L20+48
 941 007c FFF7FEFF 		bl	chprintf
 942 0080 0123     		movs	r3, #1
 943 0082 3046     		mov	r0, r6
 944 0084 6373     		strb	r3, [r4, #13]
 945              	.L9:
 946 0086 40B2     		sxtb	r0, r0
 947 0088 F8BD     		pop	{r3, r4, r5, r6, r7, pc}
 948              	.L17:
 949 008a 2868     		ldr	r0, [r5]
 950 008c 1849     		ldr	r1, .L20+52
 951 008e FFF7FEFF 		bl	chprintf
 952 0092 FD20     		movs	r0, #253
 953 0094 40B2     		sxtb	r0, r0
 954 0096 F8BD     		pop	{r3, r4, r5, r6, r7, pc}
 955              	.L18:
 956 0098 2868     		ldr	r0, [r5]
 957 009a 1649     		ldr	r1, .L20+56
 958 009c 0122     		movs	r2, #1
 959 009e FFF7FEFF 		bl	chprintf
 960 00a2 0120     		movs	r0, #1
 961 00a4 40B2     		sxtb	r0, r0
 962 00a6 F8BD     		pop	{r3, r4, r5, r6, r7, pc}
 963              	.L19:
 964 00a8 1349     		ldr	r1, .L20+60
 965 00aa FFF7FEFF 		bl	chprintf
 966 00ae 2068     		ldr	r0, [r4]
 967 00b0 FFF7FEFF 		bl	mmcDisconnect
 968 00b4 A760     		str	r7, [r4, #8]
 969 00b6 FE20     		movs	r0, #254
 970 00b8 E5E7     		b	.L9
 971              	.L21:
 972 00ba 00BF     		.align	2
 973              	.L20:
 974 00bc 00000000 		.word	SPID3
 975 00c0 00000000 		.word	.LANCHOR1
 976 00c4 00000000 		.word	.LANCHOR0
 977 00c8 00000000 		.word	.LANCHOR2
 978 00cc 000C0240 		.word	1073875968
 979 00d0 98000000 		.word	.LC6
 980 00d4 00000240 		.word	1073872896
 981 00d8 AC000000 		.word	.LC7
 982 00dc C0000000 		.word	.LC8
 983 00e0 20000000 		.word	.LC1
 984 00e4 00000000 		.word	.LANCHOR3
 985 00e8 3C000000 		.word	.LC2
 986 00ec 60000000 		.word	.LC4
 987 00f0 7C000000 		.word	.LC5
 988 00f4 00000000 		.word	.LC0
 989 00f8 40000000 		.word	.LC3
 990              		.size	sdmmcInitialize, .-sdmmcInitialize
 991 00fc AFF30080 		.section	.text.sdmmGetMMCDriver,"ax",%progbits
 992              		.align	2
 993              		.p2align 4,,15
 994              		.global	sdmmGetMMCDriver
 995              		.thumb
ARM GAS  /tmp/ccCnU44R.s 			page 69


 996              		.thumb_func
 997              		.type	sdmmGetMMCDriver, %function
 998              	sdmmGetMMCDriver:
 999              		@ args = 0, pretend = 0, frame = 0
 1000              		@ frame_needed = 0, uses_anonymous_args = 0
 1001              		@ link register save eliminated.
 1002 0000 037B     		ldrb	r3, [r0, #12]	@ zero_extendqisi2
 1003 0002 0BB1     		cbz	r3, .L24
 1004 0004 0068     		ldr	r0, [r0]
 1005 0006 7047     		bx	lr
 1006              	.L24:
 1007 0008 1846     		mov	r0, r3
 1008 000a 7047     		bx	lr
 1009              		.size	sdmmGetMMCDriver, .-sdmmGetMMCDriver
 1010 000c AFF30080 		.section	.text.sdmmcGetFS,"ax",%progbits
 1011              		.align	2
 1012              		.p2align 4,,15
 1013              		.global	sdmmcGetFS
 1014              		.thumb
 1015              		.thumb_func
 1016              		.type	sdmmcGetFS, %function
 1017              	sdmmcGetFS:
 1018              		@ args = 0, pretend = 0, frame = 0
 1019              		@ frame_needed = 0, uses_anonymous_args = 0
 1020              		@ link register save eliminated.
 1021 0000 437B     		ldrb	r3, [r0, #13]	@ zero_extendqisi2
 1022 0002 0BB1     		cbz	r3, .L27
 1023 0004 8068     		ldr	r0, [r0, #8]
 1024 0006 7047     		bx	lr
 1025              	.L27:
 1026 0008 1846     		mov	r0, r3
 1027 000a 7047     		bx	lr
 1028              		.size	sdmmcGetFS, .-sdmmcGetFS
 1029 000c AFF30080 		.section	.text.sdmmcFSMounted,"ax",%progbits
 1030              		.align	2
 1031              		.p2align 4,,15
 1032              		.global	sdmmcFSMounted
 1033              		.thumb
 1034              		.thumb_func
 1035              		.type	sdmmcFSMounted, %function
 1036              	sdmmcFSMounted:
 1037              		@ args = 0, pretend = 0, frame = 0
 1038              		@ frame_needed = 0, uses_anonymous_args = 0
 1039              		@ link register save eliminated.
 1040 0000 407B     		ldrb	r0, [r0, #13]	@ zero_extendqisi2
 1041 0002 7047     		bx	lr
 1042              		.size	sdmmcFSMounted, .-sdmmcFSMounted
 1043 0004 AFF30080 		.section	.data.hsCfg,"aw",%progbits
 1043      AFF30080 
 1043      AFF30080 
 1044              		.align	2
 1045              		.type	hsCfg, %object
 1046              		.size	hsCfg, 12
 1047              	hsCfg:
 1048 0000 00000000 		.word	0
 1049 0004 00000240 		.word	1073872896
 1050 0008 0F00     		.short	15
ARM GAS  /tmp/ccCnU44R.s 			page 70


 1051 000a 1000     		.short	16
 1052              		.section	.data.mmcCfg,"aw",%progbits
 1053              		.align	2
 1054              		.set	.LANCHOR2,. + 0
 1055              		.type	mmcCfg, %object
 1056              		.size	mmcCfg, 12
 1057              	mmcCfg:
 1058 0000 00000000 		.word	SPID3
 1059 0004 00000000 		.word	lsCfg
 1060 0008 00000000 		.word	hsCfg
 1061              		.section	.bss.serialPort,"aw",%nobits
 1062              		.align	2
 1063              		.set	.LANCHOR0,. + 0
 1064              		.type	serialPort, %object
 1065              		.size	serialPort, 4
 1066              	serialPort:
 1067 0000 00000000 		.space	4
 1068              		.section	.bss.SD,"aw",%nobits
 1069              		.align	2
 1070              		.set	.LANCHOR1,. + 0
 1071              		.type	SD, %object
 1072              		.size	SD, 4
 1073              	SD:
 1074 0000 00000000 		.space	4
 1075              		.section	.rodata.str1.4,"aMS",%progbits,1
 1076              		.align	2
 1077              	.LC0:
 1078 0000 53442F4D 		.ascii	"SD/MMC:ERROR Connect,ERR%02d\012\000"
 1078      4D433A45 
 1078      52524F52 
 1078      20436F6E 
 1078      6E656374 
 1079 001e 0000     		.space	2
 1080              	.LC1:
 1081 0020 53442F4D 		.ascii	"SD/MMC: Connection Done\012\000"
 1081      4D433A20 
 1081      436F6E6E 
 1081      65637469 
 1081      6F6E2044 
 1082 0039 000000   		.space	3
 1083              	.LC2:
 1084 003c 2F00     		.ascii	"/\000"
 1085 003e 0000     		.space	2
 1086              	.LC3:
 1087 0040 53442F4D 		.ascii	"SD/MMC:File System Mount Error\012\000"
 1087      4D433A46 
 1087      696C6520 
 1087      53797374 
 1087      656D204D 
 1088              	.LC4:
 1089 0060 53442F4D 		.ascii	"SD/MMC:File System Mounted\012\000"
 1089      4D433A46 
 1089      696C6520 
 1089      53797374 
 1089      656D204D 
 1090              	.LC5:
 1091 007c 53442F4D 		.ascii	"SD/MMC:No SD Card Found\012\000"
ARM GAS  /tmp/ccCnU44R.s 			page 71


 1091      4D433A4E 
 1091      6F205344 
 1091      20436172 
 1091      6420466F 
 1092 0095 000000   		.space	3
 1093              	.LC6:
 1094 0098 53442F4D 		.ascii	"SD/MMC:Card Found\012\000"
 1094      4D433A43 
 1094      61726420 
 1094      466F756E 
 1094      640A00
 1095 00ab 00       		.space	1
 1096              	.LC7:
 1097 00ac 53442F4D 		.ascii	"SD/MMC:Connecting\012\000"
 1097      4D433A43 
 1097      6F6E6E65 
 1097      6374696E 
 1097      670A00
 1098 00bf 00       		.space	1
 1099              	.LC8:
 1100 00c0 53442F4D 		.ascii	"SD/MMC:End of Connection attempt\012\000"
 1100      4D433A45 
 1100      6E64206F 
 1100      6620436F 
 1100      6E6E6563 
 1101 00e2 0000     		.section	.data.lsCfg,"aw",%progbits
 1102              		.align	2
 1103              		.type	lsCfg, %object
 1104              		.size	lsCfg, 12
 1105              	lsCfg:
 1106 0000 00000000 		.word	0
 1107 0004 00000240 		.word	1073872896
 1108 0008 0F00     		.short	15
 1109 000a 3000     		.short	48
 1110              		.section	.bss.FS,"aw",%nobits
 1111              		.align	2
 1112              		.set	.LANCHOR3,. + 0
 1113              		.type	FS, %object
 1114              		.size	FS, 560
 1115              	FS:
 1116 0000 00000000 		.space	560
 1116      00000000 
 1116      00000000 
 1116      00000000 
 1116      00000000 
 1117              		.comm	__gnu_lto_v1,1,1
 1118              		.ident	"GCC: (GNU Tools for ARM Embedded Processors) 4.8.4 20140526 (release) [ARM/embedded-4_8-br
ARM GAS  /tmp/ccCnU44R.s 			page 72


DEFINED SYMBOLS
                            *ABS*:0000000000000000 sdmmcsimple.c
     /tmp/ccCnU44R.s:824    .text.chprintf:0000000000000000 $t
     /tmp/ccCnU44R.s:829    .text.chprintf:0000000000000000 chprintf
     /tmp/ccCnU44R.s:846    .text.sd_is_card_inserted:0000000000000000 $t
     /tmp/ccCnU44R.s:852    .text.sd_is_card_inserted:0000000000000000 sd_is_card_inserted
     /tmp/ccCnU44R.s:864    .text.sd_is_card_inserted:0000000000000010 $d
     /tmp/ccCnU44R.s:867    .text.sd_is_write_protected:0000000000000000 $t
     /tmp/ccCnU44R.s:873    .text.sd_is_write_protected:0000000000000000 sd_is_write_protected
     /tmp/ccCnU44R.s:881    .text.sdmmcInitialize:0000000000000000 $t
     /tmp/ccCnU44R.s:887    .text.sdmmcInitialize:0000000000000000 sdmmcInitialize
     /tmp/ccCnU44R.s:974    .text.sdmmcInitialize:00000000000000bc $d
     /tmp/ccCnU44R.s:992    .text.sdmmGetMMCDriver:0000000000000000 $t
     /tmp/ccCnU44R.s:998    .text.sdmmGetMMCDriver:0000000000000000 sdmmGetMMCDriver
     /tmp/ccCnU44R.s:1011   .text.sdmmcGetFS:0000000000000000 $t
     /tmp/ccCnU44R.s:1017   .text.sdmmcGetFS:0000000000000000 sdmmcGetFS
     /tmp/ccCnU44R.s:1030   .text.sdmmcFSMounted:0000000000000000 $t
     /tmp/ccCnU44R.s:1036   .text.sdmmcFSMounted:0000000000000000 sdmmcFSMounted
     /tmp/ccCnU44R.s:1044   .data.hsCfg:0000000000000000 $d
     /tmp/ccCnU44R.s:1047   .data.hsCfg:0000000000000000 hsCfg
     /tmp/ccCnU44R.s:1053   .data.mmcCfg:0000000000000000 $d
     /tmp/ccCnU44R.s:1057   .data.mmcCfg:0000000000000000 mmcCfg
     /tmp/ccCnU44R.s:1105   .data.lsCfg:0000000000000000 lsCfg
     /tmp/ccCnU44R.s:1062   .bss.serialPort:0000000000000000 $d
     /tmp/ccCnU44R.s:1066   .bss.serialPort:0000000000000000 serialPort
     /tmp/ccCnU44R.s:1069   .bss.SD:0000000000000000 $d
     /tmp/ccCnU44R.s:1073   .bss.SD:0000000000000000 SD
     /tmp/ccCnU44R.s:1076   .rodata.str1.4:0000000000000000 $d
     /tmp/ccCnU44R.s:1102   .data.lsCfg:0000000000000000 $d
     /tmp/ccCnU44R.s:1111   .bss.FS:0000000000000000 $d
     /tmp/ccCnU44R.s:1115   .bss.FS:0000000000000000 FS
                            *COM*:0000000000000001 __gnu_lto_v1
     /tmp/ccCnU44R.s:866    .text.sd_is_card_inserted:0000000000000014 $t
     /tmp/ccCnU44R.s:991    .text.sdmmcInitialize:00000000000000fc $t

UNDEFINED SYMBOLS
chvprintf
mmcObjectInit
mmcStart
chThdSleep
mmcConnect
f_mount
mmcDisconnect
SPID3
