ARM GAS  /tmp/ccJlXFA4.s 			page 1


   1              		.syntax unified
   2              		.cpu cortex-m4
   3              		.eabi_attribute 27, 3
   4              		.eabi_attribute 28, 1
   5              		.fpu fpv4-sp-d16
   6              		.eabi_attribute 20, 1
   7              		.eabi_attribute 21, 1
   8              		.eabi_attribute 23, 3
   9              		.eabi_attribute 24, 1
  10              		.eabi_attribute 25, 1
  11              		.eabi_attribute 26, 1
  12              		.eabi_attribute 30, 2
  13              		.eabi_attribute 34, 1
  14              		.eabi_attribute 18, 4
  15              		.thumb
  16              		.file	"sdmmcsimple.c"
  17              		.section	.gnu.lto_.jmpfuncs.71e8eb8abaae1e75,"",%progbits
  18 0000 789C7590 		.ascii	"x\234u\220\261J\304@\020\206g\262j\274\234z\247V\242"
  18      B14AC440 
  18      108667B2 
  18      6ABC9C7A 
  18      A756A2
  19 0013 2C8B6027 		.ascii	",\213`'\234X\211\225\220\334uQH\032\005\233\303D\011"
  19      9C588995 
  19      90DC7551 
  19      481A059B 
  19      C34409
  20 0026 985D89F1 		.ascii	"\230]\211\361@lb\347\013\010\327\370\036>\204\205o\340"
  20      406C62E7 
  20      0B08D7F8 
  20      1E3E8485 
  20      6FE0
  21 0038 7B5839C9 		.ascii	"{X9\311n\216D\317mfv\276\177f\377Y\013,\230w\236\021"
  21      6E8E44CF 
  21      6D6676BE 
  21      7F66FF59 
  21      0B2C9877 
  22 004e E08BA20D 		.ascii	"\340\213\242\015\2142\306(\235P\004\300I\211\251\311"
  22      8C32C628 
  22      9D5004C0 
  22      4989A9C9 
  23 005e 3AC704CB 		.ascii	":\307\004\313\034\351\306\354\262\362\004\337\305\264"
  23      1CE9C6EC 
  23      B2F204DF 
  23      C5B4
  24 006c E827881C 		.ascii	"\350'\210\034\360\255\230\236$\250\247\267 \343\260"
  24      F0AD989E 
  24      24A8A7B7 
  24      20E3B0
  25 007b ADE102E8 		.ascii	"\255\341\002\350\3766_\344p\244\371R\305Y\205^Jd\247"
  25      FE365FE4 
  25      70A4F952 
  25      C559855E 
  25      4A64A7
  26 008e A8E7CDC4 		.ascii	"\250\347\315\304\313\034.\264\270\243I\351\312\371\375"
  26      CB1C2EB4 
  26      B8A349E9 
ARM GAS  /tmp/ccJlXFA4.s 			page 2


  26      CAF9FD
  27 009d 24F9B96C 		.ascii	"$\371\271l\372aM\330\3450\321p\305,\337\352]\345\360"
  27      FA614DD8 
  27      E530D170 
  27      C52CDFEA 
  27      5DE5F0
  28 00b0 6A96599B 		.ascii	"j\226Y\233\353\267\307\341\335\010\372ZP\231X\377\354"
  28      EBB7C7E1 
  28      DD08FA5A 
  28      509958FF 
  28      EC
  29 00c1 FD157EB4 		.ascii	"\375\025~\264\2045\255v\333HQ\177\247\371\344\016:\330"
  29      8435AD76 
  29      DB48517F 
  29      A7F9E40E 
  29      3AD8
  30 00d3 45D80ABD 		.ascii	"E\330\012\275\201\357\273\307\247J\204\236p\307Y$F\352"
  30      81EFBBC7 
  30      A74A849E 
  30      70C75924 
  30      46EA
  31 00e5 41460EEC 		.ascii	"AF\016\354\0302Jnc\021>\336\347q*|ByLP\374\007\3050"
  31      18324A6E 
  31      63113EDE 
  31      E7712A7C 
  31      42794C50 
  32 00fd CB54E680 		.ascii	"\313T\346\2005\230\215\026\256\2222\276\312\023%\205"
  32      35988D16 
  32      AE9232BE 
  32      CA132585 
  33 010d A764EC00 		.ascii	"\247d\354\0007d\030\004gA\215\367\351\266wpH\303wk,"
  33      37641804 
  33      67418DF7 
  33      E9B67770 
  33      48C3776B 
  34 0122 23A1AE9B 		.ascii	"#\241\256\233\355\343\234\036\272\313\035\3304\222\232"
  34      EDE39C1E 
  34      BACB1DD8 
  34      34929A
  35 0131 C99B46AD 		.ascii	"\311\233F\255\261\304\017\017\025\213\023"
  35      B1C40F0F 
  35      158B13
  36              		.text
  37              		.section	.gnu.lto_.inline.71e8eb8abaae1e75,"",%progbits
  38 0000 789C8D90 		.ascii	"x\234\215\2201\016\3020\014E\277\035\267\201\026P%V"
  38      310EC230 
  38      0C45BF1D 
  38      B7811650 
  38      2556
  39 0012 24D8B801 		.ascii	"$\330\270\0013'\350\214\230\330(\367\250\020\003\022"
  39      3327E88C 
  39      98D828F7 
  39      A8100312 
  40 0022 3D021762 		.ascii	"=\002\027b\344\016\034\203\304\241iA \221Hvb\375\377"
  40      E40E1C83 
  40      C4A16941 
  40      20914876 
ARM GAS  /tmp/ccJlXFA4.s 			page 3


  40      62FDFF
  41 0035 6C99C1F8 		.ascii	"l\231\301\370v.\024\262\205\3443\250(\275\316\243\226"
  41      762E14B2 
  41      85E433A8 
  41      28BDCEA3 
  41      96
  42 0046 904C00D3 		.ascii	"\220L\000\323\224\376\232\221\012\010\003K\340\254)"
  42      94FE9A91 
  42      0A08034B 
  42      E0AC29
  43 0055 A3946198 		.ascii	"\243\224a\230\336\314\0067\234\311\325V\365\235Q\034"
  43      DECC0637 
  43      9CC9D556 
  43      F59D511C 
  44 0065 B7A1EA09 		.ascii	"\267\241\352\011\316\327f\316\035\356\005v_\355\325"
  44      CED766CE 
  44      1DEE0576 
  44      5FEDD5
  45 0074 93C9587B 		.ascii	"\223\311X{\243S\370\3343\250\377\027u\010\233\222\240"
  45      A353F8DC 
  45      33A8FF17 
  45      75089B92 
  45      A0
  46 0085 DAD081A6 		.ascii	"\332\320\201\246\016\264\303\276{R\214H\333\261\351"
  46      0EB4C3BE 
  46      7B528C48 
  46      DBB1E9
  47 0094 610B4672 		.ascii	"a\013FrZ\026\240\332.\204C\362\203g\037\254\252cUJ\011"
  47      5A16A0DA 
  47      2E8443F2 
  47      83671FAC 
  47      AA63554A 
  48 00a9 71FD0F2B 		.ascii	"q\375\017+\207\030\267\031uIO/!\352\336\237\036\013"
  48      8718B719 
  48      75494F2F 
  48      21EADE9F 
  48      1E0B
  49 00bb 29FA     		.ascii	")\372"
  50              		.text
  51              		.section	.gnu.lto_.pureconst.71e8eb8abaae1e75,"",%progbits
  52 0000 789C6362 		.ascii	"x\234cb`b\340g\200\000v\006\011F)&\006f)NV.VnV\000\006"
  52      6062E067 
  52      80007606 
  52      09462926 
  52      0666294E 
  53 001b 2A009A   		.ascii	"*\000\232"
  54              		.text
  55              		.section	.gnu.lto_chprintf.71e8eb8abaae1e75,"",%progbits
  56 0000 789C8550 		.ascii	"x\234\205P\315J\002Q\024>\337\0355uc\333v\342\0034\213"
  56      CD4A0251 
  56      143EDF1D 
  56      357563DB 
  56      76E20334 
  57 0015 22E80D7A 		.ascii	"\"\350\015z\000\203Z\3058\216z\011\035\321Q\260\026"
  57      00835AC5 
  57      388E7A09 
  57      1DD151B0 
ARM GAS  /tmp/ccJlXFA4.s 			page 4


  57      16
  58 0026 5EC1C245 		.ascii	"^\301\302E\013ig\021)\321:\244\027\030\202\332DI\273"
  58      0B696711 
  58      29D13AA4 
  58      171882DA 
  58      4449BB
  59 0039 162D2497 		.ascii	"\026-$\227\265h\321*\202\351\336\031\024\372\201\016"
  59      B568D12A 
  59      82E9DE19 
  59      14FA810E 
  60 0049 DC7B7EBE 		.ascii	"\334{~\276s\276\363\303\210\321OY\220o\010\2425\251"
  60      73BEF3C3 
  60      88D14F59 
  60      906F08A2 
  60      35A9
  61 005b A11158F7 		.ascii	"\241\021X\367\236\250\025e\2002\010\324dhnB\245\262"
  61      9EA81565 
  61      803208D4 
  61      64686E42 
  61      A5B2
  62 006d 140D84DB 		.ascii	"\024\015\204\333\035_O\036\321\023n\273/>=\017\340\220"
  62      1D5F4F1E 
  62      D1136EBB 
  62      2F3E3D0F 
  62      E090
  63 007f B42B2013 		.ascii	"\264+ \023\264!\035$}\305B\337\373\250Z\321uOon!\016"
  63      B4211D24 
  63      7DC542DF 
  63      FBA85AD1 
  63      754F6F6E 
  64 0095 45EBCDF3 		.ascii	"E\353\315\363\022\034\032\243\325\377\012/\230\373\354"
  64      121C1AA3 
  64      D5FF0A2F 
  64      98FBEC
  65 00a4 794FC3F7 		.ascii	"yO\303\367\203W\364XLC\021\024\222\037\"d\340\014)\225"
  65      8357F458 
  65      4C431114 
  65      921F2264 
  65      E00C2995 
  66 00b8 13A6B624 		.ascii	"\023\246\266$O\032\030H\177\0325\375\241\323\362W\233"
  66      4F1A1848 
  66      7F1A35FD 
  66      A1D3F257 
  66      9B
  67 00c9 AC8329AD 		.ascii	"\254\203)\255\215ho\3343\015\234#,\321]\372\020\035"
  67      8D686FDC 
  67      330D9C23 
  67      2CD15DFA 
  67      101D
  68 00db 31CF1132 		.ascii	"1\317\0212\341\247\313\310\016Gx\312\344g\251\2514\""
  68      E1A7CBC8 
  68      0E4778CA 
  68      E467A9A9 
  68      3422
  69 00ed 2E3BD288 		.ascii	".;\322\210\366\307G\223x\200\344\021\231\021\314\231"
  69      F6C74793 
  69      7880E411 
ARM GAS  /tmp/ccJlXFA4.s 			page 5


  69      9911CC99 
  70 00fd 088E9B87 		.ascii	"\010\216\233\207\226G( \340\210\252\222\366\370\370"
  70      96472820 
  70      E088AA92 
  70      F6F8F8
  71 010c 77C798A9 		.ascii	"w\307\230\251H\377\356\310\021'\272\243\253\027\026"
  71      48FFEEC8 
  71      1127BAA3 
  71      AB1716
  72 011b 04027099 		.ascii	"\004\002p\231.EG\235[\312\003\265\372'\332l\214\340"
  72      2E45479D 
  72      5BCA03B5 
  72      FA27DA6C 
  72      8CE0
  73 012d 5469B983 		.ascii	"Ti\271\203\334Q\315\261\244\027\354\242\245\233v\266"
  73      DC51CDB1 
  73      A417ECA2 
  73      A59B76B6 
  74 013d A167ADBA 		.ascii	"\241g\255\272n\026x\206\333U\335\251\324J\333\2724\352"
  74      6E167886 
  74      DB55DDA9 
  74      D44ADBBA 
  74      34EA
  75 014f 4685DBB5 		.ascii	"F\205\333\265\252\004\312\025^rr\213\005bF9\221\263"
  75      AA04CA15 
  75      5E72728B 
  75      05624639 
  75      91B3
  76 0161 2B45C371 		.ascii	"+E\303q\254\354V\246\341X\325/\251H\201#"
  76      ACEC56A6 
  76      E158D52F 
  76      A9488123 
  77              		.text
  78              		.section	.gnu.lto_sd_is_card_inserted.71e8eb8abaae1e75,"",%progbits
  79 0000 789C5D50 		.ascii	"x\234]P\273JCA\020=gf\257\212\004\343\007\210\330\013"
  79      BB4A4341 
  79      103D6766 
  79      AF8A04E3 
  79      0788D80B 
  80 0014 06FC9604 		.ascii	"\006\374\226\004\264\324(\341\202\027\204|@6\030\301"
  80      B4D428E1 
  80      8217847C 
  80      403618C1 
  81 0024 32655011 		.ascii	"2eP\021\004+\213\344\003\264\020\261\260\211 \244I\260"
  81      042B8BE4 
  81      03B410B1 
  81      B08920A4 
  81      49B0
  82 0036 B0F333E2 		.ascii	"\260\3633\342\314^\022\304\205=3\3149\363\024\010\376"
  82      CC5E12C4 
  82      853D33CC 
  82      39F31408 
  82      FE
  83 0047 BF7DFB5B 		.ascii	"\277}\373[\0046\3152\003\245\377\001t\327D\302\3636"
  83      0436CD32 
  83      03A5FF01 
  83      74D744C2 
ARM GAS  /tmp/ccJlXFA4.s 			page 6


  83      F336
  84 0059 E2BA4E6A 		.ascii	"\342\272Nj\210\025e(\303\201t\007DG4\260s\310Td$/\337"
  84      88156528 
  84      C3817407 
  84      444734B0 
  84      73C85464 
  85 0070 F3F9F0EB 		.ascii	"\363\371\360\353r\266\272B\344\204\03208d\016&\311\320"
  85      72B6BA42 
  85      E4841A30 
  85      38640E26 
  85      C9D0
  86 0082 8BB1BF03 		.ascii	"\213\261\277\0034SJ\335\320+5(nu\214\327\331\340\256"
  86      34534ADD 
  86      D02B3528 
  86      6E758CD7 
  86      D9E0AE
  87 0095 72C47BCB 		.ascii	"r\304{\313hQw\361\030{\314)7\2706\243\007\006!\016\256"
  87      685177F1 
  87      187BCC29 
  87      37B836A3 
  87      0706210E 
  88 00aa 62407253 		.ascii	"b@rS\333c.\266\030\343b\250\213\344\320*\365\231\224"
  88      DB632EB6 
  88      18E362A8 
  88      8BE4D02A 
  88      F59994
  89 00bd CCD392C9 		.ascii	"\314\323\222\311\214t&M\364\216\267\237nuI\245\370\337"
  89      8C74264D 
  89      F48EB79F 
  89      6E7549A5 
  89      F8DF
  90 00cf CBD4A998 		.ascii	"\313\324\251\230\324\264a\315|\302O[\037&L\232)\350"
  90      D4B461CD 
  90      7CC24F5B 
  90      1F264C9A 
  90      29E8
  91 00e1 7ABB83DC 		.ascii	"z\273\203\334\216J\027\320\207\252g\321\345\336z\243"
  91      8E4A17D0 
  91      87AA67D1 
  91      E5DE7AA3 
  92 00f1 7D5214CD 		.ascii	"}R\024\315v^\234\237\235\3565\361\013\334xD\374"
  92      765E9C9F 
  92      9DEE35F1 
  92      0BDC7844 
  92      FC
  93              		.text
  94              		.section	.gnu.lto_sd_is_write_protected.71e8eb8abaae1e75,"",%progbits
  95 0000 789C6362 		.ascii	"x\234cb`b@\007\222@\034\015\304\002@\314\310\314\300"
  95      60624007 
  95      92401C0D 
  95      C40240CC 
  95      C8CCC0
  96 0013 C834E11C 		.ascii	"\3104\341\034\003C#\007\023##\210\301\300\310P\317\304"
  96      03432307 
  96      13232388 
  96      C1C0C850 
  96      CFC4
ARM GAS  /tmp/ccJlXFA4.s 			page 7


  97 0025 581FC908 		.ascii	"X\037\311\010V\273\236\351\300\203\377\377\327M9\266"
  97      56BB9EE9 
  97      C083FFFF 
  97      D74D39B6 
  98 0035 A08F9111 		.ascii	"\240\217\221\021d\024+CKC\303\004\005\006\206d\260\202"
  98      64142B43 
  98      4B43C304 
  98      05068664 
  98      B082
  99 0047 102009D2 		.ascii	"\020 \011\322\025\012\224\004\322\314\027\031\032\037"
  99      150A9404 
  99      D2CC1719 
  99      1A1F
 100 0055 F42C664C 		.ascii	"\364,fLd\\\310\310\312\020\301\230\311\010\2675\204"
 100      645CC8C8 
 100      CA10C198 
 100      C908B735 
 100      84
 101 0066 9111A402 		.ascii	"\221\021\244\002d\006_qJnnrqfnAN\252^2\003\000\035\274"
 101      64065F71 
 101      4A6E6E72 
 101      71666E41 
 101      4EAA5E32 
 102 007e 1EE8     		.ascii	"\036\350"
 103              		.text
 104              		.section	.gnu.lto_sdmmcInitialize.71e8eb8abaae1e75,"",%progbits
 105 0000 789CAD56 		.ascii	"x\234\255V_lSU\030\377\276{\333\333\366v\254L\030c\214"
 105      5F6C5355 
 105      18FFBE7B 
 105      DBDBF676 
 105      AC4C1863 
 106 0015 5DAF7373 		.ascii	"]\257ss\260\261\255\233O\250\250\011\177\336P\031,\321"
 106      B0B1AD9B 
 106      4FA8A809 
 106      7FDE5019 
 106      2CD1
 107 0027 071F6A57 		.ascii	"\007\037jW\227&k\213m1!>p\307\012\214\007\260A\037\252"
 107      97266B8B 
 107      6D31213E 
 107      70C70A8C 
 107      07B0411F 
 108 003c 8281A821 		.ascii	"\202\201\250!1QL\344\241\262\030\313\237\204!Q\330\203"
 108      31514CE4 
 108      A1B218CB 
 108      9F842151 
 108      D883
 109 004e C9B668EC 		.ascii	"\311\266h\354\033\006\014\341O\202K\207\314\357\334"
 109      1B060CE1 
 109      4F824B87 
 109      CCEFDC
 110 005d 73EEED9F 		.ascii	"s\356\355\237U\330\303\232\364\234{\276s~\337\367\373"
 110      55D8C39A 
 110      F49C7BBE 
 110      737EDFF7 
 110      FB
 111 006e 7EE77CF7 		.ascii	"~\347|\367\\\011$\250\374\035\246\177\336\013\340B\000"
 111      5C0924A8 
ARM GAS  /tmp/ccJlXFA4.s 			page 8


 111      FC1DA67F 
 111      DE0BE042 
 111      00
 112 007f AC0194D2 		.ascii	"\254\001\224\322\277\002\214\270%\3111\326\016\206*"
 112      BF028CB8 
 112      25C931D6 
 112      0E862A
 113 008e B3B64646 		.ascii	"\263\266FF\0077;$\247q\025\310\256\246e\262;%\345\262"
 113      07373B24 
 113      A77115C8 
 113      AEA665B2 
 113      3B25E5B2 
 114 00a2 8F46AE2B 		.ascii	"\217F\256+/\323HA/_\345\222\334lZ\365\230kk\334\226"
 114      2FD34841 
 114      2F5FE592 
 114      DC6C5AF5 
 114      986B6BDC 
 115 00b7 DD633DA8 		.ascii	"\335c=\250\326\203\027\221=\000\302>Iv8\025\227\333"
 115      D6831791 
 115      3D00C23E 
 115      49763815 
 115      97DB
 116 00c9 A37A71DF 		.ascii	"\243zq\337[\310\250\311-p\3120\216\345\017\334\273\203"
 116      5BC8A8C9 
 116      2D70CA30 
 116      8EE50FDC 
 116      BB83
 117 00db 9F7C9C4B 		.ascii	"\237|\234K\2354\036\316\317#\206\221\322\250C\010\""
 117      9D341ECE 
 117      CF238691 
 117      D2A84308 
 117      22
 118 00ec BC4903D4 		.ascii	"\274I\003\324\315Nr\224\347eb\323\271?\017\036m0\362"
 118      CD4E7294 
 118      E76562D3 
 118      B93F0F1E 
 118      6D30F2
 119 00ff 46DA7844 		.ascii	"F\332xD\3200\312\022hE\244\233#\261\012\362X\356\356"
 119      D030CA12 
 119      6845A49B 
 119      23B10AF2 
 119      58EEEE
 120 0112 C10F4B91 		.ascii	"\301\017K\221\016\011\332\236\204<#\345\362\363\363"
 120      0E09DA9E 
 120      843C23E5 
 120      F2F3F3
 121 0121 BF7F9FBA 		.ascii	"\277\177\237\272\260\356y\004\212\346\300\010\202B\015"
 121      B0EE7904 
 121      8AE6C008 
 121      82420D
 122 0130 BAA8916A 		.ascii	"\272\250\221j\311\346\254\203\000\236\302\026\250\027"
 122      C9E6AC83 
 122      009EC216 
 122      A817
 123 013e 7D033336 		.ascii	"}\00336R\243\254!\313\027di\0223\315\242\327h\322\245"
 123      52A3AC21 
 123      CB176469 
ARM GAS  /tmp/ccJlXFA4.s 			page 9


 123      1233CDA2 
 123      D768D2A5 
 124 0152 8B412BF5 		.ascii	"\213A+\365_Q\337&\306\355\014\336!\006]\242\357!\243"
 124      5F51DF26 
 124      C6ED0CDE 
 124      21065DA2 
 124      EF21A3
 125 0165 DBCF9A5E 		.ascii	"\333\317\232^\326\3641\357\304\317\011)\322D\347Q\270"
 125      D6F431EF 
 125      C4CF0929 
 125      D244E751 
 125      B8
 126 0176 1B6029D1 		.ascii	"\033`)\321o\027\265l'\006Pb\275\374\013\354\277:u#'"
 126      6F17B56C 
 126      27065062 
 126      BDFC0BEC 
 126      BF3A7523 
 127 018b 05F0343A 		.ascii	"\005\3604:\3413\370t\3040\226\223\362\037@\301\030c"
 127      E133F874 
 127      C4309693 
 127      F21F40C1 
 127      1863
 128 019d 4F9E08CA 		.ascii	"O\236\010\312\204c2x\314\344\207\220v\200\30127\357"
 128      84633278 
 128      CCE48790 
 128      7680C132 
 128      37EF
 129 01af 208775C2 		.ascii	" \207u\302\327\006\375|\304\220<\320Ju\010\025\206\360"
 129      D706FD7C 
 129      C4903CD0 
 129      4A750815 
 129      86F0
 130 01c1 9A887784 		.ascii	"\232\210w\204|C\3502\221\205\321\323G\264JdMu$\207r"
 130      7C43E832 
 130      9185D1D3 
 130      47B44A64 
 130      4D752487 
 131 01d6 36C60E5A 		.ascii	"6\306\016Z\026A~\000\310Ov\352\346\204T\351gYu?\274"
 131      16417E00 
 131      C84F76EA 
 131      E68454E9 
 131      6759753F 
 132 01eb 20986599 		.ascii	" \230e\231\205\236\255\202V\252\243e\033\255\010\364"
 132      859EAD82 
 132      56AAA365 
 132      1BAD08F4 
 133 01fb D5ECAD1C 		.ascii	"\325\354\255\034V\210\346\265E\253\215\220\235\003j"
 133      5688E6B5 
 133      45AB8D90 
 133      9D036A
 134 020a 45EA04BC 		.ascii	"E\352\004\274\006\251\374\271\213*GAQb_P\244I\002\205"
 134      06A9FCB9 
 134      8B2A4741 
 134      51625F50 
 134      A4490285 
 135 021e 71B9E97F 		.ascii	"q\271\351\177f\366\366_\302\377\020\326vB\007\327\226"
 135      66F6F65F 
ARM GAS  /tmp/ccJlXFA4.s 			page 10


 135      C2FF10D6 
 135      764207D7 
 135      96
 136 022f 023115AA 		.ascii	"\0021\025\252\353\313\"\034\3105/\360_\027\024\351\223"
 136      EBCB221C 
 136      C8352FF0 
 136      5F1714E9 
 136      93
 137 0240 27A1E47B 		.ascii	"'\241\344{a|*\202\212X\032\306\025,\350\205\231\314"
 137      617C2A82 
 137      8A581AC6 
 137      152CE885 
 137      99CC
 138 0252 E735E2EC 		.ascii	"\3475\342\354X\207\310\230;\362\"\000_\027\344:\014"
 138      5887C898 
 138      3BF22200 
 138      5F17E43A 
 138      0C
 139 0263 610F132C 		.ascii	"a\017\023,5\222\273\033\010\343J\306*\315\302\3243F"
 139      3592BB1B 
 139      08E34AC6 
 139      2ACDC2D4 
 139      3346
 140 0275 AB8CCC98 		.ascii	"\253\214\314\230\34103_%\3109\030~\334\244DAF\277\225"
 140      E130335F 
 140      25C83918 
 140      7EDCA444 
 140      4146BF95 
 141 0289 0378CE4C 		.ascii	"\003x\316L\313O\236\330B\227\304g\306\355\231^\232d"
 141      CB4F9ED8 
 141      4297C467 
 141      C6ED995E 
 141      9A64
 142 029b 336E96D9 		.ascii	"3n\226\331\004\\\2721\342\263\247L{i5\356\"Zc\355\362"
 142      045CBA31 
 142      E2B3A74C 
 142      7B6935EE 
 142      225A63ED 
 143 02b0 00056227 		.ascii	"\000\005b'z\002R\177\237\177\250X\332\365\331\273\306"
 143      7A02527F 
 143      9F7FA858 
 143      DAF5D9BB 
 143      C6
 144 02c1 7FD3C02D 		.ascii	"\177\323\300-\364r9~\006\305\244\374\245\217\225\204"
 144      F472397E 
 144      06C5A4FC 
 144      A58F9584 
 145 02d1 13E845C6 		.ascii	"\023\350E\306J\342J\346\336\035[\375\272\305T\005\323"
 145      4AE24AE6 
 145      DE1D5BFD 
 145      BAC55405 
 145      D3
 146 02e2 DEB940F9 		.ascii	"\336\271@\371\206\2408\255\344\205\0313\2061M\220\325"
 146      86A038AD 
 146      E4851933 
 146      86314D90 
 146      D5
ARM GAS  /tmp/ccJlXFA4.s 			page 11


 147 02f3 1AAC3F61 		.ascii	"\032\254?ad^\015c#\330[\260\306\334\202l\366\236\277"
 147      645E0D63 
 147      23D85BB0 
 147      C6DC826C 
 147      F69EBF
 148 0306 782853B4 		.ascii	"x(S\264\270\311zXk=4\363C*\3646*\365v\212^\021\275\313"
 148      B8C97A58 
 148      6B3D34F3 
 148      432AF436 
 148      2AF5768A 
 149 031e 3EBC9A61 		.ascii	">\274\232aH&\323\324\311\237\345\005d\237\016\012\250"
 149      4826D3D4 
 149      C99FE505 
 149      649F0E0A 
 149      A8
 150 032f A9F0751F 		.ascii	"\251\360u\037q\322\315\263xe\266D\215\372%Q\243\276"
 150      71D2CDB3 
 150      7865B644 
 150      8DFA2551 
 150      A3BE
 151 0341 5C8D4DD5 		.ascii	"\\\215M\325\325\330?\223\271?![\221\033\312\252`\357"
 151      D5D83F93 
 151      B93F215B 
 151      911BCAAA 
 151      60EF
 152 0353 E3AA2095 		.ascii	"\343\252 \225\333h\241\032\355\360\317\004\205$\344"
 152      DB68A11A 
 152      EDF0CF04 
 152      8524E4
 153 0362 2ACC5E89 		.ascii	"*\314^\211\024\340\326\350\373\326\3025\264\226\247"
 153      14E0D6E8 
 153      FBD6C235 
 153      B496A7
 154 0371 9BBD5F4C 		.ascii	"\233\275_L\267iI\322m*I\367Y\015v\360t[\313\322e\307"
 154      B76949D2 
 154      6D2A49F7 
 154      590D76F0 
 154      745BCBD2 
 155 0387 FCFC8943 		.ascii	"\374\374\211C\222\315\207\371o+\275y\006\210\377?\265"
 155      92CD87F9 
 155      6F2BBD79 
 155      0688FF3F 
 155      B5
 156 0398 FC7C3E28 		.ascii	"\374|>(Rl^\034E\202\335\266\265\324\314d\257\201\362"
 156      526C5E1C 
 156      4582DDB6 
 156      B5D4CC64 
 156      AF81F2
 157 03ab 38D6CD25 		.ascii	"8\326\315%\254\237\323 \311Y\267[\254\311\213I\234S"
 157      AC9FD320 
 157      C959B75B 
 157      ACC98B49 
 157      9C53
 158 03bd 73C1E197 		.ascii	"s\301\341\227Lj\263\017\256\333\324\364%QO\027<&\011"
 158      4C6AB30F 
 158      AEDBD4F4 
 158      25514F17 
ARM GAS  /tmp/ccJlXFA4.s 			page 12


 158      3C2609
 159 03d0 B24E838F 		.ascii	"\262N\203\217\220\023Y_yZ\012\243\367\217\226\337+\236"
 159      9013595F 
 159      795A0AA3 
 159      F78F96DF 
 159      2B9E
 160 03e2 27DC07C5 		.ascii	"'\334\007\305{eYD\324\31158\230\377\343\242\235A\253"
 160      7B655944 
 160      D4C93538 
 160      98FFE3A2 
 160      9D41AB
 161 03f5 4DA82328 		.ascii	"M\250#(VpK\356\207C+m\030'\230\033\277L\212tj\360\215"
 161      56704BEE 
 161      87432B6D 
 161      1827981B 
 161      BF4C8A74 
 162 040c 60B8C162 		.ascii	"`\270\301b\310\"w1\242\335l\237\351\375\364cq\237[\331"
 162      C8227731 
 162      A2DD6C9F 
 162      E9FDF463 
 162      719F5BD9 
 163 0420 64D947CD 		.ascii	"d\331G\315\000\275\337\316J|\237\013\305}n[\0221\333"
 163      00BDDFCE 
 163      4A7C9F0B 
 163      C57D6E5B 
 163      1231DB
 164 0433 4A36B547 		.ascii	"J6\265G\203\357\004U\377\202\322\313\026\246l\216\355"
 164      83EF0455 
 164      FF82D2CB 
 164      16A66C8E 
 164      ED
 165 0444 65A5F7F6 		.ascii	"e\245\367\366\343K\257sAx\252<\267\010\337nU^v\252p"
 165      E34BAF73 
 165      4178AA3C 
 165      B708DF6E 
 165      555E76AA 
 166 0459 BDFCFAED 		.ascii	"\275\374\372\355]\354\345\3155\362\300o\033M\215\246"
 166      5DECE5CD 
 166      35F2C06F 
 166      1B4D8DA6 
 167 0469 E68A1A75 		.ascii	"\346\212\032u,\211F\035%\032\365j0)4\352\253\324(;;"
 167      2C89461D 
 167      251AF56A 
 167      302934EA 
 167      ABD4283B 
 168 047e 57F109E4 		.ascii	"W\361\011\344Y\314'\004\3329\250\220\226y\321<*\346"
 168      59CC2704 
 168      DA39A890 
 168      9679D13C 
 168      2AE6
 169 0490 D0B52439 		.ascii	"\320\265$9t\225\344@Es\273j\321p\026^\363\336\234\244"
 169      7495E440 
 169      4573BB6A 
 169      D170165E 
 169      F3DE9CA4 
 170 04a4 CF740634 		.ascii	"\317t\0064\331M\003\322\033H9>\276\232\205\224\351\323"
 170      D94D03D2 
ARM GAS  /tmp/ccJlXFA4.s 			page 13


 170      1B48393E 
 170      BE9A8594 
 170      E9D3
 171 04b6 98FF709F 		.ascii	"\230\377p\237\373\354&\323\364o\321\244^z\3054\001x"
 171      FBEC26D3 
 171      F46FD1A4 
 171      5E7AC534 
 171      0178
 172 04c8 1EFEB492 		.ascii	"\036\376\264\222]\310\310<\262]\253M\014F\"\301D8\262"
 172      5DC8C83C 
 172      B25DAB4D 
 172      0C4622C1 
 172      4438B2
 173 04db 7B38D41D 		.ascii	"{8\324\035\204\232D(\036\016\014\277\021\213'\273\375"
 173      849A4428 
 173      1E0E0CBF 
 173      118B27BB 
 173      FD
 174 04ec 4A221948 		.ascii	"J\"\031H\356I\310\241x|\305\316-=\333\267o~as >\250"
 174      EE49C8A1 
 174      787CC5CE 
 174      2D3DDBB7 
 174      6F7E6173 
 175 0503 6F8BED89 		.ascii	"o\213\355\211\016\252`\333b\321h(\230\014G\207Th\021"
 175      0EAA60DB 
 175      62D16828 
 175      980C4787 
 175      546811
 176 0516 B6ADD141 		.ascii	"\266\255\321A=\366\256nM\305\242z \231\014Ev'U\320\254"
 176      3DF6AE6E 
 176      4DC5A27A 
 176      20990C45 
 176      762755D0 
 177 052b 25FDFDAF 		.ascii	"%\375\375\257\367[+6\320\250\315\337G^\033\305t)vK,"
 177      F75B2B36 
 177      D0A8CDDF 
 177      475E1BC5 
 177      7429764B 
 178 0540 1A5241EA 		.ascii	"\032RA\352\001]Ln\013\017\207\364\235{\023\344R\337"
 178      015D4C6E 
 178      0B0F87F4 
 178      9D7B13E4 
 178      52DF
 179 0552 4E6C92FA 		.ascii	"Nl\222\372\326x<\026Wa\355\377-\010\225\270~-F~\364"
 179      D6783C16 
 179      5761EDFF 
 179      2D0895B8 
 179      7E2D467E 
 180 0567 D254FE03 		.ascii	"\322T\376\003\270\346,\371"
 180      B8E62CF9 
 181              		.text
 182              		.section	.gnu.lto_sdmmGetMMCDriver.71e8eb8abaae1e75,"",%progbits
 183 0000 789C6D50 		.ascii	"x\234mP\273JCA\020=gv\257\021\221\250`\223.\245\030"
 183      BB4A4341 
 183      103D6776 
 183      AF1191A8 
 183      60932EA5 
ARM GAS  /tmp/ccJlXFA4.s 			page 14


 184 0015 4863E18F 		.ascii	"Hc\341\217$`J\275\221p!\027\002\371\200l$\037\220\332"
 184      24604ABD 
 184      91702117 
 184      02F9806C 
 184      241F90DA 
 185 0029 586813C4 		.ascii	"Xh\023\304B--RX\205\020\210\020\322\030+K\013\377!\231"
 185      422D2D52 
 185      58851088 
 185      10D2182B 
 185      4B0BFF21 
 186 003e 5DB9A2E2 		.ascii	"]\271\242\342\300\356\314\354\236s\346!\020\374\265"
 186      C0EECCEC 
 186      9E73E621 
 186      10FCB5
 187 004d 233D0502 		.ascii	"#=\005\002\273\352\031\201\322\177\001\272\233\"\346"
 187      BBEA1981 
 187      D27F01BA 
 187      9B22E6
 188 005c 760CB82D 		.ascii	"v\014\270-\373\221\203\3336\264_\357\226\364\001\210"
 188      FB9183DB 
 188      36B45FEF 
 188      96F40188 
 189 006c 8E18CB4E 		.ascii	"\216\030\313N\215A\345A\236\337W\253\373\307\351\365"
 189      8D41E541 
 189      9EDF57AB 
 189      FBC7E9F5 
 190 007c 15658348 		.ascii	"\025e\203H\010\303\224\260\032\251j\022P\021z\316\365"
 190      08C394B0 
 190      1AA96A12 
 190      50117ACE 
 190      F5
 191 008d 8B401CD2 		.ascii	"\213@\034\322\212\336^\253J\361\336\314p\361\3664\234"
 191      8ADE5EAB 
 191      4AF1DECC 
 191      70F1F634 
 191      9C
 192 009e F394374A 		.ascii	"\363\2247Ji\320\226p\250\354\001.\231P\0324'\352M(w"
 192      69D09670 
 192      A8EC012E 
 192      99501A34 
 192      27EA4D28 
 193 00b3 C6ACFD09 		.ascii	"\306\254\375\011z\237\335\235o\212\207\360\347xUe\350"
 193      7A9FDD9D 
 193      6F8A87F0 
 193      E7785565 
 193      E8
 194 00c4 2041FC75 		.ascii	" A\374u\270\227\001\243\022\356\234\332\261v\366\177"
 194      B89701A3 
 194      12EE9CDA 
 194      B176F67F 
 195 00d4 01FE12B1 		.ascii	"\001\376\022\261\241\303\271.\000\312\016\177KPu\314"
 195      A1C3B92E 
 195      00CA0E7F 
 195      4B5075CC 
 196 00e4 8127692A 		.ascii	"\201'i*\243\305\276\237\211\036\351\327\234o\327\323"
 196      A3C5BE9F 
 196      891EE9D7 
ARM GAS  /tmp/ccJlXFA4.s 			page 15


 196      9C6FD7D3 
 197 00f4 346E2769 		.ascii	"4n'i\253y^\216\261\006G\012D\273"
 197      AB795E8E 
 197      B106470A 
 197      44BB
 198              		.text
 199              		.section	.gnu.lto_sdmmcGetFS.71e8eb8abaae1e75,"",%progbits
 200 0000 789C6D50 		.ascii	"x\234mP\315J\202A\024=\347\316|\032\021\232\320\306"
 200      CD4A8241 
 200      143DE7CE 
 200      7C1A119A 
 200      D0C6
 201 0012 9DCB4868 		.ascii	"\235\313Hh\343\242\027I\250\245}\206|\340\007\202\017"
 201      E3A21749 
 201      A8A57D86 
 201      7CE00782 
 201      0F
 202 0023 E0183E80 		.ascii	"\340\030>\200\353\332\324.\022l\353\322\225\204\220"
 202      EBDAD42E 
 202      126CEBD2 
 202      958490
 203 0032 E022B056 		.ascii	"\340\"\260V-]\364\010\201\335\031Q2\2720s\357\2359\347"
 203      2D5DF408 
 203      81DD1951 
 203      32BA3073 
 203      EF9D39E7 
 204 0046 DC1F81E0 		.ascii	"\334\037\201\340\257U\364\024\011\034\252g\004J\177"
 204      AF55F414 
 204      091CAA67 
 204      044A7F
 205 0055 0674F744 		.ascii	"\006t\367D\314\343\004p\373v\231\205;0\264\353wK\372"
 205      CCE30470 
 205      FB769985 
 205      3B30B4EB 
 205      774BFA
 206 0068 0044478C 		.ascii	"\000DG\214e\347\222A\345Y\306\237\253\325p1\275\037"
 206      65E79241 
 206      E559C69F 
 206      ABD57031 
 206      BD1F
 207 007a 51324442 		.ascii	"Q2DB\030\246\204\325HU\223\200\212\320s\256_\002\342"
 207      18A684D5 
 207      48559380 
 207      8AD073AE 
 207      5F02E2
 208 008d 909EEBED 		.ascii	"\220\236\353\355\265\252\024\357\315+n>F\2039k|PJ\203"
 208      B5AA14EF 
 208      CD2B6E3E 
 208      4683396B 
 208      7C504A83 
 209 00a1 B68C1365 		.ascii	"\266\214\023e\337\341\226\011\245As\241\336\204rW\334"
 209      DFE19609 
 209      A54173A1 
 209      DE847257 
 209      DC
 210 00b2 B4FF82DE 		.ascii	"\264\377\202\336W7\277\245x\010\177\217WU\206\016\022"
 210      5737BFA5 
ARM GAS  /tmp/ccJlXFA4.s 			page 16


 210      78087F8F 
 210      5755860E 
 210      12
 211 00c3 C41783C2 		.ascii	"\304\027\203\302\006\030\225\361\344\324\316\264\263"
 211      061895F1 
 211      E4D4CEB4 
 211      B3
 212 00d0 FF0B7047 		.ascii	"\377\013pG\304\206\016\347\272\000(;\374\275\203\252"
 212      C4860EE7 
 212      BA00283B 
 212      FCBD83AA 
 213 00e0 638E3D49 		.ascii	"c\216=IS\371~;\3623\321#\375\232s\355z\232\306\355$"
 213      53F97E3B 
 213      F233D123 
 213      FD9A73ED 
 213      7A9AC6ED 
 214 00f5 6D35AF4F 		.ascii	"m5\257Oc\374\000\240\207EK"
 214      63FC00A0 
 214      87454B
 215              		.text
 216              		.section	.gnu.lto_sdmmcFSMounted.71e8eb8abaae1e75,"",%progbits
 217 0000 789C6362 		.ascii	"x\234cb`b@\007\222@<\003\210\005\200\230\221\231\201"
 217      60624007 
 217      92403C03 
 217      88058098 
 217      919981
 218 0013 9169C239 		.ascii	"\221i\3029\006\206F\016&FF\020\203\201\221\241\236\211"
 218      0686460E 
 218      26464610 
 218      838191A1 
 218      9E89
 219 0025 B13E9211 		.ascii	"\261>\222\021\254v=\323\201\007\377\377\257\233pz\301"
 219      AC763DD3 
 219      8107FFFF 
 219      AF9B707A 
 219      C1
 220 0036 29462616 		.ascii	")F&\026&\306\\F\006f\206L\260\034+CKC\303\004\005\006"
 220      26C65C46 
 220      0666864C 
 220      B01C2B43 
 220      4B43C304 
 221 004c 86643037 		.ascii	"\206d07\004H\202\364\20722\201h\346\263\014M\267vlR"
 221      044882F4 
 221      87323281 
 221      68E6B30C 
 221      4DB7766C 
 222 0061 4C645CC8 		.ascii	"Ld\\\310\310\312\220\316\310\254\315\260\252\001\010"
 222      C8CA90CE 
 222      C8ACCDB0 
 222      AA0108
 223 0070 AC819A67 		.ascii	"\254\201\232g3\314b\314ddLgd\212\000\322\020\007&1\302"
 223      33CC62CC 
 223      64644C67 
 223      648A00D2 
 223      10072631 
 224 0085 9C7791A1 		.ascii	"\234w\221\241\361\000\013\\\033D,\204\221\021d(H)_q"
 224      F1000B5C 
ARM GAS  /tmp/ccJlXFA4.s 			page 17


 224      1B442C84 
 224      91116428 
 224      48295F71 
 225 0099 4A6E6E72 		.ascii	"JnnrqfnAN\252^2\003\000\306o*t"
 225      71666E41 
 225      4EAA5E32 
 225      0300C66F 
 225      2A74
 226              		.text
 227              		.section	.gnu.lto_.symbol_nodes.71e8eb8abaae1e75,"",%progbits
 228 0000 789C4DCC 		.ascii	"x\234M\314KR\302@\024\205\341\323\247\023\360\011\370"
 228      4B52C240 
 228      1485E1D3 
 228      A713F009 
 228      F8
 229 0011 9C68951B 		.ascii	"\234h\225\033pS\256\344 Q\210 \017\203f\250\203\354"
 229      7053AEE4 
 229      20518820 
 229      0F8366A8 
 229      83EC
 230 0023 4432D62D 		.ascii	"D2\326-\250U\316\\\203\330\235Pvz\362\327\327\267\373"
 230      A855CE5C 
 230      83D89D50 
 230      767AF2D7 
 230      D7B7FB
 231 0036 12C48B41 		.ascii	"\022\304\213A}\2706\002\026o\2004M\2578\242\314\206"
 231      7DB83602 
 231      166F8034 
 231      4DAF38A2 
 231      CC86
 232 0048 CFA9614A 		.ascii	"\317\251aJ\261\301;\312\006\306\0032\222\215\247\264"
 232      B1C13BCA 
 232      06C60332 
 232      928DA7B4 
 233 0058 10E26B46 		.ascii	"\020\342kF^C\032\237\204p\341\230\212\032\013&T\334"
 233      5E431A9F 
 233      8470E198 
 233      8A1A0B26 
 233      54DC
 234 006a E03DD56A 		.ascii	"\340=\325j\354\273a\354\277\336\262\345br\252]\017\373"
 234      ECBB61EC 
 234      BFDEB2E5 
 234      6272AA5D 
 234      0FFB
 235 007c 7D639EA8 		.ascii	"}c\236\250\255\240Gj;hI\355\004e\324n\320\003\265\027"
 235      ADA0476A 
 235      3B6849ED 
 235      0465D46E 
 235      D003B517 
 236 0090 B4A0F683 		.ascii	"\264\240\366\203\346T'hFu\377e\321C\362\361\353\332"
 236      E6542768 
 236      4675FF65 
 236      D143F2F1 
 236      EBDA
 237 00a2 4551B583 		.ascii	"EQ\265\203\225\257=\305\352\323\367\004\311\360\347"
 237      95AF3DC5 
 237      EAD3F704 
ARM GAS  /tmp/ccJlXFA4.s 			page 18


 237      C9F0E7
 238 00b1 C25AE06B 		.ascii	"\302Z\340kT\272\036\243\030\227\265\253\036\241\230"
 238      54BA1EA3 
 238      1897B5AB 
 238      1EA198
 239 00c0 D41ECC36 		.ascii	"\324\036\3146}_\323\367u^\236[{\210$\363u\35737>@\261"
 239      7D5FD3F7 
 239      755E9E5B 
 239      7B8824F3 
 239      75EF3337 
 240 00d7 AC5FE5DF 		.ascii	"\254_\345\337g\325m~\211?\266kq\341"
 240      67D56D7E 
 240      893FB66B 
 240      71E1
 241              		.text
 242              		.section	.gnu.lto_.refs.71e8eb8abaae1e75,"",%progbits
 243 0000 789C6362 		.ascii	"x\234cb`bPg\200\000>fF\026&VF6&v\006\026\030d\342`\342"
 243      60625067 
 243      80003E66 
 243      46162656 
 243      46362676 
 244 001b 80B098D9 		.ascii	"\200\260\230\331\231X\231x\230x\031\000\022\357\000"
 244      99589978 
 244      98781900 
 244      12EF00
 245 002a BB       		.ascii	"\273"
 246              		.text
 247              		.section	.gnu.lto_.decls.71e8eb8abaae1e75,"",%progbits
 248 0000 789CBD7D 		.ascii	"x\234\275}\013t\024\305\232\177w\317+!\221\227\250\240"
 248      0B7414C5 
 248      9A7F77CF 
 248      2B219197 
 248      A8A0
 249 0012 28E3DE7B 		.ascii	"(\343\336{\367\270{V\303\353\252\367\356]\025\362\200"
 249      F7B87B56 
 249      C3EBAAF7 
 249      EE5D15F2 
 249      80
 250 0023 AC407292 		.ascii	"\254@r\222p\357\365\234=;6\311\004f\315\313\231\011"
 250      70EFF59C 
 250      3D3B36C9 
 250      0466CDCB 
 250      9909
 251 0035 E2EEFF9C 		.ascii	"\342\356\377\234\333\200\004\237\010\341\215\020\" "
 251      DB80049F 
 251      08E18D10 
 251      2220
 252 0043 8228EFC8 		.ascii	"\202(\357\31030 \027\002\250\004\220\227\012D|\002\027"
 252      33302017 
 252      02A80490 
 252      970A447C 
 252      0217
 253 0055 25444079 		.ascii	"%D@y\345\377\325W\3353\325\235\356\231\352q\357\316"
 253      E5FFD557 
 253      DD33D59D 
 253      EE99EA71 
 253      EFCE
ARM GAS  /tmp/ccJlXFA4.s 			page 19


 254 0067 3955DD53 		.ascii	"9U\335S\323\365\353\357\373\352\253\257\276\372\252"
 254      D3F5EBEF 
 254      FBEAABAF 
 254      BEFAAA
 255 0076 BA471224 		.ascii	"\272G\022$a\211C\020\332\341\363\311\353\202p\272\213"
 255      61894310 
 255      DAE1F3C9 
 255      EB8270BA 
 255      8B
 256 0087 20A40882 		.ascii	" \244\010\202\360\030\244\036\220\234\220\336\204\264"
 256      F018A41E 
 256      909C90DE 
 256      84B4
 257 0095 08D23248 		.ascii	"\010\3222H\313!\255\200\364.\244\225\220\276\204\364"
 257      CB21AD80 
 257      F42EA495 
 257      90BE84F4 
 258 00a5 15A40648 		.ascii	"\025\244\006H\337@\372\026\322YH\347 \375\015\322\005"
 258      DF40FA16 
 258      D25948E7 
 258      20FD0DD2 
 258      05
 259 00b6 481E483F 		.ascii	"H\036H?@\372OI\300OWH2\234\317\206t\015\322-H\033\201"
 259      40FA4F49 
 259      C04F5748 
 259      329CCF86 
 259      740DD22D 
 260 00cd 866D9076 		.ascii	"\206m\220vA\332\007i?\244\023\220>\205\3649\244\036"
 260      41DA0769 
 260      3FA41390 
 260      3E85F439 
 260      A41E
 261 00df 40C89D90 		.ascii	"@\310\235\220\356\206\324\307I1\177\005\307\337@\032"
 261      EE86D4C7 
 261      49317F05 
 261      C7DF401A 
 262 00ef 08E99F20 		.ascii	"\010\351\237 =\014\351AH\375\234\202\356C\356\225\006"
 262      3D0CE941 
 262      48FD9C82 
 262      EE43EE95 
 262      06
 263 0100 C766C0E9 		.ascii	"\307f\300\351\014\307t\225\257G!\373\003\244\337A\372"
 263      0CC77495 
 263      AF4721FB 
 263      03A4DF41 
 263      FA
 264 0111 37481FC2 		.ascii	"7H\037\302\357\217\301\361q\265\276S\255{B\245\207\320"
 264      EF8FC1F1 
 264      71B5BE53 
 264      AD7B42A5 
 264      87D0
 265 0123 4558A885 		.ascii	"EX\250\205l\206\244\277\007\341\305\255\362Hh\373\265"
 265      6C86A4BF 
 265      07E1C5AD 
 265      F24868FB 
 265      B5
 266 0134 2808F741 		.ascii	"(\010\367A\032)R\0348\010\375Ez\234m\250K>D\016\"##"
ARM GAS  /tmp/ccJlXFA4.s 			page 20


 266      1A29521C 
 266      3808FD45 
 266      7A9C6DA8 
 266      4B3E440E 
 267 014b 512D337E 		.ascii	"Q-3~\210\254\006\300\261\027\303\213\000\347\247 \315"
 267      88AC06C0 
 267      B117C38B 
 267      00E7A720 
 267      CD
 268 015c 93687DA7 		.ascii	"\223h}\247*\363Ap\222\002\345\036HW\324\366\032\014"
 268      2AF34170 
 268      9202E51E 
 268      4857D4F6 
 268      1A0C
 269 016e 659990BC 		.ascii	"e\231\220\274\220\262\234\264]\356q\352\351\315v\306"
 269      90B29CB4 
 269      5DEE71EA 
 269      E9CD76C6 
 270 017e DA6E14E0 		.ascii	"\332n\024\340\345\300\367!\220\036\021\361V\302P8\277"
 270      E5C0F721 
 270      901E11F1 
 270      56C25038 
 270      BF
 271 018f 0B522EA4 		.ascii	"\013R.\2449R\254\275\005F\0074\235\371w\247^GN:b\372"
 271      3952ACBD 
 271      05460734 
 271      9DF977A7 
 271      5E474E3A 
 272 01a5 A3E913D1 		.ascii	"\243\351\023\321\267\316P\336\005R7Hw8\250\254\036\206"
 272      B7CE50DE 
 272      05523748 
 272      7738A8AC 
 272      1E86
 273 01b7 F4074843 		.ascii	"\364\007HC \245\252\274\367Qu\200\310\220\264\015\321"
 273      20A5AABC 
 273      F7517580 
 273      C890B40D 
 273      D1
 274 01c8 09A21B9F 		.ascii	"\011\242\033\237\253\272B\260\032\340\270\006\322:\207"
 274      ABBA42B0 
 274      1AE0B806 
 274      D23A87
 275 01d7 5E3788AE 		.ascii	"^7\210\256\374\312\240\033D\357H\221&;M^D\364\267;("
 275      FCCAA01B 
 275      44EF4891 
 275      263B4D5E 
 275      44F4B73B 
 276 01ec 5DA27A1D 		.ascii	"]\242z\0359nu\350\353oS\353\257\024:\326\277C\345GT"
 276      396E75E8 
 276      EB6F53EB 
 276      AF143AD6 
 276      BF43E547 
 277 0201 AF23C79D 		.ascii	"\257#\307\235\206\372D\337\035\206\272\242ZWT\177'\307"
 277      86FA44DF 
 277      1D86BAA2 
 277      5A57547F 
 277      27C7
ARM GAS  /tmp/ccJlXFA4.s 			page 21


 278 0213 2643BD34 		.ascii	"&C\2754\341eE\231\240\324\327(C\233:w\023\246*\360\361"
 278      E1654599 
 278      A0D4D728 
 278      439B3A77 
 278      13A62AF0 
 279 0228 CEE99C2A 		.ascii	"\316\351\234*\274H\212[\336Rz\366\024\204?\213\262\010"
 279      BC488A5B 
 279      DE527AF6 
 279      14843F8B 
 279      B208
 280 023a 45297892 		.ascii	"E)x\222\236\212@\277\021\226\300\245p\275$\213\213\305"
 280      9E8A40BF 
 280      1196C0A5 
 280      70BD248B 
 280      8BC5
 281 024c 54205412 		.ascii	"T T\022;\252\031\371\320\337\377YXN\257?c\274\214\200"
 281      3BAA19F9 
 281      D0DFFF59 
 281      584EAF3F 
 281      63BC8C80 
 282 0260 922B6267 		.ascii	"\222+bg\355b\364\236M\242v\323^*\330\"\261\033\236!"
 282      ED62F49E 
 282      4DA276D3 
 282      5E2AD822 
 282      B11B9E21 
 283 0274 898A4A39 		.ascii	"\211\212J9^\241V\361j5\234j\215\267\021\\\320\212\243"
 283      5EA156F1 
 283      6A359C6A 
 283      8DB7115C 
 283      D08AA3
 284 0287 273D1902 		.ascii	"'=\031\002\314\352\275)\246%\020\023%W\255\337\022%"
 284      CCEABD29 
 284      A6251013 
 284      2557ADDF 
 284      1225
 285 0299 B5B70AB0 		.ascii	"\265\267\012\260\3346\251\357X\220zO\002R\227\331#U"
 285      DC36A9EF 
 285      58907A4F 
 285      025297D9 
 285      2355
 286 02ab 913400AF 		.ascii	"\2214\000\257\012\360\256mR\337\263 \265O\002RWX\220"
 286      0AF0AE6D 
 286      52DFB320 
 286      B54F0252 
 286      575890
 287 02be DA5D9886 		.ascii	"\332]\230\206\2446u\216\326U~\245U^\355\324TnjK\343"
 287      A436758E 
 287      D6557EA5 
 287      555EEDD4 
 287      546E6A4B 
 288 02d3 DFA63814 		.ascii	"\337\2468\024%E\026W\211\335A\355\006\213\000\272T\374"
 288      25451657 
 288      89DD41ED 
 288      068B00BA 
 288      54FC
 289 02e5 67153331 		.ascii	"g\02531\014!b-T\245\265\250\036G\266\354NW\234\264\\"
 289      0C21622D 
ARM GAS  /tmp/ccJlXFA4.s 			page 22


 289      54A5B5A8 
 289      1E47B6EC 
 289      4E579CB4 
 290 02fa D0E1E93E 		.ascii	"\320\341\351>\367\013\365@p\244q\367\026Q\251Ig:\311"
 290      F70BF540 
 290      70A471F7 
 290      1651A949 
 290      673AC9
 291 030d 9CCE717A 		.ascii	"\234\316qz\311\324\2265532\220\344\006\354)\343E=\315"
 291      C9D49635 
 291      35333290 
 291      E406EC29 
 291      E3453DCD 
 292 0321 B2A8CA92 		.ascii	"\262\250\312\222\375\256]@\320\242\275C\355\034\222"
 292      FDAE5D40 
 292      D0A2BD43 
 292      ED1C92
 293 0330 50831084 		.ascii	"P\203\020\204\\\263\333F\333\204i\010\035\013-\2157"
 293      5CB3DB46 
 293      DB846908 
 293      1D0B2D8D 
 293      37
 294 0341 5EF5CC56 		.ascii	"^\365\314V\"\343\035\032MSl\003\246\350d\322\274;m\365"
 294      22E31D1A 
 294      4D536C03 
 294      A6E864D2 
 294      BC3B6DF5 
 295 0355 D31A58AD 		.ascii	"\323\032X\255m\260\256:\260C,\330\034\333`=u`\237\260"
 295      6DB0AE3A 
 295      B0432CD8 
 295      1CDB603D 
 295      75609FB0 
 296 0369 600B6D83 		.ascii	"`\013m\203yu`GY\260\267l\203=\240\003;^\223\336\374"
 296      79756047 
 296      59B0B76C 
 296      833DA003 
 296      3B5E93DE 
 297 037e B4AA454A 		.ascii	"\264\252EJ\215\362\300\262\316\214<\324\352\022\253"
 297      8DF2C0B2 
 297      CE8C3CD4 
 297      EA12AB
 298 038d 45B31E45 		.ascii	"E\263\036E-\332\205w_\331A\213\034\006-r\350\265\310"
 298      2DDA8577 
 298      5FD9418B 
 298      1C062D72 
 298      E8B5C8
 299 03a0 911A3B69 		.ascii	"\221\032;io\307\301e\235\221\003\335}\3158\350\253W"
 299      6FC7C165 
 299      9D9103DD 
 299      7DCD38E8 
 299      AB57
 300 03b2 A3F5AF79 		.ascii	"\243\365\257y\346(\221\011\016\215\250\367y\000S,\365"
 300      E6289109 
 300      0E8DA8F7 
 300      7900532C 
 300      F5
 301 03c3 3272BDE6 		.ascii	"2r\275\346\325^J\375NQ\225\0125\015\346\306D\223\312"
ARM GAS  /tmp/ccJlXFA4.s 			page 23


 301      D55E4AFD 
 301      4E51950A 
 301      350DE6C6 
 301      4493CA
 302 03d6 EE3ADAB7 		.ascii	"\356:\332\267\366#\001\221\016R\361\030\244\342\321"
 302      F6230191 
 302      0E52F118 
 302      A4E2D1
 303 03e5 4BC5931A 		.ascii	"K\305\223\032;!\336k\027\"\227\335F6tw6cC\247&-\215"
 303      3B21DE6B 
 303      172297DD 
 303      46367477 
 303      366343A7 
 304 03fc 3FBDD673 		.ascii	"?\275\326s\256\022y\301\241\221u\220\007\260\253\265"
 304      AE1279C1 
 304      A1917590 
 304      07B0ABB5 
 305 040c 5C66ED49 		.ascii	"\\f\355I\237*k`\237\333\006\323+\361\034\026\354k\036"
 305      9F2A6B60 
 305      9FDB06D3 
 305      2BF11C16 
 305      EC6B1E
 306 041f B09ED694 		.ascii	"\260\236\326\224\315c\301\316\333\006\323S6\237\005"
 306      CD63C1CE 
 306      DB06D353 
 306      369F05
 307 042e 6BE301F3 		.ascii	"k\343\001\363ZSV\307\202]\267\015\246\247l5\0136Q\342"
 307      5A5356C7 
 307      825DB70D 
 307      A6A76C35 
 307      0B3651E2 
 308 0442 007BC09A 		.ascii	"\000{\300\232\262\265,\330\253\266\301X\312\224H\303"
 308      B2B52CD8 
 308      ABB6C158 
 308      CA9448C3 
 309 0452 9E34188C 		.ascii	"\2364\030\214\330\221\276\201\031\351\243`\2126\366"
 309      D891BE81 
 309      19E9A360 
 309      8A36F6
 310 0461 B5D81EEA 		.ascii	"\265\330\036\352\277\260\030\352\3335gR\202y\214\201"
 310      BFB018EA 
 310      DB356752 
 310      82798C81 
 311 0471 09C38DD5 		.ascii	"\011\303\215\325\363\276&21\373\260#\264,\256\023\177"
 311      F3BE2632 
 311      31FBB023 
 311      B42CAE13 
 311      7F
 312 0482 03F97AF1 		.ascii	"\003\371z\361~\3107a\276\005\363F\314\267c\276\003\363"
 312      7EC83761 
 312      BE05F346 
 312      CCB763BE 
 312      03F3
 313 0494 0F306FC2 		.ascii	"\0170o\302|\037\346\0070?\210\371a\314\217`~\014\363"
 313      7C1FE607 
 313      303F88F9 
 313      61CC8F60 
ARM GAS  /tmp/ccJlXFA4.s 			page 24


 313      7E0CF3
 314 04a7 13987F86 		.ascii	"\023\230\177\206\371I\314OC\036\375X\011de|w\253\376"
 314      F949CC4F 
 314      431EFD58 
 314      0964657C 
 314      77ABFE
 315 04ba 0983BFA5 		.ascii	"\011\203\277\2453\202\004\340+\333m\360\265E\033\210"
 315      338204E0 
 315      2BDB6DF0 
 315      B5451B88 
 316 04ca 0948FDD2 		.ascii	"\011H\375\322\236gx1\352\304\336\247\002|k\233\324\357"
 316      9E677831 
 316      EAC4DEA7 
 316      027C6B9B 
 316      D4EF
 317 04dc 2C48BD37 		.ascii	",H\2757\001\251\337\330#uj\324\211\375\007\025\340\234"
 317      01A9DFD8 
 317      23756AD4 
 317      89FD0715 
 317      E09C
 318 04ee 6D52CF5B 		.ascii	"mR\317[\220z\177\002R\317\332#uNT\252\267\253\000\027"
 318      907A7F02 
 318      52CFDA23 
 318      754E54AA 
 318      B7AB0017 
 319 0502 6C93FABD 		.ascii	"l\223\372\275\005\251\335\023\220\3727~\177\373i\255"
 319      05A9DD13 
 319      90FA377E 
 319      7FFB69AD 
 320 0512 2E8906A8 		.ascii	".\211\006\250\303kk\355\251~8\274^Do\373\200\224\320"
 320      C36B6BED 
 320      A97E38BC 
 320      5E446FFB 
 320      8094D0
 321 0525 DDD6A110 		.ascii	"\335\326\241\020\012\332\214\316\366v\352l\267q9\333"
 321      0ADA8CCE 
 321      F676EA6C 
 321      B77139DB 
 322 0535 C76A16A0 		.ascii	"\307j\026\240G\220p\262\340`\215\214J\375\245Y\307\334"
 322      479070B2 
 322      E0608D8C 
 322      4AFDA559 
 322      C7DC
 323 0547 48FD55A4 		.ascii	"H\375U\244\276\316\221x\262\240\203\221\305\237E\011"
 323      BECE9178 
 323      B2A08391 
 323      C59F4509 
 324 0557 F26B4616 		.ascii	"\362kF\026.\277\201,\\\343b\341\346guw)-\021\321#\324"
 324      2EBF812C 
 324      5CE362E1 
 324      E6677577 
 324      292D11D1 
 325 056d E08461D2 		.ascii	"\340\204a\322\204\204\023\2067>\241R\277\011\225$\341"
 325      84841386 
 325      373EA152 
 325      BF099524 
 325      E1
ARM GAS  /tmp/ccJlXFA4.s 			page 25


 326 057e 3303DD1C 		.ascii	"3\003\335\034@\204*E\362\350\251n\250\351B\250&\345"
 326      40842A45 
 326      F2E8A96E 
 326      A8E942A8 
 326      26E5
 327 0590 71A87610 		.ascii	"q\250v\0203%\011\3378\250\326:Sce\255\2612\221\271\364"
 327      332509DF 
 327      38A8D63A 
 327      536365AD 
 327      B13291B9 
 328 05a5 5AAC5862 		.ascii	"Z\254Xb\212_pF\213\035L\361\353\261b-\212B\276\032'"
 328      8A5F7046 
 328      8B1D4CF1 
 328      EBB1622D 
 328      8A42BE1A 
 329 05ba 39CC8765 		.ascii	"9\314\207eE\026\307Kd8\230 9L\253I\302|\247\2506\031"
 329      4516C74B 
 329      64389820 
 329      394CAB49 
 329      C27CA7A8 
 330 05d0 AF5BAE6B 		.ascii	"\257[\256k\256\226\266Y\177\375V\234>Qi\352k\246sp\211"
 330      AE96B659 
 330      7FFD569C 
 330      3E5169EA 
 330      6BA67370 
 331 05e5 18BFCF44 		.ascii	"\030\277\317D>\373L\364&\352\030\2628\025\330\340\351"
 331      3EFB4CF4 
 331      26EA18B2 
 331      3815D8E0 
 331      E9
 332 05f6 3EB59241 		.ascii	">\265\222A\367f\177\206\272G\312\023\353\336\302\317"
 332      F7667F86 
 332      BA47CA13 
 332      EBDEC2CF 
 333 0606 EA3A769F 		.ascii	"\352:v\237;\205\231\252\325Q\304\260,>v\207\245\365"
 333      3B8599AA 
 333      D551C4B0 
 333      2C3E7687 
 333      A5F5
 334 0618 9825DD19 		.ascii	"\230%\335\031\323\011Rp\005\220dqd,\214d\355\232Gn\316"
 334      D3095270 
 334      05906471 
 334      642C8C64 
 334      ED9A476E 
 335 062d EB41089D 		.ascii	"\353A\010\235)\245A\355EN\275\016\353\010\2427\262\""
 335      29A541ED 
 335      454EBD0E 
 335      EB08A237 
 335      B222
 336 063f 629E9466 		.ascii	"b\236\224f\301g\207\337$\230\343\213\252\320\342\270"
 336      C16787DF 
 336      2498E38B 
 336      AAD0E2B8 
 337 064f 53D6AD1F 		.ascii	"S\326\255\037\331d&0\223vj\211\016?\377\022\345\270"
 337      D9642630 
 337      93766A89 
 337      0E3FFF12 
ARM GAS  /tmp/ccJlXFA4.s 			page 26


 337      E5B8
 338 0661 E5F4972D 		.ascii	"\345\364\227-\031\023A\250\262X'\021\203s\323\231\320"
 338      191341A8 
 338      B2582711 
 338      8373D399 
 338      D0
 339 0672 E0E87130 		.ascii	"\340\350q0\356dl\360u\373\261\301\337L\334\340/L\214"
 339      EE646CF0 
 339      75FBB1C1 
 339      DF4CDCE0 
 339      2F4C8C
 340 0685 6CD83F3F 		.ascii	"l\330??6\203\232\3103\203j8\327\334\363]E\351\3121\347"
 340      36839AC8 
 340      33836A38 
 340      D7DCF35D 
 340      45E9CA31 
 341 069a 92C5B7B0 		.ascii	"\222\305\267\260\363\361\314\241V\271\364\274\363O\351"
 341      F3F1CCA1 
 341      56B9F4BC 
 341      F34FE9
 342 06a9 5ACF4766 		.ascii	"Z\317Gf\213T\214\313$bR.\030\240\222\231\324\331\274"
 342      8B548CCB 
 342      2462522E 
 342      18A09299 
 342      D4D9BC
 343 06bc 5C127EC2 		.ascii	"\\\022~\302\233\276\231\234\"\2750\261\345\324\227-"
 343      9BBE999C 
 343      22BD30B1 
 343      E5D4972D 
 344 06cc 0FAA73C0 		.ascii	"\017\252s\300%\310\305-\333\200^]\313n\336\217\263\006"
 344      25C8C52D 
 344      DB805E5D 
 344      CB6EDE8F 
 344      B306
 345 06de 0A36C9CD 		.ascii	"\0126\311\315\001f5\321\006\260\255,\330k\266\301\364"
 345      016635D1 
 345      06B0AD2C 
 345      D86BB6C1 
 345      F4
 346 06ef 946D63C1 		.ascii	"\224mc\301\246\363\200YMu\001\254\231\005\233m\033\214"
 346      A6F38059 
 346      4D7501AC 
 346      99059B6D 
 346      1B8C
 347 0701 A56C7CE4 		.ascii	"\245l|\344\364\376}\242R\233~\273P\253(\343\225z\267"
 347      F4FE7DA2 
 347      529B7EBB 
 347      50AB28E3 
 347      957AB7
 348 0714 95E60902 		.ascii	"\225\346\011\002^\242\304\275D\0267J\267\353\273\346"
 348      5EA2C4BD 
 348      4416374A 
 348      B7EBBBE6 
 349 0724 E1573A93 		.ascii	"\341W:\223\256I\312\023\333\342#j\327\204\353\220\271"
 349      AE49CA13 
 349      DBE2236A 
 349      D784EB90 
ARM GAS  /tmp/ccJlXFA4.s 			page 27


 349      B9
 350 0735 37903952 		.ascii	"7\2209R7\031S\245DN\356OS^N\327\306\245'\226\305!\274"
 350      371953A5 
 350      444EEE4F 
 350      535E4ED7 
 350      C6A52796 
 351 074c D168538E 		.ascii	"\321hS\216\355\227\274\26481\335'\366\317\357\251\324"
 351      ED97BCB4 
 351      3831DD27 
 351      F6CFEFA9 
 351      D4
 352 075d EF10F943 		.ascii	"\357\020\371CU\015\347.\356\026'`\017\216 \253\013\334"
 352      550DE72E 
 352      EE162760 
 352      0F8E20AB 
 352      0BDC
 353 076f A6C68003 		.ascii	"\246\306\200\003\252\365\374\305\031\2521\370\000\241"
 353      AAF5FCC5 
 353      19AA31F8 
 353      00A1
 354 077d 96BA8DC6 		.ascii	"\226\272\215\306\300n\334\313\326\305\222\260\006o\330"
 354      C06EDCCB 
 354      D6C592B0 
 354      066FD8
 355 078c 28F107C9 		.ascii	"(\361\007\311t\342\003C\360\335Cj\220\214\012\243\301"
 355      74E20343 
 355      F0DD436A 
 355      908C0AA3 
 355      C1
 356 079d 36605743 		.ascii	"6`WC\303H\302\226du\207a\235r-\213\233%2\363\335*\335"
 356      C348C296 
 356      64758761 
 356      9D722D8B 
 356      9B2532F3 
 357 07b4 CFDEA091 		.ascii	"\317\336\240\221\247\347Y\305\205\240\033_d\273\361"
 357      A7E759C5 
 357      85A01B5F 
 357      64BBF1
 358 07c3 4EDB605E 		.ascii	"N\333`^\035\330%\026l\017\017\230\327"
 358      1DD82516 
 358      6C0F0F98 
 358      D7
 359 07d0 9AB21F59 		.ascii	"\232\262\037Y\260\017m\203\351)\273\302\202\035\344"
 359      B00F6D83 
 359      E929BBC2 
 359      821DE4
 360 07df 01338B0B 		.ascii	"\0013\213\013\231}XG@\026\027\341\270\273\030[\352]"
 360      997D5847 
 360      401617E1 
 360      B8BB185B 
 360      EA5D
 361 07f1 CC5762BE 		.ascii	"\314Wb\276\032\363\265\230\257\307\374}\314\367c\376"
 361      1AF3B598 
 361      AFC7FC7D 
 361      CCF763FE 
 362 0801 11E60730 		.ascii	"\021\346\0070?\310\266o\034\257\355jmob\322\026\240"
 362      3FC8B66F 
ARM GAS  /tmp/ccJlXFA4.s 			page 28


 362      1CAFED6A 
 362      6D6F62D2 
 362      16A0
 363 0813 D776C4D0 		.ascii	"\327v\304\320\331\014^[\235\005\253\204\372#q\274\266"
 363      D90C5E5B 
 363      9D05AB84 
 363      FA2371BC 
 363      B6
 364 0824 2346AFAD 		.ascii	"#F\257\255\305m\327kc\232\001}\366\037\217\212\023'"
 364      C56DD76B 
 364      639A017D 
 364      F61F8F8A 
 364      1327
 365 0836 2ACBFA6A 		.ascii	"*\313\372j\235\354[#\242\315H\364\3617\322\233\237\326"
 365      9DEC5B23 
 365      A2CD48F4 
 365      F137D29B 
 365      9FD6
 366 0848 C02ED806 		.ascii	"\300.\330\0063\366X\255\035\247c;\316\300\026\231\217"
 366      33F658AD 
 366      1DA7633B 
 366      CEC01699 
 366      8F
 367 0859 F931CC4F 		.ascii	"\3711\314O\350{_k\007#G\335}\006/6/\020\022#Z5\322\024"
 367      E87B5F6B 
 367      072347DD 
 367      7D062F36 
 367      2F101223 
 368 0871 291A1D90 		.ascii	")\032\035\220\204\353n\303\304\311^#D\352NA_H\3447\327"
 368      84EB6EC3 
 368      C4C95E23 
 368      44EA4E41 
 368      5F48E437 
 369 0886 3B35A4AC 		.ascii	";5\244\254\250\316\265\314\274\026\351\271\031\\PY<"
 369      A8CEB5CC 
 369      BC16E9B9 
 369      195C5059 
 369      3C
 370 0897 8D7EF316 		.ascii	"\215~\363\026OB\277Y\217#\011\273\260\312\031\3038\327"
 370      4F42BF59 
 370      8F2309BB 
 370      B0CA19C3 
 370      38D7
 371 08a9 D278ABE5 		.ascii	"\322x\253\345\2369\210|\206k\254\273n\026n\240dY\311"
 371      9E39887C 
 371      866BACBB 
 371      6E166EA0 
 371      6459C9
 372 08bc F01BA332 		.ascii	"\360\033\2432OL\321HIn\012rk7\332\224o\260\007\276l"
 372      4F4CD148 
 372      496E0A72 
 372      6B37DA94 
 372      6FB007BE 
 373 08d1 1B4CDF28 		.ascii	"\033L\337(\323\367\314\267\271\242rx\321\331^\215(\262"
 373      D3F7CCB7 
 373      B9A27278 
 373      D1D95E8D 
ARM GAS  /tmp/ccJlXFA4.s 			page 29


 373      28B2
 374 08e3 F3A8FC9F 		.ascii	"\363\250\374\237\246\030u\221\270/:]\344\361\247\317"
 374      A6187591 
 374      B82F3A5D 
 374      E4F1A7CF 
 375 08f3 F03062D9 		.ascii	"\3600b\331!IK6\367\336\264VQ^rk\036\217\245\253&\011"
 375      21494B36 
 375      F7DEB456 
 375      515E726B 
 375      1E8FA5AB 
 376 0909 67F16617 		.ascii	"g\361f\027\215\332p\370\355\203\017Rm\270\310\245\015"
 376      8DDA70F8 
 376      ED830F52 
 376      6DB8C8A5 
 376      0D
 377 091a 1BF6CFE6 		.ascii	"\033\366\317\346\232\014\326\273\265\333\227\340\355"
 377      9A0CD6BB 
 377      B5DB97E0 
 377      ED
 378 0927 57A492DB 		.ascii	"W\244\222\333_6\336\376\364\212\263\217\321\333_\346"
 378      5F36DEFE 
 378      F48AB38F 
 378      D1DB5FE6 
 379 0937 BAFDE903 		.ascii	"\272\375\351\0033\314\224\321b\276\2565\337\333\255"
 379      33CC94D1 
 379      62BEAE35 
 379      DFDBAD
 380 0946 0F2CC49B 		.ascii	"\017,\304\233\374\214\012t9\325\330|\217\247\261\367"
 380      FC8C0A74 
 380      39D5D87C 
 380      8FA7B1F7 
 381 0956 C2EF3AFD 		.ascii	"\302\357:\375\275\025\245>)\375\0056w<\276\034[J\243"
 381      BD15A53E 
 381      29FD0536 
 381      773CBE1C 
 381      5B4AA3
 382 0969 614227BB 		.ascii	"aB'\273\210z%\276t\000{\004\005\253\341\001\213c\331"
 382      887A25BE 
 382      74007B04 
 382      05ABE101 
 382      8B63D9
 383 097c 7F64C15E 		.ascii	"\177d\301^\266\015\246\247\354\012\0136\205\007,\316"
 383      B60DA6A7 
 383      EC0A0B36 
 383      85072CCE 
 384 098c 2ADF4F2C 		.ascii	"*\337O,X\255m0=e\327X\260Y<`qV\371n\260`\363l\203\351"
 384      58AD6D30 
 384      3D65D758 
 384      B0593C60 
 384      7156F96E 
 385 09a6 29BBC582 		.ascii	")\273\305\202\325\361\200y\255)\233z\210\001[d\033L"
 385      D5F18079 
 385      AD299B7A 
 385      88015B64 
 385      1B4C
 386 09b8 4F592D0B 		.ascii	"OY-\013\266\224\007,\316*\337\014\026\354\035\333`z"
 386      B694072C 
ARM GAS  /tmp/ccJlXFA4.s 			page 30


 386      CE2ADF0C 
 386      16EC1DDB 
 386      607A
 387 09ca CA66B160 		.ascii	"\312f\261`+y\300\314\326\332\264\005`\026l\255m0=e\363"
 387      2B79C0CC 
 387      D6DAB405 
 387      60166CAD 
 387      6D303D65 
 388 09df 58B0F779 		.ascii	"X\260\367y\300\036\265\246l>\013\266\3316\230\236\262"
 388      C01EB5A6 
 388      6C3E0BB6 
 388      D936989E 
 388      B2
 389 09f0 D52CD836 		.ascii	"\325,\3306\036\260'\254)[\313\202\355\260\015\246\247"
 389      1EB027AC 
 389      295BCB82 
 389      EDB00DA6 
 389      A7
 390 0a01 6C3D0BB6 		.ascii	"l=\013\266\213\007l\2505e\357\263`{l\203\351)\333\310"
 390      8B076CA8 
 390      3565EFB3 
 390      607B6C83 
 390      E929DBC8 
 391 0a15 82EDE301 		.ascii	"\202\355\343\001\313\267\246l3\013\366\221m0=e[Y\260"
 391      CBB7A66C 
 391      330BF691 
 391      6D303D65 
 391      5B59B0
 392 0a28 661EB03F 		.ascii	"f\036\260?[S\266\215\005\373\3046\230\236\262f\026\354"
 392      5B53B68D 
 392      05FBC436 
 392      989EB266 
 392      16EC
 393 0a3a 380FD8D3 		.ascii	"8\017\330\323&\224E?V~\346\217\254\257\376Y'\315\301"
 393      2694453F 
 393      567EE68F 
 393      ACAFFE59 
 393      27CDC1
 394 0a4d B139460B 		.ascii	"\2619F\0131\214\323\235\354zd:\276\211o\335{\263:\316"
 394      318CD39D 
 394      EC7A643A 
 394      BE896FDD 
 394      7BB33ACE 
 395 0a61 5367F56B 		.ascii	"Sg\365k\036\3048\003\240\272\231\204\202]\260\015fP"
 395      1EC43803 
 395      A0BA9984 
 395      825DB00D 
 395      6650
 396 0a73 E53DC6E9 		.ascii	"\345=\306\351Ht\307^\304r\335\014\246\362\270\333`\261"
 396      4874C75E 
 396      C472DD0C 
 396      A6F2B8DB 
 396      60B1
 397 0a85 610B9EE5 		.ascii	"a\013\236\345\016\325\016\315\264\336\3014\323e\036"
 397      0ED50ECD 
 397      B4DEC134 
 397      D3651E
ARM GAS  /tmp/ccJlXFA4.s 			page 31


 398 0a94 1EE28CBB 		.ascii	"\036\342\214\273\247\367\314\307\245C\376\275\206\207"
 398      A7F7CCC7 
 398      A543FEBD 
 398      8687
 399 0aa2 171D54BD 		.ascii	"\027\035T\275\367\215\016\342\275\337\350d\032y\343"
 399      F78D0EE2 
 399      BDDFE864 
 399      1A79E3
 400 0ab1 406A38D7 		.ascii	"@j8\327\334\240\006\361\266 \324\244\264d\241Z\317\267"
 400      DCA006F1 
 400      B620D4A4 
 400      B464A15A 
 400      CFB7
 401 0ac3 4C548378 		.ascii	"LT\203x\333\020\3525\003\224\355-\220\177\257k%av\232"
 401      DB10EA35 
 401      0394ED2D 
 401      907FAF6B 
 401      2561769A 
 402 0ad7 A1C9CC96 		.ascii	"\241\311\314\226\017\255\275\033\350\025\307\373lZ\251"
 402      0FADBD1B 
 402      E815C7FB 
 402      6C5AA9
 403 0ae6 2813DD76 		.ascii	"(\023\335v\032m\257\332h\037\240x\026v\020\317\026c"
 403      1A6DAFDA 
 403      681FA078 
 403      167610CF 
 403      1663
 404 0af8 9033211F 		.ascii	"\2203!\037o\333\346\343\001\003\037\221\007\354\363"
 404      6FDBE6E3 
 404      01031F91 
 404      07ECF3
 405 0b07 7142E5A3 		.ascii	"qB\345\243\011\371X\365\277\300\307\006\333|\260{\024"
 405      09F958F5 
 405      BFC0C706 
 405      DB7CB07B 
 405      14
 406 0b18 71DEF810 		.ascii	"q\336\370\020\2357r\205\370?r\030B\374'\366\211^Z\234"
 406      9D377285 
 406      F83F7218 
 406      42FC27F6 
 406      895E5A9C 
 407 0b2c 68C2A644 		.ascii	"h\302\246D\256\356c&\333\012\337d\273U\225X3Jl\233Y"
 407      AEEE6326 
 407      DB0ADF64 
 407      BB559558 
 407      334A6C9B 
 408 0b41 1FE3426A 		.ascii	"\037\343Bj8\327\324s\005\"\035F\244]I#\265\236\377\251"
 408      38D7D473 
 408      05221D46 
 408      A45D4923 
 408      B59EFFA9 
 409 0b55 46EDAD47 		.ascii	"F\355\255G\021\352\303\016\315\3506\264\242[\337\212"
 409      11EAC30E 
 409      CDE836B4 
 409      A25BDF8A 
 410 0b65 F095DCEB 		.ascii	"\360\225\334\353'2\371\027\377\242\226\220/\036\341"
 410      2732F917 
ARM GAS  /tmp/ccJlXFA4.s 			page 32


 410      FFA29690 
 410      2F1EE1
 411 0b74 FFBC9E24 		.ascii	"\377\274\236$\034E\362I\013\332\034+c\032\364/\233\324"
 411      1C45F249 
 411      0BDA1C2B 
 411      631AF42F 
 411      9BD4
 412 0b86 718EB6D2 		.ascii	"q\216\266\322\311_\2048!\262\356\225\005\352J\320\343"
 412      C95F8438 
 412      21B2EE95 
 412      05EA4AD0 
 412      E3
 413 0b97 64A4FBE6 		.ascii	"d\244\373\346\027\302\035\334o?\306\263\343n\252v\247"
 413      17C21DDC 
 413      6F3FC6B3 
 413      E36EAA76 
 413      A7
 414 0ba8 91A10B1D 		.ascii	"\221\241\013\035Z8\251\030\317\317\3112\022\375H\202"
 414      5A38A918 
 414      CFCFC932 
 414      12FD4882 
 415 0bb8 92CE3164 		.ascii	"\222\3161dz\343\265\326O\017q\306\211\242\321\307\357"
 415      7AE3B5D6 
 415      4F0F71C6 
 415      89A2D1C7 
 415      EF
 416 0bc9 7A36A130 		.ascii	"z6\2410\276v\220\350\343\013\351\246\321\307x\361\246"
 416      BE7690E8 
 416      E30BE9A6 
 416      D1C778F1 
 416      A6
 417 0bda E958E53B 		.ascii	"\351X\345;G\207\350cs/\032\360!?q\304\233j4\275\240"
 417      4787E863 
 417      732F1AF0 
 417      213F71C4 
 417      9B6A34BD 
 418 0bef 41C56F25 		.ascii	"A\305o%I\205MV\236\272&\214\321'\213\347\034\304\315"
 418      49854D56 
 418      9EBA268C 
 418      D1278BE7 
 418      1CC4CD
 419 0c02 39EFD085 		.ascii	"9\357\320\205\235\027\333\226\275\227\225}\344\372\376"
 419      9D17DB96 
 419      BD97957D 
 419      E4FAFE
 420 0c11 F922A1DF 		.ascii	"\371\"\241\337$D\366\004\353PF\005\337\322k/\212\347"
 420      2444F604 
 420      EB504605 
 420      DFD26B2F 
 420      8AE7
 421 0c23 7B14FC7B 		.ascii	"{\024\374{\026\202\177\302\012G\022\032\261JkG\3017"
 421      16827FC2 
 421      0A47121A 
 421      B14A6B47 
 421      C137
 422 0c35 DD4D05DF 		.ascii	"\335M\005\337\312%\370#\246\202o\265/\370\350s\002Q"
 422      CA25F823 
ARM GAS  /tmp/ccJlXFA4.s 			page 33


 422      A6826FB5 
 422      2FF8E873 
 422      0251
 423 0c47 475616CF 		.ascii	"GV\026\317\332\006\363\306k\305V\246\025\333\260\025"
 423      DA06F3C6 
 423      6BC556A6 
 423      15DBB015 
 424 0c57 7F749080 		.ascii	"\177t\220\200\377e}[~llK\235\344\324S\313\360\205\022"
 424      FF657D5B 
 424      7E6C6C4B 
 424      9DE4D453 
 424      CBF08512 
 425 0c6b 99FEB1B6 		.ascii	"\231\376\261\266ZMm\336\011\036\335\210\023t\250\373"
 425      5A4D6DDE 
 425      091EDD88 
 425      1374A8FB 
 426 0c7b 184542ED 		.ascii	"\030EB\355\315i\333`^\035X\343\024\316]\201\321\235"
 426      CD69DB60 
 426      5E1D58E3 
 426      14CE5D81 
 426      D19D
 427 0c8d 975D5128 		.ascii	"\227]Q(\347\360\2767\215\352r\360\333\203\223\305\361"
 427      E7F0BE37 
 427      8DEA72F0 
 427      DB8393C5 
 427      F1
 428 0c9e 38E2DDE4 		.ascii	"8\342\335\344\320\027\030\350\277NUj\3235\275]r\233"
 428      D01718E8 
 428      BF4E556A 
 428      D335BD5D 
 428      729B
 429 0cb0 861A47D4 		.ascii	"\206\032G\324q\264\345\372\331\275\"\302\321\211\317"
 429      71B4E5FA 
 429      D9BD22C2 
 429      D189CF
 430 0cbf BB46B884 		.ascii	"\273F\270\204\3632=\334-\277\371\3265k\301h\033\327"
 430      F3323DDC 
 430      2DBFF9D6 
 430      356BC168 
 430      1BD7
 431 0cd1 361157A7 		.ascii	"6\021W\247\306IxZ\177\233qD\240\222a\024\361&\243\210"
 431      C649785A 
 431      7F9B7144 
 431      A0926114 
 431      F126A388 
 432 0ce5 EDA8888A 		.ascii	"\355\250\210\212\223(\342\004\314_pr\254?Mr2\223\245"
 432      9328E204 
 432      CC5F7072 
 432      AC3F4D72 
 432      3293A5
 433 0cf8 ADB6F9F6 		.ascii	"\255\266\371\366\032Z\307\35267\3309\331\007\267q\350"
 433      1A5AC7EA 
 433      3637D839 
 433      D907B771 
 433      E8
 434 0d09 9E758C8A 		.ascii	"\236u\214\212\030\365\337k\356\000]!\371\3106\242^\233"
 434      18F5DF6B 
ARM GAS  /tmp/ccJlXFA4.s 			page 34


 434      EE005D21 
 434      F9C836A2 
 434      5E9B
 435 0d1b 5BA7E8DC 		.ascii	"[\247\350\334\201\343<pO\230\020h\366a\327\304d\361"
 435      81E33C70 
 435      4F981068 
 435      F661D7C4 
 435      64F1
 436 0d2d 2B5C7EFC 		.ascii	"+\\~\374\032\027\010\277\303\374\034\346?`\276\012\355"
 436      1A1708BF 
 436      C3FC1CE6 
 436      3F60BE0A 
 436      ED
 437 0d3e C81ACCD7 		.ascii	"\310\032\314\327a\276\001\363\235\230\357\301\374C\314"
 437      61BE01F3 
 437      9D98EFC1 
 437      FC43CC
 438 0d4d BFC2FC02 		.ascii	"\277\302\374\002\346W1\377\031\363\353\230\277\202\012"
 438      E65731FF 
 438      19F3EB98 
 438      BF820A
 439 0d5c F05A2205 		.ascii	"\360Z\"\005PG\201i?\234\350\375.\332\352S\250\376s:"
 439      50478169 
 439      3F9CE8FD 
 439      2EDAEA53 
 439      A8FE733A 
 440 0d70 1B35EF1B 		.ascii	"\0335\357\033\311\260b\321a\311mEg\216\245\3138\213"
 440      C9B062D1 
 440      61C96D45 
 440      678EA5CB 
 440      388B
 441 0d82 4B6D473F 		.ascii	"KmG?>&NW\224\246\276T\377e\361\226C\322#\352{L\034m"
 441      3E264E57 
 441      94A6BE54 
 441      FF65F196 
 441      43D223EA 
 442 0d9a 541BF564 		.ascii	"T\033\365d\335B\276\265\243\350\006\300_\307dr\244\355"
 442      DD42BEB5 
 442      A3E806C0 
 442      5FC76472 
 442      A4ED
 443 0dac C4FFA31E 		.ascii	"\304\377\243\036\370L\354\215\337\033d\222\020\207H"
 443      F84CEC8D 
 443      DF1B6492 
 443      108748
 444 0dbb 698ED3B0 		.ascii	"i\216\323\260\351\247\365\024n$$\345\2117\022^>5CUJ"
 444      E9A7F514 
 444      6E2424E5 
 444      8937125E 
 444      3E354355 
 445 0dd0 BAB9E11A 		.ascii	"\272\271\341\032\222@\352&1$\222\235\022\247\230\235"
 445      9240EA26 
 445      3124929D 
 445      12A7989D 
 446 0de0 12B76C83 		.ascii	"\022\267l\203yu`?\261`\023\272p\200\305\331\013w\215"
 446      7975603F 
 446      B16013BA 
ARM GAS  /tmp/ccJlXFA4.s 			page 35


 446      7080C5D9 
 446      0B778D
 447 0df3 059B641B 		.ascii	"\005\233d\033LO\331\015\026\354E\036\2608{\341n\261"
 447      4C4FD90D 
 447      16EC451E 
 447      B0387BE1 
 447      6EB1
 448 0e05 60536C83 		.ascii	"`Sl\203\351)\233z\232\001\233\311\003\026g{O-\0136\337"
 448      E9299B7A 
 448      9A019BC9 
 448      0316677B 
 448      4F2D0B36 
 449 0e1a 36989EB2 		.ascii	"6\230\236\262\031,\330\022\0360\257\011ef\037\266\023"
 449      192CD812 
 449      1E30AF09 
 449      65661FB6 
 449      13
 450 0e2b C8E25C27 		.ascii	"\310\342\\'\261~\363\320:\315\307\274\016\363z\314\027"
 450      B17EF3D0 
 450      3ACDC7BC 
 450      0EF37ACC 
 450      17
 451 0e3c 61BE04F3 		.ascii	"a\276\004\363\245\230/\303\374\035\236\201l\006;\220"
 451      A5982FC3 
 451      FC1D9E81 
 451      6C063B90 
 452 0e4c BDD385C3 		.ascii	"\275\323\205\303\032\305\011!\265\315:\371\213v\240"
 452      1AC50921 
 452      B5CD3AF9 
 452      8B76A0
 453 0e5b B7345EDF 		.ascii	"\2674^\337\373\007b>\022\357B_\355\344\333\205\276\326"
 453      FB07623E 
 453      12EF425F 
 453      EDE4DB85 
 453      BED6
 454 0e6d 684B2E7F 		.ascii	"hK.\177L\237\230NlK\300\026^\345t\327\"\"+\235\250-"
 454      4C9F984E 
 454      6C4BC016 
 454      5EE574D7 
 454      22222B9D 
 455 0e83 DCFB18B5 		.ascii	"\334\373\030\265\205\357\243-\274\334%\241-\324\343"
 455      85EFA32D 
 455      BCDC25A1 
 455      2DD4E3
 456 0e92 10FA3619 		.ascii	"\020\3726\031\351_w\000\351\337\304e\0137\034\320\333"
 456      E95F7700 
 456      E9DFC465 
 456      0B371CD0 
 456      DB
 457 0ea3 C217BB8A 		.ascii	"\302\027\273\212*fr\266p\343\001F\341_\261\015\346\325"
 457      2A6672B6 
 457      70E30146 
 457      E15FB10D 
 457      E6D5
 458 0eb5 816D66C1 		.ascii	"\201mf\301\246\362\200\305\333\027\314\202\315\260\015"
 458      A6F280C5 
 458      DB17CC82 
ARM GAS  /tmp/ccJlXFA4.s 			page 36


 458      CDB00D
 459 0ec4 A6A76C1B 		.ascii	"\246\247l\033\0136\227\007,\336\276`\026\254\3166\230"
 459      0B369707 
 459      2CDEBE60 
 459      16ACCE36 
 459      98
 460 0ed5 D7AC7985 		.ascii	"\327\254y\205\016\332!\213\233\321Hl\301\256\337\210"
 460      0EDA218B 
 460      9BD1486C 
 460      C1AEDF88 
 461 0ee5 F976CC77 		.ascii	"\371v\314w`\376\001\346\177\3451\011\015\254IX\204\004"
 461      60FE01E6 
 461      7FE53109 
 461      0DAC4958 
 461      8404
 462 0ef7 AF4D4E63 		.ascii	"\257MNc\210\323y\375\213\177\245k-\206\315 D\036V\024"
 462      88D379FD 
 462      8B7FA56B 
 462      2D86CD20 
 462      441E5614 
 463 0f0b EC652958 		.ascii	"\354e)Xn\233\002/KA\344\372\307t)B[\015Xi\3043\213\313"
 463      6E9B022F 
 463      4B41E4FA 
 463      C7742942 
 463      5B0D5869 
 464 0f23 C69BA57C 		.ascii	"\306\233\245|\214\217\322S\260\006\333`\372\327\017"
 464      8C8FD253 
 464      B006DB60 
 464      FAD70F
 465 0f32 4C3DC080 		.ascii	"L=\300\200m\267\015f\265[o\035\352\302zl\363&\314\367"
 465      6DB70D66 
 465      B55B6F1D 
 465      EAC27A6C 
 465      F326CCF7 
 466 0f46 63FE11E6 		.ascii	"c\376\021\346\007X-\220\204\335]\215~+5\216\014j\314"
 466      07582D90 
 466      84DD5D8D 
 466      7E2B358E 
 466      0C6ACC
 467 0f59 8A0ABCB8 		.ascii	"\212\012\274\270Vm\273\222m\333\023]9\006\034\257\265"
 467      566DBB92 
 467      6DDB135D 
 467      39061CAF 
 467      B5
 468 0f6a 76B5CD3A 		.ascii	"v\265\315:\255\0168\024\030&\350\266\021\365\3322\363"
 468      AD0E3814 
 468      1826E8B6 
 468      11F5DA32 
 468      F3
 469 0f7b 749D6EAF 		.ascii	"t\235n\257\373\327<xq6S\314\247.\002\005\373\3016\230"
 469      FBD73C78 
 469      713653CC 
 469      A72E0205 
 469      FBC13698 
 470 0f8f 57B0FCB0 		.ascii	"W\260\374\260O\367\301\004\006W\377n\340\263\300\257"
 470      4FF7C104 
 470      0657FF6E 
ARM GAS  /tmp/ccJlXFA4.s 			page 37


 470      E0B3C0AF 
 471 0f9f E1       		.ascii	"\341"
 472 0fa0 A4E824E6 		.ascii	"\244\350$\346\265\3302\3231\177\017\363\303\230\037"
 472      B5D832D3 
 472      317F0FF3 
 472      C3981F
 473 0faf C1FC184F 		.ascii	"\301\374\030O\213]\021\231\026\373\031Yh\263\261\327"
 473      8B5D1199 
 473      16FB1959 
 473      68B3B1D7 
 474 0fbf 52DF62AD 		.ascii	"R\337b\255\207\216\275\251\265\330\024\2346\335\262"
 474      878EBDA9 
 474      B5D8149C 
 474      36DDB2
 475 0fce 8DA86FB1 		.ascii	"\215\250o\261+4dE\301^\350\306\001f\326\271\315%\334"
 475      2B346445 
 475      C15EE8C6 
 475      0166D6B9 
 475      CD25DC
 476 0fe1 C648F847 		.ascii	"\306H\370G\224\360e\224\360\247(\275\317y\244\367CL"
 476      94F06594 
 476      F0A728BD 
 476      CF79A4F7 
 476      434C
 477 0ff3 7A29C264 		.ascii	"z)\302d\372\370\2432^|\2261\010"
 477      FAF8A332 
 477      5E7C9631 
 477      08
 478 1000 4C27675F 		.ascii	"L'g_Ot\312\231B6zu\023\215ti\324\221\013\264[\323s\355"
 478      4F74CA99 
 478      42367A75 
 478      138D7469 
 478      D4910BB4 
 479 1018 0CAAF411 		.ascii	"\014\252\364\021\352\224\310\305\226\203\357\234\353"
 479      EA94C8C5 
 479      9683EF9C 
 479      EB
 480 1025 B982D85F 		.ascii	"\271\202\330_\345V\373_\306O\020\015\217\3209\255\215"
 480      E556FB5F 
 480      C64F100D 
 480      8FD039AD 
 480      8D
 481 1036 F019A7EE 		.ascii	"\360\031\247\356\021:S\217.Q\204z\356\312K\275\250\013"
 481      113A538F 
 481      2E51847A 
 481      EECA4BBD 
 481      A80B
 482 1048 F435BA40 		.ascii	"\3645\272@7\272\331\214Pc\364\327\350\0025\320\347p"
 482      37BAD98C 
 482      5063F4D7 
 482      E80235D0 
 482      E770
 483 105a BFE372E1 		.ascii	"\277\343r\3416\355~\327\322\2053x\244\306\240\333\264"
 483      36ED7ED7 
 483      D2853378 
 483      A4C6A0DB 
 483      B4
ARM GAS  /tmp/ccJlXFA4.s 			page 38


 484 106b EEA2E9A3 		.ascii	"\356\242\351\243\266\272\313d\361\202\223\314\270\277"
 484      B6BACB64 
 484      F18293CC 
 484      B8BF
 485 1079 375239BD 		.ascii	"7R9\275\006\251\374\236\213\312\231\2731\222f\375\264"
 485      06A9FC9E 
 485      8BCA99BB 
 485      319266FD 
 485      B4
 486 108a 23FF12C9 		.ascii	"#\377\022\311\272ug~\277\012\303\022m\370\\\353\347"
 486      BA75677E 
 486      BF0AC312 
 486      6DF85CEB 
 486      E7
 487 109b DD8DE6DD 		.ascii	"\335\215\346\335eX!q\351WH\\\251\261\023u\205\304\252"
 487      65582171 
 487      E957485C 
 487      A9B11375 
 487      85C4AA
 488 10ae 692E390D 		.ascii	"i.9\015\217Y>\236f\252/\\\033\030\266b(.\301\272\252"
 488      8F593E9E 
 488      66AA2F5C 
 488      1B18B662 
 488      282EC1BA 
 489 10c3 15253F39 		.ascii	"\025%?9\331PK\224\2366|\012XH\370\344'\306\247\331\221"
 489      D9504B94 
 489      9E367C0A 
 489      5848F8E4 
 489      27C6A7D9 
 490 10d8 E94B94DA 		.ascii	"\351K\224\332\367I\373=sW\036\352\331q&d\350}mq\272"
 490      F749FB3D 
 490      73571EEA 
 490      D9712664 
 490      E87D6D71 
 491 10ed DF2D4ED1 		.ascii	"\337-N\321R\347\301\012e\274\353\027\213\345&+\226\263"
 491      52E7C10A 
 491      65BCEB17 
 491      8BE5262B 
 491      96B3
 492 10ff B6C5E265 		.ascii	"\266\305\342e\305\242\200%Ju\307\023Is\034fj\\\226\""
 492      C5A28025 
 492      4A75C713 
 492      49731C66 
 492      6A5C9622 
 493 1113 892ED073 		.ascii	"\211.\320s\2614\311\305\260\364=\017K\326\376\340/c"
 493      B134C9C5 
 493      B0F43D0F 
 493      4BD6FEE0 
 493      2F63
 494 1125 E9551396 		.ascii	"\351U\023\226\270Xx\305e\210$^\262\315\206W\320\177"
 494      B85878C5 
 494      6588245E 
 494      B2CD8657 
 494      D07F
 495 1137 620EDE45 		.ascii	"b\016\336E\034\336n\320p\270\213\344/\2738\206\272\363"
 495      1CDE6ED0 
 495      70B88BE4 
ARM GAS  /tmp/ccJlXFA4.s 			page 39


 495      2FBB3886 
 495      BAF3
 496 1149 ACA65C41 		.ascii	"\254\246\\Az\276\263\337\201\314>\354  \213g\321\273"
 496      7ABEB3DF 
 496      81CC3EEC 
 496      20208B67 
 496      D1BB
 497 115b 3DC733FA 		.ascii	"=\3073\372~\025#)*bf\243\023%\365\232\301B\376ZX\254"
 497      7E152329 
 497      2A6266A3 
 497      1325F59A 
 497      C142FE5A 
 498 1171 28B53874 		.ascii	"(\2658t\236#\255Ka$a\342\355\344\272/\234}Lo\247\336"
 498      9E23AD4B 
 498      612461E2 
 498      EDE4BA2F 
 498      9C7D4C6F 
 499 1187 8C565666 		.ascii	"\214VVf\203W\"\322{I\302\344\004\025U\212\376Qx\213"
 499      835722D2 
 499      7B49C2E4 
 499      0415558A 
 499      FE51788B 
 500 119b E8CDB1AF 		.ascii	"\350\315\261\257\362\207\252\257/\260\256\244\3627\315"
 500      F287AAAF 
 500      2FB0AEA4 
 500      F237CD
 501 11aa A57B4926 		.ascii	"\245{I&\031\364[.\266l\330|\256\224<\302\253\264\267"
 501      19F45B2E 
 501      B66CD87C 
 501      AE943CC2 
 501      ABB4B7
 502 11bd FFC538E2 		.ascii	"\377\3058\342\023\367\300JZs\\\011\207|]\3446\372\316"
 502      13F7C04A 
 502      5A735C09 
 502      877C5DE4 
 502      36FACE
 503 11d0 898102F3 		.ascii	"\211\201\002\363\342\215]\375\361\025\020o\270\310\210"
 503      E28D5DFD 
 503      F115106F 
 503      B8C888
 504 11df 3FEFF6C4 		.ascii	"?\357\366\304\001`\035\014\241\243\316e\030K\217\354"
 504      01601D0C 
 504      A1A3CE65 
 504      184B8FEC 
 505 11ef C1B19494 		.ascii	"\301\261\224\224'\036KON\266\016`\033G|\335\013\005"
 505      271E4B4F 
 505      4EB60E60 
 505      1B477CDD 
 505      0B05
 506 1201 2561C9ED 		.ascii	"%a\311\355\346#\276\3562Y\\\354\"#\376\022#\225\353"
 506      E623BEEE 
 506      32595CEC 
 506      2223FE12 
 506      2395EB
 507 1214 2623954B 		.ascii	"&#\225K\270\250l\330\223`\304\217\337T\313\2225\034"
 507      B8A86CD8 
 507      9360C48F 
ARM GAS  /tmp/ccJlXFA4.s 			page 40


 507      DF54CB92 
 507      351C
 508 1226 6FB3B66F 		.ascii	"o\263\266o\015\266\016!8\251Q\216\332>\212)\011\215"
 508      0DB60E21 
 508      38A9518E 
 508      DA3E8A29 
 508      098D
 509 1238 B6C1BCD6 		.ascii	"\266\301\274\326`\373x\300\022Ye\015\354\220m0\023\312"
 509      60FB78C0 
 509      1259650D 
 509      EC906D30 
 509      13CA
 510 124a 926DA975 		.ascii	"\222m\251u\361F-u\267J\364\273:^\033\177\347j\331\265"
 510      F1462D75 
 510      B74AF4BB 
 510      3A5E1B7F 
 510      E76AD9B5 
 511 125e B19695C5 		.ascii	"\261\226\225\305\211Q\025\215\303\262\365\216\326_\306"
 511      8951158D 
 511      C3B2F58E 
 511      D65FC6
 512 126d F2663B2C 		.ascii	"\362f;,\253\236[R,obY\276\356\264\313r\034\375;\311"
 512      AB9E5B52 
 512      2C6F6259 
 512      BEEEB4CB 
 512      721CFD3B 
 513 1282 A332D61B 		.ascii	"\2432\326\033`\177\231\374>\260\226\237\251Q\263\334"
 513      607F99FC 
 513      3EB0969F 
 513      A951B3DC 
 514 1292 67A2DAE4 		.ascii	"g\242\332\344\031\333/y\320&\357A\233\274\240\207\315"
 514      19DB2F79 
 514      D026EF41 
 514      9BBCA087 
 514      CD
 515 12a3 ED2A8484 		.ascii	"\355*\204\204}Fkw\325\357\245\245\211m\335\317o\251"
 515      7D466B77 
 515      D5EFA5A5 
 515      896DDDCF 
 515      6FA9
 516 12b5 FB046818 		.ascii	"\373\004h\030\344=\274\377\276d\255N\344\232\237D\017"
 516      E43DBCFF 
 516      BE64AD4E 
 516      E49A9F44 
 516      0F
 517 12c6 28D6FBB6 		.ascii	"(\326\373\266\261\274f\204j:\024\343R\026\367\273\210"
 517      B1BC6684 
 517      6A3A14E3 
 517      5216F7BB 
 517      88
 518 12d7 9BF121FA 		.ascii	"\233\361!\372?\037\363\370?\273u\3166\227\002\357d\255"
 518      3F1FF3F8 
 518      3FBB75CE 
 518      369702EF 
 518      64AD
 519 12e9 F1B61E76 		.ascii	"\361\266\036vu\316\310K\314\205[\212d\257\300\374=\314"
 519      75CEC84B 
ARM GAS  /tmp/ccJlXFA4.s 			page 41


 519      CC855B8A 
 519      64AFC0FC 
 519      3DCC
 520 12fb 5761BE06 		.ascii	"Wa\276\006\363\215\230o\307|\007\017ko\262\035\355u"
 520      F38D986F 
 520      C77C070F 
 520      6B6FB21D 
 520      ED75
 521 130d B42D75C9 		.ascii	"\264-u\311\266_K\353\241\253\375\360%\256\374/\226\002"
 521      B65F4BEB 
 521      A1ABFDF0 
 521      25AEFC2F 
 521      9602
 522 131f 0DA62FC4 		.ascii	"\015\246/\304:\344\"/\226\332c\320`\316\027K\035q\031"
 522      3AE4222F 
 522      96DA63D0 
 522      60CE174B 
 522      1D7119
 523 1332 5E2CB5E9 		.ascii	"^,\265\351y/-\215\243\303\352\333\237\016\365\350\370"
 523      792F2D8D 
 523      A3C3EADB 
 523      9F0EF5E8 
 523      F8
 524 1343 5AA9933D 		.ascii	"Z\251\223=L_+\365M\017\323\327J\265\3660}\255\224r\207"
 524      4C5F2BF5 
 524      4D0FD3D7 
 524      4AB5F630 
 524      7DAD9472 
 525 1358 FEB5526A 		.ascii	"\376\265Rjqm\254\330\305\024\317\217\025\273\231\342"
 525      716DACD8 
 525      C514CF8F 
 525      15BB99E2 
 526 1368 65B1620F 		.ascii	"e\261b\017S\274>V\234\302\264H\334\215\3461!\311\342"
 526      53BC3E56 
 526      9CC2B448 
 526      DC8DE631 
 526      21C9E2
 527 137b 51EC02C7 		.ascii	"Q\354\002\307\\\346\257\254\202\351\213d\320\004[\257"
 527      5CE6AFAC 
 527      82E98B64 
 527      D0045BAF 
 528 138b A5555013 		.ascii	"\245UP\023\306\223w\315h/\240#\363\331\245\261\225\001"
 528      C69377CD 
 528      682FA023 
 528      F3D9A5B1 
 528      9501
 529 139d 7DA885DC 		.ascii	"}\250\205\334\361\234\313\366\273\362\324pG\224\032"
 529      F19CCBF6 
 529      BBF2D470 
 529      47941A
 530 13ac F524F612 		.ascii	"\365$\366\022\310\310\035\242\236\213\304[&X\205&\232"
 530      C8C81DA2 
 530      9E8BC45B 
 530      26588526 
 530      9A
 531 13bd 872307A1 		.ascii	"\207#\007\241M\022vq\241%\032:4\373\326dD3\353kq\342"
 531      4D127671 
ARM GAS  /tmp/ccJlXFA4.s 			page 42


 531      A1251A3A 
 531      34FBD664 
 531      4433EB6B 
 532 13d3 CF57275B 		.ascii	"\317W'[\257`\306[\220\225\305V\214w\306\"\240\244\314"
 532      AF60C65B 
 532      9095C556 
 532      8C77C622 
 532      A0A4CC
 533 13e6 76F4F312 		.ascii	"v\364\363\022k7>7jKB^\274:^\332\367h+944z\320(\0333"
 533      6B373E37 
 533      6A4B425E 
 533      BC3A5EDA 
 533      F7682B39 
 534 1401 EDE37F75 		.ascii	"\355\343\177ug\035c\373\027\242\342\327\243\201<\210"
 534      671D63FB 
 534      17A2E2D7 
 534      A3813C88 
 535 1411 F959CC2F 		.ascii	"\371Y\314/`\376\003\346\255\230\377\310c>\347\261b`"
 535      60FE03E6 
 535      AD98FFC8 
 535      633EE7B1 
 535      6260
 536 1423 860549F8 		.ascii	"\206\005I\370\342\016\323\271'\314\340\216\2123&*Ci"
 536      E20ED3B9 
 536      27CCE08E 
 536      8A33262A 
 536      4369
 537 1435 5D49B88C 		.ascii	"]I\270\214\327\315vYM!\325;\340\024r\202ra\322\244\256"
 537      D7CD7659 
 537      4D21D53B 
 537      E0147282 
 537      7261D2A4 
 538 144a A21614D6 		.ascii	"\242\026\024\326U3\330D\374\371J\307I\344\352\226H-"
 538      5533D844 
 538      FCF94AC7 
 538      49E4EA96 
 538      482D
 539 145c CC60C7B7 		.ascii	"\314`\307\267\264\267\367\241\363B\230&\233\222\252"
 539      B4B7F7A1 
 539      F3429826 
 539      9B92AA
 540 146b 2CF4AB44 		.ascii	",\364\253D\202+\207\003\303\265\344\210\274\026\237"
 540      822B8703 
 540      C3B5E488 
 540      BC169F
 541 147a C8EB1D89 		.ascii	"\310\353\035\211\254o\211l\302\367.\203j\264?.t\214"
 541      AC6F896C 
 541      C2F72E83 
 541      6AB43F2E 
 541      748C
 542 148c 972A7C8F 		.ascii	"\227*|\217\0135\275\245>.\244\270q)\372N=\237\374P\255"
 542      0B35BDA5 
 542      3E2EA4B8 
 542      7129FA4E 
 542      3D9FFC50 
 543 14a1 E78FB7A9 		.ascii	"\347\217\267\251P\023\021j\266\001J\026\005C\354U\320"
 543      5013116A 
ARM GAS  /tmp/ccJlXFA4.s 			page 43


 543      B6014A16 
 543      0543EC55 
 543      D0
 544 14b2 873BE1AB 		.ascii	"\207;\341\253\322\256~\350\003\001P\362\027!\251:V\312"
 544      D2AE7EE8 
 544      030150F2 
 544      1721A93A 
 544      56CA
 545 14c4 D86E6F96 		.ascii	"\330no\226o\266\343\262~Z\333%\011\307\343\027\335\304"
 545      6FB6E3B2 
 545      7E5ADB25 
 545      09C7E317 
 545      DDC4
 546 14d6 A35C75A7 		.ascii	"\243\\u\247\251G\031oG\353\006\254\362\212\3338\323"
 546      A947196F 
 546      47EB06AC 
 546      F28ADB38 
 546      D3
 547 14e7 7FDA4B4B 		.ascii	"\177\332KK\023{\225'\352U\257\222U>R59\257\362\323\022"
 547      137B9527 
 547      EA55AF92 
 547      553E5235 
 547      39AFF2D3 
 548 14fc E25592C5 		.ascii	"\342U\222\305.\230\312F\211\263\351Uj!\210\213M\224"
 548      2E98CA46 
 548      89B3E955 
 548      6A21888B 
 548      4D94
 549 150e B49508B7 		.ascii	"\264\225\010\267\223\007.\316\222\363\351\3576\222\027"
 549      93072ECE 
 549      92F3E9EF 
 549      369217
 550 151d F76B766F 		.ascii	"\367kvo\237\021.\341:\261\236\272\213\3771\247\257\206"
 550      9F112EE1 
 550      3AB19EBA 
 550      8BFF31A7 
 550      AF86
 551 152f 75D836D6 		.ascii	"u\3306\326\003fM\242\251f\254=e\36157\261\241S\334\304"
 551      03664DA2 
 551      A966AC3D 
 551      65F13537 
 551      B1A153DC 
 552 1544 4ABE8EF9 		.ascii	"J\276\216\3714\314\247c>\323\315a7'\273;\206\357\346"
 552      34CCA763 
 552      3ED3CD61 
 552      3727BB3B 
 552      86EFE6
 553 1557 E9A6C809 		.ascii	"\351\246\310\011w\346dk\230\307\231\011\321\325+\207"
 553      77E6646B 
 553      98C79909 
 553      D1D52B87 
 554 1567 7AD3C748 		.ascii	"z\323\307H\346\241\376N\273+\361\326\034=\220,\316w"
 554      E6A1FE4E 
 554      BB2BF1D6 
 554      1C3D902C 
 554      CE77
 555 1579 137D5B60 		.ascii	"\023}[`T\340\237i\020h\001\227\012\337\334\263$\331"
ARM GAS  /tmp/ccJlXFA4.s 			page 44


 555      54E09F69 
 555      10680197 
 555      0ADFDCB3 
 555      24D9
 556 158b 5055DD5D 		.ascii	"PU\335]\\\241\252EH\345b#\225\207)\225\213\271\250<"
 556      5CA1AA45 
 556      48E56223 
 556      95872995 
 556      8BB9A83C 
 557 159f B247ED68 		.ascii	"\262G\355hd\205D\233g/N\266\243i\376\315M\004\243q\012"
 557      6485449B 
 557      672F4EB6 
 557      A369FECD 
 557      4D04A371 
 558 15b4 3B605E33 		.ascii	";`^3\260Ih\002^\342\001K\0344\242\261\365)\266\301L"
 558      B0496802 
 558      5EE2014B 
 558      1C34A2B1 
 558      F529B6C1 
 559 15c9 284B765D 		.ascii	"(Kv]`\205;\361R\207\372\235\177ep\346\265\226\245\352"
 559      60853BF1 
 559      5287FA9D 
 559      7F6570E6 
 559      B596A5EA 
 560 15dd F0B40A87 		.ascii	"\360\264\012\207\247\225w\031\207\247$\236\236\0228"
 560      A7957719 
 560      87A7249E 
 560      9E1238
 561 15ec A7BAEFB8 		.ascii	"\247\272\357\270\231\251\356F\274s\002\341Z\207\247"
 561      99A9EE46 
 561      BC7302E1 
 561      5A87A7
 562 15fb 4807BE2F 		.ascii	"H\007\276/\341\362Z<\0017\304\023\360*7\177\010j=\313"
 562      E1F25A3C 
 562      0137C413 
 562      F02A377F 
 562      086A3DCB 
 563 160f 56A36DB6 		.ascii	"V\243m\266l\352L\274\025\303-\361X2F\331\324\025\300"
 563      6CEA4CBC 
 563      15C32DF1 
 563      583246D9 
 563      D415C0
 564 1622 A458DECC 		.ascii	"\244X\336\314\262\274\223\207\345_\022(\213\307\362"
 564      B2BC9387 
 564      E55F1228 
 564      8BC7F2
 565 1631 07F15836 		.ascii	"\007\361X6\306R\177\011\313;Y\226\367\332f\331+\350"
 565      C6527F09 
 565      CB3B5996 
 565      F7DA66D9 
 565      2BE8
 566 1643 3FB119D5 		.ascii	"?\261\031\325[8\030.\305\374m\314\227a\276\034\363u"
 566      5B38182E 
 566      C5FC6DCC 
 566      9761BE1C 
 566      F375
 567 1655 986FC27C 		.ascii	"\230o\302|\007\317\200Y\357\356\020\247Y\220\244\241"
ARM GAS  /tmp/ccJlXFA4.s 			page 45


 567      07CF8059 
 567      EFEE10A7 
 567      5990A4A1 
 568 1665 5622B7C8 		.ascii	"V\"\267\310\213\010x\267zl\273u\255\027z\204\373pD\255"
 568      8B0878B7 
 568      7A6CBB75 
 568      AD177A84 
 568      FB7044AD 
 569 1679 E96973A7 		.ascii	"\351is\247\207$\314\304*\037\031\207\252\0155\3706\346"
 569      8724CCC4 
 569      2A1F1987 
 569      AA0D35F8 
 569      36E6
 570 168b 8FB886AA 		.ascii	"\217\270\206\252M\234o]\257\217z\243=\204\330cD7Ep>"
 570      4D9C6F5D 
 570      AF8F7AA3 
 570      3D84D863 
 570      44374570 
 571 16a0 0F21FD8B 		.ascii	"\017!\375\213\314\351\267\306\220\204uX\345\210\221"
 571      CCE9B7C6 
 571      90847558 
 571      E58891
 572 16af FECBB297 		.ascii	"\376\313\262\227\226&\246\376\252\366<\325A7\272\215"
 572      9626A6FE 
 572      AAF63CD5 
 572      4137BA8D 
 573 16bf 51C0E43C 		.ascii	"Q\300\344<\332\033\030'\245\317f\355\263\215\345\325"
 573      DA1B1827 
 573      A5CF66ED 
 573      B38DE5D5 
 574 16cf 614DDBAD 		.ascii	"aM\333\255=UG\037\204;\312\203\027\307\245\235Avm\331"
 574      3D55471F 
 574      843BCA83 
 574      17C7A59D 
 574      41766DD9 
 575 16e3 79EE77AF 		.ascii	"y\356w\257\366\334/\216\\-=\377\027F.I\270`\233\013"
 575      F6DC2F8E 
 575      5C2D3DFF 
 575      17462E49 
 575      B8609B0B 
 576 16f7 9D545AB6 		.ascii	"\235TZ\266\337:\323S{\244\212\022v\205\007\321l`3\373"
 576      DF3AD353 
 576      7BA48A12 
 576      768507D1 
 576      6C6033FB 
 577 170b B0DA248B 		.ascii	"\260\332$\213\307\320\237>\216\306\340S\314?\307\374"
 577      C7D09F3E 
 577      8EC6E053 
 577      CC3FC7FC 
 578 171b 14E65FF2 		.ascii	"\024\346_\362\230\207\203\254\031Szi\375\315\246z\231"
 578      988783AC 
 578      19537A69 
 578      FDCDA67A 
 578      99
 579 172c 93FA1143 		.ascii	"\223\372\021C\352\001$\265\231%I\022^\304\373\3311G"
 579      EA0124B5 
 579      99254912 
ARM GAS  /tmp/ccJlXFA4.s 			page 46


 579      5EC4FBD9 
 579      3147
 580 173e 7A615FBD 		.ascii	"za_\275r\255O\333\004eN_\356\260q\344\232[\222\305\357"
 580      72AD4FDB 
 580      04654E5F 
 580      EEB071E4 
 580      9A5B92C5 
 581 1753 DC24643C 		.ascii	"\334$d<\245WR!\343\363nC\310\270\215\376\027\001)O\034"
 581      A5575221 
 581      E3F36E43 
 581      C8B88DFE 
 581      1701294F 
 582 1768 349ED3AB 		.ascii	"4\236\323\253c\320xQ/\323\240\361;\275\364AcU\012qC"
 582      63D07851 
 582      2FD3A0F1 
 582      3BBDF441 
 582      63550A71 
 583 177d B531E264 		.ascii	"\2651\342d\361o(\362\013\356\370\241\332\0056&z\002"
 583      F16F28F2 
 583      0BEEF8A1 
 583      DA053626 
 583      7A02
 584 178f 237D25D2 		.ascii	"#}%\322\276\207<9\312\373\034\330\261\025\347\325g\343"
 584      BE873C39 
 584      CAFB1CD8 
 584      B115E7D5 
 584      67E3
 585 17a1 7E44737A 		.ascii	"~Dsz\256Wbsj\202\003f\007_\352z\025A~\262\013\"\011"
 585      AE576273 
 585      6A820366 
 585      075FEA7A 
 585      15417EB2 
 586 17b8 13EFC61D 		.ascii	"\023\357\306\035\267F\233\334H\367\346]\343\260\312"
 586      B7469BDC 
 586      48F7E65D 
 586      E3B0CA
 587 17c7 E46F3FE8 		.ascii	"\344o?\350\303\341\332S\263"
 587      C3E1DA53 
 587      B3
 588 17d0 AF4631D5 		.ascii	"\257F1\325\233>\301\212/\261Yn\246\033V\351\356\274"
 588      9B3EC18A 
 588      2FB1596E 
 588      A61B56E9 
 588      EEBC
 589 17e2 5946309B 		.ascii	"YF0\233v\364p\364\001\360\361\030'\254\267\215\247\353"
 589      76F470F4 
 589      01F0F118 
 589      27ACB78D 
 589      A7EB
 590 17f4 64914F28 		.ascii	"d\221O(q\024l9\017X\234\327\"\035g\301V\331\006\323"
 590      71146C39 
 590      0F589CD7 
 590      221D67C1 
 590      56D906D3 
 591 1808 53F6290B 		.ascii	"S\366)\013\266\201\007,\316\373\211N\252\303Y\222\177"
 591      B681072C 
 591      CEFB894E 
ARM GAS  /tmp/ccJlXFA4.s 			page 47


 591      AAC35992 
 591      7F
 592 1819 2FF18AC7 		.ascii	"/\361\212\307:\204F\265\325\252\346k\036\363H\260\365"
 592      3A8446B5 
 592      D5AAE66B 
 592      1EF348B0 
 592      F5
 593 182a D817994D 		.ascii	"\330\027\231M\035\240\227=\204\361\355w\353\373\200"
 593      1DA0973D 
 593      84F1ED77 
 593      EBFB80
 594 1839 E1D68430 		.ascii	"\341\326\2040\253[O\365X\277\330\330\360\033\370\270"
 594      AB5B4FF5 
 594      58BFD8D8 
 594      F01BF8B8 
 595 1849 B605AC6F 		.ascii	"\266\005\254o\255\3235\272G\203\017\361\300yM\332\313"
 595      ADD335BA 
 595      47830FF1 
 595      C0794DDA 
 595      CB
 596 185a ECC37668 		.ascii	"\354\303vhY\274\201\206\357&\016\202\355\230\217\367"
 596      59BC8186 
 596      EF260E82 
 596      ED988FF7 
 597 186a 907C22E6 		.ascii	"\220|\"\346\2230\237\214\371K\230\327z\356\377{\243"
 597      93309F8C 
 597      F94B98D7 
 597      7AEEFF7B 
 597      A3
 598 187b 4AC289BB 		.ascii	"J\302\211\273\015c\235\3360%\352\207\012\016v\370\\"
 598      0D639DDE 
 598      3025EA87 
 598      0A0E76F8 
 598      5C
 599 188c 2FBFC53D 		.ascii	"/\277\305=|\037\265\270\263<\304J\265\030\024\205\252"
 599      7C1FB5B8 
 599      B33CC44A 
 599      B5181485 
 599      AA
 600 189d E5DF8BDF 		.ascii	"\345\337\213\337\037\270\370\265|\313B\224\3379}\331"
 600      1FB8F8B5 
 600      7CCB4294 
 600      DF397DD9 
 601 18ad BFA26276 		.ascii	"\277\242bv\266*Q\205Q4}~\303\323M=\323\376\350\215\370"
 601      B62A5185 
 601      51347D7E 
 601      C3D34D3D 
 601      D3FEE88D 
 602 18c2 5F46420C 		.ascii	"_FB\014\025\325s\313\367\365\341b\236\303M\321%\341"
 602      15D573CB 
 602      F7F5E162 
 602      9EC34DD1 
 602      25E1
 603 18d4 673EB866 		.ascii	"g>\270f\247\025\236\331\004\327\354\337Tt\177\302\253"
 603      A7159ED9 
 603      04D7ECDF 
 603      54747FC2 
ARM GAS  /tmp/ccJlXFA4.s 			page 48


 603      AB
 604 18e5 36E9276D 		.ascii	"6\351'm?\277\244\276\335\341Ml\323\033\2066M\010D\204"
 604      3FBFA4BE 
 604      DDE14D6C 
 604      D31B8636 
 604      4D084484 
 605 18f9 B3C46318 		.ascii	"\263\304c\030\374\026\234i\022q\246F~I0\374\27501\262"
 605      FC169C69 
 605      1271A646 
 605      7E4930FC 
 605      BD3031B2 
 606 190d E64C93C4 		.ascii	"\346L\223\304\374\037\210,.\244\373l<\311>D\270\366"
 606      FC1F882C 
 606      2EA4FB6C 
 606      3CC93E44 
 606      B8F6
 607 191f 8C1A1CA7 		.ascii	"\214\032\034\247po\332\206\363\352\340\326\353\341\016"
 607      706FDA86 
 607      F3EAE0D6 
 607      EBE10E
 608 192e 491C7071 		.ascii	"I\034pq\036$|_\017\367\006\017uq\036%\334\250\207[\300"
 608      1E247C5F 
 608      0FF7060F 
 608      75711E25 
 608      DCA8875B 
 609 1943 0317E761 		.ascii	"\003\027\347a\302\315,\234$\274|\217h\023NO\335V=\334"
 609      C2CD2C9C 
 609      24BC7C8F 
 609      68134E4F 
 609      DD563DDC 
 610 1957 141E38B3 		.ascii	"\024\0368\263Q\325\354\303j\236,\276\345!\366e)\332"
 610      51D5ECC3 
 610      6A9E2CBE 
 610      E521F665 
 610      29DA
 611 1969 8EB7315F 		.ascii	"\216\2671_\206\371r\314\337\301|\005\346\357\261\226"
 611      86F972CC 
 611      DFC17C05 
 611      E6EFB196 
 612 1979 C56A2CAB 		.ascii	"\305j,\253\3670\023\231\351\367pL,\232\343\356}\326"
 612      F7301399 
 612      E9F7704C 
 612      2C9AE3EE 
 612      7DD6
 613 198b D1BD80B1 		.ascii	"\321\275\200\261\213uh\027\027\242E\334\213\371\267"
 613      8B756817 
 613      17A245DC 
 613      8BF9B7
 614 199a 98B7D145 		.ascii	"\230\267\321E\014\244x\036\346\0130_\310C\375\\\267"
 614      0CA4781E 
 614      E60B305F 
 614      C843FD5C 
 614      B7
 615 19ab E5462149 		.ascii	"\345F!I\230{\217\305\212\360\231^{\351n\344\311\030"
 615      987B8FC5 
 615      8AF0995E 
 615      7BE96EE4 
ARM GAS  /tmp/ccJlXFA4.s 			page 49


 615      C918
 616 19bd 1D588ED7 		.ascii	"\035X\216\327\335\262\\l\305\265\023u\215\366\240?\272"
 616      DDB25C6C 
 616      C5B51375 
 616      8DF6A03F 
 616      BA
 617 19ce 90FC6E82 		.ascii	"\220\374n\202j\270\274\242\337\304<\027\357\267:AE\225"
 617      6AB8BCA2 
 617      DFC43C17 
 617      EFB73A41 
 617      4595
 618 19e0 297513F3 		.ascii	")u\023\363\232\317\363{\322\005UA_\313lmw\265\307lm"
 618      9ACFF37B 
 618      D2055541 
 618      5FCB6C6D 
 618      77B5C76C 
 619 19f5 77E1BE29 		.ascii	"w\341\276)\332\332n\212\3015#DZ\011w\223\307\020\023"
 619      DADA6E8A 
 619      C1352344 
 619      5A097793 
 619      C71013
 620 1a08 248230C8 		.ascii	"$\2020\310x\235\251\214\351R6\275|\255\207t\324\215"
 620      789DA98C 
 620      E95236BD 
 620      7CAD8774 
 620      D48D
 621 1a1a 9EB8D28D 		.ascii	"\236\270\322\215.eo\301-\333te\312\272\226J\340\026"
 621      2E656FC1 
 621      2DDB7465 
 621      CABA964A 
 621      E016
 622 1a2c 536E8FED 		.ascii	"Sn\217\355{\325\212[\262\210h\305\355v\016nw\231s{\275"
 622      7BD58A5B 
 622      B28868C5 
 622      ED760E6E 
 622      7799737B 
 623 1a41 C4C0ED36 		.ascii	"\304\300\3556Nn\327!\267\364\317D\255k\251\004\3560"
 623      4E6ED721 
 623      B7F4CF44 
 623      AD6BA904 
 623      EE30
 624 1a53 E5B6FDE5 		.ascii	"\345\266\375\345\375`x\224\033\355\355\344\3610\301"
 624      FD607894 
 624      1BEDEDE4 
 624      F130C1
 625 1a62 C6DEC8BF 		.ascii	"\306\336\310\277r0|\300\234\341\233F\206wq2l\330\251"
 625      72307CC0 
 625      9CE19B46 
 625      86777132 
 625      6CD8A9
 626 1a75 C05433D3 		.ascii	"\300T3\323\346=z\216\377$:f;\351\316\374\251-\007\337"
 626      E63D7A8E 
 626      FF243A66 
 626      3BE9CEFC 
 626      A92D07DF 
 627 1a89 D9593D57 		.ascii	"\331Y=W\331\211;\363\215\\\307\211s\177hd\232<j`|\240"
 627      D9893BF3 
ARM GAS  /tmp/ccJlXFA4.s 			page 50


 627      8D5CC789 
 627      737F6864 
 627      9A3C6A60 
 628 1a9f 41FDCE1B 		.ascii	"A\375\316\033\260\275\271\355p\357\215\364\015\216\350"
 628      B0BDB9ED 
 628      70EF8DF4 
 628      0D8EE8
 629 1aae 5C4CEB6D 		.ascii	"\\L\353m3b\253NO\326\\ Q\323\303\2101\327\200!\2139"
 629      3362AB4E 
 629      4FD65C20 
 629      51D3C388 
 629      31D78021 
 630 1ac4 069F33C7 		.ascii	"\006\2373\307\360\006\2535_:\224\251)X.\011\353{\353"
 630      F006AB35 
 630      5F3A94A9 
 630      29582E09 
 630      EB7BEB
 631 1ad7 231C4CBD 		.ascii	"#\034L\275!VN{N\314V\037\3051\306p\245A5\266\031(\324"
 631      21564E7B 
 631      4ECC561F 
 631      C531C670 
 631      A54135B6 
 632 1aee 2E3ADEA1 		.ascii	".:\336\241\321\346D\033\255\365\320\345\011\342\264"
 632      D1E6441B 
 632      ADF5D0E5 
 632      09E2B4
 633 1afd 89F54DCA 		.ascii	"\211\365M\312E\0227\324\366\3034Y@}\326Q\343\001\244"
 633      451237D4 
 633      F6C33459 
 633      407DD651 
 633      E301A4
 634 1b10 716B5D2F 		.ascii	"qk]/\363\226\347\017g\255\373\230\210\372\224\207\304"
 634      F396E70F 
 634      67ADFB98 
 634      88FA9487 
 634      C4
 635 1b21 B38E1AEE 		.ascii	"\263\216\032\356\316\031\317\372\302c\210g\235x\005"
 635      CE19CFFA 
 635      C2638867 
 635      9D7805
 636 1b30 E359A43C 		.ascii	"\343Y\244<q<\353T\357\216\361\254\257z\233\306\263."
 636      713CEB54 
 636      EF8EF1AC 
 636      AF7A9BC6 
 636      B32E
 637 1b42 F636DD04 		.ascii	"\3666\335\004y\275\267\351&\310\027\3575\335\0049\375"
 637      79BDB7E9 
 637      26C817EF 
 637      35DD0439 
 637      FD
 638 1b53 5ED34D90 		.ascii	"^\323M\220u\367\232n\202\\y\257\351&\310\215\367\352"
 638      75F79A6E 
 638      825C79AF 
 638      E926C88D 
 638      F7EA
 639 1b65 3741AAC5 		.ascii	"7A\252\305;b\305\251L\361\341Xq'\246\370\233Xq\032S"
 639      3B62C5A9 
ARM GAS  /tmp/ccJlXFA4.s 			page 51


 639      4CF1E158 
 639      7127A6F8 
 639      9B58711A 
 640 1b7a 7C35569C 		.ascii	"|5V\234\316\024\327\334\027-\276\215)\236\035+\356\314"
 640      CE14D7DC 
 640      172DBE8D 
 640      299E1D2B 
 640      EECC
 641 1b8c 14BF1D2B 		.ascii	"\024\277\035+\356\302\024\257\215\025we\212\267\306"
 641      EEC214AF 
 641      8D157765 
 641      8AB7C6
 642 1b9b 8ABB31C5 		.ascii	"\212\2731\305\007b\305\335Y\272c\305\267\253mI\276\306"
 642      0762C5DD 
 642      59BA63C5 
 642      B7AB6D49 
 642      BEC6
 643 1bad 0D2BC674 		.ascii	"\015+\306tD\026\317`\237\372\322c\036V\264\262W'\215"
 643      4416CF60 
 643      9FFAD263 
 643      1E56B4B2 
 643      57278D
 644 1bc0 F68A0C16 		.ascii	"\366\212\014\026I>\030\252\352\376\014\267\304\361>"
 644      493E18AA 
 644      EAFE0CB7 
 644      C4F13E
 645 1bcf 5F597C3D 		.ascii	"_Y|=\205\3575\330\240\212\367\031\215\325b\343\313\234"
 645      85EF35D8 
 645      A08AF719 
 645      8DD562E3 
 645      CB9C
 646 1be1 937F9BF6 		.ascii	"\223\177\233\366k)\246\017^6\210\035\327\034%a|\037"
 646      6B29A60F 
 646      5E36881D 
 646      D71C2561 
 646      7C1F
 647 1bf3 734B323D 		.ascii	"sK2=\305\314\222\264\326\232\232\243\227,@f\232\202"
 647      C5CC92B4 
 647      D69A9AA3 
 647      972C4066 
 647      9A82
 648 1c05 4CFDE1EC 		.ascii	"L\375\341\354\343V\003Q\234\300\327\354\024C\303\256"
 648      E3560351 
 648      9CC0D7EC 
 648      1443C3AE 
 649 1c15 C237DAEA 		.ascii	"\3027\332\352\270\231aA\310\\SB.\326\376(%A\310\033"
 649      B8996141 
 649      C85C5342 
 649      2ED6FE28 
 649      2541C81B 
 650 1c29 464288F3 		.ascii	"FB\210\363\025\375\242n;5\020\266\320\202\260:3\302"
 650      15FDA26E 
 650      3B3510B6 
 650      D082B03A 
 650      33C2
 651 1c3b 22DBF6BF 		.ascii	"\"\333\366\277\252\210t\007$?Y\365fd\031\310XfA\306"
 651      AA887407 
ARM GAS  /tmp/ccJlXFA4.s 			page 52


 651      243F59F5 
 651      666419C8 
 651      586641C6 
 652 1c4f 223D19FF 		.ascii	"\"=\031\377 \274\251D\232\301\357\277tF\204\221\270"
 652      20BCA944 
 652      9AC1EFBF 
 652      74468491 
 652      B8
 653 1c60 89C4E0DB 		.ascii	"\211\304\340\333\305> r\374O\350\367\243(Zd\342W\032"
 653      C53E2072 
 653      FC4FE8F7 
 653      A3285A64 
 653      E2571A
 654 1c73 31AB356A 		.ascii	"1\2535j\226\304\020)Z\244ay*8B\2508\332_co2\002=\255"
 654      96C41029 
 654      5AA46179 
 654      2A3842A8 
 654      38DA5F63 
 655 1c8c E168EF50 		.ascii	"\341h\357PZ\252\302\014\024\326)/F\372\322\212t3\360"
 655      5AAAC20C 
 655      14D6292F 
 655      46FAD28A 
 655      7433F0
 656 1c9f FF08D794 		.ascii	"\377\010\327\224\027\225\310\246;\350\3169r\027h\323"
 656      1795C8A6 
 656      3BE8CE39 
 656      721768D3 
 657 1caf B65937DF 		.ascii	"\266Y7\337\026k\225\372\030\315\364\177\254#\035h\326"
 657      166B95FA 
 657      18CDF47F 
 657      AC231D68 
 657      D6
 658 1cc0 FD6B35EE 		.ascii	"\375k5\356\022\321\011\201\3565\2467!{bG\032\302\235"
 658      12D10981 
 658      EE35A637 
 658      217B6247 
 658      1AC29D
 659 1cd3 D3E2FCBD 		.ascii	"\323\342\374\275\325\273\261\036\2502\337\266\214a~"
 659      D5BBB11E 
 659      A832DFB6 
 659      8C617E
 660 1ce2 1AFE61D7 		.ascii	"\032\376a\327\356\204\314\257\3241\377\004\255H\377"
 660      EE84CCAF 
 660      D431FF04 
 660      AD48FF
 661 1cf1 B78C5C39 		.ascii	"\267\214\\9O\242^\360|\365;\371\2078\005\250u\012\364"
 661      4FA25EF0 
 661      7CF53BF9 
 661      873805A8 
 661      750AF4
 662 1d04 FFCC4899 		.ascii	"\377\314H\231\203\330u\372\307f\352\327\276\032{\237"
 662      83D875FA 
 662      C766EAD7 
 662      BE1A7B9F 
 663 1d14 47D98B34 		.ascii	"G\331\2134\336AiV\211\235\271\274\003\261\037&$v\355"
 663      DE416956 
 663      899DB9BC 
ARM GAS  /tmp/ccJlXFA4.s 			page 53


 663      03B11F26 
 663      2476ED
 664 1d27 DF83D8AE 		.ascii	"\337\203\330\256\254\030\225C\221\023\033\311*\265F"
 664      AC189543 
 664      91131BC9 
 664      2AB546
 665 1d36 1A9D1C1E 		.ascii	"\032\235\034\0362\222\326\2419\032\364\272\0108G\226"
 665      3292D6A1 
 665      391AF4BA 
 665      08384796 
 666 1d46 B0387452 		.ascii	"\2608tR{2!\316\206\030N\222\301\373M\372>\232.\274\302"
 666      7B3221CE 
 666      86184E92 
 666      C1FB4DFA 
 666      3E9A2EBC 
 667 1d5b AA548EB5 		.ascii	"\252T\216\265FmII\027\014\037\253K7\306\224\317\240"
 667      466D4949 
 667      170C1FAB 
 667      4B37C694 
 667      CFA0
 668 1d6d B2CD16D1 		.ascii	"\262\315\026\321\025Rk\253e\255\017\343\304\365\033"
 668      15526BAB 
 668      65AD0FE3 
 668      C4F51B
 669 1d7c 2D6AF14B 		.ascii	"-j\361Kd\273\321j\021N\271\366\305l\263\244\230\350"
 669      64BBD16A 
 669      114EB9F6 
 669      C56CB3A4 
 669      98E8
 670 1d8e 8555AD1D 		.ascii	"\205U\255\035\226\265&\307\251\265\323\262\026\261\272"
 670      96B526C7 
 670      A9B5D3B2 
 670      16B1BA
 671 1d9d 56B53EB0 		.ascii	"V\265>\260\254\365F\234Z\273,k\221\327\242X\316Mc\265"
 671      ACF5469C 
 671      5ABB2C6B 
 671      91D7A258 
 671      CE4D63B5 
 672 1db1 D4BFB18E 		.ascii	"\324\277\261\216\367G\261 \007|\253i\242\177r\305\211"
 672      F747B120 
 672      077CAB69 
 672      A27F72C5 
 672      89
 673 1dc2 D878EE3F 		.ascii	"\330x\356?\312\305\006\305w\377\354a\377I\321\300\306"
 673      CAC506C5 
 673      77FFEC61 
 673      FF49D1C0 
 673      C6
 674 1dd3 EC38CC37 		.ascii	"\3548\3147Y2O<\015\253Z{-k\235\214\243\274\373\030?"
 674      59324F3C 
 674      0DAB5A7B 
 674      2D6B9D8C 
 674      A3BCFB18 
 675 1de8 C9593C46 		.ascii	"\311Y<F\016\272\207\214\030\351\315\024\006d\214\251"
 675      0EBA878C 
 675      18E9CD14 
 675      06648CA9 
ARM GAS  /tmp/ccJlXFA4.s 			page 54


 676 1df8 2CF76714 		.ascii	",\367g\024W\226<\237Q\342\037\233Q<&0*P\031\312\010"
 676      57963C9F 
 676      51E21F9B 
 676      513C2630 
 676      2A5019CA 
 677 1e0d 07AB2B9E 		.ascii	"\007\253+\236\311\200\023\377\270pF\251\034.\015e\204"
 677      C98013FF 
 677      B87046A9 
 677      1C2E0D65 
 677      84
 678 1e1e 82C519A5 		.ascii	"\202\305\031\245\245\017\215\021\\9\203\212r\012\037"
 678      A50F8D11 
 678      5C39838A 
 678      720A1F
 679 1e2d B5573350 		.ascii	"\265W3P\021\366\217\366\007\241\272s\360SE\331\236\322"
 679      11F68FF6 
 679      07A1BA73 
 679      F05345D9 
 679      9ED2
 680 1e3f 902FFC7C 		.ascii	"\220/\374|\225\337Q\022\034\353*\016\005\376\333\357"
 680      95DF5112 
 680      1CEB2A0E 
 680      05FEDBEF 
 681 1e4f AEF0C1D5 		.ascii	"\256\360\301\325!\327s\245e\362\350\224\322P\300GN\234"
 681      21D773A5 
 681      65F2E894 
 681      D250C047 
 681      4E9C
 682 1e61 7FCA2BC8 		.ascii	"\177\312+\310\222\002%\251\025\276`ee\270$\020te\221"
 682      920225A9 
 682      15BE6065 
 682      65B82410 
 682      746591
 683 1e74 A24E6572 		.ascii	"\242Ner(\354+.\253\016\205;\225\006\375~z\232\202\030"
 683      28EC2B2E 
 683      AB0E853B 
 683      9506FD7E 
 683      7A9A8218 
 684 1e88 FE8AB0AB 		.ascii	"\376\212\260\253\224@z\306V\226\215\222C~\017\024\342"
 684      94407AC6 
 684      56968D92 
 684      437E0F14 
 684      E2
 685 1e99 11AA9363 		.ascii	"\021\252\223cJ\211\034\226\261\340\271@E\310_\034v\300"
 685      4A891C96 
 685      B1E0B940 
 685      45C85F1C 
 685      76C0
 686 1eab F1E144FC 		.ascii	"\361\341D\374\214\221\313\200\013\270O\211?\243\274"
 686      8C91CB80 
 686      0BB84F89 
 686      3FA3BC
 687 1eba BCD817AA 		.ascii	"\274\330\027\252\012\0007\251\303\207gfVV\224\006Fg"
 687      0A0037A9 
 687      C3876766 
 687      56569406 
 687      4667
ARM GAS  /tmp/ccJlXFA4.s 			page 55


 688 1ecc F1005455 		.ascii	"\361\000TU\006\303\241\214\302\242\341\003\372g\014"
 688      06C3A18C 
 688      C2A2E103 
 688      FA670C
 689 1edb 1B969551 		.ascii	"\033\226\225Q\230\237;\266_\006@\371\312\312J\010\034"
 689      989F3BB6 
 689      5F0640F9 
 689      CACA4A08 
 689      1C
 690 1eec 14640503 		.ascii	"\024d\005\003c\375\301\376v\350\241\264t\202C(\014\002"
 690      63FDC1FE 
 690      76E8A1B4 
 690      74824328 
 690      0C02
 691 1efe F0853B01 		.ascii	"\360\205;\001\216o\344\210\334\021\271E)\344\264\260"
 691      8E6FE488 
 691      DC11B945 
 691      29E4B4B0 
 692 1f0e 282F9F60 		.ascii	"(/\237`\373\012\262\007e=\205\277\016\312,\312\375c"
 692      FB0AB207 
 692      653D85BF 
 692      0ECA2CCA 
 692      FD63
 693 1f20 763A39CD 		.ascii	"v:9\315\314\033\236?,\273(\333\205\265o\003\230b\271"
 693      CC1B9E3F 
 693      2CBB28DB 
 693      85B56F03 
 693      9862B9
 694 1f33 0C4457FC 		.ascii	"\014DW\374\214/\354\366W\224\370\212Ge'\303\335\220"
 694      8C2FECF6 
 694      5794F88A 
 694      476527C3 
 694      DD90
 695 1f45 FCDCBCB1 		.ascii	"\374\334\274\261\3753\252\3442\225\275\364P\270|@\177"
 695      FD33AAE4 
 695      3295BDF4 
 695      50B87C40 
 695      7F
 696 1f56 DFE8AA40 		.ascii	"\337\350\252@\245/\374\353\214\352P0C\016\226?XQY\341"
 696      A52FFCEB 
 696      8CEA5030 
 696      430E963F 
 696      585159E1 
 697 1f6a 7FD02F8F 		.ascii	"\177\320/\217\012\304\030\202\246\256\010C\215\224j"
 697      0AC41882 
 697      A6AE0843 
 697      8D946A
 698 1f79 384295F0 		.ascii	"8B\225\360\3008W\227\313@N\205?\303W\342/\225\253\313"
 698      C0385797 
 698      CB404E85 
 698      3FC357E2 
 698      2F95ABCB 
 699 1f8d C2A85A21 		.ascii	"\302\250Z!\"\021\237O\253\357\032\236\227\225]\340\316"
 699      22119F4F 
 699      ABEF1A9E 
 699      97955DE0 
 699      CE
ARM GAS  /tmp/ccJlXFA4.s 			page 56


 700 1f9e 2B7A     		.ascii	"+z"
 701 1fa0 2A3FBBC0 		.ascii	"*?\273\300\223W\230\237\235\235U\340\312\037\231\237"
 701      9357989F 
 701      9D9D55E0 
 701      CA1F999F 
 702 1fb0 55E0C885 		.ascii	"U\340\310\205\224\227U \376\011\357\326\357a\220\037"
 702      94975520 
 702      FE09EFD6 
 702      EF61901F 
 703 1fc0 AD484E1D 		.ascii	"\255HN\035!\177\330U\\\346\227\203\342P\347\340\302"
 703      217FD855 
 703      5CE69783 
 703      E250E7E0 
 703      C2
 704 1fd1 8202E7B0 		.ascii	"\202\002\347\260\314'\013\234\203r\012\206\221l\250"
 704      CC270B9C 
 704      83720A86 
 704      916CA8
 705 1fe0 63704141 		.ascii	"cpAA\247@%\341=P\002\362\012\205\310\251\013\016r\211"
 705      A74025E1 
 705      3D5002F2 
 705      0A85C8A9 
 705      0B0E7289 
 706 1ff4 A338D88F 		.ascii	"\2438\330\217\210\235j\210\273\030\017\011"
 706      889D6A88 
 706      BB180F09 
 707 2000 7B4E301C 		.ascii	"{N0\034\345\254xL\350\371\220\306MJxL\320/\303=R\213"
 707      E5AC784C 
 707      E8F990C6 
 707      4D4A784C 
 707      D02FC33D 
 708 2016 C7F8E8F9 		.ascii	"\307\370\350\371@{X\305cH+\270\253|\025\320;\341P\025"
 708      407B58C5 
 708      63482BB8 
 708      AB7C15D0 
 708      3BE15015 
 709 202a F48F1DCA 		.ascii	"\364\217\035\312\001A\033vP\301\360\314\341\343\340"
 709      01411B76 
 709      50C1F0CC 
 709      E1E3E0
 710 2039 CAF2AA40 		.ascii	"\312\362\252@\231?\030\312\030\222\231\011\227k\344"
 710      993F18CA 
 710      18929909 
 710      976BE4
 711 2048 79C25541 		.ascii	"y\302UA\322\256\210\033\250\364\000\267a\270\315\357"
 711      D2AE881B 
 711      A8F400B7 
 711      61B8CDEF 
 712 2058 6CE38F29 		.ascii	"l\343\217)\256\014\372\0010\215\024\373\240\031\212"
 712      AE0CFA01 
 712      308D14FB 
 712      A0198A
 713 2067 C3E3FE2D 		.ascii	"\303\343\376-9\024\337\330G\312\211\344\202\376\321"
 713      3914DFD8 
 713      47CA89E4 
 713      82FED1
 714 2076 A03AA431 		.ascii	"\240:\2441\373=\014\351\021H\217B\372\235#\324\277/"
ARM GAS  /tmp/ccJlXFA4.s 			page 57


 714      FB3D0CE9 
 714      11488F42 
 714      FA9D23D4 
 714      BF2F
 715 2088 A47E90FA 		.ascii	"\244~\220\372C\032\000i \244\337B\202\353\372\303u\375"
 715      431A0069 
 715      20A4DF42 
 715      82EBFAC3 
 715      75FD
 716 209a E1BAFE70 		.ascii	"\341\272\376p\335\000\270n@?)8P\012\376V\012>,\005\037"
 716      DD00B86E 
 716      403F2938 
 716      500AFE56 
 716      0A3E2C05 
 717 20af 91828F4A 		.ascii	"\221\202\217J\301\3379\202\375\372B\352'\225\005\341"
 717      C1DF3982 
 717      FDFA42EA 
 717      279505E1 
 718 20bf 30C055E5 		.ascii	"0\300U\345\003j=D\302\317\371\203p\254,+\361\007\211"
 718      036A3D44 
 718      C2CFF983 
 718      70AC2C2B 
 718      F10789
 719 20d2 C4E5727F 		.ascii	"\304\345r\177JX\355\236\036\242\\\217BCR5\2033\270\022"
 719      4A58ED9E 
 719      1EA25C8F 
 719      42435235 
 719      8333B812 
 720 20e6 7FF384CB 		.ascii	"\177\363\204\313+K\374\370\235\330\277\220'\034\364"
 720      2B4BFCF8 
 720      9DD8BF90 
 720      271CF4
 721 20f5 135B0908 		.ascii	"\023[\011\010\344\304U\036\032\015?\252:\015\325\325"
 721      E4C4551E 
 721      1A0D3FAA 
 721      3A0DD5D5 
 722 2105 3377B0E4 		.ascii	"3w\260\344y\370)\305?.\020\006\031\371\335\317\205+"
 722      79F829C5 
 722      3F2E1006 
 722      19F9DDCF 
 722      852B
 723 2117 47FD5755 		.ascii	"G\375WU\232\177,X\303r9\204\035\3719r\342\250\362Uw"
 723      9A7F2C58 
 723      C3723984 
 723      1DF93972 
 723      E2A8F255 
 724 212c A6CA13F2 		.ascii	"\246\312\023\362\225\201\275\360\205\273D\325\211\226"
 724      9581BDF0 
 724      85BB44D5 
 724      8996
 725 213a A456F99E 		.ascii	"\244V\371\236\223\003\341@\305\350.Z\361\263\325\376"
 725      9303E140 
 725      C5E82E5A 
 725      F1B3D5FE 
 726 214a 6AA0AA2B 		.ascii	"j\240\252+s%\026u\252\362\301m\361\324\205\247P\340"
 726      73251675 
 726      AAF2C16D 
ARM GAS  /tmp/ccJlXFA4.s 			page 58


 726      F1D485A7 
 726      50E0
 727 215c AF029301 		.ascii	"\257\002\223\001\225]\345\325\320\376\011G\030\235\206"
 727      955DE5D5 
 727      D0FE0947 
 727      189D86
 728 216b 9687C711 		.ascii	"\226\207\307\021M*\247\350p\254|\256\002\304\210H\300"
 728      4D2AA7E8 
 728      70AC7CAE 
 728      02C48848 
 728      C0
 729 217c 42392A2E 		.ascii	"B9*.\320\007\327\021J;\021\251\310e\250nPXUYY\366\210"
 729      D007D711 
 729      4A3B11A9 
 729      C865A86E 
 729      50585559 
 730 2193 ADFBA9CC 		.ascii	"\255\373\251\314\300=\273\253\235\013\244\354\017\372"
 730      C03DBBAB 
 730      9D0BA4EC 
 730      0FFA
 731 21a1 2B8A815B 		.ascii	"+\212\201[7-\372W\236\221.sxan!\230\276\014\264p\245"
 731      372DFA57 
 731      9E912E73 
 731      78616E21 
 731      98BE0CB4 
 732 21b7 03FBF61B 		.ascii	"\003\373\366\033WLT\230\230\327\"\350 Y\376RGfA?H\375"
 732      574C5498 
 732      98D722E8 
 732      2059FE52 
 732      4766413F 
 733 21cd A5C20209 		.ascii	"\245\302\002\011LOfAf~\201\273\340\317p,p\027\341\301"
 733      4C4F6641 
 733      667E81BB 
 733      E0CF702C 
 733      7017E1C1 
 734 21e1 93DBBF30 		.ascii	"\223\333\27703gH\201\013\216\371\005\016\260\3039v\315"
 734      33674881 
 734      0B8EF905 
 734      0EB0C339 
 734      76CD
 735 21f3 2EE63903 		.ascii	".\3469\003\307\215\243\204\370J\312e\302\\\326\360A"
 735      C78DA384 
 735      F84ACA65 
 735      C25CD6F0 
 735      41
 736 2204 BE425025 		.ascii	"\276BP%\271\\\243F\312,p\216\310**p\344\017*p\016\357"
 736      B95CA346 
 736      CA2C708E 
 736      C82A2A70 
 736      E40F2A70 
 737 221a 4BB27E83 		.ascii	"K\262~\203\012\0349@L\010/t\006J\213\203\356@hL\240"
 737      0A1C3940 
 737      4C082F74 
 737      064A8B83 
 737      EE40684C 
 738 222f 349C1AF2 		.ascii	"4\234\032\362\227\225\006*J\374\343\334ca\274\254\014"
 738      9795062A 
ARM GAS  /tmp/ccJlXFA4.s 			page 59


 738      4AFCE3DC 
 738      6361BCAC 
 738      0C
 739 2240 768FA2FB 		.ascii	"v\217\242\373\350\325``\341Kp\034\311\303\343R\203\343"
 739      E8D56060 
 739      E14B701C 
 739      C9C3E352 
 739      83E3
 740 2252 E0483439 		.ascii	"\340H495\254\2359\201\235*WY\250\270t\264k\014\346\276"
 740      35AC9D39 
 740      819D2A57 
 740      59A8B874 
 740      B46B0CE6 
 741 2267 C1D05E09 		.ascii	"\301\320^\011\365c\254\014\255[\035\202\037\240\231"
 741      F563AC0C 
 741      AD5B1D82 
 741      1FA099
 742 2276 2BC2C403 		.ascii	"+\302\304\003\261\327\306\224@\322\306=\006\303\240"
 742      B1D7C694 
 742      40D2C63D 
 742      06C3A0
 743 2285 5FE807DD 		.ascii	"_\350\007\335\252\010\007\3442*\220\273\314\012\377"
 743      AA0807E4 
 743      322A90BB 
 743      CC0AFF
 744 2294 38BCA83F 		.ascii	"8\274\250?\0168e\201Q\031\243\213\213\015\003\317\300"
 744      0E386581 
 744      5119A38B 
 744      8B0D03CF 
 744      C0
 745 22a5 871E7D68 		.ascii	"\207\036}h ;X\301\300C\014+\361:@\022\317\005\003a\277"
 745      203B58C1 
 745      C0430C2B 
 745      F13A4012 
 745      CF050361 
 746 22ba 93E88EA3 		.ascii	"\223\350\216\243\252:\354\030\355\017;\306\226\207S"
 746      AA3AEC18 
 746      ED0F3BC6 
 746      968753
 747 22c9 340E1C70 		.ascii	"4\016\034p\342(-\017w\016\225\200#\021\012\224W\225"
 747      E2282D0F 
 747      770E9580 
 747      23110A94 
 747      5795
 748 22db F91F2A46 		.ascii	"\371\037*FW\202\216\375\351\3213\240#-\020\362\0217"
 748      57828EFD 
 748      E9D133A0 
 748      232D10F2 
 748      1137
 749 22ed 2518F697 		.ascii	"%\030\366\227\244\303yU\2602\014m\340/!\006\266\002"
 749      A4C37955 
 749      B0320C6D 
 749      E02F2106 
 749      B602
 750 22ff CE3A9504 		.ascii	"\316:\225\004B\352\2513\364|E\361\357\355x\016p\356"
 750      42EAA933 
 750      F47C45F1 
ARM GAS  /tmp/ccJlXFA4.s 			page 60


 750      EFED780E 
 750      70EE
 751 2311 0B548E2A 		.ascii	"\013T\216*\253,~\006\030\3502\230\234d\371\307\006\212"
 751      AB2C7E06 
 751      18E83298 
 751      9C64F9C7 
 751      068A
 752 2323 FDB915A5 		.ascii	"\375\271\025\245\225)\243\312\236\361\241+EN*\252\313"
 752      9529A3CA 
 752      9EF1A12B 
 752      454E2AAA 
 752      CB
 753 2334 538017A0 		.ascii	"S\200\027\240\246\264\262\023\024h\276\306\340aOj\276"
 753      A6B4B213 
 753      1468BEC6 
 753      E0614F6A 
 753      BE
 754 2345 063925BE 		.ascii	"\0069%\276\006\226Q\017\24339\315\314\0331\"\033\276"
 754      0696510F 
 754      A33339CD 
 754      CC1B3122 
 754      1BBE
 755 2357 8E18D28D 		.ascii	"\216\030\322\215|\315\312-\214\225\244\222\022\364K"
 755      7CCDCA2D 
 755      8C95A492 
 755      12F44B
 756 2366 D2B43328 		.ascii	"\322\2643(\305\363?\025\344\026i\347\205O\215\310\204"
 756      C5F33F15 
 756      E41669E7 
 756      854F8DC8 
 756      84
 757 2377 73477100 		.ascii	"sGq\000\206\325PIJ\261\\%\027\007\302\317wA\342}rII"
 757      86D55049 
 757      4AB15C25 
 757      1707C2CF 
 757      7741E27D 
 758 238e D01F0AF9 		.ascii	"\320\037\012\371C\267\207J| \246b9X\022\225\233\023"
 758      43B7874A 
 758      7C20A662 
 758      39581295 
 758      9B13
 759 23a0 E45C7207 		.ascii	"\344\\r\007\375\001\033'&E7\265\277)hJ\341D\327(`\212"
 759      FD011B27 
 759      264537B5 
 759      BF29684A 
 759      E144D728 
 760 23b6 F02BB429 		.ascii	"\360+\264)\036\211\016\227xJa\364\203a9\005\012\012"
 760      1E890E97 
 760      784A61F4 
 760      83613905 
 760      0A0A
 761 23c8 A08D9F07 		.ascii	"\240\215\237\007g\026\217\277\265\345\262\371\203\240"
 761      67168FBF 
 761      B5E5B2F9 
 761      83A0
 762 23d6 6DC4272A 		.ascii	"m\304'*\3043\332\336]\330/\320\370\251d\370\017\224"
 762      C433DADE 
ARM GAS  /tmp/ccJlXFA4.s 			page 61


 762      5DD82FD0 
 762      F8A964F8 
 762      0F94
 763 23e8 83949DA0 		.ascii	"\203\224\235\240Ia'\210?\354F\016\302.\242_\341\204"
 763      49612788 
 763      3FEC460E 
 763      C22EA25F 
 763      E184
 764 23fa 6EABAE2B 		.ascii	"n\253\256+\340p@zBg<\363\205*\253\203\304\322\245\263"
 764      E070407A 
 764      42673CF3 
 764      852AAB83 
 764      C4D2A5B3 
 765 240e 5FBBD22F 		.ascii	"_\273\322/\304\276\372\301\370\202H\364\005\036\177"
 765      C4BEFAC1 
 765      F88248F4 
 765      051E7F
 766 241d 199AE134 		.ascii	"\031\232\34148je\251pN\301)\024\216] U(\306S\362\373"
 766      386A65A9 
 766      704EC129 
 766      148E5D20 
 766      5528C653 
 767 2433 737440F3 		.ascii	"st@\363\207\260\266\013\257K\015\225\250Z\224Z\230\245"
 767      87B0B60B 
 767      AF4B0D95 
 767      A85A945A 
 767      98A5
 768 2445 2A9107CE 		.ascii	"*\221\007\316\210\016\245\300\021\325\302\036\2178r"
 768      880EA5C0 
 768      11D5C21E 
 768      8F3872
 769 2454 101E6F0B 		.ascii	"\020\036o\013T\200\314\264\241\013\\4\3554E;M}V\033"
 769      5480CCB4 
 769      A10B5C34 
 769      ED34453B 
 769      4D7D561B 
 770 2468 E8E0ACB8 		.ascii	"\350\340\254\270\262\032\374\225`\312\263\276Q\325\245"
 770      B21AFC95 
 770      60CAB3BE 
 770      51D5A5
 771 2477 3006B89E 		.ascii	"0\006\270\236\365\205+\253<pI\260*\034\204c\260\004"
 771      F5852BAB 
 771      3C7049B0 
 771      2A1C8463 
 771      B004
 772 2489 8EA9CF56 		.ascii	"\216\251\317VT\206\003\245\317\003\312\263>z\352~\026"
 772      548603A5 
 772      CF03CAB3 
 772      3E7AEA7E 
 772      16
 773 249a C450F18C 		.ascii	"\304P\361\214;\200\230\235+\253\303\314m\335\225x\""
 773      3B80989D 
 773      2BABC3CC 
 773      6DDD9578 
 773      22
 774 24ab 05464995 		.ascii	"\005FI\225\243n\033Y8\250\240\210\031\017\0068\207\024"
 774      A36E1B59 
ARM GAS  /tmp/ccJlXFA4.s 			page 62


 774      38A8A088 
 774      190F0638 
 774      8714
 775 24bd E517B8AA 		.ascii	"\345\027\270\252Cr0\334\0055,\267\"@\254\020t9)T\342"
 775      437230DC 
 775      05352CB7 
 775      2240AC10 
 775      74392954 
 776 24d2 282F2B91 		.ascii	"(/+\221BU]\311/C\374\341\250U\350\204\227BIN!U\327\234"
 776      42555DC9 
 776      2F43FCE1 
 776      A855E884 
 776      9742494E 
 777 24ea C2E1487D 		.ascii	"\302\341H}\211-\243%\007G\023\015\037+c3v\366\371FW"
 777      892DA325 
 777      0747130D 
 777      1F2B6333 
 777      76F6F946 
 778 24ff 5417FBD4 		.ascii	"T\027\373\324\257i\177\030U\035(\013?\030\250xL\000"
 778      AF697F18 
 778      551D280B 
 778      3F18A878 
 778      4C00
 779 2511 3F432D05 		.ascii	"?C-\005\317s,5b\267\301m\263\242\206\307\223S\220]8"
 779      CF732C35 
 779      62B7C16D 
 779      B3A286C7 
 779      9353905D 
 780 2526 7258912B 		.ascii	"rX\221+\247\300\227\367d\032\344\320\305\237\364e\203"
 780      A7C097F7 
 780      641AE4D0 
 780      C59FF465 
 780      83
 781 2537 6B0CE7B9 		.ascii	"k\014\347\271#\212\310i:\234\216\310+R\347 \370\305"
 781      238AC869 
 781      3A9C8EC8 
 781      2B52E720 
 781      F8C5
 782 2549 97933B2C 		.ascii	"\227\223;,[=\315\037T4\264\013^\375\307A\303r\263|#"
 782      5B3DCD1F 
 782      5434B40B 
 782      5EFDC741 
 782      C372B37C 
 783 255e 060DCF4E 		.ascii	"\006\015\317N%H\331#r\263\263R\340,\373\317\271\205"
 783      2548D923 
 783      72B3B352 
 783      E02CFBCF 
 783      B985
 784 2570 45DD984B 		.ascii	"E\335\230K\362\006\377;\330\220\356PB,E\266/\277 \257"
 784      F206FF3B 
 784      D890EE50 
 784      422C45B6 
 784      2FBF20AF 
 785 2584 080AB2B3 		.ascii	"\010\012\262\263\2722\027e\025\020+\244\336;{\304\240"
 785      BA321765 
 785      15102BA4 
 785      DE3B7BC4 
ARM GAS  /tmp/ccJlXFA4.s 			page 63


 785      A0
 786 2595 C1C3E8EF 		.ascii	"\301\303\350\357\352\335\013\237*,\312\036Nn<\374\311"
 786      EADD0B9F 
 786      2A2CCA1E 
 786      4E6E3CFC 
 786      C9
 787 25a6 9C42DFA0 		.ascii	"\234B\337\240\301y\005\000@h*\312\035\236\2357\262\210"
 787      C1790500 
 787      40682ACA 
 787      1D9E9D37 
 787      B288
 788 25b8 D0302C2F 		.ascii	"\3200,/\363\311\354\254\356Q\220\274\221C\206\202Q+"
 788      F3C9ECAC 
 788      EE5190BC 
 788      91438682 
 788      512B
 789 25ca C8BE935C 		.ascii	"\310\276\223\\\227\227\347\033>h\304S\276\274\374\354"
 789      9797E71B 
 789      3E68C453 
 789      BEBCFCEC 
 790 25da 1114B307 		.ascii	"\021\024\263\007s\177\030`\201\223\242\354\002WQ\346"
 790      737F1860 
 790      8193A2EC 
 790      025751E6 
 791 25ea D041059E 		.ascii	"\320A\005\236R_9i\254N \300L\325\202\027\217)\032SR"
 791      525F3969 
 791      AC4E20C0 
 791      4CD58217 
 791      8F291A53 
 792 25ff 58E6F757 		.ascii	"X\346\367W\021\243R\030\006u \362\315\033\365_\360+"
 792      11A35218 
 792      067520F2 
 792      CD1BF55F 
 792      F02B
 793 2611 510929A7 		.ascii	"Q\011)\247\320M\256\207Q\223\314\020\007\3008\232\211"
 793      D04DAE87 
 793      5193CC10 
 793      07C0389A 
 793      89
 794 2622 E328E49D 		.ascii	"\343(\344\235\250)\311\007/@*\314\372\377Z\335\224w"
 794      A829C907 
 794      2F402ACC 
 794      FAFF5ADD 
 794      9477
 795              		.text
 796              		.section	.gnu.lto_.symtab.71e8eb8abaae1e75,"",%progbits
 797 0000 73645F69 		.ascii	"sd_is_card_inserted\000\000\000\000\000\000\000\000"
 797      735F6361 
 797      72645F69 
 797      6E736572 
 797      74656400 
 798 001b 00000000 		.ascii	"\000\000\000\000\227\002\000\000sd_is_write_protect"
 798      97020000 
 798      73645F69 
 798      735F7772 
 798      6974655F 
 799 0036 65640000 		.ascii	"ed\000\000\000\000\000\000\000\000\000\000\000\000\372"
ARM GAS  /tmp/ccJlXFA4.s 			page 64


 799      00000000 
 799      00000000 
 799      0000FA
 800 0045 02000073 		.ascii	"\002\000\000sdmmcInitialize\000\000\000\000\000\000"
 800      646D6D63 
 800      496E6974 
 800      69616C69 
 800      7A650000 
 801 005d 00000000 		.ascii	"\000\000\000\000\000\000\376\002\000\000sdmmGetMMCD"
 801      0000FE02 
 801      00007364 
 801      6D6D4765 
 801      744D4D43 
 802 0072 72697665 		.ascii	"river\000\000\000\000\000\000\000\000\000\000\000\000"
 802      72000000 
 802      00000000 
 802      00000000 
 802      00
 803 0083 B8030000 		.ascii	"\270\003\000\000sdmmcGetFS\000\000\000\000\000\000\000"
 803      73646D6D 
 803      63476574 
 803      46530000 
 803      00000000 
 804 0098 00000000 		.ascii	"\000\000\000\000\000\276\003\000\000sdmmcFSMounted\000"
 804      00BE0300 
 804      0073646D 
 804      6D634653 
 804      4D6F756E 
 805 00b0 00000000 		.ascii	"\000\000\000\000\000\000\000\000\000\000\000\304\003"
 805      00000000 
 805      000000C4 
 805      03
 806 00bd 00005350 		.ascii	"\000\000SPID3\000\000\002\000\000\000\000\000\000\000"
 806      49443300 
 806      00020000 
 806      00000000 
 806      00
 807 00ce 00002904 		.ascii	"\000\000)\004\000\000chvprintf\000\000\002\000\000\000"
 807      00006368 
 807      76707269 
 807      6E746600 
 807      00020000 
 808 00e3 00000000 		.ascii	"\000\000\000\000\000\000\313\003\000\000mmcDisconne"
 808      0000CB03 
 808      00006D6D 
 808      63446973 
 808      636F6E6E 
 809 00f8 63740000 		.ascii	"ct\000\000\002\000\000\000\000\000\000\000\000\000\332"
 809      02000000 
 809      00000000 
 809      0000DA
 810 0107 03000066 		.ascii	"\003\000\000f_mount\000\000\002\000\000\000\000\000"
 810      5F6D6F75 
 810      6E740000 
 810      02000000 
 810      0000
 811 0119 00000000 		.ascii	"\000\000\000\000\334\003\000\000mmcConnect\000\000\002"
ARM GAS  /tmp/ccJlXFA4.s 			page 65


 811      DC030000 
 811      6D6D6343 
 811      6F6E6E65 
 811      63740000 
 812 012e 00000000 		.ascii	"\000\000\000\000\000\000\000\000\000\024\004\000\000"
 812      00000000 
 812      00140400 
 812      00
 813 013b 63685468 		.ascii	"chThdSleep\000\000\002\000\000\000\000\000\000\000\000"
 813      64536C65 
 813      65700000 
 813      02000000 
 813      00000000 
 814 0150 00160400 		.ascii	"\000\026\004\000\000mmcStart\000\000\002\000\000\000"
 814      006D6D63 
 814      53746172 
 814      74000002 
 814      000000
 815 0163 00000000 		.ascii	"\000\000\000\000\000\000\032\004\000\000mmcObjectIn"
 815      00001A04 
 815      00006D6D 
 815      634F626A 
 815      65637449 
 816 0178 69740000 		.ascii	"it\000\000\002\000\000\000\000\000\000\000\000\000\037"
 816      02000000 
 816      00000000 
 816      00001F
 817 0187 040000   		.ascii	"\004\000\000"
 818              		.text
 819              		.section	.gnu.lto_.opts,"",%progbits
 820 0000 272D6D63 		.ascii	"'-mcpu=cortex-m4' '-mfloat-abi=hard' '-mfpu=fpv4-sp"
 820      70753D63 
 820      6F727465 
 820      782D6D34 
 820      2720272D 
 821 0033 2D643136 		.ascii	"-d16' '-mno-thumb-interwork' '-mthumb' '-O2' '-fomi"
 821      2720272D 
 821      6D6E6F2D 
 821      7468756D 
 821      622D696E 
 822 0066 742D6672 		.ascii	"t-frame-pointer' '-falign-functions=16' '-ffunction"
 822      616D652D 
 822      706F696E 
 822      74657227 
 822      20272D66 
 823 0099 2D736563 		.ascii	"-sections' '-fdata-sections' '-fno-common' '-flto' "
 823      74696F6E 
 823      73272027 
 823      2D666461 
 823      74612D73 
 824 00cc 272D6673 		.ascii	"'-fsingle-precision-constant'\000"
 824      696E676C 
 824      652D7072 
 824      65636973 
 824      696F6E2D 
 825              		.text
 826              		.section	.text.chprintf,"ax",%progbits
ARM GAS  /tmp/ccJlXFA4.s 			page 66


 827              		.align	2
 828              		.p2align 4,,15
 829              		.thumb
 830              		.thumb_func
 831              		.type	chprintf, %function
 832              	chprintf:
 833              		@ args = 4, pretend = 12, frame = 8
 834              		@ frame_needed = 0, uses_anonymous_args = 1
 835 0000 0EB4     		push	{r1, r2, r3}
 836 0002 00B5     		push	{lr}
 837 0004 82B0     		sub	sp, sp, #8
 838 0006 03AA     		add	r2, sp, #12
 839 0008 52F8041B 		ldr	r1, [r2], #4
 840 000c 0192     		str	r2, [sp, #4]
 841 000e FFF7FEFF 		bl	chvprintf
 842 0012 02B0     		add	sp, sp, #8
 843              		@ sp needed
 844 0014 5DF804EB 		ldr	lr, [sp], #4
 845 0018 03B0     		add	sp, sp, #12
 846 001a 7047     		bx	lr
 847              		.size	chprintf, .-chprintf
 848 001c AFF30080 		.section	.text.sd_is_card_inserted,"ax",%progbits
 849              		.align	2
 850              		.p2align 4,,15
 851              		.global	sd_is_card_inserted
 852              		.thumb
 853              		.thumb_func
 854              		.type	sd_is_card_inserted, %function
 855              	sd_is_card_inserted:
 856              		@ args = 0, pretend = 0, frame = 0
 857              		@ frame_needed = 0, uses_anonymous_args = 0
 858              		@ link register save eliminated.
 859 0000 034B     		ldr	r3, .L3
 860 0002 1869     		ldr	r0, [r3, #16]
 861 0004 C0F38000 		ubfx	r0, r0, #2, #1
 862 0008 80F00100 		eor	r0, r0, #1
 863 000c 7047     		bx	lr
 864              	.L4:
 865 000e 00BF     		.align	2
 866              	.L3:
 867 0010 000C0240 		.word	1073875968
 868              		.size	sd_is_card_inserted, .-sd_is_card_inserted
 869 0014 AFF30080 		.section	.text.sd_is_write_protected,"ax",%progbits
 869      AFF30080 
 869      AFF30080 
 870              		.align	2
 871              		.p2align 4,,15
 872              		.global	sd_is_write_protected
 873              		.thumb
 874              		.thumb_func
 875              		.type	sd_is_write_protected, %function
 876              	sd_is_write_protected:
 877              		@ args = 0, pretend = 0, frame = 0
 878              		@ frame_needed = 0, uses_anonymous_args = 0
 879              		@ link register save eliminated.
 880 0000 0020     		movs	r0, #0
 881 0002 7047     		bx	lr
ARM GAS  /tmp/ccJlXFA4.s 			page 67


 882              		.size	sd_is_write_protected, .-sd_is_write_protected
 883 0004 AFF30080 		.section	.text.sdmmcInitialize,"ax",%progbits
 883      AFF30080 
 883      AFF30080 
 884              		.align	2
 885              		.p2align 4,,15
 886              		.global	sdmmcInitialize
 887              		.thumb
 888              		.thumb_func
 889              		.type	sdmmcInitialize, %function
 890              	sdmmcInitialize:
 891              		@ args = 0, pretend = 0, frame = 0
 892              		@ frame_needed = 0, uses_anonymous_args = 0
 893 0000 F8B5     		push	{r3, r4, r5, r6, r7, lr}
 894 0002 0446     		mov	r4, r0
 895 0004 0023     		movs	r3, #0
 896 0006 2D4F     		ldr	r7, .L20
 897 0008 2D4E     		ldr	r6, .L20+4
 898 000a 2E4D     		ldr	r5, .L20+8
 899 000c 0160     		str	r1, [r0]
 900 000e 0846     		mov	r0, r1
 901 0010 A360     		str	r3, [r4, #8]
 902 0012 6373     		strb	r3, [r4, #13]
 903 0014 6760     		str	r7, [r4, #4]
 904 0016 2A60     		str	r2, [r5]
 905 0018 3460     		str	r4, [r6]
 906 001a FFF7FEFF 		bl	mmcObjectInit
 907 001e 2068     		ldr	r0, [r4]
 908 0020 2949     		ldr	r1, .L20+12
 909 0022 FFF7FEFF 		bl	mmcStart
 910 0026 294B     		ldr	r3, .L20+16
 911 0028 1B69     		ldr	r3, [r3, #16]
 912 002a 5B07     		lsls	r3, r3, #29
 913 002c 2DD4     		bmi	.L17
 914 002e 2849     		ldr	r1, .L20+20
 915 0030 2868     		ldr	r0, [r5]
 916 0032 FFF7FEFF 		bl	chprintf
 917 0036 274B     		ldr	r3, .L20+24
 918 0038 4FF40042 		mov	r2, #32768
 919 003c 5A83     		strh	r2, [r3, #26]	@ movhi
 920 003e 4FF4FA60 		mov	r0, #2000
 921 0042 FFF7FEFF 		bl	chThdSleep
 922 0046 2449     		ldr	r1, .L20+28
 923 0048 2868     		ldr	r0, [r5]
 924 004a FFF7FEFF 		bl	chprintf
 925 004e 2068     		ldr	r0, [r4]
 926 0050 FFF7FEFF 		bl	mmcConnect
 927 0054 2149     		ldr	r1, .L20+32
 928 0056 0746     		mov	r7, r0
 929 0058 2868     		ldr	r0, [r5]
 930 005a FFF7FEFF 		bl	chprintf
 931 005e DFB9     		cbnz	r7, .L18
 932 0060 1F49     		ldr	r1, .L20+36
 933 0062 2868     		ldr	r0, [r5]
 934 0064 FFF7FEFF 		bl	chprintf
 935 0068 1E48     		ldr	r0, .L20+40
 936 006a A060     		str	r0, [r4, #8]
ARM GAS  /tmp/ccJlXFA4.s 			page 68


 937 006c 1E49     		ldr	r1, .L20+44
 938 006e 3A46     		mov	r2, r7
 939 0070 FFF7FEFF 		bl	f_mount
 940 0074 0646     		mov	r6, r0
 941 0076 2868     		ldr	r0, [r5]
 942 0078 B6B9     		cbnz	r6, .L19
 943 007a 1C49     		ldr	r1, .L20+48
 944 007c FFF7FEFF 		bl	chprintf
 945 0080 0123     		movs	r3, #1
 946 0082 3046     		mov	r0, r6
 947 0084 6373     		strb	r3, [r4, #13]
 948              	.L9:
 949 0086 40B2     		sxtb	r0, r0
 950 0088 F8BD     		pop	{r3, r4, r5, r6, r7, pc}
 951              	.L17:
 952 008a 2868     		ldr	r0, [r5]
 953 008c 1849     		ldr	r1, .L20+52
 954 008e FFF7FEFF 		bl	chprintf
 955 0092 FD20     		movs	r0, #253
 956 0094 40B2     		sxtb	r0, r0
 957 0096 F8BD     		pop	{r3, r4, r5, r6, r7, pc}
 958              	.L18:
 959 0098 2868     		ldr	r0, [r5]
 960 009a 1649     		ldr	r1, .L20+56
 961 009c 0122     		movs	r2, #1
 962 009e FFF7FEFF 		bl	chprintf
 963 00a2 0120     		movs	r0, #1
 964 00a4 40B2     		sxtb	r0, r0
 965 00a6 F8BD     		pop	{r3, r4, r5, r6, r7, pc}
 966              	.L19:
 967 00a8 1349     		ldr	r1, .L20+60
 968 00aa FFF7FEFF 		bl	chprintf
 969 00ae 2068     		ldr	r0, [r4]
 970 00b0 FFF7FEFF 		bl	mmcDisconnect
 971 00b4 A760     		str	r7, [r4, #8]
 972 00b6 FE20     		movs	r0, #254
 973 00b8 E5E7     		b	.L9
 974              	.L21:
 975 00ba 00BF     		.align	2
 976              	.L20:
 977 00bc 00000000 		.word	SPID3
 978 00c0 00000000 		.word	.LANCHOR1
 979 00c4 00000000 		.word	.LANCHOR0
 980 00c8 00000000 		.word	.LANCHOR2
 981 00cc 000C0240 		.word	1073875968
 982 00d0 98000000 		.word	.LC6
 983 00d4 00000240 		.word	1073872896
 984 00d8 AC000000 		.word	.LC7
 985 00dc C0000000 		.word	.LC8
 986 00e0 20000000 		.word	.LC1
 987 00e4 00000000 		.word	.LANCHOR3
 988 00e8 3C000000 		.word	.LC2
 989 00ec 60000000 		.word	.LC4
 990 00f0 7C000000 		.word	.LC5
 991 00f4 00000000 		.word	.LC0
 992 00f8 40000000 		.word	.LC3
 993              		.size	sdmmcInitialize, .-sdmmcInitialize
ARM GAS  /tmp/ccJlXFA4.s 			page 69


 994 00fc AFF30080 		.section	.text.sdmmGetMMCDriver,"ax",%progbits
 995              		.align	2
 996              		.p2align 4,,15
 997              		.global	sdmmGetMMCDriver
 998              		.thumb
 999              		.thumb_func
 1000              		.type	sdmmGetMMCDriver, %function
 1001              	sdmmGetMMCDriver:
 1002              		@ args = 0, pretend = 0, frame = 0
 1003              		@ frame_needed = 0, uses_anonymous_args = 0
 1004              		@ link register save eliminated.
 1005 0000 037B     		ldrb	r3, [r0, #12]	@ zero_extendqisi2
 1006 0002 0BB1     		cbz	r3, .L24
 1007 0004 0068     		ldr	r0, [r0]
 1008 0006 7047     		bx	lr
 1009              	.L24:
 1010 0008 1846     		mov	r0, r3
 1011 000a 7047     		bx	lr
 1012              		.size	sdmmGetMMCDriver, .-sdmmGetMMCDriver
 1013 000c AFF30080 		.section	.text.sdmmcGetFS,"ax",%progbits
 1014              		.align	2
 1015              		.p2align 4,,15
 1016              		.global	sdmmcGetFS
 1017              		.thumb
 1018              		.thumb_func
 1019              		.type	sdmmcGetFS, %function
 1020              	sdmmcGetFS:
 1021              		@ args = 0, pretend = 0, frame = 0
 1022              		@ frame_needed = 0, uses_anonymous_args = 0
 1023              		@ link register save eliminated.
 1024 0000 437B     		ldrb	r3, [r0, #13]	@ zero_extendqisi2
 1025 0002 0BB1     		cbz	r3, .L27
 1026 0004 8068     		ldr	r0, [r0, #8]
 1027 0006 7047     		bx	lr
 1028              	.L27:
 1029 0008 1846     		mov	r0, r3
 1030 000a 7047     		bx	lr
 1031              		.size	sdmmcGetFS, .-sdmmcGetFS
 1032 000c AFF30080 		.section	.text.sdmmcFSMounted,"ax",%progbits
 1033              		.align	2
 1034              		.p2align 4,,15
 1035              		.global	sdmmcFSMounted
 1036              		.thumb
 1037              		.thumb_func
 1038              		.type	sdmmcFSMounted, %function
 1039              	sdmmcFSMounted:
 1040              		@ args = 0, pretend = 0, frame = 0
 1041              		@ frame_needed = 0, uses_anonymous_args = 0
 1042              		@ link register save eliminated.
 1043 0000 407B     		ldrb	r0, [r0, #13]	@ zero_extendqisi2
 1044 0002 7047     		bx	lr
 1045              		.size	sdmmcFSMounted, .-sdmmcFSMounted
 1046 0004 AFF30080 		.section	.data.hsCfg,"aw",%progbits
 1046      AFF30080 
 1046      AFF30080 
 1047              		.align	2
 1048              		.type	hsCfg, %object
ARM GAS  /tmp/ccJlXFA4.s 			page 70


 1049              		.size	hsCfg, 12
 1050              	hsCfg:
 1051 0000 00000000 		.word	0
 1052 0004 00000240 		.word	1073872896
 1053 0008 0F00     		.short	15
 1054 000a 1000     		.short	16
 1055              		.section	.data.mmcCfg,"aw",%progbits
 1056              		.align	2
 1057              		.set	.LANCHOR2,. + 0
 1058              		.type	mmcCfg, %object
 1059              		.size	mmcCfg, 12
 1060              	mmcCfg:
 1061 0000 00000000 		.word	SPID3
 1062 0004 00000000 		.word	lsCfg
 1063 0008 00000000 		.word	hsCfg
 1064              		.section	.bss.serialPort,"aw",%nobits
 1065              		.align	2
 1066              		.set	.LANCHOR0,. + 0
 1067              		.type	serialPort, %object
 1068              		.size	serialPort, 4
 1069              	serialPort:
 1070 0000 00000000 		.space	4
 1071              		.section	.bss.SD,"aw",%nobits
 1072              		.align	2
 1073              		.set	.LANCHOR1,. + 0
 1074              		.type	SD, %object
 1075              		.size	SD, 4
 1076              	SD:
 1077 0000 00000000 		.space	4
 1078              		.section	.rodata.str1.4,"aMS",%progbits,1
 1079              		.align	2
 1080              	.LC0:
 1081 0000 53442F4D 		.ascii	"SD/MMC:ERROR Connect,ERR%02d\012\000"
 1081      4D433A45 
 1081      52524F52 
 1081      20436F6E 
 1081      6E656374 
 1082 001e 0000     		.space	2
 1083              	.LC1:
 1084 0020 53442F4D 		.ascii	"SD/MMC: Connection Done\012\000"
 1084      4D433A20 
 1084      436F6E6E 
 1084      65637469 
 1084      6F6E2044 
 1085 0039 000000   		.space	3
 1086              	.LC2:
 1087 003c 2F00     		.ascii	"/\000"
 1088 003e 0000     		.space	2
 1089              	.LC3:
 1090 0040 53442F4D 		.ascii	"SD/MMC:File System Mount Error\012\000"
 1090      4D433A46 
 1090      696C6520 
 1090      53797374 
 1090      656D204D 
 1091              	.LC4:
 1092 0060 53442F4D 		.ascii	"SD/MMC:File System Mounted\012\000"
 1092      4D433A46 
ARM GAS  /tmp/ccJlXFA4.s 			page 71


 1092      696C6520 
 1092      53797374 
 1092      656D204D 
 1093              	.LC5:
 1094 007c 53442F4D 		.ascii	"SD/MMC:No SD Card Found\012\000"
 1094      4D433A4E 
 1094      6F205344 
 1094      20436172 
 1094      6420466F 
 1095 0095 000000   		.space	3
 1096              	.LC6:
 1097 0098 53442F4D 		.ascii	"SD/MMC:Card Found\012\000"
 1097      4D433A43 
 1097      61726420 
 1097      466F756E 
 1097      640A00
 1098 00ab 00       		.space	1
 1099              	.LC7:
 1100 00ac 53442F4D 		.ascii	"SD/MMC:Connecting\012\000"
 1100      4D433A43 
 1100      6F6E6E65 
 1100      6374696E 
 1100      670A00
 1101 00bf 00       		.space	1
 1102              	.LC8:
 1103 00c0 53442F4D 		.ascii	"SD/MMC:End of Connection attempt\012\000"
 1103      4D433A45 
 1103      6E64206F 
 1103      6620436F 
 1103      6E6E6563 
 1104 00e2 0000     		.section	.data.lsCfg,"aw",%progbits
 1105              		.align	2
 1106              		.type	lsCfg, %object
 1107              		.size	lsCfg, 12
 1108              	lsCfg:
 1109 0000 00000000 		.word	0
 1110 0004 00000240 		.word	1073872896
 1111 0008 0F00     		.short	15
 1112 000a 3000     		.short	48
 1113              		.section	.bss.FS,"aw",%nobits
 1114              		.align	2
 1115              		.set	.LANCHOR3,. + 0
 1116              		.type	FS, %object
 1117              		.size	FS, 560
 1118              	FS:
 1119 0000 00000000 		.space	560
 1119      00000000 
 1119      00000000 
 1119      00000000 
 1119      00000000 
 1120              		.comm	__gnu_lto_v1,1,1
 1121              		.ident	"GCC: (GNU Tools for ARM Embedded Processors) 4.8.4 20140526 (release) [ARM/embedded-4_8-br
ARM GAS  /tmp/ccJlXFA4.s 			page 72


DEFINED SYMBOLS
                            *ABS*:0000000000000000 sdmmcsimple.c
     /tmp/ccJlXFA4.s:827    .text.chprintf:0000000000000000 $t
     /tmp/ccJlXFA4.s:832    .text.chprintf:0000000000000000 chprintf
     /tmp/ccJlXFA4.s:849    .text.sd_is_card_inserted:0000000000000000 $t
     /tmp/ccJlXFA4.s:855    .text.sd_is_card_inserted:0000000000000000 sd_is_card_inserted
     /tmp/ccJlXFA4.s:867    .text.sd_is_card_inserted:0000000000000010 $d
     /tmp/ccJlXFA4.s:870    .text.sd_is_write_protected:0000000000000000 $t
     /tmp/ccJlXFA4.s:876    .text.sd_is_write_protected:0000000000000000 sd_is_write_protected
     /tmp/ccJlXFA4.s:884    .text.sdmmcInitialize:0000000000000000 $t
     /tmp/ccJlXFA4.s:890    .text.sdmmcInitialize:0000000000000000 sdmmcInitialize
     /tmp/ccJlXFA4.s:977    .text.sdmmcInitialize:00000000000000bc $d
     /tmp/ccJlXFA4.s:995    .text.sdmmGetMMCDriver:0000000000000000 $t
     /tmp/ccJlXFA4.s:1001   .text.sdmmGetMMCDriver:0000000000000000 sdmmGetMMCDriver
     /tmp/ccJlXFA4.s:1014   .text.sdmmcGetFS:0000000000000000 $t
     /tmp/ccJlXFA4.s:1020   .text.sdmmcGetFS:0000000000000000 sdmmcGetFS
     /tmp/ccJlXFA4.s:1033   .text.sdmmcFSMounted:0000000000000000 $t
     /tmp/ccJlXFA4.s:1039   .text.sdmmcFSMounted:0000000000000000 sdmmcFSMounted
     /tmp/ccJlXFA4.s:1047   .data.hsCfg:0000000000000000 $d
     /tmp/ccJlXFA4.s:1050   .data.hsCfg:0000000000000000 hsCfg
     /tmp/ccJlXFA4.s:1056   .data.mmcCfg:0000000000000000 $d
     /tmp/ccJlXFA4.s:1060   .data.mmcCfg:0000000000000000 mmcCfg
     /tmp/ccJlXFA4.s:1108   .data.lsCfg:0000000000000000 lsCfg
     /tmp/ccJlXFA4.s:1065   .bss.serialPort:0000000000000000 $d
     /tmp/ccJlXFA4.s:1069   .bss.serialPort:0000000000000000 serialPort
     /tmp/ccJlXFA4.s:1072   .bss.SD:0000000000000000 $d
     /tmp/ccJlXFA4.s:1076   .bss.SD:0000000000000000 SD
     /tmp/ccJlXFA4.s:1079   .rodata.str1.4:0000000000000000 $d
     /tmp/ccJlXFA4.s:1105   .data.lsCfg:0000000000000000 $d
     /tmp/ccJlXFA4.s:1114   .bss.FS:0000000000000000 $d
     /tmp/ccJlXFA4.s:1118   .bss.FS:0000000000000000 FS
                            *COM*:0000000000000001 __gnu_lto_v1
     /tmp/ccJlXFA4.s:869    .text.sd_is_card_inserted:0000000000000014 $t
     /tmp/ccJlXFA4.s:994    .text.sdmmcInitialize:00000000000000fc $t

UNDEFINED SYMBOLS
chvprintf
mmcObjectInit
mmcStart
chThdSleep
mmcConnect
f_mount
mmcDisconnect
SPID3
