ARM GAS  /tmp/cc3fTe16.s 			page 1


   1              		.syntax unified
   2              		.cpu cortex-m4
   3              		.eabi_attribute 27, 3
   4              		.eabi_attribute 28, 1
   5              		.fpu fpv4-sp-d16
   6              		.eabi_attribute 20, 1
   7              		.eabi_attribute 21, 1
   8              		.eabi_attribute 23, 3
   9              		.eabi_attribute 24, 1
  10              		.eabi_attribute 25, 1
  11              		.eabi_attribute 26, 1
  12              		.eabi_attribute 30, 2
  13              		.eabi_attribute 34, 1
  14              		.eabi_attribute 18, 4
  15              		.thumb
  16              		.file	"sensor_thread.c"
  17              		.section	.gnu.lto_.jmpfuncs.a39bbb12515ab9d6,"",%progbits
  18 0000 789C8552 		.ascii	"x\234\205R=O\3030\020\275\263\235\006\332\022Z(\250"
  18      3D4FC330 
  18      10BDB39D 
  18      06DA125A 
  18      28A8
  19 0012 E223CA92 		.ascii	"\342#\312\222\015!Z\211\205\011\011E*CP\004E\352\300"
  19      0D215A89 
  19      85090945 
  19      2A435004 
  19      45EAC0
  20 0025 C252C942 		.ascii	"\302R\311BY\313\300\222\221\237\320\205\377\322\237"
  20      59CBC092 
  20      919FD085 
  20      FFD29F
  21 0034 C2C86F60 		.ascii	"\302\310o`\302v\202\355\310!d\210\357\335\275\367|\271"
  21      C27682ED 
  21      C8216488 
  21      EFDDBDF7 
  21      7CB9
  22 0046 0B01024D 		.ascii	"\013\001\002M\317\005\005x\022'\005\212\342-\020\254"
  22      CF050578 
  22      1227058A 
  22      E22D10AC 
  23 0056 24025CC9 		.ascii	"$\002\\\311\262\020\221\005r\2241\2428PA\211\031y\203"
  23      B2109105 
  23      729431A2 
  23      38504189 
  23      197983
  24 0069 EFE2BD18 		.ascii	"\357\342\275\030p$\271\"\200\312\254e\206\346\212\003"
  24      7024B922 
  24      80CAAC65 
  24      86E68A03 
  25 0079 86C37254 		.ascii	"\206\303rT\035(\2757\255\351;9\322\272\336\017\001?"
  25      1D28BD37 
  25      ADE93B39 
  25      D2BADE0F 
  25      013F
  26 008b 8AF535C7 		.ascii	"\212\3655\307-\335*e\305\210\343v\205Z\345\335\020N"
  26      2DDD2A65 
  26      C588E376 
ARM GAS  /tmp/cc3fTe16.s 			page 2


  26      855AE5DD 
  26      104E
  27 009d 4A794FCB 		.ascii	"JyO\313\011\333\034s\354;\361\177F\227\015Fc\313H\307"
  27      09DB1C73 
  27      EC3BF17F 
  27      46970D46 
  27      63CB48C7 
  28 00b1 B4CD6827 		.ascii	"\264\315h'\204\273\322(06!\307]\025WSE\2733=hs\207N"
  28      84BBD228 
  28      303621C7 
  28      5D155753 
  28      45BB333D 
  29 00c9 95FCC197 		.ascii	"\225\374\301\227\357\012\\\217a\340z\240\223\222,\312"
  29      EF0A5C8F 
  29      61E07AA0 
  29      93922CCA 
  30 00d9 3E3D8E7B 		.ascii	">=\216{\265\275\355\347\310\364\336\206\342\247`l\323"
  30      B5BDEDE7 
  30      C8F4DE86 
  30      E2A7606C 
  30      D3
  31 00ea E7386A21 		.ascii	"\3478j!\235\376\006\241\275\264\032\3333\354\327Z+\256"
  31      9DFE06A1 
  31      BDB41ADB 
  31      33ECD75A 
  31      2BAE
  32 00fc A5F918C7 		.ascii	"\245\371\030\307\200\352\021\376e>\023ACM\257\345 \307"
  32      80EA11FE 
  32      653E1341 
  32      434DAFE5 
  32      20C7
  33 010e 8ECA345C 		.ascii	"\216\3124\\l\223|\265%\026q<\024A\017\341(\315\356\037"
  33      6C937CB5 
  33      2516713C 
  33      14410FE1 
  33      28CDEE1F 
  34 0122 AEE2F3E9 		.ascii	"\256\342\363\351\362%{>\213\322y\232)t\323\205q2{L\005"
  34      F2257B3E 
  34      8BD2799A 
  34      2974D385 
  34      71327B4C 
  35 0137 982CE338 		.ascii	"\230,\3438J\354\302\255U\230'\246\020$\213\012N$\374"
  35      4AECC2AD 
  35      559827A6 
  35      10248B0A 
  35      4E24FC
  36 014a 01ADE39B 		.ascii	"\001\255\343\233%"
  36      25
  37              		.text
  38              		.section	.gnu.lto_.inline.a39bbb12515ab9d6,"",%progbits
  39 0000 789C7D50 		.ascii	"x\234}P\273\015B1\014<;\206 \205\000\035\015\022%\003"
  39      BB0D4231 
  39      0C3C3B86 
  39      2085001D 
  39      0D122503 
  40 0014 B0475AD6 		.ascii	"\260GZ\326A\242\241\214\230\200y\330\341\325\260\000"
  40      41A2A18C 
ARM GAS  /tmp/cc3fTe16.s 			page 3


  40      988079D8 
  40      E1D5B000 
  41 0024 3DB11305 		.ascii	"=\261\023\005\204\036$\305Y\347;\377\030\214\261w\240"
  41      841E24C5 
  41      59E73BFF 
  41      188CB177 
  41      A0
  42 0035 8A0E1236 		.ascii	"\212\016\02260\321\364\272\355Z\302dQ\2229\351ws\023"
  42      30D1F4BA 
  42      ED5AC264 
  42      519239E9 
  42      777313
  43 0048 D0EC42CF 		.ascii	"\320\354B\317H\004\265\362\376~[cy:\262y8\024:'\203"
  43      4804B5F2 
  43      FE7E5B63 
  43      793AB279 
  43      38143A27 
  44 005d 622588B2 		.ascii	"b%\210\262~e\201\326P\316\015^\303\017V\"\201\007\217"
  44      7E6581D6 
  44      50CE0D5E 
  44      C30F5622 
  44      81078F
  45 0070 86FF7356 		.ascii	"\206\377sVBs\235\251\355l\274\234:r\300\010\373\215"
  45      42739DA9 
  45      ED6CBC9C 
  45      3A72C008 
  45      FB8D
  46 0082 126D3FD8 		.ascii	"\022m?\330\242\242\301\233\372\251m\227h`\215r\012\020"
  46      A2A2C19B 
  46      FAA96D97 
  46      68608D72 
  46      0A10
  47 0094 5706A287 		.ascii	"W\006\242\207\207?\357\352\011_\361%(\257"
  47      873FEFEA 
  47      095FF125 
  47      28AF
  48              		.text
  49              		.section	.gnu.lto_.pureconst.a39bbb12515ab9d6,"",%progbits
  50 0000 789C6362 		.ascii	"x\234cb`b`g\200\000f\006\011F)n)\000\001\323\000g"
  50      60626067 
  50      80006606 
  50      0946296E 
  50      290001D3 
  51              		.text
  52              		.section	.gnu.lto_chprintf.a39bbb12515ab9d6,"",%progbits
  53 0000 789C8550 		.ascii	"x\234\205P\315J\002Q\024>\337\0355uc\333v\342\0034\213"
  53      CD4A0251 
  53      143EDF1D 
  53      357563DB 
  53      76E20334 
  54 0015 22E80D7A 		.ascii	"\"\350\015z\000\203Z\3058\216z\011\035\321Q\260\026"
  54      00835AC5 
  54      388E7A09 
  54      1DD151B0 
  54      16
  55 0026 5EC1C245 		.ascii	"^\301\302E\013ig\021)\321:\244\027\030\202\332DI\273"
  55      0B696711 
ARM GAS  /tmp/cc3fTe16.s 			page 4


  55      29D13AA4 
  55      171882DA 
  55      4449BB
  56 0039 162D2497 		.ascii	"\026-$\227\265h\321*\202\351\336\031\024\372\201\016"
  56      B568D12A 
  56      82E9DE19 
  56      14FA810E 
  57 0049 DC7B7EBE 		.ascii	"\334{~\276s\276\363\303\210\321OY\220o\010\2425\251"
  57      73BEF3C3 
  57      88D14F59 
  57      906F08A2 
  57      35A9
  58 005b A11158F7 		.ascii	"\241\021X\367\236\250\025e\2002\010\324dhnB\245\262"
  58      9EA81565 
  58      803208D4 
  58      64686E42 
  58      A5B2
  59 006d 140D84DB 		.ascii	"\024\015\204\333\035_O\036\321\023n\273/>=\017\340\220"
  59      1D5F4F1E 
  59      D1136EBB 
  59      2F3E3D0F 
  59      E090
  60 007f B42B2013 		.ascii	"\264+ \023\264!\035$}\305B\337\373\250Z\321uOon!\016"
  60      B4211D24 
  60      7DC542DF 
  60      FBA85AD1 
  60      754F6F6E 
  61 0095 45EBCDF3 		.ascii	"E\353\315\363\022\034\032\243\325\377\012/\230\373\354"
  61      121C1AA3 
  61      D5FF0A2F 
  61      98FBEC
  62 00a4 794FC3F7 		.ascii	"yO\303\367\203W\364XLC\021\024\222\037\"d\340\014)\225"
  62      8357F458 
  62      4C431114 
  62      921F2264 
  62      E00C2995 
  63 00b8 13A6B624 		.ascii	"\023\246\266$O\032\030H\177\0325\375\241\323\362W\233"
  63      4F1A1848 
  63      7F1A35FD 
  63      A1D3F257 
  63      9B
  64 00c9 AC8329AD 		.ascii	"\254\203)\255\215ho\3343\015\234#,\321]\372\020\035"
  64      8D686FDC 
  64      330D9C23 
  64      2CD15DFA 
  64      101D
  65 00db 31CF1132 		.ascii	"1\317\0212\341\247\313\310\016Gx\312\344g\251\2514\""
  65      E1A7CBC8 
  65      0E4778CA 
  65      E467A9A9 
  65      3422
  66 00ed 2E3BD288 		.ascii	".;\322\210\366\307G\223x\200\344\021\231\021\314\231"
  66      F6C74793 
  66      7880E411 
  66      9911CC99 
  67 00fd 088E9B87 		.ascii	"\010\216\233\207\226G( \340\210\252\222\366\370\370"
  67      96472820 
ARM GAS  /tmp/cc3fTe16.s 			page 5


  67      E088AA92 
  67      F6F8F8
  68 010c 77C798A9 		.ascii	"w\307\230\251H\377\356\310\021'\272\243\253\027\026"
  68      48FFEEC8 
  68      1127BAA3 
  68      AB1716
  69 011b 04027099 		.ascii	"\004\002p\231.EG\235[\312\003\265\372'\332l\214\340"
  69      2E45479D 
  69      5BCA03B5 
  69      FA27DA6C 
  69      8CE0
  70 012d 5469B983 		.ascii	"Ti\271\203\334Q\315\261\244\027\354\242\245\233v\266"
  70      DC51CDB1 
  70      A417ECA2 
  70      A59B76B6 
  71 013d A167ADBA 		.ascii	"\241g\255\272n\026x\206\333U\335\251\324J\333\2724\352"
  71      6E167886 
  71      DB55DDA9 
  71      D44ADBBA 
  71      34EA
  72 014f 4685DBB5 		.ascii	"F\205\333\265\252\004\312\025^rr\213\005bF9\221\263"
  72      AA04CA15 
  72      5E72728B 
  72      05624639 
  72      91B3
  73 0161 2B45C371 		.ascii	"+E\303q\254\354V\246\341X\325/\251H\201#"
  73      ACEC56A6 
  73      E158D52F 
  73      A9488123 
  74              		.text
  75              		.section	.gnu.lto_sensorThread.a39bbb12515ab9d6,"",%progbits
  76 0000 789CAD58 		.ascii	"x\234\255XklT\307\025\236s\367\375\264\235\2151\306"
  76      6B6C54C7 
  76      159E73F7 
  76      FDB49D8D 
  76      31C6
  77 0012 89E3D210 		.ascii	"\211\343\322\020\0340^\263`\014\241`\203m\300\204\225"
  77      1C305EB3 
  77      600CA160 
  77      836DC084 
  77      95
  78 0023 1098C4AE 		.ascii	"\020\230\304\256\024\241\315\365\326\276\212\027#\357"
  78      14A1CDF5 
  78      D6BE8A17 
  78      23EF
  79 0031 96264D25 		.ascii	"\226&M%\256\331u\341\007\005'\244\022)\255\002DQ\013"
  79      AED975E1 
  79      070527A4 
  79      1229AD02 
  79      44510B
  80 0044 34A0D64A 		.ascii	"4\240\326J\002!\025\233\004\305(U\003\221\212\012\210"
  80      0221159B 
  80      04C52855 
  80      03918A0A 
  80      88
  81 0055 546ED387 		.ascii	"Tn\323\207\245\244\251\242&%\201\222\355\231\307}\354"
  81      A5A4A9A2 
ARM GAS  /tmp/cc3fTe16.s 			page 6


  81      26258192 
  81      ED99C77D 
  81      EC
  82 0066 A3EC12BA 		.ascii	"\243\354\022\272\222g\357\2349\347;\337\234o\356\314"
  82      9267EF9C 
  82      39E73BDF 
  82      9C6FEECC 
  83 0076 78252291 		.ascii	"x%\"\221\334\317Y\374\273\277\222\220\307\200\020\250"
  83      DCCF59FC 
  83      BBBF9290 
  83      C78010A8 
  84 0086 20208DBD 		.ascii	"  \215\275G\310\210S\2022\376`\221\254\277\237FT\267"
  84      47C88853 
  84      8232FE60 
  84      91ACBF9F 
  84      4654B7
  85 0099 ED8D16A2 		.ascii	"\355\215\026\242z\255`\343f\233dgf\0073\333\301\301"
  85      7AAD60E3 
  85      669B6467 
  85      660733DB 
  85      C1C1
  86 00ab CD0EC9C9 		.ascii	"\315\016\311\311\314.fv\202\213\233]\222\233\231=\314"
  86      CC2E6676 
  86      828B9B5D 
  86      929B993D 
  86      CC
  87 00bc EC060F37 		.ascii	"\354\006\0177{$/3\373\230\331\013~n\366i\017~N\342M"
  87      7B242F33 
  87      FB98D90B 
  87      7E6EF669 
  87      0F7E4EE2 
  88 00d1 679964D9 		.ascii	"g\231d\331=A\320\263<\345@\317r\000j'@\266K\026\253"
  88      3D41D0B3 
  88      3CE540CF 
  88      72006A27 
  88      40B64B16 
  89 00e6 CDEE70BA 		.ascii	"\315\356p\272\334\036\257\317_V\016\333{\201\316\312"
  89      DC1EAFCF 
  89      5F560EDB 
  89      7B81CECA 
  90 00f6 3D931C52 		.ascii	"=\223\034R\325\261\311\277^\237\222\306\237K\247\016"
  90      D5B1C9BF 
  90      5E9F92C6 
  90      9F4BA70E 
  91 0106 AAFFC964 		.ascii	"\252\377\311d\000\024\300\012\004\200\310@z\260\003"
  91      0014C00A 
  91      0480C840 
  91      7AB003
  92 0115 75EC4BB2 		.ascii	"u\354K\262f\227\204\307\246?\233x\336=6\262K\315d\266"
  92      669784C7 
  92      A63F9B78 
  92      DE3D36B2 
  92      4BCD64B6 
  93 0129 B3B8FB4A 		.ascii	"\263\270\373J\212\333\237\336\367\316\217\252\325\203"
  93      8ADB9FDE 
  93      F7CE8FAA 
  93      D583
ARM GAS  /tmp/cc3fTe16.s 			page 7


  94 0137 3BC6D4AF 		.ascii	";\306\324\2570\245\002\026\211\314+)\362\331\364\215"
  94      30A50216 
  94      89CC2B29 
  94      F2D9F48D 
  95 0147 77F69A23 		.ascii	"w\366\232#\255\022i.\221\353\315\274\234\313K\213T?"
  95      AD12692E 
  95      91EBCDBC 
  95      9CCB4B8B 
  95      543F
  96 0159 E83BA7A6 		.ascii	"\350;\247\246\322\231L+\213ZSb\324\276\2509jC\211Q\247"
  96      D2994C2B 
  96      8B5A5362 
  96      D4BEA839 
  96      6A438951 
  97 016e B3A21E2B 		.ascii	"\263\242\036+%*=\226>3\261w\201in\250\304@\211\221\177"
  97      252A3D96 
  97      3E33B177 
  97      81696EA8 
  97      C4408991 
  98 0183 9CA8360B 		.ascii	"\234\2506\0138\\,\354\204\224\236\314d>>q\341\017\322"
  98      385C2CEC 
  98      84949ECC 
  98      643E3E71 
  98      E10FD2
  99 0196 B78144E0 		.ascii	"\267\201D\340\3470\023\303\370\267\013b@\274D\001[\005"
  99      E73013C3 
  99      F8B70B62 
  99      40BC4401 
  99      5B05
 100 01a8 36F60036 		.ascii	"6\366\0006\216J\332Ta\343\254\306\306U\203\215{66\236"
 100      8E4ADA54 
 100      61E3ACC6 
 100      C655838D 
 100      7B36369E 
 101 01bc 7A113407 		.ascii	"z\0214\007;\336\006\354\274\214\235y\330!\215\330\370"
 101      3BDE06EC 
 101      BC8C9D79 
 101      D8218DD8 
 101      F8
 102 01cd 9AA83984 		.ascii	"\232\2509\204\346#h^\210\035\177\263\350,\242>-\324"
 102      E623685E 
 102      881D7FB3 
 102      E82CA23E 
 102      2DD4
 103 01df 67315A0E 		.ascii	"g1Z\016\241e\011\355,\245\001\313\320r\014-\2554\240"
 103      A16509ED 
 103      2CA501CB 
 103      D0720C2D 
 103      AD34A0
 104 01f2 4D7456D0 		.ascii	"MtV\320\200\225\324\247\035-/\242\245\203vV\321\200"
 104      8095D4A7 
 104      1D2D2FA2 
 104      A5837656 
 104      D180
 105 0204 D5B4E942 		.ascii	"\325\264\351B\363\0114\257\245\216\017\323\261u\364"
 105      F30934AF 
 105      A58E0FD3 
ARM GAS  /tmp/cc3fTe16.s 			page 8


 105      B175F4
 106 0213 294C9F1E 		.ascii	")L\237\036\201\010\274\204c\217b\307\332C\233^\332`"
 106      8108BC84 
 106      638F62C7 
 106      DA439B5E 
 106      DA60
 107 0225 256C2485 		.ascii	"%l$\205\202\325\361a>\027N\220g\345\023\342\300\204"
 107      82D5F161 
 107      3E174E90 
 107      67E513E2 
 107      C084
 108 0237 16153FDD 		.ascii	"\026\025?\335\330\342\333\271\011$\374\262\374\216\354"
 108      D8E2DBB9 
 108      0924FCB2 
 108      FC8EEC
 109 0246 38B9FFCF 		.ascii	"8\271\377\317SR\004^\001\033\231K\216\252\370i\301\322"
 109      5352045E 
 109      011B994B 
 109      8EAAF869 
 109      C1D2
 110 0258 1C203FC1 		.ascii	"\034 ?\301\312\227\365\203\213*P\316\352\3768\360\372"
 110      CA97F583 
 110      8B2A50CE 
 110      EAFE38F0 
 110      FA
 111 0269 538B873E 		.ascii	"S\213\207>c\364\365\344\261\335\015<\272\037\274O\223"
 111      63F4F5E4 
 111      B1DD0D3C 
 111      BA1FBC4F 
 111      93
 112 027a EF63E505 		.ascii	"\357c\345\005\314\217\321\255B<?\245\300]\205!A|\233"
 112      CC8FD1AD 
 112      423C3FA5 
 112      C05D8521 
 112      417C9B
 113 028d B6BCF324 		.ascii	"\266\274\363$\225\026\230\204<M\256\253\273\324r\005"
 113      95169884 
 113      3C4DAEAB 
 113      BBD47205 
 114 029d 02B2F0C5 		.ascii	"\002\262\360\305<\012\334-\262\217\357\256\341\236\210"
 114      3C0ADC2D 
 114      B28FEFAE 
 114      E19E88
 115 02ac 3EA252BF 		.ascii	">\242R\277J=bZ\214E\320l\323X$\037Q\227\242SL$<OF\017"
 115      4A3D625A 
 115      8C45D06C 
 115      D358241F 
 115      5197A253 
 116 02c6 EEB1E425 		.ascii	"\356\261\344%\253\222\3058\2658\025\230\036\003\315"
 116      AB92C538 
 116      B5381598 
 116      1E03CD
 117 02d5 895AA62B 		.ascii	"\211Z\246+P\035\003\253\260(0\203\003\355-\011\310\226"
 117      501D03AB 
 117      B0283083 
 117      03ED2D09 
 117      C896
ARM GAS  /tmp/cc3fTe16.s 			page 9


 118 02e7 07643703 		.ascii	"\007d7\003\261i}\264\273^+j\005+\252]\0242\256@M\341"
 118      B1697DB4 
 118      BB5E2B6A 
 118      052BAA5D 
 118      1432AE40 
 119 02fd 425ACC05 		.ascii	"BZ\314\005\374a\272>\217\312=\262\360a\230\271l(\324"
 119      FC61BA3E 
 119      8FCA3DB2 
 119      F06198B9 
 119      6C28D4
 120 0310 BD6B9042 		.ascii	"\275k\220B\255\240\360\017\257\306 \300\0308\014\006"
 120      ADA0F00F 
 120      AFC620C0 
 120      18380C06 
 121 0320 F7156660 		.ascii	"\367\025f`53\030-\300\240N\026>\0143\227\201\002\337"
 121      3533182D 
 121      C0A04E16 
 121      3E0C3397 
 121      8102DF
 122 0333 10A93FD5 		.ascii	"\020\251?\325SW\226\230\332v\033\251+\36355R\177\256"
 122      53579698 
 122      DA761BA9 
 122      2BF33535 
 122      527FAE
 123 0346 A7AE62A9 		.ascii	"\247\256b\251\235F\352\231\205S\333\213\325\375\233"
 123      9D46EA99 
 123      8553DB8B 
 123      D5FD9B
 124 0355 B2A0C730 		.ascii	"\262\240\3070\013\326\375{\310\340~\301\340K\235A5c"
 124      0BD6FD7B 
 124      C8E07EC1 
 124      E04B9D41 
 124      3563
 125 0367 E03218CC 		.ascii	"\3402\030\314*\314\300af\260\263\000\203\007d\301\222"
 125      2ACCC061 
 125      66B0B300 
 125      830764C1 
 125      92
 126 0378 61E64E9E 		.ascii	"a\346N\2361\270\227\177\325\"\221\331\202\310M\235H"
 126      31B8977F 
 126      D52291D9 
 126      82C84D9D 
 126      48
 127 0389 0D23E236 		.ascii	"\015#\3426\210\324\027&\342,V\212\007eA\226a\026$\262"
 127      88D41726 
 127      E22C568A 
 127      07654196 
 127      611624B2 
 128 039d 0D19CC61 		.ascii	"\015\031\314a*N\036M\226\345!\314\225E\026\324\221\371"
 128      2A4E1E4D 
 128      96E521CC 
 128      954516D4 
 128      91F9
 129 03af FBD1BF81 		.ascii	"\373\321\277\201\373\037K\372\363\374\347\311\3402\373"
 129      FB1F4BFA 
 129      F3FCE7C9 
 129      E032FB
ARM GAS  /tmp/cc3fTe16.s 			page 10


 130 03be E3BEA540 		.ascii	"\343\276\245@#\367\377\345\255\361\003\271\370/\337"
 130      23F7FFE5 
 130      ADF103B9 
 130      F82FDF
 131 03cd 1A3F908D 		.ascii	"\032?\220\215\237\232<\376\241#\317?(\203\233\371Sg"
 131      9F9A3CFE 
 131      A123CF3F 
 131      28839BF9 
 131      5367
 132 03df EB9403BD 		.ascii	"\353\224\003\275\2338\372\211R\330\023\235\375\301\223"
 132      9B38FA89 
 132      52D8139D 
 132      FDC193
 133 03ee F99B4D1E 		.ascii	"\371\233M\036\031\341\216r\236:\371\311\005K\326.\277"
 133      19E18E72 
 133      9E3AF9C9 
 133      054BD62E 
 133      BF
 134 03ff 118F1763 		.ascii	"\021\217\027c\303/\262;s\330\031\344y\225VGaf\212z\351"
 134      C32FB23B 
 134      73D819E4 
 134      79955647 
 134      61668A7A 
 135 0414 8E50DD05 		.ascii	"\216P\335\005Q\337\272r5\223\376\205]\234m\332!\227"
 135      51DFBA72 
 135      3593FE85 
 135      5D9C6DDA 
 135      2197
 136 0426 3EF2D3AB 		.ascii	">\362\323\253\270}\361d2\235\032\235\346\2434Wjd\362"
 136      B87DF164 
 136      329D1A9D 
 136      E6A33457 
 136      6A64F2
 137 0439 E6CEB387 		.ascii	"\346\316\263\207\351\275q>=\006\306h-B4\341\002\312"
 137      E9BD713E 
 137      3D06C668 
 137      2D4234E1 
 137      02CA
 138 044b C3CA6ABD 		.ascii	"\303\312j\275@\344\364P\214\317\214\015c\023n\212xi"
 138      40E4F450 
 138      8CCF8C0D 
 138      63136E8A 
 138      7869
 139 045d C59330B9 		.ascii	"\305\2230\271\353\355\337\376\345\220M?S\177\305\316"
 139      EBEDDFFE 
 139      E5904D3F 
 139      537FC5CE 
 140 046d CE717676 		.ascii	"\316qvvj\245\306\224\365\375 Q\300\205S\016\302u~7\351"
 140      6AA5C694 
 140      F5FD2051 
 140      C085530E 
 140      C2757E37 
 141 0482 89C0B56C 		.ascii	"\211\300\265l)\232e\360\352:\263E\261H\274V\037\356"
 141      299A65F0 
 141      EA3AB345 
 141      B148BC56 
 141      1FEE
ARM GAS  /tmp/cc3fTe16.s 			page 11


 142 0494 E9E5DEFD 		.ascii	"\351\345\336\3750\207\275W^Q\257\327\354F\355\016\330"
 142      3087BD57 
 142      5E51AFD7 
 142      EC46ED0E 
 142      D8
 143 04a5 8B16CF6B 		.ascii	"\213\026\317k~\331F\323\017j\240\015:\207\026\031|b"
 143      7ED946D3 
 143      0F6AA00D 
 143      3A871619 
 143      7C62
 144 04b7 39546032 		.ascii	"9T`2\005\026\023r\216\234\375\373\233\343;\275\2727"
 144      05161372 
 144      8E9CFDFB 
 144      9BE33BBD 
 144      BA37
 145 04c9 85F613D3 		.ascii	"\205\366\023\323g\023n\224\347\357\2467\203+\227\376"
 145      67136E94 
 145      E7EFA637 
 145      832B97FE 
 146 04d9 7DA14673 		.ascii	"}\241Fs\2347\227\3141\370].\235\037\002}\222|\0254\234"
 146      9C3797CC 
 146      31F85D2E 
 146      9D1F027D 
 146      927C1534 
 147 04ee 4684A28C 		.ascii	"F\204\242\214\355y%[\"\013\"\342\230>\003\374\234\026"
 147      ED79255B 
 147      220B22E2 
 147      983E03FC 
 147      9C16
 148 0500 8ED4BA5F 		.ascii	"\216\324\272_U\277D\353C\265d\207\3643u\177\233\002"
 148      55BF44EB 
 148      43B56487 
 148      F433757F 
 148      9B02
 149 0512 4B891846 		.ascii	"K\211\030Fd\005\276\245M\301&4\305z\337\330\323\243"
 149      6405BEA5 
 149      4DC12634 
 149      C57ADFD8 
 149      D3A3
 150 0524 E56ECAAA 		.ascii	"\345n\312\252\367iS\275_(>\037Wv\275\347j\240!}\002"
 150      F76953BD 
 150      5F283E1F 
 150      5776BDE7 
 150      6AA0217D 
 151 0539 CB6428D3 		.ascii	"\313d(\323\336VL\246\300r\376fO%\2534\347\205f\347r"
 151      DE564CA6 
 151      C072FE66 
 151      4F25AB34 
 151      E78566E7 
 152 054e CD99D3D2 		.ascii	"\315\231\323\322V\3345~\"-\247\245K\236J\036\327K\327"
 152      56DC357E 
 152      222DA7A5 
 152      4B9E4A1E 
 152      D74BD7
 153 0561 8CF1984F 		.ascii	"\214\361\230O\210xq\302\247\017\024\020\321\256\211"
 153      887871C2 
 153      A70F1410 
ARM GAS  /tmp/cc3fTe16.s 			page 12


 153      D1AE89
 154 0570 F8C5F54B 		.ascii	"\370\305\365K\367h\216\213\262D\274Q\372\244sDl\351"
 154      F7688E8B 
 154      B244BC51 
 154      FAA47344 
 154      6CE9
 155 0582 17CBB94B 		.ascii	"\027\313\271K\263,\346\354\271\247E\263.\351\247k\356"
 155      B32CE6EC 
 155      B9A745B3 
 155      2EE9A76B 
 155      EE
 156 0593 3C71DC81 		.ascii	"<q\334\201\330\255\265\344\031!v\233!62Xb\322\333a\350"
 156      D8ADB5E4 
 156      1921769B 
 156      21363258 
 156      62D2DB61 
 157 05a8 7D7AAFAE 		.ascii	"}z\257\256\367\322;\321\333\375?\364^VH\357\000&\323"
 157      F7D23BD1 
 157      DBFD3FF4 
 157      5E5648EF 
 157      0026D3
 158 05bb F5FEC2D0 		.ascii	"\365\376\302\320\273\265\220\336\001M\357\361[\353\335"
 158      BBB590DE 
 158      014DEFF1 
 158      5BEBDD
 159 05ca 86F1984F 		.ascii	"\206\361\230O\350\375/C\357\266\002z;\365\227\366+C"
 159      E8FD2F43 
 159      EFB6027A 
 159      3BF597F6 
 159      2B43
 160 05dc EF15B7AB 		.ascii	"\357\025\267\253\2676\351\034\275W\"T\266\336\355\332"
 160      B736E91C 
 160      BD572254 
 160      B6DEEDDA 
 161 05ec CE98A577 		.ascii	"\316\230\245w\007\016\374\037\364>\232\25772\3500\351"
 161      070EFC1F 
 161      F43E9AAF 
 161      3732E830 
 161      E9
 162 05fd ED32F47E 		.ascii	"\3552\364~\361\271A-\375\252,\275?0\351\375~\361\251"
 162      F1B9412D 
 162      FDAA2CBD 
 162      3F30E9FD 
 162      7EF1A9
 163 0610 FB8C6A32 		.ascii	"\373\214j2\334_\353\263Z\235\005{\321a\300\236r\024"
 163      DC5FEBB3 
 163      5A9D057B 
 163      D161C09E 
 163      7214
 164 0622 8535C944 		.ascii	"\2055\311D\357D\015\032h\227^\232\0252T\210\225Q\205"
 164      EF440D1A 
 164      68975E9A 
 164      15325488 
 164      955185
 165 0635 73C07C0A 		.ascii	"s\300|\012\254\024\242\357{W\027\275\253\200\350n]\364"
 165      AC14A2EF 
 165      7B5717BD 
ARM GAS  /tmp/cc3fTe16.s 			page 13


 165      AB80E86E 
 165      5DF4
 166 0647 C39FEAA2 		.ascii	"\303\237\352\242\257\315\022\375\231\342\024\265\231"
 166      AFCD12FD 
 166      99E214B5 
 166      99
 167 0654 E788FE30 		.ascii	"\347\210\3760B1\343\225\261\303\272q]\026\370\347\245"
 167      4231E395 
 167      B1C3BA71 
 167      5D16F8E7 
 167      A5
 168 0665 CF3F073C 		.ascii	"\317?\007<\214Pw\272R\332k\311\333b\245t\030+\005i\207"
 168      8C5077BA 
 168      52DA6BC9 
 168      DB62A574 
 168      182B0569 
 169 067a 4D2BC5C3 		.ascii	"M+\305\303V\012\336\213'\017\214\272\363\222u\312p\227"
 169      560ADE8B 
 169      270F8CBA 
 169      F39275CA 
 169      7097
 170 068c 9E0C6FA3 		.ascii	"\236\014o\243\253b\3400%\302\177\317V\307\300i\262 "
 170      AB62E030 
 170      25C27FCF 
 170      56C7C069 
 170      B220
 171 069e A103987A 		.ascii	"\241\003\230zM\014\\\302J'\335\025\302\027x-\277\015"
 171      4D0C5CC2 
 171      4A27DD15 
 171      C217782D 
 171      BF0D
 172 06b0 BC305AEC 		.ascii	"\2740Z\3546@\264\333@\221\233\3165\363M\247\347\353"
 172      3640B4DB 
 172      40919BCE 
 172      35F34DA7 
 172      E7EB
 173 06c2 DD745E97 		.ascii	"\335t^\227\330\265\005\027\323\337\3764z\364\262^\177"
 173      D8B50517 
 173      D3DFFE34 
 173      7AF4B25E 
 173      7F
 174 06d3 BCC5F498 		.ascii	"\274\305\364\230W\222\227\256$J\377\310hY\036}\274\264"
 174      579297AE 
 174      244AFFC8 
 174      68591E7D 
 174      BCB4
 175 06e5 06C40AAD 		.ascii	"\006\304\012\255g\367U\036\343#\277\011Yno\026\275_"
 175      67F7551E 
 175      E323BF09 
 175      596E6F16 
 175      BD5F
 176 06f7 6F166724 		.ascii	"o\026g$\323}\315/\336\375\267>\022k\202\037=\013\311"
 176      D37DCD2F 
 176      DEFDB73E 
 176      126B821F 
 176      3D0BC9
 177 070a B8BA0BF4 		.ascii	"\270\272\013\364K\24418\2363H\310e\0028\023\357\361"
ARM GAS  /tmp/cc3fTe16.s 			page 14


 177      4BA43138 
 177      9E3348C8 
 177      65023813 
 177      EFF1
 178 071c 6777E239 		.ascii	"gw\3429\335\353{\343\342I\240\300ed\354=\302\317\314"
 178      DDEB7BE3 
 178      E249A0C0 
 178      6564EC3D 
 178      C2CFCC
 179 072f 7F9E93B4 		.ascii	"\177\236\223\264\177~f\263\025\177\313\037Dh}S\037\217"
 179      7F7E66B3 
 179      157FCB1F 
 179      44687D53 
 179      1F8F
 180 0741 34EB2142 		.ascii	"4\353!Bf\355s\231HxU\225\256\276\366\203~\000?\313U"
 180      66ED7399 
 180      48785595 
 180      AEBEF683 
 180      7E003FCB 
 181 0756 4E7F7D79 		.ascii	"N\177}y\237\214L\036\177\011\264\260G\270w7\276;)\007"
 181      9F8C4C1E 
 181      7F09B4B0 
 181      47B87737 
 181      BE3B2907 
 182 076a FDD5A03C 		.ascii	"\375\325\240<\036\335\022\037\032\336\234\030\030\216"
 182      1EDD121F 
 182      1ADE9C18 
 182      188E
 183 0778 46FA1A65 		.ascii	"F\372\032e\342IDc[\225\226\246PSc\223\217>\323\307\350"
 183      E2494463 
 183      5B9596A6 
 183      50536393 
 183      8F3ED3C7 
 184 078d 9389C6F9 		.ascii	"\223\211\306\371\216X4\036\217\364G\235}\3509\250l\211"
 184      8E58341E 
 184      8FF4479D 
 184      7DE839A8 
 184      6C89
 185 079f BA985B3C 		.ascii	"\272\230[<\021I\270\242\332\223;\021\333\032jif\217"
 185      1149B8A2 
 185      DA933B11 
 185      DB1A6A69 
 185      668F
 186 07b1 B178F3A2 		.ascii	"\261x\363\242\246\0266\256\203zL\220\355\301\201\241"
 186      A61636AE 
 186      837A4C90 
 186      EDC181A1 
 187 07c1 5834280F 		.ascii	"X4(\017\365=\025\354\213n\013\312\003\312\343"
 187      F53D15EC 
 187      8B6E0BCA 
 187      03CAE3
 188 07d0 CA503C98 		.ascii	"\312P<\230\030\376\356\226'\202\3700\020\031\014n\035"
 188      18FEEE96 
 188      2782F830 
 188      10190C6E 
 188      1D
 189 07e1 1A4EC483 		.ascii	"\032N\304\203\033\273\303\013B\301u\353:\202\335]\341"
ARM GAS  /tmp/cc3fTe16.s 			page 15


 189      1BBBC30B 
 189      42C175EB 
 189      3A82DD5D 
 189      E1
 190 07f2 6DF383F1 		.ascii	"m\363\203\361\304\346\301\301\276\306\001\322Z\014c"
 190      C4E6C1C1 
 190      BEC601D2 
 190      5A0C63
 191 0801 38212056 		.ascii	"8! Vl\010\267\207\237D\007yh8\2729\241\304\242\303\030"
 191      6C08B787 
 191      9F440779 
 191      6838BA39 
 191      A1C4A2C3 
 192 0816 EFEFECE9 		.ascii	"\357\357\354\351\356\014\257\177hV\343\374\357\264\273"
 192      EE0CAF7F 
 192      6856E3FC 
 192      EFB4BB
 193 0825 C9F4AE35 		.ascii	"\311\364\2565\233\302\2543kV\235\030\010\261\201N\323"
 193      9BC2AC33 
 193      6B569D18 
 193      08B1814E 
 193      D3
 194 0836 4067B731 		.ascii	"@g\26710#\274~\303F\326yb}\244\241.l\032\372/\015Dc"
 194      3023BC7E 
 194      C346D679 
 194      627DA4A1 
 194      2E6C1AFA 
 195 084e AC       		.ascii	"\254"
 196              		.text
 197              		.section	.gnu.lto_sensorThreadStop.a39bbb12515ab9d6,"",%progbits
 198 0000 789C6362 		.ascii	"x\234cb`b@\007\222@<\003\210\205\200\230\221\231\201"
 198      60624007 
 198      92403C03 
 198      88858098 
 198      919981
 199 0013 9169C239 		.ascii	"\221i\3029\006\206F\016&FF\020\203\201\221\241\236\211"
 199      0686460E 
 199      26464610 
 199      838191A1 
 199      9E89
 200 0025 B13E9211 		.ascii	"\261>\222\021\254v=\323\201\007\377\377\257\373uj\301"
 200      AC763DD3 
 200      8107FFFF 
 200      AFFB756A 
 200      C1
 201 0036 7E462616 		.ascii	"~F&\026&\306\\\2600+CKC\303\004\005\006\206d07\004H"
 201      26C65CB0 
 201      302B434B 
 201      43C30405 
 201      06866430 
 202 004d 82B48632 		.ascii	"\202\264\20622\201h\346\263\014M;n\254\177\311\224\310"
 202      328168E6 
 202      B30C4D3B 
 202      6EAC7FC9 
 202      94C8
 203 005f B8909195 		.ascii	"\270\220\221\225A\233aU\003\020\230g22\314f\230\305"
 203      419B6155 
ARM GAS  /tmp/cc3fTe16.s 			page 16


 203      03109867 
 203      3232CC66 
 203      98C5
 204 0071 98C9C898 		.ascii	"\230\311\310\230\316\310\024\001\244!.K\202X\304\000"
 204      CEC81401 
 204      A4212E4B 
 204      8258C400 
 205 0081 1201332E 		.ascii	"\022\0013.24>\330\257\012\321\013\003!\214\214 \223"
 205      32343ED8 
 205      AF0AD10B 
 205      03218C8C 
 205      2093
 206 0093 413A048A 		.ascii	"A:\004\212S\363\212\363\213\342K2\212R\023S\364\222"
 206      53F38AF3 
 206      8BE24B32 
 206      8A521353 
 206      F492
 207 00a5 1900EEC0 		.ascii	"\031\000\356\300,\352"
 207      2CEA
 208              		.text
 209              		.section	.gnu.lto_.symbol_nodes.a39bbb12515ab9d6,"",%progbits
 210 0000 789C45CD 		.ascii	"x\234E\315\273V\302@\020\306\361\331/DP\356W\357\362"
 210      BB56C240 
 210      10C6F1D9 
 210      2F4450EE 
 210      57EFF2
 211 0013 5856163E 		.ascii	"XV\026>\311 Q@\020D\274 \242\024\356sX\245\327\202\302"
 211      C9205140 
 211      1044BC20 
 211      A214EE73 
 211      58A5D782 
 212 0028 732C1049 		.ascii	"s,\020Ik\355\261\022\263It\322\374\3677s\262\013\002"
 212      6BEDB112 
 212      B34974D2 
 212      FCF73773 
 212      B20B02
 213 003b 8D40E187 		.ascii	"\215@\341\207\245b\242\3763\021s\267u\210\023\260\212"
 213      A562A2FE 
 213      331173B7 
 213      758813B0 
 213      8A
 214 004c 386929BB 		.ascii	"8i)\273\206D\214-\273\005\213\230\3546b&u\304\315\260"
 214      86448C2D 
 214      BB058B98 
 214      EC366226 
 214      75C4CDB0 
 215 0060 03DBE808 		.ascii	"\003\333\350\010+Fw\376\215\276\034(\243c\300\017\032"
 215      2B4677FE 
 215      8DBE1C28 
 215      A363C00F 
 215      1A
 216 0071 60C86D6A 		.ascii	"`\310mj\002\266B\326jJ=\200c\242{\260-\032\203WDW\340"
 216      02B642D6 
 216      6A4A3D80 
 216      63A27BB0 
 216      2D1A8357 
 217 0088 B868044E 		.ascii	"\270h\004N\210n\301\253\242!xMt\003N\212\256\301)\321"
ARM GAS  /tmp/cc3fTe16.s 			page 17


 217      886EC1AB 
 217      A221784D 
 217      74034E8A 
 217      AEC129D1 
 218 009c 009C165D 		.ascii	"\000\234\026]\2023\242\013pV\324\007\347D\347\340\274"
 218      8233A20B 
 218      7056D407 
 218      E744E7E0 
 218      BC
 219 00ad A8072E88 		.ascii	"\250\007.\210\272\340\242\350\014\\\022\235\202\313"
 219      BAE0A2E8 
 219      0C5C129D 
 219      82CB
 220 00bb A226B8F2 		.ascii	"\242&\270\362/\2132\344\314\177\374\246I\007M\221k\252"
 220      2F8B32E4 
 220      CC7FFCA6 
 220      49074D91 
 220      6BAA
 221 00cd AA51F7C8 		.ascii	"\252Q\367\310\371\010\253\203\356\222\027t\207t\343"
 221      F908AB83 
 221      EE921774 
 221      8774E3
 222 00dc B36AEA05 		.ascii	"\263j\352\005\335&\3354\335\"/\350&\351\266\351\006"
 222      DD26DD34 
 222      DD222FE8 
 222      26E9B6E9 
 222      06
 223 00ed B9412BE4 		.ascii	"\271A+\344Ev:\241u\320ur#{Q\235\236i\216\364\313\362"
 223      45763AA1 
 223      75D07572 
 223      237B519D 
 223      9E698EF4 
 224 0103 C9B65499 		.ascii	"\311\266T\231\274\360@\264\030|\035X\252Dz\032\014\212"
 224      BCF040B4 
 224      187C1D58 
 224      AA447A1A 
 224      0C8A
 225 0115 E44EA3CD 		.ascii	"\344N\243\315\3430\334x\257\321\306y\373\373gl6\005"
 225      E330DC78 
 225      AFD1C679 
 225      FBFB676C 
 225      3605
 226 0127 7267D1A0 		.ascii	"rg\321\240\276\230\317\222\226\312\223^|\277\357\233"
 226      BE98CF92 
 226      96CA935E 
 226      7CBFEF9B 
 227 0137 87DCF090 		.ascii	"\207\334\360\220%\355\371+\372\005\326\337\306\203"
 227      25EDF92B 
 227      FA05D6DF 
 227      C683
 228              		.text
 229              		.section	.gnu.lto_.refs.a39bbb12515ab9d6,"",%progbits
 230 0000 789C6362 		.ascii	"x\234cb`b\320d\200\000aFF&&f&\026&V&6&v f\003\262A\230"
 230      6062D064 
 230      80006146 
 230      46262666 
 230      26162656 
ARM GAS  /tmp/cc3fTe16.s 			page 18


 231 001e 05280A81 		.ascii	"\005(\012\201\034L\234L\\\014\000\025\320\000\307"
 231      1C4C9C4C 
 231      5C0C0015 
 231      D000C7
 232              		.text
 233              		.section	.gnu.lto_.decls.a39bbb12515ab9d6,"",%progbits
 234 0000 789CBD7D 		.ascii	"x\234\275}\011\224\024E\266vf\355\005-\"n\3400Z\363"
 234      09941445 
 234      B67666ED 
 234      052D226E 
 234      E0305AF3 
 235 0014 66E6FF3D 		.ascii	"f\346\377=\263Hw\203\212o\336(\330\015\302<\021^w;O"
 235      B3487783 
 235      8A6FDE28 
 235      D80DC23C 
 235      115E773B 
 236 0029 E79D77CA 		.ascii	"\347\235w\312\244\273\200\236\351\315\252j\304\377\275"
 236      A4BB809E 
 236      E9CDAA6A 
 236      C4FFBD
 237 0038 734C1A64 		.ascii	"sL\032d\023\261e\337d\221\305\005\024\032d\225\245\004"
 237      13B165DF 
 237      6491C505 
 237      141A6495 
 237      A504
 238 004a 6940B66E 		.ascii	"i@\266nvh\300f\337\224E\026Y\273\377\03372\253\"\262"
 238      7668C066 
 238      DF944516 
 238      59BBFF1B 
 238      3732AB22 
 239 005f 32B3325B 		.ascii	"2\2632[\337\253s\342fTV\306\0277n\334\270qc\311(\207"
 239      DFAB73E2 
 239      665456C6 
 239      17376EDC 
 239      B87163C9 
 240 0075 E010A63A 		.ascii	"\340\020\246:\005\241\021>\307\026\013\302\007\255\004"
 240      05A1113E 
 240      C7160BC2 
 240      07AD04
 241 0084 C12508C2 		.ascii	"\301%\010\302\263\020\036\026h|&\204\331\020\216B\370"
 241      B3101E16 
 241      687C2684 
 241      D9108E42 
 241      F8
 242 0095 8343100E 		.ascii	"\203C\020\016\301\265\035\\\217B8\006\341\004\204\012"
 242      C1B51D5C 
 242      8F423806 
 242      E104840A 
 243 00a5 C01804E1 		.ascii	"\300\030\004\341m\0103 \314\2040\013\302\177\302o\377"
 243      6D083320 
 243      CC84300B 
 243      C27FC26F 
 243      FF
 244 00b6 250AC27C 		.ascii	"%\012\302|\2107@|-\\\037\206P\015\367\004%\217\203\360"
 244      8837407C 
 244      2D5C1F86 
 244      500DF704 
ARM GAS  /tmp/cc3fTe16.s 			page 19


 244      258F83F0 
 245 00ca FD2A849B 		.ascii	"\375*\204\233\020:A\206\235!\364\204\320\013B\036\204"
 245      103A4186 
 245      9D21F484 
 245      D00B421E 
 245      84
 246 00db 57200421 		.ascii	"W \004!\364\201P\004\241\004B\024\302\233\020\376\013"
 246      F4815004 
 246      A1044214 
 246      C29B10FE 
 246      0B
 247 00ec 820C6128 		.ascii	"\202\014a(\204\367 \214\2030\031\302\014\010s \370\001"
 247      84F7208C 
 247      833019C2 
 247      0C087320 
 247      F801
 248 00fe FF13B8CE 		.ascii	"\377\023\270\316\203\3609\204\205\020\026A\370\002\302"
 248      83F03984 
 248      85101641 
 248      F802C2
 249 010d 52082B20 		.ascii	"R\010+ \254r\011\334\207\360\323\034\256]\341~\013\270"
 249      AC7209DC 
 249      87F0D31C 
 249      AE5DE17E 
 249      0BB8
 250 011f A6297258 		.ascii	"\246)rX\003d\035\204\265\020\326Cx\036\302\327\0206"
 250      03641D84 
 250      B510D643 
 250      781EC2D7 
 250      1036
 251 0131 28E95D4A 		.ascii	"(\351]J\332\236J\031HY\240\310\302E\270w\331\311\347"
 251      DA9E4A19 
 251      4859A0C8 
 251      C245B877 
 251      D9C9E7
 252 0144 41CAFBAF 		.ascii	"A\312\373\257p}BH\344Q)Rym\200\353\353\220\266\020B"
 252      707D4248 
 252      E4512952 
 252      796D80EB 
 252      EB90B610 
 253 0159 6F082320 		.ascii	"o\010# \014r\321zx\012B:\004\017\204\273\200qG\221\245"
 253      0C72D17A 
 253      780A423A 
 253      040F84BB 
 253      80714791 
 254 016e 177EDF08 		.ascii	"\027~\337\010a\256\213\326\315&\270nvQ\231\023y\317"
 254      61AE8BD6 
 254      CD26B86E 
 254      76519913 
 254      79CF
 255 0180 74D1FAF8 		.ascii	"t\321\372\370\306E\353c\212\213\326\325\026\270\216"
 255      C645EB63 
 255      8A8BD6D5 
 255      16B88E
 256 018f 77D13ADC 		.ascii	"w\321:\334\012\327J\027\255\243mp\035\346\242\365\266"
 256      0AD74A17 
 256      ADA36D70 
ARM GAS  /tmp/cc3fTe16.s 			page 20


 256      1DE6A2F5 
 256      B6
 257 01a0 1DAE0321 		.ascii	"\035\256\003!\354\200\360\337\020j \224C\250\205\360"
 257      EC80F0DF 
 257      106A2094 
 257      43A885F0 
 258 01b0 6F10EA00 		.ascii	"o\020\352\000o')\274\033\370\200\213\010\327\227I\331"
 258      6F2729BC 
 258      1BF8808B 
 258      08D79749 
 258      D9
 259 01c1 E15A0A57 		.ascii	"\341Z\012W\247;\241\023u\020\\\360\275\257+\2413n\370"
 259      A73BA113 
 259      75105CF0 
 259      BDAF2BA1 
 259      336EF8
 260 01d4 FE9A2BA1 		.ascii	"\376\232+\241O\036w\262\276\275\012\277\337Kd\014W\017"
 260      4F1E77B2 
 260      BEBD0ABF 
 260      DF4B640C 
 260      570F
 261 01e6 8434087F 		.ascii	"\2044\010\177\202\360\014\204\247!<\011\241=\204\014"
 261      82F00C84 
 261      A7213C09 
 261      A13D840C 
 262 01f6 086D213C 		.ascii	"\010m!<\012\341\024\204\226\020\036\201\360\000\011"
 262      0AE11484 
 262      96101E81 
 262      F00009
 263 0205 8ADCE728 		.ascii	"\212\334\347(\3721Y\321\227\367\024\375\221\025}Ru\313"
 263      FA3159D1 
 263      97F714FD 
 263      91157D52 
 263      75CB
 264 0217 EBA6FA47 		.ascii	"\353\246\372G\364\215\324k\221\242\203AE'\211~6\003"
 264      F48DD46B 
 264      91A28341 
 264      4527897E 
 264      3603
 265 0229 CCEB4EAA 		.ascii	"\314\353N\252C\252n\255`\364\213\325=\366Ct\335\251"
 265      43AA6EAD 
 265      60F48BD5 
 265      3DF64374 
 265      DDA9
 266 023b B42DB51E 		.ascii	"\264-\265\036E\245|\242\362;\271>\253I\347\023\206\312"
 266      45A57CA2 
 266      F23BB93E 
 266      AB49E713 
 266      86CA
 267 024d 72855CFF 		.ascii	"r\205\\\377\266<P|\035\330\020%\261\205\037\356\222"
 267      B63C507C 
 267      1DD81025 
 267      B1851FEE 
 267      92
 268 025e 489A1F93 		.ascii	"H\232\037\223\374V\230-\313r\245,;$q\246\350\003\025"
 268      FC56982D 
 268      CB72A52C 
ARM GAS  /tmp/cc3fTe16.s 			page 21


 268      3B2471A6 
 268      E80315
 269 0271 748882EE 		.ascii	"t\210\202\356\207\376N>$9\215\2531\221\264\201\021$"
 269      87FE4E3E 
 269      24398DAB 
 269      3191B481 
 269      1124
 270 0283 AF1943E4 		.ascii	"\257\031C\344n\233Z\264\022\336\007T9\260\251E<W\250"
 270      6E9B5AB4 
 270      12DE0754 
 270      39B0A945 
 270      3C57A8
 271 0296 5325DB0E 		.ascii	"S%\333\016j\266\225\365U\337}\364\317\262\354\223\304"
 271      6AB695F5 
 271      55DF7DF4 
 271      CFB2EC93 
 271      C4
 272 02a7 39622BC8 		.ascii	"9b+\310\272\207(\374N\370\204\362s\354\367z|\244\004"
 272      BA8728FC 
 272      4EF884F2 
 272      73ECF77A 
 272      7CA404
 273 02ba 96C48F44 		.ascii	"\226\304\217D\007\320O\000P\022?\026\177\247\2240\326"
 273      07D04F00 
 273      50123F16 
 273      7FA79430 
 273      D6
 274 02cb 38394D76 		.ascii	"89Mv\321\373\202\362\213\316\347W\302\014(ElB\335\264"
 274      D1FB82F2 
 274      8BCEE757 
 274      C20C2845 
 274      6C42DDB4 
 275 02df 87E5FA98 		.ascii	"\207\345\372\230\350\025\206P\001V\264\236\330\302D"
 275      E8158650 
 275      0156B49E 
 275      D8C244
 276 02ee 8095F577 		.ascii	"\200\225\365w\253wg`I\346C\"\207\360\276(r\231X\000"
 276      AB776760 
 276      49E64322 
 276      87F0BE28 
 276      72995800 
 277 0302 225C2D80 		.ascii	"\"\\-\200\304\034\327K\206\334K\270&\367M\270v\022\313"
 277      C41CD74B 
 277      86DC4BB8 
 277      26F74DB8 
 277      7612CB
 278 0315 01A61932 		.ascii	"\001\246\0312%\200.\177\342\336G\211{\"\363\350\302"
 278      25802E7F 
 278      E2DE4789 
 278      7B22F3E8 
 278      C2
 279 0326 C46D0773 		.ascii	"\304m\007s{e\342\266\223\271\275!q\333\305\334\336\231"
 279      7B65E2B6 
 279      93B9BD21 
 279      71DBC5DC 
 279      DE99
 280 0338 B8ED5638 		.ascii	"\270\355V8!_E\177\"\322\310W\"[BI\\(\376\026h\225\350"
ARM GAS  /tmp/cc3fTe16.s 			page 22


 280      215F457F 
 280      22D2C857 
 280      225B4249 
 280      5C28FE16 
 281 034f D44DE610 		.ascii	"\324M\346\020\016\241\020I\215\351\311K\211&\362m\241"
 281      0EA11049 
 281      8DE9C94B 
 281      8926F26D 
 281      A1
 282 0360 7E516AB1 		.ascii	"~Qj\261\276j\325\322g'\311\261\301N=\335\204/\"\243"
 282      BE6AD5D2 
 282      6727C9B1 
 282      C14E3DDD 
 282      842F22A3 
 283 0374 450115CF 		.ascii	"E\001\025\317\025\257\323\330\265\203b@}\332c\364\254"
 283      15AFD3D8 
 283      B5836240 
 283      7DDA63F4 
 283      AC
 284 0385 247E05C5 		.ascii	"$~\005\305H\371\030yp\275V'/\037D\235\\oI'\257\034\234"
 284      48F91879 
 284      70BD5627 
 284      2F1F449D 
 284      5C6F4927 
 285 039c D6469EB1 		.ascii	"\326F\236\261\016\2443,Q\0303\376\353\307\275\267\341"
 285      0EA4332C 
 285      511833FE 
 285      EBC7BDB7 
 285      E1
 286 03ad 2BB14296 		.ascii	"+\261B\226\341\207j\221T\364P\007\257\225\326\241jG"
 286      E1876A91 
 286      54F45007 
 286      AF95D6A1 
 286      6A47
 287 03bf AF7A06D5 		.ascii	"\257z\006\325{3\002m\320\000I\242\327\317\262\214\337"
 287      7B33026D 
 287      D00049A2 
 287      D7CFB28C 
 287      DF
 288 03d0 D507089A 		.ascii	"\325\007\010\232\327\237\210\020\357\341^\301\356\343"
 288      D79F8810 
 288      EFE15EC1 
 288      EEE3
 289 03de 0EA10633 		.ascii	"\016\241\0063]\237P\007\216Q\023u`\362\241\212\3675"
 289      5D9F5007 
 289      8E511375 
 289      60F2A18A 
 289      F735
 290 03f0 2ADE06F1 		.ascii	"*\336\006\361W\211\237\034\302\336\2442\321zaR'*P\320"
 290      57899F1C 
 290      C2DEA432 
 290      D17A6152 
 290      272A50D0 
 291 0404 A637AAF3 		.ascii	"\2467\252\363\265b\363D\026\365\016\215B\247,A\200U"
 291      B562F344 
 291      16F50E8D 
 291      42A72C41 
ARM GAS  /tmp/cc3fTe16.s 			page 23


 291      8055
 292 0416 0130977A 		.ascii	"\0010\227z\012\255\324\242<D~\374\343D-\266T\361\034"
 292      0AADD4A2 
 292      3C447EFC 
 292      E3442DB6 
 292      54F11C
 293 0429 F15A8C4D 		.ascii	"\361Z\214M\037\363 \321\267Z\254\303\323\372\312\220"
 293      1FF320D1 
 293      B75AACC3 
 293      D3FACA90 
 294 0439 1A06F46A 		.ascii	"\032\006\364j\331\037P\031v#\320\225&\003\325\216\376"
 294      D91F5019 
 294      7623D095 
 294      2603D58E 
 294      FE
 295 044a 886AD53E 		.ascii	"\210j\325>\004\272\223T\003N\215V9y5q\372\023\221\306"
 295      04BA9354 
 295      034E8D56 
 295      39793571 
 295      FA1391C6 
 296 045e 46DE69FA 		.ascii	"F\336i\372\231\0376\252\337\032\266~\207:-\324o\242"
 296      991F36AA 
 296      DF1AB67E 
 296      873A2DD4 
 296      6FA2
 297 0470 0F4D3658 		.ascii	"\017M6Xw\226\376\031\353\327z\303\\;y\357\025\245\215"
 297      7796FE19 
 297      EBD77AC3 
 297      5C3B79EF 
 297      15A58D
 298 0483 1F4221AE 		.ascii	"\037B!\256sj\205\350\326\010\321\315\027\325\355OD\342"
 298      736A85E8 
 298      D608D1CD 
 298      17D5ED4F 
 298      44E2
 299 0495 6D6DB3ED 		.ascii	"mm\263\355\222h4u\3762\023\323+s\2467\346P\001\037O"
 299      92683475 
 299      FE3213D3 
 299      2B73A637 
 299      E650011F 
 300 04aa A8EA9E84 		.ascii	"\250\352\236\204\355\015\030>+\211\307\023\266\327\370"
 300      ED0D183E 
 300      2B89C713 
 300      B6D7F8
 301 04b9 31F2E0C9 		.ascii	"1\362\340\311$\333\273\027m\357IK\266\367\346^\352\017"
 301      24DBBB17 
 301      6DEF494B 
 301      B6F7E65E 
 301      EA0F
 302 04cb A83ED20E 		.ascii	"\250>\322\016\024\317\311\246\366L\261\312\011i5\257"
 302      14CFC9A6 
 302      F64CB1CA 
 302      096935AF 
 303 04db 596FB72B 		.ascii	"Yo\267+h\273=\207\025\274?\251\202w\2136\233\211C8\257"
 303      68BB3D87 
 303      15BC3FA9 
 303      82778B36 
ARM GAS  /tmp/cc3fTe16.s 			page 24


 303      9B894338 
 304 04f0 2D0097AD 		.ascii	"-\000\227\255^\001Zr\005\230\264\217vF\\\365>$\214S"
 304      5E015A72 
 304      0598B48F 
 304      76465CF5 
 304      3E248C53 
 305 0504 7A56598C 		.ascii	"zVY\214J\342\263\017\032\266\232K\342C\030sR\357C\022"
 305      4AE2B30F 
 305      1AB69A4B 
 305      E2431873 
 305      52EF4312 
 306 0518 670352FC 		.ascii	"g\003R\374\213\322\246\342\337\017\321\362I\342\313"
 306      8BD2A6E2 
 306      DF0FD1F2 
 306      49E2CB
 307 0527 89566BD2 		.ascii	"\211Vk\322mO\031\377\000\221\326E@q\01074\322\342\030"
 307      6D4F19FF 
 307      0091D645 
 307      40710837 
 307      34D2E218 
 308 053b A68C1831 		.ascii	"\246\214\0301y\035\000\364\025#\3517\2070\304\245\021"
 308      791D00F4 
 308      1523E937 
 308      8730C4A5 
 308      11
 309 054c A83DD31E 		.ascii	"\250=\323\036\253\372i\002\275e\"P\313Nl\354\360.1 "
 309      ABFA6902 
 309      BD652250 
 309      CB4E6CEC 
 309      F02E3120 
 310 0560 8977D183 		.ascii	"\211w\321\203}\327\325$\017Vvh<\330}c\320\203%\367S"
 310      7DD7D524 
 310      0F567668 
 310      3CD87D63 
 310      D08325F7 
 311 0575 7BB0135D 		.ascii	"{\260\023]\311\036\354<\027\357\301\012\026\274\314"
 311      C91EEC3C 
 311      17EFC10A 
 311      16BCCC
 312 0584 04179238 		.ascii	"\004\027\2228\320A:\373\012\207\276\227iC\257VS\275"
 312      D0413AFB 
 312      0A87BE97 
 312      6943AF56 
 312      53BD
 313 0596 BA897AB5 		.ascii	"\272\211z\265\312e\252W\267L\364j\230\303X\2574\277"
 313      CA65AA57 
 313      B74CF46A 
 313      98C358AF 
 313      34BF
 314 05a8 81A5B1A2 		.ascii	"\201\245\261\242W\306]Jl\255\242W\252\013\270\3376\036"
 314      57C65D4A 
 314      6CADA257 
 314      AA0BB8DF 
 314      361E
 315 05ba AFA787F6 		.ascii	"\257\247\207\366\245UJ*\330!+`-\215\231\273\301\202"
 315      A5554A2A 
 315      D8212B60 
ARM GAS  /tmp/cc3fTe16.s 			page 25


 315      2D8D99BB 
 315      C182
 316 05cc D5DB06E3 		.ascii	"\325\333\006\3439\033{\220\001;e\005\254\2651g\323X"
 316      391B7B90 
 316      013B6505 
 316      ACB53167 
 316      D358
 317 05de B0EF6C83 		.ascii	"\260\357l\203\361\234-g\301.[\001\013\030s\266\223\005"
 317      F19C2D67 
 317      C12E5B01 
 317      0B1873B6 
 317      9305
 318 05f0 BB6E1B2C 		.ascii	"\273n\033,\220\244r\264\225\234B\227\3704\270\264\222"
 318      90A472B4 
 318      959C4297 
 318      F834B8B4 
 318      92
 319 0601 7816E905 		.ascii	"x\026\351\005\2447\220\216p\020:\022\351(\244\225HG"
 319      A437908E 
 319      70103A12 
 319      E928A495 
 319      4847
 320 0613 231D8B74 		.ascii	"#\035\213t\274\203s\247o\273\264\335\324I\255;}\222"
 320      BC8373A7 
 320      6FBBB4DD 
 320      D449AD3B 
 320      7D92
 321 0625 73A77FB6 		.ascii	"s\247\177\266\274\215\332\335Q\326U\033\345\266\340"
 321      BC8DDADD 
 321      51D6551B 
 321      E5B6E0
 322 0634 E098A8EE 		.ascii	"\340\230\250\356\245:\250\206\224s\036.\025)[\210{l"
 322      A53AA886 
 322      94731E2E 
 322      15295B88 
 322      7B6C
 323 0646 FBCEC55A 		.ascii	"\373\316\305Z\257\224\345\226\2228\325A&=\266\272yA"
 323      AF94E596 
 323      9238D541 
 323      263DB6BA 
 323      7941
 324 0658 A5C47108 		.ascii	"\245\304q\010{0\311t\007\357\322\3247^\250\377\305D"
 324      7B30C974 
 324      07EFD2D4 
 324      375EA8FF 
 324      C544
 325 066a 44263FA5 		.ascii	"D&?\245\366jn\017\371 \271\317\241l\031\311p\226\326"
 325      F66A6E0F 
 325      F920B9CF 
 325      A16C19C9 
 325      7096D6
 326 067d 3E8DF5A8 		.ascii	">\215\365\250\254\330\034\224)<4T\243:\023\\\2070\305"
 326      ACD81C94 
 326      293C3454 
 326      A33A135C 
 326      8730C5
 327 0690 36588003 		.ascii	"6X\200\003\033\263q\252\335!\362\2253mV\243\310>v\220"
ARM GAS  /tmp/cc3fTe16.s 			page 26


 327      1BB371AA 
 327      DD21F295 
 327      336D56A3 
 327      C83E7690 
 328 06a4 0675DEA3 		.ascii	"\006u\336\243\325\332j\255see\250z\305JA\014\2556\251"
 328      D5DA6AAD 
 328      736565A8 
 328      7AC54A41 
 328      0CAD36A9 
 329 06b8 C99AB62B 		.ascii	"\311\232\266+\026\311\362pO\312\211\005\207p\0133\373"
 329      16C9F270 
 329      4FCA8905 
 329      87700B33 
 329      FB
 330 06c9 4CAB0DE3 		.ascii	"L\253\015\343n\325\374\221j\303g\226\264a\331\226\011"
 330      6ED5FC91 
 330      6AC36796 
 330      B461D996 
 330      09
 331 06da C9DAA0A7 		.ascii	"\311\332\240\247\214\0365\373\002\314~\225\227d\277"
 331      8C1E35FB 
 331      02CC7E95 
 331      9764BF
 332 06e9 489B7D55 		.ascii	"H\233}U\303\231gi\366\213,e\377\355\216\261z\312h\340"
 332      C3996769 
 332      F68B2C65 
 332      FFED8EB1 
 332      7ACA68E0 
 333 06fd F3A8D577 		.ascii	"\363\250\325w\353\322\343\3231\223\245\250@C|\332\352"
 333      EBD2E3D3 
 333      3193A5A8 
 333      40437CDA 
 333      EA
 334 070e 7BAE399B 		.ascii	"{\2569\233\027~\347\364\367=\237\312}\223\364\027\212"
 334      177EE7F4 
 334      F73D9FCA 
 334      7D93F417 
 334      8A
 335 071f 197BEE13 		.ascii	"\031{\356\023\254)\225\2071\266\021y%\376a\007\266\010"
 335      AC299587 
 335      31B61179 
 335      25FE6107 
 335      B608
 336 0731 0A36C10A 		.ascii	"\0126\301\012\230I\367\177\225\005\233b\033\214\347"
 336      9849F77F 
 336      95059B62 
 336      1B8CE7
 337 0740 EC3A0B36 		.ascii	"\354:\0136\335\012\230Y\337\317\202\315\262\015\306"
 337      DD0A9859 
 337      DFCF82CD 
 337      B20DC6
 338 074f 73768B05 		.ascii	"sv\213\005\373\310\012\230I\337\177\207\005\233g\033"
 338      FBC80A98 
 338      49DF7F87 
 338      059B671B 
 339 075f 8CE7AC81 		.ascii	"\214\347\254\201\005[`\005,`\314Y\345N\006l\261m0\236"
 339      055B6005 
ARM GAS  /tmp/cc3fTe16.s 			page 27


 339      2C60CC59 
 339      E54E066C 
 339      B16D309E 
 340 0773 B3D12CD8 		.ascii	"\263\321,\3302+`\217\033s6\226\005\373\3226\030\317"
 340      322B608F 
 340      1B733696 
 340      05FBD236 
 340      18CF
 341 0785 D978166C 		.ascii	"\331x\026l\255\025\260tc\316&\262`\353m\203\361\234"
 341      AD15B074 
 341      63CE26B2 
 341      60EB6D83 
 341      F19C
 342 0797 4D66C136 		.ascii	"Mf\3016Z\001\353h\314\331T\026l\213m0\236\263\205,\330"
 342      5A01EB68 
 342      CCD95416 
 342      6C8B6D30 
 342      9EB3852C 
 343 07ac 0E2B609D 		.ascii	"\016+`\235\2149[\304\202\355\264\015\306s\366\005\013"
 343      8C395BC4 
 343      82EDB40D 
 343      C673F605 
 343      0B
 344 07bd B6C70A58 		.ascii	"\266\307\012X7c\316\226\262`\373m\203\361\234-g\301"
 344      3763CE96 
 344      B260FB6D 
 344      83F19C2D 
 344      67C1
 345 07cf EA       		.ascii	"\352"
 346 07d0 AC80F532 		.ascii	"\254\200\3652\346l%\013v\3046\030\317\331*\026\354\250"
 346      E66C250B 
 346      76C43618 
 346      CFD92A16 
 346      ECA8
 347 07e2 15B0578C 		.ascii	"\025\260W\2149[\303\202\235\264\015\306sV\303\202\235"
 347      395BC382 
 347      9DB40DC6 
 347      7356C382 
 347      9D
 348 07f3 B502F69A 		.ascii	"\265\002\366\232\016g\361\217\221\237Y\345`|\365\357"
 348      0E67F18F 
 348      919F59E5 
 348      607CF5EF 
 349 0803 7CAA8363 		.ascii	"|\252\203c\263\217\026\022\030\227|v=2\256\334\304\267"
 349      B38F1612 
 349      18977C76 
 349      3D32AEDC 
 349      C4B7
 350 0815 6EBB52E9 		.ascii	"n\273R\351\347\251\263z\335\012\242I\0078y#\343\371"
 350      E7A9B37A 
 350      DD0AA249 
 350      07387923 
 350      E3F9
 351 0827 36D806D3 		.ascii	"6\330\006\323\250\362F\355pD\361\201\353\347\304\314"
 351      A8F246ED 
 351      7044F181 
 351      EBE7C4CC 
ARM GAS  /tmp/cc3fTe16.s 			page 28


 352 0837 677D70ED 		.ascii	"g}p\3557\376\260\334\272\265\376\263\222x\005\347Q\256"
 352      37FEB0DC 
 352      BAB5FEB3 
 352      927805E7 
 352      51AE
 353 0849 3AFC712E 		.ascii	":\374q.h\\\215\3215\273!~\303\345c\363\244F\232p\231"
 353      685C8DD1 
 353      35BB217E 
 353      C3E563F3 
 353      A4469A70 
 354 085e D58477FC 		.ascii	"\325\204w\374\026\304d\322\265\177\273q*\316\3432\345"
 354      16C464D2 
 354      B57FBB71 
 354      2ACEE332 
 354      E5
 355 086f 4DB1AE3B 		.ascii	"M\261\256;\356J\2152@\270\201\003\204\321~\335\305\016"
 355      EE4A8D32 
 355      40B88103 
 355      84D17EDD 
 355      C50E
 356 0881 2B48EF7D 		.ascii	"+H\357}\366{\\\354\270\215@S\232\014T;zZG\004j@\240"
 356      F67B5CEC 
 356      B88D4053 
 356      9A0C543B 
 356      7A5A4704 
 357 0898 591A2065 		.ascii	"Y\032 e\216\213\021\274\310\217XLg\316~\306g\035\302"
 357      8E8B11BC 
 357      C88F584C 
 357      67CE7EC6 
 357      671DC2
 358 08ab 67DAEAD2 		.ascii	"g\332\352\322\233&7v\236\240\321\355\177l\305\347\262"
 358      9B263776 
 358      9EA0D1ED 
 358      7F6CC5E7 
 358      B2
 359 08bc 3CC863A7 		.ascii	"<\310c\247\3026)\0256\310I\304\263$I<\267\035\366\344"
 359      C2362915 
 359      36C849C4 
 359      B324493C 
 359      B71DF6E4 
 360 08d0 E31056DB 		.ascii	"\343\020V\333.\307\343\232r\304\036\267_\216\375J9\206"
 360      2EC7E39A 
 360      72C41EB7 
 360      5F8EFD4A 
 360      3986
 361 08e2 613936FC 		.ascii	"a96\374\014\345\330f\273\034\351L9pX\372\004\035\226"
 361      0CE5D866 
 361      BB1CE94C 
 361      397058FA 
 361      041D96
 362 08f5 DE2F8C4E 		.ascii	"\336/\214N\275\336\375\256\363~nL\030;\360\015\231_"
 362      BDDEFDAE 
 362      F37E6E4C 
 362      183BF00D 
 362      995F
 363 0907 26B7538D 		.ascii	"&\267S\215\007\345\330\217\3370cy\331\332X\376\222\""
 363      07E5D88F 
ARM GAS  /tmp/cc3fTe16.s 			page 29


 363      DF306379 
 363      D9DA58FE 
 363      9222
 364 0919 B14A94D8 		.ascii	"\261J\224\330n\275\026f\015i\307\327U\312\242\332\030"
 364      6EBD1666 
 364      0D69C7D7 
 364      55CAA2DA 
 364      18
 365 092a 843AD864 		.ascii	"\204:\330d\250\332\235\313hc\035\217@\307\222j\321\243"
 365      A8DA9DCB 
 365      68631D8F 
 365      40C7926A 
 365      D1A3
 366 093c A9440F5F 		.ascii	"\251D\017_\211\360\225\344t\203L-\210o)w\310\027\257"
 366      89F095E4 
 366      74834C2D 
 366      886F2977 
 366      C817AF
 367 094f F0BF9E0E 		.ascii	"\360\277\236\016zbd\237T\240\315\2368\241@\177X\241"
 367      7A62649F 
 367      54A0CD9E 
 367      38A1407F 
 367      58A1
 368 0961 F4A2B492 		.ascii	"\364\242\264\222\256\374$\304\212\330\342w>P\346\267"
 368      AEFC24C4 
 368      8AD8E277 
 368      3E50E6B7 
 369 0971 9F23FDE8 		.ascii	"\237#\375\350\235\237\010W\273\305\376\014R\354\021"
 369      9D9F0857 
 369      BBC5FE0C 
 369      52EC11
 370 0980 AA75D3B1 		.ascii	"\252u\323\261@\203\232\375,3H\3575kbA\342\037\2070\276"
 370      40839AFD 
 370      2C3348EF 
 370      356B6241 
 370      E21F8730 
 371 0995 9985DE32 		.ascii	"\231\205\3362`V[7\236\2608\013\025\237\333<\323z\023"
 371      60565B37 
 371      9EB0380B 
 371      159FDB3C 
 371      D37A13
 372 09a8 0A638E93 		.ascii	"\012c\216\223\314mN\326\010\303\302l\326'4\2113in\263"
 372      CC6D4ED6 
 372      08C3C26C 
 372      D6273489 
 372      33696EB3 
 373 09bc A60D9D4E 		.ascii	"\246\015\235N\"?Y\230\315\032\242\352\005\235\262\234"
 373      223F5998 
 373      CD1AA2EA 
 373      059DB29C 
 374 09cc ED7028B0 		.ascii	"\355p(\260M\225'W\205\011\376$\361S'q\214\3469\271\351"
 374      4D952757 
 374      8509FE24 
 374      F1532771 
 374      8CE639B9 
 375 09e1 EF15B665 		.ascii	"\357\025\266e\037`e\037\273\275e\252H\370\327\231\200"
 375      1F60651F 
ARM GAS  /tmp/cc3fTe16.s 			page 30


 375      BBBD65AA 
 375      48F8D799 
 375      80
 376 09f2 EBC4BAAB 		.ascii	"\353\304\272\253q\301\327\267\331\214\342\371\034\005"
 376      71C1D7B7 
 376      D98CE2F9 
 376      1C05
 377 0a00 BFDE40F0 		.ascii	"\277\336@\360\235\214p\034\302.LR\225,\370M\217P\301"
 377      9D8C701C 
 377      C22E4C52 
 377      952CF84D 
 377      8F50C1
 378 0a13 575912FC 		.ascii	"WY\022\374\036]\301W\331\027\274\202\26771A,\211sm\203"
 378      1E5DC157 
 378      D917BC82 
 378      B7373141 
 378      2C89736D 
 379 0a28 05CC6AB1 		.ascii	"\005\314j\261\212\251\305\305X\213_8\311r\302\022\276"
 379      8AA9C5C5 
 379      588B5F38 
 379      C972C212 
 379      BE
 380 0a39 2E4F68EB 		.ascii	".Oh\353\222\223\234\0225\234\034\221cc\266OUDBm\336"
 380      92939C12 
 380      359C1C91 
 380      6363B64F 
 380      5544426D 
 381 0a4e 452BBA61 		.ascii	"E+\272a2\2451m;\212\204\332\233k\266\301\002\034\330"
 381      32A5316D 
 381      3B8A84DA 
 381      9B6BB6C1 
 381      021CD8
 382 0a61 EA513A8B 		.ascii	"\352Q:\213\000:Z'\213\3540\304!\310\315I\276\253\265"
 382      003A5A27 
 382      8BEC30C4 
 382      21C8CD49 
 382      BEABB5
 383 0a74 EAF2C1CA 		.ascii	"\352\362\301\312\332\241\342@\354:W[\320\027\350\347"
 383      DAA1E240 
 383      EC3A575B 
 383      D017E8E7 
 384 0a84 4FFAE5D1 		.ascii	"O\372\345\321i\252\336\256\214\243\232\210\332D[n\237"
 384      69AADEAE 
 384      8CA39A88 
 384      DA445B6E 
 384      9F
 385 0a95 DD2C221C 		.ascii	"\335,\"\034\035V\255\323\302\245\034\365\361p\015\241"
 385      1D56ADD3 
 385      C2A51CF5 
 385      F1700DA1 
 386 0aa5 4DE9F604 		.ascii	"M\351\366\004\243\254\025\327\255 \236N5\226\351\233"
 386      A3AC15D7 
 386      AD209E4E 
 386      3596E99B 
 387 0ab5 E6DA1E81 		.ascii	"\346\332\036\201J\206Q\304\325\214\"\256EE\214\241\""
 387      4A8651C4 
 387      D58C22AE 
ARM GAS  /tmp/cc3fTe16.s 			page 31


 387      45458CA1 
 387      22
 388 0ac6 AE43FA35 		.ascii	"\256C\3725\253\216F\316\326\006'3N\332i\273\334\001"
 388      AB8E46CE 
 388      D6062733 
 388      4EDA69BB 
 388      DC01
 389 0ad8 4DED1865 		.ascii	"M\355\030e\263\212\315\346@s\013\272g<\003F\214\372"
 389      B38ACDE6 
 389      40730BBA 
 389      673C0346 
 389      8CFA
 390 0aea 3FABEE00 		.ascii	"?\253\356\000]\1779n\033\221\327\346\313\2438w\340\202"
 390      5D7F396E 
 390      1B91D7E6 
 390      CBA33877 
 390      E082
 391 0afc 15B84E3A 		.ascii	"\025\270N:\014\352}\330\0257I\234\211\303\341\017q\371"
 391      0CEA7DD8 
 391      1537499C 
 391      89C3E10F 
 391      71F9
 392 0b0e 710ED28F 		.ascii	"q\016\322\217\220\316G\372\035\322\013H/!\375\021i\005"
 392      90CE47FA 
 392      1DD20B48 
 392      2F21FD11 
 392      6905
 393 0b20 56E850A4 		.ascii	"V\350P\244#\221\316F\372\031\322eHW \375\022\351\026"
 393      2391CE46 
 393      FA19D265 
 393      485720FD 
 393      12E916
 394 0b33 A4DB5229 		.ascii	"\244\333R)\200\322\013\034^{\240\355|\264\325SP\375"
 394      80D20B1C 
 394      5E7BA0ED 
 394      7CB4D553 
 394      50FD
 395 0b45 3F4FD36A 		.ascii	"?O\323j\336,\207f=$iA\357\2534\273\013\243l\015\310"
 395      DE2C8766 
 395      3D246941 
 395      EFAB34BB 
 395      0BA36C0D 
 396 0b5a F5553796 		.ascii	"\365U7\226\375y \331\371E\325_\022\3278\035< \337`\364"
 396      FD7920D9 
 396      F945D55F 
 396      12D7381D 
 396      3C20DF60 
 397 0b6f 461D9C96 		.ascii	"F\035\234\226\304\246O\233n\315B\271U\260^\011\221T"
 397      C4A64F9B 
 397      6ECD42B9 
 397      55B05E09 
 397      9154
 398 0b81 9DDADC71 		.ascii	"\235\332\334q\020\232\243=\330\030\007\337\223r\265"
 398      109AA33D 
 398      D81807DF 
 398      9372B5
 399 0b90 95C72142 		.ascii	"\225\307!B\332\257\261r\261e[p\363\330\376\324\026n"
ARM GAS  /tmp/cc3fTe16.s 			page 32


 399      DAAFB172 
 399      B1655B70 
 399      F3D8FED4 
 399      166E
 400 0ba2 F0A0D897 		.ascii	"\360\240\330\227[\306&|\312A\246>\245$n\304ux+\036b"
 400      5BC6267C 
 400      CA41A63E 
 400      A5246EC4 
 400      75782B1E 
 401 0bb7 2596647F 		.ascii	"%\226d\177\323:V`k\325\026\354E\352\260\027\031c\033"
 401      D33A5660 
 401      6BD516EC 
 401      45EAB017 
 401      19631B
 402 0bca 2CC081AD 		.ascii	",\300\201\255a\301&X\0013\262\272\000V\303\202M\261"
 402      61C12658 
 402      0133B2BA 
 402      0056C382 
 402      4DB1
 403 0bdc 0DC673B6 		.ascii	"\015\306s\266\223\005\233i\005\314h\316\016\300v\263"
 403      93059B69 
 403      05CC68CE 
 403      0EC076B3 
 404 0bec 601FD906 		.ascii	"`\037\331\006\3439\333\313\202}f\005\314\250\221\000"
 404      E339DBCB 
 404      827D6605 
 404      CCA89100 
 405 0bfc D87E166C 		.ascii	"\330~\026l\261m0\236\263\203,\330\012+`\001c\316\016"
 405      B16D309E 
 405      B3832CD8 
 405      0A2B6001 
 405      63CE0E
 406 0c0f B1606B6D 		.ascii	"\261`km\203\361\234\035a\301\326[\0013\362\313\000\354"
 406      83F19C1D 
 406      61C1D65B 
 406      0133F2CB 
 406      00EC
 407 0c21 120BB6D1 		.ascii	"\022\013\266\3216\030\317\331\017,\330V+`F\036\036\200"
 407      3618CFD9 
 407      0F2CD856 
 407      2B60461E 
 407      1E80
 408 0c33 5D65C16A 		.ascii	"]e\301jm\203\361\234]g\301\366Z\0013\352\262\001\354"
 408      6D83F19C 
 408      5D67C1F6 
 408      5A0133EA 
 408      B201EC
 409 0c46 060B5667 		.ascii	"\006\013Vg\033\214\347\354\026\013Vo\005\254\2231gw"
 409      1B8CE7EC 
 409      160B566F 
 409      05AC9331 
 409      6777
 410 0c58 58B093B6 		.ascii	"X\260\223\266\301x\316\032X\260sV\300\214\026\255\000"
 410      C178CE1A 
 410      58B07356 
 410      C08C16AD 
 410      00
ARM GAS  /tmp/cc3fTe16.s 			page 33


 411 0c69 AC723B03 		.ascii	"\254r;\003v\3216X@0\374\260]\223$\036@\317\361 \272"
 411      76D13658 
 411      4030FCB0 
 411      5D93241E 
 411      40CFF120 
 412 0c7e 0C87917E 		.ascii	"\014\207\221~\213\364(\322\343HO\"=\215\364,\322\363"
 412      8BF428D2 
 412      E3484F22 
 412      3D8DF42C 
 412      D2F3
 413 0c90 48BF477A 		.ascii	"H\277Gz\021\351e\244W\220^C\372#\322\233Ho#\275\213"
 413      11E965A4 
 413      57905E43 
 413      FA23D29B 
 413      486F23BD 
 414 0ca5 B411E940 		.ascii	"\264\021\351@\227\005\377t7\3538\376p\217\005'\303x"
 414      9705FF74 
 414      37EB38FE 
 414      708F0527 
 414      C378
 415 0cb7 B9B9BEEA 		.ascii	"\271\271\276\352\273U\226\267\227\277\246\342\221\267"
 415      BB5596B7 
 415      97BFA6E2 
 415      91B7
 416 0cc5 265547E9 		.ascii	"&UG\351\342\346\177!^\201N\357\317=\016\256\232Kw\203"
 416      E2E67F21 
 416      5E814EEF 
 416      CF3D0EAE 
 416      9A4B7783 
 417 0cd9 39F71479 		.ascii	"9\367\024yn\270K\343\"\\\333\216.\002\271\237z\320\374"
 417      6EB84BE3 
 417      225CDB8E 
 417      2E02B99F 
 417      7AD0FC
 418 0cec A3C54158 		.ascii	"\243\305AX,\356:\265\026X\027\347Y\352\342\274\353\""
 418      2CEE3AB5 
 418      165817E7 
 418      59EAE2BC 
 418      EB22
 419 0cfe 2ECEEA16 		.ascii	".\316\352\026)]\034\036\207\360W\251\345\177\361\016"
 419      295D1C1E 
 419      87F057A9 
 419      E57FF10E 
 420 0d0e E4BF3235 		.ascii	"\344\27725\377\240\341\313\224\315;\252\222\327 \013"
 420      FFA0E1CB 
 420      94CD3BAA 
 420      92D7200B 
 421 0d1e 246DD37C 		.ascii	"$m\323|\223\345;\230\026\263\3136X\200\003[\311\202"
 421      93E53B98 
 421      16B3CB36 
 421      5880035B 
 421      C982
 422 0d30 EDB70266 		.ascii	"\355\267\002f\342\233\254b\301\016\331\006\3439[\303"
 422      E29BAC62 
 422      C10ED906 
 422      E3395BC3 
 423 0d40 821DB502 		.ascii	"\202\035\265\002f\342\233\324\260`\247l\203\005\364"
ARM GAS  /tmp/cc3fTe16.s 			page 34


 423      66E29BD4 
 423      B060A76C 
 423      8305F4
 424 0d4f AA5748D2 		.ascii	"\252WH\322\016I|\337E\254\314h\027i\371c\221\216G:\021"
 424      0E497CDF 
 424      45ACCC68 
 424      1769F963 
 424      918E473A 
 425 0d64 E964A453 		.ascii	"\351d\244S\255X\204\221.\306\"\234C\206\2077Mc\300\""
 425      AD588491 
 425      2EC6229C 
 425      43868737 
 425      4D63C022 
 426 0d78 1CBE78F4 		.ascii	"\034\276x\364Ot}V\263\201\214\310\303\210\203\031,\007"
 426      4F747D56 
 426      B3818CC8 
 426      C3888319 
 426      2C07
 427 0d8a 976D7310 		.ascii	"\227ms\020`9\210\335\336>UyG\204.\360]\327\342\351-"
 427      603988DD 
 427      DE3E5579 
 427      47842EF0 
 427      5DD7E2E9 
 428 0d9f B698CD3D 		.ascii	"\266\230\315=lo\276\3605\025\354\256m0\037\007V\271"
 428      6C6FBEF0 
 428      3515ECAE 
 428      6D301F07 
 428      56B9
 429 0db1 83011B7A 		.ascii	"\203\001\033z\257]\260\226I\032Aua\004\352\302;X\347"
 429      AF5DB096 
 429      491A4175 
 429      6104EAC2 
 429      3B58E7
 430 0dc4 D3917E88 		.ascii	"\323\221~\210t6\322\271\254\0268\204Q\367jG\243\324"
 430      7436D2B9 
 430      AC163884 
 430      51F76A47 
 430      A3D4
 431 0dd6 3832A809 		.ascii	"82\250\011+*X\3055\252\333\267\331\272\235y\257\335"
 431      2B2A58C5 
 431      35AADBB7 
 431      D9BA9D79 
 431      AFDD
 432 0de8 FE86ABDB 		.ascii	"\376\206\253\333\372\252;\253\350\213Y\352\306\353\217"
 432      FAAA3BAB 
 432      E88B59EA 
 432      C6EB8F
 433 0df7 AD00EA39 		.ascii	"\255\000\3529xz\037\366meI\374\024G\200\363p\357\363"
 433      787A1FF6 
 433      6D6549FC 
 433      144780F3 
 433      70EFF3
 434 0e0a 1AA43B90 		.ascii	"\032\244;\220\326!\255G:\031'\023vb\357\273\013\351"
 434      D621AD47 
 434      3A192713 
 434      7662EFBB 
 434      0BE9
ARM GAS  /tmp/cc3fTe16.s 			page 35


 435 0e1c 6094CCA7 		.ascii	"`\224\314\247V$3;\261\017\232k+\367\011\225\330O|\334"
 435      5624333B 
 435      B10F9A6B 
 435      2BF70995 
 435      D84F7CDC 
 436 0e30 82BE22A8 		.ascii	"\202\276\"\250\244\257o\245\002\314w(\010\237\271\356"
 436      A4AF6FA5 
 436      02CC7728 
 436      089FB9EE 
 437 0e40 C318B70C 		.ascii	"\303\030\267\014\206\217\030\345\371\271+\261\366\237"
 437      868F18E5 
 437      F9B92BB1 
 437      F69F
 438 0e4e E64F44C6 		.ascii	"\346OD\306\211)\230\235\357\322gV\257S\353\242&\336"
 438      8929989D 
 438      EFD26756 
 438      AF53EBA2 
 438      26DE
 439 0e60 CFCC8CD7 		.ascii	"\317\314\214\327\334\256m\213\013p\013\261s<\245Q\302"
 439      DCAE6D8B 
 439      0B700BB1 
 439      733CA551 
 439      C2
 440 0e71 D43892B8 		.ascii	"\3248\222\270\310Ef0\026k{\310\233C\261\207\\l\251\207"
 440      C8456630 
 440      166B7BC8 
 440      9B43B187 
 440      5C6CA987 
 441 0e85 BFBB71B6 		.ascii	"\277\273q\266a\017\257qX\344\370\313k\001T\336+\300"
 441      610FAF71 
 441      58E4F8CB 
 441      6B0154DE 
 441      2BC0
 442 0e97 B2DE3405 		.ascii	"\262\3364\005\367\230$.G.Wh\271\334E\271\\a\211\313"
 442      F798242E 
 442      472E5768 
 442      B9DC45B9 
 442      5C6189CB 
 443 0eab 3D1B71FA 		.ascii	"=\033q\372\324\354%\244C\242q-\257vi\336Bz.\376\022"
 443      D4EC25A4 
 443      43A2712D 
 443      AF7669DE 
 443      427A2EFE 
 444 0ec0 92DDBD29 		.ascii	"\222\335\275)\222x\007'\330R\254i\033q\022s\261\363"
 444      92780727 
 444      D852AC69 
 444      1B711273 
 444      B1F3
 445 0ed2 5CB6DF24 		.ascii	"\\\266\337$\303\231N\326\200\014j)*\302mR\367$C\317"
 445      C3994ED6 
 445      800C6A29 
 445      2AC26D52 
 445      F72443CF 
 446 0ee6 E4F73455 		.ascii	"\344\3674U\254\325\026\305J\355\273\021\312\346\237"
 446      ACD516C5 
 446      4AEDBB11 
 446      CAE69F
ARM GAS  /tmp/cc3fTe16.s 			page 36


 447 0ef5 2E920DAC 		.ascii	".\222\015\254H\206\333\026I\300\236H*Mz\356\355\306"
 447      4886DB16 
 447      49C09E48 
 447      2A4D7AEE 
 447      EDC6
 448 0f07 22896F8C 		.ascii	"\"\211o\214\260T\244ml\221FY)\222q\227\375\323\212\264"
 448      B054A46D 
 448      6C914659 
 448      29927197 
 448      FDD38AB4 
 449 0f1b 5BA74896 		.ascii	"[\247H\226\212\260\313\245\231\302\035m\273\030?c\315"
 449      8AB0CBA5 
 449      99C21D6D 
 449      BB183F63 
 449      CD
 450 0f2c 1CB05033 		.ascii	"\034\260P3\312w\353\213\354\373\316\325\317U6d\034\306"
 450      CA77EB8B 
 450      ECFBCED5 
 450      CF553664 
 450      1CC6
 451 0f3e 232BC6B7 		.ascii	"#+\306\267\374\031V\331\255\352\310~VGfX\021\256\361"
 451      FC1956D9 
 451      ADEAC87E 
 451      56476658 
 451      11AEF1
 452 0f51 B6BFFADA 		.ascii	"\266\277\372\332\333\265\217\216\031$k\326\225l\010"
 452      DBB58F8E 
 452      19246BD6 
 452      956C08
 453 0f60 F8B89980 		.ascii	"\370\270\231\200\017\273\254\253\3761\266Xsl\027\313"
 453      0FBBACAB 
 453      FE31B658 
 453      736C17CB 
 454 0f70 A6CE9819 		.ascii	"\246\316\230\031\270\263fERL\271\326`5\251\310g\330"
 454      B8B36645 
 454      524CB9D6 
 454      6035A9C8 
 454      67D8
 455 0f82 227F6AA5 		.ascii	"\"\177j\245\310\306\353\022?\255\310\227\315\212\274"
 455      C8C6EB12 
 455      3FADC897 
 455      CD8ABC
 456 0f91 F9672CF2 		.ascii	"\371g,\362%\266\310U\266\213\034\020\370O\302"
 456      25B6C855 
 456      B68B1C10 
 456      F84FC2
 457 0fa0 3BFF123D 		.ascii	";\377\022=\316\257\221nE\272\023\351>\244G\221\236F"
 457      CEAF916E 
 457      45BA13E9 
 457      3EA44791 
 457      9E46
 458 0fb2 7AD18A57 		.ascii	"z\321\212W\272\224\345s\031\362\271\270\211\335\255"
 458      BA94E573 
 458      19F2B9B8 
 458      89DDAD
 459 0fc1 1C6B20DB 		.ascii	"\034k \333a\255nZ\271>\353V\033\364\020o\242\207\370"
 459      61AD6E5A 
ARM GAS  /tmp/cc3fTe16.s 			page 37


 459      B93EEB56 
 459      1BF4106F 
 459      A287F8
 460 0fd4 434B5D0F 		.ascii	"CK]\017\321l\317\312\300\373H\222;Z\327k\331\020|a\370"
 460      D16CCFCA 
 460      C0FB4892 
 460      3B5AD76B 
 460      D9107C61 
 461 0fe9 8E25D76B 		.ascii	"\216%\327k\205\336\313xz\257_\305\247n\036\020\022\313"
 461      85DECB78 
 461      7AAF5FC5 
 461      A76E1E10 
 461      12CB
 462 0ffb CD77C972 		.ascii	"\315w\311r\363"
 462      F3
 463 1000 4037E17F 		.ascii	"@7\341\177\324})=\\\036\303!L\307$\203\335\332),)@\357"
 463      D47D293D 
 463      5C1EC321 
 463      4CC72483 
 463      DDDA292C 
 464 1017 5A98C052 		.ascii	"Z\230\300R\327\335e7.<\306\001\233\344.\305\356\204"
 464      D7DD6537 
 464      2E3CC601 
 464      9BE42EC5 
 464      EE84
 465 1029 36A5AB6B 		.ascii	"6\245\253k\370Kmc\0058\254\367\253\325\335\027t\303"
 465      F84B6D63 
 465      0538ACF7 
 465      ABD5DD17 
 465      74C3
 466 103b C43A2B78 		.ascii	"\304:+x&\343\362\261dC\212\235\375a\233\224\375a\243"
 466      26E3F2B1 
 466      64438A9D 
 466      FD619B94 
 466      FD61A3
 467 104e DCB83470 		.ascii	"\334\2704p\337\317\320s9\204\003\266K\301I\245\376\307"
 467      DFCFD073 
 467      398403B6 
 467      4BC149A5 
 467      FEC7
 468 1060 59C75AAB 		.ascii	"Y\307Z\253K\357\224\261cV\020\365:6\275\017\253M\222"
 468      4BEF94B1 
 468      635610F5 
 468      3A36BD0F 
 468      AB4D92
 469 1073 38C44D5C 		.ascii	"8\304M\\\371\241nb\014\206#}\007\351\273HG\273-\230"
 469      F9A16E62 
 469      0C86237D 
 469      07E9BB48 
 469      47BB2D98 
 470 1087 07A257CA 		.ascii	"\007\242W\312\307!|\027oo6\325K\237\325;\314\354V\003"
 470      C7217C17 
 470      6F6F36D5 
 470      4B9FD53B 
 470      CCEC5603 
 471 109b CE6834F2 		.ascii	"\316h4\3623\027W\357\263k\216xa\327\336\276\371\330"
 471      331757EF 
ARM GAS  /tmp/cc3fTe16.s 			page 38


 471      B36B8E78 
 471      61D7DEBE 
 471      F9D8
 472 10ad 950A7962 		.ascii	"\225\012yb\272\365\243\030ny\034\2228\301MNb\270\245"
 472      BAF5A318 
 472      6E791C92 
 472      38C14D4E 
 472      62B8A5
 473 10c0 D1188B27 		.ascii	"\321\030\213'1LvkNb\270B\317\022#\367M\032\264r\352"
 473      314C766B 
 473      4E62B842 
 473      CF1223F7 
 473      4D1AB472 
 474 10d5 C2E056C9 		.ascii	"\302\340V\311'1\214j\245{\226\330\370V\374Yb\202\376"
 474      27318C6A 
 474      A57B96D8 
 474      F856FC59 
 474      6282FE
 475 10e8 508D1379 		.ascii	"P\215\023y\2029I\234\202\3321\325\255\177@\003\214*"
 475      8239499C 
 475      82DA31D5 
 475      AD7F4003 
 475      8C2A
 476 10fa 45072F7D 		.ascii	"E\007/}[\023ir\254q#\331a\244g\006\343#\350\337\304"
 476      5B136972 
 476      AC7123D9 
 476      61A46706 
 476      E323E8DF 
 477 110f 055FDFB8 		.ascii	"\005_\337\270\350\234\262\207b\026\232\323\275\255R"
 477      E89CB287 
 477      62169AD3 
 477      BDAD52
 478 111e 9B531D1C 		.ascii	"\233S\035\0340;m\211\264\347\"\310\011\273 \016\341"
 478      303B6D89 
 478      B4E722C8 
 478      09BB200E 
 478      E1
 479 112f 2226F944 		.ascii	"\"&\371Dk\223W\017\241\307\330Y\260\312rlm5\335D\250"
 479      6B93570F 
 479      A1C7D859 
 479      B0CA726C 
 479      6D35DD44 
 480 1144 EEAEBA11 		.ascii	"\356\256\272\021\307T2\355\304\212/\265Y\256\241{\361"
 480      C75432ED 
 480      C48A2FB5 
 480      59AEA17B 
 480      F1
 481 1155 E8414315 		.ascii	"\350AC\025\367k\300l\332\321]\361\215\202\304\335q\010"
 481      F76BC06C 
 481      DAD15DF1 
 481      8D82C4DD 
 481      7108
 482 1167 236DE371 		.ascii	"#m\343q\215,\266\2332G\301\306Y\0013y9g?\0136\3056\030"
 482      8D2CB69B 
 482      3247C1C6 
 482      59013379 
 482      39673F0B 
ARM GAS  /tmp/cc3fTe16.s 			page 39


 483 117f CFD94116 		.ascii	"\317\331A\026l\226\0250\223\3350\207\225\356\254\211"
 483      6C961530 
 483      93DD3087 
 483      95EEAC89 
 484 118f 07C5AC74 		.ascii	"\007\305\254ts~\247f\376`\256\001[8\037\222\260\300"
 484      737EA766 
 484      FE60AE01 
 484      5B381F92 
 484      B0C0
 485 11a1 564F4C99 		.ascii	"VOL\231@\035\240\025\350\023\314\273\237o\003\232\254"
 485      401DA015 
 485      E813CCBB 
 485      9F6F039A 
 485      AC
 486 11b2 09634659 		.ascii	"\011cFY\257u\033\237\230\242\371\315!,\261-`\276\266"
 486      AF751B9F 
 486      98A2F9CD 
 486      212CB12D 
 486      60BEB6
 487 11c5 BE1DC26D 		.ascii	"\276\035\302m![c\005.\240S_z\037\266AK\342<4|\363\261"
 487      215B6305 
 487      2EA0535F 
 487      7A1FB641 
 487      4BE23C34 
 488 11dc 13FC1CE9 		.ascii	"\023\374\034\351B\244\213\220~\201t)\322\345H\277b;"
 488      42A48B90 
 488      7E817429 
 488      D2E548BF 
 488      623B
 489 11ee CAFF1954 		.ascii	"\312\377\031T\207\260\341~M_\307\033\246T\355P\306\316"
 489      87B0E17E 
 489      4D5FC71B 
 489      A654ED50 
 489      C6CE
 490 1200 6E8C0C03 		.ascii	"n\214\014\003\\\353\026w\347\243\324\342n@c\271U\243"
 490      5CEB1677 
 490      E7A3D4E2 
 490      6E4063B9 
 490      55A3
 491 1212 28542DFF 		.ascii	"(T-\377\247\312[g\251\274\206\273q\343\345\235\230\256"
 491      A7CA5B67 
 491      A9BC86BB 
 491      71E3E59D 
 491      98AE
 492 1224 CE9F4FE4 		.ascii	"\316\237O\344'\342\344\270\302\310\252>\177\343\266"
 492      27E2E4B8 
 492      C2C8AA3E 
 492      7FE3B6
 493 1233 3B7FBEC5 		.ascii	";\177\276\305\255?\177\036?\307\016\3747mA4\031+q\303"
 493      AD3F7F1E 
 493      3FC70EFC 
 493      376D4134 
 493      192B71C3 
 494 1247 B74E4963 		.ascii	"\267NIc\224\235\036\312\235C8i\015\256\306e\204\247"
 494      949D1ECA 
 494      9D433869 
 494      0DAEC665 
ARM GAS  /tmp/cc3fTe16.s 			page 40


 494      84A7
 495 1259 3740D651 		.ascii	"7@\326Q\211\372\370X\244mB%\026\236\2729\\\331E\\\213"
 495      89FAF858 
 495      A46D4225 
 495      169EBA39 
 495      5CD9455C 
 496 126e 3A7146A3 		.ascii	":qF\243\023)\201pFM\333y~pl\223H\017.L\335}\016\036"
 496      13298170 
 496      464DDB79 
 496      7E706C93 
 496      480F2E4C 
 497 1286 14AB3AB6 		.ascii	"\024\253:\266\311\241\254\372\324\341\221j\207p+\343"
 497      C9A1ACFA 
 497      D4E1916A 
 497      87702BE3 
 498 1296 EEA60D6B 		.ascii	"\356\246\015k\000p\021\311\237\214\222(\\\205\313.\\"
 498      007011C9 
 498      9F8C9228 
 498      5C85CB2E 
 498      5C
 499 12a7 8083FB82 		.ascii	"\200\203\373\202\205s\010\327QF)\340L\226\266\227\362"
 499      857308D7 
 499      514629E0 
 499      4C96B697 
 499      F2
 500 12b8 DC1DB152 		.ascii	"\334\035\261RX\223\305\355\345<\\\275\0258\223\345\355"
 500      5893C5ED 
 500      E53C5CBD 
 500      153893E5 
 500      ED
 501 12c9 957C616F 		.ascii	"\225|aoY)\254\311\346\273U<\\\203\0258\275^Y\357\303"
 501      5929ACC9 
 501      E6BB553C 
 501      5C831538 
 501      BD5E59EF 
 502 12de 6A9E24EE 		.ascii	"j\236$\356A\373\264\027m\317>\244\373\221\036DZ\207"
 502      41FBB417 
 502      6DCF3EA4 
 502      FB911E44 
 502      5A87
 503 12f0 F410D223 		.ascii	"\364\020\322#V\006B5\354@h\320\003\026\006&5\246\033"
 503      56064235 
 503      EC4068D0 
 503      03160626 
 503      35A61B
 504 1303 BD39BE17 		.ascii	"\2759\276\0273#\241/p$\264\004gpn\320u~\344\362C\244"
 504      3323A12F 
 504      7024B404 
 504      67706ED0 
 504      757EE4F2 
 505 1319 5F23DD8C 		.ascii	"_#\335\214t\033\322\035V\270_`\260\234\307\332\316\253"
 505      741BD21D 
 505      56B85F60 
 505      B09CC7DA 
 505      CEAB
 506 132b 09DB5913 		.ascii	"\011\333Y\023o\323\217(\000\307l\233\316\343\006\246"
 506      6FD38F28 
ARM GAS  /tmp/cc3fTe16.s 			page 41


 506      00C76C9B 
 506      CEE306A6 
 507 133b B34D0A56 		.ascii	"\263M\012V\217&\004\255\267H\030?\222\211\354\325R\314"
 507      8F2604AD 
 507      B748183F 
 507      9289ECD5 
 507      52CC
 508 134d D6E263E7 		.ascii	"\326\342c\347~\203\366\345\004\032\255)\017\244^k\344"
 508      7E83F6E5 
 508      041AAD29 
 508      0FA45E6B 
 508      E4
 509 135e 6048B6A7 		.ascii	"`H\266\247\265F\353vA\200\336M\355\3577\3166\030\351"
 509      B546EB76 
 509      4180DE4D 
 509      EDEF37CE 
 509      3618E9
 510 1371 F06B850A 		.ascii	"\360k\205\012\267\223\216\037\3735r{\016\271]\231\232"
 510      B7938E1F 
 510      FB35727B 
 510      0EB95D99 
 510      9A
 511 1382 5B1E86F0 		.ascii	"[\036\206\360\363\275\226\333=\204\333\357-\315\031"
 511      F3BD96DB 
 511      3D84DBEF 
 511      2DCD19
 512 1391 1DF86285 		.ascii	"\035\370b\205(\017I\263>&\256\365\301\230\370\022\216"
 512      280F49B3 
 512      3E26AEF5 
 512      C198F812 
 512      8E
 513 13a2 89AB35CC 		.ascii	"\211\2535\314Z\034\023_\321\216\211W\270\034\364n\352"
 513      5A1C135F 
 513      D18E8957 
 513      B81CF46E 
 513      EA
 514 13b3 11F1DE07 		.ascii	"\021\361\336\007\222G\304\337>\240;\">\361\200\375\021"
 514      9247C4DF 
 514      3EA03B22 
 514      3EF180FD 
 514      11
 515 13c4 F1156644 		.ascii	"\361\025fD|\025M\306\265\024#\342\357\335\246#bN\273"
 515      7C154DC6 
 515      B51423E2 
 515      EFDDA623 
 515      624EBB
 516 13d7 79C9D75D 		.ascii	"y\311\327]]N$\257\356\0079\213\302\264\003\307o.9<#"
 516      5D4E24AF 
 516      EE07398B 
 516      C2B403C7 
 516      6F2E393C 
 517 13ec 79D5584F 		.ascii	"y\325XO\327\343\007\265wL(\341\256\323\007\377NOCkD"
 517      D7E307B5 
 517      774C28E1 
 517      AED307FF 
 517      4E4F436B 
 518 1401 2D5CFA60 		.ascii	"-\\\372`\3526\303\341H\342@\017\221F\205G{\300+=\360"
ARM GAS  /tmp/cc3fTe16.s 			page 42


 518      EA36C3E1 
 518      48E2400F 
 518      91468547 
 518      7BC02B3D 
 519 1416 9DDC4FAD 		.ascii	"\235\334O\255\2137\017\332=\360\375\375\013\267\036"
 519      8B370FDA 
 519      3DF0FDFD 
 519      0BB71E
 520 1425 A1BBEEDE 		.ascii	"\241\273\356\336\366\020\215\274\362`\2234r\230G\243"
 520      F6108DBC 
 520      F2609334 
 520      729847A3 
 521 1435 91B57496 		.ascii	"\221\265t\226\206\334O\255\223\015\017&\353\344\360"
 521      86DC4FAD 
 521      930D0F26 
 521      EBE4F0
 522 1444 87747572 		.ascii	"\207tur\364C\272'\276O}H\367\304\367O\037\322=\361}"
 522      F443BA27 
 522      BE4F7D48 
 522      F7C4F74F 
 522      1FD23DF1 
 523 1459 F943F64F 		.ascii	"\371C\366O|O\224P\022\207{\210b\217\360\230+6\251\262"
 523      7C4F9450 
 523      12877B88 
 523      628FF098 
 523      2B36A9B2 
 524 146d 26293668 		.ascii	"&)6h\323\272\2425\311\273\300,o\014\215\255\326?v\230"
 524      D3BAA235 
 524      C9BBC02C 
 524      6F0C8DAD 
 524      D63F7698 
 525 1481 7B541227 		.ascii	"{T\022'y\254m\012\235\242\325\311\017\350\201\357S,"
 525      79AC6D0A 
 525      9DA2D5C9 
 525      0FE881EF 
 525      532C
 526 1493 E964D5C1 		.ascii	"\351d\325\301q\366t2vy\037Y\006\230\206\372\270\376"
 526      71F67432 
 526      76791F59 
 526      069886FA 
 526      B8FE
 527 14a5 A126E9E3 		.ascii	"\241&\351\343L\255>\036\230\200\3728\323\222>\356`u"
 527      4CAD3E1E 
 527      9880FA38 
 527      D3923EEE 
 527      6075
 528 14b7 4FB97750 		.ascii	"O\271wP_\361.h\024\317\212*\315dT\351CT\245Y\006\252"
 528      5FF12E68 
 528      14CF8A2A 
 528      CD6454E9 
 528      4354A559 
 529 14cd E410E487 		.ascii	"\344\020\344\207E\245\006\232f#\027\037\034\307\035"
 529      45A5069A 
 529      6623171F 
 529      1CC71D
 530 14dc 9C3A4C8B 		.ascii	"\234:L\213go\0168\266\374`\363\205\257Y\257\3121\007"
 530      676F0E38 
ARM GAS  /tmp/cc3fTe16.s 			page 43


 530      B6FC60F3 
 530      85AF59AF 
 530      CA3107
 531 14ef 49557E86 		.ascii	"IU~\206U9\366\341&U\345BmU\336\246U\271\320RU\316z8"
 531      5539F6E1 
 531      2655E542 
 531      6D55DEA6 
 531      55B9D052 
 532 1507 B92A173D 		.ascii	"\271*\027=\254[\225_?l\277*\0272UY\205U\271\310\260"
 532      AC5B955F 
 532      3F6CBF2A 
 532      17325559 
 532      8555B9C8 
 533 151c 2A0F58A9 		.ascii	"*\017X\251J\275\201\015\223\037\315i*\346\364\201\007"
 533      4ABD810D 
 533      931FCD69 
 533      2AE6F481 
 533      07
 534 152d F7CA219D 		.ascii	"\367\312!\235\357\341f\003NhD\255\266U\006)\321\250"
 534      EFE16603 
 534      4E6844AD 
 534      B6550629 
 534      D1A8
 535 153f 05332C23 		.ascii	"\0053,#\267r\202\207\231F\333\256\265w6\225jR\235\315"
 535      B7728287 
 535      9946DBAE 
 535      B5773695 
 535      6A529DCD 
 536 1553 FF8488AD 		.ascii	"\377\204\210\255\235\200G\211\177\351!Ux!\251\264MZ"
 536      9D804789 
 536      7FE92155 
 536      7821A9B4 
 536      4D5A
 537 1565 8BBA8930 		.ascii	"\213\272\2110)Ja2A\277\270n\2322M\315\2761\310\340\351"
 537      294A6132 
 537      41BFB86E 
 537      9A324DCD 
 537      BE31C8E0 
 538 157a BE316836 		.ascii	"\2761h6\025\\\207\023\256S\360\335\306Z-\232\315\371"
 538      155C8713 
 538      AE53F0DD 
 538      C65A2D9A 
 538      CDF9
 539 158c C043536C 		.ascii	"\300CSl\235\325\276\204\012x\035\012Xn\255\025p\023"
 539      9DD5BE84 
 539      0A781D0A 
 539      586EAD15 
 539      7013
 540 159e CE6A1FD1 		.ascii	"\316j\037\321Z#^\275\263\332\003F\342\255\210]\253\343"
 540      5A235EBD 
 540      B3DA0346 
 540      E2AD885D 
 540      ABE3
 541 15b0 8F807E4F 		.ascii	"\217\200~O\213\227rF\223\027\310\235:\346\004\342IV"
 541      8B977246 
 541      9317C89D 
 541      3AE604E2 
ARM GAS  /tmp/cc3fTe16.s 			page 44


 541      4956
 542 15c2 C04C0E0E 		.ascii	"\300L\016\016\034\247\274\334I7\354\202\331\261\215"
 542      1CA7BCDC 
 542      4937EC82 
 542      D9B18D
 543 15d1 C73337F5 		.ascii	"\30737\365\0102G\301>\261\002f\362\242\375\027G,\034"
 543      083247C1 
 543      3EB10266 
 543      F2A2FD17 
 543      472C1C
 544 15e4 F21BD3F9 		.ascii	"\362\033\323\371\373\202\372\252S_\275J\275\303\032"
 544      FB82FAAA 
 544      535FBD4A 
 544      BDC31A
 545 15f3 0F716B17 		.ascii	"\017qk\027\264N\355\326&\375g\301.\255\373ps\027\272"
 545      B44EEDD6 
 545      26FD67C1 
 545      2EADFB70 
 545      7317BA
 546 1606 0FBB52BB 		.ascii	"\017\273R\273\017\203\007\305\356\356b\337\311P\347"
 546      0F8307C5 
 546      EEEE62DF 
 546      C950E7
 547 1615 7376D9B0 		.ascii	"sv\331\2605<^\303\256\370\373\005\352l\216\035\260\000"
 547      353C5EC3 
 547      AEF8FB05 
 547      EA6C8E1D 
 547      B000
 548 1627 0756B997 		.ascii	"\007V\271\227yY\341K\024N\0120\223\211\253\321,X\314"
 548      7959E14B 
 548      144E0A30 
 548      9389ABD1 
 548      2C58CC
 549 163a 3618CFD9 		.ascii	"6\030\317\331\330\275L1\351\014]\0120\223I\253\361,"
 549      D8BD4C31 
 549      E90C5D0A 
 549      309349AB 
 549      F12C
 550 164c 671BAC70 		.ascii	"g\033\254pf2e5\221\005\333l\005\314\344}\321\311,\330"
 550      66326535 
 550      9105DB6C 
 550      05CCE47D 
 550      D1C92CD8 
 551 1660 36DB603C 		.ascii	"6\333`<gSY\260Z+`\001c\316\246\261`\373l\203\005\364"
 551      675359B0 
 551      5A2B6001 
 551      63CEA6B1 
 551      60FB6C83 
 552 1676 9A04FDB0 		.ascii	"\232\004\375\260-\012,1\372\002{\260\347\336\213t\037"
 552      2D0A2C31 
 552      FA027BB0 
 552      E7DE8B74 
 552      1F
 553 1687 D20348EB 		.ascii	"\322\003H\353\220\036Bz\004i=\322cHOX\351\351wx\230"
 553      901E427A 
 553      04693DD2 
 553      63484F58 
ARM GAS  /tmp/cc3fTe16.s 			page 45


 553      E9E97778 
 554 169c 99BA43B6 		.ascii	"\231\272C\266M\221iA*\230\202\014\302\202\014F\306\306"
 554      4D916941 
 554      2A98820C 
 554      C2820C46 
 554      C6C6
 555 16ae 235D8974 		.ascii	"#]\211t-\322\030\322\257\220V#\335\204\364\033\244["
 555      2DD218D2 
 555      AF905623 
 555      DD84F41B 
 555      A45B
 556 16c0 916EB752 		.ascii	"\221n\267R\234\006v\375\357\224G3\003a\317q\251\237"
 556      9C0676FD 
 556      EF944733 
 556      0361CF71 
 556      A99F
 557 16d2 74FCD60F 		.ascii	"t\374\326\017\342\373d\033\244\272\243\263\276\265\230"
 557      E2FB641B 
 557      A4BAA3B3 
 557      BEB598
 558 16e1 1AD1C489 		.ascii	"\032\321\304\211\270|\306'\017IS\347\021[s\323\210\257"
 558      B87CC627 
 558      0F4953E7 
 558      115B73D3 
 558      88AF
 559 16f3 A8E99B2B 		.ascii	"\250\351\233+\354\237\363\330\235E<\357\321\237El\026"
 559      EC9FF3D8 
 559      9D453CEF 
 559      D19F456C 
 559      16
 560 1704 AFE133DA 		.ascii	"\257\3413\332\002p\271\246vZ\256\335Pf\244\351:\361"
 560      0270B9A6 
 560      765AAEDD 
 560      5066A4E9 
 560      3AF1
 561 1716 F756E461 		.ascii	"\367V\344a\262N|\275\200\310\226b]\261\215e\252|\337"
 561      B24E7CBD 
 561      80C89662 
 561      5DB18D65 
 561      AA7CDF
 562 1729 33B3DB17 		.ascii	"3\263\333\027p\252\352\"\316\000\337Fz\027\351iT\254"
 562      70AAEA22 
 562      CE00DF46 
 562      7A17E969 
 562      54AC
 563 173b B348BF47 		.ascii	"\263H\277Gz\221\367\264o\"O\247\023<\361\223\213)\372"
 563      7A91F7B4 
 563      6F224FA7 
 563      133CF193 
 563      8B29FA
 564 174e 2359AE5F 		.ascii	"#Y\256_tl\235k\240\034\253p\262\357\255\354Nl\271L\032"
 564      746C9D6B 
 564      A01CAB70 
 564      B2EFADEC 
 564      4E6CB94C 
 565 1763 8D5FB15D 		.ascii	"\215_\261]\351W\015*\335\035/\205\334FS\012.\327T\276"
 565      E9570D2A 
ARM GAS  /tmp/cc3fTe16.s 			page 46


 565      DD1D2F85 
 565      DC46530A 
 565      2ED754BE 
 566 1777 991C1BF3 		.ascii	"\231\034\033\363\375D'V\372\023\315\310\246\033-\232"
 566      FD442756 
 566      FA13CDC8 
 566      A61B2D9A 
 567 1787 2DE7478E 		.ascii	"-\347G\216\215\335&\222JG\254w\255`\031/k\306&\\c\332"
 567      8DDD2692 
 567      4A47AC77 
 567      AD60192F 
 567      6BC6265C 
 568 179d D38C4E13 		.ascii	"\323\214N\023S\274]p\333\266p\357\030\0107\261\2429"
 568      53BC5D70 
 568      DBB670EF 
 568      180837B1 
 568      A239
 569 17af C1761178 		.ascii	"\301v\021xqLt\033/\312r#\012\302N\243\355\002\310^\375"
 569      714C741B 
 569      2FCA7223 
 569      0AC24EA3 
 569      ED02C85E 
 570 17c4 02DC1B2F 		.ascii	"\002\334\033/\300\014m\001t\0072z"
 570      C00C6D01 
 570      7407327A 
 571 17d0 6FDBEB7D 		.ascii	"o\333\353}\330\265\001I<\203\015\357,6\266\037\260\201"
 571      D8B50149 
 571      3C830DEF 
 571      2C36B61F 
 571      B081
 572 17e2 5D477A03 		.ascii	"]Gz\003\351-\244\015l\223\263\262\336\222\374^\360 "
 572      E92DA40D 
 572      6C93B3B2 
 572      DE92FC5E 
 572      F020
 573 17f4 AF5DB10C 		.ascii	"\257]\261\0146\020\313\303\012\037F\351*\274f\353-\262"
 573      3610CBC3 
 573      0A1F46E9 
 573      2ABC66EB 
 573      2DB2
 574 1806 93AD7075 		.ascii	"\223\255pu\275e\336\371\337\342\012\306\333^\342d\177"
 574      BD65DEF9 
 574      DFE20AC6 
 574      DB5EE264 
 574      7F
 575 1817 D926F50A 		.ascii	"\331&\365\012\206\223\327\033I\034\346\325\316\321\205"
 575      8693D71B 
 575      491CE6D5 
 575      CED185
 576 1826 02F46EEA 		.ascii	"\002\364n\352\365\226\2529\364\354\252sX/\227\261O$"
 576      F596AA39 
 576      F4ECAA73 
 576      582F97B1 
 576      4F24
 577 1838 299B64D1 		.ascii	")\233d\321*b\213W\333\\\020\231\344wH\342H/\231#\372"
 577      2A628B57 
 577      DB5C1099 
ARM GAS  /tmp/cc3fTe16.s 			page 47


 577      E47748E2 
 577      482F9923 
 578 184d 5A53768B 		.ascii	"ZSv\213sD\357y5sD\215dA\204\334\265\260 \322&y\362\371"
 578      7344EF79 
 578      3573448D 
 578      644184DC 
 578      B5B020D2 
 579 1865 501BDDC9 		.ascii	"P\033\335\311\347\343mt'\216\316\265\261?q\224\340X"
 579      E7E36D74 
 579      278ECEB5 
 579      B13F7194 
 579      E058
 580 1877 122BBDA4 		.ascii	"\022+\275\244\015\274\3575\2328\272\214BajDo\342(`\\"
 580      0DBCEF35 
 580      9A38BA8C 
 580      42616A44 
 580      6FE22860 
 581 188c 214BCE2A 		.ascii	"!K\316*\353$\364_\337\256\331\206c\327I\344\33024\251"
 581      EB24F45F 
 581      DFAED986 
 581      63D749E4 
 581      D83234A9 
 582 18a0 D456423F 		.ascii	"\324VB?\251U\227\224\256mK\016m\271\261u\353\305{'\222"
 582      A9559794 
 582      AE6D4B0E 
 582      6DB9B175 
 582      EBC57B27 
 583 18b5 38CD762B 		.ascii	"8\315v+\236n\320\212U\021I\342@\257\206\177.W=\376\323"
 583      9E6ED08A 
 583      551149E2 
 583      40AF867F 
 583      2E573DFE 
 584 18ca F5944985 		.ascii	"\365\224I\205K\264CI\034\216\365:\302Kl\330;H'#\235"
 584      4BB44349 
 584      1C8EF53A 
 584      C24B6CD8 
 584      3B482723 
 585 18df 8AF403AF 		.ascii	"\212\364\003\257M\253V\246r\323B\311k\246mq|h \216{"
 585      4DAB56A6 
 585      72D342C9 
 585      6BA66D71 
 585      7C68208E 
 586 18f4 18B5D54B 		.ascii	"\030\265\325K7\303\324\250\325\307\015\304\037\204\270"
 586      37C3D4A8 
 586      D5C70DC4 
 586      1F84B8
 587 1903 51BBB960 		.ascii	"Q\273\271`=]D\236\205Fm\324#\251w\276p0\270aJk\324~"
 587      3D5D449E 
 587      85466DD4 
 587      23A977BE 
 587      7030B861 
 588 191b 24CBB273 		.ascii	"$\313\262s-\031\265\333\263\223\215\332\334\246\032"
 588      2D19B5DB 
 588      B3938DDA 
 588      DCA61A
 589 192a 353976F7 		.ascii	"59v\367j\262\322\317\265\241\364<Z\203\313P\351\323"
 589      6AB2D2CF 
ARM GAS  /tmp/cc3fTe16.s 			page 48


 589      B5A1F43C 
 589      5A83CB50 
 589      E9D3
 590 193c D5E41E45 		.ascii	"\325\344\036E\010\363\224ZN\370qq\255e\030\340\222\351"
 590      08F3945A 
 590      4EF87171 
 590      AD6518E0 
 590      92E9
 591 194e 311030D3 		.ascii	"1\0200\323\332\271\214\326~\204Z\3731\352\350'H?e5U"
 591      DAB98CD6 
 591      7E845AFB 
 591      31EAE827 
 591      483F6535 
 592 1963 AFE2E27F 		.ascii	"\257\342\342\177\245S\224\250\377o\027]\241\365?\037"
 592      A55394A8 
 592      FF6F175D 
 592      A1F53F1F 
 593 1973 EBFF130B 		.ascii	"\353\377\023\013\365\317\301\3406\013m\375\343&\202"
 593      F5CFC1E0 
 593      360B6DFD 
 593      E32682
 594 1982 0596EABF 		.ascii	"\005\226\352\277Q\247\376\0274\275\376\337g<\\I\374"
 594      51A7FE17 
 594      34BDFEDF 
 594      673C5C49 
 594      FC
 595 1993 510B67B3 		.ascii	"Q\013g\263\376G3\036\356\"\224\214\035\254\000\2075"
 595      FE47331E 
 595      EE22948C 
 595      1DAC0087 
 595      35
 596 19a4 0ECCF1E8 		.ascii	"\016\314\361\350\370\210\221\030\2001N\343\321\303R"
 596      F8889118 
 596      80314EE3 
 596      D1C352
 597 19b3 DB366399 		.ascii	"\3336c\231\201\315P\267\0048\204\265\332\022\350\215"
 597      81CD50B7 
 597      043884B5 
 597      DA12E88D 
 598 19c3 1E4C0E16 		.ascii	"\036L\016\026\035\357\336\224n\300?\277\213\021w\376"
 598      1DEFDE94 
 598      6EC03FBF 
 598      8B1177FE 
 599 19d3 DA2EC097 		.ascii	"\332.\300\227\006\005\360\305\013\360\225\266\000\251"
 599      0605F0C5 
 599      0BF095B6 
 599      00A9
 600 19e1 374FF275 		.ascii	"7O\362u@\\t\3366\244\250O\303\377\271\220c\223\021\253"
 600      405C74DE 
 600      36A4A84F 
 600      C3FFB990 
 600      639311AB 
 601 19f5 11B16833 		.ascii	"\021\261h3g\325V\317\363\326\373\237\013\275\017\333"
 601      67D556CF 
 601      F3D6FB9F 
 601      0BBD0FDB 
 602 1a05 A0247121 		.ascii	"\240$q!\266\363*l\341\213\220.F\272\004\351\012\244"
ARM GAS  /tmp/cc3fTe16.s 			page 49


 602      B6F32A6C 
 602      E18B902E 
 602      46BA04E9 
 602      0AA4
 603 1a17 AB91AE49 		.ascii	"\253\221\256I\321\376c^\225\223\001B\274\375OX\272\276"
 603      D1FE635E 
 603      95930142 
 603      BCFD4F58 
 603      BABE
 604 1a29 2D7DD575 		.ascii	"-}\325u-\032\200=\251\015\000\217C\370]\2475\000\373"
 604      2D1A803D 
 604      A90D008F 
 604      43F85DA7 
 604      3500FB
 605 1a3c AA71EA78 		.ascii	"\252q\352x\235%\023p\270z\254\262 C\267\006\035A\026"
 605      9D251370 
 605      B87AACB2 
 605      2043B706 
 605      1D4116
 606 1a4f D635DD08 		.ascii	"\3265\335\010\034\351J\246\364(\330\031K`\001c\260k"
 606      1CE94AA6 
 606      F428D819 
 606      4B600163 
 606      B06B
 607 1a61 434625FE 		.ascii	"CF%\376\304A\266t\226\376\216\371\277\243\377^\356%"
 607      C441B674 
 607      96FE8EF9 
 607      BFA3FF5E 
 607      EE25
 608 1a73 CDEF078D 		.ascii	"\315\357\007\215D\255\003\325\356\374\240\035\002mE"
 608      44AD03D5 
 608      EEFCA01D 
 608      026D45
 609 1a82 A09B1A20 		.ascii	"\240\233\032 I\024\270\021\034~gWw\340\253\334\250|"
 609      4914B811 
 609      1C7E6757 
 609      77E0ABDC 
 609      A87C
 610 1a94 E8E9EA70 		.ascii	"\350\351\352p\347-\241Ii\034B\305/4\222\324\363G;\031"
 610      E72DA149 
 610      691C42C5 
 610      2F3492D4 
 610      F3473B19 
 611 1aa8 0A1234AD 		.ascii	"\012\0224\255\356\027S\361o\011T\311\274g\033\221\367"
 611      EE1753F1 
 611      6F0954C9 
 611      BC671B91 
 611      F7
 612 1ab9 706F568F 		.ascii	"poV\217\022\351\0318\304\343t\010S\265xz>\"\207\307"
 612      12E91938 
 612      C4E37408 
 612      53B5787A 
 612      3E2287C7 
 613 1acd FBB8B7BA 		.ascii	"\373\270\267\272\222Sk(\326\\+X\206\377\366#\307\356"
 613      92536B28 
 613      D65C2B58 
 613      86FFF623 
ARM GAS  /tmp/cc3fTe16.s 			page 50


 613      C7EE
 614 1adf 2016310F 		.ascii	" \0261\017\016a\241\026K\327<p[\245\271\177B\21050`"
 614      0E61A116 
 614      4BD73C70 
 614      5BA5B97F 
 614      42883530 
 615 1af4 2B2D81BD 		.ascii	"+-\201\275\246\003\246\367a\333\256$\256G[\3635Z\223"
 615      A603A6F7 
 615      61DBAE24 
 615      AE475BF3 
 615      355A93
 616 1b07 6AA49B90 		.ascii	"j\244\233\220\326 \335\211t7\322\275H\367\263\026\347"
 616      D620DD89 
 616      7437D2BD 
 616      48F7B316 
 616      E7
 617 1b18 31619A1C 		.ascii	"1a\232\034\273T?i\315\371\326\363\310\246\030\271\241"
 617      BB543F69 
 617      CDF9D6F3 
 617      C8A618B9 
 617      A1
 618 1b29 F1AD8115 		.ascii	"\361\255\201\025\242\346e\021\227q\007P\3475~Y\304\352"
 618      A2E66511 
 618      97710750 
 618      E7357E59 
 618      C4EA
 619 1b3b DBB597D7 		.ascii	"\333\265\227\327^iCW\302\216\2409[\330V\327\234\231"
 619      5E694357 
 619      C28EA039 
 619      5BD856D7 
 619      9C99
 620 1b4d FF93C451 		.ascii	"\377\223\304Q\2559[B\315\331Q\013\346\254\"\266\242"
 620      AD395B42 
 620      CDD9510B 
 620      E6AC22B6 
 620      A2
 621 1b5e 7ABEE5B3 		.ascii	"z\276\345\263W4\247\\oh\253\177\366\012\367\230$\236"
 621      5734A75C 
 621      6F68AB7F 
 621      F60AF798 
 621      249E
 622 1b70 C2EEE6B4 		.ascii	"\302\356\346\264\226\3131\364e\255\323\226\270\034W"
 622      96CB31F4 
 622      65ADD396 
 622      B81C57
 623 1b7f ADBC42BB 		.ascii	"\255\274B\273\012\317sX\357R!MzC\201U*\016\216n\276"
 623      0ACF7358 
 623      EF52214D 
 623      7A438155 
 623      2A0E8E6E 
 624 1b94 A7477648 		.ascii	"\247GvH\342\026\333`\001=\260m\010Vk\005,\325)\031\352"
 624      E216DB60 
 624      013DB06D 
 624      08566B05 
 624      2CD52919 
 625 1ba9 B1157B6D 		.ascii	"\261\025{m\203\005\222\032\214\272\027\343,6\201sH\317"
 625      8305921A 
ARM GAS  /tmp/cc3fTe16.s 			page 51


 625      8CBA17E3 
 625      2C368173 
 625      48CF
 626 1bbb 23FD8E6D 		.ascii	"#\375\216m\016F\312u\302\313,l\374\210\374\034\265/"
 626      0E46CA75 
 626      C2CB2C6C 
 626      FC88FC1C 
 626      B52F
 627 1bcd 76BD0FAB 		.ascii	"v\275\017\253\270\222x\014\333\362q+,\035N\260\024\177"
 627      B892780C 
 627      DBF2712B 
 627      2C1D4EB0 
 627      147F
 628 1bdf E9FF327F 		.ascii	"\351\3772\177t\263C8\254iI\277\021f\311\362hl\356\347"
 628      74B34338 
 628      AC6949BF 
 628      1166C9F2 
 628      686CEEE7 
 629 1bf3 888C298C 		.ascii	"\210\214)\214C8\205\317\035\364>\246\233\235\222\031"
 629      433885CF 
 629      1DF43EA6 
 629      9B9D9219 
 630 1c03 4D2C4FA8 		.ascii	"M,O\250N\253\024i^\016\341\\\212\204\012G\377G\230C"
 630      4EAB1469 
 630      5E0EE15C 
 630      8A840A47 
 630      FF479843 
 631 1c17 DAC7BE13 		.ascii	"\332\307\276\023\275\272)\223A\306\211\224\362]\360"
 631      BDBA2993 
 631      41C68994 
 631      F25DF0
 632 1c26 3AD8B210 		.ascii	":\330\262\020C5\243\276~\365\351\363o\220\367-\240\273"
 632      4335A3BE 
 632      7EF5E9F3 
 632      6F90F72D 
 632      A0BB
 633 1c38 7B4BA007 		.ascii	"{K\240\007\2428\204F\335R\312\327\012\272)/h\215\374"
 633      A2388446 
 633      DD52CAD7 
 633      0ABA292F 
 633      688DFC
 634 1c4b 2579E0AA 		.ascii	"%y\340\252!\227\317\261L.\030\362vK\027=_C0I\245\260"
 634      2197CFB1 
 634      4C2E18F2 
 634      764B173D 
 634      5F433049 
 635 1c61 794D87CD 		.ascii	"yM\207\3153\261\033\337\244U\016\254ol|\314\306\241"
 635      33B11BDF 
 635      A4550EAC 
 635      6F6C7CCC 
 635      C6A1
 636 1c73 1DB7525B 		.ascii	"\035\267R[R\356=\251_\251\000c\031SZ{n\375\377E\357"
 636      52EE3DA9 
 636      5FA90063 
 636      19535A7B 
 636      6EFDFF45 
 637 1c88 E32E5AD2 		.ascii	"\343.Z\322\231\277L\351\030jpp\326\332\2475\245d\276"
ARM GAS  /tmp/cc3fTe16.s 			page 52


 637      99BF4CE9 
 637      186A7070 
 637      D6DAA735 
 637      A564BE
 638 1c9b 93DCB560 		.ascii	"\223\334\265`Ho\306DyD\032]f\001S\216\014\220\244\361"
 638      486FC644 
 638      79441A5D 
 638      6601538E 
 638      0C90A4F1 
 639 1caf CE9B19E2 		.ascii	"\316\233\031\342\2444Q\261/\371\351\265\225Z\270\224"
 639      A43451B1 
 639      2FF9E9B5 
 639      955AB894 
 640 1cbf 3BF67867 		.ascii	";\366xga\365'F\273\337u\016\006\217M's\247C}D\220\353"
 640      61F52746 
 640      BBDF750E 
 640      068F4D27 
 640      73A7437D 
 641 1cd6 520B32F9 		.ascii	"R\0132\371L\360\021Z9^#C\354\021\026\344\010n\322U\037"
 641      4CF0115A 
 641      395E2343 
 641      EC1116E4 
 641      086ED255 
 642 1ceb 5A7AFAFF 		.ascii	"Zz\372\377\000;0\373\021>s\377\301P\2160\270\377\216"
 642      003B30FB 
 642      113E73FF 
 642      C1508E30 
 642      B8FF8E
 643 1cfe 5D44DAA5 		.ascii	"]D\332\245\205\323\263`\206\257\276\202\237\26451\304"
 643      85D3B360 
 643      86AFBE82 
 643      9FB43531 
 643      C4
 644 1d0f AEB38D15 		.ascii	"\256\263\215\025\340\260\032\030\254\343V\260\014\027"
 644      E0B01A18 
 644      ACE356B0 
 644      0C17
 645 1d1d 34E55825 		.ascii	"4\345X%3\364?o\033\213\347\213\235F\270n\005+`\314\027"
 645      33F43F6F 
 645      1B8BE78B 
 645      9D46B86E 
 645      052B60CC 
 646 1d32 BBE8D668 		.ascii	"\273\350\326h\033\213\347k<\2035\374Q\013X&\223\003"
 646      1B8BE76B 
 646      3C8335FC 
 646      510B5826 
 646      9303
 647 1d44 1319AC71 		.ascii	"\023\031\254q\266\2618\276\344\003L=~`\005\313xaQ\276"
 647      B6B138BE 
 647      E4034C3D 
 647      7E6005CB 
 647      786151BE 
 648 1d58 CD60CDB1 		.ascii	"\315`\315\261\215\305\313k\012\267|\372\271\0254\303"
 648      8DC5CB6B 
 648      0AB77CFA 
 648      B91534C3 
 649 1d68 BFA390E5 		.ascii	"\277\243\220\345]\014g\213mc\361\022\373\226\301Zn\005"
ARM GAS  /tmp/cc3fTe16.s 			page 53


 649      5D0C678B 
 649      6D63F112 
 649      FB96C15A 
 649      6E05
 650 1d7a AB93714D 		.ascii	"\253\223qM~\300\225r\265m\264\200a)\327Y\3012\374;V"
 650      7EC09572 
 650      B56DB480 
 650      6129D759 
 650      C132FC3B 
 651 1d8f BE941B6D 		.ascii	"\276\224\033mc\005\004\303\017k_%\361\035\037\361\234"
 651      630504C3 
 651      0F6B5F25 
 651      F11D1FF1 
 651      9C
 652 1da0 46FA884B 		.ascii	"F\372\210K7\012i%\322\321H\307\"\035\217t\"\322\311"
 652      370A6925 
 652      D2D148C7 
 652      221D8F74 
 652      22D2C9
 653 1db3 48A7229D 		.ascii	"H\247\"\235\206t\006\322\017\221\316F:\027\351\307H"
 653      867406D2 
 653      0F91CE46 
 653      3A17E9C7 
 653      48
 654 1dc4 3F453ADF 		.ascii	"?E:\337\307mP\330\372\250\246;\342\373\200\224Nsl\355"
 654      C76D50D8 
 654      FAA8A63B 
 654      E2FB8094 
 654      4E736CED 
 655 1dd8 4CC5A16F 		.ascii	"L\305\241o\300W\324\351\226\031\331\\>&\377\011[\203"
 655      C057D4E9 
 655      9619D95C 
 655      3E26FF09 
 655      5B83
 656 1dea 67E290C3 		.ascii	"g\342\220\303;%q\220\313\002\226\311T\331\236\233\264"
 656      3B257190 
 656      CB0296C9 
 656      54D99E9B 
 656      B4
 657 1dfb 03A253CC 		.ascii	"\003\242S\314\265\332\222\362\023\312zp|3\334\353&\254"
 657      B5DA92F2 
 657      13CA7A70 
 657      7C33DCEB 
 657      26AC
 658 1e0d D1E9AAFD 		.ascii	"\321\351\252\375Z0~rJ\211n\022\215\231\333\217h\364"
 658      5A307E72 
 658      4A896E12 
 658      8D99DB8F 
 658      68F4
 659 1e1f 15BA6F93 		.ascii	"\025\272o\223\320\270\027\346\224h\314a\214v\020\321"
 659      D0B817E6 
 659      9468CC61 
 659      8C7610D1 
 660 1e2f E802F1A9 		.ascii	"\350\002\361\251\244*\345\226\203\225\3500\2471\332"
 660      A42AE596 
 660      8395E830 
 660      A731DA
ARM GAS  /tmp/cc3fTe16.s 			page 54


 661 1e3e 2106ED92 		.ascii	"!\006\355\222%\264\345&hG\020\215\256\363\334J\252\004"
 661      25B4E526 
 661      6847108D 
 661      AEF3DC4A 
 661      AA04
 662 1e50 6E554789 		.ascii	"nUG\211\236\321C\323o@2\323\200\006b\003\252@5\037\214"
 662      9ED143D3 
 662      6F4032D3 
 662      80066203 
 662      AA40351F 
 663 1e65 7408D205 		.ascii	"t\010\322\005H\027\"\255B\272\030\351\022\244\313\220"
 663      481722AD 
 663      42BA18E9 
 663      12A4CB90 
 664 1e75 AE40FA25 		.ascii	"\256@\372%\3338\214\274\334;^\375#\"\034\302\300\307"
 664      DB388CBC 
 664      DC3B5EFD 
 664      23221CC2 
 664      C0C7
 665 1e87 74C72AAB 		.ascii	"t\307*\253O\037\377\375~:V!i\325\315\3327\015\235y%"
 665      4F1FFFFD 
 665      7E3A5621 
 665      69D5CDDA 
 665      370D9D79 
 666 1e9c 077D6FDE 		.ascii	"\007}o\336(\231\302\320j\037\347\315\377\273\350\234"
 666      2899C2D0 
 666      6A1FE7CD 
 666      FFBBE89C 
 667 1eac E0429FBE 		.ascii	"\340B\237\276\276\262~\342\232\365\356I\362::\364\260"
 667      BEB27EE2 
 667      9AF5EE49 
 667      F23A3AF4 
 667      B0
 668 1ebd 3E41B2CE 		.ascii	">A\262\316\2479\305\215\214\245\264#6\345\273\325\011"
 668      A739C58D 
 668      8CA5B423 
 668      36E5BBD5 
 668      09
 669 1ece 933DB776 		.ascii	"\223=\267v\265]\216o\304U\243w\272A#:\2138\261\252\357"
 669      B55D8E6F 
 669      C455A377 
 669      BA41233A 
 669      8B38B1AA 
 670 1ee3 C91B249B 		.ascii	"\311\033$\233\021c\233\006C\022\273j\336j\350\252\371"
 670      11639B06 
 670      4312BB6A 
 670      DE6AE8AA 
 670      F9
 671 1ef4 1FAF9B0D 		.ascii	"\037\257\233\015N\271\322\207\367\035\302\231\307\370"
 671      4EB9D287 
 671      F71DC299 
 671      C7F8
 672 1f02 557826DD 		.ascii	"Ux&\335\013\2772\370\241kB\373\266\242\366i\236\324"
 672      0BBF32F8 
 672      A16B42FB 
 672      B6A2F669 
 672      9ED4
ARM GAS  /tmp/cc3fTe16.s 			page 55


 673 1f14 28C80F1A 		.ascii	"(\310\017\032\016\325\207\266'U\332\304x\245\035^{\371"
 673      0ED587B6 
 673      2755DAC4 
 673      78A51D5E 
 673      7BF9
 674 1f26 B9898BE4 		.ascii	"\271\211\213\344\3018\261\245\235\32629\003\2456\251"
 674      C138B1A5 
 674      9DD63239 
 674      03A536A9 
 675 1f36 D65C7E2D 		.ascii	"\326\\~-?w\014\370\331\345K\032\022\002'+>\034\271_"
 675      3F770CF8 
 675      D9E54B1A 
 675      1202272B 
 675      3E1CB95F 
 676 1f4a FC6CFE90 		.ascii	"\374l\376\220\030\031\030\276\245\035\030\232\260\262"
 676      181918BE 
 676      A51D189A 
 676      B0B2
 677 1f58 47CB0A19 		.ascii	"G\313\012\031\012iX\231\020\320ge\237.+w\253\267\216"
 677      0A695899 
 677      10D06765 
 677      9F2E2B77 
 677      ABB78E
 678 1f6b 15DF1F34 		.ascii	"\025\337\0374c\223|\211\274\236a\347\344N-/\244\257"
 678      63937C89 
 678      BC9E61E7 
 678      E44E2D2F 
 678      A4AF
 679 1f7d 897F392A 		.ascii	"\211\1779*\362g\022\326\210\272g\024jx\237e\300\373"
 679      F26712D6 
 679      88BA6714 
 679      6A789F65 
 679      C0FB
 680 1f8f 115DDE17 		.ascii	"\021]\336\027\037\333Yn\324\012\3158\257\367\231\035"
 680      1FDB596E 
 680      D40ACD38 
 680      AFF7991D 
 681 1f9f 6A       		.ascii	"j"
 682 1fa0 73C2E450 		.ascii	"s\302\344P\233c\276\344\211\226\247\232\353|\325\224"
 682      9B63BEE4 
 682      8996A79A 
 682      EB7CD594 
 683 1fb0 EB738372 		.ascii	"\353s\203r\235\324-\327\242y\347=M)\327i\323r\275m0"
 683      9DD42DD7 
 683      A279E73D 
 683      4D29D769 
 683      D372BD6D 
 684 1fc5 49855361 		.ascii	"I\205Sa\206\345\322\024d\233AA\316\353\025$v\350\244"
 684      86E5D214 
 684      649B4141 
 684      CEEB1524 
 684      76E8A4
 685 1fd8 ECA38A45 		.ascii	"\354\243\212E\231s\010'\014\322\177\257+\210\033\013"
 685      99730827 
 685      0CD27FAF 
 685      2B881B0B 
 686 1fe8 CEBB9A22 		.ascii	"\316\273\232\"\210\213\246\202\230e\"\210\313V\005q"
ARM GAS  /tmp/cc3fTe16.s 			page 56


 686      888BA682 
 686      98652288 
 686      CB560571 
 687 1ff8 C3A02057 		.ascii	"\303\240 W\014j\264\256"
 687      0C6AB4AE 
 688 2000 49357A4D 		.ascii	"I5zM\333\306HEq\215?\231\263\367~\245\317\331\015]\316"
 688      DBC64845 
 688      718D3F99 
 688      B3F77EA5 
 688      CFD90D5D 
 689 2015 0EAF3DCB 		.ascii	"\016\257=\313\030Ej\354\240\035\032`\334\322o\207\363"
 689      18456AEC 
 689      A01D1A60 
 689      DCD26F87 
 689      F3
 690 2026 8EF76F4A 		.ascii	"\216\367oJ\351\356\230\226N\357XfhI\006\2345\352r\366"
 690      E9EE9896 
 690      4EEF5866 
 690      6849069C 
 690      35EA72F6 
 691 203a EDA2F521 		.ascii	"\355\242\365!#\316L\314\354@\277\231\376\3147\321\237"
 691      23CE4CCC 
 691      EC40BF99 
 691      FECC37D1 
 691      9F
 692 204b 41FE64FD 		.ascii	"A\376d\375Qv\302\247(X\265A\301\206\370\365\0126a\351"
 692      5176C2A7 
 692      2858B541 
 692      C186F8F5 
 692      0A3661E9 
 693 205f AEB6139A 		.ascii	"\256\266\023\232b\265\207\231\026m\255I\321FX/Z\212"
 693      62B58799 
 693      166DAD49 
 693      D146582F 
 693      5A8A
 694 2071 A2EE3428 		.ascii	"\242\3564(\352(\335\242.:v\253IF\240\322\257\321\256"
 694      EA28DDA2 
 694      2E3A76AB 
 694      4946A0D2 
 694      AFD1AE
 695 2084 63AC7659 		.ascii	"c\254vY\253\224#\006\234\216\325\345t\361\274\333M\321"
 695      AB942306 
 695      9C8ED5E5 
 695      74F1BCDB 
 695      4DD1
 696 2096 B6F15A46 		.ascii	"\266\361ZF\317\3520\252a\354\234\001c\223t\031\273\261"
 696      CFEA30AA 
 696      61EC9C01 
 696      63937419 
 696      BBB1
 697 20a8 6097A108 		.ascii	"`\227\241\010M\030\233\242e\354\262}\011^7`t\272.\243"
 697      4D189BA2 
 697      65ECB27D 
 697      095E3760 
 697      74BA2EA3 
 698 20bc EF5FF8E6 		.ascii	"\357_\370\346wMq\321fj9%\314\305\277(\357\320j8\253"
 698      774D71D1 
ARM GAS  /tmp/cc3fTe16.s 			page 57


 698      666A3925 
 698      CCC5BF28 
 698      EFD06A38 
 699 20d1 F8277DCE 		.ascii	"\370'}\316f\353r6u\345W\277l\202\010\347j\031#\377\273"
 699      66EB7236 
 699      75E557BF 
 699      6C8208E7 
 699      6A1923FF 
 700 20e6 AA61E41D 		.ascii	"\252a\344\035\003F>\346\031\371'a&a\244j\341\206\231"
 700      03463EE6 
 700      19F92761 
 700      2661A46A 
 700      E18699
 701 20f9 E268199A 		.ascii	"\342h\031\232\276\034kl\024\037\223\3049\"\236\036\023"
 701      BE1C6B6C 
 701      141F93C4 
 701      39229E1E 
 701      13
 702 210a 47517899 		.ascii	"GQx\231\021\037^vP\000?M\000\022\260\232\032\030P\255"
 702      111F5E76 
 702      50003F4D 
 702      0012B09A 
 702      1A1850AD 
 703 211e 1F238E95 		.ascii	"\037#\216\225\345\004\3301\004\233\251\005\213%\275"
 703      E504D831 
 703      049BA905 
 703      8B25BD
 704 212d 6D385F01 		.ascii	"m8_\001\353 ,\226\207\305\026:iR\350\347E\272\210@;"
 704      EB202C96 
 704      87C5163A 
 704      6952E8E7 
 704      45BA8840 
 705 2142 275066E5 		.ascii	"'Pf\345\273\223l\332\225\304\013\312\327\353\350\017"
 705      BB936CDA 
 705      95C40BCA 
 705      D7EBE80F 
 706 2152 42AFA47C 		.ascii	"B\257\244|\037\346\240\337G8\350w/\035\243\215L|%\022"
 706      1FE6A0DF 
 706      4738E877 
 706      2F1DA38D 
 706      4C7C2512 
 707 2166 77112B91 		.ascii	"w\021+\221\270\365\013\322\314\023_\011\376h.\001)\305"
 707      B8F50BD2 
 707      CC135F09 
 707      FE682E01 
 707      29C5
 708 2178 581E717C 		.ascii	"X\036q|\342k\354o\212$b5\261%U~y\264\254\370*\344\017"
 708      E26BEC6F 
 708      8A246235 
 708      B125557E 
 708      79B4ACF8 
 709 218f 4B1CC23C 		.ascii	"K\034\302<\255\020t\376\332d\001/R\250\237+\213G\256"
 709      AD1074FE 
 709      DA64012F 
 709      52A89F2B 
 709      8B47AE
 710 21a2 1177CF91 		.ascii	"\021w\317\221\301\267\227\345F\261\3619\365\257D\006"
ARM GAS  /tmp/cc3fTe16.s 			page 58


 710      C1B797E5 
 710      46B1F139 
 710      F5AF4406 
 711 21b2 FD5A2B53 		.ascii	"\375Z+S\376\217C\010\\U\022\334\256\323\353\376\373"
 711      FE8F4308 
 711      5C5512DC 
 711      AED3EBFE 
 711      FB
 712 21c3 D30AD222 		.ascii	"\323\012\322\"\344\033\200\346T\017>\031\232\204\306"
 712      E41B80E6 
 712      540F3E19 
 712      9A84C6
 713 21d2 1D7342C0 		.ascii	"\035sB\300\026k\301b\013\277\005\221 _\215o\251@\357"
 713      166BC162 
 713      0BBF0591 
 713      205F8D6F 
 713      A940EF
 714 21e5 A6065AA2 		.ascii	"\246\006Z\242\2477\003\3051\254\336L\304\367V\307h\301"
 714      A73703C5 
 714      31ACDE4C 
 714      C4F756C7 
 714      68C1
 715 21f7 5E53B1D4 		.ascii	"^S\261\324}q\3138\265I\247\011\351{\361\2505\036\257"
 715      7D71CB38 
 715      B549A709 
 715      E97BF1A8 
 715      351EAF
 716 220a 40203EF5 		.ascii	"@ >\365\304ki\306\273\036\201\276,On,\304#\016TFb\253"
 716      C46B69C6 
 716      BB1E81BE 
 716      2C4F6E2C 
 716      C4230E54 
 717 2221 5C9485E7 		.ascii	"\\\224\205\347T\016\246\244\344`\345\317\310\201\274"
 717      540EA6A4 
 717      E460E5CF 
 717      C881BC
 718 2230 33F6FD96 		.ascii	"3\366\375\226\264\270D\027\320w\222\265,$Y\205\325\011"
 718      B4B84417 
 718      D07792B5 
 718      2C245985 
 718      D509
 719 2242 8136F15C 		.ascii	"\2016\361\\\316\265\274]I\023\336a\273\361\256\306\275"
 719      CEB5BC5D 
 719      4913DE61 
 719      BBF1AEC6 
 719      BD
 720 2253 F857FE34 		.ascii	"\370W\3764A\3631ztM\242\303\327\270\011\325\0063\211"
 720      41F3317A 
 720      744DA2C3 
 720      D7B809D5 
 720      063389
 721 2266 38C76198 		.ascii	"8\307a\230\212\314~\030\245Zo\220\312\272D6h--)\251"
 721      8ACC7E18 
 721      A55A6F90 
 721      CABA4436 
 721      682D2D29 
 722 227b A523EFBF 		.ascii	"\245#\357\2776\344\230Xo\243T\033\015S\021-0J\265\311"
ARM GAS  /tmp/cc3fTe16.s 			page 59


 722      36E49858 
 722      6FA3541B 
 722      0D53112D 
 722      304AB5C9 
 723 228f 30D54C93 		.ascii	"0\325L\223\2746\033\246\232b\222\352\033\303T\343MR"
 723      BC361BA6 
 723      9A6292EA 
 723      1BC354E3 
 723      4D52
 724 22a1 6D314C55 		.ascii	"m1LUi\222j\253a\252a&\251\266\031\246\032h\222j\273"
 724      69926AAB 
 724      61AA6126 
 724      A9B619A6 
 724      1A68926A 
 725 22b6 61AA3B26 		.ascii	"a\252;&\032\266\3030\3255\223T5\206\251jMR\325&R\351"
 725      1AB6C330 
 725      D5359354 
 725      3586A96A 
 725      4D52D526 
 726 22cc 2D0EC7A7 		.ascii	"-\016\307\247\313_\023\022\357&}9\362\274\270\024\347"
 726      CB5F1312 
 726      EF267D39 
 726      F2BCB814 
 726      E7
 727 22dd F176FA71 		.ascii	"\361v\372q\272\370\327\272\363x\306@8?\344\327\2542"
 727      BAF8D7BA 
 727      F378C640 
 727      383FE4D7 
 727      AC32
 728 22ef DFA52708 		.ascii	"\337\245'\010\221\373\202\216\223\241|\224W\251\033"
 728      91FB828E 
 728      93A17C94 
 728      57A91B
 729 22fe 0F4ED539 		.ascii	"\017N\3259\002\200\244\325+\250\022\245\037\345\001"
 729      0280A4D5 
 729      2BA812A5 
 729      1FE501
 730 230d 1EAFB22E 		.ascii	"\036\257\262.\351\010\000;`\001\016lt\035\363\236\367"
 730      E908003B 
 730      60010E6C 
 730      741DF39E 
 730      F7
 731 231e 1D144E0A 		.ascii	"\035\024N\0120\223#\000\306\262`\003\177c\027\214\347"
 731      30932300 
 731      C6B26003 
 731      7F63178C 
 731      E7
 732 232f 6C3C5BCC 		.ascii	"l<[\314CV\212ir\004\300D\226\263!V839\002`2\0136\302"
 732      43568A69 
 732      7204C044 
 732      96B32156 
 732      38333902 
 733 2348 0A98C911 		.ascii	"\012\230\311\021\000SY\260J\333`<g\323X\260\361V\300"
 733      005359B0 
 733      4ADB603C 
 733      67D358B0 
 733      F156C0
ARM GAS  /tmp/cc3fTe16.s 			page 60


 734 235b 02C69C2D 		.ascii	"\002\306\234-d\301\246\330\006\3439[\304\202M\267\002"
 734      64C1A6D8 
 734      06E3395B 
 734      C4824DB7 
 734      02
 735 236c 66F297D1 		.ascii	"f\362\227\321_\260`\263l\203\361\234-e\301>\262\002"
 735      5FB060B3 
 735      6C83F19C 
 735      2D65C13E 
 735      B202
 736 237e 66F897D1 		.ascii	"f\370\227\321\003c\313\377\243Rb\337\005`\376\367R\373"
 736      0363CBFF 
 736      A35262DF 
 736      0560FEF7 
 736      52FB
 737 2390 B22BFB58 		.ascii	"\262+\373X\265h\362N\354%\277\372\006\215\372\262\256"
 737      B568F24E 
 737      EC25BFFA 
 737      068DFAB2 
 737      AE
 738 23a1 F6AB241E 		.ascii	"\366\253$\036\365h\332\207\356\356\025\223\277\247^"
 738      F568DA87 
 738      EEEE1593 
 738      BFA75E
 739 23b0 C94A619E 		.ascii	"\311Ja\236\025)t2\006[\305\202-\264\002f\362\277\315"
 739      15297432 
 739      065BC582 
 739      2DB40266 
 739      F2BFCD
 740 23c3 6B58B02F 		.ascii	"kX\260/l\203\361\234\325\260`+\254\200\3652\346l'\013"
 740      6C83F19C 
 740      D5B0602B 
 740      AC80F532 
 740      E66C270B 
 741 23d7 B6CA3618 		.ascii	"\266\3126\030\313\331\300\330\356\204\346\314\350\244"
 741      CBD9C0D8 
 741      EE84E6CC 
 741      E8A4
 742 23e5 519D4EBC 		.ascii	"Q\235N\274\271\344\036cTG\363\230$\336\365\333}\331"
 742      B9E41E63 
 742      5447F398 
 742      24DEF5DB 
 742      7DD9
 743 23f7 A4C1AFFF 		.ascii	"\244\301\257\377\262\011\273\362\224x\212\354]\320\026"
 743      B209BBF2 
 743      94788AEC 
 743      5DD016
 744 2406 9B634289 		.ascii	"\233cB\211\352\255\201\353}\330\236V\022\367\372\311"
 744      EAAD81EB 
 744      7DD89E56 
 744      12F7FAC9 
 745 2416 82D53E3F 		.ascii	"\202\325>?\356\250Fz\000i\035\322\303H\217 \255Gz\014"
 745      EEA8467A 
 745      00691DD2 
 745      C3488F20 
 745      AD477A0C 
 746 242a E909A4A7 		.ascii	"\351\011\244\247\220\236Az\016\351wH/ \275\214\364\012"
ARM GAS  /tmp/cc3fTe16.s 			page 61


 746      909E417A 
 746      0EE97748 
 746      2F20BD8C 
 746      F40A
 747 243c D26B487F 		.ascii	"\322kH\177Dz\023\351m?\263F\246qOv\032\324/\341]nf\344"
 747      447A13E9 
 747      6D3FB346 
 747      A6714F76 
 747      1AD42FE1 
 748 2454 D4EC3171 		.ascii	"\324\3541qj\006\032\246\272h\222\252\3020\025\331-n"
 748      6A061AA6 
 748      BA6892AA 
 748      C23015D9 
 748      2D6E
 749 2466 946A9061 		.ascii	"\224j\220a\252\323&y\0156LUo\222\352m\303T\007LR\015"
 749      AAD32679 
 749      0D364C55 
 749      6F92EA6D 
 749      C354074C 
 750 247c 49A452F6 		.ascii	"I\244R\366\315O;5\262\001\317(\301I\204\031>\315\320"
 750      CD4F3B35 
 750      B201CF28 
 750      C1498419 
 750      3ECDD0
 751 248f E5B0C9BA 		.ascii	"\345\260\311\272\360\260f\017)1u\270\342\020\336\371"
 751      F0B0660F 
 751      293175B8 
 751      E210DEF9 
 752 249f AD765608 		.ascii	"\255vV\010W\261+\344E\037\343^]e\347\354\320f\246\213"
 752      57B12BE4 
 752      451FE35E 
 752      5D65E7EC 
 752      D066A68B 
 753 24b3 D8C39B71 		.ascii	"\330\303\233qsH\202;\370|iiQv\273~\245\305\241v\371"
 753      7348823B 
 753      F87C6969 
 753      5176BB7E 
 753      A5C5A176 
 754 24c8 A5056FB6 		.ascii	"\245\005o\266+\010\365o\227\337\257\260wai\244]4\\^"
 754      2B08F56F 
 754      97DFAFB0 
 754      776169A4 
 754      5D345C5E 
 755 24dc F28F7610 		.ascii	"\362\217v\020\351'\025\265++\015G#\355r\363z\264\317"
 755      E92715B5 
 755      2B2B0D47 
 755      23ED72F3 
 755      7AB4CF
 756 24ef A4B46B87 		.ascii	"\244\264k\207\001\003\332I\005\371\301\242\242\202'"
 756      0103DA49 
 756      05F9C1A2 
 756      A28227
 757 24fe FA09FECE 		.ascii	"\372\011\376\316\331Y\331\341\302\376\241\260\347\205"
 757      D959D9E1 
 757      C2FEA1B0 
 757      E785
 758 250c 975E0E64 		.ascii	"\227^\016d\011\231VP\013K\362\213\312\013B\004\0070"
ARM GAS  /tmp/cc3fTe16.s 			page 62


 758      09995650 
 758      0B4BF28B 
 758      CA0B4204 
 758      0730
 759 251e 9AC12512 		.ascii	"\232\301%\022\225\242\241`\264\031\300\005_~\251\373"
 759      95A2A160 
 759      B419C005 
 759      5F7EA9FB 
 760 252e 4BDDF37C 		.ascii	"K\335\363|$\232\233\327\263\027\311\"\230\323\245s\366"
 760      249A9BD7 
 760      B317C922 
 760      98D3A573 
 760      F6
 761 253f ABF86BE7 		.ascii	"\253\370k\347\254\274\356\177\355\222F\242Y={\364z\261"
 761      ACBCEE7F 
 761      ED9246A2 
 761      593D7BF4 
 761      7AB1
 762 2551 4B5E177C 		.ascii	"K^\027|\242KNN\317\0347\342\374\246]y$\334N\012\027"
 762      A24B4E4E 
 762      CF1C37E2 
 762      FCA65D79 
 762      24DC4E0A 
 763 2566 FFB1A4B4 		.ascii	"\377\261\244\264$\364\307\220\324\2730\236e$ZPX\022"
 763      24F4C790 
 763      D4BB309E 
 763      65245A50 
 763      5812
 764 2578 855C7DE5 		.ascii	"\205\\}\345pm\237\031\214v0y\272X\002\376KB\355\202"
 764      706D9F19 
 764      8C763079 
 764      BA5802FE 
 764      4B42ED82 
 765 258c 05A13E52 		.ascii	"\005\241>RyQ4\030}\263,\024!<\007\203jzwAyq\361\233"
 765      79513418 
 765      7DB32C14 
 765      213C0783 
 765      6A7A7741 
 766 25a4 8487ACD2 		.ascii	"\204\207\254\322\222>\205}=\371xiNJ%\025\227\025A\261"
 766      923E857D 
 766      3DF97869 
 766      4E4A2515 
 766      971541B1 
 767 25b8 30AF8CA7 		.ascii	"0\257\214\247\240|4\031\211z\351\217\221L\314\276\250"
 767      A07C3419 
 767      897AE98F 
 767      914CCCBE 
 767      A8
 768 25c9 B077BBBE 		.ascii	"\260w\273\276\371\371\0326:<\321\361\211\016,\353\300"
 768      F9F91A36 
 768      3A3CD1F1 
 768      890E2CEB 
 768      C0
 769 25da 0664EE89 		.ascii	"\006d\356\211\024\376\277\020\3118T\026\355\347\313"
 769      14FEBF10 
 769      C9385416 
 769      EDE7CB
ARM GAS  /tmp/cc3fTe16.s 			page 63


 770 25e9 2F0CE797 		.ascii	"/\014\347\227\027I\341V\244V\362\373I%%\241\242H\260"
 770      1749E156 
 770      A456F2FB 
 770      492525A1 
 770      A248B0
 771 25fc A4BC3818 		.ascii	"\244\2748\030M#T\275u\017\374\236/\025\025\365\226\362"
 771      4D2354BD 
 771      750FFC9E 
 771      2F1515F5 
 771      96F2
 772 260e FF118C7A 		.ascii	"\377\021\214zB%\005\301\374\336D\366\241p\2704\034\214"
 772      422505C1 
 772      FCDE44F6 
 772      A170B834 
 772      1C8C
 773 2620 B652A418 		.ascii	"\266R\244\030\314\356\321\271k\347\356/\276\234\323"
 773      CCEED1B9 
 773      6BE7EE2F 
 773      BE9CD3
 774 262f A5A57AAB 		.ascii	"\245\245z\253\347_\273\344t}\261\347\277\267R\037O\000"
 774      E75FBBE4 
 774      747DB1E7 
 774      BFB7521F 
 774      4F00
 775 2641 F968F2FC 		.ascii	"\371h\362\374\336\316\374p\006\204Lw\244\270,\234\201"
 775      DECEFC70 
 775      06844C77 
 775      A4B82C9C 
 775      81
 776 2652 34D31579 		.ascii	"4\323\025y=\234A\010\306\332\267\242B\002m\211\024\226"
 776      3D9C4108 
 776      C6DAB7A2 
 776      42026D89 
 776      1496
 777 2664 96BC102E 		.ascii	"\226\274\020.-/s\365\015\227\225uL\2454\341h\\\012\371"
 777      2D2F73F5 
 777      0D979575 
 777      4CA534E1 
 777      685C0AF9 
 778 2678 FD226F46 		.ascii	"\375\"oF\324j\360E\373\205CRA0\352\317\357\027\244\361"
 778      D46AF045 
 778      FB854352 
 778      4130EACF 
 778      EF17A4F1 
 779 268c 0EF6B0F2 		.ascii	"\016\366\260\362\373\0215\366\224\005KB\003\242p)\013"
 779      FB1135F6 
 779      94054B42 
 779      03A27029 
 779      0B
 780 269d 87FA77B3 		.ascii	"\207\372w\263\000A\033F\347\234\036Y=\006\300\223\305"
 780      00411B46 
 780      E79C1E59 
 780      3D06C093 
 780      C5
 781 26ae 65854550 		.ascii	"e\205EP\252v/de\301\343*{\336hY\270\2604Hq\013K\275"
 781      AA762F64 
 781      65C1E32A 
ARM GAS  /tmp/cc3fTe16.s 			page 64


 781      7BDE6859 
 781      B8B03448 
 782 26c6 A01951C8 		.ascii	"\240\031Q\310\346\031\333\370\375\362K\303!\000lNn\007"
 782      E619DBF8 
 782      FDF24BC3 
 782      21006C4E 
 782      6E07
 783 26d8 4183F2A3 		.ascii	"A\203\362\243\003\376\3344\224`\377\247\213\211\344"
 783      03FEDC34 
 783      9460FFA7 
 783      8B89E4
 784 26e7 C2A1BEA0 		.ascii	"\302\241\276\240l\301\2503\222\361\024\204\247!t\204"
 784      6CC1A833 
 784      92F11484 
 784      A7217484 
 785 26f7 F08C3392 		.ascii	"\360\2143\222\231\016!\003B&\204\366\020:@x\022\002"
 785      990E2103 
 785      422684F6 
 785      103A4078 
 785      1202
 786 2709 3C9709CF 		.ascii	"<\227\011\317e\302s\231\360\\{x\256}\206#\334\301\021"
 786      65C27399 
 786      F05C7B78 
 786      AE7D8623 
 786      DCC111
 787 271c 7ED2117E 		.ascii	"~\322\021~\312\021~\332\021\356\350\010?\343\014g\244"
 787      CA117EDA 
 787      11EEE808 
 787      3FE30C67 
 787      A4
 788 272d 43C87014 		.ascii	"C\310p\024\205\341\322\336]\026\004n\275D\302o\204\302"
 788      85E1D2DE 
 788      5D16046E 
 788      BD44C26F 
 788      84C2
 789 273f 702D2D2A 		.ascii	"p--*\010\205]\240\226a\"v\2518\344\213*\315\337K\032"
 789      08855DA0 
 789      96612276 
 789      A938E48B 
 789      2ACDDF4B 
 790 2754 4747A84D 		.ascii	"GG\250M\332L \006\217\343o\336hqiA\010\277\367)\222"
 790      DA4C2006 
 790      8FE36FDE 
 790      68716941 
 790      08BFF729 
 791 2769 FA46BCD1 		.ascii	"\372F\274\321p\250O\004%K\"\356\342H_\370Qi\221\220"
 791      70A84F04 
 791      254B22EE 
 791      E2485FF8 
 791      51699190 
 792 277d 5C8979C2 		.ascii	"\\\211y\302\005o\302O\276\320\200\302(\010*\344y#Z\332"
 792      056FC24F 
 792      BED080C2 
 792      28082AE4 
 792      79235ADA 
 793 2791 FBEF65CD 		.ascii	"\373\357e\315C\375C%\321b)\202\015\341\015\022q\226"
 793      43FD4325 
ARM GAS  /tmp/cc3fTe16.s 			page 65


 793      D1622982 
 793      0DE10D12 
 793      7196
 794 27a3 05CB5B50 		.ascii	"\005\313[P\015\212\004\213\012#\320\324\357\215\353"
 794      0D8A048B 
 794      0A23D0D4 
 794      EF8DEB
 795 27b2 14BDE32F 		.ascii	"\024\275\343/\013\276!\025F\013K\372\336\253\336~\275"
 795      0BBE2115 
 795      460B4BFA 
 795      DEABDE7E 
 795      BD
 796 27c3 3C540E5C 		.ascii	"<T\016\\\265d\236\304[\315\312\202\220"
 796      B5649EC4 
 796      5BCDCA82 
 796      90
 797 27d0 2D46DD18 		.ascii	"-F\335\030\205\033\2412hr\220\330]\\\016J\320\336\226"
 797      851BA132 
 797      687290D8 
 797      5D5C0E4A 
 797      D0DE96
 798 27e3 9A164707 		.ascii	"\232\026G\007\020u*\246\350p-}\243\004d\211HP\204b\324"
 798      10752AA6 
 798      E8702D7D 
 798      A3046489 
 798      48508462 
 799 27f8 5EE00F9E 		.ascii	"^\340\017\236#\2346#R\221\212P\347\340f\031X\373\247"
 799      239C3623 
 799      52918A50 
 799      E7E06619 
 799      58FBA7
 800 280b 6DE5A714 		.ascii	"m\345\247\024\006\362l\245\2640\220r(\034*\311\207\322"
 800      06F26CA5 
 800      B4309072 
 800      281C2AC9 
 800      87D2
 801 281d 7AE8AD3F 		.ascii	"z\350\255?\245B\004\226\332e\365\310\355\236\013=\007"
 801      A5420496 
 801      DA65F5C8 
 801      ED9E0B3D 
 801      07
 802 282e 18AFE2F6 		.ascii	"\030\257\342\366\231}:\244g\014 &\27791,y\320J\262C"
 802      997D3AA4 
 802      670C2026 
 802      BF39312C 
 802      79D04AB2 
 803 2843 7D1CB939 		.ascii	"}\034\2719\316\254\234\014\010\231\356\334\036\275r"
 803      CEAC9C0C 
 803      0899EEDC 
 803      1EBD72
 804 2852 329066BA 		.ascii	"2\220f\272\377\322\263+\304\011\245\361\366H;8\273\345"
 804      FFD2B32B 
 804      C409A5F1 
 804      F6483B38 
 804      BBE5
 805 2864 E5385FCC 		.ascii	"\3458_\314\313q\345\376[N\006!\231\204\264w\375\005"
 805      CB71E5FE 
ARM GAS  /tmp/cc3fTe16.s 			page 66


 805      5B4E0621 
 805      9984B477 
 805      FD05
 806 2876 A8EB2FD9 		.ascii	"\250\353/\331p\017H&!\355\011\351\340\310\316q\202\325"
 806      700F4826 
 806      21ED09E9 
 806      E0C8CE71 
 806      82D5
 807 2888 EADAF4DE 		.ascii	"\352\332\364\336\016Y\017\026\024KD\034`\034\203\271"
 807      0E590F16 
 807      144B441C 
 807      601C83B9 
 808 2898 A07C5271 		.ascii	"\240|Rq\234\377\254\034\327K\331\300T\257\3169\256\036"
 808      9CFFAC1C 
 808      D74BD9C0 
 808      54AFCE39 
 808      AE1E
 809 28aa E9846474 		.ascii	"\351\204dt\316qv\315\312\361D\360AWa\237\374\260\247"
 809      CE7176CD 
 809      CAF144F0 
 809      4157619F 
 809      FCB0A7
 810 28bd 30D2AFB0 		.ascii	"0\322\257\260O\324\037\011\025\365),)\010\015\360\364"
 810      4FD41F09 
 810      15F5292C 
 810      29080DF0 
 810      F4
 811 28ce 0FE5474B 		.ascii	"\017\345GK\303\255\342\350A\3724\310\027\276D\242e^"
 811      C3ADE2E8 
 811      41FA34C8 
 811      17BE44A2 
 811      655E
 812 28e0 B810A57F 		.ascii	"\270\020\245\177\322N\217\032\011\205\013\245\"`4-\027"
 812      D24E8F1A 
 812      09850BA5 
 812      2260342D 
 812      17
 813 28f1 63B46FBE 		.ascii	"c\264o\276\227\375\362\327\036y\3567\302\205\321\220"
 813      97FDF2D7 
 813      1E79EE37 
 813      C285D190 
 814 2901 8BD4A2B3 		.ascii	"\213\324\242\263\254<\352\354\033\002\306\300\252\026"
 814      AC3CEAEC 
 814      1B02C6C0 
 814      AA16
 815 290f 1643F5BA 		.ascii	"\026C\365\272\340N\324\005\267\242\036|,\352&\317E\235"
 815      E04ED405 
 815      B7A21E7C 
 815      2CEA26CF 
 815      459D
 816 2921 FD8BA34F 		.ascii	"\375\213\243O\331R\"ldD\207Z`,\030)-\017\023\375Ic\277"
 816      D952226C 
 816      6444875A 
 816      602C1829 
 816      2D0F13FD 
 817 2938 B6A45F88 		.ascii	"\266\244_\210\326\206@\245\203\321\026\374\015o\250"
 817      D68640A5 
ARM GAS  /tmp/cc3fTe16.s 			page 67


 817      83D116FC 
 817      0D6FA8
 818 2947 0895BB39 		.ascii	"\010\225\2739\\\325{~\210Sp\012\205\026\201\364DE\324"
 818      5CD57B7E 
 818      8853700A 
 818      851681F4 
 818      4445D4
 819 295a 3890DFDF 		.ascii	"8\220\337\337\240f\"\024\301\324n|\316\037)P\014\215"
 819      A0662214 
 819      C1D46E7C 
 819      CE1F2950 
 819      0C8D
 820 296c 3F375B71 		.ascii	"?7[q3\274\020#^\206\017\256\350d\330+#\266GR\306{\012"
 820      33BC1023 
 820      5E860FAE 
 820      E864D82B 
 820      23B64752 
 821 2983 4B406EAA 		.ascii	"K@n\252Ah\006V_\211\372\324\250\377u\325|@,\277\264"
 821      41680656 
 821      5F89FAD4 
 821      A8FF75D5 
 821      7C402CBF 
 822 2998 1CBA82B0 		.ascii	"\034\272\202\260\357\365`\357\362>\320\262\334\257\007"
 822      EFF560EF 
 822      F23ED0B2 
 822      DCAF07
 823 29a7 A3A5655E 		.ascii	"\243\245e^x$\\\026\015\3035\\\000W\377\353%\245\321"
 823      78245C16 
 823      0DC3355C 
 823      0057FFEB 
 823      25A5D1
 824 29ba C23E6F02 		.ascii	"\302>o\002\312\353A\032\365\274\016b(\371\207\247\020"
 824      CAEB411A 
 824      F5BC0E62 
 824      28F987A7 
 824      10
 825 29cb 315B9496 		.ascii	"1[\224\226G\231l=\245\030q\024\366v\224\366\276\347"
 825      47996C3D 
 825      A5187114 
 825      F67694F6 
 825      BEE7
 826 29dd E5DCCE39 		.ascii	"\345\334\3169y\252\226:\237\317!\315\254\275\353\205"
 826      79AA963A 
 826      9FCF21CD 
 826      ACBDEB85 
 827 29ed BC5E39EE 		.ascii	"\274^9\356\362\210\024\216\336G\365!\322\2568\362\344"
 827      F288148E 
 827      DE47F521 
 827      D2AE38F2 
 827      E4
 828 29fe 53E94F93 		.ascii	"S\351O\223N\201\306\202\321\007\325\237\0123\363\203"
 828      4E81C682 
 828      D107D59F 
 828      0A33F383 
 829 2a0e 915049A4 		.ascii	"\221PI\2444LZm\367\314\254\\\374\002\3061\021G\231\372"
 829      344C5A6D 
 829      F7CCAC5C 
ARM GAS  /tmp/cc3fTe16.s 			page 68


 829      FC02C631 
 829      114799FA 
 830 2a22 BABF443D 		.ascii	"\272\277D=3W\367\354\027\273\270\236\1779\367U\257T"
 830      3357F7EC 
 830      17BBB89E 
 830      7F39F755 
 830      AF54
 831 2a34 50100E45 		.ascii	"P\020\016E\"\266\035\315\027_\314n\007\360\37530{\305"
 831      22B61DCD 
 831      175FCC6E 
 831      07F0FD33 
 831      307BC5
 832 2a47 D1841B94 		.ascii	"\321\204\033\224)[\036&\000\020o\015.\252\207\0118\252"
 832      295B1E26 
 832      00106F0D 
 832      2EAA8709 
 832      38AA
 833 2a59 8749A2E8 		.ascii	"\207I\242\350a\222\010V\376=$F\313\021\314{\205\375"
 833      61920856 
 833      FE3D2446 
 833      CB11CC7B 
 833      85FD
 834 2a6b 96F30AA6 		.ascii	"\226\363\012\246|\261g\326\277v\311n\016x\245e\264G"
 834      7CB167D6 
 834      BF76C96E 
 834      0E78A565 
 834      B447
 835 2a7d 6AD6B357 		.ascii	"j\326\263W\217\236\331]\202\360\353\375J4\267\007\024"
 835      8F9ED95D 
 835      82F0EBFD 
 835      4A34B707 
 835      14
 836 2a8e 3F98DDE5 		.ascii	"?\230\335\345\257\335\263\272\334\307\335\353\32637"
 836      AFDDB3BA 
 836      DCC7DDEB 
 836      D63337
 837 2a9d CF5B0A26 		.ascii	"\317[\012&\031\2226\317/*\005\007*R\026\012\025\264"
 837      199236CF 
 837      2F2A0507 
 837      2A52160A 
 837      15B4
 838 2aaf 00C082F2 		.ascii	"\000\300\202\362\350\233\371o\346\023\177\261En^v0\373"
 838      E89BF96F 
 838      E6137FB1 
 838      456E5E76 
 838      30FB
 839 2ac1 E5BC5783 		.ascii	"\345\274W\203Y\257f\275\330\345\276\256\235s\363\230"
 839      59AF66BD 
 839      D8E5BEAE 
 839      9D73F398 
 840 2ad1 EFC1CC07 		.ascii	"\357\301\314\007\264w\300\243|\246\031A\010\"\004)\021"
 840      B477C0A3 
 840      7CA61941 
 840      08220429 
 840      11
 841 2ae2 F54649D1 		.ascii	"\365FI\321\225\366\341AO-\342\207;\244f\240\245\223"
 841      95F6E141 
ARM GAS  /tmp/cc3fTe16.s 			page 69


 841      4F2DE287 
 841      3BA466A0 
 841      A593
 842 2af4 8B3F3C40 		.ascii	"\213?<@14\376\250\032s\3035<\200\320\350\000R\351\252"
 842      3134FEA8 
 842      1A73C335 
 842      3C80D0E8 
 842      0052E9AA 
 843 2b08 12B97A76 		.ascii	"\022\271zv\006\373\012$\323\231\013\026;\027\256YY9"
 843      06FB0A24 
 843      D3990B16 
 843      3B17AE59 
 843      5939
 844 2b1a EEBC9CEE 		.ascii	"\356\274\234\356\271]\\]\301(;\001\333K\314\010\350"
 844      B95D5C5D 
 844      C1283B01 
 844      DB4BCC08 
 844      E8
 845 2b2b A58B74ED 		.ascii	"\245\213t\355\356\350\200\347\313\373\270\303\204z\250"
 845      EEE880E7 
 845      CBFBB8C3 
 845      847AA8
 846 2b3a 2239C177 		.ascii	"\"9\301w\364\025\201\205\313\013\025\227\371I\244\027"
 846      F4158185 
 846      CB0B1597 
 846      F949A417 
 847 2b4a D1121F3E 		.ascii	"\321\022\037>\011M\301\027V\"q\375\214\024>\235> \235"
 847      094DC117 
 847      562271FD 
 847      8C143E9D 
 847      3E209D
 848 2b5d E8278D05 		.ascii	"\350'\215\005\243\367)\021HXZT\036\005g\322\335\255"
 848      A3F72911 
 848      48585A54 
 848      1E0567D2 
 848      DDAD
 849 2b6f 635E46A6 		.ascii	"c^F\246\247[Fz^F{\270d\344ed\300%3/\243\203\023\236"
 849      A75B467A 
 849      5E467BB8 
 849      64E46564 
 849      C025332F 
 850 2b87 F2F40B41 		.ascii	"\362\364\013A\365' \243\305e\231O?\211\036$\306\202"
 850      F52720A3 
 850      C565994F 
 850      3F891E24 
 850      C682
 851 2b99 89D6D01B 		.ascii	"\211\326\320\033nt\304\334h\014\014V\234\311\362pH\314"
 851      6E74C4DC 
 851      680C0C56 
 851      9CC9F270 
 851      48CC
 852 2bab 137BC59F 		.ascii	"\023{\305\237-\212\024\267OoO\236\2451\260,R~>m\027"
 852      2D8A14B7 
 852      4F6F4F9E 
 852      A531B02C 
 852      527E3E6D 
 853 2bc0 FE62A92F 		.ascii	"\376b\251/\215y\250/\343C\267\004\"i\0224z\325\004\244"
ARM GAS  /tmp/cc3fTe16.s 			page 70


 853      8D79A82F 
 853      E343B704 
 853      22691234 
 853      7AD504A4 
 854 2bd4 15335FA0 		.ascii	"\0253_\240\012$Zx\210\025+\261p\374^X\275\227\322{\350"
 854      0A245A78 
 854      88152BB1 
 854      70FC5E58 
 854      BD97D27B 
 855 2be9 2F41DF5F 		.ascii	"/A\337_\036\201\037\300\011\000\013\011,\332\363\000"
 855      1E811FC0 
 855      09000B09 
 855      2CDAF300 
 856 2bf9 6867442C 		.ascii	"hgD,\333\003\317K\221Pn\010,KI\024:\021\332\371=\254"
 856      DB03CF4B 
 856      91506E08 
 856      2C4B4914 
 856      3A11DAF9 
 857 2c0f 77137A16 		.ascii	"w\023z\026\237\232\241\023\"\316>\305\321\226\021\305"
 857      9F9AA113 
 857      22CE3EC5 
 857      D19611C5 
 858 2c1f 60A0CFF0 		.ascii	"`\240\317\360D\276\220Fo\344\341w\247\024\356\253y\002"
 858      44BE9046 
 858      6FE4E177 
 858      A714EEAB 
 858      7902
 859 2c31 BA0BF609 		.ascii	"\272\013\366\011\220h\244(\024*\313\003\245\362\002"
 859      9068A428 
 859      142ACB03 
 859      A5F202
 860 2c40 A725603F 		.ascii	"\247%`?\025\210l)*\201\377\012>\2177\012\252\364|q\031"
 860      15886C29 
 860      2A81FF0A 
 860      3E8F370A 
 860      AAF47C71 
 861 2c55 5EA136F1 		.ascii	"^\2416\361\232\023-hF\256=\320\246\371\312H\375\301"
 861      9A132D68 
 861      46AE3DD0 
 861      A6F9CA48 
 861      FDC1
 862 2c67 337E8CF4 		.ascii	"3~\214\364(\033P\334\234\306\360go\277\362\342\202\356"
 862      281B50DC 
 862      9CC6F067 
 862      6FBFF2E2 
 862      82EE
 863 2c79 2551BC76 		.ascii	"%Q\274v\031\020\365\221\353S\351\355\323]P\237\257\020"
 863      1910F591 
 863      EB53E9ED 
 863      D35D509F 
 863      AF10
 864 2c8b F22A217F 		.ascii	"\362*!\177sA\245\276B\310\253\204\374\315U\000<x\250"
 864      7341A5BE 
 864      42C8AB84 
 864      FCCD5500 
 864      3C78A8
 865 2c9e 9E78A80A 		.ascii	"\236x\250\012x\250\015\365\203\020rAI3\323\375\320\377"
ARM GAS  /tmp/cc3fTe16.s 			page 71


 865      78A80DF5 
 865      83107241 
 865      4933D3FD 
 865      D0FF
 866 2cb0 D09887EA 		.ascii	"\320\230\207\352ZK\266|\271`\366m\015\001Ab\304\025"
 866      5A4BB67C 
 866      B960F66D 
 866      0D014162 
 866      C415
 867 2cc2 EC2F6177 		.ascii	"\354/aw\330\"\030\354[R\236\037T\2766\377\227\336\345"
 867      D82218EC 
 867      5B529E1F 
 867      54BE36FF 
 867      97DEE5
 868 2cd5 8545D13F 		.ascii	"\205E\321?\026\226<+\200\027\254\334\205\301Q\177Z+"
 868      16963C2B 
 868      8017ACDC 
 868      85C1517F 
 868      5A2B
 869 2ce7 E0D2E6F5 		.ascii	"\340\322\346\365+\310%\002}\031*\256\250\331\023\355"
 869      2BC82502 
 869      7D192AAE 
 869      A8D913ED 
 870 2cf7 7A974A61 		.ascii	"z\227Ja\"\365\346\030\311\015E_\354\222MF\205t\234\026"
 870      22F5E618 
 870      C90D455F 
 870      EC924D46 
 870      85749C16 
 871 2d0b 7D54E912 		.ascii	"}T\351\022\010\257j\023 \0157\024\226\242\020}(\336"
 871      08AF6A13 
 871      200D3714 
 871      96A2107D 
 871      28DE
 872 2d1d 10A502E6 		.ascii	"\020\245\002\346\366\375\314\355n\345\305\205\005\205"
 872      F6FDCCED 
 872      6EE5C585 
 872      0585
 873 2d2b D1371F52 		.ascii	"\3217\037RZ\232\301\243\264\201v)\221z\027\205\232%"
 873      5A9AC1A3 
 873      B4817629 
 873      917A1785 
 873      9A25
 874 2d3d D87C58F9 		.ascii	"\330|X\3719\022\212v\303'\262\312\303\340\207F\233+"
 874      39128A76 
 874      C327B2CA 
 874      C3E08746 
 874      9B2B
 875 2d4f 8DB3B0A4 		.ascii	"\215\263\260\2440\332\\i|\030W\370\305\270\222\026\343"
 875      30DA5C69 
 875      7C1857F8 
 875      C5B89216 
 875      E3
 876 2d60 4AEE24EE 		.ascii	"J\356$\356\003+\225\033\205\036\020\304\321#:\240g\357"
 876      032B951B 
 876      851E10C4 
 876      D1233AA0 
 876      67EF
ARM GAS  /tmp/cc3fTe16.s 			page 72


 877 2d72 BF832BD6 		.ascii	"\277\203+\326\035~p\223\331\214\014\277T\"\025\225\366"
 877      1D7E7093 
 877      D98C0CBF 
 877      54221595 
 877      F6
 878 2d83 7D215C76 		.ascii	"}!\\v\017\215\345\322\221z\367\246\364c\330\011COF\035"
 878      0F8DE5D2 
 878      917AF7A6 
 878      F463D809 
 878      434F461D 
 879 2d97 33A53373 		.ascii	"3\2453s\346f?\345&\035Z\006\322\366\336\020p\224\325"
 879      E6663FE5 
 879      261D5A06 
 879      D2F6DE10 
 879      7094D5
 880 2daa A7AFB790 		.ascii	"\247\257\267\220^\335\331]\236\177\371\005\333.+\311"
 880      5EDDD95D 
 880      9E7FF905 
 880      DB2E2BC9 
 881 2dba 2FAF7B0F 		.ascii	"/\257{\017\222\033:\225`\210I\305\306\277\200\305\317"
 881      921B3A95 
 881      608849C5 
 881      C6BF80C5 
 881      CF
 882 2dcb ED01DE6A 		.ascii	"\355\001\336jv\367.9\316./\344\270\263\262z\200\213"
 882      76F72E39 
 882      CE2E2FE4 
 882      B8B3B27A 
 882      808B
 883 2ddd 4D68A62B 		.ascii	"Mh\246++\013nf\275\224\347\354\225\233\345\354\014\316"
 883      2B0B6E66 
 883      BD94E7EC 
 883      959BE5EC 
 883      0CCE
 884 2def 420E3CF9 		.ascii	"B\016<\371<\361k\263I\222\036\235s\034=i\212\366\360"
 884      3CF16BB3 
 884      49921E9D 
 884      731C3D69 
 884      8AF6F0
 885 2e02 EC2B3959 		.ascii	"\354+9Y?\205;E\016\255h,\010\316\246j\001\377?6\247"
 885      3F853B45 
 885      0EAD682C 
 885      08CEA66A 
 885      01FF3F36 
 886 2e17 B349     		.ascii	"\263I"
 887              		.text
 888              		.section	.gnu.lto_.symtab.a39bbb12515ab9d6,"",%progbits
 889 0000 73656E73 		.ascii	"sensorThread\000\000\000\000\000\000\000\000\000\000"
 889      6F725468 
 889      72656164 
 889      00000000 
 889      00000000 
 890 0016 0000F403 		.ascii	"\000\000\364\003\000\000sensorThreadStop\000\000\000"
 890      00007365 
 890      6E736F72 
 890      54687265 
 890      61645374 
ARM GAS  /tmp/cc3fTe16.s 			page 73


 891 002f 00000000 		.ascii	"\000\000\000\000\000\000\000\000\000\371\003\000\000"
 891      00000000 
 891      00F90300 
 891      00
 892 003c 53443600 		.ascii	"SD6\000\000\002\000\000\000\000\000\000\000\000\000"
 892      00020000 
 892      00000000 
 892      000000
 893 004b B0040000 		.ascii	"\260\004\000\000I2CD1\000\000\002\000\000\000\000\000"
 893      49324344 
 893      31000002 
 893      00000000 
 893      00
 894 005c 00000000 		.ascii	"\000\000\000\000\262\004\000\000I2CD3\000\000\002\000"
 894      B2040000 
 894      49324344 
 894      33000002 
 894      00
 895 006d 00000000 		.ascii	"\000\000\000\000\000\000\000\000\264\004\000\000ADC"
 895      00000000 
 895      B4040000 
 895      414443
 896 007c 44310000 		.ascii	"D1\000\000\002\000\000\000\000\000\000\000\000\000\251"
 896      02000000 
 896      00000000 
 896      0000A9
 897 008b 04000063 		.ascii	"\004\000\000chvprintf\000\000\002\000\000\000\000\000"
 897      68767072 
 897      696E7466 
 897      00000200 
 897      00000000 
 898 009f 00000000 		.ascii	"\000\000\000\000A\004\000\000chThdSleepUntil\000\000"
 898      41040000 
 898      63685468 
 898      64536C65 
 898      6570556E 
 899 00b8 02000000 		.ascii	"\002\000\000\000\000\000\000\000\000\000P\004\000\000"
 899      00000000 
 899      00005004 
 899      0000
 900 00c6 626F6172 		.ascii	"boardSetLED\000\000\002\000\000\000\000\000\000\000"
 900      64536574 
 900      4C454400 
 900      00020000 
 900      00000000 
 901 00db 00005404 		.ascii	"\000\000T\004\000\000adcConvert\000\000\002\000\000"
 901      00006164 
 901      63436F6E 
 901      76657274 
 901      00000200 
 902 00f0 00000000 		.ascii	"\000\000\000\000\000\000\000X\004\000\000ms5607_rea"
 902      00000058 
 902      0400006D 
 902      73353630 
 902      375F7265 
 903 0105 64507265 		.ascii	"dPressureTemperature\000\000\002\000\000\000\000\000"
 903      73737572 
ARM GAS  /tmp/cc3fTe16.s 			page 74


 903      6554656D 
 903      70657261 
 903      74757265 
 904 0121 00000000 		.ascii	"\000\000\000\000_\004\000\000si70x0_readTemperature"
 904      5F040000 
 904      73693730 
 904      78305F72 
 904      65616454 
 905 013f 00000200 		.ascii	"\000\000\002\000\000\000\000\000\000\000\000\000f\004"
 905      00000000 
 905      00000000 
 905      6604
 906 014d 00007369 		.ascii	"\000\000si70x0_readHumidity\000\000\002\000\000\000"
 906      37307830 
 906      5F726561 
 906      6448756D 
 906      69646974 
 907 0168 00000000 		.ascii	"\000\000\000\000\000\000l\004\000\000tmp275_readTem"
 907      00006C04 
 907      0000746D 
 907      70323735 
 907      5F726561 
 908 0180 70657261 		.ascii	"perature\000\000\002\000\000\000\000\000\000\000\000"
 908      74757265 
 908      00000200 
 908      00000000 
 908      000000
 909 0193 006E0400 		.ascii	"\000n\004\000\000si70x0_heaterEnable\000\000\002\000"
 909      00736937 
 909      3078305F 
 909      68656174 
 909      6572456E 
 910 01af 00000000 		.ascii	"\000\000\000\000\000\000\000\000t\004\000\000chThdS"
 910      00000000 
 910      74040000 
 910      63685468 
 910      6453
 911 01c1 6C656570 		.ascii	"leep\000\000\002\000\000\000\000\000\000\000\000\000"
 911      00000200 
 911      00000000 
 911      00000000 
 912 01d1 79040000 		.ascii	"y\004\000\000si70x0_setHeaterCurrent\000\000\002\000"
 912      73693730 
 912      78305F73 
 912      65744865 
 912      61746572 
 913 01f0 00000000 		.ascii	"\000\000\000\000\000\000\000\000{\004\000\000bmp280"
 913      00000000 
 913      7B040000 
 913      626D7032 
 913      3830
 914 0202 5F696E69 		.ascii	"_init\000\000\002\000\000\000\000\000\000\000\000\000"
 914      74000002 
 914      00000000 
 914      00000000 
 914      00
 915 0213 80040000 		.ascii	"\200\004\000\000lsm303_init\000\000\002\000\000\000"
ARM GAS  /tmp/cc3fTe16.s 			page 75


 915      6C736D33 
 915      30335F69 
 915      6E697400 
 915      00020000 
 916 0228 00000000 		.ascii	"\000\000\000\000\000\000\207\004\000\000ms5607_init"
 916      00008704 
 916      00006D73 
 916      35363037 
 916      5F696E69 
 917 023d 00000200 		.ascii	"\000\000\002\000\000\000\000\000\000\000\000\000\217"
 917      00000000 
 917      00000000 
 917      8F
 918 024a 04000073 		.ascii	"\004\000\000si70x0_init\000\000\002\000\000\000\000"
 918      69373078 
 918      305F696E 
 918      69740000 
 918      02000000 
 919 025f 00000000 		.ascii	"\000\000\000\000\000\225\004\000\000tmp275_init\000"
 919      00950400 
 919      00746D70 
 919      3237355F 
 919      696E6974 
 920 0274 00020000 		.ascii	"\000\002\000\000\000\000\000\000\000\000\000\232\004"
 920      00000000 
 920      0000009A 
 920      04
 921 0281 00006932 		.ascii	"\000\000i2cStart\000\000\002\000\000\000\000\000\000"
 921      63537461 
 921      72740000 
 921      02000000 
 921      000000
 922 0294 000000A0 		.ascii	"\000\000\000\240\004\000\000chMtxObjectInit\000\000"
 922      04000063 
 922      684D7478 
 922      4F626A65 
 922      6374496E 
 923 02ac 02000000 		.ascii	"\002\000\000\000\000\000\000\000\000\000\245\004\000"
 923      00000000 
 923      0000A504 
 923      00
 924 02b9 00       		.ascii	"\000"
 925              		.text
 926              		.section	.gnu.lto_.opts,"",%progbits
 927 0000 272D6D63 		.ascii	"'-mcpu=cortex-m4' '-mfloat-abi=hard' '-mfpu=fpv4-sp"
 927      70753D63 
 927      6F727465 
 927      782D6D34 
 927      2720272D 
 928 0033 2D643136 		.ascii	"-d16' '-mno-thumb-interwork' '-mthumb' '-O2' '-fomi"
 928      2720272D 
 928      6D6E6F2D 
 928      7468756D 
 928      622D696E 
 929 0066 742D6672 		.ascii	"t-frame-pointer' '-falign-functions=16' '-ffunction"
 929      616D652D 
 929      706F696E 
ARM GAS  /tmp/cc3fTe16.s 			page 76


 929      74657227 
 929      20272D66 
 930 0099 2D736563 		.ascii	"-sections' '-fdata-sections' '-fno-common' '-flto' "
 930      74696F6E 
 930      73272027 
 930      2D666461 
 930      74612D73 
 931 00cc 272D6673 		.ascii	"'-fsingle-precision-constant'\000"
 931      696E676C 
 931      652D7072 
 931      65636973 
 931      696F6E2D 
 932              		.text
 933              		.section	.text.chprintf.constprop.0,"ax",%progbits
 934              		.align	2
 935              		.p2align 4,,15
 936              		.thumb
 937              		.thumb_func
 938              		.type	chprintf.constprop.0, %function
 939              	chprintf.constprop.0:
 940              		@ args = 4, pretend = 12, frame = 8
 941              		@ frame_needed = 0, uses_anonymous_args = 1
 942 0000 0EB4     		push	{r1, r2, r3}
 943 0002 00B5     		push	{lr}
 944 0004 82B0     		sub	sp, sp, #8
 945 0006 03AA     		add	r2, sp, #12
 946 0008 0548     		ldr	r0, .L2
 947 000a 52F8041B 		ldr	r1, [r2], #4
 948 000e 0192     		str	r2, [sp, #4]
 949 0010 FFF7FEFF 		bl	chvprintf
 950 0014 02B0     		add	sp, sp, #8
 951              		@ sp needed
 952 0016 5DF804EB 		ldr	lr, [sp], #4
 953 001a 03B0     		add	sp, sp, #12
 954 001c 7047     		bx	lr
 955              	.L3:
 956 001e 00BF     		.align	2
 957              	.L2:
 958 0020 00000000 		.word	SD6
 959              		.size	chprintf.constprop.0, .-chprintf.constprop.0
 960              		.global	__aeabi_f2d
 961 0024 AFF30080 		.section	.text.sensorThread,"ax",%progbits
 961      AFF30080 
 961      AFF30080 
 962              		.align	2
 963              		.p2align 4,,15
 964              		.global	sensorThread
 965              		.thumb
 966              		.thumb_func
 967              		.type	sensorThread, %function
 968              	sensorThread:
 969              		@ args = 0, pretend = 0, frame = 32
 970              		@ frame_needed = 0, uses_anonymous_args = 0
 971 0000 2DE9F04F 		push	{r4, r5, r6, r7, r8, r9, r10, fp, lr}
 972 0004 0124     		movs	r4, #1
 973 0006 8BB0     		sub	sp, sp, #44
 974 0008 0546     		mov	r5, r0
ARM GAS  /tmp/cc3fTe16.s 			page 77


 975 000a 8470     		strb	r4, [r0, #2]
 976 000c 0430     		adds	r0, r0, #4
 977 000e FFF7FEFF 		bl	chMtxObjectInit
 978 0012 754B     		ldr	r3, .L23
 979 0014 754A     		ldr	r2, .L23+4
 980 0016 7648     		ldr	r0, .L23+8
 981 0018 7649     		ldr	r1, .L23+12
 982 001a 1A60     		str	r2, [r3]
 983 001c 05F5F478 		add	r8, r5, #488
 984 0020 FFF7FEFF 		bl	i2cStart
 985 0024 7448     		ldr	r0, .L23+16
 986 0026 7549     		ldr	r1, .L23+20
 987 0028 FFF7FEFF 		bl	i2cStart
 988 002c 05F5DC76 		add	r6, r5, #440
 989 0030 4822     		movs	r2, #72
 990 0032 4046     		mov	r0, r8
 991 0034 7049     		ldr	r1, .L23+16
 992 0036 FFF7FEFF 		bl	tmp275_init
 993 003a 05F5C477 		add	r7, r5, #392
 994 003e 3046     		mov	r0, r6
 995 0040 6D49     		ldr	r1, .L23+16
 996 0042 FFF7FEFF 		bl	si70x0_init
 997 0046 05F5A079 		add	r9, r5, #320
 998 004a 3846     		mov	r0, r7
 999 004c 6849     		ldr	r1, .L23+8
 1000 004e FFF7FEFF 		bl	si70x0_init
 1001 0052 6949     		ldr	r1, .L23+16
 1002 0054 7722     		movs	r2, #119
 1003 0056 4846     		mov	r0, r9
 1004 0058 FFF7FEFF 		bl	ms5607_init
 1005 005c 1E23     		movs	r3, #30
 1006 005e 6449     		ldr	r1, .L23+8
 1007 0060 1D22     		movs	r2, #29
 1008 0062 05F1C800 		add	r0, r5, #200
 1009 0066 FFF7FEFF 		bl	lsm303_init
 1010 006a 7622     		movs	r2, #118
 1011 006c 05F15C00 		add	r0, r5, #92
 1012 0070 5F49     		ldr	r1, .L23+8
 1013 0072 FFF7FEFF 		bl	bmp280_init
 1014 0076 0E21     		movs	r1, #14
 1015 0078 3846     		mov	r0, r7
 1016 007a FFF7FEFF 		bl	si70x0_setHeaterCurrent
 1017 007e 2146     		mov	r1, r4
 1018 0080 3846     		mov	r0, r7
 1019 0082 FFF7FEFF 		bl	si70x0_heaterEnable
 1020 0086 0E21     		movs	r1, #14
 1021 0088 3046     		mov	r0, r6
 1022 008a FFF7FEFF 		bl	si70x0_setHeaterCurrent
 1023 008e 2146     		mov	r1, r4
 1024 0090 3046     		mov	r0, r6
 1025 0092 FFF7FEFF 		bl	si70x0_heaterEnable
 1026 0096 4FF47A70 		mov	r0, #1000
 1027 009a FFF7FEFF 		bl	chThdSleep
 1028 009e 0021     		movs	r1, #0
 1029 00a0 3846     		mov	r0, r7
 1030 00a2 FFF7FEFF 		bl	si70x0_heaterEnable
 1031 00a6 0021     		movs	r1, #0
ARM GAS  /tmp/cc3fTe16.s 			page 78


 1032 00a8 3046     		mov	r0, r6
 1033 00aa FFF7FEFF 		bl	si70x0_heaterEnable
 1034 00ae 4FF08041 		mov	r1, #1073741824
 1035 00b2 AA78     		ldrb	r2, [r5, #2]	@ zero_extendqisi2
 1036 00b4 4C6A     		ldr	r4, [r1, #36]
 1037 00b6 0023     		movs	r3, #0
 1038 00b8 2B63     		str	r3, [r5, #48]	@ float
 1039 00ba 6B63     		str	r3, [r5, #52]	@ float
 1040 00bc 002A     		cmp	r2, #0
 1041 00be 59D0     		beq	.L15
 1042 00c0 05F13003 		add	r3, r5, #48
 1043 00c4 0493     		str	r3, [sp, #16]
 1044 00c6 05F13403 		add	r3, r5, #52
 1045 00ca 0593     		str	r3, [sp, #20]
 1046 00cc 05F12C03 		add	r3, r5, #44
 1047 00d0 0693     		str	r3, [sp, #24]
 1048 00d2 05F12003 		add	r3, r5, #32
 1049 00d6 05F1180B 		add	fp, r5, #24
 1050 00da 0793     		str	r3, [sp, #28]
 1051 00dc 2FE0     		b	.L13
 1052              	.L6:
 1053 00de 0499     		ldr	r1, [sp, #16]
 1054 00e0 3846     		mov	r0, r7
 1055 00e2 FFF7FEFF 		bl	si70x0_readHumidity
 1056 00e6 08A9     		add	r1, sp, #32
 1057 00e8 8246     		mov	r10, r0
 1058 00ea 3846     		mov	r0, r7
 1059 00ec FFF7FEFF 		bl	si70x0_readTemperature
 1060 00f0 50EA0A0A 		orrs	r10, r0, r10
 1061 00f4 66D0     		beq	.L19
 1062              	.L7:
 1063 00f6 0599     		ldr	r1, [sp, #20]
 1064 00f8 3046     		mov	r0, r6
 1065 00fa FFF7FEFF 		bl	si70x0_readHumidity
 1066 00fe 09A9     		add	r1, sp, #36
 1067 0100 8246     		mov	r10, r0
 1068 0102 3046     		mov	r0, r6
 1069 0104 FFF7FEFF 		bl	si70x0_readTemperature
 1070 0108 50EA0A0A 		orrs	r10, r0, r10
 1071 010c 48D0     		beq	.L20
 1072              	.L8:
 1073 010e 4846     		mov	r0, r9
 1074 0110 0699     		ldr	r1, [sp, #24]
 1075 0112 079A     		ldr	r2, [sp, #28]
 1076 0114 FFF7FEFF 		bl	ms5607_readPressureTemperature
 1077 0118 0028     		cmp	r0, #0
 1078 011a 2FD0     		beq	.L21
 1079              	.L9:
 1080 011c 384A     		ldr	r2, .L23+24
 1081 011e 3949     		ldr	r1, .L23+28
 1082 0120 3948     		ldr	r0, .L23+32
 1083 0122 3223     		movs	r3, #50
 1084 0124 FFF7FEFF 		bl	adcConvert
 1085 0128 0020     		movs	r0, #0
 1086 012a FFF7FEFF 		bl	boardSetLED
 1087 012e 4FF08043 		mov	r3, #1073741824
 1088 0132 5A6A     		ldr	r2, [r3, #36]
ARM GAS  /tmp/cc3fTe16.s 			page 79


 1089 0134 9442     		cmp	r4, r2
 1090 0136 17D8     		bhi	.L22
 1091 0138 5C6A     		ldr	r4, [r3, #36]
 1092 013a AB78     		ldrb	r3, [r5, #2]	@ zero_extendqisi2
 1093 013c D3B1     		cbz	r3, .L15
 1094              	.L13:
 1095 013e 0120     		movs	r0, #1
 1096 0140 FFF7FEFF 		bl	boardSetLED
 1097 0144 4046     		mov	r0, r8
 1098 0146 5946     		mov	r1, fp
 1099 0148 04F57A74 		add	r4, r4, #1000
 1100 014c FFF7FEFF 		bl	tmp275_readTemperature
 1101 0150 0028     		cmp	r0, #0
 1102 0152 C4D1     		bne	.L6
 1103 0154 A869     		ldr	r0, [r5, #24]	@ float
 1104 0156 FFF7FEFF 		bl	__aeabi_f2d
 1105 015a 0246     		mov	r2, r0
 1106 015c 0B46     		mov	r3, r1
 1107 015e 2348     		ldr	r0, .L23+4
 1108 0160 2A49     		ldr	r1, .L23+36
 1109 0162 FFF7FEFF 		bl	chprintf.constprop.0
 1110 0166 BAE7     		b	.L6
 1111              	.L22:
 1112 0168 2046     		mov	r0, r4
 1113 016a FFF7FEFF 		bl	chThdSleepUntil
 1114 016e AB78     		ldrb	r3, [r5, #2]	@ zero_extendqisi2
 1115 0170 002B     		cmp	r3, #0
 1116 0172 E4D1     		bne	.L13
 1117              	.L15:
 1118 0174 0020     		movs	r0, #0
 1119 0176 0BB0     		add	sp, sp, #44
 1120              		@ sp needed
 1121 0178 BDE8F08F 		pop	{r4, r5, r6, r7, r8, r9, r10, fp, pc}
 1122              	.L21:
 1123 017c E86A     		ldr	r0, [r5, #44]	@ float
 1124 017e FFF7FEFF 		bl	__aeabi_f2d
 1125 0182 0246     		mov	r2, r0
 1126 0184 286A     		ldr	r0, [r5, #32]	@ float
 1127 0186 0392     		str	r2, [sp, #12]
 1128 0188 0291     		str	r1, [sp, #8]
 1129 018a FFF7FEFF 		bl	__aeabi_f2d
 1130 018e 039A     		ldr	r2, [sp, #12]
 1131 0190 029B     		ldr	r3, [sp, #8]
 1132 0192 CDE90001 		strd	r0, [sp]
 1133 0196 1E49     		ldr	r1, .L23+40
 1134 0198 1448     		ldr	r0, .L23+4
 1135 019a FFF7FEFF 		bl	chprintf.constprop.0
 1136 019e BDE7     		b	.L9
 1137              	.L20:
 1138 01a0 686B     		ldr	r0, [r5, #52]	@ float
 1139 01a2 FFF7FEFF 		bl	__aeabi_f2d
 1140 01a6 0246     		mov	r2, r0
 1141 01a8 0998     		ldr	r0, [sp, #36]	@ float
 1142 01aa 0392     		str	r2, [sp, #12]
 1143 01ac 0291     		str	r1, [sp, #8]
 1144 01ae FFF7FEFF 		bl	__aeabi_f2d
 1145 01b2 039A     		ldr	r2, [sp, #12]
ARM GAS  /tmp/cc3fTe16.s 			page 80


 1146 01b4 029B     		ldr	r3, [sp, #8]
 1147 01b6 CDE90001 		strd	r0, [sp]
 1148 01ba 1649     		ldr	r1, .L23+44
 1149 01bc 0B48     		ldr	r0, .L23+4
 1150 01be FFF7FEFF 		bl	chprintf.constprop.0
 1151 01c2 A4E7     		b	.L8
 1152              	.L19:
 1153 01c4 286B     		ldr	r0, [r5, #48]	@ float
 1154 01c6 FFF7FEFF 		bl	__aeabi_f2d
 1155 01ca 0246     		mov	r2, r0
 1156 01cc 0898     		ldr	r0, [sp, #32]	@ float
 1157 01ce 0392     		str	r2, [sp, #12]
 1158 01d0 0291     		str	r1, [sp, #8]
 1159 01d2 FFF7FEFF 		bl	__aeabi_f2d
 1160 01d6 039A     		ldr	r2, [sp, #12]
 1161 01d8 029B     		ldr	r3, [sp, #8]
 1162 01da CDE90001 		strd	r0, [sp]
 1163 01de 0E49     		ldr	r1, .L23+48
 1164 01e0 0248     		ldr	r0, .L23+4
 1165 01e2 FFF7FEFF 		bl	chprintf.constprop.0
 1166 01e6 86E7     		b	.L7
 1167              	.L24:
 1168              		.align	2
 1169              	.L23:
 1170 01e8 00000000 		.word	.LANCHOR0
 1171 01ec 00000000 		.word	SD6
 1172 01f0 00000000 		.word	I2CD1
 1173 01f4 00000000 		.word	.LANCHOR1
 1174 01f8 00000000 		.word	I2CD3
 1175 01fc 00000000 		.word	.LANCHOR2
 1176 0200 00000000 		.word	.LANCHOR4
 1177 0204 00000000 		.word	.LANCHOR3
 1178 0208 00000000 		.word	ADCD1
 1179 020c 00000000 		.word	.LC0
 1180 0210 40000000 		.word	.LC3
 1181 0214 28000000 		.word	.LC2
 1182 0218 10000000 		.word	.LC1
 1183              		.size	sensorThread, .-sensorThread
 1184 021c AFF30080 		.section	.text.sensorThreadStop,"ax",%progbits
 1185              		.align	2
 1186              		.p2align 4,,15
 1187              		.global	sensorThreadStop
 1188              		.thumb
 1189              		.thumb_func
 1190              		.type	sensorThreadStop, %function
 1191              	sensorThreadStop:
 1192              		@ args = 0, pretend = 0, frame = 0
 1193              		@ frame_needed = 0, uses_anonymous_args = 0
 1194              		@ link register save eliminated.
 1195 0000 0346     		mov	r3, r0
 1196 0002 0022     		movs	r2, #0
 1197 0004 9A70     		strb	r2, [r3, #2]
 1198 0006 7047     		bx	lr
 1199              		.size	sensorThreadStop, .-sensorThreadStop
 1200 0008 AFF30080 		.section	.bss.analogSamples,"aw",%nobits
 1200      AFF30080 
 1201              		.align	2
ARM GAS  /tmp/cc3fTe16.s 			page 81


 1202              		.set	.LANCHOR4,. + 0
 1203              		.type	analogSamples, %object
 1204              		.size	analogSamples, 300
 1205              	analogSamples:
 1206 0000 00000000 		.space	300
 1206      00000000 
 1206      00000000 
 1206      00000000 
 1206      00000000 
 1207              		.section	.bss.DEBUG,"aw",%nobits
 1208              		.align	2
 1209              		.set	.LANCHOR0,. + 0
 1210              		.type	DEBUG, %object
 1211              		.size	DEBUG, 4
 1212              	DEBUG:
 1213 0000 00000000 		.space	4
 1214              		.section	.rodata.analogGrp,"a",%progbits
 1215              		.align	2
 1216              		.set	.LANCHOR3,. + 0
 1217              		.type	analogGrp, %object
 1218              		.size	analogGrp, 40
 1219              	analogGrp:
 1220 0000 00       		.byte	0
 1221 0001 00       		.space	1
 1222 0002 0300     		.short	3
 1223 0004 00000000 		.word	0
 1224 0008 00000000 		.word	0
 1225 000c 00000000 		.word	0
 1226 0010 00000040 		.word	1073741824
 1227 0014 1B000000 		.word	27
 1228 0018 03000000 		.word	3
 1229 001c 00002000 		.word	2097152
 1230 0020 00000000 		.word	0
 1231 0024 402D0000 		.word	11584
 1232              		.section	.rodata.ei2cCfg,"a",%progbits
 1233              		.align	2
 1234              		.set	.LANCHOR2,. + 0
 1235              		.type	ei2cCfg, %object
 1236              		.size	ei2cCfg, 12
 1237              	ei2cCfg:
 1238 0000 01       		.byte	1
 1239 0001 000000   		.space	3
 1240 0004 A0860100 		.word	100000
 1241 0008 02       		.byte	2
 1242 0009 000000   		.space	3
 1243              		.section	.rodata.str1.4,"aMS",%progbits,1
 1244              		.align	2
 1245              	.LC0:
 1246 0000 45585445 		.ascii	"EXTEMP:%.1fC\012\000"
 1246      4D503A25 
 1246      2E316643 
 1246      0A00
 1247 000e 0000     		.space	2
 1248              	.LC1:
 1249 0010 4948554D 		.ascii	"IHUM:%.1f%% TEMP:%.2fC\012\000"
 1249      3A252E31 
 1249      66252520 
ARM GAS  /tmp/cc3fTe16.s 			page 82


 1249      54454D50 
 1249      3A252E32 
 1250              	.LC2:
 1251 0028 4548554D 		.ascii	"EHUM:%.1f%% ETMP:%.2fC\012\000"
 1251      3A252E31 
 1251      66252520 
 1251      45544D50 
 1251      3A252E32 
 1252              	.LC3:
 1253 0040 4D505253 		.ascii	"MPRS:%.2fkPa, MTMP:%.2fC\012\000"
 1253      3A252E32 
 1253      666B5061 
 1253      2C204D54 
 1253      4D503A25 
 1254 005a 0000     		.section	.rodata.ii2cCfg,"a",%progbits
 1255              		.align	2
 1256              		.set	.LANCHOR1,. + 0
 1257              		.type	ii2cCfg, %object
 1258              		.size	ii2cCfg, 12
 1259              	ii2cCfg:
 1260 0000 01       		.byte	1
 1261 0001 000000   		.space	3
 1262 0004 A0860100 		.word	100000
 1263 0008 02       		.byte	2
 1264 0009 000000   		.space	3
 1265              		.comm	__gnu_lto_v1,1,1
 1266              		.ident	"GCC: (GNU Tools for ARM Embedded Processors) 4.8.4 20140526 (release) [ARM/embedded-4_8-br
ARM GAS  /tmp/cc3fTe16.s 			page 83


DEFINED SYMBOLS
                            *ABS*:0000000000000000 sensor_thread.c
     /tmp/cc3fTe16.s:934    .text.chprintf.constprop.0:0000000000000000 $t
     /tmp/cc3fTe16.s:939    .text.chprintf.constprop.0:0000000000000000 chprintf.constprop.0
     /tmp/cc3fTe16.s:958    .text.chprintf.constprop.0:0000000000000020 $d
     /tmp/cc3fTe16.s:962    .text.sensorThread:0000000000000000 $t
     /tmp/cc3fTe16.s:968    .text.sensorThread:0000000000000000 sensorThread
     /tmp/cc3fTe16.s:1170   .text.sensorThread:00000000000001e8 $d
     /tmp/cc3fTe16.s:1185   .text.sensorThreadStop:0000000000000000 $t
     /tmp/cc3fTe16.s:1191   .text.sensorThreadStop:0000000000000000 sensorThreadStop
     /tmp/cc3fTe16.s:1201   .bss.analogSamples:0000000000000000 $d
     /tmp/cc3fTe16.s:1205   .bss.analogSamples:0000000000000000 analogSamples
     /tmp/cc3fTe16.s:1208   .bss.DEBUG:0000000000000000 $d
     /tmp/cc3fTe16.s:1212   .bss.DEBUG:0000000000000000 DEBUG
     /tmp/cc3fTe16.s:1215   .rodata.analogGrp:0000000000000000 $d
     /tmp/cc3fTe16.s:1219   .rodata.analogGrp:0000000000000000 analogGrp
     /tmp/cc3fTe16.s:1233   .rodata.ei2cCfg:0000000000000000 $d
     /tmp/cc3fTe16.s:1237   .rodata.ei2cCfg:0000000000000000 ei2cCfg
     /tmp/cc3fTe16.s:1244   .rodata.str1.4:0000000000000000 $d
     /tmp/cc3fTe16.s:1255   .rodata.ii2cCfg:0000000000000000 $d
     /tmp/cc3fTe16.s:1259   .rodata.ii2cCfg:0000000000000000 ii2cCfg
                            *COM*:0000000000000001 __gnu_lto_v1
     /tmp/cc3fTe16.s:961    .text.chprintf.constprop.0:0000000000000024 $t
     /tmp/cc3fTe16.s:1184   .text.sensorThread:000000000000021c $t

UNDEFINED SYMBOLS
chvprintf
SD6
__aeabi_f2d
chMtxObjectInit
i2cStart
tmp275_init
si70x0_init
ms5607_init
lsm303_init
bmp280_init
si70x0_setHeaterCurrent
si70x0_heaterEnable
chThdSleep
si70x0_readHumidity
si70x0_readTemperature
ms5607_readPressureTemperature
adcConvert
boardSetLED
tmp275_readTemperature
chThdSleepUntil
I2CD1
I2CD3
ADCD1
