ARM GAS  /tmp/ccGvYF46.s 			page 1


   1              		.syntax unified
   2              		.cpu cortex-m4
   3              		.eabi_attribute 27, 3
   4              		.eabi_attribute 28, 1
   5              		.fpu fpv4-sp-d16
   6              		.eabi_attribute 20, 1
   7              		.eabi_attribute 21, 1
   8              		.eabi_attribute 23, 3
   9              		.eabi_attribute 24, 1
  10              		.eabi_attribute 25, 1
  11              		.eabi_attribute 26, 1
  12              		.eabi_attribute 30, 2
  13              		.eabi_attribute 34, 1
  14              		.eabi_attribute 18, 4
  15              		.thumb
  16              		.file	"sensor_thread.c"
  17              		.section	.gnu.lto_.jmpfuncs.1b56cd5cb82def2f,"",%progbits
  18 0000 789C8D90 		.ascii	"x\234\215\220=N\0031\020\205\347\331^\002KB\022B\201"
  18      3D4E0331 
  18      1085E7D9 
  18      5E024B42 
  18      124281
  19 0013 84586D93 		.ascii	"\204Xm\223>J\203\224*\005ER !~\244P\"\005\244)\334\246"
  19      3E4A8394 
  19      2A054552 
  19      20217EA4 
  19      502205A4 
  20 002a A1D99223 		.ascii	"\241\331\222#\244\311]r\024\316A\305x\330\0376\332\225"
  20      A4C95D72 
  20      14CE41C5 
  20      78D81F36 
  20      DA95
  21 003c 7061BF99 		.ascii	"pa\277\231\371\354\231gC\206\232\326\275\244S9-Y\310"
  21      F9EC9967 
  21      43869AD6 
  21      BDA45339 
  21      2D59C8
  22 004f 6E456E42 		.ascii	"nEnBD\330\204\262T\315\012\214\240\0019\240a\210\235"
  22      44D884B2 
  22      54CD0A8C 
  22      A00139A0 
  22      61889D
  23 0062 F9A0EFEC 		.ascii	"\371\240\357\3543\0330\214W\2004\263\015\031\353\225"
  23      331B308C 
  23      578034B3 
  23      0D19EB95 
  24 0072 A18A711E 		.ascii	"\241\212q\036:\201\336\217\246\"\334\276\3138*R\235"
  24      3A81DE8F 
  24      A622DCBE 
  24      CB382A52 
  24      9D
  25 0083 D0DE6517 		.ascii	"\320\336e\027\214\343|4[]>\361\260\365\006qB\330e\333"
  25      8CE37C34 
  25      5B5D3EF1 
  25      B0F50671 
  25      42D865DB 
  26 0097 39E3F43F 		.ascii	"9\343\364?x7\241\376/\336\313qi\177\3118+t\302\350\253"
ARM GAS  /tmp/ccGvYF46.s 			page 2


  26      7837A1FE 
  26      2FDECB71 
  26      697FC938 
  26      2B74C2E8 
  27 00ac CE0DEA34 		.ascii	"\316\015\3524_\021cPs1\364p\245\213\216|\221\253\\\264"
  27      5F116350 
  27      7331F470 
  27      A58B8E7C 
  27      91AB5CB4 
  28 00c0 40D78548 		.ascii	"@\327\205H\376\032\254\321Q\355I[N\326\366\344\\\241"
  28      FE1AACD1 
  28      51ED495B 
  28      4ED6F6E4 
  28      5CA1
  29 00d2 AB06283A 		.ascii	"\253\006(:\204r_m\320BDC\255\374\267s\257\336\016 \327"
  29      84725F6D 
  29      D0424443 
  29      ADFCB773 
  29      AFDE0E20 
  30 00e7 0CC1A58C 		.ascii	"\014\301\245\214\221\210\030\324[<\337-o\227O/\263\361"
  30      918818D4 
  30      5B3CDF2D 
  30      6F974F2F 
  30      B3F1
  31 00f9 7B4CC347 		.ascii	"{L\303G\276\231L'\351\303\333\353z\226\216\3271\375"
  31      BE994C27 
  31      E9C3DBEB 
  31      7A968ED7 
  31      31FD
  32 010b 00F2456A 		.ascii	"\000\362Ej\007"
  32      07
  33              		.text
  34              		.section	.gnu.lto_.inline.1b56cd5cb82def2f,"",%progbits
  35 0000 789C7D4F 		.ascii	"x\234}O\273\016\0021\014s\036P\251\275cdB\272\221\277"
  35      BB0E0231 
  35      0C731E50 
  35      A9BD6364 
  35      42BA91BF 
  36 0014 E9773176 		.ascii	"\351w1vc\345\237@l\267#>\201\001\221\204\036,\210v\260"
  36      63E59F40 
  36      6CB7233E 
  36      81019184 
  36      1E2C8876 
  37 0029 1B3B96CB 		.ascii	"\033;\226\313`\374:\217\216\002-;\204i}\232>^\302jc"
  37      60FC3A8F 
  37      8E022D3B 
  37      84697D9A 
  37      3E5EC26A 
  38 003e 62AB7E65 		.ascii	"b\253~e\010\003\341\214{&2b\357\355\363\230\221\257"
  38      0803E18C 
  38      7B263262 
  38      EFEDF398 
  38      91AF
  39 0050 178A1D2E 		.ascii	"\027\212\035.6n5\300V\011\032\341\003\201\347\004\035"
  39      366E35C0 
  39      56091AE1 
  39      0381E704 
ARM GAS  /tmp/ccGvYF46.s 			page 3


  39      1D
  40 0061 093227CF 		.ascii	"\0112'\317rM\200Vc\266\020v\261\273\227\024\035\243"
  40      724D8056 
  40      63B61076 
  40      B1BB9714 
  40      1DA3
  41 0073 00A2893A 		.ascii	"\000\242\211:\371\216\376\220^\266\003\027x\257\014"
  41      F98EFE90 
  41      5EB60317 
  41      78AF0C
  42 0082 150BA75B 		.ascii	"\025\013\247[B:\354\337\277|\001:\323\034\312"
  42      423AECDF 
  42      BF7C013A 
  42      D31CCA
  43              		.text
  44              		.section	.gnu.lto_.pureconst.1b56cd5cb82def2f,"",%progbits
  45 0000 789C6362 		.ascii	"x\234cb`b`g\200\000f\006\011F).)\000\001\321\000f"
  45      60626067 
  45      80006606 
  45      0946292E 
  45      290001D1 
  46              		.text
  47              		.section	.gnu.lto_chprintf.1b56cd5cb82def2f,"",%progbits
  48 0000 789C8550 		.ascii	"x\234\205P\315J\002Q\024>\337\0355uc\333v\342\0034\213"
  48      CD4A0251 
  48      143EDF1D 
  48      357563DB 
  48      76E20334 
  49 0015 22E80D7A 		.ascii	"\"\350\015z\000\203Z\3058\216z\011\035\321Q\260\026"
  49      00835AC5 
  49      388E7A09 
  49      1DD151B0 
  49      16
  50 0026 5EC1C245 		.ascii	"^\301\302E\013ig\021)\321:\244\027\030\202\332DI\273"
  50      0B696711 
  50      29D13AA4 
  50      171882DA 
  50      4449BB
  51 0039 162D2497 		.ascii	"\026-$\227\265h\321*\202\351\336\031\024\372\201\016"
  51      B568D12A 
  51      82E9DE19 
  51      14FA810E 
  52 0049 DC7B7EBE 		.ascii	"\334{~\276s\276\363\303\210\321OY\220o\010\2425\251"
  52      73BEF3C3 
  52      88D14F59 
  52      906F08A2 
  52      35A9
  53 005b A11158F7 		.ascii	"\241\021X\367\236\250\025e\2002\010\324dhnB\245\262"
  53      9EA81565 
  53      803208D4 
  53      64686E42 
  53      A5B2
  54 006d 140D84DB 		.ascii	"\024\015\204\333\035_O\036\321\023n\273/>=\017\340\220"
  54      1D5F4F1E 
  54      D1136EBB 
  54      2F3E3D0F 
  54      E090
ARM GAS  /tmp/ccGvYF46.s 			page 4


  55 007f B42B2013 		.ascii	"\264+ \023\264!\035$}\305B\337\373\250Z\321uOon!\016"
  55      B4211D24 
  55      7DC542DF 
  55      FBA85AD1 
  55      754F6F6E 
  56 0095 45EBCDF3 		.ascii	"E\353\315\363\022\034\032\243\325\377\012/\230\373\354"
  56      121C1AA3 
  56      D5FF0A2F 
  56      98FBEC
  57 00a4 794FC3F7 		.ascii	"yO\303\367\203W\364XLC\021\024\222\037\"d\340\014)\225"
  57      8357F458 
  57      4C431114 
  57      921F2264 
  57      E00C2995 
  58 00b8 13A6B624 		.ascii	"\023\246\266$O\032\030H\177\0325\375\241\323\362W\233"
  58      4F1A1848 
  58      7F1A35FD 
  58      A1D3F257 
  58      9B
  59 00c9 AC8329AD 		.ascii	"\254\203)\255\215ho\3343\015\234#,\321]\372\020\035"
  59      8D686FDC 
  59      330D9C23 
  59      2CD15DFA 
  59      101D
  60 00db 31CF1132 		.ascii	"1\317\0212\341\247\313\310\016Gx\312\344g\251\2514\""
  60      E1A7CBC8 
  60      0E4778CA 
  60      E467A9A9 
  60      3422
  61 00ed 2E3BD288 		.ascii	".;\322\210\366\307G\223x\200\344\021\231\021\314\231"
  61      F6C74793 
  61      7880E411 
  61      9911CC99 
  62 00fd 088E9B87 		.ascii	"\010\216\233\207\226G( \340\210\252\222\366\370\370"
  62      96472820 
  62      E088AA92 
  62      F6F8F8
  63 010c 77C798A9 		.ascii	"w\307\230\251H\377\356\310\021'\272\243\253\027\026"
  63      48FFEEC8 
  63      1127BAA3 
  63      AB1716
  64 011b 04027099 		.ascii	"\004\002p\231.EG\235[\312\003\265\372'\332l\214\340"
  64      2E45479D 
  64      5BCA03B5 
  64      FA27DA6C 
  64      8CE0
  65 012d 5469B983 		.ascii	"Ti\271\203\334Q\315\261\244\027\354\242\245\233v\266"
  65      DC51CDB1 
  65      A417ECA2 
  65      A59B76B6 
  66 013d A167ADBA 		.ascii	"\241g\255\272n\026x\206\333U\335\251\324J\333\2724\352"
  66      6E167886 
  66      DB55DDA9 
  66      D44ADBBA 
  66      34EA
  67 014f 4685DBB5 		.ascii	"F\205\333\265\252\004\312\025^rr\213\005bF9\221\263"
  67      AA04CA15 
ARM GAS  /tmp/ccGvYF46.s 			page 5


  67      5E72728B 
  67      05624639 
  67      91B3
  68 0161 2B45C371 		.ascii	"+E\303q\254\354V\246\341X\325/\251H\201#"
  68      ACEC56A6 
  68      E158D52F 
  68      A9488123 
  69              		.text
  70              		.section	.gnu.lto_sensorThread.1b56cd5cb82def2f,"",%progbits
  71 0000 789C9D97 		.ascii	"x\234\235\227\177l\023e\030\307\237\347\256\275\353"
  71      7F6C1365 
  71      18C79FE7 
  71      AEBDEB
  72 000f BACD6D8C 		.ascii	"\272\315m\214\001\0330\352\306\020\001w[\001\247\200"
  72      011B30EA 
  72      C6100177 
  72      5B01A780 
  73 001f 02820924 		.ascii	"\002\202\011$,$\260%\022\377X\312\255v\027Wf\332JDL"
  73      2C24B025 
  73      12FF58CA 
  73      AD761757 
  73      66DA4A44 
  74 0034 B8D14E10 		.ascii	"\270\321N\020\001\033\343\017\024MX\010\376\372Cb\010"
  74      011BE30F 
  74      144D5808 
  74      FEFA4362 
  74      08
  75 0045 41A2D32A 		.ascii	"A\242\323*\004\371G'\011\211\374\012\226\030\021\215"
  75      04F94727 
  75      0989FC0A 
  75      9618118D 
  76 0055 9118FF90 		.ascii	"\221\030\377\220,`}\336\367\336\353\265\264\241\203"
  76      2C607DDE 
  76      F7DEEBB5 
  76      B4A183
  77 0064 4BF6DEF5 		.ascii	"K\366\336\365\275\347\371>\237\347y\357}\356&\201\004"
  77      BDE7F93E 
  77      9FE779EF 
  77      7DEE2681 
  77      04
  78 0075 B71F3DF4 		.ascii	"\267\037=\364\367S\005\300\017t\3062@)IW\203\036\011"
  78      F75305C0 
  78      0F74C632 
  78      40294957 
  78      831E09
  79 0088 55EB4296 		.ascii	"U\353B\226\\g'\201\351u\177\331\001f\205\013\025k\332"
  79      5C672781 
  79      E9757FD9 
  79      0166850B 
  79      156BDA
  80 009b 6D5F2896 		.ascii	"m_(\226\341rU\222w\177\007d\350I\250d\350ALrI\330&\311"
  80      E1725592 
  80      777F0764 
  80      E849A864 
  80      E8414C72 
  81 00b3 2EB7A27A 		.ascii	".\267\242zp\333\006d\001\345&\0306\315}\351\241\237"
  81      70DB0664 
ARM GAS  /tmp/ccGvYF46.s 			page 6


  81      01E52618 
  81      36CD7DE9 
  81      A19F
  82 00c5 F7D49B07 		.ascii	"\367\324\233\007\266'\315\3772\0314\220\320j\021t\204"
  82      B627CDFF 
  82      32193490 
  82      D06A1174 
  82      84
  83 00d6 A7E807FA 		.ascii	"\247\350\007\372\370Ir\345\263r\317\327S_\234z-\327"
  83      F84972E5 
  83      B372CFD7 
  83      535F9C7A 
  83      2DD7
  84 00e8 539660EA 		.ascii	"S\226`\352\270<\223\251\033\247*\222\203;\315Lf\033"
  84      B83C93A9 
  84      1BA72A92 
  84      833BCD4C 
  84      661B
  85 00fa 0F38B394 		.ascii	"\0178\263\224\333a)\225\316d\336;\234\274\211\013\020"
  85      DB612995 
  85      CE64DE3B 
  85      9CBC890B 
  85      10
  86 010b 0278109B 		.ascii	"\002x\020\233@\3060\202\002\006\272\312ipW\322\240T"
  86      40C63082 
  86      0206BACA 
  86      697057D2 
  86      A054
  87 011d B1A18606 		.ascii	"\261\241\206\006\265\226\006O\035\015e\3654x\033\204"
  87      B596064F 
  87      1D0D65F5 
  87      34781B84 
  88 012d D334FA51 		.ascii	"\3234\372Q\336\310\006\037\315\034\242\231&\372Q\321"
  88      DEC8061F 
  88      CD1CA299 
  88      26FA51D1 
  89 013d 4C43650B 		.ascii	"LCe\013\233\236\305\206V\014\3400\335\323\204W\033M"
  89      9B9EC586 
  89      560CE030 
  89      DDD38457 
  89      1B4D
  90 014f CAED6CF0 		.ascii	"\312\355l\360\263\201\200\334\220\240<|\226\231e\004"
  90      B38180DC 
  90      90A03C7C 
  90      96996504 
  91 015f 2C073ABA 		.ascii	",\007:\272h\244\322w\243D'\371{\330\376\371\215\313"
  91      68A4D277 
  91      A34427F9 
  91      7BD8FEF9 
  91      8DCB
  92 0171 9302F821 		.ascii	"\223\002\370!\272a.|b\322\321A@\373\341]\312\363\276"
  92      BA612E7C 
  92      62D2D141 
  92      40FBE15D 
  92      CAF3BE
  93 0184 10CA2CDF 		.ascii	"\020\312,\337*\236\345F\264\262e3^vM\316c\361\177\177"
  93      2A9EE546 
ARM GAS  /tmp/ccGvYF46.s 			page 7


  93      B4B26533 
  93      5E764DCE 
  93      63F17F7F 
  94 0198 912CEF10 		.ascii	"\221,\357\020*[\341E\312W\310\274If\325\342z\213\201"
  94      2A5BE145 
  94      CA57C8BC 
  94      4966D5E2 
  94      7A8B81
  95 01ab 35C52551 		.ascii	"5\305%Q\234s\236\270QH\244\346Y\232\000[a\314\334iV"
  95      9C739EB8 
  95      5148A4E6 
  95      599A005B 
  95      61CCDC69 
  96 01c0 1B384117 		.ascii	"\0338A\027\266\024\307\300Z\021=s\021-KR\0374\231\335"
  96      B614C7C0 
  96      5A113D73 
  96      112D4B52 
  96      1F3499DD 
  97 01d4 C4AC475D 		.ascii	"\304\254G]\230{\260hu\334\323\272c.&\243\260\0108\012"
  97      987BB068 
  97      75DCD3BA 
  97      632E26A3 
  97      B008380A 
  98 01e8 43075E91 		.ascii	"C\007^\221\013\202M\322\305}6\3431pr\030m#63\305\300"
  98      0B824DD2 
  98      C57D36E3 
  98      31707218 
  98      6D233633 
  99 01fe 29617489 		.ascii	")at\211\031\003\353-\241]\343\022r\337Y\210\247ul\367"
  99      1903EB2D 
  99      A15DE312 
  99      72DF5988 
  99      A7756CF7 
 100 0212 6CBBA8E5 		.ascii	"l\273\250\345\274\250nQ\310\250\201\015\305\013)\347"
 100      BCA86E51 
 100      C8A8810D 
 100      C50B29E7 
 101 0222 16F0E5D4 		.ascii	"\026\360\345\324\354\002\224\251\272\260\341\232\267"
 101      EC0294A9 
 101      BAB0E19A 
 101      B7
 102 022f D330A969 		.ascii	"\3230\251i\253\010a\272@8^a\023Tr\002\305!h,N\340*E"
 102      AB0861BA 
 102      40385E61 
 102      13547202 
 102      C521682C 
 103 0247 30431736 		.ascii	"0C\0276\\\263(\3012\"\360\011\202\221,A\3258\011\334"
 103      5CB328C1 
 103      3222F009 
 103      82912C41 
 103      D53809DC 
 104 025b 77415055 		.ascii	"wAPU\270\264\005\004W\262\0045\234@u\010\356/N\240\224"
 104      B8B40504 
 104      57B20435 
 104      9C407508 
 104      EE2F4EA0 
 105 0270 2268D205 		.ascii	"\"h\322\005%\327,Z\203\315D\320,\010~\315\022\324r\002"
ARM GAS  /tmp/ccGvYF46.s 			page 8


 105      25D72C5A 
 105      83CD44D0 
 105      2C087ECD 
 105      12D47202 
 106 0284 8F4330B3 		.ascii	"\217C0\2638\201\232K\260\243\010A\213.(\271f\321\032"
 106      38819A4B 
 106      B0A30841 
 106      8B2E28B9 
 106      66D11A
 107 0297 4CB74EAC 		.ascii	"L\267N\254\021\315\022 \277gA\3528H\231\003\362@q\020"
 107      11CD1220 
 107      BF6741EA 
 107      38489903 
 107      F2407110 
 108 02ab 4FA952CC 		.ascii	"O\251R\314\326\005,\327,\012\302J\361 '8~\343\352\217"
 108      D6052CD7 
 108      2C0AC24A 
 108      F1202738 
 108      7EE3EA8F 
 109 02bf 725E9B5A 		.ascii	"r^\233ZO\215\321\351X%\332K\031?7\300;&\303\"O`\252"
 109      4F8DD1E9 
 109      5825DA4B 
 109      193F37C0 
 109      3B26C322 
 110 02d6 DF5EB8F9 		.ascii	"\337^\270\371\326I\277h\226v\327L\335\332{\2116\212"
 110      D649BF68 
 110      9676D74C 
 110      DDDA7B89 
 110      368A
 111 02e8 154BB7D2 		.ascii	"\025K\267\322\010a\033\013\225\030L\037\033~\243\301"
 111      08611B0B 
 111      95184C1F 
 111      1B7EA3C1 
 112 02f8 C039ACDD 		.ascii	"\3009\254\335$Y\022sY\264y\014\302\305\221\347\211\200"
 112      24591273 
 112      59B4790C 
 112      C2C591E7 
 112      8980
 113 030a 5EA670D1 		.ascii	"^\246p\321y\"\273i\363\321\213\217\032n|\347\211W\317"
 113      7922BB69 
 113      F3D18B8F 
 113      1A6E7CE7 
 113      8957CF
 114 031d 0EBBB32D 		.ascii	"\016\273\263-\372\020o\316vu(TC\010\221I=tM\345\265"
 114      FA106FCE 
 114      76752854 
 114      43089149 
 114      3D744DE5 
 115 0332 4BA43F8E 		.ascii	"K\244?\216\227\007\360r~\365Zu\221\224h\307\006jb\251"
 115      9707F072 
 115      7EF55A75 
 115      919468C7 
 115      066A62A9 
 116 0346 BEDEB3C4 		.ascii	"\276\336\263\304\262\016\3414\276V\345\242L\267\320"
 116      B20EE134 
 116      BE56E5A2 
 116      4CB7D0
ARM GAS  /tmp/ccGvYF46.s 			page 9


 117 0355 29D9DF58 		.ascii	")\331\337X\262f\345\271\0138\224ZR\200\320\246\2634"
 117      B266E5B9 
 117      0B38945A 
 117      5280D0A6 
 117      B334
 118 0367 AD8E42B1 		.ascii	"\255\216B\261\014l\027\004\377\354y\332&h\314#8\243"
 118      0C6C1704 
 118      FFEC79DA 
 118      2668CC23 
 118      38A3
 119 0379 38044795 		.ascii	"8\004G\225q\256Z\226`\206-\352\313\"\370u\201I\033\232"
 119      71AE5A96 
 119      60862DEA 
 119      CB22F875 
 119      81491B9A 
 120 038d 8219389F 		.ascii	"\202\0318\237?m\351\221\023j\001\356\002\235/{\366="
 120      3F6DE991 
 120      136A01EE 
 120      029D2F7B 
 120      F63D
 121 039f F0195A2F 		.ascii	"\360\031Z/\002a\310f\367\231\346E\232]\330\010\207\361"
 121      0261C866 
 121      F799E645 
 121      9A5DD808 
 121      87F1
 122 03b1 7D73DF32 		.ascii	"}s\3372\003\037\006q\233\242\032\330\301\023\274p\356"
 122      031F0671 
 122      9BA21AD8 
 122      C113BC70 
 122      EE
 123 03c2 7ABAC166 		.ascii	"z\272\301fi\232\013s\234\244F\306\237\024\011\375\025"
 123      699A0B73 
 123      9CA446C6 
 123      9F1409FD 
 123      15
 124 03d3 FF006D9D 		.ascii	"\377\000m\235\346\020{\016FA)\311}\254(7[\320G\032\341"
 124      E6107B0E 
 124      464129C9 
 124      7DAC2837 
 124      5BD0471A 
 125 03e8 1BC1FDA8 		.ascii	"\033\301\375\250\303\335ls\217\305\217\354]k\307k\311"
 125      C3DD6C73 
 125      8FC58FEC 
 125      5D6BC76B 
 125      C9
 126 03f9 5B982339 		.ascii	"[\230#9\013\363v\351\034*\234\205\341\272_I\266\354"
 126      0BF376E9 
 126      1C2A9C85 
 126      E1BA5F49 
 126      B6EC
 127 040b AC3CD9FD 		.ascii	"\254<\331\375\252#\233)-[\231\3372\326\026\224b\221"
 127      AA239B29 
 127      2D5B99DF 
 127      32D61694 
 127      6291
 128 041d 2E6CA87B 		.ascii	".l\250{R\012\024\316\300\305\374\341H\217\306'\024\230"
 128      520A14CE 
ARM GAS  /tmp/ccGvYF46.s 			page 10


 128      C0C5FCE1 
 128      488FC627 
 128      1498
 129 042f 2FD1F13E 		.ascii	"/\321\361>a^\313\373\011\333&\217\361\306\230\276\024"
 129      615ECBFB 
 129      09DB268F 
 129      F1C698BE 
 129      14
 130 0440 F716D83F 		.ascii	"\367\026\330?\256\013$\321\216\226\206Q\311\2512\275"
 130      AE0B24D1 
 130      8E968651 
 130      C9A932BD 
 131 0450 AD978551 		.ascii	"\255\227\205Q\315\231\241\325\330O\272\313\303\350\021"
 131      CD99A1D5 
 131      D84FBACB 
 131      C3E811
 132 045f B32CCC13 		.ascii	"\263,\314\023\3543l\205\265u\257\225\334\272`o\335;"
 132      EC336C85 
 132      B575AF95 
 132      DCBA606F 
 132      DD3B
 133 0471 77A3CBB9 		.ascii	"w\243\313\271\335\250\375^\272\321\220\304\033\314i"
 133      DDA8FD5E 
 133      BAD190C4 
 133      1BCC69
 134 0480 3879F5CA 		.ascii	"8y\365\312\241\261s\331'\217\372M\273S\370nzC\216N\224"
 134      A1B173D9 
 134      278FFA4D 
 134      BB53F86E 
 134      7A438E4E 
 135 0495 19FB1FF1 		.ascii	"\031\373\037\361\252\002\366\225:V\213\222R\344'm\037"
 135      AA02F695 
 135      3A568B92 
 135      52E4276D 
 135      1F
 136 04a6 378CF8E5 		.ascii	"7\214\370\345\273J\301\177/)\354\222r\032\252\302\033"
 136      BB4AC17F 
 136      2F29EC92 
 136      721AAAC2 
 136      1B
 137 04b7 2AC079D0 		.ascii	"*\300y\320H\316\375\351\271\035\223\011\312\265\373"
 137      48CEFDE9 
 137      B91D9309 
 137      CAB5FB
 138 04c6 E847C86E 		.ascii	"\350G\310n\253@\377Y \337\256\277\235\316~\243\326\363"
 138      AB40FF59 
 138      20DFAEBF 
 138      9DCE7EA3 
 138      D6F3
 139 04d8 ED7AC7EF 		.ascii	"\355z\307\357[V\242\304\237\203\013\263.b\231\354\343"
 139      5B56A2C4 
 139      9F830BB3 
 139      2E6299EC 
 139      E3
 140 04e9 3C600835 		.ascii	"<`\0105\205\2066\351\322\221\227X,\017\373\226>\003"
 140      858636E9 
 140      D2919758 
ARM GAS  /tmp/ccGvYF46.s 			page 11


 140      2C0FFB96 
 140      3E03
 141 04fb 83E9EB07 		.ascii	"\203\351\353\007\321vk\265\254\273\350\351N\250\354"
 141      D1766BB5 
 141      ACBBE8E9 
 141      4EA8EC
 142 050a 23B03A1A 		.ascii	"#\260:\032\334\024\035\210\364\304\372\"\301@o\253\016"
 142      DC141D88 
 142      F4C4FA22 
 142      C1406FAB 
 142      0E
 143 051b 6A38188D 		.ascii	"j8\030\215\006BAO/\375\35676\005\025\243/\032\013\304"
 143      0642414F 
 143      2FFDEE37 
 143      360515A3 
 143      2F1A0BC4 
 144 052f 56687D03 		.ascii	"Vh}\003\341\240\246\017\364n\321z\203\2335\275\317\330"
 144      E1A0A60F 
 144      F46ED17A 
 144      839B35BD 
 144      CFD8
 145 0541 680C44B5 		.ascii	"h\014D\265X\344\371M\317jt\321\027\350\327\236\033\210"
 145      58E4F94D 
 145      CF6A74D1 
 145      17E8D79E 
 145      1B88
 146 0553 C4A2DAFA 		.ascii	"\304\242\332\372\256\316\371~m\315\232\225Z\327\352"
 146      AECEF97E 
 146      6DCD9A95 
 146      5AD7EA
 147 0562 CECDED5A 		.ascii	"\316\315\355Z4\326\323\337\337\333\332\007KKiDbBb\371"
 147      34D6D3DF 
 147      DFDBDA07 
 147      4B4B6944 
 147      624262F9 
 148 0576 BACE159D 		.ascii	"\272\316\025\235/\220\201>\020\011\366\304\214p0B\376"
 148      2F90813E 
 148      1009F6C4 
 148      8C703042 
 148      FE
 149 0587 35EB8D8E 		.ascii	"5\353\215\2166\177\233o\035\241-\362\265\364z\241rU"
 149      367F9B6F 
 149      1DA12DF2 
 149      B5F47AA1 
 149      7255
 150 0599 77E7EA95 		.ascii	"w\347\352\225\253\2736,jy\306\013\377\003\333\367:\357"
 150      ABBB362C 
 150      6A79C60B 
 150      FF03DBF7 
 150      3AEF
 151              		.text
 152              		.section	.gnu.lto_sensorThreadStop.1b56cd5cb82def2f,"",%progbits
 153 0000 789C6362 		.ascii	"x\234cb`b@\007\222@<\003\210\205\200\230\221\231\201"
 153      60624007 
 153      92403C03 
 153      88858098 
 153      919981
ARM GAS  /tmp/ccGvYF46.s 			page 12


 154 0013 9169C239 		.ascii	"\221i\3029\006\206F\016&FF\020\203\201\221\241\236\211"
 154      0686460E 
 154      26464610 
 154      838191A1 
 154      9E89
 155 0025 B13E9211 		.ascii	"\261>\222\021\254v=\323\201\007\377\377\257\373s|A\007"
 155      AC763DD3 
 155      8107FFFF 
 155      AFFB737C 
 155      4107
 156 0037 23130B13 		.ascii	"#\023\013\023c.X\230\225\241\245\241a\202\002\003C2"
 156      632E5898 
 156      95A1A5A1 
 156      61820203 
 156      4332
 157 0049 981B0224 		.ascii	"\230\033\002$AZC\031\231@4\363Y\206\246\035?\376\277"
 157      415A4319 
 157      994034F3 
 157      5986A61D 
 157      3FFEBF
 158 005c 604A645C 		.ascii	"`Jd\\\310\310\312\240\315\260\252\001\010\3143\031\031"
 158      C8C8CAA0 
 158      CDB0AA01 
 158      08CC3319 
 158      19
 159 006d 6633CC62 		.ascii	"f3\314b\314ddLgd\212\000\322\020\227%A,b\000\211\200"
 159      CC64644C 
 159      67648A00 
 159      D2109725 
 159      412C6200 
 160 0083 1917191A 		.ascii	"\031\027\031\032\037t\250B\364\302@\010##\310d\220\016"
 160      1F74A842 
 160      F4C24008 
 160      2323C864 
 160      900E
 161 0095 81E2D4BC 		.ascii	"\201\342\324\274\342\374\242\370\222\214\242\324\304"
 161      E2FCA2F8 
 161      928CA2D4 
 161      C4
 162 00a2 14BD6406 		.ascii	"\024\275d\006\000\361|,\352"
 162      00F17C2C 
 162      EA
 163              		.text
 164              		.section	.gnu.lto_.symbol_nodes.1b56cd5cb82def2f,"",%progbits
 165 0000 789C45CC 		.ascii	"x\234E\314;R\002A\024\205\341\323g\030P\201\031\036"
 165      3B520241 
 165      1485E1D3 
 165      67185081 
 165      191E
 166 0012 BE0D5C99 		.ascii	"\276\015\\\231\201+\271\350( \212\242\370\016\014\354"
 166      812BB9E8 
 166      28208AA2 
 166      F80E0CEC 
 167 0022 75984068 		.ascii	"u\230@h\025V\271\002\255I\215\015\305\351n\364v\362"
 167      1556B902 
 167      AD498D0D 
 167      C5E96EF4 
ARM GAS  /tmp/ccGvYF46.s 			page 13


 167      76F2
 168 0034 9FEF064D 		.ascii	"\237\357\006M\020\011\021\036\347F\200\321\014\020\031"
 168      1009111E 
 168      E74680D1 
 168      0C1019
 169 0043 F6F77944 		.ascii	"\366\367yD1\013>\365M\334a\245$Q\334c\004A|\302\222"
 169      310B3EF5 
 169      4DDC61A5 
 169      2451DC63 
 169      04417CC2 
 170 0058 CB01CBEE 		.ascii	"\313\001\313\3568`\354t[|U\344\220\306\0353\262\010"
 170      3860EC74 
 170      5B7C55E4 
 170      90C61D33 
 170      B208
 171 006a 8F29D46F 		.ascii	"\217)\324o\314#%\012\354t\214y\240\224T\367\224XuG)"
 171      CC23250A 
 171      EC748C79 
 171      A09454F7 
 171      94587547 
 172 007f AB46948A 		.ascii	"\253F\224\212\352\206\262\244\272\246,\253\306\224\025"
 172      EA86B2A4 
 172      BAA62CAB 
 172      C69415
 173 008e D515A5AA 		.ascii	"\325\025\245\252\272\244\324T\027\224\272\352\234\222"
 173      BAA4D454 
 173      1794BAEA 
 173      9C92
 174 009c A8869454 		.ascii	"\250\206\224TuFi\250N)MU\237\322Ru)\355\177E\250#\373"
 174      754669A8 
 174      4E294D55 
 174      9FD25275 
 174      29ED7F45 
 175 00b3 F8295A83 		.ascii	"\370)Z\203\365\255b\352jv\026\335F\366\031j}\267\220"
 175      F5AD62EA 
 175      6A7616DD 
 175      46F6196A 
 175      7DB790
 176 00c6 FB6EC276 		.ascii	"\373n\302v\277v]s\337\015\330\236\353:r\3375\330\201"
 176      BF765D73 
 176      DF0DD89E 
 176      EB3A72DF 
 176      35D881
 177 00d9 6B0AFB3A 		.ascii	"k\012\373:\177\211#\263\212<\2146\354\314\017`\3627"
 177      7F8923B3 
 177      8A3C8C36 
 177      ECCC0F60 
 177      F237
 178 00eb 9EDFFC68 		.ascii	"\236\337\374h!{\367\243\011\033F\003\3230R\344a$\230"
 178      217BF7A3 
 178      091B4603 
 178      D33052E4 
 178      612498
 179 00fe 8EBFF7F0 		.ascii	"\216\277\367\360\013\036\001\232!"
 179      0B1E019A 
 179      21
 180              		.text
ARM GAS  /tmp/ccGvYF46.s 			page 14


 181              		.section	.gnu.lto_.refs.1b56cd5cb82def2f,"",%progbits
 182 0000 789C6362 		.ascii	"x\234cb`bPe\200\000AFF&&f&\026&V&60f\003\262A\230\005"
 182      60625065 
 182      80004146 
 182      46262666 
 182      26162656 
 183 001d 28CACCC4 		.ascii	"(\312\314\304\316\304\301\304\311\000\000\021\310\000"
 183      CEC4C1C4 
 183      C9000011 
 183      C800
 184 002b B2       		.ascii	"\262"
 185              		.text
 186              		.section	.gnu.lto_.decls.1b56cd5cb82def2f,"",%progbits
 187 0000 789CBD7D 		.ascii	"x\234\275}\011\230\024E\266nfm]\005-\002:3\3508c\315"
 187      09981445 
 187      B66E666D 
 187      5D052D02 
 187      3A33E838 
 188 0016 BDCE7B7E 		.ascii	"\275\316{~sg\244\273a\224\271sG\301nP\346\201p\273\233"
 188      7367A4BB 
 188      6194B973 
 188      47C16E50 
 188      E68170BB 
 189 002b B93AF7DE 		.ascii	"\271:\367\336\257L\272\013\350\231\336\254\252F|\357"
 189      AF4CBA0B 
 189      E899DEAC 
 189      AA467CEF 
 190 003b BECF6411 		.ascii	"\276\317d\021\025P\233}\337A\\@i\266f\247\000i@\004"
 190      15509B7D 
 190      DF415C40 
 190      69B666A7 
 190      00694004 
 191 004f BAD9A159 		.ascii	"\272\331\241Y\032\020D@d_\272\201~'NdVEdefe\226\336"
 191      1A104440 
 191      645FBA81 
 191      7E274E64 
 191      56456465 
 192 0067 57DF1727 		.ascii	"W\337\027'\243\2622\3768'\342\304\211\023[\226Cp\010"
 192      A3B232FE 
 192      3827E2C4 
 192      89135B96 
 192      437008
 193 007a 2F3B05A1 		.ascii	"/;\005\241\031>\003\253\004\341?\333\012\202K\020\204"
 193      193E03AB 
 193      04E13FDB 
 193      0A824B10 
 193      84
 194 008b 67213C2C 		.ascii	"g!<,\320\370l\010\363 \234\204\360[\207 \034\205k{\270"
 194      D0F86C08 
 194      F3209C84 
 194      F05B8720 
 194      1C856B7B 
 195 00a0 FE1F5110 		.ascii	"\376\037Q\020\016\303\365\022\204i\2001\035\302L\010"
 195      0EC3F512 
 195      84698031 
 195      1DC24C08 
 196 00b0 B320CC81 		.ascii	"\263 \314\201\260\006\302\027\020\272\303\357}!\324"
ARM GAS  /tmp/ccGvYF46.s 			page 15


 196      B006C217 
 196      10BAC3EF 
 196      7D21D4
 197 00bf C0F38282 		.ascii	"\300\363\202\202{\020\356_\201p\023\302\237 \223g!\364"
 197      7B10EE5F 
 197      817013C2 
 197      9F209367 
 197      21F4
 198 00d1 80D013C2 		.ascii	"\200\320\023\302\277B\350\003\341? \364\205P\004\241"
 198      BF42E803 
 198      E13F20F4 
 198      855004A1 
 199 00e1 0C420584 		.ascii	"\014B\005\204\377\2020\024\302\273\020>\2000\036\302"
 199      FF823014 
 199      C2BB103E 
 199      80301EC2 
 200 00f1 14085EC0 		.ascii	"\024\010^\300\234\001\327Y\020\346B\230\017a\001\204"
 200      9C01D759 
 200      10E64298 
 200      0F610184 
 201 0101 8F217C0A 		.ascii	"\217!|\012\3413\227\300}H\376-\341\232\015\367[\301"
 201      E13397C0 
 201      7D48FE2D 
 201      E19A0DF7 
 201      5BC1
 202 0113 355D9175 		.ascii	"5]\221u1\220e\020\252 ,\207\360\034\204\025\020\252"
 202      31906510 
 202      AA202C87 
 202      F01C8415 
 202      10AA
 203 0125 95F42E25 		.ascii	"\225\364.%m\017\205g\302;\210&\\\204{\227\234|\036D"
 203      6D0F8567 
 203      C23B8826 
 203      5C847B97 
 203      9C7C1E44 
 204 0139 BE6E70AD 		.ascii	"\276np\255\024\343y,\205\207\267\300\367\020\244+\206"
 204      14E3792C 
 204      8587B7C0 
 204      F710A42B 
 204      86
 205 014a 10841080 		.ascii	"\020\204\020\2000\310E\313\371i\010OA\310\200\320\010"
 205      30C845CB 
 205      F969084F 
 205      41C880D0 
 205      08
 206 015b E9EF3869 		.ascii	"\351\3578i\271\271\340\367U\020\246\272hy\257\206\353"
 206      B9B9E0F7 
 206      5510A6BA 
 206      6879AF86 
 206      EB
 207 016c 1A57BC6C 		.ascii	"\032W\274l'\270hy\257u\321z\251t\321:X\007\327\021."
 207      27B86879 
 207      AF75D17A 
 207      A974D13A 
 207      5807D711 
 208 0181 5A4FEBE1 		.ascii	"ZO\353\341:\314E\353n\003\\\377\257\213\326O\024\256"
 208      3ACC45EB 
ARM GAS  /tmp/ccGvYF46.s 			page 16


 208      6E035CFF 
 208      AF8BD64F 
 208      14AE
 209 0193 0321D443 		.ascii	"\003!\324C\272\215p\375\036B\032\344\177\031\256\271"
 209      BA8D70FD 
 209      1E421AE4 
 209      7F19AEB9 
 210 01a3 10AE4028 		.ascii	"\020\256@(\207p\025\302\337 \\s\305\353\371\2203^\367"
 210      877015C2 
 210      DF205C73 
 210      C5EBF990 
 210      335EF7
 211 01b6 D7E17E01 		.ascii	"\327\341~\001\204\033\020\376\023\302MW\242\336\374"
 211      841B10FE 
 211      13C24D57 
 211      A2DEFC
 212 01c5 05EEDD82 		.ascii	"\005\356\335\202\360\222R\356\"\\\235\020|\020:Ax\032"
 212      F09252EE 
 212      225C9D10 
 212      7C103A41 
 212      781A
 213 01d7 42470859 		.ascii	"BG\010Y\0202 <\005\341\021\010\373!<\000\341g\020\332"
 213      1032203C 
 213      05E11108 
 213      FB213C00 
 213      E16710DA 
 214 01eb 90A094EF 		.ascii	"\220\240\224\357\024E\007>Ptb\250\242#DWn+\272T\246"
 214      1445073E 
 214      507462A8 
 214      A2234457 
 214      6E2BBA54 
 215 0200 E810A9B7 		.ascii	"\350\020\251\267\276\212^\365Qt\315\0078\327\234T?T"
 215      BE8A5EF5 
 215      5174CD07 
 215      38D79C54 
 215      3F54
 216 0212 9DF954D1 		.ascii	"\235\371T\321\033V\237\330\017\321Y\247\322.\324:\022"
 216      1B569FD8 
 216      0FD159A7 
 216      D22ED43A 
 216      12
 217 0223 155944E5 		.ascii	"\025YD\345wr\375\243&\235Wx[\226\207\310\015o\311\203"
 217      7772FDA3 
 217      269D5778 
 217      5B9687C8 
 217      0D6FC983 
 218 0237 C5D704E1 		.ascii	"\305\327\004\341eQ\022[\371\340.\211\244\3730\311\257"
 218      6551125B 
 218      F9E02E89 
 218      A4FB30C9 
 218      AF
 219 0248 8579B22C 		.ascii	"\205y\262,W\312\262C\022g\213^P-\207(\350~\350\357\344"
 219      57CAB243 
 219      12678B5E 
 219      502D8728 
 219      E87EE8EF 
 220 025d 4392D3B8 		.ascii	"C\222\323\270\032\023\211n\217 y\315\032.\277\270\255"
ARM GAS  /tmp/ccGvYF46.s 			page 17


 220      1A13896E 
 220      8F2079CD 
 220      1A2EBFB8 
 220      AD
 221 026e 555B6134 		.ascii	"U[a4\240\312\376m\255b\271B\335)\331vT\263\255l\250"
 221      A0CAFE6D 
 221      AD62B942 
 221      DD29D976 
 221      54B3AD6C 
 222 0283 BAB8E09F 		.ascii	"\272\270\340\237e\331+\211\363\305\266\220uOQ\370\215"
 222      65D92B89 
 222      F3C5B690 
 222      754F51F8 
 222      8D
 223 0294 F031E5E7 		.ascii	"\3601\345\347\324?\351\361\221\024X\022\027\210\016"
 223      D43FE9F1 
 223      91145812 
 223      17880E
 224 02a3 A01F03A0 		.ascii	"\240\037\003\240$~$\376F\2210\332<%]v\321\373\202\362"
 224      247E24FE 
 224      469130DA 
 224      3C255D76 
 224      D1FB82F2 
 225 02b7 8BCEE757 		.ascii	"\213\316\347W\302,\220\":\261~\306\317\344\206\250\230"
 225      C22C9022 
 225      3AB17EC6 
 225      CFE486A8 
 225      98
 226 02c8 260CA705 		.ascii	"&\014\247\0058\244\335\244V&\005X\331p\257f_&J\262\020"
 226      38A4DDA4 
 226      56260558 
 226      D970AF66 
 226      5F264AB2 
 227 02dd 123984D1 		.ascii	"\0229\204\321\242\310eb\001\210p\3659$\346\270^>\374"
 227      A2C86562 
 227      018870F5 
 227      3924E6B8 
 227      5E3EFC
 228 02f0 41C235B9 		.ascii	"A\3025\271o\302\265\223X\004\2070\0152%\200._\374\336"
 228      6FC2B593 
 228      58048730 
 228      0D322580 
 228      2E5FFCDE 
 229 0304 82F83D91 		.ascii	"\202\370=\221ytq\374\266\203\271\275:~\333\311\334\336"
 229      797471FC 
 229      B683B9BD 
 229      3A7EDBC9 
 229      DCDE
 230 0316 12BFED62 		.ascii	"\022\277\355bn\357\211\337v+\234\220\257\242/\036i\346"
 230      6EEF89DF 
 230      762B9C90 
 230      AFA22F1E 
 230      69E6
 231 0328 2B919550 		.ascii	"+\221\225P\022\027\213\277\006Z%:u\2239\204\243X\210"
 231      12178BBF 
 231      065A253A 
 231      75933984 
ARM GAS  /tmp/ccGvYF46.s 			page 18


 231      A35888
 232 033b A4C6F4CA 		.ascii	"\244\306\364\312K\211\306\363m\245~Qj\261\241j\355\212"
 232      4B89C6F3 
 232      6DA57E51 
 232      6AB1A16A 
 232      ED8A
 233 034d 6727CBD1 		.ascii	"g'\313\321aN=\335\204/\"\243E~\025\317\025\253\323\350"
 233      614E3DDD 
 233      842F22A3 
 233      457E15CF 
 233      15ABD3E8 
 234 0361 8D23A25F 		.ascii	"\215#\242_}\332c\364\254$n\0041\222>F\036\334\254\325"
 234      7DDA63F4 
 234      AC246E04 
 234      31923E46 
 234      1EDCACD5 
 235 0375 C92B4750 		.ascii	"\311+GP'7[\322\311kGf<\"\317\332\004\245\363N\\\030"
 235      27375BD2 
 235      C96B4766 
 235      3C22CFDA 
 235      04A5F34E 
 236 038b 33FE1BC6 		.ascii	"3\376\033\306\177\260e\2438D\226\341\207\032\221T\364"
 236      7FB065A3 
 236      384496E1 
 236      871A9154 
 236      F4
 237 039c DB0E5E2B 		.ascii	"\333\016^+\255C\325\215Y\373\007T\357\355\010\264E\003"
 237      AD43D58D 
 237      59FB0754 
 237      EFED08B4 
 237      4503
 238 03ae 2489693E 		.ascii	"$\211i>\226e\374\256>@\320\322|\361\010\351\371\037"
 238      9665FCAE 
 238      3E40D0D2 
 238      7CF108E9 
 238      F91F
 239 03c0 14EC3EEE 		.ascii	"\024\354>\356\020j1\323\315qu\340\0305Q\007&\037\252"
 239      106A31D3 
 239      CD7175E0 
 239      18355107 
 239      261FAA
 240 03d3 785FA0E2 		.ascii	"x_\240\342m\021\177\025\377\311!\034H\220\211\326\013"
 240      6D117F15 
 240      FFC9211C 
 240      489089D6 
 240      0B
 241 03e4 933A5E81 		.ascii	"\223:^\201\2026\275Q\235o\020[\306\263hph\024:\251\004"
 241      8236BD51 
 241      9D6F105B 
 241      C6B36870 
 241      68143AA9 
 242 03f9 7E5605C0 		.ascii	"~V\005\300\\\352)\264R\213\362p\371\311\217\342\265"
 242      5CEA29B4 
 242      528BF270 
 242      F9C98FE2 
 242      B5
 243 040a D85AC573 		.ascii	"\330Z\305s\304j1:s\354O\210\276\325a\035~\243\257\014"
ARM GAS  /tmp/ccGvYF46.s 			page 19


 243      C46A313A 
 243      73EC4F88 
 243      BED5611D 
 243      7EA3AF0C 
 244 041e C96140AF 		.ascii	"\311a@\257\252\177\213\312\260\017\201\256\245\014T"
 244      AA7F8BCA 
 244      B00F81AE 
 244      A50C54
 245 042d 376601D5 		.ascii	"7f\001\325\252\203\010t7\241\006\234\032\255r\362j\342"
 245      AA830874 
 245      37A1069C 
 245      1AAD72F2 
 245      6AE2
 246 043f F4C523CD 		.ascii	"\364\305#\315\315\2743\364#?lT\277\265l\375\276\355"
 246      CDBC33F4 
 246      233F6C54 
 246      BFB56CFD 
 246      BEED
 247 0451 B450BFF1 		.ascii	"\264P\277\361>4\321`\335]\361'\254_\353\015s\303\224"
 247      3E34D160 
 247      DD5DF127 
 247      AC5FEB0D 
 247      73C394
 248 0464 03D79436 		.ascii	"\003\327\2246~\024\013q\223S[\210nM!\272yQ\335\276x"
 248      7E140B71 
 248      93535B88 
 248      6E4D21BA 
 248      7951DDBE 
 249 0479 24D6D6B6 		.ascii	"$\326\326\266\333\226D\243\251\013\253ML\257\314\231"
 249      DB9644A3 
 249      A90BAB4D 
 249      4CAFCC99 
 250 0489 DEA84305 		.ascii	"\336\250C\005|2\256\252\373\343\266\327o\370\254$\236"
 250      7C32AEAA 
 250      FBE3B6D7 
 250      6FF8AC24 
 250      9E
 251 049a 8EDB5EE3 		.ascii	"\216\333^\343\307\310\203g\022l\357\001\264\275g,\331"
 251      C7C88367 
 251      126CEF01 
 251      B4BD672C 
 251      D9
 252 04ab DE3B07A8 		.ascii	"\336;\007\250?\240\372H\273\261x\316\244\3323E+'\246"
 252      3FA0FA48 
 252      BBB178CE 
 252      A4DA3345 
 252      2B27A6
 253 04be D7BE6ABD 		.ascii	"\327\276j\275\335\256\242\355\366<V\360\241\204\012"
 253      DDAEA2ED 
 253      F63C56F0 
 253      A1840A
 254 04cd DE27DA6C 		.ascii	"\336'\332l&\016\341\202V\000.[=\001Zs\002L>H;#\256z"
 254      260EE182 
 254      56002E5B 
 254      3D015A73 
 254      024C3E48 
 255 04e5 7F2A8C57 		.ascii	"\177*\214WzVY\214H\342\263?1l5\227\305\237b\314I\275"
ARM GAS  /tmp/ccGvYF46.s 			page 20


 255      7A56598C 
 255      48E2B33F 
 255      316C3597 
 255      C59F62CC 
 256 04fb 0F499C07 		.ascii	"\017I\234\007H\261/J\233\212}?J\345\223\304>\361Vk\322"
 256      48B12F4A 
 256      9B8A7D3F 
 256      4AE593C4 
 256      3EF1566B 
 257 0510 6D4F9DF0 		.ascii	"mO\235\3600)\255\357\001\305!\334\326\224\026\3070e"
 257      3029ADEF 
 257      01C521DC 
 257      D69416C7 
 257      3065
 258 0522 C488C99B 		.ascii	"\304\210\311\233\000\240\257\030\011\2779\204\341.M"
 258      00A0AF18 
 258      09BF3984 
 258      E12E4D
 259 0531 81DA33ED 		.ascii	"\201\3323\355\321\252\037V\240\215&\005j\331\211\215"
 259      D1AA1F56 
 259      A08D2605 
 259      6AD9898D 
 260 0541 1EDB2BFA 		.ascii	"\036\333+\372%\361\036z\260\357\271R\362`e\207\306\203"
 260      25F11E7A 
 260      B0EFB952 
 260      F2606587 
 260      C683
 261 0553 3D38163D 		.ascii	"=8\026=Xr?\271\007;\311\225\350\301~\352\342=X\301\202"
 261      58723FB9 
 261      073BC995 
 261      E8C17EEA 
 261      E23D58C1 
 262 0568 9719E742 		.ascii	"\227\031\347B\022\007;Hg?\304\241\357e\332\320\253u"
 262      12073B48 
 262      673FC4A1 
 262      EF65DAD0 
 262      AB75
 263 057a 54AFEEA0 		.ascii	"T\257\356\240^\255u\231\352U\243\211^\275\3430\326+"
 263      5EAD7599 
 263      EA55A389 
 263      5EBDE330 
 263      D62B
 264 058c CD6F6069 		.ascii	"\315o`i\254\350\225q\227\022\335\240\350\225\352\002"
 264      ACE89571 
 264      9712DDA0 
 264      E895EA02 
 265 059c 1EB28DC7 		.ascii	"\036\262\215\307\353\351\321\203\351\225\222\012v\324"
 265      EBE9D183 
 265      E995920A 
 265      76D4
 266 05aa 0A586B63 		.ascii	"\012Xkc\346n\263`\015\266\301x\316\306\035a\300\316"
 266      E66EB360 
 266      0DB6C178 
 266      CEC61D61 
 266      C0CE
 267 05bc 5A016B67 		.ascii	"Z\001kg\314\331\014\026\354\242m0\236\263\225,\330\025"
 267      CCD90C16 
ARM GAS  /tmp/ccGvYF46.s 			page 21


 267      ECA26D30 
 267      9EB3952C 
 267      D815
 268 05ce 2B607E63 		.ascii	"+`~c\316\366\260`7m\203\371\023T\216\266\222\263\350"
 268      CEF6B060 
 268      376D83F9 
 268      13548EB6 
 268      92B3E8
 269 05e1 127F032E 		.ascii	"\022\177\003.\255$~\213\364\022\322\333HG8\010\035\205"
 269      AD247E8B 
 269      F412D2DB 
 269      48473808 
 269      1D85
 270 05f3 F47DA495 		.ascii	"\364}\244\225H\307 \035\207t\202\203s\247\233\\\332"
 270      48C7201D 
 270      87748283 
 270      73A79B5C 
 270      DA
 271 0604 6EEA8CD6 		.ascii	"n\352\214\326\235>\303\271\323?Z\336F\355\356$\353\252"
 271      9D3EC3B9 
 271      D33F5ADE 
 271      46EDEE24 
 271      EBAA
 272 0616 BDEFB6E0 		.ascii	"\275\357\266\340\340\230\250\356\345z\250\206\244s\036"
 272      E098A8EE 
 272      E57AA886 
 272      A4731E
 273 0625 2E152947 		.ascii	".\025)G\210yl\007\317G\333\255\226\345\326\2228\315"
 273      88796C07 
 273      CF47DBAD 
 273      96E5D692 
 273      38CD
 274 0637 41263DBE 		.ascii	"A&=\276r\363\005\225\024\307!\354\307$3\035\274K\323"
 274      72F30595 
 274      14C721EC 
 274      C724331D 
 274      BC4BD3
 275 064a D07CA9E1 		.ascii	"\320|\251\341\347\223\020\231\374\224\334\253i\032>"
 275      E7931099 
 275      FC94DCAB 
 275      691A3E
 276 0659 3DB1CFA1 		.ascii	"=\261\317\241l\031\225\341\\\255}\032\347QY\2619(Sx"
 276      6C1995E1 
 276      5CAD7D1A 
 276      E75159B1 
 276      39285378 
 277 066d B85F83EA 		.ascii	"\270_\203\352Lp\035\302T\333`~\016l\354\326iv\207\310"
 277      4C701DC2 
 277      54DB607E 
 277      0E6CECD6 
 277      697687C8 
 278 0681 D7CE3DB2 		.ascii	"\327\316=\262\016\213\354#\007iP\027<Z\255\255\321:"
 278      0E8BEC23 
 278      07695017 
 278      3C5AADAD 
 278      D13A
 279 0693 575686AA 		.ascii	"WV\206\252\327\254\010bh\265IM\326>\266j\211,\277\353"
ARM GAS  /tmp/ccGvYF46.s 			page 22


 279      D7AC0862 
 279      68B5494D 
 279      D63EB66A 
 279      892CBFEB 
 280 06a7 493AB1E0 		.ascii	"I:\261\340\020\0321\263EZm\030\337X\373;\252\015\213"
 280      101A31B3 
 280      455A6D18 
 280      DF58FB3B 
 280      AA0D8B
 281 06ba 2C6943F5 		.ascii	",iC\365\216\211\211\332\240\247\214\0365\373B\314~m"
 281      8E8989DA 
 281      A0A78C1E 
 281      35FB42CC 
 281      7E6D
 282 06cc 1AC97E89 		.ascii	"\032\311~\2116\373\252\373\347\236\245\331/\261\224"
 282      36FBAAFB 
 282      E79EA5D9 
 282      2FB194
 283 06db FD89DDE3 		.ascii	"\375\211\335\343\364\224\321\300\347Q\253\257\361\362"
 283      F494D1C0 
 283      E751ABAF 
 283      F1F2
 284 06e9 93333193 		.ascii	"\22331\223\025\250@\303\275\332\352{\256%\233\027~\347"
 284      15A840C3 
 284      BDDAEA7B 
 284      AE259B17 
 284      7EE7
 285 06fb F4F703AF 		.ascii	"\364\367\003\257\312}J\372\013bF\237\373\030kJ\345a"
 285      CA7D4AFA 
 285      0B62469F 
 285      FB186B4A 
 285      E561
 286 070d AC6D445E 		.ascii	"\254mD^\211\257\356\306\026A\301&Z\0013\351\376\257"
 286      89AFEEC6 
 286      1641C126 
 286      5A0133E9 
 286      FEAF
 287 071f B360536D 		.ascii	"\263`Sm\203\361\234\335d\301fZ\0013\353\373Y\260\271"
 287      83F19CDD 
 287      64C1665A 
 287      0133EBFB 
 287      59B0B9
 288 0732 B6C178CE 		.ascii	"\266\301x\316\032Y\260\005V\300L\372\376\273,\330\247"
 288      1A59B005 
 288      56C04CFA 
 288      FEBB2CD8 
 288      A7
 289 0743 B6C178CE 		.ascii	"\266\301x\316\356\263`\237[\001\363\033sV\271\207\001"
 289      EEB3609F 
 289      5B01F31B 
 289      7356B987 
 289      01
 290 0754 5B6A1B8C 		.ascii	"[j\033\214\347l\014\013Vm\005\354Ic\316\306\261`kl\203"
 290      E76C0C0B 
 290      566D05EC 
 290      4963CEC6 
 290      B1606B6C 
ARM GAS  /tmp/ccGvYF46.s 			page 23


 291 0769 F19C4D60 		.ascii	"\361\234M`\3016X\001\3130\346l\022\013\266\3316\030"
 291      C1365801 
 291      CB30E66C 
 291      120BB6D9 
 291      3618
 292 077b CFD91416 		.ascii	"\317\331\024\026l\253\025\260N\306\234Mc\301v\330\006"
 292      6CAB15B0 
 292      4EC69C4D 
 292      63C176D8 
 292      06
 293 078c E3395BCC 		.ascii	"\3439[\314\202\355\266\002\326\331\230\263%,\330\036"
 293      82EDB602 
 293      D6D998B3 
 293      252CD81E 
 294 079c DB603C67 		.ascii	"\333`<g\313X\260\375V\300^4\346l\005\013v\3106\030\317"
 294      CB58B0FD 
 294      56C05E34 
 294      E66C050B 
 294      76C83618 
 295 07b1 D94A16AC 		.ascii	"\331J\026\254\336\012Xoc\316V\263`\307m\203\361\234"
 295      DE0A586F 
 295      63CE56B3 
 295      60C76D83 
 295      F19C
 296 07c3 AD65C14E 		.ascii	"\255e\301NZ\001{\331\230\263\365,\330"
 296      5A017BD9 
 296      98B3F52C 
 296      D8
 297 07d0 19DB603C 		.ascii	"\031\333`<g\265,\330\267V\300^\325\341,\3661\3623\253"
 297      67B52CD8 
 297      B756C05E 
 297      D5E12CF6 
 297      31F233AB 
 298 07e4 1C8CAF7E 		.ascii	"\034\214\257~\321\253:86\373h!\216q\331k\327#\343\344"
 298      D1AB3A38 
 298      36FB6821 
 298      8E71D96B 
 298      D723E3E4 
 299 07f8 26BEF563 		.ascii	"&\276\365c\253\225~\236:\2537\255 \232t\200S\2662\236"
 299      AB957E9E 
 299      3AAB37AD 
 299      209A7480 
 299      53B6329E 
 300 080c EF7DDB60 		.ascii	"\357}\333`\032U\336\252\035\216(>p\303\374\250\371\254"
 300      1A55DEAA 
 300      1D8E283E 
 300      70C3FCA8 
 300      F9AC
 301 081e 0FAEFDC6 		.ascii	"\017\256\375\306\036\226\333\265\323\177V\022\257\341"
 301      1E96DBB5 
 301      D37F5612 
 301      AFE1
 302 082c 3CCA7587 		.ascii	"<\312u\207/\306\005\215\2531\272f7\334g\270|l\236\324"
 302      2FC6058D 
 302      AB31BA66 
 302      37DC67B8 
 302      7C6C9ED4 
ARM GAS  /tmp/ccGvYF46.s 			page 24


 303 0840 4813AEB0 		.ascii	"H\023\256\260\2320\322g\241\230L\272\366\023[\247\341"
 303      9A30D267 
 303      A1984CBA 
 303      F6135BA7 
 303      E1
 304 0851 3C2E236F 		.ascii	"<.#o\222u\335\361\327j\225\001\302m\034 \214\361\351"
 304      9275DDF1 
 304      D76A9501 
 304      C26D1C20 
 304      8CF1E9
 305 0864 2E765841 		.ascii	".vXA\372`\321?\341bG\023\002MM\031\250n\314\214N\010"
 305      FA60D13F 
 305      E1624713 
 305      024D4D19 
 305      A86ECC8C 
 306 087a 741F81E6 		.ascii	"t\037\201\346j\200\2249.\246\340E~\304b:s\366#>\353"
 306      6A809439 
 306      2EA6E045 
 306      7EC4623A 
 306      73F6233E 
 307 088f 101669AB 		.ascii	"\020\026i\253Ko\232\334\330y\202Fw\350\361U\237\311"
 307      4B6F9ADC 
 307      D8798246 
 307      77E8F155 
 307      9FC9
 308 08a1 F2508F9D 		.ascii	"\362P\217\235\012\333\246T\330P')\236\345\011\305\323"
 308      0ADBA654 
 308      D8502729 
 308      9EE509C5 
 308      D3
 309 08b2 E4B0573E 		.ascii	"\344\260W>\016a\235m9\236\324\310\021}\322\276\034\207"
 309      0E619D6D 
 309      399ED4C8 
 309      117DD2BE 
 309      1C87
 310 08c4 1439DE41 		.ascii	"\0249\336A9\266\374\010r\354\264-G\006#\007\016K\237"
 310      39B6FC08 
 310      72ECB42D 
 310      47062307 
 310      0E4B9F
 311 08d7 A2C3D287 		.ascii	"\242\303\322\207\2041\311\327\273\337s>\304\215\011"
 311      8431C9D7 
 311      BBDF733E 
 311      C48D09
 312 08e6 A387BF24 		.ascii	"\243\207\277$\363\313\344v\262\361\240\034\275\365%"
 312      F3CBE476 
 312      B2F1A01C 
 312      BDF525
 313 08f5 339697AD 		.ascii	"3\226\227\255\215\345/+%V\211%\266O\257\205YC\332\375"
 313      8DE52F2B 
 313      25568925 
 313      B64FAF85 
 313      5943DAFD 
 314 0909 4595B2A8 		.ascii	"E\225\262\2506\026\241\216\244\014U\267\247\2326\326"
 314      3616A18E 
 314      A40C55B7 
 314      A79A36D6 
ARM GAS  /tmp/ccGvYF46.s 			page 25


 315 0919 0908742A 		.ascii	"\011\010t*\241\026=\232J\364\360\225\010_IN\267\311"
 315      A1163D9A 
 315      4AF4F095 
 315      085F494E 
 315      B7C9
 316 092b D482F8A6 		.ascii	"\324\202\370\246r\207|I\023\376\277\247\203\236\030"
 316      72877C49 
 316      13FEBFA7 
 316      839E18
 317 093a D9271568 		.ascii	"\331'\025h\263'\216+\320oW)\275(\255\244k?\010qHt\351"
 317      B3278E2B 
 317      D06F5729 
 317      BD28ADA4 
 317      6B3F0871 
 318 0951 C8E9CAFC 		.ascii	"\310\351\312\374\366s\244\037\275\373\003\341\352v\330"
 318      F673A41F 
 318      BDFB03E1 
 318      EA76D8
 319 0960 9F418A3E 		.ascii	"\237A\212>J\265n&\0124\264\305\2172\203\364A\213\024"
 319      4AB56E26 
 319      0A34B4C5 
 319      8F3283F4 
 319      418B14
 320 0973 05897D1C 		.ascii	"\005\211}\034\302\204\026\026zK\277Ym\335~\312\342,"
 320      C2841616 
 320      7A4BBF59 
 320      6DDD7ECA 
 320      E22C
 321 0985 546C6EF3 		.ascii	"Tln\363\\\273mX\030\363\235dns\212\2460,\314f}L\223"
 321      5CBB6D58 
 321      18F39D64 
 321      6E738AA6 
 321      302CCC66 
 322 099c 3813E636 		.ascii	"8\023\3466k\037\241\323I\344'\013\263Y\303U\275\240"
 322      6B1FA1D3 
 322      49E4270B 
 322      B359C355 
 322      BDA0
 323 09ae 5396F31C 		.ascii	"S\226\363\034\016\0056\325\362\344\2520\316\237$~\342"
 323      0E0536D5 
 323      F2E4AA30 
 323      CE9F247E 
 323      E2
 324 09bf 248ED1A7 		.ascii	"$\216\321\247Nn\372{\225\355\262\367\263e\037m\3321"
 324      4E6EFA7B 
 324      95EDB2F7 
 324      B3651F6D 
 324      DA31
 325 09d1 4D24FCEB 		.ascii	"M$\374\353L\300uf\335\325X\3017<\262\035\213\3473,\370"
 325      4CC07566 
 325      DDD558C1 
 325      373CB21D 
 325      8BE7332C 
 326 09e6 CD0605DF 		.ascii	"\315\006\005\337\331\010\307!\354\305$U\211\005\277"
 326      D908C721 
 326      ECC52455 
 326      8905BF
ARM GAS  /tmp/ccGvYF46.s 			page 26


 327 09f5 ED515AF0 		.ascii	"\355QZ\360U\226\012~\277n\301W\331/x\005\357@|\202X"
 327      55960A7E 
 327      BF6EC157 
 327      D92F7805 
 327      EF407C82 
 328 0a0a 123FB40D 		.ascii	"\022?\264\015\3467\253\305*\246\026\227b-.s\222\345"
 328      E637ABC5 
 328      2AA61697 
 328      622D2E73 
 328      92E5
 329 0a1c 84E57C5D 		.ascii	"\204\345|]~\255\255K\256\344\224\250\341\344\210\034"
 329      7EADAD4B 
 329      AEE494A8 
 329      E1E4881C 
 330 0a2c 1DBB6B9A 		.ascii	"\035\273k\232R$\324\346}oE7L\2464f\354\302\"\241\366"
 330      5224D4E6 
 330      7D6F4537 
 330      4CA63466 
 330      ECC222A1 
 331 0a41 E6866D30 		.ascii	"\346\206m0?\007\266\356}\235E\000\035\255\223Ev\030"
 331      3F07B6EE 
 331      7D9D4500 
 331      1DAD9345 
 331      7618
 332 0a53 E210E496 		.ascii	"\342\020\344\226$\337uZu\231\276\272\356mq0v\235\353"
 332      24DF755A 
 332      7599BEBA 
 332      EE6D7130 
 332      769DEB
 333 0a66 2CE80BF4 		.ascii	",\350\013\364\363g|\362\230tUoW\307PM\212\332D[\232"
 333      F3677CF2 
 333      9874556F 
 333      57C7504D 
 333      8ADA445B 
 334 0a7b BEDD2E22 		.ascii	"\276\335.\"\034\035Vm\322\302%\035\365\361p\367\203"
 334      1C1D566D 
 334      D2C2251D 
 334      F5F170F7 
 334      83
 335 0a8c DB32EC15 		.ascii	"\3332\354\025\214\262V\\\277\212x:5(\323\227-\265=\002"
 335      8CB2565C 
 335      BF8A783A 
 335      3528D397 
 335      2DB53D02 
 336 0aa0 2D194611 		.ascii	"-\031F\021\3271\212\270\001\0251\212\212\270\011\351"
 336      D7318AB8 
 336      0115318A 
 336      8AB809E9 
 337 0ab0 17AC3A1A 		.ascii	"\027\254:\0329[[\234\3148i\217m\271\375\232\3321\312"
 337      395B5B9C 
 337      CC38698F 
 337      6DB9FD9A 
 337      DA31CA
 338 0ac3 662D9BCD 		.ascii	"f-\233\315\341\226\026t\317x\006\214\030\365\177V\335"
 338      E1961674 
 338      CF78068C 
 338      18F57F56 
ARM GAS  /tmp/ccGvYF46.s 			page 27


 338      DD
 339 0ad4 01BAFE72 		.ascii	"\001\272\376r\3326\"\257\315W\336\347\334\201KV\340"
 339      DA3622AF 
 339      CD57DEE7 
 339      DC814B56 
 339      E0
 340 0ae5 3AEB30A8 		.ascii	":\3530\250\367aW\334$q6\016\207\347\340\362\343|\244"
 340      F76157DC 
 340      2471360E 
 340      87E7E0F2 
 340      E37CA4
 341 0af8 0B902E44 		.ascii	"\013\220.Dz\021\351%\244\227\221\336B:\004+\364m\244"
 341      7A11E925 
 341      A49791DE 
 341      423A042B 
 341      F46DA4
 342 0b0b A390CE43 		.ascii	"\243\220\316C\272\010i5\322UH\327 \335\201tg2\005Pz"
 342      BA086935 
 342      D25548D7 
 342      20DD8174 
 342      67320550 
 343 0b20 81631B0E 		.ascii	"\201c\033\016?\266\020m\365TT\377\317\322\265\2327\327"
 343      3FB6106D 
 343      F55454FF 
 343      CFD2B59A 
 343      37D7
 344 0b32 A1590F49 		.ascii	"\241Y\017IX\320\333\230nwa\224\255\001\271\241\352v"
 344      58D0DB98 
 344      6E776194 
 344      AD01B9A1 
 344      EA76
 345 0b44 F59F0693 		.ascii	"\365\237\006\223\235_T\375%q\275\323\301\003\362\015"
 345      9D5F54FD 
 345      2571BDD3 
 345      C103F20D 
 346 0b54 466FD4C1 		.ascii	"Fo\324\301iIt\346\214\231\326,\224[\005\353\035/\222"
 346      694974E6 
 346      8C99D62C 
 346      945B05EB 
 346      1D2F92
 347 0b67 AAB3DB3B 		.ascii	"\252\263\333;\015Es\264\037\033\343\260\007\222\256"
 347      0D4573B4 
 347      1F1BE3B0 
 347      0792AE
 348 0b76 B6F238A4 		.ascii	"\266\3628\244\220\016i\254\\\264z\007n\036;\224\334"
 348      900E69AC 
 348      5CB47A07 
 348      6E1E3B94 
 348      DC
 349 0b87 C20D1B1A 		.ascii	"\302\015\033\032]\263c\\\334\247\034j\352SJ\342V\\\207"
 349      5DB3635C 
 349      DCA71C6A 
 349      EA534AE2 
 349      565C87
 350 0b9a B7E22156 		.ascii	"\267\342!V\242$\207R\353X\201\255\265;\260\027\251\307"
 350      A2248752 
 350      EB5881AD 
ARM GAS  /tmp/ccGvYF46.s 			page 28


 350      B53BB017 
 350      A9C7
 351 0bac 5E64AC6D 		.ascii	"^d\254m0?\007\266\236\005\233h\005\314\310\352\002X"
 351      303F07B6 
 351      9E059B68 
 351      05CCC8EA 
 351      0258
 352 0bbe 2D0B36D5 		.ascii	"-\0136\3256\030\317\331\036\026l\266\0250\2439;\000"
 352      3618CFD9 
 352      1E166CB6 
 352      1530A339 
 352      3B00
 353 0bd0 DBC7822D 		.ascii	"\333\307\202-\260\015\306sv\200\005[d\005\314\250\221"
 353      B00DC673 
 353      7680055B 
 353      6405CCA8 
 353      91
 354 0be1 00D82116 		.ascii	"\000\330!\026l\251m0\236\263#,\330*+`~c\316\216\262"
 354      6CA96D30 
 354      9EB3232C 
 354      D82A2B60 
 354      7E63CE8E 
 355 0bf6 601B6C83 		.ascii	"`\033l\203\361\234\035g\3016[\0013\362\313\000\3542"
 355      F19C1D67 
 355      C1365B01 
 355      33F2CB00 
 355      EC32
 356 0c08 0BB6D536 		.ascii	"\013\266\3256\030\317\331U\026\354++`F\036\036\200]"
 356      18CFD955 
 356      16EC2B2B 
 356      60461E1E 
 356      805D
 357 0c1a 67C1EA6C 		.ascii	"g\301\352l\203\361\234\335d\301\016X\0013\352\262\001"
 357      83F19CDD 
 357      64C10E58 
 357      0133EAB2 
 357      01
 358 0c2b EC360B56 		.ascii	"\3546\013Vo\033\214\347\254\221\005k\260\002\326\331"
 358      6F1B8CE7 
 358      AC91056B 
 358      B002D6D9 
 359 0c3b 98B3BB2C 		.ascii	"\230\263\273,\330\031\333`<g\367Y\260\363V\300\214\026"
 359      D819DB60 
 359      3C67F759 
 359      B0F356C0 
 359      8C16
 360 0c4d AD00AC72 		.ascii	"\255\000\254r\027\003\366\275m0\277`\370a\273&I<\214"
 360      1703F6BD 
 360      6D30BF60 
 360      F861BB26 
 360      493C8C
 361 0c60 9EE31174 		.ascii	"\236\343\021t\031\216!=\201\364$\322\323H\317 \375\006"
 361      198E213D 
 361      81F424D2 
 361      D348CF20 
 361      FD06
 362 0c72 E9B7482F 		.ascii	"\351\267H/ \375\016\351\367H\257 \275\206\364\006\322"
ARM GAS  /tmp/ccGvYF46.s 			page 29


 362      20FD0EE9 
 362      F748AF20 
 362      BD86F406 
 362      D2
 363 0c83 5B48EF20 		.ascii	"[H\357 mBz\017i3\322\301.\013\376\351>\326q\274\372"
 363      6D427A0F 
 363      6933D2C1 
 363      2E0BFEE9 
 363      3ED671BC 
 364 0c98 800527C3 		.ascii	"\200\005'\303x\271\271\241\352\342Z\313\333\313_U\361"
 364      78B9B9A1 
 364      EAE25ACB 
 364      DBCB5F55 
 364      F1
 365 0ca9 C86948D5 		.ascii	"\310iH\325Q\372~\373\277\020\257@\247\367\347\036\007"
 365      51FA7EFB 
 365      BF10AF40 
 365      A7F7E71E 
 365      07
 366 0cba 57CDA5BB 		.ascii	"W\315\245\273\301\234{\212<\367\256K\343\"\334\330\205"
 366      C19C7B8A 
 366      3CF7AE4B 
 366      E322DCD8 
 366      85
 367 0ccb 2E02B99F 		.ascii	".\002\271\237|\320|\313\342 ,\032s\235\332\011\254\213"
 367      7CD07CCB 
 367      E2202C1A 
 367      739DDA09 
 367      AC8B
 368 0cdd F32C7571 		.ascii	"\363,uq\336s\021\027g]\253\244.\016\217C\370\253\324"
 368      DE731117 
 368      675DABA4 
 368      2E0E8F43 
 368      F8ABD4
 369 0cf0 F2BF7437 		.ascii	"\362\277t7\362_\231\234\177\320\360je\363\216\252\344"
 369      F25F999C 
 369      7FD0F06A 
 369      65F38EAA 
 369      E4
 370 0d01 B5C80249 		.ascii	"\265\310\002I\233\232o\262r7\323b\366\332\006\363s`"
 370      9B9A6FB2 
 370      7237D362 
 370      F6DA06F3 
 370      7360
 371 0d13 AB59B043 		.ascii	"\253Y\260CV\300L|\223\265,\330Q\333`<g\353Y\260\223"
 371      56C04C7C 
 371      93B52CD8 
 371      51DB603C 
 371      67EB59B0 
 372 0d28 56C04C7C 		.ascii	"V\300L|\223Z\026\354\254m0\277^\365\012\011\332!\211"
 372      935A16EC 
 372      AC6D30BF 
 372      5EF50A09 
 372      DA2189
 373 0d3b A35DC4CA 		.ascii	"\243]\304\312\214q\221\226?\016\351\004\244\223\220"
 373      8C719196 
 373      3F0EE904 
ARM GAS  /tmp/ccGvYF46.s 			page 30


 373      A49390
 374 0d4a 4E413ACD 		.ascii	"NA:\315\212E\030\345b,\302yd\370\335\3244\006,\302\261"
 374      8A4518E5 
 374      622CC279 
 374      64F8DDD4 
 374      34062CC2 
 375 0d5f EF4FFE91 		.ascii	"\357O\376\221\256\317j6\220\221\3620\342`\026\313\301"
 375      AECF6A36 
 375      9091F230 
 375      E26016CB 
 375      C1
 376 0d70 15DB1CF8 		.ascii	"\025\333\034\370Y\016\242M\273\246)gD\350\002\337M-"
 376      590EA24D 
 376      BBA62967 
 376      44E802DF 
 376      4D2D
 377 0d82 9EDE628B 		.ascii	"\236\336b\213\331\334\303\256\226\213_U\301\356\331"
 377      D9DCC3AE 
 377      968B5F55 
 377      C1EED9
 378 0d91 06F37260 		.ascii	"\006\363r`\225\273\031\260\267\037\264\013\326:A#\250"
 378      95BB19B0 
 378      B71FB40B 
 378      D63A4123 
 378      A8
 379 0da2 2E8C405D 		.ascii	".\214@]\030\211u>\023\351\034\244\363\220~\310j\201"
 379      1889753E 
 379      13E91CA4 
 379      F3907EC8 
 379      6A81
 380 0db4 4378FF41 		.ascii	"Cx\377A\355h\224\032G\0065nE\005\253\270Fu\373\026["
 380      ED68941A 
 380      4706356E 
 380      4505ABB8 
 380      4675FB16 
 381 0dc9 B7B31FB4 		.ascii	"\267\263\037\264\333\337pu\333Puw-=\230\245n\274\376"
 381      DBDF7075 
 381      DB507577 
 381      2D3D98A5 
 381      6EBCFE
 382 0ddc C80AA09E 		.ascii	"\310\012\240\236\203\247\367aO+K\342'8\002\374\024\367"
 382      83A7F761 
 382      4F2B4BE2 
 382      273802FC 
 382      14F7
 383 0dee 3EAF47BA 		.ascii	">\257G\272\033i=\322\006\244Sp2a\017\366\276{\221\016"
 383      1B693DD2 
 383      06A45370 
 383      32610FF6 
 383      BE7B910E 
 384 0e02 C392F9C4 		.ascii	"\303\222\371\304J\311\314\213\357\203\346\332J\033\241"
 384      4AC9CC8B 
 384      EF83E6DA 
 384      4A1BA1
 385 0e11 12FB898F 		.ascii	"\022\373\211\217Z\321#\202J\372\206\266*\300B\207\202"
 385      5AD12382 
 385      4AFA86B6 
ARM GAS  /tmp/ccGvYF46.s 			page 31


 385      2AC04287 
 385      82
 386 0e22 B0C8D506 		.ascii	"\260\310\325\006c\3342\030>b\224\347g\256\370\332\177"
 386      63DC3218 
 386      3E6294E7 
 386      67AEF8DA 
 386      7F
 387 0e33 BA2F1E19 		.ascii	"\272/\036\031/&ava\274\032\365\372\2614\365\371AB|\311"
 387      2F266176 
 387      61BC1AF5 
 387      FAB134F5 
 387      F941427C 
 388 0e48 AD69E363 		.ascii	"\255i\343ct\361\356s\354\0177i\364.)\016\311w\211\266"
 388      74F1EE73 
 388      EC0F3769 
 388      F42E290E 
 388      C97789B6 
 389 0e5c 3F3C5883 		.ascii	"?<X\203\375\341\022\013\375\271\034=V3\316h\366^\216"
 389      FDE1120B 
 389      FDB91C3D 
 389      5633CE68 
 389      F65E8E
 390 0e6f 1D4DF3C7 		.ascii	"\035M\363\307Y\256\276\177\362\037q\225p9r|29\307<\014"
 390      59AEBE7F 
 390      F21F7195 
 390      7039727C 
 390      3239C73C 
 391 0e84 E168A596 		.ascii	"\341h\245\226\343\375\205~z7\271\377qx\331*Q\036\236"
 391      E3FD857E 
 391      7A37B9FF 
 391      7178D92A 
 391      511E9E
 392 0e97 6EFDA450 		.ascii	"n\375\244P\235\327!\211k\\\344\240\320w\032f-\036\024"
 392      9DD72189 
 392      6B5CE4A0 
 392      D0771A66 
 392      2D1E14
 393 0eaa 5AEFD21C 		.ascii	"Z\357\322\034\024Z\345r\320\273\311\217\011\335{0\361"
 393      145AE572 
 393      D0BBC98F 
 393      09DD7B30 
 393      F1
 394 0ebb 98D0F0D6 		.ascii	"\230\320\360\326\272\007\335G\266\346\017\272+\252f"
 394      BA07DD47 
 394      B6E60FBA 
 394      2BAA66
 395 0eca BAAF21CE 		.ascii	"\272\257!\316\232$n@\013\027u\351\237\036\222\304u\370"
 395      9A246E40 
 395      0B1775E9 
 395      9F1E92C4 
 395      75F8
 396 0edc B68195E6 		.ascii	"\266\201\225\346\266\224Sq\276\344\353\257\257$%\257"
 396      B6945371 
 396      BEE4EBAF 
 396      AF2425AF 
 397 0eec 9AE6CAD6 		.ascii	"\232\346\312\326\242M8\336\316\037\233\205\363\337I"
 397      A24D38DE 
ARM GAS  /tmp/ccGvYF46.s 			page 32


 397      CE1F9B85 
 397      F3DF49
 398 0efb FDC8D83B 		.ascii	"\375\310\330;\023:\305\225\360\312\234#\177\243\007"
 398      133AC595 
 398      F0CA9C23 
 398      7FA307
 399 0f0a 13BE442D 		.ascii	"\023\276D-<\326:y\273\341p$\361+\027)\215\235ZM\274"
 399      3CD63A79 
 399      BBE17024 
 399      F12B1729 
 399      8D9D5A4D 
 400 0f1f 42DFBDB0 		.ascii	"B\337\275\260\323\222.\3369b\367\335\0133\0274>J\035"
 400      D3922EDE 
 400      3962F7DD 
 400      0B331734 
 400      3E4A1D
 401 0f32 E05AD4C8 		.ascii	"\340Z\324\310)mR\322\310\275Z\215\254\243/_\330kI'\347"
 401      296D52D2 
 401      C8BD5A8D 
 401      ACA32F5F 
 401      D86B4927 
 402 0f47 B749D4C9 		.ascii	"\267I\324\311\305mturU\033\335\227/ln\243\373\362\205"
 402      C56D7475 
 402      72551BDD 
 402      972F6C6E 
 402      A3FBF285 
 403 0f5b BA36BA2F 		.ascii	"\2726\272/_8\321\306\376\313\027\3662\212\275\017\025"
 403      5F38D1C6 
 403      FECB17F6 
 403      328ABD0F 
 403      15
 404 0f6c 7B7F12C5 		.ascii	"{\177\022\305\336\231\252b\2036m*^\237\350\220Y\036"
 404      DE99AA62 
 404      83366D2A 
 404      5E9FE890 
 404      591E
 405 0f7e A345D7E9 		.ascii	"\243E\327\351\237\000\326\214\317\276\2668>;\253\325"
 405      9F00D68C 
 405      CFBEB638 
 405      3E3BABD5 
 406 0f8e C9E9F4DD 		.ascii	"\311\351\364\335\013g-\351d\325\221\361\366t2z\345 "
 406      0B672DE9 
 406      64D591F1 
 406      F674327A 
 406      E520
 407 0fa0 5900FA16 		.ascii	"Y\000\372\026\365\361|j\372xQ\253\217\207'\242>^\264"
 407      F5F17C6A 
 407      FA7851AB 
 407      8F8727A2 
 407      3E5EB4
 408 0fb3 A48F3759 		.ascii	"\244\2177Y\335S\356\015n\253\253x\343\333\362\212gE"
 408      DD53EE0D 
 408      6EABAB78 
 408      E3DBF28A 
 408      6745
 409 0fc5 952E32AA 		.ascii	"\225.2\252\364\035\252\322%\003Ur\010\013\332\212J\015"
 409      F41DAAD2 
ARM GAS  /tmp/ccGvYF46.s 			page 33


 409      25035572 
 409      080BDA8A 
 409      4A0D
 410 0fd7 A4662397 		.ascii	"\244f#\227\036\031\317\235a\374\\\213g\323S_y\004\234"
 410      1E19CF9D 
 410      61FC5C8B 
 410      67D3535F 
 410      79049C
 411 0fea 61EB5539 		.ascii	"a\353U9\366\010\251\312\333X\225k\332\246T\225M\332"
 411      F608A9CA 
 411      DB58956B 
 411      DAA65495 
 411      4DDA
 412 0ffc AA6CA255 		.ascii	"\252l\242U"
 413 1000 D964A92A 		.ascii	"\331d\251*\277l\233X\225\207\365\253\362B\012U\331\304"
 413      BF6C9B58 
 413      9587F5AB 
 413      F2420A55 
 413      D9C4
 414 1012 54E55DAC 		.ascii	"T\345]\254\312{\206U)?d\241*\365\0065L~4\247o0\247s"
 414      CA7B8655 
 414      293F64A1 
 414      2AF50635 
 414      4C7E34A7 
 415 102a E8B6DE40 		.ascii	"\350\266\336@z\213\037.\214|H;\\8\253\035.\234\345\206"
 415      7A8B1F2E 
 415      8C7C483B 
 415      5C38AB1D 
 415      2E9CE586 
 416 103e 0B865846 		.ascii	"\013\206XF\276\345\251\270o)\211\273\264\366\316\246"
 416      BEE5A9B8 
 416      6F2989BB 
 416      B4F6CEA6 
 417 104e 524DAEB7 		.ascii	"RM\256\267\371z\226\350\206\211x\252\177\270\233T\341"
 417      F97A96E8 
 417      868978AA 
 417      7FB89B54 
 417      E1
 418 105f F8046953 		.ascii	"\370\004iS\33264\013a\222Ha|\360,\272\264~\206\2504"
 418      DA36340B 
 418      61924861 
 418      7CF02CBA 
 418      B47E86A8 
 419 1074 3566F18E 		.ascii	"5f\361\216\301\323]\274393\264\257\036g%\246\3422c\235"
 419      C1D35DBC 
 419      333933B4 
 419      AF1E6725 
 419      A6E23263 
 420 1089 164D8F3B 		.ascii	"\026M\217;\223\3034G\247\332zm\302rZ\300\357a\001/H"
 420      93C33447 
 420      A7DA7A6D 
 420      C2725AC0 
 420      EF61012F 
 421 109e 28E0145E 		.ascii	"(\340\024^\233P\245-^\275\327&\370\215\212wH\364F=\177"
 421      9B50A52D 
 421      5EBDD726 
 421      F88D8A77 
ARM GAS  /tmp/ccGvYF46.s 			page 34


 421      48F4463D 
 422 10b3 1A7B8595 		.ascii	"\032{\205\225\352\342\360\370\002\271[\317\034\006\216"
 422      EAE2F0F8 
 422      02B95BCF 
 422      1C068E
 423 10c2 5A013339 		.ascii	"Z\00139\3033^Yg\245cg0;\266\361x\346\246\035G\346(X"
 423      C3335E59 
 423      67A56367 
 423      303BB6F1 
 423      78E6A61D 
 424 10da AD153093 		.ascii	"\255\0250\223=/\313\216[8o\033\325y\223HC\325\331\215"
 424      3D2FCB8E 
 424      5B386F1B 
 424      D5799348 
 424      43D5D98D 
 425 10ee AF50EF70 		.ascii	"\257P\357p\252\233\270\265\007\036J\356\326&\274>d\206"
 425      AA9BB8B5 
 425      071E4AEE 
 425      D626BC3E 
 425      6486
 426 1100 5BE33EDC 		.ascii	"[\343>\334\331\213\356\003\271\237|z\364\336^vzT\022"
 426      D98BEE03 
 426      B99F7C7A 
 426      F4DE5E76 
 426      7A5412
 427 1113 8F633B20 		.ascii	"\217c; i\255\332\032\036\357\376\336\330T\237$6\330"
 427      69ADDA1A 
 427      1EEFFEDE 
 427      D8549F24 
 427      36D8
 428 1125 06F37360 		.ascii	"\006\363s`\225\007\230y\303SX8I\300L\246G\307\260`\337"
 428      95079879 
 428      C3535838 
 428      49C04CA6 
 428      47C7B060 
 429 113a D806E339 		.ascii	"\330\006\3439\033w\200\021s\210\313\202\230&\323\243"
 429      1B778011 
 429      7388CB82 
 429      9826D3A3 
 430 114a 1358CE2E 		.ascii	"\023X\316.Z\341\314d\351v\022\013v\331\012\230\311\322"
 430      5AE1CC64 
 430      E976120B 
 430      76D90A98 
 430      C9D2
 431 115c ED1416EC 		.ascii	"\355\024\026\354\272m0\236\263i,\330m+`~c\316f\260`"
 431      BA6D309E 
 431      B3692CD8 
 431      6D2B607E 
 431      63CE66B0 
 432 1171 F76D83F9 		.ascii	"\367m\203\371\365\232\004\375\260-J\022g\272\211/0\313"
 432      F59A04FD 
 432      B02D4A12 
 432      67BA892F 
 432      30CB
 433 1183 4D7AEED9 		.ascii	"Mz\356\331H\347 \235\207\364C\244\013\220~\214\364S"
 433      48E7209D 
 433      87F443A4 
ARM GAS  /tmp/ccGvYF46.s 			page 35


 433      0B907E8C 
 433      F453
 434 1195 A48B907E 		.ascii	"\244\213\220~\356\266\320\323Oq3\223\201C\037\266k\212"
 434      EEB6D0D3 
 434      4F713393 
 434      81431FB6 
 434      6B8A
 435 11a7 4C05898F 		.ascii	"L\005\211\217v\301\211@\247f7\272 '\221\276\205L\216"
 435      76C18940 
 435      A76637BA 
 435      202791BE 
 435      854C8E
 436 11ba 403A12E9 		.ascii	"@:\022\351(\244\243\221\216E:\036\351D\244\223\255\210"
 436      28A4A391 
 436      8E453A1E 
 436      E944A493 
 436      AD88
 437 11cc B39D755C 		.ascii	"\263\235u\\\252\334\232\031\010{\216KC\365\375;W\305"
 437      AADC9A19 
 437      087B8E4B 
 437      43F5FD3B 
 437      57C5
 438 11de D143E56D 		.ascii	"\321C\345m\031\3267=\037<\337\360\241\262A~)\366\256"
 438      19D6373D 
 438      1F3CDFF0 
 438      A1B2417E 
 438      29F6AE
 439 11f1 6F3FFCA3 		.ascii	"o?\374\243\270/\243\037\026\223\313brn\276\372\376\306"
 439      B82FA31F 
 439      1693CB62 
 439      726EBEFA 
 439      FEC6
 440 1203 B92298F3 		.ascii	"\271\"\230\363I\031\352df;z\302Hy\372e\025\243\245\302"
 440      4919EA64 
 440      663B7AC2 
 440      4879FA65 
 440      15A3A5C2 
 441 1217 D44AB7DD 		.ascii	"\324J\267\335\231\314Un\375\231\314\0261\375\232\254"
 441      99CC556E 
 441      FD99CC16 
 441      31FD9AAC 
 442 1227 1582CB35 		.ascii	"\025\202\3135\271\313t\343\366\266\2049\034:?d\304\323"
 442      B9CB74E3 
 442      F6B68439 
 442      1C3A3F64 
 442      C4D3
 443 1239 5A56BD67 		.ascii	"ZV\275gX)C\223\355V7\013\267ePH\2070\3176\226\337\240"
 443      58294393 
 443      ED56370B 
 443      B7655048 
 443      8730CF36 
 444 1250 9D08FC14 		.ascii	"\235\010\374\024%\224#6\225\325\330Hj\220nC\272\004"
 444      25942336 
 444      95D5D848 
 444      6A906E43 
 444      BA04
 445 1262 9B4135D2 		.ascii	"\233A5\3225H\327\263M\302!|\202<-a\\Rn*4I\357\011JR"
ARM GAS  /tmp/ccGvYF46.s 			page 36


 445      3548D7B3 
 445      4DC2217C 
 445      823C2D61 
 445      5C526E2A 
 446 127c D774E7D1 		.ascii	"\327t\347\321\217\207\320]\207t\276u\231%H\277!d\364"
 446      8F87D05D 
 446      8774BE75 
 446      992548BF 
 446      2164F4
 447 128f C6F0F7E3 		.ascii	"\306\360\367\343\347\312dK\307{v/\374\015\316\370~\201"
 447      E7CA644B 
 447      C77B762F 
 447      FC0DCEF8 
 447      7E81
 448 12a1 ED67BDA6 		.ascii	"\355g\275\246\375X\007\252\3333\275=\002mE\240-\011"
 448      FD5807AA 
 448      DB33BD3D 
 448      026D45A0 
 448      2D09
 449 12b3 0D51D0B4 		.ascii	"\015Q\320\264C\201o\207\360UnV>\364\300\007\334ySH)"
 449      43816F87 
 449      F0556E56 
 449      3EF4C007 
 449      DC795348 
 450 12c8 8D43D8A5 		.ascii	"\215C\330\245-I\275\361ag\263\2729\374\363ixRJ-\231"
 450      2D49BDF1 
 450      6167B3BA 
 450      39FCF369 
 450      78524A2D 
 451 12dd 7ADB88EC 		.ascii	"z\333\210\354\214(8j5\357\213\244jT\2030\211oK\275\371"
 451      8C28386A 
 451      35EF8BA4 
 451      6A548330 
 451      896F4BBD 
 452 12f2 F60B26DC 		.ascii	"\366\013&\334\266E\330m`\021T\331\034\3029\255\014\\"
 452      B645D86D 
 452      601154D9 
 452      1CC239AD 
 452      0C5C
 453 1304 AE7A32B4 		.ascii	"\256z2\264\346dh\354F\026\357\010g\016\341\252\025,"
 453      E66468EC 
 453      4616EF08 
 453      670EE1AA 
 453      152C
 454 1316 C343CF72 		.ascii	"\303C\317r\364.`\031\224\005?\266\303!\222\355\302\330"
 454      F42E6019 
 454      94053FB6 
 454      C32192ED 
 454      C2D8
 455 1328 6F5018EA 		.ascii	"oP\030\352\013?\035\302\335\204\306\2467\244\344\016"
 455      0B3F1DC2 
 455      DD84C6A6 
 455      37A4E40E 
 456 1338 4773A7D0 		.ascii	"Gs\247\320\242\367\2614\366ai\014\377\211\025\260Wu"
 456      A2F7B134 
 456      F661690C 
 456      FF8915B0 
ARM GAS  /tmp/ccGvYF46.s 			page 37


 456      5775
 457 134a C0F43EEC 		.ascii	"\300\364>\354\262\017\364lh\241\226\241U\332\210\226"
 457      B20FF46C 
 457      68A196A1 
 457      55DA8896 
 458 135a 6833D21D 		.ascii	"h3\322\035Hw\"\255C\272\027\351A\326N\351\215*\\l\365"
 458      487722AD 
 458      43BA17E9 
 458      41D64EE9 
 458      8D2A5C6C 
 459 136f A8CDF7FC 		.ascii	"\250\315\367\374\371'\260\371\036\306\301\311\234\237"
 459      F927B0F9 
 459      1EC6C1C9 
 459      9C9F
 460 137d 241F9CB8 		.ascii	"$\037\234\270\370Z\226\304\243\332\301I\023Y\3719\232"
 460      F85A96C4 
 460      A3DAC149 
 460      1359F939 
 460      9A
 461 138e 7C68425E 		.ascii	"|hB^\213<\217n\277\247\206\360S\314\376\250;U\333\032"
 461      8B3C8F6E 
 461      BFA786F0 
 461      53CCFEA8 
 461      3B55DB1A 
 462 13a2 1D7DC72B 		.ascii	"\035}\307+\217HgW\022\367\305W\022_U\001\324I\331\223"
 462      8F486757 
 462      12F7C557 
 462      125F5501 
 462      D449D993 
 463 13b6 B6D5EB94 		.ascii	"\266\325\353\224\201z\251S\340\016a\211V\004.\327\344"
 463      817AA953 
 463      E00E6189 
 463      56042ED7 
 463      E4
 464 13c7 A67CEC77 		.ascii	"\246|\354w\223\234X\"O\265 \003t-\232\2551\260\034\035"
 464      939C5822 
 464      4FB52003 
 464      742D9AAD 
 464      31B01C1D 
 465 13db B75324BD 		.ascii	"\267S$\275)bm\260\202e8\004\226\243\023ox\345\341j\331"
 465      29626DB0 
 465      82653804 
 465      96A3136F 
 465      78E5E16A 
 466 13f0 CEEA3C29 		.ascii	"\316\352<)\211S\360\255\355\302=oP\270\352L\242C\330"
 466      8953F0AD 
 466      EDC23D6F 
 466      50B8EA4C 
 466      A243D8
 467 1403 6E5B04BE 		.ascii	"n[\004\2768&\271'e\250MwO\202\256\3515]\275\255\210"
 467      3826B927 
 467      65A84D77 
 467      4F82AEE9 
 467      355DBDAD 
 468 1418 7A1FB615 		.ascii	"z\037\266\025H\3421\034P\034\307f\331\200\364k\244g"
 468      48E2311C 
 468      501CC766 
ARM GAS  /tmp/ccGvYF46.s 			page 38


 468      D980F46B 
 468      A467
 469 142a 919E437A 		.ascii	"\221\236Cz\221m\256Ig\026\272\252\014\035bN]\335\272"
 469      916DAE49 
 469      6716BAAA 
 469      0C1D624E 
 469      5DDDBA
 470 143d B4E7317A 		.ascii	"\264\3471z\366\357{l\275\243\177\232\274\365\362@\222"
 470      F6EF7B6C 
 470      BDA37F9A 
 470      BCF5F240 
 470      92
 471 144e 7805DDF7 		.ascii	"x\005\335\367\253\011\363\013o\343\374\302U\013\215"
 471      AB09F30B 
 471      6FE3FCC2 
 471      550B8D
 472 145d 7848F4DE 		.ascii	"xH\364\336\326y\206\333\3074+-|\203\006o\021XN\272\274"
 472      D67986DB 
 472      C7342B2D 
 472      7C83066F 
 472      11584EBA 
 473 1472 2C89B790 		.ascii	",\211\267\220\313\333Z.\367R.o[\342r\377\326\304\265"
 473      CBDB5A2E 
 473      F7522E6F 
 473      5BE272FF 
 473      D6C4B5
 474 1485 49CD1B2E 		.ascii	"I\315\033.\217\212\306\332y\327\255y\305\345s\2617\\"
 474      8F8AC6DA 
 474      79D7AD79 
 474      C5E573B1 
 474      375C
 475 1497 DA7DF101 		.ascii	"\332}\361\001\200\341\351\215$\007\246\2158iv\263\207"
 475      80E1E98D 
 475      2407A68D 
 475      386976B3 
 475      87
 476 14a8 286CBFA6 		.ascii	"(l\277\246\024\347\334Y\217\3753T\233\333\251M\007\201"
 476      14E7DC59 
 476      8FFD3354 
 476      9BDBA94D 
 476      0781
 477 14ba A84B64D9 		.ascii	"\250Kd\331\347I\265X\337\362\030\026kl`\221\222\210"
 477      E749B558 
 477      DFF21816 
 477      6B6C6091 
 477      9288
 478 14cc C33C8C88 		.ascii	"\303<\214\210\313l\213\350\267'b\245\3116\257Qf\"*\247"
 478      CB6C8BE8 
 478      B72762A5 
 478      C936AF51 
 478      66222AA7 
 479 14e0 E82D8934 		.ascii	"\350-\2114\222\025i\225\025\221\214\367w\3750\221\306"
 479      92156995 
 479      15918CF7 
 479      77FD3091 
 479      C6
 480 14f1 E8886449 		.ascii	"\350\210dI\204\321\036\315y\237u\266\305\370\021kf\242"
ARM GAS  /tmp/ccGvYF46.s 			page 39


 480      84D11ECD 
 480      799F75B6 
 480      C5F8116B 
 480      66A2
 481 1503 859A897D 		.ascii	"\205\232\211}_\352\266^S\023\330\232\332hED\3437\265"
 481      5FEAB65E 
 481      5313D89A 
 481      DA684544 
 481      E337B5
 482 1516 FC301167 		.ascii	"\3740\021g\230\211hG\244\351\254H5\266E\262Ykf&c\236"
 482      98896847 
 482      A4E9AC48 
 482      35B645B2 
 482      596B6626 
 483 152c 9948CDFA 		.ascii	"\231H\315\372&#%\221\347\262\"\357\260\"\262\361\274"
 483      26232591 
 483      E7B222EF 
 483      B022B2F1 
 483      BC
 484 153d C60F1379 		.ascii	"\306\017\023ya\012V2%\221?eE\336c[d\277\300\177\342"
 484      610A5632 
 484      25913F65 
 484      45DE635B 
 484      64BFC07F 
 485 1552 ABA38DE8 		.ascii	"\253\243\215\350\364\014\365\340t$\322J\244\343\221"
 485      F40CF5E0 
 485      7424D24A 
 485      A4E391
 486 1561 4E433A07 		.ascii	"NC:\007\351'\036\013S\2207\330\016\354\020\362y5\305"
 486      E9271E0B 
 486      539037D8 
 486      0EEC10F2 
 486      7935C5
 487 1574 0E0C4674 		.ascii	"\016\014Ft\344\355EV\3371p\373f\343#8bZ\346!>\327\330"
 487      E4ED4556 
 487      DF3170FB 
 487      66E32338 
 487      625AE621 
 488 158b 9FE9FA5C 		.ascii	"\237\351\372\\f\257\030\230\203I\252=\332C}\303\361"
 488      66AF1898 
 488      8349AA3D 
 488      DA437DC3 
 488      F1
 489 159c FDCEE47E 		.ascii	"\375\316\344~rgf\225\336\273S\365\336\226\031sj\037"
 489      72676695 
 489      DEBB53F5 
 489      DE961973 
 489      6A1F
 490 15ae 16E2A783 		.ascii	"\026\342\247\203\357\221\035\005k\221\377\317\365\371"
 490      EF911D05 
 490      6B91FFCF 
 490      F5F9
 491 15bc 37C67008 		.ascii	"7\306p\010QL\262A\313\377\015\311O\357&\347\376\226"
 491      514CB241 
 491      CBFF0DC9 
 491      4FEF26E7 
 491      FE96
ARM GAS  /tmp/ccGvYF46.s 			page 40


 492 15ce 7A4C7A8D 		.ascii	"zLz\215\007\337\027\027\003L\311\001\211\336\015\222"
 492      07DF1717 
 492      034CC901 
 492      89DE0D92 
 493 15de 410E3D72 		.ascii	"A\016=r}\3206\226\237\303\032]\243\036\226\247\347\333"
 493      7DD03696 
 493      9FC31A5D 
 493      A31E96A7 
 493      E7DB
 494 15f0 4F5BC133 		.ascii	"O[\3013\331F=\216\274?\300\316\353<\266)\257\363\330"
 494      D9463D8E 
 494      BC3FC0CE 
 494      EB3CB629 
 494      AFF3D8
 495 1603 EE21D97F 		.ascii	"\356!\331\177\247\251\236\024'\266\033mK\301\225J\303"
 495      A7A99E14 
 495      27B61B6D 
 495      4BC1954A 
 495      C3
 496 1614 9D9BA7DA 		.ascii	"\235\233\247\332\251'\245)cC\333Y@\324\353\324\364>"
 496      A927A529 
 496      6343DB59 
 496      40D4EBD4 
 496      F43E
 497 1626 AC3649E2 		.ascii	"\2546I\342F\017q\2167\2411\370\002i\015\322mHwZ1\017"
 497      460F718E 
 497      37A131F8 
 497      02690DD2 
 497      6D48775A 
 498 163c 6B5833F6 		.ascii	"kX3\366^;\265\275\331T/}V\253\031VW!\253\253Y\226\034"
 498      5E3BB5BD 
 498      D9542F7D 
 498      56AB1956 
 498      5721ABAB 
 499 1653 C2F87676 		.ascii	"\302\370vv\315\021_\330\267.5>~m\210<)\303\372\036\241"
 499      CD115FD8 
 499      B72E353E 
 499      7E6D883C 
 499      29C3FA1E 
 500 1668 468F4312 		.ascii	"F\217C\022\367x\310\026\241\251\355R\332\"\264\337\243"
 500      F778C816 
 500      A1A9ED52 
 500      DA22B4DF 
 500      A3
 501 1679 D922748D 		.ascii	"\331\"t\215\356>$\367-\354>l\227\270\373\360\363v\272"
 501      EE3E24F7 
 501      2DEC3E6C 
 501      97B8FBF0 
 501      F376BA
 502 168c BB0FABDB 		.ascii	"\273\017\253\333\331\337\021\033gN\022\017`\221\037"
 502      D9DF111B 
 502      674E120F 
 502      60911F
 503 169b F4986F1C 		.ascii	"\364\230o\034dJ\337\326\271\0079\332\274\225\314H\351"
 503      644ADFD6 
 503      B90739DA 
 503      BC95CC48 
ARM GAS  /tmp/ccGvYF46.s 			page 41


 503      E9
 504 16ac 99C1D898 		.ascii	"\231\301\330\230\364\211X\3017\214\376\360\202r\344"
 504      F48958C1 
 504      378CFEF0 
 504      8272E4
 505 16bb FD389AD3 		.ascii	"\3758\232\323[\355\222\233S\035\0340;\217\221\322>\211"
 505      5BED929B 
 505      531D1C30 
 505      3B8F91D2 
 505      3E89
 506 16cd 206F3D62 		.ascii	" o=b\023\304!Tb\222\257\2656y\335p\034 \177m\301*\313"
 506      13C42154 
 506      6292AFB5 
 506      3679DD70 
 506      1C207F6D 
 507 16e4 D10D35D3 		.ascii	"\321\0155\323\224\3157\364e\030\223c\230J\246\235\331"
 507      94CD37F4 
 507      65189363 
 507      984AA69D 
 507      D9
 508 16f5 E24B6E96 		.ascii	"\342Kn\226k\351\253S\350\377\302\314\325\202\331\264"
 508      6BE9AB53 
 508      E8FFC2CC 
 508      D582D9B4 
 509 1705 A37B63EF 		.ascii	"\243{c\357u\241KC\213l\343q\215,\272\2172G\301VX\001"
 509      75A14B43 
 509      8B6CE371 
 509      8D2CBA8F 
 509      3247C156 
 510 171b 337997E2 		.ascii	"3y\227\342!\026l\255m0\236\263#,\330\027V\300LV\323"
 510      21166CAD 
 510      6D309EB3 
 510      232CD817 
 510      56C04C56 
 511 1730 8E29DD59 		.ascii	"\216)\335Y\212\377\353q\203\367;5k\202'\015\330\302"
 511      8AFFEB71 
 511      83F73B35 
 511      6B82270D 
 511      D8C2
 512 1742 191B0FB3 		.ascii	"\031\033\017\263Fl\355\017.&R\007\350:\372\004_i\332"
 512      466CED0F 
 512      2E265207 
 512      E83AFA04 
 512      5F69DA
 513 1755 80266BC2 		.ascii	"\200&k\302\230Q\326\215\036\343?\270h\324\216?\017\330"
 513      9851D68D 
 513      1EE33FB8 
 513      68D48E3F 
 513      0FD8
 514 1767 2E60BEB6 		.ascii	".`\276\266N\014\347\336\370q\302\012\234_\247\276\364"
 514      4E0CE7DE 
 514      F871C20A 
 514      9C5FA7BE 
 514      F4
 515 1778 3E6C8396 		.ascii	">l\203\226\304\263h\370\276\301N\360[\244\027\220~\207"
 515      C4B368F8 
 515      BEC14EF0 
ARM GAS  /tmp/ccGvYF46.s 			page 42


 515      5BA41790 
 515      7E87
 516 178a F47BA457 		.ascii	"\364{\244W\220^Cz\227\355\225\376{P\035\302\331G4}\035"
 516      905E437A 
 516      97ED95FE 
 516      7B501DC2 
 516      D947347D 
 517 179f 6F9892B5 		.ascii	"o\230\222\265C\031;\273\261\262\274-\303\272\305\335"
 517      43193BBB 
 517      B1B2BC2D 
 517      C3BAC5DD 
 518 17af FB4B6A71 		.ascii	"\373Kjq\3454b\245\276\323(\012U\313\377.y\357Z\222\327"
 518      E53462A5 
 518      BED3280A 
 518      55CBFF2E 
 518      79EF5A92 
 519 17c4 78165D95 		.ascii	"x\026]\2257\276C@\273\010\026S"
 519      37BE4340 
 519      BB081653 
 520 17d0 18393645 		.ascii	"\03096E\226fw&}x\232\376Lzs|*}\350\243\032A4\031+q\303"
 520      96667726 
 520      7D789AFE 
 520      4C7A737C 
 520      2A7DE8A3 
 521 17eb 9704E31E 		.ascii	"\227\004\343\036H\247\207r\347\020\206[\203\253u\031"
 521      48A78772 
 521      E710865B 
 521      83AB7519 
 522 17fb E1E90D90 		.ascii	"\341\351\015\220uT\242!6\026y,\256\022\213\317\336y"
 522      7554A221 
 522      3616792C 
 522      AE128BCF 
 522      DE79
 523 180d 5779E9D3 		.ascii	"Wy\351\323(\324\211w\037M\332\201\362@\244\320>H\323"
 523      28D48977 
 523      1F4DDA81 
 523      F240A4D0 
 523      3E48D3
 524 1820 6ED13FB5 		.ascii	"n\321?\265M\304\221\036\371%\371.\273\252S\333\034\312"
 524      4DC4911E 
 524      F925F92E 
 524      BBAA53DB 
 524      1CCA
 525 1832 213DBA65 		.ascii	"!=\272e\354(\356\214#\211S\030\326\000\340\222S\333"
 525      EC28EE8C 
 525      23895318 
 525      D600E092 
 525      53DB
 526 1844 E82889DD 		.ascii	"\350(\211\335\201f\007\316\317\301-c\341\034\302D,\243"
 526      816607CE 
 526      CFC12D63 
 526      E11CC244 
 526      2CA3
 527 1856 2470265B 		.ascii	"$p&[\355V\360\334\035\267\"\254\311f\273\225<\\\203"
 527      ED56F0DC 
 527      1DB722AC 
 527      C966BB95 
ARM GAS  /tmp/ccGvYF46.s 			page 43


 527      3C5C83
 528 1869 153893ED 		.ascii	"\0258\223\355v\253ya\247Z\021\326d\303\335Z\036n\246"
 528      76AB7961 
 528      A75A11D6 
 528      64C3DD5A 
 528      1E6EA6
 529 187c 1538BD5E 		.ascii	"\0258\275^Y\357\303j\236$V\246\021\3734:\215\330\236"
 529      59EFC36A 
 529      9E2456A6 
 529      11FB343A 
 529      8DD89E
 530 188f 3148C722 		.ascii	"1H\307\"\035\217t\002\322\211H'\247Y\030\010\215Lc\006"
 530      1D8F7402 
 530      D2894827 
 530      A7591808 
 530      8D4C6306 
 531 18a3 42F3B48D 		.ascii	"B\363\264\215T\217\355Z\323\367rq|_e\226\274\256\341"
 531      548FED5A 
 531      D3F77271 
 531      7C5F6596 
 531      BCAEE1
 532 18b6 92D7759C 		.ascii	"\222\327u\234\345Y\212\226\263\016\3511\244\315H\207"
 532      E5598A96 
 532      B30EE931 
 532      A4CD4887 
 533 18c6 21DFEF20 		.ascii	"!\337\357 \035a\205\373Kn\363\243\242\304v2\333\253"
 533      1D6185FB 
 533      4B6EF3A3 
 533      A2C47632 
 533      DBAB
 534 18d8 06A8E91F 		.ascii	"\006\250\351\037P\322O\267m9g\030X\316\364$\234NK\263"
 534      50D24FB7 
 534      6D396718 
 534      58CEF424 
 534      9C4E4BB3 
 535 18ec C5E93B31 		.ascii	"\305\351;1\353\323F\001\230e\233\325\331\006\254\266"
 535      EBD34601 
 535      98659BD5 
 535      D906ACB6 
 536 18fc 4EC2EACC 		.ascii	"N\302\352\3144\263#\255r\354H\035\351\304\024\003\273"
 536      34B323AD 
 536      72EC481D 
 536      E9C41403 
 536      BB
 537 190d 7CE9855F 		.ascii	"|\351\205_\243%\234\203\346umr\363\312\303\220l\347"
 537      A3259C83 
 537      E6756D72 
 537      F3CAC390 
 537      6CE7
 538 191f 2798D7A0 		.ascii	"'\230\327\240\237\336M>2\251\232\037\337% \211'p1p~"
 538      9FDE4D3E 
 538      32A99A1F 
 538      DF252089 
 538      27703170 
 539 1934 BCF5D9DB 		.ascii	"\274\365\331\333%0$\272t\235\315\343\246\223}0\274\376"
 539      253024BA 
 539      749DCDE3 
ARM GAS  /tmp/ccGvYF46.s 			page 44


 539      A6937D30 
 539      BCFE
 540 1946 388D0CAF 		.ascii	"8\215\014\257\267hd\2678\274^\230\246\031^7\223\343"
 540      B76864B7 
 540      38BC5E98 
 540      A6195E37 
 540      93E3
 541 1958 A6E46EF2 		.ascii	"\246\344n\362\301\365\301G\023\007\327\307\036\325\035"
 541      C1F5C147 
 541      1307D7C7 
 541      1ED51D
 542 1967 5C7FFDA8 		.ascii	"\\\177\375\250\376\261\234G\355\037\313\211s,\211\213"
 542      FEB19C47 
 542      ED1FCB89 
 542      732C898B 
 543 1977 D0287D96 		.ascii	"\320(}\226ft,\347*\026\012S#zcn\277q\205,\377V9\205"
 543      66742CE7 
 543      2A160A53 
 543      237A636E 
 543      BF71852C 
 544 198f 4AFFDEF2 		.ascii	"J\377\336\362\246m8~\317U5\356T\240[\020\300\277\323"
 544      A66D387E 
 544      CF5535EE 
 544      54A05B10 
 544      C0BFD3
 545 19a2 AA4B5297 		.ascii	"\252KR\227\234\337\375\264\0227\015\354B\254\357\264"
 545      9CDFFDB4 
 545      12370DEC 
 545      42ACEFB4 
 546 19b2 587ABB9F 		.ascii	"Xz\273\2378,\323\355>\363\031\303\377!\226\361\0024"
 546      382CD3ED 
 546      3EF319C3 
 546      FF2196F1 
 546      0234
 547 19c4 8E1F21AD 		.ascii	"\216\037!\255F\272\012\351j\326\\\352\2713\261&\360"
 547      46BA0AE9 
 547      6AD65CEA 
 547      B933B126 
 547      F0
 548 19d5 DB98DA36 		.ascii	"\333\230\33264U7\321c\335k\260\331~\360\363\344^\021"
 548      345537D1 
 548      63DD6BB0 
 548      D97EF0F3 
 548      E45E11
 549 19e8 0743585C 		.ascii	"\007CX\\\257m\2667\310\346\236\365\226\232\355\235y"
 549      AF6DB637 
 549      C8E69EF5 
 549      969AED9D 
 549      79
 550 19f9 89CD767D 		.ascii	"\211\315v}\252\315V\2166]O\254\326\3656\252\225G\273"
 550      AACD568E 
 550      365D4FAC 
 550      D6F536AA 
 550      9547BB
 551 1a0c EB32F4C1 		.ascii	"\3532\364\3013\324\344\036\245\0206\247\251fZ\335\000"
 551      33D4E41E 
 551      A51036A7 
ARM GAS  /tmp/ccGvYF46.s 			page 45


 551      A9665ADD 
 551      00
 552 1a1d 14D30586 		.ascii	"\024\323\005\206\001.\231\036\003~3]X\317\350\302\006"
 552      012E991E 
 552      037E335D 
 552      58CFE8C2 
 552      06
 553 1a2e D48528D6 		.ascii	"\324\205(\326\374F\244\233\222\325\177\354_\261\212"
 553      FC46A49B 
 553      92D57FEC 
 553      5FB18A
 554 1a3d E3F57F65 		.ascii	"\343\365\177e\3655\272\271\353\013\254\377O,\324?\007"
 554      F535BAB9 
 554      EB0BACFF 
 554      4F2CD43F 
 554      07
 555 1a4e 43D8DAAA 		.ascii	"C\330\332\252\255\177\334\334\265\325R\3757\353\324"
 555      AD7FDCDC 
 555      B5D552FD 
 555      37EBD4
 556 1a5d FFD6D4EB 		.ascii	"\377\326\324\353\1774\2635J\022\317h\341l\326\377\030"
 556      7F34B335 
 556      4A12CF68 
 556      E16CD6FF 
 556      18
 557 1a6e 666BD452 		.ascii	"fk\324R,\031;X~\016k<\030\2341\261mg\244\337\036\353"
 557      2C193B58 
 557      7E0E6B3C 
 557      189C31B1 
 557      6D67A4DF 
 558 1a84 34DE76B6 		.ascii	"4\336v\266\313vW\277\333\240\253W'P\035BT+\001\227\253"
 558      CB7657BF 
 558      DBA0AB57 
 558      27501D42 
 558      542B0197 
 559 1a99 12357947 		.ascii	"\0225yG\360\004\367\266\014\003\376\371\021.ag\217m"
 559      F004F7B6 
 559      0C03FEF9 
 559      112E6167 
 559      8F6D
 560 1aab 01F61A08 		.ascii	"\001\366\032\010\340\215\011\260I+@\362\2015_\007to"
 560      E08D09B0 
 560      492B40F2 
 560      81355F07 
 560      746F
 561 1abd 176B1B92 		.ascii	"\027k\033\222\324\247\341_\326\310\321)\261}bj3g\325"
 561      D4A7E15F 
 561      D6C8D129 
 561      B17D626A 
 561      3367D5
 562 1ad0 566F9F98 		.ascii	"Vo\237\230\336_\326\350}\330\006%\211\333\260\235o\307"
 562      DE5FD6E8 
 562      7DD80625 
 562      89DBB09D 
 562      6FC7
 563 1ae2 16FE25D2 		.ascii	"\026\376%\322\035Hw\"\255C\272\037\351\001\266\375?"
 563      1D487722 
ARM GAS  /tmp/ccGvYF46.s 			page 46


 563      AD43BA1F 
 563      E901B6FD 
 563      3F
 564 1af3 2ECC90A3 		.ascii	".\314\220\243\227\033&\257\277\320\356S\262(#\337o~"
 564      971B26AF 
 564      BFD0EE53 
 564      B22823DF 
 564      6F7E
 565 1b05 73F01051 		.ascii	"s\360\020Q3\255\3472\256\216Ci\306\323zV\327A\257l\270"
 565      33ADE732 
 565      AE8E4369 
 565      C6D37A56 
 565      D741AF6C 
 566 1b1a F6083DD7 		.ascii	"\366\010=\327V\217\326e\361c6\027B\011#\307\265\326"
 566      568FD665 
 566      F1633617 
 566      420923C7 
 566      B5D6
 567 1b2c 65397DCD 		.ascii	"e9}\315\311q\013\366eHtU\315B\313\373\3164\257\217\336"
 567      C9710BF6 
 567      65487455 
 567      CD42CBFB 
 567      CE34AF8F 
 568 1b41 F298FEBE 		.ascii	"\362\230\376\2763\3561I<\235F*\377k-\227c\225iuK\\\216"
 568      33EE3149 
 568      3C9D462A 
 568      FF6B2D97 
 568      63956975 
 569 1b58 AF51163B 		.ascii	"\257Q\026;\311\246+\030\306{TH\023\335\024\214tS\231"
 569      C9A62B18 
 569      C67B5448 
 569      13DD148C 
 569      745399
 570 1b6b 26A1DB9B 		.ascii	"&\241\333\233$\361]\333`~=\260\221\010\366\201\025\260"
 570      24F15DDB 
 570      607E3DB0 
 570      9108F681 
 570      15B0
 571 1b7d 643B8AD4 		.ascii	"d;\212\324->\343l\203i[M|\357\300Yl\002\337 =\207\364"
 571      2D3EE36C 
 571      83695B4D 
 571      7CEFC059 
 571      6C02DF20 
 572 1b94 5B2BA3C7 		.ascii	"[+\243\307\223i\314\024\364\022\344\347\270\375b\327"
 572      9369CC14 
 572      F412E4E7 
 572      B8FD62D7 
 573 1ba4 FBB08A0B 		.ascii	"\373\260\212\013\035\033\266\342\006+,\035\211\263\024"
 573      1D1BB6E2 
 573      062B2C1D 
 573      89B314
 574 1bb3 DB9E7185 		.ascii	"\333\236q\205\177'2\370\366\232\226\364\2040W\226\307"
 574      7F2732F8 
 574      F69A96F4 
 574      84305796 
 574      C7
 575 1bc4 60733F4F 		.ascii	"`s?O\312\230\3028\204\263\370\334\301\264\307u\263S"
ARM GAS  /tmp/ccGvYF46.s 			page 47


 575      CA98C238 
 575      84B3F8DC 
 575      C1B4C775 
 575      B353
 576 1bd6 32A389E5 		.ascii	"2\243\211\345\2115\351\225\"\315\313!\234O\222P\341"
 576      8935E995 
 576      22CDCB21 
 576      9C4F9250 
 576      E1
 577 1be7 E87F08F3 		.ascii	"\350\177\010\363I\3738\370u\357\027\225\301\207q\"E"
 577      49FB38F8 
 577      75EF1795 
 577      C1877122 
 577      45
 578 1bf8 BE0B690E 		.ascii	"\276\013i\016V\026b\250f54\254\373f\363\353dfLnn~S\240"
 578      561662A8 
 578      663534AC 
 578      FB66F3EB 
 578      64664C6E 
 579 1c10 9BC71C42 		.ascii	"\233\307\034B\263\256\224\362\215\302\027\225\251\364"
 579      B3AE94F2 
 579      8DC21795 
 579      A9F4
 580 1c1e 51BF200F 		.ascii	"Q\277 \017\\1\344\3629\226\311\317\207\277\325\332E"
 580      5C31E4F2 
 580      3996C9CF 
 580      87BFD5DA 
 580      45
 581 1c2f 77420926 		.ascii	"wB\011&\251\0246\257\352\260y.\332\2705\275rpCs\363"
 581      A91436AF 
 581      EAB0792E 
 581      DAB835BD 
 581      72704373 
 582 1c44 E336B657 		.ascii	"\3436\266W\335JnI\271\031\355_\251\000\343\030SZw~\363"
 582      DD4A6E49 
 582      B919ED5F 
 582      A900E318 
 582      535A777E 
 583 1c59 FF443FAD 		.ascii	"\377D?\255\021-\351\354_$_\376\343q\010'\367\022L)\031"
 583      112DE9EC 
 583      5F245FFE 
 583      E3710827 
 583      F7124C29 
 584 1c6e 5FDFB366 		.ascii	"_\337\263fH\357DEyD:\335-\017\246\034\031\270\027o+"
 584      48EF4445 
 584      79443ADD 
 584      2D0FA61C 
 584      19B8176F 
 585 1c83 7AC7CC39 		.ascii	"z\307\3149E\347\341\326\360\303\271\325Z\270\244\357"
 585      45E7E1D6 
 585      F0C3B9D5 
 585      5AB8A4EF 
 586 1c93 DFE00760 		.ascii	"\337\340\007`\353>6X\221\325{\343vt&\031\253\017\363"
 586      EB3E3658 
 586      91D57BE3 
 586      76742619 
 586      AB0FF3
ARM GAS  /tmp/ccGvYF46.s 			page 48


 587 1ca6 E29BB792 		.ascii	"\342\233\267\222\027d\342\313\266\337\366\352\015x\310"
 587      1764E2CB 
 587      B6DFF6EA 
 587      0D78C8
 588 1cb5 5D0B039E 		.ascii	"]\013\003\236\353^\264\364\364\305\373\2731{\222\322"
 588      EB5EB4F4 
 588      F4C5FBBB 
 588      317B92D2 
 589 1cc5 CC73302C 		.ascii	"\314s0,Gp\265/\262g\001\366j\341\354L\211\222\001\317"
 589      4770B52F 
 589      B26701F6 
 589      6AE1EC4C 
 589      899201CF 
 590 1cd9 577187B7 		.ascii	"Wq\207\267\3366\226\237\303\272\317`\235\266\202e\270"
 590      DE36969F 
 590      C3BACF60 
 590      9DB68265 
 590      B8
 591 1cea 4429472B 		.ascii	"D)G+\031G\374\202m,\236/\326\251\277i\005\313o\314\027"
 591      1947FC82 
 591      6D2C9E2F 
 591      D6A9BF69 
 591      05CB6FCC 
 592 1cff 7B76A2D9 		.ascii	"{v\242\3316\026\317\327\004\006\353\335_Z\3002q\325"
 592      3616CFD7 
 592      0406EBDD 
 592      5F5AC032 
 592      71D5
 593 1d11 273158E3 		.ascii	"'1X\343mcq|\311\207\231z\234n\005\313xeKnb\260\346\333"
 593      6D63717C 
 593      C987997A 
 593      9C6E05CB 
 593      78654B6E 
 594 1d29 C6E2CB6B 		.ascii	"\306\342\313k*w\012\3463+h\206\377\363 \313{\031\316"
 594      2A770AE6 
 594      332B6886 
 594      FFF320CB 
 594      7B19CE
 595 1d3c 96DAC6E2 		.ascii	"\226\332\306\342K\354\004\203\265\322\012Vg\343\232"
 595      4BEC0483 
 595      B5D20A56 
 595      67E39A
 596 1d4b 9CCE49B9 		.ascii	"\234\316I\271\3166\232\337P\312MV\260\014\377\347\224"
 596      CE369ADF 
 596      50CA4D56 
 596      B00CFFE7 
 596      94
 597 1d5c 9772AB6D 		.ascii	"\227r\253m,\277`\370a\355\253$\276\343%\236\323\273"
 597      2CBF60F8 
 597      61EDAB24 
 597      BEE3259E 
 597      D3BB
 598 1d6e 5EE2D28D 		.ascii	"^\342\322\215D\372\036\322\017\220\216F:\026\351x\244"
 598      44FA1ED2 
 598      0F908E46 
 598      3A16E978 
 598      A4
ARM GAS  /tmp/ccGvYF46.s 			page 49


 599 1d7f 13914E46 		.ascii	"\023\221NF:\025\351t\2443\221\316F:\027\351|\244\013"
 599      3A15E974 
 599      A43391CE 
 599      463A17E9 
 599      7CA40B
 600 1d92 907EECE5 		.ascii	"\220~\354\345\226p\277\372\245\246;\342\373\200\244"
 600      9670BFFA 
 600      A5A63BE2 
 600      FB80A4
 601 1da1 4E7374C3 		.ascii	"Nst\303l\305\241'\347\340\325\003\360\367\314=K\223"
 601      6CC5A127 
 601      E7E0D503 
 601      F0F7CC3D 
 601      4B93
 602 1db3 3F5BADC5 		.ascii	"?[\255\305\335\213\344\255\230\2228\324e\001\313d\340"
 602      DD8BE4AD 
 602      989238D4 
 602      6501CB64 
 602      E0
 603 1dc4 BAFF0EED 		.ascii	"\272\377\016\355\200\350\204O\235VR~zG\017\216o\206"
 603      80E8844F 
 603      9D56527E 
 603      7A470F8E 
 603      6F86
 604 1dd6 07DC8435 		.ascii	"\007\334\2045\372\032\313CZ0\376\245\225Jt\233h\314"
 604      FA1ACB43 
 604      5A30FEA5 
 604      954A749B 
 604      68CC
 605 1de8 DC2144A3 		.ascii	"\334!D\243\007\015O$\240q\307\012\225h\324a\214v\004"
 605      070D4F24 
 605      A071C70A 
 605      9568D461 
 605      8C7604
 606 1dfb D1E882C4 		.ascii	"\321\350\202\304\331\204*\345\226\037\224\350;Nc\264"
 606      D9842AE5 
 606      961F94E8 
 606      3B4E63B4 
 607 1e0b A30CDA65 		.ascii	"\243\014\332eKh+M\320\216#\032\235umL\250\004n\216U"
 607      4B682B4D 
 607      D08E231A 
 607      9D756D4C 
 607      A8046E8E 
 608 1e20 899ED343 		.ascii	"\211\236\323C\323o@\367\230\241\307}\034z4\343\230h"
 608      D36F40F7 
 608      98A1C77D 
 608      1C7A34E3 
 608      9868
 609 1e32 302AFB50 		.ascii	"0*\373P\244\013\221.B\372\031\322\305H\227 ]\206t\005"
 609      A40B912E 
 609      42FA19D2 
 609      C5489720 
 609      5D867405 
 610 1e46 D2956CE3 		.ascii	"\322\225l\3430\362r\357\244\351o\346q\010\203\037\327"
 610      30F272EF 
 610      A4E96FE6 
 610      7108831F 
ARM GAS  /tmp/ccGvYF46.s 			page 50


 610      D7
 611 1e57 1DABACFB 		.ascii	"\035\253\254\373\346\302\343\207\350X\205\244U_\275"
 611      E6C2E387 
 611      E85885A4 
 611      555FBD
 612 1e66 74D3D099 		.ascii	"t\323\320\231Wr\320\367\346\215\222)\014\255\366r\336"
 612      5772D0F7 
 612      E68D9229 
 612      0CADF672 
 612      DE
 613 1e77 FCBF89CE 		.ascii	"\374\277\211\316\211.\364\351\033*\033&\255\337\354"
 613      892EF4E9 
 613      1B2A1B26 
 613      ADDFEC
 614 1e86 9E2C6FA2 		.ascii	"\236,o\242C\017\353\023$\033\274\232\375\366d,\245\035"
 614      430FEB13 
 614      241BBC9A 
 614      FDF6642C 
 614      A51D
 615 1e98 B129DFAD 		.ascii	"\261)\337\255N\230\354o\334\373\330J\334\270\262\031"
 615      4E98EC6F 
 615      DCFBD84A 
 615      DCB8B219 
 616 1ea8 BDD32D9A 		.ascii	"\275\323-\232\242\263\210\023\255\372\216\354\336\256"
 616      A2B38813 
 616      ADFA8EEC 
 616      DEAE
 617 1eb6 418C9D1A 		.ascii	"A\214\235\032\014I\354\246\331\373\322M\363\007Yw\356"
 617      0C49ECA6 
 617      D9FBD24D 
 617      F3075977 
 617      EE
 618 1ec7 3BE54A2F 		.ascii	";\345J/\336w\010\347\036\347W}\230t/\030m\036\352\026"
 618      DE7708E7 
 618      1EE7577D 
 618      98742F18 
 618      6D1EEA16 
 619 1edb D7BEED68 		.ascii	"\327\276\355h\2765Oj\024\344\252\206C\365\241\035\011"
 619      BE354F6A 
 619      14E4AA86 
 619      43F5A11D 
 619      09
 620 1eec 95362956 		.ascii	"\2256)Vi\3076\\yn\322\022y\030Nli\247\265Lv\253\355"
 620      69C7365C 
 620      796ED212 
 620      79184E6C 
 620      69A7B54C 
 621 1f03 D2D61A39 		.ascii	"\322\326\0329\371\240\341\347\256\001?\265\336\204!"
 621      F9A0E1E7 
 621      AE013FB5 
 621      DE8421
 622 1f12 2170B26A 		.ascii	"!p\262j\316\250C\342\242\205\303\243d`\370\246v`h\302"
 622      CEA843E2 
 622      A285C3A3 
 622      6460F8A6 
 622      766068C2 
 623 1f26 CA1E2D2B 		.ascii	"\312\036-+d(\244ae\242_\237\225}\272\254\334\253\371"
ARM GAS  /tmp/ccGvYF46.s 			page 51


 623      6428A461 
 623      65A25F9F 
 623      957DBAAC 
 623      DCABF9
 624 1f39 6A9C387A 		.ascii	"j\2348z\350\254m\362e\262\251\333\306\030\365\200\226"
 624      E8AC6DF2 
 624      65B2A9DB 
 624      C618F580 
 624      96
 625 1f4a 17D2D7C4 		.ascii	"\027\322\327\304\276\234\024\371\323#\265b\3623w\016"
 625      BE9C14F9 
 625      D323B562 
 625      F233770E 
 626 1f5a 61AE01EF 		.ascii	"a\256\001\357\365\272\274\3275\235|lb*\254\037\363\232"
 626      F5BABCD7 
 626      359D7C6C 
 626      622AAC1F 
 626      F39A
 627 1f6c ED3FFCDC 		.ascii	"\355?\374\334\340\305 $\345\011o\342L\213\336Y;\360"
 627      E0C52024 
 627      E5096FE2 
 627      4C8BDE59 
 627      3BF0
 628 1f7e 2E0D4439 		.ascii	".\015D9\251+J\355\371=\206\006\305L\222\323\246\222"
 628      A92B4AED 
 628      F93D8606 
 628      C54C92D3 
 628      A692
 629 1f90 1C36D893 		.ascii	"\0346\330\223AR\236\321\221\344\351\226:_5r"
 629      41529ED1 
 629      91E4E996 
 629      3A5F3572 
 630 1fa0 D518C875 		.ascii	"\325\030\310uNW\256eK\257yR\221\353\274\251\\s\014<"
 630      4E57AE65 
 630      4BAF7952 
 630      91EBBCA9 
 630      5C730C3C 
 631 1fb4 1992F2A2 		.ascii	"\031\222\362\242\241\\\032A\316\030\010rIW\220\306\352"
 631      A15C1A41 
 631      CE180872 
 631      495790C6 
 631      EA
 632 1fc5 D3AE5404 		.ascii	"\323\256T\004\271l*\310\032\023A\256Z\025\344\216\201"
 632      B96C2AC8 
 632      1A1341AE 
 632      5A15E48E 
 632      81
 633 1fd6 20D77505 		.ascii	" \327u\005\271\262zs\320H\020\023\313s\323T\216/L\344"
 633      B9B27A73 
 633      D0481013 
 633      CB73D354 
 633      8E2F4CE4 
 634 1fea B8AD2387 		.ascii	"\270\255#\207\362\252\247$M\250\362W\372\2025\031X\203"
 634      F2AAA724 
 634      4DA8F257 
 634      FA823519 
 634      5883
ARM GAS  /tmp/ccGvYF46.s 			page 52


 635 1ffc BAD4ACC1 		.ascii	"\272\324\254\301"
 636 2000 3DAD2123 		.ascii	"=\255!#\215<\031\253IX\237f\300\372\020\237~\353oLI"
 636      8D3C19AB 
 636      49589F66 
 636      C0FA109F 
 636      7EEB6F4C 
 637 2015 B986F934 		.ascii	"\271\206\3714\234\237\261\300\271\206\323\217\0148}"
 637      9C9FB1C0 
 637      B986D38F 
 637      0C387D
 638 2024 4797D3E5 		.ascii	"G\227\323\345K\233R\321\236\021ZF/\332gt\231\001\243"
 638      4B9B52D1 
 638      9E115A46 
 638      2FDA6774 
 638      9901A3
 639 2037 EFEB32DA 		.ascii	"\357\3532\332X\275\303\260HM\030\255\3242z\325>\243"
 639      58BDC3B0 
 639      484D18AD 
 639      D4327AD5 
 639      3EA3
 640 2049 510346C7 		.ascii	"Q\003F\307\3512:s\301\227\277I\305+\231\240\345\224"
 640      E9323A73 
 640      C197BF49 
 640      C52B99A0 
 640      E594
 641 205b 3017FBA2 		.ascii	"0\027\373\242\274\004V\303\331W\006\234M\326\345l\332"
 641      BC0456C3 
 641      D957069C 
 641      4DD6E56C 
 641      DA
 642 206c EA8DBF48 		.ascii	"\352\215\277H\241\010\247j\031#\377\341\251ad\277\001"
 642      A108A76A 
 642      1923FFE1 
 642      A96164BF 
 642      01
 643 207d 23D37946 		.ascii	"#\323yF\376A\230M\030\251Z\274e\2668F\206\246-G\233"
 643      FE41984D 
 643      18A95ABC 
 643      65B63846 
 643      86A62D47 
 644 2092 9BC5C761 		.ascii	"\233\305\307a\034.\022?\363L\014E\341eVlD\325Q\001\234"
 644      1C2E123F 
 644      F34C0C45 
 644      E165566C 
 644      44D55101 
 645 20a7 19072460 		.ascii	"\031\007$`\265\2650\206\250\037#\216\223\3458\330)\004"
 645      B5B53086 
 645      A81F238E 
 645      93E538D8 
 645      2904
 646 20b9 BBA0058B 		.ascii	"\273\240\005\213&\274.s\266\002\326QX*\277\023]\354"
 646      26BC2E73 
 646      B602D651 
 646      582ABF13 
 646      5DEC
 647 20cb A44925F1 		.ascii	"\244I%\361\033\221\316\233\023g\214<\367\255\362\335"
 647      1B91CE9B 
ARM GAS  /tmp/ccGvYF46.s 			page 53


 647      13678C3C 
 647      F7ADF2DD 
 648 20db 49F64541 		.ascii	"I\366EA\207\242|\275\211.\020\030D\345\373;\016\372"
 648      87A27CBD 
 648      892E1018 
 648      44E5FB3B 
 648      0EFA
 649 20ed 7D84837E 		.ascii	"}\204\203~O\243\303\222Q\361\257\244\304]D\305\343\267"
 649      4FA3C392 
 649      51F1AFA4 
 649      C45D44C5 
 649      E3B7
 650 20ff 7E4E9434 		.ascii	"~N\2244\376\225\340\217\341\022\020)\306\361\210\023"
 650      FE95E08F 
 650      E1121029 
 650      C6F18813 
 651 210f E25FA37F 		.ascii	"\342_\243\177UJ\"Z\033\235Z\345\223\307\310h.\351\237"
 651      554A225A 
 651      1B9D5AE5 
 651      93C7C868 
 651      2EE99F
 652 2122 5F38841B 		.ascii	"_8\204\033\332B\320\371\233\214y|\221B\375L\\2j\275"
 652      DA42D0F9 
 652      9B8C797C 
 652      9142FD4C 
 652      5C326ABD 
 653 2136 B86FBE0C 		.ascii	"\270o\276\014\356\254,7\213\315\317\251o\016\331\371"
 653      EEAC2C37 
 653      8BCDCFA9 
 653      6F0ED9F9 
 654 2146 0FDA32E5 		.ascii	"\017\3322\345\337\023B\340>L\200\2732g\323\177}2\204"
 654      DF1342E0 
 654      3E4C80BB 
 654      3267D37F 
 654      7D3284
 655 2159 B408F936 		.ascii	"\264\010\3716\2409\3257\367\327%\240q\357\351\307yt"
 655      A039D537 
 655      F7D725A0 
 655      71EFE9C7 
 655      7974
 656 216b 2D5874F1 		.ascii	"-Xt\361\011(\022\344\253\371M\025\350`r\240Ot\364f\363"
 656      092812E4 
 656      ABF94D15 
 656      E86072A0 
 656      4F74F466 
 657 2180 60712CAB 		.ascii	"`q,\2537\247\351\377\011h\301^U\261\324\215\031\013"
 657      37A7E9FF 
 657      0968C15E 
 657      55B1D48D 
 657      190B
 658 2192 39B5C9A0 		.ascii	"9\265\311\240\011\351\213\235\311\223\344\235\343\004"
 658      09E98B9D 
 658      C993E49D 
 658      E304
 659 21a0 E2862B56 		.ascii	"\342\206+VK\263\336\363\010\364m\317\344F\023\276\243"
 659      4BB3DEF3 
 659      08F46DCF 
ARM GAS  /tmp/ccGvYF46.s 			page 54


 659      E44613BE 
 659      A3
 660 21b1 9B3222EF 		.ascii	"\2332\"\357\211~\267#=&\317%<\315sZ\313BB\233\374<."
 660      897EB723 
 660      3D26CF25 
 660      3CCD735A 
 660      CB42429B 
 661 21c8 4E8A4776 		.ascii	"N\212Gv\252\370V\235.\214d\373\377n\306\335\377R\237"
 661      AAF8569D 
 661      2E8C64FB 
 661      FF6EC6DD 
 661      FF529F
 662 21db BAC935F6 		.ascii	"\272\3115\3661zt\261O\177\267+\035\332\032\245Zf\230"
 662      317A74B1 
 662      4F7FB72B 
 662      1DDA1AA5 
 662      5A6698
 663 21ee 8A0CB78D 		.ascii	"\212\014\267\215R-7He\275D\252\265v\216Hj\3514\374\012"
 663      522D3748 
 663      65BD44AA 
 663      B5768E48 
 663      6AE934FC 
 664 2203 438E89ED 		.ascii	"C\216\211\3554J\265\3120\025\321\002\243T\253\015SM"
 664      344AB5CA 
 664      3015D102 
 664      A354AB0D 
 664      534D
 665 2215 30C96B8D 		.ascii	"0\311k\215a\252J\223Tk\015S\2150I\265\3160\3250\223"
 665      61AA4A93 
 665      546B0D53 
 665      8D3049B5 
 665      CE30D530 
 666 222a 54EB0D53 		.ascii	"T\353\015S\3353\251\365\015\206\251n\232\244\212\306"
 666      DD33A9F5 
 666      0D86A96E 
 666      9AA48AC6 
 667 223a 53E9ADF5 		.ascii	"S\351\255\365\305f?_\025b\2632K\253G]\020W\340\264\314"
 667      C5663F5F 
 667      1562B332 
 667      4BAB475D 
 667      1057E0B4 
 668 224f 461FEE63 		.ascii	"F\037\356c\371\307\344\213\206\034\020\311\370\013\237"
 668      F9C7E48B 
 668      861C10C9 
 668      F80B9F
 669 225e 66D1F01E 		.ascii	"f\321\360\036\375{\007r?\311\262\341\260\241\321\346"
 669      FD7B0772 
 669      3FC9B2E1 
 669      B0A1D1E6 
 670 226e 23D374DE 		.ascii	"#\323t\336\317L\322\352\011\252D9\315\345\361*\353\023"
 670      CF4CD2EA 
 670      09AA4439 
 670      CDE5F12A 
 670      EB13
 671 2280 DECF6C07 		.ascii	"\336\317l\007\314\317\201\215\251g^\302\273\026\013"
 671      CCCF818D 
 671      A9675EC2 
ARM GAS  /tmp/ccGvYF46.s 			page 55


 671      BB160B
 672 228f 270998C9 		.ascii	"'\011\230\311\241\221q,\330F\333`<g\023X1\217Z\021\323"
 672      A191712C 
 672      D846DB60 
 672      3C671358 
 672      318F5A11 
 673 22a4 E4C0C824 		.ascii	"\344\300\310$\226\263\032+\234\231\034\027\231\302\202"
 673      96B31A2B 
 673      9C991C17 
 673      99C282
 674 22b3 7D6905CC 		.ascii	"}i\005\314\344\375\314\323X\260Z\333`<g3X\260\003V\300"
 674      E4FDCCD3 
 674      58B05ADB 
 674      603C6733 
 674      58B00356 
 675 22c8 FCC69C2D 		.ascii	"\374\306\234-f\301\352m\203\361\234-a\301NX\0013\371"
 675      66C1EA6D 
 675      83F19C2D 
 675      61C14E58 
 675      0133F9
 676 22db 6BDD652C 		.ascii	"k\335e,\330i\333`<g+X\260o\254\200\031\376\265\356\340"
 676      D869DB60 
 676      3C672B58 
 676      B06FAC80 
 676      19FEB5EE 
 677 22f0 E8CA7FAF 		.ascii	"\350\312\177\257\224\330\215\226\314\377\003j\337\177"
 677      94D88D96 
 677      CCFF036A 
 677      DF7F
 678 22fe C93E5623 		.ascii	"\311>V#\032>\006\303`\237\272=Y}\205\236\366+\3706n"
 678      1A3E06C3 
 678      609FBA3D 
 678      597D859E 
 678      F62BF836 
 679 2313 4DFBD0DD 		.ascii	"M\373\320\335\214`\3627\276\253\331R\270`\245\024:\033"
 679      8C60F237 
 679      BEABD952 
 679      B860A514 
 679      3A1B
 680 2325 83AD65C1 		.ascii	"\203\255e\301.[\0013\371\177\333\365,\330u\333`<g\265"
 680      2E5B0133 
 680      F97FDBF5 
 680      2CD875DB 
 680      603C67B5 
 681 2339 2CD81D2B 		.ascii	",\330\035+`\275\2159\333\303\202\335\265\015\306r68"
 681      60BD8D39 
 681      DBC382DD 
 681      B50DC672 
 681      3638
 682 234b BA2FAE39 		.ascii	"\272/\2569\263:kT\2473o.\271\307\030\325\321<\006.\255"
 682      B33A6B54 
 682      A7336F2E 
 682      B9C718D5 
 682      D13C062E 
 683 2360 CFEE4EDE 		.ascii	"\317\356N\336\357|\372;y\331\205\204\370S \366\220'"
 683      EF7CFA3B 
 683      79D98584 
ARM GAS  /tmp/ccGvYF46.s 			page 56


 683      F85320F6 
 683      9027
 684 2372 3462734C 		.ascii	"4bsL(Q\275%M\275\017\333\323\302x\325G\326\037j|d\035"
 684      2851BD25 
 684      4DBD0FDB 
 684      D3C278D5 
 684      47D61F6A 
 685 2389 6B2BD26D 		.ascii	"k+\322mH\277D\372\025\322\235Hw#\255C\272\027\351~\244"
 685      48BF44FA 
 685      15D29D48 
 685      7723AD43 
 685      BA17E97E 
 686 239e 07911E46 		.ascii	"\007\221\036FZ\217\364\030\322\006\244\247\220~\215"
 686      5A8FF418 
 686      D206A4A7 
 686      907E8D
 687 23ad F42CD273 		.ascii	"\364,\322sH\317\373\230%\017\215{\262\321\240~\011\357"
 687      48CFFB98 
 687      250F8D7B 
 687      B2D1A07E 
 687      09EF
 688 23bf DF1B3A35 		.ascii	"\337\033:5{L\234\232\313\206\251.\233\244\272b\230\352"
 688      7B4C9C9A 
 688      CB86A92E 
 688      9BA4BA62 
 688      98EA
 689 23d1 BC49AAAB 		.ascii	"\274I\252\253\206\251\310\226a\243T\327\014S\2356\311"
 689      86A9C896 
 689      61A354D7 
 689      0C539D36 
 689      C9
 690 23e2 EBBA61AA 		.ascii	"\353\272a\252c&\251n\030\246:`\222\352\246a\252]&\251"
 690      6326A96E 
 690      18A63A60 
 690      92EAA661 
 690      AA5D26A9 
 691 23f6 6EC55329 		.ascii	"n\305S)[\256g\234\032u\037_V\217\203\361Y^\315 \204"
 691      5BAE679C 
 691      1A751F5F 
 691      568F83F1 
 691      595ECD20 
 692 240b AC371981 		.ascii	"\2547\031\201\335QF!\361\201\207C\330\361\204vv\005"
 692      DD514621 
 692      F1818743 
 692      D8F18476 
 692      7605
 693 241d 174087C8 		.ascii	"\027@\207\310K>\"K\247\364\305]\222x\333g\272\376\331"
 693      4B3E224B 
 693      A7F4C55D 
 693      9278DB67 
 693      BAFED9
 694 2430 C8CFC508 		.ascii	"\310\317\305\010\356\300\363ee\3059\355\007\224\225"
 694      EEC0F365 
 694      65C539ED 
 694      079495
 695 243f 04DB1794 		.ascii	"\004\333\027\224\025\276\321\27608\260}\301\200\242"
 695      15BED1BE 
ARM GAS  /tmp/ccGvYF46.s 			page 57


 695      3038B07D 
 695      C180A2
 696 244e BE4565E1 		.ascii	"\276Ee\341\366\221PE\351\337\333Cd\200T\334\276\274"
 696      F6915045 
 696      E9DFDB43 
 696      648054DC 
 696      BEBC
 697 2460 2C1409B7 		.ascii	",\024\011\267\317\313\357\331!\213\322n\035\007\015"
 697      CFCBEFD9 
 697      218BD26E 
 697      1D070D
 698 246f 6A2F1516 		.ascii	"j/\025\026\004\212\213\013\237\032 \370\272\344d\347"
 698      048A8B0B 
 698      9F1A20F8 
 698      BAE464E7 
 699 247f 848A0606 		.ascii	"\204\212\006\006C\236\027^\352\343\317\026\262\254\240"
 699      439E175E 
 699      EAE3CF16 
 699      B2ACA0
 700 248e 16951614 		.ascii	"\026\225\026\024W\024\006\011\016`\264\200K8\"E\202"
 700      57140609 
 700      0E60B480 
 700      4B382245 
 700      82
 701 249f 81480B80 		.ascii	"\201H\013\200\013\364y\251\373K\335\363\275$\232\227"
 701      0BF479A9 
 701      FB4BDDF3 
 701      BD249A97 
 702 24af DFAB37C9 		.ascii	"\337\2537\311\"\220\333\265K\316+\370k\227\354\374\356"
 702      2290DBB5 
 702      4BCE2BF8 
 702      6B97ECFC 
 702      EE
 703 24c0 7FE99A4E 		.ascii	"\177\351\232N\242\331\275z\366\356\3215\277+>\32157"
 703      A2D9BD7A 
 703      F6EED135 
 703      BF2B3ED1 
 703      3537
 704 24d2 B757AE1B 		.ascii	"\267W\256\033q\236h_\021\016\265\227B%\277+-+\015\376"
 704      719E685F 
 704      110EB597 
 704      4225BF2B 
 704      2D2B0DFE 
 705 24e6 2E28F52D 		.ascii	".(\365-\212e\031\216\024\026\225F Wo\005\\;d\005\"\035"
 705      8A65198E 
 705      14169546 
 705      20576F05 
 705      5C3B6405 
 706 24fc 4D9E2E91 		.ascii	"M\236.\221\200\377\322`\373@a\260\237TQ\034\011D\336"
 706      80FFD260 
 706      FB4061B0 
 706      9F54511C 
 706      0944DE
 707 250f 280F8609 		.ascii	"(\017\206\011\317\201\200\232\336]XQR\362\006\341!\273"
 707      CF81809A 
 707      DE5D5851 
 707      52F206E1 
ARM GAS  /tmp/ccGvYF46.s 			page 58


 707      21BB
 708 2521 ACB45F51 		.ascii	"\254\264_Q\177O\001^Z\022\251\244\222\362b\020\013\363"
 708      7F4F015E 
 708      5A12A9A4 
 708      92F26210 
 708      0BF3
 709 2533 CA7C1AE4 		.ascii	"\312|\032\344\243\311H4\215\376\030\316\302\354\213"
 709      A3C94834 
 709      8DFE18CE 
 709      C2EC8B
 710 2542 8BFAB6EF 		.ascii	"\213\372\266\357_P\240a\243\343S\235\236\352\310\262"
 710      5F50A061 
 710      A3E3539D 
 710      9EEAC8B2 
 711 2552 0E6C40E6 		.ascii	"\016l@\346\236p\321\377\016\222\214\203\345\221\001"
 711      9E70D1FF 
 711      0E928C83 
 711      E59101
 712 2561 DE82A250 		.ascii	"\336\202\242PAE\261\024jKj\245`\200TZ\032,\016\007J"
 712      4145B114 
 712      6A4B6AA5 
 712      6080545A 
 712      1A2C0E07 
 713 2576 2B4A0291 		.ascii	"+J\002\221tB\325[\017\300\357\005Rqq_\251\340\357\201"
 713      7442D55B 
 713      0FC0EF05 
 713      5271715F 
 713      A9E0EF81 
 714 258a 8827585A 		.ascii	"\210'XZ\030(\350K\312>\030\012\225\205\002\221\266J"
 714      1828E84B 
 714      CA3E180A 
 714      95850291 
 714      B64A
 715 259c 2906727A 		.ascii	")\006rzv\351\326\245{\217>\271][\253\267z\375\245kn"
 715      76E9D6A5 
 715      7B8F3EB9 
 715      5D5BABB7 
 715      7AFDA56B 
 716 25b1 B71EBDFE 		.ascii	"\267\036\275\376\255\255\372x\034\310K\223\027\364u"
 716      ADADFA78 
 716      1CC84B93 
 716      17F475
 717 25c0 16843221 		.ascii	"\026\2042!d\271\303%\345\241L\244Y\256\360k\241LB0\326"
 717      64B9C325 
 717      E5A14CA4 
 717      59AEF06B 
 717      A14C4230 
 718 25d5 A12D2D24 		.ascii	"\241--$\320\226pQY\351\013\241\262\212rW\377Pyy\247"
 718      D0967051 
 718      59E90BA1 
 718      B28A7257 
 718      FF507979 
 719 25ea 644A138A 		.ascii	"dJ\023\212\304J\241`@\370\215\260Z\015\336\310\200P"
 719      C44AA160 
 719      40F88DB0 
 719      5A0DDEC8 
 719      8050
ARM GAS  /tmp/ccGvYF46.s 			page 59


 720 25fc 502A0C44 		.ascii	"P*\014D|\005\003\0024\336\321\036V\301\000\242\306\236"
 720      7C050302 
 720      34DED11E 
 720      56C100A2 
 720      C69E
 721 260e F2406970 		.ascii	"\362@ipP\004.\345\241\340\300\027-@\320\206\321%\267"
 721      50042EE5 
 721      A1E0C017 
 721      2D40D086 
 721      D125B7
 722 2621 6776CF41 		.ascii	"gv\317A\360dIyQ1H\325\376\205\354lx\\e/-R\036**\013"
 722      F0644979 
 722      513148D5 
 722      FE85EC6C 
 722      785C652F 
 723 263b 50DCA2B2 		.ascii	"P\334\242\2624\320\214\010d\363\007\333\370\003\012"
 723      34D08C08 
 723      64F307DB 
 723      F8030A
 724 264a CA424100 		.ascii	"\312BA\000lIn\007@\203\012\"\203\376\224\032J`\3403"
 724      6C496E07 
 724      40830A22 
 724      83FE941A 
 724      4A60E033 
 725 265e 25A4E442 		.ascii	"%\244\344B\301\376\240l\201\2103\234\3714\204g t\202"
 725      C1FEA06C 
 725      8188339C 
 725      F9348467 
 725      207482
 726 2671 F0076738 		.ascii	"\360\007g8+\003B&\204,\010\035 t\204\360{\010\360\\"
 726      2B034226 
 726      842C081D 
 726      207484F0 
 726      7B08F05C 
 727 2685 163C9705 		.ascii	"\026<\227\005\317e\301s\035\340\271\016\231\216PGG\350"
 727      CF65C173 
 727      1DE0B90E 
 727      998E5047 
 727      47E8
 728 2697 F78ED0D3 		.ascii	"\367\216\320\323\216\3203\216P'G\350\017\316Pf\006\204"
 728      8ED0338E 
 728      502747E8 
 728      0FCE5066 
 728      0684
 729 26a9 4C477108 		.ascii	"LGq\010.\035\334\345\001\3406\215\224\360\353\301\020"
 729      2E1DDCE5 
 729      01E0368D 
 729      94F0EBC1 
 729      10
 730 26ba 5CCB8A0B 		.ascii	"\\\313\212\013\203!\027\250e\210\024\273T\022\364F\224"
 730      832117A8 
 730      658814BB 
 730      5412F446 
 730      94
 731 26cb E69F461A 		.ascii	"\346\237F\032G'\250M\332L \006\217\343oi\221\222\262"
 731      4727A84D 
 731      DA4C2006 
ARM GAS  /tmp/ccGvYF46.s 			page 60


 731      8FE36F69 
 731      9192B2
 732 26de C2207EEF 		.ascii	"\302 ~\357W,\365\017\247EB\301~a,Y\022q\227\204\373"
 732      572CF50F 
 732      A74542C1 
 732      7E612C59 
 732      12719784 
 733 26f3 C38F4A8B 		.ascii	"\303\217J\213\204\344J\314\023*|\003~\362\006\007\025"
 733      84E44ACC 
 733      132A7C03 
 733      7EF20607 
 733      15
 734 2704 45A0A082 		.ascii	"E\240\240\202\236\327#e}\377V\336280X\032)\221\302\330"
 734      9ED72365 
 734      7DFF56DE 
 734      32383058 
 734      1A2991C2 
 735 2719 105E2711 		.ascii	"\020^'\021gy\240\242\025\325\240p\240\270(\014M\375"
 735      6779A0A2 
 735      15D5A070 
 735      A0B8280C 
 735      4DFD
 736 272b C1984ED1 		.ascii	"\301\230N\321;\276\362\300\353RQ\244\250\264\377\203"
 736      3BBEF2C0 
 736      EB5251A4 
 736      A8B4FF83 
 737 273b EAEDD72A 		.ascii	"\352\355\327*\202\025\300Uk\346I\274\325\242<\000\331"
 737      8215C055 
 737      6BE649BC 
 737      D5A23C00 
 737      D9
 738 274c 62D48D51 		.ascii	"b\324\215Q\270\021,\207&\007\211\335%\025\240\004\035"
 738      B8112C87 
 738      260789DD 
 738      2515A004 
 738      1D
 739 275d 6CA96949 		.ascii	"l\251iId\020Q\247\022\212\016\327\262\327K\241,\021"
 739      641051A7 
 739      128A0ED7 
 739      B2D74BA1 
 739      2C11
 740 276f 09442841 		.ascii	"\011D(A\355\005\376\3409\302i\013R*R1\352\034\334,\007"
 740      ED05FEE0 
 740      39C2690B 
 740      522A5231 
 740      EA1CDC2C 
 741 2784 6BFF8CAD 		.ascii	"k\377\214\255\374\024a \317\266J\013\203R\016\206\202"
 741      FC146120 
 741      CFB64A0B 
 741      83520E86 
 741      82
 742 2795 A50520AD 		.ascii	"\245\005 \255\207\336\372c2D`\251}v\317\274\356y\320"
 742      87DEFA63 
 742      324460A9 
 742      7D76CFBC 
 742      EE79D0
 743 27a8 7380F12A 		.ascii	"s\200\361*\351\220\325\257cF\346 b\362[\022\303\222"
ARM GAS  /tmp/ccGvYF46.s 			page 61


 743      E990D5AF 
 743      6346E620 
 743      62F25B12 
 743      C392
 744 27ba 0FAD2427 		.ascii	"\017\255$'\330\317\221\227\353\314\316\315\204\220\345"
 744      D8CF9197 
 744      EBCCCECD 
 744      8490E5
 745 27c9 CEEBD93B 		.ascii	"\316\353\331;7\023i"
 745      371369
 746 27d0 96FBCFBD 		.ascii	"\226\373\317\275\272A\234P\032\357\200\264\243\363\305"
 746      BA419C50 
 746      1AEF80B4 
 746      A3F3C5
 747 27df FC5C678F 		.ascii	"\374\\g\217\374\\W\336\277\346f\022\222EH\007\327\237"
 747      FC5C57DE 
 747      BFE66612 
 747      92454807 
 747      D79F
 748 27f1 81BAFE9C 		.ascii	"\201\272\376\234\003\367\200d\021\322\201\220\216\216"
 748      03F78064 
 748      11D28190 
 748      8E8E
 749 27ff 9C5C2758 		.ascii	"\234\\'X\255n\251\367v\310z\240\260D\"\305\001\3061"
 749      AD6EA9F7 
 749      76C87AA0 
 749      B04422C5 
 749      01C631
 750 2812 9007CA27 		.ascii	"\220\007\312'\225\304\370\317\316u\275\224\003L\365"
 750      95C4F8CF 
 750      CE75BD94 
 750      034CF5
 751 2821 EE92EBEA 		.ascii	"\356\222\353\352\231AHf\227\\g\267\354\\O\030\037t\025"
 751      99414866 
 751      975C67B7 
 751      EC5C4F18 
 751      1F7415
 752 2834 F52B0879 		.ascii	"\365+\010y\212\302\003\212\372E|\341`q\277\242\322\302"
 752      8AC2038A 
 752      FA457CE1 
 752      6071BFA2 
 752      D2C2
 753 2846 E020CFC0 		.ascii	"\340 \317\300`A\244,\3246\206\036\240OC\371\302\227"
 753      6041A42C 
 753      D436861E 
 753      A04F43F9 
 753      C297
 754 2858 70A43C0D 		.ascii	"p\244<\015.D\351\333\320\3765\334\2768\\\322!\243\003"
 754      2E44E9DB 
 754      D0FE35DC 
 754      BE385CD2 
 754      21A303
 755 286b 69BB3416 		.ascii	"i\2734\026\210\374D\375\251(\253 \020\016\226\206\313"
 755      88FC44FD 
 755      A928AB20 
 755      100E9686 
 755      CB
ARM GAS  /tmp/ccGvYF46.s 			page 62


 756 287c 42A470BB 		.ascii	"B\244p\273ge\347\341\027\320\341x\034\333\221\267\373"
 756      6765E7E1 
 756      17D0E178 
 756      1CDB91B7 
 756      FB
 757 288d 4BB40375 		.ascii	"K\264\003uu\317\351\321\325\365|\237\274W\322\244\302"
 757      75CFE9D1 
 757      D5F57C9F 
 757      BC57D2A4 
 757      C2
 758 289e C250301C 		.ascii	"\302P0\034\266\355\017\364\350\221\323\036\340\007f"
 758      B6ED0FF4 
 758      E891D31E 
 758      E00766
 759 28ad 62F68A3F 		.ascii	"b\366\212?\0007(S\266\034\001\000 \235*\\TG\000pTG\200"
 759      00372853 
 759      B61C0100 
 759      209D2A5C 
 759      54470070 
 760 28c4 44D11120 		.ascii	"D\321\021 \021t\004\036 1*G \377e\366[\356\313\230\262"
 760      1174041E 
 760      20312A47 
 760      20FF65F6 
 760      5BEECB98 
 761 28d9 47AFECFF 		.ascii	"G\257\354\377\3255\247%\340\225\225S\303\321\242W\357"
 761      D535A725 
 761      E0959553 
 761      C3D1A257 
 761      EF
 762 28ea 9EBD72BA 		.ascii	"\236\275r\272\006\340\327\207\224h^O\020?\220\323\365"
 762      06E0D787 
 762      94685E4F 
 762      103F90D3 
 762      F5
 763 28fb 2FDDB3BB 		.ascii	"/\335\263\273\266\341\356\275\330+/?\255\014Z\016$m"
 763      B6E1EEBD 
 763      D82B2F3F 
 763      AD0C5A0E 
 763      246D
 764 290d 59505C06 		.ascii	"YP\\\006\375\\\270<\030,l\005\200\205\025\2217\012\336"
 764      FD5CB83C 
 764      182C6C05 
 764      80851591 
 764      370ADE
 765 2920 2820DD7A 		.ascii	"( \335z\253\274\374\234@N\237\374W\002\331\257d\367"
 765      ABBCFC9C 
 765      404E9FFC 
 765      5702D9AF 
 765      64F7
 766 2932 E8DAA65B 		.ascii	"\350\332\246[\227\274|\346{ \353a\355\035\350\370\377"
 766      97BC7CE6 
 766      7B20EB61 
 766      ED1DE8F8 
 766      FF
 767 2943 D0822004 		.ascii	"\320\202 \004\020\202HD\235\006\":\0326b\220H\207\032"
 767      10824844 
 767      9D06223A 
ARM GAS  /tmp/ccGvYF46.s 			page 63


 767      1A366290 
 767      48871A
 768 2956 F6C11D52 		.ascii	"\366\301\035R3\201\210\213\\|\241A\212>\370\"j\314\015"
 768      3381888B 
 768      5C7CA141 
 768      8A3EF822 
 768      6ACC0D
 769 2969 D7D02042 		.ascii	"\327\320 B#\203H\245\253\032\351\352\325\005\232\001"
 769      238348A5 
 769      AB1AE9EA 
 769      D5059A01 
 770 2979 902C671E 		.ascii	"\220,g\0364\254<\270fg\347\272\363s\273\347uuu\203\266"
 770      34AC3CB8 
 770      6667E7BA 
 770      F373BBE7 
 770      75757583 
 771 298e E3046C1F 		.ascii	"\343\004l\037\351F\213J\210M%\227\262\212\210\213\330"
 771      E9468B4A 
 771      884D2597 
 771      B28A888B 
 771      D8
 772 299f 627764D0 		.ascii	"bwd\320\363\025\375\334!B}RA\001U\036_\211\324\237\306"
 772      F315FDDC 
 772      21427D52 
 772      4101551E 
 772      5F89D49F 
 773 29b4 3CD42E7B 		.ascii	"<\324.{\321\304B$]\352[\321/PPV\001=[(\275\204\371\002"
 773      D1C44224 
 773      5DEA5BD1 
 773      2F505056 
 773      013D5B28 
 774 29cc 7C4A00D2 		.ascii	"|J\000\322\017c%J,\024\273\027R\357\305\364\273$\374"
 774      0F63254A 
 774      2C14BB17 
 774      52EFC5F4 
 774      BB24FC
 775 29df FBA7339E 		.ascii	"\373\2473\236!\372McP\024T\247\235\340mx\213\241M\344"
 775      21FA4D63 
 775      501454A7 
 775      9DE06D78 
 775      8BA14DE4 
 776 29f3 074BCA7D 		.ascii	"\007K\312}$\322\233(\254\027Y\005\004oH\211\374\336"
 776      24D29B28 
 776      AC175905 
 776      046F4889 
 776      FCDE
 777 2a05 8ECE8583 		.ascii	"\216\316\205\203\241\"\251\030\262K\317\303\030e\343"
 777      A122A918 
 777      B24BCFC3 
 777      1865E3
 778 2a14 41F6CB5F 		.ascii	"A\366\313_z\346\273_\017\025E\202.b\360\234\345\025"
 778      7AE6BB5F 
 778      0F154582 
 778      2E62F09C 
 778      E515
 779 2a26 1167FF60 		.ascii	"\021g\377`\304\005\327\210\013\"\021\017\376\030q\223"
 779      C405D788 
ARM GAS  /tmp/ccGvYF46.s 			page 64


 779      0B22110F 
 779      FE187193 
 780 2a36 5F23CE81 		.ascii	"_#\316\201%\221\247mYY\354\205\210\221m\205\261@\270"
 780      2591A76D 
 780      5959EC85 
 780      88916D85 
 780      B140B8
 781 2a49 AC22440C 		.ascii	"\254\"D\014l:\373\2655\375B\314z\020l>h\035\177#-X\214"
 781      6C3AFBB5 
 781      35FD42CC 
 781      7A106C3E 
 781      681D7F23 
 782 2a60 D6BF255C 		.ascii	"\326\277%\\\325{>\210Sp\012\245h\226\027nc\224\374\376"
 782      D57B3E88 
 782      53700AA5 
 782      6896176E 
 782      6394FCFE 
 783 2a74 3AED4783 		.ascii	":\355G\203aL\355\306\347|\341B\245\375\371\362r\224"
 783      614CEDC6 
 783      E77CE142 
 783      A5FDF9F2 
 783      7294
 784 2a86 E6970631 		.ascii	"\346\227\0061\322\372\274p\305\306gOF\354\260\210\214"
 784      D2FABC70 
 784      C5C6674F 
 784      46ECB088 
 784      8C
 785 2a97 0F149542 		.ascii	"\017\024\225B\271\251=f\013p\213\224\250W\215\372^S"
 785      B9A93D66 
 785      0B708B94 
 785      A8578DFA 
 785      5E53
 786 2aa9 FB578829 		.ascii	"\373W\210)J\344}-\320\027\253\326\375Z RV\236\006\217"
 786      4AE47D2D 
 786      D017ABD6 
 786      FD5A2052 
 786      569E068F 
 787 2abd 84CA2321 		.ascii	"\204\312#!\270\206\012\341\352{\255\264,R\324\357\015"
 787      B8860AE1 
 787      EA7BADB4 
 787      2C52D4EF 
 787      0D
 788 2ace 40792D40 		.ascii	"@y-@\243\236\327\240\030J\377\356)B\314V\240\327L\266"
 788      A39ED7A0 
 788      184AFFEE 
 788      2942CC56 
 788      A0D74CB6 
 789 2ae2 9E328C38 		.ascii	"\2362\2148\212\372:\312\372>\320'\257Kn\276\332h\234"
 789      8AFA3ACA 
 789      FA3ED027 
 789      AF4B6EBE 
 789      DA689C
 790 2af5 CFE7927E 		.ascii	"\317\347\222~\250\203\353\205\374\336\271\356\212\260"
 790      A883EB85 
 790      FCDEB9EE 
 790      8AB0
 791 2b03 148AC434 		.ascii	"\024\212\30443\\\364L\306\240\014\242\2314\026\210\264"
ARM GAS  /tmp/ccGvYF46.s 			page 65


 791      335CF44C 
 791      C6A00CA2 
 791      99341688 
 791      B4
 792 2b14 5122A087 		.ascii	"Q\"\240\207e\305\025\021\360f\335/v\312\317\314\362"
 792      65C51511 
 792      F066DD2F 
 792      76CACFCC 
 792      F2
 793 2b25 BC989991 		.ascii	"\274\230\231\221\237\331\001.\231\371\231\231p\311\312"
 793      9FD9012E 
 793      99F99999 
 793      70C9CA
 794 2b34 CFECE884 		.ascii	"\317\354\350\204\247<\003\202P\260qe\217\224\224g=\363"
 794      A73C0382 
 794      50B07165 
 794      8F949467 
 794      3DF3
 795 2b46 7B746131 		.ascii	"{ta1\026\210\347\326\027nt\302\334h\014\024\"\246\363"
 795      1688E7D6 
 795      176E74C2 
 795      DC680C14 
 795      22A6F3
 796 2b59 15A1A098 		.ascii	"\025\241\240\230/\366N\352=\014\224\240\357\257\010"
 796      2FF64EEA 
 796      3D0C94A0 
 796      EFAF08
 797 2b68 C30FE004 		.ascii	"\303\017\340\004\200\002\000\232=\017\200vF\244\342"
 797      8002009A 
 797      3D0F8076 
 797      46A4E2
 798 2b77 1E7E5E0A 		.ascii	"\036~^\012\007\363\202Pp\245\021h\031\264\363\373\231"
 798      07F38250 
 798      70A51168 
 798      19B4F3FB 
 798      99
 799 2b88 DE4D682E 		.ascii	"\336Mh.^5C'D\234\375J\"\255\303JO\204>\303S\005B:\275"
 799      5E354327 
 799      449CFD4A 
 799      22ADC34A 
 799      4F843EC3 
 800 2ba1 918FDF9D 		.ascii	"\221\217\337\235R\250\277\346\011h\015\354\023\240\212"
 800      52A8BFE6 
 800      09680DEC 
 800      13A08A
 801 2bb0 E1E260B0 		.ascii	"\341\342`\260<\037lT\032pZ\012\352\241@\344H\021\011"
 801      3C1F6C54 
 801      1A705A0A 
 801      EAA140E4 
 801      481109
 802 2bc3 FC57F079 		.ascii	"\374W\360y\322\"`\030\236/)\307+\024&^s#\205-\310\265"
 802      D2226018 
 802      9E2F29C7 
 802      2B14265E 
 802      7323852D 
 803 2bd9 271A136F 		.ascii	"'\032\023o9)>x\306\207\221\236\345\203JZ\322\030\376"
 803      39293E78 
ARM GAS  /tmp/ccGvYF46.s 			page 66


 803      C687919E 
 803      E5834A5A 
 803      D218FE
 804 2bec 9C36A0A2 		.ascii	"\2346\240\242\244\260{i\004\257]\007E\274\344\372tF"
 804      A4B07B69 
 804      04AF5D07 
 804      45BCE4FA 
 804      7446
 805 2bfe 870C17D8 		.ascii	"\207\014\027\330\300\227\011y\205\220\277\272\300\020"
 805      C0970979 
 805      8590BFBA 
 805      C010
 806 2c0c BE4CC82B 		.ascii	"\276L\310+\204\374\325U\010<xh5yh\257\354\241\306\313"
 806      84FCD555 
 806      083C7868 
 806      357968AF 
 806      ECA1C6CB 
 807 2c20 07859007 		.ascii	"\007\205\220\007:\222\225\341\203\346Ec\036Z\325\255"
 807      3A9295E1 
 807      83E64563 
 807      1E5AD5AD 
 808 2c30 59F9F240 		.ascii	"Y\371\362@\253m\015\001\241\304\210+8P\302\326\336*"
 808      AB6D0D01 
 808      A1C4882B 
 808      3850C2D6 
 808      DE2A
 809 2c42 10E85F5A 		.ascii	"\020\350_ZQ\020P\276\266\374\227\276\025E\305\221\337"
 809      511050BE 
 809      B6FC97BE 
 809      1545C591 
 809      DF
 810 2c53 15953E2B 		.ascii	"\025\225>+\200\027\254\334\205\301\321@Z+\340\322\346"
 810      8017ACDC 
 810      85C1D140 
 810      5A2BE0D2 
 810      E6
 811 2c64 0F28CC23 		.ascii	"\017(\314#\005\332\007*\256\270\305S\355\373\226I!R"
 811      05DA072A 
 811      AEB8C553 
 811      EDFB9649 
 811      2152
 812 2c76 EA2D3192 		.ascii	"\352-1\222\027\214\364\350\232CF\205t\234\026\371\231"
 812      178CF4E8 
 812      9A434685 
 812      749C16F9 
 812      99
 813 2c87 E26B105E 		.ascii	"\342k\020^\273\024\024\004a\224#\021u\377\245b\243\311"
 813      BB141404 
 813      61942311 
 813      75FFA562 
 813      A3C9
 814 2c99 7D553389 		.ascii	"}U3\211y&?C\364\241X\373\220\012_\254()*,\212\274\361"
 814      79263F43 
 814      F4A158FB 
 814      900A5FAC 
 814      28292A2C 
 815 2cb0 5345D3C9 		.ascii	"SE\323\311=\346\321\226\212\226\027\225\026EZ*\271a"
ARM GAS  /tmp/ccGvYF46.s 			page 67


 815      3DE6D196 
 815      8A961795 
 815      16455A2A 
 815      B961
 816 2cc2 5CC901E3 		.ascii	"\\\311\001\343\012\034\306\025\030\022\367BG\226\027"
 816      0A1CC615 
 816      1812F742 
 816      479617
 817 2cd1 81A60A82 		.ascii	"\201\246\012\202\365\214\014\352\325\367o\340Tu\207"
 817      F58C0CEA 
 817      D5F76FE0 
 817      547587
 818 2ce0 1FDC645E 		.ascii	"\037\334d^\"\323'\225J\305e\375_\010\225?@cyt\314\335"
 818      22D32795 
 818      4AC565FD 
 818      5F08953F 
 818      40637974 
 819 2cf6 3D155707 		.ascii	"=\025W\007\255\0058;\264\337P\374\035g^\316\323n\342"
 819      AD05383B 
 819      B4DF50FC 
 819      1D675ECE 
 819      D36EE2
 820 2d09 F36422ED 		.ascii	"\363d\"\355\340&\375x\177wN\327\347\373\274`\333\345"
 820      E026FD78 
 820      7F774ED7 
 820      E7FBBC60 
 820      DBE5
 821 2d1b 24B9E477 		.ascii	"$\271\344w\357I\362@\247\020\372eR1\261/\340\012\344"
 821      EF49F240 
 821      A710FA65 
 821      5231B12F 
 821      E00AE4
 822 2d2e F5046F33 		.ascii	"\365\004o3\247{\327\\g\327\027r\335\331\331=\301E&4"
 822      A77BD75C 
 822      67D71772 
 822      DDD9D93D 
 822      C1452634 
 823 2d42 CB959D0D 		.ascii	"\313\225\235\0157\263_\312w\366\316\313vv\001[\226\013"
 823      37B35FCA 
 823      77F6CECB 
 823      7676015B 
 823      960B
 824 2d54 4F3E4FFC 		.ascii	"O>O\374\322\034\222\244g\227\\G/\232\242\003<\373rn"
 824      D21C92A4 
 824      67975C47 
 824      2F9AA203 
 824      3CFB726E 
 825 2d68 F60FE14E 		.ascii	"\366\017\341N\221\276-\215\005\240/T\015\366\377\003"
 825      91BE2D8D 
 825      05A02F54 
 825      0DF6FF03 
 826 2d78 3B7B383C 		.ascii	";{8<"
 827              		.text
 828              		.section	.gnu.lto_.symtab.1b56cd5cb82def2f,"",%progbits
 829 0000 73656E73 		.ascii	"sensorThread\000\000\000\000\000\000\000\000\000\000"
 829      6F725468 
 829      72656164 
ARM GAS  /tmp/ccGvYF46.s 			page 68


 829      00000000 
 829      00000000 
 830 0016 0000F103 		.ascii	"\000\000\361\003\000\000sensorThreadStop\000\000\000"
 830      00007365 
 830      6E736F72 
 830      54687265 
 830      61645374 
 831 002f 00000000 		.ascii	"\000\000\000\000\000\000\000\000\000\366\003\000\000"
 831      00000000 
 831      00F60300 
 831      00
 832 003c 53443600 		.ascii	"SD6\000\000\002\000\000\000\000\000\000\000\000\000"
 832      00020000 
 832      00000000 
 832      000000
 833 004b A5040000 		.ascii	"\245\004\000\000I2CD1\000\000\002\000\000\000\000\000"
 833      49324344 
 833      31000002 
 833      00000000 
 833      00
 834 005c 00000000 		.ascii	"\000\000\000\000\247\004\000\000I2CD3\000\000\002\000"
 834      A7040000 
 834      49324344 
 834      33000002 
 834      00
 835 006d 00000000 		.ascii	"\000\000\000\000\000\000\000\000\251\004\000\000ADC"
 835      00000000 
 835      A9040000 
 835      414443
 836 007c 44310000 		.ascii	"D1\000\000\002\000\000\000\000\000\000\000\000\000\236"
 836      02000000 
 836      00000000 
 836      00009E
 837 008b 04000063 		.ascii	"\004\000\000chvprintf\000\000\002\000\000\000\000\000"
 837      68767072 
 837      696E7466 
 837      00000200 
 837      00000000 
 838 009f 00000000 		.ascii	"\000\000\000\000>\004\000\000chThdSleepUntil\000\000"
 838      3E040000 
 838      63685468 
 838      64536C65 
 838      6570556E 
 839 00b8 02000000 		.ascii	"\002\000\000\000\000\000\000\000\000\000M\004\000\000"
 839      00000000 
 839      00004D04 
 839      0000
 840 00c6 626F6172 		.ascii	"boardSetLED\000\000\002\000\000\000\000\000\000\000"
 840      64536574 
 840      4C454400 
 840      00020000 
 840      00000000 
 841 00db 00005104 		.ascii	"\000\000Q\004\000\000adcConvert\000\000\002\000\000"
 841      00006164 
 841      63436F6E 
 841      76657274 
 841      00000200 
ARM GAS  /tmp/ccGvYF46.s 			page 69


 842 00f0 00000000 		.ascii	"\000\000\000\000\000\000\000U\004\000\000lsm303_rea"
 842      00000055 
 842      0400006C 
 842      736D3330 
 842      335F7265 
 843 0105 64416363 		.ascii	"dAcceleration\000\000\002\000\000\000\000\000\000\000"
 843      656C6572 
 843      6174696F 
 843      6E000002 
 843      00000000 
 844 011c 00005C04 		.ascii	"\000\000\\\004\000\000ms5607_readPressureTemperatur"
 844      00006D73 
 844      35363037 
 844      5F726561 
 844      64507265 
 845 013f 65000002 		.ascii	"e\000\000\002\000\000\000\000\000\000\000\000\000b\004"
 845      00000000 
 845      00000000 
 845      006204
 846 014e 00007369 		.ascii	"\000\000si70x0_readHumidity\000\000\002\000\000\000"
 846      37307830 
 846      5F726561 
 846      6448756D 
 846      69646974 
 847 0169 00000000 		.ascii	"\000\000\000\000\000\000i\004\000\000tmp275_readTem"
 847      00006904 
 847      0000746D 
 847      70323735 
 847      5F726561 
 848 0181 70657261 		.ascii	"perature\000\000\002\000\000\000\000\000\000\000\000"
 848      74757265 
 848      00000200 
 848      00000000 
 848      000000
 849 0194 006F0400 		.ascii	"\000o\004\000\000bmp280_init\000\000\002\000\000\000"
 849      00626D70 
 849      3238305F 
 849      696E6974 
 849      00000200 
 850 01aa 00000000 		.ascii	"\000\000\000\000\000\000u\004\000\000lsm303_init\000"
 850      00007504 
 850      00006C73 
 850      6D333033 
 850      5F696E69 
 851 01c0 00020000 		.ascii	"\000\002\000\000\000\000\000\000\000\000\000|\004\000"
 851      00000000 
 851      0000007C 
 851      0400
 852 01ce 006D7335 		.ascii	"\000ms5607_init\000\000\002\000\000\000\000\000\000"
 852      3630375F 
 852      696E6974 
 852      00000200 
 852      00000000 
 853 01e3 00000083 		.ascii	"\000\000\000\203\004\000\000si70x0_init\000\000\002"
 853      04000073 
 853      69373078 
 853      305F696E 
ARM GAS  /tmp/ccGvYF46.s 			page 70


 853      69740000 
 854 01f8 00000000 		.ascii	"\000\000\000\000\000\000\000\000\000\211\004\000\000"
 854      00000000 
 854      00890400 
 854      00
 855 0205 746D7032 		.ascii	"tmp275_init\000\000\002\000\000\000\000\000\000\000"
 855      37355F69 
 855      6E697400 
 855      00020000 
 855      00000000 
 856 021a 00008F04 		.ascii	"\000\000\217\004\000\000i2cStart\000\000\002\000\000"
 856      00006932 
 856      63537461 
 856      72740000 
 856      020000
 857 022d 00000000 		.ascii	"\000\000\000\000\000\000\000\225\004\000\000chMtxOb"
 857      00000095 
 857      04000063 
 857      684D7478 
 857      4F62
 858 023f 6A656374 		.ascii	"jectInit\000\000\002\000\000\000\000\000\000\000\000"
 858      496E6974 
 858      00000200 
 858      00000000 
 858      000000
 859 0252 009A0400 		.ascii	"\000\232\004\000\000"
 859      00
 860              		.text
 861              		.section	.gnu.lto_.opts,"",%progbits
 862 0000 272D6D63 		.ascii	"'-mcpu=cortex-m4' '-mfloat-abi=hard' '-mfpu=fpv4-sp"
 862      70753D63 
 862      6F727465 
 862      782D6D34 
 862      2720272D 
 863 0033 2D643136 		.ascii	"-d16' '-mno-thumb-interwork' '-mthumb' '-O2' '-fomi"
 863      2720272D 
 863      6D6E6F2D 
 863      7468756D 
 863      622D696E 
 864 0066 742D6672 		.ascii	"t-frame-pointer' '-falign-functions=16' '-ffunction"
 864      616D652D 
 864      706F696E 
 864      74657227 
 864      20272D66 
 865 0099 2D736563 		.ascii	"-sections' '-fdata-sections' '-fno-common' '-flto' "
 865      74696F6E 
 865      73272027 
 865      2D666461 
 865      74612D73 
 866 00cc 272D6673 		.ascii	"'-fsingle-precision-constant'\000"
 866      696E676C 
 866      652D7072 
 866      65636973 
 866      696F6E2D 
 867              		.text
 868              		.section	.text.chprintf.constprop.0,"ax",%progbits
 869              		.align	2
ARM GAS  /tmp/ccGvYF46.s 			page 71


 870              		.p2align 4,,15
 871              		.thumb
 872              		.thumb_func
 873              		.type	chprintf.constprop.0, %function
 874              	chprintf.constprop.0:
 875              		@ args = 4, pretend = 12, frame = 8
 876              		@ frame_needed = 0, uses_anonymous_args = 1
 877 0000 0EB4     		push	{r1, r2, r3}
 878 0002 00B5     		push	{lr}
 879 0004 82B0     		sub	sp, sp, #8
 880 0006 03AA     		add	r2, sp, #12
 881 0008 0548     		ldr	r0, .L2
 882 000a 52F8041B 		ldr	r1, [r2], #4
 883 000e 0192     		str	r2, [sp, #4]
 884 0010 FFF7FEFF 		bl	chvprintf
 885 0014 02B0     		add	sp, sp, #8
 886              		@ sp needed
 887 0016 5DF804EB 		ldr	lr, [sp], #4
 888 001a 03B0     		add	sp, sp, #12
 889 001c 7047     		bx	lr
 890              	.L3:
 891 001e 00BF     		.align	2
 892              	.L2:
 893 0020 00000000 		.word	SD6
 894              		.size	chprintf.constprop.0, .-chprintf.constprop.0
 895              		.global	__aeabi_f2d
 896 0024 AFF30080 		.section	.text.sensorThread,"ax",%progbits
 896      AFF30080 
 896      AFF30080 
 897              		.align	2
 898              		.p2align 4,,15
 899              		.global	sensorThread
 900              		.thumb
 901              		.thumb_func
 902              		.type	sensorThread, %function
 903              	sensorThread:
 904              		@ args = 0, pretend = 0, frame = 0
 905              		@ frame_needed = 0, uses_anonymous_args = 0
 906 0000 2DE9F843 		push	{r3, r4, r5, r6, r7, r8, r9, lr}
 907 0004 0123     		movs	r3, #1
 908 0006 0446     		mov	r4, r0
 909 0008 8370     		strb	r3, [r0, #2]
 910 000a 0430     		adds	r0, r0, #4
 911 000c FFF7FEFF 		bl	chMtxObjectInit
 912 0010 3F4B     		ldr	r3, .L12
 913 0012 404A     		ldr	r2, .L12+4
 914 0014 4048     		ldr	r0, .L12+8
 915 0016 4149     		ldr	r1, .L12+12
 916 0018 1A60     		str	r2, [r3]
 917 001a 04F5F479 		add	r9, r4, #488
 918 001e FFF7FEFF 		bl	i2cStart
 919 0022 3F48     		ldr	r0, .L12+16
 920 0024 3D49     		ldr	r1, .L12+12
 921 0026 FFF7FEFF 		bl	i2cStart
 922 002a 4846     		mov	r0, r9
 923 002c 3C49     		ldr	r1, .L12+16
 924 002e 4822     		movs	r2, #72
ARM GAS  /tmp/ccGvYF46.s 			page 72


 925 0030 FFF7FEFF 		bl	tmp275_init
 926 0034 04F5C478 		add	r8, r4, #392
 927 0038 04F5DC70 		add	r0, r4, #440
 928 003c 3849     		ldr	r1, .L12+16
 929 003e 4022     		movs	r2, #64
 930 0040 FFF7FEFF 		bl	si70x0_init
 931 0044 04F5A077 		add	r7, r4, #320
 932 0048 4046     		mov	r0, r8
 933 004a 3349     		ldr	r1, .L12+8
 934 004c 4022     		movs	r2, #64
 935 004e FFF7FEFF 		bl	si70x0_init
 936 0052 04F1C806 		add	r6, r4, #200
 937 0056 3249     		ldr	r1, .L12+16
 938 0058 7622     		movs	r2, #118
 939 005a 3846     		mov	r0, r7
 940 005c FFF7FEFF 		bl	ms5607_init
 941 0060 1E23     		movs	r3, #30
 942 0062 2D49     		ldr	r1, .L12+8
 943 0064 1D22     		movs	r2, #29
 944 0066 3046     		mov	r0, r6
 945 0068 FFF7FEFF 		bl	lsm303_init
 946 006c 7622     		movs	r2, #118
 947 006e 04F15C00 		add	r0, r4, #92
 948 0072 2949     		ldr	r1, .L12+8
 949 0074 FFF7FEFF 		bl	bmp280_init
 950 0078 4FF08043 		mov	r3, #1073741824
 951 007c 0022     		movs	r2, #0
 952 007e 5D6A     		ldr	r5, [r3, #36]
 953 0080 2263     		str	r2, [r4, #48]	@ float
 954              	.L5:
 955 0082 A378     		ldrb	r3, [r4, #2]	@ zero_extendqisi2
 956 0084 0120     		movs	r0, #1
 957 0086 05F57A75 		add	r5, r5, #1000
 958 008a 002B     		cmp	r3, #0
 959 008c 39D0     		beq	.L10
 960              	.L8:
 961 008e FFF7FEFF 		bl	boardSetLED
 962 0092 04F11801 		add	r1, r4, #24
 963 0096 4846     		mov	r0, r9
 964 0098 FFF7FEFF 		bl	tmp275_readTemperature
 965 009c 04F13001 		add	r1, r4, #48
 966 00a0 4046     		mov	r0, r8
 967 00a2 FFF7FEFF 		bl	si70x0_readHumidity
 968 00a6 1F49     		ldr	r1, .L12+20
 969 00a8 0246     		mov	r2, r0
 970 00aa 1A48     		ldr	r0, .L12+4
 971 00ac FFF7FEFF 		bl	chprintf.constprop.0
 972 00b0 206B     		ldr	r0, [r4, #48]	@ float
 973 00b2 FFF7FEFF 		bl	__aeabi_f2d
 974 00b6 0B46     		mov	r3, r1
 975 00b8 0246     		mov	r2, r0
 976 00ba 1B49     		ldr	r1, .L12+24
 977 00bc 1548     		ldr	r0, .L12+4
 978 00be FFF7FEFF 		bl	chprintf.constprop.0
 979 00c2 04F12002 		add	r2, r4, #32
 980 00c6 04F12C01 		add	r1, r4, #44
 981 00ca 3846     		mov	r0, r7
ARM GAS  /tmp/ccGvYF46.s 			page 73


 982 00cc FFF7FEFF 		bl	ms5607_readPressureTemperature
 983 00d0 0121     		movs	r1, #1
 984 00d2 3046     		mov	r0, r6
 985 00d4 FFF7FEFF 		bl	lsm303_readAcceleration
 986 00d8 144A     		ldr	r2, .L12+28
 987 00da 1549     		ldr	r1, .L12+32
 988 00dc 1548     		ldr	r0, .L12+36
 989 00de 3223     		movs	r3, #50
 990 00e0 FFF7FEFF 		bl	adcConvert
 991 00e4 0020     		movs	r0, #0
 992 00e6 FFF7FEFF 		bl	boardSetLED
 993 00ea 4FF08043 		mov	r3, #1073741824
 994 00ee 5A6A     		ldr	r2, [r3, #36]
 995 00f0 9542     		cmp	r5, r2
 996 00f2 09D8     		bhi	.L11
 997 00f4 5D6A     		ldr	r5, [r3, #36]
 998 00f6 A378     		ldrb	r3, [r4, #2]	@ zero_extendqisi2
 999 00f8 0120     		movs	r0, #1
 1000 00fa 05F57A75 		add	r5, r5, #1000
 1001 00fe 002B     		cmp	r3, #0
 1002 0100 C5D1     		bne	.L8
 1003              	.L10:
 1004 0102 0020     		movs	r0, #0
 1005 0104 BDE8F883 		pop	{r3, r4, r5, r6, r7, r8, r9, pc}
 1006              	.L11:
 1007 0108 2846     		mov	r0, r5
 1008 010a FFF7FEFF 		bl	chThdSleepUntil
 1009 010e B8E7     		b	.L5
 1010              	.L13:
 1011              		.align	2
 1012              	.L12:
 1013 0110 00000000 		.word	.LANCHOR0
 1014 0114 00000000 		.word	SD6
 1015 0118 00000000 		.word	I2CD1
 1016 011c 00000000 		.word	.LANCHOR1
 1017 0120 00000000 		.word	I2CD3
 1018 0124 00000000 		.word	.LC0
 1019 0128 14000000 		.word	.LC1
 1020 012c 00000000 		.word	.LANCHOR3
 1021 0130 00000000 		.word	.LANCHOR2
 1022 0134 00000000 		.word	ADCD1
 1023              		.size	sensorThread, .-sensorThread
 1024 0138 AFF30080 		.section	.text.sensorThreadStop,"ax",%progbits
 1024      AFF30080 
 1025              		.align	2
 1026              		.p2align 4,,15
 1027              		.global	sensorThreadStop
 1028              		.thumb
 1029              		.thumb_func
 1030              		.type	sensorThreadStop, %function
 1031              	sensorThreadStop:
 1032              		@ args = 0, pretend = 0, frame = 0
 1033              		@ frame_needed = 0, uses_anonymous_args = 0
 1034              		@ link register save eliminated.
 1035 0000 0346     		mov	r3, r0
 1036 0002 0022     		movs	r2, #0
 1037 0004 9A70     		strb	r2, [r3, #2]
ARM GAS  /tmp/ccGvYF46.s 			page 74


 1038 0006 7047     		bx	lr
 1039              		.size	sensorThreadStop, .-sensorThreadStop
 1040 0008 AFF30080 		.section	.bss.analogSamples,"aw",%nobits
 1040      AFF30080 
 1041              		.align	2
 1042              		.set	.LANCHOR3,. + 0
 1043              		.type	analogSamples, %object
 1044              		.size	analogSamples, 300
 1045              	analogSamples:
 1046 0000 00000000 		.space	300
 1046      00000000 
 1046      00000000 
 1046      00000000 
 1046      00000000 
 1047              		.section	.bss.DEBUG,"aw",%nobits
 1048              		.align	2
 1049              		.set	.LANCHOR0,. + 0
 1050              		.type	DEBUG, %object
 1051              		.size	DEBUG, 4
 1052              	DEBUG:
 1053 0000 00000000 		.space	4
 1054              		.section	.rodata.analogGrp,"a",%progbits
 1055              		.align	2
 1056              		.set	.LANCHOR2,. + 0
 1057              		.type	analogGrp, %object
 1058              		.size	analogGrp, 40
 1059              	analogGrp:
 1060 0000 00       		.byte	0
 1061 0001 00       		.space	1
 1062 0002 0300     		.short	3
 1063 0004 00000000 		.word	0
 1064 0008 00000000 		.word	0
 1065 000c 00000000 		.word	0
 1066 0010 00000040 		.word	1073741824
 1067 0014 1B000000 		.word	27
 1068 0018 03000000 		.word	3
 1069 001c 00002000 		.word	2097152
 1070 0020 00000000 		.word	0
 1071 0024 402D0000 		.word	11584
 1072              		.section	.rodata.str1.4,"aMS",%progbits,1
 1073              		.align	2
 1074              	.LC0:
 1075 0000 53693730 		.ascii	"Si7020 Read: %d\012\000"
 1075      32302052 
 1075      6561643A 
 1075      2025640A 
 1075      00
 1076 0011 000000   		.space	3
 1077              	.LC1:
 1078 0014 48554D49 		.ascii	"HUMIDITY:%f\012\000"
 1078      44495459 
 1078      3A25660A 
 1078      00
 1079 0021 000000   		.section	.rodata.i2cfg,"a",%progbits
 1080              		.align	2
 1081              		.set	.LANCHOR1,. + 0
 1082              		.type	i2cfg, %object
ARM GAS  /tmp/ccGvYF46.s 			page 75


 1083              		.size	i2cfg, 12
 1084              	i2cfg:
 1085 0000 01       		.byte	1
 1086 0001 000000   		.space	3
 1087 0004 A0860100 		.word	100000
 1088 0008 02       		.byte	2
 1089 0009 000000   		.space	3
 1090              		.comm	__gnu_lto_v1,1,1
 1091              		.ident	"GCC: (GNU Tools for ARM Embedded Processors) 4.8.4 20140526 (release) [ARM/embedded-4_8-br
ARM GAS  /tmp/ccGvYF46.s 			page 76


DEFINED SYMBOLS
                            *ABS*:0000000000000000 sensor_thread.c
     /tmp/ccGvYF46.s:869    .text.chprintf.constprop.0:0000000000000000 $t
     /tmp/ccGvYF46.s:874    .text.chprintf.constprop.0:0000000000000000 chprintf.constprop.0
     /tmp/ccGvYF46.s:893    .text.chprintf.constprop.0:0000000000000020 $d
     /tmp/ccGvYF46.s:897    .text.sensorThread:0000000000000000 $t
     /tmp/ccGvYF46.s:903    .text.sensorThread:0000000000000000 sensorThread
     /tmp/ccGvYF46.s:1013   .text.sensorThread:0000000000000110 $d
     /tmp/ccGvYF46.s:1025   .text.sensorThreadStop:0000000000000000 $t
     /tmp/ccGvYF46.s:1031   .text.sensorThreadStop:0000000000000000 sensorThreadStop
     /tmp/ccGvYF46.s:1041   .bss.analogSamples:0000000000000000 $d
     /tmp/ccGvYF46.s:1045   .bss.analogSamples:0000000000000000 analogSamples
     /tmp/ccGvYF46.s:1048   .bss.DEBUG:0000000000000000 $d
     /tmp/ccGvYF46.s:1052   .bss.DEBUG:0000000000000000 DEBUG
     /tmp/ccGvYF46.s:1055   .rodata.analogGrp:0000000000000000 $d
     /tmp/ccGvYF46.s:1059   .rodata.analogGrp:0000000000000000 analogGrp
     /tmp/ccGvYF46.s:1073   .rodata.str1.4:0000000000000000 $d
     /tmp/ccGvYF46.s:1080   .rodata.i2cfg:0000000000000000 $d
     /tmp/ccGvYF46.s:1084   .rodata.i2cfg:0000000000000000 i2cfg
                            *COM*:0000000000000001 __gnu_lto_v1
     /tmp/ccGvYF46.s:896    .text.chprintf.constprop.0:0000000000000024 $t
     /tmp/ccGvYF46.s:1024   .text.sensorThread:0000000000000138 $t

UNDEFINED SYMBOLS
chvprintf
SD6
__aeabi_f2d
chMtxObjectInit
i2cStart
tmp275_init
si70x0_init
ms5607_init
lsm303_init
bmp280_init
boardSetLED
tmp275_readTemperature
si70x0_readHumidity
ms5607_readPressureTemperature
lsm303_readAcceleration
adcConvert
chThdSleepUntil
I2CD1
I2CD3
ADCD1
