ARM GAS  /tmp/ccDCqrSF.s 			page 1


   1              		.syntax unified
   2              		.cpu cortex-m4
   3              		.eabi_attribute 27, 3
   4              		.eabi_attribute 28, 1
   5              		.fpu fpv4-sp-d16
   6              		.eabi_attribute 20, 1
   7              		.eabi_attribute 21, 1
   8              		.eabi_attribute 23, 3
   9              		.eabi_attribute 24, 1
  10              		.eabi_attribute 25, 1
  11              		.eabi_attribute 26, 1
  12              		.eabi_attribute 30, 2
  13              		.eabi_attribute 34, 1
  14              		.eabi_attribute 18, 4
  15              		.thumb
  16              		.file	"sensor_thread.c"
  17              		.section	.gnu.lto_.jmpfuncs.326a91b3b6ba4b99,"",%progbits
  18 0000 789C8551 		.ascii	"x\234\205Q\261N\3030\020\275\027;\004\232RJ\351\020"
  18      B14EC330 
  18      10BD173B 
  18      049A524A 
  18      E910
  19 0012 8188BA64 		.ascii	"\201\210\272dE\242lL \024\251\014\225\030\212\324/\250"
  19      45A26C4C 
  19      2014A90C 
  19      95188AD4 
  19      2FA8
  20 0024 E4C16B19 		.ascii	"\344\301k\031X2\362\011]\370\027>\205\221o`\342\354"
  20      5832F209 
  20      5DF8173E 
  20      85916F60 
  20      E2EC
  21 0036 B6B6835B 		.ascii	"\266\266\203[\310\020\277\273{\367\356\354\227PB\273"
  21      C810BFBB 
  21      7BF7EEEC 
  21      975042BB 
  22 0046 BE8120BA 		.ascii	"\276\201 \272\347S\220\000\3779\242\245\211\010KS\346"
  22      E7539000 
  22      FF39A2A5 
  22      89084B53 
  22      E6
  23 0057 A6640E05 		.ascii	"\246d\016\005\203\001>`C\023\313\344\225\276\233\267"
  23      83013E60 
  23      4313CBE4 
  23      95BE9BB7 
  24 0067 A6AF9068 		.ascii	"\246\257\220hK \233Y\231\214\320\226C\236#5\354\006"
  24      4B209B59 
  24      998CD096 
  24      439E2335 
  24      EC06
  25 0079 B63F1D33 		.ascii	"\266?\0353\220\037]\205\203m*3\343e3T8\334\254\026\014"
  25      901F5D85 
  25      836D2A33 
  25      E3653354 
  25      38DCAC16 
  26 008e 38D210ED 		.ascii	"8\322\020\355\001\235\222\360\336\254\356\024rw\027"
  26      019D92F0 
ARM GAS  /tmp/ccDCqrSF.s 			page 2


  26      DEACEE14 
  26      727717
  27 009d 56BC50E8 		.ascii	"V\274P\350F\370?\241\363\035BE \344\260\370K\350\270"
  27      46F83FA1 
  27      F31D4245 
  27      20E4B0F8 
  27      4BE8B8
  28 00b0 A49BB550 		.ascii	"\244\233\265P\317\313\224\012'\026o\336\015\341f\356"
  28      CFCB940A 
  28      27166FDE 
  28      0DE166EE 
  29 00c0 29FD0C97 		.ascii	")\375\014\227Z\363\373_Y\334\020kdy\254\201(eXB~\246"
  29      5AF3FB5F 
  29      59DC106B 
  29      6479AC81 
  29      28655842 
  30 00d6 0AA72D67 		.ascii	"\012\247-g\006\032\3229\223\261\355\322;\263\207t\271"
  30      061AD239 
  30      93B1EDD2 
  30      3BB38774 
  30      B9
  31 00e7 0565685A 		.ascii	"\005ehZ\213\235z\366Kk\225X\322_&\022\020\356\011\367"
  31      8B9D7AF6 
  31      4B6B9558 
  31      D25F2612 
  31      10EE09F7 
  32 00fb 894F18EC 		.ascii	"\211O\030\354\2509[\316\264\275\311/\222\214H\231uI"
  32      A8395BCE 
  32      B4BDC92F 
  32      928C4899 
  32      7549
  33 010d 8E14860C 		.ascii	"\216\024\206\014rPQO\236\247\267\325\325\365\242\252"
  33      7250514F 
  33      9EA7B7D5 
  33      D5F5A2AA 
  34 011d 46F56CFA 		.ascii	"F\365l\372\304x\274x\350P\361\030\024f\265/\364\352"
  34      C478BC78 
  34      E850F118 
  34      1466B52F 
  34      F4EA
  35 012f 7918FE00 		.ascii	"y\030\376\000B\302\213\246"
  35      42C28BA6 
  36              		.text
  37              		.section	.gnu.lto_.inline.326a91b3b6ba4b99,"",%progbits
  38 0000 789C7550 		.ascii	"x\234uP;\016\3020\014}v\014AJS\301\216\304\204\270M"
  38      3B0EC230 
  38      0C7D760C 
  38      414A53C1 
  38      8EC484B8 
  39 0015 264EC484 		.ascii	"&N\304\204\230\302\015\230\2308\017[w\216A\354\204\242"
  39      98C20D98 
  39      98380F5B 
  39      778E41EC 
  39      84A2
  40 0027 A2920C2F 		.ascii	"\242\222\014/\362\373\330\016\2031w\216T\321A\302\026"
  40      F2FBD80E 
  40      8331778E 
ARM GAS  /tmp/ccDCqrSF.s 			page 3


  40      54D141C2 
  40      16
  41 0038 265ADE76 		.ascii	"&Z\336v\243\226\260\350\013\231\223^\327\231\200V'z"
  41      A396B0E8 
  41      0B99935E 
  41      D7998056 
  41      277A
  42 004a F644502B 		.ascii	"\366DP+\357\037\327\015\342\375\302\346\341P\3129\031"
  42      EF1FD70D 
  42      E2FDC2E6 
  42      E150CA39 
  42      19
  43 005b 142B412C 		.ascii	"\024+A,\274#\360\340!\221\340\006\257Y~m\\\215\255l"
  43      BC23F0E0 
  43      2191E006 
  43      AF597E6D 
  43      5C8DAD6C 
  44 006f C309A78E 		.ascii	"\303\011\247\216\011\247\231N\271\306|z\331l9\215\310"
  44      09A7994E 
  44      B9C67C7A 
  44      D96C398D 
  44      C8
  45 0080 0133D55F 		.ascii	"\0013\325_\224h\313\301\266\024}|K\177\265\355\033\032"
  45      9468CBC1 
  45      B6147D7C 
  45      4B7FB5ED 
  45      1B1A
  46 0092 58A39C02 		.ascii	"X\243\234\002\304\225\201\350\345\341\317\207\372\177"
  46      C49581E8 
  46      E5E1CF87 
  46      FA7F
  47 00a0 6F576227 		.ascii	"oWb'7"
  47      37
  48              		.text
  49              		.section	.gnu.lto_.pureconst.326a91b3b6ba4b99,"",%progbits
  50 0000 789C6362 		.ascii	"x\234cb`b`g\200\000f\006\011F)n)\000\001\323\000g"
  50      60626067 
  50      80006606 
  50      0946296E 
  50      290001D3 
  51              		.text
  52              		.section	.gnu.lto_chprintf.326a91b3b6ba4b99,"",%progbits
  53 0000 789C8550 		.ascii	"x\234\205P\315J\002Q\024>\337\0355uc\333v\342\0034\213"
  53      CD4A0251 
  53      143EDF1D 
  53      357563DB 
  53      76E20334 
  54 0015 22E80D7A 		.ascii	"\"\350\015z\000\203Z\3058\216z\011\035\321Q\260\026"
  54      00835AC5 
  54      388E7A09 
  54      1DD151B0 
  54      16
  55 0026 5EC1C245 		.ascii	"^\301\302E\013ig\021)\321:\244\027\030\202\332DI\273"
  55      0B696711 
  55      29D13AA4 
  55      171882DA 
  55      4449BB
ARM GAS  /tmp/ccDCqrSF.s 			page 4


  56 0039 162D2497 		.ascii	"\026-$\227\265h\321*\202\351\336\031\024\372\201\016"
  56      B568D12A 
  56      82E9DE19 
  56      14FA810E 
  57 0049 DC7B7EBE 		.ascii	"\334{~\276s\276\363\303\210\321OY\220o\010\2425\251"
  57      73BEF3C3 
  57      88D14F59 
  57      906F08A2 
  57      35A9
  58 005b A11158F7 		.ascii	"\241\021X\367\236\250\025e\2002\010\324dhnB\245\262"
  58      9EA81565 
  58      803208D4 
  58      64686E42 
  58      A5B2
  59 006d 140D84DB 		.ascii	"\024\015\204\333\035_O\036\321\023n\273/>=\017\340\220"
  59      1D5F4F1E 
  59      D1136EBB 
  59      2F3E3D0F 
  59      E090
  60 007f B42B2013 		.ascii	"\264+ \023\264!\035$}\305B\337\373\250Z\321uOon!\016"
  60      B4211D24 
  60      7DC542DF 
  60      FBA85AD1 
  60      754F6F6E 
  61 0095 45EBCDF3 		.ascii	"E\353\315\363\022\034\032\243\325\377\012/\230\373\354"
  61      121C1AA3 
  61      D5FF0A2F 
  61      98FBEC
  62 00a4 794FC3F7 		.ascii	"yO\303\367\203W\364XLC\021\024\222\037\"d\340\014)\225"
  62      8357F458 
  62      4C431114 
  62      921F2264 
  62      E00C2995 
  63 00b8 13A6B624 		.ascii	"\023\246\266$O\032\030H\177\0325\375\241\323\362W\233"
  63      4F1A1848 
  63      7F1A35FD 
  63      A1D3F257 
  63      9B
  64 00c9 AC8329AD 		.ascii	"\254\203)\255\215ho\3343\015\234#,\321]\372\020\035"
  64      8D686FDC 
  64      330D9C23 
  64      2CD15DFA 
  64      101D
  65 00db 31CF1132 		.ascii	"1\317\0212\341\247\313\310\016Gx\312\344g\251\2514\""
  65      E1A7CBC8 
  65      0E4778CA 
  65      E467A9A9 
  65      3422
  66 00ed 2E3BD288 		.ascii	".;\322\210\366\307G\223x\200\344\021\231\021\314\231"
  66      F6C74793 
  66      7880E411 
  66      9911CC99 
  67 00fd 088E9B87 		.ascii	"\010\216\233\207\226G( \340\210\252\222\366\370\370"
  67      96472820 
  67      E088AA92 
  67      F6F8F8
  68 010c 77C798A9 		.ascii	"w\307\230\251H\377\356\310\021'\272\243\253\027\026"
ARM GAS  /tmp/ccDCqrSF.s 			page 5


  68      48FFEEC8 
  68      1127BAA3 
  68      AB1716
  69 011b 04027099 		.ascii	"\004\002p\231.EG\235[\312\003\265\372'\332l\214\340"
  69      2E45479D 
  69      5BCA03B5 
  69      FA27DA6C 
  69      8CE0
  70 012d 5469B983 		.ascii	"Ti\271\203\334Q\315\261\244\027\354\242\245\233v\266"
  70      DC51CDB1 
  70      A417ECA2 
  70      A59B76B6 
  71 013d A167ADBA 		.ascii	"\241g\255\272n\026x\206\333U\335\251\324J\333\2724\352"
  71      6E167886 
  71      DB55DDA9 
  71      D44ADBBA 
  71      34EA
  72 014f 4685DBB5 		.ascii	"F\205\333\265\252\004\312\025^rr\213\005bF9\221\263"
  72      AA04CA15 
  72      5E72728B 
  72      05624639 
  72      91B3
  73 0161 2B45C371 		.ascii	"+E\303q\254\354V\246\341X\325/\251H\201#"
  73      ACEC56A6 
  73      E158D52F 
  73      A9488123 
  74              		.text
  75              		.section	.gnu.lto_sensorThread.326a91b3b6ba4b99,"",%progbits
  76 0000 789CA558 		.ascii	"x\234\245Xyl\024e\024\377\336\3541\273\263\333\226R"
  76      796C1465 
  76      14FFDEEC 
  76      31BBB3DB 
  76      9652
  77 0012 2A54B420 		.ascii	"*T\264 Z\254P\273\264\264V\241\025\020\252\034]1R\022"
  77      5AAC50BB 
  77      B4B456A1 
  77      1510AA1C 
  77      5D315212 
  78 0026 8D7F903A 		.ascii	"\215\177\220:]\267\023XJ\272+\236\011S\333\002\177T"
  78      5DB71358 
  78      4ABA2B9E 
  78      0953DB02 
  78      7F54
  79 0038 5AC1A388 		.ascii	"Z\301\243\210F\320\240\"b\203\215\212\342\261\036\261"
  79      46D0A022 
  79      62838D8A 
  79      E2B11EB1 
  80 0048 242A47D4 		.ascii	"$*G\324D\210\301z\223\210\2406\036\200Z\337w\314\261"
  80      4488C17A 
  80      9388A036 
  80      1E805ADF 
  80      77CCB1
  81 005b 47D84526 		.ascii	"G\330E&\351\2673\357{\357\367~\337\373\315wL%\"\221"
  81      E9B733EF 
  81      7BEFF77E 
  81      DFFBCD77 
  81      4C252291 
ARM GAS  /tmp/ccDCqrSF.s 			page 6


  82 006f E46B23FE 		.ascii	"\344k#\376\235\034M\310e@\010\344\020\220z\367\023\322"
  82      9D1C4DC8 
  82      654008E4 
  82      10907AF7 
  82      13D2
  83 0081 EE91C0C7 		.ascii	"\356\221\300\307o\034\222\363\263\013\210\256\270\336"
  83      6F1C92F3 
  83      B30B88AE 
  83      B8DE
  84 008f AC21BADF 		.ascii	"\254!\272\337\011.nvInf\226\231\331\01527\313\222\207"
  84      092E6E76 
  84      496E6696 
  84      99D90D32 
  84      37CB9287 
  85 00a3 99BDCCEC 		.ascii	"\231\275\314\354\001\205\233\275\306\215\302a\337\365"
  85      01859BBD 
  85      C68DC261 
  85      DFF5
  86 00b1 F82447F7 		.ascii	"\370$G\367 AO\177\247\214\236~\000j'@\326H\016\247\313"
  86      20414F7F 
  86      A78C9E7E 
  86      006A2740 
  86      D6480EA7 
  87 00c6 2D7BBC8A 		.ascii	"-{\274\212\317\017kn\005\312\3213\211l\323\365\336\241"
  87      CF0F6B6E 
  87      05CAD133 
  87      896CD3F5 
  87      DEA1
  88 00d8 EDA78F49 		.ascii	"\355\247\217I\003\017\307;\267\352\177\217\214\000h"
  88      030FC73B 
  88      B7EA7F8F 
  88      8C0068
  89 00e7 80E32900 		.ascii	"\200\343)\000\242\002\271\005\037`\"\373\221\234\211"
  89      A202B905 
  89      1F6022FB 
  89      919C89
  90 00f6 03E4B1F1 		.ascii	"\003\344\261\361\243\203\233\225\336\366\365\372\310"
  90      A3839B95 
  90      DEF6F5FA 
  90      C8
  91 0103 C81A1657 		.ascii	"\310\032\026W\234U\\_|\323\207\017\026\351[\037\350"
  91      9C555C5F 
  91      7CD3870F 
  91      16E95B1F 
  91      E8
  92 0114 D5FFC594 		.ascii	"\325\377\305\224\0328$R\226U\344\306\370\251\017{\354"
  92      1A382452 
  92      9655E4C6 
  92      F8A90F7B 
  92      EC
  93 0125 914E8954 		.ascii	"\221N\211Te\311\365\311u\033\222r\326e\031\371\372`"
  93      65C9F5C9 
  93      751B9272 
  93      D66519F9 
  93      FA60
  94 0137 4F52E4BC 		.ascii	"OR\344\274l\"\343\275\3617\006\213\354\345Y\224e\330"
  94      6C22E3BD 
ARM GAS  /tmp/ccDCqrSF.s 			page 7


  94      F137068B 
  94      ECE55994 
  94      65D8
  95 0149 91C4B0C6 		.ascii	"\221\304\260\306La\375R|hd\344x\177\357\347\322\215"
  95      4C61FD52 
  95      7C6864E4 
  95      787FEFE7 
  95      D28D
  96 015b 409AE039 		.ascii	"@\232\3409\230\204a\374W\206\010\020\205h\340\312\303"
  96      988461FC 
  96      57860810 
  96      8568E0CA 
  96      C3
  97 016c C69D8F8D 		.ascii	"\306\235\217\215\\@\233Bl<c\261\361\026a\243\224`\343"
  97      5C409B42 
  97      6C3C63B1 
  97      F11661A3 
  97      9460E3
  98 017f 9B2C824A 		.ascii	"\233,\202J\361\301?\005\037v\340\303T| e\330\344\224"
  98      F1C13F05 
  98      1F76E0C3 
  98      547C2065 
  98      D8E494
  99 0192 5373059A 		.ascii	"Ss\005\232w\242\271\222\232\247Ss\025Z\266\241\245\232"
  99      77A2B992 
  99      9AA75373 
  99      155AB6A1 
  99      A59A
 100 01a4 3ED4509F 		.ascii	">\324P\237\031\264o&}\254\305\276g\260\257\216>\314"
 100      19B46F26 
 100      7DACC5BE 
 100      67B0AF8E 
 100      3ECC
 101 01b6 A27DB369 		.ascii	"\242}\263i\263\020\232`;\232\027\341\203\263\2016A\332"
 101      B3109A60 
 101      3B9A17E1 
 101      83B38136 
 101      41DA
 102 01c8 E0585CA4 		.ascii	"\340X\\\244\023k>\221ws6\204\016\037/\254\003\301\027"
 102      136B3E91 
 102      77733684 
 102      0E1F2FAC 
 102      03C117
 103 01db 7B2948F8 		.ascii	"{)H\370\343\370\204<\260\247\357\233cR\023\354\006\027"
 103      E3F8843C 
 103      B0A7EF9B 
 103      635213EC 
 103      0617
 104 01ed 927C41C7 		.ascii	"\222|A\307\253\006\007\261\205<\2165\312\015\203Lk\225"
 104      AB0607B1 
 104      853C8E35 
 104      CA0D834C 
 104      6B95
 105 01ff C72A743B 		.ascii	"\307*t;\360JQ\213\217\336c\364\351\216\235\335e<:\014"
 105      F04A518B 
 105      8FDE63F4 
 105      E98E9DDD 
ARM GAS  /tmp/ccDCqrSF.s 			page 8


 105      653C3A0C 
 106 0213 CA7DE45E 		.ascii	"\312}\344^\254\221\200y\004\335F\211\373{4\310O\017"
 106      AC918079 
 106      04DD4689 
 106      FB7B34C8 
 106      4F0F
 107 0225 09E2D736 		.ascii	"\011\342\3276\377\017\220\316\270\300$\344>rZ_\257\217"
 107      FF0F90CE 
 107      B8C024E4 
 107      3E725A5F 
 107      AF8F
 108 0237 D260B42A 		.ascii	"\322`\264*|1\217\006\005\"\373@\367x\356\211\350\355"
 108      7C318F06 
 108      0522FB40 
 108      F778EE89 
 108      E8ED
 109 0249 3AF51B63 		.ascii	":\365\033cF\024FX\004\315V\310\"y\217>\023\235\"\"\341"
 109      46144658 
 109      04CD56C8 
 109      22798F3E 
 109      139D2222 
 110 025e 01D2B575 		.ascii	"\001\322\265u\203#%\331\005\252\350\247\026\217\006"
 110      832325D9 
 110      05AAE8A7 
 110      168F06
 111 026d 63236038 		.ascii	"c#`8Q\3138\015\306E\300),\032\024q\240\236\254\200\\"
 111      51CB380D 
 111      C645C029 
 111      2C1A1471 
 111      A09EAC80 
 112 0282 29406E3B 		.ascii	")@n;\020\033\326O\335\245FQ\363XQ\335\242\220Q\015."
 112      101BD64F 
 112      DDA54651 
 112      F35851DD 
 112      A290510D 
 113 0297 4C5F4887 		.ascii	"L_H\207\275\200k\343\245)T\306\253\302\207a&\263\241"
 113      BD806BE3 
 113      A52954C6 
 113      ABC28761 
 113      26B3A1
 114 02aa 5017CD47 		.ascii	"P\027\315G\012\027\013\012?\373\015\006\371\214\201"
 114      0A170B0A 
 114      3FFB0D06 
 114      F98C81
 115 02b9 6C31284E 		.ascii	"l1(N\317\300ig\320\225\206\301\004U\3700\314d\006\032"
 115      CFC06967 
 115      D09586C1 
 115      0455F830 
 115      CC64061A 
 116 02cd 4E4C9EFA 		.ascii	"NL\236\372W3uA\226\251]\347\220\272 US+\365\357f\352"
 116      57337541 
 116      96A95DE7 
 116      90BA2055 
 116      532BF5EF 
 117 02e3 4296DA63 		.ascii	"B\226\332c\245\276$}jw\246\272OR\005=\206\231\266\356"
 117      A5BE247D 
 117      6A77A6BA 
ARM GAS  /tmp/ccDCqrSF.s 			page 9


 117      4F52053D 
 117      8699B6EE 
 118 02f7 7721834B 		.ascii	"w!\203K\005\203S&\203\261\214\201\327bpYz\006\262\235"
 118      05835326 
 118      83B18C81 
 118      D7627059 
 118      7A06B29D 
 119 030b C1BA340C 		.ascii	"\301\2724\014JT\301\222a&\017\2361\270\230\377\024#"
 119      4A54C192 
 119      61260F9E 
 119      31B898FF 
 119      1423
 120 031d 91C982C8 		.ascii	"\221\311\202\310?&\221\"FD\261\210\\\236\236\210'S)"
 120      3F269122 
 120      4644B188 
 120      5C9E9E88 
 120      275329
 121 0330 4A554196 		.ascii	"JUA\226a\246%\262\032\031\\\301T\034\332\321\221\227"
 121      61A625B2 
 121      1A195CC1 
 121      541CDAD1 
 121      9197
 122 0342 82304515 		.ascii	"\2020E\025YPG\346\357C\377\251\334\377\205\216\334\024"
 122      595047E6 
 122      EF43FFA9 
 122      DCFF858E 
 122      DC14
 123 0354 FF3215BC 		.ascii	"\3772\025\274v\177\\\2674\270\222\373\357<;~~2\376\213"
 123      767F5CB7 
 123      34B892FB 
 123      EF3C3B7E 
 123      7E32FE8B 
 124 0368 67C7CF4F 		.ascii	"g\307\317O\304\357\034\332\365\255\234\342_\256\202"
 124      C4EF1CDA 
 124      F5AD9CE2 
 124      5FAE82
 125 0377 C2FCA9B3 		.ascii	"\302\374\251\263\363\230\214\336\001\216\376R6\354\211"
 125      F3988CDE 
 125      018EFE52 
 125      36EC89
 126 0386 C97E6B7F 		.ascii	"\311~k\177\352b\223BF\270\243\234\257\367\2358\350H"
 126      EA629342 
 126      46B8A39C 
 126      AFF79D38 
 126      E848
 127 0398 58E597E0 		.ascii	"X\345\227\340\356b-\370\031Vg\016{!\331\254\323\352"
 127      EE622DF8 
 127      1956670E 
 127      7B21D9AC 
 127      D3EA
 128 03aa 68CC4C51 		.ascii	"h\314LQ\367\234\027\252\222\026\365\275#O\374\026\177"
 128      F79C17AA 
 128      9216F5BD 
 128      234FFC16 
 128      7F
 129 03bb DE2DF630 		.ascii	"\336-\3660c3\213\357~\364K\\\276x2\225\016\215\016s"
 129      63338BEF 
ARM GAS  /tmp/ccDCqrSF.s 			page 10


 129      7EF44B5C 
 129      BE783295 
 129      0E8D0E73 
 130 03cf 11CDD5D9 		.ascii	"\021\315\325\331>\364\320\272\017\236\246\307\256it"
 130      3EF4D0BA 
 130      0F9EA6C7 
 130      AE6974
 131 03de 1BE8A5B5 		.ascii	"\033\350\245\265\250\240\011+)\017'\253u\245\310\351"
 131      A8A0092B 
 131      290F27AB 
 131      75A5C8E9 
 132 03ee A318BF58 		.ascii	"\243\030\277X\013\306R\\\024\361\274\207;a\307\372\367"
 132      0BC6525C 
 132      14F1BC87 
 132      3B61C7FA 
 132      F7
 133 03ff 3FFA6A9B 		.ascii	"?\372j\233\313\334;w\260\275s'kw\261\266\237\355\243"
 133      CBDC3B77 
 133      B0BD7327 
 133      6B77B1B6 
 133      9FEDA3
 134 0412 46D931FD 		.ascii	"F\3311\375\3440H\024|\3721\231p\315\367u\370\232`8Q"
 134      E4304814 
 134      7CFA3199 
 134      70CDF775 
 134      F89A6038 
 135 0427 962A15FC 		.ascii	"\226*\025\374\246\346\354\005\251\026Sl\357\206\333"
 135      A6E6EC05 
 135      A916536C 
 135      EF86DB
 136 0436 B877184A 		.ascii	"\270w\030J\331\034\363\213\332\355u[u|\312\235\261\220"
 136      D91CF38B 
 136      DAED755B 
 136      757CCA9D 
 136      B190
 137 0448 7EFBC4EB 		.ascii	"~\373\304\353\212_d\200N19\\\245\342\021\232\223\316"
 137      8A5F6480 
 137      4E31395C 
 137      A5E2119A 
 137      93CE
 138 045a C3641AD4 		.ascii	"\303d\032\324\020\262\217|\360\343\273O\255\363\233"
 138      10B28F7C 
 138      F0E3BB4F 
 138      ADF39B
 139 0469 DE14FA6A 		.ascii	"\336\024\372jb\273\226\342\242y`\014=%\034\351\373\343"
 139      62BB96E2 
 139      A279600C 
 139      3D251CE9 
 139      FBE3
 140 047b E078C371 		.ascii	"\340x\303q\352T2\305\342w8{~\010t\242\343U0p\312\302"
 140      EA5432C5 
 140      E277387B 
 140      7E0874A2 
 140      E3553070 
 141 0491 7C6AB953 		.ascii	"|j\271SJv\215\012\271,Bl\331\357\000\337\263\205#\265"
 141      4A768D0A 
 141      B92C426C 
ARM GAS  /tmp/ccDCqrSF.s 			page 11


 141      D9EF00DF 
 141      B38523B5 
 142 04a5 F6E9FA29 		.ascii	"\366\351\372)\264\316(&\337\301\223z\337l\015f\022\321"
 142      B4CE2826 
 142      DFC1937A 
 142      DF6C0D66 
 142      12D1
 143 04b7 8DC81AD4 		.ascii	"\215\310\032\324\032Cp\011}\261\336\303V\275\313\023"
 143      1A437009 
 143      7DB1DEC3 
 143      56BDCB13 
 144 04c7 EA7DC856 		.ascii	"\352}\310V\357W2\217\307\233X\357\011)\374\353T\021"
 144      EF57328F 
 144      C79B58EF 
 144      0929FCEB 
 144      5411
 145 04d9 83131773 		.ascii	"\203\023\027sip-\237\344G;\024\203@\205\335y\224\341"
 145      69702D9F 
 145      E4473B14 
 145      834085DD 
 145      7994E1
 146 04ec 4C8D78ED 		.ascii	"L\215x\355\306\244~\343\265\033\346[\324\265B\261C\203"
 146      C6A47EE3 
 146      B51BE65B 
 146      D4B542B1 
 146      4383
 147 04fe 3926461A 		.ascii	"9&F\032\305\334\206b{N\177a\276\010\225\011\212\235"
 147      C5DC8662 
 147      7B4E7F61 
 147      BE089509 
 147      8A9D
 148 0510 C97E8449 		.ascii	"\311~\204I\212M\017\323\211\204\306\005\206\245\212"
 148      8A4D0FD3 
 148      8984C605 
 148      86A58A
 149 051f B3E49E0E 		.ascii	"\263\344\236\016\303Z\215\035t\304\362y(;\253\230\014"
 149      C35A8D1D 
 149      74C4F279 
 149      283BAB98 
 149      0C
 150 0530 0B65675B 		.ascii	"\013eg[\312\"\203j\233\270\262%\356@O\255\221\276&A"
 150      CA22836A 
 150      9BB8B225 
 150      EE404FAD 
 150      91BE2641 
 151 0544 DC4D3671 		.ascii	"\334M6q\377\204,W%S\334\332\263\211\233\217\271LqO|"
 151      FF842C57 
 151      2553DCDA 
 151      B3899B8F 
 151      B94C714F 
 152 0559 9B97CED7 		.ascii	"\233\227\316\327\320\226\037\243\374|\031\261\253J\305"
 152      D0961FA3 
 152      FC7C19B1 
 152      AB4AC5
 153 0568 FAEB8C25 		.ascii	"\372\353\214%\326\214s\025\313`\234$\326L\204J\024\253"
 153      D68C7315 
 153      CB609C24 
ARM GAS  /tmp/ccDCqrSF.s 			page 12


 153      D64C844A 
 153      14AB
 154 057a D658C312 		.ascii	"\326X\303\022\304\252\013\323z\236\267X\335R\212X\310"
 154      C4AA0BD3 
 154      7A9EB758 
 154      DD528A58 
 154      C8
 155 058b A08E89C5 		.ascii	"\240\216\211\305g_\317b#\345\254\004\201\006l\002=\226"
 155      675FCF62 
 155      23E5AC04 
 155      81066C02 
 155      3D96
 156 059d 79B83996 		.ascii	"y\2709\226@\014\367m\311\200\235\235\000\273E\266`G"
 156      400CF76D 
 156      C9809D9D 
 156      00BB45B6 
 156      6047
 157 05af 32C3E6DA 		.ascii	"2\303\346\332u_\033_\234R\2159*\344\013-\013q\010\230"
 157      755F1B5F 
 157      9C528D39 
 157      2AE40B2D 
 157      0B710898 
 158 05c3 4E83EBB8 		.ascii	"N\203\353\270\364#\035\243S\334\347\2520Z\270\217eG"
 158      F4231DA3 
 158      53DCE7AA 
 158      305AB88F 
 158      6547
 159 05d5 09BAF2CF 		.ascii	"\011\272\362\317cg\264\241\015]J\212\177\275J\277j\210"
 159      6367B4A1 
 159      0D5D4A8A 
 159      7FBD4ABF 
 159      6A88
 160 05e7 F9A9707D 		.ascii	"\371\251p}\004d[\241\361S\341\206\010xl\026\024d\013"
 160      04645BA1 
 160      F153E186 
 160      08786C16 
 160      14640B
 161 05fa E2CE8F80 		.ascii	"\342\316\217\200WXi\232\005\364\233r!\337\215\036\357"
 161      5758699A 
 161      05F49B72 
 161      21DF8D1E 
 161      EF
 162 060b CAB41B11 		.ascii	"\312\264\033\021c7\312\260\353\016\333w\335\206\377"
 162      6337CAB0 
 162      EB0EDB77 
 162      DD86FF
 163 061a B7EBEE92 		.ascii	"\267\353\356\222\330\266\211\213\330\017_\177\377\354"
 163      D8B6898B 
 163      D80F5F7F 
 163      FFEC
 164 0628 61F33DC5 		.ascii	"a\363=\305]\264\301\276\202y\350\012F\351?\321\225:"
 164      5DB4C1BE 
 164      8279E80A 
 164      46E93FD1 
 164      953A
 165 063a A1F00035 		.ascii	"\241\360\0005FTu2;;\361\030/y\253\322qn\243\010\376"
 165      46547532 
ARM GAS  /tmp/ccDCqrSF.s 			page 13


 165      3B3BF118 
 165      2F79ABD2 
 165      716EA308 
 166 064f BF51BC2C 		.ascii	"\277Q\274,\331\316\016\212X~\336\373I\274\203|5\254"
 166      D9CE0E8A 
 166      587EDEFB 
 166      49BC837C 
 166      35AC
 167 0661 2203FA7A 		.ascii	"\"\003\372z0\0174Vg\177R'!\207\011\340H</\375\273\026"
 167      300F3456 
 167      677F5227 
 167      218709E0 
 167      483C2FFD 
 168 0677 DFA9A0F7 		.ascii	"\337\251\240\367\370\247{\200\002\373H\357~\302\227"
 168      F8A77B80 
 168      02FB48EF 
 168      7EC297
 169 0686 F193FB24 		.ascii	"\361\223\373$\343 ^\302V\206\263~\234\323\372v\036o"
 169      E3205EC2 
 169      5686B37E 
 169      9CD3FA76 
 169      1E6F
 170 0698 AF364384 		.ascii	"\2576C\204\314\306u\230Hxl\222>~\355\3760\200\302r\371"
 170      CCC67598 
 170      48786C92 
 170      3E7EEDFE 
 170      3080C272 
 171 06ad E97F020E 		.ascii	"\351\177\002\016\221\366\241\035\333\301\010[\310\275"
 171      91F6A11D 
 171      DBC1085B 
 171      C8BD
 172 06bb 1B717674 		.ascii	"\033qvt\312\364\013vT4\2642\332\332\266,\326\322\026"
 172      CAF40B76 
 172      5434B432 
 172      DADAB62C 
 172      D6D216
 173 06ce 6A6A2E57 		.ascii	"jj.W\211\022\013EV\325L\253\234V>-\307\270\015\335\035"
 173      89120B45 
 173      56D54CAB 
 173      9C563E2D 
 173      C7B80DDD 
 174 06e3 2BAF9023 		.ascii	"+\257\220#\241h\264)\034\3624\243\343\012me\310\035"
 174      A168B429 
 174      1CF234A3 
 174      E30A6D65 
 174      C81D
 175 06f5 8A45562D 		.ascii	"\212EV-^\356\326Z\242\261\246\230\307p\366\331\242\346"
 175      5EEED65A 
 175      A2B1A698 
 175      C770F6D9 
 175      A2E6
 176 0707 065A5A23 		.ascii	"\006ZZ#\241\200\332\332|O\2409\264:\240\266h\267k\255"
 176      A180DADA 
 176      7C4FA039 
 176      B43AA0B6 
 176      68B76BAD 
 177 071b D140ACED 		.ascii	"\321@\254\355\316\225\313\003x\323\322\264\"\260\252"
ARM GAS  /tmp/ccDCqrSF.s 			page 14


 177      CE95CB03 
 177      78D3D2B4 
 177      22B0AA
 178 072a B52D160D 		.ascii	"\265-\026\015,i\014N\257\01444\314\0134.\010\256\256"
 178      2C690C4E 
 178      AF0C3434 
 178      CC0B342E 
 178      08AEAE
 179 073d 084463CB 		.ascii	"\010Dc\313V\254h.o!\2632a\264\305\004\304\234\233\203"
 179      56AC682E 
 179      6F21B332 
 179      61B4C504 
 179      C49C9B83 
 180 0751 738377A3 		.ascii	"s\203w\243\203\332\332\026Z\026\323\"\2416\214\317\255"
 180      83DADA16 
 180      5A16D322 
 180      A1368CCF 
 180      AD
 181 0762 BFA5B13E 		.ascii	"\277\245\261>x\323\214\222\362\312;\346*d\334\202\371"
 181      78D38C92 
 181      F2CA3BE6 
 181      2A64DC82 
 181      F9
 182 0773 4B83F850 		.ascii	"K\203\370PqGI\311\304\204\216z[G}\243\325\361\0376\326"
 182      714749C9 
 182      C4848E7A 
 182      5B477DA3 
 182      D5F11F36 
 183 0788 C69A     		.ascii	"\306\232"
 184              		.text
 185              		.section	.gnu.lto_sensorThreadStop.326a91b3b6ba4b99,"",%progbits
 186 0000 789C6362 		.ascii	"x\234cb`b@\007\222@<\003\210\205\200\230\221\231\201"
 186      60624007 
 186      92403C03 
 186      88858098 
 186      919981
 187 0013 9169C239 		.ascii	"\221i\3029\006\206F\016&FF\020\203\201\221\241\236\211"
 187      0686460E 
 187      26464610 
 187      838191A1 
 187      9E89
 188 0025 B13E9211 		.ascii	"\261>\222\021\254v=\323\201\007\377\377\257\373pj\301"
 188      AC763DD3 
 188      8107FFFF 
 188      AFFB706A 
 188      C1
 189 0036 2E462616 		.ascii	".F&\026&\306\\\2600+CKC\303\004\005\006\206d07\004H"
 189      26C65CB0 
 189      302B434B 
 189      43C30405 
 189      06866430 
 190 004d 82B48632 		.ascii	"\202\264\20622\201h\346\263\014M;v\254{\311\224\310"
 190      328168E6 
 190      B30C4D3B 
 190      76AC7BC9 
 190      94C8
 191 005f B8909195 		.ascii	"\270\220\221\225A\233aU\003\020\230g22\314f\230\305"
ARM GAS  /tmp/ccDCqrSF.s 			page 15


 191      419B6155 
 191      03109867 
 191      3232CC66 
 191      98C5
 192 0071 98C9C898 		.ascii	"\230\311\310\230\316\310\024\001\244!.K\202X\304\000"
 192      CEC81401 
 192      A4212E4B 
 192      8258C400 
 193 0081 1201332E 		.ascii	"\022\0013.24>\330\245\012\321\013\003!\214\214 \223"
 193      32343ED8 
 193      A50AD10B 
 193      03218C8C 
 193      2093
 194 0093 413A048A 		.ascii	"A:\004\212S\363\212\363\213\342K2\212R\023S\364\222"
 194      53F38AF3 
 194      8BE24B32 
 194      8A521353 
 194      F492
 195 00a5 1900D726 		.ascii	"\031\000\327&,\265"
 195      2CB5
 196              		.text
 197              		.section	.gnu.lto_.symbol_nodes.326a91b3b6ba4b99,"",%progbits
 198 0000 789C45CC 		.ascii	"x\234E\314\271R\002A\024\205\341\323g\030qA\001\367"
 198      B9520241 
 198      1485E1D3 
 198      67187141 
 198      01F7
 199 0012 1D5F8CC0 		.ascii	"\035_\214\300'\271\350\270\340\216\373\016A\007>\205"
 199      27B9E8B8 
 199      E08EFB0E 
 199      41073E85 
 200 0022 D1E41A10 		.ascii	"\321\344\032\020\020Xe\251\223\032\033\252t\367\350"
 200      105865A9 
 200      931A1BAA 
 200      74F7E8
 201 0031 9DE43F5F 		.ascii	"\235\344?_\337\252!\210\007\"|\3741\002\264\236\000"
 201      DFAA2188 
 201      07227CFC 
 201      3102B49E 
 201      00
 202 0042 9183E62A 		.ascii	"\221\203\346*7)&g\273i\342\006\007\013\022\305MF\020"
 202      37292667 
 202      BB69E206 
 202      070B12C5 
 202      4D4610
 203 0055 C4BB2CB8 		.ascii	"\304\273,\270\254\263\350\036\367\030;\255q\300\351"
 203      ACB3E81E 
 203      F7183BAD 
 203      71C0E9
 204 0064 B6FFC7BE 		.ascii	"\266\377\307\276\022\032\247\015\262\037nQ\250\1773"
 204      121AA70D 
 204      B21F6E51 
 204      A87F33
 205 0073 1D4A14D8 		.ascii	"\035J\024\330h\030\323\246\024T\367\224XuG\031P\235"
 205      6818D3A6 
 205      1454F794 
 205      58754719 
ARM GAS  /tmp/ccDCqrSF.s 			page 16


 205      509D
 206 0085 518AAA1B 		.ascii	"Q\212\252\033\312\240\352\2322\244\272\242\014\253."
 206      CAA0EA9A 
 206      32A4BAA2 
 206      0CAB2E
 207 0094 2923AA0B 		.ascii	")#\252\013JIuN\031U\235P\306T\247\224\262\352\230RQ"
 207      4A49754E 
 207      19559D50 
 207      C654A794 
 207      B2EA9852 
 208 00a9 B52855D5 		.ascii	"\265(U\325\021e\\uH\231P\035P&U\373\224)\325\016eZ\265"
 208      11655C75 
 208      4899501D 
 208      502655FB 
 208      9429D50E 
 209 00c0 4D99F957 		.ascii	"M\231\371W\2041$o\337\375\216\302\372\226\220\272\232"
 209      8431246F 
 209      DFFD8EC2 
 209      FA9690BA 
 209      9A
 210 00d1 95BC3524 		.ascii	"\225\2745$\357\241\326w\031\231\357\022\354\326g\315"
 210      EFA1D677 
 210      1999EF12 
 210      ECD667CD 
 211 00e1 35F35D84 		.ascii	"5\363]\204\335v]@\346;\017\273\353:\207\324w\006Y\356"
 211      DD765D40 
 211      E63B0FBB 
 211      EB3A87D4 
 211      770659EE 
 212 00f5 642FD8FA 		.ascii	"d/\330\372\316\"\315\235\345M\016]+\260\317?\217qd\246"
 212      CE22CD9D 
 212      E54D0E5D 
 212      2BB0CF3F 
 212      8F7164A6 
 213 0109 9185017C 		.ascii	"\221\205\001|\234|\325#3\005\333\365\017\223H\273\371"
 213      9C7CD523 
 213      3305DBF5 
 213      0F9348BB 
 213      F9
 214 011a 65FD325C 		.ascii	"e\3752\\\322^~\311z\177\227\027?&\220\2051\216\344\325"
 214      D25E7EC9 
 214      7A7F9717 
 214      3F269085 
 214      318EE4D5 
 215 012e 8F2A6C18 		.ascii	"\217*l\030\025\244a\224a;_u\374\002M\340\311\260"
 215      15A46194 
 215      613B5F75 
 215      FC024DE0 
 215      C9B0
 216              		.text
 217              		.section	.gnu.lto_.refs.326a91b3b6ba4b99,"",%progbits
 218 0000 789C6362 		.ascii	"x\234cb`bPg\200\000!FF&&f&\026&V&6&v f\003\262A\230"
 218      60625067 
 218      80002146 
 218      46262666 
 218      26162656 
 219 001e 05280A82 		.ascii	"\005(\012\202\034L\234L\\\014\000\023\337\000\277"
ARM GAS  /tmp/ccDCqrSF.s 			page 17


 219      1C4C9C4C 
 219      5C0C0013 
 219      DF00BF
 220              		.text
 221              		.section	.gnu.lto_.decls.326a91b3b6ba4b99,"",%progbits
 222 0000 789CBD7D 		.ascii	"x\234\275}\011\230\024E\266nf\355\005-\002\352\210\216"
 222      09981445 
 222      B66E66ED 
 222      052D02EA 
 222      888E
 223 0012 77ACB977 		.ascii	"w\254\271w\346=\277\2713\322\3350\312\334\271\243`7"
 223      E63DBFB9 
 223      33D2DD30 
 223      CADCB9A3 
 223      6037
 224 0024 287341B8 		.ascii	"(sA\270\335\355\\\235\367\336W&\335\005\364LoVU#\276"
 224      DDED5C9D 
 224      F7DE5726 
 224      DD05F44C 
 224      6F565523 
 225 0039 77BF67B2 		.ascii	"w\277g\262\330.\2406\373\276\203\270\200\322l\315N\001"
 225      D82EA036 
 225      FBBE83B8 
 225      80D26CCD 
 225      4E01
 226 004b D2800874 		.ascii	"\322\200\010t\263\3574(\210\200\310\"[7\320\357\304"
 226      B3EF3428 
 226      8880C822 
 226      5B37D0EF 
 226      C4
 227 005c 89CCAA88 		.ascii	"\211\314\252\210\254\314\254\314\322\373\352\373\342"
 227      ACCCACCC 
 227      D2FBEAFB 
 227      E2
 228 0069 645456C6 		.ascii	"dTV\306\037'N\2348qb\313r\010\016a\252S\020Z\340\223"
 228      1F274E9C 
 228      387162CB 
 228      72080E61 
 228      AA53105A 
 229 007f B1541096 		.ascii	"\261T\020\226\265\027\004\227 \010OAx@\240\361Y\020"
 229      B5170497 
 229      20084F41 
 229      7840A0F1 
 229      5910
 230 0091 E6423809 		.ascii	"\346B8\011\341\267\016A8\012\327\216p\375?\242 \034"
 230      E1B70E41 
 230      380AD78E 
 230      70FD3FA2 
 230      201C
 231 00a3 82EB4508 		.ascii	"\202\353E\010\004c\032\204\031\020V@X\011a5\204%\360"
 231      04631A84 
 231      19105640 
 231      58096135 
 231      8425F0
 232 00b6 DBE770ED 		.ascii	"\333\347p\355\011\327~\020\352 \015\371t\200p\000\356"
 232      09D77E10 
 232      EA200DF9 
ARM GAS  /tmp/ccDCqrSF.s 			page 18


 232      74807000 
 232      EE
 233 00c7 5F86701D 		.ascii	"_\206p\035\302\237 \243\247 \364\202\320\033\302\277"
 233      C29F20A3 
 233      A720F482 
 233      D01BC2BF 
 234 00d7 437801C2 		.ascii	"Cx\001\302\377\204\320\017B1\204r\010\257@x\025\302"
 234      FF84D00F 
 234      42318472 
 234      08AF4078 
 234      15C2
 235 00e9 7F42F8BF 		.ascii	"\177B\370\277\020\206Ax\007\302(\010\023 L\2050\033"
 235      10864178 
 235      07C22808 
 235      13204C85 
 235      301B
 236 00fb C27C087E 		.ascii	"\302|\010~\310\343\023\270.\204\260\010\302b\010K!,"
 236      C8E313B8 
 236      2E84B008 
 236      C262084B 
 236      212C
 237 010d 87B002C2 		.ascii	"\207\260\002\302j\010\353\\\002\367!<\265\206k\016\334"
 237      6A08EB5C 
 237      02F7213C 
 237      B5866B0E 
 237      DC
 238 011e 6F03D70C 		.ascii	"o\003\327\014E\0061 \237C\330\000a3\204\247!\324A\330"
 238      45063120 
 238      9F43D800 
 238      613384A7 
 238      21D441D8 
 239 0132 A2A47729 		.ascii	"\242\244w)i{)\345 \345\201\342\012\027\340\336E'\237"
 239      697B29E5 
 239      20E581E2 
 239      0A17E0DE 
 239      45279F
 240 0145 0729F3BF 		.ascii	"\007)\363\277\301\365q!\221G\265He\265\031\256QH[\002"
 240      C1F57121 
 240      9147B548 
 240      65B519AE 
 240      51485B02 
 241 0159 21042108 		.ascii	"!\004!\010\241\312E\353\340\011\010\231\020\232 \375"
 241      A1CA45EB 
 241      E0090899 
 241      109A20FD 
 242 0169 2D2795A5 		.ascii	"-'\225\245\013~\333\006\341C\027\255\207/\340\272\335"
 242      0B7EDB06 
 242      E14317AD 
 242      872FE0BA 
 242      DD
 243 017a 9590F71C 		.ascii	"\225\220\367\034\027\255\207/]\264\276\246\271h\035"
 243      17AD872F 
 243      5DB4BEA6 
 243      B9681D
 244 0189 ED80EB44 		.ascii	"\355\200\353D\027\255\277\235p\035\355\242u\272\013"
 244      17ADBF9D 
 244      701DEDA2 
ARM GAS  /tmp/ccDCqrSF.s 			page 19


 244      75BA0B
 245 0198 AE235CB4 		.ascii	"\256#\\\264\316\352\341:\034B\003\204\327!\354\2060"
 245      CEEAE13A 
 245      1C420384 
 245      D721EC86 
 245      30
 246 01a9 18C21E08 		.ascii	"\030\302\036\010\317C8\002x{I9\335\202\340\005\276\234"
 246      CF433802 
 246      787B4939 
 246      DD82E005 
 246      BE9C
 247 01bb 70CD83EF 		.ascii	"p\315\203\357.\270\206\341\352\201{nwB\037\016B\360"
 247      2EB886E1 
 247      EA817B6E 
 247      77421F0E 
 247      42F0
 248 01cd C0F7BFB9 		.ascii	"\300\367\277\271\022\372\342\205\357\205\360\335\007"
 248      12FAE285 
 248      EF85F0DD 
 248      07
 249 01da D7FF45EA 		.ascii	"\327\377E\352\314\235\254k\177\201\373\367\302U\204"
 249      CC9DAC6B 
 249      7F81FBF7 
 249      C25584
 250 01e9 AB933C03 		.ascii	"\253\223<\003\241\013\204' t\206\220\015!\023\302\343"
 250      A10B8427 
 250      20748690 
 250      0D2113C2 
 250      E3
 251 01fa 101E82F0 		.ascii	"\020\036\202\360s\010g!\334\003\341A\010\355\\T\227"
 251      73086721 
 251      DC03E141 
 251      08ED5C54 
 251      97
 252 020b 89DCE72B 		.ascii	"\211\334\347+\3721U\321\227Q\212\376\014S\364I\325\255"
 252      FA3155D1 
 252      97518AFE 
 252      0C53F449 
 252      D5AD
 253 021d 566EAA83 		.ascii	"Vn\252\203D\337H\275\226+:\330O\321\311\027\024=m\005"
 253      44DF48BD 
 253      962B3AD8 
 253      4FD1C917 
 253      143D6D05 
 254 0231 B8579D54 		.ascii	"\270W\235T\217T\375Z\315\350\030\253\177\354\207\350"
 254      8F54FD5A 
 254      CDE818AB 
 254      7FEC87E8 
 255 0241 BC53695B 		.ascii	"\274Si[j}\212J\031E\345wr\375\243&\235OxS\226\207\312"
 255      6A7D8A4A 
 255      1945E577 
 255      72FDA326 
 255      9D4F7853 
 256 0258 8D6FC843 		.ascii	"\215o\310C\304W\004\341EQ\022\333\370\341.\211d\370"
 256      C45704E1 
 256      455112DB 
 256      F8E12E89 
ARM GAS  /tmp/ccDCqrSF.s 			page 20


 256      64F8
 257 026a 31C9AF85 		.ascii	"1\311\257\205\271\262,W\313\262C\022g\211>PC\207(\350"
 257      B9B22C57 
 257      CBB24312 
 257      67893E50 
 257      438728E8 
 258 027e 7EE8EFE4 		.ascii	"~\350\357\344C\222\323\270\032\023I;x\207\3445\263J"
 258      4392D3B8 
 258      1A13493B 
 258      7887E435 
 258      B34A
 259 0290 7E6E6B9B 		.ascii	"~nk\233\366\302(@\225\003[\333\304s\235\351T\263\355"
 259      F6C22840 
 259      95035BDB 
 259      C4739DE9 
 259      54B3ED
 260 02a3 AC665BDD 		.ascii	"\254f[\335Xsa\376\277\310\262O\022\347\211\355!\353"
 260      587361FE 
 260      BFC8B24F 
 260      12E789ED 
 260      21EB
 261 02b5 DEA2F01B 		.ascii	"\336\242\360\033\341#\312\317\251\177\326\343#%\260"
 261      E123CACF 
 261      A97FD6E3 
 261      2325B0
 262 02c4 24CE171D 		.ascii	"$\316\027\035@?\002@I\374P\374\215R\302X\313\344\014"
 262      403F0240 
 262      49FC50FC 
 262      8D52C258 
 262      CBE40C
 263 02d7 D945EF0B 		.ascii	"\331E\357\013\312/:\237_\0123\241\024\261\011G\246?"
 263      CA2F3A9F 
 263      5F0A33A1 
 263      14B10947 
 263      A63F
 264 02e9 2837C644 		.ascii	"(7\306D\257PE\0058\264\303\3046&\002\254n\274S\2677"
 264      AF504505 
 264      38B4C3C4 
 264      362602AC 
 264      6EBC53B7 
 265 02fe 0B4BB200 		.ascii	"\013K\262\000\0229\204Q\242\310eb\001\210p\365\031$"
 265      12398451 
 265      A2C86562 
 265      018870F5 
 265      1924
 266 0310 E6B85E56 		.ascii	"\346\270^Vu/\341\232\3347\341\332I\254\007\230f\310"
 266      752FE19A 
 266      DC37E1DA 
 266      49AC0798 
 266      66C8
 267 0322 9400BAFC 		.ascii	"\224\000\272\374\211{\363\023\367D\346\321E\211\333"
 267      897BF313 
 267      F744E6D1 
 267      4589DB
 268 0331 0EE6F6AA 		.ascii	"\016\346\366\252\304m's{s\342\266\213\271\275;q\333"
 268      C46D2773 
 268      7B73E2B6 
ARM GAS  /tmp/ccDCqrSF.s 			page 21


 268      8BB9BD3B 
 268      71DB
 269 0343 AD7042BE 		.ascii	"\255pB\276\212\376D\244\205\257D\266\204\222\270H\374"
 269      8AFE44A4 
 269      85AF44B6 
 269      8492B848 
 269      FC
 270 0354 35D01AD1 		.ascii	"5\320\032\321\251\233\314!\034E!\222\032\323\223\227"
 270      A99BCC21 
 270      1C452192 
 270      1AD39397 
 271 0364 124DE4DB 		.ascii	"\022M\344\333F\375\242\324bc\315\232\345OM\222c\303"
 271      46FDA2D4 
 271      6263CD9A 
 271      E54F4D92 
 271      63C3
 272 0376 9D7ABA09 		.ascii	"\235z\272\011_DF\213\002*\236+^\247\261k\207\305\200"
 272      5F44468B 
 272      022A9E2B 
 272      5EA7B16B 
 272      87C580
 273 0389 FAB4C7E8 		.ascii	"\372\264\307\350YI\334\000\305H\371\030yp\223V'/\037"
 273      5949DC00 
 273      C548F918 
 273      79709356 
 273      272F1F
 274 039c 469DDC64 		.ascii	"F\235\334dI'\257\036\236\376\220<s#H\347\255Da\314\370"
 274      4927AF1E 
 274      9EFE903C 
 274      732348E7 
 274      AD4461CC 
 275 03b1 6F1CF7FE 		.ascii	"o\034\367\376\346\015\342PY\206\037\352DR\321o:x\255"
 275      E60DE250 
 275      59861FEA 
 275      4452D16F 
 275      3A78AD
 276 03c4 B40ED530 		.ascii	"\264\016\3250z\315\037P\275\267!\320f\015\220$z\375"
 276      7ACD1F50 
 276      BDB721D0 
 276      660D9024 
 276      7AFD
 277 03d6 2CCBF85D 		.ascii	",\313\370]}\200\240y\375\211\010\361\036\356\025\354"
 277      7D80A079 
 277      FD8908F1 
 277      1EEE15EC 
 278 03e6 3EEE10EA 		.ascii	">\356\020\3521\323M\011u\340\0305Q\007&\037\252x\237"
 278      31D34D09 
 278      75E01835 
 278      5107261F 
 278      AA789F
 279 03f9 A3E26D16 		.ascii	"\243\342m\026\177\231\370\311!\354O*\023\255\027&u\242"
 279      7F99F8C9 
 279      21EC4F2A 
 279      13AD1726 
 279      75A2
 280 040b 02056D7A 		.ascii	"\002\005mz\243:_/\266Nd\321\350\320(t\312\022\004X\025"
 280      A33A5F2F 
ARM GAS  /tmp/ccDCqrSF.s 			page 22


 280      B64E64D1 
 280      E8D02874 
 280      CA120458 
 281 0420 0073A9A7 		.ascii	"\000s\251\247\320J-\312U\362c\037&j\261\255\212\347"
 281      D04A2DCA 
 281      55F2631F 
 281      266AB1AD 
 281      8AE7
 282 0432 88D7626C 		.ascii	"\210\327bl\306\230\007\210\2765`\035~\243\257\014\251"
 282      C6980788 
 282      BE35601D 
 282      7EA3AF0C 
 282      A9
 283 0443 6140AF6A 		.ascii	"a@\257j\177\213\312\260\027\201\256\246\015\3240z>\325"
 283      7F8BCAB0 
 283      1781AEA6 
 283      0DD4307A 
 283      3ED5
 284 0455 AA030874 		.ascii	"\252\003\010t;\251\006\234\032\255r\362j\342\364'\""
 284      3BA9069C 
 284      1AAD72F2 
 284      6AE2F427 
 284      22
 285 0466 2D2DBCE3 		.ascii	"--\274\343\364\023?lT\277\365l\375\276\351\264P\277"
 285      F4133F6C 
 285      54BFF56C 
 285      FDBEE9B4 
 285      50BF
 286 0478 893E34D9 		.ascii	"\211>4\331`\335^\376'\254_\353\015s\375\344\375W\225"
 286      60DD5EFE 
 286      27AC5FEB 
 286      0D73FDE4 
 286      FD5795
 287 048b 367E1485 		.ascii	"6~\024\205\270\321\251\025\242[#D7_T\267?\021\211\267"
 287      B8D1A915 
 287      A25B2344 
 287      375F54B7 
 287      3F1189B7 
 288 049f B56DB64B 		.ascii	"\265m\266K\242\321\324\005\265&\246W\346Lo\314\241\002"
 288      A2D1D405 
 288      B526A657 
 288      E64C6FCC 
 288      A102
 289 04b1 3E9650D5 		.ascii	">\226P\325}\011\333\0330|V\022\277J\330^\343\307\310"
 289      7D09DB1B 
 289      307C5612 
 289      BF4AD85E 
 289      E3C7C8
 290 04c4 83A7936C 		.ascii	"\203\247\223l\357~\264\275\247-\331\336[\373\251?\240"
 290      EF7EB4BD 
 290      A72DD9DE 
 290      5BFBA93F 
 290      A0
 291 04d5 FA48BB50 		.ascii	"\372H\273P<\247\323\355\231b\325\0232\352_\266\336n"
 291      3CA7D3ED 
 291      9962D513 
 291      32EA5FB6 
ARM GAS  /tmp/ccDCqrSF.s 			page 23


 291      DE6E
 292 04e7 57D2767B 		.ascii	"W\322v{\016+\370`R\005\357\025m6\023\207p^[\000.[\275"
 292      0E2BF860 
 292      5205EF15 
 292      6D361387 
 292      705E5B00 
 293 04fe 02B4E50A 		.ascii	"\002\264\345\0120\351\000\355\214\270\352\375\2310N"
 293      30E900ED 
 293      8CB8EAFD 
 293      99304E
 294 050d E9596531 		.ascii	"\351Ye1*\211O=`\330j.\211?\303\230\223z\037\2228\027"
 294      2A894F3D 
 294      60D86A2E 
 294      893FC398 
 294      937A1F92 
 295 0523 90E25F94 		.ascii	"\220\342_\2246\025\377~\224\226O\022_H\264Z\223n{\312"
 295      3615FF7E 
 295      94964F12 
 295      5F48B45A 
 295      936E7BCA 
 296 0537 F8FB89B4 		.ascii	"\370\373\211\264\276\007\024\207pS#-\216a\312\210\021"
 296      BE071487 
 296      7053232D 
 296      8E61CA88 
 296      11
 297 0548 93D70140 		.ascii	"\223\327\001@_1\222~s\300\260K#P{\246=V\363\343\004"
 297      5F31927E 
 297      73C0B04B 
 297      23507BA6 
 297      3D56F3E3 
 298 055d DA642250 		.ascii	"\332d\"P\313Nl\354\330\0361 \211w\320\203}\327\225\226"
 298      CB4E6CEC 
 298      D81E3120 
 298      8977D083 
 298      7DD79596 
 299 0571 072B3B34 		.ascii	"\007+;4\036\354\2011\350\301\222\373\251=\330\211\256"
 299      1EEC8131 
 299      E8C192FB 
 299      A93DD889 
 299      AE
 300 0582 640FF613 		.ascii	"d\017\366\023\027\357\301\012\026\274\314\004\027\222"
 300      17EFC10A 
 300      16BCCC04 
 300      1792
 301 0590 38C4413A 		.ascii	"8\304A:\373\241\016}/\323\206^\255\245zu\013\365j\215"
 301      FBA10E7D 
 301      2FD3865E 
 301      ADA57A75 
 301      0BF56A8D 
 302 05a4 CB54AF9A 		.ascii	"\313T\257\232L\364\352-\207\261^i~\003KcE\257\214\273"
 302      4CF4EA2D 
 302      87B15E69 
 302      7E034B63 
 302      45AF8CBB 
 303 05b8 94D87A45 		.ascii	"\224\330zE\257T\027\360\240m<^O\217\036\310\250\226"
 303      AF5417F0 
 303      A06D3C5E 
ARM GAS  /tmp/ccDCqrSF.s 			page 24


 303      4F8F1EC8 
 303      A896
 304 05ca 54B0A356 		.ascii	"T\260\243V\300\332\0323w\223\005k\264\015\306s6\366"
 304      C0DA1A33 
 304      7793056B 
 304      B40DC673 
 304      36F6
 305 05dc 300376C6 		.ascii	"0\003v\306\012X\007c\316\246\263`\027l\203\361\234\255"
 305      0A580763 
 305      CEA6B360 
 305      176C83F1 
 305      9CAD
 306 05ee 60C12E5B 		.ascii	"`\301.[\001\013\030s\266\233\005\273n\033,\220\244r"
 306      010B1873 
 306      B69B05BB 
 306      6E1B2C90 
 306      A472
 307 0600 B4959C41 		.ascii	"\264\225\234A\227\370\033pi%\361[\244\027\221\336D\372"
 307      97F81B70 
 307      6925F15B 
 307      A41791DE 
 307      44FA
 308 0612 8E83D091 		.ascii	"\216\203\320\221H\337CZ\215t4\322\261H\307;8w\272\331"
 308      48DF435A 
 308      8D7434D2 
 308      B148C73B 
 308      3877BAD9 
 309 0626 A5EDA64E 		.ascii	"\245\355\246Nk\335\351\323\234;\375\223\345m\324\356"
 309      6BDDE9D3 
 309      9C3BFD93 
 309      E56DD4EE 
 310 0636 4EB2AEDA 		.ascii	"N\262\256\332{n\013\016\216\211\352^:\002\325\220r\316"
 310      7B6E0B0E 
 310      8E89EA5E 
 310      3A02D590 
 310      72CE
 311 0648 C3A522E5 		.ascii	"\303\245\"\345\012q\217\355\300\271X\207U\262\334V\022"
 311      0A718FED 
 311      C0B95887 
 311      55B2DC56 
 311      12
 312 0659 A73AC8A4 		.ascii	"\247:\310\244\307\227n^P)q\034\302>L2\303\301\2734\215"
 312      C7976E5E 
 312      5029711C 
 312      C23E4C32 
 312      C3C1BB34 
 313 066e 2D171B7F 		.ascii	"-\027\033\177>\021\221\311O\251\275\232\346\252i\311"
 313      3E1191C9 
 313      4FA9BD9A 
 313      E6AA69C9 
 314 067e 7D0E65CB 		.ascii	"}\016e\313H\206s\264\366i\254Ge\305\346\240L\341\341"
 314      488673B4 
 314      F669AC47 
 314      65C5E6A0 
 314      4CE1E1
 315 0691 6E1DAA33 		.ascii	"n\035\2523\301u\010Sl\203\0058\2601[\246\332\035\"_"
 315      C1750853 
ARM GAS  /tmp/ccDCqrSF.s 			page 25


 315      6C830538 
 315      B0315BA6 
 315      DA1D225F 
 316 06a5 3DFBD05A 		.ascii	"=\373\320Z\024\331\207\016\322\240\316{\264Z[\247u\256"
 316      14D9870E 
 316      D2A0CE7B 
 316      B45A5BA7 
 316      75AE
 317 06b7 AC0C55AF 		.ascii	"\254\014U\257Z)\210\241\325&5Y\377\310\312\305\262\374"
 317      5A2988A1 
 317      D5263559 
 317      FFC8CAC5 
 317      B2FC
 318 06c9 B627E5C4 		.ascii	"\266'\345\304\202Ch\302\314\026j\265a\\S\375\357\250"
 318      824368C2 
 318      CC166AB5 
 318      615C53FD 
 318      EFA8
 319 06db 362CB4A4 		.ascii	"6,\264\244\015\265\333'$k\203\2362z\324\354\2130\373"
 319      0DB5DB27 
 319      246B839E 
 319      327AD4EC 
 319      8B30FB
 320 06ee 355E92FD 		.ascii	"5^\222\375bm\3665w\317>E\263_l)\373\023\273\306\352"
 320      626DF635 
 320      77CF3E45 
 320      B35F6C29 
 320      FB13BBC6 
 321 0703 29A381CF 		.ascii	")\243\201\317\243V_\323\245\307f`&\313Q\201\252|\332"
 321      A3565FD3 
 321      A5C76660 
 321      26CB5181 
 321      AA7CDA
 322 0716 EA7BBA35 		.ascii	"\352{\2725\233\027~\347\364\367}\237\312}Z\372\013\305"
 322      9B177EE7 
 322      F4F77D9F 
 322      CA7D5AFA 
 322      0BC5
 323 0728 8C3DFD11 		.ascii	"\214=\375\021\326\224\312\303\030\333\210\274\022_\331"
 323      D694CAC3 
 323      18DB88BC 
 323      125FD9
 324 0737 852D8282 		.ascii	"\205-\202\202M\260\002f\322\375\377\300\202M\261\015"
 324      4DB00266 
 324      D2FDFFC0 
 324      824DB10D 
 325 0747 C673769D 		.ascii	"\306sv\235\005\233a\005\314\254\357g\301\346\330\006"
 325      059B6105 
 325      CCACEF67 
 325      C1E6D806 
 326 0757 E3396B62 		.ascii	"\3439kb\301\346[\0013\351\373o\263`\237\330\006\343"
 326      C1E65B01 
 326      33E9FB6F 
 326      B3609FD8 
 326      06E3
 327 0769 39BBCB82 		.ascii	"9\273\313\202}f\005,`\314Y\365n\006l\211m0\236\263\321"
 327      7D66052C 
ARM GAS  /tmp/ccDCqrSF.s 			page 26


 327      60CC59F5 
 327      6E066C89 
 327      6D309EB3 
 328 077e 2C58AD15 		.ascii	",X\255\025\260\307\2149\033\313\202\255\266\015\306"
 328      B0C78C39 
 328      1BCB82AD 
 328      B60DC6
 329 078d 73369E05 		.ascii	"s6\236\005[o\005,\323\230\263\211,\330&\333`<g\223Y"
 329      5B6F052C 
 329      D398B389 
 329      2CD826DB 
 329      603C6793 
 330 07a2 B02D56C0 		.ascii	"\260-V\300\272\030s6\225\005\333n\033\214\347l\021\013"
 330      BA187336 
 330      9505DB6E 
 330      1B8CE76C 
 330      110B
 331 07b4 B6CB0A58 		.ascii	"\266\313\012XWc\316\026\263`\273m\203\361\234-e\301"
 331      5763CE16 
 331      B360BB6D 
 331      83F19C2D 
 331      65C1
 332 07c6 F659017B 		.ascii	"\366Y\001{\316\230\263\345,\330"
 332      CE98B3E5 
 332      2CD8
 333 07d0 41DB603C 		.ascii	"A\333`<g+X\260#V\300\372\032s\266\212\005;n\033\214"
 333      672B58B0 
 333      2356C0FA 
 333      1A73B68A 
 333      053B6E1B 
 334 07e5 E76C0D0B 		.ascii	"\347l\015\013v\322\012\330\213\306\234\255c\301N\333"
 334      76D20AD8 
 334      8BC69CAD 
 334      63C14EDB 
 335 07f5 06E339AB 		.ascii	"\006\3439\253g\301\276\265\002\366\262\016g\361\217"
 335      67C1BEB5 
 335      02F6B20E 
 335      67F18F
 336 0804 919F59E3 		.ascii	"\221\237Y\343`|\365\013>\325\301\261\331G\013\011\214"
 336      607CF50B 
 336      3ED5C1B1 
 336      D9470B09 
 336      8C
 337 0815 4B3EBB1E 		.ascii	"K>\273\036\031Wn\342[?\262J\351\347\251\263z\335\012"
 337      19576EE2 
 337      5B3FB24A 
 337      E9E7A9B3 
 337      7ADD0A
 338 0828 A2490738 		.ascii	"\242I\0078y\013\343\371\336\265\015\246Q\345-\332\341"
 338      790BE3F9 
 338      DEB50DA6 
 338      51E52DDA 
 338      E1
 339 0839 88E20337 		.ascii	"\210\342\0037\316\213\231\317\372\340\332o\374a\271"
 339      CE8B99CF 
 339      FAE0DA6F 
 339      FC61B9
ARM GAS  /tmp/ccDCqrSF.s 			page 27


 340 0848 4307FD67 		.ascii	"C\007\375g%\361*\316\243\374\340\360\307\271\240q5F"
 340      25F12ACE 
 340      A3FCE0F0 
 340      C7B9A071 
 340      3546
 341 085a D7ECAAFC 		.ascii	"\327\354\252\374\206\313\307\346I\2154\3412\253\011"
 341      86CBC7E6 
 341      498D34E1 
 341      32AB09
 342 0869 23FC16C4 		.ascii	"#\374\026\304d\322\265\237\3302\025\347q\231\362\246"
 342      64D2B59F 
 342      D83215E7 
 342      7199F2A6 
 343 0879 58D71D77 		.ascii	"X\327\035w\265^\031 \334\304\001\302h\277\356b\207\025"
 343      B55E1920 
 343      DCC401C2 
 343      68BFEE62 
 343      8715
 344 088b A4F717FE 		.ascii	"\244\367\027\3763.v4#\320\224\264\201\032FO\357\202"
 344      332E7634 
 344      23D094B4 
 344      811A464F 
 344      EF82
 345 089d 40771168 		.ascii	"@w\021h\216\006H\231\343b\004/\362#\026\323\231\263"
 345      8E064899 
 345      E362042F 
 345      F22316D3 
 345      99B3
 346 08af 9FF05987 		.ascii	"\237\360Y\207\260P[]z\323\344\306\316\0234\272\203\217"
 346      B0505B5D 
 346      7AD3E4C6 
 346      CE1334BA 
 346      838F
 347 08c1 AEFC5496 		.ascii	"\256\374T\226\207y\354T\330V\245\302\2069\211x\226%"
 347      8779EC54 
 347      D856A5C2 
 347      86398978 
 347      9625
 348 08d3 89A7D961 		.ascii	"\211\247\331aO>\016a\255\355r<\246)G\3541\373\3458\250"
 348      4F3E0E61 
 348      ADED723C 
 348      A62947EC 
 348      31FBE538 
 349 08e8 94E32D2C 		.ascii	"\224\343-,\307\346\237\240\034;l\227#\223)\007\016K"
 349      C7E69FA0 
 349      1C3B6C97 
 349      23932907 
 349      0E4B
 350 08fa 1FA7C3D2 		.ascii	"\037\247\303\322\373\204\321\251\327\273\337u\336\307"
 350      FB84D1A9 
 350      D7BBDF75 
 350      DEC7
 351 0908 8D096387 		.ascii	"\215\011c\207\276 \363\313\344v\252\361\240\034\273"
 351      BE20F3CB 
 351      E476AAF1 
 351      A01CBB
 352 0917 F1053396 		.ascii	"\361\0053\226\227\255\215\345/)\022\253F\211\355\325"
ARM GAS  /tmp/ccDCqrSF.s 			page 28


 352      97AD8DE5 
 352      2F2912AB 
 352      4689EDD5 
 353 0927 6B61D690 		.ascii	"ka\326\220v}^\243,\252\215A\250\303iC5\354\256\245\215"
 353      767D5EA3 
 353      2CAA8D41 
 353      A8C36943 
 353      35ECAEA5 
 354 093c 753C029D 		.ascii	"u<\002\235J\252E\217\246\022=|%\302W\222\323M2\265 "
 354      4AAA458F 
 354      A6123D7C 
 354      25C25792 
 354      D34D32B5 
 355 0951 BEAEDC21 		.ascii	"\276\256\334!_\274\302\377\367t\320\023#\373\244\002"
 355      5FBCC2FF 
 355      F774D013 
 355      23FBA402 
 356 0961 6DF6C409 		.ascii	"m\366\304\011\005\372\355J\245\027\245\225t\365G!\016"
 356      05FAED4A 
 356      A517A595 
 356      74F54721 
 356      0E
 357 0972 8D2D1931 		.ascii	"\215-\0311M\231\337~\232\364\243\267\177$\\\303v\373"
 357      4D99DF7E 
 357      9AF4A3B7 
 357      7F245CC3 
 357      76FB
 358 0984 3348B187 		.ascii	"3H\261\207\251\326\315\300\002\015k\365\223\314 \275"
 358      A9D6CDC0 
 358      020D6BF5 
 358      93CC20BD 
 359 0994 DF2ACD82 		.ascii	"\337*\315\202\304?\016a|+\013\275e\300\254\266n>nq\026"
 359      C43F0E61 
 359      7C2B0BBD 
 359      65C0ACB6 
 359      6E3E6E71 
 360 09a9 2A3EB779 		.ascii	"*>\267y\266\303V\024\306<'\231\333\234\254\021\206\205"
 360      B6C35614 
 360      C63C2799 
 360      DB9CAC11 
 360      8685
 361 09bb D9AC8F68 		.ascii	"\331\254\217h\022g\322\334f\375Ct:\211\374da6\253J\325"
 361      1267D2DC 
 361      66FD4374 
 361      3A89FC64 
 361      6136AB4A 
 362 09d0 0B3A6539 		.ascii	"\013:e9\327\341P`\323\225'W\205\011\376$\361c'q\214"
 362      D7E15060 
 362      D3952757 
 362      8509FE24 
 362      F1632771 
 363 09e5 3E7172D3 		.ascii	">qr\323\337+m\313>\300\312>\326\274}\252H\370\327\231"
 363      DF2B6DCB 
 363      3EC0CA3E 
 363      D6BC7DAA 
 363      48F8D799 
 364 09f9 80EBCABA 		.ascii	"\200\353\312\272\253q\3017>\264\015\305\363)\012~\223"
ARM GAS  /tmp/ccDCqrSF.s 			page 29


 364      AB71C137 
 364      3EB40DC5 
 364      F3290A7E 
 364      93
 365 0a0a 81E0BB1A 		.ascii	"\201\340\273\032\3418\204=\230\244&Y\360[\037\246\202"
 365      E138843D 
 365      98A42659 
 365      F05B1FA6 
 365      82
 366 0a1b AFB124F8 		.ascii	"\257\261$\370}\272\202\257\261/x\005o\177b\202X\022"
 366      7DBA82AF 
 366      B12F7805 
 366      6F7F6282 
 366      5812
 367 0a2d 3FB00D16 		.ascii	"?\260\015\0260\253\305\032\246\026\227`-.u\222\345\204"
 367      30ABC51A 
 367      A6169760 
 367      2D2E7592 
 367      E584
 368 0a3f 657C5D7E 		.ascii	"e|]~\255\255KNrJ\324prD\216\215\3319U\021\011\265y\337"
 368      ADAD4B4E 
 368      724AD470 
 368      72448E8D 
 368      D9395511 
 369 0a57 5BD10D93 		.ascii	"[\321\015\223)\215\351;Q$\324\336\\\263\015\026\340"
 369      298DE93B 
 369      5124D4DE 
 369      5CB30D16 
 369      E0
 370 0a68 C0D6BEA7 		.ascii	"\300\326\276\247\263\010\240\243u\262\310\016C\034\202"
 370      B308A0A3 
 370      75B2C80E 
 370      431C82
 371 0a77 DC9AE4BB 		.ascii	"\334\232\344\273V\253.\323V5\274)\016\301\256s\255\005"
 371      56AB2ED3 
 371      5635BC29 
 371      0EC1AE73 
 371      AD05
 372 0a89 7D817EFE 		.ascii	"}\201~\376\264_\036\235\241\352\355\2528\252\211\250"
 372      B45F1E9D 
 372      A1EAEDAA 
 372      38AA89A8 
 373 0a99 4DB4A5F9 		.ascii	"M\264\245\371\333m\"\302\321a\325F-\\\312Q\037\017w"
 373      DB6D22C2 
 373      D161D546 
 373      2D5CCA51 
 373      1F0F77
 374 0aac 37B435D3 		.ascii	"7\2645\323\236`\224\265\342#+\211\247S\207e\372\242"
 374      9E6094B5 
 374      E2232B89 
 374      A7538765 
 374      FAA2
 375 0abe B5B647A0 		.ascii	"\265\266G\240\222a\024q-\243\210\353Q\021c\250\210\033"
 375      92611471 
 375      2DA388EB 
 375      511163A8 
 375      881B
ARM GAS  /tmp/ccDCqrSF.s 			page 30


 376 0ad0 917ECEAA 		.ascii	"\221~\316\252\243\221\263\265\331\311\214\223v\333."
 376      A391B3B5 
 376      D9C98C93 
 376      76DB2E
 377 0adf 7740533B 		.ascii	"w@S;F\331\254a\2639\324\332\202\356\031\317\200\021"
 377      46D9AC61 
 377      B339D4DA 
 377      82EE19CF 
 377      8011
 378 0af1 A3FE2FAA 		.ascii	"\243\376/\252;@\327_\276\262\215\310k\363\345\3678w"
 378      3B40D75F 
 378      BEB28DC8 
 378      6BF3E5F7 
 378      3877
 379 0b03 E0A215B8 		.ascii	"\340\242\025\270\256:\014\352}\330\0257I\234\205\303"
 379      AE3A0CEA 
 379      7DD81537 
 379      499C85C3 
 380 0b13 E1D9B8FC 		.ascii	"\341\331\270\3748\017\351|\244\013\220^@z\021\351%\244"
 380      380FE97C 
 380      A40B905E 
 380      407A11E9 
 380      25A4
 381 0b25 37900EC5 		.ascii	"7\220\016\305\012}\023\351H\244s\221.DZ\213t%\322\325"
 381      0A7D13E9 
 381      48A47391 
 381      2E445A8B 
 381      7425D2D5 
 382 0b39 48B723DD 		.ascii	"H\267#\335\221J\001\224^\340\330\372C\217,@[=\005\325"
 382      914A0194 
 382      5EE0D8FA 
 382      438F2C40 
 382      5B3D05D5 
 383 0b4d FFD30CAD 		.ascii	"\377\323\014\255\346\315qh\326C\222\026\3646d\330]\030"
 383      E6CD7168 
 383      D6439216 
 383      F43664D8 
 383      5D18
 384 0b5f 656B406E 		.ascii	"ek@n\254\271Y\373\247!d\347\027U\177I\\\347t\360\200"
 384      ACB959FB 
 384      A72164E7 
 384      17557F49 
 384      5CE774F0 
 385 0b74 7C83D11B 		.ascii	"|\203\321\033upZ\022\2331}\2065\013\345V\301\372&DR"
 385      75705A12 
 385      9B317D86 
 385      350BE556 
 385      C1FA2644 
 386 0b89 73665B97 		.ascii	"sf[\227ah\216\366ac\034~O\312\325V\036\207\010\351\240"
 386      61688EF6 
 386      61631C7E 
 386      4FCAD556 
 386      1E8708E9 
 387 0b9e C6CAC56A 		.ascii	"\306\312\305j\267\343\346\261\203\251-\334\360a\261"
 387      B7E3E6B1 
 387      83A92DDC 
 387      F061B1
ARM GAS  /tmp/ccDCqrSF.s 			page 31


 388 0bad D5DBC726 		.ascii	"\325\333\307&|\312a\246>\245$n\301ux+\036b5\226\344"
 388      7CCA61A6 
 388      3EA5246E 
 388      C175782B 
 388      1E623596 
 389 0bc2 607A1D2B 		.ascii	"`z\035+\260\265f;\366\"G\260\027\031c\033,\300\201\255"
 389      B0B5663B 
 389      F62247B0 
 389      1719631B 
 389      2CC081AD 
 390 0bd6 63C12658 		.ascii	"c\301&X\0013\262\272\000V\317\202M\261\015\306s\266"
 390      0133B2BA 
 390      0056CF82 
 390      4DB10DC6 
 390      73B6
 391 0be8 9B059B65 		.ascii	"\233\005\233e\005\314h\316\016\300\366\262`\363m\203"
 391      05CC68CE 
 391      0EC0F6B2 
 391      60F36D83 
 392 0bf8 F19CED67 		.ascii	"\361\234\355g\301\026Z\0013j$\000v\220\005[b\033\214"
 392      C1165A01 
 392      336A2400 
 392      7690055B 
 392      621B8C
 393 0c0b E7EC300B 		.ascii	"\347\3540\013\266\322\012X\300\230\263\243,\330z\333"
 393      B6D20A58 
 393      C098B3A3 
 393      2CD87ADB 
 394 0c1b 603C67C7 		.ascii	"`<g\307Y\260MV\300\214\3742\000\273\304\202m\261\015"
 394      59B04D56 
 394      C08CFC32 
 394      00BBC482 
 394      6DB10D
 395 0c2e C6737685 		.ascii	"\306sv\205\005\373\322\012\230\221\207\007`?\260`\015"
 395      05FBD20A 
 395      98918707 
 395      603FB060 
 395      0D
 396 0c3f B6C178CE 		.ascii	"\266\301x\316\256\263`\373\255\200\031u\331\000v\223"
 396      AEB360FB 
 396      AD801975 
 396      D9007693 
 397 0c4f 053B621B 		.ascii	"\005;b\033\214\347\254\211\005k\264\002\326\325\230"
 397      8CE7AC89 
 397      056BB402 
 397      D6D598
 398 0c5e B3DB2CD8 		.ascii	"\263\333,\330i\333`<gwY\260sV\300\214\026\255\000\254"
 398      69DB603C 
 398      677759B0 
 398      7356C08C 
 398      16AD00AC 
 399 0c72 7A2703F6 		.ascii	"z'\003\366\275m\260\200`\370a\273&I<\204\236\343at\031"
 399      BD6DB080 
 399      60F861BB 
 399      26493C84 
 399      9EE36174 
 400 0c87 8E213D81 		.ascii	"\216!=\201\364$\322\257\220\236F\372\015\322o\221\236"
ARM GAS  /tmp/ccDCqrSF.s 			page 32


 400      F424D2AF 
 400      909E46FA 
 400      0DD26F91 
 400      9E
 401 0c98 47FA1DD2 		.ascii	"G\372\035\322\357\221^Fz\025\3515\2447\220\336B\332"
 401      EF915E46 
 401      7A15E935 
 401      A43790DE 
 401      42DA
 402 0caa 8CF40ED2 		.ascii	"\214\364\016\322\026\244C\\\026\374\323\275\254\343"
 402      16A4435C 
 402      16FCD3BD 
 402      ACE3
 403 0cb8 78E51E0B 		.ascii	"x\345\036\013N\206\361rsc\315\2055\226\267\227\277\254"
 403      4E86F172 
 403      7363CD85 
 403      3596B797 
 403      BFAC
 404 0cca E2919393 		.ascii	"\342\221\223\223\252\243\364\375\266\177%^\201N\357"
 404      AAA3F4FD 
 404      B67F255E 
 404      814EEF
 405 0cd9 CF3D0EAE 		.ascii	"\317=\016\256\232Kw\2039\367\024y\356m\227\306E\270"
 405      9A4B7783 
 405      39F71479 
 405      EE6D97C6 
 405      45B8
 406 0ceb B6135D04 		.ascii	"\266\023]\004r?\365\240\371\206\305AX,\356:u\020X\027"
 406      723FF5A0 
 406      F986C541 
 406      582CEE3A 
 406      75105817 
 407 0cff E729EAE2 		.ascii	"\347)\352\342\274\353\".\316\3326)]\034\036\207\360"
 407      BCEB222E 
 407      CEDA3629 
 407      5D1C1E87 
 407      F0
 408 0d10 57ADE57F 		.ascii	"W\255\345\177\311.\344\277:5\377\240\341\265\312\346"
 408      C92EE4BF 
 408      3A35FFA0 
 408      E1B5CAE6 
 409 0d20 1D55C9EB 		.ascii	"\035U\311\353\221\005\2226=\337d\305.\246\305\354\261"
 409      91059236 
 409      3DDF64C5 
 409      2EA6C5EC 
 409      B1
 410 0d31 0D16E0C0 		.ascii	"\015\026\340\300V\261`\007\255\200\231\370&kX\260\243"
 410      56B16007 
 410      AD8099F8 
 410      266B58B0 
 410      A3
 411 0d42 B6C178CE 		.ascii	"\266\301x\316\326\261`'\255\200\231\370&\365,\330\031"
 411      D6B16027 
 411      AD8099F8 
 411      26F52CD8 
 411      19
 412 0d53 DB6001BD 		.ascii	"\333`\001\275\352\025\222\264C\022G\271\210\225\031"
ARM GAS  /tmp/ccDCqrSF.s 			page 33


 412      EA1592B4 
 412      431247B9 
 412      889519
 413 0d62 ED222D7F 		.ascii	"\355\"-\177,\322\361H'\"\235\214t\252\025\2130\322\305"
 413      2CD2F148 
 413      27229D8C 
 413      74AA158B 
 413      30D2C5
 414 0d75 588473C8 		.ascii	"X\204s\310\360\333\351i\014X\204c\337\237\374#]\237"
 414      F0DBE969 
 414      0C588463 
 414      DF9FFC23 
 414      5D9F
 415 0d87 D56C2023 		.ascii	"\325l #\3620\342`&\313\301e\333\034\004X\016b\315;\247"
 415      F230E260 
 415      26CBC165 
 415      DB1C0458 
 415      0E62CD3B 
 416 0d9c 2A6744E8 		.ascii	"*gD\350\002\337u-\236\336b\213\331\334\303\316\326\213"
 416      02DF752D 
 416      9EDE628B 
 416      D9DCC3CE 
 416      D68B
 417 0dae 5E56C1EE 		.ascii	"^V\301\356\330\006\363q`\325\273\030\2607\357\265\013"
 417      D806F371 
 417      60D5BB18 
 417      B037EFB5 
 417      0B
 418 0dbf D6364923 		.ascii	"\3266I#\250.\274\203\2720\002\353|\006\322\331H\347"
 418      A82EBC83 
 418      BA3002EB 
 418      7C06D2D9 
 418      48E7
 419 0dd1 22FD80D5 		.ascii	"\"\375\200\325\002\207\360\336\275\332\321(5\216\014"
 419      0287F0DE 
 419      BDDAD128 
 419      358E0C
 420 0de0 6AC28A0A 		.ascii	"j\302\212\012Vq\215\352\366\015\266ng\335k\267\277\341"
 420      56718DEA 
 420      F60DB66E 
 420      67DD6BB7 
 420      BFE1
 421 0df2 EAB6B1E6 		.ascii	"\352\266\261\346\366\032z0K\335x\375\241\025@=\007O"
 421      F61A7A30 
 421      4BDD78FD 
 421      A115403D 
 421      074F
 422 0e04 EFC39E56 		.ascii	"\357\303\236V\226\304\217q\004\370\011\356}^\207t\027"
 422      96C48F71 
 422      04F809EE 
 422      7D5E8774 
 422      17
 423 0e15 D223481B 		.ascii	"\322#H\033\221N\306\311\204\335\330\373\356A:\034%\363"
 423      914EC6C9 
 423      84DDD8FB 
 423      EE413A1C 
 423      25F3
ARM GAS  /tmp/ccDCqrSF.s 			page 34


 424 0e27 B115C9CC 		.ascii	"\261\025\311\314M\354\203\346\332J;\241\032\373\211"
 424      4DEC83E6 
 424      DA4A3BA1 
 424      1AFB89
 425 0e36 0FDBD023 		.ascii	"\017\333\320#\202J\372\306\366*\300\002\207\202\260"
 425      824AFAC6 
 425      F62AC002 
 425      8782B0
 426 0e45 D0D50E63 		.ascii	"\320\325\016c\3342\030>b\224\347\247\256\304\332\177"
 426      DC32183E 
 426      6294E7A7 
 426      AEC4DA7F 
 427 0e55 863F1119 		.ascii	"\206?\021\031'\246`vA\242\032\365\3721\257\372\374`"
 427      27A66076 
 427      41A21AF5 
 427      FA31AFFA 
 427      FC60
 428 0e67 21B1E4D6 		.ascii	"!\261\344\326\274\341\021\272x\367\031\366\207\0335"
 428      BCE111BA 
 428      78F719F6 
 428      871B35
 429 0e76 7A971287 		.ascii	"z\227\022\207\344\273X\333\037\036\250\303\376p\261"
 429      E4BB58DB 
 429      1F1EA8C3 
 429      FE70B1
 430 0e85 85FE5C8E 		.ascii	"\205\376\\\216\035\253\033k4{/\307\217\246\005\022,"
 430      1DAB1B6B 
 430      347B2FC7 
 430      8FA60512 
 430      2C
 431 0e96 D7DE3DF9 		.ascii	"\327\336=\371O\270J\270\0149>\231\232c\036\206p\264"
 431      4FB84AB8 
 431      0C393E99 
 431      9A631E86 
 431      70B4
 432 0ea8 42CBF1BE 		.ascii	"B\313\361\276\242\000\275\233\332\3778\264t\245(WeX"
 432      A200BD9B 
 432      DAFF38B4 
 432      74A52857 
 432      6558
 433 0eba 3F29D4E0 		.ascii	"?)\324\340sH\342j\0279(\364\235\206Y\213\007\205\326"
 433      7348E26A 
 433      173928F4 
 433      9D86598B 
 433      0785D6
 434 0ecd B9340785 		.ascii	"\2714\007\205V\272\034\364n\352cBw\356M>&T\325V\367"
 434      56BA1CF4 
 434      6EEA6342 
 434      77EE4D3E 
 434      2654D556 
 435 0ee2 A0FB88B6 		.ascii	"\240\373\210\266\374AwE\325L\3675$X\223\304\365h\341"
 435      FC417745 
 435      D54CF735 
 435      245893C4 
 435      F568E1
 436 0ef5 622EFDD3 		.ascii	"b.\375\323C\222\270\026\3376\260\302\334\226r*\316K"
 436      4392B816 
ARM GAS  /tmp/ccDCqrSF.s 			page 35


 436      DF36B0C2 
 436      DC96722A 
 436      CE4B
 437 0f07 FEC80F2B 		.ascii	"\376\310\017+\210\344U\323\\\335V\264\011\307\333\371"
 437      88E455D3 
 437      5CDD56B4 
 437      09C7DBF9 
 438 0f17 633371FE 		.ascii	"c3q\376;\245\037\031\177gB\227\204\022^\236}\370o\364"
 438      3BA51F19 
 438      7F674297 
 438      84125E9E 
 438      7DF86FF4 
 439 0f2b 60C217A8 		.ascii	"`\302\027\250\205\307\332\246n7\034\216$~\351\"\322"
 439      85C7DAA6 
 439      6E371C8E 
 439      247EE922 
 439      D2
 440 0f3c D8A1D5C4 		.ascii	"\330\241\325\304\313\364\335\013;,\351\342\255\303v"
 440      CBF4DD0B 
 440      3B2CE9E2 
 440      ADC376
 441 0f4b DFBD3063 		.ascii	"\337\2750c~\323\303\324\001\256G\215\234\334.-\215\334"
 441      7ED3C3D4 
 441      01AE478D 
 441      9CDC2E2D 
 441      8DDC
 442 0f5d A3D5C806 		.ascii	"\243\325\310\006\372\362\205=\226tr^\273d\235\\\324"
 442      FAF2853D 
 442      9674725E 
 442      BB649D5C 
 442      D4
 443 0f6e 4E572757 		.ascii	"NW'W\266\323}\371\302\246v\272/_hh\247\373\362\205\023"
 443      B6D37DF9 
 443      C2A676BA 
 443      2F5F6868 
 443      A7FBF285 
 444 0f83 EDECBF7C 		.ascii	"\355\354\277|a\017\243\330{Q\261\367\245P\354\035\351"
 444      610FA3D8 
 444      7B51B1F7 
 444      A550EC1D 
 444      E9
 445 0f94 2A3668D3 		.ascii	"*6h\323\306\222u\311\016\231\3451"
 445      C69275C9 
 445      0E99E531 
 446 0fa0 5A6CADFE 		.ascii	"Zl\255\376\011`\315\370\354k\213\343\2633Z\235\234F"
 446      0960CDF8 
 446      EC6B8BE3 
 446      B3335A9D 
 446      9C46
 447 0fb2 DFBD70C6 		.ascii	"\337\275p\306\222N\326\034\036gO'c\227\017\220\005\240"
 447      924ED61C 
 447      1E674F27 
 447      63970F90 
 447      05A0
 448 0fc4 6F511FCF 		.ascii	"oQ\037\317\245\247\217\027\264\372xh\002\352\343\005"
 448      A5A78F17 
 448      B4FA7868 
ARM GAS  /tmp/ccDCqrSF.s 			page 36


 448      02EAE305 
 449 0fd4 4BFA789D 		.ascii	"K\372x\235\325=\345\336\220\366\272\2127\256=\257xV"
 449      D53DE5DE 
 449      90F6BA8A 
 449      37AE3DAF 
 449      7856
 450 0fe6 54E902A3 		.ascii	"T\351\002\243J\337\241*]4P%\2070\277\275\250\324@z6"
 450      4ADFA12A 
 450      5D345025 
 450      8730BFBD 
 450      A8D4407A 
 451 0ffb 72C9E171 		.ascii	"r\311\341q\334"
 451      DC
 452 1000 19C6CFB4 		.ascii	"\031\306\317\264x6=\365\025\207\301\031\266^\225c\016"
 452      78363DF5 
 452      1587C119 
 452      B65E9563 
 452      0E
 453 1011 93AABC89 		.ascii	"\223\252\274\211U\271\272}ZU\331\254\255\312fZ\225\315"
 453      55B9BA7D 
 453      5A55D9AC 
 453      ADCA665A 
 453      95CD
 454 1023 96AAF28B 		.ascii	"\226\252\362\213\366\311UyH\277*\317\247Q\225\315LU"
 454      F6C95579 
 454      48BF2ACF 
 454      A75195CD 
 454      4C55
 455 1035 DEC6AABC 		.ascii	"\336\306\252\274cX\225\362}\026\252RoP\303\344Gs\372"
 455      635895F2 
 455      7D16AA52 
 455      6F50C3E4 
 455      4773FA
 456 1048 06733A8B 		.ascii	"\006s:\213n\3535\2447\370\341\302\210\373\264\303\205"
 456      6EEB35A4 
 456      37F8E1C2 
 456      88FBB4C3 
 456      85
 457 1059 33DAE1C2 		.ascii	"3\332\341\302\031n\270`\210e\344[\236J\370\226\222\270"
 457      196EB860 
 457      8865E45B 
 457      9E4AF896 
 457      92B8
 458 106b 536BEF6C 		.ascii	"Sk\357l*\325\244#6_\317\022[?\001O\365W\271I\025\216"
 458      2AD5A423 
 458      365FCF12 
 458      5B3F014F 
 458      F557B949 
 459 1081 4B2A6D5A 		.ascii	"K*mZ\333\206f\"L\212R\030\037<\213-92]T\232\032\263"
 459      DB866622 
 459      4C8A5218 
 459      1F3C8B2D 
 459      39325D54 
 460 1098 78C7E0E9 		.ascii	"x\307\340\351.\336\231\234\031\332{\004g%\246\3402c"
 460      2EDE999C 
 460      19DA7B04 
 460      6725A6E0 
ARM GAS  /tmp/ccDCqrSF.s 			page 37


 460      3263
 461 10aa 83164D8F 		.ascii	"\203\026M\217;\223\3034G\247\330zm\3022*\340wQ\300\363"
 461      3B93C334 
 461      47A7D87A 
 461      6DC2322A 
 461      E07751C0 
 462 10bf 93049CC6 		.ascii	"\223\004\234\306k\023j\264\342\325{mB\300H\274Cc\327"
 462      6B136AB4 
 462      E2D57B6D 
 462      42C048BC 
 462      4363D7
 463 10d2 8EF0A7B1 		.ascii	"\216\360\247\261\227[\251.\016\217\027\310\355#\314"
 463      975BA92E 
 463      0E8F17C8 
 463      ED23CC
 464 10e1 61E09815 		.ascii	"a\340\230\0250\2233<\343\224uV:v\006\263c\033\217gn"
 464      3093333C 
 464      E3947556 
 464      3A7606B3 
 464      631B8F67 
 465 10f6 EA71648E 		.ascii	"\352qd\216\202\325[\0013\331\363\262\364\270\205\363"
 465      82D55B01 
 465      33D9F3B2 
 465      F4B885F3 
 466 1106 B6319D37 		.ascii	"\2661\2357\2114\326\234\331\360\022\365\016\247\270"
 466      8934D69C 
 466      D9F012F5 
 466      0EA7B8
 467 1115 895BBBFF 		.ascii	"\211[\273\377\276\324nm\322\353C\246\2735\356\303\255"
 467      BED46E6D 
 467      D2EB43A6 
 467      BB35EEC3 
 467      AD
 468 1126 3DE83E90 		.ascii	"=\350>\220\373\251\247G\357\354a\247G%\3618\266\003"
 468      FBA9A747 
 468      EFEC61A7 
 468      4725F138 
 468      B603
 469 1138 92D6AAAD 		.ascii	"\222\326\252\255\341\361\356\356\211O\365Ib\243m\260"
 469      E1F1EEEE 
 469      894FF549 
 469      62A36DB0 
 470 1148 000756BD 		.ascii	"\000\007V\275\237\2317<\205\302I\001f2=:\232\005\373"
 470      9F99373C 
 470      85C24901 
 470      66323D3A 
 470      9A05FB
 471 115b C63618CF 		.ascii	"\3066\030\317\331\330\375L1\207\272,\024\323dzt<\313"
 471      D9D8FD4C 
 471      3187BA2C 
 471      14D3647A 
 471      743CCB
 472 116e D9052B9C 		.ascii	"\331\005+\234\231,\335Nd\301.Y\0013Y\272\235\314\202"
 472      992CDD4E 
 472      64C12E59 
 472      013359BA 
 472      9DCC82
ARM GAS  /tmp/ccDCqrSF.s 			page 38


 473 1181 FD601B8C 		.ascii	"\375`\033\214\347l*\013v\323\012X\300\230\263\351,\330"
 473      E76C2A0B 
 473      76D30A58 
 473      C098B3E9 
 473      2CD8
 474 1193 5DDB6001 		.ascii	"]\333`\001\275&A?l\213\222\304\031n\342\013\314t\223"
 474      BD26413F 
 474      6C8B92C4 
 474      196EE20B 
 474      CC7493
 475 11a6 9E7B16D2 		.ascii	"\236{\026\322\331H\347\"\375\000\351|\244\037!\375\004"
 475      D948E722 
 475      FD00E97C 
 475      A41F21FD 
 475      04
 476 11b7 E942A49F 		.ascii	"\351B\244\237\271-\364\364\223\335\314d\340\260\373"
 476      B92DF4F4 
 476      93DDCC64 
 476      E0B0FB
 477 11c6 ED9A22D3 		.ascii	"\355\232\"\323\202$F\273\340D\240S\263\013]\220\223"
 477      822446BB 
 477      E044A053 
 477      B30B5D90 
 477      93
 478 11d7 48DF4026 		.ascii	"H\337@&\337A:\002\351H\244\243\220\216A:\016\351\004"
 478      DF413A02 
 478      E948A4A3 
 478      908E413A 
 478      0EE904
 479 11ea A493AC14 		.ascii	"\244\223\254\024g\033\353\270\324\27053\020\366\034"
 479      671BEBB8 
 479      D4B83533 
 479      10F61C
 480 11f9 97C6DABB 		.ascii	"\227\306\332\273\267\256\210\243\206\311[3\255oz>p\256"
 480      B7AE88A3 
 480      86C95B33 
 480      AD6F7A3E 
 480      70AE
 481 120b F1036583 		.ascii	"\361\003e\203\374\022\354]\337\274\377'q_F\335/\246"
 481      FC12EC5D 
 481      DFBCFF27 
 481      715F46DD 
 481      2FA6
 482 121d 2E8BC9B9 		.ascii	".\213\311\271\371\332\273\033\346\210`\316'f\252\223"
 482      F9DABB1B 
 482      E68860CE 
 482      2766AA93 
 483 122d 991DE809 		.ascii	"\231\035\350\011#\345\351\027U\214\326\012S+\334vg2"
 483      23E5E917 
 483      558CD60A 
 483      532BDC76 
 483      6732
 484 123f 57BAF567 		.ascii	"W\272\365g2[\305\365k\222\266\020\\\256\251]\246k7\267"
 484      325BC5F5 
 484      6B92B610 
 484      5CAEA95D 
 484      A66B37B7 
ARM GAS  /tmp/ccDCqrSF.s 			page 39


 485 1253 26CDE1D0 		.ascii	"&\315\341\320\371!#\236\326\260\352=\335\212\014M\266"
 485      F921239E 
 485      D6B0EA3D 
 485      DD8A0C4D 
 485      B6
 486 1264 5B5D2FDA 		.ascii	"[]/\332\232I!\035\302\\\333X\001\203v\"\360S\224 Gl"
 486      9A49211D 
 486      C25CDB58 
 486      01837622 
 486      F0539420 
 487 127a 2AABB091 		.ascii	"*\253\260\221\324!\335\212t16\203Z\244\253\221\256c"
 487      D421DD8A 
 487      74313683 
 487      5AA4AB91 
 487      AE63
 488 128c 9B8443F8 		.ascii	"\233\204C\370\030yZ\314\270\244\334Th\212\336\023\224"
 488      18795ACC 
 488      B8A4DC54 
 488      688ADE13 
 488      94
 489 129d A4A1F9D6 		.ascii	"\244\241\371\326\303\037\015\245\273\016\351|\353RK"
 489      C31F0DA5 
 489      BB0EE97C 
 489      EB524B
 490 12ac 900143C8 		.ascii	"\220\001C\310\330\265\252\367\022\347\312dK\307{v-\370"
 490      D8B5AAF7 
 490      12E7CA64 
 490      4BC77B76 
 490      2DF8
 491 12be 0DCEF87E 		.ascii	"\015\316\370~\216\355g\235\246\375X\007j\330=\255#\002"
 491      8EED679D 
 491      A6FD5807 
 491      6AD83DAD 
 491      2302
 492 12d0 6D41A0CD 		.ascii	"mA\240\315I\015Q\320\264C\201o\207\360UnQ>\364\300\007"
 492      490D51D0 
 492      B443816F 
 492      87F0556E 
 492      513EF4C0 
 493 12e5 DC795D48 		.ascii	"\334y]H+\215C\330\251\225\244\336\370\260\253Y\335\034"
 493      2B8D43D8 
 493      A995A4DE 
 493      F8B0AB59 
 493      DD1C
 494 12f7 FAF9543C 		.ascii	"\372\371T<)\245J\346\210mDvF\024\034\265\272\367DR5"
 494      29A54AE6 
 494      886D4476 
 494      46141CB5 
 494      BAF74452 
 495 130c AA4198C8 		.ascii	"\252A\230\310\267\245\276|\373\005\023n\333\"\3542\260"
 495      B7A5BE7C 
 495      FB05136E 
 495      DB22EC32 
 495      B0
 496 131d 086AD91C 		.ascii	"\010j\331\034\302Ym\031\270\\\365\312\320\226+CS\017"
 496      C2596D19 
 496      B85CF5CA 
ARM GAS  /tmp/ccDCqrSF.s 			page 40


 496      D0962B43 
 496      530F
 497 132f B2784738 		.ascii	"\262xG8s\010W\254`\031\036z\226c\267\001\313@\026\374"
 497      730857AC 
 497      60191E7A 
 497      9663B701 
 497      CB4016FC 
 498 1343 D80E8748 		.ascii	"\330\016\207H\266\205\261\317@\030\352\013?\035\302"
 498      B685B1CF 
 498      4018EA0B 
 498      3F1DC2
 499 1352 EDA4C6A6 		.ascii	"\355\244\306\2467\244\344\016Gs\247\320bwQ\032{Q\032"
 499      37A4E40E 
 499      4773A7D0 
 499      6277511A 
 499      7B511A
 500 1365 550F5801 		.ascii	"U\017X\001{Y\007L\357\303.\373@\317\206\026j)Z\245\015"
 500      7B59074C 
 500      EFC32EFB 
 500      40CF8616 
 500      6A295AA5 
 501 137a 68893621 		.ascii	"h\2116!\335\216t\007\322\006\244{\220\036`\355\224\336"
 501      DD8E7407 
 501      D206A47B 
 501      901E60ED 
 501      94DE
 502 138c A8C2C556 		.ascii	"\250\302\305V\217\332|\317\235\373\0256\337C88\231\375"
 502      8FDA7CCF 
 502      9DFB1536 
 502      DF433838 
 502      99FD
 503 139e 40EAC189 		.ascii	"@\352\301\211\213\257eI<\252\035\2344\223\225\237\243"
 503      8BAF6549 
 503      3CAA1D9C 
 503      3493959F 
 503      A3
 504 13af A98726E4 		.ascii	"\251\207&\344\265\310s\351\366{j\010?\301\354\217\272"
 504      B5C873E9 
 504      F67B6A08 
 504      3FC1EC8F 
 504      BA
 505 13c0 D3B5ADB1 		.ascii	"\323\265\255\261Q\267|\362;\031\354J\342\336\304J\342"
 505      51B77CF2 
 505      3B19EC4A 
 505      E2DEC44A 
 505      E2
 506 13d1 CB2A803A 		.ascii	"\313*\200:){\322\266z\2352P/u\012\334!,\326\026\201"
 506      297BD2B6 
 506      7A9D3250 
 506      2F750ADC 
 506      212CD616 
 507 13e6 CB35B529 		.ascii	"\3135\265)\037\363\335D'J\344\361Vd\200\256E\2635\006"
 507      1FF3DD44 
 507      274AE4F1 
 507      566480AE 
 507      45B33506 
 508 13fa 96636377 		.ascii	"\226ccw\210\2447E\254\365V\260\014\207\300rl\3025\237"
ARM GAS  /tmp/ccDCqrSF.s 			page 41


 508      88A43745 
 508      ACF556B0 
 508      0C87C072 
 508      6CC2359F 
 509 140e 5CA5CA76 		.ascii	"\\\245\312vf\327\211)\234\202om\013\367\234\201p\325"
 509      66D78929 
 509      9C826F6D 
 509      0BF79C81 
 509      70D5
 510 1420 994487B0 		.ascii	"\231D\207\260\315v\021xqLtO\314T\233\356\356$]\323k"
 510      CD761178 
 510      714C744F 
 510      CC549BEE 
 510      EE245DD3 
 511 1435 BA7A5B11 		.ascii	"\272z[\021\365>l+\220\304c8\2408\216\315\262\021\351"
 511      F53E6C2B 
 511      90C46338 
 511      A0388ECD 
 511      B211E9
 512 1448 D748CF20 		.ascii	"\327H\317 =\213\364\002\333\\S\316,tW\031:\310\234\272"
 512      3D8BF402 
 512      DB5C53CE 
 512      2C745719 
 512      3AC89CBA 
 513 145c BA7171F7 		.ascii	"\272qq\367#\364\354\337\367\330zG\375,u\353\345\201"
 513      23F4ECDF 
 513      F7D87A47 
 513      FD2C75EB 
 513      E581
 514 146e 24F132BA 		.ascii	"$\3612\272\357W\222\346\027\336\304\371\205+\026\032"
 514      EF5792E6 
 514      17DEC4F9 
 514      852B161A 
 515 147e F1D0D89D 		.ascii	"\361\320\330\235-s\015\267\217iVZ\370\006\015\336\""
 515      2D730DB7 
 515      8F69565A 
 515      F8060DDE 
 515      22
 516 148f B09C7279 		.ascii	"\260\234ryY\022o \2277\265\\\356\241\\\336\264\304\345"
 516      59126F20 
 516      9737B55C 
 516      EEA15CDE 
 516      B4C4E5
 517 14a2 BE2DC96B 		.ascii	"\276-\311k\223\2327\\\036\025\215\265\363\266[\363\212"
 517      939A375C 
 517      1E158DB5 
 517      F3B65BF3 
 517      8A
 518 14b3 CBA7E36F 		.ascii	"\313\247\343o\270\264\373\342\003\000\303\323\033)\016"
 518      B8B4FBE2 
 518      0300C3D3 
 518      1B290E
 519 14c2 4C1B71D2 		.ascii	"L\033q\322\342f\017Q\330~M)\316\271\263\036\373\247"
 519      E2660F51 
 519      D87E4D29 
 519      CEB9B31E 
 519      FBA7
ARM GAS  /tmp/ccDCqrSF.s 			page 42


 520 14d4 A83637D3 		.ascii	"\25067\323\233\016\202\242.\226e\277']\261\276\3411"
 520      9B0E82A2 
 520      2E9665BF 
 520      275DB1BE 
 520      E131
 521 14e6 146B7C60 		.ascii	"\024k|`\221V\021\207{\230\".\265]\304\200\275\"V\233"
 521      91561187 
 521      7B98222E 
 521      B55DC480 
 521      BD22569B 
 522 14fa 6CF31A69 		.ascii	"l\363\032iVD\345\024\275\245\"\215`\213\264\322J\221"
 522      5644E514 
 522      BDA5228D 
 522      608BB4D2 
 522      4A91
 523 150c 8CF777FD 		.ascii	"\214\367w\375\270\"\215\326)\222\245\"\214\362h\316"
 523      B8228DD6 
 523      2992A522 
 523      8CF268CE 
 524 151c FBACB55D 		.ascii	"\373\254\265]\214\237\260f&X\250\231\370\367%n\3535"
 524      8C9FB066 
 524      2658A899 
 524      F8F7256E 
 524      EB35
 525 152e 359EADA9 		.ascii	"5\236\255\251\015V\212h\374\246\226\037W\304\351fE\264"
 525      0D568A68 
 525      FCA6961F 
 525      57C4E966 
 525      45B4
 526 1540 53A4696C 		.ascii	"S\244il\221\352l\027\311f\255\231\231\214\271fEj\321"
 526      91EA6C17 
 526      C966AD99 
 526      998CB966 
 526      456AD1
 527 1553 37196915 		.ascii	"7\031i\025y\016[\344\355V\212l<\257\361\343\212\274"
 527      790E5BE4 
 527      ED568A6C 
 527      3CAFF1E3 
 527      8ABC
 528 1565 200D2B99 		.ascii	" \015+\231V\221?a\213\274\333v\221\003\002\377I\254"
 528      56913F61 
 528      8BBCDB76 
 528      910302FF 
 528      49AC
 529 1577 8E36A1D3 		.ascii	"\2166\241\3233\314\203\323\221H\253\221\216C:\025\351"
 529      33CC83D3 
 529      9148AB91 
 529      8E433A15 
 529      E9
 530 1588 6CA41F7B 		.ascii	"l\244\037{,LA^c;\260\203\310\347\2254;0\030\321\221"
 530      2C4C415E 
 530      633BB083 
 530      C8E79534 
 530      3B3018D1 
 531 159d B717597D 		.ascii	"\267\027Y}\307\300\315\353M\017\341\210i\251\207\370"
 531      C7C0CDEB 
 531      4D0FE188 
ARM GAS  /tmp/ccDCqrSF.s 			page 43


 531      69A987F8 
 532 15ad 5C631ED4 		.ascii	"\\c\036\324\365\271\314^10\033\223\324z\264\207\372"
 532      F5B9CC5E 
 532      31301B93 
 532      D47AB487 
 532      FA
 533 15be AAF0FDCE 		.ascii	"\252\360\375\316\344~jgf\245\336\273S\365\336\226\031"
 533      E47E6A67 
 533      66A5DEBB 
 533      53F5DE96 
 533      19
 534 15cf 776AEF17 		.ascii	"wj\357\027\022\247\203\357\220\035\005k\220\377\317"
 534      12A783EF 
 534      901D056B 
 534      90FFCF
 535 15de F4F937C6 		.ascii	"\364\3717\306p\0101L\262^\313\3775)@\357\246\346\376"
 535      7008314C 
 535      B25ECBFF 
 535      352940EF 
 535      A6E6FE
 536 15f1 867A4C7A 		.ascii	"\206zLz\265\007\337\027\027\007L\313\001\211\335\016"
 536      B507DF17 
 536      17074CCB 
 536      0189DD0E 
 537 1601 91410E3D 		.ascii	"\221A\016=r}\3006V\200\303\032U\247\036\226\247\347"
 537      727DC036 
 537      5680C31A 
 537      55A71E96 
 537      A7E7
 538 1613 DBBFB282 		.ascii	"\333\277\262\202g\262\215z,y\177\200\235\327ylU^\347"
 538      67B28D7A 
 538      2C797F80 
 538      9DD7796C 
 538      555EE7
 539 1626 B1CD43B2 		.ascii	"\261\315C\262\377NS=iNl7\331.\005'\225\306[\327OuPO"
 539      FF4E533D 
 539      694E6C37 
 539      D92E0527 
 539      95C65BD7 
 540 163e 4A53C686 		.ascii	"JS\306\206u\260\200\250\327\251\351}Xm\222\304\015\036"
 540      75B080A8 
 540      D7A9E97D 
 540      586D92C4 
 540      0D1E
 541 1650 E21C6F44 		.ascii	"\342\034oDc\3609\322:\244[\221\356\260b\036V\263f\354"
 541      63F039D2 
 541      3AA45B91 
 541      EEB0621E 
 541      56B366EC 
 542 1664 DD0E6A7B 		.ascii	"\335\016j{\263\251^\372\254\3262\254\256DVW\261,9\204"
 542      B3A95EFA 
 542      ACD632AC 
 542      AE445657 
 542      B12C3984 
 543 1678 711DEC9A 		.ascii	"q\035\354\232#^\3307.6=zu\250<1\323\372\036\241&\217"
 543      235ED837 
 543      2E363D7A 
ARM GAS  /tmp/ccDCqrSF.s 			page 44


 543      75A83C31 
 543      D3FA1EA1 
 544 168e 4312777B 		.ascii	"C\022w{\310\026\241)\035\322\332\"\264\317\243\331\""
 544      C816A129 
 544      1DD2DA22 
 544      B4CFA3D9 
 544      22
 545 169f 7495EE3E 		.ascii	"t\225\356>$\367-\354>\354\220\274\373\360\263\016\272"
 545      24F72DEC 
 545      3EEC90BC 
 545      FBF0B30E 
 545      BA
 546 16b0 BB0F6B3B 		.ascii	"\273\017k;\330\337\021\233`N\022\367\243\310\017x\314"
 546      D8DF119B 
 546      604E12F7 
 546      A3C80F78 
 546      CC
 547 16c1 370E32D2 		.ascii	"7\0162\322\267u\356A\216\265l!3Rzf0>&\375U\\\360\215"
 547      B775EE41 
 547      8EB56C21 
 547      33527A66 
 547      303E26FD 
 548 16d9 A33E38AF 		.ascii	"\243>8\257\034y?\216\346\364F\207\324\346T\007\007\314"
 548      1C793F8E 
 548      E6F44687 
 548      D4E65407 
 548      07CC
 549 16eb CE2344DA 		.ascii	"\316#D\332'\021\344\215\207l\2028\204jL\362\265\326"
 549      2711E48D 
 549      876C8238 
 549      846A4CF2 
 549      B5D6
 550 16fd 26AFADC2 		.ascii	"&\257\255\302\001\362\327\026\254\262\034[_7U\331|C"
 550      01F2D716 
 550      ACB21C5B 
 550      5F3755D9 
 550      7C43
 551 170f 5F863129 		.ascii	"_\2061)\216\251d\332\225\025_j\263\\O_\235B\377\027"
 551      8EA964DA 
 551      95155F6A 
 551      B35C4F5F 
 551      9D42FF17 
 552 1723 668E16CC 		.ascii	"f\216\026\314\246\035\335\023\177\257\013]\032Zh\033"
 552      A61DDD13 
 552      7FAF0B5D 
 552      1A5A681B 
 553 1733 8F6B64B1 		.ascii	"\217kd\261\275\2249\012\266\334\012\230\311\273\024"
 553      BD94390A 
 553      B6DC0A98 
 553      C9BB14
 554 1742 0FB2606B 		.ascii	"\017\262`kl\203\361\234\035f\301>\267\002f\262\232v"
 554      6C83F19C 
 554      1D66C13E 
 554      B70266B2 
 554      9A76
 555 1754 4CE9CED2 		.ascii	"L\351\316\322\374_\217k\274\337\251Y\023<i\300\026\316"
 555      FC5F8F6B 
ARM GAS  /tmp/ccDCqrSF.s 			page 45


 555      BCDFA959 
 555      133C69C0 
 555      16CE
 556 1766 D8789835 		.ascii	"\330x\2305bk\177p1\201:@?\240O\360\245\246\015h\262"
 556      626B7F70 
 556      31813A40 
 556      3FA04FF0 
 556      A5A60D68 
 557 177b 268C1965 		.ascii	"&\214\031e\335\3441\376\203\213&\355\370s\277m\001\363"
 557      DDE431FE 
 557      838B26ED 
 557      F873BF6D 
 557      01F3
 558 178d B575A28A 		.ascii	"\265u\242\212{\343\307\011+p\001\235\372\322\373\260"
 558      7BE3C709 
 558      2B70019D 
 558      FAD2FBB0 
 559 179d 0D5A12CF 		.ascii	"\015Z\022\317\240\341\373\006;\301o\221\236G\372\035"
 559      A0E1FB06 
 559      3BC16F91 
 559      9E47FA1D 
 560 17ad D2EF915E 		.ascii	"\322\357\221^Fz\025\351m\266W\372\257Au\010g\036\322"
 560      467A15E9 
 560      6DB657FA 
 560      AF417508 
 560      671ED2
 561 17c0 F475BC61 		.ascii	"\364u\274aJ\325\016e\354\354\306\310\362\326L\353"
 561      4AD50E65 
 561      ECECC6C8 
 561      F2D64CEB 
 562 17d0 1677CF2F 		.ascii	"\026w\317/\250\305\225\275\304J}\247Q\024\252\226\377"
 562      A8C595BD 
 562      C44A7DA7 
 562      5114AA96 
 562      FF
 563 17e1 55E5BD6D 		.ascii	"U\345\275m\251\274\306\263\350jy\023;\004\264\213`q"
 563      A9BCC6B3 
 563      E86A7913 
 563      3B04B48B 
 563      6071
 564 17f3 8591E353 		.ascii	"\205\221\343Sd^\2733\351U^\375\231\364\226\304T\372"
 564      645EBB33 
 564      E9555EFD 
 564      99F496C4 
 564      54FA
 565 1805 B0873505 		.ascii	"\260\2075\005\321d\254\304\015_\022\214{ \235\036\312"
 565      D164ACC4 
 565      0D5F128C 
 565      7B209D1E 
 565      CA
 566 1816 9D43A8B2 		.ascii	"\235C\250\262\006W\3572\302\323\033 \353\250Dc|,\362"
 566      0657EF32 
 566      C2D31B20 
 566      EBA84463 
 566      7C2CF2
 567 1829 48422516 		.ascii	"HB%\026\235\271\365\266\362\322\247\221\250\023o?\234"
 567      9DB9F5B6 
ARM GAS  /tmp/ccDCqrSF.s 			page 46


 567      F2D2A791 
 567      A8136F3F 
 567      9C
 568 183a B203E581 		.ascii	"\262\003\345\201\210\320\336\367j\267\350\237\332*\342"
 568      88D0DEF7 
 568      6AB7E89F 
 568      DA2AE2
 569 1849 488FFC92 		.ascii	"H\217\374\222z\227]\315\251\255\016\345\220\036\335"
 569      7A975DCD 
 569      A9AD0EE5 
 569      901EDD
 570 1858 32761477 		.ascii	"2v\024w\306\221\304i\014k\000p\361\251\255t\224\304"
 570      C691C469 
 570      0C6B0070 
 570      F1A9AD74 
 570      94C4
 571 186a EE40B303 		.ascii	"\356@\263\003\027\340\340\226\262p\016a\002\312(\005"
 571      17E0E096 
 571      B2700E61 
 571      02CA2805 
 572 187a 9CC956BB 		.ascii	"\234\311V\273\345<w\307\255\024\326d\263\335\012\036"
 572      E53C77C7 
 572      AD14D664 
 572      B3DD0A1E 
 573 188a AED10A9C 		.ascii	"\256\321\012\234\311v\273U|a\247X)\254\311\206\2735"
 573      C976BB55 
 573      7C61A758 
 573      29ACC986 
 573      BB35
 574 189c 3CDC0C2B 		.ascii	"<\334\014+pz\275\262\336\207\325<I\254\366\022\3734"
 574      707ABDB2 
 574      DE87D53C 
 574      49ACF612 
 574      FB34
 575 18ae CA4B6CCF 		.ascii	"\312Kl\317h\244c\220\216C:\036\351\004\244\223\274\026"
 575      68A46390 
 575      8E433A1E 
 575      E904A493 
 575      BC16
 576 18c0 064223BC 		.ascii	"\006B#\274\314@h\256\266\221\352\261]o\372^.\216\357"
 576      CC4068AE 
 576      B691EAB1 
 576      5D6FFA5E 
 576      2E8EEF
 577 18d3 2BCC92D7 		.ascii	"+\314\222\327U\\\362\372\001gy\226\240\345l@z\014i\013"
 577      555CF2FA 
 577      01677996 
 577      A0E56C40 
 577      7A0C690B 
 578 18e7 D2E1C8F7 		.ascii	"\322\341\310\367[H\337\261\302\375E\267\371QQb;\231"
 578      5B48DFB1 
 578      C2FD45B7 
 578      F9515162 
 578      3B99
 579 18f9 ED55C9AF 		.ascii	"\355U\311\257\025\230f\333tN70\235\017\246`u\252\327"
 579      159866DB 
 579      744E3730 
ARM GAS  /tmp/ccDCqrSF.s 			page 47


 579      9D0FA660 
 579      75AAD7
 580 190c ECA0A81C 		.ascii	"\354\240\250\034?\250F\272\006\305l-[r\376\327h_f\240"
 580      3FA846BA 
 580      06C56C2D 
 580      5B72FED7 
 580      685F66A0 
 581 1920 D15A93DA 		.ascii	"\321Z\223\332h\3610$\333\331IF+\024\240wS\373\3735\363"
 581      68F13024 
 581      DBD94946 
 581      2B14A077 
 581      53FBFB35 
 582 1935 126BEF92 		.ascii	"\022k\357\222x\002\227\330f't\332\336\332\373\320\330"
 582      780297D8 
 582      662774DA 
 582      DEDAFBD0 
 582      D8
 583 1946 92B5360F 		.ascii	"\222\2656\017qN\362\303\240\365\003/\031\264n\326\224"
 583      714EF2C3 
 583      A0F5032F 
 583      19B46ED6 
 583      94
 584 1957 DDE2A0F5 		.ascii	"\335\342\240\365#\257f\320\332B\016q\222\273\251\207"
 584      23AF66D0 
 584      DA420E71 
 584      92BBA987 
 585 1967 AC071E4E 		.ascii	"\254\007\036N\036\262\036{Xw\310\372\365\303\372\207"
 585      1EB21E7B 
 585      5877C8FA 
 585      F5C3FA87 
 586 1977 5D1EB67F 		.ascii	"]\036\266\177\330%\301\261$~\214M\375\023\257\321a\227"
 586      D825C1B1 
 586      247E8C4D 
 586      FD13AFD1 
 586      6197
 587 1989 2B2814A6 		.ascii	"+(\024\246F\364F\262\001\343\012Y\366\255r\266\223\376"
 587      46F446B2 
 587      01E30A59 
 587      F6AD72B6 
 587      93FE
 588 199b 69E475DB 		.ascii	"i\344u\333p\374N\246Z\\\377\247\013\373\3405i\325%\245"
 588      70FC4EA6 
 588      5A5CFFA7 
 588      0BFBE035 
 588      69D525A5 
 589 19af A3CBEF29 		.ascii	"\243\313\357)Z\201K\361;\021\353;-\226\336\236\"\016"
 589      5A814BF1 
 589      3B11EB3B 
 589      2D96DE9E 
 589      220E
 590 19c1 CB7413CD 		.ascii	"\313t\023\315l\306\234\316A\031\317E\2233\017\351R\244"
 590      6CC69CCE 
 590      4119CF45 
 590      93330FE9 
 590      52A4
 591 19d3 CB91D6B2 		.ascii	"\313\221\326\262F\310\212\205\251P\271i\243\344\265"
 591      46C88A85 
ARM GAS  /tmp/ccDCqrSF.s 			page 48


 591      A950B969 
 591      A3E4B5
 592 19e2 D2B68159 		.ascii	"\322\266\201Ye``\356aTH/\335\012S\003\323\030o\254\277"
 592      656060EE 
 592      6154482F 
 592      DD0A5303 
 592      D3186FAC 
 593 19f7 15E206A6 		.ascii	"\025\342\006\246\271v\023\335\334\263\032\015\314\373"
 593      B97613DD 
 593      DCB31A0D 
 593      CCFB
 594 1a05 3F4FED15 		.ascii	"?O\355\025q0$\333uZ\003s\203l\356Yg\311\3004\317M60"
 594      713024DB 
 594      755A0373 
 594      836CEE59 
 594      67C9C034 
 595 1a1d EBD23530 		.ascii	"\353\32250r\354\316\017\311\012\270\316\206\002\362"
 595      72ECCE0F 
 595      C90AB8CE 
 595      8602F2
 596 1a2c 68775D86 		.ascii	"hw]\206>x\246\232\334\243\010a\223R\313\211\015@q\255"
 596      3E78A69A 
 596      DCA30861 
 596      9352CB89 
 596      0D4071AD 
 597 1a40 6518E092 		.ascii	"e\030\340\222\3511\0200\323\332u\214\326\256G\255\215"
 597      E9311030 
 597      D3DA758C 
 597      D6AE47AD 
 597      8D
 598 1a51 A18E6E40 		.ascii	"\241\216n@\272\221\325T\275\212\213\377+VI\242\376/"
 598      BA91D554 
 598      BD8A8BFF 
 598      2B5649A2 
 598      FE2F
 599 1a63 AFBA4AEB 		.ascii	"\257\272J\353\377s\254\377\217-\324?\007C\330\332\242"
 599      FF73ACFF 
 599      8F2DD43F 
 599      0743D8DA 
 599      A2
 600 1a74 AD7FDCDC 		.ascii	"\255\177\334\334\265\305R\375\267\350\324\377\226\364"
 600      B5C552FD 
 600      B7E8D4FF 
 600      96F4
 601 1a82 EB7F14B3 		.ascii	"\353\177\024\2635J\022Ok\341l\326\377hfk\324\022\224"
 601      354A124F 
 601      6BE16CD6 
 601      FF68666B 
 601      D41294
 602 1a95 8C1DAC00 		.ascii	"\214\035\254\000\2075\016L\343\350\370\2663b\000\306"
 602      87350E4C 
 602      E3E8F8B6 
 602      336200C6 
 603 1aa5 388DB79D 		.ascii	"8\215\267\235\355\264m3v\031\330\014u\002\325!\304\264"
 603      EDB46D33 
 603      7619D80C 
 603      7502D521 
ARM GAS  /tmp/ccDCqrSF.s 			page 49


 603      C4B4
 604 1ab7 25E07255 		.ascii	"%\340rU\242&\357\010\036\357\336\232i\300??\302%\354"
 604      A226EF08 
 604      1EEFDE9A 
 604      69C03F3F 
 604      C225EC
 605 1aca ECB65D80 		.ascii	"\354\266]\200=\006\005\360\305\013\260Q[\200\324\003"
 605      3D0605F0 
 605      C50BB051 
 605      5B80D403 
 606 1ada 6BBE0EE8 		.ascii	"k\276\016\350\336.\3266\244\250O\303\277\254\221c\223"
 606      DE2ED636 
 606      A4A84FC3 
 606      BFAC9163 
 606      93
 607 1aeb E3FBC4D4 		.ascii	"\343\373\304\324f\316\252\255\336>1\275\277\254\321"
 607      66CEAAAD 
 607      DE3E31BD 
 607      BFACD1
 608 1afa FBB00D4A 		.ascii	"\373\260\015J\022\267b;\337\206-\374\013\244\333\221"
 608      12B7623B 
 608      DF862DFC 
 608      0BA4DB91 
 609 1b0a EE40DA80 		.ascii	"\356@\332\200t\037\322\375l\373\177T\230.\307.5NZw\276"
 609      741FD2FD 
 609      6CFB7F54 
 609      982EC72E 
 609      354E5A77 
 610 1b1f C3276451 		.ascii	"\303'dQF\276\333\362\372\220\241\242fZ\317e\\\035\007"
 610      46BEDBF2 
 610      FA90A1A2 
 610      665ACF65 
 610      5C1D07
 611 1b32 BDC6D37A 		.ascii	"\275\306\323zV\327A/\257\277\372\020=\327v\004\255\313"
 611      56D7412F 
 611      AFBFFA10 
 611      3DD77604 
 611      ADCB
 612 1b44 A2476C2E 		.ascii	"\242Gl.\204\022F\216k\255\3132\372\232\223\343\026\354"
 612      8412468E 
 612      6BADCB32 
 612      FA9A93E3 
 612      16EC
 613 1b56 CBD0D8CA 		.ascii	"\313\320\330\312\272\005\226\367\235i^\037\275\371\021"
 613      BA0596F7 
 613      9D695E1F 
 613      BDF911
 614 1b65 FD7D67DC 		.ascii	"\375}g\334c\222\370\225\227T\376\327Z.\307(\323\352"
 614      6392F895 
 614      9754FED7 
 614      5A2EC728 
 614      D3EA
 615 1b77 96B81C57 		.ascii	"\226\270\034W\247,v\222MW0\214\367\250\220&\272)\030"
 615      A72C7692 
 615      4D57308C 
 615      F7A89026 
 615      BA2918
ARM GAS  /tmp/ccDCqrSF.s 			page 50


 616 1b8a E9A6324D 		.ascii	"\351\2462MB\2677I\342\333\266\301\002z`#\020\354}+`"
 616      42B73749 
 616      E2DBB6C1 
 616      027A6023 
 616      10EC7D2B 
 617 1b9f A97614A9 		.ascii	"\251v\024\251[|\306\332\006\323\266\232\304\336\201"
 617      5B7CC6DA 
 617      06D3B69A 
 617      C4DE81
 618 1bae 33D804BE 		.ascii	"3\330\004\276Az\026\351\267VF\217'\275\314\024\364b"
 618      417A16E9 
 618      B756468F 
 618      27BDCC14 
 618      F462
 619 1bc0 E4E7B87D 		.ascii	"\344\347\270}\261\353}X\305\205\216\015[q\243\025\226"
 619      B1EB7D58 
 619      C5858E0D 
 619      5B71A315 
 619      96
 620 1bd1 0E27588A 		.ascii	"\016'X\212o\317\270\314\277\023\031F!\232\226\364+a"
 620      6FCFB8CC 
 620      BF131946 
 620      219A96F4 
 620      2B61
 621 1be3 8E2C8FC6 		.ascii	"\216,\217\306\346~\216\310\230\3028\2043\370\334\001"
 621      E67E8EC8 
 621      98C23884 
 621      33F8DC01 
 622 1bf3 EFA3BAD9 		.ascii	"\357\243\272\331)\231\321\304\362\204\272\214j\221\346"
 622      2999D1C4 
 622      F284BA8C 
 622      6A91E6
 623 1c02 E510CEA5 		.ascii	"\345\020\316\245H\250p\364\337\204y\244}\034\370\272"
 623      48A870F4 
 623      DF8479A4 
 623      7D1CF8BA 
 624 1c12 EF73CA30 		.ascii	"\357s\3120\3118\221R\276\363^\007[\026b\250f66\256\375"
 624      C9389152 
 624      BEF35E07 
 624      5B1662A8 
 624      663636AE 
 625 1c27 E6FCAB64 		.ascii	"\346\374\253dfLniy]\240\233\307\034B\213n)\345kE\317"
 625      664C6E69 
 625      795DA09B 
 625      C71C428B 
 625      6E29E56B 
 626 1c3d 2953E923 		.ascii	")S\351#\377\201<p\331\220\313\247Y&?\253z\243\255\213"
 626      FF813C70 
 626      D990CBA7 
 626      59263FAB 
 626      7AA3AD8B 
 627 1c51 EE84124C 		.ascii	"\356\204\022LR)l^\321a\363l\354\370\027\031\325C\032"
 627      52296C5E 
 627      D161F36C 
 627      ECF81719 
 627      D5431A
 628 1c64 5B5A1EB5 		.ascii	"[Z\036\265\261\275\352FjK\312\315h\377R\005\030\313"
ARM GAS  /tmp/ccDCqrSF.s 			page 51


 628      B1BDEA46 
 628      6A4BCACD 
 628      68FF5205 
 628      18CB
 629 1c76 98D28673 		.ascii	"\230\322\206s\233\376;\372iMhIg\375C\352\345?\036\207"
 629      9BFE3BFA 
 629      694D6849 
 629      67FD43EA 
 629      E53F1E87 
 630 1c8a 707227C9 		.ascii	"pr'\311\224\222\231\200;\326\014\351\255\230(\277\223"
 630      94929980 
 630      3BD60CE9 
 630      AD9828BF 
 630      93
 631 1c9b 4177CB83 		.ascii	"Aw\313\203)G\006\356$\332\212\3361sN\321y\270\325\374"
 631      294706EE 
 631      24DA8ADE 
 631      31734ED1 
 631      79B8D5FC 
 632 1caf C0739516 		.ascii	"\300s\225\026.\345\3737\370\241\342\332\217\014Vd\365"
 632      2EE5FB37 
 632      F8A1E2DA 
 632      8F0C5664 
 632      F5
 633 1cc0 DEB81D9B 		.ascii	"\336\270\035\233Af\025\206\373\360\315[\251\005\231"
 633      41661586 
 633      FBF0CD5B 
 633      A90599
 634 1ccf FCB2ED37 		.ascii	"\374\262\3557}\332}-\304\341%wS;\274\267~\360\241\245"
 634      7DDA7D2D 
 634      C4E12577 
 634      533BBCB7 
 634      7EF0A1A5 
 635 1ce3 A72FDEDF 		.ascii	"\247/\336\337\205\331\223\224f\236\203\241\034\301\325"
 635      85D99394 
 635      669E83A1 
 635      1CC1D5
 636 1cf2 BEC09E05 		.ascii	"\276\300\236\005\330\243\205\2633%JN\336|\231px\217"
 636      D8A385B3 
 636      33254A4E 
 636      DE7C9970 
 636      788F
 637 1d04 D8C60A70 		.ascii	"\330\306\012pXw\031\254\257\254`\031.Q\312\261j\306"
 637      587719AC 
 637      AFAC6019 
 637      2E51CAB1 
 637      6AC6
 638 1d16 113F6F1B 		.ascii	"\021?o\033\213\347\213u\352\257[\301\012\030\363\305"
 638      8BE78B75 
 638      EAAF5BC1 
 638      0A18F3C5 
 639 1d26 9E9D68B1 		.ascii	"\236\235h\261\215\305\3635\236\301z\373\027\026\260"
 639      8DC5F335 
 639      9EC17AFB 
 639      1716B0
 640 1d35 4C5CF589 		.ascii	"L\\\365\211\014\3268\333X\034_\362!\246\036\247Y\301"
 640      0CD638DB 
ARM GAS  /tmp/ccDCqrSF.s 			page 52


 640      581C5FF2 
 640      21A61EA7 
 640      59C1
 641 1d47 325ED992 		.ascii	"2^\331\222\233\031\254y\266\261xyM\341N\301|j\005\315"
 641      9B19AC79 
 641      B6B17879 
 641      4DE14EC1 
 641      7C6A05CD 
 642 1d5b F07F1E64 		.ascii	"\360\177\036dy\017\303\331\022\333X\274\304N0X+\254"
 642      790FC3D9 
 642      12DB58BC 
 642      C44E3058 
 642      2BAC
 643 1d6d 607535AE 		.ascii	"`u5\256\311i\\)\327\332F\013\030\226r\243\025,\303\377"
 643      C9695C29 
 643      D7DA460B 
 643      189672A3 
 643      152CC3FF 
 644 1d81 39E54BB9 		.ascii	"9\345K\271\3056V@0\374\260\366U\022\337\362\021\317"
 644      C5365640 
 644      30FCB0F6 
 644      5512DFF2 
 644      11CF
 645 1d93 E96D1F71 		.ascii	"\351m\037q\351F }\027\351\373HG!\035\203t\034\322\011"
 645      E946207D 
 645      17E9FB48 
 645      47211D83 
 645      741CD209 
 646 1da7 4827219D 		.ascii	"H'!\235\202t\032\322\031Hg!\235\203t\036\322\371H?\362"
 646      82741AD2 
 646      19486721 
 646      9D83741E 
 646      D2F9483F 
 647 1dbc 714BB85F 		.ascii	"qK\270_\376B\323\035\361}@J\2479\266~\226\342\320\223"
 647      FE42D31D 
 647      F17D404A 
 647      A739B67E 
 647      96E2D093 
 648 1dd0 73F0EA01 		.ascii	"s\360\352\001\370;\346\236\245\311\237\255\326\343\356"
 648      F83BE69E 
 648      A5C99FAD 
 648      D6E3EE
 649 1ddf 45F2564C 		.ascii	"E\362VLI\034\346\262\200e2p\335w\213v@t\302\247A[R~"
 649      491CE6B2 
 649      80653270 
 649      DD778B76 
 649      4074C2A7 
 650 1df7 7A470F8E 		.ascii	"zG\017\216o\206\373\335\2045\372\032\313\203Z0\376\245"
 650      6F86FBDD 
 650      8435FA1A 
 650      CB835A30 
 650      FEA5
 651 1e09 954A74AB 		.ascii	"\225Jt\253h\314\334AD\243\007\015O$\241q\307\012\225"
 651      68CCDC41 
 651      44A3070D 
 651      4F24A171 
 651      C70A95
ARM GAS  /tmp/ccDCqrSF.s 			page 53


 652 1e1c 68CC618C 		.ascii	"h\314a\214v\030\321\350\322\311\231\244*\345\026J\224"
 652      7618D1E8 
 652      D2C999A4 
 652      2AE5164A 
 652      94
 653 1e2d E85B4E63 		.ascii	"\350[Nc\264\243\014\332%Kh+L\320\216#\032\235umJ\252"
 653      B4A30CDA 
 653      254B682B 
 653      4CD08E23 
 653      1A9D756D 
 654 1e43 046E8E55 		.ascii	"\004n\216U\211\236\325C\323o@w\230\241\307]\034z\264"
 654      899ED543 
 654      D36F4077 
 654      98A1C75D 
 654      1C7AB4
 655 1e56 E0986808 		.ascii	"\340\230h\010*\3730\244\013\220.D\372)\322EH\027#]\212"
 655      2AFB30A4 
 655      0B902E44 
 655      FA29D245 
 655      4817235D 
 656 1e6b 7439D215 		.ascii	"t9\322\025l\3430\362roy\3657\3638\204!\217\352\216U"
 656      6CE330F2 
 656      726F79F5 
 656      37F33884 
 656      218FEA8E 
 657 1e80 D67ED3FC 		.ascii	"\326~\323\374\233\203t\254B\322\252\257^\272n\350\314"
 657      9B8374AC 
 657      42D2AAAF 
 657      5EBA6EE8 
 657      CC
 658 1e91 2B39E87B 		.ascii	"+9\350{\363F\311\024\206V\3718o\376?D\347\004\027\372"
 658      F346C914 
 658      8656F938 
 658      6FFE3F44 
 658      E70417FA 
 659 1ea5 F48DD58D 		.ascii	"\364\215\325\215\023\327mrO\2227\322\241\207\365\011"
 659      13D76D72 
 659      4F9237D2 
 659      A187F509 
 660 1eb5 92F53ECD 		.ascii	"\222\365>\315~{2\226\322\216\330\224\357V'L\3665\355"
 660      7E7B3296 
 660      D28ED894 
 660      EF56274C 
 660      F635ED
 661 1ec8 7964056E 		.ascii	"yd\005n\\\331\204\336\351f\215\350,\342\304j\276#\273"
 661      5CD984DE 
 661      E9668DE8 
 661      2CE2C46A 
 661      BE23BB
 662 1edb B7EB1063 		.ascii	"\267\353\020c\207\006C\022{h\366\276\364\320\374A\326"
 662      87064312 
 662      7B68F6BE 
 662      F4D0FC41 
 662      D6
 663 1eec ADBB4EB9 		.ascii	"\255\273N\271\332\207\367\035\302\331G\371\365)&\335"
 663      DA87F71D 
 663      C2D947F9 
ARM GAS  /tmp/ccDCqrSF.s 			page 54


 663      F52926DD 
 664 1efc B3469B87 		.ascii	"\263F\233\207z$\264o\033\232o\315\223\032\005\271\242"
 664      7A24B46F 
 664      1B9A6FCD 
 664      931A05B9 
 664      A2
 665 1f0d E1507D68 		.ascii	"\341P}h{R\245M\214W\332\261\365\227\237\236\270X\036"
 665      7B52A54D 
 665      8C57DAB1 
 665      F5979F9E 
 665      B8581E
 666 1f20 8E135BDA 		.ascii	"\216\023[\332i-\223\335j;\265\265FN>h\370\271m\300O"
 666      692D93DD 
 666      6A3BB5B5 
 666      464E3E68 
 666      F8B96DC0 
 667 1f35 BD2F6948 		.ascii	"\275/iH\010\234\254\234=\362\240\270pAU\214\014\014"
 667      089CAC9C 
 667      3DF2A0B8 
 667      7041558C 
 667      0C0C
 668 1f47 5FD70E0C 		.ascii	"_\327\016\014MX\331\255e\205\014\2054\254L\010\350\263"
 668      4D58D9AD 
 668      65850C85 
 668      34AC4C08 
 668      E8B3
 669 1f59 B2579795 		.ascii	"\262W\227\225;u_\216\025G\015\233\271U\276D6u\333\030"
 669      3B755F8E 
 669      15470D9B 
 669      B955BE44 
 669      3675DB18 
 670 1f6d A3EED7F2 		.ascii	"\243\356\327\362B\372\232\370\227\223\"\177z\244^L}"
 670      42FA9AF8 
 670      9793227F 
 670      7AA45E4C 
 670      7D
 671 1f7e E6CE21CC 		.ascii	"\346\316!\3141\340\375\210.\357\015\315'\037\231\220"
 671      31E0FD88 
 671      2EEF0DCD 
 671      271F9990 
 672 1f8e 0EEBC77C 		.ascii	"\016\353\307|f\373\017?3x1\010Iy\302\227<\323"
 672      66FB0F3F 
 672      33783108 
 672      4979C297 
 672      3CD3
 673 1fa0 A277D60E 		.ascii	"\242w\326\016\274K\203\242\234\324-J\375\271\335\206"
 673      BC4B83A2 
 673      9CD42D4A 
 673      FDB9DD86 
 674 1fb0 06C5AC24 		.ascii	"\006\305\254$_\231\226\344\220\301\236\014\222\362\264"
 674      5F9996E4 
 674      90C19E0C 
 674      92F2B4
 675 1fbf 4E499E68 		.ascii	"NI\236h\255\363US\256:\203r\235\325-\327\322%\347=\351"
 675      ADF35553 
 675      AE3A8372 
 675      9DD52DD7 
ARM GAS  /tmp/ccDCqrSF.s 			page 55


 675      D225E73D 
 676 1fd4 94EB9C69 		.ascii	"\224\353\234i\271f\030x2$\345\005\303ri\012r\332\240"
 676      B9661878 
 676      3224E505 
 676      C372690A 
 676      72DAA0
 677 1fe7 2017F50A 		.ascii	" \027\365\012\022;zZ\366QE\243\314A\2237H\177IW\020"
 677      123B7A5A 
 677      F65145A3 
 677      CC419337 
 677      487F4957 
 678 1ffc 4DB5E75D 		.ascii	"M\265\347]"
 679 2000 E908E28A 		.ascii	"\351\010\342\212\251 V\233\010\342\007\253\202\250\376"
 679      A920569B 
 679      08E207AB 
 679      82A8FE
 680 200f A57E41AE 		.ascii	"\245~A\256\033\324\350\221\264j\364\246\326\\\220\212"
 680      1BD4E891 
 680      B46AF4A6 
 680      D65C908A 
 681 201f E2EC5832 		.ascii	"\342\354X2g\363\0158k\326\345\354\330\372o\031\373N"
 681      67F30D38 
 681      6BD6E5EC 
 681      D8FA6F19 
 681      FB4E
 682 2031 EDB64358 		.ascii	"\355\266CXm\200qG\027c\331\222\257\006\245S\272\026"
 682      6D807147 
 682      1763D992 
 682      AF06A553 
 682      BA16
 683 2043 D3D2E95B 		.ascii	"\323\322\351[\210:\003\316\206\372\3658\273\274jS\310"
 683      883A03CE 
 683      86FAF538 
 683      BBBC6A53 
 683      C8
 684 2054 8833931E 		.ascii	"\2103\223\036c\270\337L\177>7\321\237*\177\262\376("
 684      63B8DF4C 
 684      7F3E37D1 
 684      9F2A7FB2 
 684      FE28
 685 2066 AFE84A51 		.ascii	"\257\350JQ\260\343\006\005{[\267`\015\315\015\351Y\361"
 685      B0E30605 
 685      7B5BB760 
 685      0DCD0DE9 
 685      59F1
 686 2078 117E8DCC 		.ascii	"\021~\215\314O\26027`5\005\353\347\014X\257\326e\275"
 686      4FB03237 
 686      603505EB 
 686      E70C58AF 
 686      D665BD
 687 208b FE5C535A 		.ascii	"\376\\SZ\215z\264\226\363\323\0268\327pz\335\200\323"
 687      8D7AB496 
 687      F3D31638 
 687      D7707ADD 
 687      80D3
 688 209d F1BA9C2E 		.ascii	"\361\272\234.[\322\234\216\366L\3242zA\207Q\015cC\377"
 688      5BD29C8E 
ARM GAS  /tmp/ccDCqrSF.s 			page 56


 688      F64CD432 
 688      7A418751 
 688      0D6343FF 
 689 20b1 519FB129 		.ascii	"Q\237\261)\272\2145\325\3561\024\241\011c\323\264\214"
 689      BA8C35D5 
 689      EE3114A1 
 689      0963D3B4 
 689      8C
 690 20c2 FD605F82 		.ascii	"\375`_\202\357\0310:K\227\321\031\363\277\370M:\336"
 690      EF19303A 
 690      4B97D119 
 690      F3BFF84D 
 690      3ADE
 691 20d4 E31C2DA7 		.ascii	"\343\034-\247\204\271\370\227S\272\"\234l\300\331\007"
 691      84B9F897 
 691      53BA229C 
 691      6CC0D907 
 692 20e4 BA9C4D5D 		.ascii	"\272\234M]\265\341\037\322\020\341\207Z\306\310\177"
 692      B5E11FD2 
 692      10E1875A 
 692      C6C87F
 693 20f3 AD6AFD31 		.ascii	"\255j\3751\003F>\346\031\371Ga\026a\244f\321\346Y\342"
 693      03463EE6 
 693      19F94761 
 693      1661A466 
 693      D1E659E2 
 694 2107 68199AB2 		.ascii	"h\031\232\262\034ki\021\037\225\304y\"\031\017,\211"
 694      1C6B6911 
 694      1F95C479 
 694      22190F2C 
 694      89
 695 2118 A328BCCC 		.ascii	"\243(\274\314\214\217|;+\200\013\022\200\004\254\276"
 695      8C8F7C3B 
 695      2B800B12 
 695      8004ACBE 
 696 2128 1EC67A9B 		.ascii	"\036\306z\233\306\210ce9\001v\012\301Vj\301bI\2575\375"
 696      C6886365 
 696      3901760A 
 696      C1566AC1 
 696      6249AF35 
 697 213d 5401EB2C 		.ascii	"T\001\353,,\221\337\212-r\322\244\222\370\215H\3277"
 697      2C91DF8A 
 697      2D72D2A4 
 697      92F88D48 
 697      D737
 698 214f 68672389 		.ascii	"hg#\211\337*\337\235d\247\035t\374\312\327\353\350\252"
 698      DF2ADF9D 
 698      64A71D74 
 698      FCCAD7EB 
 698      E8AA
 699 2161 428FA57C 		.ascii	"B\217\245|\177\313A\277\277\343\240\337\275t\37082\361"
 699      7FCB41BF 
 699      BFE3A0DF 
 699      BD74F838 
 699      32F1
 700 2173 9548DC05 		.ascii	"\225H\334\005\267\336K\334\37291\032\211\257\004\177"
 700      B7DE4BDC 
ARM GAS  /tmp/ccDCqrSF.s 			page 57


 700      FA39311A 
 700      89AF047F 
 701 2183 34978094 		.ascii	"4\227\200\224b,\2178>\3615\366WE\022\261\372\330\262"
 701      622C8F38 
 701      3EF135F6 
 701      574512B1 
 701      FAD8B2
 702 2196 1ABF3C5A 		.ascii	"\032\277<ZV|\017\362'%\016a\223V\010:\177gR\303\213"
 702      567C0FF2 
 702      27250E61 
 702      9356083A 
 702      7F6752C3 
 703 21ab 14EA67CF 		.ascii	"\024\352g\317\362\221\353\304\275\363d\030v\310r\213"
 703      F291EBC4 
 703      BDF36418 
 703      76C8728B 
 704 21bb D8F2B4FA 		.ascii	"\330\362\264\372\206\227)\377\244\225)\377>\027\034"
 704      869729FF 
 704      A49529FF 
 704      3E171C
 705 21ca F424C15D 		.ascii	"\364$\301]\236\275\361??\036JZ\204|\023\320\234\352"
 705      9EBDF13F 
 705      3F1E4A5A 
 705      847C13D0 
 705      9CEA
 706 21dc 3F2CCC48 		.ascii	"?,\314HB\343\376O\201\200-\323\202\305\026\235\000\221"
 706      42E3FE4F 
 706      81802DD3 
 706      82C5169D 
 706      0091
 707 21ee 205F2DAF 		.ascii	" _-\257\253@\363R\003\325\352\351\315\020q\014\2537"
 707      AB40F352 
 707      03D5EAE9 
 707      CD10710C 
 707      AB37
 708 2200 5FD19740 		.ascii	"_\321\227@i\301^V\261\324\0154+9\265\311\244\011\351"
 708      69C15E56 
 708      B1D40D34 
 708      2B39B5C9 
 708      A409E9
 709 2213 0BB8C993 		.ascii	"\013\270\311\223\344\335\360\004\342\232+^K3\337\365"
 709      E4DDF004 
 709      E29A2B5E 
 709      4B33DFF5 
 710 2223 08F4ADDC 		.ascii	"\010\364\255\334\344F3\276K]e$\266\306EYxZ\345`IJ\016"
 710      E44633BE 
 710      4B5D6524 
 710      B6C64559 
 710      785AE560 
 711 223a D6FC841C 		.ascii	"\326\374\204\034\310\273c\337m\317\210K\364\"\236\373"
 711      C8BB63DF 
 711      6DCF884B 
 711      F4229EFB 
 712 224a 5AAD6521 		.ascii	"Z\255e!y\212\"!\3204\017wm\340\355J\2060\202\3658z\030"
 712      798A2221 
 712      D0340F77 
 712      6DE0ED4A 
ARM GAS  /tmp/ccDCqrSF.s 			page 58


 712      863082F5 
 713 2261 3B1C9BFC 		.ascii	";\034\233\374\031\202\346c\364h\314\257\277\203\233"
 713      1982E663 
 713      F468CCAF 
 713      BF839B
 714 2270 4E8218A5 		.ascii	"N\202\030\245\372\3340\025\231\2301J\265\331 \225u\211"
 714      FADC3015 
 714      9998314A 
 714      B5D92095 
 714      7589
 715 2282 6CD15A5A 		.ascii	"l\321ZZRRK\357M\2503\344\230Xo\243T\333\014S\021-0J"
 715      52524BEF 
 715      4DA833E4 
 715      98586FA3 
 715      54DB0C53 
 716 229a F58561AA 		.ascii	"\365\205a\2529&ym7L5\315$\325\227\206\251&\232\244\332"
 716      3926796D 
 716      374C35CD 
 716      24D59786 
 716      A9269AA4 
 717 22af 61986AB4 		.ascii	"a\230j\264I\252\235\206\251F\230\244\332e\230j\270I"
 717      49AA9D86 
 717      A94698A4 
 717      DA65986A 
 717      B849
 718 22c1 AA7AC354 		.ascii	"\252z\303T-&\032\326`\230\352\246I\252\335\206\251v"
 718      2D261AD6 
 718      6098EAA6 
 718      49AADD86 
 718      A976
 719 22d3 9AA4DA93 		.ascii	"\232\244\332\223H\245\267n\035\237\311\177Y\210\317"
 719      48A5B76E 
 719      1D9FC97F 
 719      5988CF
 720 22e2 308E5937 		.ascii	"0\216Y7\362\274\270\034\247\030\367\372\211!{\353W\251"
 720      F2BCB81C 
 720      A718F7FA 
 720      89217BEB 
 720      57A9
 721 22f4 17C03920 		.ascii	"\027\3009 \222\361\001\277f\001\374\016\375\253\022"
 721      92F101BF 
 721      6601FC0E 
 721      FDAB12
 722 2303 725FD071 		.ascii	"r_\320q2\224\217rR\246\345\360T\235w\215\223\264z\005"
 722      32948F72 
 722      52A6E5F0 
 722      549D778D 
 722      93B47A05 
 723 2317 55A2F4A3 		.ascii	"U\242\364\243<\300\343U\037Iz\327\270\035\260\000\007"
 723      3CC0E355 
 723      1F497AD7 
 723      B81DB000 
 723      07
 724 2328 36FA08F3 		.ascii	"6\372\010\363B\351\261(\234\024`&\007\240\306\262`\223"
 724      42E9B128 
 724      9C146026 
 724      07A0C6B2 
ARM GAS  /tmp/ccDCqrSF.s 			page 59


 724      6093
 725 233a 6C83F19C 		.ascii	"l\203\361\234\215g\213y\324J1M\016?Md9\233n\2053\223"
 725      8D678B79 
 725      D44A314D 
 725      0E3F4D64 
 725      399B6E85 
 726 2350 A34F9359 		.ascii	"\243O\223Y\260\331V\300L\3365>\225\005\373\3206\030"
 726      B0D956C0 
 726      4CDE353E 
 726      9505FBD0 
 726      3618
 727 2362 CFD97416 		.ascii	"\317\331t\026\354S+`\001c\316\026\261`Kl\203\361\234"
 727      EC532B60 
 727      0163CE16 
 727      B1604B6C 
 727      83F19C
 728 2375 2D66C16A 		.ascii	"-f\301j\255\200\231\374M\364R\026l\265m0\236\263\345"
 728      AD8099FC 
 728      4DF45216 
 728      6CB56D30 
 728      9EB3E5
 729 2388 2CD87A2B 		.ascii	",\330z+`\206\177\023=$\266\342\177TK\354\246a\346\277"
 729      60867F13 
 729      3D24B6E2 
 729      7F544BEC 
 729      A661E6BF 
 730 239c 2EB5EF72 		.ascii	".\265\357re\037\253\023\015\037\223\304+~u\253\275\372"
 730      651FAB13 
 730      0D1F93C4 
 730      2B7E75AB 
 730      BDFA
 731 23ae 3A48ED57 		.ascii	":H\355W\030\203\2705\355Cwc\215\311_R\257b\245\260\311"
 731      1883B835 
 731      ED437763 
 731      8DC95F52 
 731      AF62A5B0 
 732 23c3 8A14BA1A 		.ascii	"\212\024\272\032\203\255a\301\266Z\0013\371\257\346"
 732      83AD61C1 
 732      B65A0133 
 732      F9AFE6
 733 23d2 752CD897 		.ascii	"u,\330\227\266\301x\316\352Y\260\006+`}\2159\333\315"
 733      B6C178CE 
 733      EA59B006 
 733      2B607D8D 
 733      39DBCD
 734 23e5 82EDB50D 		.ascii	"\202\355\265\015\306r6$\2667\24193\273jT\247+o.\271"
 734      C6723624 
 734      B637A139 
 734      33BB6A54 
 734      A72B6F2E 
 735 23fa C718D5D1 		.ascii	"\307\030\325\321<\006\035\267\337\356\256t\271\225\376"
 735      3C061DB7 
 735      DFEEAE74 
 735      B995FE
 736 2409 AE747651 		.ascii	"\256tvQ,\361\024\024\373\260\266\330\034\023JToy^\357"
 736      2CF11414 
 736      FBB0B6D8 
ARM GAS  /tmp/ccDCqrSF.s 			page 60


 736      1C134A54 
 736      6F795EEF 
 737 241d C3F6B492 		.ascii	"\303\366\264\222x\320O\326\322\016\371\311\232\354a"
 737      78D04FD6 
 737      D20EF9C9 
 737      9AEC61
 738 242c A447901E 		.ascii	"\244G\220\036Cz\002i#\322SH\277Fz\006\351Y\244\347\220"
 738      437A0269 
 738      23D25348 
 738      BF467A06 
 738      E959A4E7 
 739 2441 5E407A11 		.ascii	"^@z\021\351%\244W\221^Cz\003\351-\244\315H\357\370\231"
 739      E925A457 
 739      915E437A 
 739      03E92DA4 
 739      CD48EFF8 
 740 2456 E53B8D7B 		.ascii	"\345;\215{\262\327\240~q\356\263\225\221S\263\333\304"
 740      B2D7A07E 
 740      71EEB395 
 740      9153B3DB 
 740      C4
 741 2467 A9196698 		.ascii	"\251\031f\230\352\212I\252\341\206\251\310Fv\243To\030"
 741      EA8A49AA 
 741      E186A9C8 
 741      4676A354 
 741      6F18
 742 2479 A63A6792 		.ascii	"\246:g\222W\225a\252\257LR\275i\230\352\230I\252\267"
 742      579561AA 
 742      AF4C52BD 
 742      6998EA98 
 742      49AAB7
 743 248c 0C53ED37 		.ascii	"\014S\3557I\365v\"\225r\020\340\356\231\221w\361/\024"
 743      49F57622 
 743      957210E0 
 743      EE999177 
 743      F12F14
 744 249f 70EA61A6 		.ascii	"p\352a\246O3\340!\253\240F`#Z\375L\211\251\203\034\207"
 744      4F33E021 
 744      ABA04660 
 744      235AFD4C 
 744      89A9831C 
 745 24b4 30E7D7DA 		.ascii	"0\347\327\332\271$\\\226\037*/\376\220,\350\323\327"
 745      B9245C96 
 745      1F2A2FFE 
 745      902CE8D3 
 745      D7
 746 24c5 C949E23B 		.ascii	"\311I\342;\255LW\345G\266\342f\236\004w\360\231\362"
 746      AD4C57E5 
 746      47B6E266 
 746      9E0477F0 
 746      99F2
 747 24d7 F292DC8E 		.ascii	"\362\222\334\216\003\313KC\035\013\313\213^\353X\024"
 747      03CB4B43 
 747      1D0BCB8B 
 747      5EEB5814 
 748 24e7 1AD4B170 		.ascii	"\032\324\261p`q\277\342\362H\307h\270\262\354\357\035"
 748      6071BFE2 
ARM GAS  /tmp/ccDCqrSF.s 			page 61


 748      F248C768 
 748      B8B2ECEF 
 748      1D
 749 24f8 2132502A 		.ascii	"!2P*\351XQ\036\216F:\346\027\364\356\224Mi\217\316\203"
 749      E958511E 
 749      8E463AE6 
 749      17F4EE94 
 749      4D698FCE 
 750 250d 0777948A 		.ascii	"\007w\224\212\012\203%%E\217\017\024\374\335rsr\303"
 750      0A832525 
 750      458F0F14 
 750      FCDD7273 
 750      72C3
 751 251f C5834261 		.ascii	"\305\203Ba\317\263\317\277\020\310\021\262\255\240\026"
 751      CFB3CFBF 
 751      10C811B2 
 751      ADA016
 752 252e 97159654 		.ascii	"\227\025\226T\026\205\010\016`\264\202K$*EC\301h+\200"
 752      1685080E 
 752      60B4824B 
 752      242A4543 
 752      C1682B80 
 753 2542 0BBEF07C 		.ascii	"\013\276\360|\317\347{\026\370H4\277\240O_\222E0\257"
 753      CFE77B16 
 753      F84834BF 
 753      A04F5F92 
 753      4530AF
 754 2555 7BB7DC97 		.ascii	"{\267\334\227\360\327n9\005=\377\322=\203Ds\372\364"
 754      F0D76E39 
 754      053DFFD2 
 754      3D834473 
 754      FAF4
 755 2567 EEDBAB7B 		.ascii	"\356\333\253{Aw|\242{^^\237<7\342\374\252ce$\334Q\012"
 755      41777CA2 
 755      7B5E5E9F 
 755      3C37E2FC 
 755      AA636524 
 756 257e 97FEAEAC 		.ascii	"\227\376\256\254\274,\364\273\220\324\2578\236e$ZT\\"
 756      BC2CF4BB 
 756      90D4AF38 
 756      9E65245A 
 756      545C
 757 2590 16855C7D 		.ascii	"\026\205\\}\225p\355\224\035\214v6y\272T\002\376\313"
 757      9570ED94 
 757      1D8C7636 
 757      79BA5402 
 757      FECB
 758 25a2 421D8345 		.ascii	"B\035\203E\241\376ReI4\030}\255\"\024!<\007\203jzwQ"
 758      A1FE5265 
 758      4934187D 
 758      AD221421 
 758      3C07836A 
 759 25b9 6569E96B 		.ascii	"ei\351k\204\207\234\362\262\376\305\003<\205xiMJ%\225"
 759      84879CF2 
 759      B2FEC503 
 759      3C857869 
 759      4D4A2595 
ARM GAS  /tmp/ccDCqrSF.s 			page 62


 760 25cd 569440B1 		.ascii	"V\224@\2610\257\254'\240|4\031\211z\351\217\221l\314"
 760      30AFAC27 
 760      A07C3419 
 760      897AE98F 
 760      916CCC
 761 25e0 BEA4B85F 		.ascii	"\276\244\270_\307\001\205\205\0326:?\336\345\361\316"
 761      C7018585 
 761      1A363A3F 
 761      DEE5F1CE 
 762 25f0 2CEBC006 		.ascii	",\353\300\006d\356\211\024\377\357\020\3118T\021\035"
 762      64EE8914 
 762      FFEF10C9 
 762      3854111D 
 763 2600 E82B2C0E 		.ascii	"\350+,\016\027V\226H\341\366\244V\012\007Jee\241\222"
 763      17569648 
 763      E1F6A456 
 763      0A074A65 
 763      65A192
 764 2613 48B0ACB2 		.ascii	"H\260\254\2624\030\315 T\275u\017\374^(\225\224\364"
 764      3418CD20 
 764      54BD750F 
 764      FC5E2895 
 764      94F4
 765 2625 930AFF1E 		.ascii	"\223\012\377\036\214zBeE\301\302~D\366\241p\270<\034"
 765      8C7A4265 
 765      45C1C27E 
 765      44F6A170 
 765      B83C1C
 766 2638 8CB657A4 		.ascii	"\214\266W\244\030\314\355\335\255G\267\236\275^\310"
 766      18CCEDDD 
 766      AD47B79E 
 766      BD5EC8
 767 2647 EBDE56BD 		.ascii	"\353\336V\275\325\347/\335\363z\364\352\363\037\355"
 767      D5E72FDD 
 767      F37AF4EA 
 767      F31FED
 768 2656 D5C71340 		.ascii	"\325\307\023@>\232\274\260\237\2630\234\005!\333\035"
 768      3E9ABCB0 
 768      9FB3309C 
 768      0521DB1D 
 769 2666 29AD0867 		.ascii	")\255\010g!\315vE^\011g\021\202\261N\355\251\220@[\""
 769      21CD7645 
 769      5E096711 
 769      82B14EED 
 769      A990405B 
 770 267b C5E565CF 		.ascii	"\305\345e\317\206\313++\\\003\302\025\025]R)M8\032\227"
 770      86CB2B2B 
 770      5C03C215 
 770      155D5229 
 770      4D381A97 
 771 268f 42E1C0C8 		.ascii	"B\341\300\310k\021\265\032|\321\201\341\220T\024\214"
 771      6B11B51A 
 771      7CD181E1 
 771      9054148C 
 772 269f FA0B0706 		.ascii	"\372\013\007\006i\274\263=\254\302\201D\215=\025\301"
 772      69BCB33D 
 772      ACC28144 
ARM GAS  /tmp/ccDCqrSF.s 			page 63


 772      8D3D15C1 
 773 26af B2D0E028 		.ascii	"\262\320\340(\\*\302\241A\317Y\200\240\015\243[^\357"
 773      5C2AC2A1 
 773      41CF5980 
 773      A00DA35B 
 773      5EEF
 774 26c1 9CDE83E1 		.ascii	"\234\336\203\341\311\322\212\342\022(U\307gsr\340q\225"
 774      C9D28AE2 
 774      122855C7 
 774      677372E0 
 774      7195
 775 26d3 3D6FB422 		.ascii	"=o\264\"\\\\\036\244\270\305\345^\320\214(d\363\007"
 775      5C5C1EA4 
 775      B8C5E55E 
 775      D08C2864 
 775      F307
 776 26e5 DBF8030B 		.ascii	"\333\370\003\013\313\303!\000lMn\007A\203\012\243\203"
 776      CBC32100 
 776      6C4D6E07 
 776      41830AA3 
 776      83
 777 26f6 FF941E4A 		.ascii	"\377\224\036Jp\320\223\245Dr\341\320\000P\266`\324\031"
 777      70D093A5 
 777      4472E1D0 
 777      0050B660 
 777      D419
 778 2708 C97A02C2 		.ascii	"\311z\002\302\223\020\272@\370\2033\222\235\011!\013"
 778      9310BA40 
 778      F8833392 
 778      9D09210B 
 779 2718 4236844E 		.ascii	"B6\204N\020:C\370=\004x.\033\236\313\206\347\262\341"
 779      103A43F8 
 779      3D04782E 
 779      1B9ECB86 
 779      E7B2E1
 780 272b B94EF05C 		.ascii	"\271N\360\\\247,G\270\263#\374{G\370\011G\370IG\270"
 780      A72C47B8 
 780      B323FC7B 
 780      47F80947 
 780      F84947B8 
 781 273f 8B23FC07 		.ascii	"\213#\374\007g8+\023B\226\243$\014\227N\356\212 p\353"
 781      67382B13 
 781      4296A324 
 781      0C974EEE 
 781      8A2070EB 
 782 2753 25127E35 		.ascii	"%\022~5\024\206kyIQ(\354\002\265\014\023\261K\245!_"
 782      14866B79 
 782      495128EC 
 782      02B50C13 
 782      B14BA521 
 783 2768 5469FE5E 		.ascii	"Ti\376^\3228\272@m\322f\0021x\034\177\363FK\313\213"
 783      D238BA40 
 783      6DD26602 
 783      31781C7F 
 783      F3464BCB 
 784 277d 42F8BD7F 		.ascii	"B\370\275\177\2114 \342\215\206C\375#(Y\022q\227F\006"
 784      893420E2 
ARM GAS  /tmp/ccDCqrSF.s 			page 64


 784      8D8643FD 
 784      23285912 
 784      71974606 
 785 2791 C08F4A8B 		.ascii	"\300\217J\213\204\344J\314\023.z\015~\362\205\006\027"
 785      84E44ACC 
 785      132E7A0D 
 785      7EF28506 
 785      17
 786 27a2 47415021 		.ascii	"GAP!\317\253\321\362~\177\253h\035\032\024*\213\226"
 786      CFABD1F2 
 786      7E7FAB68 
 786      1D1A142A 
 786      8B96
 787 27b4 4A116C08 		.ascii	"J\021l\010\257\222\210\263\"X\331\206jP$XR\034\201\246"
 787      AF9288B3 
 787      2258D986 
 787      6A502458 
 787      521C81A6 
 788 27c8 7E6F5CA7 		.ascii	"~o\\\247\350\035\177E"
 788      E81D7F45 
 789 27d0 F055A938 		.ascii	"\360U\2518Z\\6\340^\365\366+\225\241J\340\252-\363$"
 789      5A5C36E0 
 789      5EF5F62B 
 789      95A14AE0 
 789      AA2DF324 
 790 27e4 DE6A5511 		.ascii	"\336jU\021\204l1\352\306(\334\010U@\223\203\304\356"
 790      846C31EA 
 790      C628DC08 
 790      55409383 
 790      C4EE
 791 27f6 D24A5082 		.ascii	"\322JP\202N\266\324\2644:\230\250S)E\207k\371\253e "
 791      4EB6D4B4 
 791      343A98A8 
 791      53294587 
 791      6BF9AB65 
 792 280b 4B448222 		.ascii	"KD\202\"\224\242\366\002\177\360\034\341\264\025\221"
 792      94A2F602 
 792      7FF01CE1 
 792      B41591
 793 281a 8A54823A 		.ascii	"\212T\202:\0077+\300\332?i+?\2450\220g{\245\205\201"
 793      07372BC0 
 793      DA3F692B 
 793      3FA53090 
 793      677BA585 
 794 282f 9443E150 		.ascii	"\224C\341PY!\224\326Co\3751\025\"\260\3241\247w~\317"
 794      592194D6 
 794      436FFD31 
 794      1522B0D4 
 794      31A7777E 
 795 2844 7CE839C0 		.ascii	"|\3509\300x\225v\312\356\33793k01\371\255\211a)\200"
 795      789576CA 
 795      EEDF3933 
 795      6B3031F9 
 795      AD896129 
 796 2859 56921BEA 		.ascii	"V\222\033\352\357\310\317s\346\344eA\310v\347\367\356"
 796      EFC8CF73 
 796      E6E46541 
ARM GAS  /tmp/ccDCqrSF.s 			page 65


 796      C876E7F7 
 796      EE
 797 286a 9B978534 		.ascii	"\233\227\2054\333\375\347>= N(\215wB\332\331\371\\A"
 797      DBFDE73E 
 797      3D204E28 
 797      8D7742DA 
 797      D9F95C41 
 798 287e 9EB35741 		.ascii	"\236\263WA\236+\377\337\363\262\010\311&\244\223\353"
 798      9E2BFFDF 
 798      F3B208C9 
 798      26A493EB 
 799 288e CF405D7F 		.ascii	"\317@]\177\316\205{@\262\011\351DHgGn\236\023\254V\217"
 799      CE857B40 
 799      B209E944 
 799      4867476E 
 799      9E13AC56 
 800 28a3 F47B3B64 		.ascii	"\364{;d=XT*\021q\200q\014\346\203\362I\245q\376s\362"
 800      3D58542A 
 800      11718071 
 800      0CE683F2 
 800      49A571FE 
 801 28b9 5CCFE702 		.ascii	"\\\317\347\002S}\273\345\271zg\022\222\325-\317\331"
 801      537DBBE5 
 801      B97A6712 
 801      92D52DCF 
 801      D9
 802 28ca 2327CF13 		.ascii	"#'\317\023\301\007]\305\375\013\303\236\342\310\300"
 802      C1075DC5 
 802      FD0BC39E 
 802      E2C8C0
 803 28d9 E2FE517F 		.ascii	"\342\376Q\177$T\322\277\270\254(4\3303(T\030-\017\267"
 803      2454D2BF 
 803      B8AC2834 
 803      D8332854 
 803      182D0FB7 
 804 28ed 8FA307E9 		.ascii	"\217\243\007\351\323 _\370\022\211Vx\341B\224\276\035"
 804      D3205FF8 
 804      12895678 
 804      E14294BE 
 804      1D
 805 28fe ED5F231D 		.ascii	"\355_#\035K\"\245\2352;\221\266Kc\301\350\003\352O\305"
 805      4B22A59D 
 805      323B91B6 
 805      4B63C1E8 
 805      03EA4FC5 
 806 2912 D985C148 		.ascii	"\331\205\301H\250,R\036&\302\355\231\235\223\217_@\207"
 806      A82C521E 
 806      26C2ED99 
 806      9D938F5F 
 806      4087
 807 2924 13716C47 		.ascii	"\023qlG\276\236\317\323\016\324\3253\267Ww\3273/\344"
 807      BE9ECFD3 
 807      0ED4D533 
 807      B75777D7 
 807      332FE4
 808 2937 BFE4958A 		.ascii	"\277\344\225\212\212\302\241H\304\266?\320\253WnG\200"
 808      8AC2A148 
ARM GAS  /tmp/ccDCqrSF.s 			page 66


 808      C4B63FD0 
 808      AB576E47 
 808      80
 809 2948 1F9485D9 		.ascii	"\037\224\205\331+\376\000\334\240L\331r\004\000\200"
 809      2BFE00DC 
 809      A04CD972 
 809      040080
 810 2957 74AA7051 		.ascii	"t\252pQ\035\001\300Q\035\001\022EG\200D\320\021\270"
 810      1D01C051 
 810      1D011245 
 810      478044D0 
 810      11B8
 811 2969 87C46839 		.ascii	"\207\304h9\202\005/\262\337\362^\304\224\275\372\344"
 811      82052FB2 
 811      DFF25EC4 
 811      94BDFAE4 
 812 2979 FC5BF7DC 		.ascii	"\374[\367\334\326\200W^A\015G\253>}{\367\311\355\036"
 812      D680575E 
 812      410D47AB 
 812      3E7D7BF7 
 812      C9ED1E
 813 298c 845FEF53 		.ascii	"\204_\357S\242\371\275\241\370\301\334\356\177\351\231"
 813      A2F9BDA1 
 813      F8C1DCEE 
 813      7FE999
 814 299b D3BD1D77 		.ascii	"\323\275\035w\357\271>\371\005\336rh9\220\264uaI9\364"
 814      EFB93EF9 
 814      05DE7268 
 814      3990B475 
 814      614939F4 
 815 29af 73918A50 		.ascii	"s\221\212P\250\250\015\000\026UF_+|\255\220t\353m\362"
 815      A8A80D00 
 815      1655465F 
 815      2B7CAD90 
 815      74EB6DF2 
 816 29c3 0B7283B9 		.ascii	"\013r\203\271/\024\274\024\314y)\247W\367v=\272\345"
 816      2F14BC14 
 816      CC7929A7 
 816      57F7763D 
 816      BAE5
 817 29d5 1730DF83 		.ascii	"\0270\337\203\331\367k\357@\307\377\207V\004!\210\020"
 817      D9F76BEF 
 817      40C7FF87 
 817      56042188 
 817      10
 818 29e6 A444D469 		.ascii	"\244D\324i EG\303F\014\022\351P#~\270Cj&\030u\221\213"
 818      204547C3 
 818      460C12E9 
 818      50237EB8 
 818      436A2618 
 819 29fd 3F3C58D1 		.ascii	"?<X\321\007\177T\215\271\341\032\036Lht0\251tU#]}\272"
 819      077F548D 
 819      B9E11A1E 
 819      4C687430 
 819      A9745523 
 820 2a14 41330092 		.ascii	"A3\000\222\355\314\207\206\225\017\327\234\234<wA^\317"
 820      EDCC8786 
ARM GAS  /tmp/ccDCqrSF.s 			page 67


 820      950FD79C 
 820      9C3C7741 
 820      5ECF
 821 2a26 FCEEAE1E 		.ascii	"\374\356\256\036\320v\234\200\355'\335hq)\261\251\344"
 821      D0769C80 
 821      ED27DD68 
 821      7129B1A9 
 821      E4
 822 2a37 525E1975 		.ascii	"R^\031u\021[\354\216\016~\246\262\277;L\250_*,\244\312"
 822      115BEC8E 
 822      0E7EA6B2 
 822      BF3B4CA8 
 822      5F2A2CA4 
 823 2a4c E32F9506 		.ascii	"\343/\225\006\320\230\207\332e\037\232X\210dH\375*\373"
 823      D09887DA 
 823      651F9A58 
 823      886448FD 
 823      2AFB
 824 2a5e 070BCB2B 		.ascii	"\007\013\313+\241g\013g\2242_\200O\011@\372c\254T\211"
 824      A1670B67 
 824      94325F80 
 824      4F0940FA 
 824      63AC5489 
 825 2a72 85E3F7C2 		.ascii	"\205\343\367\302\352\275\270~\227F~\377D\346\223D\277"
 825      EABDB87E 
 825      97467EFF 
 825      44E69344 
 825      BF
 826 2a83 690C4441 		.ascii	"i\014DAu\332\011\336\206\257\004\332DA\250\264\302O"
 826      75DA09DE 
 826      86AF04DA 
 826      4441A8B4 
 826      C24F
 827 2a95 227D89C2 		.ascii	"\"}\211\302\372\220U@\360\205\225\310\357\355\350\\"
 827      FA905540 
 827      F08595C8 
 827      EFEDE85C 
 828 2aa5 24142E96 		.ascii	"$\024.\226J \273\214|\214Q6\356e\277\374\245w\201\373"
 828      4A20BB8C 
 828      7C8C5136 
 828      EE65BFFC 
 828      A57781FB 
 829 2ab9 D5707134 		.ascii	"\325pq4\344\"\006\317YQ\031u\016\010E]p\215\272 \022"
 829      E42206CF 
 829      59511975 
 829      0E08455D 
 829      708DBA20 
 830 2ace F5E08F51 		.ascii	"\365\340\217Q7\3715\352\034T\032}\302\226\225\305^\210"
 830      37F935EA 
 830      1C541A7D 
 830      C29695C5 
 830      5E88
 831 2ae0 18D93618 		.ascii	"\030\3316\030\013F\312+\303\304\300f\260_\333\322/\304"
 831      0B46CA2B 
 831      C3C4C066 
 831      B05FDBD2 
 831      2FC4
ARM GAS  /tmp/ccDCqrSF.s 			page 68


 832 2af2 AC87C0E6 		.ascii	"\254\207\300\346\203\326\3617\274\241\022\264\376\255"
 832      83D6F137 
 832      BCA112B4 
 832      FEAD
 833 2b00 E1AADEF3 		.ascii	"\341\252\336\363C\234\202S(E\263|p\033\243\344\367W"
 833      439C8253 
 833      2845B37C 
 833      701BA3E4 
 833      F757
 834 2b12 693F1A8A 		.ascii	"i?\032\212`j7>\347\217\024)\355\317\237\237\2534?/\304"
 834      606A373E 
 834      E78F1429 
 834      EDCF9F9F 
 834      AB343F2F 
 835 2b27 48EBF3C1 		.ascii	"H\353\363\301\025\033\237\2752b\207E\312xOq\031\310"
 835      151B9FBD 
 835      32628745 
 835      CA784F71 
 835      19C8
 836 2b39 4DED315B 		.ascii	"M\3551[\201[\244D}j\324\377\212\332\277BLQ\"\337+\301"
 836      815BA444 
 836      7D6AD4FF 
 836      8ADABF42 
 836      4C5122DF 
 837 2b4f 7E58B5EE 		.ascii	"~X\265\356W\202\321\362\012/<\022\256\210\206\341\032"
 837      5782D1F2 
 837      0A2F3C12 
 837      AE8886E1 
 837      1A
 838 2b60 2E82ABFF 		.ascii	".\202\253\377\225\262\362hq\377\327\000\345\225 \215"
 838      95B2F268 
 838      71FFD700 
 838      E595208D 
 839 2b70 7A5E0131 		.ascii	"z^\0011\224\375\335S\214\230m@\257\231l=\345\030q\024"
 839      94FDDD53 
 839      8C986D40 
 839      AF996C3D 
 839      E5187114 
 840 2b84 F77394F7 		.ascii	"\367s\224\367\273\347\205\374ny\005j\243q>\223G\372"
 840      BBE785FC 
 840      6E79056A 
 840      A3713E93 
 840      47FA
 841 2b96 A14EAE67 		.ascii	"\241N\256g\013\372\346\271+#R8\032\327\314H\361\223"
 841      0BFAE6B9 
 841      2B235238 
 841      1AD7CC48 
 841      F193
 842 2ba8 99833389 		.ascii	"\231\2033\211f\322X0\332N\211\200\036\226\227TF\301"
 842      66D25830 
 842      DA4E8980 
 842      1E969754 
 842      46C1
 843 2bba 9B753FD7 		.ascii	"\233u?\327\245 +\333\363\\VfAV'\270d\025de\301%\273"
 843      A5202BDB 
 843      F35C5666 
 843      415627B8 
ARM GAS  /tmp/ccDCqrSF.s 			page 69


 843      64156465 
 844 2bd1 20ABB313 		.ascii	" \253\263\023\236\362\014\014\201`\023\312\036-\255"
 844      9EF20C0C 
 844      816013CA 
 844      1E2DAD
 845 2be0 C87EF2F7 		.ascii	"\310~\362\367\350\302b,\230\310\255\037\334\350\202"
 845      E8C2622C 
 845      98C8AD1F 
 845      DCE882
 846 2bef B9D11828 		.ascii	"\271\321\030(D\\\347+\303!\261@\354\233\322{\030$A\337"
 846      445CE72B 
 846      C321B140 
 846      EC9BD27B 
 846      182441DF 
 847 2c03 5F19811F 		.ascii	"_\031\201\037\300\011\000\005\0004{\036\000\355\214"
 847      C0090005 
 847      00347B1E 
 847      00ED8C
 848 2c12 48C5DDFF 		.ascii	"H\305\335\377\214\024\011\345\207@peQh\031\264\363{"
 848      8C1409E5 
 848      87407065 
 848      516819B4 
 848      F37B
 849 2c24 50EF2634 		.ascii	"P\357&4\027\237\232\241\023\"\316\376\245\321\266\021"
 849      179F9AA1 
 849      1322CEFE 
 849      A5D1B611 
 850 2c34 A527429F 		.ascii	"\245'B\237\341\361B!\203\336(\300\357N)<@\363\004\264"
 850      E1F14221 
 850      83DE28C0 
 850      EF4E293C 
 850      40F304B4 
 851 2c48 06F60950 		.ascii	"\006\366\011P\305HI(TQ\0006\312\013\234\226\201z(\020"
 851      C5484928 
 851      54510036 
 851      CA0B9C96 
 851      817A2810 
 852 2c5c B9525402 		.ascii	"\271RT\002\377\025|\036o\024\014\3033\245\025x\005a"
 852      FF157C1E 
 852      6F140CC3 
 852      33A51578 
 852      0561
 853 2c6e E2352F5A 		.ascii	"\3425/Z\324\212\\{\2431\361U\020\361\3013~\214\364\256"
 853      D48A5C7B 
 853      A331F155 
 853      10F1C133 
 853      7E8CF4AE 
 854 2c82 185CDA9A 		.ascii	"\030\\\332\232\306\360g\357\300\312\322\242\236eQ\274"
 854      C6F067EF 
 854      C0CAD2A2 
 854      9E6551BC 
 855 2c92 761F1CF5 		.ascii	"v\037\034\365\221\353\023\231\2352]`\003_$\344%B\376"
 855      91EB1399 
 855      9D325D60 
 855      035F24E4 
 855      2542FE
 856 2ca5 EA0243F8 		.ascii	"\352\002C\370\"!/\021\362WW\021\360\340\241\325\344"
ARM GAS  /tmp/ccDCqrSF.s 			page 70


 856      22212F11 
 856      F2575711 
 856      F0E0A1D5 
 856      E4
 857 2cb6 A1BDB287 		.ascii	"\241\275\262\207\032/?\010!\037t$;\323\017\315\213\306"
 857      1A2F3F08 
 857      211F7424 
 857      3BD30FCD 
 857      8BC6
 858 2cc8 3CB4AADB 		.ascii	"<\264\252\333\262\345\313\007\255\2665\004\004\211\021"
 858      B2E5CB07 
 858      ADB63504 
 858      048911
 859 2cd7 57709084 		.ascii	"Wp\220\204\255\275M08\240\254\2620\250|m\375\257\375"
 859      ADBD4D30 
 859      38A0ACB2 
 859      30A87C6D 
 859      FDAFFD
 860 2cea 2A8B4BA2 		.ascii	"*\213K\242\277+.{J\000/X\271\013\203\243A\264V\300\245"
 860      BF2B2E7B 
 860      4A002F58 
 860      B90B83A3 
 860      41B456C0 
 861 2cff 2D185894 		.ascii	"-\030X\224O\004\372\002T\\I\253\307;\366+\227\302D\352"
 861      4F04FA02 
 861      545C49AB 
 861      C73BF62B 
 861      97C244EA 
 862 2d13 AD31921F 		.ascii	"\2551\222\037\212\366\352\236KF\205t\234\026}P\3615"
 862      8AF6EA9E 
 862      4B468574 
 862      9C167D50 
 862      F135
 863 2d25 08AFDD0A 		.ascii	"\010\257\335\012\013C0\312\221\210\272\377B\261\321"
 863      0B4330CA 
 863      9188BAFF 
 863      42B1D1
 864 2d34 E4BEAA99 		.ascii	"\344\276\252\231\304<\223\237!\372\263x\373\220\212"
 864      C43C939F 
 864      21FAB378 
 864      FB908A
 865 2d43 98DBF731 		.ascii	"\230\333\3671\267\237\253,-.*\216\276\3663\245\001\030"
 865      B79FAB2C 
 865      2D2E2A8E 
 865      BEF633A5 
 865      0118
 866 2d55 3C4ADB4D 		.ascii	"<J\333M\3672\251_I\250U\202\375\007\225\237#\241\350"
 866      F732A95F 
 866      49A85582 
 866      FD07959F 
 866      23A1E8
 867 2d68 73F8444E 		.ascii	"s\370DNe\030\374\323hk\245\315\024\227\025G[+\274c\\"
 867      6518FCD3 
 867      686BA5CD 
 867      14971547 
 867      5B2BBC63 
 868 2d7d E117E34A 		.ascii	"\341\027\343JZ\214+\271\223\270\017\272\305\374(4|\020"
ARM GAS  /tmp/ccDCqrSF.s 			page 71


 868      5A8C2BB9 
 868      93B80FBA 
 868      C5FC2834 
 868      7C10
 869 2d8f 53EFE8E0 		.ascii	"S\357\350\340>\375\376\006.ZO\370\301Mf9\262\374R\231"
 869      3EFDFE06 
 869      2E5A4FF8 
 869      C14D6639 
 869      B2FC5299 
 870 2da3 54523EE0 		.ascii	"TR>\340\331p\305=4\226OG\360=\323q\234\320\366\200\353"
 870      D970C53D 
 870      34964F47 
 870      F03DD371 
 870      9CD0F680 
 871 2db8 447B21C5 		.ascii	"D{!\305{r\346\347>\341&\036T\026\322N\336\020p\224\323"
 871      7B72E6E7 
 871      3EE1261E 
 871      5416D24E 
 871      DE107094 
 872 2dcd 7F80B798 		.ascii	"\177\200\267\230^\335\271\335\237y\341Y\333\256,\311"
 872      5EDDB9DD 
 872      9F79E159 
 872      DBAE2CC9 
 873 2ddd AFA0676F 		.ascii	"\257\240go\222\033:\233\320\337\223\012\217\177\001"
 873      921B3A9B 
 873      D0DF930A 
 873      8F7F01
 874 2dec 1723BF37 		.ascii	"\027#\2777x\261\271=\273\3479\273?\233\347\316\311\351"
 874      78B1B93D 
 874      BBE739BB 
 874      3F9BE7CE 
 874      C9E9
 875 2dfe 0DAE37A1 		.ascii	"\015\2567\241\331\256\234\034\270\231\363|\201\263o"
 875      D9AE9C1C 
 875      B899F37C 
 875      81B36F
 876 2e0d 7E8EB31B 		.ascii	"~\216\263\033\330\310<x\362\031\342\357\346\222$\275"
 876      D8C83C78 
 876      F219E2EF 
 876      E69224BD 
 877 2e1d BBE539FA 		.ascii	"\273\3459\372\320\024\235\340\331\027\363r~\014w\212"
 877      D0149DE0 
 877      D917F372 
 877      7E0C778A 
 878 2e2d 1CDAD358 		.ascii	"\034\332\323X\020\372X\265#\370\177\357n\335\325"
 878      10FA58B5 
 878      23F87FEF 
 878      6EDDD5
 879              		.text
 880              		.section	.gnu.lto_.symtab.326a91b3b6ba4b99,"",%progbits
 881 0000 73656E73 		.ascii	"sensorThread\000\000\000\000\000\000\000\000\000\000"
 881      6F725468 
 881      72656164 
 881      00000000 
 881      00000000 
 882 0016 0000F103 		.ascii	"\000\000\361\003\000\000sensorThreadStop\000\000\000"
 882      00007365 
ARM GAS  /tmp/ccDCqrSF.s 			page 72


 882      6E736F72 
 882      54687265 
 882      61645374 
 883 002f 00000000 		.ascii	"\000\000\000\000\000\000\000\000\000\366\003\000\000"
 883      00000000 
 883      00F60300 
 883      00
 884 003c 53443600 		.ascii	"SD6\000\000\002\000\000\000\000\000\000\000\000\000"
 884      00020000 
 884      00000000 
 884      000000
 885 004b B2040000 		.ascii	"\262\004\000\000I2CD1\000\000\002\000\000\000\000\000"
 885      49324344 
 885      31000002 
 885      00000000 
 885      00
 886 005c 00000000 		.ascii	"\000\000\000\000\264\004\000\000I2CD3\000\000\002\000"
 886      B4040000 
 886      49324344 
 886      33000002 
 886      00
 887 006d 00000000 		.ascii	"\000\000\000\000\000\000\000\000\266\004\000\000ADC"
 887      00000000 
 887      B6040000 
 887      414443
 888 007c 44310000 		.ascii	"D1\000\000\002\000\000\000\000\000\000\000\000\000\253"
 888      02000000 
 888      00000000 
 888      0000AB
 889 008b 04000063 		.ascii	"\004\000\000chvprintf\000\000\002\000\000\000\000\000"
 889      68767072 
 889      696E7466 
 889      00000200 
 889      00000000 
 890 009f 00000000 		.ascii	"\000\000\000\000>\004\000\000chThdSleepUntil\000\000"
 890      3E040000 
 890      63685468 
 890      64536C65 
 890      6570556E 
 891 00b8 02000000 		.ascii	"\002\000\000\000\000\000\000\000\000\000M\004\000\000"
 891      00000000 
 891      00004D04 
 891      0000
 892 00c6 626F6172 		.ascii	"boardSetLED\000\000\002\000\000\000\000\000\000\000"
 892      64536574 
 892      4C454400 
 892      00020000 
 892      00000000 
 893 00db 00005104 		.ascii	"\000\000Q\004\000\000adcConvert\000\000\002\000\000"
 893      00006164 
 893      63436F6E 
 893      76657274 
 893      00000200 
 894 00f0 00000000 		.ascii	"\000\000\000\000\000\000\000U\004\000\000lsm303_rea"
 894      00000055 
 894      0400006C 
 894      736D3330 
ARM GAS  /tmp/ccDCqrSF.s 			page 73


 894      335F7265 
 895 0105 64416363 		.ascii	"dAcceleration\000\000\002\000\000\000\000\000\000\000"
 895      656C6572 
 895      6174696F 
 895      6E000002 
 895      00000000 
 896 011c 00005C04 		.ascii	"\000\000\\\004\000\000ms5607_readPressureTemperatur"
 896      00006D73 
 896      35363037 
 896      5F726561 
 896      64507265 
 897 013f 65000002 		.ascii	"e\000\000\002\000\000\000\000\000\000\000\000\000b\004"
 897      00000000 
 897      00000000 
 897      006204
 898 014e 00007369 		.ascii	"\000\000si70x0_readTemperature\000\000\002\000\000\000"
 898      37307830 
 898      5F726561 
 898      6454656D 
 898      70657261 
 899 016c 00000000 		.ascii	"\000\000\000\000\000\000i\004\000\000si70x0_readHum"
 899      00006904 
 899      00007369 
 899      37307830 
 899      5F726561 
 900 0184 69646974 		.ascii	"idity\000\000\002\000\000\000\000\000\000\000\000\000"
 900      79000002 
 900      00000000 
 900      00000000 
 900      00
 901 0195 6F040000 		.ascii	"o\004\000\000tmp275_readTemperature\000\000\002\000"
 901      746D7032 
 901      37355F72 
 901      65616454 
 901      656D7065 
 902 01b3 00000000 		.ascii	"\000\000\000\000\000\000\000\000q\004\000\000si70x0"
 902      00000000 
 902      71040000 
 902      73693730 
 902      7830
 903 01c5 5F686561 		.ascii	"_heaterEnable\000\000\002\000\000\000\000\000\000\000"
 903      74657245 
 903      6E61626C 
 903      65000002 
 903      00000000 
 904 01dc 00007704 		.ascii	"\000\000w\004\000\000chThdSleep\000\000\002\000\000"
 904      00006368 
 904      54686453 
 904      6C656570 
 904      00000200 
 905 01f1 00000000 		.ascii	"\000\000\000\000\000\000\000|\004\000\000si70x0_set"
 905      0000007C 
 905      04000073 
 905      69373078 
 905      305F7365 
 906 0206 48656174 		.ascii	"HeaterCurrent\000\000\002\000\000\000\000\000\000\000"
 906      65724375 
ARM GAS  /tmp/ccDCqrSF.s 			page 74


 906      7272656E 
 906      74000002 
 906      00000000 
 907 021d 00007E04 		.ascii	"\000\000~\004\000\000bmp280_init\000\000\002\000\000"
 907      0000626D 
 907      70323830 
 907      5F696E69 
 907      74000002 
 908 0233 00000000 		.ascii	"\000\000\000\000\000\000\000\203\004\000\000lsm303_"
 908      00000083 
 908      0400006C 
 908      736D3330 
 908      335F
 909 0245 696E6974 		.ascii	"init\000\000\002\000\000\000\000\000\000\000\000\000"
 909      00000200 
 909      00000000 
 909      00000000 
 910 0255 8A040000 		.ascii	"\212\004\000\000ms5607_init\000\000\002\000\000\000"
 910      6D733536 
 910      30375F69 
 910      6E697400 
 910      00020000 
 911 026a 00000000 		.ascii	"\000\000\000\000\000\000\221\004\000\000si70x0_init"
 911      00009104 
 911      00007369 
 911      37307830 
 911      5F696E69 
 912 027f 00000200 		.ascii	"\000\000\002\000\000\000\000\000\000\000\000\000\227"
 912      00000000 
 912      00000000 
 912      97
 913 028c 04000074 		.ascii	"\004\000\000tmp275_init\000\000\002\000\000\000\000"
 913      6D703237 
 913      355F696E 
 913      69740000 
 913      02000000 
 914 02a1 00000000 		.ascii	"\000\000\000\000\000\234\004\000\000i2cStart\000\000"
 914      009C0400 
 914      00693263 
 914      53746172 
 914      740000
 915 02b4 02000000 		.ascii	"\002\000\000\000\000\000\000\000\000\000\242\004\000"
 915      00000000 
 915      0000A204 
 915      00
 916 02c1 0063684D 		.ascii	"\000chMtxObjectInit\000\000\002\000\000\000\000\000"
 916      74784F62 
 916      6A656374 
 916      496E6974 
 916      00000200 
 917 02d9 00000000 		.ascii	"\000\000\000\000\247\004\000\000"
 917      A7040000 
 918              		.text
 919              		.section	.gnu.lto_.opts,"",%progbits
 920 0000 272D6D63 		.ascii	"'-mcpu=cortex-m4' '-mfloat-abi=hard' '-mfpu=fpv4-sp"
 920      70753D63 
 920      6F727465 
ARM GAS  /tmp/ccDCqrSF.s 			page 75


 920      782D6D34 
 920      2720272D 
 921 0033 2D643136 		.ascii	"-d16' '-mno-thumb-interwork' '-mthumb' '-O2' '-fomi"
 921      2720272D 
 921      6D6E6F2D 
 921      7468756D 
 921      622D696E 
 922 0066 742D6672 		.ascii	"t-frame-pointer' '-falign-functions=16' '-ffunction"
 922      616D652D 
 922      706F696E 
 922      74657227 
 922      20272D66 
 923 0099 2D736563 		.ascii	"-sections' '-fdata-sections' '-fno-common' '-flto' "
 923      74696F6E 
 923      73272027 
 923      2D666461 
 923      74612D73 
 924 00cc 272D6673 		.ascii	"'-fsingle-precision-constant'\000"
 924      696E676C 
 924      652D7072 
 924      65636973 
 924      696F6E2D 
 925              		.text
 926              		.section	.text.chprintf.constprop.0,"ax",%progbits
 927              		.align	2
 928              		.p2align 4,,15
 929              		.thumb
 930              		.thumb_func
 931              		.type	chprintf.constprop.0, %function
 932              	chprintf.constprop.0:
 933              		@ args = 4, pretend = 12, frame = 8
 934              		@ frame_needed = 0, uses_anonymous_args = 1
 935 0000 0EB4     		push	{r1, r2, r3}
 936 0002 00B5     		push	{lr}
 937 0004 82B0     		sub	sp, sp, #8
 938 0006 03AA     		add	r2, sp, #12
 939 0008 0548     		ldr	r0, .L2
 940 000a 52F8041B 		ldr	r1, [r2], #4
 941 000e 0192     		str	r2, [sp, #4]
 942 0010 FFF7FEFF 		bl	chvprintf
 943 0014 02B0     		add	sp, sp, #8
 944              		@ sp needed
 945 0016 5DF804EB 		ldr	lr, [sp], #4
 946 001a 03B0     		add	sp, sp, #12
 947 001c 7047     		bx	lr
 948              	.L3:
 949 001e 00BF     		.align	2
 950              	.L2:
 951 0020 00000000 		.word	SD6
 952              		.size	chprintf.constprop.0, .-chprintf.constprop.0
 953              		.global	__aeabi_f2d
 954 0024 AFF30080 		.section	.text.sensorThread,"ax",%progbits
 954      AFF30080 
 954      AFF30080 
 955              		.align	2
 956              		.p2align 4,,15
 957              		.global	sensorThread
ARM GAS  /tmp/ccDCqrSF.s 			page 76


 958              		.thumb
 959              		.thumb_func
 960              		.type	sensorThread, %function
 961              	sensorThread:
 962              		@ args = 0, pretend = 0, frame = 32
 963              		@ frame_needed = 0, uses_anonymous_args = 0
 964 0000 2DE9F04F 		push	{r4, r5, r6, r7, r8, r9, r10, fp, lr}
 965 0004 0125     		movs	r5, #1
 966 0006 8BB0     		sub	sp, sp, #44
 967 0008 0446     		mov	r4, r0
 968 000a 8570     		strb	r5, [r0, #2]
 969 000c 0430     		adds	r0, r0, #4
 970 000e FFF7FEFF 		bl	chMtxObjectInit
 971 0012 6A4B     		ldr	r3, .L19
 972 0014 6A4A     		ldr	r2, .L19+4
 973 0016 6B48     		ldr	r0, .L19+8
 974 0018 6B49     		ldr	r1, .L19+12
 975 001a 1A60     		str	r2, [r3]
 976 001c 04F5F478 		add	r8, r4, #488
 977 0020 FFF7FEFF 		bl	i2cStart
 978 0024 6948     		ldr	r0, .L19+16
 979 0026 6A49     		ldr	r1, .L19+20
 980 0028 FFF7FEFF 		bl	i2cStart
 981 002c 04F5DC76 		add	r6, r4, #440
 982 0030 4822     		movs	r2, #72
 983 0032 4046     		mov	r0, r8
 984 0034 6549     		ldr	r1, .L19+16
 985 0036 FFF7FEFF 		bl	tmp275_init
 986 003a 04F5C477 		add	r7, r4, #392
 987 003e 3046     		mov	r0, r6
 988 0040 6249     		ldr	r1, .L19+16
 989 0042 FFF7FEFF 		bl	si70x0_init
 990 0046 04F5A079 		add	r9, r4, #320
 991 004a 3846     		mov	r0, r7
 992 004c 5D49     		ldr	r1, .L19+8
 993 004e FFF7FEFF 		bl	si70x0_init
 994 0052 04F1C80A 		add	r10, r4, #200
 995 0056 5D49     		ldr	r1, .L19+16
 996 0058 7722     		movs	r2, #119
 997 005a 4846     		mov	r0, r9
 998 005c FFF7FEFF 		bl	ms5607_init
 999 0060 1E23     		movs	r3, #30
 1000 0062 5849     		ldr	r1, .L19+8
 1001 0064 1D22     		movs	r2, #29
 1002 0066 5046     		mov	r0, r10
 1003 0068 FFF7FEFF 		bl	lsm303_init
 1004 006c 7622     		movs	r2, #118
 1005 006e 04F15C00 		add	r0, r4, #92
 1006 0072 5449     		ldr	r1, .L19+8
 1007 0074 FFF7FEFF 		bl	bmp280_init
 1008 0078 0B21     		movs	r1, #11
 1009 007a 3846     		mov	r0, r7
 1010 007c FFF7FEFF 		bl	si70x0_setHeaterCurrent
 1011 0080 2946     		mov	r1, r5
 1012 0082 3846     		mov	r0, r7
 1013 0084 FFF7FEFF 		bl	si70x0_heaterEnable
 1014 0088 0B21     		movs	r1, #11
ARM GAS  /tmp/ccDCqrSF.s 			page 77


 1015 008a 3046     		mov	r0, r6
 1016 008c FFF7FEFF 		bl	si70x0_setHeaterCurrent
 1017 0090 2946     		mov	r1, r5
 1018 0092 3046     		mov	r0, r6
 1019 0094 FFF7FEFF 		bl	si70x0_heaterEnable
 1020 0098 4FF47A70 		mov	r0, #1000
 1021 009c FFF7FEFF 		bl	chThdSleep
 1022 00a0 0021     		movs	r1, #0
 1023 00a2 3846     		mov	r0, r7
 1024 00a4 FFF7FEFF 		bl	si70x0_heaterEnable
 1025 00a8 0021     		movs	r1, #0
 1026 00aa 3046     		mov	r0, r6
 1027 00ac FFF7FEFF 		bl	si70x0_heaterEnable
 1028 00b0 4FF08041 		mov	r1, #1073741824
 1029 00b4 A278     		ldrb	r2, [r4, #2]	@ zero_extendqisi2
 1030 00b6 4D6A     		ldr	r5, [r1, #36]
 1031 00b8 0023     		movs	r3, #0
 1032 00ba 2363     		str	r3, [r4, #48]	@ float
 1033 00bc 6363     		str	r3, [r4, #52]	@ float
 1034 00be 002A     		cmp	r2, #0
 1035 00c0 66D0     		beq	.L13
 1036 00c2 04F13003 		add	r3, r4, #48
 1037 00c6 0493     		str	r3, [sp, #16]
 1038 00c8 04F13403 		add	r3, r4, #52
 1039 00cc 0593     		str	r3, [sp, #20]
 1040 00ce 04F12C03 		add	r3, r4, #44
 1041 00d2 0693     		str	r3, [sp, #24]
 1042 00d4 04F12003 		add	r3, r4, #32
 1043 00d8 04F1180B 		add	fp, r4, #24
 1044 00dc 0793     		str	r3, [sp, #28]
 1045 00de 3CE0     		b	.L11
 1046              	.L6:
 1047 00e0 0499     		ldr	r1, [sp, #16]
 1048 00e2 3846     		mov	r0, r7
 1049 00e4 FFF7FEFF 		bl	si70x0_readHumidity
 1050 00e8 3846     		mov	r0, r7
 1051 00ea 08A9     		add	r1, sp, #32
 1052 00ec FFF7FEFF 		bl	si70x0_readTemperature
 1053 00f0 0028     		cmp	r0, #0
 1054 00f2 51D0     		beq	.L17
 1055              	.L7:
 1056 00f4 0599     		ldr	r1, [sp, #20]
 1057 00f6 3046     		mov	r0, r6
 1058 00f8 FFF7FEFF 		bl	si70x0_readHumidity
 1059 00fc 09A9     		add	r1, sp, #36
 1060 00fe 3046     		mov	r0, r6
 1061 0100 FFF7FEFF 		bl	si70x0_readTemperature
 1062 0104 606B     		ldr	r0, [r4, #52]	@ float
 1063 0106 FFF7FEFF 		bl	__aeabi_f2d
 1064 010a 0246     		mov	r2, r0
 1065 010c 0998     		ldr	r0, [sp, #36]	@ float
 1066 010e 0392     		str	r2, [sp, #12]
 1067 0110 0291     		str	r1, [sp, #8]
 1068 0112 FFF7FEFF 		bl	__aeabi_f2d
 1069 0116 029B     		ldr	r3, [sp, #8]
 1070 0118 039A     		ldr	r2, [sp, #12]
 1071 011a CDE90001 		strd	r0, [sp]
ARM GAS  /tmp/ccDCqrSF.s 			page 78


 1072 011e 2D49     		ldr	r1, .L19+24
 1073 0120 2748     		ldr	r0, .L19+4
 1074 0122 FFF7FEFF 		bl	chprintf.constprop.0
 1075 0126 079A     		ldr	r2, [sp, #28]
 1076 0128 0699     		ldr	r1, [sp, #24]
 1077 012a 4846     		mov	r0, r9
 1078 012c FFF7FEFF 		bl	ms5607_readPressureTemperature
 1079 0130 0121     		movs	r1, #1
 1080 0132 5046     		mov	r0, r10
 1081 0134 FFF7FEFF 		bl	lsm303_readAcceleration
 1082 0138 274A     		ldr	r2, .L19+28
 1083 013a 2849     		ldr	r1, .L19+32
 1084 013c 2848     		ldr	r0, .L19+36
 1085 013e 3223     		movs	r3, #50
 1086 0140 FFF7FEFF 		bl	adcConvert
 1087 0144 0020     		movs	r0, #0
 1088 0146 FFF7FEFF 		bl	boardSetLED
 1089 014a 4FF08043 		mov	r3, #1073741824
 1090 014e 5A6A     		ldr	r2, [r3, #36]
 1091 0150 9542     		cmp	r5, r2
 1092 0152 17D8     		bhi	.L18
 1093 0154 5D6A     		ldr	r5, [r3, #36]
 1094 0156 A378     		ldrb	r3, [r4, #2]	@ zero_extendqisi2
 1095 0158 D3B1     		cbz	r3, .L13
 1096              	.L11:
 1097 015a 0120     		movs	r0, #1
 1098 015c FFF7FEFF 		bl	boardSetLED
 1099 0160 4046     		mov	r0, r8
 1100 0162 5946     		mov	r1, fp
 1101 0164 05F57A75 		add	r5, r5, #1000
 1102 0168 FFF7FEFF 		bl	tmp275_readTemperature
 1103 016c 0028     		cmp	r0, #0
 1104 016e B7D1     		bne	.L6
 1105 0170 A069     		ldr	r0, [r4, #24]	@ float
 1106 0172 FFF7FEFF 		bl	__aeabi_f2d
 1107 0176 0246     		mov	r2, r0
 1108 0178 0B46     		mov	r3, r1
 1109 017a 1148     		ldr	r0, .L19+4
 1110 017c 1949     		ldr	r1, .L19+40
 1111 017e FFF7FEFF 		bl	chprintf.constprop.0
 1112 0182 ADE7     		b	.L6
 1113              	.L18:
 1114 0184 2846     		mov	r0, r5
 1115 0186 FFF7FEFF 		bl	chThdSleepUntil
 1116 018a A378     		ldrb	r3, [r4, #2]	@ zero_extendqisi2
 1117 018c 002B     		cmp	r3, #0
 1118 018e E4D1     		bne	.L11
 1119              	.L13:
 1120 0190 0020     		movs	r0, #0
 1121 0192 0BB0     		add	sp, sp, #44
 1122              		@ sp needed
 1123 0194 BDE8F08F 		pop	{r4, r5, r6, r7, r8, r9, r10, fp, pc}
 1124              	.L17:
 1125 0198 206B     		ldr	r0, [r4, #48]	@ float
 1126 019a FFF7FEFF 		bl	__aeabi_f2d
 1127 019e 0246     		mov	r2, r0
 1128 01a0 0898     		ldr	r0, [sp, #32]	@ float
ARM GAS  /tmp/ccDCqrSF.s 			page 79


 1129 01a2 0392     		str	r2, [sp, #12]
 1130 01a4 0291     		str	r1, [sp, #8]
 1131 01a6 FFF7FEFF 		bl	__aeabi_f2d
 1132 01aa 039A     		ldr	r2, [sp, #12]
 1133 01ac 029B     		ldr	r3, [sp, #8]
 1134 01ae CDE90001 		strd	r0, [sp]
 1135 01b2 0D49     		ldr	r1, .L19+44
 1136 01b4 0248     		ldr	r0, .L19+4
 1137 01b6 FFF7FEFF 		bl	chprintf.constprop.0
 1138 01ba 9BE7     		b	.L7
 1139              	.L20:
 1140              		.align	2
 1141              	.L19:
 1142 01bc 00000000 		.word	.LANCHOR0
 1143 01c0 00000000 		.word	SD6
 1144 01c4 00000000 		.word	I2CD1
 1145 01c8 00000000 		.word	.LANCHOR1
 1146 01cc 00000000 		.word	I2CD3
 1147 01d0 00000000 		.word	.LANCHOR2
 1148 01d4 28000000 		.word	.LC2
 1149 01d8 00000000 		.word	.LANCHOR4
 1150 01dc 00000000 		.word	.LANCHOR3
 1151 01e0 00000000 		.word	ADCD1
 1152 01e4 00000000 		.word	.LC0
 1153 01e8 10000000 		.word	.LC1
 1154              		.size	sensorThread, .-sensorThread
 1155 01ec AFF30080 		.section	.text.sensorThreadStop,"ax",%progbits
 1156              		.align	2
 1157              		.p2align 4,,15
 1158              		.global	sensorThreadStop
 1159              		.thumb
 1160              		.thumb_func
 1161              		.type	sensorThreadStop, %function
 1162              	sensorThreadStop:
 1163              		@ args = 0, pretend = 0, frame = 0
 1164              		@ frame_needed = 0, uses_anonymous_args = 0
 1165              		@ link register save eliminated.
 1166 0000 0346     		mov	r3, r0
 1167 0002 0022     		movs	r2, #0
 1168 0004 9A70     		strb	r2, [r3, #2]
 1169 0006 7047     		bx	lr
 1170              		.size	sensorThreadStop, .-sensorThreadStop
 1171 0008 AFF30080 		.section	.bss.analogSamples,"aw",%nobits
 1171      AFF30080 
 1172              		.align	2
 1173              		.set	.LANCHOR4,. + 0
 1174              		.type	analogSamples, %object
 1175              		.size	analogSamples, 300
 1176              	analogSamples:
 1177 0000 00000000 		.space	300
 1177      00000000 
 1177      00000000 
 1177      00000000 
 1177      00000000 
 1178              		.section	.bss.DEBUG,"aw",%nobits
 1179              		.align	2
 1180              		.set	.LANCHOR0,. + 0
ARM GAS  /tmp/ccDCqrSF.s 			page 80


 1181              		.type	DEBUG, %object
 1182              		.size	DEBUG, 4
 1183              	DEBUG:
 1184 0000 00000000 		.space	4
 1185              		.section	.rodata.analogGrp,"a",%progbits
 1186              		.align	2
 1187              		.set	.LANCHOR3,. + 0
 1188              		.type	analogGrp, %object
 1189              		.size	analogGrp, 40
 1190              	analogGrp:
 1191 0000 00       		.byte	0
 1192 0001 00       		.space	1
 1193 0002 0300     		.short	3
 1194 0004 00000000 		.word	0
 1195 0008 00000000 		.word	0
 1196 000c 00000000 		.word	0
 1197 0010 00000040 		.word	1073741824
 1198 0014 1B000000 		.word	27
 1199 0018 03000000 		.word	3
 1200 001c 00002000 		.word	2097152
 1201 0020 00000000 		.word	0
 1202 0024 402D0000 		.word	11584
 1203              		.section	.rodata.ei2cCfg,"a",%progbits
 1204              		.align	2
 1205              		.set	.LANCHOR2,. + 0
 1206              		.type	ei2cCfg, %object
 1207              		.size	ei2cCfg, 12
 1208              	ei2cCfg:
 1209 0000 01       		.byte	1
 1210 0001 000000   		.space	3
 1211 0004 A0860100 		.word	100000
 1212 0008 02       		.byte	2
 1213 0009 000000   		.space	3
 1214              		.section	.rodata.str1.4,"aMS",%progbits,1
 1215              		.align	2
 1216              	.LC0:
 1217 0000 45585445 		.ascii	"EXTEMP:%.2fC\012\000"
 1217      4D503A25 
 1217      2E326643 
 1217      0A00
 1218 000e 0000     		.space	2
 1219              	.LC1:
 1220 0010 4948554D 		.ascii	"IHUM:%.1f%% TEMP:%.2fC\012\000"
 1220      3A252E31 
 1220      66252520 
 1220      54454D50 
 1220      3A252E32 
 1221              	.LC2:
 1222 0028 4548554D 		.ascii	"EHUM:%.1f%% ETMP:%.2fC\012\000"
 1222      3A252E31 
 1222      66252520 
 1222      45544D50 
 1222      3A252E32 
 1223              		.section	.rodata.ii2cCfg,"a",%progbits
 1224              		.align	2
 1225              		.set	.LANCHOR1,. + 0
 1226              		.type	ii2cCfg, %object
ARM GAS  /tmp/ccDCqrSF.s 			page 81


 1227              		.size	ii2cCfg, 12
 1228              	ii2cCfg:
 1229 0000 01       		.byte	1
 1230 0001 000000   		.space	3
 1231 0004 A0860100 		.word	100000
 1232 0008 02       		.byte	2
 1233 0009 000000   		.space	3
 1234              		.comm	__gnu_lto_v1,1,1
 1235              		.ident	"GCC: (GNU Tools for ARM Embedded Processors) 4.8.4 20140526 (release) [ARM/embedded-4_8-br
ARM GAS  /tmp/ccDCqrSF.s 			page 82


DEFINED SYMBOLS
                            *ABS*:0000000000000000 sensor_thread.c
     /tmp/ccDCqrSF.s:927    .text.chprintf.constprop.0:0000000000000000 $t
     /tmp/ccDCqrSF.s:932    .text.chprintf.constprop.0:0000000000000000 chprintf.constprop.0
     /tmp/ccDCqrSF.s:951    .text.chprintf.constprop.0:0000000000000020 $d
     /tmp/ccDCqrSF.s:955    .text.sensorThread:0000000000000000 $t
     /tmp/ccDCqrSF.s:961    .text.sensorThread:0000000000000000 sensorThread
     /tmp/ccDCqrSF.s:1142   .text.sensorThread:00000000000001bc $d
     /tmp/ccDCqrSF.s:1156   .text.sensorThreadStop:0000000000000000 $t
     /tmp/ccDCqrSF.s:1162   .text.sensorThreadStop:0000000000000000 sensorThreadStop
     /tmp/ccDCqrSF.s:1172   .bss.analogSamples:0000000000000000 $d
     /tmp/ccDCqrSF.s:1176   .bss.analogSamples:0000000000000000 analogSamples
     /tmp/ccDCqrSF.s:1179   .bss.DEBUG:0000000000000000 $d
     /tmp/ccDCqrSF.s:1183   .bss.DEBUG:0000000000000000 DEBUG
     /tmp/ccDCqrSF.s:1186   .rodata.analogGrp:0000000000000000 $d
     /tmp/ccDCqrSF.s:1190   .rodata.analogGrp:0000000000000000 analogGrp
     /tmp/ccDCqrSF.s:1204   .rodata.ei2cCfg:0000000000000000 $d
     /tmp/ccDCqrSF.s:1208   .rodata.ei2cCfg:0000000000000000 ei2cCfg
     /tmp/ccDCqrSF.s:1215   .rodata.str1.4:0000000000000000 $d
     /tmp/ccDCqrSF.s:1224   .rodata.ii2cCfg:0000000000000000 $d
     /tmp/ccDCqrSF.s:1228   .rodata.ii2cCfg:0000000000000000 ii2cCfg
                            *COM*:0000000000000001 __gnu_lto_v1
     /tmp/ccDCqrSF.s:954    .text.chprintf.constprop.0:0000000000000024 $t
     /tmp/ccDCqrSF.s:1155   .text.sensorThread:00000000000001ec $t

UNDEFINED SYMBOLS
chvprintf
SD6
__aeabi_f2d
chMtxObjectInit
i2cStart
tmp275_init
si70x0_init
ms5607_init
lsm303_init
bmp280_init
si70x0_setHeaterCurrent
si70x0_heaterEnable
chThdSleep
si70x0_readHumidity
si70x0_readTemperature
ms5607_readPressureTemperature
lsm303_readAcceleration
adcConvert
boardSetLED
tmp275_readTemperature
chThdSleepUntil
I2CD1
I2CD3
ADCD1
